
tests2.0/16-part2-test6.elf:     file format elf32-littlearm


Disassembly of section .text:

00008000 <__code_start__>:
    8000:	e3a00013 	mov	r0, #19
    8004:	e129f000 	msr	CPSR_fc, r0
    8008:	e3a01000 	mov	r1, #0
    800c:	ee073f95 	mcr	15, 0, r3, cr7, cr5, {4}
    8010:	e3a0d302 	mov	sp, #134217728	; 0x8000000
    8014:	e3a0b000 	mov	fp, #0
    8018:	eb000545 	bl	9534 <_cstart>
    801c:	eb0005ad 	bl	96d8 <rpi_reboot>

00008020 <cnt_A>:
    8020:	e52de004 	push	{lr}		; (str lr, [sp, #-4]!)
    8024:	e24dd00c 	sub	sp, sp, #12
    8028:	e59f007c 	ldr	r0, [pc, #124]	; 80ac <cnt_A+0x8c>
    802c:	eb0001b4 	bl	8704 <sys_try_lock_asm>
    8030:	e3500000 	cmp	r0, #0
    8034:	1a000006 	bne	8054 <cnt_A+0x34>
    8038:	eb0003b5 	bl	8f14 <rpi_reset_putc>
    803c:	e59f006c 	ldr	r0, [pc, #108]	; 80b0 <cnt_A+0x90>
    8040:	e59f106c 	ldr	r1, [pc, #108]	; 80b4 <cnt_A+0x94>
    8044:	e59f206c 	ldr	r2, [pc, #108]	; 80b8 <cnt_A+0x98>
    8048:	e3a0300c 	mov	r3, #12
    804c:	eb000395 	bl	8ea8 <printk>
    8050:	eb00052c 	bl	9508 <clean_reboot>
    8054:	e59f3060 	ldr	r3, [pc, #96]	; 80bc <cnt_A+0x9c>
    8058:	e5932000 	ldr	r2, [r3]
    805c:	e2822001 	add	r2, r2, #1
    8060:	e5832000 	str	r2, [r3]
    8064:	e59f3040 	ldr	r3, [pc, #64]	; 80ac <cnt_A+0x8c>
    8068:	e5933000 	ldr	r3, [r3]
    806c:	e3530001 	cmp	r3, #1
    8070:	0a000008 	beq	8098 <cnt_A+0x78>
    8074:	eb0003a6 	bl	8f14 <rpi_reset_putc>
    8078:	e59f3040 	ldr	r3, [pc, #64]	; 80c0 <cnt_A+0xa0>
    807c:	e58d3000 	str	r3, [sp]
    8080:	e59f003c 	ldr	r0, [pc, #60]	; 80c4 <cnt_A+0xa4>
    8084:	e59f103c 	ldr	r1, [pc, #60]	; 80c8 <cnt_A+0xa8>
    8088:	e59f203c 	ldr	r2, [pc, #60]	; 80cc <cnt_A+0xac>
    808c:	e3a03018 	mov	r3, #24
    8090:	eb000384 	bl	8ea8 <printk>
    8094:	eb00051b 	bl	9508 <clean_reboot>
    8098:	e3a02000 	mov	r2, #0
    809c:	e59f3008 	ldr	r3, [pc, #8]	; 80ac <cnt_A+0x8c>
    80a0:	e5832000 	str	r2, [r3]
    80a4:	e28dd00c 	add	sp, sp, #12
    80a8:	e49df004 	pop	{pc}		; (ldr pc, [sp], #4)
    80ac:	0000a2e4 	andeq	sl, r0, r4, ror #5
    80b0:	00009ac0 	andeq	r9, r0, r0, asr #21
    80b4:	00009adc 	ldrdeq	r9, [r0], -ip
    80b8:	00009be0 	andeq	r9, r0, r0, ror #23
    80bc:	0000a2e0 	andeq	sl, r0, r0, ror #5
    80c0:	00009b1c 	andeq	r9, r0, ip, lsl fp
    80c4:	00009af8 	strdeq	r9, [r0], -r8
    80c8:	00009b0c 	andeq	r9, r0, ip, lsl #22
    80cc:	00009bd4 	ldrdeq	r9, [r0], -r4

000080d0 <cnt_B>:
    80d0:	e52de004 	push	{lr}		; (str lr, [sp, #-4]!)
    80d4:	e24dd00c 	sub	sp, sp, #12
    80d8:	e59f0060 	ldr	r0, [pc, #96]	; 8140 <cnt_B+0x70>
    80dc:	eb000188 	bl	8704 <sys_try_lock_asm>
    80e0:	e3500000 	cmp	r0, #0
    80e4:	0a000013 	beq	8138 <cnt_B+0x68>
    80e8:	e59f3054 	ldr	r3, [pc, #84]	; 8144 <cnt_B+0x74>
    80ec:	e5932000 	ldr	r2, [r3]
    80f0:	e2822001 	add	r2, r2, #1
    80f4:	e5832000 	str	r2, [r3]
    80f8:	e59f3040 	ldr	r3, [pc, #64]	; 8140 <cnt_B+0x70>
    80fc:	e5930000 	ldr	r0, [r3]
    8100:	e3500001 	cmp	r0, #1
    8104:	0a000008 	beq	812c <cnt_B+0x5c>
    8108:	eb000381 	bl	8f14 <rpi_reset_putc>
    810c:	e59f3034 	ldr	r3, [pc, #52]	; 8148 <cnt_B+0x78>
    8110:	e58d3000 	str	r3, [sp]
    8114:	e59f0030 	ldr	r0, [pc, #48]	; 814c <cnt_B+0x7c>
    8118:	e59f1030 	ldr	r1, [pc, #48]	; 8150 <cnt_B+0x80>
    811c:	e59f2030 	ldr	r2, [pc, #48]	; 8154 <cnt_B+0x84>
    8120:	e3a03018 	mov	r3, #24
    8124:	eb00035f 	bl	8ea8 <printk>
    8128:	eb0004f6 	bl	9508 <clean_reboot>
    812c:	e3a02000 	mov	r2, #0
    8130:	e59f3008 	ldr	r3, [pc, #8]	; 8140 <cnt_B+0x70>
    8134:	e5832000 	str	r2, [r3]
    8138:	e28dd00c 	add	sp, sp, #12
    813c:	e49df004 	pop	{pc}		; (ldr pc, [sp], #4)
    8140:	0000a2e4 	andeq	sl, r0, r4, ror #5
    8144:	0000a2e0 	andeq	sl, r0, r0, ror #5
    8148:	00009b1c 	andeq	r9, r0, ip, lsl fp
    814c:	00009af8 	strdeq	r9, [r0], -r8
    8150:	00009b0c 	andeq	r9, r0, ip, lsl #22
    8154:	00009bd4 	ldrdeq	r9, [r0], -r4

00008158 <cnt_init>:
    8158:	e3a03000 	mov	r3, #0
    815c:	e59f200c 	ldr	r2, [pc, #12]	; 8170 <cnt_init+0x18>
    8160:	e5823000 	str	r3, [r2]
    8164:	e59f2008 	ldr	r2, [pc, #8]	; 8174 <cnt_init+0x1c>
    8168:	e5823000 	str	r3, [r2]
    816c:	e12fff1e 	bx	lr
    8170:	0000a2e0 	andeq	sl, r0, r0, ror #5
    8174:	0000a2e4 	andeq	sl, r0, r4, ror #5

00008178 <cnt_check>:
    8178:	e59f3010 	ldr	r3, [pc, #16]	; 8190 <cnt_check+0x18>
    817c:	e5930000 	ldr	r0, [r3]
    8180:	e3500002 	cmp	r0, #2
    8184:	13a00000 	movne	r0, #0
    8188:	03a00001 	moveq	r0, #1
    818c:	e12fff1e 	bx	lr
    8190:	0000a2e0 	andeq	sl, r0, r0, ror #5

00008194 <cnt_mk_checker>:
    8194:	e1a03000 	mov	r3, r0
    8198:	e3a02000 	mov	r2, #0
    819c:	e4832004 	str	r2, [r3], #4
    81a0:	e2833008 	add	r3, r3, #8
    81a4:	e4832004 	str	r2, [r3], #4
    81a8:	e4832004 	str	r2, [r3], #4
    81ac:	e4832004 	str	r2, [r3], #4
    81b0:	e4832004 	str	r2, [r3], #4
    81b4:	e4832004 	str	r2, [r3], #4
    81b8:	e4832004 	str	r2, [r3], #4
    81bc:	e4832004 	str	r2, [r3], #4
    81c0:	e4832004 	str	r2, [r3], #4
    81c4:	e4832004 	str	r2, [r3], #4
    81c8:	e4832004 	str	r2, [r3], #4
    81cc:	e5832000 	str	r2, [r3]
    81d0:	e59f301c 	ldr	r3, [pc, #28]	; 81f4 <cnt_mk_checker+0x60>
    81d4:	e5803004 	str	r3, [r0, #4]
    81d8:	e59f3018 	ldr	r3, [pc, #24]	; 81f8 <cnt_mk_checker+0x64>
    81dc:	e5803008 	str	r3, [r0, #8]
    81e0:	e59f3014 	ldr	r3, [pc, #20]	; 81fc <cnt_mk_checker+0x68>
    81e4:	e580300c 	str	r3, [r0, #12]
    81e8:	e59f3010 	ldr	r3, [pc, #16]	; 8200 <cnt_mk_checker+0x6c>
    81ec:	e5803010 	str	r3, [r0, #16]
    81f0:	e12fff1e 	bx	lr
    81f4:	00008020 	andeq	r8, r0, r0, lsr #32
    81f8:	000080d0 	ldrdeq	r8, [r0], -r0
    81fc:	00008158 	andeq	r8, r0, r8, asr r1
    8200:	00008178 	andeq	r8, r0, r8, ror r1

00008204 <notmain>:
    8204:	e52de004 	push	{lr}		; (str lr, [sp, #-4]!)
    8208:	e24dd03c 	sub	sp, sp, #60	; 0x3c
    820c:	eb0004b5 	bl	94e8 <enable_cache>
    8210:	e1a0000d 	mov	r0, sp
    8214:	ebffffde 	bl	8194 <cnt_mk_checker>
    8218:	e1a0000d 	mov	r0, sp
    821c:	eb00030e 	bl	8e5c <check>
    8220:	e3500000 	cmp	r0, #0
    8224:	1a000006 	bne	8244 <notmain+0x40>
    8228:	eb000339 	bl	8f14 <rpi_reset_putc>
    822c:	e59f002c 	ldr	r0, [pc, #44]	; 8260 <notmain+0x5c>
    8230:	e59f102c 	ldr	r1, [pc, #44]	; 8264 <notmain+0x60>
    8234:	e59f202c 	ldr	r2, [pc, #44]	; 8268 <notmain+0x64>
    8238:	e3a03031 	mov	r3, #49	; 0x31
    823c:	eb000319 	bl	8ea8 <printk>
    8240:	eb0004b0 	bl	9508 <clean_reboot>
    8244:	e59f0020 	ldr	r0, [pc, #32]	; 826c <notmain+0x68>
    8248:	eb000316 	bl	8ea8 <printk>
    824c:	e59f001c 	ldr	r0, [pc, #28]	; 8270 <notmain+0x6c>
    8250:	e59d1028 	ldr	r1, [sp, #40]	; 0x28
    8254:	e59d202c 	ldr	r2, [sp, #44]	; 0x2c
    8258:	eb000312 	bl	8ea8 <printk>
    825c:	eb0004a9 	bl	9508 <clean_reboot>
    8260:	00009b24 	andeq	r9, r0, r4, lsr #22
    8264:	00009adc 	ldrdeq	r9, [r0], -ip
    8268:	00009be8 	andeq	r9, r0, r8, ror #23
    826c:	00009b54 	andeq	r9, r0, r4, asr fp
    8270:	00009b60 	andeq	r9, r0, r0, ror #22

00008274 <watchpt_set0>:
    8274:	e52de004 	push	{lr}		; (str lr, [sp, #-4]!)
    8278:	e24dd00c 	sub	sp, sp, #12
    827c:	ee103ef0 	mrc	14, 0, r3, cr0, cr0, {7}
    8280:	e3c33001 	bic	r3, r3, #1
    8284:	ee003ef0 	mcr	14, 0, r3, cr0, cr0, {7}
    8288:	ee102ef0 	mrc	14, 0, r2, cr0, cr0, {7}
    828c:	e1530002 	cmp	r3, r2
    8290:	0a000008 	beq	82b8 <watchpt_set0+0x44>
    8294:	eb00031e 	bl	8f14 <rpi_reset_putc>
    8298:	e59f306c 	ldr	r3, [pc, #108]	; 830c <watchpt_set0+0x98>
    829c:	e58d3000 	str	r3, [sp]
    82a0:	e59f0068 	ldr	r0, [pc, #104]	; 8310 <watchpt_set0+0x9c>
    82a4:	e59f1068 	ldr	r1, [pc, #104]	; 8314 <watchpt_set0+0xa0>
    82a8:	e59f2068 	ldr	r2, [pc, #104]	; 8318 <watchpt_set0+0xa4>
    82ac:	e3a03041 	mov	r3, #65	; 0x41
    82b0:	eb0002fc 	bl	8ea8 <printk>
    82b4:	eb000493 	bl	9508 <clean_reboot>
    82b8:	ee000ed0 	mcr	14, 0, r0, cr0, cr0, {6}
    82bc:	e59f3058 	ldr	r3, [pc, #88]	; 831c <watchpt_set0+0xa8>
    82c0:	ee003ef0 	mcr	14, 0, r3, cr0, cr0, {7}
    82c4:	ee102ef0 	mrc	14, 0, r2, cr0, cr0, {7}
    82c8:	e1520003 	cmp	r2, r3
    82cc:	0a000008 	beq	82f4 <watchpt_set0+0x80>
    82d0:	eb00030f 	bl	8f14 <rpi_reset_putc>
    82d4:	e59f3030 	ldr	r3, [pc, #48]	; 830c <watchpt_set0+0x98>
    82d8:	e58d3000 	str	r3, [sp]
    82dc:	e59f002c 	ldr	r0, [pc, #44]	; 8310 <watchpt_set0+0x9c>
    82e0:	e59f102c 	ldr	r1, [pc, #44]	; 8314 <watchpt_set0+0xa0>
    82e4:	e59f202c 	ldr	r2, [pc, #44]	; 8318 <watchpt_set0+0xa4>
    82e8:	e3a03052 	mov	r3, #82	; 0x52
    82ec:	eb0002ed 	bl	8ea8 <printk>
    82f0:	eb000484 	bl	9508 <clean_reboot>
    82f4:	e3a03000 	mov	r3, #0
    82f8:	ee073f95 	mcr	15, 0, r3, cr7, cr5, {4}
    82fc:	e59f301c 	ldr	r3, [pc, #28]	; 8320 <watchpt_set0+0xac>
    8300:	e5831000 	str	r1, [r3]
    8304:	e28dd00c 	add	sp, sp, #12
    8308:	e49df004 	pop	{pc}		; (ldr pc, [sp], #4)
    830c:	00009c00 	andeq	r9, r0, r0, lsl #24
    8310:	00009af8 	strdeq	r9, [r0], -r8
    8314:	00009bf0 	strdeq	r9, [r0], -r0
    8318:	00009d18 	andeq	r9, r0, r8, lsl sp
    831c:	000001ff 	strdeq	r0, [r0], -pc	; <UNPREDICTABLE>
    8320:	0000a2e8 	andeq	sl, r0, r8, ror #5

00008324 <data_abort_vector>:
    8324:	e52de004 	push	{lr}		; (str lr, [sp, #-4]!)
    8328:	e24dd00c 	sub	sp, sp, #12
    832c:	e1a01000 	mov	r1, r0
    8330:	ee153f10 	mrc	15, 0, r3, cr5, cr0, {0}
    8334:	ee153f10 	mrc	15, 0, r3, cr5, cr0, {0}
    8338:	e203300f 	and	r3, r3, #15
    833c:	e3530002 	cmp	r3, #2
    8340:	0a000006 	beq	8360 <data_abort_vector+0x3c>
    8344:	eb0002f2 	bl	8f14 <rpi_reset_putc>
    8348:	e59f008c 	ldr	r0, [pc, #140]	; 83dc <data_abort_vector+0xb8>
    834c:	e59f108c 	ldr	r1, [pc, #140]	; 83e0 <data_abort_vector+0xbc>
    8350:	e59f208c 	ldr	r2, [pc, #140]	; 83e4 <data_abort_vector+0xc0>
    8354:	e3a03079 	mov	r3, #121	; 0x79
    8358:	eb0002d2 	bl	8ea8 <printk>
    835c:	eb000469 	bl	9508 <clean_reboot>
    8360:	ee103e16 	mrc	14, 0, r3, cr0, cr6, {0}
    8364:	e2433004 	sub	r3, r3, #4
    8368:	e1530000 	cmp	r3, r0
    836c:	0a000008 	beq	8394 <data_abort_vector+0x70>
    8370:	eb0002e7 	bl	8f14 <rpi_reset_putc>
    8374:	e59f306c 	ldr	r3, [pc, #108]	; 83e8 <data_abort_vector+0xc4>
    8378:	e58d3000 	str	r3, [sp]
    837c:	e59f0068 	ldr	r0, [pc, #104]	; 83ec <data_abort_vector+0xc8>
    8380:	e59f1068 	ldr	r1, [pc, #104]	; 83f0 <data_abort_vector+0xcc>
    8384:	e59f2068 	ldr	r2, [pc, #104]	; 83f4 <data_abort_vector+0xd0>
    8388:	e3a03067 	mov	r3, #103	; 0x67
    838c:	eb0002c5 	bl	8ea8 <printk>
    8390:	eb00045c 	bl	9508 <clean_reboot>
    8394:	e59f305c 	ldr	r3, [pc, #92]	; 83f8 <data_abort_vector+0xd4>
    8398:	e5933000 	ldr	r3, [r3]
    839c:	e3530000 	cmp	r3, #0
    83a0:	1a000008 	bne	83c8 <data_abort_vector+0xa4>
    83a4:	eb0002da 	bl	8f14 <rpi_reset_putc>
    83a8:	e59f304c 	ldr	r3, [pc, #76]	; 83fc <data_abort_vector+0xd8>
    83ac:	e58d3000 	str	r3, [sp]
    83b0:	e59f0034 	ldr	r0, [pc, #52]	; 83ec <data_abort_vector+0xc8>
    83b4:	e59f1034 	ldr	r1, [pc, #52]	; 83f0 <data_abort_vector+0xcc>
    83b8:	e59f2034 	ldr	r2, [pc, #52]	; 83f4 <data_abort_vector+0xd0>
    83bc:	e3a03069 	mov	r3, #105	; 0x69
    83c0:	eb0002b8 	bl	8ea8 <printk>
    83c4:	eb00044f 	bl	9508 <clean_reboot>
    83c8:	ee162f10 	mrc	15, 0, r2, cr6, cr0, {0}
    83cc:	e3a00000 	mov	r0, #0
    83d0:	e12fff33 	blx	r3
    83d4:	e28dd00c 	add	sp, sp, #12
    83d8:	e49df004 	pop	{pc}		; (ldr pc, [sp], #4)
    83dc:	00009c18 	andeq	r9, r0, r8, lsl ip
    83e0:	00009c50 	andeq	r9, r0, r0, asr ip
    83e4:	00009d3c 	andeq	r9, r0, ip, lsr sp
    83e8:	00009c60 	andeq	r9, r0, r0, ror #24
    83ec:	00009af8 	strdeq	r9, [r0], -r8
    83f0:	00009bf0 	strdeq	r9, [r0], -r0
    83f4:	00009d28 	andeq	r9, r0, r8, lsr #26
    83f8:	0000a2e8 	andeq	sl, r0, r8, ror #5
    83fc:	00009c74 	andeq	r9, r0, r4, ror ip

00008400 <cp14_enable>:
    8400:	e92d4008 	push	{r3, lr}
    8404:	e59f302c 	ldr	r3, [pc, #44]	; 8438 <cp14_enable+0x38>
    8408:	e5933000 	ldr	r3, [r3]
    840c:	e3530000 	cmp	r3, #0
    8410:	1a000003 	bne	8424 <cp14_enable+0x24>
    8414:	eb000489 	bl	9640 <int_init>
    8418:	e3a02001 	mov	r2, #1
    841c:	e59f3014 	ldr	r3, [pc, #20]	; 8438 <cp14_enable+0x38>
    8420:	e5832000 	str	r2, [r3]
    8424:	e3a03902 	mov	r3, #32768	; 0x8000
    8428:	ee003e11 	mcr	14, 0, r3, cr0, cr1, {0}
    842c:	e3a03000 	mov	r3, #0
    8430:	ee073f95 	mcr	15, 0, r3, cr7, cr5, {4}
    8434:	e8bd8008 	pop	{r3, pc}
    8438:	0000a2f8 	strdeq	sl, [r0], -r8

0000843c <brkpt_set0>:
    843c:	ee103eb0 	mrc	14, 0, r3, cr0, cr0, {5}
    8440:	e3c33001 	bic	r3, r3, #1
    8444:	ee003eb0 	mcr	14, 0, r3, cr0, cr0, {5}
    8448:	ee000e90 	mcr	14, 0, r0, cr0, cr0, {4}
    844c:	e59f3014 	ldr	r3, [pc, #20]	; 8468 <brkpt_set0+0x2c>
    8450:	ee003eb0 	mcr	14, 0, r3, cr0, cr0, {5}
    8454:	e3a03000 	mov	r3, #0
    8458:	ee073f95 	mcr	15, 0, r3, cr7, cr5, {4}
    845c:	e59f3008 	ldr	r3, [pc, #8]	; 846c <brkpt_set0+0x30>
    8460:	e5831000 	str	r1, [r3]
    8464:	e12fff1e 	bx	lr
    8468:	000001e7 	andeq	r0, r0, r7, ror #3
    846c:	0000a2ec 	andeq	sl, r0, ip, ror #5

00008470 <prefetch_abort_vector>:
    8470:	e52de004 	push	{lr}		; (str lr, [sp, #-4]!)
    8474:	e24dd00c 	sub	sp, sp, #12
    8478:	e1a01000 	mov	r1, r0
    847c:	ee153f30 	mrc	15, 0, r3, cr5, cr0, {1}
    8480:	e203300f 	and	r3, r3, #15
    8484:	e3530002 	cmp	r3, #2
    8488:	0a000006 	beq	84a8 <prefetch_abort_vector+0x38>
    848c:	eb0002a0 	bl	8f14 <rpi_reset_putc>
    8490:	e59f0058 	ldr	r0, [pc, #88]	; 84f0 <prefetch_abort_vector+0x80>
    8494:	e59f1058 	ldr	r1, [pc, #88]	; 84f4 <prefetch_abort_vector+0x84>
    8498:	e59f2058 	ldr	r2, [pc, #88]	; 84f8 <prefetch_abort_vector+0x88>
    849c:	e3a030c7 	mov	r3, #199	; 0xc7
    84a0:	eb000280 	bl	8ea8 <printk>
    84a4:	eb000417 	bl	9508 <clean_reboot>
    84a8:	e59f304c 	ldr	r3, [pc, #76]	; 84fc <prefetch_abort_vector+0x8c>
    84ac:	e5933000 	ldr	r3, [r3]
    84b0:	e3530000 	cmp	r3, #0
    84b4:	1a000008 	bne	84dc <prefetch_abort_vector+0x6c>
    84b8:	eb000295 	bl	8f14 <rpi_reset_putc>
    84bc:	e59f303c 	ldr	r3, [pc, #60]	; 8500 <prefetch_abort_vector+0x90>
    84c0:	e58d3000 	str	r3, [sp]
    84c4:	e59f0038 	ldr	r0, [pc, #56]	; 8504 <prefetch_abort_vector+0x94>
    84c8:	e59f1024 	ldr	r1, [pc, #36]	; 84f4 <prefetch_abort_vector+0x84>
    84cc:	e59f2024 	ldr	r2, [pc, #36]	; 84f8 <prefetch_abort_vector+0x88>
    84d0:	e3a030c8 	mov	r3, #200	; 0xc8
    84d4:	eb000273 	bl	8ea8 <printk>
    84d8:	eb00040a 	bl	9508 <clean_reboot>
    84dc:	ee162f10 	mrc	15, 0, r2, cr6, cr0, {0}
    84e0:	e3a00000 	mov	r0, #0
    84e4:	e12fff33 	blx	r3
    84e8:	e28dd00c 	add	sp, sp, #12
    84ec:	e49df004 	pop	{pc}		; (ldr pc, [sp], #4)
    84f0:	00009c88 	andeq	r9, r0, r8, lsl #25
    84f4:	00009bf0 	strdeq	r9, [r0], -r0
    84f8:	00009d50 	andeq	r9, r0, r0, asr sp
    84fc:	0000a2ec 	andeq	sl, r0, ip, ror #5
    8500:	00009cc0 	andeq	r9, r0, r0, asr #25
    8504:	00009af8 	strdeq	r9, [r0], -r8

00008508 <interrupt_vector>:
    8508:	e12fff1e 	bx	lr

0000850c <brk_no_ret_error>:
    850c:	e92d4008 	push	{r3, lr}
    8510:	eb00027f 	bl	8f14 <rpi_reset_putc>
    8514:	e59f0010 	ldr	r0, [pc, #16]	; 852c <brk_no_ret_error+0x20>
    8518:	e59f1010 	ldr	r1, [pc, #16]	; 8530 <brk_no_ret_error+0x24>
    851c:	e59f2010 	ldr	r2, [pc, #16]	; 8534 <brk_no_ret_error+0x28>
    8520:	e3a030d9 	mov	r3, #217	; 0xd9
    8524:	eb00025f 	bl	8ea8 <printk>
    8528:	eb0003f6 	bl	9508 <clean_reboot>
    852c:	00009cd0 	ldrdeq	r9, [r0], -r0
    8530:	00009bf0 	strdeq	r9, [r0], -r0
    8534:	00009d68 	andeq	r9, r0, r8, ror #26

00008538 <brkpt_mismatch_set0>:
    8538:	ee103eb0 	mrc	14, 0, r3, cr0, cr0, {5}
    853c:	e3c33001 	bic	r3, r3, #1
    8540:	ee003eb0 	mcr	14, 0, r3, cr0, cr0, {5}
    8544:	ee000e90 	mcr	14, 0, r0, cr0, cr0, {4}
    8548:	e59f3014 	ldr	r3, [pc, #20]	; 8564 <brkpt_mismatch_set0+0x2c>
    854c:	ee003eb0 	mcr	14, 0, r3, cr0, cr0, {5}
    8550:	e3a03000 	mov	r3, #0
    8554:	ee073f95 	mcr	15, 0, r3, cr7, cr5, {4}
    8558:	e59f3008 	ldr	r3, [pc, #8]	; 8568 <brkpt_mismatch_set0+0x30>
    855c:	e5831000 	str	r1, [r3]
    8560:	e12fff1e 	bx	lr
    8564:	004001e7 	subeq	r0, r0, r7, ror #3
    8568:	0000a2ec 	andeq	sl, r0, ip, ror #5

0000856c <brkpt_mismatch_disable0>:
    856c:	e59f3004 	ldr	r3, [pc, #4]	; 8578 <brkpt_mismatch_disable0+0xc>
    8570:	ee003eb0 	mcr	14, 0, r3, cr0, cr0, {5}
    8574:	e12fff1e 	bx	lr
    8578:	004001e6 	subeq	r0, r0, r6, ror #3

0000857c <syscall_vector>:
    857c:	e92d4008 	push	{r3, lr}
    8580:	e5903000 	ldr	r3, [r0]
    8584:	e3c334ff 	bic	r3, r3, #-16777216	; 0xff000000
    8588:	e3530001 	cmp	r3, #1
    858c:	1a000002 	bne	859c <syscall_vector+0x20>
    8590:	e169f001 	msr	SPSR_fc, r1
    8594:	e3a00000 	mov	r0, #0
    8598:	e8bd8008 	pop	{r3, pc}
    859c:	e3530002 	cmp	r3, #2
    85a0:	1a000005 	bne	85bc <syscall_vector+0x40>
    85a4:	e5913000 	ldr	r3, [r1]
    85a8:	e3530000 	cmp	r3, #0
    85ac:	1a000009 	bne	85d8 <syscall_vector+0x5c>
    85b0:	e3a00001 	mov	r0, #1
    85b4:	e5810000 	str	r0, [r1]
    85b8:	e8bd8008 	pop	{r3, pc}
    85bc:	e3530003 	cmp	r3, #3
    85c0:	0a000006 	beq	85e0 <syscall_vector+0x64>
    85c4:	e59f001c 	ldr	r0, [pc, #28]	; 85e8 <syscall_vector+0x6c>
    85c8:	e1a01003 	mov	r1, r3
    85cc:	eb000235 	bl	8ea8 <printk>
    85d0:	e3a00000 	mov	r0, #0
    85d4:	e8bd8008 	pop	{r3, pc}
    85d8:	e3a00000 	mov	r0, #0
    85dc:	e8bd8008 	pop	{r3, pc}
    85e0:	e3a00003 	mov	r0, #3
    85e4:	e8bd8008 	pop	{r3, pc}
    85e8:	00009d00 	andeq	r9, r0, r0, lsl #26

000085ec <_interrupt_table>:
    85ec:	e59ff020 	ldr	pc, [pc, #32]	; 8614 <_reset_asm>
    85f0:	e59ff020 	ldr	pc, [pc, #32]	; 8618 <_undefined_instruction_asm>
    85f4:	e59ff020 	ldr	pc, [pc, #32]	; 861c <_software_interrupt_asm>
    85f8:	e59ff020 	ldr	pc, [pc, #32]	; 8620 <_prefetch_abort_asm>
    85fc:	e59ff020 	ldr	pc, [pc, #32]	; 8624 <_data_abort_asm>
    8600:	e59ff00c 	ldr	pc, [pc, #12]	; 8614 <_reset_asm>
    8604:	e59ff01c 	ldr	pc, [pc, #28]	; 8628 <_interrupt_asm>

00008608 <fast_interrupt_asm>:
    8608:	e3a0d409 	mov	sp, #150994944	; 0x9000000
    860c:	e24ee004 	sub	lr, lr, #4
    8610:	eb0003d5 	bl	956c <fast_interrupt_vector>

00008614 <_reset_asm>:
    8614:	00008644 	andeq	r8, r0, r4, asr #12

00008618 <_undefined_instruction_asm>:
    8618:	00008688 	andeq	r8, r0, r8, lsl #13

0000861c <_software_interrupt_asm>:
    861c:	00008694 	muleq	r0, r4, r6

00008620 <_prefetch_abort_asm>:
    8620:	0000866c 	andeq	r8, r0, ip, ror #12

00008624 <_data_abort_asm>:
    8624:	00008650 	andeq	r8, r0, r0, asr r6

00008628 <_interrupt_asm>:
    8628:	0000862c 	andeq	r8, r0, ip, lsr #12

0000862c <_interrupt_table_end>:
    862c:	e3a0d409 	mov	sp, #150994944	; 0x9000000
    8630:	e24ee004 	sub	lr, lr, #4
    8634:	e92d5fff 	push	{r0, r1, r2, r3, r4, r5, r6, r7, r8, r9, sl, fp, ip, lr}
    8638:	e1a0000e 	mov	r0, lr
    863c:	e8bd5fff 	pop	{r0, r1, r2, r3, r4, r5, r6, r7, r8, r9, sl, fp, ip, lr}
    8640:	e1b0f00e 	movs	pc, lr

00008644 <reset_asm>:
    8644:	e3a0d409 	mov	sp, #150994944	; 0x9000000
    8648:	e24ee004 	sub	lr, lr, #4
    864c:	eb0003d7 	bl	95b0 <reset_vector>

00008650 <data_abort_asm>:
    8650:	e24ee008 	sub	lr, lr, #8
    8654:	e3a0d409 	mov	sp, #150994944	; 0x9000000
    8658:	e92d5fff 	push	{r0, r1, r2, r3, r4, r5, r6, r7, r8, r9, sl, fp, ip, lr}
    865c:	e1a0000e 	mov	r0, lr
    8660:	ebffff2f 	bl	8324 <data_abort_vector>
    8664:	e8bd5fff 	pop	{r0, r1, r2, r3, r4, r5, r6, r7, r8, r9, sl, fp, ip, lr}
    8668:	e1b0f00e 	movs	pc, lr

0000866c <prefetch_abort_asm>:
    866c:	e24ee004 	sub	lr, lr, #4
    8670:	e3a0d409 	mov	sp, #150994944	; 0x9000000
    8674:	e92d5fff 	push	{r0, r1, r2, r3, r4, r5, r6, r7, r8, r9, sl, fp, ip, lr}
    8678:	e1a0000e 	mov	r0, lr
    867c:	ebffff7b 	bl	8470 <prefetch_abort_vector>
    8680:	e8bd5fff 	pop	{r0, r1, r2, r3, r4, r5, r6, r7, r8, r9, sl, fp, ip, lr}
    8684:	e1b0f00e 	movs	pc, lr

00008688 <undefined_instruction_asm>:
    8688:	e3a0d409 	mov	sp, #150994944	; 0x9000000
    868c:	e24ee004 	sub	lr, lr, #4
    8690:	eb0003d7 	bl	95f4 <undefined_instruction_vector>

00008694 <software_interrupt_asm>:
    8694:	e92d5ff0 	push	{r4, r5, r6, r7, r8, r9, sl, fp, ip, lr}
    8698:	e24ee004 	sub	lr, lr, #4
    869c:	e1a01000 	mov	r1, r0
    86a0:	e1a0000e 	mov	r0, lr
    86a4:	ebffffb4 	bl	857c <syscall_vector>
    86a8:	e8bd5ff0 	pop	{r4, r5, r6, r7, r8, r9, sl, fp, ip, lr}
    86ac:	e1b0f00e 	movs	pc, lr

000086b0 <user_trampoline_no_ret>:
    86b0:	e1a0200d 	mov	r2, sp
    86b4:	e129f000 	msr	CPSR_fc, r0
    86b8:	e10f5000 	mrs	r5, CPSR
    86bc:	ee070f95 	mcr	15, 0, r0, cr7, cr5, {4}
    86c0:	e1a0d002 	mov	sp, r2
    86c4:	e92d5ff0 	push	{r4, r5, r6, r7, r8, r9, sl, fp, ip, lr}
    86c8:	e12fff31 	blx	r1
    86cc:	e8bd5ff0 	pop	{r4, r5, r6, r7, r8, r9, sl, fp, ip, lr}
    86d0:	eb00038c 	bl	9508 <clean_reboot>
    86d4:	ebffff8c 	bl	850c <brk_no_ret_error>

000086d8 <user_trampoline_ret>:
    86d8:	e92d5ff0 	push	{r4, r5, r6, r7, r8, r9, sl, fp, ip, lr}
    86dc:	e10f4000 	mrs	r4, CPSR
    86e0:	e129f000 	msr	CPSR_fc, r0
    86e4:	ee070f95 	mcr	15, 0, r0, cr7, cr5, {4}
    86e8:	e3a0d407 	mov	sp, #117440512	; 0x7000000
    86ec:	e1a00002 	mov	r0, r2
    86f0:	e12fff31 	blx	r1
    86f4:	e1a00004 	mov	r0, r4
    86f8:	ef000001 	svc	0x00000001
    86fc:	e8bd5ff0 	pop	{r4, r5, r6, r7, r8, r9, sl, fp, ip, lr}
    8700:	e12fff1e 	bx	lr

00008704 <sys_try_lock_asm>:
    8704:	e92d5ff0 	push	{r4, r5, r6, r7, r8, r9, sl, fp, ip, lr}
    8708:	ef000002 	svc	0x00000002
    870c:	e8bd5ff0 	pop	{r4, r5, r6, r7, r8, r9, sl, fp, ip, lr}
    8710:	e12fff1e 	bx	lr

00008714 <sys_foo_asm>:
    8714:	e92d5ff0 	push	{r4, r5, r6, r7, r8, r9, sl, fp, ip, lr}
    8718:	ef000003 	svc	0x00000003
    871c:	e8bd5ff0 	pop	{r4, r5, r6, r7, r8, r9, sl, fp, ip, lr}
    8720:	e12fff1e 	bx	lr

00008724 <single_step_handler>:
    8724:	e92d4030 	push	{r4, r5, lr}
    8728:	e24dd00c 	sub	sp, sp, #12
    872c:	e1a05001 	mov	r5, r1
    8730:	e59f3164 	ldr	r3, [pc, #356]	; 889c <single_step_handler+0x178>
    8734:	e5933000 	ldr	r3, [r3]
    8738:	e3530000 	cmp	r3, #0
    873c:	0a000005 	beq	8758 <single_step_handler+0x34>
    8740:	e58d1000 	str	r1, [sp]
    8744:	e59f0154 	ldr	r0, [pc, #340]	; 88a0 <single_step_handler+0x17c>
    8748:	e59f1154 	ldr	r1, [pc, #340]	; 88a4 <single_step_handler+0x180>
    874c:	e59f2154 	ldr	r2, [pc, #340]	; 88a8 <single_step_handler+0x184>
    8750:	e3a0300c 	mov	r3, #12
    8754:	eb0001d3 	bl	8ea8 <printk>
    8758:	ee153f30 	mrc	15, 0, r3, cr5, cr0, {1}
    875c:	e203300f 	and	r3, r3, #15
    8760:	e3530002 	cmp	r3, #2
    8764:	0a000006 	beq	8784 <single_step_handler+0x60>
    8768:	eb0001e9 	bl	8f14 <rpi_reset_putc>
    876c:	e59f0138 	ldr	r0, [pc, #312]	; 88ac <single_step_handler+0x188>
    8770:	e59f112c 	ldr	r1, [pc, #300]	; 88a4 <single_step_handler+0x180>
    8774:	e59f212c 	ldr	r2, [pc, #300]	; 88a8 <single_step_handler+0x184>
    8778:	e3a0300e 	mov	r3, #14
    877c:	eb0001c9 	bl	8ea8 <printk>
    8780:	eb000360 	bl	9508 <clean_reboot>
    8784:	e59f3124 	ldr	r3, [pc, #292]	; 88b0 <single_step_handler+0x18c>
    8788:	e5934000 	ldr	r4, [r3]
    878c:	e594201c 	ldr	r2, [r4, #28]
    8790:	e5943018 	ldr	r3, [r4, #24]
    8794:	e1520003 	cmp	r2, r3
    8798:	1a000016 	bne	87f8 <single_step_handler+0xd4>
    879c:	e59f0110 	ldr	r0, [pc, #272]	; 88b4 <single_step_handler+0x190>
    87a0:	e1a01005 	mov	r1, r5
    87a4:	e5942008 	ldr	r2, [r4, #8]
    87a8:	eb0001be 	bl	8ea8 <printk>
    87ac:	e5943008 	ldr	r3, [r4, #8]
    87b0:	e1a00004 	mov	r0, r4
    87b4:	e12fff33 	blx	r3
    87b8:	e3500000 	cmp	r0, #0
    87bc:	0a00000a 	beq	87ec <single_step_handler+0xc8>
    87c0:	e1a00005 	mov	r0, r5
    87c4:	ebffff68 	bl	856c <brkpt_mismatch_disable0>
    87c8:	e5845020 	str	r5, [r4, #32]
    87cc:	e3a03001 	mov	r3, #1
    87d0:	e5843024 	str	r3, [r4, #36]	; 0x24
    87d4:	e5943014 	ldr	r3, [r4, #20]
    87d8:	e2833001 	add	r3, r3, #1
    87dc:	e5843014 	str	r3, [r4, #20]
    87e0:	e59f00d0 	ldr	r0, [pc, #208]	; 88b8 <single_step_handler+0x194>
    87e4:	eb0001af 	bl	8ea8 <printk>
    87e8:	ea000029 	b	8894 <single_step_handler+0x170>
    87ec:	e5943018 	ldr	r3, [r4, #24]
    87f0:	e2833001 	add	r3, r3, #1
    87f4:	e5843018 	str	r3, [r4, #24]
    87f8:	e594201c 	ldr	r2, [r4, #28]
    87fc:	e5943018 	ldr	r3, [r4, #24]
    8800:	e1520003 	cmp	r2, r3
    8804:	3a000008 	bcc	882c <single_step_handler+0x108>
    8808:	eb0001c1 	bl	8f14 <rpi_reset_putc>
    880c:	e59f30a8 	ldr	r3, [pc, #168]	; 88bc <single_step_handler+0x198>
    8810:	e58d3000 	str	r3, [sp]
    8814:	e59f00a4 	ldr	r0, [pc, #164]	; 88c0 <single_step_handler+0x19c>
    8818:	e59f1084 	ldr	r1, [pc, #132]	; 88a4 <single_step_handler+0x180>
    881c:	e59f2084 	ldr	r2, [pc, #132]	; 88a8 <single_step_handler+0x184>
    8820:	e3a03023 	mov	r3, #35	; 0x23
    8824:	eb00019f 	bl	8ea8 <printk>
    8828:	eb000336 	bl	9508 <clean_reboot>
    882c:	e594301c 	ldr	r3, [r4, #28]
    8830:	e2833001 	add	r3, r3, #1
    8834:	e584301c 	str	r3, [r4, #28]
    8838:	e59f305c 	ldr	r3, [pc, #92]	; 889c <single_step_handler+0x178>
    883c:	e5933000 	ldr	r3, [r3]
    8840:	e3530000 	cmp	r3, #0
    8844:	0a000005 	beq	8860 <single_step_handler+0x13c>
    8848:	e58d5000 	str	r5, [sp]
    884c:	e59f0070 	ldr	r0, [pc, #112]	; 88c4 <single_step_handler+0x1a0>
    8850:	e59f104c 	ldr	r1, [pc, #76]	; 88a4 <single_step_handler+0x180>
    8854:	e59f204c 	ldr	r2, [pc, #76]	; 88a8 <single_step_handler+0x184>
    8858:	e3a03026 	mov	r3, #38	; 0x26
    885c:	eb000191 	bl	8ea8 <printk>
    8860:	e1a00005 	mov	r0, r5
    8864:	e59f105c 	ldr	r1, [pc, #92]	; 88c8 <single_step_handler+0x1a4>
    8868:	ebffff32 	bl	8538 <brkpt_mismatch_set0>
    886c:	e59f3028 	ldr	r3, [pc, #40]	; 889c <single_step_handler+0x178>
    8870:	e5933000 	ldr	r3, [r3]
    8874:	e3530000 	cmp	r3, #0
    8878:	0a000005 	beq	8894 <single_step_handler+0x170>
    887c:	e58d5000 	str	r5, [sp]
    8880:	e59f0044 	ldr	r0, [pc, #68]	; 88cc <single_step_handler+0x1a8>
    8884:	e59f1018 	ldr	r1, [pc, #24]	; 88a4 <single_step_handler+0x180>
    8888:	e59f2018 	ldr	r2, [pc, #24]	; 88a8 <single_step_handler+0x184>
    888c:	e3a03028 	mov	r3, #40	; 0x28
    8890:	eb000184 	bl	8ea8 <printk>
    8894:	e28dd00c 	add	sp, sp, #12
    8898:	e8bd8030 	pop	{r4, r5, pc}
    889c:	0000a2f0 	strdeq	sl, [r0], -r0
    88a0:	00009d7c 	andeq	r9, r0, ip, ror sp
    88a4:	00009d9c 	muleq	r0, ip, sp
    88a8:	0000a080 	andeq	sl, r0, r0, lsl #1
    88ac:	00009c88 	andeq	r9, r0, r8, lsl #25
    88b0:	0000a2fc 	strdeq	sl, [r0], -ip
    88b4:	00009db0 			; <UNDEFINED> instruction: 0x00009db0
    88b8:	00009dd0 	ldrdeq	r9, [r0], -r0
    88bc:	00009df8 	strdeq	r9, [r0], -r8
    88c0:	00009af8 	strdeq	r9, [r0], -r8
    88c4:	00009e1c 	andeq	r9, r0, ip, lsl lr
    88c8:	00008724 	andeq	r8, r0, r4, lsr #14
    88cc:	00009e44 	andeq	r9, r0, r4, asr #28

000088d0 <check_one_cswitch>:
    88d0:	e92d4ff0 	push	{r4, r5, r6, r7, r8, r9, sl, fp, lr}
    88d4:	e24dd00c 	sub	sp, sp, #12
    88d8:	e1a04000 	mov	r4, r0
    88dc:	e10f8000 	mrs	r8, CPSR
    88e0:	e3c8701f 	bic	r7, r8, #31
    88e4:	e3877010 	orr	r7, r7, #16
    88e8:	e59f3460 	ldr	r3, [pc, #1120]	; 8d50 <check_one_cswitch+0x480>
    88ec:	e5830000 	str	r0, [r3]
    88f0:	e3a03001 	mov	r3, #1
    88f4:	e5803030 	str	r3, [r0, #48]	; 0x30
    88f8:	e59f6454 	ldr	r6, [pc, #1108]	; 8d54 <check_one_cswitch+0x484>
    88fc:	e59fb454 	ldr	fp, [pc, #1108]	; 8d58 <check_one_cswitch+0x488>
    8900:	e59fa454 	ldr	sl, [pc, #1108]	; 8d5c <check_one_cswitch+0x48c>
    8904:	e59f9454 	ldr	r9, [pc, #1108]	; 8d60 <check_one_cswitch+0x490>
    8908:	e59f5454 	ldr	r5, [pc, #1108]	; 8d64 <check_one_cswitch+0x494>
    890c:	e594300c 	ldr	r3, [r4, #12]
    8910:	e1a00004 	mov	r0, r4
    8914:	e12fff33 	blx	r3
    8918:	e5963000 	ldr	r3, [r6]
    891c:	e3530000 	cmp	r3, #0
    8920:	0a000006 	beq	8940 <check_one_cswitch+0x70>
    8924:	e5943028 	ldr	r3, [r4, #40]	; 0x28
    8928:	e58d3000 	str	r3, [sp]
    892c:	e1a0000b 	mov	r0, fp
    8930:	e1a0100a 	mov	r1, sl
    8934:	e1a02009 	mov	r2, r9
    8938:	e3a03034 	mov	r3, #52	; 0x34
    893c:	eb000159 	bl	8ea8 <printk>
    8940:	e3a00000 	mov	r0, #0
    8944:	e1a01005 	mov	r1, r5
    8948:	ebfffefa 	bl	8538 <brkpt_mismatch_set0>
    894c:	e5943018 	ldr	r3, [r4, #24]
    8950:	e2833001 	add	r3, r3, #1
    8954:	e5843018 	str	r3, [r4, #24]
    8958:	e3a03000 	mov	r3, #0
    895c:	e584301c 	str	r3, [r4, #28]
    8960:	e5843024 	str	r3, [r4, #36]	; 0x24
    8964:	e1a00007 	mov	r0, r7
    8968:	e5941004 	ldr	r1, [r4, #4]
    896c:	e1a02004 	mov	r2, r4
    8970:	ebffff58 	bl	86d8 <user_trampoline_ret>
    8974:	e5943024 	ldr	r3, [r4, #36]	; 0x24
    8978:	e3530000 	cmp	r3, #0
    897c:	1a000002 	bne	898c <check_one_cswitch+0xbc>
    8980:	e5943008 	ldr	r3, [r4, #8]
    8984:	e1a00004 	mov	r0, r4
    8988:	e12fff33 	blx	r3
    898c:	e5943010 	ldr	r3, [r4, #16]
    8990:	e1a00004 	mov	r0, r4
    8994:	e12fff33 	blx	r3
    8998:	e3500000 	cmp	r0, #0
    899c:	1a000006 	bne	89bc <check_one_cswitch+0xec>
    89a0:	e5941020 	ldr	r1, [r4, #32]
    89a4:	e5942018 	ldr	r2, [r4, #24]
    89a8:	e59f03b8 	ldr	r0, [pc, #952]	; 8d68 <check_one_cswitch+0x498>
    89ac:	eb00013d 	bl	8ea8 <printk>
    89b0:	e594302c 	ldr	r3, [r4, #44]	; 0x2c
    89b4:	e2833001 	add	r3, r3, #1
    89b8:	e584302c 	str	r3, [r4, #44]	; 0x2c
    89bc:	e5942028 	ldr	r2, [r4, #40]	; 0x28
    89c0:	e2822001 	add	r2, r2, #1
    89c4:	e5842028 	str	r2, [r4, #40]	; 0x28
    89c8:	e5943024 	ldr	r3, [r4, #36]	; 0x24
    89cc:	e3530000 	cmp	r3, #0
    89d0:	1affffcd 	bne	890c <check_one_cswitch+0x3c>
    89d4:	e5941014 	ldr	r1, [r4, #20]
    89d8:	e59f038c 	ldr	r0, [pc, #908]	; 8d6c <check_one_cswitch+0x49c>
    89dc:	e594302c 	ldr	r3, [r4, #44]	; 0x2c
    89e0:	eb000130 	bl	8ea8 <printk>
    89e4:	e208301f 	and	r3, r8, #31
    89e8:	e3530012 	cmp	r3, #18
    89ec:	13530010 	cmpne	r3, #16
    89f0:	0a000006 	beq	8a10 <check_one_cswitch+0x140>
    89f4:	e3530017 	cmp	r3, #23
    89f8:	13530013 	cmpne	r3, #19
    89fc:	0a000005 	beq	8a18 <check_one_cswitch+0x148>
    8a00:	e353001f 	cmp	r3, #31
    8a04:	1a000005 	bne	8a20 <check_one_cswitch+0x150>
    8a08:	e3a02001 	mov	r2, #1
    8a0c:	ea000004 	b	8a24 <check_one_cswitch+0x154>
    8a10:	e3a02001 	mov	r2, #1
    8a14:	ea000002 	b	8a24 <check_one_cswitch+0x154>
    8a18:	e3a02001 	mov	r2, #1
    8a1c:	ea000000 	b	8a24 <check_one_cswitch+0x154>
    8a20:	e3a02000 	mov	r2, #0
    8a24:	e3520000 	cmp	r2, #0
    8a28:	1a000008 	bne	8a50 <check_one_cswitch+0x180>
    8a2c:	eb000138 	bl	8f14 <rpi_reset_putc>
    8a30:	e59f3338 	ldr	r3, [pc, #824]	; 8d70 <check_one_cswitch+0x4a0>
    8a34:	e58d3000 	str	r3, [sp]
    8a38:	e59f0334 	ldr	r0, [pc, #820]	; 8d74 <check_one_cswitch+0x4a4>
    8a3c:	e59f1334 	ldr	r1, [pc, #820]	; 8d78 <check_one_cswitch+0x4a8>
    8a40:	e59f2334 	ldr	r2, [pc, #820]	; 8d7c <check_one_cswitch+0x4ac>
    8a44:	e3a03011 	mov	r3, #17
    8a48:	eb000116 	bl	8ea8 <printk>
    8a4c:	eb0002ad 	bl	9508 <clean_reboot>
    8a50:	e2433010 	sub	r3, r3, #16
    8a54:	e353000f 	cmp	r3, #15
    8a58:	979ff103 	ldrls	pc, [pc, r3, lsl #2]
    8a5c:	ea000019 	b	8ac8 <check_one_cswitch+0x1f8>
    8a60:	00008ae8 	andeq	r8, r0, r8, ror #21
    8a64:	00008af0 	strdeq	r8, [r0], -r0
    8a68:	00008aa0 	andeq	r8, r0, r0, lsr #21
    8a6c:	00008aa8 	andeq	r8, r0, r8, lsr #21
    8a70:	00008ac8 	andeq	r8, r0, r8, asr #21
    8a74:	00008ac8 	andeq	r8, r0, r8, asr #21
    8a78:	00008ac8 	andeq	r8, r0, r8, asr #21
    8a7c:	00008ab0 			; <UNDEFINED> instruction: 0x00008ab0
    8a80:	00008ac8 	andeq	r8, r0, r8, asr #21
    8a84:	00008ac8 	andeq	r8, r0, r8, asr #21
    8a88:	00008ac8 	andeq	r8, r0, r8, asr #21
    8a8c:	00008ab8 			; <UNDEFINED> instruction: 0x00008ab8
    8a90:	00008ac8 	andeq	r8, r0, r8, asr #21
    8a94:	00008ac8 	andeq	r8, r0, r8, asr #21
    8a98:	00008ac8 	andeq	r8, r0, r8, asr #21
    8a9c:	00008ac0 	andeq	r8, r0, r0, asr #21
    8aa0:	e59f12d8 	ldr	r1, [pc, #728]	; 8d80 <check_one_cswitch+0x4b0>
    8aa4:	ea000012 	b	8af4 <check_one_cswitch+0x224>
    8aa8:	e59f12d4 	ldr	r1, [pc, #724]	; 8d84 <check_one_cswitch+0x4b4>
    8aac:	ea000010 	b	8af4 <check_one_cswitch+0x224>
    8ab0:	e59f12d0 	ldr	r1, [pc, #720]	; 8d88 <check_one_cswitch+0x4b8>
    8ab4:	ea00000e 	b	8af4 <check_one_cswitch+0x224>
    8ab8:	e59f12cc 	ldr	r1, [pc, #716]	; 8d8c <check_one_cswitch+0x4bc>
    8abc:	ea00000c 	b	8af4 <check_one_cswitch+0x224>
    8ac0:	e59f12c8 	ldr	r1, [pc, #712]	; 8d90 <check_one_cswitch+0x4c0>
    8ac4:	ea00000a 	b	8af4 <check_one_cswitch+0x224>
    8ac8:	eb000111 	bl	8f14 <rpi_reset_putc>
    8acc:	e58d8000 	str	r8, [sp]
    8ad0:	e59f02bc 	ldr	r0, [pc, #700]	; 8d94 <check_one_cswitch+0x4c4>
    8ad4:	e59f129c 	ldr	r1, [pc, #668]	; 8d78 <check_one_cswitch+0x4a8>
    8ad8:	e59f22b8 	ldr	r2, [pc, #696]	; 8d98 <check_one_cswitch+0x4c8>
    8adc:	e3a03021 	mov	r3, #33	; 0x21
    8ae0:	eb0000f0 	bl	8ea8 <printk>
    8ae4:	eb000287 	bl	9508 <clean_reboot>
    8ae8:	e59f12ac 	ldr	r1, [pc, #684]	; 8d9c <check_one_cswitch+0x4cc>
    8aec:	ea000000 	b	8af4 <check_one_cswitch+0x224>
    8af0:	e59f12a8 	ldr	r1, [pc, #680]	; 8da0 <check_one_cswitch+0x4d0>
    8af4:	e59f02a8 	ldr	r0, [pc, #680]	; 8da4 <check_one_cswitch+0x4d4>
    8af8:	e1a02008 	mov	r2, r8
    8afc:	eb0000e9 	bl	8ea8 <printk>
    8b00:	e10f5000 	mrs	r5, CPSR
    8b04:	e205301f 	and	r3, r5, #31
    8b08:	e3530012 	cmp	r3, #18
    8b0c:	13530010 	cmpne	r3, #16
    8b10:	0a000006 	beq	8b30 <check_one_cswitch+0x260>
    8b14:	e3530017 	cmp	r3, #23
    8b18:	13530013 	cmpne	r3, #19
    8b1c:	0a000005 	beq	8b38 <check_one_cswitch+0x268>
    8b20:	e353001f 	cmp	r3, #31
    8b24:	1a000005 	bne	8b40 <check_one_cswitch+0x270>
    8b28:	e3a02001 	mov	r2, #1
    8b2c:	ea000004 	b	8b44 <check_one_cswitch+0x274>
    8b30:	e3a02001 	mov	r2, #1
    8b34:	ea000002 	b	8b44 <check_one_cswitch+0x274>
    8b38:	e3a02001 	mov	r2, #1
    8b3c:	ea000000 	b	8b44 <check_one_cswitch+0x274>
    8b40:	e3a02000 	mov	r2, #0
    8b44:	e3520000 	cmp	r2, #0
    8b48:	1a000008 	bne	8b70 <check_one_cswitch+0x2a0>
    8b4c:	eb0000f0 	bl	8f14 <rpi_reset_putc>
    8b50:	e59f3218 	ldr	r3, [pc, #536]	; 8d70 <check_one_cswitch+0x4a0>
    8b54:	e58d3000 	str	r3, [sp]
    8b58:	e59f0214 	ldr	r0, [pc, #532]	; 8d74 <check_one_cswitch+0x4a4>
    8b5c:	e59f1214 	ldr	r1, [pc, #532]	; 8d78 <check_one_cswitch+0x4a8>
    8b60:	e59f2214 	ldr	r2, [pc, #532]	; 8d7c <check_one_cswitch+0x4ac>
    8b64:	e3a03011 	mov	r3, #17
    8b68:	eb0000ce 	bl	8ea8 <printk>
    8b6c:	eb000265 	bl	9508 <clean_reboot>
    8b70:	e2433010 	sub	r3, r3, #16
    8b74:	e353000f 	cmp	r3, #15
    8b78:	979ff103 	ldrls	pc, [pc, r3, lsl #2]
    8b7c:	ea000019 	b	8be8 <check_one_cswitch+0x318>
    8b80:	00008c08 	andeq	r8, r0, r8, lsl #24
    8b84:	00008c10 	andeq	r8, r0, r0, lsl ip
    8b88:	00008bc0 	andeq	r8, r0, r0, asr #23
    8b8c:	00008bc8 	andeq	r8, r0, r8, asr #23
    8b90:	00008be8 	andeq	r8, r0, r8, ror #23
    8b94:	00008be8 	andeq	r8, r0, r8, ror #23
    8b98:	00008be8 	andeq	r8, r0, r8, ror #23
    8b9c:	00008bd0 	ldrdeq	r8, [r0], -r0
    8ba0:	00008be8 	andeq	r8, r0, r8, ror #23
    8ba4:	00008be8 	andeq	r8, r0, r8, ror #23
    8ba8:	00008be8 	andeq	r8, r0, r8, ror #23
    8bac:	00008bd8 	ldrdeq	r8, [r0], -r8	; <UNPREDICTABLE>
    8bb0:	00008be8 	andeq	r8, r0, r8, ror #23
    8bb4:	00008be8 	andeq	r8, r0, r8, ror #23
    8bb8:	00008be8 	andeq	r8, r0, r8, ror #23
    8bbc:	00008be0 	andeq	r8, r0, r0, ror #23
    8bc0:	e59f11b8 	ldr	r1, [pc, #440]	; 8d80 <check_one_cswitch+0x4b0>
    8bc4:	ea000012 	b	8c14 <check_one_cswitch+0x344>
    8bc8:	e59f11b4 	ldr	r1, [pc, #436]	; 8d84 <check_one_cswitch+0x4b4>
    8bcc:	ea000010 	b	8c14 <check_one_cswitch+0x344>
    8bd0:	e59f11b0 	ldr	r1, [pc, #432]	; 8d88 <check_one_cswitch+0x4b8>
    8bd4:	ea00000e 	b	8c14 <check_one_cswitch+0x344>
    8bd8:	e59f11ac 	ldr	r1, [pc, #428]	; 8d8c <check_one_cswitch+0x4bc>
    8bdc:	ea00000c 	b	8c14 <check_one_cswitch+0x344>
    8be0:	e59f11a8 	ldr	r1, [pc, #424]	; 8d90 <check_one_cswitch+0x4c0>
    8be4:	ea00000a 	b	8c14 <check_one_cswitch+0x344>
    8be8:	eb0000c9 	bl	8f14 <rpi_reset_putc>
    8bec:	e58d5000 	str	r5, [sp]
    8bf0:	e59f019c 	ldr	r0, [pc, #412]	; 8d94 <check_one_cswitch+0x4c4>
    8bf4:	e59f117c 	ldr	r1, [pc, #380]	; 8d78 <check_one_cswitch+0x4a8>
    8bf8:	e59f2198 	ldr	r2, [pc, #408]	; 8d98 <check_one_cswitch+0x4c8>
    8bfc:	e3a03021 	mov	r3, #33	; 0x21
    8c00:	eb0000a8 	bl	8ea8 <printk>
    8c04:	eb00023f 	bl	9508 <clean_reboot>
    8c08:	e59f118c 	ldr	r1, [pc, #396]	; 8d9c <check_one_cswitch+0x4cc>
    8c0c:	ea000000 	b	8c14 <check_one_cswitch+0x344>
    8c10:	e59f1188 	ldr	r1, [pc, #392]	; 8da0 <check_one_cswitch+0x4d0>
    8c14:	e10f2000 	mrs	r2, CPSR
    8c18:	e59f0188 	ldr	r0, [pc, #392]	; 8da8 <check_one_cswitch+0x4d8>
    8c1c:	eb0000a1 	bl	8ea8 <printk>
    8c20:	e3a00000 	mov	r0, #0
    8c24:	ebfffe50 	bl	856c <brkpt_mismatch_disable0>
    8c28:	e208801f 	and	r8, r8, #31
    8c2c:	e3580012 	cmp	r8, #18
    8c30:	13580010 	cmpne	r8, #16
    8c34:	0a000006 	beq	8c54 <check_one_cswitch+0x384>
    8c38:	e3580017 	cmp	r8, #23
    8c3c:	13580013 	cmpne	r8, #19
    8c40:	0a000005 	beq	8c5c <check_one_cswitch+0x38c>
    8c44:	e358001f 	cmp	r8, #31
    8c48:	1a000005 	bne	8c64 <check_one_cswitch+0x394>
    8c4c:	e3a03001 	mov	r3, #1
    8c50:	ea000004 	b	8c68 <check_one_cswitch+0x398>
    8c54:	e3a03001 	mov	r3, #1
    8c58:	ea000002 	b	8c68 <check_one_cswitch+0x398>
    8c5c:	e3a03001 	mov	r3, #1
    8c60:	ea000000 	b	8c68 <check_one_cswitch+0x398>
    8c64:	e3a03000 	mov	r3, #0
    8c68:	e3530000 	cmp	r3, #0
    8c6c:	1a000008 	bne	8c94 <check_one_cswitch+0x3c4>
    8c70:	eb0000a7 	bl	8f14 <rpi_reset_putc>
    8c74:	e59f30f4 	ldr	r3, [pc, #244]	; 8d70 <check_one_cswitch+0x4a0>
    8c78:	e58d3000 	str	r3, [sp]
    8c7c:	e59f00f0 	ldr	r0, [pc, #240]	; 8d74 <check_one_cswitch+0x4a4>
    8c80:	e59f10f0 	ldr	r1, [pc, #240]	; 8d78 <check_one_cswitch+0x4a8>
    8c84:	e59f20f0 	ldr	r2, [pc, #240]	; 8d7c <check_one_cswitch+0x4ac>
    8c88:	e3a03011 	mov	r3, #17
    8c8c:	eb000085 	bl	8ea8 <printk>
    8c90:	eb00021c 	bl	9508 <clean_reboot>
    8c94:	e10f3000 	mrs	r3, CPSR
    8c98:	e203301f 	and	r3, r3, #31
    8c9c:	e3530012 	cmp	r3, #18
    8ca0:	13530010 	cmpne	r3, #16
    8ca4:	0a000006 	beq	8cc4 <check_one_cswitch+0x3f4>
    8ca8:	e3530017 	cmp	r3, #23
    8cac:	13530013 	cmpne	r3, #19
    8cb0:	0a000005 	beq	8ccc <check_one_cswitch+0x3fc>
    8cb4:	e353001f 	cmp	r3, #31
    8cb8:	1a000005 	bne	8cd4 <check_one_cswitch+0x404>
    8cbc:	e3a02001 	mov	r2, #1
    8cc0:	ea000004 	b	8cd8 <check_one_cswitch+0x408>
    8cc4:	e3a02001 	mov	r2, #1
    8cc8:	ea000002 	b	8cd8 <check_one_cswitch+0x408>
    8ccc:	e3a02001 	mov	r2, #1
    8cd0:	ea000000 	b	8cd8 <check_one_cswitch+0x408>
    8cd4:	e3a02000 	mov	r2, #0
    8cd8:	e3520000 	cmp	r2, #0
    8cdc:	1a000008 	bne	8d04 <check_one_cswitch+0x434>
    8ce0:	eb00008b 	bl	8f14 <rpi_reset_putc>
    8ce4:	e59f3084 	ldr	r3, [pc, #132]	; 8d70 <check_one_cswitch+0x4a0>
    8ce8:	e58d3000 	str	r3, [sp]
    8cec:	e59f0080 	ldr	r0, [pc, #128]	; 8d74 <check_one_cswitch+0x4a4>
    8cf0:	e59f1080 	ldr	r1, [pc, #128]	; 8d78 <check_one_cswitch+0x4a8>
    8cf4:	e59f2080 	ldr	r2, [pc, #128]	; 8d7c <check_one_cswitch+0x4ac>
    8cf8:	e3a03011 	mov	r3, #17
    8cfc:	eb000069 	bl	8ea8 <printk>
    8d00:	eb000200 	bl	9508 <clean_reboot>
    8d04:	e1580003 	cmp	r8, r3
    8d08:	0a000008 	beq	8d30 <check_one_cswitch+0x460>
    8d0c:	eb000080 	bl	8f14 <rpi_reset_putc>
    8d10:	e59f3094 	ldr	r3, [pc, #148]	; 8dac <check_one_cswitch+0x4dc>
    8d14:	e58d3000 	str	r3, [sp]
    8d18:	e59f0054 	ldr	r0, [pc, #84]	; 8d74 <check_one_cswitch+0x4a4>
    8d1c:	e59f1038 	ldr	r1, [pc, #56]	; 8d5c <check_one_cswitch+0x48c>
    8d20:	e59f2038 	ldr	r2, [pc, #56]	; 8d60 <check_one_cswitch+0x490>
    8d24:	e3a03058 	mov	r3, #88	; 0x58
    8d28:	eb00005e 	bl	8ea8 <printk>
    8d2c:	eb0001f5 	bl	9508 <clean_reboot>
    8d30:	e3a03000 	mov	r3, #0
    8d34:	e5843030 	str	r3, [r4, #48]	; 0x30
    8d38:	e594002c 	ldr	r0, [r4, #44]	; 0x2c
    8d3c:	e1500003 	cmp	r0, r3
    8d40:	13a00000 	movne	r0, #0
    8d44:	03a00001 	moveq	r0, #1
    8d48:	e28dd00c 	add	sp, sp, #12
    8d4c:	e8bd8ff0 	pop	{r4, r5, r6, r7, r8, r9, sl, fp, pc}
    8d50:	0000a2fc 	strdeq	sl, [r0], -ip
    8d54:	0000a2f0 	strdeq	sl, [r0], -r0
    8d58:	00009ec4 	andeq	r9, r0, r4, asr #29
    8d5c:	00009d9c 	muleq	r0, ip, sp
    8d60:	0000a06c 	andeq	sl, r0, ip, rrx
    8d64:	00008724 	andeq	r8, r0, r4, lsr #14
    8d68:	00009efc 	strdeq	r9, [r0], -ip
    8d6c:	00009f44 	andeq	r9, r0, r4, asr #30
    8d70:	00009f84 	andeq	r9, r0, r4, lsl #31
    8d74:	00009af8 	strdeq	r9, [r0], -r8
    8d78:	00009f78 	andeq	r9, r0, r8, ror pc
    8d7c:	0000a0b8 	strheq	sl, [r0], -r8
    8d80:	00009e88 	andeq	r9, r0, r8, lsl #29
    8d84:	00009e94 	muleq	r0, r4, lr
    8d88:	00009ea0 	andeq	r9, r0, r0, lsr #29
    8d8c:	00009eac 	andeq	r9, r0, ip, lsr #29
    8d90:	00009eb8 			; <UNDEFINED> instruction: 0x00009eb8
    8d94:	00009f98 	muleq	r0, r8, pc	; <UNPREDICTABLE>
    8d98:	0000a0ac 	andeq	sl, r0, ip, lsr #1
    8d9c:	00009e70 	andeq	r9, r0, r0, ror lr
    8da0:	00009e7c 	andeq	r9, r0, ip, ror lr
    8da4:	00009fbc 			; <UNDEFINED> instruction: 0x00009fbc
    8da8:	00009fd8 	ldrdeq	r9, [r0], -r8
    8dac:	00009ff0 	strdeq	r9, [r0], -r0

00008db0 <check_sequential>:
    8db0:	e92d4038 	push	{r3, r4, r5, lr}
    8db4:	e1a04000 	mov	r4, r0
    8db8:	e3a05000 	mov	r5, #0
    8dbc:	ea000015 	b	8e18 <check_sequential+0x68>
    8dc0:	e594300c 	ldr	r3, [r4, #12]
    8dc4:	e1a00004 	mov	r0, r4
    8dc8:	e12fff33 	blx	r3
    8dcc:	e5943004 	ldr	r3, [r4, #4]
    8dd0:	e1a00004 	mov	r0, r4
    8dd4:	e12fff33 	blx	r3
    8dd8:	e5943008 	ldr	r3, [r4, #8]
    8ddc:	e1a00004 	mov	r0, r4
    8de0:	e12fff33 	blx	r3
    8de4:	e5943010 	ldr	r3, [r4, #16]
    8de8:	e1a00004 	mov	r0, r4
    8dec:	e12fff33 	blx	r3
    8df0:	e3500000 	cmp	r0, #0
    8df4:	1a000006 	bne	8e14 <check_sequential+0x64>
    8df8:	eb000045 	bl	8f14 <rpi_reset_putc>
    8dfc:	e59f0024 	ldr	r0, [pc, #36]	; 8e28 <check_sequential+0x78>
    8e00:	e59f1024 	ldr	r1, [pc, #36]	; 8e2c <check_sequential+0x7c>
    8e04:	e59f2024 	ldr	r2, [pc, #36]	; 8e30 <check_sequential+0x80>
    8e08:	e3a0306e 	mov	r3, #110	; 0x6e
    8e0c:	eb000025 	bl	8ea8 <printk>
    8e10:	eb0001bc 	bl	9508 <clean_reboot>
    8e14:	e2855001 	add	r5, r5, #1
    8e18:	e3550063 	cmp	r5, #99	; 0x63
    8e1c:	9affffe7 	bls	8dc0 <check_sequential+0x10>
    8e20:	e3a00001 	mov	r0, #1
    8e24:	e8bd8038 	pop	{r3, r4, r5, pc}
    8e28:	0000a01c 	andeq	sl, r0, ip, lsl r0
    8e2c:	00009d9c 	muleq	r0, ip, sp
    8e30:	0000a058 	andeq	sl, r0, r8, asr r0

00008e34 <check_zero>:
    8e34:	e3a03000 	mov	r3, #0
    8e38:	e5803030 	str	r3, [r0, #48]	; 0x30
    8e3c:	e580302c 	str	r3, [r0, #44]	; 0x2c
    8e40:	e5803028 	str	r3, [r0, #40]	; 0x28
    8e44:	e5803024 	str	r3, [r0, #36]	; 0x24
    8e48:	e5803020 	str	r3, [r0, #32]
    8e4c:	e580301c 	str	r3, [r0, #28]
    8e50:	e5803018 	str	r3, [r0, #24]
    8e54:	e5803014 	str	r3, [r0, #20]
    8e58:	e12fff1e 	bx	lr

00008e5c <check>:
    8e5c:	e92d4010 	push	{r4, lr}
    8e60:	e1a04000 	mov	r4, r0
    8e64:	ebfffd65 	bl	8400 <cp14_enable>
    8e68:	e1a00004 	mov	r0, r4
    8e6c:	ebfffff0 	bl	8e34 <check_zero>
    8e70:	e1a00004 	mov	r0, r4
    8e74:	ebffffcd 	bl	8db0 <check_sequential>
    8e78:	e3500000 	cmp	r0, #0
    8e7c:	0a000005 	beq	8e98 <check+0x3c>
    8e80:	e1a00004 	mov	r0, r4
    8e84:	ebfffe91 	bl	88d0 <check_one_cswitch>
    8e88:	e3500000 	cmp	r0, #0
    8e8c:	0a000003 	beq	8ea0 <check+0x44>
    8e90:	e3a00001 	mov	r0, #1
    8e94:	e8bd8010 	pop	{r4, pc}
    8e98:	e3a00000 	mov	r0, #0
    8e9c:	e8bd8010 	pop	{r4, pc}
    8ea0:	e3a00000 	mov	r0, #0
    8ea4:	e8bd8010 	pop	{r4, pc}

00008ea8 <printk>:
    8ea8:	e92d000f 	push	{r0, r1, r2, r3}
    8eac:	e92d4030 	push	{r4, r5, lr}
    8eb0:	e24dd00c 	sub	sp, sp, #12
    8eb4:	e28d301c 	add	r3, sp, #28
    8eb8:	e58d3004 	str	r3, [sp, #4]
    8ebc:	e59f4034 	ldr	r4, [pc, #52]	; 8ef8 <printk+0x50>
    8ec0:	e1a00004 	mov	r0, r4
    8ec4:	e3a01b01 	mov	r1, #1024	; 0x400
    8ec8:	e59d2018 	ldr	r2, [sp, #24]
    8ecc:	eb0000d0 	bl	9214 <va_printk>
    8ed0:	e1a05000 	mov	r5, r0
    8ed4:	e59f3020 	ldr	r3, [pc, #32]	; 8efc <printk+0x54>
    8ed8:	e5933000 	ldr	r3, [r3]
    8edc:	e1a00004 	mov	r0, r4
    8ee0:	e12fff33 	blx	r3
    8ee4:	e1a00005 	mov	r0, r5
    8ee8:	e28dd00c 	add	sp, sp, #12
    8eec:	e8bd4030 	pop	{r4, r5, lr}
    8ef0:	e28dd010 	add	sp, sp, #16
    8ef4:	e12fff1e 	bx	lr
    8ef8:	0000a304 	andeq	sl, r0, r4, lsl #6
    8efc:	00009abc 			; <UNDEFINED> instruction: 0x00009abc

00008f00 <internal_putchar>:
    8f00:	e92d4010 	push	{r4, lr}
    8f04:	e1a04000 	mov	r4, r0
    8f08:	eb000291 	bl	9954 <uart_putc>
    8f0c:	e1a00004 	mov	r0, r4
    8f10:	e8bd8010 	pop	{r4, pc}

00008f14 <rpi_reset_putc>:
    8f14:	e59f2008 	ldr	r2, [pc, #8]	; 8f24 <rpi_reset_putc+0x10>
    8f18:	e59f3008 	ldr	r3, [pc, #8]	; 8f28 <rpi_reset_putc+0x14>
    8f1c:	e5832000 	str	r2, [r3]
    8f20:	e12fff1e 	bx	lr
    8f24:	00008f00 	andeq	r8, r0, r0, lsl #30
    8f28:	00009ab8 			; <UNDEFINED> instruction: 0x00009ab8

00008f2c <rpi_set_putc>:
    8f2c:	e59f3004 	ldr	r3, [pc, #4]	; 8f38 <rpi_set_putc+0xc>
    8f30:	e5830000 	str	r0, [r3]
    8f34:	e12fff1e 	bx	lr
    8f38:	00009ab8 			; <UNDEFINED> instruction: 0x00009ab8

00008f3c <internal_putk>:
    8f3c:	e92d4038 	push	{r3, r4, r5, lr}
    8f40:	e1a04000 	mov	r4, r0
    8f44:	e59f5020 	ldr	r5, [pc, #32]	; 8f6c <internal_putk+0x30>
    8f48:	ea000002 	b	8f58 <internal_putk+0x1c>
    8f4c:	e5953000 	ldr	r3, [r5]
    8f50:	e12fff33 	blx	r3
    8f54:	e2844001 	add	r4, r4, #1
    8f58:	e5d40000 	ldrb	r0, [r4]
    8f5c:	e3500000 	cmp	r0, #0
    8f60:	1afffff9 	bne	8f4c <internal_putk+0x10>
    8f64:	e3a00001 	mov	r0, #1
    8f68:	e8bd8038 	pop	{r3, r4, r5, pc}
    8f6c:	00009ab8 			; <UNDEFINED> instruction: 0x00009ab8

00008f70 <isdigit>:
    8f70:	e2400030 	sub	r0, r0, #48	; 0x30
    8f74:	e3500009 	cmp	r0, #9
    8f78:	83a00000 	movhi	r0, #0
    8f7c:	93a00001 	movls	r0, #1
    8f80:	e12fff1e 	bx	lr

00008f84 <pad>:
    8f84:	e0611000 	rsb	r1, r1, r0
    8f88:	e3a03020 	mov	r3, #32
    8f8c:	ea000002 	b	8f9c <pad+0x18>
    8f90:	e5c03000 	strb	r3, [r0]
    8f94:	e2811001 	add	r1, r1, #1
    8f98:	e2800001 	add	r0, r0, #1
    8f9c:	e1510002 	cmp	r1, r2
    8fa0:	bafffffa 	blt	8f90 <pad+0xc>
    8fa4:	e3a03000 	mov	r3, #0
    8fa8:	e5c03000 	strb	r3, [r0]
    8fac:	e12fff1e 	bx	lr

00008fb0 <reverse>:
    8fb0:	e063c002 	rsb	ip, r3, r2
    8fb4:	e28cc001 	add	ip, ip, #1
    8fb8:	e15c0001 	cmp	ip, r1
    8fbc:	c061100c 	rsbgt	r1, r1, ip
    8fc0:	c0833001 	addgt	r3, r3, r1
    8fc4:	e2422001 	sub	r2, r2, #1
    8fc8:	e1a01000 	mov	r1, r0
    8fcc:	ea000002 	b	8fdc <reverse+0x2c>
    8fd0:	e452c001 	ldrb	ip, [r2], #-1
    8fd4:	e5c1c000 	strb	ip, [r1]
    8fd8:	e2811001 	add	r1, r1, #1
    8fdc:	e1520003 	cmp	r2, r3
    8fe0:	2afffffa 	bcs	8fd0 <reverse+0x20>
    8fe4:	e3a03000 	mov	r3, #0
    8fe8:	e5c13000 	strb	r3, [r1]
    8fec:	e12fff1e 	bx	lr

00008ff0 <emit>:
    8ff0:	e92d41f0 	push	{r4, r5, r6, r7, r8, lr}
    8ff4:	e24dd048 	sub	sp, sp, #72	; 0x48
    8ff8:	e1a05001 	mov	r5, r1
    8ffc:	e1a04002 	mov	r4, r2
    9000:	e59d2060 	ldr	r2, [sp, #96]	; 0x60
    9004:	e1520004 	cmp	r2, r4
    9008:	c2442001 	subgt	r2, r4, #1
    900c:	e1a0c003 	mov	ip, r3
    9010:	e2400002 	sub	r0, r0, #2
    9014:	e350000e 	cmp	r0, #14
    9018:	979ff100 	ldrls	pc, [pc, r0, lsl #2]
    901c:	ea000048 	b	9144 <emit+0x154>
    9020:	0000911c 	andeq	r9, r0, ip, lsl r1
    9024:	00009144 	andeq	r9, r0, r4, asr #2
    9028:	00009144 	andeq	r9, r0, r4, asr #2
    902c:	00009144 	andeq	r9, r0, r4, asr #2
    9030:	00009144 	andeq	r9, r0, r4, asr #2
    9034:	00009144 	andeq	r9, r0, r4, asr #2
    9038:	00009110 	andeq	r9, r0, r0, lsl r1
    903c:	00009144 	andeq	r9, r0, r4, asr #2
    9040:	0000905c 	andeq	r9, r0, ip, asr r0
    9044:	00009144 	andeq	r9, r0, r4, asr #2
    9048:	00009144 	andeq	r9, r0, r4, asr #2
    904c:	00009144 	andeq	r9, r0, r4, asr #2
    9050:	00009144 	andeq	r9, r0, r4, asr #2
    9054:	00009144 	andeq	r9, r0, r4, asr #2
    9058:	000090d0 	ldrdeq	r9, [r0], -r0
    905c:	e59d1064 	ldr	r1, [sp, #100]	; 0x64
    9060:	e2911000 	adds	r1, r1, #0
    9064:	13a01001 	movne	r1, #1
    9068:	e0111fa3 	ands	r1, r1, r3, lsr #31
    906c:	1263c000 	rsbne	ip, r3, #0
    9070:	13a08001 	movne	r8, #1
    9074:	03a08000 	moveq	r8, #0
    9078:	e28d1008 	add	r1, sp, #8
    907c:	e59f7108 	ldr	r7, [pc, #264]	; 918c <emit+0x19c>
    9080:	e59f6108 	ldr	r6, [pc, #264]	; 9190 <emit+0x1a0>
    9084:	ea000000 	b	908c <emit+0x9c>
    9088:	e1a01000 	mov	r1, r0
    908c:	e2810001 	add	r0, r1, #1
    9090:	e083ec97 	umull	lr, r3, r7, ip
    9094:	e1a031a3 	lsr	r3, r3, #3
    9098:	e1a0e003 	mov	lr, r3
    909c:	e0833103 	add	r3, r3, r3, lsl #2
    90a0:	e1a03083 	lsl	r3, r3, #1
    90a4:	e063300c 	rsb	r3, r3, ip
    90a8:	e7d63003 	ldrb	r3, [r6, r3]
    90ac:	e5c13000 	strb	r3, [r1]
    90b0:	e1a0c00e 	mov	ip, lr
    90b4:	e35e0000 	cmp	lr, #0
    90b8:	1afffff2 	bne	9088 <emit+0x98>
    90bc:	e3580000 	cmp	r8, #0
    90c0:	12810002 	addne	r0, r1, #2
    90c4:	13a0302d 	movne	r3, #45	; 0x2d
    90c8:	15c13001 	strbne	r3, [r1, #1]
    90cc:	ea000025 	b	9168 <emit+0x178>
    90d0:	e28d3008 	add	r3, sp, #8
    90d4:	e59fe0b8 	ldr	lr, [pc, #184]	; 9194 <emit+0x1a4>
    90d8:	ea000000 	b	90e0 <emit+0xf0>
    90dc:	e1a03000 	mov	r3, r0
    90e0:	e2830001 	add	r0, r3, #1
    90e4:	e20c100f 	and	r1, ip, #15
    90e8:	e7de1001 	ldrb	r1, [lr, r1]
    90ec:	e5c31000 	strb	r1, [r3]
    90f0:	e1b0c22c 	lsrs	ip, ip, #4
    90f4:	1afffff8 	bne	90dc <emit+0xec>
    90f8:	e3a01078 	mov	r1, #120	; 0x78
    90fc:	e5c31001 	strb	r1, [r3, #1]
    9100:	e2830003 	add	r0, r3, #3
    9104:	e3a01030 	mov	r1, #48	; 0x30
    9108:	e5c31002 	strb	r1, [r3, #2]
    910c:	ea000015 	b	9168 <emit+0x178>
    9110:	e5cd3008 	strb	r3, [sp, #8]
    9114:	e28d0009 	add	r0, sp, #9
    9118:	ea000012 	b	9168 <emit+0x178>
    911c:	e28d3008 	add	r3, sp, #8
    9120:	e59fe070 	ldr	lr, [pc, #112]	; 9198 <emit+0x1a8>
    9124:	e2830001 	add	r0, r3, #1
    9128:	e20c1001 	and	r1, ip, #1
    912c:	e7de1001 	ldrb	r1, [lr, r1]
    9130:	e5c31000 	strb	r1, [r3]
    9134:	e1a03000 	mov	r3, r0
    9138:	e1b0c0ac 	lsrs	ip, ip, #1
    913c:	1afffff8 	bne	9124 <emit+0x134>
    9140:	ea000008 	b	9168 <emit+0x178>
    9144:	ebffff72 	bl	8f14 <rpi_reset_putc>
    9148:	e59f304c 	ldr	r3, [pc, #76]	; 919c <emit+0x1ac>
    914c:	e58d3000 	str	r3, [sp]
    9150:	e59f0048 	ldr	r0, [pc, #72]	; 91a0 <emit+0x1b0>
    9154:	e59f1048 	ldr	r1, [pc, #72]	; 91a4 <emit+0x1b4>
    9158:	e59f2048 	ldr	r2, [pc, #72]	; 91a8 <emit+0x1b8>
    915c:	e3a03077 	mov	r3, #119	; 0x77
    9160:	ebffff50 	bl	8ea8 <printk>
    9164:	eb0000e7 	bl	9508 <clean_reboot>
    9168:	e28d1008 	add	r1, sp, #8
    916c:	ebffff84 	bl	8f84 <pad>
    9170:	e1a02000 	mov	r2, r0
    9174:	e1a00005 	mov	r0, r5
    9178:	e1a01004 	mov	r1, r4
    917c:	e28d3008 	add	r3, sp, #8
    9180:	ebffff8a 	bl	8fb0 <reverse>
    9184:	e28dd048 	add	sp, sp, #72	; 0x48
    9188:	e8bd81f0 	pop	{r4, r5, r6, r7, r8, pc}
    918c:	cccccccd 	stclgt	12, cr12, [ip], {205}	; 0xcd
    9190:	0000a10c 	andeq	sl, r0, ip, lsl #2
    9194:	0000a118 	andeq	sl, r0, r8, lsl r1
    9198:	0000a12c 	andeq	sl, r0, ip, lsr #2
    919c:	0000a108 	andeq	sl, r0, r8, lsl #2
    91a0:	00009af8 	strdeq	r9, [r0], -r8
    91a4:	0000a0f4 	strdeq	sl, [r0], -r4
    91a8:	0000a0d0 	ldrdeq	sl, [r0], -r0

000091ac <rpi_set_output>:
    91ac:	e52de004 	push	{lr}		; (str lr, [sp, #-4]!)
    91b0:	e24dd00c 	sub	sp, sp, #12
    91b4:	e3500000 	cmp	r0, #0
    91b8:	1a000008 	bne	91e0 <rpi_set_output+0x34>
    91bc:	ebffff54 	bl	8f14 <rpi_reset_putc>
    91c0:	e59f3034 	ldr	r3, [pc, #52]	; 91fc <rpi_set_output+0x50>
    91c4:	e58d3000 	str	r3, [sp]
    91c8:	e59f0030 	ldr	r0, [pc, #48]	; 9200 <rpi_set_output+0x54>
    91cc:	e59f1030 	ldr	r1, [pc, #48]	; 9204 <rpi_set_output+0x58>
    91d0:	e59f2030 	ldr	r2, [pc, #48]	; 9208 <rpi_set_output+0x5c>
    91d4:	e3a03020 	mov	r3, #32
    91d8:	ebffff32 	bl	8ea8 <printk>
    91dc:	eb0000c9 	bl	9508 <clean_reboot>
    91e0:	e59f3024 	ldr	r3, [pc, #36]	; 920c <rpi_set_output+0x60>
    91e4:	e5830000 	str	r0, [r3]
    91e8:	e3510000 	cmp	r1, #0
    91ec:	159f301c 	ldrne	r3, [pc, #28]	; 9210 <rpi_set_output+0x64>
    91f0:	15831000 	strne	r1, [r3]
    91f4:	e28dd00c 	add	sp, sp, #12
    91f8:	e49df004 	pop	{pc}		; (ldr pc, [sp], #4)
    91fc:	0000a130 	andeq	sl, r0, r0, lsr r1
    9200:	00009af8 	strdeq	r9, [r0], -r8
    9204:	0000a0f4 	strdeq	sl, [r0], -r4
    9208:	0000a0d8 	ldrdeq	sl, [r0], -r8
    920c:	00009ab8 			; <UNDEFINED> instruction: 0x00009ab8
    9210:	00009abc 			; <UNDEFINED> instruction: 0x00009abc

00009214 <va_printk>:
    9214:	e92d4ff0 	push	{r4, r5, r6, r7, r8, r9, sl, fp, lr}
    9218:	e24dd094 	sub	sp, sp, #148	; 0x94
    921c:	e1a0b000 	mov	fp, r0
    9220:	e58d200c 	str	r2, [sp, #12]
    9224:	e1a0a003 	mov	sl, r3
    9228:	e2411001 	sub	r1, r1, #1
    922c:	e0808001 	add	r8, r0, r1
    9230:	e3a03000 	mov	r3, #0
    9234:	e5c03000 	strb	r3, [r0]
    9238:	e1a04000 	mov	r4, r0
    923c:	e1a06002 	mov	r6, r2
    9240:	ea000095 	b	949c <va_printk+0x288>
    9244:	e3530025 	cmp	r3, #37	; 0x25
    9248:	12866001 	addne	r6, r6, #1
    924c:	15c43000 	strbne	r3, [r4]
    9250:	12844001 	addne	r4, r4, #1
    9254:	1a000090 	bne	949c <va_printk+0x288>
    9258:	e5d62001 	ldrb	r2, [r6, #1]
    925c:	e3520025 	cmp	r2, #37	; 0x25
    9260:	05c43000 	strbeq	r3, [r4]
    9264:	02866002 	addeq	r6, r6, #2
    9268:	02844001 	addeq	r4, r4, #1
    926c:	0a00008a 	beq	949c <va_printk+0x288>
    9270:	e2866001 	add	r6, r6, #1
    9274:	e3a07000 	mov	r7, #0
    9278:	ea000004 	b	9290 <va_printk+0x7c>
    927c:	e0877107 	add	r7, r7, r7, lsl #2
    9280:	e1a07087 	lsl	r7, r7, #1
    9284:	e0877005 	add	r7, r7, r5
    9288:	e2477030 	sub	r7, r7, #48	; 0x30
    928c:	e2866001 	add	r6, r6, #1
    9290:	e5d65000 	ldrb	r5, [r6]
    9294:	e1a09005 	mov	r9, r5
    9298:	e1a00005 	mov	r0, r5
    929c:	ebffff33 	bl	8f70 <isdigit>
    92a0:	e3500000 	cmp	r0, #0
    92a4:	1afffff4 	bne	927c <va_printk+0x68>
    92a8:	e357001f 	cmp	r7, #31
    92ac:	9a000008 	bls	92d4 <va_printk+0xc0>
    92b0:	ebffff17 	bl	8f14 <rpi_reset_putc>
    92b4:	e59f320c 	ldr	r3, [pc, #524]	; 94c8 <va_printk+0x2b4>
    92b8:	e58d3000 	str	r3, [sp]
    92bc:	e59f0208 	ldr	r0, [pc, #520]	; 94cc <va_printk+0x2b8>
    92c0:	e59f1208 	ldr	r1, [pc, #520]	; 94d0 <va_printk+0x2bc>
    92c4:	e59f2208 	ldr	r2, [pc, #520]	; 94d4 <va_printk+0x2c0>
    92c8:	e3a03095 	mov	r3, #149	; 0x95
    92cc:	ebfffef5 	bl	8ea8 <printk>
    92d0:	eb00008c 	bl	9508 <clean_reboot>
    92d4:	e2455062 	sub	r5, r5, #98	; 0x62
    92d8:	e3550016 	cmp	r5, #22
    92dc:	979ff105 	ldrls	pc, [pc, r5, lsl #2]
    92e0:	ea000052 	b	9430 <va_printk+0x21c>
    92e4:	000093d4 	ldrdeq	r9, [r0], -r4
    92e8:	00009408 	andeq	r9, r0, r8, lsl #8
    92ec:	0000935c 	andeq	r9, r0, ip, asr r3
    92f0:	00009430 	andeq	r9, r0, r0, lsr r4
    92f4:	00009340 	andeq	r9, r0, r0, asr #6
    92f8:	00009430 	andeq	r9, r0, r0, lsr r4
    92fc:	00009430 	andeq	r9, r0, r0, lsr r4
    9300:	00009430 	andeq	r9, r0, r0, lsr r4
    9304:	00009430 	andeq	r9, r0, r0, lsr r4
    9308:	00009430 	andeq	r9, r0, r0, lsr r4
    930c:	00009430 	andeq	r9, r0, r0, lsr r4
    9310:	00009430 	andeq	r9, r0, r0, lsr r4
    9314:	00009430 	andeq	r9, r0, r0, lsr r4
    9318:	00009430 	andeq	r9, r0, r0, lsr r4
    931c:	000093ac 	andeq	r9, r0, ip, lsr #7
    9320:	00009430 	andeq	r9, r0, r0, lsr r4
    9324:	00009430 	andeq	r9, r0, r0, lsr r4
    9328:	000093fc 	strdeq	r9, [r0], -ip
    932c:	00009430 	andeq	r9, r0, r0, lsr r4
    9330:	00009384 	andeq	r9, r0, r4, lsl #7
    9334:	00009430 	andeq	r9, r0, r0, lsr r4
    9338:	00009430 	andeq	r9, r0, r0, lsr r4
    933c:	000093ac 	andeq	r9, r0, ip, lsr #7
    9340:	ebfffef3 	bl	8f14 <rpi_reset_putc>
    9344:	e59f018c 	ldr	r0, [pc, #396]	; 94d8 <va_printk+0x2c4>
    9348:	e59f1180 	ldr	r1, [pc, #384]	; 94d0 <va_printk+0x2bc>
    934c:	e59f2180 	ldr	r2, [pc, #384]	; 94d4 <va_printk+0x2c0>
    9350:	e3a0309b 	mov	r3, #155	; 0x9b
    9354:	ebfffed3 	bl	8ea8 <printk>
    9358:	eb00006a 	bl	9508 <clean_reboot>
    935c:	e59a3000 	ldr	r3, [sl]
    9360:	e28aa004 	add	sl, sl, #4
    9364:	e58d7000 	str	r7, [sp]
    9368:	e3a02001 	mov	r2, #1
    936c:	e58d2004 	str	r2, [sp, #4]
    9370:	e3a0000a 	mov	r0, #10
    9374:	e28d1010 	add	r1, sp, #16
    9378:	e3a02080 	mov	r2, #128	; 0x80
    937c:	ebffff1b 	bl	8ff0 <emit>
    9380:	ea00003b 	b	9474 <va_printk+0x260>
    9384:	e59a3000 	ldr	r3, [sl]
    9388:	e28aa004 	add	sl, sl, #4
    938c:	e58d7000 	str	r7, [sp]
    9390:	e3a02000 	mov	r2, #0
    9394:	e58d2004 	str	r2, [sp, #4]
    9398:	e3a0000a 	mov	r0, #10
    939c:	e28d1010 	add	r1, sp, #16
    93a0:	e3a02080 	mov	r2, #128	; 0x80
    93a4:	ebffff11 	bl	8ff0 <emit>
    93a8:	ea000031 	b	9474 <va_printk+0x260>
    93ac:	e59a3000 	ldr	r3, [sl]
    93b0:	e28aa004 	add	sl, sl, #4
    93b4:	e58d7000 	str	r7, [sp]
    93b8:	e3a02000 	mov	r2, #0
    93bc:	e58d2004 	str	r2, [sp, #4]
    93c0:	e3a00010 	mov	r0, #16
    93c4:	e08d1000 	add	r1, sp, r0
    93c8:	e3a02080 	mov	r2, #128	; 0x80
    93cc:	ebffff07 	bl	8ff0 <emit>
    93d0:	ea000027 	b	9474 <va_printk+0x260>
    93d4:	e59a3000 	ldr	r3, [sl]
    93d8:	e28aa004 	add	sl, sl, #4
    93dc:	e58d7000 	str	r7, [sp]
    93e0:	e3a02000 	mov	r2, #0
    93e4:	e58d2004 	str	r2, [sp, #4]
    93e8:	e3a00002 	mov	r0, #2
    93ec:	e28d1010 	add	r1, sp, #16
    93f0:	e3a02080 	mov	r2, #128	; 0x80
    93f4:	ebfffefd 	bl	8ff0 <emit>
    93f8:	ea00001d 	b	9474 <va_printk+0x260>
    93fc:	e59a0000 	ldr	r0, [sl]
    9400:	e28aa004 	add	sl, sl, #4
    9404:	ea00001a 	b	9474 <va_printk+0x260>
    9408:	e59a3000 	ldr	r3, [sl]
    940c:	e28aa004 	add	sl, sl, #4
    9410:	e58d7000 	str	r7, [sp]
    9414:	e3a02000 	mov	r2, #0
    9418:	e58d2004 	str	r2, [sp, #4]
    941c:	e3a00008 	mov	r0, #8
    9420:	e28d1010 	add	r1, sp, #16
    9424:	e3a02080 	mov	r2, #128	; 0x80
    9428:	ebfffef0 	bl	8ff0 <emit>
    942c:	ea000010 	b	9474 <va_printk+0x260>
    9430:	e3a03000 	mov	r3, #0
    9434:	e5c63001 	strb	r3, [r6, #1]
    9438:	e59f009c 	ldr	r0, [pc, #156]	; 94dc <va_printk+0x2c8>
    943c:	e1a01009 	mov	r1, r9
    9440:	e1a02009 	mov	r2, r9
    9444:	ebfffe97 	bl	8ea8 <printk>
    9448:	e59f3090 	ldr	r3, [pc, #144]	; 94e0 <va_printk+0x2cc>
    944c:	e5933000 	ldr	r3, [r3]
    9450:	e59d000c 	ldr	r0, [sp, #12]
    9454:	e12fff33 	blx	r3
    9458:	ebfffead 	bl	8f14 <rpi_reset_putc>
    945c:	e59f0080 	ldr	r0, [pc, #128]	; 94e4 <va_printk+0x2d0>
    9460:	e59f1068 	ldr	r1, [pc, #104]	; 94d0 <va_printk+0x2bc>
    9464:	e59f2068 	ldr	r2, [pc, #104]	; 94d4 <va_printk+0x2c0>
    9468:	e3a030bf 	mov	r3, #191	; 0xbf
    946c:	ebfffe8d 	bl	8ea8 <printk>
    9470:	eb000024 	bl	9508 <clean_reboot>
    9474:	e2866001 	add	r6, r6, #1
    9478:	ea000002 	b	9488 <va_printk+0x274>
    947c:	e2800001 	add	r0, r0, #1
    9480:	e5c43000 	strb	r3, [r4]
    9484:	e2844001 	add	r4, r4, #1
    9488:	e1540008 	cmp	r4, r8
    948c:	2a000002 	bcs	949c <va_printk+0x288>
    9490:	e5d03000 	ldrb	r3, [r0]
    9494:	e3530000 	cmp	r3, #0
    9498:	1afffff7 	bne	947c <va_printk+0x268>
    949c:	e5d63000 	ldrb	r3, [r6]
    94a0:	e3530000 	cmp	r3, #0
    94a4:	0a000001 	beq	94b0 <va_printk+0x29c>
    94a8:	e1540008 	cmp	r4, r8
    94ac:	3affff64 	bcc	9244 <va_printk+0x30>
    94b0:	e2840001 	add	r0, r4, #1
    94b4:	e3a03000 	mov	r3, #0
    94b8:	e5c43000 	strb	r3, [r4]
    94bc:	e06b0000 	rsb	r0, fp, r0
    94c0:	e28dd094 	add	sp, sp, #148	; 0x94
    94c4:	e8bd8ff0 	pop	{r4, r5, r6, r7, r8, r9, sl, fp, pc}
    94c8:	0000a138 	andeq	sl, r0, r8, lsr r1
    94cc:	00009af8 	strdeq	r9, [r0], -r8
    94d0:	0000a0f4 	strdeq	sl, [r0], -r4
    94d4:	0000a0e8 	andeq	sl, r0, r8, ror #1
    94d8:	0000a144 	andeq	sl, r0, r4, asr #2
    94dc:	0000a16c 	andeq	sl, r0, ip, ror #2
    94e0:	00009abc 			; <UNDEFINED> instruction: 0x00009abc
    94e4:	0000a19c 	muleq	r0, ip, r1

000094e8 <enable_cache>:
    94e8:	ee113f10 	mrc	15, 0, r3, cr1, cr0, {0}
    94ec:	e3833b06 	orr	r3, r3, #6144	; 0x1800
    94f0:	ee013f10 	mcr	15, 0, r3, cr1, cr0, {0}
    94f4:	e12fff1e 	bx	lr

000094f8 <disable_cache>:
    94f8:	ee113f10 	mrc	15, 0, r3, cr1, cr0, {0}
    94fc:	e3c33b06 	bic	r3, r3, #6144	; 0x1800
    9500:	ee013f10 	mcr	15, 0, r3, cr1, cr0, {0}
    9504:	e12fff1e 	bx	lr

00009508 <clean_reboot>:
    9508:	e92d4008 	push	{r3, lr}
    950c:	eb00004a 	bl	963c <reboot_handler>
    9510:	e59f3014 	ldr	r3, [pc, #20]	; 952c <clean_reboot+0x24>
    9514:	e5933000 	ldr	r3, [r3]
    9518:	e59f0010 	ldr	r0, [pc, #16]	; 9530 <clean_reboot+0x28>
    951c:	e12fff33 	blx	r3
    9520:	e3a00064 	mov	r0, #100	; 0x64
    9524:	eb000099 	bl	9790 <delay_ms>
    9528:	eb00006a 	bl	96d8 <rpi_reboot>
    952c:	00009abc 			; <UNDEFINED> instruction: 0x00009abc
    9530:	0000a1bc 			; <UNDEFINED> instruction: 0x0000a1bc

00009534 <_cstart>:
    9534:	e92d4008 	push	{r3, lr}
    9538:	e59f3024 	ldr	r3, [pc, #36]	; 9564 <_cstart+0x30>
    953c:	e59f2024 	ldr	r2, [pc, #36]	; 9568 <_cstart+0x34>
    9540:	e3a01000 	mov	r1, #0
    9544:	ea000001 	b	9550 <_cstart+0x1c>
    9548:	e5831000 	str	r1, [r3]
    954c:	e2833004 	add	r3, r3, #4
    9550:	e1530002 	cmp	r3, r2
    9554:	3afffffb 	bcc	9548 <_cstart+0x14>
    9558:	eb000036 	bl	9638 <cstart_handler>
    955c:	ebfffb28 	bl	8204 <notmain>
    9560:	ebffffe8 	bl	9508 <clean_reboot>
    9564:	0000a2e0 	andeq	sl, r0, r0, ror #5
    9568:	0000a708 	andeq	sl, r0, r8, lsl #14

0000956c <fast_interrupt_vector>:
    956c:	e52de004 	push	{lr}		; (str lr, [sp, #-4]!)
    9570:	e24dd00c 	sub	sp, sp, #12
    9574:	e1a04000 	mov	r4, r0
    9578:	ebfffe65 	bl	8f14 <rpi_reset_putc>
    957c:	e59f301c 	ldr	r3, [pc, #28]	; 95a0 <fast_interrupt_vector+0x34>
    9580:	e58d3000 	str	r3, [sp]
    9584:	e58d4004 	str	r4, [sp, #4]
    9588:	e59f0014 	ldr	r0, [pc, #20]	; 95a4 <fast_interrupt_vector+0x38>
    958c:	e59f1014 	ldr	r1, [pc, #20]	; 95a8 <fast_interrupt_vector+0x3c>
    9590:	e59f2014 	ldr	r2, [pc, #20]	; 95ac <fast_interrupt_vector+0x40>
    9594:	e3a03002 	mov	r3, #2
    9598:	ebfffe42 	bl	8ea8 <printk>
    959c:	ebffffd9 	bl	9508 <clean_reboot>
    95a0:	0000a240 	andeq	sl, r0, r0, asr #4
    95a4:	0000a1e0 	andeq	sl, r0, r0, ror #3
    95a8:	0000a21c 	andeq	sl, r0, ip, lsl r2
    95ac:	0000a1c8 	andeq	sl, r0, r8, asr #3

000095b0 <reset_vector>:
    95b0:	e52de004 	push	{lr}		; (str lr, [sp, #-4]!)
    95b4:	e24dd00c 	sub	sp, sp, #12
    95b8:	e1a04000 	mov	r4, r0
    95bc:	ebfffe54 	bl	8f14 <rpi_reset_putc>
    95c0:	e59f301c 	ldr	r3, [pc, #28]	; 95e4 <reset_vector+0x34>
    95c4:	e58d3000 	str	r3, [sp]
    95c8:	e58d4004 	str	r4, [sp, #4]
    95cc:	e59f0014 	ldr	r0, [pc, #20]	; 95e8 <reset_vector+0x38>
    95d0:	e59f1014 	ldr	r1, [pc, #20]	; 95ec <reset_vector+0x3c>
    95d4:	e59f2014 	ldr	r2, [pc, #20]	; 95f0 <reset_vector+0x40>
    95d8:	e3a03002 	mov	r3, #2
    95dc:	ebfffe31 	bl	8ea8 <printk>
    95e0:	ebffffc8 	bl	9508 <clean_reboot>
    95e4:	0000a27c 	andeq	sl, r0, ip, ror r2
    95e8:	0000a1e0 	andeq	sl, r0, r0, ror #3
    95ec:	0000a258 	andeq	sl, r0, r8, asr r2
    95f0:	0000a248 	andeq	sl, r0, r8, asr #4

000095f4 <undefined_instruction_vector>:
    95f4:	e52de004 	push	{lr}		; (str lr, [sp, #-4]!)
    95f8:	e24dd00c 	sub	sp, sp, #12
    95fc:	e1a04000 	mov	r4, r0
    9600:	ebfffe43 	bl	8f14 <rpi_reset_putc>
    9604:	e59f301c 	ldr	r3, [pc, #28]	; 9628 <undefined_instruction_vector+0x34>
    9608:	e58d3000 	str	r3, [sp]
    960c:	e58d4004 	str	r4, [sp, #4]
    9610:	e59f0014 	ldr	r0, [pc, #20]	; 962c <undefined_instruction_vector+0x38>
    9614:	e59f1014 	ldr	r1, [pc, #20]	; 9630 <undefined_instruction_vector+0x3c>
    9618:	e59f2014 	ldr	r2, [pc, #20]	; 9634 <undefined_instruction_vector+0x40>
    961c:	e3a03002 	mov	r3, #2
    9620:	ebfffe20 	bl	8ea8 <printk>
    9624:	ebffffb7 	bl	9508 <clean_reboot>
    9628:	0000a2d0 	ldrdeq	sl, [r0], -r0
    962c:	0000a1e0 	andeq	sl, r0, r0, ror #3
    9630:	0000a2a4 	andeq	sl, r0, r4, lsr #5
    9634:	0000a284 	andeq	sl, r0, r4, lsl #5

00009638 <cstart_handler>:
    9638:	e12fff1e 	bx	lr

0000963c <reboot_handler>:
    963c:	e12fff1e 	bx	lr

00009640 <int_init>:
    9640:	e92d4008 	push	{r3, lr}
    9644:	eb00005b 	bl	97b8 <dev_barrier>
    9648:	e59f004c 	ldr	r0, [pc, #76]	; 969c <int_init+0x5c>
    964c:	e3e01000 	mvn	r1, #0
    9650:	eb000060 	bl	97d8 <PUT32>
    9654:	e59f0044 	ldr	r0, [pc, #68]	; 96a0 <int_init+0x60>
    9658:	e3e01000 	mvn	r1, #0
    965c:	eb00005d 	bl	97d8 <PUT32>
    9660:	eb000054 	bl	97b8 <dev_barrier>
    9664:	e59f3038 	ldr	r3, [pc, #56]	; 96a4 <int_init+0x64>
    9668:	e59f0038 	ldr	r0, [pc, #56]	; 96a8 <int_init+0x68>
    966c:	e0630000 	rsb	r0, r3, r0
    9670:	e1a00140 	asr	r0, r0, #2
    9674:	e3a03000 	mov	r3, #0
    9678:	e59fc024 	ldr	ip, [pc, #36]	; 96a4 <int_init+0x64>
    967c:	ea000003 	b	9690 <int_init+0x50>
    9680:	e1a02103 	lsl	r2, r3, #2
    9684:	e79c1103 	ldr	r1, [ip, r3, lsl #2]
    9688:	e5821000 	str	r1, [r2]
    968c:	e2833001 	add	r3, r3, #1
    9690:	e1530000 	cmp	r3, r0
    9694:	3afffff9 	bcc	9680 <int_init+0x40>
    9698:	e8bd8008 	pop	{r3, pc}
    969c:	2000b21c 	andcs	fp, r0, ip, lsl r2
    96a0:	2000b220 	andcs	fp, r0, r0, lsr #4
    96a4:	000085ec 	andeq	r8, r0, ip, ror #11
    96a8:	0000862c 	andeq	r8, r0, ip, lsr #12

000096ac <at_user_level>:
    96ac:	e10f0000 	mrs	r0, CPSR
    96b0:	e200001f 	and	r0, r0, #31
    96b4:	e3500010 	cmp	r0, #16
    96b8:	13a00000 	movne	r0, #0
    96bc:	03a00001 	moveq	r0, #1
    96c0:	e12fff1e 	bx	lr

000096c4 <set_user_level>:
    96c4:	e10f3000 	mrs	r3, CPSR
    96c8:	e3c3301f 	bic	r3, r3, #31
    96cc:	e3833010 	orr	r3, r3, #16
    96d0:	e129f003 	msr	CPSR_fc, r3
    96d4:	e12fff1e 	bx	lr

000096d8 <rpi_reboot>:
    96d8:	e92d4008 	push	{r3, lr}
    96dc:	ebfffff2 	bl	96ac <at_user_level>
    96e0:	e3500000 	cmp	r0, #0
    96e4:	0a000000 	beq	96ec <rpi_reboot+0x14>
    96e8:	ebfffff5 	bl	96c4 <set_user_level>
    96ec:	e3a0001e 	mov	r0, #30
    96f0:	eb000026 	bl	9790 <delay_ms>
    96f4:	e59f0014 	ldr	r0, [pc, #20]	; 9710 <rpi_reboot+0x38>
    96f8:	e59f1014 	ldr	r1, [pc, #20]	; 9714 <rpi_reboot+0x3c>
    96fc:	eb000035 	bl	97d8 <PUT32>
    9700:	e59f0010 	ldr	r0, [pc, #16]	; 9718 <rpi_reboot+0x40>
    9704:	e59f1010 	ldr	r1, [pc, #16]	; 971c <rpi_reboot+0x44>
    9708:	eb000032 	bl	97d8 <PUT32>
    970c:	eafffffe 	b	970c <rpi_reboot+0x34>
    9710:	20100024 	andscs	r0, r0, r4, lsr #32
    9714:	5a000001 	bpl	9720 <delay_cycles>
    9718:	2010001c 	andscs	r0, r0, ip, lsl r0
    971c:	5a000020 	bpl	97a4 <delay_sec>

00009720 <delay_cycles>:
    9720:	ea000001 	b	972c <delay_cycles+0xc>
    9724:	e2811000 	add	r1, r1, #0
    9728:	e1a00003 	mov	r0, r3
    972c:	e2403001 	sub	r3, r0, #1
    9730:	e3500000 	cmp	r0, #0
    9734:	1afffffa 	bne	9724 <delay_cycles+0x4>
    9738:	e12fff1e 	bx	lr

0000973c <timer_get_usec_raw>:
    973c:	e92d4008 	push	{r3, lr}
    9740:	e59f0004 	ldr	r0, [pc, #4]	; 974c <timer_get_usec_raw+0x10>
    9744:	eb00002f 	bl	9808 <GET32>
    9748:	e8bd8008 	pop	{r3, pc}
    974c:	20003004 	andcs	r3, r0, r4

00009750 <timer_get_usec>:
    9750:	e92d4010 	push	{r4, lr}
    9754:	eb000017 	bl	97b8 <dev_barrier>
    9758:	ebfffff7 	bl	973c <timer_get_usec_raw>
    975c:	e1a04000 	mov	r4, r0
    9760:	eb000014 	bl	97b8 <dev_barrier>
    9764:	e1a00004 	mov	r0, r4
    9768:	e8bd8010 	pop	{r4, pc}

0000976c <delay_us>:
    976c:	e92d4038 	push	{r3, r4, r5, lr}
    9770:	e1a05000 	mov	r5, r0
    9774:	ebfffff5 	bl	9750 <timer_get_usec>
    9778:	e1a04000 	mov	r4, r0
    977c:	ebfffff3 	bl	9750 <timer_get_usec>
    9780:	e0640000 	rsb	r0, r4, r0
    9784:	e1500005 	cmp	r0, r5
    9788:	3afffffb 	bcc	977c <delay_us+0x10>
    978c:	e8bd8038 	pop	{r3, r4, r5, pc}

00009790 <delay_ms>:
    9790:	e92d4008 	push	{r3, lr}
    9794:	e3a03ffa 	mov	r3, #1000	; 0x3e8
    9798:	e0000093 	mul	r0, r3, r0
    979c:	ebfffff2 	bl	976c <delay_us>
    97a0:	e8bd8008 	pop	{r3, pc}

000097a4 <delay_sec>:
    97a4:	e92d4008 	push	{r3, lr}
    97a8:	e3a03ffa 	mov	r3, #1000	; 0x3e8
    97ac:	e0000093 	mul	r0, r3, r0
    97b0:	ebfffff6 	bl	9790 <delay_ms>
    97b4:	e8bd8008 	pop	{r3, pc}

000097b8 <dev_barrier>:
    97b8:	ea000002 	b	97c8 <dsb>

000097bc <dmb>:
    97bc:	e3a00000 	mov	r0, #0
    97c0:	ee070fba 	mcr	15, 0, r0, cr7, cr10, {5}
    97c4:	e12fff1e 	bx	lr

000097c8 <dsb>:
    97c8:	ee070f9a 	mcr	15, 0, r0, cr7, cr10, {4}
    97cc:	e12fff1e 	bx	lr

000097d0 <put32>:
    97d0:	e5801000 	str	r1, [r0]
    97d4:	e12fff1e 	bx	lr

000097d8 <PUT32>:
    97d8:	e5801000 	str	r1, [r0]
    97dc:	e12fff1e 	bx	lr

000097e0 <put16>:
    97e0:	e1c010b0 	strh	r1, [r0]
    97e4:	e12fff1e 	bx	lr

000097e8 <PUT16>:
    97e8:	e1c010b0 	strh	r1, [r0]
    97ec:	e12fff1e 	bx	lr

000097f0 <put8>:
    97f0:	e5c01000 	strb	r1, [r0]
    97f4:	e12fff1e 	bx	lr

000097f8 <PUT8>:
    97f8:	e5c01000 	strb	r1, [r0]
    97fc:	e12fff1e 	bx	lr

00009800 <get32>:
    9800:	e5900000 	ldr	r0, [r0]
    9804:	e12fff1e 	bx	lr

00009808 <GET32>:
    9808:	e5900000 	ldr	r0, [r0]
    980c:	e12fff1e 	bx	lr

00009810 <GETPC>:
    9810:	e1a0000e 	mov	r0, lr
    9814:	e12fff1e 	bx	lr

00009818 <dummy>:
    9818:	e12fff1e 	bx	lr

0000981c <or_in32>:
    981c:	e92d4070 	push	{r4, r5, r6, lr}
    9820:	e1a04000 	mov	r4, r0
    9824:	e1a05001 	mov	r5, r1
    9828:	ebfffff4 	bl	9800 <get32>
    982c:	e1801005 	orr	r1, r0, r5
    9830:	e1a00004 	mov	r0, r4
    9834:	ebffffe5 	bl	97d0 <put32>
    9838:	e8bd8070 	pop	{r4, r5, r6, pc}

0000983c <uart_init>:
    983c:	e92d4010 	push	{r4, lr}
    9840:	e3a01002 	mov	r1, #2
    9844:	e3a0000e 	mov	r0, #14
    9848:	eb000051 	bl	9994 <gpio_set_function>
    984c:	e3a01002 	mov	r1, #2
    9850:	e3a0000f 	mov	r0, #15
    9854:	eb00004e 	bl	9994 <gpio_set_function>
    9858:	ebffffd6 	bl	97b8 <dev_barrier>
    985c:	e3a01001 	mov	r1, #1
    9860:	e59f0064 	ldr	r0, [pc, #100]	; 98cc <uart_init+0x90>
    9864:	ebffffec 	bl	981c <or_in32>
    9868:	ebffffd2 	bl	97b8 <dev_barrier>
    986c:	e59f405c 	ldr	r4, [pc, #92]	; 98d0 <uart_init+0x94>
    9870:	e3a01000 	mov	r1, #0
    9874:	e1a00004 	mov	r0, r4
    9878:	ebffffd4 	bl	97d0 <put32>
    987c:	e3a01000 	mov	r1, #0
    9880:	e59f004c 	ldr	r0, [pc, #76]	; 98d4 <uart_init+0x98>
    9884:	ebffffd1 	bl	97d0 <put32>
    9888:	e3a01003 	mov	r1, #3
    988c:	e59f0044 	ldr	r0, [pc, #68]	; 98d8 <uart_init+0x9c>
    9890:	ebffffce 	bl	97d0 <put32>
    9894:	e3a01000 	mov	r1, #0
    9898:	e59f003c 	ldr	r0, [pc, #60]	; 98dc <uart_init+0xa0>
    989c:	ebffffcb 	bl	97d0 <put32>
    98a0:	e3a010c7 	mov	r1, #199	; 0xc7
    98a4:	e59f0034 	ldr	r0, [pc, #52]	; 98e0 <uart_init+0xa4>
    98a8:	ebffffc8 	bl	97d0 <put32>
    98ac:	e59f1030 	ldr	r1, [pc, #48]	; 98e4 <uart_init+0xa8>
    98b0:	e59f0030 	ldr	r0, [pc, #48]	; 98e8 <uart_init+0xac>
    98b4:	ebffffc5 	bl	97d0 <put32>
    98b8:	e3a01003 	mov	r1, #3
    98bc:	e1a00004 	mov	r0, r4
    98c0:	ebffffc2 	bl	97d0 <put32>
    98c4:	ebffffbb 	bl	97b8 <dev_barrier>
    98c8:	e8bd8010 	pop	{r4, pc}
    98cc:	20215004 	eorcs	r5, r1, r4
    98d0:	20215060 	eorcs	r5, r1, r0, rrx
    98d4:	20215044 	eorcs	r5, r1, r4, asr #32
    98d8:	2021504c 	eorcs	r5, r1, ip, asr #32
    98dc:	20215050 	eorcs	r5, r1, r0, asr r0
    98e0:	20215048 	eorcs	r5, r1, r8, asr #32
    98e4:	0000010e 	andeq	r0, r0, lr, lsl #2
    98e8:	20215068 	eorcs	r5, r1, r8, rrx

000098ec <uart_can_getc>:
    98ec:	e92d4010 	push	{r4, lr}
    98f0:	e59f0008 	ldr	r0, [pc, #8]	; 9900 <uart_can_getc+0x14>
    98f4:	ebffffc1 	bl	9800 <get32>
    98f8:	e2000001 	and	r0, r0, #1
    98fc:	e8bd8010 	pop	{r4, pc}
    9900:	20215064 	eorcs	r5, r1, r4, rrx

00009904 <uart_can_putc>:
    9904:	e92d4010 	push	{r4, lr}
    9908:	e59f0010 	ldr	r0, [pc, #16]	; 9920 <uart_can_putc+0x1c>
    990c:	ebffffbb 	bl	9800 <get32>
    9910:	e3100002 	tst	r0, #2
    9914:	13a00001 	movne	r0, #1
    9918:	03a00000 	moveq	r0, #0
    991c:	e8bd8010 	pop	{r4, pc}
    9920:	20215064 	eorcs	r5, r1, r4, rrx

00009924 <uart_getc>:
    9924:	e92d4010 	push	{r4, lr}
    9928:	ebffffa2 	bl	97b8 <dev_barrier>
    992c:	ebffffee 	bl	98ec <uart_can_getc>
    9930:	e3500000 	cmp	r0, #0
    9934:	0afffffc 	beq	992c <uart_getc+0x8>
    9938:	e59f0010 	ldr	r0, [pc, #16]	; 9950 <uart_getc+0x2c>
    993c:	ebffffaf 	bl	9800 <get32>
    9940:	e6ef4070 	uxtb	r4, r0
    9944:	ebffff9b 	bl	97b8 <dev_barrier>
    9948:	e1a00004 	mov	r0, r4
    994c:	e8bd8010 	pop	{r4, pc}
    9950:	20215040 	eorcs	r5, r1, r0, asr #32

00009954 <uart_putc>:
    9954:	e92d4010 	push	{r4, lr}
    9958:	e1a04000 	mov	r4, r0
    995c:	ebffff95 	bl	97b8 <dev_barrier>
    9960:	ebffffe7 	bl	9904 <uart_can_putc>
    9964:	e3500000 	cmp	r0, #0
    9968:	0afffffc 	beq	9960 <uart_putc+0xc>
    996c:	e6ef1074 	uxtb	r1, r4
    9970:	e59f0008 	ldr	r0, [pc, #8]	; 9980 <uart_putc+0x2c>
    9974:	ebffff95 	bl	97d0 <put32>
    9978:	ebffff8e 	bl	97b8 <dev_barrier>
    997c:	e8bd8010 	pop	{r4, pc}
    9980:	20215040 	eorcs	r5, r1, r0, asr #32

00009984 <uart_has_data>:
    9984:	e92d4010 	push	{r4, lr}
    9988:	ebffff8a 	bl	97b8 <dev_barrier>
    998c:	ebffffd6 	bl	98ec <uart_can_getc>
    9990:	e8bd8010 	pop	{r4, pc}

00009994 <gpio_set_function>:
    9994:	e350001f 	cmp	r0, #31
    9998:	812fff1e 	bxhi	lr
    999c:	e3d13007 	bics	r3, r1, #7
    99a0:	112fff1e 	bxne	lr
    99a4:	e92d4070 	push	{r4, r5, r6, lr}
    99a8:	e1a05001 	mov	r5, r1
    99ac:	e59f3044 	ldr	r3, [pc, #68]	; 99f8 <gpio_set_function+0x64>
    99b0:	e0832093 	umull	r2, r3, r3, r0
    99b4:	e1a031a3 	lsr	r3, r3, #3
    99b8:	e1a06003 	mov	r6, r3
    99bc:	e0833103 	add	r3, r3, r3, lsl #2
    99c0:	e1a02083 	lsl	r2, r3, #1
    99c4:	e0403002 	sub	r3, r0, r2
    99c8:	e0834083 	add	r4, r3, r3, lsl #1
    99cc:	e2866302 	add	r6, r6, #134217728	; 0x8000000
    99d0:	e2866702 	add	r6, r6, #524288	; 0x80000
    99d4:	e1a06106 	lsl	r6, r6, #2
    99d8:	e1a00006 	mov	r0, r6
    99dc:	ebffff89 	bl	9808 <GET32>
    99e0:	e3a01007 	mov	r1, #7
    99e4:	e1c01411 	bic	r1, r0, r1, lsl r4
    99e8:	e1811415 	orr	r1, r1, r5, lsl r4
    99ec:	e1a00006 	mov	r0, r6
    99f0:	ebffff78 	bl	97d8 <PUT32>
    99f4:	e8bd8070 	pop	{r4, r5, r6, pc}
    99f8:	cccccccd 	stclgt	12, cr12, [ip], {205}	; 0xcd

000099fc <gpio_set_output>:
    99fc:	e92d4010 	push	{r4, lr}
    9a00:	e3a01001 	mov	r1, #1
    9a04:	ebffffe2 	bl	9994 <gpio_set_function>
    9a08:	e8bd8010 	pop	{r4, pc}

00009a0c <gpio_set_on>:
    9a0c:	e350001f 	cmp	r0, #31
    9a10:	812fff1e 	bxhi	lr
    9a14:	e92d4010 	push	{r4, lr}
    9a18:	e3a01001 	mov	r1, #1
    9a1c:	e1a01011 	lsl	r1, r1, r0
    9a20:	e59f0004 	ldr	r0, [pc, #4]	; 9a2c <gpio_set_on+0x20>
    9a24:	ebffff6b 	bl	97d8 <PUT32>
    9a28:	e8bd8010 	pop	{r4, pc}
    9a2c:	2020001c 	eorcs	r0, r0, ip, lsl r0

00009a30 <gpio_set_off>:
    9a30:	e350001f 	cmp	r0, #31
    9a34:	812fff1e 	bxhi	lr
    9a38:	e92d4010 	push	{r4, lr}
    9a3c:	e3a01001 	mov	r1, #1
    9a40:	e1a01011 	lsl	r1, r1, r0
    9a44:	e59f0004 	ldr	r0, [pc, #4]	; 9a50 <gpio_set_off+0x20>
    9a48:	ebffff62 	bl	97d8 <PUT32>
    9a4c:	e8bd8010 	pop	{r4, pc}
    9a50:	20200028 	eorcs	r0, r0, r8, lsr #32

00009a54 <gpio_set_input>:
    9a54:	e92d4010 	push	{r4, lr}
    9a58:	e3a01000 	mov	r1, #0
    9a5c:	ebffffcc 	bl	9994 <gpio_set_function>
    9a60:	e8bd8010 	pop	{r4, pc}

00009a64 <gpio_write>:
    9a64:	e92d4010 	push	{r4, lr}
    9a68:	e3510000 	cmp	r1, #0
    9a6c:	1a000001 	bne	9a78 <gpio_write+0x14>
    9a70:	ebffffee 	bl	9a30 <gpio_set_off>
    9a74:	e8bd8010 	pop	{r4, pc}
    9a78:	ebffffe3 	bl	9a0c <gpio_set_on>
    9a7c:	e8bd8010 	pop	{r4, pc}

00009a80 <gpio_read>:
    9a80:	e350001f 	cmp	r0, #31
    9a84:	8a000007 	bhi	9aa8 <gpio_read+0x28>
    9a88:	e92d4010 	push	{r4, lr}
    9a8c:	e200401f 	and	r4, r0, #31
    9a90:	e59f3018 	ldr	r3, [pc, #24]	; 9ab0 <gpio_read+0x30>
    9a94:	e08302a0 	add	r0, r3, r0, lsr #5
    9a98:	ebffff5a 	bl	9808 <GET32>
    9a9c:	e1a00430 	lsr	r0, r0, r4
    9aa0:	e2000001 	and	r0, r0, #1
    9aa4:	e8bd8010 	pop	{r4, pc}
    9aa8:	e3e00000 	mvn	r0, #0
    9aac:	e12fff1e 	bx	lr
    9ab0:	20200034 	eorcs	r0, r0, r4, lsr r0

00009ab4 <__code_end__>:
    9ab4:	00000000 	andeq	r0, r0, r0

Disassembly of section .data:

00009ab8 <__data_start__>:
    9ab8:	00008f00 	andeq	r8, r0, r0, lsl #30

00009abc <putk>:
    9abc:	00008f3c 	andeq	r8, r0, ip, lsr pc

Disassembly of section .rodata:

00009ac0 <C.0.4417-0xdc>:
    9ac0:	494e4150 	stmdbmi	lr, {r4, r6, r8, lr}^
    9ac4:	73253a43 	teqvc	r5, #274432	; 0x43000
    9ac8:	3a73253a 	bcc	1cd2fb8 <__bss_end__+0x1cc88b0>
    9acc:	693a6425 	ldmdbvs	sl!, {r0, r2, r5, sl, sp, lr}
    9ad0:	736f706d 	cmnvc	pc, #109	; 0x6d
    9ad4:	6c626973 	stclvs	9, cr6, [r2], #-460	; 0xfffffe34
    9ad8:	000a0a65 	andeq	r0, sl, r5, ror #20
    9adc:	74736574 	ldrbtvc	r6, [r3], #-1396	; 0x574
    9ae0:	302e3273 	eorcc	r3, lr, r3, ror r2
    9ae4:	2d36312f 	ldfcss	f3, [r6, #-188]!	; 0xffffff44
    9ae8:	74726170 	ldrbtvc	r6, [r2], #-368	; 0x170
    9aec:	65742d32 	ldrbvs	r2, [r4, #-3378]!	; 0xd32
    9af0:	2e367473 	mrccs	4, 1, r7, cr6, cr3, {3}
    9af4:	00000063 	andeq	r0, r0, r3, rrx
    9af8:	494e4150 	stmdbmi	lr, {r4, r6, r8, lr}^
    9afc:	73253a43 	teqvc	r5, #274432	; 0x43000
    9b00:	3a73253a 	bcc	1cd2ff0 <__bss_end__+0x1cc88e8>
    9b04:	253a6425 	ldrcs	r6, [sl, #-1061]!	; 0x425
    9b08:	00000a73 	andeq	r0, r0, r3, ror sl
    9b0c:	69702f2e 	ldmdbvs	r0!, {r1, r2, r3, r5, r8, r9, sl, fp, sp}^
    9b10:	7379732d 	cmnvc	r9, #-1275068416	; 0xb4000000
    9b14:	636f6c2d 	cmnvs	pc, #11520	; 0x2d00
    9b18:	00682e6b 	rsbeq	r2, r8, fp, ror #28
    9b1c:	3d206c2a 	stccc	12, cr6, [r0, #-168]!	; 0xffffff58
    9b20:	0031203d 	eorseq	r2, r1, sp, lsr r0
    9b24:	494e4150 	stmdbmi	lr, {r4, r6, r8, lr}^
    9b28:	73253a43 	teqvc	r5, #274432	; 0x43000
    9b2c:	3a73253a 	bcc	1cd301c <__bss_end__+0x1cc8914>
    9b30:	633a6425 	teqvs	sl, #620756992	; 0x25000000
    9b34:	6b636568 	blvs	18e30dc <__bss_end__+0x18d89d4>
    9b38:	6f687320 	svcvs	0x00687320
    9b3c:	20646c75 	rsbcs	r6, r4, r5, ror ip
    9b40:	20746f6e 	rsbscs	r6, r4, lr, ror #30
    9b44:	65766168 	ldrbvs	r6, [r6, #-360]!	; 0x168
    9b48:	69616620 	stmdbvs	r1!, {r5, r9, sl, sp, lr}^
    9b4c:	2164656c 	cmncs	r4, ip, ror #10
    9b50:	00000a0a 	andeq	r0, r0, sl, lsl #20
    9b54:	43435553 	movtmi	r5, #13651	; 0x3553
    9b58:	3a535345 	bcc	14de874 <__bss_end__+0x14d416c>
    9b5c:	00000000 	andeq	r0, r0, r0
    9b60:	63656863 	cmnvs	r5, #6488064	; 0x630000
    9b64:	7573206b 	ldrbvc	r2, [r3, #-107]!	; 0x6b
    9b68:	65656363 	strbvs	r6, [r5, #-867]!	; 0x363
    9b6c:	20646564 	rsbcs	r6, r4, r4, ror #10
    9b70:	69207361 	stmdbvs	r0!, {r0, r5, r6, r8, r9, ip, sp, lr}
    9b74:	68732074 	ldmdavs	r3!, {r2, r4, r5, r6, sp}^
    9b78:	646c756f 	strbtvs	r7, [ip], #-1391	; 0x56f
    9b7c:	76616820 	strbtvc	r6, [r1], -r0, lsr #16
    9b80:	6e202c65 	cdpvs	12, 2, cr2, cr0, cr5, {3}
    9b84:	61697274 	smcvs	38692	; 0x9724
    9b88:	253d736c 	ldrcs	r7, [sp, #-876]!	; 0x36c
    9b8c:	6e202c64 	cdpvs	12, 2, cr2, cr0, cr4, {3}
    9b90:	6f727265 	svcvs	0x00727265
    9b94:	253d7372 	ldrcs	r7, [sp, #-882]!	; 0x372
    9b98:	00000a64 	andeq	r0, r0, r4, ror #20

00009b9c <C.0.4417>:
    9b9c:	00000000 	andeq	r0, r0, r0
    9ba0:	00008020 	andeq	r8, r0, r0, lsr #32
    9ba4:	000080d0 	ldrdeq	r8, [r0], -r0
    9ba8:	00008158 	andeq	r8, r0, r8, asr r1
    9bac:	00008178 	andeq	r8, r0, r8, ror r1
	...

00009bd4 <__FUNCTION__.4398>:
    9bd4:	5f737973 	svcpl	0x00737973
    9bd8:	6f6c6e75 	svcvs	0x006c6e75
    9bdc:	00006b63 	andeq	r6, r0, r3, ror #22

00009be0 <__FUNCTION__.4404>:
    9be0:	5f746e63 	svcpl	0x00746e63
    9be4:	00000041 	andeq	r0, r0, r1, asr #32

00009be8 <__FUNCTION__.4423>:
    9be8:	6d746f6e 	ldclvs	15, cr6, [r4, #-440]!	; 0xfffffe48
    9bec:	006e6961 	rsbeq	r6, lr, r1, ror #18
    9bf0:	34317063 	ldrtcc	r7, [r1], #-99	; 0x63
    9bf4:	6265642d 	rsbvs	r6, r5, #754974720	; 0x2d000000
    9bf8:	632e6775 	teqvs	lr, #30670848	; 0x1d40000
    9bfc:	00000000 	andeq	r0, r0, r0
    9c00:	30726377 	rsbscc	r6, r2, r7, ror r3
    9c04:	6765725f 			; <UNDEFINED> instruction: 0x6765725f
    9c08:	203d3d20 	eorscs	r3, sp, r0, lsr #26
    9c0c:	30726377 	rsbscc	r6, r2, r7, ror r3
    9c10:	7465675f 	strbtvc	r6, [r5], #-1887	; 0x75f
    9c14:	00002928 	andeq	r2, r0, r8, lsr #18
    9c18:	494e4150 	stmdbmi	lr, {r4, r6, r8, lr}^
    9c1c:	73253a43 	teqvc	r5, #274432	; 0x43000
    9c20:	3a73253a 	bcc	1cd3110 <__bss_end__+0x1cc8a08>
    9c24:	693a6425 	ldmdbvs	sl!, {r0, r2, r5, sl, sp, lr}
    9c28:	736f706d 	cmnvc	pc, #109	; 0x6d
    9c2c:	6c626973 	stclvs	9, cr6, [r2], #-460	; 0xfffffe34
    9c30:	73203a65 	teqvc	r0, #413696	; 0x65000
    9c34:	6c756f68 	ldclvs	15, cr6, [r5], #-416	; 0xfffffe60
    9c38:	6e6f2064 	cdpvs	0, 6, cr2, cr15, cr4, {3}
    9c3c:	6720796c 	strvs	r7, [r0, -ip, ror #18]!
    9c40:	64207465 	strtvs	r7, [r0], #-1125	; 0x465
    9c44:	66617461 	strbtvs	r7, [r1], -r1, ror #8
    9c48:	746c7561 	strbtvc	r7, [ip], #-1377	; 0x561
    9c4c:	000a0a73 	andeq	r0, sl, r3, ror sl
    9c50:	34317063 	ldrtcc	r7, [r1], #-99	; 0x63
    9c54:	6265642d 	rsbvs	r6, r5, #754974720	; 0x2d000000
    9c58:	682e6775 	stmdavs	lr!, {r0, r2, r4, r5, r6, r8, r9, sl, sp, lr}
    9c5c:	00000000 	andeq	r0, r0, r0
    9c60:	72616677 	rsbvc	r6, r1, #124780544	; 0x7700000
    9c64:	7465675f 	strbtvc	r6, [r5], #-1887	; 0x75f
    9c68:	342d2928 	strtcc	r2, [sp], #-2344	; 0x928
    9c6c:	203d3d20 	eorscs	r3, sp, r0, lsr #26
    9c70:	00006370 	andeq	r6, r0, r0, ror r3
    9c74:	63746177 	cmnvs	r4, #-1073741795	; 0xc000001d
    9c78:	5f747068 	svcpl	0x00747068
    9c7c:	646e6168 	strbtvs	r6, [lr], #-360	; 0x168
    9c80:	3072656c 	rsbscc	r6, r2, ip, ror #10
    9c84:	00000000 	andeq	r0, r0, r0
    9c88:	494e4150 	stmdbmi	lr, {r4, r6, r8, lr}^
    9c8c:	73253a43 	teqvc	r5, #274432	; 0x43000
    9c90:	3a73253a 	bcc	1cd3180 <__bss_end__+0x1cc8a78>
    9c94:	693a6425 	ldmdbvs	sl!, {r0, r2, r5, sl, sp, lr}
    9c98:	736f706d 	cmnvc	pc, #109	; 0x6d
    9c9c:	6c626973 	stclvs	9, cr6, [r2], #-460	; 0xfffffe34
    9ca0:	73203a65 	teqvc	r0, #413696	; 0x65000
    9ca4:	6c756f68 	ldclvs	15, cr6, [r5], #-416	; 0xfffffe60
    9ca8:	65672064 	strbvs	r2, [r7, #-100]!	; 0x64
    9cac:	6f6e2074 	svcvs	0x006e2074
    9cb0:	68746f20 	ldmdavs	r4!, {r5, r8, r9, sl, fp, sp, lr}^
    9cb4:	66207265 	strtvs	r7, [r0], -r5, ror #4
    9cb8:	746c7561 	strbtvc	r7, [ip], #-1377	; 0x561
    9cbc:	000a0a73 	andeq	r0, sl, r3, ror sl
    9cc0:	706b7262 	rsbvc	r7, fp, r2, ror #4
    9cc4:	61685f74 	smcvs	34292	; 0x85f4
    9cc8:	656c646e 	strbvs	r6, [ip, #-1134]!	; 0x46e
    9ccc:	00003072 	andeq	r3, r0, r2, ror r0
    9cd0:	494e4150 	stmdbmi	lr, {r4, r6, r8, lr}^
    9cd4:	73253a43 	teqvc	r5, #274432	; 0x43000
    9cd8:	3a73253a 	bcc	1cd31c8 <__bss_end__+0x1cc8ac0>
    9cdc:	723a6425 	eorsvc	r6, sl, #620756992	; 0x25000000
    9ce0:	72757465 	rsbsvc	r7, r5, #1694498816	; 0x65000000
    9ce4:	2064656e 	rsbcs	r6, r4, lr, ror #10
    9ce8:	20646e61 	rsbcs	r6, r4, r1, ror #28
    9cec:	756f6873 	strbvc	r6, [pc, #-2163]!	; 9481 <va_printk+0x26d>
    9cf0:	6e20646c 	cdpvs	4, 2, cr6, cr0, cr12, {3}
    9cf4:	6820746f 	stmdavs	r0!, {r0, r1, r2, r3, r5, r6, sl, ip, sp, lr}
    9cf8:	21657661 	cmncs	r5, r1, ror #12
    9cfc:	00000a0a 	andeq	r0, r0, sl, lsl #20
    9d00:	656c6c69 	strbvs	r6, [ip, #-3177]!	; 0xc69
    9d04:	206c6167 	rsbcs	r6, ip, r7, ror #2
    9d08:	74737973 	ldrbtvc	r7, [r3], #-2419	; 0x973
    9d0c:	63206d65 	teqvs	r0, #6464	; 0x1940
    9d10:	206c6c61 	rsbcs	r6, ip, r1, ror #24
    9d14:	000a6425 	andeq	r6, sl, r5, lsr #8

00009d18 <__FUNCTION__.4393>:
    9d18:	63746177 	cmnvs	r4, #-1073741795	; 0xc000001d
    9d1c:	5f747068 	svcpl	0x00747068
    9d20:	30746573 	rsbscc	r6, r4, r3, ror r5
    9d24:	00000000 	andeq	r0, r0, r0

00009d28 <__FUNCTION__.4399>:
    9d28:	61746164 	cmnvs	r4, r4, ror #2
    9d2c:	6f62615f 	svcvs	0x0062615f
    9d30:	765f7472 			; <UNDEFINED> instruction: 0x765f7472
    9d34:	6f746365 	svcvs	0x00746365
    9d38:	00000072 	andeq	r0, r0, r2, ror r0

00009d3c <__FUNCTION__.4306>:
    9d3c:	5f736177 	svcpl	0x00736177
    9d40:	75626564 	strbvc	r6, [r2, #-1380]!	; 0x564
    9d44:	61645f67 	cmnvs	r4, r7, ror #30
    9d48:	61666174 	smcvs	26132	; 0x6614
    9d4c:	00746c75 	rsbseq	r6, r4, r5, ror ip

00009d50 <__FUNCTION__.4443>:
    9d50:	66657270 			; <UNDEFINED> instruction: 0x66657270
    9d54:	68637465 	stmdavs	r3!, {r0, r2, r5, r6, sl, ip, sp, lr}^
    9d58:	6f62615f 	svcvs	0x0062615f
    9d5c:	765f7472 			; <UNDEFINED> instruction: 0x765f7472
    9d60:	6f746365 	svcvs	0x00746365
    9d64:	00000072 	andeq	r0, r0, r2, ror r0

00009d68 <__FUNCTION__.4451>:
    9d68:	5f6b7262 	svcpl	0x006b7262
    9d6c:	725f6f6e 	subsvc	r6, pc, #440	; 0x1b8
    9d70:	655f7465 	ldrbvs	r7, [pc, #-1125]	; 9913 <uart_can_putc+0xf>
    9d74:	726f7272 	rsbvc	r7, pc, #536870919	; 0x20000007
    9d78:	00000000 	andeq	r0, r0, r0
    9d7c:	253a7325 	ldrcs	r7, [sl, #-805]!	; 0x325
    9d80:	64253a73 	strtvs	r3, [r5], #-2675	; 0xa73
    9d84:	6572703a 	ldrbvs	r7, [r2, #-58]!	; 0x3a
    9d88:	63746566 	cmnvs	r4, #427819008	; 0x19800000
    9d8c:	62612068 	rsbvs	r2, r1, #104	; 0x68
    9d90:	2074726f 	rsbscs	r7, r4, pc, ror #4
    9d94:	25207461 	strcs	r7, [r0, #-1121]!	; 0x461
    9d98:	00000a70 	andeq	r0, r0, r0, ror sl
    9d9c:	63656863 	cmnvs	r5, #6488064	; 0x630000
    9da0:	6e692d6b 	cdpvs	13, 6, cr2, cr9, cr11, {3}
    9da4:	6c726574 	cfldr64vs	mvdx6, [r2], #-464	; 0xfffffe30
    9da8:	65766165 	ldrbvs	r6, [r6, #-357]!	; 0x165
    9dac:	0000632e 	andeq	r6, r0, lr, lsr #6
    9db0:	756f6261 	strbvc	r6, [pc, #-609]!	; 9b57 <__data_end__+0x97>
    9db4:	6f742074 	svcvs	0x00742074
    9db8:	69777320 	ldmdbvs	r7!, {r5, r8, r9, ip, sp, lr}^
    9dbc:	20686374 	rsbcs	r6, r8, r4, ror r3
    9dc0:	6d6f7266 	sfmvs	f7, 2, [pc, #-408]!	; 9c30 <__FUNCTION__.4423+0x48>
    9dc4:	20702520 	rsbscs	r2, r0, r0, lsr #10
    9dc8:	25206f74 	strcs	r6, [r0, #-3956]!	; 0xf74
    9dcc:	00000a70 	andeq	r0, r0, r0, ror sl
    9dd0:	656e6f64 	strbvs	r6, [lr, #-3940]!	; 0xf64
    9dd4:	6e757220 	cdpvs	2, 7, cr7, cr5, cr0, {1}
    9dd8:	676e696e 	strbvs	r6, [lr, -lr, ror #18]!
    9ddc:	202c4220 	eorcs	r4, ip, r0, lsr #4
    9de0:	6e696f67 	cdpvs	15, 6, cr6, cr9, cr7, {3}
    9de4:	6f742067 	svcvs	0x00742067
    9de8:	74657220 	strbtvc	r7, [r5], #-544	; 0x220
    9dec:	206e7275 	rsbcs	r7, lr, r5, ror r2
    9df0:	41206f74 	teqmi	r0, r4, ror pc
    9df4:	0000000a 	andeq	r0, r0, sl
    9df8:	693e2d63 	ldmdbvs	lr!, {r0, r1, r5, r6, r8, sl, fp, sp}
    9dfc:	5f74736e 	svcpl	0x0074736e
    9e00:	6e756f63 	cdpvs	15, 7, cr6, cr5, cr3, {3}
    9e04:	203c2074 	eorscs	r2, ip, r4, ror r0
    9e08:	733e2d63 	teqvc	lr, #6336	; 0x18c0
    9e0c:	63746977 	cmnvs	r4, #1949696	; 0x1dc000
    9e10:	6e6f5f68 	cdpvs	15, 6, cr5, cr15, cr8, {3}
    9e14:	736e695f 	cmnvc	lr, #1556480	; 0x17c000
    9e18:	006e5f74 	rsbeq	r5, lr, r4, ror pc
    9e1c:	253a7325 	ldrcs	r7, [sl, #-805]!	; 0x325
    9e20:	64253a73 	strtvs	r3, [r5], #-2675	; 0xa73
    9e24:	7465733a 	strbtvc	r7, [r5], #-826	; 0x33a
    9e28:	676e6974 			; <UNDEFINED> instruction: 0x676e6974
    9e2c:	20707520 	rsbscs	r7, r0, r0, lsr #10
    9e30:	696d2061 	stmdbvs	sp!, {r0, r5, r6, sp}^
    9e34:	74616d73 	strbtvc	r6, [r1], #-3443	; 0xd73
    9e38:	6f206863 	svcvs	0x00206863
    9e3c:	7025206e 	eorvc	r2, r5, lr, rrx
    9e40:	0000000a 	andeq	r0, r0, sl
    9e44:	253a7325 	ldrcs	r7, [sl, #-805]!	; 0x325
    9e48:	64253a73 	strtvs	r3, [r5], #-2675	; 0xa73
    9e4c:	6e6f643a 	mcrvs	4, 3, r6, cr15, cr10, {1}
    9e50:	65732065 	ldrbvs	r2, [r3, #-101]!	; 0x65
    9e54:	6e697474 	mcrvs	4, 3, r7, cr9, cr4, {3}
    9e58:	70752067 	rsbsvc	r2, r5, r7, rrx
    9e5c:	6d206120 	stfvss	f6, [r0, #-128]!	; 0xffffff80
    9e60:	616d7369 	cmnvs	sp, r9, ror #6
    9e64:	20686374 	rsbcs	r6, r8, r4, ror r3
    9e68:	25206e6f 	strcs	r6, [r0, #-3695]!	; 0xe6f
    9e6c:	00000a70 	andeq	r0, r0, r0, ror sl
    9e70:	52455355 	subpl	r5, r5, #1409286145	; 0x54000001
    9e74:	444f4d20 	strbmi	r4, [pc], #-3360	; 9e7c <__FUNCTION__.4451+0x114>
    9e78:	00000045 	andeq	r0, r0, r5, asr #32
    9e7c:	20514946 	subscs	r4, r1, r6, asr #18
    9e80:	45444f4d 	strbmi	r4, [r4, #-3917]	; 0xf4d
    9e84:	00000000 	andeq	r0, r0, r0
    9e88:	20515249 	subscs	r5, r1, r9, asr #4
    9e8c:	45444f4d 	strbmi	r4, [r4, #-3917]	; 0xf4d
    9e90:	00000000 	andeq	r0, r0, r0
    9e94:	45505553 	ldrbmi	r5, [r0, #-1363]	; 0x553
    9e98:	4f4d2052 	svcmi	0x004d2052
    9e9c:	00004544 	andeq	r4, r0, r4, asr #10
    9ea0:	524f4241 	subpl	r4, pc, #268435460	; 0x10000004
    9ea4:	4f4d2054 	svcmi	0x004d2054
    9ea8:	00004544 	andeq	r4, r0, r4, asr #10
    9eac:	45444e55 	strbmi	r4, [r4, #-3669]	; 0xe55
    9eb0:	4f4d2046 	svcmi	0x004d2046
    9eb4:	00004544 	andeq	r4, r0, r4, asr #10
    9eb8:	20535953 	subscs	r5, r3, r3, asr r9
    9ebc:	45444f4d 	strbmi	r4, [r4, #-3917]	; 0xf4d
    9ec0:	00000000 	andeq	r0, r0, r0
    9ec4:	253a7325 	ldrcs	r7, [sl, #-805]!	; 0x325
    9ec8:	64253a73 	strtvs	r3, [r5], #-2675	; 0xa73
    9ecc:	6972743a 	ldmdbvs	r2!, {r1, r3, r4, r5, sl, ip, sp, lr}^
    9ed0:	253d6c61 	ldrcs	r6, [sp, #-3169]!	; 0xc61
    9ed4:	61203a64 	teqvs	r0, r4, ror #20
    9ed8:	74756f62 	ldrbtvc	r6, [r5], #-3938	; 0xf62
    9edc:	206f7420 	rsbcs	r7, pc, r0, lsr #8
    9ee0:	20746573 	rsbscs	r6, r4, r3, ror r5
    9ee4:	6d73696d 	ldclvs	9, cr6, [r3, #-436]!	; 0xfffffe4c
    9ee8:	68637461 	stmdavs	r3!, {r0, r5, r6, sl, ip, sp, lr}^
    9eec:	6b726220 	blvs	1ca2774 <__bss_end__+0x1c9806c>
    9ef0:	66207470 			; <UNDEFINED> instruction: 0x66207470
    9ef4:	4120726f 	teqmi	r0, pc, ror #4
    9ef8:	0000000a 	andeq	r0, r0, sl
    9efc:	4f525245 	svcmi	0x00525245
    9f00:	63203a52 	teqvs	r0, #335872	; 0x52000
    9f04:	6b636568 	blvs	18e34ac <__bss_end__+0x18d8da4>
    9f08:	69616620 	stmdbvs	r1!, {r5, r9, sl, sp, lr}^
    9f0c:	2064656c 	rsbcs	r6, r4, ip, ror #10
    9f10:	6e656877 	mcrvs	8, 3, r6, cr5, cr7, {3}
    9f14:	69777320 	ldmdbvs	r7!, {r5, r8, r9, ip, sp, lr}^
    9f18:	65686374 	strbvs	r6, [r8, #-884]!	; 0x374
    9f1c:	6e6f2064 	cdpvs	0, 6, cr2, cr15, cr4, {3}
    9f20:	64646120 	strbtvs	r6, [r4], #-288	; 0x120
    9f24:	73736572 	cmnvc	r3, #478150656	; 0x1c800000
    9f28:	2c702520 	cfldr64cs	mvdx2, [r0], #-128	; 0xffffff80
    9f2c:	74666120 	strbtvc	r6, [r6], #-288	; 0x120
    9f30:	25207265 	strcs	r7, [r0, #-613]!	; 0x265
    9f34:	6e692064 	cdpvs	0, 6, cr2, cr9, cr4, {3}
    9f38:	75727473 	ldrbvc	r7, [r2, #-1139]!	; 0x473
    9f3c:	6f697463 	svcvs	0x00697463
    9f40:	000a736e 	andeq	r7, sl, lr, ror #6
    9f44:	656e6f64 	strbvs	r6, [lr, #-3940]!	; 0xf64
    9f48:	64202021 	strtvs	r2, [r0], #-33	; 0x21
    9f4c:	63206469 	teqvs	r0, #1761607680	; 0x69000000
    9f50:	736e3e2d 	cmnvc	lr, #720	; 0x2d0
    9f54:	63746977 	cmnvs	r4, #1949696	; 0x1dc000
    9f58:	3d736568 	cfldr64cc	mvdx6, [r3, #-416]!	; 0xfffffe60
    9f5c:	202c6425 	eorcs	r6, ip, r5, lsr #8
    9f60:	6972746e 	ldmdbvs	r2!, {r1, r2, r3, r5, r6, sl, ip, sp, lr}^
    9f64:	3d736c61 	ldclcc	12, cr6, [r3, #-388]!	; 0xfffffe7c
    9f68:	202c6425 	eorcs	r6, ip, r5, lsr #8
    9f6c:	7272656e 	rsbsvc	r6, r2, #461373440	; 0x1b800000
    9f70:	3d73726f 	lfmcc	f7, 2, [r3, #-444]!	; 0xfffffe44
    9f74:	000a6425 	andeq	r6, sl, r5, lsr #8
    9f78:	72737063 	rsbsvc	r7, r3, #99	; 0x63
    9f7c:	6974752d 	ldmdbvs	r4!, {r0, r2, r3, r5, r8, sl, ip, sp, lr}^
    9f80:	00682e6c 	rsbeq	r2, r8, ip, ror #28
    9f84:	65646f6d 	strbvs	r6, [r4, #-3949]!	; 0xf6d
    9f88:	67656c5f 			; <UNDEFINED> instruction: 0x67656c5f
    9f8c:	6d286c61 	stcvs	12, cr6, [r8, #-388]!	; 0xfffffe7c
    9f90:	2965646f 	stmdbcs	r5!, {r0, r1, r2, r3, r5, r6, sl, sp, lr}^
    9f94:	00000000 	andeq	r0, r0, r0
    9f98:	494e4150 	stmdbmi	lr, {r4, r6, r8, lr}^
    9f9c:	73253a43 	teqvc	r5, #274432	; 0x43000
    9fa0:	3a73253a 	bcc	1cd3490 <__bss_end__+0x1cc8d88>
    9fa4:	753a6425 	ldrvc	r6, [sl, #-1061]!	; 0x425
    9fa8:	6f6e6b6e 	svcvs	0x006e6b6e
    9fac:	6d206e77 	stcvs	14, cr6, [r0, #-476]!	; 0xfffffe24
    9fb0:	3a65646f 	bcc	1963174 <__bss_end__+0x1958a6c>
    9fb4:	78253c20 	stmdavc	r5!, {r5, sl, fp, ip, sp}
    9fb8:	000a0a3e 	andeq	r0, sl, lr, lsr sl
    9fbc:	65707865 	ldrbvs	r7, [r0, #-2149]!	; 0x865
    9fc0:	64657463 	strbtvs	r7, [r5], #-1123	; 0x463
    9fc4:	646f6d20 	strbtvs	r6, [pc], #-3360	; 9fcc <__FUNCTION__.4451+0x264>
    9fc8:	203d2065 	eorscs	r2, sp, r5, rrx
    9fcc:	28207325 	stmdacs	r0!, {r0, r2, r5, r8, r9, ip, sp, lr}
    9fd0:	0a297825 	beq	a6806c <__bss_end__+0xa5d964>
    9fd4:	00000000 	andeq	r0, r0, r0
    9fd8:	72727563 	rsbsvc	r7, r2, #415236096	; 0x18c00000
    9fdc:	20746e65 	rsbscs	r6, r4, r5, ror #28
    9fe0:	65646f6d 	strbvs	r6, [r4, #-3949]!	; 0xf6d
    9fe4:	25203d20 	strcs	r3, [r0, #-3360]!	; 0xd20
    9fe8:	25282073 	strcs	r2, [r8, #-115]!	; 0x73
    9fec:	000a2978 	andeq	r2, sl, r8, ror r9
    9ff0:	65646f6d 	strbvs	r6, [r4, #-3949]!	; 0xf6d
    9ff4:	7465675f 	strbtvc	r6, [r5], #-1887	; 0x75f
    9ff8:	73706328 	cmnvc	r0, #40, 6	; 0xa0000000
    9ffc:	6c6f5f72 	stclvs	15, cr5, [pc], #-456	; 9e3c <__FUNCTION__.4451+0xd4>
    a000:	3d202964 	stccc	9, cr2, [r0, #-400]!	; 0xfffffe70
    a004:	6f6d203d 	svcvs	0x006d203d
    a008:	675f6564 	ldrbvs	r6, [pc, -r4, ror #10]
    a00c:	63287465 	teqvs	r8, #1694498816	; 0x65000000
    a010:	5f727370 	svcpl	0x00727370
    a014:	28746567 	ldmdacs	r4!, {r0, r1, r2, r5, r6, r8, sl, sp, lr}^
    a018:	00002929 	andeq	r2, r0, r9, lsr #18
    a01c:	494e4150 	stmdbmi	lr, {r4, r6, r8, lr}^
    a020:	73253a43 	teqvc	r5, #274432	; 0x43000
    a024:	3a73253a 	bcc	1cd3514 <__bss_end__+0x1cc8e0c>
    a028:	633a6425 	teqvs	sl, #620756992	; 0x25000000
    a02c:	6b636568 	blvs	18e35d4 <__bss_end__+0x18d8ecc>
    a030:	69616620 	stmdbvs	r1!, {r5, r9, sl, sp, lr}^
    a034:	2064656c 	rsbcs	r6, r4, ip, ror #10
    a038:	75716573 	ldrbvc	r6, [r1, #-1395]!	; 0x573
    a03c:	69746e65 	ldmdbvs	r4!, {r0, r2, r5, r6, r9, sl, fp, sp, lr}^
    a040:	796c6c61 	stmdbvc	ip!, {r0, r5, r6, sl, fp, sp, lr}^
    a044:	6f63203a 	svcvs	0x0063203a
    a048:	69206564 	stmdbvs	r0!, {r2, r5, r6, r8, sl, sp, lr}
    a04c:	72622073 	rsbvc	r2, r2, #115	; 0x73
    a050:	6e656b6f 	vnmulvs.f64	d22, d5, d31
    a054:	00000a0a 	andeq	r0, r0, sl, lsl #20

0000a058 <__FUNCTION__.4432>:
    a058:	63656863 	cmnvs	r5, #6488064	; 0x630000
    a05c:	65735f6b 	ldrbvs	r5, [r3, #-3947]!	; 0xf6b
    a060:	6e657571 	mcrvs	5, 3, r7, cr5, cr1, {3}
    a064:	6c616974 	stclvs	9, cr6, [r1], #-464	; 0xfffffe30
    a068:	00000000 	andeq	r0, r0, r0

0000a06c <__FUNCTION__.4424>:
    a06c:	63656863 	cmnvs	r5, #6488064	; 0x630000
    a070:	6e6f5f6b 	cdpvs	15, 6, cr5, cr15, cr11, {3}
    a074:	73635f65 	cmnvc	r3, #404	; 0x194
    a078:	63746977 	cmnvs	r4, #1949696	; 0x1dc000
    a07c:	00000068 	andeq	r0, r0, r8, rrx

0000a080 <__FUNCTION__.4417>:
    a080:	676e6973 			; <UNDEFINED> instruction: 0x676e6973
    a084:	735f656c 	cmpvc	pc, #108, 10	; 0x1b000000
    a088:	5f706574 	svcpl	0x00706574
    a08c:	646e6168 	strbtvs	r6, [lr], #-360	; 0x168
    a090:	0072656c 	rsbseq	r6, r2, ip, ror #10

0000a094 <__FUNCTION__.4397>:
    a094:	65646f6d 	strbvs	r6, [r4, #-3949]!	; 0xf6d
    a098:	7465735f 	strbtvc	r7, [r5], #-863	; 0x35f
    a09c:	00000000 	andeq	r0, r0, r0

0000a0a0 <__FUNCTION__.4258>:
    a0a0:	73746962 	cmnvc	r4, #1605632	; 0x188000
    a0a4:	726c635f 	rsbvc	r6, ip, #2080374785	; 0x7c000001
    a0a8:	00000000 	andeq	r0, r0, r0

0000a0ac <__FUNCTION__.4409>:
    a0ac:	65646f6d 	strbvs	r6, [r4, #-3949]!	; 0xf6d
    a0b0:	7274735f 	rsbsvc	r7, r4, #2080374785	; 0x7c000001
    a0b4:	00000000 	andeq	r0, r0, r0

0000a0b8 <__FUNCTION__.4392>:
    a0b8:	65646f6d 	strbvs	r6, [r4, #-3949]!	; 0xf6d
    a0bc:	7465675f 	strbtvc	r6, [r5], #-1887	; 0x75f
    a0c0:	00000000 	andeq	r0, r0, r0

0000a0c4 <__FUNCTION__.4251>:
    a0c4:	73746962 	cmnvc	r4, #1605632	; 0x188000
    a0c8:	7465675f 	strbtvc	r6, [r5], #-1887	; 0x75f
    a0cc:	00000000 	andeq	r0, r0, r0

0000a0d0 <__FUNCTION__.4249>:
    a0d0:	74696d65 	strbtvc	r6, [r9], #-3429	; 0xd65
    a0d4:	00000000 	andeq	r0, r0, r0

0000a0d8 <__FUNCTION__.4197>:
    a0d8:	5f697072 	svcpl	0x00697072
    a0dc:	5f746573 	svcpl	0x00746573
    a0e0:	7074756f 	rsbsvc	r7, r4, pc, ror #10
    a0e4:	00007475 	andeq	r7, r0, r5, ror r4

0000a0e8 <__FUNCTION__.4272>:
    a0e8:	705f6176 	subsvc	r6, pc, r6, ror r1	; <UNPREDICTABLE>
    a0ec:	746e6972 	strbtvc	r6, [lr], #-2418	; 0x972
    a0f0:	0000006b 	andeq	r0, r0, fp, rrx
    a0f4:	6362696c 	cmnvs	r2, #108, 18	; 0x1b0000
    a0f8:	2d61762f 	stclcs	6, cr7, [r1, #-188]!	; 0xffffff44
    a0fc:	6e697270 	mcrvs	2, 3, r7, cr9, cr0, {3}
    a100:	632e6b74 	teqvs	lr, #116, 22	; 0x1d000
    a104:	00000000 	andeq	r0, r0, r0
    a108:	00000030 	andeq	r0, r0, r0, lsr r0
    a10c:	33323130 	teqcc	r2, #48, 2
    a110:	37363534 			; <UNDEFINED> instruction: 0x37363534
    a114:	00003938 	andeq	r3, r0, r8, lsr r9
    a118:	33323130 	teqcc	r2, #48, 2
    a11c:	37363534 			; <UNDEFINED> instruction: 0x37363534
    a120:	62613938 	rsbvs	r3, r1, #56, 18	; 0xe0000
    a124:	66656463 	strbtvs	r6, [r5], -r3, ror #8
    a128:	00000000 	andeq	r0, r0, r0
    a12c:	00003130 	andeq	r3, r0, r0, lsr r1
    a130:	63747570 	cmnvs	r4, #112, 10	; 0x1c000000
    a134:	0070665f 	rsbseq	r6, r0, pc, asr r6
    a138:	74646977 	strbtvc	r6, [r4], #-2423	; 0x977
    a13c:	203c2068 	eorscs	r2, ip, r8, rrx
    a140:	00003233 	andeq	r3, r0, r3, lsr r2
    a144:	494e4150 	stmdbmi	lr, {r4, r6, r8, lr}^
    a148:	73253a43 	teqvc	r5, #274432	; 0x43000
    a14c:	3a73253a 	bcc	1cd363c <__bss_end__+0x1cc8f34>
    a150:	663a6425 	ldrtvs	r6, [sl], -r5, lsr #8
    a154:	74616f6c 	strbtvc	r6, [r1], #-3948	; 0xf6c
    a158:	746f6e20 	strbtvc	r6, [pc], #-3616	; a160 <__FUNCTION__.4272+0x78>
    a15c:	616e6520 	cmnvs	lr, r0, lsr #10
    a160:	64656c62 	strbtvs	r6, [r5], #-3170	; 0xc62
    a164:	0a212121 	beq	8525f0 <__bss_end__+0x847ee8>
    a168:	00000000 	andeq	r0, r0, r0
    a16c:	6e697270 	mcrvs	2, 3, r7, cr9, cr0, {3}
    a170:	203a6b74 	eorscs	r6, sl, r4, ror fp
    a174:	20746f6e 	rsbscs	r6, r4, lr, ror #30
    a178:	646e6168 	strbtvs	r6, [lr], #-360	; 0x168
    a17c:	676e696c 	strbvs	r6, [lr, -ip, ror #18]!
    a180:	65707320 	ldrbvs	r7, [r0, #-800]!	; 0x320
    a184:	69666963 	stmdbvs	r6!, {r0, r1, r5, r6, r8, fp, sp, lr}^
    a188:	27207265 	strcs	r7, [r0, -r5, ror #4]!
    a18c:	20276325 	eorcs	r6, r7, r5, lsr #6
    a190:	63736128 	cmnvs	r3, #40, 2
    a194:	253d6969 	ldrcs	r6, [sp, #-2409]!	; 0x969
    a198:	000a2964 	andeq	r2, sl, r4, ror #18
    a19c:	494e4150 	stmdbmi	lr, {r4, r6, r8, lr}^
    a1a0:	73253a43 	teqvc	r5, #274432	; 0x43000
    a1a4:	3a73253a 	bcc	1cd3694 <__bss_end__+0x1cc8f8c>
    a1a8:	703a6425 	eorsvc	r6, sl, r5, lsr #8
    a1ac:	746e6972 	strbtvc	r6, [lr], #-2418	; 0x972
    a1b0:	7265206b 	rsbvc	r2, r5, #107	; 0x6b
    a1b4:	0a726f72 	beq	1ca5f84 <__bss_end__+0x1c9b87c>
    a1b8:	0000000a 	andeq	r0, r0, sl
    a1bc:	454e4f44 	strbmi	r4, [lr, #-3908]	; 0xf44
    a1c0:	0a212121 	beq	85264c <__bss_end__+0x847f44>
    a1c4:	00000000 	andeq	r0, r0, r0

0000a1c8 <__FUNCTION__.4220>:
    a1c8:	74736166 	ldrbtvc	r6, [r3], #-358	; 0x166
    a1cc:	746e695f 	strbtvc	r6, [lr], #-2399	; 0x95f
    a1d0:	75727265 	ldrbvc	r7, [r2, #-613]!	; 0x265
    a1d4:	765f7470 			; <UNDEFINED> instruction: 0x765f7470
    a1d8:	6f746365 	svcvs	0x00746365
    a1dc:	00000072 	andeq	r0, r0, r2, ror r0
    a1e0:	494e4150 	stmdbmi	lr, {r4, r6, r8, lr}^
    a1e4:	73253a43 	teqvc	r5, #274432	; 0x43000
    a1e8:	3a73253a 	bcc	1cd36d8 <__bss_end__+0x1cc8fd0>
    a1ec:	453a6425 	ldrmi	r6, [sl, #-1061]!	; 0x425
    a1f0:	524f5252 	subpl	r5, pc, #536870917	; 0x20000005
    a1f4:	6e75203a 	mrcvs	0, 3, r2, cr5, cr10, {1}
    a1f8:	646e6168 	strbtvs	r6, [lr], #-360	; 0x168
    a1fc:	2064656c 	rsbcs	r6, r4, ip, ror #10
    a200:	65637865 	strbvs	r7, [r3, #-2149]!	; 0x865
    a204:	6f697470 	svcvs	0x00697470
    a208:	253c206e 	ldrcs	r2, [ip, #-110]!	; 0x6e
    a20c:	61203e73 	teqvs	r0, r3, ror lr
    a210:	43502074 	cmpmi	r0, #116	; 0x74
    a214:	0a78253d 	beq	1e13710 <__bss_end__+0x1e09008>
    a218:	0000000a 	andeq	r0, r0, sl
    a21c:	66617473 			; <UNDEFINED> instruction: 0x66617473
    a220:	72732d66 	rsbsvc	r2, r3, #6528	; 0x1980
    a224:	65642f63 	strbvs	r2, [r4, #-3939]!	; 0xf63
    a228:	6c756166 	ldfvse	f6, [r5], #-408	; 0xfffffe68
    a22c:	61682d74 	smcvs	33492	; 0x82d4
    a230:	656c646e 	strbvs	r6, [ip, #-1134]!	; 0x46e
    a234:	61662d72 	smcvs	25298	; 0x62d2
    a238:	632e7473 	teqvs	lr, #1929379840	; 0x73000000
    a23c:	00000000 	andeq	r0, r0, r0
    a240:	74736166 	ldrbtvc	r6, [r3], #-358	; 0x166
    a244:	00000000 	andeq	r0, r0, r0

0000a248 <__FUNCTION__.4220>:
    a248:	65736572 	ldrbvs	r6, [r3, #-1394]!	; 0x572
    a24c:	65765f74 	ldrbvs	r5, [r6, #-3956]!	; 0xf74
    a250:	726f7463 	rsbvc	r7, pc, #1660944384	; 0x63000000
    a254:	00000000 	andeq	r0, r0, r0
    a258:	66617473 			; <UNDEFINED> instruction: 0x66617473
    a25c:	72732d66 	rsbsvc	r2, r3, #6528	; 0x1980
    a260:	65642f63 	strbvs	r2, [r4, #-3939]!	; 0xf63
    a264:	6c756166 	ldfvse	f6, [r5], #-408	; 0xfffffe68
    a268:	61682d74 	smcvs	33492	; 0x82d4
    a26c:	656c646e 	strbvs	r6, [ip, #-1134]!	; 0x46e
    a270:	65722d72 	ldrbvs	r2, [r2, #-3442]!	; 0xd72
    a274:	2e746573 	mrccs	5, 3, r6, cr4, cr3, {3}
    a278:	00000063 	andeq	r0, r0, r3, rrx
    a27c:	65736572 	ldrbvs	r6, [r3, #-1394]!	; 0x572
    a280:	00000074 	andeq	r0, r0, r4, ror r0

0000a284 <__FUNCTION__.4220>:
    a284:	65646e75 	strbvs	r6, [r4, #-3701]!	; 0xe75
    a288:	656e6966 	strbvs	r6, [lr, #-2406]!	; 0x966
    a28c:	6e695f64 	cdpvs	15, 6, cr5, cr9, cr4, {3}
    a290:	75727473 	ldrbvc	r7, [r2, #-1139]!	; 0x473
    a294:	6f697463 	svcvs	0x00697463
    a298:	65765f6e 	ldrbvs	r5, [r6, #-3950]!	; 0xf6e
    a29c:	726f7463 	rsbvc	r7, pc, #1660944384	; 0x63000000
    a2a0:	00000000 	andeq	r0, r0, r0
    a2a4:	66617473 			; <UNDEFINED> instruction: 0x66617473
    a2a8:	72732d66 	rsbsvc	r2, r3, #6528	; 0x1980
    a2ac:	65642f63 	strbvs	r2, [r4, #-3939]!	; 0xf63
    a2b0:	6c756166 	ldfvse	f6, [r5], #-408	; 0xfffffe68
    a2b4:	61682d74 	smcvs	33492	; 0x82d4
    a2b8:	656c646e 	strbvs	r6, [ip, #-1134]!	; 0x46e
    a2bc:	6e752d72 	mrcvs	13, 3, r2, cr5, cr2, {3}
    a2c0:	69666564 	stmdbvs	r6!, {r2, r5, r6, r8, sl, sp, lr}^
    a2c4:	2d64656e 	cfstr64cs	mvdx6, [r4, #-440]!	; 0xfffffe48
    a2c8:	74736e69 	ldrbtvc	r6, [r3], #-3689	; 0xe69
    a2cc:	0000632e 	andeq	r6, r0, lr, lsr #6
    a2d0:	65646e75 	strbvs	r6, [r4, #-3701]!	; 0xe75
    a2d4:	656e6966 	strbvs	r6, [lr, #-2406]!	; 0x966
    a2d8:	6e692064 	cdpvs	0, 6, cr2, cr9, cr4, {3}
    a2dc:	00007473 	andeq	r7, r0, r3, ror r4

Disassembly of section .bss:

0000a2e0 <__bss_start__>:
    a2e0:	00000000 	andeq	r0, r0, r0

0000a2e4 <l>:
    a2e4:	00000000 	andeq	r0, r0, r0

0000a2e8 <watchpt_handler0>:
    a2e8:	00000000 	andeq	r0, r0, r0

0000a2ec <brkpt_handler0>:
    a2ec:	00000000 	andeq	r0, r0, r0

0000a2f0 <brk_verbose_p>:
    a2f0:	00000000 	andeq	r0, r0, r0

0000a2f4 <nfaults.4398>:
    a2f4:	00000000 	andeq	r0, r0, r0

0000a2f8 <init_p.4404>:
    a2f8:	00000000 	andeq	r0, r0, r0

0000a2fc <checker>:
    a2fc:	00000000 	andeq	r0, r0, r0

0000a300 <expected_handle>:
    a300:	00000000 	andeq	r0, r0, r0

0000a304 <buf.4189>:
	...

Disassembly of section .ARM.attributes:

00000000 <.ARM.attributes>:
   0:	00002a41 	andeq	r2, r0, r1, asr #20
   4:	61656100 	cmnvs	r5, r0, lsl #2
   8:	01006962 	tsteq	r0, r2, ror #18
   c:	00000020 	andeq	r0, r0, r0, lsr #32
  10:	4b5a3605 	blmi	168d82c <__bss_end__+0x1683124>
  14:	08070600 	stmdaeq	r7, {r9, sl}
  18:	12010901 	andne	r0, r1, #16384	; 0x4000
  1c:	15011404 	strne	r1, [r1, #-1028]	; 0x404
  20:	18031701 	stmdane	r3, {r0, r8, r9, sl, ip}
  24:	22011a01 	andcs	r1, r1, #4096	; 0x1000
  28:	Address 0x0000000000000028 is out of bounds.


Disassembly of section .comment:

00000000 <.comment>:
   0:	3a434347 	bcc	10d0d24 <__bss_end__+0x10c661c>
   4:	4e472820 	cdpmi	8, 4, cr2, cr7, cr0, {1}
   8:	34202955 	strtcc	r2, [r0], #-2389	; 0x955
   c:	332e382e 	teqcc	lr, #3014656	; 0x2e0000
  10:	43434700 	movtmi	r4, #14080	; 0x3700
  14:	3128203a 	teqcc	r8, sl, lsr r0
  18:	2e363a35 	mrccs	10, 1, r3, cr6, cr5, {1}
  1c:	2b312e33 	blcs	c4b8f0 <__bss_end__+0xc411e8>
  20:	326e7673 	rsbcc	r7, lr, #120586240	; 0x7300000
  24:	33303335 	teqcc	r0, #-738197504	; 0xd4000000
  28:	62312d39 	eorsvs	r2, r1, #3648	; 0xe40
  2c:	646c6975 	strbtvs	r6, [ip], #-2421	; 0x975
  30:	36202931 			; <UNDEFINED> instruction: 0x36202931
  34:	312e332e 	teqcc	lr, lr, lsr #6
  38:	31303220 	teqcc	r0, r0, lsr #4
  3c:	32363037 	eorscc	r3, r6, #55	; 0x37
  40:	Address 0x0000000000000040 is out of bounds.


Disassembly of section .debug_info:

00000000 <.debug_info>:
       0:	00000621 	andeq	r0, r0, r1, lsr #12
       4:	00000004 	andeq	r0, r0, r4
       8:	01040000 	mrseq	r0, (UNDEF: 4)
       c:	0000004f 	andeq	r0, r0, pc, asr #32
      10:	00014801 	andeq	r4, r1, r1, lsl #16
      14:	0001fb00 	andeq	pc, r1, r0, lsl #22
      18:	00802000 	addeq	r2, r0, r0
      1c:	00025400 	andeq	r5, r2, r0, lsl #8
      20:	00000000 	andeq	r0, r0, r0
      24:	05040200 	streq	r0, [r4, #-512]	; 0x200
      28:	00746e69 	rsbseq	r6, r4, r9, ror #28
      2c:	6c070403 	cfstrsvs	mvf0, [r7], {3}
      30:	03000001 	movweq	r0, #1
      34:	00cf0601 	sbceq	r0, pc, r1, lsl #12
      38:	02030000 	andeq	r0, r3, #0
      3c:	00011305 	andeq	r1, r1, r5, lsl #6
      40:	05040300 	streq	r0, [r4, #-768]	; 0x300
      44:	0000019c 	muleq	r0, ip, r1
      48:	97050803 	strls	r0, [r5, -r3, lsl #16]
      4c:	03000001 	movweq	r0, #1
      50:	00cd0801 	sbceq	r0, sp, r1, lsl #16
      54:	02030000 	andeq	r0, r3, #0
      58:	0000e807 	andeq	lr, r0, r7, lsl #16
      5c:	01e10400 	mvneq	r0, r0, lsl #8
      60:	34040000 	strcc	r0, [r4], #-0
      64:	00000068 	andeq	r0, r0, r8, rrx
      68:	67070403 	strvs	r0, [r7, -r3, lsl #8]
      6c:	03000001 	movweq	r0, #1
      70:	01620708 	cmneq	r2, r8, lsl #14
      74:	04030000 	streq	r0, [r3], #-0
      78:	00018e07 	andeq	r8, r1, r7, lsl #28
      7c:	08010300 	stmdaeq	r1, {r8, r9}
      80:	000000d6 	ldrdeq	r0, [r0], -r6
      84:	008a0405 	addeq	r0, sl, r5, lsl #8
      88:	7d060000 	stcvc	0, cr0, [r6, #-0]
      8c:	07000000 	streq	r0, [r0, -r0]
      90:	0000007d 	andeq	r0, r0, sp, ror r0
      94:	0000009f 	muleq	r0, pc, r0	; <UNPREDICTABLE>
      98:	00007608 	andeq	r7, r0, r8, lsl #12
      9c:	09000700 	stmdbeq	r0, {r8, r9, sl}
      a0:	00000140 	andeq	r0, r0, r0, asr #2
      a4:	500a0338 	andpl	r0, sl, r8, lsr r3
      a8:	0a000001 	beq	b4 <__code_start__-0x7f4c>
      ac:	00000a83 	andeq	r0, r0, r3, lsl #21
      b0:	01500f03 	cmpeq	r0, r3, lsl #30
      b4:	0b000000 	bleq	bc <__code_start__-0x7f44>
      b8:	12030041 	andne	r0, r3, #65	; 0x41
      bc:	00000168 	andeq	r0, r0, r8, ror #2
      c0:	00420b04 	subeq	r0, r2, r4, lsl #22
      c4:	017d1303 	cmneq	sp, r3, lsl #6
      c8:	0a080000 	beq	2000d0 <__bss_end__+0x1f59c8>
      cc:	000001d2 	ldrdeq	r0, [r0], -r2
      d0:	01681603 	cmneq	r8, r3, lsl #12
      d4:	0a0c0000 	beq	3000dc <__bss_end__+0x2f59d4>
      d8:	000001db 	ldrdeq	r0, [r0], -fp
      dc:	017d1803 	cmneq	sp, r3, lsl #16
      e0:	0a100000 	beq	4000e8 <__bss_end__+0x3f59e0>
      e4:	00000179 	andeq	r0, r0, r9, ror r1
      e8:	01831f03 	orreq	r1, r3, r3, lsl #30
      ec:	0a140000 	beq	5000f4 <__bss_end__+0x4f59ec>
      f0:	000000bc 	strheq	r0, [r0], -ip
      f4:	01833103 	orreq	r3, r3, r3, lsl #2
      f8:	0a180000 	beq	600100 <__bss_end__+0x5f59f8>
      fc:	00000028 	andeq	r0, r0, r8, lsr #32
     100:	01883603 	orreq	r3, r8, r3, lsl #12
     104:	0a1c0000 	beq	70010c <__bss_end__+0x6f5a04>
     108:	000001b0 			; <UNDEFINED> instruction: 0x000001b0
     10c:	01883a03 	orreq	r3, r8, r3, lsl #20
     110:	0a200000 	beq	800118 <__bss_end__+0x7f5a10>
     114:	000001a5 	andeq	r0, r0, r5, lsr #3
     118:	01833f03 	orreq	r3, r3, r3, lsl #30
     11c:	0a240000 	beq	900124 <__bss_end__+0x8f5a1c>
     120:	00000016 	andeq	r0, r0, r6, lsl r0
     124:	002c4203 	eoreq	r4, ip, r3, lsl #4
     128:	0a280000 	beq	a00130 <__bss_end__+0x9f5a28>
     12c:	00000047 	andeq	r0, r0, r7, asr #32
     130:	002c4303 	eoreq	r4, ip, r3, lsl #6
     134:	0a2c0000 	beq	b0013c <__bss_end__+0xaf5a34>
     138:	0000012a 	andeq	r0, r0, sl, lsr #2
     13c:	002c4603 	eoreq	r4, ip, r3, lsl #12
     140:	0a300000 	beq	c00148 <__bss_end__+0xbf5a40>
     144:	00000263 	andeq	r0, r0, r3, ror #4
     148:	01884803 	orreq	r4, r8, r3, lsl #16
     14c:	00340000 	eorseq	r0, r4, r0
     150:	01560405 	cmpeq	r6, r5, lsl #8
     154:	0d0c0000 	stceq	0, cr0, [ip, #-0]
     158:	00000162 	andeq	r0, r0, r2, ror #2
     15c:	0001620e 	andeq	r6, r1, lr, lsl #4
     160:	04050000 	streq	r0, [r5], #-0
     164:	0000009f 	muleq	r0, pc, r0	; <UNPREDICTABLE>
     168:	01570405 	cmpeq	r7, r5, lsl #8
     16c:	250f0000 	strcs	r0, [pc, #-0]	; 174 <__code_start__-0x7e8c>
     170:	7d000000 	stcvc	0, cr0, [r0, #-0]
     174:	0e000001 	cdpeq	0, 0, cr0, cr0, cr1, {0}
     178:	00000162 	andeq	r0, r0, r2, ror #2
     17c:	6e040500 	cfsh32vs	mvfx0, mvfx4, #0
     180:	10000001 	andne	r0, r0, r1
     184:	0000002c 	andeq	r0, r0, ip, lsr #32
     188:	00005d10 	andeq	r5, r0, r0, lsl sp
     18c:	001e0400 	andseq	r0, lr, r0, lsl #8
     190:	49030000 	stmdbmi	r3, {}	; <UNPREDICTABLE>
     194:	0000009f 	muleq	r0, pc, r0	; <UNPREDICTABLE>
     198:	00010904 	andeq	r0, r1, r4, lsl #18
     19c:	a3050200 	movwge	r0, #20992	; 0x5200
     1a0:	10000001 	andne	r0, r0, r1
     1a4:	00000025 	andeq	r0, r0, r5, lsr #32
     1a8:	0001c911 	andeq	ip, r1, r1, lsl r9
     1ac:	03070200 	movweq	r0, #29184	; 0x7200
     1b0:	000001be 			; <UNDEFINED> instruction: 0x000001be
     1b4:	02006c12 	andeq	r6, r0, #4608	; 0x1200
     1b8:	0001be07 	andeq	fp, r1, r7, lsl #28
     1bc:	04050000 	streq	r0, [r5], #-0
     1c0:	00000198 	muleq	r0, r8, r1
     1c4:	00000913 	andeq	r0, r0, r3, lsl r9
     1c8:	250a0200 	strcs	r0, [sl, #-512]	; 0x200
     1cc:	03000000 	movweq	r0, #0
     1d0:	000001ea 	andeq	r0, r0, sl, ror #3
     1d4:	02006c12 	andeq	r6, r0, #4608	; 0x1200
     1d8:	0001be0a 	andeq	fp, r1, sl, lsl #28
     1dc:	01ea1400 	mvneq	r1, r0, lsl #8
     1e0:	0c020000 	stceq	0, cr0, [r2], {-0}
     1e4:	00000025 	andeq	r0, r0, r5, lsr #32
     1e8:	83110000 	tsthi	r1, #0
     1ec:	02000001 	andeq	r0, r0, #1
     1f0:	020d0317 	andeq	r0, sp, #1543503872	; 0x5c000000
     1f4:	6c120000 	ldcvs	0, cr0, [r2], {-0}
     1f8:	be170200 	cdplt	2, 1, cr0, cr7, cr0, {0}
     1fc:	15000001 	strne	r0, [r0, #-1]
     200:	0000011d 	andeq	r0, r0, sp, lsl r1
     204:	0000021d 	andeq	r0, r0, sp, lsl r2
     208:	00000183 	andeq	r0, r0, r3, lsl #3
     20c:	007d0700 	rsbseq	r0, sp, r0, lsl #14
     210:	021d0000 	andseq	r0, sp, #0
     214:	76080000 	strvc	r0, [r8], -r0
     218:	0a000000 	beq	220 <__code_start__-0x7de0>
     21c:	020d0600 	andeq	r0, sp, #0, 12
     220:	3b160000 	blcc	580228 <__bss_end__+0x575b20>
     224:	01000000 	mrseq	r0, (UNDEF: 0)
     228:	0080200a 	addeq	r2, r0, sl
     22c:	0000b000 	andeq	fp, r0, r0
     230:	509c0100 	addspl	r0, ip, r0, lsl #2
     234:	17000003 	strne	r0, [r0, -r3]
     238:	0a010063 	beq	403cc <__bss_end__+0x35cc4>
     23c:	00000350 	andeq	r0, r0, r0, asr r3
     240:	00000000 	andeq	r0, r0, r0
     244:	00011d18 	andeq	r1, r1, r8, lsl sp
     248:	00036600 	andeq	r6, r3, r0, lsl #12
     24c:	e0030500 	and	r0, r3, r0, lsl #10
     250:	1900009b 	stmdbne	r0, {r0, r1, r3, r4, r7}
     254:	000001c4 	andeq	r0, r0, r4, asr #3
     258:	00008028 	andeq	r8, r0, r8, lsr #32
     25c:	00000008 	andeq	r0, r0, r8
     260:	02900b01 	addseq	r0, r0, #1024	; 0x400
     264:	d41a0000 	ldrle	r0, [sl], #-0
     268:	06000001 	streq	r0, [r0], -r1
     26c:	00a2e403 	adceq	lr, r2, r3, lsl #8
     270:	281b9f00 	ldmdacs	fp, {r8, r9, sl, fp, ip, pc}
     274:	08000080 	stmdaeq	r0, {r7}
     278:	1c000000 	stcne	0, cr0, [r0], {-0}
     27c:	00008030 	andeq	r8, r0, r0, lsr r0
     280:	000005d3 	ldrdeq	r0, [r0], -r3
     284:	0550011d 	ldrbeq	r0, [r0, #-285]	; 0x11d
     288:	00a2e403 	adceq	lr, r2, r3, lsl #8
     28c:	00000000 	andeq	r0, r0, r0
     290:	0001ea19 	andeq	lr, r1, r9, lsl sl
     294:	00806400 	addeq	r6, r0, r0, lsl #8
     298:	00004000 	andeq	r4, r0, r0
     29c:	0f0e0100 	svceq	0x000e0100
     2a0:	1a000003 	bne	2b4 <__code_start__-0x7d4c>
     2a4:	000001f6 	strdeq	r0, [r0], -r6
     2a8:	a2e40306 	rscge	r0, r4, #402653184	; 0x18000000
     2ac:	1b9f0000 	blne	fe7c02b4 <__bss_end__+0xfe7b5bac>
     2b0:	00008064 	andeq	r8, r0, r4, rrx
     2b4:	00000040 	andeq	r0, r0, r0, asr #32
     2b8:	0001ff1e 	andeq	pc, r1, lr, lsl pc	; <UNPREDICTABLE>
     2bc:	d4030500 	strle	r0, [r3], #-1280	; 0x500
     2c0:	1f00009b 	svcne	0x0000009b
     2c4:	00008078 	andeq	r8, r0, r8, ror r0
     2c8:	000005e8 	andeq	r0, r0, r8, ror #11
     2cc:	00809420 	addeq	r9, r0, r0, lsr #8
     2d0:	0005ef00 	andeq	lr, r5, r0, lsl #30
     2d4:	00030400 	andeq	r0, r3, r0, lsl #8
     2d8:	53011d00 	movwpl	r1, #7424	; 0x1d00
     2dc:	011d4801 	tsteq	sp, r1, lsl #16
     2e0:	d4030552 	strle	r0, [r3], #-1362	; 0x552
     2e4:	1d00009b 	stcne	0, cr0, [r0, #-620]	; 0xfffffd94
     2e8:	03055101 	movweq	r5, #20737	; 0x5101
     2ec:	00009b0c 	andeq	r9, r0, ip, lsl #22
     2f0:	0550011d 	ldrbeq	r0, [r0, #-285]	; 0x11d
     2f4:	009af803 	addseq	pc, sl, r3, lsl #16
     2f8:	7d021d00 	stcvc	13, cr1, [r2, #-0]
     2fc:	1c030500 	cfstr32ne	mvfx0, [r3], {-0}
     300:	0000009b 	muleq	r0, fp, r0
     304:	0080981f 	addeq	r9, r0, pc, lsl r8
     308:	00060500 	andeq	r0, r6, r0, lsl #10
     30c:	1f000000 	svcne	0x00000000
     310:	0000803c 	andeq	r8, r0, ip, lsr r0
     314:	000005e8 	andeq	r0, r0, r8, ror #11
     318:	00805020 	addeq	r5, r0, r0, lsr #32
     31c:	0005ef00 	andeq	lr, r5, r0, lsl #30
     320:	00034600 	andeq	r4, r3, r0, lsl #12
     324:	53011d00 	movwpl	r1, #7424	; 0x1d00
     328:	011d3c01 	tsteq	sp, r1, lsl #24
     32c:	e0030552 	and	r0, r3, r2, asr r5
     330:	1d00009b 	stcne	0, cr0, [r0, #-620]	; 0xfffffd94
     334:	03055101 	movweq	r5, #20737	; 0x5101
     338:	00009adc 	ldrdeq	r9, [r0], -ip
     33c:	0550011d 	ldrbeq	r0, [r0, #-285]	; 0x11d
     340:	009ac003 	addseq	ip, sl, r3
     344:	541f0000 	ldrpl	r0, [pc], #-0	; 34c <__code_start__-0x7cb4>
     348:	05000080 	streq	r0, [r0, #-128]	; 0x80
     34c:	00000006 	andeq	r0, r0, r6
     350:	018d0405 	orreq	r0, sp, r5, lsl #8
     354:	7d070000 	stcvc	0, cr0, [r7, #-0]
     358:	66000000 	strvs	r0, [r0], -r0
     35c:	08000003 	stmdaeq	r0, {r0, r1}
     360:	00000076 	andeq	r0, r0, r6, ror r0
     364:	56060005 	strpl	r0, [r6], -r5
     368:	21000003 	tstcs	r0, r3
     36c:	00000041 	andeq	r0, r0, r1, asr #32
     370:	00251001 	eoreq	r1, r5, r1
     374:	80d00000 	sbcshi	r0, r0, r0
     378:	00880000 	addeq	r0, r8, r0
     37c:	9c010000 	stcls	0, cr0, [r1], {-0}
     380:	00000447 	andeq	r0, r0, r7, asr #8
     384:	01006317 	tsteq	r0, r7, lsl r3
     388:	00035010 	andeq	r5, r3, r0, lsl r0
     38c:	00002100 	andeq	r2, r0, r0, lsl #2
     390:	01c41900 	biceq	r1, r4, r0, lsl #18
     394:	80d80000 	sbcshi	r0, r8, r0
     398:	00080000 	andeq	r0, r8, r0
     39c:	11010000 	mrsne	r0, (UNDEF: 1)
     3a0:	000003ce 	andeq	r0, r0, lr, asr #7
     3a4:	0001d41a 	andeq	sp, r1, sl, lsl r4
     3a8:	e4030600 	str	r0, [r3], #-1536	; 0x600
     3ac:	9f0000a2 	svcls	0x000000a2
     3b0:	0080d81b 	addeq	sp, r0, fp, lsl r8
     3b4:	00000800 	andeq	r0, r0, r0, lsl #16
     3b8:	80e01c00 	rschi	r1, r0, r0, lsl #24
     3bc:	05d30000 	ldrbeq	r0, [r3]
     3c0:	011d0000 	tsteq	sp, r0
     3c4:	e4030550 	str	r0, [r3], #-1360	; 0x550
     3c8:	000000a2 	andeq	r0, r0, r2, lsr #1
     3cc:	ea220000 	b	8803d4 <__bss_end__+0x875ccc>
     3d0:	f8000001 			; <UNDEFINED> instruction: 0xf8000001
     3d4:	40000080 	andmi	r0, r0, r0, lsl #1
     3d8:	01000000 	mrseq	r0, (UNDEF: 0)
     3dc:	01f62314 	mvnseq	r2, r4, lsl r3
     3e0:	00420000 	subeq	r0, r2, r0
     3e4:	f81b0000 			; <UNDEFINED> instruction: 0xf81b0000
     3e8:	40000080 	andmi	r0, r0, r0, lsl #1
     3ec:	1e000000 	cdpne	0, 0, cr0, cr0, cr0, {0}
     3f0:	000001ff 	strdeq	r0, [r0], -pc	; <UNPREDICTABLE>
     3f4:	9bd40305 	blls	ff501010 <__bss_end__+0xff4f6908>
     3f8:	0c1f0000 	ldceq	0, cr0, [pc], {-0}
     3fc:	e8000081 	stmda	r0, {r0, r7}
     400:	20000005 	andcs	r0, r0, r5
     404:	00008128 	andeq	r8, r0, r8, lsr #2
     408:	000005ef 	andeq	r0, r0, pc, ror #11
     40c:	0000043b 	andeq	r0, r0, fp, lsr r4
     410:	0153011d 	cmpeq	r3, sp, lsl r1
     414:	52011d48 	andpl	r1, r1, #72, 26	; 0x1200
     418:	9bd40305 	blls	ff501034 <__bss_end__+0xff4f692c>
     41c:	011d0000 	tsteq	sp, r0
     420:	0c030551 	cfstr32eq	mvfx0, [r3], {81}	; 0x51
     424:	1d00009b 	stcne	0, cr0, [r0, #-620]	; 0xfffffd94
     428:	03055001 	movweq	r5, #20481	; 0x5001
     42c:	00009af8 	strdeq	r9, [r0], -r8
     430:	007d021d 	rsbseq	r0, sp, sp, lsl r2
     434:	9b1c0305 	blls	701050 <__bss_end__+0x6f6948>
     438:	1f000000 	svcne	0x00000000
     43c:	0000812c 	andeq	r8, r0, ip, lsr #2
     440:	00000605 	andeq	r0, r0, r5, lsl #12
     444:	16000000 	strne	r0, [r0], -r0
     448:	00000000 	andeq	r0, r0, r0
     44c:	81581801 	cmphi	r8, r1, lsl #16
     450:	00200000 	eoreq	r0, r0, r0
     454:	9c010000 	stcls	0, cr0, [r1], {-0}
     458:	00000484 	andeq	r0, r0, r4, lsl #9
     45c:	01006324 	tsteq	r0, r4, lsr #6
     460:	00035018 	andeq	r5, r3, r8, lsl r0
     464:	22500100 	subscs	r0, r0, #0, 2
     468:	000001a8 	andeq	r0, r0, r8, lsr #3
     46c:	00008164 	andeq	r8, r0, r4, ror #2
     470:	00000014 	andeq	r0, r0, r4, lsl r0
     474:	b41a1a01 	ldrlt	r1, [sl], #-2561	; 0xa01
     478:	06000001 	streq	r0, [r0], -r1
     47c:	00a2e403 	adceq	lr, r2, r3, lsl #8
     480:	00009f00 	andeq	r9, r0, r0, lsl #30
     484:	0001d721 	andeq	sp, r1, r1, lsr #14
     488:	251c0100 	ldrcs	r0, [ip, #-256]	; 0x100
     48c:	78000000 	stmdavc	r0, {}	; <UNPREDICTABLE>
     490:	1c000081 	stcne	0, cr0, [r0], {129}	; 0x81
     494:	01000000 	mrseq	r0, (UNDEF: 0)
     498:	0004ab9c 	muleq	r4, ip, fp
     49c:	00631700 	rsbeq	r1, r3, r0, lsl #14
     4a0:	03501c01 	cmpeq	r0, #256	; 0x100
     4a4:	005a0000 	subseq	r0, sl, r0
     4a8:	25000000 	strcs	r0, [r0, #-0]
     4ac:	00000139 	andeq	r0, r0, r9, lsr r1
     4b0:	018d2001 	orreq	r2, sp, r1
     4b4:	81940000 	orrshi	r0, r4, r0
     4b8:	00700000 	rsbseq	r0, r0, r0
     4bc:	9c010000 	stcls	0, cr0, [r1], {-0}
     4c0:	00003326 	andeq	r3, r0, r6, lsr #6
     4c4:	042a0100 	strteq	r0, [sl], #-256	; 0x100
     4c8:	70000082 	andvc	r0, r0, r2, lsl #1
     4cc:	01000000 	mrseq	r0, (UNDEF: 0)
     4d0:	0005a39c 	muleq	r5, ip, r3
     4d4:	00632700 	rsbeq	r2, r3, r0, lsl #14
     4d8:	009f2e01 	addseq	r2, pc, r1, lsl #28
     4dc:	91020000 	mrsls	r0, (UNDEF: 2)
     4e0:	006e2840 	rsbeq	r2, lr, r0, asr #16
     4e4:	00252f01 	eoreq	r2, r5, r1, lsl #30
     4e8:	1d180000 	ldcne	0, cr0, [r8, #-0]
     4ec:	a3000001 	movwge	r0, #1
     4f0:	05000005 	streq	r0, [r0, #-5]
     4f4:	009be803 	addseq	lr, fp, r3, lsl #16
     4f8:	82101f00 	andshi	r1, r0, #0, 30
     4fc:	060c0000 	streq	r0, [ip], -r0
     500:	18200000 	stmdane	r0!, {}	; <UNPREDICTABLE>
     504:	ab000082 	blge	714 <__code_start__-0x78ec>
     508:	16000004 	strne	r0, [r0], -r4
     50c:	1d000005 	stcne	0, cr0, [r0, #-20]	; 0xffffffec
     510:	7d025001 	stcvc	0, cr5, [r2, #-4]
     514:	20200000 	eorcs	r0, r0, r0
     518:	13000082 	movwne	r0, #130	; 0x82
     51c:	2a000006 	bcs	53c <__code_start__-0x7ac4>
     520:	1d000005 	stcne	0, cr0, [r0, #-20]	; 0xffffffec
     524:	7d025001 	stcvc	0, cr5, [r2, #-4]
     528:	2c1f0000 	ldccs	0, cr0, [pc], {-0}
     52c:	e8000082 	stmda	r0, {r1, r7}
     530:	20000005 	andcs	r0, r0, r5
     534:	00008240 	andeq	r8, r0, r0, asr #4
     538:	000005ef 	andeq	r0, r0, pc, ror #11
     53c:	00000562 	andeq	r0, r0, r2, ror #10
     540:	0253011d 	subseq	r0, r3, #1073741831	; 0x40000007
     544:	011d3108 	tsteq	sp, r8, lsl #2
     548:	e8030552 	stmda	r3, {r1, r4, r6, r8, sl}
     54c:	1d00009b 	stcne	0, cr0, [r0, #-620]	; 0xfffffd94
     550:	03055101 	movweq	r5, #20737	; 0x5101
     554:	00009adc 	ldrdeq	r9, [r0], -ip
     558:	0550011d 	ldrbeq	r0, [r0, #-285]	; 0x11d
     55c:	009b2403 	addseq	r2, fp, r3, lsl #8
     560:	441f0000 	ldrmi	r0, [pc], #-0	; 568 <__code_start__-0x7a98>
     564:	05000082 	streq	r0, [r0, #-130]	; 0x82
     568:	20000006 	andcs	r0, r0, r6
     56c:	0000824c 	andeq	r8, r0, ip, asr #4
     570:	000005ef 	andeq	r0, r0, pc, ror #11
     574:	00000582 	andeq	r0, r0, r2, lsl #11
     578:	0550011d 	ldrbeq	r0, [r0, #-285]	; 0x11d
     57c:	009b5403 	addseq	r5, fp, r3, lsl #8
     580:	5c200000 	stcpl	0, cr0, [r0], #-0
     584:	ef000082 	svc	0x00000082
     588:	99000005 	stmdbls	r0, {r0, r2}
     58c:	1d000005 	stcne	0, cr0, [r0, #-20]	; 0xffffffec
     590:	03055001 	movweq	r5, #20481	; 0x5001
     594:	00009b60 	andeq	r9, r0, r0, ror #22
     598:	82601f00 	rsbhi	r1, r0, #0, 30
     59c:	06050000 	streq	r0, [r5], -r0
     5a0:	06000000 	streq	r0, [r0], -r0
     5a4:	0000008f 	andeq	r0, r0, pc, lsl #1
     5a8:	746e6327 	strbtvc	r6, [lr], #-807	; 0x327
     5ac:	a3070100 	movwge	r0, #28928	; 0x7100
     5b0:	05000001 	streq	r0, [r0, #-1]
     5b4:	00a2e003 	adceq	lr, r2, r3
     5b8:	006c2700 	rsbeq	r2, ip, r0, lsl #14
     5bc:	01980801 	orrseq	r0, r8, r1, lsl #16
     5c0:	03050000 	movweq	r0, #20480	; 0x5000
     5c4:	0000a2e4 	andeq	sl, r0, r4, ror #5
     5c8:	0000fb29 	andeq	pc, r0, r9, lsr #22
     5cc:	25c20600 	strbcs	r0, [r2, #1536]	; 0x600
     5d0:	2a000000 	bcs	5d8 <__code_start__-0x7a28>
     5d4:	000001ea 	andeq	r0, r0, sl, ror #3
     5d8:	00250c02 	eoreq	r0, r5, r2, lsl #24
     5dc:	05e80000 	strbeq	r0, [r8, #0]!
     5e0:	be0e0000 	cdplt	0, 0, cr0, cr14, cr0, {0}
     5e4:	00000001 	andeq	r0, r0, r1
     5e8:	0002692b 	andeq	r6, r2, fp, lsr #18
     5ec:	2a1e0500 	bcs	7819f4 <__bss_end__+0x7772ec>
     5f0:	000005bc 			; <UNDEFINED> instruction: 0x000005bc
     5f4:	00252905 	eoreq	r2, r5, r5, lsl #18
     5f8:	06050000 	streq	r0, [r5], -r0
     5fc:	840e0000 	strhi	r0, [lr], #-0
     600:	2c000000 	stccs	0, cr0, [r0], {-0}
     604:	00db2b00 	sbcseq	r2, fp, r0, lsl #22
     608:	65050000 	strvs	r0, [r5, #-0]
     60c:	0001bc2b 	andeq	fp, r1, fp, lsr #24
     610:	2d8d0500 	cfstr32cs	mvfx0, [sp]
     614:	000001db 	ldrdeq	r0, [r0], -fp
     618:	00254e03 	eoreq	r4, r5, r3, lsl #28
     61c:	500e0000 	andpl	r0, lr, r0
     620:	00000003 	andeq	r0, r0, r3
     624:	000bd700 	andeq	sp, fp, r0, lsl #14
     628:	6d000400 	cfstrsvs	mvf0, [r0, #-0]
     62c:	04000002 	streq	r0, [r0], #-2
     630:	00004f01 	andeq	r4, r0, r1, lsl #30
     634:	02b40100 	adcseq	r0, r4, #0, 2
     638:	01fb0000 	mvnseq	r0, r0
     63c:	82740000 	rsbshi	r0, r4, #0
     640:	03780000 	cmneq	r8, #0
     644:	01780000 	cmneq	r8, r0
     648:	04020000 	streq	r0, [r2], #-0
     64c:	746e6905 	strbtvc	r6, [lr], #-2309	; 0x905
     650:	07040300 	streq	r0, [r4, -r0, lsl #6]
     654:	0000016c 	andeq	r0, r0, ip, ror #2
     658:	cf060103 	svcgt	0x00060103
     65c:	03000000 	movweq	r0, #0
     660:	01130502 	tsteq	r3, r2, lsl #10
     664:	04030000 	streq	r0, [r3], #-0
     668:	00019c05 	andeq	r9, r1, r5, lsl #24
     66c:	05080300 	streq	r0, [r8, #-768]	; 0x300
     670:	00000197 	muleq	r0, r7, r1
     674:	cd080103 	stfgts	f0, [r8, #-12]
     678:	03000000 	movweq	r0, #0
     67c:	00e80702 	rsceq	r0, r8, r2, lsl #14
     680:	e1040000 	mrs	r0, (UNDEF: 4)
     684:	03000001 	movweq	r0, #1
     688:	00006834 	andeq	r6, r0, r4, lsr r8
     68c:	07040300 	streq	r0, [r4, -r0, lsl #6]
     690:	00000167 	andeq	r0, r0, r7, ror #2
     694:	62070803 	andvs	r0, r7, #196608	; 0x30000
     698:	03000001 	movweq	r0, #1
     69c:	018e0704 	orreq	r0, lr, r4, lsl #14
     6a0:	04050000 	streq	r0, [r5], #-0
     6a4:	d6080103 	strle	r0, [r8], -r3, lsl #2
     6a8:	06000000 	streq	r0, [r0], -r0
     6ac:	00008c04 	andeq	r8, r0, r4, lsl #24
     6b0:	007f0700 	rsbseq	r0, pc, r0, lsl #14
     6b4:	2c040000 	stccs	0, cr0, [r4], {-0}
     6b8:	02000004 	andeq	r0, r0, #4
     6bc:	00009c8a 	andeq	r9, r0, sl, lsl #25
     6c0:	a2040600 	andge	r0, r4, #0, 12
     6c4:	08000000 	stmdaeq	r0, {}	; <UNPREDICTABLE>
     6c8:	000000b7 	strheq	r0, [r0], -r7
     6cc:	0000b709 	andeq	fp, r0, r9, lsl #14
     6d0:	005d0900 	subseq	r0, sp, r0, lsl #18
     6d4:	5d090000 	stcpl	0, cr0, [r9, #-0]
     6d8:	00000000 	andeq	r0, r0, r0
     6dc:	005d0406 	subseq	r0, sp, r6, lsl #8
     6e0:	f80a0000 			; <UNDEFINED> instruction: 0xf80a0000
     6e4:	02000003 	andeq	r0, r0, #3
     6e8:	00005d5f 	andeq	r5, r0, pc, asr sp
     6ec:	00d90300 	sbcseq	r0, r9, r0, lsl #6
     6f0:	720b0000 	andvc	r0, fp, #0
     6f4:	02007465 	andeq	r7, r0, #1694498816	; 0x65000000
     6f8:	00005d5f 	andeq	r5, r0, pc, asr sp
     6fc:	780a0000 	stmdavc	sl, {}	; <UNPREDICTABLE>
     700:	02000003 	andeq	r0, r0, #3
     704:	00005da6 	andeq	r5, r0, r6, lsr #27
     708:	00f50300 	rscseq	r0, r5, r0, lsl #6
     70c:	720b0000 	andvc	r0, fp, #0
     710:	02007465 	andeq	r7, r0, #1694498816	; 0x65000000
     714:	00005da6 	andeq	r5, r0, r6, lsr #27
     718:	ca0a0000 	bgt	280720 <__bss_end__+0x276018>
     71c:	02000003 	andeq	r0, r0, #3
     720:	00002c70 	andeq	r2, r0, r0, ror ip
     724:	010f0300 	mrseq	r0, SP_hyp
     728:	720c0000 	andvc	r0, ip, #0
     72c:	5d700200 	lfmpl	f0, 2, [r0, #-0]
     730:	00000000 	andeq	r0, r0, r0
     734:	0002e70a 	andeq	lr, r2, sl, lsl #14
     738:	5d180100 	ldfpls	f0, [r8, #-0]
     73c:	03000000 	movweq	r0, #0
     740:	0000012b 	andeq	r0, r0, fp, lsr #2
     744:	7465720b 	strbtvc	r7, [r5], #-523	; 0x20b
     748:	5d180100 	ldfpls	f0, [r8, #-0]
     74c:	00000000 	andeq	r0, r0, r0
     750:	0004520d 	andeq	r5, r4, sp, lsl #4
     754:	031e0100 	tsteq	lr, #0, 2
     758:	00000141 	andeq	r0, r0, r1, asr #2
     75c:	0100760c 	tsteq	r0, ip, lsl #12
     760:	00005d1e 	andeq	r5, r0, lr, lsl sp
     764:	2a0d0000 	bcs	34076c <__bss_end__+0x336064>
     768:	01000003 	tsteq	r0, r3
     76c:	01570326 	cmpeq	r7, r6, lsr #6
     770:	760c0000 	strvc	r0, [ip], -r0
     774:	5d260100 	stfpls	f0, [r6, #-0]
     778:	00000000 	andeq	r0, r0, r0
     77c:	0004100d 	andeq	r1, r4, sp
     780:	030d0100 	movweq	r0, #53504	; 0xd100
     784:	0000016d 	andeq	r0, r0, sp, ror #2
     788:	0100760c 	tsteq	r0, ip, lsl #12
     78c:	00005d0d 	andeq	r5, r0, sp, lsl #26
     790:	aa0a0000 	bge	280798 <__bss_end__+0x276090>
     794:	02000003 	andeq	r0, r0, #3
     798:	00002c66 	andeq	r2, r0, r6, ror #24
     79c:	01890300 	orreq	r0, r9, r0, lsl #6
     7a0:	660e0000 	strvs	r0, [lr], -r0
     7a4:	02000003 	andeq	r0, r0, #3
     7a8:	00005d67 	andeq	r5, r0, r7, ror #26
     7ac:	360a0000 	strcc	r0, [sl], -r0
     7b0:	02000004 	andeq	r0, r0, #4
     7b4:	00005d56 	andeq	r5, r0, r6, asr sp
     7b8:	01a50300 			; <UNDEFINED> instruction: 0x01a50300
     7bc:	720b0000 	andvc	r0, fp, #0
     7c0:	02007465 	andeq	r7, r0, #1694498816	; 0x65000000
     7c4:	00005d56 	andeq	r5, r0, r6, asr sp
     7c8:	700a0000 	andvc	r0, sl, r0
     7cc:	02000003 	andeq	r0, r0, #3
     7d0:	00005d63 	andeq	r5, r0, r3, ror #26
     7d4:	01c10300 	biceq	r0, r1, r0, lsl #6
     7d8:	720b0000 	andvc	r0, fp, #0
     7dc:	02007465 	andeq	r7, r0, #1694498816	; 0x65000000
     7e0:	00005d63 	andeq	r5, r0, r3, ror #26
     7e4:	d50d0000 	strle	r0, [sp, #-0]
     7e8:	01000002 	tsteq	r0, r2
     7ec:	01d70332 	bicseq	r0, r7, r2, lsr r3
     7f0:	760c0000 	strvc	r0, [ip], -r0
     7f4:	5d320100 	ldfpls	f0, [r2, #-0]
     7f8:	00000000 	andeq	r0, r0, r0
     7fc:	0003440a 	andeq	r4, r3, sl, lsl #8
     800:	5d8d0100 	stfpls	f0, [sp]
     804:	03000000 	movweq	r0, #0
     808:	000001f3 	strdeq	r0, [r0], -r3
     80c:	7465720b 	strbtvc	r7, [r5], #-523	; 0x20b
     810:	5d8d0100 	stfpls	f0, [sp]
     814:	00000000 	andeq	r0, r0, r0
     818:	0003060d 	andeq	r0, r3, sp, lsl #12
     81c:	038e0100 	orreq	r0, lr, #0, 2
     820:	00000209 	andeq	r0, r0, r9, lsl #4
     824:	0100760c 	tsteq	r0, ip, lsl #12
     828:	00005d8e 	andeq	r5, r0, lr, lsl #27
     82c:	bc0d0000 	stclt	0, cr0, [sp], {-0}
     830:	01000003 	tsteq	r0, r3
     834:	021f038c 	andseq	r0, pc, #140, 6	; 0x30000002
     838:	760c0000 	strvc	r0, [ip], -r0
     83c:	5d8c0100 	stfpls	f0, [ip]
     840:	00000000 	andeq	r0, r0, r0
     844:	0002c10a 	andeq	ip, r2, sl, lsl #2
     848:	2ca90200 	sfmcs	f0, 4, [r9]
     84c:	03000000 	movweq	r0, #0
     850:	00000239 	andeq	r0, r0, r9, lsr r2
     854:	0200720b 	andeq	r7, r0, #-1342177280	; 0xb0000000
     858:	00002caa 	andeq	r2, r0, sl, lsr #25
     85c:	6f0a0000 	svcvs	0x000a0000
     860:	02000003 	andeq	r0, r0, #3
     864:	00005d97 	muleq	r0, r7, sp
     868:	02550300 	subseq	r0, r5, #0, 6
     86c:	720b0000 	andvc	r0, fp, #0
     870:	02007465 	andeq	r7, r0, #1694498816	; 0x65000000
     874:	00005d97 	muleq	r0, r7, sp
     878:	1d0f0000 	stcne	0, cr0, [pc, #-0]	; 880 <__code_start__-0x7780>
     87c:	01000003 	tsteq	r0, r3
     880:	00827436 	addeq	r7, r2, r6, lsr r4
     884:	0000b000 	andeq	fp, r0, r0
     888:	309c0100 	addscc	r0, ip, r0, lsl #2
     88c:	10000004 	andne	r0, r0, r4
     890:	000001b6 			; <UNDEFINED> instruction: 0x000001b6
     894:	007d3601 	rsbseq	r3, sp, r1, lsl #12
     898:	007b0000 	rsbseq	r0, fp, r0
     89c:	70100000 	andsvc	r0, r0, r0
     8a0:	01000004 	tsteq	r0, r4
     8a4:	00009136 	andeq	r9, r0, r6, lsr r1
     8a8:	0000c000 	andeq	ip, r0, r0
     8ac:	02de1100 	sbcseq	r1, lr, #0, 2
     8b0:	39010000 	stmdbcc	r1, {}	; <UNPREDICTABLE>
     8b4:	0000005d 	andeq	r0, r0, sp, asr r0
     8b8:	00000105 	andeq	r0, r0, r5, lsl #2
     8bc:	00011d12 	andeq	r1, r1, r2, lsl sp
     8c0:	00044000 	andeq	r4, r4, r0
     8c4:	18030500 	stmdane	r3, {r8, sl}
     8c8:	1100009d 	swpne	r0, sp, [r0]	; <UNPREDICTABLE>
     8cc:	00000314 	andeq	r0, r0, r4, lsl r3
     8d0:	005d4301 	subseq	r4, sp, r1, lsl #6
     8d4:	01310000 	teqeq	r1, r0
     8d8:	0f130000 	svceq	0x00130000
     8dc:	7c000001 	stcvc	0, cr0, [r0], {1}
     8e0:	04000082 	streq	r0, [r0], #-130	; 0x82
     8e4:	01000000 	mrseq	r0, (UNDEF: 0)
     8e8:	0002dc39 	andeq	sp, r2, r9, lsr ip
     8ec:	827c1400 	rsbshi	r1, ip, #0, 8
     8f0:	00040000 	andeq	r0, r4, r0
     8f4:	1f150000 	svcne	0x00150000
     8f8:	5d000001 	stcpl	0, cr0, [r0, #-4]
     8fc:	00000001 	andeq	r0, r0, r1
     900:	012b1300 	teqeq	fp, r0, lsl #6
     904:	82840000 	addhi	r0, r4, #0
     908:	00040000 	andeq	r0, r4, r0
     90c:	3f010000 	svccc	0x00010000
     910:	000002f9 	strdeq	r0, [r0], -r9
     914:	00013716 	andeq	r3, r1, r6, lsl r7
     918:	00017000 	andeq	r7, r1, r0
     91c:	0f130000 	svceq	0x00130000
     920:	88000001 	stmdahi	r0, {r0}
     924:	04000082 	streq	r0, [r0], #-130	; 0x82
     928:	01000000 	mrseq	r0, (UNDEF: 0)
     92c:	00032041 	andeq	r2, r3, r1, asr #32
     930:	82881400 	addhi	r1, r8, #0, 8
     934:	00040000 	andeq	r0, r4, r0
     938:	1f150000 	svcne	0x00150000
     93c:	8e000001 	cdphi	0, 0, cr0, cr0, cr1, {0}
     940:	00000001 	andeq	r0, r0, r1
     944:	01411300 	mrseq	r1, (UNDEF: 113)
     948:	82b80000 	adcshi	r0, r8, #0
     94c:	00040000 	andeq	r0, r4, r0
     950:	46010000 	strmi	r0, [r1], -r0
     954:	0000033d 	andeq	r0, r0, sp, lsr r3
     958:	00014d16 	andeq	r4, r1, r6, lsl sp
     95c:	00013100 	andeq	r3, r1, r0, lsl #2
     960:	2b130000 	blcs	4c0968 <__bss_end__+0x4b6260>
     964:	bc000001 	stclt	0, cr0, [r0], {1}
     968:	08000082 	stmdaeq	r0, {r1, r7}
     96c:	01000000 	mrseq	r0, (UNDEF: 0)
     970:	00035850 	andeq	r5, r3, r0, asr r8
     974:	01371700 	teqeq	r7, r0, lsl #14
     978:	01ff0000 	mvnseq	r0, r0
     97c:	010f1300 	mrseq	r1, SP_hyp
     980:	82c40000 	sbchi	r0, r4, #0
     984:	00040000 	andeq	r0, r4, r0
     988:	52010000 	andpl	r0, r1, #0
     98c:	0000037f 	andeq	r0, r0, pc, ror r3
     990:	0082c414 	addeq	ip, r2, r4, lsl r4
     994:	00000400 	andeq	r0, r0, r0, lsl #8
     998:	011f1500 	tsteq	pc, r0, lsl #10
     99c:	01ac0000 			; <UNDEFINED> instruction: 0x01ac0000
     9a0:	00000000 	andeq	r0, r0, r0
     9a4:	00015713 	andeq	r5, r1, r3, lsl r7
     9a8:	0082f400 	addeq	pc, r2, r0, lsl #8
     9ac:	00000800 	andeq	r0, r0, r0, lsl #16
     9b0:	99540100 	ldmdbls	r4, {r8}^
     9b4:	18000003 	stmdane	r0, {r0, r1}
     9b8:	00000163 	andeq	r0, r0, r3, ror #2
     9bc:	98190000 	ldmdals	r9, {}	; <UNPREDICTABLE>
     9c0:	af000082 	svcge	0x00000082
     9c4:	1a00000b 	bne	9f8 <__code_start__-0x7608>
     9c8:	000082b4 			; <UNDEFINED> instruction: 0x000082b4
     9cc:	00000bb6 			; <UNDEFINED> instruction: 0x00000bb6
     9d0:	000003db 	ldrdeq	r0, [r0], -fp
     9d4:	0253011b 	subseq	r0, r3, #-1073741818	; 0xc0000006
     9d8:	011b4108 	tsteq	fp, r8, lsl #2
     9dc:	18030552 	stmdane	r3, {r1, r4, r6, r8, sl}
     9e0:	1b00009d 	blne	c5c <__code_start__-0x73a4>
     9e4:	03055101 	movweq	r5, #20737	; 0x5101
     9e8:	00009bf0 	strdeq	r9, [r0], -r0
     9ec:	0550011b 	ldrbeq	r0, [r0, #-283]	; 0x11b
     9f0:	009af803 	addseq	pc, sl, r3, lsl #16
     9f4:	7d021b00 	vstrvc	d1, [r2, #-0]
     9f8:	00030500 	andeq	r0, r3, r0, lsl #10
     9fc:	0000009c 	muleq	r0, ip, r0
     a00:	0082b819 	addeq	fp, r2, r9, lsl r8
     a04:	000bcc00 	andeq	ip, fp, r0, lsl #24
     a08:	82d41900 	sbcshi	r1, r4, #0, 18
     a0c:	0baf0000 	bleq	febc0a14 <__bss_end__+0xfebb630c>
     a10:	f01a0000 			; <UNDEFINED> instruction: 0xf01a0000
     a14:	b6000082 	strlt	r0, [r0], -r2, lsl #1
     a18:	2600000b 	strcs	r0, [r0], -fp
     a1c:	1b000004 	blne	a34 <__code_start__-0x75cc>
     a20:	08025301 	stmdaeq	r2, {r0, r8, r9, ip, lr}
     a24:	52011b52 	andpl	r1, r1, #83968	; 0x14800
     a28:	9d180305 	ldcls	3, cr0, [r8, #-20]	; 0xffffffec
     a2c:	011b0000 	tsteq	fp, r0
     a30:	f0030551 			; <UNDEFINED> instruction: 0xf0030551
     a34:	1b00009b 	blne	ca8 <__code_start__-0x7358>
     a38:	03055001 	movweq	r5, #20481	; 0x5001
     a3c:	00009af8 	strdeq	r9, [r0], -r8
     a40:	007d021b 	rsbseq	r0, sp, fp, lsl r2
     a44:	9c000305 	stcls	3, cr0, [r0], {5}
     a48:	19000000 	stmdbne	r0, {}	; <UNPREDICTABLE>
     a4c:	000082f4 	strdeq	r8, [r0], -r4
     a50:	00000bcc 	andeq	r0, r0, ip, asr #23
     a54:	007f1c00 	rsbseq	r1, pc, r0, lsl #24
     a58:	04400000 	strbeq	r0, [r0], #-0
     a5c:	761d0000 	ldrvc	r0, [sp], -r0
     a60:	0c000000 	stceq	0, cr0, [r0], {-0}
     a64:	04300700 	ldrteq	r0, [r0], #-1792	; 0x700
     a68:	a00a0000 	andge	r0, sl, r0
     a6c:	02000002 	andeq	r0, r0, #2
     a70:	00002c76 	andeq	r2, r0, r6, ror ip
     a74:	046c0300 	strbteq	r0, [ip], #-768	; 0x300
     a78:	720b0000 	andvc	r0, fp, #0
     a7c:	2c770200 	lfmcs	f0, 2, [r7], #-0
     a80:	1e000000 	cdpne	0, 0, cr0, cr0, cr0, {0}
     a84:	0000011d 	andeq	r0, r0, sp, lsl r1
     a88:	0000047c 	andeq	r0, r0, ip, ror r4
     a8c:	000002a0 	andeq	r0, r0, r0, lsr #5
     a90:	007f1c00 	rsbseq	r1, pc, r0, lsl #24
     a94:	047c0000 	ldrbteq	r0, [ip], #-0
     a98:	761d0000 	ldrvc	r0, [sp], -r0
     a9c:	13000000 	movwne	r0, #0
     aa0:	046c0700 	strbteq	r0, [ip], #-1792	; 0x700
     aa4:	780f0000 	stmdavc	pc, {}	; <UNPREDICTABLE>
     aa8:	01000002 	tsteq	r0, r2
     aac:	00832459 	addeq	r2, r3, r9, asr r4
     ab0:	0000dc00 	andeq	sp, r0, r0, lsl #24
     ab4:	b09c0100 	addslt	r0, ip, r0, lsl #2
     ab8:	1f000006 	svcne	0x00000006
     abc:	01006370 	tsteq	r0, r0, ror r3
     ac0:	00002c59 	andeq	r2, r0, r9, asr ip
     ac4:	0001ca00 	andeq	ip, r1, r0, lsl #20
     ac8:	03e72000 	mvneq	r2, #0
     acc:	5a010000 	bpl	40ad4 <__bss_end__+0x363cc>
     ad0:	00000025 	andeq	r0, r0, r5, lsr #32
     ad4:	a2f40305 	rscsge	r0, r4, #335544320	; 0x14000000
     ad8:	1d120000 	ldcne	0, cr0, [r2, #-0]
     adc:	c0000001 	andgt	r0, r0, r1
     ae0:	05000006 	streq	r0, [r0, #-6]
     ae4:	009d2803 	addseq	r2, sp, r3, lsl #16
     ae8:	01b70e00 			; <UNDEFINED> instruction: 0x01b70e00
     aec:	6b010000 	blvs	40af4 <__bss_end__+0x363ec>
     af0:	0000005d 	andeq	r0, r0, sp, asr r0
     af4:	00016d13 	andeq	r6, r1, r3, lsl sp
     af8:	00833000 	addeq	r3, r3, r0
     afc:	00000400 	andeq	r0, r0, r0, lsl #8
     b00:	115c0100 	cmpne	ip, r0, lsl #2
     b04:	14000005 	strne	r0, [r0], #-5
     b08:	00008330 	andeq	r8, r0, r0, lsr r3
     b0c:	00000004 	andeq	r0, r0, r4
     b10:	00017d21 	andeq	r7, r1, r1, lsr #26
     b14:	00bd2200 	adcseq	r2, sp, r0, lsl #4
     b18:	83300000 	teqhi	r0, #0
     b1c:	00040000 	andeq	r0, r4, r0
     b20:	67020000 	strvs	r0, [r2, -r0]
     b24:	00833014 	addeq	r3, r3, r4, lsl r0
     b28:	00000400 	andeq	r0, r0, r0, lsl #8
     b2c:	00cd2100 	sbceq	r2, sp, r0, lsl #2
     b30:	00000000 	andeq	r0, r0, r0
     b34:	45130000 	ldrmi	r0, [r3, #-0]
     b38:	34000004 	strcc	r0, [r0], #-4
     b3c:	2c000083 	stccs	0, cr0, [r0], {131}	; 0x83
     b40:	01000000 	mrseq	r0, (UNDEF: 0)
     b44:	0005c462 	andeq	ip, r5, r2, ror #8
     b48:	83341400 	teqhi	r4, #0, 8
     b4c:	002c0000 	eoreq	r0, ip, r0
     b50:	55210000 	strpl	r0, [r1, #-0]!
     b54:	23000004 	movwcs	r0, #4
     b58:	0000045e 	andeq	r0, r0, lr, asr r4
     b5c:	9d3c0305 	ldcls	3, cr0, [ip, #-20]!	; 0xffffffec
     b60:	bd130000 	ldclt	0, cr0, [r3, #-0]
     b64:	34000000 	strcc	r0, [r0], #-0
     b68:	04000083 	streq	r0, [r0], #-131	; 0x83
     b6c:	02000000 	andeq	r0, r0, #0
     b70:	00056477 	andeq	r6, r5, r7, ror r4
     b74:	83341400 	teqhi	r4, #0, 8
     b78:	00040000 	andeq	r0, r4, r0
     b7c:	cd150000 	ldcgt	0, cr0, [r5, #-0]
     b80:	41000000 	mrsmi	r0, (UNDEF: 0)
     b84:	00000002 	andeq	r0, r0, r2
     b88:	00f51300 	rscseq	r1, r5, r0, lsl #6
     b8c:	83380000 	teqhi	r8, #0
     b90:	00040000 	andeq	r0, r4, r0
     b94:	78020000 	stmdavc	r2, {}	; <UNPREDICTABLE>
     b98:	00000581 	andeq	r0, r0, r1, lsl #11
     b9c:	00010516 	andeq	r0, r1, r6, lsl r5
     ba0:	00024100 	andeq	r4, r2, r0, lsl #2
     ba4:	48190000 	ldmdami	r9, {}	; <UNPREDICTABLE>
     ba8:	af000083 	svcge	0x00000083
     bac:	1a00000b 	bne	be0 <__code_start__-0x7420>
     bb0:	0000835c 	andeq	r8, r0, ip, asr r3
     bb4:	00000bb6 			; <UNDEFINED> instruction: 0x00000bb6
     bb8:	000005b9 			; <UNDEFINED> instruction: 0x000005b9
     bbc:	0253011b 	subseq	r0, r3, #-1073741818	; 0xc0000006
     bc0:	011b7908 	tsteq	fp, r8, lsl #18
     bc4:	3c030552 	cfstr32cc	mvfx0, [r3], {82}	; 0x52
     bc8:	1b00009d 	blne	e44 <__code_start__-0x71bc>
     bcc:	03055101 	movweq	r5, #20737	; 0x5101
     bd0:	00009c50 	andeq	r9, r0, r0, asr ip
     bd4:	0550011b 	ldrbeq	r0, [r0, #-283]	; 0x11b
     bd8:	009c1803 	addseq	r1, ip, r3, lsl #16
     bdc:	60190000 	andsvs	r0, r9, r0
     be0:	cc000083 	stcgt	0, cr0, [r0], {131}	; 0x83
     be4:	0000000b 	andeq	r0, r0, fp
     be8:	01891300 	orreq	r1, r9, r0, lsl #6
     bec:	83600000 	cmnhi	r0, #0
     bf0:	00040000 	andeq	r0, r4, r0
     bf4:	67010000 	strvs	r0, [r1, -r0]
     bf8:	000005eb 	andeq	r0, r0, fp, ror #11
     bfc:	00836014 	addeq	r6, r3, r4, lsl r0
     c00:	00000400 	andeq	r0, r0, r0, lsl #8
     c04:	01991500 	orrseq	r1, r9, r0, lsl #10
     c08:	02540000 	subseq	r0, r4, #0
     c0c:	00000000 	andeq	r0, r0, r0
     c10:	0001a513 	andeq	sl, r1, r3, lsl r5
     c14:	0083c800 	addeq	ip, r3, r0, lsl #16
     c18:	00000400 	andeq	r0, r0, r0, lsl #8
     c1c:	0e6b0100 	poweqe	f0, f3, f0
     c20:	14000006 	strne	r0, [r0], #-6
     c24:	000083c8 	andeq	r8, r0, r8, asr #7
     c28:	00000004 	andeq	r0, r0, r4
     c2c:	0001b521 	andeq	fp, r1, r1, lsr #10
     c30:	19000000 	stmdbne	r0, {}	; <UNPREDICTABLE>
     c34:	00008374 	andeq	r8, r0, r4, ror r3
     c38:	00000baf 	andeq	r0, r0, pc, lsr #23
     c3c:	0083901a 	addeq	r9, r3, sl, lsl r0
     c40:	000bb600 	andeq	fp, fp, r0, lsl #12
     c44:	00065000 	andeq	r5, r6, r0
     c48:	53011b00 	movwpl	r1, #6912	; 0x1b00
     c4c:	1b670802 	blne	19c2c5c <__bss_end__+0x19b8554>
     c50:	03055201 	movweq	r5, #20993	; 0x5201
     c54:	00009d28 	andeq	r9, r0, r8, lsr #26
     c58:	0551011b 	ldrbeq	r0, [r1, #-283]	; 0x11b
     c5c:	009bf003 	addseq	pc, fp, r3
     c60:	50011b00 	andpl	r1, r1, r0, lsl #22
     c64:	9af80305 	bls	ffe01880 <__bss_end__+0xffdf7178>
     c68:	021b0000 	andseq	r0, fp, #0
     c6c:	0305007d 	movweq	r0, #20605	; 0x507d
     c70:	00009c60 	andeq	r9, r0, r0, ror #24
     c74:	83941900 	orrshi	r1, r4, #0, 18
     c78:	0bcc0000 	bleq	ff300c80 <__bss_end__+0xff2f6578>
     c7c:	a8190000 	ldmdage	r9, {}	; <UNPREDICTABLE>
     c80:	af000083 	svcge	0x00000083
     c84:	1a00000b 	bne	cb8 <__code_start__-0x7348>
     c88:	000083c4 	andeq	r8, r0, r4, asr #7
     c8c:	00000bb6 			; <UNDEFINED> instruction: 0x00000bb6
     c90:	0000069b 	muleq	r0, fp, r6
     c94:	0253011b 	subseq	r0, r3, #-1073741818	; 0xc0000006
     c98:	011b6908 	tsteq	fp, r8, lsl #18
     c9c:	28030552 	stmdacs	r3, {r1, r4, r6, r8, sl}
     ca0:	1b00009d 	blne	f1c <__code_start__-0x70e4>
     ca4:	03055101 	movweq	r5, #20737	; 0x5101
     ca8:	00009bf0 	strdeq	r9, [r0], -r0
     cac:	0550011b 	ldrbeq	r0, [r0, #-283]	; 0x11b
     cb0:	009af803 	addseq	pc, sl, r3, lsl #16
     cb4:	7d021b00 	vstrvc	d1, [r2, #-0]
     cb8:	74030500 	strvc	r0, [r3], #-1280	; 0x500
     cbc:	0000009c 	muleq	r0, ip, r0
     cc0:	0083c819 	addeq	ip, r3, r9, lsl r8
     cc4:	000bcc00 	andeq	ip, fp, r0, lsl #24
     cc8:	83d42400 	bicshi	r2, r4, #0, 8
     ccc:	011b0000 	tsteq	fp, r0
     cd0:	00300150 	eorseq	r0, r0, r0, asr r1
     cd4:	007f1c00 	rsbseq	r1, pc, r0, lsl #24
     cd8:	06c00000 	strbeq	r0, [r0], r0
     cdc:	761d0000 	ldrvc	r0, [sp], -r0
     ce0:	11000000 	mrsne	r0, (UNDEF: 0)
     ce4:	06b00700 	ldrteq	r0, [r0], r0, lsl #14
     ce8:	db0f0000 	blle	3c0cf0 <__bss_end__+0x3b65e8>
     cec:	01000003 	tsteq	r0, r3
     cf0:	00840072 	addeq	r0, r4, r2, ror r0
     cf4:	00003c00 	andeq	r3, r0, r0, lsl #24
     cf8:	359c0100 	ldrcc	r0, [ip, #256]	; 0x100
     cfc:	20000007 	andcs	r0, r0, r7
     d00:	000002f0 	strdeq	r0, [r0], -r0	; <UNPREDICTABLE>
     d04:	00257301 	eoreq	r7, r5, r1, lsl #6
     d08:	03050000 	movweq	r0, #20480	; 0x5000
     d0c:	0000a2f8 	strdeq	sl, [r0], -r8
     d10:	01007625 	tsteq	r0, r5, lsr #12
     d14:	00005d7c 	andeq	r5, r0, ip, ror sp
     d18:	13800000 	orrne	r0, r0, #0
     d1c:	000001c1 	andeq	r0, r0, r1, asr #3
     d20:	00008424 	andeq	r8, r0, r4, lsr #8
     d24:	00000008 	andeq	r0, r0, r8
     d28:	07117e01 	ldreq	r7, [r1, -r1, lsl #28]
     d2c:	cd170000 	ldcgt	0, cr0, [r7, #-0]
     d30:	00000001 	andeq	r0, r0, r1
     d34:	57130080 	ldrpl	r0, [r3, -r0, lsl #1]
     d38:	2c000001 	stccs	0, cr0, [r0], {1}
     d3c:	10000084 	andne	r0, r0, r4, lsl #1
     d40:	01000000 	mrseq	r0, (UNDEF: 0)
     d44:	00072b80 	andeq	r2, r7, r0, lsl #23
     d48:	01631800 	cmneq	r3, r0, lsl #16
     d4c:	00000000 	andeq	r0, r0, r0
     d50:	00841819 	addeq	r1, r4, r9, lsl r8
     d54:	000bd300 	andeq	sp, fp, r0, lsl #6
     d58:	470f0000 	strmi	r0, [pc, -r0]
     d5c:	01000004 	tsteq	r0, r4
     d60:	00843ca8 	addeq	r3, r4, r8, lsr #25
     d64:	00003400 	andeq	r3, r0, r0, lsl #8
     d68:	119c0100 	orrsne	r0, ip, r0, lsl #2
     d6c:	26000008 	strcs	r0, [r0], -r8
     d70:	000001b7 			; <UNDEFINED> instruction: 0x000001b7
     d74:	005da801 	subseq	sl, sp, r1, lsl #16
     d78:	50010000 	andpl	r0, r1, r0
     d7c:	00047026 	andeq	r7, r4, r6, lsr #32
     d80:	91a80100 			; <UNDEFINED> instruction: 0x91a80100
     d84:	01000000 	mrseq	r0, (UNDEF: 0)
     d88:	04231151 	strteq	r1, [r3], #-337	; 0x151
     d8c:	a9010000 	stmdbge	r1, {}	; <UNPREDICTABLE>
     d90:	0000005d 	andeq	r0, r0, sp, asr r0
     d94:	00000281 	andeq	r0, r0, r1, lsl #5
     d98:	0003ef20 	andeq	lr, r3, r0, lsr #30
     d9c:	5db10100 	ldfpls	f0, [r1]
     da0:	01000000 	mrseq	r0, (UNDEF: 0)
     da4:	01d71350 	bicseq	r1, r7, r0, asr r3
     da8:	843c0000 	ldrthi	r0, [ip], #-0
     dac:	00040000 	andeq	r0, r4, r0
     db0:	a9010000 	stmdbge	r1, {}	; <UNPREDICTABLE>
     db4:	000007a7 	andeq	r0, r0, r7, lsr #15
     db8:	00843c14 	addeq	r3, r4, r4, lsl ip
     dbc:	00000400 	andeq	r0, r0, r0, lsl #8
     dc0:	01e71500 	mvneq	r1, r0, lsl #10
     dc4:	02a20000 	adceq	r0, r2, #0
     dc8:	00000000 	andeq	r0, r0, r0
     dcc:	0001f313 	andeq	pc, r1, r3, lsl r3	; <UNPREDICTABLE>
     dd0:	00844400 	addeq	r4, r4, r0, lsl #8
     dd4:	00000400 	andeq	r0, r0, r0, lsl #8
     dd8:	c4af0100 	strtgt	r0, [pc], #256	; de0 <__code_start__-0x7220>
     ddc:	16000007 	strne	r0, [r0], -r7
     de0:	000001ff 	strdeq	r0, [r0], -pc	; <UNPREDICTABLE>
     de4:	000002b5 			; <UNDEFINED> instruction: 0x000002b5
     de8:	02091300 	andeq	r1, r9, #0, 6
     dec:	84480000 	strbhi	r0, [r8], #-0
     df0:	00040000 	andeq	r0, r4, r0
     df4:	b4010000 	strlt	r0, [r1], #-0
     df8:	000007df 	ldrdeq	r0, [r0], -pc	; <UNPREDICTABLE>
     dfc:	00021527 	andeq	r1, r2, r7, lsr #10
     e00:	00500100 	subseq	r0, r0, r0, lsl #2
     e04:	0001f313 	andeq	pc, r1, r3, lsl r3	; <UNPREDICTABLE>
     e08:	00844c00 	addeq	r4, r4, r0, lsl #24
     e0c:	00000800 	andeq	r0, r0, r0, lsl #16
     e10:	fabe0100 	blx	fef81218 <__bss_end__+0xfef76b10>
     e14:	17000007 	strne	r0, [r0, -r7]
     e18:	000001ff 	strdeq	r0, [r0], -pc	; <UNPREDICTABLE>
     e1c:	220001e7 	andcs	r0, r0, #-1073741767	; 0xc0000039
     e20:	00000157 	andeq	r0, r0, r7, asr r1
     e24:	00008454 	andeq	r8, r0, r4, asr r4
     e28:	00000008 	andeq	r0, r0, r8
     e2c:	6318bf01 	tstvs	r8, #1, 30
     e30:	00000001 	andeq	r0, r0, r1
     e34:	8a0f0000 	bhi	3c0e3c <__bss_end__+0x3b6734>
     e38:	01000002 	tsteq	r0, r2
     e3c:	008470c4 	addeq	r7, r4, r4, asr #1
     e40:	00009800 	andeq	r9, r0, r0, lsl #16
     e44:	449c0100 	ldrmi	r0, [ip], #256	; 0x100
     e48:	1f000009 	svcne	0x00000009
     e4c:	01006370 	tsteq	r0, r0, ror r3
     e50:	00002cc4 	andeq	r2, r0, r4, asr #25
     e54:	0002c800 	andeq	ip, r2, r0, lsl #16
     e58:	011d1200 	tsteq	sp, r0, lsl #4
     e5c:	09540000 	ldmdbeq	r4, {}^	; <UNPREDICTABLE>
     e60:	03050000 	movweq	r0, #20480	; 0x5000
     e64:	00009d50 	andeq	r9, r0, r0, asr sp
     e68:	00021f13 	andeq	r1, r2, r3, lsl pc
     e6c:	00847c00 	addeq	r7, r4, r0, lsl #24
     e70:	00000800 	andeq	r0, r0, r0, lsl #16
     e74:	89c60100 	stmibhi	r6, {r8}^
     e78:	14000008 	strne	r0, [r0], #-8
     e7c:	0000847c 	andeq	r8, r0, ip, ror r4
     e80:	00000008 	andeq	r0, r0, r8
     e84:	00022f21 	andeq	r2, r2, r1, lsr #30
     e88:	00d92200 	sbcseq	r2, r9, r0, lsl #4
     e8c:	847c0000 	ldrbthi	r0, [ip], #-0
     e90:	00040000 	andeq	r0, r4, r0
     e94:	aa020000 	bge	80e9c <__bss_end__+0x76794>
     e98:	00847c14 	addeq	r7, r4, r4, lsl ip
     e9c:	00000400 	andeq	r0, r0, r0, lsl #8
     ea0:	00e91500 	rsceq	r1, r9, r0, lsl #10
     ea4:	03260000 	teqeq	r6, #0
     ea8:	00000000 	andeq	r0, r0, r0
     eac:	39130000 	ldmdbcc	r3, {}	; <UNPREDICTABLE>
     eb0:	dc000002 	stcle	0, cr0, [r0], {2}
     eb4:	04000084 	streq	r0, [r0], #-132	; 0x84
     eb8:	01000000 	mrseq	r0, (UNDEF: 0)
     ebc:	0008acca 	andeq	sl, r8, sl, asr #25
     ec0:	84dc1400 	ldrbhi	r1, [ip], #1024	; 0x400
     ec4:	00040000 	andeq	r0, r4, r0
     ec8:	49210000 	stmdbmi	r1!, {}	; <UNPREDICTABLE>
     ecc:	00000002 	andeq	r0, r0, r2
     ed0:	84901900 	ldrhi	r1, [r0], #2304	; 0x900
     ed4:	0baf0000 	bleq	febc0edc <__bss_end__+0xfebb67d4>
     ed8:	a41a0000 	ldrge	r0, [sl], #-0
     edc:	b6000084 	strlt	r0, [r0], -r4, lsl #1
     ee0:	e400000b 	str	r0, [r0], #-11
     ee4:	1b000008 	blne	f0c <__code_start__-0x70f4>
     ee8:	08025301 	stmdaeq	r2, {r0, r8, r9, ip, lr}
     eec:	52011bc7 	andpl	r1, r1, #203776	; 0x31c00
     ef0:	9d500305 	ldclls	3, cr0, [r0, #-20]	; 0xffffffec
     ef4:	011b0000 	tsteq	fp, r0
     ef8:	f0030551 			; <UNDEFINED> instruction: 0xf0030551
     efc:	1b00009b 	blne	1170 <__code_start__-0x6e90>
     f00:	03055001 	movweq	r5, #20481	; 0x5001
     f04:	00009c88 	andeq	r9, r0, r8, lsl #25
     f08:	84a81900 	strthi	r1, [r8], #2304	; 0x900
     f0c:	0bcc0000 	bleq	ff300f14 <__bss_end__+0xff2f680c>
     f10:	bc190000 	ldclt	0, cr0, [r9], {-0}
     f14:	af000084 	svcge	0x00000084
     f18:	1a00000b 	bne	f4c <__code_start__-0x70b4>
     f1c:	000084d8 	ldrdeq	r8, [r0], -r8	; <UNPREDICTABLE>
     f20:	00000bb6 			; <UNDEFINED> instruction: 0x00000bb6
     f24:	0000092f 	andeq	r0, r0, pc, lsr #18
     f28:	0253011b 	subseq	r0, r3, #-1073741818	; 0xc0000006
     f2c:	011bc808 	tsteq	fp, r8, lsl #16
     f30:	50030552 	andpl	r0, r3, r2, asr r5
     f34:	1b00009d 	blne	11b0 <__code_start__-0x6e50>
     f38:	03055101 	movweq	r5, #20737	; 0x5101
     f3c:	00009bf0 	strdeq	r9, [r0], -r0
     f40:	0550011b 	ldrbeq	r0, [r0, #-283]	; 0x11b
     f44:	009af803 	addseq	pc, sl, r3, lsl #16
     f48:	7d021b00 	vstrvc	d1, [r2, #-0]
     f4c:	c0030500 	andgt	r0, r3, r0, lsl #10
     f50:	0000009c 	muleq	r0, ip, r0
     f54:	0084dc19 	addeq	sp, r4, r9, lsl ip
     f58:	000bcc00 	andeq	ip, fp, r0, lsl #24
     f5c:	84e82400 	strbthi	r2, [r8], #1024	; 0x400
     f60:	011b0000 	tsteq	fp, r0
     f64:	00300150 	eorseq	r0, r0, r0, asr r1
     f68:	007f1c00 	rsbseq	r1, pc, r0, lsl #24
     f6c:	09540000 	ldmdbeq	r4, {}^	; <UNPREDICTABLE>
     f70:	761d0000 	ldrvc	r0, [sp], -r0
     f74:	15000000 	strne	r0, [r0, #-0]
     f78:	09440700 	stmdbeq	r4, {r8, r9, sl}^
     f7c:	a70f0000 	strge	r0, [pc, -r0]
     f80:	01000007 	tsteq	r0, r7
     f84:	008508cd 	addeq	r0, r5, sp, asr #17
     f88:	00000400 	andeq	r0, r0, r0, lsl #8
     f8c:	7b9c0100 	blvc	fe701394 <__bss_end__+0xfe6f6c8c>
     f90:	28000009 	stmdacs	r0, {r0, r3}
     f94:	01006370 	tsteq	r0, r0, ror r3
     f98:	00002ccd 	andeq	r2, r0, sp, asr #25
     f9c:	00500100 	subseq	r0, r0, r0, lsl #2
     fa0:	0003330f 	andeq	r3, r3, pc, lsl #6
     fa4:	0cd80100 	ldfeqe	f0, [r8], {0}
     fa8:	2c000085 	stccs	0, cr0, [r0], {133}	; 0x85
     fac:	01000000 	mrseq	r0, (UNDEF: 0)
     fb0:	0009e19c 	muleq	r9, ip, r1
     fb4:	011d1200 	tsteq	sp, r0, lsl #4
     fb8:	09f10000 	ldmibeq	r1!, {}^	; <UNPREDICTABLE>
     fbc:	03050000 	movweq	r0, #20480	; 0x5000
     fc0:	00009d68 	andeq	r9, r0, r8, ror #26
     fc4:	00851419 	addeq	r1, r5, r9, lsl r4
     fc8:	000baf00 	andeq	sl, fp, r0, lsl #30
     fcc:	85281a00 	strhi	r1, [r8, #-2560]!	; 0xa00
     fd0:	0bb60000 	bleq	fed80fd8 <__bss_end__+0xfed768d0>
     fd4:	09d70000 	ldmibeq	r7, {}^	; <UNPREDICTABLE>
     fd8:	011b0000 	tsteq	fp, r0
     fdc:	d9080253 	stmdble	r8, {r0, r1, r4, r6, r9}
     fe0:	0552011b 	ldrbeq	r0, [r2, #-283]	; 0x11b
     fe4:	009d6803 	addseq	r6, sp, r3, lsl #16
     fe8:	51011b00 	tstpl	r1, r0, lsl #22
     fec:	9bf00305 	blls	ffc01c08 <__bss_end__+0xffbf7500>
     ff0:	011b0000 	tsteq	fp, r0
     ff4:	d0030550 	andle	r0, r3, r0, asr r5
     ff8:	0000009c 	muleq	r0, ip, r0
     ffc:	00852c19 	addeq	r2, r5, r9, lsl ip
    1000:	000bcc00 	andeq	ip, fp, r0, lsl #24
    1004:	7f1c0000 	svcvc	0x001c0000
    1008:	f1000000 	cps	#0
    100c:	1d000009 	stcne	0, cr0, [r0, #-36]	; 0xffffffdc
    1010:	00000076 	andeq	r0, r0, r6, ror r0
    1014:	e1070010 	tst	r7, r0, lsl r0
    1018:	0f000009 	svceq	0x00000009
    101c:	00000352 	andeq	r0, r0, r2, asr r3
    1020:	8538dc01 	ldrhi	sp, [r8, #-3073]!	; 0xc01
    1024:	00340000 	eorseq	r0, r4, r0
    1028:	9c010000 	stcls	0, cr0, [r1], {-0}
    102c:	00000ad4 	ldrdeq	r0, [r0], -r4
    1030:	0001b726 	andeq	fp, r1, r6, lsr #14
    1034:	5ddc0100 	ldfple	f0, [ip]
    1038:	01000000 	mrseq	r0, (UNDEF: 0)
    103c:	04702650 	ldrbteq	r2, [r0], #-1616	; 0x650
    1040:	dc010000 	stcle	0, cr0, [r1], {-0}
    1044:	00000091 	muleq	r0, r1, r0
    1048:	23115101 	tstcs	r1, #1073741824	; 0x40000000
    104c:	01000004 	tsteq	r0, r4
    1050:	00005ddd 	ldrdeq	r5, [r0], -sp
    1054:	00033900 	andeq	r3, r3, r0, lsl #18
    1058:	03ef2000 	mvneq	r2, #0
    105c:	e5010000 	str	r0, [r1, #-0]
    1060:	0000005d 	andeq	r0, r0, sp, asr r0
    1064:	d7135001 	ldrle	r5, [r3, -r1]
    1068:	38000001 	stmdacc	r0, {r0}
    106c:	04000085 	streq	r0, [r0], #-133	; 0x85
    1070:	01000000 	mrseq	r0, (UNDEF: 0)
    1074:	000a68dd 	ldrdeq	r6, [sl], -sp
    1078:	85381400 	ldrhi	r1, [r8, #-1024]!	; 0x400
    107c:	00040000 	andeq	r0, r4, r0
    1080:	e7150000 	ldr	r0, [r5, -r0]
    1084:	5c000001 	stcpl	0, cr0, [r0], {1}
    1088:	00000003 	andeq	r0, r0, r3
    108c:	01f31300 	mvnseq	r1, r0, lsl #6
    1090:	85400000 	strbhi	r0, [r0, #-0]
    1094:	00040000 	andeq	r0, r4, r0
    1098:	e3010000 	movw	r0, #4096	; 0x1000
    109c:	00000a85 	andeq	r0, r0, r5, lsl #21
    10a0:	0001ff16 	andeq	pc, r1, r6, lsl pc	; <UNPREDICTABLE>
    10a4:	00036f00 	andeq	r6, r3, r0, lsl #30
    10a8:	09130000 	ldmdbeq	r3, {}	; <UNPREDICTABLE>
    10ac:	44000002 	strmi	r0, [r0], #-2
    10b0:	04000085 	streq	r0, [r0], #-133	; 0x85
    10b4:	01000000 	mrseq	r0, (UNDEF: 0)
    10b8:	000aa0e8 	andeq	sl, sl, r8, ror #1
    10bc:	02152700 	andseq	r2, r5, #0, 14
    10c0:	50010000 	andpl	r0, r1, r0
    10c4:	01f31300 	mvnseq	r1, r0, lsl #6
    10c8:	85480000 	strbhi	r0, [r8, #-0]
    10cc:	00080000 	andeq	r0, r8, r0
    10d0:	f2010000 	vhadd.s8	d0, d1, d0
    10d4:	00000abd 			; <UNDEFINED> instruction: 0x00000abd
    10d8:	0001ff29 	andeq	pc, r1, r9, lsr #30
    10dc:	4001e700 	andmi	lr, r1, r0, lsl #14
    10e0:	57220000 	strpl	r0, [r2, -r0]!
    10e4:	50000001 	andpl	r0, r0, r1
    10e8:	08000085 	stmdaeq	r0, {r0, r2, r7}
    10ec:	01000000 	mrseq	r0, (UNDEF: 0)
    10f0:	016318f3 	strdeq	r1, [r3, #-131]!	; 0xffffff7d
    10f4:	00000000 	andeq	r0, r0, r0
    10f8:	03920f00 	orrseq	r0, r2, #0, 30
    10fc:	f8010000 			; <UNDEFINED> instruction: 0xf8010000
    1100:	0000856c 	andeq	r8, r0, ip, ror #10
    1104:	00000010 	andeq	r0, r0, r0, lsl r0
    1108:	0b209c01 	bleq	828114 <__bss_end__+0x81da0c>
    110c:	b7260000 	strlt	r0, [r6, -r0]!
    1110:	01000001 	tsteq	r0, r1
    1114:	00005df8 	strdeq	r5, [r0], -r8
    1118:	2a500100 	bcs	1401520 <__bss_end__+0x13f6e18>
    111c:	00000423 	andeq	r0, r0, r3, lsr #8
    1120:	005df901 	subseq	pc, sp, r1, lsl #18
    1124:	01e60000 	mvneq	r0, r0
    1128:	f32b0040 	vhadd.u32	q0, <illegal reg q5.5>, q0
    112c:	6c000001 	stcvs	0, cr0, [r0], {1}
    1130:	10000085 	andne	r0, r0, r5, lsl #1
    1134:	01000000 	mrseq	r0, (UNDEF: 0)
    1138:	ff290100 			; <UNDEFINED> instruction: 0xff290100
    113c:	e6000001 	str	r0, [r0], -r1
    1140:	00004001 	andeq	r4, r0, r1
    1144:	04012c00 	streq	r2, [r1], #-3072	; 0xc00
    1148:	09010000 	stmdbeq	r1, {}	; <UNPREDICTABLE>
    114c:	00002501 	andeq	r2, r0, r1, lsl #10
    1150:	00857c00 	addeq	r7, r5, r0, lsl #24
    1154:	00007000 	andeq	r7, r0, r0
    1158:	7c9c0100 	ldfvcs	f0, [ip], {0}
    115c:	2d00000b 	stccs	0, cr0, [r0, #-44]	; 0xffffffd4
    1160:	01006370 	tsteq	r0, r0, ror r3
    1164:	002c0109 	eoreq	r0, ip, r9, lsl #2
    1168:	03820000 	orreq	r0, r2, #0
    116c:	722d0000 	eorvc	r0, sp, #0
    1170:	09010030 	stmdbeq	r1, {r4, r5}
    1174:	00005d01 	andeq	r5, r0, r1, lsl #26
    1178:	00040700 	andeq	r0, r4, r0, lsl #14
    117c:	043f2e00 	ldrteq	r2, [pc], #-3584	; 1184 <__code_start__-0x6e7c>
    1180:	0a010000 	beq	41188 <__bss_end__+0x36a80>
    1184:	00005d01 	andeq	r5, r0, r1, lsl #26
    1188:	00043300 	andeq	r3, r4, r0, lsl #6
    118c:	85d02f00 	ldrbhi	r2, [r0, #3840]	; 0xf00
    1190:	0bb60000 	bleq	fed81198 <__bss_end__+0xfed76a90>
    1194:	011b0000 	tsteq	fp, r0
    1198:	00030550 	andeq	r0, r3, r0, asr r5
    119c:	0000009d 	muleq	r0, sp, r0
    11a0:	03812000 	orreq	r2, r1, #0
    11a4:	0b010000 	bleq	411ac <__bss_end__+0x36aa4>
    11a8:	00000091 	muleq	r0, r1, r0
    11ac:	a2e80305 	rscge	r0, r8, #335544320	; 0x14000000
    11b0:	f7200000 			; <UNDEFINED> instruction: 0xf7200000
    11b4:	01000002 	tsteq	r0, r2
    11b8:	00009189 	andeq	r9, r0, r9, lsl #3
    11bc:	ec030500 	cfstr32	mvfx0, [r3], {-0}
    11c0:	300000a2 	andcc	r0, r0, r2, lsr #1
    11c4:	000000fb 	strdeq	r0, [r0], -fp
    11c8:	0025d501 	eoreq	sp, r5, r1, lsl #10
    11cc:	03050000 	movweq	r0, #20480	; 0x5000
    11d0:	0000a2f0 	strdeq	sl, [r0], -r0
    11d4:	00026931 	andeq	r6, r2, r1, lsr r9
    11d8:	321e0400 	andscc	r0, lr, #0, 8
    11dc:	000005bc 			; <UNDEFINED> instruction: 0x000005bc
    11e0:	00252904 	eoreq	r2, r5, r4, lsl #18
    11e4:	0bcc0000 	bleq	ff3011ec <__bss_end__+0xff2f6ae4>
    11e8:	86090000 	strhi	r0, [r9], -r0
    11ec:	33000000 	movwcc	r0, #0
    11f0:	00db3100 	sbcseq	r3, fp, r0, lsl #2
    11f4:	65040000 	strvs	r0, [r4, #-0]
    11f8:	00045b31 	andeq	r5, r4, r1, lsr fp
    11fc:	00360500 	eorseq	r0, r6, r0, lsl #10
    1200:	00000eff 	strdeq	r0, [r0], -pc	; <UNPREDICTABLE>
    1204:	05000004 	streq	r0, [r0, #-4]
    1208:	01040000 	mrseq	r0, (UNDEF: 4)
    120c:	0000004f 	andeq	r0, r0, pc, asr #32
    1210:	00048301 	andeq	r8, r4, r1, lsl #6
    1214:	0001fb00 	andeq	pc, r1, r0, lsl #22
    1218:	00872400 	addeq	r2, r7, r0, lsl #8
    121c:	00078400 	andeq	r8, r7, r0, lsl #8
    1220:	00037000 	andeq	r7, r3, r0
    1224:	05040200 	streq	r0, [r4, #-512]	; 0x200
    1228:	00746e69 	rsbseq	r6, r4, r9, ror #28
    122c:	6c070403 	cfstrsvs	mvf0, [r7], {3}
    1230:	03000001 	movweq	r0, #1
    1234:	00cf0601 	sbceq	r0, pc, r1, lsl #12
    1238:	02030000 	andeq	r0, r3, #0
    123c:	00011305 	andeq	r1, r1, r5, lsl #6
    1240:	05040300 	streq	r0, [r4, #-768]	; 0x300
    1244:	0000019c 	muleq	r0, ip, r1
    1248:	97050803 	strls	r0, [r5, -r3, lsl #16]
    124c:	03000001 	movweq	r0, #1
    1250:	00cd0801 	sbceq	r0, sp, r1, lsl #16
    1254:	02030000 	andeq	r0, r3, #0
    1258:	0000e807 	andeq	lr, r0, r7, lsl #16
    125c:	01e10400 	mvneq	r0, r0, lsl #8
    1260:	34060000 	strcc	r0, [r6], #-0
    1264:	00000068 	andeq	r0, r0, r8, rrx
    1268:	67070403 	strvs	r0, [r7, -r3, lsl #8]
    126c:	03000001 	movweq	r0, #1
    1270:	01620708 	cmneq	r2, r8, lsl #14
    1274:	04030000 	streq	r0, [r3], #-0
    1278:	00018e07 	andeq	r8, r1, r7, lsl #28
    127c:	03040500 	movweq	r0, #17664	; 0x4500
    1280:	00d60801 	sbcseq	r0, r6, r1, lsl #16
    1284:	04060000 	streq	r0, [r6], #-0
    1288:	0000008c 	andeq	r0, r0, ip, lsl #1
    128c:	00007f07 	andeq	r7, r0, r7, lsl #30
    1290:	042c0400 	strteq	r0, [ip], #-1024	; 0x400
    1294:	8a020000 	bhi	8129c <__bss_end__+0x76b94>
    1298:	0000009c 	muleq	r0, ip, r0
    129c:	00a20406 	adceq	r0, r2, r6, lsl #8
    12a0:	b7080000 	strlt	r0, [r8, -r0]
    12a4:	09000000 	stmdbeq	r0, {}	; <UNPREDICTABLE>
    12a8:	000000b7 	strheq	r0, [r0], -r7
    12ac:	00005d09 	andeq	r5, r0, r9, lsl #26
    12b0:	005d0900 	subseq	r0, sp, r0, lsl #18
    12b4:	06000000 	streq	r0, [r0], -r0
    12b8:	00005d04 	andeq	r5, r0, r4, lsl #26
    12bc:	01400a00 	cmpeq	r0, r0, lsl #20
    12c0:	07380000 	ldreq	r0, [r8, -r0]!
    12c4:	00016e0a 	andeq	r6, r1, sl, lsl #28
    12c8:	0a830b00 	beq	fe0c3ed0 <__bss_end__+0xfe0b97c8>
    12cc:	0f070000 	svceq	0x00070000
    12d0:	0000016e 	andeq	r0, r0, lr, ror #2
    12d4:	00410c00 	subeq	r0, r1, r0, lsl #24
    12d8:	01861207 	orreq	r1, r6, r7, lsl #4
    12dc:	0c040000 	stceq	0, cr0, [r4], {-0}
    12e0:	13070042 	movwne	r0, #28738	; 0x7042
    12e4:	0000019b 	muleq	r0, fp, r1
    12e8:	01d20b08 	bicseq	r0, r2, r8, lsl #22
    12ec:	16070000 	strne	r0, [r7], -r0
    12f0:	00000186 	andeq	r0, r0, r6, lsl #3
    12f4:	01db0b0c 	bicseq	r0, fp, ip, lsl #22
    12f8:	18070000 	stmdane	r7, {}	; <UNPREDICTABLE>
    12fc:	0000019b 	muleq	r0, fp, r1
    1300:	01790b10 	cmneq	r9, r0, lsl fp
    1304:	1f070000 	svcne	0x00070000
    1308:	000001a1 	andeq	r0, r0, r1, lsr #3
    130c:	00bc0b14 	adcseq	r0, ip, r4, lsl fp
    1310:	31070000 	mrscc	r0, (UNDEF: 7)
    1314:	000001a1 	andeq	r0, r0, r1, lsr #3
    1318:	00280b18 	eoreq	r0, r8, r8, lsl fp
    131c:	36070000 	strcc	r0, [r7], -r0
    1320:	000001a6 	andeq	r0, r0, r6, lsr #3
    1324:	01b00b1c 	lslseq	r0, ip, fp
    1328:	3a070000 	bcc	1c1330 <__bss_end__+0x1b6c28>
    132c:	000001a6 	andeq	r0, r0, r6, lsr #3
    1330:	01a50b20 			; <UNDEFINED> instruction: 0x01a50b20
    1334:	3f070000 	svccc	0x00070000
    1338:	000001a1 	andeq	r0, r0, r1, lsr #3
    133c:	00160b24 	andseq	r0, r6, r4, lsr #22
    1340:	42070000 	andmi	r0, r7, #0
    1344:	0000002c 	andeq	r0, r0, ip, lsr #32
    1348:	00470b28 	subeq	r0, r7, r8, lsr #22
    134c:	43070000 	movwmi	r0, #28672	; 0x7000
    1350:	0000002c 	andeq	r0, r0, ip, lsr #32
    1354:	012a0b2c 	teqeq	sl, ip, lsr #22
    1358:	46070000 	strmi	r0, [r7], -r0
    135c:	0000002c 	andeq	r0, r0, ip, lsr #32
    1360:	02630b30 	rsbeq	r0, r3, #48, 22	; 0xc000
    1364:	48070000 	stmdami	r7, {}	; <UNPREDICTABLE>
    1368:	000001a6 	andeq	r0, r0, r6, lsr #3
    136c:	04060034 	streq	r0, [r6], #-52	; 0x34
    1370:	00000174 	andeq	r0, r0, r4, ror r1
    1374:	0180080d 	orreq	r0, r0, sp, lsl #16
    1378:	80090000 	andhi	r0, r9, r0
    137c:	00000001 	andeq	r0, r0, r1
    1380:	00bd0406 	adcseq	r0, sp, r6, lsl #8
    1384:	04060000 	streq	r0, [r6], #-0
    1388:	00000175 	andeq	r0, r0, r5, ror r1
    138c:	0000250e 	andeq	r2, r0, lr, lsl #10
    1390:	00019b00 	andeq	r9, r1, r0, lsl #22
    1394:	01800900 	orreq	r0, r0, r0, lsl #18
    1398:	06000000 	streq	r0, [r0], -r0
    139c:	00018c04 	andeq	r8, r1, r4, lsl #24
    13a0:	002c0f00 	eoreq	r0, ip, r0, lsl #30
    13a4:	5d0f0000 	stcpl	0, cr0, [pc, #-0]	; 13ac <__code_start__-0x6c54>
    13a8:	04000000 	streq	r0, [r0], #-0
    13ac:	0000001e 	andeq	r0, r0, lr, lsl r0
    13b0:	00bd4907 	adcseq	r4, sp, r7, lsl #18
    13b4:	78100000 	ldmdavc	r0, {}	; <UNPREDICTABLE>
    13b8:	02000003 	andeq	r0, r0, #3
    13bc:	00005da6 	andeq	r5, r0, r6, lsr #27
    13c0:	01d20300 	bicseq	r0, r2, r0, lsl #6
    13c4:	72110000 	andsvc	r0, r1, #0
    13c8:	02007465 	andeq	r7, r0, #1694498816	; 0x65000000
    13cc:	00005da6 	andeq	r5, r0, r6, lsr #27
    13d0:	27100000 	ldrcs	r0, [r0, -r0]
    13d4:	05000005 	streq	r0, [r0, #-5]
    13d8:	00002507 	andeq	r2, r0, r7, lsl #10
    13dc:	01ee0300 	mvneq	r0, r0, lsl #6
    13e0:	40120000 	andsmi	r0, r2, r0
    13e4:	05000005 	streq	r0, [r0, #-5]
    13e8:	00002c07 	andeq	r2, r0, r7, lsl #24
    13ec:	aa100000 	bge	4013f4 <__bss_end__+0x3f6cec>
    13f0:	03000004 	movweq	r0, #4
    13f4:	00005d26 	andeq	r5, r0, r6, lsr #26
    13f8:	020a0300 	andeq	r0, sl, #0, 6
    13fc:	22130000 	andscs	r0, r3, #0
    1400:	03000005 	movweq	r0, #5
    1404:	00005d27 	andeq	r5, r0, r7, lsr #26
    1408:	c1100000 	tstgt	r0, r0
    140c:	02000002 	andeq	r0, r0, #2
    1410:	00002ca9 	andeq	r2, r0, r9, lsr #25
    1414:	02240300 	eoreq	r0, r4, #0, 6
    1418:	72110000 	andsvc	r0, r1, #0
    141c:	2caa0200 	sfmcs	f0, 4, [sl]
    1420:	00000000 	andeq	r0, r0, r0
    1424:	00046414 	andeq	r6, r4, r4, lsl r4
    1428:	240b0100 	strcs	r0, [fp], #-256	; 0x100
    142c:	ac000087 	stcge	0, cr0, [r0], {135}	; 0x87
    1430:	01000001 	tsteq	r0, r1
    1434:	0004659c 	muleq	r4, ip, r5
    1438:	053b1500 	ldreq	r1, [fp, #-1280]!	; 0x500
    143c:	0b010000 	bleq	41444 <__bss_end__+0x36d3c>
    1440:	000000b7 	strheq	r0, [r0], -r7
    1444:	000004ae 	andeq	r0, r0, lr, lsr #9
    1448:	00637016 	rsbeq	r7, r3, r6, lsl r0
    144c:	005d0b01 	subseq	r0, sp, r1, lsl #22
    1450:	04cf0000 	strbeq	r0, [pc], #0	; 1458 <__code_start__-0x6ba8>
    1454:	b7150000 	ldrlt	r0, [r5, -r0]
    1458:	01000001 	tsteq	r0, r1
    145c:	00005d0b 	andeq	r5, r0, fp, lsl #26
    1460:	0004fb00 	andeq	pc, r4, r0, lsl #22
    1464:	011d1700 	tsteq	sp, r0, lsl #14
    1468:	04750000 	ldrbteq	r0, [r5], #-0
    146c:	03050000 	movweq	r0, #20480	; 0x5000
    1470:	0000a080 	andeq	sl, r0, r0, lsl #1
    1474:	01006318 	tsteq	r0, r8, lsl r3
    1478:	00047a10 	andeq	r7, r4, r0, lsl sl
    147c:	00051c00 	andeq	r1, r5, r0, lsl #24
    1480:	020a1900 	andeq	r1, sl, #0, 18
    1484:	87580000 	ldrbhi	r0, [r8, -r0]
    1488:	00080000 	andeq	r0, r8, r0
    148c:	0d010000 	stceq	0, cr0, [r1, #-0]
    1490:	000002c7 	andeq	r0, r0, r7, asr #5
    1494:	0087581a 	addeq	r5, r7, sl, lsl r8
    1498:	00000800 	andeq	r0, r0, r0, lsl #16
    149c:	021a1b00 	andseq	r1, sl, #0, 22
    14a0:	b61c0000 	ldrlt	r0, [ip], -r0
    14a4:	58000001 	stmdapl	r0, {r0}
    14a8:	04000087 	streq	r0, [r0], #-135	; 0x87
    14ac:	02000000 	andeq	r0, r0, #0
    14b0:	87581aaa 	ldrbhi	r1, [r8, -sl, lsr #21]
    14b4:	00040000 	andeq	r0, r4, r0
    14b8:	c61d0000 	ldrgt	r0, [sp], -r0
    14bc:	2f000001 	svccs	0x00000001
    14c0:	00000005 	andeq	r0, r0, r5
    14c4:	1e000000 	cdpne	0, 0, cr0, cr0, cr0, {0}
    14c8:	00008758 	andeq	r8, r0, r8, asr r7
    14cc:	00000e84 	andeq	r0, r0, r4, lsl #29
    14d0:	000002fc 	strdeq	r0, [r0], -ip
    14d4:	0153011f 	cmpeq	r3, pc, lsl r1
    14d8:	52011f3c 	andpl	r1, r1, #60, 30	; 0xf0
    14dc:	a0800305 	addge	r0, r0, r5, lsl #6
    14e0:	011f0000 	tsteq	pc, r0
    14e4:	9c030551 	cfstr32ls	mvfx0, [r3], {81}	; 0x51
    14e8:	1f00009d 	svcne	0x0000009d
    14ec:	03055001 	movweq	r5, #20481	; 0x5001
    14f0:	00009d7c 	andeq	r9, r0, ip, ror sp
    14f4:	007d021f 	rsbseq	r0, sp, pc, lsl r2
    14f8:	00007502 	andeq	r7, r0, r2, lsl #10
    14fc:	00876c20 	addeq	r6, r7, r0, lsr #24
    1500:	000e9a00 	andeq	r9, lr, r0, lsl #20
    1504:	87801e00 	strhi	r1, [r0, r0, lsl #28]
    1508:	0e840000 	cdpeq	0, 8, cr0, cr4, cr0, {0}
    150c:	03330000 	teqeq	r3, #0
    1510:	011f0000 	tsteq	pc, r0
    1514:	1f3e0153 	svcne	0x003e0153
    1518:	03055201 	movweq	r5, #20993	; 0x5201
    151c:	0000a080 	andeq	sl, r0, r0, lsl #1
    1520:	0551011f 	ldrbeq	r0, [r1, #-287]	; 0x11f
    1524:	009d9c03 	addseq	r9, sp, r3, lsl #24
    1528:	50011f00 	andpl	r1, r1, r0, lsl #30
    152c:	9c880305 	stcls	3, cr0, [r8], {5}
    1530:	20000000 	andcs	r0, r0, r0
    1534:	00008784 	andeq	r8, r0, r4, lsl #15
    1538:	00000ea1 	andeq	r0, r0, r1, lsr #29
    153c:	0087ac1e 	addeq	sl, r7, lr, lsl ip
    1540:	000e8400 	andeq	r8, lr, r0, lsl #8
    1544:	00035900 	andeq	r5, r3, r0, lsl #18
    1548:	51011f00 	tstpl	r1, r0, lsl #30
    154c:	1f007502 	svcne	0x00007502
    1550:	03055001 	movweq	r5, #20481	; 0x5001
    1554:	00009db0 			; <UNDEFINED> instruction: 0x00009db0
    1558:	87b82100 	ldrhi	r2, [r8, r0, lsl #2]!
    155c:	03690000 	cmneq	r9, #0
    1560:	011f0000 	tsteq	pc, r0
    1564:	00740250 	rsbseq	r0, r4, r0, asr r2
    1568:	87c81e00 	strbhi	r1, [r8, r0, lsl #28]
    156c:	0ea80000 	cdpeq	0, 10, cr0, cr8, cr0, {0}
    1570:	037d0000 	cmneq	sp, #0
    1574:	011f0000 	tsteq	pc, r0
    1578:	00750250 	rsbseq	r0, r5, r0, asr r2
    157c:	87e81e00 	strbhi	r1, [r8, r0, lsl #28]!
    1580:	0e840000 	cdpeq	0, 8, cr0, cr4, cr0, {0}
    1584:	03940000 	orrseq	r0, r4, #0
    1588:	011f0000 	tsteq	pc, r0
    158c:	d0030550 	andle	r0, r3, r0, asr r5
    1590:	0000009d 	muleq	r0, sp, r0
    1594:	00880c20 	addeq	r0, r8, r0, lsr #24
    1598:	000e9a00 	andeq	r9, lr, r0, lsl #20
    159c:	88281e00 	stmdahi	r8!, {r9, sl, fp, ip}
    15a0:	0e840000 	cdpeq	0, 8, cr0, cr4, cr0, {0}
    15a4:	03d60000 	bicseq	r0, r6, #0
    15a8:	011f0000 	tsteq	pc, r0
    15ac:	23080253 	movwcs	r0, #33363	; 0x8253
    15b0:	0552011f 	ldrbeq	r0, [r2, #-287]	; 0x11f
    15b4:	00a08003 	adceq	r8, r0, r3
    15b8:	51011f00 	tstpl	r1, r0, lsl #30
    15bc:	9d9c0305 	ldcls	3, cr0, [ip, #20]
    15c0:	011f0000 	tsteq	pc, r0
    15c4:	f8030550 			; <UNDEFINED> instruction: 0xf8030550
    15c8:	1f00009a 	svcne	0x0000009a
    15cc:	05007d02 	streq	r7, [r0, #-3330]	; 0xd02
    15d0:	009df803 	addseq	pc, sp, r3, lsl #16
    15d4:	2c200000 	stccs	0, cr0, [r0], #-0
    15d8:	a1000088 	smlabbge	r0, r8, r0, r0
    15dc:	1e00000e 	cdpne	0, 0, cr0, cr0, cr14, {0}
    15e0:	00008860 	andeq	r8, r0, r0, ror #16
    15e4:	00000e84 	andeq	r0, r0, r4, lsl #29
    15e8:	00000415 	andeq	r0, r0, r5, lsl r4
    15ec:	0253011f 	subseq	r0, r3, #-1073741817	; 0xc0000007
    15f0:	011f2608 	tsteq	pc, r8, lsl #12
    15f4:	80030552 	andhi	r0, r3, r2, asr r5
    15f8:	1f0000a0 	svcne	0x000000a0
    15fc:	03055101 	movweq	r5, #20737	; 0x5101
    1600:	00009d9c 	muleq	r0, ip, sp
    1604:	0550011f 	ldrbeq	r0, [r0, #-287]	; 0x11f
    1608:	009e1c03 	addseq	r1, lr, r3, lsl #24
    160c:	7d021f00 	stcvc	15, cr1, [r2, #-0]
    1610:	00750200 	rsbseq	r0, r5, r0, lsl #4
    1614:	886c1e00 	stmdahi	ip!, {r9, sl, fp, ip}^
    1618:	0eb90000 	cdpeq	0, 11, cr0, cr9, cr0, {0}
    161c:	04320000 	ldrteq	r0, [r2], #-0
    1620:	011f0000 	tsteq	pc, r0
    1624:	24030551 	strcs	r0, [r3], #-1361	; 0x551
    1628:	1f000087 	svcne	0x00000087
    162c:	75025001 	strvc	r5, [r2, #-1]
    1630:	94220000 	strtls	r0, [r2], #-0
    1634:	84000088 	strhi	r0, [r0], #-136	; 0x88
    1638:	1f00000e 	svcne	0x0000000e
    163c:	08025301 	stmdaeq	r2, {r0, r8, r9, ip, lr}
    1640:	52011f28 	andpl	r1, r1, #40, 30	; 0xa0
    1644:	a0800305 	addge	r0, r0, r5, lsl #6
    1648:	011f0000 	tsteq	pc, r0
    164c:	9c030551 	cfstr32ls	mvfx0, [r3], {81}	; 0x51
    1650:	1f00009d 	svcne	0x0000009d
    1654:	03055001 	movweq	r5, #20481	; 0x5001
    1658:	00009e44 	andeq	r9, r0, r4, asr #28
    165c:	007d021f 	rsbseq	r0, sp, pc, lsl r2
    1660:	00007502 	andeq	r7, r0, r2, lsl #10
    1664:	007f2300 	rsbseq	r2, pc, r0, lsl #6
    1668:	04750000 	ldrbteq	r0, [r5], #-0
    166c:	76240000 	strtvc	r0, [r4], -r0
    1670:	13000000 	movwne	r0, #0
    1674:	04650700 	strbteq	r0, [r5], #-1792	; 0x700
    1678:	04060000 	streq	r0, [r6], #-0
    167c:	000001ab 	andeq	r0, r0, fp, lsr #3
    1680:	0004ec10 	andeq	lr, r4, r0, lsl ip
    1684:	5d140500 	cfldr32pl	mvfx0, [r4, #-0]
    1688:	03000000 	movweq	r0, #0
    168c:	000004b4 			; <UNDEFINED> instruction: 0x000004b4
    1690:	00052212 	andeq	r2, r5, r2, lsl r2
    1694:	5d140500 	cfldr32pl	mvfx0, [r4, #-0]
    1698:	12000000 	andne	r0, r0, #0
    169c:	00000540 	andeq	r0, r0, r0, asr #10
    16a0:	002c1405 	eoreq	r1, ip, r5, lsl #8
    16a4:	1d250000 	stcne	0, cr0, [r5, #-0]
    16a8:	c4000001 	strgt	r0, [r0], #-1
    16ac:	ec000004 	stc	0, cr0, [r0], {4}
    16b0:	00000004 	andeq	r0, r0, r4
    16b4:	00007f23 	andeq	r7, r0, r3, lsr #30
    16b8:	0004c400 	andeq	ip, r4, r0, lsl #8
    16bc:	00762400 	rsbseq	r2, r6, r0, lsl #8
    16c0:	00080000 	andeq	r0, r8, r0
    16c4:	0004b407 	andeq	fp, r4, r7, lsl #8
    16c8:	04c81000 	strbeq	r1, [r8], #0
    16cc:	25040000 	strcs	r0, [r4, #-0]
    16d0:	0000005d 	andeq	r0, r0, sp, asr r0
    16d4:	00051803 	andeq	r1, r5, r3, lsl #16
    16d8:	00782600 	rsbseq	r2, r8, r0, lsl #12
    16dc:	005d2504 	subseq	r2, sp, r4, lsl #10
    16e0:	6c260000 	stcvs	0, cr0, [r6], #-0
    16e4:	25040062 	strcs	r0, [r4, #-98]	; 0x62
    16e8:	0000002c 	andeq	r0, r0, ip, lsr #32
    16ec:	00627526 	rsbeq	r7, r2, r6, lsr #10
    16f0:	002c2504 	eoreq	r2, ip, r4, lsl #10
    16f4:	1d250000 	stcne	0, cr0, [r5, #-0]
    16f8:	18000001 	stmdane	r0, {r0}
    16fc:	c8000005 	stmdagt	r0, {r0, r2}
    1700:	11000004 	tstne	r0, r4
    1704:	2804006e 	stmdacs	r4, {r1, r2, r3, r5, r6}
    1708:	0000002c 	andeq	r0, r0, ip, lsr #32
    170c:	0004c313 	andeq	ip, r4, r3, lsl r3
    1710:	2c2a0400 	cfstrscs	mvf0, [sl], #-0
    1714:	00000000 	andeq	r0, r0, r0
    1718:	0004b407 	andeq	fp, r4, r7, lsl #8
    171c:	04e31000 	strbteq	r1, [r3], #0
    1720:	18050000 	stmdane	r5, {}	; <UNPREDICTABLE>
    1724:	00000086 	andeq	r0, r0, r6, lsl #1
    1728:	00054603 	andeq	r4, r5, r3, lsl #12
    172c:	05221200 	streq	r1, [r2, #-512]!	; 0x200
    1730:	18050000 	stmdane	r5, {}	; <UNPREDICTABLE>
    1734:	0000005d 	andeq	r0, r0, sp, asr r0
    1738:	00011d25 	andeq	r1, r1, r5, lsr #26
    173c:	00054600 	andeq	r4, r5, r0, lsl #12
    1740:	0004e300 	andeq	lr, r4, r0, lsl #6
    1744:	b4070000 	strlt	r0, [r7], #-0
    1748:	10000004 	andne	r0, r0, r4
    174c:	00000532 	andeq	r0, r0, r2, lsr r5
    1750:	005d0f05 	subseq	r0, sp, r5, lsl #30
    1754:	7f030000 	svcvc	0x00030000
    1758:	12000005 	andne	r0, r0, #5
    175c:	00000522 	andeq	r0, r0, r2, lsr #10
    1760:	005d0f05 	subseq	r0, sp, r5, lsl #30
    1764:	40130000 	andsmi	r0, r3, r0
    1768:	05000005 	streq	r0, [r0, #-5]
    176c:	00002c10 	andeq	r2, r0, r0, lsl ip
    1770:	011d2500 	tsteq	sp, r0, lsl #10
    1774:	057f0000 	ldrbeq	r0, [pc, #-0]!	; 177c <__code_start__-0x6884>
    1778:	05320000 	ldreq	r0, [r2, #-0]!
    177c:	07000000 	streq	r0, [r0, -r0]
    1780:	000004b4 			; <UNDEFINED> instruction: 0x000004b4
    1784:	00050f10 	andeq	r0, r5, r0, lsl pc
    1788:	5d1c0400 	cfldrspl	mvf0, [ip, #-0]
    178c:	03000000 	movweq	r0, #0
    1790:	000005c8 	andeq	r0, r0, r8, asr #11
    1794:	04007826 	streq	r7, [r0], #-2086	; 0x826
    1798:	00005d1c 	andeq	r5, r0, ip, lsl sp
    179c:	626c2600 	rsbvs	r2, ip, #0, 12
    17a0:	2c1c0400 	cfldrscs	mvf0, [ip], {-0}
    17a4:	26000000 	strcs	r0, [r0], -r0
    17a8:	04006275 	streq	r6, [r0], #-629	; 0x275
    17ac:	00002c1c 	andeq	r2, r0, ip, lsl ip
    17b0:	011d2500 	tsteq	sp, r0, lsl #10
    17b4:	05c80000 	strbeq	r0, [r8]
    17b8:	050f0000 	streq	r0, [pc, #-0]	; 17c0 <__code_start__-0x6840>
    17bc:	6e110000 	cdpvs	0, 1, cr0, cr1, cr0, {0}
    17c0:	2c1f0400 	cfldrscs	mvf0, [pc], {-0}
    17c4:	00000000 	andeq	r0, r0, r0
    17c8:	0004b407 	andeq	fp, r4, r7, lsl #8
    17cc:	04d12700 	ldrbeq	r2, [r1], #1792	; 0x700
    17d0:	2b010000 	blcs	417d8 <__bss_end__+0x370d0>
    17d4:	0000002c 	andeq	r0, r0, ip, lsr #32
    17d8:	000088d0 	ldrdeq	r8, [r0], -r0
    17dc:	000004e0 	andeq	r0, r0, r0, ror #9
    17e0:	0ce09c01 	stcleq	12, cr9, [r0], #4
    17e4:	63160000 	tstvs	r6, #0
    17e8:	7a2b0100 	bvc	ac1bf0 <__bss_end__+0xab74e8>
    17ec:	42000004 	andmi	r0, r0, #4
    17f0:	28000005 	stmdacs	r0, {r0, r2}
    17f4:	00000506 	andeq	r0, r0, r6, lsl #10
    17f8:	005d2c01 	subseq	r2, sp, r1, lsl #24
    17fc:	58010000 	stmdapl	r1, {}	; <UNPREDICTABLE>
    1800:	00051813 	andeq	r1, r5, r3, lsl r8
    1804:	5d2d0100 	stfpls	f0, [sp, #-0]
    1808:	17000000 	strne	r0, [r0, -r0]
    180c:	0000011d 	andeq	r0, r0, sp, lsl r1
    1810:	00000cf0 	strdeq	r0, [r0], -r0	; <UNPREDICTABLE>
    1814:	a06c0305 	rsbge	r0, ip, r5, lsl #6
    1818:	ee190000 	cdp	0, 1, cr0, cr9, cr0, {0}
    181c:	dc000001 	stcle	0, cr0, [r0], {1}
    1820:	04000088 	streq	r0, [r0], #-136	; 0x88
    1824:	01000000 	mrseq	r0, (UNDEF: 0)
    1828:	0006412c 	andeq	r4, r6, ip, lsr #2
    182c:	88dc1a00 	ldmhi	ip, {r9, fp, ip}^
    1830:	00040000 	andeq	r0, r4, r0
    1834:	fe1d0000 	cdp2	0, 1, cr0, cr13, cr0, {0}
    1838:	6e000001 	cdpvs	0, 0, cr0, cr0, cr1, {0}
    183c:	00000005 	andeq	r0, r0, r5
    1840:	04801900 	streq	r1, [r0], #2304	; 0x900
    1844:	88e00000 	stmiahi	r0!, {}^	; <UNPREDICTABLE>
    1848:	00080000 	andeq	r0, r8, r0
    184c:	2d010000 	stccs	0, cr0, [r1, #-0]
    1850:	000006bf 			; <UNDEFINED> instruction: 0x000006bf
    1854:	00049b29 	andeq	r9, r4, r9, lsr #22
    1858:	902a1000 	eorls	r1, sl, r0
    185c:	6e000004 	cdpvs	0, 0, cr0, cr0, cr4, {0}
    1860:	1a000005 	bne	187c <__code_start__-0x6784>
    1864:	000088e0 	andeq	r8, r0, r0, ror #17
    1868:	00000008 	andeq	r0, r0, r8
    186c:	0004a62b 	andeq	sl, r4, fp, lsr #12
    1870:	94030500 	strls	r0, [r3], #-1280	; 0x500
    1874:	1c0000a0 	stcne	0, cr0, [r0], {160}	; 0xa0
    1878:	000004c9 	andeq	r0, r0, r9, asr #9
    187c:	000088e0 	andeq	r8, r0, r0, ror #17
    1880:	00000004 	andeq	r0, r0, r4
    1884:	ec291605 	stc	6, cr1, [r9], #-20	; 0xffffffec
    1888:	04000004 	streq	r0, [r0], #-4
    188c:	0004e229 	andeq	lr, r4, r9, lsr #4
    1890:	d92a0000 	stmdble	sl!, {}	; <UNPREDICTABLE>
    1894:	6e000004 	cdpvs	0, 0, cr0, cr0, cr4, {0}
    1898:	1a000005 	bne	18b4 <__code_start__-0x674c>
    189c:	000088e0 	andeq	r8, r0, r0, ror #17
    18a0:	00000004 	andeq	r0, r0, r4
    18a4:	0005032c 	andeq	r0, r5, ip, lsr #6
    18a8:	0c2c0500 	cfstr32eq	mvfx0, [ip], #-0
    18ac:	1f000005 	svcne	0x00000005
    18b0:	0004f62b 	andeq	pc, r4, fp, lsr #12
    18b4:	a0030500 	andge	r0, r3, r0, lsl #10
    18b8:	000000a0 	andeq	r0, r0, r0, lsr #1
    18bc:	19000000 	stmdbne	r0, {}	; <UNPREDICTABLE>
    18c0:	0000051d 	andeq	r0, r0, sp, lsl r5
    18c4:	000089e4 	andeq	r8, r0, r4, ror #19
    18c8:	00000110 	andeq	r0, r0, r0, lsl r1
    18cc:	08175301 	ldmdaeq	r7, {r0, r8, r9, ip, lr}
    18d0:	2d2a0000 	stccs	0, cr0, [sl, #-0]
    18d4:	81000005 	tsthi	r0, r5
    18d8:	1a000005 	bne	18f4 <__code_start__-0x670c>
    18dc:	000089e4 	andeq	r8, r0, r4, ror #19
    18e0:	00000110 	andeq	r0, r0, r0, lsl r1
    18e4:	0005382b 	andeq	r3, r5, fp, lsr #16
    18e8:	ac030500 	cfstr32ge	mvfx0, [r3], {-0}
    18ec:	190000a0 	stmdbne	r0, {r5, r7}
    18f0:	0000054b 	andeq	r0, r0, fp, asr #10
    18f4:	000089e4 	andeq	r8, r0, r4, ror #19
    18f8:	0000006c 	andeq	r0, r0, ip, rrx
    18fc:	07cd1905 	strbeq	r1, [sp, r5, lsl #18]
    1900:	5b2a0000 	blpl	a81908 <__bss_end__+0xa77200>
    1904:	81000005 	tsthi	r0, r5
    1908:	1a000005 	bne	1924 <__code_start__-0x66dc>
    190c:	000089e4 	andeq	r8, r0, r4, ror #19
    1910:	0000006c 	andeq	r0, r0, ip, rrx
    1914:	0005661b 	andeq	r6, r5, fp, lsl r6
    1918:	05712b00 	ldrbeq	r2, [r1, #-2816]!	; 0xb00
    191c:	03050000 	movweq	r0, #20480	; 0x5000
    1920:	0000a0b8 	strheq	sl, [r0], -r8
    1924:	00058419 	andeq	r8, r5, r9, lsl r4
    1928:	0089e400 	addeq	lr, r9, r0, lsl #8
    192c:	00000400 	andeq	r0, r0, r0, lsl #8
    1930:	68100500 	ldmdavs	r0, {r8, sl}
    1934:	29000007 	stmdbcs	r0, {r0, r1, r2}
    1938:	000005a7 	andeq	r0, r0, r7, lsr #11
    193c:	059d2904 	ldreq	r2, [sp, #2308]	; 0x904
    1940:	2a000000 	bcs	1948 <__code_start__-0x66b8>
    1944:	00000594 	muleq	r0, r4, r5
    1948:	00000581 	andeq	r0, r0, r1, lsl #11
    194c:	0089e41a 	addeq	lr, r9, sl, lsl r4
    1950:	00000400 	andeq	r0, r0, r0, lsl #8
    1954:	05be2c00 	ldreq	r2, [lr, #3072]!	; 0xc00
    1958:	2b050000 	blcs	141960 <__bss_end__+0x137258>
    195c:	000005b1 			; <UNDEFINED> instruction: 0x000005b1
    1960:	a0c40305 	sbcge	r0, r4, r5, lsl #6
    1964:	00000000 	andeq	r0, r0, r0
    1968:	0001d219 	andeq	sp, r1, r9, lsl r2
    196c:	0089e800 	addeq	lr, r9, r0, lsl #16
    1970:	00003c00 	andeq	r3, r0, r0, lsl #24
    1974:	81110500 	tsthi	r1, r0, lsl #10
    1978:	2d000007 	stccs	0, cr0, [r0, #-28]	; 0xffffffe4
    197c:	000001e2 	andeq	r0, r0, r2, ror #3
    1980:	8a302000 	bhi	c09988 <__bss_end__+0xbff280>
    1984:	0e9a0000 	cdpeq	0, 9, cr0, cr10, cr0, {0}
    1988:	4c1e0000 	ldcmi	0, cr0, [lr], {-0}
    198c:	8400008a 	strhi	r0, [r0], #-138	; 0x8a
    1990:	c200000e 	andgt	r0, r0, #14
    1994:	1f000007 	svcne	0x00000007
    1998:	41015301 	tstmi	r1, r1, lsl #6
    199c:	0552011f 	ldrbeq	r0, [r2, #-287]	; 0x11f
    19a0:	00a0b803 	adceq	fp, r0, r3, lsl #16
    19a4:	51011f00 	tstpl	r1, r0, lsl #30
    19a8:	9f780305 	svcls	0x00780305
    19ac:	011f0000 	tsteq	pc, r0
    19b0:	f8030550 			; <UNDEFINED> instruction: 0xf8030550
    19b4:	1f00009a 	svcne	0x0000009a
    19b8:	05007d02 	streq	r7, [r0, #-3330]	; 0xd02
    19bc:	009f8403 	addseq	r8, pc, r3, lsl #8
    19c0:	50200000 	eorpl	r0, r0, r0
    19c4:	a100008a 	smlabbge	r0, sl, r0, r0
    19c8:	0000000e 	andeq	r0, r0, lr
    19cc:	8acc2000 	bhi	ff3099d4 <__bss_end__+0xff2ff2cc>
    19d0:	0e9a0000 	cdpeq	0, 9, cr0, cr10, cr0, {0}
    19d4:	e41e0000 	ldr	r0, [lr], #-0
    19d8:	8400008a 	strhi	r0, [r0], #-138	; 0x8a
    19dc:	0c00000e 	stceq	0, cr0, [r0], {14}
    19e0:	1f000008 	svcne	0x00000008
    19e4:	08025301 	stmdaeq	r2, {r0, r8, r9, ip, lr}
    19e8:	52011f21 	andpl	r1, r1, #33, 30	; 0x84
    19ec:	a0ac0305 	adcge	r0, ip, r5, lsl #6
    19f0:	011f0000 	tsteq	pc, r0
    19f4:	78030551 	stmdavc	r3, {r0, r4, r6, r8, sl}
    19f8:	1f00009f 	svcne	0x0000009f
    19fc:	03055001 	movweq	r5, #20481	; 0x5001
    1a00:	00009f98 	muleq	r0, r8, pc	; <UNPREDICTABLE>
    1a04:	007d021f 	rsbseq	r0, sp, pc, lsl r2
    1a08:	00007802 	andeq	r7, r0, r2, lsl #16
    1a0c:	008ae820 	addeq	lr, sl, r0, lsr #16
    1a10:	000ea100 	andeq	sl, lr, r0, lsl #2
    1a14:	19000000 	stmdbne	r0, {}	; <UNPREDICTABLE>
    1a18:	000001ee 	andeq	r0, r0, lr, ror #3
    1a1c:	00008b00 	andeq	r8, r0, r0, lsl #22
    1a20:	00000004 	andeq	r0, r0, r4
    1a24:	083e5401 	ldmdaeq	lr!, {r0, sl, ip, lr}
    1a28:	001a0000 	andseq	r0, sl, r0
    1a2c:	0400008b 	streq	r0, [r0], #-139	; 0x8b
    1a30:	1d000000 	stcne	0, cr0, [r0, #-0]
    1a34:	000001fe 	strdeq	r0, [r0], -lr
    1a38:	00000594 	muleq	r0, r4, r5
    1a3c:	1d190000 	ldcne	0, cr0, [r9, #-0]
    1a40:	04000005 	streq	r0, [r0], #-5
    1a44:	1000008b 	andne	r0, r0, fp, lsl #1
    1a48:	01000001 	tsteq	r0, r1
    1a4c:	00099654 	andeq	r9, r9, r4, asr r6
    1a50:	052d2a00 	streq	r2, [sp, #-2560]!	; 0xa00
    1a54:	05940000 	ldreq	r0, [r4]
    1a58:	041a0000 	ldreq	r0, [sl], #-0
    1a5c:	1000008b 	andne	r0, r0, fp, lsl #1
    1a60:	2b000001 	blcs	1a6c <__code_start__-0x6594>
    1a64:	00000538 	andeq	r0, r0, r8, lsr r5
    1a68:	a0ac0305 	adcge	r0, ip, r5, lsl #6
    1a6c:	4b190000 	blmi	641a74 <__bss_end__+0x63736c>
    1a70:	04000005 	streq	r0, [r0], #-5
    1a74:	6c00008b 	stcvs	0, cr0, [r0], {139}	; 0x8b
    1a78:	05000000 	streq	r0, [r0, #-0]
    1a7c:	00094c19 	andeq	r4, r9, r9, lsl ip
    1a80:	055b2a00 	ldrbeq	r2, [fp, #-2560]	; 0xa00
    1a84:	05940000 	ldreq	r0, [r4]
    1a88:	041a0000 	ldreq	r0, [sl], #-0
    1a8c:	6c00008b 	stcvs	0, cr0, [r0], {139}	; 0x8b
    1a90:	1b000000 	blne	1a98 <__code_start__-0x6568>
    1a94:	00000566 	andeq	r0, r0, r6, ror #10
    1a98:	0005712b 	andeq	r7, r5, fp, lsr #2
    1a9c:	b8030500 	stmdalt	r3, {r8, sl}
    1aa0:	190000a0 	stmdbne	r0, {r5, r7}
    1aa4:	00000584 	andeq	r0, r0, r4, lsl #11
    1aa8:	00008b04 	andeq	r8, r0, r4, lsl #22
    1aac:	00000004 	andeq	r0, r0, r4
    1ab0:	08e71005 	stmiaeq	r7!, {r0, r2, ip}^
    1ab4:	a7290000 	strge	r0, [r9, -r0]!
    1ab8:	04000005 	streq	r0, [r0], #-5
    1abc:	00059d29 	andeq	r9, r5, r9, lsr #26
    1ac0:	942a0000 	strtls	r0, [sl], #-0
    1ac4:	94000005 	strls	r0, [r0], #-5
    1ac8:	1a000005 	bne	1ae4 <__code_start__-0x651c>
    1acc:	00008b04 	andeq	r8, r0, r4, lsl #22
    1ad0:	00000004 	andeq	r0, r0, r4
    1ad4:	0005be2c 	andeq	fp, r5, ip, lsr #28
    1ad8:	b12b0500 	teqlt	fp, r0, lsl #10
    1adc:	05000005 	streq	r0, [r0, #-5]
    1ae0:	00a0c403 	adceq	ip, r0, r3, lsl #8
    1ae4:	19000000 	stmdbne	r0, {}	; <UNPREDICTABLE>
    1ae8:	000001d2 	ldrdeq	r0, [r0], -r2
    1aec:	00008b08 	andeq	r8, r0, r8, lsl #22
    1af0:	0000003c 	andeq	r0, r0, ip, lsr r0
    1af4:	09001105 	stmdbeq	r0, {r0, r2, r8, ip}
    1af8:	e22d0000 	eor	r0, sp, #0
    1afc:	00000001 	andeq	r0, r0, r1
    1b00:	008b5020 	addeq	r5, fp, r0, lsr #32
    1b04:	000e9a00 	andeq	r9, lr, r0, lsl #20
    1b08:	8b6c1e00 	blhi	1b09310 <__bss_end__+0x1afec08>
    1b0c:	0e840000 	cdpeq	0, 8, cr0, cr4, cr0, {0}
    1b10:	09410000 	stmdbeq	r1, {}^	; <UNPREDICTABLE>
    1b14:	011f0000 	tsteq	pc, r0
    1b18:	1f410153 	svcne	0x00410153
    1b1c:	03055201 	movweq	r5, #20993	; 0x5201
    1b20:	0000a0b8 	strheq	sl, [r0], -r8
    1b24:	0551011f 	ldrbeq	r0, [r1, #-287]	; 0x11f
    1b28:	009f7803 	addseq	r7, pc, r3, lsl #16
    1b2c:	50011f00 	andpl	r1, r1, r0, lsl #30
    1b30:	9af80305 	bls	ffe0274c <__bss_end__+0xffdf8044>
    1b34:	021f0000 	andseq	r0, pc, #0
    1b38:	0305007d 	movweq	r0, #20605	; 0x507d
    1b3c:	00009f84 	andeq	r9, r0, r4, lsl #31
    1b40:	8b702000 	blhi	1c09b48 <__bss_end__+0x1bff440>
    1b44:	0ea10000 	cdpeq	0, 10, cr0, cr1, cr0, {0}
    1b48:	00000000 	andeq	r0, r0, r0
    1b4c:	008bec20 	addeq	lr, fp, r0, lsr #24
    1b50:	000e9a00 	andeq	r9, lr, r0, lsl #20
    1b54:	8c041e00 	stchi	14, cr1, [r4], {-0}
    1b58:	0e840000 	cdpeq	0, 8, cr0, cr4, cr0, {0}
    1b5c:	098b0000 	stmibeq	fp, {}	; <UNPREDICTABLE>
    1b60:	011f0000 	tsteq	pc, r0
    1b64:	21080253 	tstcs	r8, r3, asr r2
    1b68:	0552011f 	ldrbeq	r0, [r2, #-287]	; 0x11f
    1b6c:	00a0ac03 	adceq	sl, r0, r3, lsl #24
    1b70:	51011f00 	tstpl	r1, r0, lsl #30
    1b74:	9f780305 	svcls	0x00780305
    1b78:	011f0000 	tsteq	pc, r0
    1b7c:	98030550 	stmdals	r3, {r4, r6, r8, sl}
    1b80:	1f00009f 	svcne	0x0000009f
    1b84:	02007d02 	andeq	r7, r0, #2, 26	; 0x80
    1b88:	20000075 	andcs	r0, r0, r5, ror r0
    1b8c:	00008c08 	andeq	r8, r0, r8, lsl #24
    1b90:	00000ea1 	andeq	r0, r0, r1, lsr #29
    1b94:	ee190000 	cdp	0, 1, cr0, cr9, cr0, {0}
    1b98:	14000001 	strne	r0, [r0], #-1
    1b9c:	0400008c 	streq	r0, [r0], #-140	; 0x8c
    1ba0:	01000000 	mrseq	r0, (UNDEF: 0)
    1ba4:	0009b954 	andeq	fp, r9, r4, asr r9
    1ba8:	8c141a00 	ldchi	10, cr1, [r4], {-0}
    1bac:	00040000 	andeq	r0, r4, r0
    1bb0:	fe1b0000 	cdp2	0, 1, cr0, cr11, cr0, {0}
    1bb4:	00000001 	andeq	r0, r0, r1
    1bb8:	054b1900 	strbeq	r1, [fp, #-2304]	; 0x900
    1bbc:	8c280000 	stchi	0, cr0, [r8], #-0
    1bc0:	006c0000 	rsbeq	r0, ip, r0
    1bc4:	58010000 	stmdapl	r1, {}	; <UNPREDICTABLE>
    1bc8:	00000a97 	muleq	r0, r7, sl
    1bcc:	00055b2a 	andeq	r5, r5, sl, lsr #22
    1bd0:	0005a700 	andeq	sl, r5, r0, lsl #14
    1bd4:	8c281a00 	stchi	10, cr1, [r8], #-0
    1bd8:	006c0000 	rsbeq	r0, ip, r0
    1bdc:	661b0000 	ldrvs	r0, [fp], -r0
    1be0:	2b000005 	blcs	1bfc <__code_start__-0x6404>
    1be4:	00000571 	andeq	r0, r0, r1, ror r5
    1be8:	a0b80305 	adcsge	r0, r8, r5, lsl #6
    1bec:	84190000 	ldrhi	r0, [r9], #-0
    1bf0:	28000005 	stmdacs	r0, {r0, r2}
    1bf4:	0400008c 	streq	r0, [r0], #-140	; 0x8c
    1bf8:	05000000 	streq	r0, [r0, #-0]
    1bfc:	000a3210 	andeq	r3, sl, r0, lsl r2
    1c00:	05a72900 	streq	r2, [r7, #2304]!	; 0x900
    1c04:	29040000 	stmdbcs	r4, {}	; <UNPREDICTABLE>
    1c08:	0000059d 	muleq	r0, sp, r5
    1c0c:	05942a00 	ldreq	r2, [r4, #2560]	; 0xa00
    1c10:	05a70000 	streq	r0, [r7, #0]!
    1c14:	281a0000 	ldmdacs	sl, {}	; <UNPREDICTABLE>
    1c18:	0400008c 	streq	r0, [r0], #-140	; 0x8c
    1c1c:	2c000000 	stccs	0, cr0, [r0], {-0}
    1c20:	000005be 			; <UNDEFINED> instruction: 0x000005be
    1c24:	05b12b05 	ldreq	r2, [r1, #2821]!	; 0xb05
    1c28:	03050000 	movweq	r0, #20480	; 0x5000
    1c2c:	0000a0c4 	andeq	sl, r0, r4, asr #1
    1c30:	d2190000 	andsle	r0, r9, #0
    1c34:	2c000001 	stccs	0, cr0, [r0], {1}
    1c38:	3c00008c 	stccc	0, cr0, [r0], {140}	; 0x8c
    1c3c:	05000000 	streq	r0, [r0, #-0]
    1c40:	000a4b11 	andeq	r4, sl, r1, lsl fp
    1c44:	01e22d00 	mvneq	r2, r0, lsl #26
    1c48:	20000000 	andcs	r0, r0, r0
    1c4c:	00008c74 	andeq	r8, r0, r4, ror ip
    1c50:	00000e9a 	muleq	r0, sl, lr
    1c54:	008c901e 	addeq	r9, ip, lr, lsl r0
    1c58:	000e8400 	andeq	r8, lr, r0, lsl #8
    1c5c:	000a8c00 	andeq	r8, sl, r0, lsl #24
    1c60:	53011f00 	movwpl	r1, #7936	; 0x1f00
    1c64:	011f4101 	tsteq	pc, r1, lsl #2
    1c68:	b8030552 	stmdalt	r3, {r1, r4, r6, r8, sl}
    1c6c:	1f0000a0 	svcne	0x000000a0
    1c70:	03055101 	movweq	r5, #20737	; 0x5101
    1c74:	00009f78 	andeq	r9, r0, r8, ror pc
    1c78:	0550011f 	ldrbeq	r0, [r0, #-287]	; 0x11f
    1c7c:	009af803 	addseq	pc, sl, r3, lsl #16
    1c80:	7d021f00 	stcvc	15, cr1, [r2, #-0]
    1c84:	84030500 	strhi	r0, [r3], #-1280	; 0x500
    1c88:	0000009f 	muleq	r0, pc, r0	; <UNPREDICTABLE>
    1c8c:	008c9420 	addeq	r9, ip, r0, lsr #8
    1c90:	000ea100 	andeq	sl, lr, r0, lsl #2
    1c94:	19000000 	stmdbne	r0, {}	; <UNPREDICTABLE>
    1c98:	000001ee 	andeq	r0, r0, lr, ror #3
    1c9c:	00008c94 	muleq	r0, r4, ip
    1ca0:	00000004 	andeq	r0, r0, r4
    1ca4:	0abe5801 	beq	fef97cb0 <__bss_end__+0xfef8d5a8>
    1ca8:	941a0000 	ldrls	r0, [sl], #-0
    1cac:	0400008c 	streq	r0, [r0], #-140	; 0x8c
    1cb0:	1d000000 	stcne	0, cr0, [r0, #-0]
    1cb4:	000001fe 	strdeq	r0, [r0], -lr
    1cb8:	000005ba 			; <UNDEFINED> instruction: 0x000005ba
    1cbc:	4b190000 	blmi	641cc4 <__bss_end__+0x6375bc>
    1cc0:	98000005 	stmdals	r0, {r0, r2}
    1cc4:	6c00008c 	stcvs	0, cr0, [r0], {140}	; 0x8c
    1cc8:	01000000 	mrseq	r0, (UNDEF: 0)
    1ccc:	000b9c58 	andeq	r9, fp, r8, asr ip
    1cd0:	055b2a00 	ldrbeq	r2, [fp, #-2560]	; 0xa00
    1cd4:	05ba0000 	ldreq	r0, [sl, #0]!
    1cd8:	981a0000 	ldmdals	sl, {}	; <UNPREDICTABLE>
    1cdc:	6c00008c 	stcvs	0, cr0, [r0], {140}	; 0x8c
    1ce0:	1b000000 	blne	1ce8 <__code_start__-0x6318>
    1ce4:	00000566 	andeq	r0, r0, r6, ror #10
    1ce8:	0005712b 	andeq	r7, r5, fp, lsr #2
    1cec:	b8030500 	stmdalt	r3, {r8, sl}
    1cf0:	190000a0 	stmdbne	r0, {r5, r7}
    1cf4:	00000584 	andeq	r0, r0, r4, lsl #11
    1cf8:	00008c98 	muleq	r0, r8, ip
    1cfc:	00000004 	andeq	r0, r0, r4
    1d00:	0b371005 	bleq	dc5d1c <__bss_end__+0xdbb614>
    1d04:	a7290000 	strge	r0, [r9, -r0]!
    1d08:	04000005 	streq	r0, [r0], #-5
    1d0c:	00059d29 	andeq	r9, r5, r9, lsr #26
    1d10:	942a0000 	strtls	r0, [sl], #-0
    1d14:	ba000005 	blt	1d30 <__code_start__-0x62d0>
    1d18:	1a000005 	bne	1d34 <__code_start__-0x62cc>
    1d1c:	00008c98 	muleq	r0, r8, ip
    1d20:	00000004 	andeq	r0, r0, r4
    1d24:	0005be2c 	andeq	fp, r5, ip, lsr #28
    1d28:	b12b0500 	teqlt	fp, r0, lsl #10
    1d2c:	05000005 	streq	r0, [r0, #-5]
    1d30:	00a0c403 	adceq	ip, r0, r3, lsl #8
    1d34:	19000000 	stmdbne	r0, {}	; <UNPREDICTABLE>
    1d38:	000001d2 	ldrdeq	r0, [r0], -r2
    1d3c:	00008c9c 	muleq	r0, ip, ip
    1d40:	0000003c 	andeq	r0, r0, ip, lsr r0
    1d44:	0b501105 	bleq	1406160 <__bss_end__+0x13fba58>
    1d48:	e22d0000 	eor	r0, sp, #0
    1d4c:	00000001 	andeq	r0, r0, r1
    1d50:	008ce420 	addeq	lr, ip, r0, lsr #8
    1d54:	000e9a00 	andeq	r9, lr, r0, lsl #20
    1d58:	8d001e00 	stchi	14, cr1, [r0, #-0]
    1d5c:	0e840000 	cdpeq	0, 8, cr0, cr4, cr0, {0}
    1d60:	0b910000 	bleq	fe441d68 <__bss_end__+0xfe437660>
    1d64:	011f0000 	tsteq	pc, r0
    1d68:	1f410153 	svcne	0x00410153
    1d6c:	03055201 	movweq	r5, #20993	; 0x5201
    1d70:	0000a0b8 	strheq	sl, [r0], -r8
    1d74:	0551011f 	ldrbeq	r0, [r1, #-287]	; 0x11f
    1d78:	009f7803 	addseq	r7, pc, r3, lsl #16
    1d7c:	50011f00 	andpl	r1, r1, r0, lsl #30
    1d80:	9af80305 	bls	ffe0299c <__bss_end__+0xffdf8294>
    1d84:	021f0000 	andseq	r0, pc, #0
    1d88:	0305007d 	movweq	r0, #20605	; 0x507d
    1d8c:	00009f84 	andeq	r9, r0, r4, lsl #31
    1d90:	8d042000 	stchi	0, cr2, [r4, #-0]
    1d94:	0ea10000 	cdpeq	0, 10, cr0, cr1, cr0, {0}
    1d98:	00000000 	andeq	r0, r0, r0
    1d9c:	00891821 	addeq	r1, r9, r1, lsr #16
    1da0:	000bac00 	andeq	sl, fp, r0, lsl #24
    1da4:	50011f00 	andpl	r1, r1, r0, lsl #30
    1da8:	00007402 	andeq	r7, r0, r2, lsl #8
    1dac:	0089401e 	addeq	r4, r9, lr, lsl r0
    1db0:	000e8400 	andeq	r8, lr, r0, lsl #8
    1db4:	000bd200 	andeq	sp, fp, r0, lsl #4
    1db8:	53011f00 	movwpl	r1, #7936	; 0x1f00
    1dbc:	1f340802 	svcne	0x00340802
    1dc0:	79025201 	stmdbvc	r2, {r0, r9, ip, lr}
    1dc4:	51011f00 	tstpl	r1, r0, lsl #30
    1dc8:	1f007a02 	svcne	0x00007a02
    1dcc:	7b025001 	blvc	95dd8 <__bss_end__+0x8b6d0>
    1dd0:	4c1e0000 	ldcmi	0, cr0, [lr], {-0}
    1dd4:	b9000089 	stmdblt	r0, {r0, r3, r7}
    1dd8:	eb00000e 	bl	1e18 <__code_start__-0x61e8>
    1ddc:	1f00000b 	svcne	0x0000000b
    1de0:	75025101 	strvc	r5, [r2, #-257]	; 0x101
    1de4:	50011f00 	andpl	r1, r1, r0, lsl #30
    1de8:	1e003001 	cdpne	0, 0, cr3, cr0, cr1, {0}
    1dec:	00008974 	andeq	r8, r0, r4, ror r9
    1df0:	00000ecf 	andeq	r0, r0, pc, asr #29
    1df4:	00000c05 	andeq	r0, r0, r5, lsl #24
    1df8:	0252011f 	subseq	r0, r2, #-1073741817	; 0xc0000007
    1dfc:	011f0074 	tsteq	pc, r4, ror r0	; <UNPREDICTABLE>
    1e00:	00770250 	rsbseq	r0, r7, r0, asr r2
    1e04:	898c2100 	stmibhi	ip, {r8, sp}
    1e08:	0c150000 	ldceq	0, cr0, [r5], {-0}
    1e0c:	011f0000 	tsteq	pc, r0
    1e10:	00740250 	rsbseq	r0, r4, r0, asr r2
    1e14:	89982100 	ldmibhi	r8, {r8, sp}
    1e18:	0c250000 	stceq	0, cr0, [r5], #-0
    1e1c:	011f0000 	tsteq	pc, r0
    1e20:	00740250 	rsbseq	r0, r4, r0, asr r2
    1e24:	89b01e00 	ldmibhi	r0!, {r9, sl, fp, ip}
    1e28:	0e840000 	cdpeq	0, 8, cr0, cr4, cr0, {0}
    1e2c:	0c3c0000 	ldceq	0, cr0, [ip], #-0
    1e30:	011f0000 	tsteq	pc, r0
    1e34:	fc030550 	stc2	5, cr0, [r3], {80}	; 0x50
    1e38:	0000009e 	muleq	r0, lr, r0
    1e3c:	0089e41e 	addeq	lr, r9, lr, lsl r4
    1e40:	000e8400 	andeq	r8, lr, r0, lsl #8
    1e44:	000c5300 	andeq	r5, ip, r0, lsl #6
    1e48:	50011f00 	andpl	r1, r1, r0, lsl #30
    1e4c:	9f440305 	svcls	0x00440305
    1e50:	1e000000 	cdpne	0, 0, cr0, cr0, cr0, {0}
    1e54:	00008b00 	andeq	r8, r0, r0, lsl #22
    1e58:	00000e84 	andeq	r0, r0, r4, lsl #29
    1e5c:	00000c70 	andeq	r0, r0, r0, ror ip
    1e60:	0252011f 	subseq	r0, r2, #-1073741817	; 0xc0000007
    1e64:	011f0078 	tsteq	pc, r8, ror r0	; <UNPREDICTABLE>
    1e68:	bc030550 	cfstr32lt	mvfx0, [r3], {80}	; 0x50
    1e6c:	0000009f 	muleq	r0, pc, r0	; <UNPREDICTABLE>
    1e70:	008c201e 	addeq	r2, ip, lr, lsl r0
    1e74:	000e8400 	andeq	r8, lr, r0, lsl #8
    1e78:	000c8700 	andeq	r8, ip, r0, lsl #14
    1e7c:	50011f00 	andpl	r1, r1, r0, lsl #30
    1e80:	9fd80305 	svcls	0x00d80305
    1e84:	1e000000 	cdpne	0, 0, cr0, cr0, cr0, {0}
    1e88:	00008c28 	andeq	r8, r0, r8, lsr #24
    1e8c:	00000ea8 	andeq	r0, r0, r8, lsr #29
    1e90:	00000c9a 	muleq	r0, sl, ip
    1e94:	0150011f 	cmpeq	r0, pc, lsl r1
    1e98:	10200030 	eorne	r0, r0, r0, lsr r0
    1e9c:	9a00008d 	bls	20d8 <__code_start__-0x5f28>
    1ea0:	1e00000e 	cdpne	0, 0, cr0, cr0, cr14, {0}
    1ea4:	00008d2c 	andeq	r8, r0, ip, lsr #26
    1ea8:	00000e84 	andeq	r0, r0, r4, lsl #29
    1eac:	00000cd6 	ldrdeq	r0, [r0], -r6
    1eb0:	0253011f 	subseq	r0, r3, #-1073741817	; 0xc0000007
    1eb4:	011f5808 	tsteq	pc, r8, lsl #16
    1eb8:	00790252 	rsbseq	r0, r9, r2, asr r2
    1ebc:	0251011f 	subseq	r0, r1, #-1073741817	; 0xc0000007
    1ec0:	011f007a 	tsteq	pc, sl, ror r0	; <UNPREDICTABLE>
    1ec4:	f8030550 			; <UNDEFINED> instruction: 0xf8030550
    1ec8:	1f00009a 	svcne	0x0000009a
    1ecc:	05007d02 	streq	r7, [r0, #-3330]	; 0xd02
    1ed0:	009ff003 	addseq	pc, pc, r3
    1ed4:	30200000 	eorcc	r0, r0, r0
    1ed8:	a100008d 	smlabbge	r0, sp, r0, r0
    1edc:	0000000e 	andeq	r0, r0, lr
    1ee0:	00007f23 	andeq	r7, r0, r3, lsr #30
    1ee4:	000cf000 	andeq	pc, ip, r0
    1ee8:	00762400 	rsbseq	r2, r6, r0, lsl #8
    1eec:	00110000 	andseq	r0, r1, r0
    1ef0:	000ce007 	andeq	lr, ip, r7
    1ef4:	04f52700 	ldrbteq	r2, [r5], #1792	; 0x700
    1ef8:	64010000 	strvs	r0, [r1], #-0
    1efc:	0000002c 	andeq	r0, r0, ip, lsr #32
    1f00:	00008db0 			; <UNDEFINED> instruction: 0x00008db0
    1f04:	00000084 	andeq	r0, r0, r4, lsl #1
    1f08:	0db99c01 	ldceq	12, cr9, [r9, #4]!
    1f0c:	63160000 	tstvs	r6, #0
    1f10:	7a640100 	bvc	1902318 <__bss_end__+0x18f7c10>
    1f14:	cd000004 	stcgt	0, cr0, [r0, #-16]
    1f18:	18000005 	stmdane	r0, {r0, r2}
    1f1c:	67010069 	strvs	r0, [r1, -r9, rrx]
    1f20:	0000002c 	andeq	r0, r0, ip, lsr #32
    1f24:	000005eb 	andeq	r0, r0, fp, ror #11
    1f28:	00011d17 	andeq	r1, r1, r7, lsl sp
    1f2c:	000dc900 	andeq	ip, sp, r0, lsl #18
    1f30:	58030500 	stmdapl	r3, {r8, sl}
    1f34:	210000a0 	smlatbcs	r0, r0, r0, r0
    1f38:	00008dcc 	andeq	r8, r0, ip, asr #27
    1f3c:	00000d47 	andeq	r0, r0, r7, asr #26
    1f40:	0250011f 	subseq	r0, r0, #-1073741817	; 0xc0000007
    1f44:	21000074 	tstcs	r0, r4, ror r0
    1f48:	00008dd8 	ldrdeq	r8, [r0], -r8	; <UNPREDICTABLE>
    1f4c:	00000d57 	andeq	r0, r0, r7, asr sp
    1f50:	0250011f 	subseq	r0, r0, #-1073741817	; 0xc0000007
    1f54:	21000074 	tstcs	r0, r4, ror r0
    1f58:	00008de4 	andeq	r8, r0, r4, ror #27
    1f5c:	00000d67 	andeq	r0, r0, r7, ror #26
    1f60:	0250011f 	subseq	r0, r0, #-1073741817	; 0xc0000007
    1f64:	21000074 	tstcs	r0, r4, ror r0
    1f68:	00008df0 	strdeq	r8, [r0], -r0
    1f6c:	00000d77 	andeq	r0, r0, r7, ror sp
    1f70:	0250011f 	subseq	r0, r0, #-1073741817	; 0xc0000007
    1f74:	20000074 	andcs	r0, r0, r4, ror r0
    1f78:	00008dfc 	strdeq	r8, [r0], -ip
    1f7c:	00000e9a 	muleq	r0, sl, lr
    1f80:	008e101e 	addeq	r1, lr, lr, lsl r0
    1f84:	000e8400 	andeq	r8, lr, r0, lsl #8
    1f88:	000daf00 	andeq	sl, sp, r0, lsl #30
    1f8c:	53011f00 	movwpl	r1, #7936	; 0x1f00
    1f90:	1f6e0802 	svcne	0x006e0802
    1f94:	03055201 	movweq	r5, #20993	; 0x5201
    1f98:	0000a058 	andeq	sl, r0, r8, asr r0
    1f9c:	0551011f 	ldrbeq	r0, [r1, #-287]	; 0x11f
    1fa0:	009d9c03 	addseq	r9, sp, r3, lsl #24
    1fa4:	50011f00 	andpl	r1, r1, r0, lsl #30
    1fa8:	a01c0305 	andsge	r0, ip, r5, lsl #6
    1fac:	20000000 	andcs	r0, r0, r0
    1fb0:	00008e14 	andeq	r8, r0, r4, lsl lr
    1fb4:	00000ea1 	andeq	r0, r0, r1, lsr #29
    1fb8:	007f2300 	rsbseq	r2, pc, r0, lsl #6
    1fbc:	0dc90000 	stcleq	0, cr0, [r9]
    1fc0:	76240000 	strtvc	r0, [r4], -r0
    1fc4:	10000000 	andne	r0, r0, r0
    1fc8:	0db90700 	ldceq	7, cr0, [r9]
    1fcc:	78140000 	ldmdavc	r4, {}	; <UNPREDICTABLE>
    1fd0:	01000004 	tsteq	r0, r4
    1fd4:	008e347d 	addeq	r3, lr, sp, ror r4
    1fd8:	00002800 	andeq	r2, r0, r0, lsl #16
    1fdc:	ef9c0100 	svc	0x009c0100
    1fe0:	2e00000d 	cdpcs	0, 0, cr0, cr0, cr13, {0}
    1fe4:	7d010063 	stcvc	0, cr0, [r1, #-396]	; 0xfffffe74
    1fe8:	0000047a 	andeq	r0, r0, sl, ror r4
    1fec:	2f005001 	svccs	0x00005001
    1ff0:	000001db 	ldrdeq	r0, [r0], -fp
    1ff4:	00258801 	eoreq	r8, r5, r1, lsl #16
    1ff8:	8e5c0000 	cdphi	0, 5, cr0, cr12, cr0, {0}
    1ffc:	004c0000 	subeq	r0, ip, r0
    2000:	9c010000 	stcls	0, cr0, [r1], {-0}
    2004:	00000e57 	andeq	r0, r0, r7, asr lr
    2008:	01006316 	tsteq	r0, r6, lsl r3
    200c:	00047a88 	andeq	r7, r4, r8, lsl #21
    2010:	00060a00 	andeq	r0, r6, r0, lsl #20
    2014:	8e682000 	cdphi	0, 6, cr2, cr8, cr0, {0}
    2018:	0efb0000 	cdpeq	0, 15, cr0, cr11, cr0, {0}
    201c:	701e0000 	andsvc	r0, lr, r0
    2020:	ce00008e 	cdpgt	0, 0, cr0, cr0, cr14, {4}
    2024:	3200000d 	andcc	r0, r0, #13
    2028:	1f00000e 	svcne	0x0000000e
    202c:	74025001 	strvc	r5, [r2], #-1
    2030:	781e0000 	ldmdavc	lr, {}	; <UNPREDICTABLE>
    2034:	f500008e 			; <UNDEFINED> instruction: 0xf500008e
    2038:	4600000c 	strmi	r0, [r0], -ip
    203c:	1f00000e 	svcne	0x0000000e
    2040:	74025001 	strvc	r5, [r2], #-1
    2044:	88220000 	stmdahi	r2!, {}	; <UNPREDICTABLE>
    2048:	cd00008e 	stcgt	0, cr0, [r0, #-568]	; 0xfffffdc8
    204c:	1f000005 	svcne	0x00000005
    2050:	74025001 	strvc	r5, [r2], #-1
    2054:	28000000 	stmdacs	r0, {}	; <UNPREDICTABLE>
    2058:	00000140 	andeq	r0, r0, r0, asr #2
    205c:	047a0601 	ldrbteq	r0, [sl], #-1537	; 0x601
    2060:	03050000 	movweq	r0, #20480	; 0x5000
    2064:	0000a2fc 	strdeq	sl, [r0], -ip
    2068:	0004b328 	andeq	fp, r4, r8, lsr #6
    206c:	7d080100 	stfvcs	f0, [r8, #-0]
    2070:	05000000 	streq	r0, [r0, #-0]
    2074:	00a30003 	adceq	r0, r3, r3
    2078:	00fb3000 	rscseq	r3, fp, r0
    207c:	c2020000 	andgt	r0, r2, #0
    2080:	00000025 	andeq	r0, r0, r5, lsr #32
    2084:	0005bc31 	andeq	fp, r5, r1, lsr ip
    2088:	25290800 	strcs	r0, [r9, #-2048]!	; 0x800
    208c:	9a000000 	bls	2094 <__code_start__-0x5f6c>
    2090:	0900000e 	stmdbeq	r0, {r1, r2, r3}
    2094:	00000086 	andeq	r0, r0, r6, lsl #1
    2098:	69330032 	ldmdbvs	r3!, {r1, r4, r5}
    209c:	08000002 	stmdaeq	r0, {r1}
    20a0:	00db331e 	sbcseq	r3, fp, lr, lsl r3
    20a4:	65080000 	strvs	r0, [r8, #-0]
    20a8:	00039234 	andeq	r9, r3, r4, lsr r2
    20ac:	b9e30200 	stmiblt	r3!, {r9}^
    20b0:	0900000e 	stmdbeq	r0, {r1, r2, r3}
    20b4:	0000005d 	andeq	r0, r0, sp, asr r0
    20b8:	03523400 	cmpeq	r2, #0, 8
    20bc:	d9020000 	stmdble	r2, {}	; <UNPREDICTABLE>
    20c0:	00000ecf 	andeq	r0, r0, pc, asr #29
    20c4:	00005d09 	andeq	r5, r0, r9, lsl #26
    20c8:	00910900 	addseq	r0, r1, r0, lsl #18
    20cc:	34000000 	strcc	r0, [r0], #-0
    20d0:	00000496 	muleq	r0, r6, r4
    20d4:	0eeaf302 	cdpeq	3, 14, cr15, cr10, cr2, {0}
    20d8:	5d090000 	stcpl	0, cr0, [r9, #-0]
    20dc:	09000000 	stmdbeq	r0, {}	; <UNPREDICTABLE>
    20e0:	00000eea 	andeq	r0, r0, sl, ror #29
    20e4:	00007d09 	andeq	r7, r0, r9, lsl #26
    20e8:	04060000 	streq	r0, [r6], #-0
    20ec:	00000ef0 	strdeq	r0, [r0], -r0	; <UNPREDICTABLE>
    20f0:	000efb08 	andeq	pc, lr, r8, lsl #22
    20f4:	007d0900 	rsbseq	r0, sp, r0, lsl #18
    20f8:	33000000 	movwcc	r0, #0
    20fc:	000003db 	ldrdeq	r0, [r0], -fp
    2100:	91009002 	tstls	r0, r2
    2104:	04000001 	streq	r0, [r0], #-1
    2108:	00079b00 	andeq	r9, r7, r0, lsl #22
    210c:	62010400 	andvs	r0, r1, #0, 8
    2110:	01000005 	tsteq	r0, r5
    2114:	00000554 	andeq	r0, r0, r4, asr r5
    2118:	000005cd 	andeq	r0, r0, sp, asr #11
    211c:	00008ea8 	andeq	r8, r0, r8, lsr #29
    2120:	00000058 	andeq	r0, r0, r8, asr r0
    2124:	000005db 	ldrdeq	r0, [r0], -fp
    2128:	00054502 	andeq	r4, r5, r2, lsl #10
    212c:	30280200 	eorcc	r0, r8, r0, lsl #4
    2130:	03000000 	movweq	r0, #0
    2134:	000005c3 	andeq	r0, r0, r3, asr #11
    2138:	47000304 	strmi	r0, [r0, -r4, lsl #6]
    213c:	04000000 	streq	r0, [r0], #-0
    2140:	00000613 	andeq	r0, r0, r3, lsl r6
    2144:	00000047 	andeq	r0, r0, r7, asr #32
    2148:	04050000 	streq	r0, [r5], #-0
    214c:	0005c502 	andeq	ip, r5, r2, lsl #10
    2150:	25620200 	strbcs	r0, [r2, #-512]!	; 0x200
    2154:	06000000 	streq	r0, [r0], -r0
    2158:	6e690504 	cdpvs	5, 6, cr0, cr9, cr4, {0}
    215c:	04070074 	streq	r0, [r7], #-116	; 0x74
    2160:	00016c07 	andeq	r6, r1, r7, lsl #24
    2164:	06010700 	streq	r0, [r1], -r0, lsl #14
    2168:	000000cf 	andeq	r0, r0, pc, asr #1
    216c:	13050207 	movwne	r0, #20999	; 0x5207
    2170:	07000001 	streq	r0, [r0, -r1]
    2174:	019c0504 	orrseq	r0, ip, r4, lsl #10
    2178:	08070000 	stmdaeq	r7, {}	; <UNPREDICTABLE>
    217c:	00019705 	andeq	r9, r1, r5, lsl #14
    2180:	08010700 	stmdaeq	r1, {r8, r9, sl}
    2184:	000000cd 	andeq	r0, r0, sp, asr #1
    2188:	e8070207 	stmda	r7, {r0, r1, r2, r9}
    218c:	07000000 	streq	r0, [r0, -r0]
    2190:	01670704 	cmneq	r7, r4, lsl #14
    2194:	08070000 	stmdaeq	r7, {}	; <UNPREDICTABLE>
    2198:	00016207 	andeq	r6, r1, r7, lsl #4
    219c:	07040700 	streq	r0, [r4, -r0, lsl #14]
    21a0:	0000018e 	andeq	r0, r0, lr, lsl #3
    21a4:	00a70408 	adceq	r0, r7, r8, lsl #8
    21a8:	01070000 	mrseq	r0, (UNDEF: 7)
    21ac:	0000d608 	andeq	sp, r0, r8, lsl #12
    21b0:	b4040800 	strlt	r0, [r4], #-2048	; 0x800
    21b4:	09000000 	stmdbeq	r0, {}	; <UNPREDICTABLE>
    21b8:	000000a7 	andeq	r0, r0, r7, lsr #1
    21bc:	0005bc0a 	andeq	fp, r5, sl, lsl #24
    21c0:	54060100 	strpl	r0, [r6], #-256	; 0x100
    21c4:	a8000000 	stmdage	r0, {}	; <UNPREDICTABLE>
    21c8:	5800008e 	stmdapl	r0, {r1, r2, r3, r7}
    21cc:	01000000 	mrseq	r0, (UNDEF: 0)
    21d0:	0001439c 	muleq	r1, ip, r3
    21d4:	6d660b00 	vstmdbvs	r6!, {d16-d15}
    21d8:	06010074 			; <UNDEFINED> instruction: 0x06010074
    21dc:	000000ae 	andeq	r0, r0, lr, lsr #1
    21e0:	0c709102 	ldfeqp	f1, [r0], #-8
    21e4:	6675620d 	ldrbtvs	r6, [r5], -sp, lsl #4
    21e8:	43080100 	movwmi	r0, #33024	; 0x8100
    21ec:	05000001 	streq	r0, [r0, #-1]
    21f0:	00a30403 	adceq	r0, r3, r3, lsl #8
    21f4:	0acf0e00 	beq	ff3c59fc <__bss_end__+0xff3bb2f4>
    21f8:	09010000 	stmdbeq	r1, {}	; <UNPREDICTABLE>
    21fc:	00000049 	andeq	r0, r0, r9, asr #32
    2200:	0f5c9102 	svceq	0x005c9102
    2204:	01007a73 	tsteq	r0, r3, ror sl
    2208:	0000540c 	andeq	r5, r0, ip, lsl #8
    220c:	00062800 	andeq	r2, r6, r0, lsl #16
    2210:	8ed01000 	cdphi	0, 13, cr1, cr0, cr0, {0}
    2214:	01740000 	cmneq	r4, r0
    2218:	01360000 	teqeq	r6, r0
    221c:	01110000 	tsteq	r1, r0
    2220:	4c910253 	lfmmi	f0, 4, [r1], {83}	; 0x53
    2224:	03520111 	cmpeq	r2, #1073741828	; 0x40000004
    2228:	11064891 			; <UNDEFINED> instruction: 0x11064891
    222c:	0a035101 	beq	d6638 <__bss_end__+0xcbf30>
    2230:	01110400 	tsteq	r1, r0, lsl #8
    2234:	00740250 	rsbseq	r0, r4, r0, asr r2
    2238:	8ee41200 	cdphi	2, 14, cr1, cr4, cr0, {0}
    223c:	01110000 	tsteq	r1, r0
    2240:	00740250 	rsbseq	r0, r4, r0, asr r2
    2244:	a7130000 	ldrge	r0, [r3, -r0]
    2248:	54000000 	strpl	r0, [r0], #-0
    224c:	14000001 	strne	r0, [r0], #-1
    2250:	0000009a 	muleq	r0, sl, r0
    2254:	150003ff 	strne	r0, [r0, #-1023]	; 0x3ff
    2258:	00000054 	andeq	r0, r0, r4, asr r0
    225c:	00000163 	andeq	r0, r0, r3, ror #2
    2260:	0000ae16 	andeq	sl, r0, r6, lsl lr
    2264:	70170000 	andsvc	r0, r7, r0
    2268:	04000006 	streq	r0, [r0], #-6
    226c:	00016e22 	andeq	r6, r1, r2, lsr #28
    2270:	54040800 	strpl	r0, [r4], #-2048	; 0x800
    2274:	18000001 	stmdane	r0, {r0}
    2278:	000005b9 			; <UNDEFINED> instruction: 0x000005b9
    227c:	00540205 	subseq	r0, r4, r5, lsl #4
    2280:	a1160000 	tstge	r6, r0
    2284:	16000000 	strne	r0, [r0], -r0
    2288:	00000054 	andeq	r0, r0, r4, asr r0
    228c:	0000ae16 	andeq	sl, r0, r6, lsl lr
    2290:	00491600 	subeq	r1, r9, r0, lsl #12
    2294:	00000000 	andeq	r0, r0, r0
    2298:	00000113 	andeq	r0, r0, r3, lsl r1
    229c:	08cc0004 	stmiaeq	ip, {r2}^
    22a0:	01040000 	mrseq	r0, (UNDEF: 4)
    22a4:	00000562 	andeq	r0, r0, r2, ror #10
    22a8:	00063f01 	andeq	r3, r6, r1, lsl #30
    22ac:	0005cd00 	andeq	ip, r5, r0, lsl #26
    22b0:	008f0000 	addeq	r0, pc, r0
    22b4:	00003c00 	andeq	r3, r0, r0, lsl #24
    22b8:	0006eb00 	andeq	lr, r6, r0, lsl #22
    22bc:	05040200 	streq	r0, [r4, #-512]	; 0x200
    22c0:	00746e69 	rsbseq	r6, r4, r9, ror #28
    22c4:	6c070403 	cfstrsvs	mvf0, [r7], {3}
    22c8:	03000001 	movweq	r0, #1
    22cc:	00cf0601 	sbceq	r0, pc, r1, lsl #12
    22d0:	02030000 	andeq	r0, r3, #0
    22d4:	00011305 	andeq	r1, r1, r5, lsl #6
    22d8:	05040300 	streq	r0, [r4, #-768]	; 0x300
    22dc:	0000019c 	muleq	r0, ip, r1
    22e0:	97050803 	strls	r0, [r5, -r3, lsl #16]
    22e4:	03000001 	movweq	r0, #1
    22e8:	00cd0801 	sbceq	r0, sp, r1, lsl #16
    22ec:	02030000 	andeq	r0, r3, #0
    22f0:	0000e807 	andeq	lr, r0, r7, lsl #16
    22f4:	07040300 	streq	r0, [r4, -r0, lsl #6]
    22f8:	00000167 	andeq	r0, r0, r7, ror #2
    22fc:	62070803 	andvs	r0, r7, #196608	; 0x30000
    2300:	03000001 	movweq	r0, #1
    2304:	018e0704 	orreq	r0, lr, r4, lsl #14
    2308:	01030000 	mrseq	r0, (UNDEF: 3)
    230c:	0000d608 	andeq	sp, r0, r8, lsl #12
    2310:	06220400 	strteq	r0, [r2], -r0, lsl #8
    2314:	03010000 	movweq	r0, #4096	; 0x1000
    2318:	00000025 	andeq	r0, r0, r5, lsr #32
    231c:	00008f00 	andeq	r8, r0, r0, lsl #30
    2320:	00000014 	andeq	r0, r0, r4, lsl r0
    2324:	00b09c01 	adcseq	r9, r0, r1, lsl #24
    2328:	63050000 	movwvs	r0, #20480	; 0x5000
    232c:	25030100 	strcs	r0, [r3, #-256]	; 0x100
    2330:	51000000 	mrspl	r0, (UNDEF: 0)
    2334:	06000006 	streq	r0, [r0], -r6
    2338:	00008f0c 	andeq	r8, r0, ip, lsl #30
    233c:	00000109 	andeq	r0, r0, r9, lsl #2
    2340:	02500107 	subseq	r0, r0, #-1073741823	; 0xc0000001
    2344:	00000074 	andeq	r0, r0, r4, ror r0
    2348:	00026908 	andeq	r6, r2, r8, lsl #18
    234c:	14080100 	strne	r0, [r8], #-256	; 0x100
    2350:	1800008f 	stmdane	r0, {r0, r1, r2, r3, r7}
    2354:	01000000 	mrseq	r0, (UNDEF: 0)
    2358:	064e099c 			; <UNDEFINED> instruction: 0x064e099c
    235c:	0b010000 	bleq	42364 <__bss_end__+0x37c5c>
    2360:	00008f2c 	andeq	r8, r0, ip, lsr #30
    2364:	00000010 	andeq	r0, r0, r0, lsl r0
    2368:	00e39c01 	rsceq	r9, r3, r1, lsl #24
    236c:	660a0000 	strvs	r0, [sl], -r0
    2370:	0b010070 	bleq	42538 <__bss_end__+0x37e30>
    2374:	000000f2 	strdeq	r0, [r0], -r2
    2378:	0b005001 	bleq	16384 <__bss_end__+0xbc7c>
    237c:	00000025 	andeq	r0, r0, r5, lsr #32
    2380:	000000f2 	strdeq	r0, [r0], -r2
    2384:	0000250c 	andeq	r2, r0, ip, lsl #10
    2388:	040d0000 	streq	r0, [sp], #-0
    238c:	000000e3 	andeq	r0, r0, r3, ror #1
    2390:	0006330e 	andeq	r3, r6, lr, lsl #6
    2394:	f2060100 	vrhadd.s8	d0, d6, d0
    2398:	05000000 	streq	r0, [r0, #-0]
    239c:	009ab803 	addseq	fp, sl, r3, lsl #16
    23a0:	06180f00 	ldreq	r0, [r8], -r0, lsl #30
    23a4:	3c020000 	stccc	0, cr0, [r2], {-0}
    23a8:	00002c0c 	andeq	r2, r0, ip, lsl #24
    23ac:	ee000000 	cdp	0, 0, cr0, cr0, cr0, {0}
    23b0:	04000000 	streq	r0, [r0], #-0
    23b4:	0009b400 	andeq	fp, r9, r0, lsl #8
    23b8:	62010400 	andvs	r0, r1, #0, 8
    23bc:	01000005 	tsteq	r0, r5
    23c0:	0000065b 	andeq	r0, r0, fp, asr r6
    23c4:	000005cd 	andeq	r0, r0, sp, asr #11
    23c8:	00008f3c 	andeq	r8, r0, ip, lsr pc
    23cc:	00000034 	andeq	r0, r0, r4, lsr r0
    23d0:	00000783 	andeq	r0, r0, r3, lsl #15
    23d4:	69050402 	stmdbvs	r5, {r1, sl}
    23d8:	0300746e 	movweq	r7, #1134	; 0x46e
    23dc:	016c0704 	cmneq	ip, r4, lsl #14
    23e0:	01030000 	mrseq	r0, (UNDEF: 3)
    23e4:	0000cf06 	andeq	ip, r0, r6, lsl #30
    23e8:	05020300 	streq	r0, [r2, #-768]	; 0x300
    23ec:	00000113 	andeq	r0, r0, r3, lsl r1
    23f0:	9c050403 	cfstrsls	mvf0, [r5], {3}
    23f4:	03000001 	movweq	r0, #1
    23f8:	01970508 	orrseq	r0, r7, r8, lsl #10
    23fc:	01030000 	mrseq	r0, (UNDEF: 3)
    2400:	0000cd08 	andeq	ip, r0, r8, lsl #26
    2404:	07020300 	streq	r0, [r2, -r0, lsl #6]
    2408:	000000e8 	andeq	r0, r0, r8, ror #1
    240c:	67070403 	strvs	r0, [r7, -r3, lsl #8]
    2410:	03000001 	movweq	r0, #1
    2414:	01620708 	cmneq	r2, r8, lsl #14
    2418:	04030000 	streq	r0, [r3], #-0
    241c:	00018e07 	andeq	r8, r1, r7, lsl #28
    2420:	08010300 	stmdaeq	r1, {r8, r9}
    2424:	000000d6 	ldrdeq	r0, [r0], -r6
    2428:	007f0404 	rsbseq	r0, pc, r4, lsl #8
    242c:	72050000 	andvc	r0, r5, #0
    2430:	06000000 	streq	r0, [r0], -r0
    2434:	00000667 	andeq	r0, r0, r7, ror #12
    2438:	00250401 	eoreq	r0, r5, r1, lsl #8
    243c:	8f3c0000 	svchi	0x003c0000
    2440:	00340000 	eorseq	r0, r4, r0
    2444:	9c010000 	stcls	0, cr0, [r1], {-0}
    2448:	000000ab 	andeq	r0, r0, fp, lsr #1
    244c:	01007007 	tsteq	r0, r7
    2450:	00007904 	andeq	r7, r0, r4, lsl #18
    2454:	00066f00 	andeq	r6, r6, r0, lsl #30
    2458:	25080000 	strcs	r0, [r8, #-0]
    245c:	ba000000 	blt	2464 <__code_start__-0x5b9c>
    2460:	09000000 	stmdbeq	r0, {}	; <UNPREDICTABLE>
    2464:	00000025 	andeq	r0, r0, r5, lsr #32
    2468:	06330a00 	ldrteq	r0, [r3], -r0, lsl #20
    246c:	1d020000 	stcne	0, cr0, [r2, #-0]
    2470:	000000c5 	andeq	r0, r0, r5, asr #1
    2474:	00ab0404 	adceq	r0, fp, r4, lsl #8
    2478:	25080000 	strcs	r0, [r8, #-0]
    247c:	da000000 	ble	2484 <__code_start__-0x5b7c>
    2480:	09000000 	stmdbeq	r0, {}	; <UNPREDICTABLE>
    2484:	00000079 	andeq	r0, r0, r9, ror r0
    2488:	06700b00 	ldrbteq	r0, [r0], -r0, lsl #22
    248c:	0c010000 	stceq	0, cr0, [r1], {-0}
    2490:	000000eb 	andeq	r0, r0, fp, ror #1
    2494:	9abc0305 	bls	fef030b0 <__bss_end__+0xfeef89a8>
    2498:	04040000 	streq	r0, [r4], #-0
    249c:	000000cb 	andeq	r0, r0, fp, asr #1
    24a0:	0006e500 	andeq	lr, r6, r0, lsl #10
    24a4:	4d000400 	cfstrsmi	mvf0, [r0, #-0]
    24a8:	0400000a 	streq	r0, [r0], #-10
    24ac:	00056201 	andeq	r6, r5, r1, lsl #4
    24b0:	06a60100 	strteq	r0, [r6], r0, lsl #2
    24b4:	05cd0000 	strbeq	r0, [sp]
    24b8:	8f700000 	svchi	0x00700000
    24bc:	05780000 	ldrbeq	r0, [r8, #-0]!
    24c0:	08270000 	stmdaeq	r7!, {}	; <UNPREDICTABLE>
    24c4:	04020000 	streq	r0, [r2], #-0
    24c8:	746e6905 	strbtvc	r6, [lr], #-2309	; 0x905
    24cc:	07040300 	streq	r0, [r4, -r0, lsl #6]
    24d0:	0000016c 	andeq	r0, r0, ip, ror #2
    24d4:	cf060103 	svcgt	0x00060103
    24d8:	03000000 	movweq	r0, #0
    24dc:	01130502 	tsteq	r3, r2, lsl #10
    24e0:	04030000 	streq	r0, [r3], #-0
    24e4:	00019c05 	andeq	r9, r1, r5, lsl #24
    24e8:	05080300 	streq	r0, [r8, #-768]	; 0x300
    24ec:	00000197 	muleq	r0, r7, r1
    24f0:	cd080103 	stfgts	f0, [r8, #-12]
    24f4:	03000000 	movweq	r0, #0
    24f8:	00e80702 	rsceq	r0, r8, r2, lsl #14
    24fc:	04030000 	streq	r0, [r3], #-0
    2500:	00016707 	andeq	r6, r1, r7, lsl #14
    2504:	07080300 	streq	r0, [r8, -r0, lsl #6]
    2508:	00000162 	andeq	r0, r0, r2, ror #2
    250c:	8e070403 	cdphi	4, 0, cr0, cr7, cr3, {0}
    2510:	04000001 	streq	r0, [r0], #-1
    2514:	7a040504 	bvc	10392c <__bss_end__+0xf9224>
    2518:	03000000 	movweq	r0, #0
    251c:	00d60801 	sbcseq	r0, r6, r1, lsl #16
    2520:	04050000 	streq	r0, [r5], #-0
    2524:	00000087 	andeq	r0, r0, r7, lsl #1
    2528:	00007a06 	andeq	r7, r0, r6, lsl #20
    252c:	05450700 	strbeq	r0, [r5, #-1792]	; 0x700
    2530:	28020000 	stmdacs	r2, {}	; <UNPREDICTABLE>
    2534:	00000097 	muleq	r0, r7, r0
    2538:	0005c308 	andeq	ip, r5, r8, lsl #6
    253c:	00040400 	andeq	r0, r4, r0, lsl #8
    2540:	000000ae 	andeq	r0, r0, lr, lsr #1
    2544:	00061309 	andeq	r1, r6, r9, lsl #6
    2548:	00007200 	andeq	r7, r0, r0, lsl #4
    254c:	07000000 	streq	r0, [r0, -r0]
    2550:	000005c5 	andeq	r0, r0, r5, asr #11
    2554:	008c6202 	addeq	r6, ip, r2, lsl #4
    2558:	8d0a0000 	stchi	0, cr0, [sl, #-0]
    255c:	01000006 	tsteq	r0, r6
    2560:	00002527 	andeq	r2, r0, r7, lsr #10
    2564:	008f7000 	addeq	r7, pc, r0
    2568:	00001400 	andeq	r1, r0, r0, lsl #8
    256c:	e09c0100 	adds	r0, ip, r0, lsl #2
    2570:	0b000000 	bleq	2578 <__code_start__-0x5a88>
    2574:	27010063 	strcs	r0, [r1, -r3, rrx]
    2578:	00000025 	andeq	r0, r0, r5, lsr #32
    257c:	0000068d 	andeq	r0, r0, sp, lsl #13
    2580:	61700c00 	cmnvs	r0, r0, lsl #24
    2584:	2e010064 	cdpcs	0, 0, cr0, cr1, cr4, {3}
    2588:	00000074 	andeq	r0, r0, r4, ror r0
    258c:	00008f84 	andeq	r8, r0, r4, lsl #31
    2590:	0000002c 	andeq	r0, r0, ip, lsr #32
    2594:	01309c01 	teqeq	r0, r1, lsl #24
    2598:	700b0000 	andvc	r0, fp, r0
    259c:	742e0100 	strtvc	r0, [lr], #-256	; 0x100
    25a0:	bb000000 	bllt	25a8 <__code_start__-0x5a58>
    25a4:	0d000006 	stceq	0, cr0, [r0, #-24]	; 0xffffffe8
    25a8:	00000aad 	andeq	r0, r0, sp, lsr #21
    25ac:	00742e01 	rsbseq	r2, r4, r1, lsl #28
    25b0:	06e60000 	strbteq	r0, [r6], r0
    25b4:	c60e0000 	strgt	r0, [lr], -r0
    25b8:	01000006 	tsteq	r0, r6
    25bc:	0000252e 	andeq	r2, r0, lr, lsr #10
    25c0:	0f520100 	svceq	0x00520100
    25c4:	006e656c 	rsbeq	r6, lr, ip, ror #10
    25c8:	00252f01 	eoreq	r2, r5, r1, lsl #30
    25cc:	51010000 	mrspl	r0, (UNDEF: 1)
    25d0:	06850a00 	streq	r0, [r5], r0, lsl #20
    25d4:	37010000 	strcc	r0, [r1, -r0]
    25d8:	00000074 	andeq	r0, r0, r4, ror r0
    25dc:	00008fb0 			; <UNDEFINED> instruction: 0x00008fb0
    25e0:	00000040 	andeq	r0, r0, r0, asr #32
    25e4:	019c9c01 	orrseq	r9, ip, r1, lsl #24
    25e8:	640b0000 	strvs	r0, [fp], #-0
    25ec:	01007473 	tsteq	r0, r3, ror r4
    25f0:	00007437 	andeq	r7, r0, r7, lsr r4
    25f4:	00070700 	andeq	r0, r7, r0, lsl #14
    25f8:	006e0b00 	rsbeq	r0, lr, r0, lsl #22
    25fc:	00253701 	eoreq	r3, r5, r1, lsl #14
    2600:	073f0000 	ldreq	r0, [pc, -r0]!
    2604:	700b0000 	andvc	r0, fp, r0
    2608:	74370100 	ldrtvc	r0, [r7], #-256	; 0x100
    260c:	60000000 	andvs	r0, r0, r0
    2610:	0d000007 	stceq	0, cr0, [r0, #-28]	; 0xffffffe4
    2614:	00000679 	andeq	r0, r0, r9, ror r6
    2618:	00743701 	rsbseq	r3, r4, r1, lsl #14
    261c:	07960000 	ldreq	r0, [r6, r0]
    2620:	6c100000 	ldcvs	0, cr0, [r0], {-0}
    2624:	01006e65 	tsteq	r0, r5, ror #28
    2628:	00002539 	andeq	r2, r0, r9, lsr r5
    262c:	0007b400 	andeq	fp, r7, r0, lsl #8
    2630:	00730f00 	rsbseq	r0, r3, r0, lsl #30
    2634:	00743d01 	rsbseq	r3, r4, r1, lsl #26
    2638:	50010000 	andpl	r0, r1, r0
    263c:	06d40a00 	ldrbeq	r0, [r4], r0, lsl #20
    2640:	47010000 	strmi	r0, [r1, -r0]
    2644:	00000074 	andeq	r0, r0, r4, ror r0
    2648:	00008ff0 	strdeq	r8, [r0], -r0
    264c:	000001bc 			; <UNDEFINED> instruction: 0x000001bc
    2650:	02df9c01 	sbcseq	r9, pc, #256	; 0x100
    2654:	ad0d0000 	stcge	0, cr0, [sp, #-0]
    2658:	0100000a 	tsteq	r0, sl
    265c:	00002c47 	andeq	r2, r0, r7, asr #24
    2660:	0007db00 	andeq	sp, r7, r0, lsl #22
    2664:	73640b00 	cmnvc	r4, #0, 22
    2668:	47010074 	smlsdxmi	r1, r4, r0, r0
    266c:	00000074 	andeq	r0, r0, r4, ror r0
    2670:	00000809 	andeq	r0, r0, r9, lsl #16
    2674:	01006e0b 	tsteq	r0, fp, lsl #28
    2678:	00002547 	andeq	r2, r0, r7, asr #10
    267c:	00087700 	andeq	r7, r8, r0, lsl #14
    2680:	61760b00 	cmnvs	r6, r0, lsl #22
    2684:	4701006c 	strmi	r0, [r1, -ip, rrx]
    2688:	00000025 	andeq	r0, r0, r5, lsr #32
    268c:	000008a3 	andeq	r0, r0, r3, lsr #17
    2690:	0006c60d 	andeq	ip, r6, sp, lsl #12
    2694:	25470100 	strbcs	r0, [r7, #-256]	; 0x100
    2698:	22000000 	andcs	r0, r0, #0
    269c:	0e000009 	cdpeq	0, 0, cr0, cr0, cr9, {0}
    26a0:	0000069d 	muleq	r0, sp, r6
    26a4:	00254701 	eoreq	r4, r5, r1, lsl #14
    26a8:	91020000 	mrsls	r0, (UNDEF: 2)
    26ac:	75620f04 	strbvc	r0, [r2, #-3844]!	; 0xf04
    26b0:	4c010066 	stcmi	0, cr0, [r1], {102}	; 0x66
    26b4:	000002df 	ldrdeq	r0, [r0], -pc	; <UNPREDICTABLE>
    26b8:	7fa89103 	svcvc	0x00a89103
    26bc:	01007010 	tsteq	r0, r0, lsl r0
    26c0:	0000744c 	andeq	r7, r0, ip, asr #8
    26c4:	00094c00 	andeq	r4, r9, r0, lsl #24
    26c8:	00751000 	rsbseq	r1, r5, r0
    26cc:	002c4d01 	eoreq	r4, ip, r1, lsl #26
    26d0:	0a360000 	beq	d826d8 <__bss_end__+0xd77fd0>
    26d4:	1d110000 	ldcne	0, cr0, [r1, #-0]
    26d8:	ff000001 			; <UNDEFINED> instruction: 0xff000001
    26dc:	05000002 	streq	r0, [r0, #-2]
    26e0:	00a0d003 	adceq	sp, r0, r3
    26e4:	905c1200 	subsls	r1, ip, r0, lsl #4
    26e8:	00740000 	rsbseq	r0, r4, r0
    26ec:	02610000 	rsbeq	r0, r1, #0
    26f0:	7f130000 	svcvc	0x00130000
    26f4:	01000006 	tsteq	r0, r6
    26f8:	00002c52 	andeq	r2, r0, r2, asr ip
    26fc:	000af900 	andeq	pc, sl, r0, lsl #18
    2700:	48140000 	ldmdami	r4, {}	; <UNPREDICTABLE>
    2704:	c4000091 	strgt	r0, [r0], #-145	; 0x91
    2708:	15000006 	strne	r0, [r0, #-6]
    270c:	00009164 	andeq	r9, r0, r4, ror #2
    2710:	000006cb 	andeq	r0, r0, fp, asr #13
    2714:	000002a3 	andeq	r0, r0, r3, lsr #5
    2718:	02530116 	subseq	r0, r3, #-2147483643	; 0x80000005
    271c:	01167708 	tsteq	r6, r8, lsl #14
    2720:	d0030552 	andle	r0, r3, r2, asr r5
    2724:	160000a0 	strne	r0, [r0], -r0, lsr #1
    2728:	03055101 	movweq	r5, #20737	; 0x5101
    272c:	0000a0f4 	strdeq	sl, [r0], -r4
    2730:	05500116 	ldrbeq	r0, [r0, #-278]	; 0x116
    2734:	009af803 	addseq	pc, sl, r3, lsl #16
    2738:	7d021600 	stcvc	6, cr1, [r2, #-0]
    273c:	08030500 	stmdaeq	r3, {r8, sl}
    2740:	000000a1 	andeq	r0, r0, r1, lsr #1
    2744:	00916814 	addseq	r6, r1, r4, lsl r8
    2748:	0006e100 	andeq	lr, r6, r0, lsl #2
    274c:	91701500 	cmnls	r0, r0, lsl #10
    2750:	00e00000 	rsceq	r0, r0, r0
    2754:	02c10000 	sbceq	r0, r1, #0
    2758:	01160000 	tsteq	r6, r0
    275c:	a0910351 	addsge	r0, r1, r1, asr r3
    2760:	8417007f 	ldrhi	r0, [r7], #-127	; 0x7f
    2764:	30000091 	mulcc	r0, r1, r0
    2768:	16000001 	strne	r0, [r0], -r1
    276c:	91035301 	tstls	r3, r1, lsl #6
    2770:	01167fa0 	tsteq	r6, r0, lsr #31
    2774:	00740251 	rsbseq	r0, r4, r1, asr r2
    2778:	02500116 	subseq	r0, r0, #-2147483643	; 0x80000005
    277c:	00000075 	andeq	r0, r0, r5, ror r0
    2780:	00007a18 	andeq	r7, r0, r8, lsl sl
    2784:	0002ef00 	andeq	lr, r2, r0, lsl #30
    2788:	006b1900 	rsbeq	r1, fp, r0, lsl #18
    278c:	003f0000 	eorseq	r0, pc, r0
    2790:	00007a18 	andeq	r7, r0, r8, lsl sl
    2794:	0002ff00 	andeq	pc, r2, r0, lsl #30
    2798:	006b1900 	rsbeq	r1, fp, r0, lsl #18
    279c:	00040000 	andeq	r0, r4, r0
    27a0:	0002ef06 	andeq	lr, r2, r6, lsl #30
    27a4:	06b71a00 	ldrteq	r1, [r7], r0, lsl #20
    27a8:	1f010000 	svcne	0x00010000
    27ac:	000091ac 	andeq	r9, r0, ip, lsr #3
    27b0:	00000068 	andeq	r0, r0, r8, rrx
    27b4:	03929c01 	orrseq	r9, r2, #256	; 0x100
    27b8:	cc0d0000 	stcgt	0, cr0, [sp], {-0}
    27bc:	01000006 	tsteq	r0, r6
    27c0:	0003a11f 	andeq	sl, r3, pc, lsl r1
    27c4:	000b2500 	andeq	r2, fp, r0, lsl #10
    27c8:	06950d00 	ldreq	r0, [r5], r0, lsl #26
    27cc:	1f010000 	svcne	0x00010000
    27d0:	000003b6 			; <UNDEFINED> instruction: 0x000003b6
    27d4:	00000b51 	andeq	r0, r0, r1, asr fp
    27d8:	00011d11 	andeq	r1, r1, r1, lsl sp
    27dc:	0003cc00 	andeq	ip, r3, r0, lsl #24
    27e0:	d8030500 	stmdale	r3, {r8, sl}
    27e4:	140000a0 	strne	r0, [r0], #-160	; 0xa0
    27e8:	000091c0 	andeq	r9, r0, r0, asr #3
    27ec:	000006c4 	andeq	r0, r0, r4, asr #13
    27f0:	0091dc15 	addseq	sp, r1, r5, lsl ip
    27f4:	0006cb00 	andeq	ip, r6, r0, lsl #22
    27f8:	00038800 	andeq	r8, r3, r0, lsl #16
    27fc:	53011600 	movwpl	r1, #5632	; 0x1600
    2800:	16200802 	strtne	r0, [r0], -r2, lsl #16
    2804:	03055201 	movweq	r5, #20993	; 0x5201
    2808:	0000a0d8 	ldrdeq	sl, [r0], -r8
    280c:	05510116 	ldrbeq	r0, [r1, #-278]	; 0x116
    2810:	00a0f403 	adceq	pc, r0, r3, lsl #8
    2814:	50011600 	andpl	r1, r1, r0, lsl #12
    2818:	9af80305 	bls	ffe03434 <__bss_end__+0xffdf8d2c>
    281c:	02160000 	andseq	r0, r6, #0
    2820:	0305007d 	movweq	r0, #20605	; 0x507d
    2824:	0000a130 	andeq	sl, r0, r0, lsr r1
    2828:	91e01400 	mvnls	r1, r0, lsl #8
    282c:	06e10000 	strbteq	r0, [r1], r0
    2830:	1b000000 	blne	2838 <__code_start__-0x57c8>
    2834:	00000025 	andeq	r0, r0, r5, lsr #32
    2838:	000003a1 	andeq	r0, r0, r1, lsr #7
    283c:	0000251c 	andeq	r2, r0, ip, lsl r5
    2840:	04050000 	streq	r0, [r5], #-0
    2844:	00000392 	muleq	r0, r2, r3
    2848:	0000251b 	andeq	r2, r0, fp, lsl r5
    284c:	0003b600 	andeq	fp, r3, r0, lsl #12
    2850:	00811c00 	addeq	r1, r1, r0, lsl #24
    2854:	05000000 	streq	r0, [r0, #-0]
    2858:	0003a704 	andeq	sl, r3, r4, lsl #14
    285c:	007a1800 	rsbseq	r1, sl, r0, lsl #16
    2860:	03cc0000 	biceq	r0, ip, #0
    2864:	6b190000 	blvs	64286c <__bss_end__+0x638164>
    2868:	0e000000 	cdpeq	0, 0, cr0, cr0, cr0, {0}
    286c:	03bc0600 			; <UNDEFINED> instruction: 0x03bc0600
    2870:	b91d0000 	ldmdblt	sp, {}	; <UNPREDICTABLE>
    2874:	01000005 	tsteq	r0, r5
    2878:	0000257f 	andeq	r2, r0, pc, ror r5
    287c:	00921400 	addseq	r1, r2, r0, lsl #8
    2880:	0002d400 	andeq	sp, r2, r0, lsl #8
    2884:	899c0100 	ldmibhi	ip, {r8}
    2888:	0b000006 	bleq	28a8 <__code_start__-0x5758>
    288c:	00667562 	rsbeq	r7, r6, r2, ror #10
    2890:	00747f01 	rsbseq	r7, r4, r1, lsl #30
    2894:	0b7d0000 	bleq	1f4289c <__bss_end__+0x1f38194>
    2898:	6e0b0000 	cdpvs	0, 0, cr0, cr11, cr0, {0}
    289c:	257f0100 	ldrbcs	r0, [pc, #-256]!	; 27a4 <__code_start__-0x585c>
    28a0:	a9000000 	stmdbge	r0, {}	; <UNPREDICTABLE>
    28a4:	0b00000b 	bleq	28d8 <__code_start__-0x5728>
    28a8:	00746d66 	rsbseq	r6, r4, r6, ror #26
    28ac:	00817f01 	addeq	r7, r1, r1, lsl #30
    28b0:	0bd70000 	bleq	ff5c28b8 <__bss_end__+0xff5b81b0>
    28b4:	cf0d0000 	svcgt	0x000d0000
    28b8:	0100000a 	tsteq	r0, sl
    28bc:	0000ae7f 	andeq	sl, r0, pc, ror lr
    28c0:	000bf500 	andeq	pc, fp, r0, lsl #10
    28c4:	00701000 	rsbseq	r1, r0, r0
    28c8:	00748001 	rsbseq	r8, r4, r1
    28cc:	0c080000 	stceq	0, cr0, [r8], {-0}
    28d0:	65100000 	ldrvs	r0, [r0, #-0]
    28d4:	74800100 	strvc	r0, [r0], #256	; 0x100
    28d8:	86000000 	strhi	r0, [r0], -r0
    28dc:	1300000c 	movwne	r0, #12
    28e0:	00000675 	andeq	r0, r0, r5, ror r6
    28e4:	00818301 	addeq	r8, r1, r1, lsl #6
    28e8:	0cad0000 	stceq	0, cr0, [sp]
    28ec:	1d110000 	ldcne	0, cr0, [r1, #-0]
    28f0:	99000001 	stmdbls	r0, {r0}
    28f4:	05000006 	streq	r0, [r0, #-6]
    28f8:	00a0e803 	adceq	lr, r0, r3, lsl #16
    28fc:	92701e00 	rsbsls	r1, r0, #0, 28
    2900:	022c0000 	eoreq	r0, ip, #0
    2904:	73100000 	tstvc	r0, #0
    2908:	748e0100 	strvc	r0, [lr], #256	; 0x100
    290c:	cd000000 	stcgt	0, cr0, [r0, #-0]
    2910:	0f00000c 	svceq	0x0000000c
    2914:	006d756e 	rsbeq	r7, sp, lr, ror #10
    2918:	069e8e01 	ldreq	r8, [lr], r1, lsl #28
    291c:	91030000 	mrsls	r0, (UNDEF: 3)
    2920:	c6137ed8 			; <UNDEFINED> instruction: 0xc6137ed8
    2924:	01000006 	tsteq	r0, r6
    2928:	00002c8f 	andeq	r2, r0, pc, lsl #25
    292c:	000d2200 	andeq	r2, sp, r0, lsl #4
    2930:	92a01500 	adcls	r1, r0, #0, 10
    2934:	00b90000 	adcseq	r0, r9, r0
    2938:	04a40000 	strteq	r0, [r4], #0
    293c:	01160000 	tsteq	r6, r0
    2940:	00750250 	rsbseq	r0, r5, r0, asr r2
    2944:	92b41400 	adcsls	r1, r4, #0, 8
    2948:	06c40000 	strbeq	r0, [r4], r0
    294c:	d0150000 	andsle	r0, r5, r0
    2950:	cb000092 	blgt	2ba0 <__code_start__-0x5460>
    2954:	e6000006 	str	r0, [r0], -r6
    2958:	16000004 	strne	r0, [r0], -r4
    295c:	08025301 	stmdaeq	r2, {r0, r8, r9, ip, lr}
    2960:	52011695 	andpl	r1, r1, #156237824	; 0x9500000
    2964:	a0e80305 	rscge	r0, r8, r5, lsl #6
    2968:	01160000 	tsteq	r6, r0
    296c:	f4030551 	vst3.16	{d0,d2,d4}, [r3 :64], r1
    2970:	160000a0 	strne	r0, [r0], -r0, lsr #1
    2974:	03055001 	movweq	r5, #20481	; 0x5001
    2978:	00009af8 	strdeq	r9, [r0], -r8
    297c:	007d0216 	rsbseq	r0, sp, r6, lsl r2
    2980:	a1380305 	teqge	r8, r5, lsl #6
    2984:	14000000 	strne	r0, [r0], #-0
    2988:	000092d4 	ldrdeq	r9, [r0], -r4
    298c:	000006e1 	andeq	r0, r0, r1, ror #13
    2990:	00934414 	addseq	r4, r3, r4, lsl r4
    2994:	0006c400 	andeq	ip, r6, r0, lsl #8
    2998:	93581500 	cmpls	r8, #0, 10
    299c:	06cb0000 	strbeq	r0, [fp], r0
    29a0:	05270000 	streq	r0, [r7, #-0]!
    29a4:	01160000 	tsteq	r6, r0
    29a8:	9b080253 	blls	2032fc <__bss_end__+0x1f8bf4>
    29ac:	05520116 	ldrbeq	r0, [r2, #-278]	; 0x116
    29b0:	00a0e803 	adceq	lr, r0, r3, lsl #16
    29b4:	51011600 	tstpl	r1, r0, lsl #12
    29b8:	a0f40305 	rscsge	r0, r4, r5, lsl #6
    29bc:	01160000 	tsteq	r6, r0
    29c0:	44030550 	strmi	r0, [r3], #-1360	; 0x550
    29c4:	000000a1 	andeq	r0, r0, r1, lsr #1
    29c8:	00935c14 	addseq	r5, r3, r4, lsl ip
    29cc:	0006e100 	andeq	lr, r6, r0, lsl #2
    29d0:	93801500 	orrls	r1, r0, #0, 10
    29d4:	019c0000 	orrseq	r0, ip, r0
    29d8:	055d0000 	ldrbeq	r0, [sp, #-0]
    29dc:	01160000 	tsteq	r6, r0
    29e0:	80080252 	andhi	r0, r8, r2, asr r2
    29e4:	03510116 	cmpeq	r1, #-2147483643	; 0x80000005
    29e8:	167ed091 			; <UNDEFINED> instruction: 0x167ed091
    29ec:	3a015001 	bcc	569f8 <__bss_end__+0x4c2f0>
    29f0:	047d0216 	ldrbteq	r0, [sp], #-534	; 0x216
    29f4:	02163101 	andseq	r3, r6, #1073741824	; 0x40000000
    29f8:	7702007d 	smlsdxvc	r2, sp, r0, r0
    29fc:	a8150000 	ldmdage	r5, {}	; <UNPREDICTABLE>
    2a00:	9c000093 	stcls	0, cr0, [r0], {147}	; 0x93
    2a04:	8a000001 	bhi	2a10 <__code_start__-0x55f0>
    2a08:	16000005 	strne	r0, [r0], -r5
    2a0c:	08025201 	stmdaeq	r2, {r0, r9, ip, lr}
    2a10:	51011680 	smlabbpl	r1, r0, r6, r1
    2a14:	7ed09103 	atnvcs	f1, f3
    2a18:	01500116 	cmpeq	r0, r6, lsl r1
    2a1c:	7d02163a 	stcvc	6, cr1, [r2, #-232]	; 0xffffff18
    2a20:	16300104 	ldrtne	r0, [r0], -r4, lsl #2
    2a24:	02007d02 	andeq	r7, r0, #2, 26	; 0x80
    2a28:	15000077 	strne	r0, [r0, #-119]	; 0x77
    2a2c:	000093d0 	ldrdeq	r9, [r0], -r0
    2a30:	0000019c 	muleq	r0, ip, r1
    2a34:	000005b7 			; <UNDEFINED> instruction: 0x000005b7
    2a38:	02520116 	subseq	r0, r2, #-2147483643	; 0x80000005
    2a3c:	01168008 	tsteq	r6, r8
    2a40:	d0910351 	addsle	r0, r1, r1, asr r3
    2a44:	5001167e 	andpl	r1, r1, lr, ror r6
    2a48:	02164001 	andseq	r4, r6, #1
    2a4c:	3001047d 	andcc	r0, r1, sp, ror r4
    2a50:	007d0216 	rsbseq	r0, sp, r6, lsl r2
    2a54:	00007702 	andeq	r7, r0, r2, lsl #14
    2a58:	0093f815 	addseq	pc, r3, r5, lsl r8	; <UNPREDICTABLE>
    2a5c:	00019c00 	andeq	r9, r1, r0, lsl #24
    2a60:	0005e400 	andeq	lr, r5, r0, lsl #8
    2a64:	52011600 	andpl	r1, r1, #0, 12
    2a68:	16800802 	strne	r0, [r0], r2, lsl #16
    2a6c:	91035101 	tstls	r3, r1, lsl #2
    2a70:	01167ed0 			; <UNDEFINED> instruction: 0x01167ed0
    2a74:	16320150 			; <UNDEFINED> instruction: 0x16320150
    2a78:	01047d02 	tsteq	r4, r2, lsl #26
    2a7c:	7d021630 	stcvc	6, cr1, [r2, #-192]	; 0xffffff40
    2a80:	00770200 	rsbseq	r0, r7, r0, lsl #4
    2a84:	942c1500 	strtls	r1, [ip], #-1280	; 0x500
    2a88:	019c0000 	orrseq	r0, ip, r0
    2a8c:	06110000 	ldreq	r0, [r1], -r0
    2a90:	01160000 	tsteq	r6, r0
    2a94:	80080252 	andhi	r0, r8, r2, asr r2
    2a98:	03510116 	cmpeq	r1, #-2147483643	; 0x80000005
    2a9c:	167ed091 			; <UNDEFINED> instruction: 0x167ed091
    2aa0:	38015001 	stmdacc	r1, {r0, ip, lr}
    2aa4:	047d0216 	ldrbteq	r0, [sp], #-534	; 0x216
    2aa8:	02163001 	andseq	r3, r6, #1
    2aac:	7702007d 	smlsdxvc	r2, sp, r0, r0
    2ab0:	48150000 	ldmdami	r5, {}	; <UNPREDICTABLE>
    2ab4:	cb000094 	blgt	2d0c <__code_start__-0x52f4>
    2ab8:	34000006 	strcc	r0, [r0], #-6
    2abc:	16000006 	strne	r0, [r0], -r6
    2ac0:	79025201 	stmdbvc	r2, {r0, r9, ip, lr}
    2ac4:	51011600 	tstpl	r1, r0, lsl #12
    2ac8:	16007902 	strne	r7, [r0], -r2, lsl #18
    2acc:	03055001 	movweq	r5, #20481	; 0x5001
    2ad0:	0000a16c 	andeq	sl, r0, ip, ror #2
    2ad4:	94581f00 	ldrbls	r1, [r8], #-3840	; 0xf00
    2ad8:	06460000 	strbeq	r0, [r6], -r0
    2adc:	01160000 	tsteq	r6, r0
    2ae0:	cc910450 	cfldrsgt	mvf0, [r1], {80}	; 0x50
    2ae4:	1400067e 	strne	r0, [r0], #-1662	; 0x67e
    2ae8:	0000945c 	andeq	r9, r0, ip, asr r4
    2aec:	000006c4 	andeq	r0, r0, r4, asr #13
    2af0:	00947015 	addseq	r7, r4, r5, lsl r0
    2af4:	0006cb00 	andeq	ip, r6, r0, lsl #22
    2af8:	00067e00 	andeq	r7, r6, r0, lsl #28
    2afc:	53011600 	movwpl	r1, #5632	; 0x1600
    2b00:	16bf0802 	ldrtne	r0, [pc], r2, lsl #16
    2b04:	03055201 	movweq	r5, #20993	; 0x5201
    2b08:	0000a0e8 	andeq	sl, r0, r8, ror #1
    2b0c:	05510116 	ldrbeq	r0, [r1, #-278]	; 0x116
    2b10:	00a0f403 	adceq	pc, r0, r3, lsl #8
    2b14:	50011600 	andpl	r1, r1, r0, lsl #12
    2b18:	a19c0305 	orrsge	r0, ip, r5, lsl #6
    2b1c:	14000000 	strne	r0, [r0], #-0
    2b20:	00009474 	andeq	r9, r0, r4, ror r4
    2b24:	000006e1 	andeq	r0, r0, r1, ror #13
    2b28:	7a180000 	bvc	602b30 <__bss_end__+0x5f8428>
    2b2c:	99000000 	stmdbls	r0, {}	; <UNPREDICTABLE>
    2b30:	19000006 	stmdbne	r0, {r1, r2}
    2b34:	0000006b 	andeq	r0, r0, fp, rrx
    2b38:	89060009 	stmdbhi	r6, {r0, r3}
    2b3c:	18000006 	stmdane	r0, {r1, r2}
    2b40:	0000007a 	andeq	r0, r0, sl, ror r0
    2b44:	000006ae 	andeq	r0, r0, lr, lsr #13
    2b48:	00006b19 	andeq	r6, r0, r9, lsl fp
    2b4c:	20007f00 	andcs	r7, r0, r0, lsl #30
    2b50:	00000633 	andeq	r0, r0, r3, lsr r6
    2b54:	03a11d03 			; <UNDEFINED> instruction: 0x03a11d03
    2b58:	70200000 	eorvc	r0, r0, r0
    2b5c:	03000006 	movweq	r0, #6
    2b60:	0003b622 	andeq	fp, r3, r2, lsr #12
    2b64:	02692100 	rsbeq	r2, r9, #0, 2
    2b68:	1e030000 	cdpne	0, 0, cr0, cr3, cr0, {0}
    2b6c:	0005bc22 	andeq	fp, r5, r2, lsr #24
    2b70:	25290300 	strcs	r0, [r9, #-768]!	; 0x300
    2b74:	e1000000 	mrs	r0, (UNDEF: 0)
    2b78:	1c000006 	stcne	0, cr0, [r0], {6}
    2b7c:	00000081 	andeq	r0, r0, r1, lsl #1
    2b80:	db210023 	blle	842c14 <__bss_end__+0x83850c>
    2b84:	03000000 	movweq	r0, #0
    2b88:	00b80065 	adcseq	r0, r8, r5, rrx
    2b8c:	00040000 	andeq	r0, r4, r0
    2b90:	00000c36 	andeq	r0, r0, r6, lsr ip
    2b94:	05620104 	strbeq	r0, [r2, #-260]!	; 0x104
    2b98:	e7010000 	str	r0, [r1, -r0]
    2b9c:	cd000006 	stcgt	0, cr0, [r0, #-24]	; 0xffffffe8
    2ba0:	e8000005 	stmda	r0, {r0, r2}
    2ba4:	20000094 	mulcs	r0, r4, r0
    2ba8:	1c000000 	stcne	0, cr0, [r0], {-0}
    2bac:	0200000a 	andeq	r0, r0, #10
    2bb0:	6e690504 	cdpvs	5, 6, cr0, cr9, cr4, {0}
    2bb4:	04030074 	streq	r0, [r3], #-116	; 0x74
    2bb8:	00016c07 	andeq	r6, r1, r7, lsl #24
    2bbc:	06010300 	streq	r0, [r1], -r0, lsl #6
    2bc0:	000000cf 	andeq	r0, r0, pc, asr #1
    2bc4:	13050203 	movwne	r0, #20995	; 0x5203
    2bc8:	03000001 	movweq	r0, #1
    2bcc:	019c0504 	orrseq	r0, ip, r4, lsl #10
    2bd0:	08030000 	stmdaeq	r3, {}	; <UNPREDICTABLE>
    2bd4:	00019705 	andeq	r9, r1, r5, lsl #14
    2bd8:	08010300 	stmdaeq	r1, {r8, r9}
    2bdc:	000000cd 	andeq	r0, r0, sp, asr #1
    2be0:	e8070203 	stmda	r7, {r0, r1, r9}
    2be4:	03000000 	movweq	r0, #0
    2be8:	01670704 	cmneq	r7, r4, lsl #14
    2bec:	08030000 	stmdaeq	r3, {}	; <UNPREDICTABLE>
    2bf0:	00016207 	andeq	r6, r1, r7, lsl #4
    2bf4:	07040300 	streq	r0, [r4, -r0, lsl #6]
    2bf8:	0000018e 	andeq	r0, r0, lr, lsl #3
    2bfc:	d6080103 	strle	r0, [r8], -r3, lsl #2
    2c00:	04000000 	streq	r0, [r0], #-0
    2c04:	000001bc 			; <UNDEFINED> instruction: 0x000001bc
    2c08:	94e80301 	strbtls	r0, [r8], #769	; 0x301
    2c0c:	00100000 	andseq	r0, r0, r0
    2c10:	9c010000 	stcls	0, cr0, [r1], {-0}
    2c14:	0000009c 	muleq	r0, ip, r0
    2c18:	01007205 	tsteq	r0, r5, lsl #4
    2c1c:	00002c04 	andeq	r2, r0, r4, lsl #24
    2c20:	000d4c00 	andeq	r4, sp, r0, lsl #24
    2c24:	d9060000 	stmdble	r6, {}	; <UNPREDICTABLE>
    2c28:	01000006 	tsteq	r0, r6
    2c2c:	0094f80c 	addseq	pc, r4, ip, lsl #16
    2c30:	00001000 	andeq	r1, r0, r0
    2c34:	059c0100 	ldreq	r0, [ip, #256]	; 0x100
    2c38:	0d010072 	stceq	0, cr0, [r1, #-456]	; 0xfffffe38
    2c3c:	0000002c 	andeq	r0, r0, ip, lsr #32
    2c40:	00000d70 	andeq	r0, r0, r0, ror sp
    2c44:	010f0000 	mrseq	r0, CPSR
    2c48:	00040000 	andeq	r0, r4, r0
    2c4c:	00000ca1 	andeq	r0, r0, r1, lsr #25
    2c50:	05620104 	strbeq	r0, [r2, #-260]!	; 0x104
    2c54:	08010000 	stmdaeq	r1, {}	; <UNPREDICTABLE>
    2c58:	cd000007 	stcgt	0, cr0, [r0, #-28]	; 0xffffffe4
    2c5c:	08000005 	stmdaeq	r0, {r0, r2}
    2c60:	2c000095 	stccs	0, cr0, [r0], {149}	; 0x95
    2c64:	62000000 	andvs	r0, r0, #0
    2c68:	0200000a 	andeq	r0, r0, #10
    2c6c:	6e690504 	cdpvs	5, 6, cr0, cr9, cr4, {0}
    2c70:	04030074 	streq	r0, [r3], #-116	; 0x74
    2c74:	00016c07 	andeq	r6, r1, r7, lsl #24
    2c78:	06010300 	streq	r0, [r1], -r0, lsl #6
    2c7c:	000000cf 	andeq	r0, r0, pc, asr #1
    2c80:	13050203 	movwne	r0, #20995	; 0x5203
    2c84:	03000001 	movweq	r0, #1
    2c88:	019c0504 	orrseq	r0, ip, r4, lsl #10
    2c8c:	08030000 	stmdaeq	r3, {}	; <UNPREDICTABLE>
    2c90:	00019705 	andeq	r9, r1, r5, lsl #14
    2c94:	08010300 	stmdaeq	r1, {r8, r9}
    2c98:	000000cd 	andeq	r0, r0, sp, asr #1
    2c9c:	e8070203 	stmda	r7, {r0, r1, r9}
    2ca0:	03000000 	movweq	r0, #0
    2ca4:	01670704 	cmneq	r7, r4, lsl #14
    2ca8:	08030000 	stmdaeq	r3, {}	; <UNPREDICTABLE>
    2cac:	00016207 	andeq	r6, r1, r7, lsl #4
    2cb0:	07040300 	streq	r0, [r4, -r0, lsl #6]
    2cb4:	0000018e 	andeq	r0, r0, lr, lsl #3
    2cb8:	d6080103 	strle	r0, [r8], -r3, lsl #2
    2cbc:	04000000 	streq	r0, [r0], #-0
    2cc0:	00007f04 	andeq	r7, r0, r4, lsl #30
    2cc4:	00720500 	rsbseq	r0, r2, r0, lsl #10
    2cc8:	db060000 	blle	182cd0 <__bss_end__+0x1785c8>
    2ccc:	01000000 	mrseq	r0, (UNDEF: 0)
    2cd0:	00950804 	addseq	r0, r5, r4, lsl #16
    2cd4:	00002c00 	andeq	r2, r0, r0, lsl #24
    2cd8:	d39c0100 	orrsle	r0, ip, #0, 2
    2cdc:	07000000 	streq	r0, [r0, -r0]
    2ce0:	00009510 	andeq	r9, r0, r0, lsl r5
    2ce4:	000000f3 	strdeq	r0, [r0], -r3
    2ce8:	00952008 	addseq	r2, r5, r8
    2cec:	0000b500 	andeq	fp, r0, r0, lsl #10
    2cf0:	50010900 	andpl	r0, r1, r0, lsl #18
    2cf4:	a1bc0305 			; <UNDEFINED> instruction: 0xa1bc0305
    2cf8:	0a000000 	beq	2d00 <__code_start__-0x5300>
    2cfc:	00009528 	andeq	r9, r0, r8, lsr #10
    2d00:	000000fa 	strdeq	r0, [r0], -sl
    2d04:	000000c9 	andeq	r0, r0, r9, asr #1
    2d08:	02500109 	subseq	r0, r0, #1073741826	; 0x40000002
    2d0c:	07006408 	streq	r6, [r0, -r8, lsl #8]
    2d10:	0000952c 	andeq	r9, r0, ip, lsr #10
    2d14:	0000010b 	andeq	r0, r0, fp, lsl #2
    2d18:	00250b00 	eoreq	r0, r5, r0, lsl #22
    2d1c:	00e20000 	rsceq	r0, r2, r0
    2d20:	790c0000 	stmdbvc	ip, {}	; <UNPREDICTABLE>
    2d24:	00000000 	andeq	r0, r0, r0
    2d28:	0006700d 	andeq	r7, r6, sp
    2d2c:	ed220200 	sfm	f0, 4, [r2, #-0]
    2d30:	04000000 	streq	r0, [r0], #-0
    2d34:	0000d304 	andeq	sp, r0, r4, lsl #6
    2d38:	06f90e00 	ldrbteq	r0, [r9], r0, lsl #28
    2d3c:	dc020000 	stcle	0, cr0, [r2], {-0}
    2d40:	00072c0f 	andeq	r2, r7, pc, lsl #24
    2d44:	0b4f0200 	bleq	13c354c <__bss_end__+0x13b8e44>
    2d48:	0c000001 	stceq	0, cr0, [r0], {1}
    2d4c:	0000002c 	andeq	r0, r0, ip, lsr #32
    2d50:	07210e00 	streq	r0, [r1, -r0, lsl #28]!
    2d54:	62020000 	andvs	r0, r2, #0
    2d58:	00010f00 	andeq	r0, r1, r0, lsl #30
    2d5c:	6b000400 	blvs	3d64 <__code_start__-0x429c>
    2d60:	0400000d 	streq	r0, [r0], #-13
    2d64:	00056201 	andeq	r6, r5, r1, lsl #4
    2d68:	076e0100 	strbeq	r0, [lr, -r0, lsl #2]!
    2d6c:	05cd0000 	strbeq	r0, [sp]
    2d70:	95340000 	ldrls	r0, [r4, #-0]!
    2d74:	00380000 	eorseq	r0, r8, r0
    2d78:	0b030000 	bleq	c2d80 <__bss_end__+0xb8678>
    2d7c:	04020000 	streq	r0, [r2], #-0
    2d80:	746e6905 	strbtvc	r6, [lr], #-2309	; 0x905
    2d84:	07040300 	streq	r0, [r4, -r0, lsl #6]
    2d88:	0000016c 	andeq	r0, r0, ip, ror #2
    2d8c:	cf060103 	svcgt	0x00060103
    2d90:	03000000 	movweq	r0, #0
    2d94:	01130502 	tsteq	r3, r2, lsl #10
    2d98:	04030000 	streq	r0, [r3], #-0
    2d9c:	00019c05 	andeq	r9, r1, r5, lsl #24
    2da0:	05080300 	streq	r0, [r8, #-768]	; 0x300
    2da4:	00000197 	muleq	r0, r7, r1
    2da8:	cd080103 	stfgts	f0, [r8, #-12]
    2dac:	03000000 	movweq	r0, #0
    2db0:	00e80702 	rsceq	r0, r8, r2, lsl #14
    2db4:	04030000 	streq	r0, [r3], #-0
    2db8:	00016707 	andeq	r6, r1, r7, lsl #14
    2dbc:	07080300 	streq	r0, [r8, -r0, lsl #6]
    2dc0:	00000162 	andeq	r0, r0, r2, ror #2
    2dc4:	8e070403 	cdphi	4, 0, cr0, cr7, cr3, {0}
    2dc8:	03000001 	movweq	r0, #1
    2dcc:	00d60801 	sbcseq	r0, r6, r1, lsl #16
    2dd0:	66040000 	strvs	r0, [r4], -r0
    2dd4:	01000007 	tsteq	r0, r7
    2dd8:	0095340d 	addseq	r3, r5, sp, lsl #8
    2ddc:	00003800 	andeq	r3, r0, r0, lsl #16
    2de0:	e19c0100 	orrs	r0, ip, r0, lsl #2
    2de4:	05000000 	streq	r0, [r0, #-0]
    2de8:	00000735 	andeq	r0, r0, r5, lsr r7
    2dec:	00250e01 	eoreq	r0, r5, r1, lsl #28
    2df0:	43050000 	movwmi	r0, #20480	; 0x5000
    2df4:	01000007 	tsteq	r0, r7
    2df8:	0000250e 	andeq	r2, r0, lr, lsl #10
    2dfc:	00330600 	eorseq	r0, r3, r0, lsl #12
    2e00:	0f010000 	svceq	0x00010000
    2e04:	73736207 	cmnvc	r3, #1879048192	; 0x70000000
    2e08:	e1110100 	tst	r1, r0, lsl #2
    2e0c:	94000000 	strls	r0, [r0], #-0
    2e10:	0800000d 	stmdaeq	r0, {r0, r2, r3}
    2e14:	0000075e 	andeq	r0, r0, lr, asr r7
    2e18:	00e11201 	rsceq	r1, r1, r1, lsl #4
    2e1c:	5c090000 	stcpl	0, cr0, [r9], {-0}
    2e20:	fd000095 	stc2	0, cr0, [r0, #-596]	; 0xfffffdac
    2e24:	09000000 	stmdbeq	r0, {}	; <UNPREDICTABLE>
    2e28:	00009560 	andeq	r9, r0, r0, ror #10
    2e2c:	00000104 	andeq	r0, r0, r4, lsl #2
    2e30:	00956409 	addseq	r6, r5, r9, lsl #8
    2e34:	00010b00 	andeq	r0, r1, r0, lsl #22
    2e38:	040a0000 	streq	r0, [sl], #-0
    2e3c:	00000025 	andeq	r0, r0, r5, lsr #32
    2e40:	00073505 	andeq	r3, r7, r5, lsl #10
    2e44:	250e0100 	strcs	r0, [lr, #-256]	; 0x100
    2e48:	05000000 	streq	r0, [r0, #-0]
    2e4c:	00000743 	andeq	r0, r0, r3, asr #14
    2e50:	00250e01 	eoreq	r0, r5, r1, lsl #28
    2e54:	4f060000 	svcmi	0x00060000
    2e58:	02000007 	andeq	r0, r0, #7
    2e5c:	003306da 	ldrsbteq	r0, [r3], -sl
    2e60:	d7020000 	strle	r0, [r2, -r0]
    2e64:	0000db06 	andeq	sp, r0, r6, lsl #22
    2e68:	00650200 	rsbeq	r0, r5, r0, lsl #4
    2e6c:	0000013e 	andeq	r0, r0, lr, lsr r1
    2e70:	0dff0004 	ldcleq	0, cr0, [pc, #16]!	; 2e88 <__code_start__-0x5178>
    2e74:	01040000 	mrseq	r0, (UNDEF: 4)
    2e78:	00000562 	andeq	r0, r0, r2, ror #10
    2e7c:	00078101 	andeq	r8, r7, r1, lsl #2
    2e80:	0005cd00 	andeq	ip, r5, r0, lsl #26
    2e84:	00956c00 	addseq	r6, r5, r0, lsl #24
    2e88:	00004400 	andeq	r4, r0, r0, lsl #8
    2e8c:	000bad00 	andeq	sl, fp, r0, lsl #26
    2e90:	05040200 	streq	r0, [r4, #-512]	; 0x200
    2e94:	00746e69 	rsbseq	r6, r4, r9, ror #28
    2e98:	6c070403 	cfstrsvs	mvf0, [r7], {3}
    2e9c:	03000001 	movweq	r0, #1
    2ea0:	00cf0601 	sbceq	r0, pc, r1, lsl #12
    2ea4:	02030000 	andeq	r0, r3, #0
    2ea8:	00011305 	andeq	r1, r1, r5, lsl #6
    2eac:	05040300 	streq	r0, [r4, #-768]	; 0x300
    2eb0:	0000019c 	muleq	r0, ip, r1
    2eb4:	97050803 	strls	r0, [r5, -r3, lsl #16]
    2eb8:	03000001 	movweq	r0, #1
    2ebc:	00cd0801 	sbceq	r0, sp, r1, lsl #16
    2ec0:	02030000 	andeq	r0, r3, #0
    2ec4:	0000e807 	andeq	lr, r0, r7, lsl #16
    2ec8:	07040300 	streq	r0, [r4, -r0, lsl #6]
    2ecc:	00000167 	andeq	r0, r0, r7, ror #2
    2ed0:	62070803 	andvs	r0, r7, #196608	; 0x30000
    2ed4:	03000001 	movweq	r0, #1
    2ed8:	018e0704 	orreq	r0, lr, r4, lsl #14
    2edc:	01030000 	mrseq	r0, (UNDEF: 3)
    2ee0:	0000d608 	andeq	sp, r0, r8, lsl #12
    2ee4:	7f040400 	svcvc	0x00040400
    2ee8:	05000000 	streq	r0, [r0, #-0]
    2eec:	00000072 	andeq	r0, r0, r2, ror r0
    2ef0:	0007a206 	andeq	sl, r7, r6, lsl #4
    2ef4:	6c020100 	stfvss	f0, [r2], {-0}
    2ef8:	44000095 	strmi	r0, [r0], #-149	; 0x95
    2efc:	01000000 	mrseq	r0, (UNDEF: 0)
    2f00:	0001089c 	muleq	r1, ip, r8
    2f04:	63700700 	cmnvs	r0, #0, 14
    2f08:	2c020100 	stfcss	f0, [r2], {-0}
    2f0c:	b4000000 	strlt	r0, [r0], #-0
    2f10:	0800000d 	stmdaeq	r0, {r0, r2, r3}
    2f14:	0000011d 	andeq	r0, r0, sp, lsl r1
    2f18:	00000118 	andeq	r0, r0, r8, lsl r1
    2f1c:	a1c80305 	bicge	r0, r8, r5, lsl #6
    2f20:	7c090000 	stcvc	0, cr0, [r9], {-0}
    2f24:	1d000095 	stcne	0, cr0, [r0, #-596]	; 0xfffffdac
    2f28:	0a000001 	beq	2f34 <__code_start__-0x50cc>
    2f2c:	0000959c 	muleq	r0, ip, r5
    2f30:	00000124 	andeq	r0, r0, r4, lsr #2
    2f34:	000000fe 	strdeq	r0, [r0], -lr
    2f38:	0153010b 	cmpeq	r3, fp, lsl #2
    2f3c:	52010b32 	andpl	r0, r1, #51200	; 0xc800
    2f40:	a1c80305 	bicge	r0, r8, r5, lsl #6
    2f44:	010b0000 	mrseq	r0, (UNDEF: 11)
    2f48:	1c030551 	cfstr32ne	mvfx0, [r3], {81}	; 0x51
    2f4c:	0b0000a2 	bleq	31dc <__code_start__-0x4e24>
    2f50:	03055001 	movweq	r5, #20481	; 0x5001
    2f54:	0000a1e0 	andeq	sl, r0, r0, ror #3
    2f58:	047d020b 	ldrbteq	r0, [sp], #-523	; 0x20b
    2f5c:	0b007402 	bleq	1ff6c <__bss_end__+0x15864>
    2f60:	05007d02 	streq	r7, [r0, #-3330]	; 0xd02
    2f64:	00a24003 	adceq	r4, r2, r3
    2f68:	a0090000 	andge	r0, r9, r0
    2f6c:	3a000095 	bcc	31c8 <__code_start__-0x4e38>
    2f70:	00000001 	andeq	r0, r0, r1
    2f74:	0000720c 	andeq	r7, r0, ip, lsl #4
    2f78:	00011800 	andeq	r1, r1, r0, lsl #16
    2f7c:	006b0d00 	rsbeq	r0, fp, r0, lsl #26
    2f80:	00150000 	andseq	r0, r5, r0
    2f84:	00010805 	andeq	r0, r1, r5, lsl #16
    2f88:	02690e00 	rsbeq	r0, r9, #0, 28
    2f8c:	1e020000 	cdpne	0, 0, cr0, cr2, cr0, {0}
    2f90:	0005bc0f 	andeq	fp, r5, pc, lsl #24
    2f94:	25290200 	strcs	r0, [r9, #-512]!	; 0x200
    2f98:	3a000000 	bcc	2fa0 <__code_start__-0x5060>
    2f9c:	10000001 	andne	r0, r0, r1
    2fa0:	00000079 	andeq	r0, r0, r9, ror r0
    2fa4:	db0e0011 	blle	382ff0 <__bss_end__+0x3788e8>
    2fa8:	02000000 	andeq	r0, r0, #0
    2fac:	013e0065 	teqeq	lr, r5, rrx
    2fb0:	00040000 	andeq	r0, r4, r0
    2fb4:	00000ed7 	ldrdeq	r0, [r0], -r7
    2fb8:	05620104 	strbeq	r0, [r2, #-260]!	; 0x104
    2fbc:	c5010000 	strgt	r0, [r1, #-0]
    2fc0:	cd000007 	stcgt	0, cr0, [r0, #-28]	; 0xffffffe4
    2fc4:	b0000005 	andlt	r0, r0, r5
    2fc8:	44000095 	strmi	r0, [r0], #-149	; 0x95
    2fcc:	53000000 	movwpl	r0, #0
    2fd0:	0200000c 	andeq	r0, r0, #12
    2fd4:	6e690504 	cdpvs	5, 6, cr0, cr9, cr4, {0}
    2fd8:	04030074 	streq	r0, [r3], #-116	; 0x74
    2fdc:	00016c07 	andeq	r6, r1, r7, lsl #24
    2fe0:	06010300 	streq	r0, [r1], -r0, lsl #6
    2fe4:	000000cf 	andeq	r0, r0, pc, asr #1
    2fe8:	13050203 	movwne	r0, #20995	; 0x5203
    2fec:	03000001 	movweq	r0, #1
    2ff0:	019c0504 	orrseq	r0, ip, r4, lsl #10
    2ff4:	08030000 	stmdaeq	r3, {}	; <UNPREDICTABLE>
    2ff8:	00019705 	andeq	r9, r1, r5, lsl #14
    2ffc:	08010300 	stmdaeq	r1, {r8, r9}
    3000:	000000cd 	andeq	r0, r0, sp, asr #1
    3004:	e8070203 	stmda	r7, {r0, r1, r9}
    3008:	03000000 	movweq	r0, #0
    300c:	01670704 	cmneq	r7, r4, lsl #14
    3010:	08030000 	stmdaeq	r3, {}	; <UNPREDICTABLE>
    3014:	00016207 	andeq	r6, r1, r7, lsl #4
    3018:	07040300 	streq	r0, [r4, -r0, lsl #6]
    301c:	0000018e 	andeq	r0, r0, lr, lsl #3
    3020:	d6080103 	strle	r0, [r8], -r3, lsl #2
    3024:	04000000 	streq	r0, [r0], #-0
    3028:	00007f04 	andeq	r7, r0, r4, lsl #30
    302c:	00720500 	rsbseq	r0, r2, r0, lsl #10
    3030:	b8060000 	stmdalt	r6, {}	; <UNPREDICTABLE>
    3034:	01000007 	tsteq	r0, r7
    3038:	0095b002 	addseq	fp, r5, r2
    303c:	00004400 	andeq	r4, r0, r0, lsl #8
    3040:	089c0100 	ldmeq	ip, {r8}
    3044:	07000001 	streq	r0, [r0, -r1]
    3048:	01006370 	tsteq	r0, r0, ror r3
    304c:	00002c02 	andeq	r2, r0, r2, lsl #24
    3050:	000dd200 	andeq	sp, sp, r0, lsl #4
    3054:	011d0800 	tsteq	sp, r0, lsl #16
    3058:	01180000 	tsteq	r8, r0
    305c:	03050000 	movweq	r0, #20480	; 0x5000
    3060:	0000a248 	andeq	sl, r0, r8, asr #4
    3064:	0095c009 	addseq	ip, r5, r9
    3068:	00011d00 	andeq	r1, r1, r0, lsl #26
    306c:	95e00a00 	strbls	r0, [r0, #2560]!	; 0xa00
    3070:	01240000 	teqeq	r4, r0
    3074:	00fe0000 	rscseq	r0, lr, r0
    3078:	010b0000 	mrseq	r0, (UNDEF: 11)
    307c:	0b320153 	bleq	c835d0 <__bss_end__+0xc78ec8>
    3080:	03055201 	movweq	r5, #20993	; 0x5201
    3084:	0000a248 	andeq	sl, r0, r8, asr #4
    3088:	0551010b 	ldrbeq	r0, [r1, #-267]	; 0x10b
    308c:	00a25803 	adceq	r5, r2, r3, lsl #16
    3090:	50010b00 	andpl	r0, r1, r0, lsl #22
    3094:	a1e00305 	mvnge	r0, r5, lsl #6
    3098:	020b0000 	andeq	r0, fp, #0
    309c:	7402047d 	strvc	r0, [r2], #-1149	; 0x47d
    30a0:	7d020b00 	vstrvc	d0, [r2, #-0]
    30a4:	7c030500 	cfstr32vc	mvfx0, [r3], {-0}
    30a8:	000000a2 	andeq	r0, r0, r2, lsr #1
    30ac:	0095e409 	addseq	lr, r5, r9, lsl #8
    30b0:	00013a00 	andeq	r3, r1, r0, lsl #20
    30b4:	720c0000 	andvc	r0, ip, #0
    30b8:	18000000 	stmdane	r0, {}	; <UNPREDICTABLE>
    30bc:	0d000001 	stceq	0, cr0, [r0, #-4]
    30c0:	0000006b 	andeq	r0, r0, fp, rrx
    30c4:	0805000c 	stmdaeq	r5, {r2, r3}
    30c8:	0e000001 	cdpeq	0, 0, cr0, cr0, cr1, {0}
    30cc:	00000269 	andeq	r0, r0, r9, ror #4
    30d0:	bc0f1e02 	stclt	14, cr1, [pc], {2}
    30d4:	02000005 	andeq	r0, r0, #5
    30d8:	00002529 	andeq	r2, r0, r9, lsr #10
    30dc:	00013a00 	andeq	r3, r1, r0, lsl #20
    30e0:	00791000 	rsbseq	r1, r9, r0
    30e4:	00110000 	andseq	r0, r1, r0
    30e8:	0000db0e 	andeq	sp, r0, lr, lsl #22
    30ec:	00650200 	rsbeq	r0, r5, r0, lsl #4
    30f0:	0000013e 	andeq	r0, r0, lr, lsr r1
    30f4:	0faf0004 	svceq	0x00af0004
    30f8:	01040000 	mrseq	r0, (UNDEF: 4)
    30fc:	00000562 	andeq	r0, r0, r2, ror #10
    3100:	0007e701 	andeq	lr, r7, r1, lsl #14
    3104:	0005cd00 	andeq	ip, r5, r0, lsl #26
    3108:	0095f400 	addseq	pc, r5, r0, lsl #8
    310c:	00004400 	andeq	r4, r0, r0, lsl #8
    3110:	000cfa00 	andeq	pc, ip, r0, lsl #20
    3114:	05040200 	streq	r0, [r4, #-512]	; 0x200
    3118:	00746e69 	rsbseq	r6, r4, r9, ror #28
    311c:	6c070403 	cfstrsvs	mvf0, [r7], {3}
    3120:	03000001 	movweq	r0, #1
    3124:	00cf0601 	sbceq	r0, pc, r1, lsl #12
    3128:	02030000 	andeq	r0, r3, #0
    312c:	00011305 	andeq	r1, r1, r5, lsl #6
    3130:	05040300 	streq	r0, [r4, #-768]	; 0x300
    3134:	0000019c 	muleq	r0, ip, r1
    3138:	97050803 	strls	r0, [r5, -r3, lsl #16]
    313c:	03000001 	movweq	r0, #1
    3140:	00cd0801 	sbceq	r0, sp, r1, lsl #16
    3144:	02030000 	andeq	r0, r3, #0
    3148:	0000e807 	andeq	lr, r0, r7, lsl #16
    314c:	07040300 	streq	r0, [r4, -r0, lsl #6]
    3150:	00000167 	andeq	r0, r0, r7, ror #2
    3154:	62070803 	andvs	r0, r7, #196608	; 0x30000
    3158:	03000001 	movweq	r0, #1
    315c:	018e0704 	orreq	r0, lr, r4, lsl #14
    3160:	01030000 	mrseq	r0, (UNDEF: 3)
    3164:	0000d608 	andeq	sp, r0, r8, lsl #12
    3168:	7f040400 	svcvc	0x00040400
    316c:	05000000 	streq	r0, [r0, #-0]
    3170:	00000072 	andeq	r0, r0, r2, ror r0
    3174:	00081206 	andeq	r1, r8, r6, lsl #4
    3178:	f4020100 	vst4.8	{d0,d2,d4,d6}, [r2], r0
    317c:	44000095 	strmi	r0, [r0], #-149	; 0x95
    3180:	01000000 	mrseq	r0, (UNDEF: 0)
    3184:	0001089c 	muleq	r1, ip, r8
    3188:	63700700 	cmnvs	r0, #0, 14
    318c:	2c020100 	stfcss	f0, [r2], {-0}
    3190:	f0000000 			; <UNDEFINED> instruction: 0xf0000000
    3194:	0800000d 	stmdaeq	r0, {r0, r2, r3}
    3198:	0000011d 	andeq	r0, r0, sp, lsl r1
    319c:	00000118 	andeq	r0, r0, r8, lsl r1
    31a0:	a2840305 	addge	r0, r4, #335544320	; 0x14000000
    31a4:	04090000 	streq	r0, [r9], #-0
    31a8:	1d000096 	stcne	0, cr0, [r0, #-600]	; 0xfffffda8
    31ac:	0a000001 	beq	31b8 <__code_start__-0x4e48>
    31b0:	00009624 	andeq	r9, r0, r4, lsr #12
    31b4:	00000124 	andeq	r0, r0, r4, lsr #2
    31b8:	000000fe 	strdeq	r0, [r0], -lr
    31bc:	0153010b 	cmpeq	r3, fp, lsl #2
    31c0:	52010b32 	andpl	r0, r1, #51200	; 0xc800
    31c4:	a2840305 	addge	r0, r4, #335544320	; 0x14000000
    31c8:	010b0000 	mrseq	r0, (UNDEF: 11)
    31cc:	a4030551 	strge	r0, [r3], #-1361	; 0x551
    31d0:	0b0000a2 	bleq	3460 <__code_start__-0x4ba0>
    31d4:	03055001 	movweq	r5, #20481	; 0x5001
    31d8:	0000a1e0 	andeq	sl, r0, r0, ror #3
    31dc:	047d020b 	ldrbteq	r0, [sp], #-523	; 0x20b
    31e0:	0b007402 	bleq	201f0 <__bss_end__+0x15ae8>
    31e4:	05007d02 	streq	r7, [r0, #-3330]	; 0xd02
    31e8:	00a2d003 	adceq	sp, r2, r3
    31ec:	28090000 	stmdacs	r9, {}	; <UNPREDICTABLE>
    31f0:	3a000096 	bcc	3450 <__code_start__-0x4bb0>
    31f4:	00000001 	andeq	r0, r0, r1
    31f8:	0000720c 	andeq	r7, r0, ip, lsl #4
    31fc:	00011800 	andeq	r1, r1, r0, lsl #16
    3200:	006b0d00 	rsbeq	r0, fp, r0, lsl #26
    3204:	001c0000 	andseq	r0, ip, r0
    3208:	00010805 	andeq	r0, r1, r5, lsl #16
    320c:	02690e00 	rsbeq	r0, r9, #0, 28
    3210:	1e020000 	cdpne	0, 0, cr0, cr2, cr0, {0}
    3214:	0005bc0f 	andeq	fp, r5, pc, lsl #24
    3218:	25290200 	strcs	r0, [r9, #-512]!	; 0x200
    321c:	3a000000 	bcc	3224 <__code_start__-0x4ddc>
    3220:	10000001 	andne	r0, r0, r1
    3224:	00000079 	andeq	r0, r0, r9, ror r0
    3228:	db0e0011 	blle	383274 <__bss_end__+0x378b6c>
    322c:	02000000 	andeq	r0, r0, #0
    3230:	00980065 	addseq	r0, r8, r5, rrx
    3234:	00040000 	andeq	r0, r4, r0
    3238:	00001087 	andeq	r1, r0, r7, lsl #1
    323c:	05620104 	strbeq	r0, [r2, #-260]!	; 0x104
    3240:	2f010000 	svccs	0x00010000
    3244:	cd000008 	stcgt	0, cr0, [r0, #-32]	; 0xffffffe0
    3248:	38000005 	stmdacc	r0, {r0, r2}
    324c:	08000096 	stmdaeq	r0, {r1, r2, r4, r7}
    3250:	aa000000 	bge	3258 <__code_start__-0x4da8>
    3254:	0200000d 	andeq	r0, r0, #13
    3258:	6e690504 	cdpvs	5, 6, cr0, cr9, cr4, {0}
    325c:	04030074 	streq	r0, [r3], #-116	; 0x74
    3260:	00016c07 	andeq	r6, r1, r7, lsl #24
    3264:	06010300 	streq	r0, [r1], -r0, lsl #6
    3268:	000000cf 	andeq	r0, r0, pc, asr #1
    326c:	13050203 	movwne	r0, #20995	; 0x5203
    3270:	03000001 	movweq	r0, #1
    3274:	019c0504 	orrseq	r0, ip, r4, lsl #10
    3278:	08030000 	stmdaeq	r3, {}	; <UNPREDICTABLE>
    327c:	00019705 	andeq	r9, r1, r5, lsl #14
    3280:	08010300 	stmdaeq	r1, {r8, r9}
    3284:	000000cd 	andeq	r0, r0, sp, asr #1
    3288:	e8070203 	stmda	r7, {r0, r1, r9}
    328c:	03000000 	movweq	r0, #0
    3290:	01670704 	cmneq	r7, r4, lsl #14
    3294:	08030000 	stmdaeq	r3, {}	; <UNPREDICTABLE>
    3298:	00016207 	andeq	r6, r1, r7, lsl #4
    329c:	07040300 	streq	r0, [r4, -r0, lsl #6]
    32a0:	0000018e 	andeq	r0, r0, lr, lsl #3
    32a4:	d6080103 	strle	r0, [r8], -r3, lsl #2
    32a8:	04000000 	streq	r0, [r0], #-0
    32ac:	0000074f 	andeq	r0, r0, pc, asr #14
    32b0:	96380401 	ldrtls	r0, [r8], -r1, lsl #8
    32b4:	00040000 	andeq	r0, r4, r0
    32b8:	9c010000 	stcls	0, cr0, [r1], {-0}
    32bc:	0006f904 	andeq	pc, r6, r4, lsl #18
    32c0:	3c050100 	stfccs	f0, [r5], {-0}
    32c4:	04000096 	streq	r0, [r0], #-150	; 0x96
    32c8:	01000000 	mrseq	r0, (UNDEF: 0)
    32cc:	01d7009c 			; <UNDEFINED> instruction: 0x01d7009c
    32d0:	00040000 	andeq	r0, r4, r0
    32d4:	000010c9 	andeq	r1, r0, r9, asr #1
    32d8:	05620104 	strbeq	r0, [r2, #-260]!	; 0x104
    32dc:	eb010000 	bl	432e4 <__bss_end__+0x38bdc>
    32e0:	cd000008 	stcgt	0, cr0, [r0, #-32]	; 0xffffffe0
    32e4:	40000005 	andmi	r0, r0, r5
    32e8:	6c000096 	stcvs	0, cr0, [r0], {150}	; 0x96
    32ec:	f5000000 			; <UNDEFINED> instruction: 0xf5000000
    32f0:	0200000d 	andeq	r0, r0, #13
    32f4:	6e690504 	cdpvs	5, 6, cr0, cr9, cr4, {0}
    32f8:	04030074 	streq	r0, [r3], #-116	; 0x74
    32fc:	00016c07 	andeq	r6, r1, r7, lsl #24
    3300:	06010300 	streq	r0, [r1], -r0, lsl #6
    3304:	000000cf 	andeq	r0, r0, pc, asr #1
    3308:	13050203 	movwne	r0, #20995	; 0x5203
    330c:	03000001 	movweq	r0, #1
    3310:	019c0504 	orrseq	r0, ip, r4, lsl #10
    3314:	08030000 	stmdaeq	r3, {}	; <UNPREDICTABLE>
    3318:	00019705 	andeq	r9, r1, r5, lsl #14
    331c:	08010300 	stmdaeq	r1, {r8, r9}
    3320:	000000cd 	andeq	r0, r0, sp, asr #1
    3324:	e8070203 	stmda	r7, {r0, r1, r9}
    3328:	03000000 	movweq	r0, #0
    332c:	01670704 	cmneq	r7, r4, lsl #14
    3330:	08030000 	stmdaeq	r3, {}	; <UNPREDICTABLE>
    3334:	00016207 	andeq	r6, r1, r7, lsl #4
    3338:	07040300 	streq	r0, [r4, -r0, lsl #6]
    333c:	0000018e 	andeq	r0, r0, lr, lsl #3
    3340:	d6080103 	strle	r0, [r8], -r3, lsl #2
    3344:	04000000 	streq	r0, [r0], #-0
    3348:	f0140204 			; <UNDEFINED> instruction: 0xf0140204
    334c:	05000000 	streq	r0, [r0, #-0]
    3350:	00000904 	andeq	r0, r0, r4, lsl #18
    3354:	8082e480 	addhi	lr, r2, r0, lsl #9
    3358:	088a0502 	stmeq	sl, {r1, r8, sl}
    335c:	e4800000 	str	r0, [r0], #0
    3360:	05028082 	streq	r8, [r2, #-130]	; 0x82
    3364:	00000931 	andeq	r0, r0, r1, lsr r9
    3368:	8082e484 	addhi	lr, r2, r4, lsl #9
    336c:	084c0502 	stmdaeq	ip, {r1, r8, sl}^
    3370:	e4880000 	str	r0, [r8], #0
    3374:	05028082 	streq	r8, [r2, #-130]	; 0x82
    3378:	0000086d 	andeq	r0, r0, sp, ror #16
    337c:	8082e48c 	addhi	lr, r2, ip, lsl #9
    3380:	08ae0502 	stmiaeq	lr!, {r1, r8, sl}
    3384:	e4900000 	ldr	r0, [r0], #0
    3388:	05028082 	streq	r8, [r2, #-130]	; 0x82
    338c:	000008bc 			; <UNDEFINED> instruction: 0x000008bc
    3390:	8082e494 	umullhi	lr, r2, r4, r4
    3394:	089c0502 	ldmeq	ip, {r1, r8, sl}
    3398:	e4980000 	ldr	r0, [r8], #0
    339c:	05028082 	streq	r8, [r2, #-130]	; 0x82
    33a0:	00000913 	andeq	r0, r0, r3, lsl r9
    33a4:	8082e49c 	umullhi	lr, r2, ip, r4
    33a8:	09220502 	stmdbeq	r2!, {r1, r8, sl}
    33ac:	e4a00000 	strt	r0, [r0], #0
    33b0:	05028082 	streq	r8, [r2, #-130]	; 0x82
    33b4:	0000085a 	andeq	r0, r0, sl, asr r8
    33b8:	8082e4a4 	addhi	lr, r2, r4, lsr #9
    33bc:	5b060002 	blpl	1833cc <__bss_end__+0x178cc4>
    33c0:	01000004 	tsteq	r0, r4
    33c4:	0096401b 	addseq	r4, r6, fp, lsl r0
    33c8:	00006c00 	andeq	r6, r0, r0, lsl #24
    33cc:	a59c0100 	ldrge	r0, [ip, #256]	; 0x100
    33d0:	07000001 	streq	r0, [r0, -r1]
    33d4:	00000879 	andeq	r0, r0, r9, ror r8
    33d8:	002c2301 	eoreq	r2, ip, r1, lsl #6
    33dc:	ca070000 	bgt	1c33e4 <__bss_end__+0x1b8cdc>
    33e0:	01000008 	tsteq	r0, r8
    33e4:	00002c24 	andeq	r2, r0, r4, lsr #24
    33e8:	73640800 	cmnvc	r4, #0, 16
    33ec:	27010074 	smlsdxcs	r1, r4, r0, r0
    33f0:	000001a5 	andeq	r0, r0, r5, lsr #3
    33f4:	72730900 	rsbsvc	r0, r3, #0, 18
    33f8:	28010063 	stmdacs	r1, {r0, r1, r5, r6}
    33fc:	000001a5 	andeq	r0, r0, r5, lsr #3
    3400:	01006e0a 	tsteq	r0, sl, lsl #28
    3404:	00002c29 	andeq	r2, r0, r9, lsr #24
    3408:	0b500100 	bleq	1403810 <__bss_end__+0x13f9108>
    340c:	00009674 	andeq	r9, r0, r4, ror r6
    3410:	00000024 	andeq	r0, r0, r4, lsr #32
    3414:	00000158 	andeq	r0, r0, r8, asr r1
    3418:	0100690c 	tsteq	r0, ip, lsl #18
    341c:	0000252a 	andeq	r2, r0, sl, lsr #10
    3420:	000e0e00 	andeq	r0, lr, r0, lsl #28
    3424:	480d0000 	stmdami	sp, {}	; <UNPREDICTABLE>
    3428:	c1000096 	swpgt	r0, r6, [r0]	; <UNPREDICTABLE>
    342c:	0e000001 	cdpeq	0, 0, cr0, cr0, cr1, {0}
    3430:	00009654 	andeq	r9, r0, r4, asr r6
    3434:	000001c8 	andeq	r0, r0, r8, asr #3
    3438:	0000017e 	andeq	r0, r0, lr, ror r1
    343c:	0251010f 	subseq	r0, r1, #-1073741821	; 0xc0000003
    3440:	010fff09 	tsteq	pc, r9, lsl #30
    3444:	1c0c0550 	cfstr32ne	mvfx0, [ip], {80}	; 0x50
    3448:	002000b2 	strhteq	r0, [r0], -r2
    344c:	0096600e 	addseq	r6, r6, lr
    3450:	0001c800 	andeq	ip, r1, r0, lsl #16
    3454:	00019b00 	andeq	r9, r1, r0, lsl #22
    3458:	51010f00 	tstpl	r1, r0, lsl #30
    345c:	0fff0902 	svceq	0x00ff0902
    3460:	0c055001 	stceq	0, cr5, [r5], {1}
    3464:	2000b220 	andcs	fp, r0, r0, lsr #4
    3468:	96640d00 	strbtls	r0, [r4], -r0, lsl #26
    346c:	01c10000 	biceq	r0, r1, r0
    3470:	10000000 	andne	r0, r0, r0
    3474:	00002c04 	andeq	r2, r0, r4, lsl #24
    3478:	08790700 	ldmdaeq	r9!, {r8, r9, sl}^
    347c:	23010000 	movwcs	r0, #4096	; 0x1000
    3480:	0000002c 	andeq	r0, r0, ip, lsr #32
    3484:	0008ca07 	andeq	ip, r8, r7, lsl #20
    3488:	2c240100 	stfcss	f0, [r4], #-0
    348c:	11000000 	mrsne	r0, (UNDEF: 0)
    3490:	000008df 	ldrdeq	r0, [r0], -pc	; <UNPREDICTABLE>
    3494:	0d128903 	ldceq	9, cr8, [r2, #-12]
    3498:	03000009 	movweq	r0, #9
    349c:	002c139b 	mlaeq	ip, fp, r3, r1
    34a0:	2c130000 	ldccs	0, cr0, [r3], {-0}
    34a4:	00000000 	andeq	r0, r0, r0
    34a8:	0001ad00 	andeq	sl, r1, r0, lsl #26
    34ac:	cf000400 	svcgt	0x00000400
    34b0:	04000011 	streq	r0, [r0], #-17
    34b4:	00056201 	andeq	r6, r5, r1, lsl #4
    34b8:	094d0100 	stmdbeq	sp, {r8}^
    34bc:	05cd0000 	strbeq	r0, [sp]
	...
    34c8:	0ec20000 	cdpeq	0, 12, cr0, cr2, cr0, {0}
    34cc:	04020000 	streq	r0, [r2], #-0
    34d0:	746e6905 	strbtvc	r6, [lr], #-2309	; 0x905
    34d4:	07040300 	streq	r0, [r4, -r0, lsl #6]
    34d8:	0000016c 	andeq	r0, r0, ip, ror #2
    34dc:	cf060103 	svcgt	0x00060103
    34e0:	03000000 	movweq	r0, #0
    34e4:	01130502 	tsteq	r3, r2, lsl #10
    34e8:	04030000 	streq	r0, [r3], #-0
    34ec:	00019c05 	andeq	r9, r1, r5, lsl #24
    34f0:	05080300 	streq	r0, [r8, #-768]	; 0x300
    34f4:	00000197 	muleq	r0, r7, r1
    34f8:	cd080103 	stfgts	f0, [r8, #-12]
    34fc:	03000000 	movweq	r0, #0
    3500:	00e80702 	rsceq	r0, r8, r2, lsl #14
    3504:	04030000 	streq	r0, [r3], #-0
    3508:	00016707 	andeq	r6, r1, r7, lsl #14
    350c:	07080300 	streq	r0, [r8, -r0, lsl #6]
    3510:	00000162 	andeq	r0, r0, r2, ror #2
    3514:	8e070403 	cdphi	4, 0, cr0, cr7, cr3, {0}
    3518:	03000001 	movweq	r0, #1
    351c:	00d60801 	sbcseq	r0, r6, r1, lsl #16
    3520:	3f040000 	svccc	0x00040000
    3524:	01000009 	tsteq	r0, r9
    3528:	0000250e 	andeq	r2, r0, lr, lsl #10
    352c:	0096ac00 	addseq	sl, r6, r0, lsl #24
    3530:	00001800 	andeq	r1, r0, r0, lsl #16
    3534:	a29c0100 	addsge	r0, ip, #0, 2
    3538:	05000000 	streq	r0, [r0, #-0]
    353c:	00000522 	andeq	r0, r0, r2, lsr #10
    3540:	002c0f01 	eoreq	r0, ip, r1, lsl #30
    3544:	0e2d0000 	cdpeq	0, 2, cr0, cr13, cr0, {0}
    3548:	06000000 	streq	r0, [r0], -r0
    354c:	00000981 	andeq	r0, r0, r1, lsl #19
    3550:	96c41701 	strbls	r1, [r4], r1, lsl #14
    3554:	00140000 	andseq	r0, r4, r0
    3558:	9c010000 	stcls	0, cr0, [r1], {-0}
    355c:	000000c7 	andeq	r0, r0, r7, asr #1
    3560:	00052205 	andeq	r2, r5, r5, lsl #4
    3564:	2c180100 	ldfcss	f0, [r8], {-0}
    3568:	4c000000 	stcmi	0, cr0, [r0], {-0}
    356c:	0000000e 	andeq	r0, r0, lr
    3570:	00072106 	andeq	r2, r7, r6, lsl #2
    3574:	d81f0100 	ldmdale	pc, {r8}	; <UNPREDICTABLE>
    3578:	48000096 	stmdami	r0, {r1, r2, r4, r7}
    357c:	01000000 	mrseq	r0, (UNDEF: 0)
    3580:	0001779c 	muleq	r1, ip, r7
    3584:	099c0700 	ldmibeq	ip, {r8, r9, sl}
    3588:	2a010000 	bcs	43590 <__bss_end__+0x38e88>
    358c:	00000177 	andeq	r0, r0, r7, ror r1
    3590:	2010001c 	andscs	r0, r0, ip, lsl r0
    3594:	00097907 	andeq	r7, r9, r7, lsl #18
    3598:	772b0100 	strvc	r0, [fp, -r0, lsl #2]!
    359c:	24000001 	strcs	r0, [r0], #-1
    35a0:	07201000 	streq	r1, [r0, -r0]!
    35a4:	00000990 	muleq	r0, r0, r9
    35a8:	01772c01 	cmneq	r7, r1, lsl #24
    35ac:	00000000 	andeq	r0, r0, r0
    35b0:	60085a00 	andvs	r5, r8, r0, lsl #20
    35b4:	01000009 	tsteq	r0, r9
    35b8:	0001772d 	andeq	r7, r1, sp, lsr #14
    35bc:	e0092000 	and	r2, r9, r0
    35c0:	79000096 	stmdbvc	r0, {r1, r2, r4, r7}
    35c4:	09000000 	stmdbeq	r0, {}	; <UNPREDICTABLE>
    35c8:	000096ec 	andeq	r9, r0, ip, ror #13
    35cc:	000000a2 	andeq	r0, r0, r2, lsr #1
    35d0:	0096f40a 	addseq	pc, r6, sl, lsl #8
    35d4:	00018d00 	andeq	r8, r1, r0, lsl #26
    35d8:	00013a00 	andeq	r3, r1, r0, lsl #20
    35dc:	50010b00 	andpl	r0, r1, r0, lsl #22
    35e0:	0a004e01 	beq	16dec <__bss_end__+0xc6e4>
    35e4:	00009700 	andeq	r9, r0, r0, lsl #14
    35e8:	0000019e 	muleq	r0, lr, r1
    35ec:	0000015a 	andeq	r0, r0, sl, asr r1
    35f0:	0551010b 	ldrbeq	r0, [r1, #-267]	; 0x10b
    35f4:	0000010c 	andeq	r0, r0, ip, lsl #2
    35f8:	50010b5a 	andpl	r0, r1, sl, asr fp
    35fc:	00240c05 	eoreq	r0, r4, r5, lsl #24
    3600:	0c002010 	stceq	0, cr2, [r0], {16}
    3604:	0000970c 	andeq	r9, r0, ip, lsl #14
    3608:	0000019e 	muleq	r0, lr, r1
    360c:	0551010b 	ldrbeq	r0, [r1, #-267]	; 0x10b
    3610:	0000200c 	andeq	r2, r0, ip
    3614:	50010b5a 	andpl	r0, r1, sl, asr fp
    3618:	001c0c05 	andseq	r0, ip, r5, lsl #24
    361c:	00002010 	andeq	r2, r0, r0, lsl r0
    3620:	0000250d 	andeq	r2, r0, sp, lsl #10
    3624:	09420800 	stmdbeq	r2, {fp}^
    3628:	0d010000 	stceq	0, cr0, [r1, #-0]
    362c:	00000188 	andeq	r0, r0, r8, lsl #3
    3630:	002c0d10 	eoreq	r0, ip, r0, lsl sp
    3634:	2c0e0000 	stccs	0, cr0, [lr], {-0}
    3638:	02000007 	andeq	r0, r0, #7
    363c:	00019e4f 	andeq	r9, r1, pc, asr #28
    3640:	002c0f00 	eoreq	r0, ip, r0, lsl #30
    3644:	10000000 	andne	r0, r0, r0
    3648:	0000090d 	andeq	r0, r0, sp, lsl #18
    364c:	2c0f9b02 	stccs	11, cr9, [pc], {2}
    3650:	0f000000 	svceq	0x00000000
    3654:	0000002c 	andeq	r0, r0, ip, lsr #32
    3658:	01f70000 	mvnseq	r0, r0
    365c:	00040000 	andeq	r0, r4, r0
    3660:	000012bd 			; <UNDEFINED> instruction: 0x000012bd
    3664:	05620104 	strbeq	r0, [r2, #-260]!	; 0x104
    3668:	c1010000 	mrsgt	r0, (UNDEF: 1)
    366c:	cd000009 	stcgt	0, cr0, [r0, #-36]	; 0xffffffdc
    3670:	20000005 	andcs	r0, r0, r5
    3674:	98000097 	stmdals	r0, {r0, r1, r2, r4, r7}
    3678:	68000000 	stmdavs	r0, {}	; <UNPREDICTABLE>
    367c:	0200000f 	andeq	r0, r0, #15
    3680:	6e690504 	cdpvs	5, 6, cr0, cr9, cr4, {0}
    3684:	04030074 	streq	r0, [r3], #-116	; 0x74
    3688:	00016c07 	andeq	r6, r1, r7, lsl #24
    368c:	06010300 	streq	r0, [r1], -r0, lsl #6
    3690:	000000cf 	andeq	r0, r0, pc, asr #1
    3694:	13050203 	movwne	r0, #20995	; 0x5203
    3698:	03000001 	movweq	r0, #1
    369c:	019c0504 	orrseq	r0, ip, r4, lsl #10
    36a0:	08030000 	stmdaeq	r3, {}	; <UNPREDICTABLE>
    36a4:	00019705 	andeq	r9, r1, r5, lsl #14
    36a8:	08010300 	stmdaeq	r1, {r8, r9}
    36ac:	000000cd 	andeq	r0, r0, sp, asr #1
    36b0:	e8070203 	stmda	r7, {r0, r1, r9}
    36b4:	03000000 	movweq	r0, #0
    36b8:	01670704 	cmneq	r7, r4, lsl #14
    36bc:	08030000 	stmdaeq	r3, {}	; <UNPREDICTABLE>
    36c0:	00016207 	andeq	r6, r1, r7, lsl #4
    36c4:	07040300 	streq	r0, [r4, -r0, lsl #6]
    36c8:	0000018e 	andeq	r0, r0, lr, lsl #3
    36cc:	d6080103 	strle	r0, [r8], -r3, lsl #2
    36d0:	04000000 	streq	r0, [r0], #-0
    36d4:	000009df 	ldrdeq	r0, [r0], -pc	; <UNPREDICTABLE>
    36d8:	97200501 	strls	r0, [r0, -r1, lsl #10]!
    36dc:	001c0000 	andseq	r0, ip, r0
    36e0:	9c010000 	stcls	0, cr0, [r1], {-0}
    36e4:	0000009e 	muleq	r0, lr, r0
    36e8:	0009d905 	andeq	sp, r9, r5, lsl #18
    36ec:	2c050100 	stfcss	f0, [r5], {-0}
    36f0:	76000000 	strvc	r0, [r0], -r0
    36f4:	0000000e 	andeq	r0, r0, lr
    36f8:	0009a406 	andeq	sl, r9, r6, lsl #8
    36fc:	2c110100 	ldfcss	f0, [r1], {-0}
    3700:	3c000000 	stccc	0, cr0, [r0], {-0}
    3704:	14000097 	strne	r0, [r0], #-151	; 0x97
    3708:	01000000 	mrseq	r0, (UNDEF: 0)
    370c:	0000cb9c 	muleq	r0, ip, fp
    3710:	97480700 	strbls	r0, [r8, -r0, lsl #14]
    3714:	01de0000 	bicseq	r0, lr, r0
    3718:	01080000 	mrseq	r0, (UNDEF: 8)
    371c:	040c0550 	streq	r0, [ip], #-1360	; 0x550
    3720:	00200030 	eoreq	r0, r0, r0, lsr r0
    3724:	09f50600 	ldmibeq	r5!, {r9, sl}^
    3728:	16010000 	strne	r0, [r1], -r0
    372c:	0000002c 	andeq	r0, r0, ip, lsr #32
    3730:	00009750 	andeq	r9, r0, r0, asr r7
    3734:	0000001c 	andeq	r0, r0, ip, lsl r0
    3738:	010d9c01 	tsteq	sp, r1, lsl #24
    373c:	75090000 	strvc	r0, [r9, #-0]
    3740:	2c1a0100 	ldfcss	f0, [sl], {-0}
    3744:	aa000000 	bge	374c <__code_start__-0x48b4>
    3748:	0a00000e 	beq	3788 <__code_start__-0x4878>
    374c:	00009758 	andeq	r9, r0, r8, asr r7
    3750:	000001f3 	strdeq	r0, [r0], -r3
    3754:	00975c0a 	addseq	r5, r7, sl, lsl #24
    3758:	00009e00 	andeq	r9, r0, r0, lsl #28
    375c:	97640a00 	strbls	r0, [r4, -r0, lsl #20]!
    3760:	01f30000 	mvnseq	r0, r0
    3764:	04000000 	streq	r0, [r0], #-0
    3768:	000009ec 	andeq	r0, r0, ip, ror #19
    376c:	976c1f01 	strbls	r1, [ip, -r1, lsl #30]!
    3770:	00240000 	eoreq	r0, r4, r0
    3774:	9c010000 	stcls	0, cr0, [r1], {-0}
    3778:	0000016b 	andeq	r0, r0, fp, ror #2
    377c:	0073750b 	rsbseq	r7, r3, fp, lsl #10
    3780:	002c1f01 	eoreq	r1, ip, r1, lsl #30
    3784:	0ec80000 	cdpeq	0, 12, cr0, cr8, cr0, {0}
    3788:	720c0000 	andvc	r0, ip, #0
    378c:	20010062 	andcs	r0, r1, r2, rrx
    3790:	0000002c 	andeq	r0, r0, ip, lsr #32
    3794:	7c0d5401 	cfstrsvc	mvf5, [sp], {1}
    3798:	10000097 	mulne	r0, r7, r0
    379c:	61000000 	mrsvs	r0, (UNDEF: 0)
    37a0:	09000001 	stmdbeq	r0, {r0}
    37a4:	01006172 	tsteq	r0, r2, ror r1
    37a8:	00002c22 	andeq	r2, r0, r2, lsr #24
    37ac:	000ee600 	andeq	lr, lr, r0, lsl #12
    37b0:	97800a00 	strls	r0, [r0, r0, lsl #20]
    37b4:	00cb0000 	sbceq	r0, fp, r0
    37b8:	0a000000 	beq	37c0 <__code_start__-0x4840>
    37bc:	00009778 	andeq	r9, r0, r8, ror r7
    37c0:	000000cb 	andeq	r0, r0, fp, asr #1
    37c4:	072c0400 	streq	r0, [ip, -r0, lsl #8]!
    37c8:	28010000 	stmdacs	r1, {}	; <UNPREDICTABLE>
    37cc:	00009790 	muleq	r0, r0, r7
    37d0:	00000014 	andeq	r0, r0, r4, lsl r0
    37d4:	01a49c01 			; <UNDEFINED> instruction: 0x01a49c01
    37d8:	6d0b0000 	stcvs	0, cr0, [fp, #-0]
    37dc:	28010073 	stmdacs	r1, {r0, r1, r4, r5, r6}
    37e0:	0000002c 	andeq	r0, r0, ip, lsr #32
    37e4:	00000ef9 	strdeq	r0, [r0], -r9
    37e8:	0097a007 	addseq	sl, r7, r7
    37ec:	00010d00 	andeq	r0, r1, r0, lsl #26
    37f0:	50010800 	andpl	r0, r1, r0, lsl #16
    37f4:	5001f307 	andpl	pc, r1, r7, lsl #6
    37f8:	1e03e80a 	cdpne	8, 0, cr14, cr3, cr10, {0}
    37fc:	b7040000 	strlt	r0, [r4, -r0]
    3800:	01000009 	tsteq	r0, r9
    3804:	0097a42b 	addseq	sl, r7, fp, lsr #8
    3808:	00001400 	andeq	r1, r0, r0, lsl #8
    380c:	de9c0100 	fmllee	f0, f4, f0
    3810:	0b000001 	bleq	381c <__code_start__-0x47e4>
    3814:	00636573 	rsbeq	r6, r3, r3, ror r5
    3818:	002c2b01 	eoreq	r2, ip, r1, lsl #22
    381c:	0f1a0000 	svceq	0x001a0000
    3820:	b4070000 	strlt	r0, [r7], #-0
    3824:	6b000097 	blvs	3a88 <__code_start__-0x4578>
    3828:	08000001 	stmdaeq	r0, {r0}
    382c:	f3075001 	vhadd.u8	d5, d7, d1
    3830:	e80a5001 	stmda	sl, {r0, ip, lr}
    3834:	00001e03 	andeq	r1, r0, r3, lsl #28
    3838:	0009d30e 	andeq	sp, r9, lr, lsl #6
    383c:	2ca70200 	sfmcs	f0, 4, [r7]
    3840:	f3000000 	vhadd.u8	d0, d0, d0
    3844:	0f000001 	svceq	0x00000001
    3848:	0000002c 	andeq	r0, r0, ip, lsr #32
    384c:	08df1000 	ldmeq	pc, {ip}^	; <UNPREDICTABLE>
    3850:	89020000 	stmdbhi	r2, {}	; <UNPREDICTABLE>
    3854:	000cc500 	andeq	ip, ip, r0, lsl #10
    3858:	b3000400 	movwlt	r0, #1024	; 0x400
    385c:	04000013 	streq	r0, [r0], #-19
    3860:	000da001 	andeq	sl, sp, r1
    3864:	0b030c00 	bleq	c686c <__bss_end__+0xbc164>
    3868:	0b1e0000 	bleq	783870 <__bss_end__+0x779168>
    386c:	981c0000 	ldmdals	ip, {}	; <UNPREDICTABLE>
    3870:	01780000 	cmneq	r8, r0
    3874:	101a0000 	andsne	r0, sl, r0
    3878:	04020000 	streq	r0, [r2], #-0
    387c:	746e6905 	strbtvc	r6, [lr], #-2309	; 0x905
    3880:	07040300 	streq	r0, [r4, -r0, lsl #6]
    3884:	0000016c 	andeq	r0, r0, ip, ror #2
    3888:	00002c04 	andeq	r2, r0, r4, lsl #24
    388c:	06010300 	streq	r0, [r1], -r0, lsl #6
    3890:	000000cf 	andeq	r0, r0, pc, asr #1
    3894:	13050203 	movwne	r0, #20995	; 0x5203
    3898:	03000001 	movweq	r0, #1
    389c:	019c0504 	orrseq	r0, ip, r4, lsl #10
    38a0:	08030000 	stmdaeq	r3, {}	; <UNPREDICTABLE>
    38a4:	00019705 	andeq	r9, r1, r5, lsl #14
    38a8:	08010300 	stmdaeq	r1, {r8, r9}
    38ac:	000000cd 	andeq	r0, r0, sp, asr #1
    38b0:	e8070203 	stmda	r7, {r0, r1, r9}
    38b4:	03000000 	movweq	r0, #0
    38b8:	01670704 	cmneq	r7, r4, lsl #14
    38bc:	08030000 	stmdaeq	r3, {}	; <UNPREDICTABLE>
    38c0:	00016207 	andeq	r6, r1, r7, lsl #4
    38c4:	0cb50500 	cfldr32eq	mvfx0, [r5]
    38c8:	07020000 	streq	r0, [r2, -r0]
    38cc:	00000025 	andeq	r0, r0, r5, lsr #32
    38d0:	000c9f05 	andeq	r9, ip, r5, lsl #30
    38d4:	462c0300 	strtmi	r0, [ip], -r0, lsl #6
    38d8:	05000000 	streq	r0, [r0, #-0]
    38dc:	00000d7b 	andeq	r0, r0, fp, ror sp
    38e0:	00467203 	subeq	r7, r6, r3, lsl #4
    38e4:	43060000 	movwmi	r0, #24576	; 0x6000
    38e8:	0400000c 	streq	r0, [r0], #-12
    38ec:	002c0165 	eoreq	r0, ip, r5, ror #2
    38f0:	04070000 	streq	r0, [r7], #-0
    38f4:	00bca603 	adcseq	sl, ip, r3, lsl #12
    38f8:	2e080000 	cdpcs	0, 0, cr0, cr8, cr0, {0}
    38fc:	0300000c 	movweq	r0, #12
    3900:	000091a8 	andeq	r9, r0, r8, lsr #3
    3904:	0bd60800 	bleq	ff58590c <__bss_end__+0xff57b204>
    3908:	a9030000 	stmdbge	r3, {}	; <UNPREDICTABLE>
    390c:	000000bc 	strheq	r0, [r0], -ip
    3910:	00540900 	subseq	r0, r4, r0, lsl #18
    3914:	00cc0000 	sbceq	r0, ip, r0
    3918:	cc0a0000 	stcgt	0, cr0, [sl], {-0}
    391c:	03000000 	movweq	r0, #0
    3920:	07040300 	streq	r0, [r4, -r0, lsl #6]
    3924:	0000018e 	andeq	r0, r0, lr, lsl #3
    3928:	a303080b 	movwge	r0, #14347	; 0x380b
    392c:	000000f4 	strdeq	r0, [r0], -r4
    3930:	000d600c 	andeq	r6, sp, ip
    3934:	25a50300 	strcs	r0, [r5, #768]!	; 0x300
    3938:	00000000 	andeq	r0, r0, r0
    393c:	000d680c 	andeq	r6, sp, ip, lsl #16
    3940:	9daa0300 	stcls	3, cr0, [sl]
    3944:	04000000 	streq	r0, [r0], #-0
    3948:	0cf30500 	cfldr64eq	mvdx0, [r3]
    394c:	ab030000 	blge	c3954 <__bss_end__+0xb924c>
    3950:	000000d3 	ldrdeq	r0, [r0], -r3
    3954:	000b9f05 	andeq	r9, fp, r5, lsl #30
    3958:	70af0300 	adcvc	r0, pc, r0, lsl #6
    395c:	0d000000 	stceq	0, cr0, [r0, #-0]
    3960:	12040e04 	andne	r0, r4, #4, 28	; 0x40
    3964:	03000001 	movweq	r0, #1
    3968:	00d60801 	sbcseq	r0, r6, r1, lsl #16
    396c:	120f0000 	andne	r0, pc, #0
    3970:	05000001 	streq	r0, [r0, #-1]
    3974:	00000e1d 	andeq	r0, r0, sp, lsl lr
    3978:	00621605 	rsbeq	r1, r2, r5, lsl #12
    397c:	b0100000 	andslt	r0, r0, r0
    3980:	1800000b 	stmdane	r0, {r0, r1, r3}
    3984:	017c2d05 	cmneq	ip, r5, lsl #26
    3988:	140c0000 	strne	r0, [ip], #-0
    398c:	0500000d 	streq	r0, [r0, #-13]
    3990:	00017c2f 	andeq	r7, r1, pc, lsr #24
    3994:	5f110000 	svcpl	0x00110000
    3998:	3005006b 	andcc	r0, r5, fp, rrx
    399c:	00000025 	andeq	r0, r0, r5, lsr #32
    39a0:	0d4b0c04 	stcleq	12, cr0, [fp, #-16]
    39a4:	30050000 	andcc	r0, r5, r0
    39a8:	00000025 	andeq	r0, r0, r5, lsr #32
    39ac:	0b8b0c08 	bleq	fe2c69d4 <__bss_end__+0xfe2bc2cc>
    39b0:	30050000 	andcc	r0, r5, r0
    39b4:	00000025 	andeq	r0, r0, r5, lsr #32
    39b8:	0e640c0c 	cdpeq	12, 6, cr0, cr4, cr12, {0}
    39bc:	30050000 	andcc	r0, r5, r0
    39c0:	00000025 	andeq	r0, r0, r5, lsr #32
    39c4:	785f1110 	ldmdavc	pc, {r4, r8, ip}^	; <UNPREDICTABLE>
    39c8:	82310500 	eorshi	r0, r1, #0, 10
    39cc:	14000001 	strne	r0, [r0], #-1
    39d0:	29040e00 	stmdbcs	r4, {r9, sl, fp}
    39d4:	09000001 	stmdbeq	r0, {r0}
    39d8:	0000011e 	andeq	r0, r0, lr, lsl r1
    39dc:	00000192 	muleq	r0, r2, r1
    39e0:	0000cc0a 	andeq	ip, r0, sl, lsl #24
    39e4:	10000000 	andne	r0, r0, r0
    39e8:	00000bd1 	ldrdeq	r0, [r0], -r1
    39ec:	0b350524 	bleq	d44e84 <__bss_end__+0xd3a77c>
    39f0:	0c000002 	stceq	0, cr0, [r0], {2}
    39f4:	00000a89 	andeq	r0, r0, r9, lsl #21
    39f8:	00253705 	eoreq	r3, r5, r5, lsl #14
    39fc:	0c000000 	stceq	0, cr0, [r0], {-0}
    3a00:	00000d83 	andeq	r0, r0, r3, lsl #27
    3a04:	00253805 	eoreq	r3, r5, r5, lsl #16
    3a08:	0c040000 	stceq	0, cr0, [r4], {-0}
    3a0c:	00000ab7 			; <UNDEFINED> instruction: 0x00000ab7
    3a10:	00253905 	eoreq	r3, r5, r5, lsl #18
    3a14:	0c080000 	stceq	0, cr0, [r8], {-0}
    3a18:	00000f54 	andeq	r0, r0, r4, asr pc
    3a1c:	00253a05 	eoreq	r3, r5, r5, lsl #20
    3a20:	0c0c0000 	stceq	0, cr0, [ip], {-0}
    3a24:	00000c83 	andeq	r0, r0, r3, lsl #25
    3a28:	00253b05 	eoreq	r3, r5, r5, lsl #22
    3a2c:	0c100000 	ldceq	0, cr0, [r0], {-0}
    3a30:	00000c58 	andeq	r0, r0, r8, asr ip
    3a34:	00253c05 	eoreq	r3, r5, r5, lsl #24
    3a38:	0c140000 	ldceq	0, cr0, [r4], {-0}
    3a3c:	00000e69 	andeq	r0, r0, r9, ror #28
    3a40:	00253d05 	eoreq	r3, r5, r5, lsl #26
    3a44:	0c180000 	ldceq	0, cr0, [r8], {-0}
    3a48:	00000cd5 	ldrdeq	r0, [r0], -r5
    3a4c:	00253e05 	eoreq	r3, r5, r5, lsl #28
    3a50:	0c1c0000 	ldceq	0, cr0, [ip], {-0}
    3a54:	00000f1b 	andeq	r0, r0, fp, lsl pc
    3a58:	00253f05 	eoreq	r3, r5, r5, lsl #30
    3a5c:	00200000 	eoreq	r0, r0, r0
    3a60:	000ac612 	andeq	ip, sl, r2, lsl r6
    3a64:	05010800 	streq	r0, [r1, #-2048]	; 0x800
    3a68:	00024b48 	andeq	r4, r2, r8, asr #22
    3a6c:	0b720c00 	bleq	1c86a74 <__bss_end__+0x1c7c36c>
    3a70:	49050000 	stmdbmi	r5, {}	; <UNPREDICTABLE>
    3a74:	0000024b 	andeq	r0, r0, fp, asr #4
    3a78:	0a040c00 	beq	106a80 <__bss_end__+0xfc378>
    3a7c:	4a050000 	bmi	143a84 <__bss_end__+0x13937c>
    3a80:	0000024b 	andeq	r0, r0, fp, asr #4
    3a84:	0e0f1380 	cdpeq	3, 0, cr1, cr15, cr0, {4}
    3a88:	4c050000 	stcmi	0, cr0, [r5], {-0}
    3a8c:	0000011e 	andeq	r0, r0, lr, lsl r1
    3a90:	eb130100 	bl	4c3e98 <__bss_end__+0x4b9790>
    3a94:	0500000a 	streq	r0, [r0, #-10]
    3a98:	00011e4f 	andeq	r1, r1, pc, asr #28
    3a9c:	00010400 	andeq	r0, r1, r0, lsl #8
    3aa0:	00010a09 	andeq	r0, r1, r9, lsl #20
    3aa4:	00025b00 	andeq	r5, r2, r0, lsl #22
    3aa8:	00cc0a00 	sbceq	r0, ip, r0, lsl #20
    3aac:	001f0000 	andseq	r0, pc, r0
    3ab0:	000c8c12 	andeq	r8, ip, r2, lsl ip
    3ab4:	05019000 	streq	r9, [r1, #-0]
    3ab8:	0002995b 	andeq	r9, r2, fp, asr r9
    3abc:	0d140c00 	ldceq	12, cr0, [r4, #-0]
    3ac0:	5c050000 	stcpl	0, cr0, [r5], {-0}
    3ac4:	00000299 	muleq	r0, r9, r2
    3ac8:	0d2c0c00 	stceq	12, cr0, [ip, #-0]
    3acc:	5d050000 	stcpl	0, cr0, [r5, #-0]
    3ad0:	00000025 	andeq	r0, r0, r5, lsr #32
    3ad4:	0b860c04 	bleq	fe186aec <__bss_end__+0xfe17c3e4>
    3ad8:	5f050000 	svcpl	0x00050000
    3adc:	0000029f 	muleq	r0, pc, r2	; <UNPREDICTABLE>
    3ae0:	0ac60c08 	beq	ff186b08 <__bss_end__+0xff17c400>
    3ae4:	60050000 	andvs	r0, r5, r0
    3ae8:	0000020b 	andeq	r0, r0, fp, lsl #4
    3aec:	040e0088 	streq	r0, [lr], #-136	; 0x88
    3af0:	0000025b 	andeq	r0, r0, fp, asr r2
    3af4:	0002af09 	andeq	sl, r2, r9, lsl #30
    3af8:	0002af00 	andeq	sl, r2, r0, lsl #30
    3afc:	00cc0a00 	sbceq	r0, ip, r0, lsl #20
    3b00:	001f0000 	andseq	r0, pc, r0
    3b04:	02b5040e 	adcseq	r0, r5, #234881024	; 0xe000000
    3b08:	10140000 	andsne	r0, r4, r0
    3b0c:	00000cdf 	ldrdeq	r0, [r0], -pc	; <UNPREDICTABLE>
    3b10:	db730508 	blle	1cc4f38 <__bss_end__+0x1cba830>
    3b14:	0c000002 	stceq	0, cr0, [r0], {2}
    3b18:	00000aac 	andeq	r0, r0, ip, lsr #21
    3b1c:	02db7405 	sbcseq	r7, fp, #83886080	; 0x5000000
    3b20:	0c000000 	stceq	0, cr0, [r0], {-0}
    3b24:	00000a10 	andeq	r0, r0, r0, lsl sl
    3b28:	00257505 	eoreq	r7, r5, r5, lsl #10
    3b2c:	00040000 	andeq	r0, r4, r0
    3b30:	0054040e 	subseq	r0, r4, lr, lsl #8
    3b34:	fe100000 	cdp2	0, 1, cr0, cr0, cr0, {0}
    3b38:	6800000c 	stmdavs	r0, {r2, r3}
    3b3c:	040bb305 	streq	fp, [fp], #-773	; 0x305
    3b40:	5f110000 	svcpl	0x00110000
    3b44:	b4050070 	strlt	r0, [r5], #-112	; 0x70
    3b48:	000002db 	ldrdeq	r0, [r0], -fp
    3b4c:	725f1100 	subsvc	r1, pc, #0, 2
    3b50:	25b50500 	ldrcs	r0, [r5, #1280]!	; 0x500
    3b54:	04000000 	streq	r0, [r0], #-0
    3b58:	00775f11 	rsbseq	r5, r7, r1, lsl pc
    3b5c:	0025b605 	eoreq	fp, r5, r5, lsl #12
    3b60:	0c080000 	stceq	0, cr0, [r8], {-0}
    3b64:	00000ae4 	andeq	r0, r0, r4, ror #21
    3b68:	003fb705 	eorseq	fp, pc, r5, lsl #14
    3b6c:	0c0c0000 	stceq	0, cr0, [ip], {-0}
    3b70:	00000bf7 	strdeq	r0, [r0], -r7
    3b74:	003fb805 	eorseq	fp, pc, r5, lsl #16
    3b78:	110e0000 	mrsne	r0, (UNDEF: 14)
    3b7c:	0066625f 	rsbeq	r6, r6, pc, asr r2
    3b80:	02b6b905 	adcseq	fp, r6, #81920	; 0x14000
    3b84:	0c100000 	ldceq	0, cr0, [r0], {-0}
    3b88:	00000a53 	andeq	r0, r0, r3, asr sl
    3b8c:	0025ba05 	eoreq	fp, r5, r5, lsl #20
    3b90:	0c180000 	ldceq	0, cr0, [r8], {-0}
    3b94:	00000ad4 	ldrdeq	r0, [r0], -r4
    3b98:	010ac105 	tsteq	sl, r5, lsl #2
    3b9c:	0c1c0000 	ldceq	0, cr0, [ip], {-0}
    3ba0:	00000f7b 	andeq	r0, r0, fp, ror pc
    3ba4:	0566c305 	strbeq	ip, [r6, #-773]!	; 0x305
    3ba8:	0c200000 	stceq	0, cr0, [r0], #-0
    3bac:	00000f95 	muleq	r0, r5, pc	; <UNPREDICTABLE>
    3bb0:	0590c505 	ldreq	ip, [r0, #1285]	; 0x505
    3bb4:	0c240000 	stceq	0, cr0, [r4], #-0
    3bb8:	00000d70 	andeq	r0, r0, r0, ror sp
    3bbc:	05b4c805 	ldreq	ip, [r4, #2053]!	; 0x805
    3bc0:	0c280000 	stceq	0, cr0, [r8], #-0
    3bc4:	00000f35 	andeq	r0, r0, r5, lsr pc
    3bc8:	05cec905 	strbeq	ip, [lr, #2309]	; 0x905
    3bcc:	112c0000 	teqne	ip, r0
    3bd0:	0062755f 	rsbeq	r7, r2, pc, asr r5
    3bd4:	02b6cc05 	adcseq	ip, r6, #1280	; 0x500
    3bd8:	11300000 	teqne	r0, r0
    3bdc:	0070755f 	rsbseq	r7, r0, pc, asr r5
    3be0:	02dbcd05 	sbcseq	ip, fp, #320	; 0x140
    3be4:	11380000 	teqne	r8, r0
    3be8:	0072755f 	rsbseq	r7, r2, pc, asr r5
    3bec:	0025ce05 	eoreq	ip, r5, r5, lsl #28
    3bf0:	0c3c0000 	ldceq	0, cr0, [ip], #-0
    3bf4:	00000a97 	muleq	r0, r7, sl
    3bf8:	05d4d105 	ldrbeq	sp, [r4, #261]	; 0x105
    3bfc:	0c400000 	mareq	acc0, r0, r0
    3c00:	00000ee0 	andeq	r0, r0, r0, ror #29
    3c04:	05e4d205 	strbeq	sp, [r4, #517]!	; 0x205
    3c08:	11430000 	mrsne	r0, (UNDEF: 67)
    3c0c:	00626c5f 	rsbeq	r6, r2, pc, asr ip
    3c10:	02b6d505 	adcseq	sp, r6, #20971520	; 0x1400000
    3c14:	0c440000 	mareq	acc0, r0, r4
    3c18:	00000afa 	strdeq	r0, [r0], -sl
    3c1c:	0025d805 	eoreq	sp, r5, r5, lsl #16
    3c20:	0c4c0000 	mareq	acc0, r0, ip
    3c24:	00000c62 	andeq	r0, r0, r2, ror #24
    3c28:	007bd905 	rsbseq	sp, fp, r5, lsl #18
    3c2c:	0c500000 	mraeq	r0, r0, acc0
    3c30:	00000ecb 	andeq	r0, r0, fp, asr #29
    3c34:	0429dc05 	strteq	sp, [r9], #-3077	; 0xc05
    3c38:	0c540000 	mraeq	r0, r4, acc0
    3c3c:	00000c4a 	andeq	r0, r0, sl, asr #24
    3c40:	00ffe005 	rscseq	lr, pc, r5
    3c44:	0c580000 	mraeq	r0, r8, acc0
    3c48:	00000d06 	andeq	r0, r0, r6, lsl #26
    3c4c:	00f4e205 	rscseq	lr, r4, r5, lsl #4
    3c50:	0c5c0000 	mraeq	r0, ip, acc0
    3c54:	00000c50 	andeq	r0, r0, r0, asr ip
    3c58:	0025e305 	eoreq	lr, r5, r5, lsl #6
    3c5c:	00640000 	rsbeq	r0, r4, r0
    3c60:	00002515 	andeq	r2, r0, r5, lsl r5
    3c64:	00042900 	andeq	r2, r4, r0, lsl #18
    3c68:	04291600 	strteq	r1, [r9], #-1536	; 0x600
    3c6c:	0a160000 	beq	583c74 <__bss_end__+0x57956c>
    3c70:	16000001 	strne	r0, [r0], -r1
    3c74:	0000010c 	andeq	r0, r0, ip, lsl #2
    3c78:	00002516 	andeq	r2, r0, r6, lsl r5
    3c7c:	040e0000 	streq	r0, [lr], #-0
    3c80:	00000434 	andeq	r0, r0, r4, lsr r4
    3c84:	0004290f 	andeq	r2, r4, pc, lsl #18
    3c88:	0d531700 	ldcleq	7, cr1, [r3, #-0]
    3c8c:	04280000 	strteq	r0, [r8], #-0
    3c90:	66023805 	strvs	r3, [r2], -r5, lsl #16
    3c94:	18000005 	stmdane	r0, {r0, r2}
    3c98:	00000cce 	andeq	r0, r0, lr, asr #25
    3c9c:	25023a05 	strcs	r3, [r2, #-2565]	; 0xa05
    3ca0:	00000000 	andeq	r0, r0, r0
    3ca4:	000af318 	andeq	pc, sl, r8, lsl r3	; <UNPREDICTABLE>
    3ca8:	023f0500 	eorseq	r0, pc, #0, 10
    3cac:	0000063b 	andeq	r0, r0, fp, lsr r6
    3cb0:	0be71804 	bleq	ff9c9cc8 <__bss_end__+0xff9bf5c0>
    3cb4:	3f050000 	svccc	0x00050000
    3cb8:	00063b02 	andeq	r3, r6, r2, lsl #22
    3cbc:	a8180800 	ldmdage	r8, {fp}
    3cc0:	0500000b 	streq	r0, [r0, #-11]
    3cc4:	063b023f 			; <UNDEFINED> instruction: 0x063b023f
    3cc8:	180c0000 	stmdane	ip, {}	; <UNPREDICTABLE>
    3ccc:	00000d27 	andeq	r0, r0, r7, lsr #26
    3cd0:	25024105 	strcs	r4, [r2, #-261]	; 0x105
    3cd4:	10000000 	andne	r0, r0, r0
    3cd8:	000a1e18 	andeq	r1, sl, r8, lsl lr
    3cdc:	02420500 	subeq	r0, r2, #0, 10
    3ce0:	0000081d 	andeq	r0, r0, sp, lsl r8
    3ce4:	0e451814 	mcreq	8, 2, r1, cr5, cr4, {0}
    3ce8:	44050000 	strmi	r0, [r5], #-0
    3cec:	00002502 	andeq	r2, r0, r2, lsl #10
    3cf0:	31183000 	tstcc	r8, r0
    3cf4:	0500000d 	streq	r0, [r0, #-13]
    3cf8:	058a0245 	streq	r0, [sl, #581]	; 0x245
    3cfc:	18340000 	ldmdane	r4!, {}	; <UNPREDICTABLE>
    3d00:	00000c94 	muleq	r0, r4, ip
    3d04:	25024705 	strcs	r4, [r2, #-1797]	; 0x705
    3d08:	38000000 	stmdacc	r0, {}	; <UNPREDICTABLE>
    3d0c:	000d4118 	andeq	r4, sp, r8, lsl r1
    3d10:	02490500 	subeq	r0, r9, #0, 10
    3d14:	00000838 	andeq	r0, r0, r8, lsr r8
    3d18:	0c26183c 	stceq	8, cr1, [r6], #-240	; 0xffffff10
    3d1c:	4c050000 	stcmi	0, cr0, [r5], {-0}
    3d20:	00017c02 	andeq	r7, r1, r2, lsl #24
    3d24:	c7184000 	ldrgt	r4, [r8, -r0]
    3d28:	0500000b 	streq	r0, [r0, #-11]
    3d2c:	0025024d 	eoreq	r0, r5, sp, asr #4
    3d30:	18440000 	stmdane	r4, {}^	; <UNPREDICTABLE>
    3d34:	00000f4f 	andeq	r0, r0, pc, asr #30
    3d38:	7c024e05 	stcvc	14, cr4, [r2], {5}
    3d3c:	48000001 	stmdami	r0, {r0}
    3d40:	000cab18 	andeq	sl, ip, r8, lsl fp
    3d44:	024f0500 	subeq	r0, pc, #0, 10
    3d48:	0000083e 	andeq	r0, r0, lr, lsr r8
    3d4c:	0bef184c 	bleq	ffbc9e84 <__bss_end__+0xffbbf77c>
    3d50:	52050000 	andpl	r0, r5, #0
    3d54:	00002502 	andeq	r2, r0, r2, lsl #10
    3d58:	16185000 	ldrne	r5, [r8], -r0
    3d5c:	0500000b 	streq	r0, [r0, #-11]
    3d60:	010c0253 	tsteq	ip, r3, asr r2
    3d64:	18540000 	ldmdane	r4, {}^	; <UNPREDICTABLE>
    3d68:	00000cc7 	andeq	r0, r0, r7, asr #25
    3d6c:	fb027605 	blx	a158a <__bss_end__+0x96e82>
    3d70:	58000007 	stmdapl	r0, {r0, r1, r2}
    3d74:	000c8c19 	andeq	r8, ip, r9, lsl ip
    3d78:	027a0500 	rsbseq	r0, sl, #0, 10
    3d7c:	00000299 	muleq	r0, r9, r2
    3d80:	04190148 	ldreq	r0, [r9], #-328	; 0x148
    3d84:	0500000c 	streq	r0, [r0, #-12]
    3d88:	025b027b 	subseq	r0, fp, #-1342177273	; 0xb0000007
    3d8c:	014c0000 	mrseq	r0, (UNDEF: 76)
    3d90:	000eb119 	andeq	fp, lr, r9, lsl r1
    3d94:	027f0500 	rsbseq	r0, pc, #0, 10
    3d98:	0000084f 	andeq	r0, r0, pc, asr #16
    3d9c:	dc1902dc 	lfmle	f0, 4, [r9], {220}	; 0xdc
    3da0:	0500000a 	streq	r0, [r0, #-10]
    3da4:	06000284 	streq	r0, [r0], -r4, lsl #5
    3da8:	02e00000 	rsceq	r0, r0, #0
    3dac:	000ac119 	andeq	ip, sl, r9, lsl r1
    3db0:	02850500 	addeq	r0, r5, #0, 10
    3db4:	0000085b 	andeq	r0, r0, fp, asr r8
    3db8:	0e0002ec 	cdpeq	2, 0, cr0, cr0, cr12, {7}
    3dbc:	00040b04 	andeq	r0, r4, r4, lsl #22
    3dc0:	00251500 	eoreq	r1, r5, r0, lsl #10
    3dc4:	058a0000 	streq	r0, [sl]
    3dc8:	29160000 	ldmdbcs	r6, {}	; <UNPREDICTABLE>
    3dcc:	16000004 	strne	r0, [r0], -r4
    3dd0:	0000010a 	andeq	r0, r0, sl, lsl #2
    3dd4:	00058a16 	andeq	r8, r5, r6, lsl sl
    3dd8:	00251600 	eoreq	r1, r5, r0, lsl #12
    3ddc:	0e000000 	cdpeq	0, 0, cr0, cr0, cr0, {0}
    3de0:	00011904 	andeq	r1, r1, r4, lsl #18
    3de4:	6c040e00 	stcvs	14, cr0, [r4], {-0}
    3de8:	15000005 	strne	r0, [r0, #-5]
    3dec:	00000086 	andeq	r0, r0, r6, lsl #1
    3df0:	000005b4 			; <UNDEFINED> instruction: 0x000005b4
    3df4:	00042916 	andeq	r2, r4, r6, lsl r9
    3df8:	010a1600 	tsteq	sl, r0, lsl #12
    3dfc:	86160000 	ldrhi	r0, [r6], -r0
    3e00:	16000000 	strne	r0, [r0], -r0
    3e04:	00000025 	andeq	r0, r0, r5, lsr #32
    3e08:	96040e00 	strls	r0, [r4], -r0, lsl #28
    3e0c:	15000005 	strne	r0, [r0, #-5]
    3e10:	00000025 	andeq	r0, r0, r5, lsr #32
    3e14:	000005ce 	andeq	r0, r0, lr, asr #11
    3e18:	00042916 	andeq	r2, r4, r6, lsl r9
    3e1c:	010a1600 	tsteq	sl, r0, lsl #12
    3e20:	0e000000 	cdpeq	0, 0, cr0, cr0, cr0, {0}
    3e24:	0005ba04 	andeq	fp, r5, r4, lsl #20
    3e28:	00540900 	subseq	r0, r4, r0, lsl #18
    3e2c:	05e40000 	strbeq	r0, [r4, #0]!
    3e30:	cc0a0000 	stcgt	0, cr0, [sl], {-0}
    3e34:	02000000 	andeq	r0, r0, #0
    3e38:	00540900 	subseq	r0, r4, r0, lsl #18
    3e3c:	05f40000 	ldrbeq	r0, [r4, #0]!
    3e40:	cc0a0000 	stcgt	0, cr0, [sl], {-0}
    3e44:	00000000 	andeq	r0, r0, r0
    3e48:	0cec0600 	stcleq	6, cr0, [ip]
    3e4c:	1d050000 	stcne	0, cr0, [r5, #-0]
    3e50:	0002e101 	andeq	lr, r2, r1, lsl #2
    3e54:	0e731a00 	vaddeq.f32	s3, s6, s0
    3e58:	050c0000 	streq	r0, [ip, #-0]
    3e5c:	06350121 	ldrteq	r0, [r5], -r1, lsr #2
    3e60:	14180000 	ldrne	r0, [r8], #-0
    3e64:	0500000d 	streq	r0, [r0, #-13]
    3e68:	06350123 	ldrteq	r0, [r5], -r3, lsr #2
    3e6c:	18000000 	stmdane	r0, {}	; <UNPREDICTABLE>
    3e70:	00000bfd 	strdeq	r0, [r0], -sp
    3e74:	25012405 	strcs	r2, [r1, #-1029]	; 0x405
    3e78:	04000000 	streq	r0, [r0], #-0
    3e7c:	000ce618 	andeq	lr, ip, r8, lsl r6
    3e80:	01250500 	teqeq	r5, r0, lsl #10
    3e84:	0000063b 	andeq	r0, r0, fp, lsr r6
    3e88:	040e0008 	streq	r0, [lr], #-8
    3e8c:	00000600 	andeq	r0, r0, r0, lsl #12
    3e90:	05f4040e 	ldrbeq	r0, [r4, #1038]!	; 0x40e
    3e94:	161a0000 	ldrne	r0, [sl], -r0
    3e98:	0e00000a 	cdpeq	0, 0, cr0, cr0, cr10, {0}
    3e9c:	76013d05 	strvc	r3, [r1], -r5, lsl #26
    3ea0:	18000006 	stmdane	r0, {r1, r2}
    3ea4:	00000d5a 	andeq	r0, r0, sl, asr sp
    3ea8:	76013e05 	strvc	r3, [r1], -r5, lsl #28
    3eac:	00000006 	andeq	r0, r0, r6
    3eb0:	000d9418 	andeq	r9, sp, r8, lsl r4
    3eb4:	013f0500 	teqeq	pc, r0, lsl #10
    3eb8:	00000676 	andeq	r0, r0, r6, ror r6
    3ebc:	0e181806 	cdpeq	8, 1, cr1, cr8, cr6, {0}
    3ec0:	40050000 	andmi	r0, r5, r0
    3ec4:	00005b01 	andeq	r5, r0, r1, lsl #22
    3ec8:	09000c00 	stmdbeq	r0, {sl, fp}
    3ecc:	0000005b 	andeq	r0, r0, fp, asr r0
    3ed0:	00000686 	andeq	r0, r0, r6, lsl #13
    3ed4:	0000cc0a 	andeq	ip, r0, sl, lsl #24
    3ed8:	1b000200 	blne	46e0 <__code_start__-0x3920>
    3edc:	025705d0 	subseq	r0, r7, #208, 10	; 0x34000000
    3ee0:	00000787 	andeq	r0, r0, r7, lsl #15
    3ee4:	000e5718 	andeq	r5, lr, r8, lsl r7
    3ee8:	02590500 	subseq	r0, r9, #0, 10
    3eec:	0000002c 	andeq	r0, r0, ip, lsr #32
    3ef0:	0e021800 	cdpeq	8, 0, cr1, cr2, cr0, {0}
    3ef4:	5a050000 	bpl	143efc <__bss_end__+0x1397f4>
    3ef8:	00010c02 	andeq	r0, r1, r2, lsl #24
    3efc:	19180400 	ldmdbne	r8, {sl}
    3f00:	0500000c 	streq	r0, [r0, #-12]
    3f04:	0787025b 			; <UNDEFINED> instruction: 0x0787025b
    3f08:	18080000 	stmdane	r8, {}	; <UNPREDICTABLE>
    3f0c:	00000f26 	andeq	r0, r0, r6, lsr #30
    3f10:	92025c05 	andls	r5, r2, #1280	; 0x500
    3f14:	24000001 	strcs	r0, [r0], #-1
    3f18:	000bb818 	andeq	fp, fp, r8, lsl r8
    3f1c:	025d0500 	subseq	r0, sp, #0, 10
    3f20:	00000025 	andeq	r0, r0, r5, lsr #32
    3f24:	0d0f1848 	stceq	8, cr1, [pc, #-288]	; 3e0c <__code_start__-0x41f4>
    3f28:	5e050000 	cdppl	0, 0, cr0, cr5, cr0, {0}
    3f2c:	00006902 	andeq	r6, r0, r2, lsl #18
    3f30:	3c185000 	ldccc	0, cr5, [r8], {-0}
    3f34:	0500000f 	streq	r0, [r0, #-15]
    3f38:	0641025f 			; <UNDEFINED> instruction: 0x0641025f
    3f3c:	18580000 	ldmdane	r8, {}^	; <UNPREDICTABLE>
    3f40:	00000d1a 	andeq	r0, r0, sl, lsl sp
    3f44:	f4026005 	vst4.8	{d6-d9}, [r2], r5
    3f48:	68000000 	stmdavs	r0, {}	; <UNPREDICTABLE>
    3f4c:	000f4118 	andeq	r4, pc, r8, lsl r1	; <UNPREDICTABLE>
    3f50:	02610500 	rsbeq	r0, r1, #0, 10
    3f54:	000000f4 	strdeq	r0, [r0], -r4
    3f58:	0a7b1870 	beq	1eca120 <__bss_end__+0x1ebfa18>
    3f5c:	62050000 	andvs	r0, r5, #0
    3f60:	0000f402 	andeq	pc, r0, r2, lsl #8
    3f64:	93187800 	tstls	r8, #0, 16
    3f68:	0500000e 	streq	r0, [r0, #-14]
    3f6c:	07970263 	ldreq	r0, [r7, r3, ror #4]
    3f70:	18800000 	stmne	r0, {}	; <UNPREDICTABLE>
    3f74:	00000c0d 	andeq	r0, r0, sp, lsl #24
    3f78:	a7026405 	strge	r6, [r2, -r5, lsl #8]
    3f7c:	88000007 	stmdahi	r0, {r0, r1, r2}
    3f80:	000e2518 	andeq	r2, lr, r8, lsl r5
    3f84:	02650500 	rsbeq	r0, r5, #0, 10
    3f88:	00000025 	andeq	r0, r0, r5, lsr #32
    3f8c:	0b6418a0 	bleq	190a214 <__bss_end__+0x18ffb0c>
    3f90:	66050000 	strvs	r0, [r5], -r0
    3f94:	0000f402 	andeq	pc, r0, r2, lsl #8
    3f98:	6c18a400 	cfldrsvs	mvf10, [r8], {-0}
    3f9c:	0500000a 	streq	r0, [r0, #-10]
    3fa0:	00f40267 	rscseq	r0, r4, r7, ror #4
    3fa4:	18ac0000 	stmiane	ip!, {}	; <UNPREDICTABLE>
    3fa8:	00000b53 	andeq	r0, r0, r3, asr fp
    3fac:	f4026805 	vst2.8	{d6-d7}, [r2], r5
    3fb0:	b4000000 	strlt	r0, [r0], #-0
    3fb4:	000a3318 	andeq	r3, sl, r8, lsl r3
    3fb8:	02690500 	rsbeq	r0, r9, #0, 10
    3fbc:	000000f4 	strdeq	r0, [r0], -r4
    3fc0:	0a4218bc 	beq	108a2b8 <__bss_end__+0x107fbb0>
    3fc4:	6a050000 	bvs	143fcc <__bss_end__+0x1398c4>
    3fc8:	0000f402 	andeq	pc, r0, r2, lsl #8
    3fcc:	cc18c400 	cfldrsgt	mvf12, [r8], {-0}
    3fd0:	0500000c 	streq	r0, [r0, #-12]
    3fd4:	0025026b 	eoreq	r0, r5, fp, ror #4
    3fd8:	00cc0000 	sbceq	r0, ip, r0
    3fdc:	00011209 	andeq	r1, r1, r9, lsl #4
    3fe0:	00079700 	andeq	r9, r7, r0, lsl #14
    3fe4:	00cc0a00 	sbceq	r0, ip, r0, lsl #20
    3fe8:	00190000 	andseq	r0, r9, r0
    3fec:	00011209 	andeq	r1, r1, r9, lsl #4
    3ff0:	0007a700 	andeq	sl, r7, r0, lsl #14
    3ff4:	00cc0a00 	sbceq	r0, ip, r0, lsl #20
    3ff8:	00070000 	andeq	r0, r7, r0
    3ffc:	00011209 	andeq	r1, r1, r9, lsl #4
    4000:	0007b700 	andeq	fp, r7, r0, lsl #14
    4004:	00cc0a00 	sbceq	r0, ip, r0, lsl #20
    4008:	00170000 	andseq	r0, r7, r0
    400c:	7005f01b 	andvc	pc, r5, fp, lsl r0	; <UNPREDICTABLE>
    4010:	0007db02 	andeq	sp, r7, r2, lsl #22
    4014:	0c7c1800 	ldcleq	8, cr1, [ip], #-0
    4018:	73050000 	movwvc	r0, #20480	; 0x5000
    401c:	0007db02 	andeq	sp, r7, r2, lsl #22
    4020:	8a180000 	bhi	604028 <__bss_end__+0x5f9920>
    4024:	0500000e 	streq	r0, [r0, #-14]
    4028:	07eb0274 			; <UNDEFINED> instruction: 0x07eb0274
    402c:	00780000 	rsbseq	r0, r8, r0
    4030:	0002db09 	andeq	sp, r2, r9, lsl #22
    4034:	0007eb00 	andeq	lr, r7, r0, lsl #22
    4038:	00cc0a00 	sbceq	r0, ip, r0, lsl #20
    403c:	001d0000 	andseq	r0, sp, r0
    4040:	00002c09 	andeq	r2, r0, r9, lsl #24
    4044:	0007fb00 	andeq	pc, r7, r0, lsl #22
    4048:	00cc0a00 	sbceq	r0, ip, r0, lsl #20
    404c:	001d0000 	andseq	r0, sp, r0
    4050:	5505f01c 	strpl	pc, [r5, #-28]
    4054:	00081d02 	andeq	r1, r8, r2, lsl #26
    4058:	0d531d00 	ldcleq	13, cr1, [r3, #-0]
    405c:	6c050000 	stcvs	0, cr0, [r5], {-0}
    4060:	00068602 	andeq	r8, r6, r2, lsl #12
    4064:	0ee61d00 	cdpeq	13, 14, cr1, cr6, cr0, {0}
    4068:	75050000 	strvc	r0, [r5, #-0]
    406c:	0007b702 	andeq	fp, r7, r2, lsl #14
    4070:	12090000 	andne	r0, r9, #0
    4074:	2d000001 	stccs	0, cr0, [r0, #-4]
    4078:	0a000008 	beq	40a0 <__code_start__-0x3f60>
    407c:	000000cc 	andeq	r0, r0, ip, asr #1
    4080:	381e0018 	ldmdacc	lr, {r3, r4}
    4084:	16000008 	strne	r0, [r0], -r8
    4088:	00000429 	andeq	r0, r0, r9, lsr #8
    408c:	2d040e00 	stccs	14, cr0, [r4, #-0]
    4090:	0e000008 	cdpeq	0, 0, cr0, cr0, cr8, {0}
    4094:	00017c04 	andeq	r7, r1, r4, lsl #24
    4098:	084f1e00 	stmdaeq	pc, {r9, sl, fp, ip}^	; <UNPREDICTABLE>
    409c:	25160000 	ldrcs	r0, [r6, #-0]
    40a0:	00000000 	andeq	r0, r0, r0
    40a4:	0855040e 	ldmdaeq	r5, {r1, r2, r3, sl}^
    40a8:	040e0000 	streq	r0, [lr], #-0
    40ac:	00000844 	andeq	r0, r0, r4, asr #16
    40b0:	0005f409 	andeq	pc, r5, r9, lsl #8
    40b4:	00086b00 	andeq	r6, r8, r0, lsl #22
    40b8:	00cc0a00 	sbceq	r0, ip, r0, lsl #20
    40bc:	00020000 	andeq	r0, r2, r0
    40c0:	000e391f 	andeq	r3, lr, pc, lsl r9
    40c4:	02fd0500 	rscseq	r0, sp, #0, 10
    40c8:	00000429 	andeq	r0, r0, r9, lsr #8
    40cc:	000e321f 	andeq	r3, lr, pc, lsl r2
    40d0:	02fe0500 	rscseq	r0, lr, #0, 10
    40d4:	0000042f 	andeq	r0, r0, pc, lsr #8
    40d8:	00002515 	andeq	r2, r0, r5, lsl r5
    40dc:	00089200 	andeq	r9, r8, r0, lsl #4
    40e0:	00251600 	eoreq	r1, r5, r0, lsl #12
    40e4:	20000000 	andcs	r0, r0, r0
    40e8:	00000633 	andeq	r0, r0, r3, lsr r6
    40ec:	089d1d06 	ldmeq	sp, {r1, r2, r8, sl, fp, ip}
    40f0:	040e0000 	streq	r0, [lr], #-0
    40f4:	00000883 	andeq	r0, r0, r3, lsl #17
    40f8:	00002515 	andeq	r2, r0, r5, lsl r5
    40fc:	0008b200 	andeq	fp, r8, r0, lsl #4
    4100:	058a1600 	streq	r1, [sl, #1536]	; 0x600
    4104:	20000000 	andcs	r0, r0, r0
    4108:	00000670 	andeq	r0, r0, r0, ror r6
    410c:	08bd2206 	popeq	{r1, r2, r9, sp}
    4110:	040e0000 	streq	r0, [lr], #-0
    4114:	000008a3 	andeq	r0, r0, r3, lsr #17
    4118:	00540121 	subseq	r0, r4, r1, lsr #2
    411c:	0c080000 	stceq	0, cr0, [r8], {-0}
    4120:	00000900 	andeq	r0, r0, r0, lsl #18
    4124:	000a5c22 	andeq	r5, sl, r2, lsr #24
    4128:	79220000 	stmdbvc	r2!, {}	; <UNPREDICTABLE>
    412c:	0100000e 	tsteq	r0, lr
    4130:	000ed122 	andeq	sp, lr, r2, lsr #2
    4134:	9d220400 	cfstrsls	mvf0, [r2, #-0]
    4138:	0500000a 	streq	r0, [r0, #-10]
    413c:	000c3422 	andeq	r3, ip, r2, lsr #8
    4140:	ee220600 	cfmadda32	mvax0, mvax0, mvfx2, mvfx0
    4144:	0700000e 	streq	r0, [r0, -lr]
    4148:	000efd22 	andeq	pc, lr, r2, lsr #26
    414c:	0c220300 	stceq	3, cr0, [r2], #-0
    4150:	0200000f 	andeq	r0, r0, #15
    4154:	0b0a1000 	bleq	28815c <__bss_end__+0x27da54>
    4158:	072c0000 	streq	r0, [ip, -r0]!
    415c:	00099006 	andeq	r9, r9, r6
    4160:	6f691100 	svcvs	0x00691100
    4164:	33090700 	movwcc	r0, #38656	; 0x9700
    4168:	00000000 	andeq	r0, r0, r0
    416c:	72656911 	rsbvc	r6, r5, #278528	; 0x44000
    4170:	330a0700 	movwcc	r0, #42752	; 0xa700
    4174:	04000000 	streq	r0, [r0], #-0
    4178:	72696911 	rsbvc	r6, r9, #278528	; 0x44000
    417c:	33110700 	tstcc	r1, #0, 14
    4180:	08000000 	stmdaeq	r0, {}	; <UNPREDICTABLE>
    4184:	72636c11 	rsbvc	r6, r3, #4352	; 0x1100
    4188:	33130700 	tstcc	r3, #0, 14
    418c:	0c000000 	stceq	0, cr0, [r0], {-0}
    4190:	72636d11 	rsbvc	r6, r3, #1088	; 0x440
    4194:	33140700 	tstcc	r4, #0, 14
    4198:	10000000 	andne	r0, r0, r0
    419c:	72736c11 	rsbsvc	r6, r3, #4352	; 0x1100
    41a0:	33150700 	tstcc	r5, #0, 14
    41a4:	14000000 	strne	r0, [r0], #-0
    41a8:	72736d11 	rsbsvc	r6, r3, #1088	; 0x440
    41ac:	33160700 	tstcc	r6, #0, 14
    41b0:	18000000 	stmdane	r0, {}	; <UNPREDICTABLE>
    41b4:	000d8c0c 	andeq	r8, sp, ip, lsl #24
    41b8:	33170700 	tstcc	r7, #0, 14
    41bc:	1c000000 	stcne	0, cr0, [r0], {-0}
    41c0:	000ab20c 	andeq	fp, sl, ip, lsl #4
    41c4:	331b0700 	tstcc	fp, #0, 14
    41c8:	20000000 	andcs	r0, r0, r0
    41cc:	000a920c 	andeq	r9, sl, ip, lsl #4
    41d0:	331d0700 	tstcc	sp, #0, 14
    41d4:	24000000 	strcs	r0, [r0], #-0
    41d8:	000d760c 	andeq	r7, sp, ip, lsl #12
    41dc:	331e0700 	tstcc	lr, #0, 14
    41e0:	28000000 	stmdacs	r0, {}	; <UNPREDICTABLE>
    41e4:	0b7a2300 	bleq	1e8cdec <__bss_end__+0x1e826e4>
    41e8:	07010000 	streq	r0, [r1, -r0]
    41ec:	000009a5 	andeq	r0, r0, r5, lsr #19
    41f0:	20215004 	eorcs	r5, r1, r4
    41f4:	0033040e 	eorseq	r0, r3, lr, lsl #8
    41f8:	9f0f0000 	svcls	0x000f0000
    41fc:	23000009 	movwcs	r0, #9
    4200:	00000ca6 	andeq	r0, r0, r6, lsr #25
    4204:	09bf2801 	ldmibeq	pc!, {r0, fp, sp}	; <UNPREDICTABLE>
    4208:	50400000 	subpl	r0, r0, r0
    420c:	040e2021 	streq	r2, [lr], #-33	; 0x21
    4210:	00000900 	andeq	r0, r0, r0, lsl #18
    4214:	0009b90f 	andeq	fp, r9, pc, lsl #18
    4218:	0ec32400 	cdpeq	4, 12, cr2, cr3, cr0, {0}
    421c:	a7010000 	strge	r0, [r1, -r0]
    4220:	00000025 	andeq	r0, r0, r5, lsr #32
    4224:	00009984 	andeq	r9, r0, r4, lsl #19
    4228:	00000010 	andeq	r0, r0, r0, lsl r0
    422c:	09f09c01 	ldmibeq	r0!, {r0, sl, fp, ip, pc}^
    4230:	8c250000 	stchi	0, cr0, [r5], #-0
    4234:	9c000099 	stcls	0, cr0, [r0], {153}	; 0x99
    4238:	2500000c 	strcs	r0, [r0, #-12]
    423c:	00009990 	muleq	r0, r0, r9
    4240:	00000ad2 	ldrdeq	r0, [r0], -r2
    4244:	06182600 	ldreq	r2, [r8], -r0, lsl #12
    4248:	9f010000 	svcls	0x00010000
    424c:	00009954 	andeq	r9, r0, r4, asr r9
    4250:	00000030 	andeq	r0, r0, r0, lsr r0
    4254:	0a4e9c01 	beq	13ab260 <__bss_end__+0x13a0b58>
    4258:	63270000 	teqvs	r7, #0
    425c:	2c9f0100 	ldfcss	f0, [pc], {0}
    4260:	3b000000 	blcc	4268 <__code_start__-0x3d98>
    4264:	2500000f 	strcs	r0, [r0, #-15]
    4268:	00009960 	andeq	r9, r0, r0, ror #18
    426c:	00000c9c 	muleq	r0, ip, ip
    4270:	00996425 	addseq	r6, r9, r5, lsr #8
    4274:	000aa500 	andeq	sl, sl, r0, lsl #10
    4278:	99782800 	ldmdbls	r8!, {fp, sp}^
    427c:	0ca70000 	stceq	0, cr0, [r7]
    4280:	0a440000 	beq	1104288 <__bss_end__+0x10f9b80>
    4284:	01290000 	teqeq	r9, r0
    4288:	400c0550 	andmi	r0, ip, r0, asr r5
    428c:	29202150 	stmdbcs	r0!, {r4, r6, r8, sp}
    4290:	74055101 	strvc	r5, [r5], #-257	; 0x101
    4294:	1aff0800 	bne	fffc629c <__bss_end__+0xfffbbb94>
    4298:	997c2500 	ldmdbls	ip!, {r8, sl, sp}^
    429c:	0c9c0000 	ldceq	0, cr0, [ip], {0}
    42a0:	24000000 	strcs	r0, [r0], #-0
    42a4:	00000bdd 	ldrdeq	r0, [r0], -sp
    42a8:	00259701 	eoreq	r9, r5, r1, lsl #14
    42ac:	99240000 	stmdbls	r4!, {}	; <UNPREDICTABLE>
    42b0:	00300000 	eorseq	r0, r0, r0
    42b4:	9c010000 	stcls	0, cr0, [r1], {-0}
    42b8:	00000aa5 	andeq	r0, r0, r5, lsr #21
    42bc:	0100632a 	tsteq	r0, sl, lsr #6
    42c0:	0000259b 	muleq	r0, fp, r5
    42c4:	25540100 	ldrbcs	r0, [r4, #-256]	; 0x100
    42c8:	0000992c 	andeq	r9, r0, ip, lsr #18
    42cc:	00000c9c 	muleq	r0, ip, ip
    42d0:	00993025 	addseq	r3, r9, r5, lsr #32
    42d4:	000ad200 	andeq	sp, sl, r0, lsl #4
    42d8:	99402800 	stmdbls	r0, {fp, sp}^
    42dc:	0cb20000 	ldceq	0, cr0, [r2]
    42e0:	0a9b0000 	beq	fe6c42e8 <__bss_end__+0xfe6b9be0>
    42e4:	01290000 	teqeq	r9, r0
    42e8:	400c0550 	andmi	r0, ip, r0, asr r5
    42ec:	00202150 	eoreq	r2, r0, r0, asr r1
    42f0:	00994825 	addseq	r4, r9, r5, lsr #16
    42f4:	000c9c00 	andeq	r9, ip, r0, lsl #24
    42f8:	91240000 	teqls	r4, r0
    42fc:	0100000b 	tsteq	r0, fp
    4300:	00002588 	andeq	r2, r0, r8, lsl #11
    4304:	00990400 	addseq	r0, r9, r0, lsl #8
    4308:	00002000 	andeq	r2, r0, r0
    430c:	d29c0100 	addsle	r0, ip, #0, 2
    4310:	2b00000a 	blcs	4340 <__code_start__-0x3cc0>
    4314:	00009910 	andeq	r9, r0, r0, lsl r9
    4318:	00000cb2 			; <UNDEFINED> instruction: 0x00000cb2
    431c:	05500129 	ldrbeq	r0, [r0, #-297]	; 0x129
    4320:	2150640c 	cmpcs	r0, ip, lsl #8
    4324:	24000020 	strcs	r0, [r0], #-32
    4328:	00000ea3 	andeq	r0, r0, r3, lsr #29
    432c:	00257f01 	eoreq	r7, r5, r1, lsl #30
    4330:	98ec0000 	stmials	ip!, {}^	; <UNPREDICTABLE>
    4334:	00180000 	andseq	r0, r8, r0
    4338:	9c010000 	stcls	0, cr0, [r1], {-0}
    433c:	00000aff 	strdeq	r0, [r0], -pc	; <UNPREDICTABLE>
    4340:	0098f82b 	addseq	pc, r8, fp, lsr #16
    4344:	000cb200 	andeq	fp, ip, r0, lsl #4
    4348:	50012900 	andpl	r2, r1, r0, lsl #18
    434c:	50640c05 	rsbpl	r0, r4, r5, lsl #24
    4350:	00002021 	andeq	r2, r0, r1, lsr #32
    4354:	000a2926 	andeq	r2, sl, r6, lsr #18
    4358:	3c3a0100 	ldfccs	f0, [sl], #-0
    435c:	b0000098 	mullt	r0, r8, r0
    4360:	01000000 	mrseq	r0, (UNDEF: 0)
    4364:	000c3d9c 	muleq	ip, ip, sp
    4368:	984c2800 	stmdals	ip, {fp, sp}^
    436c:	0cbd0000 	ldceq	0, cr0, [sp]
    4370:	0b2c0000 	bleq	b04378 <__bss_end__+0xaf9c70>
    4374:	01290000 	teqeq	r9, r0
    4378:	293e0150 	ldmdbcs	lr!, {r4, r6, r8}
    437c:	32015101 	andcc	r5, r1, #1073741824	; 0x40000000
    4380:	98582800 	ldmdals	r8, {fp, sp}^
    4384:	0cbd0000 	ldceq	0, cr0, [sp]
    4388:	0b440000 	bleq	1104390 <__bss_end__+0x10f9c88>
    438c:	01290000 	teqeq	r9, r0
    4390:	293f0150 	ldmdbcs	pc!, {r4, r6, r8}	; <UNPREDICTABLE>
    4394:	32015101 	andcc	r5, r1, #1073741824	; 0x40000000
    4398:	985c2500 	ldmdals	ip, {r8, sl, sp}^
    439c:	0c9c0000 	ldceq	0, cr0, [ip], {0}
    43a0:	68280000 	stmdavs	r8!, {}	; <UNPREDICTABLE>
    43a4:	3d000098 	stccc	0, cr0, [r0, #-608]	; 0xfffffda0
    43a8:	6900000c 	stmdbvs	r0, {r2, r3}
    43ac:	2900000b 	stmdbcs	r0, {r0, r1, r3}
    43b0:	0c055001 	stceq	0, cr5, [r5], {1}
    43b4:	20215004 	eorcs	r5, r1, r4
    43b8:	01510129 	cmpeq	r1, r9, lsr #2
    43bc:	6c250031 	stcvs	0, cr0, [r5], #-196	; 0xffffff3c
    43c0:	9c000098 	stcls	0, cr0, [r0], {152}	; 0x98
    43c4:	2800000c 	stmdacs	r0, {r2, r3}
    43c8:	0000987c 	andeq	r9, r0, ip, ror r8
    43cc:	00000ca7 	andeq	r0, r0, r7, lsr #25
    43d0:	00000b8b 	andeq	r0, r0, fp, lsl #23
    43d4:	02500129 	subseq	r0, r0, #1073741834	; 0x4000000a
    43d8:	01290074 	teqeq	r9, r4, ror r0
    43dc:	00300151 	eorseq	r0, r0, r1, asr r1
    43e0:	00988828 	addseq	r8, r8, r8, lsr #16
    43e4:	000ca700 	andeq	sl, ip, r0, lsl #14
    43e8:	000ba700 	andeq	sl, fp, r0, lsl #14
    43ec:	50012900 	andpl	r2, r1, r0, lsl #18
    43f0:	50440c05 	subpl	r0, r4, r5, lsl #24
    43f4:	01292021 	teqeq	r9, r1, lsr #32
    43f8:	00300151 	eorseq	r0, r0, r1, asr r1
    43fc:	00989428 	addseq	r9, r8, r8, lsr #8
    4400:	000ca700 	andeq	sl, ip, r0, lsl #14
    4404:	000bc300 	andeq	ip, fp, r0, lsl #6
    4408:	50012900 	andpl	r2, r1, r0, lsl #18
    440c:	504c0c05 	subpl	r0, ip, r5, lsl #24
    4410:	01292021 	teqeq	r9, r1, lsr #32
    4414:	00330151 	eorseq	r0, r3, r1, asr r1
    4418:	0098a028 	addseq	sl, r8, r8, lsr #32
    441c:	000ca700 	andeq	sl, ip, r0, lsl #14
    4420:	000bdf00 	andeq	sp, fp, r0, lsl #30
    4424:	50012900 	andpl	r2, r1, r0, lsl #18
    4428:	50500c05 	subspl	r0, r0, r5, lsl #24
    442c:	01292021 	teqeq	r9, r1, lsr #32
    4430:	00300151 	eorseq	r0, r0, r1, asr r1
    4434:	0098ac28 	addseq	sl, r8, r8, lsr #24
    4438:	000ca700 	andeq	sl, ip, r0, lsl #14
    443c:	000bfc00 	andeq	pc, fp, r0, lsl #24
    4440:	50012900 	andpl	r2, r1, r0, lsl #18
    4444:	50480c05 	subpl	r0, r8, r5, lsl #24
    4448:	01292021 	teqeq	r9, r1, lsr #32
    444c:	c7080251 	smlsdgt	r8, r1, r2, r0
    4450:	98b82800 	ldmls	r8!, {fp, sp}
    4454:	0ca70000 	stceq	0, cr0, [r7]
    4458:	0c1a0000 	ldceq	0, cr0, [sl], {-0}
    445c:	01290000 	teqeq	r9, r0
    4460:	680c0550 	stmdavs	ip, {r4, r6, r8, sl}
    4464:	29202150 	stmdbcs	r0!, {r4, r6, r8, sp}
    4468:	0a035101 	beq	d8874 <__bss_end__+0xce16c>
    446c:	2800010e 	stmdacs	r0, {r1, r2, r3, r8}
    4470:	000098c4 	andeq	r9, r0, r4, asr #17
    4474:	00000ca7 	andeq	r0, r0, r7, lsr #25
    4478:	00000c33 	andeq	r0, r0, r3, lsr ip
    447c:	02500129 	subseq	r0, r0, #1073741834	; 0x4000000a
    4480:	01290074 	teqeq	r9, r4, ror r0
    4484:	00330151 	eorseq	r0, r3, r1, asr r1
    4488:	0098c825 	addseq	ip, r8, r5, lsr #16
    448c:	000c9c00 	andeq	r9, ip, r0, lsl #24
    4490:	bb2c0000 	bllt	b04498 <__bss_end__+0xaf9d90>
    4494:	0100000e 	tsteq	r0, lr
    4498:	00981c2d 	addseq	r1, r8, sp, lsr #24
    449c:	00002000 	andeq	r2, r0, r0
    44a0:	959c0100 	ldrls	r0, [ip, #256]	; 0x100
    44a4:	2d00000c 	stccs	0, cr0, [r0, #-48]	; 0xffffffd0
    44a8:	000001b7 			; <UNDEFINED> instruction: 0x000001b7
    44ac:	0c952d01 	ldceq	13, cr2, [r5], {1}
    44b0:	0f590000 	svceq	0x00590000
    44b4:	76270000 	strtvc	r0, [r7], -r0
    44b8:	01006c61 	tsteq	r0, r1, ror #24
    44bc:	00002c2d 	andeq	r2, r0, sp, lsr #24
    44c0:	000f7700 	andeq	r7, pc, r0, lsl #14
    44c4:	982c2800 	stmdals	ip!, {fp, sp}
    44c8:	0cb20000 	ldceq	0, cr0, [r2]
    44cc:	0c840000 	stceq	0, cr0, [r4], {0}
    44d0:	01290000 	teqeq	r9, r0
    44d4:	00740250 	rsbseq	r0, r4, r0, asr r2
    44d8:	98382b00 	ldmdals	r8!, {r8, r9, fp, sp}
    44dc:	0ca70000 	stceq	0, cr0, [r7]
    44e0:	01290000 	teqeq	r9, r0
    44e4:	00740250 	rsbseq	r0, r4, r0, asr r2
    44e8:	040e0000 	streq	r0, [lr], #-0
    44ec:	00000c9b 	muleq	r0, fp, ip
    44f0:	08df2f2e 	ldmeq	pc, {r1, r2, r3, r5, r8, r9, sl, fp, sp}^	; <UNPREDICTABLE>
    44f4:	08df0000 	ldmeq	pc, {}^	; <UNPREDICTABLE>
    44f8:	89060000 	stmdbhi	r6, {}	; <UNPREDICTABLE>
    44fc:	000d9a2f 	andeq	r9, sp, pc, lsr #20
    4500:	000d9a00 	andeq	r9, sp, r0, lsl #20
    4504:	2f9c0600 	svccs	0x009c0600
    4508:	00000e9d 	muleq	r0, sp, lr
    450c:	00000e9d 	muleq	r0, sp, lr
    4510:	6a2fa806 	bvs	bee530 <__bss_end__+0xbe3e28>
    4514:	6a00000c 	bvs	454c <__code_start__-0x3ab4>
    4518:	0800000c 	stmdaeq	r0, {r2, r3}
    451c:	0b700019 	bleq	1c04588 <__bss_end__+0x1bf9e80>
    4520:	00040000 	andeq	r0, r4, r0
    4524:	00001627 	andeq	r1, r0, r7, lsr #12
    4528:	0da00104 	stfeqs	f0, [r0, #16]!
    452c:	700c0000 	andvc	r0, ip, r0
    4530:	1e00000f 	cdpne	0, 0, cr0, cr0, cr15, {0}
    4534:	9400000b 	strls	r0, [r0], #-11
    4538:	20000099 	mulcs	r0, r9, r0
    453c:	66000001 	strvs	r0, [r0], -r1
    4540:	02000011 	andeq	r0, r0, #17
    4544:	6e690504 	cdpvs	5, 6, cr0, cr9, cr4, {0}
    4548:	04030074 	streq	r0, [r3], #-116	; 0x74
    454c:	00016c07 	andeq	r6, r1, r7, lsl #24
    4550:	002c0400 	eoreq	r0, ip, r0, lsl #8
    4554:	01030000 	mrseq	r0, (UNDEF: 3)
    4558:	0000cf06 	andeq	ip, r0, r6, lsl #30
    455c:	05020300 	streq	r0, [r2, #-768]	; 0x300
    4560:	00000113 	andeq	r0, r0, r3, lsl r1
    4564:	9c050403 	cfstrsls	mvf0, [r5], {3}
    4568:	03000001 	movweq	r0, #1
    456c:	01970508 	orrseq	r0, r7, r8, lsl #10
    4570:	01030000 	mrseq	r0, (UNDEF: 3)
    4574:	0000cd08 	andeq	ip, r0, r8, lsl #26
    4578:	07020300 	streq	r0, [r2, -r0, lsl #6]
    457c:	000000e8 	andeq	r0, r0, r8, ror #1
    4580:	67070403 	strvs	r0, [r7, -r3, lsl #8]
    4584:	03000001 	movweq	r0, #1
    4588:	01620708 	cmneq	r2, r8, lsl #14
    458c:	b5050000 	strlt	r0, [r5, #-0]
    4590:	0200000c 	andeq	r0, r0, #12
    4594:	00002507 	andeq	r2, r0, r7, lsl #10
    4598:	0c9f0500 	cfldr32eq	mvfx0, [pc], {0}
    459c:	2c030000 	stccs	0, cr0, [r3], {-0}
    45a0:	00000046 	andeq	r0, r0, r6, asr #32
    45a4:	000d7b05 	andeq	r7, sp, r5, lsl #22
    45a8:	46720300 	ldrbtmi	r0, [r2], -r0, lsl #6
    45ac:	06000000 	streq	r0, [r0], -r0
    45b0:	00000c43 	andeq	r0, r0, r3, asr #24
    45b4:	2c016504 	cfstr32cs	mvfx6, [r1], {4}
    45b8:	07000000 	streq	r0, [r0, -r0]
    45bc:	bca60304 	stclt	3, cr0, [r6], #16
    45c0:	08000000 	stmdaeq	r0, {}	; <UNPREDICTABLE>
    45c4:	00000c2e 	andeq	r0, r0, lr, lsr #24
    45c8:	0091a803 	addseq	sl, r1, r3, lsl #16
    45cc:	d6080000 	strle	r0, [r8], -r0
    45d0:	0300000b 	movweq	r0, #11
    45d4:	0000bca9 	andeq	fp, r0, r9, lsr #25
    45d8:	54090000 	strpl	r0, [r9], #-0
    45dc:	cc000000 	stcgt	0, cr0, [r0], {-0}
    45e0:	0a000000 	beq	45e8 <__code_start__-0x3a18>
    45e4:	000000cc 	andeq	r0, r0, ip, asr #1
    45e8:	04030003 	streq	r0, [r3], #-3
    45ec:	00018e07 	andeq	r8, r1, r7, lsl #28
    45f0:	03080b00 	movweq	r0, #35584	; 0x8b00
    45f4:	0000f4a3 	andeq	pc, r0, r3, lsr #9
    45f8:	0d600c00 	stcleq	12, cr0, [r0, #-0]
    45fc:	a5030000 	strge	r0, [r3, #-0]
    4600:	00000025 	andeq	r0, r0, r5, lsr #32
    4604:	0d680c00 	stcleq	12, cr0, [r8, #-0]
    4608:	aa030000 	bge	c4610 <__bss_end__+0xb9f08>
    460c:	0000009d 	muleq	r0, sp, r0
    4610:	f3050004 	vhadd.u8	d0, d5, d4
    4614:	0300000c 	movweq	r0, #12
    4618:	0000d3ab 	andeq	sp, r0, fp, lsr #7
    461c:	0b9f0500 	bleq	fe7c5a24 <__bss_end__+0xfe7bb31c>
    4620:	af030000 	svcge	0x00030000
    4624:	00000070 	andeq	r0, r0, r0, ror r0
    4628:	040e040d 	streq	r0, [lr], #-1037	; 0x40d
    462c:	00000112 	andeq	r0, r0, r2, lsl r1
    4630:	d6080103 	strle	r0, [r8], -r3, lsl #2
    4634:	04000000 	streq	r0, [r0], #-0
    4638:	00000112 	andeq	r0, r0, r2, lsl r1
    463c:	000e1d05 	andeq	r1, lr, r5, lsl #26
    4640:	62160500 	andsvs	r0, r6, #0, 10
    4644:	0f000000 	svceq	0x00000000
    4648:	00000bb0 			; <UNDEFINED> instruction: 0x00000bb0
    464c:	7c2d0518 	cfstr32vc	mvfx0, [sp], #-96	; 0xffffffa0
    4650:	0c000001 	stceq	0, cr0, [r0], {1}
    4654:	00000d14 	andeq	r0, r0, r4, lsl sp
    4658:	017c2f05 	cmneq	ip, r5, lsl #30
    465c:	10000000 	andne	r0, r0, r0
    4660:	05006b5f 	streq	r6, [r0, #-2911]	; 0xb5f
    4664:	00002530 	andeq	r2, r0, r0, lsr r5
    4668:	4b0c0400 	blmi	305670 <__bss_end__+0x2faf68>
    466c:	0500000d 	streq	r0, [r0, #-13]
    4670:	00002530 	andeq	r2, r0, r0, lsr r5
    4674:	8b0c0800 	blhi	30667c <__bss_end__+0x2fbf74>
    4678:	0500000b 	streq	r0, [r0, #-11]
    467c:	00002530 	andeq	r2, r0, r0, lsr r5
    4680:	640c0c00 	strvs	r0, [ip], #-3072	; 0xc00
    4684:	0500000e 	streq	r0, [r0, #-14]
    4688:	00002530 	andeq	r2, r0, r0, lsr r5
    468c:	5f101000 	svcpl	0x00101000
    4690:	31050078 	tstcc	r5, r8, ror r0
    4694:	00000182 	andeq	r0, r0, r2, lsl #3
    4698:	040e0014 	streq	r0, [lr], #-20
    469c:	00000129 	andeq	r0, r0, r9, lsr #2
    46a0:	00011e09 	andeq	r1, r1, r9, lsl #28
    46a4:	00019200 	andeq	r9, r1, r0, lsl #4
    46a8:	00cc0a00 	sbceq	r0, ip, r0, lsl #20
    46ac:	00000000 	andeq	r0, r0, r0
    46b0:	000bd10f 	andeq	sp, fp, pc, lsl #2
    46b4:	35052400 	strcc	r2, [r5, #-1024]	; 0x400
    46b8:	0000020b 	andeq	r0, r0, fp, lsl #4
    46bc:	000a890c 	andeq	r8, sl, ip, lsl #18
    46c0:	25370500 	ldrcs	r0, [r7, #-1280]!	; 0x500
    46c4:	00000000 	andeq	r0, r0, r0
    46c8:	000d830c 	andeq	r8, sp, ip, lsl #6
    46cc:	25380500 	ldrcs	r0, [r8, #-1280]!	; 0x500
    46d0:	04000000 	streq	r0, [r0], #-0
    46d4:	000ab70c 	andeq	fp, sl, ip, lsl #14
    46d8:	25390500 	ldrcs	r0, [r9, #-1280]!	; 0x500
    46dc:	08000000 	stmdaeq	r0, {}	; <UNPREDICTABLE>
    46e0:	000f540c 	andeq	r5, pc, ip, lsl #8
    46e4:	253a0500 	ldrcs	r0, [sl, #-1280]!	; 0x500
    46e8:	0c000000 	stceq	0, cr0, [r0], {-0}
    46ec:	000c830c 	andeq	r8, ip, ip, lsl #6
    46f0:	253b0500 	ldrcs	r0, [fp, #-1280]!	; 0x500
    46f4:	10000000 	andne	r0, r0, r0
    46f8:	000c580c 	andeq	r5, ip, ip, lsl #16
    46fc:	253c0500 	ldrcs	r0, [ip, #-1280]!	; 0x500
    4700:	14000000 	strne	r0, [r0], #-0
    4704:	000e690c 	andeq	r6, lr, ip, lsl #18
    4708:	253d0500 	ldrcs	r0, [sp, #-1280]!	; 0x500
    470c:	18000000 	stmdane	r0, {}	; <UNPREDICTABLE>
    4710:	000cd50c 	andeq	sp, ip, ip, lsl #10
    4714:	253e0500 	ldrcs	r0, [lr, #-1280]!	; 0x500
    4718:	1c000000 	stcne	0, cr0, [r0], {-0}
    471c:	000f1b0c 	andeq	r1, pc, ip, lsl #22
    4720:	253f0500 	ldrcs	r0, [pc, #-1280]!	; 4228 <__code_start__-0x3dd8>
    4724:	20000000 	andcs	r0, r0, r0
    4728:	0ac61100 	beq	ff188b30 <__bss_end__+0xff17e428>
    472c:	01080000 	mrseq	r0, (UNDEF: 8)
    4730:	024b4805 	subeq	r4, fp, #327680	; 0x50000
    4734:	720c0000 	andvc	r0, ip, #0
    4738:	0500000b 	streq	r0, [r0, #-11]
    473c:	00024b49 	andeq	r4, r2, r9, asr #22
    4740:	040c0000 	streq	r0, [ip], #-0
    4744:	0500000a 	streq	r0, [r0, #-10]
    4748:	00024b4a 	andeq	r4, r2, sl, asr #22
    474c:	0f128000 	svceq	0x00128000
    4750:	0500000e 	streq	r0, [r0, #-14]
    4754:	00011e4c 	andeq	r1, r1, ip, asr #28
    4758:	12010000 	andne	r0, r1, #0
    475c:	00000aeb 	andeq	r0, r0, fp, ror #21
    4760:	011e4f05 	tsteq	lr, r5, lsl #30
    4764:	01040000 	mrseq	r0, (UNDEF: 4)
    4768:	010a0900 	tsteq	sl, r0, lsl #18
    476c:	025b0000 	subseq	r0, fp, #0
    4770:	cc0a0000 	stcgt	0, cr0, [sl], {-0}
    4774:	1f000000 	svcne	0x00000000
    4778:	0c8c1100 	stfeqs	f1, [ip], {0}
    477c:	01900000 	orrseq	r0, r0, r0
    4780:	02995b05 	addseq	r5, r9, #5120	; 0x1400
    4784:	140c0000 	strne	r0, [ip], #-0
    4788:	0500000d 	streq	r0, [r0, #-13]
    478c:	0002995c 	andeq	r9, r2, ip, asr r9
    4790:	2c0c0000 	stccs	0, cr0, [ip], {-0}
    4794:	0500000d 	streq	r0, [r0, #-13]
    4798:	0000255d 	andeq	r2, r0, sp, asr r5
    479c:	860c0400 	strhi	r0, [ip], -r0, lsl #8
    47a0:	0500000b 	streq	r0, [r0, #-11]
    47a4:	00029f5f 	andeq	r9, r2, pc, asr pc
    47a8:	c60c0800 	strgt	r0, [ip], -r0, lsl #16
    47ac:	0500000a 	streq	r0, [r0, #-10]
    47b0:	00020b60 	andeq	r0, r2, r0, ror #22
    47b4:	0e008800 	cdpeq	8, 0, cr8, cr0, cr0, {0}
    47b8:	00025b04 	andeq	r5, r2, r4, lsl #22
    47bc:	02af0900 	adceq	r0, pc, #0, 18
    47c0:	02af0000 	adceq	r0, pc, #0
    47c4:	cc0a0000 	stcgt	0, cr0, [sl], {-0}
    47c8:	1f000000 	svcne	0x00000000
    47cc:	b5040e00 	strlt	r0, [r4, #-3584]	; 0xe00
    47d0:	13000002 	movwne	r0, #2
    47d4:	000cdf0f 	andeq	sp, ip, pc, lsl #30
    47d8:	73050800 	movwvc	r0, #22528	; 0x5800
    47dc:	000002db 	ldrdeq	r0, [r0], -fp
    47e0:	000aac0c 	andeq	sl, sl, ip, lsl #24
    47e4:	db740500 	blle	1d05bec <__bss_end__+0x1cfb4e4>
    47e8:	00000002 	andeq	r0, r0, r2
    47ec:	000a100c 	andeq	r1, sl, ip
    47f0:	25750500 	ldrbcs	r0, [r5, #-1280]!	; 0x500
    47f4:	04000000 	streq	r0, [r0], #-0
    47f8:	54040e00 	strpl	r0, [r4], #-3584	; 0xe00
    47fc:	0f000000 	svceq	0x00000000
    4800:	00000cfe 	strdeq	r0, [r0], -lr
    4804:	0bb30568 	bleq	fecc5dac <__bss_end__+0xfecbb6a4>
    4808:	10000004 	andne	r0, r0, r4
    480c:	0500705f 	streq	r7, [r0, #-95]	; 0x5f
    4810:	0002dbb4 			; <UNDEFINED> instruction: 0x0002dbb4
    4814:	5f100000 	svcpl	0x00100000
    4818:	b5050072 	strlt	r0, [r5, #-114]	; 0x72
    481c:	00000025 	andeq	r0, r0, r5, lsr #32
    4820:	775f1004 	ldrbvc	r1, [pc, -r4]
    4824:	25b60500 	ldrcs	r0, [r6, #1280]!	; 0x500
    4828:	08000000 	stmdaeq	r0, {}	; <UNPREDICTABLE>
    482c:	000ae40c 	andeq	lr, sl, ip, lsl #8
    4830:	3fb70500 	svccc	0x00b70500
    4834:	0c000000 	stceq	0, cr0, [r0], {-0}
    4838:	000bf70c 	andeq	pc, fp, ip, lsl #14
    483c:	3fb80500 	svccc	0x00b80500
    4840:	0e000000 	cdpeq	0, 0, cr0, cr0, cr0, {0}
    4844:	66625f10 	uqadd16vs	r5, r2, r0
    4848:	b6b90500 	ldrtlt	r0, [r9], r0, lsl #10
    484c:	10000002 	andne	r0, r0, r2
    4850:	000a530c 	andeq	r5, sl, ip, lsl #6
    4854:	25ba0500 	ldrcs	r0, [sl, #1280]!	; 0x500
    4858:	18000000 	stmdane	r0, {}	; <UNPREDICTABLE>
    485c:	000ad40c 	andeq	sp, sl, ip, lsl #8
    4860:	0ac10500 	beq	ff045c68 <__bss_end__+0xff03b560>
    4864:	1c000001 	stcne	0, cr0, [r0], {1}
    4868:	000f7b0c 	andeq	r7, pc, ip, lsl #22
    486c:	66c30500 	strbvs	r0, [r3], r0, lsl #10
    4870:	20000005 	andcs	r0, r0, r5
    4874:	000f950c 	andeq	r9, pc, ip, lsl #10
    4878:	90c50500 	sbcls	r0, r5, r0, lsl #10
    487c:	24000005 	strcs	r0, [r0], #-5
    4880:	000d700c 	andeq	r7, sp, ip
    4884:	b4c80500 	strblt	r0, [r8], #1280	; 0x500
    4888:	28000005 	stmdacs	r0, {r0, r2}
    488c:	000f350c 	andeq	r3, pc, ip, lsl #10
    4890:	cec90500 	cdpgt	5, 12, cr0, cr9, cr0, {0}
    4894:	2c000005 	stccs	0, cr0, [r0], {5}
    4898:	62755f10 	rsbsvs	r5, r5, #16, 30	; 0x40
    489c:	b6cc0500 	strblt	r0, [ip], r0, lsl #10
    48a0:	30000002 	andcc	r0, r0, r2
    48a4:	70755f10 	rsbsvc	r5, r5, r0, lsl pc
    48a8:	dbcd0500 	blle	ff345cb0 <__bss_end__+0xff33b5a8>
    48ac:	38000002 	stmdacc	r0, {r1}
    48b0:	72755f10 	rsbsvc	r5, r5, #16, 30	; 0x40
    48b4:	25ce0500 	strbcs	r0, [lr, #1280]	; 0x500
    48b8:	3c000000 	stccc	0, cr0, [r0], {-0}
    48bc:	000a970c 	andeq	r9, sl, ip, lsl #14
    48c0:	d4d10500 	ldrble	r0, [r1], #1280	; 0x500
    48c4:	40000005 	andmi	r0, r0, r5
    48c8:	000ee00c 	andeq	lr, lr, ip
    48cc:	e4d20500 	ldrb	r0, [r2], #1280	; 0x500
    48d0:	43000005 	movwmi	r0, #5
    48d4:	626c5f10 	rsbvs	r5, ip, #16, 30	; 0x40
    48d8:	b6d50500 	ldrblt	r0, [r5], r0, lsl #10
    48dc:	44000002 	strmi	r0, [r0], #-2
    48e0:	000afa0c 	andeq	pc, sl, ip, lsl #20
    48e4:	25d80500 	ldrbcs	r0, [r8, #1280]	; 0x500
    48e8:	4c000000 	stcmi	0, cr0, [r0], {-0}
    48ec:	000c620c 	andeq	r6, ip, ip, lsl #4
    48f0:	7bd90500 	blvc	ff645cf8 <__bss_end__+0xff63b5f0>
    48f4:	50000000 	andpl	r0, r0, r0
    48f8:	000ecb0c 	andeq	ip, lr, ip, lsl #22
    48fc:	29dc0500 	ldmibcs	ip, {r8, sl}^
    4900:	54000004 	strpl	r0, [r0], #-4
    4904:	000c4a0c 	andeq	r4, ip, ip, lsl #20
    4908:	ffe00500 			; <UNDEFINED> instruction: 0xffe00500
    490c:	58000000 	stmdapl	r0, {}	; <UNPREDICTABLE>
    4910:	000d060c 	andeq	r0, sp, ip, lsl #12
    4914:	f4e20500 	vld2.16	{d16[0],d17[0]}, [r2], r0
    4918:	5c000000 	stcpl	0, cr0, [r0], {-0}
    491c:	000c500c 	andeq	r5, ip, ip
    4920:	25e30500 	strbcs	r0, [r3, #1280]!	; 0x500
    4924:	64000000 	strvs	r0, [r0], #-0
    4928:	00251400 	eoreq	r1, r5, r0, lsl #8
    492c:	04290000 	strteq	r0, [r9], #-0
    4930:	29150000 	ldmdbcs	r5, {}	; <UNPREDICTABLE>
    4934:	15000004 	strne	r0, [r0, #-4]
    4938:	0000010a 	andeq	r0, r0, sl, lsl #2
    493c:	00010c15 	andeq	r0, r1, r5, lsl ip
    4940:	00251500 	eoreq	r1, r5, r0, lsl #10
    4944:	0e000000 	cdpeq	0, 0, cr0, cr0, cr0, {0}
    4948:	00043404 	andeq	r3, r4, r4, lsl #8
    494c:	04290400 	strteq	r0, [r9], #-1024	; 0x400
    4950:	53160000 	tstpl	r6, #0
    4954:	2800000d 	stmdacs	r0, {r0, r2, r3}
    4958:	02380504 	eorseq	r0, r8, #4, 10	; 0x1000000
    495c:	00000566 	andeq	r0, r0, r6, ror #10
    4960:	000cce17 	andeq	ip, ip, r7, lsl lr
    4964:	023a0500 	eorseq	r0, sl, #0, 10
    4968:	00000025 	andeq	r0, r0, r5, lsr #32
    496c:	0af31700 	beq	ffcca574 <__bss_end__+0xffcbfe6c>
    4970:	3f050000 	svccc	0x00050000
    4974:	00063b02 	andeq	r3, r6, r2, lsl #22
    4978:	e7170400 	ldr	r0, [r7, -r0, lsl #8]
    497c:	0500000b 	streq	r0, [r0, #-11]
    4980:	063b023f 			; <UNDEFINED> instruction: 0x063b023f
    4984:	17080000 	strne	r0, [r8, -r0]
    4988:	00000ba8 	andeq	r0, r0, r8, lsr #23
    498c:	3b023f05 	blcc	945a8 <__bss_end__+0x89ea0>
    4990:	0c000006 	stceq	0, cr0, [r0], {6}
    4994:	000d2717 	andeq	r2, sp, r7, lsl r7
    4998:	02410500 	subeq	r0, r1, #0, 10
    499c:	00000025 	andeq	r0, r0, r5, lsr #32
    49a0:	0a1e1710 	beq	78a5e8 <__bss_end__+0x77fee0>
    49a4:	42050000 	andmi	r0, r5, #0
    49a8:	00081d02 	andeq	r1, r8, r2, lsl #26
    49ac:	45171400 	ldrmi	r1, [r7, #-1024]	; 0x400
    49b0:	0500000e 	streq	r0, [r0, #-14]
    49b4:	00250244 	eoreq	r0, r5, r4, asr #4
    49b8:	17300000 	ldrne	r0, [r0, -r0]!
    49bc:	00000d31 	andeq	r0, r0, r1, lsr sp
    49c0:	8a024505 	bhi	95ddc <__bss_end__+0x8b6d4>
    49c4:	34000005 	strcc	r0, [r0], #-5
    49c8:	000c9417 	andeq	r9, ip, r7, lsl r4
    49cc:	02470500 	subeq	r0, r7, #0, 10
    49d0:	00000025 	andeq	r0, r0, r5, lsr #32
    49d4:	0d411738 	stcleq	7, cr1, [r1, #-224]	; 0xffffff20
    49d8:	49050000 	stmdbmi	r5, {}	; <UNPREDICTABLE>
    49dc:	00083802 	andeq	r3, r8, r2, lsl #16
    49e0:	26173c00 	ldrcs	r3, [r7], -r0, lsl #24
    49e4:	0500000c 	streq	r0, [r0, #-12]
    49e8:	017c024c 	cmneq	ip, ip, asr #4
    49ec:	17400000 	strbne	r0, [r0, -r0]
    49f0:	00000bc7 	andeq	r0, r0, r7, asr #23
    49f4:	25024d05 	strcs	r4, [r2, #-3333]	; 0xd05
    49f8:	44000000 	strmi	r0, [r0], #-0
    49fc:	000f4f17 	andeq	r4, pc, r7, lsl pc	; <UNPREDICTABLE>
    4a00:	024e0500 	subeq	r0, lr, #0, 10
    4a04:	0000017c 	andeq	r0, r0, ip, ror r1
    4a08:	0cab1748 	stceq	7, cr1, [fp], #288	; 0x120
    4a0c:	4f050000 	svcmi	0x00050000
    4a10:	00083e02 	andeq	r3, r8, r2, lsl #28
    4a14:	ef174c00 	svc	0x00174c00
    4a18:	0500000b 	streq	r0, [r0, #-11]
    4a1c:	00250252 	eoreq	r0, r5, r2, asr r2
    4a20:	17500000 	ldrbne	r0, [r0, -r0]
    4a24:	00000b16 	andeq	r0, r0, r6, lsl fp
    4a28:	0c025305 	stceq	3, cr5, [r2], {5}
    4a2c:	54000001 	strpl	r0, [r0], #-1
    4a30:	000cc717 	andeq	ip, ip, r7, lsl r7
    4a34:	02760500 	rsbseq	r0, r6, #0, 10
    4a38:	000007fb 	strdeq	r0, [r0], -fp
    4a3c:	0c8c1858 	stceq	8, cr1, [ip], {88}	; 0x58
    4a40:	7a050000 	bvc	144a48 <__bss_end__+0x13a340>
    4a44:	00029902 	andeq	r9, r2, r2, lsl #18
    4a48:	18014800 	stmdane	r1, {fp, lr}
    4a4c:	00000c04 	andeq	r0, r0, r4, lsl #24
    4a50:	5b027b05 	blpl	a366c <__bss_end__+0x98f64>
    4a54:	4c000002 	stcmi	0, cr0, [r0], {2}
    4a58:	0eb11801 	cdpeq	8, 11, cr1, cr1, cr1, {0}
    4a5c:	7f050000 	svcvc	0x00050000
    4a60:	00084f02 	andeq	r4, r8, r2, lsl #30
    4a64:	1802dc00 	stmdane	r2, {sl, fp, ip, lr, pc}
    4a68:	00000adc 	ldrdeq	r0, [r0], -ip
    4a6c:	00028405 	andeq	r8, r2, r5, lsl #8
    4a70:	e0000006 	and	r0, r0, r6
    4a74:	0ac11802 	beq	ff04aa84 <__bss_end__+0xff04037c>
    4a78:	85050000 	strhi	r0, [r5, #-0]
    4a7c:	00085b02 	andeq	r5, r8, r2, lsl #22
    4a80:	0002ec00 	andeq	lr, r2, r0, lsl #24
    4a84:	040b040e 	streq	r0, [fp], #-1038	; 0x40e
    4a88:	25140000 	ldrcs	r0, [r4, #-0]
    4a8c:	8a000000 	bhi	4a94 <__code_start__-0x356c>
    4a90:	15000005 	strne	r0, [r0, #-5]
    4a94:	00000429 	andeq	r0, r0, r9, lsr #8
    4a98:	00010a15 	andeq	r0, r1, r5, lsl sl
    4a9c:	058a1500 	streq	r1, [sl, #1280]	; 0x500
    4aa0:	25150000 	ldrcs	r0, [r5, #-0]
    4aa4:	00000000 	andeq	r0, r0, r0
    4aa8:	0119040e 	tsteq	r9, lr, lsl #8
    4aac:	040e0000 	streq	r0, [lr], #-0
    4ab0:	0000056c 	andeq	r0, r0, ip, ror #10
    4ab4:	00008614 	andeq	r8, r0, r4, lsl r6
    4ab8:	0005b400 	andeq	fp, r5, r0, lsl #8
    4abc:	04291500 	strteq	r1, [r9], #-1280	; 0x500
    4ac0:	0a150000 	beq	544ac8 <__bss_end__+0x53a3c0>
    4ac4:	15000001 	strne	r0, [r0, #-1]
    4ac8:	00000086 	andeq	r0, r0, r6, lsl #1
    4acc:	00002515 	andeq	r2, r0, r5, lsl r5
    4ad0:	040e0000 	streq	r0, [lr], #-0
    4ad4:	00000596 	muleq	r0, r6, r5
    4ad8:	00002514 	andeq	r2, r0, r4, lsl r5
    4adc:	0005ce00 	andeq	ip, r5, r0, lsl #28
    4ae0:	04291500 	strteq	r1, [r9], #-1280	; 0x500
    4ae4:	0a150000 	beq	544aec <__bss_end__+0x53a3e4>
    4ae8:	00000001 	andeq	r0, r0, r1
    4aec:	05ba040e 	ldreq	r0, [sl, #1038]!	; 0x40e
    4af0:	54090000 	strpl	r0, [r9], #-0
    4af4:	e4000000 	str	r0, [r0], #-0
    4af8:	0a000005 	beq	4b14 <__code_start__-0x34ec>
    4afc:	000000cc 	andeq	r0, r0, ip, asr #1
    4b00:	54090002 	strpl	r0, [r9], #-2
    4b04:	f4000000 	vst4.8	{d0-d3}, [r0], r0
    4b08:	0a000005 	beq	4b24 <__code_start__-0x34dc>
    4b0c:	000000cc 	andeq	r0, r0, ip, asr #1
    4b10:	ec060000 	stc	0, cr0, [r6], {-0}
    4b14:	0500000c 	streq	r0, [r0, #-12]
    4b18:	02e1011d 	rsceq	r0, r1, #1073741831	; 0x40000007
    4b1c:	73190000 	tstvc	r9, #0
    4b20:	0c00000e 	stceq	0, cr0, [r0], {14}
    4b24:	35012105 	strcc	r2, [r1, #-261]	; 0x105
    4b28:	17000006 	strne	r0, [r0, -r6]
    4b2c:	00000d14 	andeq	r0, r0, r4, lsl sp
    4b30:	35012305 	strcc	r2, [r1, #-773]	; 0x305
    4b34:	00000006 	andeq	r0, r0, r6
    4b38:	000bfd17 	andeq	pc, fp, r7, lsl sp	; <UNPREDICTABLE>
    4b3c:	01240500 	teqeq	r4, r0, lsl #10
    4b40:	00000025 	andeq	r0, r0, r5, lsr #32
    4b44:	0ce61704 	stcleq	7, cr1, [r6], #16
    4b48:	25050000 	strcs	r0, [r5, #-0]
    4b4c:	00063b01 	andeq	r3, r6, r1, lsl #22
    4b50:	0e000800 	cdpeq	8, 0, cr0, cr0, cr0, {0}
    4b54:	00060004 	andeq	r0, r6, r4
    4b58:	f4040e00 			; <UNDEFINED> instruction: 0xf4040e00
    4b5c:	19000005 	stmdbne	r0, {r0, r2}
    4b60:	00000a16 	andeq	r0, r0, r6, lsl sl
    4b64:	013d050e 	teqeq	sp, lr, lsl #10
    4b68:	00000676 	andeq	r0, r0, r6, ror r6
    4b6c:	000d5a17 	andeq	r5, sp, r7, lsl sl
    4b70:	013e0500 	teqeq	lr, r0, lsl #10
    4b74:	00000676 	andeq	r0, r0, r6, ror r6
    4b78:	0d941700 	ldceq	7, cr1, [r4]
    4b7c:	3f050000 	svccc	0x00050000
    4b80:	00067601 	andeq	r7, r6, r1, lsl #12
    4b84:	18170600 	ldmdane	r7, {r9, sl}
    4b88:	0500000e 	streq	r0, [r0, #-14]
    4b8c:	005b0140 	subseq	r0, fp, r0, asr #2
    4b90:	000c0000 	andeq	r0, ip, r0
    4b94:	00005b09 	andeq	r5, r0, r9, lsl #22
    4b98:	00068600 	andeq	r8, r6, r0, lsl #12
    4b9c:	00cc0a00 	sbceq	r0, ip, r0, lsl #20
    4ba0:	00020000 	andeq	r0, r2, r0
    4ba4:	5705d01a 	smladpl	r5, sl, r0, sp
    4ba8:	00078702 	andeq	r8, r7, r2, lsl #14
    4bac:	0e571700 	cdpeq	7, 5, cr1, cr7, cr0, {0}
    4bb0:	59050000 	stmdbpl	r5, {}	; <UNPREDICTABLE>
    4bb4:	00002c02 	andeq	r2, r0, r2, lsl #24
    4bb8:	02170000 	andseq	r0, r7, #0
    4bbc:	0500000e 	streq	r0, [r0, #-14]
    4bc0:	010c025a 	tsteq	ip, sl, asr r2
    4bc4:	17040000 	strne	r0, [r4, -r0]
    4bc8:	00000c19 	andeq	r0, r0, r9, lsl ip
    4bcc:	87025b05 	strhi	r5, [r2, -r5, lsl #22]
    4bd0:	08000007 	stmdaeq	r0, {r0, r1, r2}
    4bd4:	000f2617 	andeq	r2, pc, r7, lsl r6	; <UNPREDICTABLE>
    4bd8:	025c0500 	subseq	r0, ip, #0, 10
    4bdc:	00000192 	muleq	r0, r2, r1
    4be0:	0bb81724 	bleq	fee0a878 <__bss_end__+0xfee00170>
    4be4:	5d050000 	stcpl	0, cr0, [r5, #-0]
    4be8:	00002502 	andeq	r2, r0, r2, lsl #10
    4bec:	0f174800 	svceq	0x00174800
    4bf0:	0500000d 	streq	r0, [r0, #-13]
    4bf4:	0069025e 	rsbeq	r0, r9, lr, asr r2
    4bf8:	17500000 	ldrbne	r0, [r0, -r0]
    4bfc:	00000f3c 	andeq	r0, r0, ip, lsr pc
    4c00:	41025f05 	tstmi	r2, r5, lsl #30
    4c04:	58000006 	stmdapl	r0, {r1, r2}
    4c08:	000d1a17 	andeq	r1, sp, r7, lsl sl
    4c0c:	02600500 	rsbeq	r0, r0, #0, 10
    4c10:	000000f4 	strdeq	r0, [r0], -r4
    4c14:	0f411768 	svceq	0x00411768
    4c18:	61050000 	mrsvs	r0, (UNDEF: 5)
    4c1c:	0000f402 	andeq	pc, r0, r2, lsl #8
    4c20:	7b177000 	blvc	5e0c28 <__bss_end__+0x5d6520>
    4c24:	0500000a 	streq	r0, [r0, #-10]
    4c28:	00f40262 	rscseq	r0, r4, r2, ror #4
    4c2c:	17780000 	ldrbne	r0, [r8, -r0]!
    4c30:	00000e93 	muleq	r0, r3, lr
    4c34:	97026305 	strls	r6, [r2, -r5, lsl #6]
    4c38:	80000007 	andhi	r0, r0, r7
    4c3c:	000c0d17 	andeq	r0, ip, r7, lsl sp
    4c40:	02640500 	rsbeq	r0, r4, #0, 10
    4c44:	000007a7 	andeq	r0, r0, r7, lsr #15
    4c48:	0e251788 	cdpeq	7, 2, cr1, cr5, cr8, {4}
    4c4c:	65050000 	strvs	r0, [r5, #-0]
    4c50:	00002502 	andeq	r2, r0, r2, lsl #10
    4c54:	6417a000 	ldrvs	sl, [r7], #-0
    4c58:	0500000b 	streq	r0, [r0, #-11]
    4c5c:	00f40266 	rscseq	r0, r4, r6, ror #4
    4c60:	17a40000 	strne	r0, [r4, r0]!
    4c64:	00000a6c 	andeq	r0, r0, ip, ror #20
    4c68:	f4026705 	vst1.8	{d6}, [r2], r5
    4c6c:	ac000000 	stcge	0, cr0, [r0], {-0}
    4c70:	000b5317 	andeq	r5, fp, r7, lsl r3
    4c74:	02680500 	rsbeq	r0, r8, #0, 10
    4c78:	000000f4 	strdeq	r0, [r0], -r4
    4c7c:	0a3317b4 	beq	ccab54 <__bss_end__+0xcc044c>
    4c80:	69050000 	stmdbvs	r5, {}	; <UNPREDICTABLE>
    4c84:	0000f402 	andeq	pc, r0, r2, lsl #8
    4c88:	4217bc00 	andsmi	fp, r7, #0, 24
    4c8c:	0500000a 	streq	r0, [r0, #-10]
    4c90:	00f4026a 	rscseq	r0, r4, sl, ror #4
    4c94:	17c40000 	strbne	r0, [r4, r0]
    4c98:	00000ccc 	andeq	r0, r0, ip, asr #25
    4c9c:	25026b05 	strcs	r6, [r2, #-2821]	; 0xb05
    4ca0:	cc000000 	stcgt	0, cr0, [r0], {-0}
    4ca4:	01120900 	tsteq	r2, r0, lsl #18
    4ca8:	07970000 	ldreq	r0, [r7, r0]
    4cac:	cc0a0000 	stcgt	0, cr0, [sl], {-0}
    4cb0:	19000000 	stmdbne	r0, {}	; <UNPREDICTABLE>
    4cb4:	01120900 	tsteq	r2, r0, lsl #18
    4cb8:	07a70000 	streq	r0, [r7, r0]!
    4cbc:	cc0a0000 	stcgt	0, cr0, [sl], {-0}
    4cc0:	07000000 	streq	r0, [r0, -r0]
    4cc4:	01120900 	tsteq	r2, r0, lsl #18
    4cc8:	07b70000 	ldreq	r0, [r7, r0]!
    4ccc:	cc0a0000 	stcgt	0, cr0, [sl], {-0}
    4cd0:	17000000 	strne	r0, [r0, -r0]
    4cd4:	05f01a00 	ldrbeq	r1, [r0, #2560]!	; 0xa00
    4cd8:	07db0270 			; <UNDEFINED> instruction: 0x07db0270
    4cdc:	7c170000 	ldcvc	0, cr0, [r7], {-0}
    4ce0:	0500000c 	streq	r0, [r0, #-12]
    4ce4:	07db0273 			; <UNDEFINED> instruction: 0x07db0273
    4ce8:	17000000 	strne	r0, [r0, -r0]
    4cec:	00000e8a 	andeq	r0, r0, sl, lsl #29
    4cf0:	eb027405 	bl	a1d0c <__bss_end__+0x97604>
    4cf4:	78000007 	stmdavc	r0, {r0, r1, r2}
    4cf8:	02db0900 	sbcseq	r0, fp, #0, 18
    4cfc:	07eb0000 	strbeq	r0, [fp, r0]!
    4d00:	cc0a0000 	stcgt	0, cr0, [sl], {-0}
    4d04:	1d000000 	stcne	0, cr0, [r0, #-0]
    4d08:	002c0900 	eoreq	r0, ip, r0, lsl #18
    4d0c:	07fb0000 	ldrbeq	r0, [fp, r0]!
    4d10:	cc0a0000 	stcgt	0, cr0, [sl], {-0}
    4d14:	1d000000 	stcne	0, cr0, [r0, #-0]
    4d18:	05f01b00 	ldrbeq	r1, [r0, #2816]!	; 0xb00
    4d1c:	081d0255 	ldmdaeq	sp, {r0, r2, r4, r6, r9}
    4d20:	531c0000 	tstpl	ip, #0
    4d24:	0500000d 	streq	r0, [r0, #-13]
    4d28:	0686026c 	streq	r0, [r6], ip, ror #4
    4d2c:	e61c0000 	ldr	r0, [ip], -r0
    4d30:	0500000e 	streq	r0, [r0, #-14]
    4d34:	07b70275 			; <UNDEFINED> instruction: 0x07b70275
    4d38:	09000000 	stmdbeq	r0, {}	; <UNPREDICTABLE>
    4d3c:	00000112 	andeq	r0, r0, r2, lsl r1
    4d40:	0000082d 	andeq	r0, r0, sp, lsr #16
    4d44:	0000cc0a 	andeq	ip, r0, sl, lsl #24
    4d48:	1d001800 	stcne	8, cr1, [r0, #-0]
    4d4c:	00000838 	andeq	r0, r0, r8, lsr r8
    4d50:	00042915 	andeq	r2, r4, r5, lsl r9
    4d54:	040e0000 	streq	r0, [lr], #-0
    4d58:	0000082d 	andeq	r0, r0, sp, lsr #16
    4d5c:	017c040e 	cmneq	ip, lr, lsl #8
    4d60:	4f1d0000 	svcmi	0x001d0000
    4d64:	15000008 	strne	r0, [r0, #-8]
    4d68:	00000025 	andeq	r0, r0, r5, lsr #32
    4d6c:	55040e00 	strpl	r0, [r4, #-3584]	; 0xe00
    4d70:	0e000008 	cdpeq	0, 0, cr0, cr0, cr8, {0}
    4d74:	00084404 	andeq	r4, r8, r4, lsl #8
    4d78:	05f40900 	ldrbeq	r0, [r4, #2304]!	; 0x900
    4d7c:	086b0000 	stmdaeq	fp!, {}^	; <UNPREDICTABLE>
    4d80:	cc0a0000 	stcgt	0, cr0, [sl], {-0}
    4d84:	02000000 	andeq	r0, r0, #0
    4d88:	0e391e00 	cdpeq	14, 3, cr1, cr9, cr0, {0}
    4d8c:	fd050000 	stc2	0, cr0, [r5, #-0]
    4d90:	00042902 	andeq	r2, r4, r2, lsl #18
    4d94:	0e321e00 	cdpeq	14, 3, cr1, cr2, cr0, {0}
    4d98:	fe050000 	cdp2	0, 0, cr0, cr5, cr0, {0}
    4d9c:	00042f02 	andeq	r2, r4, r2, lsl #30
    4da0:	00251400 	eoreq	r1, r5, r0, lsl #8
    4da4:	08920000 	ldmeq	r2, {}	; <UNPREDICTABLE>
    4da8:	25150000 	ldrcs	r0, [r5, #-0]
    4dac:	00000000 	andeq	r0, r0, r0
    4db0:	0006331f 	andeq	r3, r6, pc, lsl r3
    4db4:	9d1d0600 	ldcls	6, cr0, [sp, #-0]
    4db8:	0e000008 	cdpeq	0, 0, cr0, cr0, cr8, {0}
    4dbc:	00088304 	andeq	r8, r8, r4, lsl #6
    4dc0:	00251400 	eoreq	r1, r5, r0, lsl #8
    4dc4:	08b20000 	ldmeq	r2!, {}	; <UNPREDICTABLE>
    4dc8:	8a150000 	bhi	544dd0 <__bss_end__+0x53a6c8>
    4dcc:	00000005 	andeq	r0, r0, r5
    4dd0:	0006701f 	andeq	r7, r6, pc, lsl r0
    4dd4:	bd220600 	stclt	6, cr0, [r2, #-0]
    4dd8:	0e000008 	cdpeq	0, 0, cr0, cr0, cr8, {0}
    4ddc:	0008a304 	andeq	sl, r8, r4, lsl #6
    4de0:	54012000 	strpl	r2, [r1], #-0
    4de4:	07000000 	streq	r0, [r0, -r0]
    4de8:	0009000c 	andeq	r0, r9, ip
    4dec:	0a5c2100 	beq	170d1f4 <__bss_end__+0x1702aec>
    4df0:	21000000 	mrscs	r0, (UNDEF: 0)
    4df4:	00000e79 	andeq	r0, r0, r9, ror lr
    4df8:	0ed12101 	cdpeq	1, 13, cr2, cr1, cr1, {0}
    4dfc:	21040000 	mrscs	r0, (UNDEF: 4)
    4e00:	00000a9d 	muleq	r0, sp, sl
    4e04:	0c342105 	ldfeqs	f2, [r4], #-20	; 0xffffffec
    4e08:	21060000 	mrscs	r0, (UNDEF: 6)
    4e0c:	00000eee 	andeq	r0, r0, lr, ror #29
    4e10:	0efd2107 	cdpeq	1, 15, cr2, cr13, cr7, {0}
    4e14:	21030000 	mrscs	r0, (UNDEF: 3)
    4e18:	00000f0c 	andeq	r0, r0, ip, lsl #30
    4e1c:	cb050002 	blgt	144e2c <__bss_end__+0x13a724>
    4e20:	0700000f 	streq	r0, [r0, -pc]
    4e24:	0008c315 	andeq	ip, r8, r5, lsl r3
    4e28:	0f9c2200 	svceq	0x009c2200
    4e2c:	1d010000 	stcne	0, cr0, [r1, #-0]
    4e30:	00000033 	andeq	r0, r0, r3, lsr r0
    4e34:	2020001c 	eorcs	r0, r0, ip, lsl r0
    4e38:	000fd722 	andeq	sp, pc, r2, lsr #14
    4e3c:	331e0100 	tstcc	lr, #0, 2
    4e40:	28000000 	stmdacs	r0, {}	; <UNPREDICTABLE>
    4e44:	22202000 	eorcs	r2, r0, #0
    4e48:	00000fa6 	andeq	r0, r0, r6, lsr #31
    4e4c:	00331f01 	eorseq	r1, r3, r1, lsl #30
    4e50:	00340000 	eorseq	r0, r4, r0
    4e54:	77232020 	strvc	r2, [r3, -r0, lsr #32]!
    4e58:	0100000f 	tsteq	r0, pc
    4e5c:	00002556 	andeq	r2, r0, r6, asr r5
    4e60:	009a8000 	addseq	r8, sl, r0
    4e64:	00003400 	andeq	r3, r0, r0, lsl #8
    4e68:	989c0100 	ldmls	ip, {r8}
    4e6c:	24000009 	strcs	r0, [r0], #-9
    4e70:	006e6970 	rsbeq	r6, lr, r0, ror r9
    4e74:	002c5601 	eoreq	r5, ip, r1, lsl #12
    4e78:	0f950000 	svceq	0x00950000
    4e7c:	6b250000 	blvs	944e84 <__bss_end__+0x93a77c>
    4e80:	0100000f 	tsteq	r0, pc
    4e84:	00002c59 	andeq	r2, r0, r9, asr ip
    4e88:	000fcf00 	andeq	ip, pc, r0, lsl #30
    4e8c:	666f2600 	strbtvs	r2, [pc], -r0, lsl #12
    4e90:	5a010066 	bpl	45030 <__bss_end__+0x3a928>
    4e94:	0000002c 	andeq	r0, r0, ip, lsr #32
    4e98:	0000100d 	andeq	r1, r0, sp
    4e9c:	009a9c27 	addseq	r9, sl, r7, lsr #24
    4ea0:	000b5d00 	andeq	r5, fp, r0, lsl #26
    4ea4:	50012800 	andpl	r2, r1, r0, lsl #16
    4ea8:	5001f30b 	andpl	pc, r1, fp, lsl #6
    4eac:	b4232535 	strtlt	r2, [r3], #-1333	; 0x535
    4eb0:	02818080 	addeq	r8, r1, #128	; 0x80
    4eb4:	91290000 	teqls	r9, r0
    4eb8:	0100000f 	tsteq	r0, pc
    4ebc:	009a644f 	addseq	r6, sl, pc, asr #8
    4ec0:	00001c00 	andeq	r1, r0, r0, lsl #24
    4ec4:	e89c0100 	ldm	ip, {r8}
    4ec8:	24000009 	strcs	r0, [r0], #-9
    4ecc:	006e6970 	rsbeq	r6, lr, r0, ror r9
    4ed0:	002c4f01 	eoreq	r4, ip, r1, lsl #30
    4ed4:	10200000 	eorne	r0, r0, r0
    4ed8:	76240000 	strtvc	r0, [r4], -r0
    4edc:	2c4f0100 	stfcse	f0, [pc], {-0}
    4ee0:	5a000000 	bpl	4ee8 <__code_start__-0x3118>
    4ee4:	2a000010 	bcs	4f2c <__code_start__-0x30d4>
    4ee8:	00009a74 	andeq	r9, r0, r4, ror sl
    4eec:	00000a23 	andeq	r0, r0, r3, lsr #20
    4ef0:	000009de 	ldrdeq	r0, [r0], -lr
    4ef4:	03500128 	cmpeq	r0, #40, 2
    4ef8:	005001f3 	ldrsheq	r0, [r0], #-19	; 0xffffffed
    4efc:	009a7c2b 	addseq	r7, sl, fp, lsr #24
    4f00:	000a6400 	andeq	r6, sl, r0, lsl #8
    4f04:	b0290000 	eorlt	r0, r9, r0
    4f08:	0100000f 	tsteq	r0, pc
    4f0c:	009a544a 	addseq	r5, sl, sl, asr #8
    4f10:	00001000 	andeq	r1, r0, r0
    4f14:	239c0100 	orrscs	r0, ip, #0, 2
    4f18:	2400000a 	strcs	r0, [r0], #-10
    4f1c:	006e6970 	rsbeq	r6, lr, r0, ror r9
    4f20:	002c4a01 	eoreq	r4, ip, r1, lsl #20
    4f24:	10940000 	addsne	r0, r4, r0
    4f28:	60270000 	eorvs	r0, r7, r0
    4f2c:	e000009a 	mul	r0, sl, r0
    4f30:	2800000a 	stmdacs	r0, {r1, r3}
    4f34:	f3035001 	vhadd.u8	d5, d3, d1
    4f38:	01285001 	teqeq	r8, r1
    4f3c:	00300151 	eorseq	r0, r0, r1, asr r1
    4f40:	0f5e2900 	svceq	0x005e2900
    4f44:	43010000 	movwmi	r0, #4096	; 0x1000
    4f48:	00009a30 	andeq	r9, r0, r0, lsr sl
    4f4c:	00000024 	andeq	r0, r0, r4, lsr #32
    4f50:	0a649c01 	beq	192bf5c <__bss_end__+0x1921854>
    4f54:	70240000 	eorvc	r0, r4, r0
    4f58:	01006e69 	tsteq	r0, r9, ror #28
    4f5c:	00002c43 	andeq	r2, r0, r3, asr #24
    4f60:	0010b500 	andseq	fp, r0, r0, lsl #10
    4f64:	9a4c2700 	bls	130eb6c <__bss_end__+0x1304464>
    4f68:	0b680000 	bleq	1a04f70 <__bss_end__+0x19fa868>
    4f6c:	01280000 	teqeq	r8, r0
    4f70:	280c0550 	stmdacs	ip, {r4, r6, r8, sl}
    4f74:	28202000 	stmdacs	r0!, {sp}
    4f78:	31055101 	tstcc	r5, r1, lsl #2
    4f7c:	245001f3 	ldrbcs	r0, [r0], #-499	; 0x1f3
    4f80:	bf290000 	svclt	0x00290000
    4f84:	0100000f 	tsteq	r0, pc
    4f88:	009a0c3c 	addseq	r0, sl, ip, lsr ip
    4f8c:	00002400 	andeq	r2, r0, r0, lsl #8
    4f90:	a59c0100 	ldrge	r0, [ip, #256]	; 0x100
    4f94:	2400000a 	strcs	r0, [r0], #-10
    4f98:	006e6970 	rsbeq	r6, lr, r0, ror r9
    4f9c:	002c3c01 	eoreq	r3, ip, r1, lsl #24
    4fa0:	10d60000 	sbcsne	r0, r6, r0
    4fa4:	28270000 	stmdacs	r7!, {}	; <UNPREDICTABLE>
    4fa8:	6800009a 	stmdavs	r0, {r1, r3, r4, r7}
    4fac:	2800000b 	stmdacs	r0, {r0, r1, r3}
    4fb0:	0c055001 	stceq	0, cr5, [r5], {1}
    4fb4:	2020001c 	eorcs	r0, r0, ip, lsl r0
    4fb8:	05510128 	ldrbeq	r0, [r1, #-296]	; 0x128
    4fbc:	5001f331 	andpl	pc, r1, r1, lsr r3	; <UNPREDICTABLE>
    4fc0:	29000024 	stmdbcs	r0, {r2, r5}
    4fc4:	00000f81 	andeq	r0, r0, r1, lsl #31
    4fc8:	99fc3701 	ldmibls	ip!, {r0, r8, r9, sl, ip, sp}^
    4fcc:	00100000 	andseq	r0, r0, r0
    4fd0:	9c010000 	stcls	0, cr0, [r1], {-0}
    4fd4:	00000ae0 	andeq	r0, r0, r0, ror #21
    4fd8:	6e697024 	cdpvs	0, 6, cr7, cr9, cr4, {1}
    4fdc:	2c370100 	ldfcss	f0, [r7], #-0
    4fe0:	f7000000 			; <UNDEFINED> instruction: 0xf7000000
    4fe4:	27000010 	smladcs	r0, r0, r0, r0
    4fe8:	00009a08 	andeq	r9, r0, r8, lsl #20
    4fec:	00000ae0 	andeq	r0, r0, r0, ror #21
    4ff0:	03500128 	cmpeq	r0, #40, 2
    4ff4:	285001f3 	ldmdacs	r0, {r0, r1, r4, r5, r6, r7, r8}^
    4ff8:	31015101 	tstcc	r1, r1, lsl #2
    4ffc:	6a290000 	bvs	a45004 <__bss_end__+0xa3a8fc>
    5000:	0100000c 	tsteq	r0, ip
    5004:	00999428 	addseq	r9, r9, r8, lsr #8
    5008:	00006800 	andeq	r6, r0, r0, lsl #16
    500c:	5d9c0100 	ldfpls	f0, [ip]
    5010:	2400000b 	strcs	r0, [r0], #-11
    5014:	006e6970 	rsbeq	r6, lr, r0, ror r9
    5018:	002c2801 	eoreq	r2, ip, r1, lsl #16
    501c:	11180000 	tstne	r8, r0
    5020:	b62c0000 	strtlt	r0, [ip], -r0
    5024:	0100000e 	tsteq	r0, lr
    5028:	00090028 	andeq	r0, r9, r8, lsr #32
    502c:	00113900 	andseq	r3, r1, r0, lsl #18
    5030:	666f2d00 	strbtvs	r2, [pc], -r0, lsl #26
    5034:	2d010066 	stccs	0, cr0, [r1, #-408]	; 0xfffffe68
    5038:	0000002c 	andeq	r0, r0, ip, lsr #32
    503c:	672d5401 	strvs	r5, [sp, -r1, lsl #8]!
    5040:	2c2f0100 	stfcss	f0, [pc], #-0	; 5048 <__code_start__-0x2fb8>
    5044:	01000000 	mrseq	r0, (UNDEF: 0)
    5048:	00762656 	rsbseq	r2, r6, r6, asr r6
    504c:	002c3101 	eoreq	r3, ip, r1, lsl #2
    5050:	115a0000 	cmpne	sl, r0
    5054:	e02a0000 	eor	r0, sl, r0
    5058:	5d000099 	stcpl	0, cr0, [r0, #-612]	; 0xfffffd9c
    505c:	4c00000b 	stcmi	0, cr0, [r0], {11}
    5060:	2800000b 	stmdacs	r0, {r0, r1, r3}
    5064:	76025001 	strvc	r5, [r2], -r1
    5068:	f4270000 	vld4.8	{d0-d3}, [r7], r0
    506c:	68000099 	stmdavs	r0, {r0, r3, r4, r7}
    5070:	2800000b 	stmdacs	r0, {r0, r1, r3}
    5074:	76025001 	strvc	r5, [r2], -r1
    5078:	2e000000 	cdpcs	0, 0, cr0, cr0, cr0, {0}
    507c:	000009d3 	ldrdeq	r0, [r0], -r3
    5080:	000009d3 	ldrdeq	r0, [r0], -r3
    5084:	0d2ea706 	stceq	7, cr10, [lr, #-24]!	; 0xffffffe8
    5088:	0d000009 	stceq	0, cr0, [r0, #-36]	; 0xffffffdc
    508c:	06000009 	streq	r0, [r0], -r9
    5090:	Address 0x0000000000005090 is out of bounds.


Disassembly of section .debug_abbrev:

00000000 <.debug_abbrev>:
       0:	25011101 	strcs	r1, [r1, #-257]	; 0x101
       4:	030b130e 	movweq	r1, #45838	; 0xb30e
       8:	110e1b0e 	tstne	lr, lr, lsl #22
       c:	10061201 	andne	r1, r6, r1, lsl #4
      10:	02000017 	andeq	r0, r0, #23
      14:	0b0b0024 	bleq	2c00ac <__bss_end__+0x2b59a4>
      18:	08030b3e 	stmdaeq	r3, {r1, r2, r3, r4, r5, r8, r9, fp}
      1c:	24030000 	strcs	r0, [r3], #-0
      20:	3e0b0b00 	vmlacc.f64	d0, d11, d0
      24:	000e030b 	andeq	r0, lr, fp, lsl #6
      28:	00160400 	andseq	r0, r6, r0, lsl #8
      2c:	0b3a0e03 	bleq	e83840 <__bss_end__+0xe79138>
      30:	13490b3b 	movtne	r0, #39739	; 0x9b3b
      34:	0f050000 	svceq	0x00050000
      38:	490b0b00 	stmdbmi	fp, {r8, r9, fp}
      3c:	06000013 			; <UNDEFINED> instruction: 0x06000013
      40:	13490026 	movtne	r0, #36902	; 0x9026
      44:	01070000 	mrseq	r0, (UNDEF: 7)
      48:	01134901 	tsteq	r3, r1, lsl #18
      4c:	08000013 	stmdaeq	r0, {r0, r1, r4}
      50:	13490021 	movtne	r0, #36897	; 0x9021
      54:	00000b2f 	andeq	r0, r0, pc, lsr #22
      58:	03011309 	movweq	r1, #4873	; 0x1309
      5c:	3a0b0b0e 	bcc	2c2c9c <__bss_end__+0x2b8594>
      60:	010b3b0b 	tsteq	fp, fp, lsl #22
      64:	0a000013 	beq	b8 <__code_start__-0x7f48>
      68:	0e03000d 	cdpeq	0, 0, cr0, cr3, cr13, {0}
      6c:	0b3b0b3a 	bleq	ec2d5c <__bss_end__+0xeb8654>
      70:	0b381349 	bleq	e04d9c <__bss_end__+0xdfa694>
      74:	0d0b0000 	stceq	0, cr0, [fp, #-0]
      78:	3a080300 	bcc	200c80 <__bss_end__+0x1f6578>
      7c:	490b3b0b 	stmdbmi	fp, {r0, r1, r3, r8, r9, fp, ip, sp}
      80:	000b3813 	andeq	r3, fp, r3, lsl r8
      84:	00350c00 	eorseq	r0, r5, r0, lsl #24
      88:	150d0000 	strne	r0, [sp, #-0]
      8c:	01192701 	tsteq	r9, r1, lsl #14
      90:	0e000013 	mcreq	0, 0, r0, cr0, cr3, {0}
      94:	13490005 	movtne	r0, #36869	; 0x9005
      98:	150f0000 	strne	r0, [pc, #-0]	; a0 <__code_start__-0x7f60>
      9c:	49192701 	ldmdbmi	r9, {r0, r8, r9, sl, sp}
      a0:	00130113 	andseq	r0, r3, r3, lsl r1
      a4:	00351000 	eorseq	r1, r5, r0
      a8:	00001349 	andeq	r1, r0, r9, asr #6
      ac:	03012e11 	movweq	r2, #7697	; 0x1e11
      b0:	3b0b3a0e 	blcc	2ce8f0 <__bss_end__+0x2c41e8>
      b4:	2019270b 	andscs	r2, r9, fp, lsl #14
      b8:	0013010b 	andseq	r0, r3, fp, lsl #2
      bc:	00051200 	andeq	r1, r5, r0, lsl #4
      c0:	0b3a0803 	bleq	e820d4 <__bss_end__+0xe779cc>
      c4:	13490b3b 	movtne	r0, #39739	; 0x9b3b
      c8:	2e130000 	cdpcs	0, 1, cr0, cr3, cr0, {0}
      cc:	3a0e0301 	bcc	380cd8 <__bss_end__+0x3765d0>
      d0:	270b3b0b 	strcs	r3, [fp, -fp, lsl #22]
      d4:	20134919 	andscs	r4, r3, r9, lsl r9
      d8:	0013010b 	andseq	r0, r3, fp, lsl #2
      dc:	002e1400 	eoreq	r1, lr, r0, lsl #8
      e0:	0e03193f 	mcreq	9, 0, r1, cr3, cr15, {1}
      e4:	0b3b0b3a 	bleq	ec2dd4 <__bss_end__+0xeb86cc>
      e8:	13491927 	movtne	r1, #39207	; 0x9927
      ec:	00000b20 	andeq	r0, r0, r0, lsr #22
      f0:	03003415 	movweq	r3, #1045	; 0x415
      f4:	3413490e 	ldrcc	r4, [r3], #-2318	; 0x90e
      f8:	000e1c19 	andeq	r1, lr, r9, lsl ip
      fc:	012e1600 	teqeq	lr, r0, lsl #12
     100:	0b3a0e03 	bleq	e83914 <__bss_end__+0xe7920c>
     104:	19270b3b 	stmdbne	r7!, {r0, r1, r3, r4, r5, r8, r9, fp}
     108:	06120111 			; <UNDEFINED> instruction: 0x06120111
     10c:	42971840 	addsmi	r1, r7, #64, 16	; 0x400000
     110:	00130119 	andseq	r0, r3, r9, lsl r1
     114:	00051700 	andeq	r1, r5, r0, lsl #14
     118:	0b3a0803 	bleq	e8212c <__bss_end__+0xe77a24>
     11c:	13490b3b 	movtne	r0, #39739	; 0x9b3b
     120:	00001702 	andeq	r1, r0, r2, lsl #14
     124:	03003418 	movweq	r3, #1048	; 0x418
     128:	3413490e 	ldrcc	r4, [r3], #-2318	; 0x90e
     12c:	00180219 	andseq	r0, r8, r9, lsl r2
     130:	011d1900 	tsteq	sp, r0, lsl #18
     134:	01111331 	tsteq	r1, r1, lsr r3
     138:	0b580612 	bleq	1601988 <__bss_end__+0x15f7280>
     13c:	13010b59 	movwne	r0, #7001	; 0x1b59
     140:	051a0000 	ldreq	r0, [sl, #-0]
     144:	02133100 	andseq	r3, r3, #0, 2
     148:	1b000018 	blne	1b0 <__code_start__-0x7e50>
     14c:	0111010b 	tsteq	r1, fp, lsl #2
     150:	00000612 	andeq	r0, r0, r2, lsl r6
     154:	0182891c 	orreq	r8, r2, ip, lsl r9
     158:	31011101 	tstcc	r1, r1, lsl #2
     15c:	1d000013 	stcne	0, cr0, [r0, #-76]	; 0xffffffb4
     160:	0001828a 	andeq	r8, r1, sl, lsl #5
     164:	42911802 	addsmi	r1, r1, #131072	; 0x20000
     168:	1e000018 	mcrne	0, 0, r0, cr0, cr8, {0}
     16c:	13310034 	teqne	r1, #52	; 0x34
     170:	00001802 	andeq	r1, r0, r2, lsl #16
     174:	0182891f 	orreq	r8, r2, pc, lsl r9
     178:	31011100 	mrscc	r1, (UNDEF: 17)
     17c:	20000013 	andcs	r0, r0, r3, lsl r0
     180:	01018289 	smlabbeq	r1, r9, r2, r8
     184:	13310111 	teqne	r1, #1073741828	; 0x40000004
     188:	00001301 	andeq	r1, r0, r1, lsl #6
     18c:	03012e21 	movweq	r2, #7713	; 0x1e21
     190:	3b0b3a0e 	blcc	2ce9d0 <__bss_end__+0x2c42c8>
     194:	4919270b 	ldmdbmi	r9, {r0, r1, r3, r8, r9, sl, sp}
     198:	12011113 	andne	r1, r1, #-1073741820	; 0xc0000004
     19c:	97184006 	ldrls	r4, [r8, -r6]
     1a0:	13011942 	movwne	r1, #6466	; 0x1942
     1a4:	1d220000 	stcne	0, cr0, [r2, #-0]
     1a8:	11133101 	tstne	r3, r1, lsl #2
     1ac:	58061201 	stmdapl	r6, {r0, r9, ip}
     1b0:	000b590b 	andeq	r5, fp, fp, lsl #18
     1b4:	00052300 	andeq	r2, r5, r0, lsl #6
     1b8:	17021331 	smladxne	r2, r1, r3, r1
     1bc:	05240000 	streq	r0, [r4, #-0]!
     1c0:	3a080300 	bcc	200dc8 <__bss_end__+0x1f66c0>
     1c4:	490b3b0b 	stmdbmi	fp, {r0, r1, r3, r8, r9, fp, ip, sp}
     1c8:	00180213 	andseq	r0, r8, r3, lsl r2
     1cc:	002e2500 	eoreq	r2, lr, r0, lsl #10
     1d0:	0e03193f 	mcreq	9, 0, r1, cr3, cr15, {1}
     1d4:	0b3b0b3a 	bleq	ec2ec4 <__bss_end__+0xeb87bc>
     1d8:	13491927 	movtne	r1, #39207	; 0x9927
     1dc:	06120111 			; <UNDEFINED> instruction: 0x06120111
     1e0:	42971840 	addsmi	r1, r7, #64, 16	; 0x400000
     1e4:	26000019 			; <UNDEFINED> instruction: 0x26000019
     1e8:	193f012e 	ldmdbne	pc!, {r1, r2, r3, r5, r8}	; <UNPREDICTABLE>
     1ec:	0b3a0e03 	bleq	e83a00 <__bss_end__+0xe792f8>
     1f0:	19270b3b 	stmdbne	r7!, {r0, r1, r3, r4, r5, r8, r9, fp}
     1f4:	06120111 			; <UNDEFINED> instruction: 0x06120111
     1f8:	42971840 	addsmi	r1, r7, #64, 16	; 0x400000
     1fc:	00130119 	andseq	r0, r3, r9, lsl r1
     200:	00342700 	eorseq	r2, r4, r0, lsl #14
     204:	0b3a0803 	bleq	e82218 <__bss_end__+0xe77b10>
     208:	13490b3b 	movtne	r0, #39739	; 0x9b3b
     20c:	00001802 	andeq	r1, r0, r2, lsl #16
     210:	03003428 	movweq	r3, #1064	; 0x428
     214:	3b0b3a08 	blcc	2cea3c <__bss_end__+0x2c4334>
     218:	0013490b 	andseq	r4, r3, fp, lsl #18
     21c:	00342900 	eorseq	r2, r4, r0, lsl #18
     220:	0b3a0e03 	bleq	e83a34 <__bss_end__+0xe7932c>
     224:	13490b3b 	movtne	r0, #39739	; 0x9b3b
     228:	193c193f 	ldmdbne	ip!, {r0, r1, r2, r3, r4, r5, r8, fp, ip}
     22c:	2e2a0000 	cdpcs	0, 2, cr0, cr10, cr0, {0}
     230:	03193f01 	tsteq	r9, #1, 30
     234:	3b0b3a0e 	blcc	2cea74 <__bss_end__+0x2c436c>
     238:	4919270b 	ldmdbmi	r9, {r0, r1, r3, r8, r9, sl, sp}
     23c:	01193c13 	tsteq	r9, r3, lsl ip
     240:	2b000013 	blcs	294 <__code_start__-0x7d6c>
     244:	193f002e 	ldmdbne	pc!, {r1, r2, r3, r5}	; <UNPREDICTABLE>
     248:	0b3a0e03 	bleq	e83a5c <__bss_end__+0xe79354>
     24c:	19270b3b 	stmdbne	r7!, {r0, r1, r3, r4, r5, r8, r9, fp}
     250:	0000193c 	andeq	r1, r0, ip, lsr r9
     254:	0000182c 	andeq	r1, r0, ip, lsr #16
     258:	012e2d00 	teqeq	lr, r0, lsl #26
     25c:	0e03193f 	mcreq	9, 0, r1, cr3, cr15, {1}
     260:	0b3b0b3a 	bleq	ec2f50 <__bss_end__+0xeb8848>
     264:	13491927 	movtne	r1, #39207	; 0x9927
     268:	0000193c 	andeq	r1, r0, ip, lsr r9
     26c:	01110100 	tsteq	r1, r0, lsl #2
     270:	0b130e25 	bleq	4c3b0c <__bss_end__+0x4b9404>
     274:	0e1b0e03 	cdpeq	14, 1, cr0, cr11, cr3, {0}
     278:	06120111 			; <UNDEFINED> instruction: 0x06120111
     27c:	00001710 	andeq	r1, r0, r0, lsl r7
     280:	0b002402 	bleq	9290 <va_printk+0x7c>
     284:	030b3e0b 	movweq	r3, #48651	; 0xbe0b
     288:	03000008 	movweq	r0, #8
     28c:	0b0b0024 	bleq	2c0324 <__bss_end__+0x2b5c1c>
     290:	0e030b3e 	vmoveq.16	d3[0], r0
     294:	16040000 	strne	r0, [r4], -r0
     298:	3a0e0300 	bcc	380ea0 <__bss_end__+0x376798>
     29c:	490b3b0b 	stmdbmi	fp, {r0, r1, r3, r8, r9, fp, ip, sp}
     2a0:	05000013 	streq	r0, [r0, #-19]
     2a4:	0b0b000f 	bleq	2c02e8 <__bss_end__+0x2b5be0>
     2a8:	0f060000 	svceq	0x00060000
     2ac:	490b0b00 	stmdbmi	fp, {r8, r9, fp}
     2b0:	07000013 	smladeq	r0, r3, r0, r0
     2b4:	13490026 	movtne	r0, #36902	; 0x9026
     2b8:	15080000 	strne	r0, [r8, #-0]
     2bc:	01192701 	tsteq	r9, r1, lsl #14
     2c0:	09000013 	stmdbeq	r0, {r0, r1, r4}
     2c4:	13490005 	movtne	r0, #36869	; 0x9005
     2c8:	2e0a0000 	cdpcs	0, 0, cr0, cr10, cr0, {0}
     2cc:	3a0e0301 	bcc	380ed8 <__bss_end__+0x3767d0>
     2d0:	270b3b0b 	strcs	r3, [fp, -fp, lsl #22]
     2d4:	20134919 	andscs	r4, r3, r9, lsl r9
     2d8:	0013010b 	andseq	r0, r3, fp, lsl #2
     2dc:	00340b00 	eorseq	r0, r4, r0, lsl #22
     2e0:	0b3a0803 	bleq	e822f4 <__bss_end__+0xe77bec>
     2e4:	13490b3b 	movtne	r0, #39739	; 0x9b3b
     2e8:	050c0000 	streq	r0, [ip, #-0]
     2ec:	3a080300 	bcc	200ef4 <__bss_end__+0x1f67ec>
     2f0:	490b3b0b 	stmdbmi	fp, {r0, r1, r3, r8, r9, fp, ip, sp}
     2f4:	0d000013 	stceq	0, cr0, [r0, #-76]	; 0xffffffb4
     2f8:	0e03012e 	adfeqsp	f0, f3, #0.5
     2fc:	0b3b0b3a 	bleq	ec2fec <__bss_end__+0xeb88e4>
     300:	0b201927 	bleq	8067a4 <__bss_end__+0x7fc09c>
     304:	00001301 	andeq	r1, r0, r1, lsl #6
     308:	0300340e 	movweq	r3, #1038	; 0x40e
     30c:	3b0b3a0e 	blcc	2ceb4c <__bss_end__+0x2c4444>
     310:	0013490b 	andseq	r4, r3, fp, lsl #18
     314:	012e0f00 	teqeq	lr, r0, lsl #30
     318:	0e03193f 	mcreq	9, 0, r1, cr3, cr15, {1}
     31c:	0b3b0b3a 	bleq	ec300c <__bss_end__+0xeb8904>
     320:	01111927 	tsteq	r1, r7, lsr #18
     324:	18400612 	stmdane	r0, {r1, r4, r9, sl}^
     328:	01194297 			; <UNDEFINED> instruction: 0x01194297
     32c:	10000013 	andne	r0, r0, r3, lsl r0
     330:	0e030005 	cdpeq	0, 0, cr0, cr3, cr5, {0}
     334:	0b3b0b3a 	bleq	ec3024 <__bss_end__+0xeb891c>
     338:	17021349 	strne	r1, [r2, -r9, asr #6]
     33c:	34110000 	ldrcc	r0, [r1], #-0
     340:	3a0e0300 	bcc	380f48 <__bss_end__+0x376840>
     344:	490b3b0b 	stmdbmi	fp, {r0, r1, r3, r8, r9, fp, ip, sp}
     348:	00170213 	andseq	r0, r7, r3, lsl r2
     34c:	00341200 	eorseq	r1, r4, r0, lsl #4
     350:	13490e03 	movtne	r0, #40451	; 0x9e03
     354:	18021934 	stmdane	r2, {r2, r4, r5, r8, fp, ip}
     358:	1d130000 	ldcne	0, cr0, [r3, #-0]
     35c:	11133101 	tstne	r3, r1, lsl #2
     360:	58061201 	stmdapl	r6, {r0, r9, ip}
     364:	010b590b 	tsteq	fp, fp, lsl #18
     368:	14000013 	strne	r0, [r0], #-19
     36c:	0111010b 	tsteq	r1, fp, lsl #2
     370:	00000612 	andeq	r0, r0, r2, lsl r6
     374:	31003415 	tstcc	r0, r5, lsl r4
     378:	00170213 	andseq	r0, r7, r3, lsl r2
     37c:	00051600 	andeq	r1, r5, r0, lsl #12
     380:	17021331 	smladxne	r2, r1, r3, r1
     384:	05170000 	ldreq	r0, [r7, #-0]
     388:	1c133100 	ldfnes	f3, [r3], {-0}
     38c:	18000005 	stmdane	r0, {r0, r2}
     390:	13310005 	teqne	r1, #5
     394:	00000b1c 	andeq	r0, r0, ip, lsl fp
     398:	01828919 	orreq	r8, r2, r9, lsl r9
     39c:	31011100 	mrscc	r1, (UNDEF: 17)
     3a0:	1a000013 	bne	3f4 <__code_start__-0x7c0c>
     3a4:	01018289 	smlabbeq	r1, r9, r2, r8
     3a8:	13310111 	teqne	r1, #1073741828	; 0x40000004
     3ac:	00001301 	andeq	r1, r0, r1, lsl #6
     3b0:	01828a1b 	orreq	r8, r2, fp, lsl sl
     3b4:	91180200 	tstls	r8, r0, lsl #4
     3b8:	00001842 	andeq	r1, r0, r2, asr #16
     3bc:	4901011c 	stmdbmi	r1, {r2, r3, r4, r8}
     3c0:	00130113 	andseq	r0, r3, r3, lsl r1
     3c4:	00211d00 	eoreq	r1, r1, r0, lsl #26
     3c8:	0b2f1349 	bleq	bc50f4 <__bss_end__+0xbba9ec>
     3cc:	341e0000 	ldrcc	r0, [lr], #-0
     3d0:	490e0300 	stmdbmi	lr, {r8, r9}
     3d4:	1c193413 	cfldrsne	mvf3, [r9], {19}
     3d8:	1f00000e 	svcne	0x0000000e
     3dc:	08030005 	stmdaeq	r3, {r0, r2}
     3e0:	0b3b0b3a 	bleq	ec30d0 <__bss_end__+0xeb89c8>
     3e4:	17021349 	strne	r1, [r2, -r9, asr #6]
     3e8:	34200000 	strtcc	r0, [r0], #-0
     3ec:	3a0e0300 	bcc	380ff4 <__bss_end__+0x3768ec>
     3f0:	490b3b0b 	stmdbmi	fp, {r0, r1, r3, r8, r9, fp, ip, sp}
     3f4:	00180213 	andseq	r0, r8, r3, lsl r2
     3f8:	00342100 	eorseq	r2, r4, r0, lsl #2
     3fc:	00001331 	andeq	r1, r0, r1, lsr r3
     400:	31011d22 	tstcc	r1, r2, lsr #26
     404:	12011113 	andne	r1, r1, #-1073741820	; 0xc0000004
     408:	590b5806 	stmdbpl	fp, {r1, r2, fp, ip, lr}
     40c:	2300000b 	movwcs	r0, #11
     410:	13310034 	teqne	r1, #52	; 0x34
     414:	00001802 	andeq	r1, r0, r2, lsl #16
     418:	01828924 	orreq	r8, r2, r4, lsr #18
     41c:	00011101 	andeq	r1, r1, r1, lsl #2
     420:	00342500 	eorseq	r2, r4, r0, lsl #10
     424:	0b3a0803 	bleq	e82438 <__bss_end__+0xe77d30>
     428:	13490b3b 	movtne	r0, #39739	; 0x9b3b
     42c:	0000051c 	andeq	r0, r0, ip, lsl r5
     430:	03000526 	movweq	r0, #1318	; 0x526
     434:	3b0b3a0e 	blcc	2cec74 <__bss_end__+0x2c456c>
     438:	0213490b 	andseq	r4, r3, #180224	; 0x2c000
     43c:	27000018 	smladcs	r0, r8, r0, r0
     440:	13310005 	teqne	r1, #5
     444:	00001802 	andeq	r1, r0, r2, lsl #16
     448:	03000528 	movweq	r0, #1320	; 0x528
     44c:	3b0b3a08 	blcc	2cec74 <__bss_end__+0x2c456c>
     450:	0213490b 	andseq	r4, r3, #180224	; 0x2c000
     454:	29000018 	stmdbcs	r0, {r3, r4}
     458:	13310005 	teqne	r1, #5
     45c:	0000061c 	andeq	r0, r0, ip, lsl r6
     460:	0300342a 	movweq	r3, #1066	; 0x42a
     464:	3b0b3a0e 	blcc	2ceca4 <__bss_end__+0x2c459c>
     468:	1c13490b 	ldcne	9, cr4, [r3], {11}
     46c:	2b000006 	blcs	48c <__code_start__-0x7b74>
     470:	1331011d 	teqne	r1, #1073741831	; 0x40000007
     474:	06120111 			; <UNDEFINED> instruction: 0x06120111
     478:	05590b58 	ldrbeq	r0, [r9, #-2904]	; 0xb58
     47c:	2e2c0000 	cdpcs	0, 2, cr0, cr12, cr0, {0}
     480:	03193f01 	tsteq	r9, #1, 30
     484:	3b0b3a0e 	blcc	2cecc4 <__bss_end__+0x2c45bc>
     488:	49192705 	ldmdbmi	r9, {r0, r2, r8, r9, sl, sp}
     48c:	12011113 	andne	r1, r1, #-1073741820	; 0xc0000004
     490:	97184006 	ldrls	r4, [r8, -r6]
     494:	13011942 	movwne	r1, #6466	; 0x1942
     498:	052d0000 	streq	r0, [sp, #-0]!
     49c:	3a080300 	bcc	2010a4 <__bss_end__+0x1f699c>
     4a0:	49053b0b 	stmdbmi	r5, {r0, r1, r3, r8, r9, fp, ip, sp}
     4a4:	00170213 	andseq	r0, r7, r3, lsl r2
     4a8:	00342e00 	eorseq	r2, r4, r0, lsl #28
     4ac:	0b3a0e03 	bleq	e83cc0 <__bss_end__+0xe795b8>
     4b0:	1349053b 	movtne	r0, #38203	; 0x953b
     4b4:	00001702 	andeq	r1, r0, r2, lsl #14
     4b8:	0182892f 	orreq	r8, r2, pc, lsr #18
     4bc:	31011101 	tstcc	r1, r1, lsl #2
     4c0:	30000013 	andcc	r0, r0, r3, lsl r0
     4c4:	0e030034 	mcreq	0, 0, r0, cr3, cr4, {1}
     4c8:	0b3b0b3a 	bleq	ec31b8 <__bss_end__+0xeb8ab0>
     4cc:	193f1349 	ldmdbne	pc!, {r0, r3, r6, r8, r9, ip}	; <UNPREDICTABLE>
     4d0:	00001802 	andeq	r1, r0, r2, lsl #16
     4d4:	3f002e31 	svccc	0x00002e31
     4d8:	3a0e0319 	bcc	381144 <__bss_end__+0x376a3c>
     4dc:	270b3b0b 	strcs	r3, [fp, -fp, lsl #22]
     4e0:	00193c19 	andseq	r3, r9, r9, lsl ip
     4e4:	012e3200 	teqeq	lr, r0, lsl #4
     4e8:	0e03193f 	mcreq	9, 0, r1, cr3, cr15, {1}
     4ec:	0b3b0b3a 	bleq	ec31dc <__bss_end__+0xeb8ad4>
     4f0:	13491927 	movtne	r1, #39207	; 0x9927
     4f4:	1301193c 	movwne	r1, #6460	; 0x193c
     4f8:	18330000 	ldmdane	r3!, {}	; <UNPREDICTABLE>
     4fc:	00000000 	andeq	r0, r0, r0
     500:	25011101 	strcs	r1, [r1, #-257]	; 0x101
     504:	030b130e 	movweq	r1, #45838	; 0xb30e
     508:	110e1b0e 	tstne	lr, lr, lsl #22
     50c:	10061201 	andne	r1, r6, r1, lsl #4
     510:	02000017 	andeq	r0, r0, #23
     514:	0b0b0024 	bleq	2c05ac <__bss_end__+0x2b5ea4>
     518:	08030b3e 	stmdaeq	r3, {r1, r2, r3, r4, r5, r8, r9, fp}
     51c:	24030000 	strcs	r0, [r3], #-0
     520:	3e0b0b00 	vmlacc.f64	d0, d11, d0
     524:	000e030b 	andeq	r0, lr, fp, lsl #6
     528:	00160400 	andseq	r0, r6, r0, lsl #8
     52c:	0b3a0e03 	bleq	e83d40 <__bss_end__+0xe79638>
     530:	13490b3b 	movtne	r0, #39739	; 0x9b3b
     534:	0f050000 	svceq	0x00050000
     538:	000b0b00 	andeq	r0, fp, r0, lsl #22
     53c:	000f0600 	andeq	r0, pc, r0, lsl #12
     540:	13490b0b 	movtne	r0, #39691	; 0x9b0b
     544:	26070000 	strcs	r0, [r7], -r0
     548:	00134900 	andseq	r4, r3, r0, lsl #18
     54c:	01150800 	tsteq	r5, r0, lsl #16
     550:	13011927 	movwne	r1, #6439	; 0x1927
     554:	05090000 	streq	r0, [r9, #-0]
     558:	00134900 	andseq	r4, r3, r0, lsl #18
     55c:	01130a00 	tsteq	r3, r0, lsl #20
     560:	0b0b0e03 	bleq	2c3d74 <__bss_end__+0x2b966c>
     564:	0b3b0b3a 	bleq	ec3254 <__bss_end__+0xeb8b4c>
     568:	00001301 	andeq	r1, r0, r1, lsl #6
     56c:	03000d0b 	movweq	r0, #3339	; 0xd0b
     570:	3b0b3a0e 	blcc	2cedb0 <__bss_end__+0x2c46a8>
     574:	3813490b 	ldmdacc	r3, {r0, r1, r3, r8, fp, lr}
     578:	0c00000b 	stceq	0, cr0, [r0], {11}
     57c:	0803000d 	stmdaeq	r3, {r0, r2, r3}
     580:	0b3b0b3a 	bleq	ec3270 <__bss_end__+0xeb8b68>
     584:	0b381349 	bleq	e052b0 <__bss_end__+0xdfaba8>
     588:	350d0000 	strcc	r0, [sp, #-0]
     58c:	0e000000 	cdpeq	0, 0, cr0, cr0, cr0, {0}
     590:	19270115 	stmdbne	r7!, {r0, r2, r4, r8}
     594:	13011349 	movwne	r1, #4937	; 0x1349
     598:	350f0000 	strcc	r0, [pc, #-0]	; 5a0 <__code_start__-0x7a60>
     59c:	00134900 	andseq	r4, r3, r0, lsl #18
     5a0:	012e1000 	teqeq	lr, r0
     5a4:	0b3a0e03 	bleq	e83db8 <__bss_end__+0xe796b0>
     5a8:	19270b3b 	stmdbne	r7!, {r0, r1, r3, r4, r5, r8, r9, fp}
     5ac:	0b201349 	bleq	8052d8 <__bss_end__+0x7fabd0>
     5b0:	00001301 	andeq	r1, r0, r1, lsl #6
     5b4:	03003411 	movweq	r3, #1041	; 0x411
     5b8:	3b0b3a08 	blcc	2cede0 <__bss_end__+0x2c46d8>
     5bc:	0013490b 	andseq	r4, r3, fp, lsl #18
     5c0:	00051200 	andeq	r1, r5, r0, lsl #4
     5c4:	0b3a0e03 	bleq	e83dd8 <__bss_end__+0xe796d0>
     5c8:	13490b3b 	movtne	r0, #39739	; 0x9b3b
     5cc:	34130000 	ldrcc	r0, [r3], #-0
     5d0:	3a0e0300 	bcc	3811d8 <__bss_end__+0x376ad0>
     5d4:	490b3b0b 	stmdbmi	fp, {r0, r1, r3, r8, r9, fp, ip, sp}
     5d8:	14000013 	strne	r0, [r0], #-19
     5dc:	0e03012e 	adfeqsp	f0, f3, #0.5
     5e0:	0b3b0b3a 	bleq	ec32d0 <__bss_end__+0xeb8bc8>
     5e4:	01111927 	tsteq	r1, r7, lsr #18
     5e8:	18400612 	stmdane	r0, {r1, r4, r9, sl}^
     5ec:	01194297 			; <UNDEFINED> instruction: 0x01194297
     5f0:	15000013 	strne	r0, [r0, #-19]
     5f4:	0e030005 	cdpeq	0, 0, cr0, cr3, cr5, {0}
     5f8:	0b3b0b3a 	bleq	ec32e8 <__bss_end__+0xeb8be0>
     5fc:	17021349 	strne	r1, [r2, -r9, asr #6]
     600:	05160000 	ldreq	r0, [r6, #-0]
     604:	3a080300 	bcc	20120c <__bss_end__+0x1f6b04>
     608:	490b3b0b 	stmdbmi	fp, {r0, r1, r3, r8, r9, fp, ip, sp}
     60c:	00170213 	andseq	r0, r7, r3, lsl r2
     610:	00341700 	eorseq	r1, r4, r0, lsl #14
     614:	13490e03 	movtne	r0, #40451	; 0x9e03
     618:	18021934 	stmdane	r2, {r2, r4, r5, r8, fp, ip}
     61c:	34180000 	ldrcc	r0, [r8], #-0
     620:	3a080300 	bcc	201228 <__bss_end__+0x1f6b20>
     624:	490b3b0b 	stmdbmi	fp, {r0, r1, r3, r8, r9, fp, ip, sp}
     628:	00170213 	andseq	r0, r7, r3, lsl r2
     62c:	011d1900 	tsteq	sp, r0, lsl #18
     630:	01111331 	tsteq	r1, r1, lsr r3
     634:	0b580612 	bleq	1601e84 <__bss_end__+0x15f777c>
     638:	13010b59 	movwne	r0, #7001	; 0x1b59
     63c:	0b1a0000 	bleq	680644 <__bss_end__+0x675f3c>
     640:	12011101 	andne	r1, r1, #1073741824	; 0x40000000
     644:	1b000006 	blne	664 <__code_start__-0x799c>
     648:	13310034 	teqne	r1, #52	; 0x34
     64c:	1d1c0000 	ldcne	0, cr0, [ip, #-0]
     650:	11133101 	tstne	r3, r1, lsl #2
     654:	58061201 	stmdapl	r6, {r0, r9, ip}
     658:	000b590b 	andeq	r5, fp, fp, lsl #18
     65c:	00341d00 	eorseq	r1, r4, r0, lsl #26
     660:	17021331 	smladxne	r2, r1, r3, r1
     664:	891e0000 	ldmdbhi	lr, {}	; <UNPREDICTABLE>
     668:	11010182 	smlabbne	r1, r2, r1, r0
     66c:	01133101 	tsteq	r3, r1, lsl #2
     670:	1f000013 	svcne	0x00000013
     674:	0001828a 	andeq	r8, r1, sl, lsl #5
     678:	42911802 	addsmi	r1, r1, #131072	; 0x20000
     67c:	20000018 	andcs	r0, r0, r8, lsl r0
     680:	00018289 	andeq	r8, r1, r9, lsl #5
     684:	13310111 	teqne	r1, #1073741828	; 0x40000004
     688:	89210000 	stmdbhi	r1!, {}	; <UNPREDICTABLE>
     68c:	11010182 	smlabbne	r1, r2, r1, r0
     690:	00130101 	andseq	r0, r3, r1, lsl #2
     694:	82892200 	addhi	r2, r9, #0, 4
     698:	01110101 	tsteq	r1, r1, lsl #2
     69c:	00001331 	andeq	r1, r0, r1, lsr r3
     6a0:	49010123 	stmdbmi	r1, {r0, r1, r5, r8}
     6a4:	00130113 	andseq	r0, r3, r3, lsl r1
     6a8:	00212400 	eoreq	r2, r1, r0, lsl #8
     6ac:	0b2f1349 	bleq	bc53d8 <__bss_end__+0xbbacd0>
     6b0:	34250000 	strtcc	r0, [r5], #-0
     6b4:	490e0300 	stmdbmi	lr, {r8, r9}
     6b8:	1c193413 	cfldrsne	mvf3, [r9], {19}
     6bc:	2600000e 	strcs	r0, [r0], -lr
     6c0:	08030005 	stmdaeq	r3, {r0, r2}
     6c4:	0b3b0b3a 	bleq	ec33b4 <__bss_end__+0xeb8cac>
     6c8:	00001349 	andeq	r1, r0, r9, asr #6
     6cc:	03012e27 	movweq	r2, #7719	; 0x1e27
     6d0:	3b0b3a0e 	blcc	2cef10 <__bss_end__+0x2c4808>
     6d4:	4919270b 	ldmdbmi	r9, {r0, r1, r3, r8, r9, sl, sp}
     6d8:	12011113 	andne	r1, r1, #-1073741820	; 0xc0000004
     6dc:	97184006 	ldrls	r4, [r8, -r6]
     6e0:	13011942 	movwne	r1, #6466	; 0x1942
     6e4:	34280000 	strtcc	r0, [r8], #-0
     6e8:	3a0e0300 	bcc	3812f0 <__bss_end__+0x376be8>
     6ec:	490b3b0b 	stmdbmi	fp, {r0, r1, r3, r8, r9, fp, ip, sp}
     6f0:	00180213 	andseq	r0, r8, r3, lsl r2
     6f4:	00052900 	andeq	r2, r5, r0, lsl #18
     6f8:	0b1c1331 	bleq	7053c4 <__bss_end__+0x6facbc>
     6fc:	052a0000 	streq	r0, [sl, #-0]!
     700:	02133100 	andseq	r3, r3, #0, 2
     704:	2b000017 	blcs	768 <__code_start__-0x7898>
     708:	13310034 	teqne	r1, #52	; 0x34
     70c:	00001802 	andeq	r1, r0, r2, lsl #16
     710:	3100342c 	tstcc	r0, ip, lsr #8
     714:	000b1c13 	andeq	r1, fp, r3, lsl ip
     718:	00052d00 	andeq	r2, r5, r0, lsl #26
     71c:	00001331 	andeq	r1, r0, r1, lsr r3
     720:	0300052e 	movweq	r0, #1326	; 0x52e
     724:	3b0b3a08 	blcc	2cef4c <__bss_end__+0x2c4844>
     728:	0213490b 	andseq	r4, r3, #180224	; 0x2c000
     72c:	2f000018 	svccs	0x00000018
     730:	193f012e 	ldmdbne	pc!, {r1, r2, r3, r5, r8}	; <UNPREDICTABLE>
     734:	0b3a0e03 	bleq	e83f48 <__bss_end__+0xe79840>
     738:	19270b3b 	stmdbne	r7!, {r0, r1, r3, r4, r5, r8, r9, fp}
     73c:	01111349 	tsteq	r1, r9, asr #6
     740:	18400612 	stmdane	r0, {r1, r4, r9, sl}^
     744:	01194297 			; <UNDEFINED> instruction: 0x01194297
     748:	30000013 	andcc	r0, r0, r3, lsl r0
     74c:	0e030034 	mcreq	0, 0, r0, cr3, cr4, {1}
     750:	0b3b0b3a 	bleq	ec3440 <__bss_end__+0xeb8d38>
     754:	193f1349 	ldmdbne	pc!, {r0, r3, r6, r8, r9, ip}	; <UNPREDICTABLE>
     758:	0000193c 	andeq	r1, r0, ip, lsr r9
     75c:	3f012e31 	svccc	0x00012e31
     760:	3a0e0319 	bcc	3813cc <__bss_end__+0x376cc4>
     764:	270b3b0b 	strcs	r3, [fp, -fp, lsl #22]
     768:	3c134919 	ldccc	9, cr4, [r3], {25}
     76c:	00130119 	andseq	r0, r3, r9, lsl r1
     770:	00183200 	andseq	r3, r8, r0, lsl #4
     774:	2e330000 	cdpcs	0, 3, cr0, cr3, cr0, {0}
     778:	03193f00 	tsteq	r9, #0, 30
     77c:	3b0b3a0e 	blcc	2cefbc <__bss_end__+0x2c48b4>
     780:	3c19270b 	ldccc	7, cr2, [r9], {11}
     784:	34000019 	strcc	r0, [r0], #-25
     788:	193f012e 	ldmdbne	pc!, {r1, r2, r3, r5, r8}	; <UNPREDICTABLE>
     78c:	0b3a0e03 	bleq	e83fa0 <__bss_end__+0xe79898>
     790:	19270b3b 	stmdbne	r7!, {r0, r1, r3, r4, r5, r8, r9, fp}
     794:	1301193c 	movwne	r1, #6460	; 0x193c
     798:	01000000 	mrseq	r0, (UNDEF: 0)
     79c:	0e250111 	mcreq	1, 1, r0, cr5, cr1, {0}
     7a0:	0e030b13 	vmoveq.32	d3[0], r0
     7a4:	01110e1b 	tsteq	r1, fp, lsl lr
     7a8:	17100612 			; <UNDEFINED> instruction: 0x17100612
     7ac:	16020000 	strne	r0, [r2], -r0
     7b0:	3a0e0300 	bcc	3813b8 <__bss_end__+0x376cb0>
     7b4:	490b3b0b 	stmdbmi	fp, {r0, r1, r3, r8, r9, fp, ip, sp}
     7b8:	03000013 	movweq	r0, #19
     7bc:	0e030113 	mcreq	1, 0, r0, cr3, cr3, {0}
     7c0:	0b3a0b0b 	bleq	e833f4 <__bss_end__+0xe78cec>
     7c4:	13010b3b 	movwne	r0, #6971	; 0x1b3b
     7c8:	0d040000 	stceq	0, cr0, [r4, #-0]
     7cc:	490e0300 	stmdbmi	lr, {r8, r9}
     7d0:	340b3813 	strcc	r3, [fp], #-2067	; 0x813
     7d4:	05000019 	streq	r0, [r0, #-25]
     7d8:	0b0b000f 	bleq	2c081c <__bss_end__+0x2b6114>
     7dc:	24060000 	strcs	r0, [r6], #-0
     7e0:	3e0b0b00 	vmlacc.f64	d0, d11, d0
     7e4:	0008030b 	andeq	r0, r8, fp, lsl #6
     7e8:	00240700 	eoreq	r0, r4, r0, lsl #14
     7ec:	0b3e0b0b 	bleq	f83420 <__bss_end__+0xf78d18>
     7f0:	00000e03 	andeq	r0, r0, r3, lsl #28
     7f4:	0b000f08 	bleq	441c <__code_start__-0x3be4>
     7f8:	0013490b 	andseq	r4, r3, fp, lsl #18
     7fc:	00260900 	eoreq	r0, r6, r0, lsl #18
     800:	00001349 	andeq	r1, r0, r9, asr #6
     804:	3f012e0a 	svccc	0x00012e0a
     808:	3a0e0319 	bcc	381474 <__bss_end__+0x376d6c>
     80c:	270b3b0b 	strcs	r3, [fp, -fp, lsl #22]
     810:	11134919 	tstne	r3, r9, lsl r9
     814:	40061201 	andmi	r1, r6, r1, lsl #4
     818:	19429718 	stmdbne	r2, {r3, r4, r8, r9, sl, ip, pc}^
     81c:	00001301 	andeq	r1, r0, r1, lsl #6
     820:	0300050b 	movweq	r0, #1291	; 0x50b
     824:	3b0b3a08 	blcc	2cf04c <__bss_end__+0x2c4944>
     828:	0213490b 	andseq	r4, r3, #180224	; 0x2c000
     82c:	0c000018 	stceq	0, cr0, [r0], {24}
     830:	00000018 	andeq	r0, r0, r8, lsl r0
     834:	0300340d 	movweq	r3, #1037	; 0x40d
     838:	3b0b3a08 	blcc	2cf060 <__bss_end__+0x2c4958>
     83c:	0213490b 	andseq	r4, r3, #180224	; 0x2c000
     840:	0e000018 	mcreq	0, 0, r0, cr0, cr8, {0}
     844:	0e030034 	mcreq	0, 0, r0, cr3, cr4, {1}
     848:	0b3b0b3a 	bleq	ec3538 <__bss_end__+0xeb8e30>
     84c:	18021349 	stmdane	r2, {r0, r3, r6, r8, r9, ip}
     850:	340f0000 	strcc	r0, [pc], #-0	; 858 <__code_start__-0x77a8>
     854:	3a080300 	bcc	20145c <__bss_end__+0x1f6d54>
     858:	490b3b0b 	stmdbmi	fp, {r0, r1, r3, r8, r9, fp, ip, sp}
     85c:	00170213 	andseq	r0, r7, r3, lsl r2
     860:	82891000 	addhi	r1, r9, #0
     864:	01110101 	tsteq	r1, r1, lsl #2
     868:	13011331 	movwne	r1, #4913	; 0x1331
     86c:	8a110000 	bhi	440874 <__bss_end__+0x43616c>
     870:	02000182 	andeq	r0, r0, #-2147483616	; 0x80000020
     874:	18429118 	stmdane	r2, {r3, r4, r8, ip, pc}^
     878:	89120000 	ldmdbhi	r2, {}	; <UNPREDICTABLE>
     87c:	11010182 	smlabbne	r1, r2, r1, r0
     880:	13000001 	movwne	r0, #1
     884:	13490101 	movtne	r0, #37121	; 0x9101
     888:	00001301 	andeq	r1, r0, r1, lsl #6
     88c:	49002114 	stmdbmi	r0, {r2, r4, r8, sp}
     890:	00052f13 	andeq	r2, r5, r3, lsl pc
     894:	01151500 	tsteq	r5, r0, lsl #10
     898:	13491927 	movtne	r1, #39207	; 0x9927
     89c:	00001301 	andeq	r1, r0, r1, lsl #6
     8a0:	49000516 	stmdbmi	r0, {r1, r2, r4, r8, sl}
     8a4:	17000013 	smladne	r0, r3, r0, r0
     8a8:	0e030034 	mcreq	0, 0, r0, cr3, cr4, {1}
     8ac:	0b3b0b3a 	bleq	ec359c <__bss_end__+0xeb8e94>
     8b0:	193f1349 	ldmdbne	pc!, {r0, r3, r6, r8, r9, ip}	; <UNPREDICTABLE>
     8b4:	0000193c 	andeq	r1, r0, ip, lsr r9
     8b8:	3f012e18 	svccc	0x00012e18
     8bc:	3a0e0319 	bcc	381528 <__bss_end__+0x376e20>
     8c0:	270b3b0b 	strcs	r3, [fp, -fp, lsl #22]
     8c4:	3c134919 	ldccc	9, cr4, [r3], {25}
     8c8:	00000019 	andeq	r0, r0, r9, lsl r0
     8cc:	25011101 	strcs	r1, [r1, #-257]	; 0x101
     8d0:	030b130e 	movweq	r1, #45838	; 0xb30e
     8d4:	110e1b0e 	tstne	lr, lr, lsl #22
     8d8:	10061201 	andne	r1, r6, r1, lsl #4
     8dc:	02000017 	andeq	r0, r0, #23
     8e0:	0b0b0024 	bleq	2c0978 <__bss_end__+0x2b6270>
     8e4:	08030b3e 	stmdaeq	r3, {r1, r2, r3, r4, r5, r8, r9, fp}
     8e8:	24030000 	strcs	r0, [r3], #-0
     8ec:	3e0b0b00 	vmlacc.f64	d0, d11, d0
     8f0:	000e030b 	andeq	r0, lr, fp, lsl #6
     8f4:	012e0400 	teqeq	lr, r0, lsl #8
     8f8:	0b3a0e03 	bleq	e8410c <__bss_end__+0xe79a04>
     8fc:	19270b3b 	stmdbne	r7!, {r0, r1, r3, r4, r5, r8, r9, fp}
     900:	01111349 	tsteq	r1, r9, asr #6
     904:	18400612 	stmdane	r0, {r1, r4, r9, sl}^
     908:	01194297 			; <UNDEFINED> instruction: 0x01194297
     90c:	05000013 	streq	r0, [r0, #-19]
     910:	08030005 	stmdaeq	r3, {r0, r2}
     914:	0b3b0b3a 	bleq	ec3604 <__bss_end__+0xeb8efc>
     918:	17021349 	strne	r1, [r2, -r9, asr #6]
     91c:	89060000 	stmdbhi	r6, {}	; <UNPREDICTABLE>
     920:	11010182 	smlabbne	r1, r2, r1, r0
     924:	00133101 	andseq	r3, r3, r1, lsl #2
     928:	828a0700 	addhi	r0, sl, #0, 14
     92c:	18020001 	stmdane	r2, {r0}
     930:	00184291 	mulseq	r8, r1, r2
     934:	002e0800 	eoreq	r0, lr, r0, lsl #16
     938:	0e03193f 	mcreq	9, 0, r1, cr3, cr15, {1}
     93c:	0b3b0b3a 	bleq	ec362c <__bss_end__+0xeb8f24>
     940:	01111927 	tsteq	r1, r7, lsr #18
     944:	18400612 	stmdane	r0, {r1, r4, r9, sl}^
     948:	00194297 	mulseq	r9, r7, r2
     94c:	012e0900 	teqeq	lr, r0, lsl #18
     950:	0e03193f 	mcreq	9, 0, r1, cr3, cr15, {1}
     954:	0b3b0b3a 	bleq	ec3644 <__bss_end__+0xeb8f3c>
     958:	01111927 	tsteq	r1, r7, lsr #18
     95c:	18400612 	stmdane	r0, {r1, r4, r9, sl}^
     960:	01194297 			; <UNDEFINED> instruction: 0x01194297
     964:	0a000013 	beq	9b8 <__code_start__-0x7648>
     968:	08030005 	stmdaeq	r3, {r0, r2}
     96c:	0b3b0b3a 	bleq	ec365c <__bss_end__+0xeb8f54>
     970:	18021349 	stmdane	r2, {r0, r3, r6, r8, r9, ip}
     974:	150b0000 	strne	r0, [fp, #-0]
     978:	49192701 	ldmdbmi	r9, {r0, r8, r9, sl, sp}
     97c:	00130113 	andseq	r0, r3, r3, lsl r1
     980:	00050c00 	andeq	r0, r5, r0, lsl #24
     984:	00001349 	andeq	r1, r0, r9, asr #6
     988:	0b000f0d 	bleq	45c4 <__code_start__-0x3a3c>
     98c:	0013490b 	andseq	r4, r3, fp, lsl #18
     990:	00340e00 	eorseq	r0, r4, r0, lsl #28
     994:	0b3a0e03 	bleq	e841a8 <__bss_end__+0xe79aa0>
     998:	13490b3b 	movtne	r0, #39739	; 0x9b3b
     99c:	1802193f 	stmdane	r2, {r0, r1, r2, r3, r4, r5, r8, fp, ip}
     9a0:	2e0f0000 	cdpcs	0, 0, cr0, cr15, cr0, {0}
     9a4:	03193f01 	tsteq	r9, #1, 30
     9a8:	3b0b3a0e 	blcc	2cf1e8 <__bss_end__+0x2c4ae0>
     9ac:	3c19270b 	ldccc	7, cr2, [r9], {11}
     9b0:	00000019 	andeq	r0, r0, r9, lsl r0
     9b4:	25011101 	strcs	r1, [r1, #-257]	; 0x101
     9b8:	030b130e 	movweq	r1, #45838	; 0xb30e
     9bc:	110e1b0e 	tstne	lr, lr, lsl #22
     9c0:	10061201 	andne	r1, r6, r1, lsl #4
     9c4:	02000017 	andeq	r0, r0, #23
     9c8:	0b0b0024 	bleq	2c0a60 <__bss_end__+0x2b6358>
     9cc:	08030b3e 	stmdaeq	r3, {r1, r2, r3, r4, r5, r8, r9, fp}
     9d0:	24030000 	strcs	r0, [r3], #-0
     9d4:	3e0b0b00 	vmlacc.f64	d0, d11, d0
     9d8:	000e030b 	andeq	r0, lr, fp, lsl #6
     9dc:	000f0400 	andeq	r0, pc, r0, lsl #8
     9e0:	13490b0b 	movtne	r0, #39691	; 0x9b0b
     9e4:	26050000 	strcs	r0, [r5], -r0
     9e8:	00134900 	andseq	r4, r3, r0, lsl #18
     9ec:	012e0600 	teqeq	lr, r0, lsl #12
     9f0:	0e03193f 	mcreq	9, 0, r1, cr3, cr15, {1}
     9f4:	0b3b0b3a 	bleq	ec36e4 <__bss_end__+0xeb8fdc>
     9f8:	13491927 	movtne	r1, #39207	; 0x9927
     9fc:	06120111 			; <UNDEFINED> instruction: 0x06120111
     a00:	42961840 	addsmi	r1, r6, #64, 16	; 0x400000
     a04:	00130119 	andseq	r0, r3, r9, lsl r1
     a08:	00050700 	andeq	r0, r5, r0, lsl #14
     a0c:	0b3a0803 	bleq	e82a20 <__bss_end__+0xe78318>
     a10:	13490b3b 	movtne	r0, #39739	; 0x9b3b
     a14:	00001702 	andeq	r1, r0, r2, lsl #14
     a18:	27011508 	strcs	r1, [r1, -r8, lsl #10]
     a1c:	01134919 	tsteq	r3, r9, lsl r9
     a20:	09000013 	stmdbeq	r0, {r0, r1, r4}
     a24:	13490005 	movtne	r0, #36869	; 0x9005
     a28:	340a0000 	strcc	r0, [sl], #-0
     a2c:	3a0e0300 	bcc	381634 <__bss_end__+0x376f2c>
     a30:	490b3b0b 	stmdbmi	fp, {r0, r1, r3, r8, r9, fp, ip, sp}
     a34:	3c193f13 	ldccc	15, cr3, [r9], {19}
     a38:	0b000019 	bleq	aa4 <__code_start__-0x755c>
     a3c:	0e030034 	mcreq	0, 0, r0, cr3, cr4, {1}
     a40:	0b3b0b3a 	bleq	ec3730 <__bss_end__+0xeb9028>
     a44:	193f1349 	ldmdbne	pc!, {r0, r3, r6, r8, r9, ip}	; <UNPREDICTABLE>
     a48:	00001802 	andeq	r1, r0, r2, lsl #16
     a4c:	01110100 	tsteq	r1, r0, lsl #2
     a50:	0b130e25 	bleq	4c42ec <__bss_end__+0x4b9be4>
     a54:	0e1b0e03 	cdpeq	14, 1, cr0, cr11, cr3, {0}
     a58:	06120111 			; <UNDEFINED> instruction: 0x06120111
     a5c:	00001710 	andeq	r1, r0, r0, lsl r7
     a60:	0b002402 	bleq	9a70 <gpio_write+0xc>
     a64:	030b3e0b 	movweq	r3, #48651	; 0xbe0b
     a68:	03000008 	movweq	r0, #8
     a6c:	0b0b0024 	bleq	2c0b04 <__bss_end__+0x2b63fc>
     a70:	0e030b3e 	vmoveq.16	d3[0], r0
     a74:	0f040000 	svceq	0x00040000
     a78:	000b0b00 	andeq	r0, fp, r0, lsl #22
     a7c:	000f0500 	andeq	r0, pc, r0, lsl #10
     a80:	13490b0b 	movtne	r0, #39691	; 0x9b0b
     a84:	26060000 	strcs	r0, [r6], -r0
     a88:	00134900 	andseq	r4, r3, r0, lsl #18
     a8c:	00160700 	andseq	r0, r6, r0, lsl #14
     a90:	0b3a0e03 	bleq	e842a4 <__bss_end__+0xe79b9c>
     a94:	13490b3b 	movtne	r0, #39739	; 0x9b3b
     a98:	13080000 	movwne	r0, #32768	; 0x8000
     a9c:	0b0e0301 	bleq	3816a8 <__bss_end__+0x376fa0>
     aa0:	3b0b3a0b 	blcc	2cf2d4 <__bss_end__+0x2c4bcc>
     aa4:	0013010b 	andseq	r0, r3, fp, lsl #2
     aa8:	000d0900 	andeq	r0, sp, r0, lsl #18
     aac:	13490e03 	movtne	r0, #40451	; 0x9e03
     ab0:	19340b38 	ldmdbne	r4!, {r3, r4, r5, r8, r9, fp}
     ab4:	2e0a0000 	cdpcs	0, 0, cr0, cr10, cr0, {0}
     ab8:	3a0e0301 	bcc	3816c4 <__bss_end__+0x376fbc>
     abc:	270b3b0b 	strcs	r3, [fp, -fp, lsl #22]
     ac0:	11134919 	tstne	r3, r9, lsl r9
     ac4:	40061201 	andmi	r1, r6, r1, lsl #4
     ac8:	19429718 	stmdbne	r2, {r3, r4, r8, r9, sl, ip, pc}^
     acc:	00001301 	andeq	r1, r0, r1, lsl #6
     ad0:	0300050b 	movweq	r0, #1291	; 0x50b
     ad4:	3b0b3a08 	blcc	2cf2fc <__bss_end__+0x2c4bf4>
     ad8:	0213490b 	andseq	r4, r3, #180224	; 0x2c000
     adc:	0c000017 	stceq	0, cr0, [r0], {23}
     ae0:	0803012e 	stmdaeq	r3, {r1, r2, r3, r5, r8}
     ae4:	0b3b0b3a 	bleq	ec37d4 <__bss_end__+0xeb90cc>
     ae8:	13491927 	movtne	r1, #39207	; 0x9927
     aec:	06120111 			; <UNDEFINED> instruction: 0x06120111
     af0:	42971840 	addsmi	r1, r7, #64, 16	; 0x400000
     af4:	00130119 	andseq	r0, r3, r9, lsl r1
     af8:	00050d00 	andeq	r0, r5, r0, lsl #26
     afc:	0b3a0e03 	bleq	e84310 <__bss_end__+0xe79c08>
     b00:	13490b3b 	movtne	r0, #39739	; 0x9b3b
     b04:	00001702 	andeq	r1, r0, r2, lsl #14
     b08:	0300050e 	movweq	r0, #1294	; 0x50e
     b0c:	3b0b3a0e 	blcc	2cf34c <__bss_end__+0x2c4c44>
     b10:	0213490b 	andseq	r4, r3, #180224	; 0x2c000
     b14:	0f000018 	svceq	0x00000018
     b18:	08030034 	stmdaeq	r3, {r2, r4, r5}
     b1c:	0b3b0b3a 	bleq	ec380c <__bss_end__+0xeb9104>
     b20:	18021349 	stmdane	r2, {r0, r3, r6, r8, r9, ip}
     b24:	34100000 	ldrcc	r0, [r0], #-0
     b28:	3a080300 	bcc	201730 <__bss_end__+0x1f7028>
     b2c:	490b3b0b 	stmdbmi	fp, {r0, r1, r3, r8, r9, fp, ip, sp}
     b30:	00170213 	andseq	r0, r7, r3, lsl r2
     b34:	00341100 	eorseq	r1, r4, r0, lsl #2
     b38:	13490e03 	movtne	r0, #40451	; 0x9e03
     b3c:	18021934 	stmdane	r2, {r2, r4, r5, r8, fp, ip}
     b40:	0b120000 	bleq	480b48 <__bss_end__+0x476440>
     b44:	12011101 	andne	r1, r1, #1073741824	; 0x40000000
     b48:	00130106 	andseq	r0, r3, r6, lsl #2
     b4c:	00341300 	eorseq	r1, r4, r0, lsl #6
     b50:	0b3a0e03 	bleq	e84364 <__bss_end__+0xe79c5c>
     b54:	13490b3b 	movtne	r0, #39739	; 0x9b3b
     b58:	00001702 	andeq	r1, r0, r2, lsl #14
     b5c:	01828914 	orreq	r8, r2, r4, lsl r9
     b60:	31011100 	mrscc	r1, (UNDEF: 17)
     b64:	15000013 	strne	r0, [r0, #-19]
     b68:	01018289 	smlabbeq	r1, r9, r2, r8
     b6c:	13310111 	teqne	r1, #1073741828	; 0x40000004
     b70:	00001301 	andeq	r1, r0, r1, lsl #6
     b74:	01828a16 	orreq	r8, r2, r6, lsl sl
     b78:	91180200 	tstls	r8, r0, lsl #4
     b7c:	00001842 	andeq	r1, r0, r2, asr #16
     b80:	01828917 	orreq	r8, r2, r7, lsl r9
     b84:	31011101 	tstcc	r1, r1, lsl #2
     b88:	18000013 	stmdane	r0, {r0, r1, r4}
     b8c:	13490101 	movtne	r0, #37121	; 0x9101
     b90:	00001301 	andeq	r1, r0, r1, lsl #6
     b94:	49002119 	stmdbmi	r0, {r0, r3, r4, r8, sp}
     b98:	000b2f13 	andeq	r2, fp, r3, lsl pc
     b9c:	012e1a00 	teqeq	lr, r0, lsl #20
     ba0:	0e03193f 	mcreq	9, 0, r1, cr3, cr15, {1}
     ba4:	0b3b0b3a 	bleq	ec3894 <__bss_end__+0xeb918c>
     ba8:	01111927 	tsteq	r1, r7, lsr #18
     bac:	18400612 	stmdane	r0, {r1, r4, r9, sl}^
     bb0:	01194297 			; <UNDEFINED> instruction: 0x01194297
     bb4:	1b000013 	blne	c08 <__code_start__-0x73f8>
     bb8:	19270115 	stmdbne	r7!, {r0, r2, r4, r8}
     bbc:	13011349 	movwne	r1, #4937	; 0x1349
     bc0:	051c0000 	ldreq	r0, [ip, #-0]
     bc4:	00134900 	andseq	r4, r3, r0, lsl #18
     bc8:	012e1d00 	teqeq	lr, r0, lsl #26
     bcc:	0e03193f 	mcreq	9, 0, r1, cr3, cr15, {1}
     bd0:	0b3b0b3a 	bleq	ec38c0 <__bss_end__+0xeb91b8>
     bd4:	13491927 	movtne	r1, #39207	; 0x9927
     bd8:	06120111 			; <UNDEFINED> instruction: 0x06120111
     bdc:	42971840 	addsmi	r1, r7, #64, 16	; 0x400000
     be0:	00130119 	andseq	r0, r3, r9, lsl r1
     be4:	010b1e00 	tsteq	fp, r0, lsl #28
     be8:	06120111 			; <UNDEFINED> instruction: 0x06120111
     bec:	891f0000 	ldmdbhi	pc, {}	; <UNPREDICTABLE>
     bf0:	11010182 	smlabbne	r1, r2, r1, r0
     bf4:	00130101 	andseq	r0, r3, r1, lsl #2
     bf8:	00342000 	eorseq	r2, r4, r0
     bfc:	0b3a0e03 	bleq	e84410 <__bss_end__+0xe79d08>
     c00:	13490b3b 	movtne	r0, #39739	; 0x9b3b
     c04:	193c193f 	ldmdbne	ip!, {r0, r1, r2, r3, r4, r5, r8, fp, ip}
     c08:	2e210000 	cdpcs	0, 2, cr0, cr1, cr0, {0}
     c0c:	03193f00 	tsteq	r9, #0, 30
     c10:	3b0b3a0e 	blcc	2cf450 <__bss_end__+0x2c4d48>
     c14:	3c19270b 	ldccc	7, cr2, [r9], {11}
     c18:	22000019 	andcs	r0, r0, #25
     c1c:	193f012e 	ldmdbne	pc!, {r1, r2, r3, r5, r8}	; <UNPREDICTABLE>
     c20:	0b3a0e03 	bleq	e84434 <__bss_end__+0xe79d2c>
     c24:	19270b3b 	stmdbne	r7!, {r0, r1, r3, r4, r5, r8, r9, fp}
     c28:	193c1349 	ldmdbne	ip!, {r0, r3, r6, r8, r9, ip}
     c2c:	00001301 	andeq	r1, r0, r1, lsl #6
     c30:	00001823 	andeq	r1, r0, r3, lsr #16
     c34:	11010000 	mrsne	r0, (UNDEF: 1)
     c38:	130e2501 	movwne	r2, #58625	; 0xe501
     c3c:	1b0e030b 	blne	381870 <__bss_end__+0x377168>
     c40:	1201110e 	andne	r1, r1, #-2147483645	; 0x80000003
     c44:	00171006 	andseq	r1, r7, r6
     c48:	00240200 	eoreq	r0, r4, r0, lsl #4
     c4c:	0b3e0b0b 	bleq	f83880 <__bss_end__+0xf79178>
     c50:	00000803 	andeq	r0, r0, r3, lsl #16
     c54:	0b002403 	bleq	9c68 <__FUNCTION__.4423+0x80>
     c58:	030b3e0b 	movweq	r3, #48651	; 0xbe0b
     c5c:	0400000e 	streq	r0, [r0], #-14
     c60:	193f012e 	ldmdbne	pc!, {r1, r2, r3, r5, r8}	; <UNPREDICTABLE>
     c64:	0b3a0e03 	bleq	e84478 <__bss_end__+0xe79d70>
     c68:	19270b3b 	stmdbne	r7!, {r0, r1, r3, r4, r5, r8, r9, fp}
     c6c:	06120111 			; <UNDEFINED> instruction: 0x06120111
     c70:	42971840 	addsmi	r1, r7, #64, 16	; 0x400000
     c74:	00130119 	andseq	r0, r3, r9, lsl r1
     c78:	00340500 	eorseq	r0, r4, r0, lsl #10
     c7c:	0b3a0803 	bleq	e82c90 <__bss_end__+0xe78588>
     c80:	13490b3b 	movtne	r0, #39739	; 0x9b3b
     c84:	00001702 	andeq	r1, r0, r2, lsl #14
     c88:	3f012e06 	svccc	0x00012e06
     c8c:	3a0e0319 	bcc	3818f8 <__bss_end__+0x3771f0>
     c90:	270b3b0b 	strcs	r3, [fp, -fp, lsl #22]
     c94:	12011119 	andne	r1, r1, #1073741830	; 0x40000006
     c98:	97184006 	ldrls	r4, [r8, -r6]
     c9c:	00001942 	andeq	r1, r0, r2, asr #18
     ca0:	01110100 	tsteq	r1, r0, lsl #2
     ca4:	0b130e25 	bleq	4c4540 <__bss_end__+0x4b9e38>
     ca8:	0e1b0e03 	cdpeq	14, 1, cr0, cr11, cr3, {0}
     cac:	06120111 			; <UNDEFINED> instruction: 0x06120111
     cb0:	00001710 	andeq	r1, r0, r0, lsl r7
     cb4:	0b002402 	bleq	9cc4 <__FUNCTION__.4423+0xdc>
     cb8:	030b3e0b 	movweq	r3, #48651	; 0xbe0b
     cbc:	03000008 	movweq	r0, #8
     cc0:	0b0b0024 	bleq	2c0d58 <__bss_end__+0x2b6650>
     cc4:	0e030b3e 	vmoveq.16	d3[0], r0
     cc8:	0f040000 	svceq	0x00040000
     ccc:	490b0b00 	stmdbmi	fp, {r8, r9, fp}
     cd0:	05000013 	streq	r0, [r0, #-19]
     cd4:	13490026 	movtne	r0, #36902	; 0x9026
     cd8:	2e060000 	cdpcs	0, 0, cr0, cr6, cr0, {0}
     cdc:	03193f01 	tsteq	r9, #1, 30
     ce0:	3b0b3a0e 	blcc	2cf520 <__bss_end__+0x2c4e18>
     ce4:	1119270b 	tstne	r9, fp, lsl #14
     ce8:	40061201 	andmi	r1, r6, r1, lsl #4
     cec:	19429718 	stmdbne	r2, {r3, r4, r8, r9, sl, ip, pc}^
     cf0:	00001301 	andeq	r1, r0, r1, lsl #6
     cf4:	01828907 	orreq	r8, r2, r7, lsl #18
     cf8:	31011100 	mrscc	r1, (UNDEF: 17)
     cfc:	08000013 	stmdaeq	r0, {r0, r1, r4}
     d00:	01018289 	smlabbeq	r1, r9, r2, r8
     d04:	13010111 	movwne	r0, #4369	; 0x1111
     d08:	8a090000 	bhi	240d10 <__bss_end__+0x236608>
     d0c:	02000182 	andeq	r0, r0, #-2147483616	; 0x80000020
     d10:	18429118 	stmdane	r2, {r3, r4, r8, ip, pc}^
     d14:	890a0000 	stmdbhi	sl, {}	; <UNPREDICTABLE>
     d18:	11010182 	smlabbne	r1, r2, r1, r0
     d1c:	01133101 	tsteq	r3, r1, lsl #2
     d20:	0b000013 	bleq	d74 <__code_start__-0x728c>
     d24:	19270115 	stmdbne	r7!, {r0, r2, r4, r8}
     d28:	13011349 	movwne	r1, #4937	; 0x1349
     d2c:	050c0000 	streq	r0, [ip, #-0]
     d30:	00134900 	andseq	r4, r3, r0, lsl #18
     d34:	00340d00 	eorseq	r0, r4, r0, lsl #26
     d38:	0b3a0e03 	bleq	e8454c <__bss_end__+0xe79e44>
     d3c:	13490b3b 	movtne	r0, #39739	; 0x9b3b
     d40:	193c193f 	ldmdbne	ip!, {r0, r1, r2, r3, r4, r5, r8, fp, ip}
     d44:	2e0e0000 	cdpcs	0, 0, cr0, cr14, cr0, {0}
     d48:	03193f00 	tsteq	r9, #0, 30
     d4c:	3b0b3a0e 	blcc	2cf58c <__bss_end__+0x2c4e84>
     d50:	3c19270b 	ldccc	7, cr2, [r9], {11}
     d54:	0f000019 	svceq	0x00000019
     d58:	193f012e 	ldmdbne	pc!, {r1, r2, r3, r5, r8}	; <UNPREDICTABLE>
     d5c:	0b3a0e03 	bleq	e84570 <__bss_end__+0xe79e68>
     d60:	19270b3b 	stmdbne	r7!, {r0, r1, r3, r4, r5, r8, r9, fp}
     d64:	1301193c 	movwne	r1, #6460	; 0x193c
     d68:	01000000 	mrseq	r0, (UNDEF: 0)
     d6c:	0e250111 	mcreq	1, 1, r0, cr5, cr1, {0}
     d70:	0e030b13 	vmoveq.32	d3[0], r0
     d74:	01110e1b 	tsteq	r1, fp, lsl lr
     d78:	17100612 			; <UNDEFINED> instruction: 0x17100612
     d7c:	24020000 	strcs	r0, [r2], #-0
     d80:	3e0b0b00 	vmlacc.f64	d0, d11, d0
     d84:	0008030b 	andeq	r0, r8, fp, lsl #6
     d88:	00240300 	eoreq	r0, r4, r0, lsl #6
     d8c:	0b3e0b0b 	bleq	f839c0 <__bss_end__+0xf792b8>
     d90:	00000e03 	andeq	r0, r0, r3, lsl #28
     d94:	3f012e04 	svccc	0x00012e04
     d98:	3a0e0319 	bcc	381a04 <__bss_end__+0x3772fc>
     d9c:	110b3b0b 	tstne	fp, fp, lsl #22
     da0:	40061201 	andmi	r1, r6, r1, lsl #4
     da4:	19429718 	stmdbne	r2, {r3, r4, r8, r9, sl, ip, pc}^
     da8:	00001301 	andeq	r1, r0, r1, lsl #6
     dac:	03003405 	movweq	r3, #1029	; 0x405
     db0:	3b0b3a0e 	blcc	2cf5f0 <__bss_end__+0x2c4ee8>
     db4:	3f13490b 	svccc	0x0013490b
     db8:	00193c19 	andseq	r3, r9, r9, lsl ip
     dbc:	002e0600 	eoreq	r0, lr, r0, lsl #12
     dc0:	0e03193f 	mcreq	9, 0, r1, cr3, cr15, {1}
     dc4:	0b3b0b3a 	bleq	ec3ab4 <__bss_end__+0xeb93ac>
     dc8:	193c1927 	ldmdbne	ip!, {r0, r1, r2, r5, r8, fp, ip}
     dcc:	34070000 	strcc	r0, [r7], #-0
     dd0:	3a080300 	bcc	2019d8 <__bss_end__+0x1f72d0>
     dd4:	490b3b0b 	stmdbmi	fp, {r0, r1, r3, r8, r9, fp, ip, sp}
     dd8:	00170213 	andseq	r0, r7, r3, lsl r2
     ddc:	00340800 	eorseq	r0, r4, r0, lsl #16
     de0:	0b3a0e03 	bleq	e845f4 <__bss_end__+0xe79eec>
     de4:	13490b3b 	movtne	r0, #39739	; 0x9b3b
     de8:	89090000 	stmdbhi	r9, {}	; <UNPREDICTABLE>
     dec:	11000182 	smlabbne	r0, r2, r1, r0
     df0:	00133101 	andseq	r3, r3, r1, lsl #2
     df4:	000f0a00 	andeq	r0, pc, r0, lsl #20
     df8:	13490b0b 	movtne	r0, #39691	; 0x9b0b
     dfc:	01000000 	mrseq	r0, (UNDEF: 0)
     e00:	0e250111 	mcreq	1, 1, r0, cr5, cr1, {0}
     e04:	0e030b13 	vmoveq.32	d3[0], r0
     e08:	01110e1b 	tsteq	r1, fp, lsl lr
     e0c:	17100612 			; <UNDEFINED> instruction: 0x17100612
     e10:	24020000 	strcs	r0, [r2], #-0
     e14:	3e0b0b00 	vmlacc.f64	d0, d11, d0
     e18:	0008030b 	andeq	r0, r8, fp, lsl #6
     e1c:	00240300 	eoreq	r0, r4, r0, lsl #6
     e20:	0b3e0b0b 	bleq	f83a54 <__bss_end__+0xf7934c>
     e24:	00000e03 	andeq	r0, r0, r3, lsl #28
     e28:	0b000f04 	bleq	4a40 <__code_start__-0x35c0>
     e2c:	0013490b 	andseq	r4, r3, fp, lsl #18
     e30:	00260500 	eoreq	r0, r6, r0, lsl #10
     e34:	00001349 	andeq	r1, r0, r9, asr #6
     e38:	3f012e06 	svccc	0x00012e06
     e3c:	3a0e0319 	bcc	381aa8 <__bss_end__+0x3773a0>
     e40:	270b3b0b 	strcs	r3, [fp, -fp, lsl #22]
     e44:	12011119 	andne	r1, r1, #1073741830	; 0x40000006
     e48:	97184006 	ldrls	r4, [r8, -r6]
     e4c:	13011942 	movwne	r1, #6466	; 0x1942
     e50:	05070000 	streq	r0, [r7, #-0]
     e54:	3a080300 	bcc	201a5c <__bss_end__+0x1f7354>
     e58:	490b3b0b 	stmdbmi	fp, {r0, r1, r3, r8, r9, fp, ip, sp}
     e5c:	00170213 	andseq	r0, r7, r3, lsl r2
     e60:	00340800 	eorseq	r0, r4, r0, lsl #16
     e64:	13490e03 	movtne	r0, #40451	; 0x9e03
     e68:	18021934 	stmdane	r2, {r2, r4, r5, r8, fp, ip}
     e6c:	89090000 	stmdbhi	r9, {}	; <UNPREDICTABLE>
     e70:	11000182 	smlabbne	r0, r2, r1, r0
     e74:	00133101 	andseq	r3, r3, r1, lsl #2
     e78:	82890a00 	addhi	r0, r9, #0, 20
     e7c:	01110101 	tsteq	r1, r1, lsl #2
     e80:	13011331 	movwne	r1, #4913	; 0x1331
     e84:	8a0b0000 	bhi	2c0e8c <__bss_end__+0x2b6784>
     e88:	02000182 	andeq	r0, r0, #-2147483616	; 0x80000020
     e8c:	18429118 	stmdane	r2, {r3, r4, r8, ip, pc}^
     e90:	010c0000 	mrseq	r0, (UNDEF: 12)
     e94:	01134901 	tsteq	r3, r1, lsl #18
     e98:	0d000013 	stceq	0, cr0, [r0, #-76]	; 0xffffffb4
     e9c:	13490021 	movtne	r0, #36897	; 0x9021
     ea0:	00000b2f 	andeq	r0, r0, pc, lsr #22
     ea4:	3f002e0e 	svccc	0x00002e0e
     ea8:	3a0e0319 	bcc	381b14 <__bss_end__+0x37740c>
     eac:	270b3b0b 	strcs	r3, [fp, -fp, lsl #22]
     eb0:	00193c19 	andseq	r3, r9, r9, lsl ip
     eb4:	012e0f00 	teqeq	lr, r0, lsl #30
     eb8:	0e03193f 	mcreq	9, 0, r1, cr3, cr15, {1}
     ebc:	0b3b0b3a 	bleq	ec3bac <__bss_end__+0xeb94a4>
     ec0:	13491927 	movtne	r1, #39207	; 0x9927
     ec4:	1301193c 	movwne	r1, #6460	; 0x193c
     ec8:	05100000 	ldreq	r0, [r0, #-0]
     ecc:	00134900 	andseq	r4, r3, r0, lsl #18
     ed0:	00181100 	andseq	r1, r8, r0, lsl #2
     ed4:	01000000 	mrseq	r0, (UNDEF: 0)
     ed8:	0e250111 	mcreq	1, 1, r0, cr5, cr1, {0}
     edc:	0e030b13 	vmoveq.32	d3[0], r0
     ee0:	01110e1b 	tsteq	r1, fp, lsl lr
     ee4:	17100612 			; <UNDEFINED> instruction: 0x17100612
     ee8:	24020000 	strcs	r0, [r2], #-0
     eec:	3e0b0b00 	vmlacc.f64	d0, d11, d0
     ef0:	0008030b 	andeq	r0, r8, fp, lsl #6
     ef4:	00240300 	eoreq	r0, r4, r0, lsl #6
     ef8:	0b3e0b0b 	bleq	f83b2c <__bss_end__+0xf79424>
     efc:	00000e03 	andeq	r0, r0, r3, lsl #28
     f00:	0b000f04 	bleq	4b18 <__code_start__-0x34e8>
     f04:	0013490b 	andseq	r4, r3, fp, lsl #18
     f08:	00260500 	eoreq	r0, r6, r0, lsl #10
     f0c:	00001349 	andeq	r1, r0, r9, asr #6
     f10:	3f012e06 	svccc	0x00012e06
     f14:	3a0e0319 	bcc	381b80 <__bss_end__+0x377478>
     f18:	270b3b0b 	strcs	r3, [fp, -fp, lsl #22]
     f1c:	12011119 	andne	r1, r1, #1073741830	; 0x40000006
     f20:	97184006 	ldrls	r4, [r8, -r6]
     f24:	13011942 	movwne	r1, #6466	; 0x1942
     f28:	05070000 	streq	r0, [r7, #-0]
     f2c:	3a080300 	bcc	201b34 <__bss_end__+0x1f742c>
     f30:	490b3b0b 	stmdbmi	fp, {r0, r1, r3, r8, r9, fp, ip, sp}
     f34:	00170213 	andseq	r0, r7, r3, lsl r2
     f38:	00340800 	eorseq	r0, r4, r0, lsl #16
     f3c:	13490e03 	movtne	r0, #40451	; 0x9e03
     f40:	18021934 	stmdane	r2, {r2, r4, r5, r8, fp, ip}
     f44:	89090000 	stmdbhi	r9, {}	; <UNPREDICTABLE>
     f48:	11000182 	smlabbne	r0, r2, r1, r0
     f4c:	00133101 	andseq	r3, r3, r1, lsl #2
     f50:	82890a00 	addhi	r0, r9, #0, 20
     f54:	01110101 	tsteq	r1, r1, lsl #2
     f58:	13011331 	movwne	r1, #4913	; 0x1331
     f5c:	8a0b0000 	bhi	2c0f64 <__bss_end__+0x2b685c>
     f60:	02000182 	andeq	r0, r0, #-2147483616	; 0x80000020
     f64:	18429118 	stmdane	r2, {r3, r4, r8, ip, pc}^
     f68:	010c0000 	mrseq	r0, (UNDEF: 12)
     f6c:	01134901 	tsteq	r3, r1, lsl #18
     f70:	0d000013 	stceq	0, cr0, [r0, #-76]	; 0xffffffb4
     f74:	13490021 	movtne	r0, #36897	; 0x9021
     f78:	00000b2f 	andeq	r0, r0, pc, lsr #22
     f7c:	3f002e0e 	svccc	0x00002e0e
     f80:	3a0e0319 	bcc	381bec <__bss_end__+0x3774e4>
     f84:	270b3b0b 	strcs	r3, [fp, -fp, lsl #22]
     f88:	00193c19 	andseq	r3, r9, r9, lsl ip
     f8c:	012e0f00 	teqeq	lr, r0, lsl #30
     f90:	0e03193f 	mcreq	9, 0, r1, cr3, cr15, {1}
     f94:	0b3b0b3a 	bleq	ec3c84 <__bss_end__+0xeb957c>
     f98:	13491927 	movtne	r1, #39207	; 0x9927
     f9c:	1301193c 	movwne	r1, #6460	; 0x193c
     fa0:	05100000 	ldreq	r0, [r0, #-0]
     fa4:	00134900 	andseq	r4, r3, r0, lsl #18
     fa8:	00181100 	andseq	r1, r8, r0, lsl #2
     fac:	01000000 	mrseq	r0, (UNDEF: 0)
     fb0:	0e250111 	mcreq	1, 1, r0, cr5, cr1, {0}
     fb4:	0e030b13 	vmoveq.32	d3[0], r0
     fb8:	01110e1b 	tsteq	r1, fp, lsl lr
     fbc:	17100612 			; <UNDEFINED> instruction: 0x17100612
     fc0:	24020000 	strcs	r0, [r2], #-0
     fc4:	3e0b0b00 	vmlacc.f64	d0, d11, d0
     fc8:	0008030b 	andeq	r0, r8, fp, lsl #6
     fcc:	00240300 	eoreq	r0, r4, r0, lsl #6
     fd0:	0b3e0b0b 	bleq	f83c04 <__bss_end__+0xf794fc>
     fd4:	00000e03 	andeq	r0, r0, r3, lsl #28
     fd8:	0b000f04 	bleq	4bf0 <__code_start__-0x3410>
     fdc:	0013490b 	andseq	r4, r3, fp, lsl #18
     fe0:	00260500 	eoreq	r0, r6, r0, lsl #10
     fe4:	00001349 	andeq	r1, r0, r9, asr #6
     fe8:	3f012e06 	svccc	0x00012e06
     fec:	3a0e0319 	bcc	381c58 <__bss_end__+0x377550>
     ff0:	270b3b0b 	strcs	r3, [fp, -fp, lsl #22]
     ff4:	12011119 	andne	r1, r1, #1073741830	; 0x40000006
     ff8:	97184006 	ldrls	r4, [r8, -r6]
     ffc:	13011942 	movwne	r1, #6466	; 0x1942
    1000:	05070000 	streq	r0, [r7, #-0]
    1004:	3a080300 	bcc	201c0c <__bss_end__+0x1f7504>
    1008:	490b3b0b 	stmdbmi	fp, {r0, r1, r3, r8, r9, fp, ip, sp}
    100c:	00170213 	andseq	r0, r7, r3, lsl r2
    1010:	00340800 	eorseq	r0, r4, r0, lsl #16
    1014:	13490e03 	movtne	r0, #40451	; 0x9e03
    1018:	18021934 	stmdane	r2, {r2, r4, r5, r8, fp, ip}
    101c:	89090000 	stmdbhi	r9, {}	; <UNPREDICTABLE>
    1020:	11000182 	smlabbne	r0, r2, r1, r0
    1024:	00133101 	andseq	r3, r3, r1, lsl #2
    1028:	82890a00 	addhi	r0, r9, #0, 20
    102c:	01110101 	tsteq	r1, r1, lsl #2
    1030:	13011331 	movwne	r1, #4913	; 0x1331
    1034:	8a0b0000 	bhi	2c103c <__bss_end__+0x2b6934>
    1038:	02000182 	andeq	r0, r0, #-2147483616	; 0x80000020
    103c:	18429118 	stmdane	r2, {r3, r4, r8, ip, pc}^
    1040:	010c0000 	mrseq	r0, (UNDEF: 12)
    1044:	01134901 	tsteq	r3, r1, lsl #18
    1048:	0d000013 	stceq	0, cr0, [r0, #-76]	; 0xffffffb4
    104c:	13490021 	movtne	r0, #36897	; 0x9021
    1050:	00000b2f 	andeq	r0, r0, pc, lsr #22
    1054:	3f002e0e 	svccc	0x00002e0e
    1058:	3a0e0319 	bcc	381cc4 <__bss_end__+0x3775bc>
    105c:	270b3b0b 	strcs	r3, [fp, -fp, lsl #22]
    1060:	00193c19 	andseq	r3, r9, r9, lsl ip
    1064:	012e0f00 	teqeq	lr, r0, lsl #30
    1068:	0e03193f 	mcreq	9, 0, r1, cr3, cr15, {1}
    106c:	0b3b0b3a 	bleq	ec3d5c <__bss_end__+0xeb9654>
    1070:	13491927 	movtne	r1, #39207	; 0x9927
    1074:	1301193c 	movwne	r1, #6460	; 0x193c
    1078:	05100000 	ldreq	r0, [r0, #-0]
    107c:	00134900 	andseq	r4, r3, r0, lsl #18
    1080:	00181100 	andseq	r1, r8, r0, lsl #2
    1084:	01000000 	mrseq	r0, (UNDEF: 0)
    1088:	0e250111 	mcreq	1, 1, r0, cr5, cr1, {0}
    108c:	0e030b13 	vmoveq.32	d3[0], r0
    1090:	01110e1b 	tsteq	r1, fp, lsl lr
    1094:	17100612 			; <UNDEFINED> instruction: 0x17100612
    1098:	24020000 	strcs	r0, [r2], #-0
    109c:	3e0b0b00 	vmlacc.f64	d0, d11, d0
    10a0:	0008030b 	andeq	r0, r8, fp, lsl #6
    10a4:	00240300 	eoreq	r0, r4, r0, lsl #6
    10a8:	0b3e0b0b 	bleq	f83cdc <__bss_end__+0xf795d4>
    10ac:	00000e03 	andeq	r0, r0, r3, lsl #28
    10b0:	3f002e04 	svccc	0x00002e04
    10b4:	3a0e0319 	bcc	381d20 <__bss_end__+0x377618>
    10b8:	270b3b0b 	strcs	r3, [fp, -fp, lsl #22]
    10bc:	12011119 	andne	r1, r1, #1073741830	; 0x40000006
    10c0:	97184006 	ldrls	r4, [r8, -r6]
    10c4:	00001942 	andeq	r1, r0, r2, asr #18
    10c8:	01110100 	tsteq	r1, r0, lsl #2
    10cc:	0b130e25 	bleq	4c4968 <__bss_end__+0x4ba260>
    10d0:	0e1b0e03 	cdpeq	14, 1, cr0, cr11, cr3, {0}
    10d4:	06120111 			; <UNDEFINED> instruction: 0x06120111
    10d8:	00001710 	andeq	r1, r0, r0, lsl r7
    10dc:	0b002402 	bleq	a0ec <__FUNCTION__.4272+0x4>
    10e0:	030b3e0b 	movweq	r3, #48651	; 0xbe0b
    10e4:	03000008 	movweq	r0, #8
    10e8:	0b0b0024 	bleq	2c1180 <__bss_end__+0x2b6a78>
    10ec:	0e030b3e 	vmoveq.16	d3[0], r0
    10f0:	04040000 	streq	r0, [r4], #-0
    10f4:	3a0b0b01 	bcc	2c3d00 <__bss_end__+0x2b95f8>
    10f8:	010b3b0b 	tsteq	fp, fp, lsl #22
    10fc:	05000013 	streq	r0, [r0, #-19]
    1100:	0e030028 	cdpeq	0, 0, cr0, cr3, cr8, {1}
    1104:	00000d1c 	andeq	r0, r0, ip, lsl sp
    1108:	3f012e06 	svccc	0x00012e06
    110c:	3a0e0319 	bcc	381d78 <__bss_end__+0x377670>
    1110:	270b3b0b 	strcs	r3, [fp, -fp, lsl #22]
    1114:	12011119 	andne	r1, r1, #1073741830	; 0x40000006
    1118:	97184006 	ldrls	r4, [r8, -r6]
    111c:	13011942 	movwne	r1, #6466	; 0x1942
    1120:	34070000 	strcc	r0, [r7], #-0
    1124:	3a0e0300 	bcc	381d2c <__bss_end__+0x377624>
    1128:	490b3b0b 	stmdbmi	fp, {r0, r1, r3, r8, r9, fp, ip, sp}
    112c:	3c193f13 	ldccc	15, cr3, [r9], {19}
    1130:	08000019 	stmdaeq	r0, {r0, r3, r4}
    1134:	08030034 	stmdaeq	r3, {r2, r4, r5}
    1138:	0b3b0b3a 	bleq	ec3e28 <__bss_end__+0xeb9720>
    113c:	0b1c1349 	bleq	705e68 <__bss_end__+0x6fb760>
    1140:	34090000 	strcc	r0, [r9], #-0
    1144:	3a080300 	bcc	201d4c <__bss_end__+0x1f7644>
    1148:	490b3b0b 	stmdbmi	fp, {r0, r1, r3, r8, r9, fp, ip, sp}
    114c:	0a000013 	beq	11a0 <__code_start__-0x6e60>
    1150:	08030034 	stmdaeq	r3, {r2, r4, r5}
    1154:	0b3b0b3a 	bleq	ec3e44 <__bss_end__+0xeb973c>
    1158:	18021349 	stmdane	r2, {r0, r3, r6, r8, r9, ip}
    115c:	0b0b0000 	bleq	2c1164 <__bss_end__+0x2b6a5c>
    1160:	12011101 	andne	r1, r1, #1073741824	; 0x40000000
    1164:	00130106 	andseq	r0, r3, r6, lsl #2
    1168:	00340c00 	eorseq	r0, r4, r0, lsl #24
    116c:	0b3a0803 	bleq	e83180 <__bss_end__+0xe78a78>
    1170:	13490b3b 	movtne	r0, #39739	; 0x9b3b
    1174:	00001702 	andeq	r1, r0, r2, lsl #14
    1178:	0182890d 	orreq	r8, r2, sp, lsl #18
    117c:	31011100 	mrscc	r1, (UNDEF: 17)
    1180:	0e000013 	mcreq	0, 0, r0, cr0, cr3, {0}
    1184:	01018289 	smlabbeq	r1, r9, r2, r8
    1188:	13310111 	teqne	r1, #1073741828	; 0x40000004
    118c:	00001301 	andeq	r1, r0, r1, lsl #6
    1190:	01828a0f 	orreq	r8, r2, pc, lsl #20
    1194:	91180200 	tstls	r8, r0, lsl #4
    1198:	00001842 	andeq	r1, r0, r2, asr #16
    119c:	0b000f10 	bleq	4de4 <__code_start__-0x321c>
    11a0:	0013490b 	andseq	r4, r3, fp, lsl #18
    11a4:	002e1100 	eoreq	r1, lr, r0, lsl #2
    11a8:	0e03193f 	mcreq	9, 0, r1, cr3, cr15, {1}
    11ac:	0b3b0b3a 	bleq	ec3e9c <__bss_end__+0xeb9794>
    11b0:	193c1927 	ldmdbne	ip!, {r0, r1, r2, r5, r8, fp, ip}
    11b4:	2e120000 	cdpcs	0, 1, cr0, cr2, cr0, {0}
    11b8:	03193f01 	tsteq	r9, #1, 30
    11bc:	3b0b3a0e 	blcc	2cf9fc <__bss_end__+0x2c52f4>
    11c0:	3c19270b 	ldccc	7, cr2, [r9], {11}
    11c4:	13000019 	movwne	r0, #25
    11c8:	13490005 	movtne	r0, #36869	; 0x9005
    11cc:	01000000 	mrseq	r0, (UNDEF: 0)
    11d0:	0e250111 	mcreq	1, 1, r0, cr5, cr1, {0}
    11d4:	0e030b13 	vmoveq.32	d3[0], r0
    11d8:	17550e1b 	smmlane	r5, fp, lr, r0
    11dc:	17100111 			; <UNDEFINED> instruction: 0x17100111
    11e0:	24020000 	strcs	r0, [r2], #-0
    11e4:	3e0b0b00 	vmlacc.f64	d0, d11, d0
    11e8:	0008030b 	andeq	r0, r8, fp, lsl #6
    11ec:	00240300 	eoreq	r0, r4, r0, lsl #6
    11f0:	0b3e0b0b 	bleq	f83e24 <__bss_end__+0xf7971c>
    11f4:	00000e03 	andeq	r0, r0, r3, lsl #28
    11f8:	3f012e04 	svccc	0x00012e04
    11fc:	3a0e0319 	bcc	381e68 <__bss_end__+0x377760>
    1200:	270b3b0b 	strcs	r3, [fp, -fp, lsl #22]
    1204:	11134919 	tstne	r3, r9, lsl r9
    1208:	40061201 	andmi	r1, r6, r1, lsl #4
    120c:	19429718 	stmdbne	r2, {r3, r4, r8, r9, sl, ip, pc}^
    1210:	00001301 	andeq	r1, r0, r1, lsl #6
    1214:	03003405 	movweq	r3, #1029	; 0x405
    1218:	3b0b3a0e 	blcc	2cfa58 <__bss_end__+0x2c5350>
    121c:	0213490b 	andseq	r4, r3, #180224	; 0x2c000
    1220:	06000017 			; <UNDEFINED> instruction: 0x06000017
    1224:	193f012e 	ldmdbne	pc!, {r1, r2, r3, r5, r8}	; <UNPREDICTABLE>
    1228:	0b3a0e03 	bleq	e84a3c <__bss_end__+0xe7a334>
    122c:	19270b3b 	stmdbne	r7!, {r0, r1, r3, r4, r5, r8, r9, fp}
    1230:	06120111 			; <UNDEFINED> instruction: 0x06120111
    1234:	42971840 	addsmi	r1, r7, #64, 16	; 0x400000
    1238:	00130119 	andseq	r0, r3, r9, lsl r1
    123c:	00340700 	eorseq	r0, r4, r0, lsl #14
    1240:	0b3a0e03 	bleq	e84a54 <__bss_end__+0xe7a34c>
    1244:	13490b3b 	movtne	r0, #39739	; 0x9b3b
    1248:	0000061c 	andeq	r0, r0, ip, lsl r6
    124c:	03003408 	movweq	r3, #1032	; 0x408
    1250:	3b0b3a0e 	blcc	2cfa90 <__bss_end__+0x2c5388>
    1254:	1c13490b 	ldcne	9, cr4, [r3], {11}
    1258:	0900000b 	stmdbeq	r0, {r0, r1, r3}
    125c:	00018289 	andeq	r8, r1, r9, lsl #5
    1260:	13310111 	teqne	r1, #1073741828	; 0x40000004
    1264:	890a0000 	stmdbhi	sl, {}	; <UNPREDICTABLE>
    1268:	11010182 	smlabbne	r1, r2, r1, r0
    126c:	01133101 	tsteq	r3, r1, lsl #2
    1270:	0b000013 	bleq	12c4 <__code_start__-0x6d3c>
    1274:	0001828a 	andeq	r8, r1, sl, lsl #5
    1278:	42911802 	addsmi	r1, r1, #131072	; 0x20000
    127c:	0c000018 	stceq	0, cr0, [r0], {24}
    1280:	01018289 	smlabbeq	r1, r9, r2, r8
    1284:	13310111 	teqne	r1, #1073741828	; 0x40000004
    1288:	260d0000 	strcs	r0, [sp], -r0
    128c:	00134900 	andseq	r4, r3, r0, lsl #18
    1290:	012e0e00 	teqeq	lr, r0, lsl #28
    1294:	0e03193f 	mcreq	9, 0, r1, cr3, cr15, {1}
    1298:	0b3b0b3a 	bleq	ec3f88 <__bss_end__+0xeb9880>
    129c:	193c1927 	ldmdbne	ip!, {r0, r1, r2, r5, r8, fp, ip}
    12a0:	00001301 	andeq	r1, r0, r1, lsl #6
    12a4:	4900050f 	stmdbmi	r0, {r0, r1, r2, r3, r8, sl}
    12a8:	10000013 	andne	r0, r0, r3, lsl r0
    12ac:	193f012e 	ldmdbne	pc!, {r1, r2, r3, r5, r8}	; <UNPREDICTABLE>
    12b0:	0b3a0e03 	bleq	e84ac4 <__bss_end__+0xe7a3bc>
    12b4:	19270b3b 	stmdbne	r7!, {r0, r1, r3, r4, r5, r8, r9, fp}
    12b8:	0000193c 	andeq	r1, r0, ip, lsr r9
    12bc:	01110100 	tsteq	r1, r0, lsl #2
    12c0:	0b130e25 	bleq	4c4b5c <__bss_end__+0x4ba454>
    12c4:	0e1b0e03 	cdpeq	14, 1, cr0, cr11, cr3, {0}
    12c8:	06120111 			; <UNDEFINED> instruction: 0x06120111
    12cc:	00001710 	andeq	r1, r0, r0, lsl r7
    12d0:	0b002402 	bleq	a2e0 <__bss_start__>
    12d4:	030b3e0b 	movweq	r3, #48651	; 0xbe0b
    12d8:	03000008 	movweq	r0, #8
    12dc:	0b0b0024 	bleq	2c1374 <__bss_end__+0x2b6c6c>
    12e0:	0e030b3e 	vmoveq.16	d3[0], r0
    12e4:	2e040000 	cdpcs	0, 0, cr0, cr4, cr0, {0}
    12e8:	03193f01 	tsteq	r9, #1, 30
    12ec:	3b0b3a0e 	blcc	2cfb2c <__bss_end__+0x2c5424>
    12f0:	1119270b 	tstne	r9, fp, lsl #14
    12f4:	40061201 	andmi	r1, r6, r1, lsl #4
    12f8:	19429718 	stmdbne	r2, {r3, r4, r8, r9, sl, ip, pc}^
    12fc:	00001301 	andeq	r1, r0, r1, lsl #6
    1300:	03000505 	movweq	r0, #1285	; 0x505
    1304:	3b0b3a0e 	blcc	2cfb44 <__bss_end__+0x2c543c>
    1308:	0213490b 	andseq	r4, r3, #180224	; 0x2c000
    130c:	06000017 			; <UNDEFINED> instruction: 0x06000017
    1310:	193f012e 	ldmdbne	pc!, {r1, r2, r3, r5, r8}	; <UNPREDICTABLE>
    1314:	0b3a0e03 	bleq	e84b28 <__bss_end__+0xe7a420>
    1318:	19270b3b 	stmdbne	r7!, {r0, r1, r3, r4, r5, r8, r9, fp}
    131c:	01111349 	tsteq	r1, r9, asr #6
    1320:	18400612 	stmdane	r0, {r1, r4, r9, sl}^
    1324:	01194297 			; <UNDEFINED> instruction: 0x01194297
    1328:	07000013 	smladeq	r0, r3, r0, r0
    132c:	01018289 	smlabbeq	r1, r9, r2, r8
    1330:	13310111 	teqne	r1, #1073741828	; 0x40000004
    1334:	8a080000 	bhi	20133c <__bss_end__+0x1f6c34>
    1338:	02000182 	andeq	r0, r0, #-2147483616	; 0x80000020
    133c:	18429118 	stmdane	r2, {r3, r4, r8, ip, pc}^
    1340:	34090000 	strcc	r0, [r9], #-0
    1344:	3a080300 	bcc	201f4c <__bss_end__+0x1f7844>
    1348:	490b3b0b 	stmdbmi	fp, {r0, r1, r3, r8, r9, fp, ip, sp}
    134c:	00170213 	andseq	r0, r7, r3, lsl r2
    1350:	82890a00 	addhi	r0, r9, #0, 20
    1354:	01110001 	tsteq	r1, r1
    1358:	00001331 	andeq	r1, r0, r1, lsr r3
    135c:	0300050b 	movweq	r0, #1291	; 0x50b
    1360:	3b0b3a08 	blcc	2cfb88 <__bss_end__+0x2c5480>
    1364:	0213490b 	andseq	r4, r3, #180224	; 0x2c000
    1368:	0c000017 	stceq	0, cr0, [r0], {23}
    136c:	08030034 	stmdaeq	r3, {r2, r4, r5}
    1370:	0b3b0b3a 	bleq	ec4060 <__bss_end__+0xeb9958>
    1374:	18021349 	stmdane	r2, {r0, r3, r6, r8, r9, ip}
    1378:	0b0d0000 	bleq	341380 <__bss_end__+0x336c78>
    137c:	12011101 	andne	r1, r1, #1073741824	; 0x40000000
    1380:	00130106 	andseq	r0, r3, r6, lsl #2
    1384:	012e0e00 	teqeq	lr, r0, lsl #28
    1388:	0e03193f 	mcreq	9, 0, r1, cr3, cr15, {1}
    138c:	0b3b0b3a 	bleq	ec407c <__bss_end__+0xeb9974>
    1390:	13491927 	movtne	r1, #39207	; 0x9927
    1394:	1301193c 	movwne	r1, #6460	; 0x193c
    1398:	050f0000 	streq	r0, [pc, #-0]	; 13a0 <__code_start__-0x6c60>
    139c:	00134900 	andseq	r4, r3, r0, lsl #18
    13a0:	002e1000 	eoreq	r1, lr, r0
    13a4:	0e03193f 	mcreq	9, 0, r1, cr3, cr15, {1}
    13a8:	0b3b0b3a 	bleq	ec4098 <__bss_end__+0xeb9990>
    13ac:	193c1927 	ldmdbne	ip!, {r0, r1, r2, r5, r8, fp, ip}
    13b0:	01000000 	mrseq	r0, (UNDEF: 0)
    13b4:	0e250111 	mcreq	1, 1, r0, cr5, cr1, {0}
    13b8:	0e030b13 	vmoveq.32	d3[0], r0
    13bc:	01110e1b 	tsteq	r1, fp, lsl lr
    13c0:	17100612 			; <UNDEFINED> instruction: 0x17100612
    13c4:	24020000 	strcs	r0, [r2], #-0
    13c8:	3e0b0b00 	vmlacc.f64	d0, d11, d0
    13cc:	0008030b 	andeq	r0, r8, fp, lsl #6
    13d0:	00240300 	eoreq	r0, r4, r0, lsl #6
    13d4:	0b3e0b0b 	bleq	f84008 <__bss_end__+0xf79900>
    13d8:	00000e03 	andeq	r0, r0, r3, lsl #28
    13dc:	49003504 	stmdbmi	r0, {r2, r8, sl, ip, sp}
    13e0:	05000013 	streq	r0, [r0, #-19]
    13e4:	0e030016 	mcreq	0, 0, r0, cr3, cr6, {0}
    13e8:	0b3b0b3a 	bleq	ec40d8 <__bss_end__+0xeb99d0>
    13ec:	00001349 	andeq	r1, r0, r9, asr #6
    13f0:	03001606 	movweq	r1, #1542	; 0x606
    13f4:	3b0b3a0e 	blcc	2cfc34 <__bss_end__+0x2c552c>
    13f8:	00134905 	andseq	r4, r3, r5, lsl #18
    13fc:	01170700 	tsteq	r7, r0, lsl #14
    1400:	0b3a0b0b 	bleq	e84034 <__bss_end__+0xe7992c>
    1404:	13010b3b 	movwne	r0, #6971	; 0x1b3b
    1408:	0d080000 	stceq	0, cr0, [r8, #-0]
    140c:	3a0e0300 	bcc	382014 <__bss_end__+0x37790c>
    1410:	490b3b0b 	stmdbmi	fp, {r0, r1, r3, r8, r9, fp, ip, sp}
    1414:	09000013 	stmdbeq	r0, {r0, r1, r4}
    1418:	13490101 	movtne	r0, #37121	; 0x9101
    141c:	00001301 	andeq	r1, r0, r1, lsl #6
    1420:	4900210a 	stmdbmi	r0, {r1, r3, r8, sp}
    1424:	000b2f13 	andeq	r2, fp, r3, lsl pc
    1428:	01130b00 	tsteq	r3, r0, lsl #22
    142c:	0b3a0b0b 	bleq	e84060 <__bss_end__+0xe79958>
    1430:	13010b3b 	movwne	r0, #6971	; 0x1b3b
    1434:	0d0c0000 	stceq	0, cr0, [ip, #-0]
    1438:	3a0e0300 	bcc	382040 <__bss_end__+0x377938>
    143c:	490b3b0b 	stmdbmi	fp, {r0, r1, r3, r8, r9, fp, ip, sp}
    1440:	000b3813 	andeq	r3, fp, r3, lsl r8
    1444:	000f0d00 	andeq	r0, pc, r0, lsl #26
    1448:	00000b0b 	andeq	r0, r0, fp, lsl #22
    144c:	0b000f0e 	bleq	508c <__code_start__-0x2f74>
    1450:	0013490b 	andseq	r4, r3, fp, lsl #18
    1454:	00260f00 	eoreq	r0, r6, r0, lsl #30
    1458:	00001349 	andeq	r1, r0, r9, asr #6
    145c:	03011310 	movweq	r1, #4880	; 0x1310
    1460:	3a0b0b0e 	bcc	2c40a0 <__bss_end__+0x2b9998>
    1464:	010b3b0b 	tsteq	fp, fp, lsl #22
    1468:	11000013 	tstne	r0, r3, lsl r0
    146c:	0803000d 	stmdaeq	r3, {r0, r2, r3}
    1470:	0b3b0b3a 	bleq	ec4160 <__bss_end__+0xeb9a58>
    1474:	0b381349 	bleq	e061a0 <__bss_end__+0xdfba98>
    1478:	13120000 	tstne	r2, #0
    147c:	0b0e0301 	bleq	382088 <__bss_end__+0x377980>
    1480:	3b0b3a05 	blcc	2cfc9c <__bss_end__+0x2c5594>
    1484:	0013010b 	andseq	r0, r3, fp, lsl #2
    1488:	000d1300 	andeq	r1, sp, r0, lsl #6
    148c:	0b3a0e03 	bleq	e84ca0 <__bss_end__+0xe7a598>
    1490:	13490b3b 	movtne	r0, #39739	; 0x9b3b
    1494:	00000538 	andeq	r0, r0, r8, lsr r5
    1498:	27001514 	smladcs	r0, r4, r5, r1
    149c:	15000019 	strne	r0, [r0, #-25]
    14a0:	19270115 	stmdbne	r7!, {r0, r2, r4, r8}
    14a4:	13011349 	movwne	r1, #4937	; 0x1349
    14a8:	05160000 	ldreq	r0, [r6, #-0]
    14ac:	00134900 	andseq	r4, r3, r0, lsl #18
    14b0:	01131700 	tsteq	r3, r0, lsl #14
    14b4:	050b0e03 	streq	r0, [fp, #-3587]	; 0xe03
    14b8:	053b0b3a 	ldreq	r0, [fp, #-2874]!	; 0xb3a
    14bc:	00001301 	andeq	r1, r0, r1, lsl #6
    14c0:	03000d18 	movweq	r0, #3352	; 0xd18
    14c4:	3b0b3a0e 	blcc	2cfd04 <__bss_end__+0x2c55fc>
    14c8:	38134905 	ldmdacc	r3, {r0, r2, r8, fp, lr}
    14cc:	1900000b 	stmdbne	r0, {r0, r1, r3}
    14d0:	0e03000d 	cdpeq	0, 0, cr0, cr3, cr13, {0}
    14d4:	053b0b3a 	ldreq	r0, [fp, #-2874]!	; 0xb3a
    14d8:	05381349 	ldreq	r1, [r8, #-841]!	; 0x349
    14dc:	131a0000 	tstne	sl, #0
    14e0:	0b0e0301 	bleq	3820ec <__bss_end__+0x3779e4>
    14e4:	3b0b3a0b 	blcc	2cfd18 <__bss_end__+0x2c5610>
    14e8:	00130105 	andseq	r0, r3, r5, lsl #2
    14ec:	01131b00 	tsteq	r3, r0, lsl #22
    14f0:	0b3a0b0b 	bleq	e84124 <__bss_end__+0xe79a1c>
    14f4:	1301053b 	movwne	r0, #5435	; 0x153b
    14f8:	171c0000 	ldrne	r0, [ip, -r0]
    14fc:	3a0b0b01 	bcc	2c4108 <__bss_end__+0x2b9a00>
    1500:	01053b0b 	tsteq	r5, fp, lsl #22
    1504:	1d000013 	stcne	0, cr0, [r0, #-76]	; 0xffffffb4
    1508:	0e03000d 	cdpeq	0, 0, cr0, cr3, cr13, {0}
    150c:	053b0b3a 	ldreq	r0, [fp, #-2874]!	; 0xb3a
    1510:	00001349 	andeq	r1, r0, r9, asr #6
    1514:	2701151e 	smladcs	r1, lr, r5, r1
    1518:	00130119 	andseq	r0, r3, r9, lsl r1
    151c:	00341f00 	eorseq	r1, r4, r0, lsl #30
    1520:	0b3a0e03 	bleq	e84d34 <__bss_end__+0xe7a62c>
    1524:	1349053b 	movtne	r0, #38203	; 0x953b
    1528:	193c193f 	ldmdbne	ip!, {r0, r1, r2, r3, r4, r5, r8, fp, ip}
    152c:	34200000 	strtcc	r0, [r0], #-0
    1530:	3a0e0300 	bcc	382138 <__bss_end__+0x377a30>
    1534:	490b3b0b 	stmdbmi	fp, {r0, r1, r3, r8, r9, fp, ip, sp}
    1538:	3c193f13 	ldccc	15, cr3, [r9], {19}
    153c:	21000019 	tstcs	r0, r9, lsl r0
    1540:	0b0b0104 	bleq	2c1958 <__bss_end__+0x2b7250>
    1544:	0b3a1349 	bleq	e86270 <__bss_end__+0xe7bb68>
    1548:	13010b3b 	movwne	r0, #6971	; 0x1b3b
    154c:	28220000 	stmdacs	r2!, {}	; <UNPREDICTABLE>
    1550:	1c0e0300 	stcne	3, cr0, [lr], {-0}
    1554:	2300000b 	movwcs	r0, #11
    1558:	0e030034 	mcreq	0, 0, r0, cr3, cr4, {1}
    155c:	0b3b0b3a 	bleq	ec424c <__bss_end__+0xeb9b44>
    1560:	061c1349 	ldreq	r1, [ip], -r9, asr #6
    1564:	2e240000 	cdpcs	0, 2, cr0, cr4, cr0, {0}
    1568:	03193f01 	tsteq	r9, #1, 30
    156c:	3b0b3a0e 	blcc	2cfdac <__bss_end__+0x2c56a4>
    1570:	4919270b 	ldmdbmi	r9, {r0, r1, r3, r8, r9, sl, sp}
    1574:	12011113 	andne	r1, r1, #-1073741820	; 0xc0000004
    1578:	97184006 	ldrls	r4, [r8, -r6]
    157c:	13011942 	movwne	r1, #6466	; 0x1942
    1580:	89250000 	stmdbhi	r5!, {}	; <UNPREDICTABLE>
    1584:	11000182 	smlabbne	r0, r2, r1, r0
    1588:	00133101 	andseq	r3, r3, r1, lsl #2
    158c:	012e2600 	teqeq	lr, r0, lsl #12
    1590:	0e03193f 	mcreq	9, 0, r1, cr3, cr15, {1}
    1594:	0b3b0b3a 	bleq	ec4284 <__bss_end__+0xeb9b7c>
    1598:	01111927 	tsteq	r1, r7, lsr #18
    159c:	18400612 	stmdane	r0, {r1, r4, r9, sl}^
    15a0:	01194297 			; <UNDEFINED> instruction: 0x01194297
    15a4:	27000013 	smladcs	r0, r3, r0, r0
    15a8:	08030005 	stmdaeq	r3, {r0, r2}
    15ac:	0b3b0b3a 	bleq	ec429c <__bss_end__+0xeb9b94>
    15b0:	17021349 	strne	r1, [r2, -r9, asr #6]
    15b4:	89280000 	stmdbhi	r8!, {}	; <UNPREDICTABLE>
    15b8:	11010182 	smlabbne	r1, r2, r1, r0
    15bc:	01133101 	tsteq	r3, r1, lsl #2
    15c0:	29000013 	stmdbcs	r0, {r0, r1, r4}
    15c4:	0001828a 	andeq	r8, r1, sl, lsl #5
    15c8:	42911802 	addsmi	r1, r1, #131072	; 0x20000
    15cc:	2a000018 	bcs	1634 <__code_start__-0x69cc>
    15d0:	08030034 	stmdaeq	r3, {r2, r4, r5}
    15d4:	0b3b0b3a 	bleq	ec42c4 <__bss_end__+0xeb9bbc>
    15d8:	18021349 	stmdane	r2, {r0, r3, r6, r8, r9, ip}
    15dc:	892b0000 	stmdbhi	fp!, {}	; <UNPREDICTABLE>
    15e0:	11010182 	smlabbne	r1, r2, r1, r0
    15e4:	00133101 	andseq	r3, r3, r1, lsl #2
    15e8:	012e2c00 	teqeq	lr, r0, lsl #24
    15ec:	0b3a0e03 	bleq	e84e00 <__bss_end__+0xe7a6f8>
    15f0:	19270b3b 	stmdbne	r7!, {r0, r1, r3, r4, r5, r8, r9, fp}
    15f4:	06120111 			; <UNDEFINED> instruction: 0x06120111
    15f8:	42971840 	addsmi	r1, r7, #64, 16	; 0x400000
    15fc:	00130119 	andseq	r0, r3, r9, lsl r1
    1600:	00052d00 	andeq	r2, r5, r0, lsl #26
    1604:	0b3a0e03 	bleq	e84e18 <__bss_end__+0xe7a710>
    1608:	13490b3b 	movtne	r0, #39739	; 0x9b3b
    160c:	00001702 	andeq	r1, r0, r2, lsl #14
    1610:	0000352e 	andeq	r3, r0, lr, lsr #10
    1614:	002e2f00 	eoreq	r2, lr, r0, lsl #30
    1618:	193c193f 	ldmdbne	ip!, {r0, r1, r2, r3, r4, r5, r8, fp, ip}
    161c:	0e030e6e 	cdpeq	14, 0, cr0, cr3, cr14, {3}
    1620:	0b3b0b3a 	bleq	ec4310 <__bss_end__+0xeb9c08>
    1624:	01000000 	mrseq	r0, (UNDEF: 0)
    1628:	0e250111 	mcreq	1, 1, r0, cr5, cr1, {0}
    162c:	0e030b13 	vmoveq.32	d3[0], r0
    1630:	01110e1b 	tsteq	r1, fp, lsl lr
    1634:	17100612 			; <UNDEFINED> instruction: 0x17100612
    1638:	24020000 	strcs	r0, [r2], #-0
    163c:	3e0b0b00 	vmlacc.f64	d0, d11, d0
    1640:	0008030b 	andeq	r0, r8, fp, lsl #6
    1644:	00240300 	eoreq	r0, r4, r0, lsl #6
    1648:	0b3e0b0b 	bleq	f8427c <__bss_end__+0xf79b74>
    164c:	00000e03 	andeq	r0, r0, r3, lsl #28
    1650:	49002604 	stmdbmi	r0, {r2, r9, sl, sp}
    1654:	05000013 	streq	r0, [r0, #-19]
    1658:	0e030016 	mcreq	0, 0, r0, cr3, cr6, {0}
    165c:	0b3b0b3a 	bleq	ec434c <__bss_end__+0xeb9c44>
    1660:	00001349 	andeq	r1, r0, r9, asr #6
    1664:	03001606 	movweq	r1, #1542	; 0x606
    1668:	3b0b3a0e 	blcc	2cfea8 <__bss_end__+0x2c57a0>
    166c:	00134905 	andseq	r4, r3, r5, lsl #18
    1670:	01170700 	tsteq	r7, r0, lsl #14
    1674:	0b3a0b0b 	bleq	e842a8 <__bss_end__+0xe79ba0>
    1678:	13010b3b 	movwne	r0, #6971	; 0x1b3b
    167c:	0d080000 	stceq	0, cr0, [r8, #-0]
    1680:	3a0e0300 	bcc	382288 <__bss_end__+0x377b80>
    1684:	490b3b0b 	stmdbmi	fp, {r0, r1, r3, r8, r9, fp, ip, sp}
    1688:	09000013 	stmdbeq	r0, {r0, r1, r4}
    168c:	13490101 	movtne	r0, #37121	; 0x9101
    1690:	00001301 	andeq	r1, r0, r1, lsl #6
    1694:	4900210a 	stmdbmi	r0, {r1, r3, r8, sp}
    1698:	000b2f13 	andeq	r2, fp, r3, lsl pc
    169c:	01130b00 	tsteq	r3, r0, lsl #22
    16a0:	0b3a0b0b 	bleq	e842d4 <__bss_end__+0xe79bcc>
    16a4:	13010b3b 	movwne	r0, #6971	; 0x1b3b
    16a8:	0d0c0000 	stceq	0, cr0, [ip, #-0]
    16ac:	3a0e0300 	bcc	3822b4 <__bss_end__+0x377bac>
    16b0:	490b3b0b 	stmdbmi	fp, {r0, r1, r3, r8, r9, fp, ip, sp}
    16b4:	000b3813 	andeq	r3, fp, r3, lsl r8
    16b8:	000f0d00 	andeq	r0, pc, r0, lsl #26
    16bc:	00000b0b 	andeq	r0, r0, fp, lsl #22
    16c0:	0b000f0e 	bleq	5300 <__code_start__-0x2d00>
    16c4:	0013490b 	andseq	r4, r3, fp, lsl #18
    16c8:	01130f00 	tsteq	r3, r0, lsl #30
    16cc:	0b0b0e03 	bleq	2c4ee0 <__bss_end__+0x2ba7d8>
    16d0:	0b3b0b3a 	bleq	ec43c0 <__bss_end__+0xeb9cb8>
    16d4:	00001301 	andeq	r1, r0, r1, lsl #6
    16d8:	03000d10 	movweq	r0, #3344	; 0xd10
    16dc:	3b0b3a08 	blcc	2cff04 <__bss_end__+0x2c57fc>
    16e0:	3813490b 	ldmdacc	r3, {r0, r1, r3, r8, fp, lr}
    16e4:	1100000b 	tstne	r0, fp
    16e8:	0e030113 	mcreq	1, 0, r0, cr3, cr3, {0}
    16ec:	0b3a050b 	bleq	e82b20 <__bss_end__+0xe78418>
    16f0:	13010b3b 	movwne	r0, #6971	; 0x1b3b
    16f4:	0d120000 	ldceq	0, cr0, [r2, #-0]
    16f8:	3a0e0300 	bcc	382300 <__bss_end__+0x377bf8>
    16fc:	490b3b0b 	stmdbmi	fp, {r0, r1, r3, r8, r9, fp, ip, sp}
    1700:	00053813 	andeq	r3, r5, r3, lsl r8
    1704:	00151300 	andseq	r1, r5, r0, lsl #6
    1708:	00001927 	andeq	r1, r0, r7, lsr #18
    170c:	27011514 	smladcs	r1, r4, r5, r1
    1710:	01134919 	tsteq	r3, r9, lsl r9
    1714:	15000013 	strne	r0, [r0, #-19]
    1718:	13490005 	movtne	r0, #36869	; 0x9005
    171c:	13160000 	tstne	r6, #0
    1720:	0b0e0301 	bleq	38232c <__bss_end__+0x377c24>
    1724:	3b0b3a05 	blcc	2cff40 <__bss_end__+0x2c5838>
    1728:	00130105 	andseq	r0, r3, r5, lsl #2
    172c:	000d1700 	andeq	r1, sp, r0, lsl #14
    1730:	0b3a0e03 	bleq	e84f44 <__bss_end__+0xe7a83c>
    1734:	1349053b 	movtne	r0, #38203	; 0x953b
    1738:	00000b38 	andeq	r0, r0, r8, lsr fp
    173c:	03000d18 	movweq	r0, #3352	; 0xd18
    1740:	3b0b3a0e 	blcc	2cff80 <__bss_end__+0x2c5878>
    1744:	38134905 	ldmdacc	r3, {r0, r2, r8, fp, lr}
    1748:	19000005 	stmdbne	r0, {r0, r2}
    174c:	0e030113 	mcreq	1, 0, r0, cr3, cr3, {0}
    1750:	0b3a0b0b 	bleq	e84384 <__bss_end__+0xe79c7c>
    1754:	1301053b 	movwne	r0, #5435	; 0x153b
    1758:	131a0000 	tstne	sl, #0
    175c:	3a0b0b01 	bcc	2c4368 <__bss_end__+0x2b9c60>
    1760:	01053b0b 	tsteq	r5, fp, lsl #22
    1764:	1b000013 	blne	17b8 <__code_start__-0x6848>
    1768:	0b0b0117 	bleq	2c1bcc <__bss_end__+0x2b74c4>
    176c:	053b0b3a 	ldreq	r0, [fp, #-2874]!	; 0xb3a
    1770:	00001301 	andeq	r1, r0, r1, lsl #6
    1774:	03000d1c 	movweq	r0, #3356	; 0xd1c
    1778:	3b0b3a0e 	blcc	2cffb8 <__bss_end__+0x2c58b0>
    177c:	00134905 	andseq	r4, r3, r5, lsl #18
    1780:	01151d00 	tsteq	r5, r0, lsl #26
    1784:	13011927 	movwne	r1, #6439	; 0x1927
    1788:	341e0000 	ldrcc	r0, [lr], #-0
    178c:	3a0e0300 	bcc	382394 <__bss_end__+0x377c8c>
    1790:	49053b0b 	stmdbmi	r5, {r0, r1, r3, r8, r9, fp, ip, sp}
    1794:	3c193f13 	ldccc	15, cr3, [r9], {19}
    1798:	1f000019 	svcne	0x00000019
    179c:	0e030034 	mcreq	0, 0, r0, cr3, cr4, {1}
    17a0:	0b3b0b3a 	bleq	ec4490 <__bss_end__+0xeb9d88>
    17a4:	193f1349 	ldmdbne	pc!, {r0, r3, r6, r8, r9, ip}	; <UNPREDICTABLE>
    17a8:	0000193c 	andeq	r1, r0, ip, lsr r9
    17ac:	0b010420 	bleq	42834 <__bss_end__+0x3812c>
    17b0:	3a13490b 	bcc	4d3be4 <__bss_end__+0x4c94dc>
    17b4:	010b3b0b 	tsteq	fp, fp, lsl #22
    17b8:	21000013 	tstcs	r0, r3, lsl r0
    17bc:	0e030028 	cdpeq	0, 0, cr0, cr3, cr8, {1}
    17c0:	00000b1c 	andeq	r0, r0, ip, lsl fp
    17c4:	03003422 	movweq	r3, #1058	; 0x422
    17c8:	3b0b3a0e 	blcc	2d0008 <__bss_end__+0x2c5900>
    17cc:	1c13490b 	ldcne	9, cr4, [r3], {11}
    17d0:	23000006 	movwcs	r0, #6
    17d4:	193f012e 	ldmdbne	pc!, {r1, r2, r3, r5, r8}	; <UNPREDICTABLE>
    17d8:	0b3a0e03 	bleq	e84fec <__bss_end__+0xe7a8e4>
    17dc:	19270b3b 	stmdbne	r7!, {r0, r1, r3, r4, r5, r8, r9, fp}
    17e0:	01111349 	tsteq	r1, r9, asr #6
    17e4:	18400612 	stmdane	r0, {r1, r4, r9, sl}^
    17e8:	01194297 			; <UNDEFINED> instruction: 0x01194297
    17ec:	24000013 	strcs	r0, [r0], #-19
    17f0:	08030005 	stmdaeq	r3, {r0, r2}
    17f4:	0b3b0b3a 	bleq	ec44e4 <__bss_end__+0xeb9ddc>
    17f8:	17021349 	strne	r1, [r2, -r9, asr #6]
    17fc:	34250000 	strtcc	r0, [r5], #-0
    1800:	3a0e0300 	bcc	382408 <__bss_end__+0x377d00>
    1804:	490b3b0b 	stmdbmi	fp, {r0, r1, r3, r8, r9, fp, ip, sp}
    1808:	00170213 	andseq	r0, r7, r3, lsl r2
    180c:	00342600 	eorseq	r2, r4, r0, lsl #12
    1810:	0b3a0803 	bleq	e83824 <__bss_end__+0xe7911c>
    1814:	13490b3b 	movtne	r0, #39739	; 0x9b3b
    1818:	00001702 	andeq	r1, r0, r2, lsl #14
    181c:	01828927 	orreq	r8, r2, r7, lsr #18
    1820:	31011101 	tstcc	r1, r1, lsl #2
    1824:	28000013 	stmdacs	r0, {r0, r1, r4}
    1828:	0001828a 	andeq	r8, r1, sl, lsl #5
    182c:	42911802 	addsmi	r1, r1, #131072	; 0x20000
    1830:	29000018 	stmdbcs	r0, {r3, r4}
    1834:	193f012e 	ldmdbne	pc!, {r1, r2, r3, r5, r8}	; <UNPREDICTABLE>
    1838:	0b3a0e03 	bleq	e8504c <__bss_end__+0xe7a944>
    183c:	19270b3b 	stmdbne	r7!, {r0, r1, r3, r4, r5, r8, r9, fp}
    1840:	06120111 			; <UNDEFINED> instruction: 0x06120111
    1844:	42971840 	addsmi	r1, r7, #64, 16	; 0x400000
    1848:	00130119 	andseq	r0, r3, r9, lsl r1
    184c:	82892a00 	addhi	r2, r9, #0, 20
    1850:	01110101 	tsteq	r1, r1, lsl #2
    1854:	13011331 	movwne	r1, #4913	; 0x1331
    1858:	892b0000 	stmdbhi	fp!, {}	; <UNPREDICTABLE>
    185c:	11000182 	smlabbne	r0, r2, r1, r0
    1860:	00133101 	andseq	r3, r3, r1, lsl #2
    1864:	00052c00 	andeq	r2, r5, r0, lsl #24
    1868:	0b3a0e03 	bleq	e8507c <__bss_end__+0xe7a974>
    186c:	13490b3b 	movtne	r0, #39739	; 0x9b3b
    1870:	00001702 	andeq	r1, r0, r2, lsl #14
    1874:	0300342d 	movweq	r3, #1069	; 0x42d
    1878:	3b0b3a08 	blcc	2d00a0 <__bss_end__+0x2c5998>
    187c:	0213490b 	andseq	r4, r3, #180224	; 0x2c000
    1880:	2e000018 	mcrcs	0, 0, r0, cr0, cr8, {0}
    1884:	193f002e 	ldmdbne	pc!, {r1, r2, r3, r5}	; <UNPREDICTABLE>
    1888:	0e6e193c 	mcreq	9, 3, r1, cr14, cr12, {1}
    188c:	0b3a0e03 	bleq	e850a0 <__bss_end__+0xe7a998>
    1890:	00000b3b 	andeq	r0, r0, fp, lsr fp
	...

Disassembly of section .debug_loc:

00000000 <.debug_loc>:
       0:	00000000 	andeq	r0, r0, r0
       4:	0000000c 	andeq	r0, r0, ip
       8:	0c500001 	mrrceq	0, 0, r0, r0, cr1	; <UNPREDICTABLE>
       c:	b0000000 	andlt	r0, r0, r0
      10:	04000000 	streq	r0, [r0], #-0
      14:	5001f300 	andpl	pc, r1, r0, lsl #6
      18:	0000009f 	muleq	r0, pc, r0	; <UNPREDICTABLE>
      1c:	00000000 	andeq	r0, r0, r0
      20:	0000b000 	andeq	fp, r0, r0
      24:	0000bc00 	andeq	fp, r0, r0, lsl #24
      28:	50000100 	andpl	r0, r0, r0, lsl #2
      2c:	000000bc 	strheq	r0, [r0], -ip
      30:	00000138 	andeq	r0, r0, r8, lsr r1
      34:	01f30004 	mvnseq	r0, r4
      38:	00009f50 	andeq	r9, r0, r0, asr pc
      3c:	00000000 	andeq	r0, r0, r0
      40:	00d80000 	sbcseq	r0, r8, r0
      44:	01180000 	tsteq	r8, r0
      48:	00060000 	andeq	r0, r6, r0
      4c:	00a2e403 	adceq	lr, r2, r3, lsl #8
      50:	00009f00 	andeq	r9, r0, r0, lsl #30
      54:	00000000 	andeq	r0, r0, r0
      58:	01580000 	cmpeq	r8, r0
      5c:	01600000 	cmneq	r0, r0
      60:	00010000 	andeq	r0, r1, r0
      64:	00016050 	andeq	r6, r1, r0, asr r0
      68:	00017400 	andeq	r7, r1, r0, lsl #8
      6c:	f3000400 	vshl.u8	d0, d0, d0
      70:	009f5001 	addseq	r5, pc, r1
	...
      7c:	23000000 	movwcs	r0, #0
      80:	01000000 	mrseq	r0, (UNDEF: 0)
      84:	00235000 	eoreq	r5, r3, r0
      88:	00440000 	subeq	r0, r4, r0
      8c:	00040000 	andeq	r0, r4, r0
      90:	9f5001f3 	svcls	0x005001f3
      94:	00000044 	andeq	r0, r0, r4, asr #32
      98:	0000005f 	andeq	r0, r0, pc, asr r0
      9c:	5f500001 	svcpl	0x00500001
      a0:	80000000 	andhi	r0, r0, r0
      a4:	04000000 	streq	r0, [r0], #-0
      a8:	5001f300 	andpl	pc, r1, r0, lsl #6
      ac:	0000809f 	muleq	r0, pc, r0	; <UNPREDICTABLE>
      b0:	0000b000 	andeq	fp, r0, r0
      b4:	50000100 	andpl	r0, r0, r0, lsl #2
	...
      c4:	00000023 	andeq	r0, r0, r3, lsr #32
      c8:	23510001 	cmpcs	r1, #1
      cc:	44000000 	strmi	r0, [r0], #-0
      d0:	04000000 	streq	r0, [r0], #-0
      d4:	5101f300 	mrspl	pc, SP_irq	; <UNPREDICTABLE>
      d8:	0000449f 	muleq	r0, pc, r4	; <UNPREDICTABLE>
      dc:	00005f00 	andeq	r5, r0, r0, lsl #30
      e0:	51000100 	mrspl	r0, (UNDEF: 16)
      e4:	0000005f 	andeq	r0, r0, pc, asr r0
      e8:	00000080 	andeq	r0, r0, r0, lsl #1
      ec:	01f30004 	mvnseq	r0, r4
      f0:	00809f51 	addeq	r9, r0, r1, asr pc
      f4:	00b00000 	adcseq	r0, r0, r0
      f8:	00010000 	andeq	r0, r1, r0
      fc:	00000051 	andeq	r0, r0, r1, asr r0
     100:	00000000 	andeq	r0, r0, r0
     104:	00001000 	andeq	r1, r0, r0
     108:	00002300 	andeq	r2, r0, r0, lsl #6
     10c:	53000100 	movwpl	r0, #256	; 0x100
     110:	00000044 	andeq	r0, r0, r4, asr #32
     114:	00000048 	andeq	r0, r0, r8, asr #32
     118:	48530001 	ldmdami	r3, {r0}^
     11c:	b0000000 	andlt	r0, r0, r0
     120:	04000000 	streq	r0, [r0], #-0
     124:	01ff0a00 	mvnseq	r0, r0, lsl #20
     128:	0000009f 	muleq	r0, pc, r0	; <UNPREDICTABLE>
     12c:	00000000 	andeq	r0, r0, r0
     130:	00004400 	andeq	r4, r0, r0, lsl #8
     134:	00005f00 	andeq	r5, r0, r0, lsl #30
     138:	50000100 	andpl	r0, r0, r0, lsl #2
     13c:	0000005f 	andeq	r0, r0, pc, asr r0
     140:	00000080 	andeq	r0, r0, r0, lsl #1
     144:	01f30004 	mvnseq	r0, r4
     148:	00809f50 	addeq	r9, r0, r0, asr pc
     14c:	00b00000 	adcseq	r0, r0, r0
     150:	00010000 	andeq	r0, r1, r0
     154:	00000050 	andeq	r0, r0, r0, asr r0
     158:	00000000 	andeq	r0, r0, r0
     15c:	00000c00 	andeq	r0, r0, r0, lsl #24
     160:	00001000 	andeq	r1, r0, r0
     164:	53000100 	movwpl	r0, #256	; 0x100
	...
     170:	00000010 	andeq	r0, r0, r0, lsl r0
     174:	00000023 	andeq	r0, r0, r3, lsr #32
     178:	44530001 	ldrbmi	r0, [r3], #-1
     17c:	4c000000 	stcmi	0, cr0, [r0], {-0}
     180:	01000000 	mrseq	r0, (UNDEF: 0)
     184:	00005300 	andeq	r5, r0, r0, lsl #6
     188:	00000000 	andeq	r0, r0, r0
     18c:	00180000 	andseq	r0, r8, r0
     190:	00230000 	eoreq	r0, r3, r0
     194:	00010000 	andeq	r0, r1, r0
     198:	00004452 	andeq	r4, r0, r2, asr r4
     19c:	00005400 	andeq	r5, r0, r0, lsl #8
     1a0:	52000100 	andpl	r0, r0, #0, 2
	...
     1ac:	00000054 	andeq	r0, r0, r4, asr r0
     1b0:	0000005f 	andeq	r0, r0, pc, asr r0
     1b4:	80520001 	subshi	r0, r2, r1
     1b8:	b0000000 	andlt	r0, r0, r0
     1bc:	01000000 	mrseq	r0, (UNDEF: 0)
     1c0:	00005200 	andeq	r5, r0, r0, lsl #4
     1c4:	00000000 	andeq	r0, r0, r0
     1c8:	00b00000 	adcseq	r0, r0, r0
     1cc:	00d30000 	sbcseq	r0, r3, r0
     1d0:	00010000 	andeq	r0, r1, r0
     1d4:	0000d350 	andeq	sp, r0, r0, asr r3
     1d8:	0000ec00 	andeq	lr, r0, r0, lsl #24
     1dc:	f3000400 	vshl.u8	d0, d0, d0
     1e0:	ec9f5001 	ldc	0, cr5, [pc], {1}
     1e4:	ff000000 			; <UNDEFINED> instruction: 0xff000000
     1e8:	01000000 	mrseq	r0, (UNDEF: 0)
     1ec:	00ff5000 	rscseq	r5, pc, r0
     1f0:	01200000 	teqeq	r0, r0
     1f4:	00040000 	andeq	r0, r4, r0
     1f8:	9f5001f3 	svcls	0x005001f3
     1fc:	00000120 	andeq	r0, r0, r0, lsr #2
     200:	00000133 	andeq	r0, r0, r3, lsr r1
     204:	33500001 	cmpcc	r0, #1
     208:	54000001 	strpl	r0, [r0], #-1
     20c:	04000001 	streq	r0, [r0], #-1
     210:	5001f300 	andpl	pc, r1, r0, lsl #6
     214:	0001549f 	muleq	r1, pc, r4	; <UNPREDICTABLE>
     218:	00015c00 	andeq	r5, r1, r0, lsl #24
     21c:	50000100 	andpl	r0, r0, r0, lsl #2
     220:	0000015c 	andeq	r0, r0, ip, asr r1
     224:	0000015f 	andeq	r0, r0, pc, asr r1
     228:	5f510001 	svcpl	0x00510001
     22c:	8c000001 	stchi	0, cr0, [r0], {1}
     230:	04000001 	streq	r0, [r0], #-1
     234:	5001f300 	andpl	pc, r1, r0, lsl #6
     238:	0000009f 	muleq	r0, pc, r0	; <UNPREDICTABLE>
     23c:	00000000 	andeq	r0, r0, r0
     240:	0000c400 	andeq	ip, r0, r0, lsl #8
     244:	0000c800 	andeq	ip, r0, r0, lsl #16
     248:	53000100 	movwpl	r0, #256	; 0x100
	...
     254:	000000f0 	strdeq	r0, [r0], -r0	; <UNPREDICTABLE>
     258:	000000f4 	strdeq	r0, [r0], -r4
     25c:	f4530001 			; <UNDEFINED> instruction: 0xf4530001
     260:	ff000000 			; <UNDEFINED> instruction: 0xff000000
     264:	03000000 	movweq	r0, #0
     268:	9f047300 	svcls	0x00047300
     26c:	00000120 	andeq	r0, r0, r0, lsr #2
     270:	00000124 	andeq	r0, r0, r4, lsr #2
     274:	04730003 	ldrbteq	r0, [r3], #-3
     278:	0000009f 	muleq	r0, pc, r0	; <UNPREDICTABLE>
     27c:	00000000 	andeq	r0, r0, r0
     280:	0001d000 	andeq	sp, r1, r0
     284:	0001d800 	andeq	sp, r1, r0, lsl #16
     288:	53000100 	movwpl	r0, #256	; 0x100
     28c:	000001d8 	ldrdeq	r0, [r0], -r8
     290:	000001fc 	strdeq	r0, [r0], -ip
     294:	e70a0004 	str	r0, [sl, -r4]
     298:	00009f01 	andeq	r9, r0, r1, lsl #30
     29c:	00000000 	andeq	r0, r0, r0
     2a0:	01cc0000 	biceq	r0, ip, r0
     2a4:	01d00000 	bicseq	r0, r0, r0
     2a8:	00010000 	andeq	r0, r1, r0
     2ac:	00000053 	andeq	r0, r0, r3, asr r0
     2b0:	00000000 	andeq	r0, r0, r0
     2b4:	0001d000 	andeq	sp, r1, r0
     2b8:	0001dc00 	andeq	sp, r1, r0, lsl #24
     2bc:	53000100 	movwpl	r0, #256	; 0x100
	...
     2c8:	000001fc 	strdeq	r0, [r0], -ip
     2cc:	0000021b 	andeq	r0, r0, fp, lsl r2
     2d0:	1b500001 	blne	14002dc <__bss_end__+0x13f5bd4>
     2d4:	34000002 	strcc	r0, [r0], #-2
     2d8:	04000002 	streq	r0, [r0], #-2
     2dc:	5001f300 	andpl	pc, r1, r0, lsl #6
     2e0:	0002349f 	muleq	r2, pc, r4	; <UNPREDICTABLE>
     2e4:	00024700 	andeq	r4, r2, r0, lsl #14
     2e8:	50000100 	andpl	r0, r0, r0, lsl #2
     2ec:	00000247 	andeq	r0, r0, r7, asr #4
     2f0:	00000268 	andeq	r0, r0, r8, ror #4
     2f4:	01f30004 	mvnseq	r0, r4
     2f8:	02689f50 	rsbeq	r9, r8, #80, 30	; 0x140
     2fc:	02700000 	rsbseq	r0, r0, #0
     300:	00010000 	andeq	r0, r1, r0
     304:	00027050 	andeq	r7, r2, r0, asr r0
     308:	00027300 	andeq	r7, r2, r0, lsl #6
     30c:	51000100 	mrspl	r0, (UNDEF: 16)
     310:	00000273 	andeq	r0, r0, r3, ror r2
     314:	00000294 	muleq	r0, r4, r2
     318:	01f30004 	mvnseq	r0, r4
     31c:	00009f50 	andeq	r9, r0, r0, asr pc
     320:	00000000 	andeq	r0, r0, r0
     324:	020c0000 	andeq	r0, ip, #0
     328:	02100000 	andseq	r0, r0, #0
     32c:	00010000 	andeq	r0, r1, r0
     330:	00000053 	andeq	r0, r0, r3, asr r0
     334:	00000000 	andeq	r0, r0, r0
     338:	0002cc00 	andeq	ip, r2, r0, lsl #24
     33c:	0002d400 	andeq	sp, r2, r0, lsl #8
     340:	53000100 	movwpl	r0, #256	; 0x100
     344:	000002d4 	ldrdeq	r0, [r0], -r4
     348:	000002f8 	strdeq	r0, [r0], -r8
     34c:	e70c0006 	str	r0, [ip, -r6]
     350:	9f004001 	svcls	0x00004001
	...
     35c:	000002c8 	andeq	r0, r0, r8, asr #5
     360:	000002cc 	andeq	r0, r0, ip, asr #5
     364:	00530001 	subseq	r0, r3, r1
     368:	00000000 	andeq	r0, r0, r0
     36c:	cc000000 	stcgt	0, cr0, [r0], {-0}
     370:	d8000002 	stmdale	r0, {r1}
     374:	01000002 	tsteq	r0, r2
     378:	00005300 	andeq	r5, r0, r0, lsl #6
     37c:	00000000 	andeq	r0, r0, r0
     380:	03080000 	movweq	r0, #32768	; 0x8000
     384:	03240000 	teqeq	r4, #0
     388:	00010000 	andeq	r0, r1, r0
     38c:	00032450 	andeq	r2, r3, r0, asr r4
     390:	00032800 	andeq	r2, r3, r0, lsl #16
     394:	f3000400 	vshl.u8	d0, d0, d0
     398:	289f5001 	ldmcs	pc, {r0, ip, lr}	; <UNPREDICTABLE>
     39c:	40000003 	andmi	r0, r0, r3
     3a0:	01000003 	tsteq	r0, r3
     3a4:	03405000 	movteq	r5, #0
     3a8:	03480000 	movteq	r0, #32768	; 0x8000
     3ac:	00040000 	andeq	r0, r4, r0
     3b0:	9f5001f3 	svcls	0x005001f3
     3b4:	00000348 	andeq	r0, r0, r8, asr #6
     3b8:	00000354 	andeq	r0, r0, r4, asr r3
     3bc:	54500001 	ldrbpl	r0, [r0], #-1
     3c0:	64000003 	strvs	r0, [r0], #-3
     3c4:	04000003 	streq	r0, [r0], #-3
     3c8:	5001f300 	andpl	pc, r1, r0, lsl #6
     3cc:	0003649f 	muleq	r3, pc, r4	; <UNPREDICTABLE>
     3d0:	00036800 	andeq	r6, r3, r0, lsl #16
     3d4:	50000100 	andpl	r0, r0, r0, lsl #2
     3d8:	00000368 	andeq	r0, r0, r8, ror #6
     3dc:	0000036c 	andeq	r0, r0, ip, ror #6
     3e0:	01f30004 	mvnseq	r0, r4
     3e4:	036c9f50 	cmneq	ip, #80, 30	; 0x140
     3e8:	03700000 	cmneq	r0, #0
     3ec:	00010000 	andeq	r0, r1, r0
     3f0:	00037050 	andeq	r7, r3, r0, asr r0
     3f4:	00037800 	andeq	r7, r3, r0, lsl #16
     3f8:	f3000400 	vshl.u8	d0, d0, d0
     3fc:	009f5001 	addseq	r5, pc, r1
     400:	00000000 	andeq	r0, r0, r0
     404:	08000000 	stmdaeq	r0, {}	; <UNPREDICTABLE>
     408:	58000003 	stmdapl	r0, {r0, r1}
     40c:	01000003 	tsteq	r0, r3
     410:	03585100 	cmpeq	r8, #0, 2
     414:	03640000 	cmneq	r4, #0
     418:	00040000 	andeq	r0, r4, r0
     41c:	9f5101f3 	svcls	0x005101f3
     420:	00000364 	andeq	r0, r0, r4, ror #6
     424:	00000378 	andeq	r0, r0, r8, ror r3
     428:	00510001 	subseq	r0, r1, r1
     42c:	00000000 	andeq	r0, r0, r0
     430:	14000000 	strne	r0, [r0], #-0
     434:	34000003 	strcc	r0, [r0], #-3
     438:	01000003 	tsteq	r0, r3
     43c:	03345300 	teqeq	r4, #0, 6
     440:	03400000 	movteq	r0, #0
     444:	000a0000 	andeq	r0, sl, r0
     448:	0c060070 	stceq	0, cr0, [r6], {112}	; 0x70
     44c:	00ffffff 	ldrshteq	pc, [pc], #255	; <UNPREDICTABLE>
     450:	03409f1a 	movteq	r9, #3866	; 0xf1a
     454:	03440000 	movteq	r0, #16384	; 0x4000
     458:	000b0000 	andeq	r0, fp, r0
     45c:	065001f3 			; <UNDEFINED> instruction: 0x065001f3
     460:	ffffff0c 			; <UNDEFINED> instruction: 0xffffff0c
     464:	489f1a00 	ldmmi	pc, {r9, fp, ip}	; <UNPREDICTABLE>
     468:	5b000003 	blpl	47c <__code_start__-0x7b84>
     46c:	01000003 	tsteq	r0, r3
     470:	03645300 	cmneq	r4, #0, 6
     474:	03680000 	cmneq	r8, #0
     478:	000a0000 	andeq	r0, sl, r0
     47c:	0c060070 	stceq	0, cr0, [r6], {112}	; 0x70
     480:	00ffffff 	ldrshteq	pc, [pc], #255	; <UNPREDICTABLE>
     484:	03689f1a 	cmneq	r8, #26, 30	; 0x68
     488:	036c0000 	cmneq	ip, #0
     48c:	000b0000 	andeq	r0, fp, r0
     490:	065001f3 			; <UNDEFINED> instruction: 0x065001f3
     494:	ffffff0c 			; <UNDEFINED> instruction: 0xffffff0c
     498:	6c9f1a00 	vldmiavs	pc, {s2-s1}
     49c:	78000003 	stmdavc	r0, {r0, r1}
     4a0:	01000003 	tsteq	r0, r3
     4a4:	00005300 	andeq	r5, r0, r0, lsl #6
	...
     4b0:	00240000 	eoreq	r0, r4, r0
     4b4:	00010000 	andeq	r0, r1, r0
     4b8:	00002450 	andeq	r2, r0, r0, asr r4
     4bc:	0001ac00 	andeq	sl, r1, r0, lsl #24
     4c0:	f3000400 	vshl.u8	d0, d0, d0
     4c4:	009f5001 	addseq	r5, pc, r1
	...
     4d0:	28000000 	stmdacs	r0, {}	; <UNPREDICTABLE>
     4d4:	01000000 	mrseq	r0, (UNDEF: 0)
     4d8:	00285100 	eoreq	r5, r8, r0, lsl #2
     4dc:	01780000 	cmneq	r8, r0
     4e0:	00010000 	andeq	r0, r1, r0
     4e4:	00017855 	andeq	r7, r1, r5, asr r8
     4e8:	0001ac00 	andeq	sl, r1, r0, lsl #24
     4ec:	f3000400 	vshl.u8	d0, d0, d0
     4f0:	009f5101 	addseq	r5, pc, r1, lsl #2
	...
     4fc:	2c000000 	stccs	0, cr0, [r0], {-0}
     500:	01000000 	mrseq	r0, (UNDEF: 0)
     504:	002c5200 	eoreq	r5, ip, r0, lsl #4
     508:	01ac0000 			; <UNDEFINED> instruction: 0x01ac0000
     50c:	00040000 	andeq	r0, r4, r0
     510:	9f5201f3 	svcls	0x005201f3
	...
     51c:	00000068 	andeq	r0, r0, r8, rrx
     520:	00000178 	andeq	r0, r0, r8, ror r1
     524:	00540001 	subseq	r0, r4, r1
     528:	00000000 	andeq	r0, r0, r0
     52c:	38000000 	stmdacc	r0, {}	; <UNPREDICTABLE>
     530:	3c000000 	stccc	0, cr0, [r0], {-0}
     534:	01000000 	mrseq	r0, (UNDEF: 0)
     538:	00005300 	andeq	r5, r0, r0, lsl #6
     53c:	00000000 	andeq	r0, r0, r0
     540:	01ac0000 			; <UNDEFINED> instruction: 0x01ac0000
     544:	01e80000 	mvneq	r0, r0
     548:	00010000 	andeq	r0, r1, r0
     54c:	0001e850 	andeq	lr, r1, r0, asr r8
     550:	00062c00 	andeq	r2, r6, r0, lsl #24
     554:	54000100 	strpl	r0, [r0], #-256	; 0x100
     558:	0000062c 	andeq	r0, r0, ip, lsr #12
     55c:	0000068c 	andeq	r0, r0, ip, lsl #13
     560:	01f30004 	mvnseq	r0, r4
     564:	00009f50 	andeq	r9, r0, r0, asr pc
     568:	00000000 	andeq	r0, r0, r0
     56c:	01bc0000 			; <UNDEFINED> instruction: 0x01bc0000
     570:	05080000 	streq	r0, [r8, #-0]
     574:	00010000 	andeq	r0, r1, r0
     578:	00000058 	andeq	r0, r0, r8, asr r0
     57c:	00000000 	andeq	r0, r0, r0
     580:	0002c000 	andeq	ip, r2, r0
     584:	00050800 	andeq	r0, r5, r0, lsl #16
     588:	58000100 	stmdapl	r0, {r8}
	...
     594:	000003e0 	andeq	r0, r0, r0, ror #7
     598:	0000062c 	andeq	r0, r0, ip, lsr #12
     59c:	00550001 	subseq	r0, r5, r1
     5a0:	00000000 	andeq	r0, r0, r0
     5a4:	04000000 	streq	r0, [r0], #-0
     5a8:	08000005 	stmdaeq	r0, {r0, r2}
     5ac:	01000005 	tsteq	r0, r5
     5b0:	00005800 	andeq	r5, r0, r0, lsl #16
     5b4:	00000000 	andeq	r0, r0, r0
     5b8:	05740000 	ldrbeq	r0, [r4, #-0]!
     5bc:	05780000 	ldrbeq	r0, [r8, #-0]!
     5c0:	00010000 	andeq	r0, r1, r0
     5c4:	00000053 	andeq	r0, r0, r3, asr r0
     5c8:	00000000 	andeq	r0, r0, r0
     5cc:	00068c00 	andeq	r8, r6, r0, lsl #24
     5d0:	00069c00 	andeq	r9, r6, r0, lsl #24
     5d4:	50000100 	andpl	r0, r0, r0, lsl #2
     5d8:	0000069c 	muleq	r0, ip, r6
     5dc:	00000710 	andeq	r0, r0, r0, lsl r7
     5e0:	00540001 	subseq	r0, r4, r1
     5e4:	00000000 	andeq	r0, r0, r0
     5e8:	94000000 	strls	r0, [r0], #-0
     5ec:	9c000006 	stcls	0, cr0, [r0], {6}
     5f0:	02000006 	andeq	r0, r0, #6
     5f4:	9c9f3000 	ldcls	0, cr3, [pc], {0}
     5f8:	10000006 	andne	r0, r0, r6
     5fc:	01000007 	tsteq	r0, r7
     600:	00005500 	andeq	r5, r0, r0, lsl #10
     604:	00000000 	andeq	r0, r0, r0
     608:	07380000 	ldreq	r0, [r8, -r0]!
     60c:	07430000 	strbeq	r0, [r3, -r0]
     610:	00010000 	andeq	r0, r1, r0
     614:	00074350 	andeq	r4, r7, r0, asr r3
     618:	00078400 	andeq	r8, r7, r0, lsl #8
     61c:	54000100 	strpl	r0, [r0], #-256	; 0x100
	...
     628:	0000002c 	andeq	r0, r0, ip, lsr #32
     62c:	00000038 	andeq	r0, r0, r8, lsr r0
     630:	38500001 	ldmdacc	r0, {r0}^
     634:	48000000 	stmdami	r0, {}	; <UNPREDICTABLE>
     638:	01000000 	mrseq	r0, (UNDEF: 0)
     63c:	00485500 	subeq	r5, r8, r0, lsl #10
     640:	00580000 	subseq	r0, r8, r0
     644:	00010000 	andeq	r0, r1, r0
     648:	00000050 	andeq	r0, r0, r0, asr r0
	...
     654:	00000b00 	andeq	r0, r0, r0, lsl #22
     658:	50000100 	andpl	r0, r0, r0, lsl #2
     65c:	0000000b 	andeq	r0, r0, fp
     660:	00000014 	andeq	r0, r0, r4, lsl r0
     664:	00540001 	subseq	r0, r4, r1
	...
     670:	10000000 	andne	r0, r0, r0
     674:	01000000 	mrseq	r0, (UNDEF: 0)
     678:	00105000 	andseq	r5, r0, r0
     67c:	00340000 	eorseq	r0, r4, r0
     680:	00010000 	andeq	r0, r1, r0
     684:	00000054 	andeq	r0, r0, r4, asr r0
	...
     690:	00000400 	andeq	r0, r0, r0, lsl #8
     694:	50000100 	andpl	r0, r0, r0, lsl #2
     698:	00000004 	andeq	r0, r0, r4
     69c:	0000000c 	andeq	r0, r0, ip
     6a0:	30700003 	rsbscc	r0, r0, r3
     6a4:	00000c9f 	muleq	r0, pc, ip	; <UNPREDICTABLE>
     6a8:	00001400 	andeq	r1, r0, r0, lsl #8
     6ac:	f3000400 	vshl.u8	d0, d0, d0
     6b0:	009f5001 	addseq	r5, pc, r1
     6b4:	00000000 	andeq	r0, r0, r0
     6b8:	14000000 	strne	r0, [r0], #-0
     6bc:	20000000 	andcs	r0, r0, r0
     6c0:	01000000 	mrseq	r0, (UNDEF: 0)
     6c4:	00205000 	eoreq	r5, r0, r0
     6c8:	002c0000 	eoreq	r0, ip, r0
     6cc:	00030000 	andeq	r0, r3, r0
     6d0:	2c9f0170 	ldfcss	f0, [pc], {112}	; 0x70
     6d4:	40000000 	andmi	r0, r0, r0
     6d8:	01000000 	mrseq	r0, (UNDEF: 0)
     6dc:	00005000 	andeq	r5, r0, r0
     6e0:	00000000 	andeq	r0, r0, r0
     6e4:	00140000 	andseq	r0, r4, r0
     6e8:	00180000 	andseq	r0, r8, r0
     6ec:	00010000 	andeq	r0, r1, r0
     6f0:	00001851 	andeq	r1, r0, r1, asr r8
     6f4:	00004000 	andeq	r4, r0, r0
     6f8:	f3000400 	vshl.u8	d0, d0, d0
     6fc:	009f5101 	addseq	r5, pc, r1, lsl #2
     700:	00000000 	andeq	r0, r0, r0
     704:	40000000 	andmi	r0, r0, r0
     708:	60000000 	andvs	r0, r0, r0
     70c:	01000000 	mrseq	r0, (UNDEF: 0)
     710:	00605000 	rsbeq	r5, r0, r0
     714:	006c0000 	rsbeq	r0, ip, r0
     718:	00030000 	andeq	r0, r3, r0
     71c:	6c9f0171 	ldfvss	f0, [pc], {113}	; 0x71
     720:	74000000 	strvc	r0, [r0], #-0
     724:	01000000 	mrseq	r0, (UNDEF: 0)
     728:	00745100 	rsbseq	r5, r4, r0, lsl #2
     72c:	00800000 	addeq	r0, r0, r0
     730:	00030000 	andeq	r0, r3, r0
     734:	009f0171 	addseq	r0, pc, r1, ror r1	; <UNPREDICTABLE>
     738:	00000000 	andeq	r0, r0, r0
     73c:	40000000 	andmi	r0, r0, r0
     740:	50000000 	andpl	r0, r0, r0
     744:	01000000 	mrseq	r0, (UNDEF: 0)
     748:	00505100 	subseq	r5, r0, r0, lsl #2
     74c:	00800000 	addeq	r0, r0, r0
     750:	00040000 	andeq	r0, r4, r0
     754:	9f5101f3 	svcls	0x005101f3
	...
     760:	00000040 	andeq	r0, r0, r0, asr #32
     764:	00000058 	andeq	r0, r0, r8, asr r0
     768:	58520001 	ldmdapl	r2, {r0}^
     76c:	64000000 	strvs	r0, [r0], #-0
     770:	01000000 	mrseq	r0, (UNDEF: 0)
     774:	00645200 	rsbeq	r5, r4, r0, lsl #4
     778:	00680000 	rsbeq	r0, r8, r0
     77c:	00030000 	andeq	r0, r3, r0
     780:	689f0172 	ldmvs	pc, {r1, r4, r5, r6, r8}	; <UNPREDICTABLE>
     784:	80000000 	andhi	r0, r0, r0
     788:	01000000 	mrseq	r0, (UNDEF: 0)
     78c:	00005200 	andeq	r5, r0, r0, lsl #4
     790:	00000000 	andeq	r0, r0, r0
     794:	00400000 	subeq	r0, r0, r0
     798:	00540000 	subseq	r0, r4, r0
     79c:	00010000 	andeq	r0, r1, r0
     7a0:	00005453 	andeq	r5, r0, r3, asr r4
     7a4:	00007800 	andeq	r7, r0, r0, lsl #16
     7a8:	53000100 	movwpl	r0, #256	; 0x100
	...
     7b4:	00000048 	andeq	r0, r0, r8, asr #32
     7b8:	00000060 	andeq	r0, r0, r0, rrx
     7bc:	605c0001 	subsvs	r0, ip, r1
     7c0:	80000000 	andhi	r0, r0, r0
     7c4:	0a000000 	beq	7cc <__code_start__-0x7834>
     7c8:	5201f300 	andpl	pc, r1, #0, 6
     7cc:	1c5301f3 	ldfnee	f0, [r3], {243}	; 0xf3
     7d0:	009f0123 	addseq	r0, pc, r3, lsr #2
     7d4:	00000000 	andeq	r0, r0, r0
     7d8:	80000000 	andhi	r0, r0, r0
     7dc:	a4000000 	strge	r0, [r0], #-0
     7e0:	01000000 	mrseq	r0, (UNDEF: 0)
     7e4:	00a45000 	adceq	r5, r4, r0
     7e8:	01180000 	tsteq	r8, r0
     7ec:	00030000 	andeq	r0, r3, r0
     7f0:	189f0270 	ldmne	pc, {r4, r5, r6, r9}	; <UNPREDICTABLE>
     7f4:	3c000001 	stccc	0, cr0, [r0], {1}
     7f8:	04000002 	streq	r0, [r0], #-2
     7fc:	5001f300 	andpl	pc, r1, r0, lsl #6
     800:	0000009f 	muleq	r0, pc, r0	; <UNPREDICTABLE>
     804:	00000000 	andeq	r0, r0, r0
     808:	00008000 	andeq	r8, r0, r0
     80c:	0000f000 	andeq	pc, r0, r0
     810:	51000100 	mrspl	r0, (UNDEF: 16)
     814:	000000f0 	strdeq	r0, [r0], -r0	; <UNPREDICTABLE>
     818:	00000160 	andeq	r0, r0, r0, ror #2
     81c:	60550001 	subsvs	r0, r5, r1
     820:	6c000001 	stcvs	0, cr0, [r0], {1}
     824:	01000001 	tsteq	r0, r1
     828:	016c5100 	cmneq	ip, r0, lsl #2
     82c:	01a00000 	moveq	r0, r0
     830:	00010000 	andeq	r0, r1, r0
     834:	0001a055 	andeq	sl, r1, r5, asr r0
     838:	0001b400 	andeq	fp, r1, r0, lsl #8
     83c:	51000100 	mrspl	r0, (UNDEF: 16)
     840:	000001b4 			; <UNDEFINED> instruction: 0x000001b4
     844:	000001d4 	ldrdeq	r0, [r0], -r4
     848:	d4550001 	ldrble	r0, [r5], #-1
     84c:	d7000001 	strle	r0, [r0, -r1]
     850:	01000001 	tsteq	r0, r1
     854:	01d75100 	bicseq	r5, r7, r0, lsl #2
     858:	021c0000 	andseq	r0, ip, #0
     85c:	00010000 	andeq	r0, r1, r0
     860:	00021c55 	andeq	r1, r2, r5, asr ip
     864:	00023c00 	andeq	r3, r2, r0, lsl #24
     868:	f3000400 	vshl.u8	d0, d0, d0
     86c:	009f5101 	addseq	r5, pc, r1, lsl #2
     870:	00000000 	andeq	r0, r0, r0
     874:	80000000 	andhi	r0, r0, r0
     878:	94000000 	strls	r0, [r0], #-0
     87c:	01000000 	mrseq	r0, (UNDEF: 0)
     880:	00945200 	addseq	r5, r4, r0, lsl #4
     884:	021c0000 	andseq	r0, ip, #0
     888:	00010000 	andeq	r0, r1, r0
     88c:	00021c54 	andeq	r1, r2, r4, asr ip
     890:	00023c00 	andeq	r3, r2, r0, lsl #24
     894:	f3000400 	vshl.u8	d0, d0, d0
     898:	009f5201 	addseq	r5, pc, r1, lsl #4
     89c:	00000000 	andeq	r0, r0, r0
     8a0:	80000000 	andhi	r0, r0, r0
     8a4:	00000000 	andeq	r0, r0, r0
     8a8:	01000001 	tsteq	r0, r1
     8ac:	01045300 	mrseq	r5, LR_abt
     8b0:	01080000 	mrseq	r0, (UNDEF: 8)
     8b4:	00010000 	andeq	r0, r1, r0
     8b8:	00016053 	andeq	r6, r1, r3, asr r0
     8bc:	00016400 	andeq	r6, r1, r0, lsl #8
     8c0:	53000100 	movwpl	r0, #256	; 0x100
     8c4:	00000164 	andeq	r0, r0, r4, ror #2
     8c8:	0000016c 	andeq	r0, r0, ip, ror #2
     8cc:	6c5c0001 	mrrcvs	0, 0, r0, ip, cr1
     8d0:	a0000001 	andge	r0, r0, r1
     8d4:	04000001 	streq	r0, [r0], #-1
     8d8:	5301f300 	movwpl	pc, #4864	; 0x1300	; <UNPREDICTABLE>
     8dc:	0001a09f 	muleq	r1, pc, r0	; <UNPREDICTABLE>
     8e0:	0001b000 	andeq	fp, r1, r0
     8e4:	53000100 	movwpl	r0, #256	; 0x100
     8e8:	000001b0 			; <UNDEFINED> instruction: 0x000001b0
     8ec:	000001b4 			; <UNDEFINED> instruction: 0x000001b4
     8f0:	b45c0001 	ldrblt	r0, [ip], #-1
     8f4:	d4000001 	strle	r0, [r0], #-1
     8f8:	04000001 	streq	r0, [r0], #-1
     8fc:	5301f300 	movwpl	pc, #4864	; 0x1300	; <UNPREDICTABLE>
     900:	0001d49f 	muleq	r1, pc, r4	; <UNPREDICTABLE>
     904:	0001d700 	andeq	sp, r1, r0, lsl #14
     908:	53000100 	movwpl	r0, #256	; 0x100
     90c:	000001d7 	ldrdeq	r0, [r0], -r7
     910:	000001f8 	strdeq	r0, [r0], -r8
     914:	01f30004 	mvnseq	r0, r4
     918:	00009f53 	andeq	r9, r0, r3, asr pc
     91c:	00000000 	andeq	r0, r0, r0
     920:	00800000 	addeq	r0, r0, r0
     924:	009c0000 	addseq	r0, ip, r0
     928:	00020000 	andeq	r0, r2, r0
     92c:	009c0091 	umullseq	r0, ip, r1, r0
     930:	01d70000 	bicseq	r0, r7, r0
     934:	00010000 	andeq	r0, r1, r0
     938:	0001f852 	andeq	pc, r1, r2, asr r8	; <UNPREDICTABLE>
     93c:	0001ff00 	andeq	pc, r1, r0, lsl #30
     940:	52000100 	andpl	r0, r0, #0, 2
	...
     94c:	0000009c 	muleq	r0, ip, r0
     950:	0000010c 	andeq	r0, r0, ip, lsl #2
     954:	a0910004 	addsge	r0, r1, r4
     958:	010c9f7f 	tsteq	ip, pc, ror pc
     95c:	01180000 	tsteq	r8, r0
     960:	00010000 	andeq	r0, r1, r0
     964:	00011851 	andeq	r1, r1, r1, asr r8
     968:	00011c00 	andeq	r1, r1, r0, lsl #24
     96c:	50000100 	andpl	r0, r0, r0, lsl #2
     970:	0000011c 	andeq	r0, r0, ip, lsl r1
     974:	00000120 	andeq	r0, r0, r0, lsr #2
     978:	20510001 	subscs	r0, r1, r1
     97c:	60000001 	andvs	r0, r0, r1
     980:	01000001 	tsteq	r0, r1
     984:	01605000 	cmneq	r0, r0
     988:	01640000 	cmneq	r4, r0
     98c:	00040000 	andeq	r0, r4, r0
     990:	9f7fa091 	svcls	0x007fa091
     994:	00000164 	andeq	r0, r0, r4, ror #2
     998:	0000016c 	andeq	r0, r0, ip, ror #2
     99c:	6c530001 	mrrcvs	0, 0, r0, r3, cr1
     9a0:	70000001 	andvc	r0, r0, r1
     9a4:	01000001 	tsteq	r0, r1
     9a8:	01705000 	cmneq	r0, r0
     9ac:	01740000 	cmneq	r4, r0
     9b0:	00010000 	andeq	r0, r1, r0
     9b4:	00017453 	andeq	r7, r1, r3, asr r4
     9b8:	00018800 	andeq	r8, r1, r0, lsl #16
     9bc:	50000100 	andpl	r0, r0, r0, lsl #2
     9c0:	00000188 	andeq	r0, r0, r8, lsl #3
     9c4:	00000194 	muleq	r0, r4, r1
     9c8:	01700003 	cmneq	r0, r3
     9cc:	0001949f 	muleq	r1, pc, r4	; <UNPREDICTABLE>
     9d0:	0001a000 	andeq	sl, r1, r0
     9d4:	50000100 	andpl	r0, r0, r0, lsl #2
     9d8:	000001a0 	andeq	r0, r0, r0, lsr #3
     9dc:	000001a8 	andeq	r0, r0, r8, lsr #3
     9e0:	a1910004 	orrsge	r0, r1, r4
     9e4:	01a89f7f 			; <UNDEFINED> instruction: 0x01a89f7f
     9e8:	01ac0000 			; <UNDEFINED> instruction: 0x01ac0000
     9ec:	00010000 	andeq	r0, r1, r0
     9f0:	0001ac50 	andeq	sl, r1, r0, asr ip
     9f4:	0001b000 	andeq	fp, r1, r0
     9f8:	91000400 	tstls	r0, r0, lsl #8
     9fc:	b09f7fa0 	addslt	r7, pc, r0, lsr #31
     a00:	b8000001 	stmdalt	r0, {r0}
     a04:	01000001 	tsteq	r0, r1
     a08:	01b85300 			; <UNDEFINED> instruction: 0x01b85300
     a0c:	01d40000 	bicseq	r0, r4, r0
     a10:	00010000 	andeq	r0, r1, r0
     a14:	0001d450 	andeq	sp, r1, r0, asr r4
     a18:	0001f800 	andeq	pc, r1, r0, lsl #16
     a1c:	91000400 	tstls	r0, r0, lsl #8
     a20:	f89f7fa0 			; <UNDEFINED> instruction: 0xf89f7fa0
     a24:	ff000001 			; <UNDEFINED> instruction: 0xff000001
     a28:	01000001 	tsteq	r0, r1
     a2c:	00005000 	andeq	r5, r0, r0
     a30:	00000000 	andeq	r0, r0, r0
     a34:	00a00000 	adceq	r0, r0, r0
     a38:	00ec0000 	rsceq	r0, ip, r0
     a3c:	00010000 	andeq	r0, r1, r0
     a40:	0000ec5c 	andeq	lr, r0, ip, asr ip
     a44:	00010000 	andeq	r0, r1, r0
     a48:	53000100 	movwpl	r0, #256	; 0x100
     a4c:	00000100 	andeq	r0, r0, r0, lsl #2
     a50:	00000104 	andeq	r0, r0, r4, lsl #2
     a54:	045c0001 	ldrbeq	r0, [ip], #-1
     a58:	08000001 	stmdaeq	r0, {r0}
     a5c:	01000001 	tsteq	r0, r1
     a60:	01085300 	mrseq	r5, (UNDEF: 56)
     a64:	01600000 	cmneq	r0, r0
     a68:	00010000 	andeq	r0, r1, r0
     a6c:	0001605c 	andeq	r6, r1, ip, asr r0
     a70:	00016400 	andeq	r6, r1, r0, lsl #8
     a74:	53000100 	movwpl	r0, #256	; 0x100
     a78:	00000164 	andeq	r0, r0, r4, ror #2
     a7c:	00000180 	andeq	r0, r0, r0, lsl #3
     a80:	805c0001 	subshi	r0, ip, r1
     a84:	84000001 	strhi	r0, [r0], #-1
     a88:	05000001 	streq	r0, [r0, #-1]
     a8c:	34007c00 	strcc	r7, [r0], #-3072	; 0xc00
     a90:	01849f25 	orreq	r9, r4, r5, lsr #30
     a94:	01a00000 	moveq	r0, r0
     a98:	00010000 	andeq	r0, r1, r0
     a9c:	0001a05c 	andeq	sl, r1, ip, asr r0
     aa0:	0001b000 	andeq	fp, r1, r0
     aa4:	53000100 	movwpl	r0, #256	; 0x100
     aa8:	000001b0 			; <UNDEFINED> instruction: 0x000001b0
     aac:	000001c4 	andeq	r0, r0, r4, asr #3
     ab0:	c45c0001 	ldrbgt	r0, [ip], #-1
     ab4:	cc000001 	stcgt	0, cr0, [r0], {1}
     ab8:	05000001 	streq	r0, [r0, #-1]
     abc:	31007c00 	tstcc	r0, r0, lsl #24
     ac0:	01cc9f25 	biceq	r9, ip, r5, lsr #30
     ac4:	01d40000 	bicseq	r0, r4, r0
     ac8:	00010000 	andeq	r0, r1, r0
     acc:	0001d45c 	andeq	sp, r1, ip, asr r4
     ad0:	0001d700 	andeq	sp, r1, r0, lsl #14
     ad4:	53000100 	movwpl	r0, #256	; 0x100
     ad8:	000001d7 	ldrdeq	r0, [r0], -r7
     adc:	000001f8 	strdeq	r0, [r0], -r8
     ae0:	01f30004 	mvnseq	r0, r4
     ae4:	01f89f53 	mvnseq	r9, r3, asr pc
     ae8:	01ff0000 	mvnseq	r0, r0
     aec:	00010000 	andeq	r0, r1, r0
     af0:	0000005c 	andeq	r0, r0, ip, asr r0
     af4:	00000000 	andeq	r0, r0, r0
     af8:	0000ec00 	andeq	lr, r0, r0, lsl #24
     afc:	0000fc00 	andeq	pc, r0, r0, lsl #24
     b00:	30000200 	andcc	r0, r0, r0, lsl #4
     b04:	0000fc9f 	muleq	r0, pc, ip	; <UNPREDICTABLE>
     b08:	00010400 	andeq	r0, r1, r0, lsl #8
     b0c:	31000200 	mrscc	r0, R8_usr
     b10:	0001049f 	muleq	r1, pc, r4	; <UNPREDICTABLE>
     b14:	00010800 	andeq	r0, r1, r0, lsl #16
     b18:	30000200 	andcc	r0, r0, r0, lsl #4
     b1c:	0000009f 	muleq	r0, pc, r0	; <UNPREDICTABLE>
     b20:	00000000 	andeq	r0, r0, r0
     b24:	00023c00 	andeq	r3, r2, r0, lsl #24
     b28:	00024f00 	andeq	r4, r2, r0, lsl #30
     b2c:	50000100 	andpl	r0, r0, r0, lsl #2
     b30:	0000024f 	andeq	r0, r0, pc, asr #4
     b34:	00000270 	andeq	r0, r0, r0, ror r2
     b38:	01f30004 	mvnseq	r0, r4
     b3c:	02709f50 	rsbseq	r9, r0, #80, 30	; 0x140
     b40:	02a40000 	adceq	r0, r4, #0
     b44:	00010000 	andeq	r0, r1, r0
     b48:	00000050 	andeq	r0, r0, r0, asr r0
     b4c:	00000000 	andeq	r0, r0, r0
     b50:	00023c00 	andeq	r3, r2, r0, lsl #24
     b54:	00024f00 	andeq	r4, r2, r0, lsl #30
     b58:	51000100 	mrspl	r0, (UNDEF: 16)
     b5c:	0000024f 	andeq	r0, r0, pc, asr #4
     b60:	00000270 	andeq	r0, r0, r0, ror r2
     b64:	01f30004 	mvnseq	r0, r4
     b68:	02709f51 	rsbseq	r9, r0, #324	; 0x144
     b6c:	02a40000 	adceq	r0, r4, #0
     b70:	00010000 	andeq	r0, r1, r0
     b74:	00000051 	andeq	r0, r0, r1, asr r0
     b78:	00000000 	andeq	r0, r0, r0
     b7c:	0002a400 	andeq	sl, r2, r0, lsl #8
     b80:	0002d400 	andeq	sp, r2, r0, lsl #8
     b84:	50000100 	andpl	r0, r0, r0, lsl #2
     b88:	000002d4 	ldrdeq	r0, [r0], -r4
     b8c:	00000558 	andeq	r0, r0, r8, asr r5
     b90:	585b0001 	ldmdapl	fp, {r0}^
     b94:	78000005 	stmdavc	r0, {r0, r2}
     b98:	04000005 	streq	r0, [r0], #-5
     b9c:	5001f300 	andpl	pc, r1, r0, lsl #6
     ba0:	0000009f 	muleq	r0, pc, r0	; <UNPREDICTABLE>
     ba4:	00000000 	andeq	r0, r0, r0
     ba8:	0002a400 	andeq	sl, r2, r0, lsl #8
     bac:	0002bc00 	andeq	fp, r2, r0, lsl #24
     bb0:	51000100 	mrspl	r0, (UNDEF: 16)
     bb4:	000002bc 			; <UNDEFINED> instruction: 0x000002bc
     bb8:	000002d4 	ldrdeq	r0, [r0], -r4
     bbc:	01710003 	cmneq	r1, r3
     bc0:	0002d49f 	muleq	r2, pc, r4	; <UNPREDICTABLE>
     bc4:	00057800 	andeq	r7, r5, r0, lsl #16
     bc8:	f3000400 	vshl.u8	d0, d0, d0
     bcc:	009f5101 	addseq	r5, pc, r1, lsl #2
     bd0:	00000000 	andeq	r0, r0, r0
     bd4:	a4000000 	strge	r0, [r0], #-0
     bd8:	d4000002 	strle	r0, [r0], #-2
     bdc:	01000002 	tsteq	r0, r2
     be0:	02d45200 	sbcseq	r5, r4, #0, 4
     be4:	05580000 	ldrbeq	r0, [r8, #-0]
     be8:	00010000 	andeq	r0, r1, r0
     bec:	00000056 	andeq	r0, r0, r6, asr r0
     bf0:	00000000 	andeq	r0, r0, r0
     bf4:	0002a400 	andeq	sl, r2, r0, lsl #8
     bf8:	0002c400 	andeq	ip, r2, r0, lsl #8
     bfc:	53000100 	movwpl	r0, #256	; 0x100
	...
     c08:	000002b8 			; <UNDEFINED> instruction: 0x000002b8
     c0c:	000002d4 	ldrdeq	r0, [r0], -r4
     c10:	d4500001 	ldrble	r0, [r0], #-1
     c14:	d8000002 	stmdale	r0, {r1}
     c18:	01000002 	tsteq	r0, r2
     c1c:	02d85400 	sbcseq	r5, r8, #0, 8
     c20:	02e40000 	rsceq	r0, r4, #0
     c24:	00030000 	andeq	r0, r3, r0
     c28:	e49f0174 	ldr	r0, [pc], #372	; c30 <__code_start__-0x73d0>
     c2c:	f0000002 			; <UNDEFINED> instruction: 0xf0000002
     c30:	01000002 	tsteq	r0, r2
     c34:	02f05400 	rscseq	r5, r0, #0, 8
     c38:	02fc0000 	rscseq	r0, ip, #0
     c3c:	00030000 	andeq	r0, r3, r0
     c40:	fc9f0174 	ldc2	1, cr0, [pc], {116}	; 0x74
     c44:	0c000002 	stceq	0, cr0, [r0], {2}
     c48:	01000005 	tsteq	r0, r5
     c4c:	050c5400 	streq	r5, [ip, #-1024]	; 0x400
     c50:	05180000 	ldreq	r0, [r8, #-0]
     c54:	00030000 	andeq	r0, r3, r0
     c58:	189f0174 	ldmne	pc, {r2, r4, r5, r6, r8}	; <UNPREDICTABLE>
     c5c:	44000005 	strmi	r0, [r0], #-5
     c60:	01000005 	tsteq	r0, r5
     c64:	05445400 	strbeq	r5, [r4, #-1024]	; 0x400
     c68:	05500000 	ldrbeq	r0, [r0, #-0]
     c6c:	00010000 	andeq	r0, r1, r0
     c70:	00055050 	andeq	r5, r5, r0, asr r0
     c74:	00055800 	andeq	r5, r5, r0, lsl #16
     c78:	74000300 	strvc	r0, [r0], #-768	; 0x300
     c7c:	00009f01 	andeq	r9, r0, r1, lsl #30
     c80:	00000000 	andeq	r0, r0, r0
     c84:	02c00000 	sbceq	r0, r0, #0
     c88:	05580000 	ldrbeq	r0, [r8, #-0]
     c8c:	00010000 	andeq	r0, r1, r0
     c90:	00055858 	andeq	r5, r5, r8, asr r8
     c94:	00057800 	andeq	r7, r5, r0, lsl #16
     c98:	f3000a00 	vpmax.u8	d0, d0, d0
     c9c:	01f35101 	mvnseq	r5, r1, lsl #2
     ca0:	1c312250 	lfmne	f2, 4, [r1], #-320	; 0xfffffec0
     ca4:	0000009f 	muleq	r0, pc, r0	; <UNPREDICTABLE>
     ca8:	00000000 	andeq	r0, r0, r0
     cac:	0002c800 	andeq	ip, r2, r0, lsl #16
     cb0:	0002d400 	andeq	sp, r2, r0, lsl #8
     cb4:	52000100 	andpl	r0, r0, #0, 2
     cb8:	000002d4 	ldrdeq	r0, [r0], -r4
     cbc:	00000578 	andeq	r0, r0, r8, ror r5
     cc0:	cc910003 	ldcgt	0, cr0, [r1], {3}
     cc4:	0000007e 	andeq	r0, r0, lr, ror r0
     cc8:	00000000 	andeq	r0, r0, r0
     ccc:	00041000 	andeq	r1, r4, r0
     cd0:	00041400 	andeq	r1, r4, r0, lsl #8
     cd4:	50000100 	andpl	r0, r0, r0, lsl #2
     cd8:	00000438 	andeq	r0, r0, r8, lsr r4
     cdc:	0000043c 	andeq	r0, r0, ip, lsr r4
     ce0:	60500001 	subsvs	r0, r0, r1
     ce4:	64000004 	strvs	r0, [r0], #-4
     ce8:	01000004 	tsteq	r0, r4
     cec:	04885000 	streq	r5, [r8], #0
     cf0:	048c0000 	streq	r0, [ip], #0
     cf4:	00010000 	andeq	r0, r1, r0
     cf8:	00049450 	andeq	r9, r4, r0, asr r4
     cfc:	00049800 	andeq	r9, r4, r0, lsl #16
     d00:	50000100 	andpl	r0, r0, r0, lsl #2
     d04:	000004bc 			; <UNDEFINED> instruction: 0x000004bc
     d08:	000004c0 	andeq	r0, r0, r0, asr #9
     d0c:	04500001 	ldrbeq	r0, [r0], #-1
     d10:	2c000005 	stccs	0, cr0, [r0], {5}
     d14:	01000005 	tsteq	r0, r5
     d18:	00005000 	andeq	r5, r0, r0
     d1c:	00000000 	andeq	r0, r0, r0
     d20:	03040000 	movweq	r0, #16384	; 0x4000
     d24:	030c0000 	movweq	r0, #49152	; 0xc000
     d28:	00020000 	andeq	r0, r2, r0
     d2c:	030c9f30 	movweq	r9, #53040	; 0xcf30
     d30:	03100000 	tsteq	r0, #0
     d34:	00010000 	andeq	r0, r1, r0
     d38:	00031c57 	andeq	r1, r3, r7, asr ip
     d3c:	00052c00 	andeq	r2, r5, r0, lsl #24
     d40:	57000100 	strpl	r0, [r0, -r0, lsl #2]
	...
     d4c:	00000004 	andeq	r0, r0, r4
     d50:	00000008 	andeq	r0, r0, r8
     d54:	00730007 	rsbseq	r0, r3, r7
     d58:	2110000a 	tstcs	r0, sl
     d5c:	0000089f 	muleq	r0, pc, r8	; <UNPREDICTABLE>
     d60:	00001000 	andeq	r1, r0, r0
     d64:	53000100 	movwpl	r0, #256	; 0x100
	...
     d70:	00000014 	andeq	r0, r0, r4, lsl r0
     d74:	00000018 	andeq	r0, r0, r8, lsl r0
     d78:	00730007 	rsbseq	r0, r3, r7
     d7c:	1aefff0b 	bne	ffc009b0 <__bss_end__+0xffbf62a8>
     d80:	0000189f 	muleq	r0, pc, r8	; <UNPREDICTABLE>
     d84:	00002000 	andeq	r2, r0, r0
     d88:	53000100 	movwpl	r0, #256	; 0x100
	...
     d94:	00000014 	andeq	r0, r0, r4, lsl r0
     d98:	0000001c 	andeq	r0, r0, ip, lsl r0
     d9c:	04730003 	ldrbteq	r0, [r3], #-3
     da0:	00001c9f 	muleq	r0, pc, ip	; <UNPREDICTABLE>
     da4:	00002700 	andeq	r2, r0, r0, lsl #14
     da8:	53000100 	movwpl	r0, #256	; 0x100
	...
     db8:	0000000f 	andeq	r0, r0, pc
     dbc:	0f500001 	svceq	0x00500001
     dc0:	44000000 	strmi	r0, [r0], #-0
     dc4:	01000000 	mrseq	r0, (UNDEF: 0)
     dc8:	00005400 	andeq	r5, r0, r0, lsl #8
	...
     dd4:	000f0000 	andeq	r0, pc, r0
     dd8:	00010000 	andeq	r0, r1, r0
     ddc:	00000f50 	andeq	r0, r0, r0, asr pc
     de0:	00004400 	andeq	r4, r0, r0, lsl #8
     de4:	54000100 	strpl	r0, [r0], #-256	; 0x100
	...
     df4:	0000000f 	andeq	r0, r0, pc
     df8:	0f500001 	svceq	0x00500001
     dfc:	44000000 	strmi	r0, [r0], #-0
     e00:	01000000 	mrseq	r0, (UNDEF: 0)
     e04:	00005400 	andeq	r5, r0, r0, lsl #8
     e08:	00000000 	andeq	r0, r0, r0
     e0c:	00340000 	eorseq	r0, r4, r0
     e10:	00400000 	subeq	r0, r0, r0
     e14:	00020000 	andeq	r0, r2, r0
     e18:	00409f30 	subeq	r9, r0, r0, lsr pc
     e1c:	006c0000 	rsbeq	r0, ip, r0
     e20:	00010000 	andeq	r0, r1, r0
     e24:	00000053 	andeq	r0, r0, r3, asr r0
     e28:	00000000 	andeq	r0, r0, r0
     e2c:	0096ac00 	addseq	sl, r6, r0, lsl #24
     e30:	0096b000 	addseq	fp, r6, r0
     e34:	30000200 	andcc	r0, r0, r0, lsl #4
     e38:	0096b09f 	umullseq	fp, r6, pc, r0	; <UNPREDICTABLE>
     e3c:	0096b400 	addseq	fp, r6, r0, lsl #8
     e40:	50000100 	andpl	r0, r0, r0, lsl #2
	...
     e4c:	000096c4 	andeq	r9, r0, r4, asr #13
     e50:	000096c8 	andeq	r9, r0, r8, asr #13
     e54:	9f300002 	svcls	0x00300002
     e58:	000096c8 	andeq	r9, r0, r8, asr #13
     e5c:	000096cc 	andeq	r9, r0, ip, asr #13
     e60:	d0530001 	subsle	r0, r3, r1
     e64:	d8000096 	stmdale	r0, {r1, r2, r4, r7}
     e68:	01000096 	swpeq	r0, r6, [r0]	; <UNPREDICTABLE>
     e6c:	00005300 	andeq	r5, r0, r0, lsl #6
	...
     e78:	00040000 	andeq	r0, r4, r0
     e7c:	00010000 	andeq	r0, r1, r0
     e80:	00000450 	andeq	r0, r0, r0, asr r4
     e84:	00000c00 	andeq	r0, r0, r0, lsl #24
     e88:	53000100 	movwpl	r0, #256	; 0x100
     e8c:	0000000c 	andeq	r0, r0, ip
     e90:	00000010 	andeq	r0, r0, r0, lsl r0
     e94:	10500001 	subsne	r0, r0, r1
     e98:	1c000000 	stcne	0, cr0, [r0], {-0}
     e9c:	01000000 	mrseq	r0, (UNDEF: 0)
     ea0:	00005300 	andeq	r5, r0, r0, lsl #6
     ea4:	00000000 	andeq	r0, r0, r0
     ea8:	00400000 	subeq	r0, r0, r0
     eac:	00430000 	subeq	r0, r3, r0
     eb0:	00010000 	andeq	r0, r1, r0
     eb4:	00004350 	andeq	r4, r0, r0, asr r3
     eb8:	00004c00 	andeq	r4, r0, r0, lsl #24
     ebc:	54000100 	strpl	r0, [r0], #-256	; 0x100
	...
     ec8:	0000004c 	andeq	r0, r0, ip, asr #32
     ecc:	00000057 	andeq	r0, r0, r7, asr r0
     ed0:	57500001 	ldrbpl	r0, [r0, -r1]
     ed4:	70000000 	andvc	r0, r0, r0
     ed8:	01000000 	mrseq	r0, (UNDEF: 0)
     edc:	00005500 	andeq	r5, r0, r0, lsl #10
     ee0:	00000000 	andeq	r0, r0, r0
     ee4:	00600000 	rsbeq	r0, r0, r0
     ee8:	00640000 	rsbeq	r0, r4, r0
     eec:	00010000 	andeq	r0, r1, r0
     ef0:	00000050 	andeq	r0, r0, r0, asr r0
     ef4:	00000000 	andeq	r0, r0, r0
     ef8:	00007000 	andeq	r7, r0, r0
     efc:	00007c00 	andeq	r7, r0, r0, lsl #24
     f00:	50000100 	andpl	r0, r0, r0, lsl #2
     f04:	0000007c 	andeq	r0, r0, ip, ror r0
     f08:	00000084 	andeq	r0, r0, r4, lsl #1
     f0c:	01f30004 	mvnseq	r0, r4
     f10:	00009f50 	andeq	r9, r0, r0, asr pc
     f14:	00000000 	andeq	r0, r0, r0
     f18:	00840000 	addeq	r0, r4, r0
     f1c:	00900000 	addseq	r0, r0, r0
     f20:	00010000 	andeq	r0, r1, r0
     f24:	00009050 	andeq	r9, r0, r0, asr r0
     f28:	00009800 	andeq	r9, r0, r0, lsl #16
     f2c:	f3000400 	vshl.u8	d0, d0, d0
     f30:	009f5001 	addseq	r5, pc, r1
     f34:	00000000 	andeq	r0, r0, r0
     f38:	38000000 	stmdacc	r0, {}	; <UNPREDICTABLE>
     f3c:	43000001 	movwmi	r0, #1
     f40:	01000001 	tsteq	r0, r1
     f44:	01435000 	mrseq	r5, (UNDEF: 67)
     f48:	01680000 	cmneq	r8, r0
     f4c:	00010000 	andeq	r0, r1, r0
     f50:	00000054 	andeq	r0, r0, r4, asr r0
	...
     f5c:	00000f00 	andeq	r0, r0, r0, lsl #30
     f60:	50000100 	andpl	r0, r0, r0, lsl #2
     f64:	0000000f 	andeq	r0, r0, pc
     f68:	00000020 	andeq	r0, r0, r0, lsr #32
     f6c:	00540001 	subseq	r0, r4, r1
	...
     f78:	0f000000 	svceq	0x00000000
     f7c:	01000000 	mrseq	r0, (UNDEF: 0)
     f80:	000f5100 	andeq	r5, pc, r0, lsl #2
     f84:	00200000 	eoreq	r0, r0, r0
     f88:	00010000 	andeq	r0, r1, r0
     f8c:	00000055 	andeq	r0, r0, r5, asr r0
     f90:	00000000 	andeq	r0, r0, r0
     f94:	0000ec00 	andeq	lr, r0, r0, lsl #24
     f98:	00010400 	andeq	r0, r1, r0, lsl #8
     f9c:	50000100 	andpl	r0, r0, r0, lsl #2
     fa0:	00000104 	andeq	r0, r0, r4, lsl #2
     fa4:	00000114 	andeq	r0, r0, r4, lsl r1
     fa8:	01f30004 	mvnseq	r0, r4
     fac:	01149f50 	tsteq	r4, r0, asr pc
     fb0:	01180000 	tsteq	r8, r0
     fb4:	00010000 	andeq	r0, r1, r0
     fb8:	00011850 	andeq	r1, r1, r0, asr r8
     fbc:	00012000 	andeq	r2, r1, r0
     fc0:	f3000400 	vshl.u8	d0, d0, d0
     fc4:	009f5001 	addseq	r5, pc, r1
     fc8:	00000000 	andeq	r0, r0, r0
     fcc:	f8000000 			; <UNDEFINED> instruction: 0xf8000000
     fd0:	04000000 	streq	r0, [r0], #-0
     fd4:	0b000001 	bleq	fe0 <__code_start__-0x7020>
     fd8:	35007000 	strcc	r7, [r0, #-0]
     fdc:	80b42325 	adcshi	r2, r4, r5, lsr #6
     fe0:	9f028180 	svcls	0x00028180
     fe4:	00000104 	andeq	r0, r0, r4, lsl #2
     fe8:	00000107 	andeq	r0, r0, r7, lsl #2
     fec:	07500001 	ldrbeq	r0, [r0, -r1]
     ff0:	14000001 	strne	r0, [r0], #-1
     ff4:	0c000001 	stceq	0, cr0, [r0], {1}
     ff8:	5001f300 	andpl	pc, r1, r0, lsl #6
     ffc:	b4232535 	strtlt	r2, [r3], #-1333	; 0x535
    1000:	02818080 	addeq	r8, r1, #128	; 0x80
    1004:	0000009f 	muleq	r0, pc, r0	; <UNPREDICTABLE>
    1008:	00000000 	andeq	r0, r0, r0
    100c:	0000fc00 	andeq	pc, r0, r0, lsl #24
    1010:	00011400 	andeq	r1, r1, r0, lsl #8
    1014:	54000100 	strpl	r0, [r0], #-256	; 0x100
	...
    1020:	000000d0 	ldrdeq	r0, [r0], -r0	; <UNPREDICTABLE>
    1024:	000000df 	ldrdeq	r0, [r0], -pc	; <UNPREDICTABLE>
    1028:	df500001 	svcle	0x00500001
    102c:	e4000000 	str	r0, [r0], #-0
    1030:	04000000 	streq	r0, [r0], #-0
    1034:	5001f300 	andpl	pc, r1, r0, lsl #6
    1038:	0000e49f 	muleq	r0, pc, r4	; <UNPREDICTABLE>
    103c:	0000e700 	andeq	lr, r0, r0, lsl #14
    1040:	50000100 	andpl	r0, r0, r0, lsl #2
    1044:	000000e7 	andeq	r0, r0, r7, ror #1
    1048:	000000ec 	andeq	r0, r0, ip, ror #1
    104c:	01f30004 	mvnseq	r0, r4
    1050:	00009f50 	andeq	r9, r0, r0, asr pc
    1054:	00000000 	andeq	r0, r0, r0
    1058:	00d00000 	sbcseq	r0, r0, r0
    105c:	00df0000 	sbcseq	r0, pc, r0
    1060:	00010000 	andeq	r0, r1, r0
    1064:	0000df51 	andeq	sp, r0, r1, asr pc
    1068:	0000e400 	andeq	lr, r0, r0, lsl #8
    106c:	f3000400 	vshl.u8	d0, d0, d0
    1070:	e49f5101 	ldr	r5, [pc], #257	; 1078 <__code_start__-0x6f88>
    1074:	e7000000 	str	r0, [r0, -r0]
    1078:	01000000 	mrseq	r0, (UNDEF: 0)
    107c:	00e75100 	rsceq	r5, r7, r0, lsl #2
    1080:	00ec0000 	rsceq	r0, ip, r0
    1084:	00040000 	andeq	r0, r4, r0
    1088:	9f5101f3 	svcls	0x005101f3
	...
    1094:	000000c0 	andeq	r0, r0, r0, asr #1
    1098:	000000cb 	andeq	r0, r0, fp, asr #1
    109c:	cb500001 	blgt	14010a8 <__bss_end__+0x13f69a0>
    10a0:	d0000000 	andle	r0, r0, r0
    10a4:	04000000 	streq	r0, [r0], #-0
    10a8:	5001f300 	andpl	pc, r1, r0, lsl #6
    10ac:	0000009f 	muleq	r0, pc, r0	; <UNPREDICTABLE>
    10b0:	00000000 	andeq	r0, r0, r0
    10b4:	00009c00 	andeq	r9, r0, r0, lsl #24
    10b8:	0000b400 	andeq	fp, r0, r0, lsl #8
    10bc:	50000100 	andpl	r0, r0, r0, lsl #2
    10c0:	000000b4 	strheq	r0, [r0], -r4
    10c4:	000000c0 	andeq	r0, r0, r0, asr #1
    10c8:	01f30004 	mvnseq	r0, r4
    10cc:	00009f50 	andeq	r9, r0, r0, asr pc
    10d0:	00000000 	andeq	r0, r0, r0
    10d4:	00780000 	rsbseq	r0, r8, r0
    10d8:	00900000 	addseq	r0, r0, r0
    10dc:	00010000 	andeq	r0, r1, r0
    10e0:	00009050 	andeq	r9, r0, r0, asr r0
    10e4:	00009c00 	andeq	r9, r0, r0, lsl #24
    10e8:	f3000400 	vshl.u8	d0, d0, d0
    10ec:	009f5001 	addseq	r5, pc, r1
    10f0:	00000000 	andeq	r0, r0, r0
    10f4:	68000000 	stmdavs	r0, {}	; <UNPREDICTABLE>
    10f8:	73000000 	movwvc	r0, #0
    10fc:	01000000 	mrseq	r0, (UNDEF: 0)
    1100:	00735000 	rsbseq	r5, r3, r0
    1104:	00780000 	rsbseq	r0, r8, r0
    1108:	00040000 	andeq	r0, r4, r0
    110c:	9f5001f3 	svcls	0x005001f3
	...
    111c:	00000048 	andeq	r0, r0, r8, asr #32
    1120:	48500001 	ldmdami	r0, {r0}^
    1124:	68000000 	stmdavs	r0, {}	; <UNPREDICTABLE>
    1128:	04000000 	streq	r0, [r0], #-0
    112c:	5001f300 	andpl	pc, r1, r0, lsl #6
    1130:	0000009f 	muleq	r0, pc, r0	; <UNPREDICTABLE>
	...
    113c:	00004b00 	andeq	r4, r0, r0, lsl #22
    1140:	51000100 	mrspl	r0, (UNDEF: 16)
    1144:	0000004b 	andeq	r0, r0, fp, asr #32
    1148:	00000068 	andeq	r0, r0, r8, rrx
    114c:	01f30004 	mvnseq	r0, r4
    1150:	00009f51 	andeq	r9, r0, r1, asr pc
    1154:	00000000 	andeq	r0, r0, r0
    1158:	004c0000 	subeq	r0, ip, r0
    115c:	00540000 	subseq	r0, r4, r0
    1160:	00010000 	andeq	r0, r1, r0
    1164:	00005450 	andeq	r5, r0, r0, asr r4
    1168:	00005800 	andeq	r5, r0, r0, lsl #16
    116c:	75000900 	strvc	r0, [r0, #-2304]	; 0x900
    1170:	24007400 	strcs	r7, [r0], #-1024	; 0x400
    1174:	9f210071 	svcls	0x00210071
    1178:	00000058 	andeq	r0, r0, r8, asr r0
    117c:	0000005f 	andeq	r0, r0, pc, asr r0
    1180:	00510001 	subseq	r0, r1, r1
    1184:	00000000 	andeq	r0, r0, r0
    1188:	Address 0x0000000000001188 is out of bounds.


Disassembly of section .debug_aranges:

00000000 <.debug_aranges>:
   0:	0000001c 	andeq	r0, r0, ip, lsl r0
   4:	00000002 	andeq	r0, r0, r2
   8:	00040000 	andeq	r0, r4, r0
   c:	00000000 	andeq	r0, r0, r0
  10:	00008020 	andeq	r8, r0, r0, lsr #32
  14:	00000254 	andeq	r0, r0, r4, asr r2
	...
  20:	0000001c 	andeq	r0, r0, ip, lsl r0
  24:	06250002 	strteq	r0, [r5], -r2
  28:	00040000 	andeq	r0, r4, r0
  2c:	00000000 	andeq	r0, r0, r0
  30:	00008274 	andeq	r8, r0, r4, ror r2
  34:	00000378 	andeq	r0, r0, r8, ror r3
	...
  40:	0000001c 	andeq	r0, r0, ip, lsl r0
  44:	12000002 	andne	r0, r0, #2
  48:	00040000 	andeq	r0, r4, r0
  4c:	00000000 	andeq	r0, r0, r0
  50:	00008724 	andeq	r8, r0, r4, lsr #14
  54:	00000784 	andeq	r0, r0, r4, lsl #15
	...
  60:	0000001c 	andeq	r0, r0, ip, lsl r0
  64:	21030002 	tstcs	r3, r2
  68:	00040000 	andeq	r0, r4, r0
  6c:	00000000 	andeq	r0, r0, r0
  70:	00008ea8 	andeq	r8, r0, r8, lsr #29
  74:	00000058 	andeq	r0, r0, r8, asr r0
	...
  80:	0000001c 	andeq	r0, r0, ip, lsl r0
  84:	22980002 	addscs	r0, r8, #2
  88:	00040000 	andeq	r0, r4, r0
  8c:	00000000 	andeq	r0, r0, r0
  90:	00008f00 	andeq	r8, r0, r0, lsl #30
  94:	0000003c 	andeq	r0, r0, ip, lsr r0
	...
  a0:	0000001c 	andeq	r0, r0, ip, lsl r0
  a4:	23af0002 			; <UNDEFINED> instruction: 0x23af0002
  a8:	00040000 	andeq	r0, r4, r0
  ac:	00000000 	andeq	r0, r0, r0
  b0:	00008f3c 	andeq	r8, r0, ip, lsr pc
  b4:	00000034 	andeq	r0, r0, r4, lsr r0
	...
  c0:	0000001c 	andeq	r0, r0, ip, lsl r0
  c4:	24a10002 	strtcs	r0, [r1], #2
  c8:	00040000 	andeq	r0, r4, r0
  cc:	00000000 	andeq	r0, r0, r0
  d0:	00008f70 	andeq	r8, r0, r0, ror pc
  d4:	00000578 	andeq	r0, r0, r8, ror r5
	...
  e0:	0000001c 	andeq	r0, r0, ip, lsl r0
  e4:	2b8a0002 	blcs	fe2800f4 <__bss_end__+0xfe2759ec>
  e8:	00040000 	andeq	r0, r4, r0
  ec:	00000000 	andeq	r0, r0, r0
  f0:	000094e8 	andeq	r9, r0, r8, ror #9
  f4:	00000020 	andeq	r0, r0, r0, lsr #32
	...
 100:	0000001c 	andeq	r0, r0, ip, lsl r0
 104:	2c460002 	mcrrcs	0, 0, r0, r6, cr2
 108:	00040000 	andeq	r0, r4, r0
 10c:	00000000 	andeq	r0, r0, r0
 110:	00009508 	andeq	r9, r0, r8, lsl #10
 114:	0000002c 	andeq	r0, r0, ip, lsr #32
	...
 120:	0000001c 	andeq	r0, r0, ip, lsl r0
 124:	2d590002 	ldclcs	0, cr0, [r9, #-8]
 128:	00040000 	andeq	r0, r4, r0
 12c:	00000000 	andeq	r0, r0, r0
 130:	00009534 	andeq	r9, r0, r4, lsr r5
 134:	00000038 	andeq	r0, r0, r8, lsr r0
	...
 140:	0000001c 	andeq	r0, r0, ip, lsl r0
 144:	2e6c0002 	cdpcs	0, 6, cr0, cr12, cr2, {0}
 148:	00040000 	andeq	r0, r4, r0
 14c:	00000000 	andeq	r0, r0, r0
 150:	0000956c 	andeq	r9, r0, ip, ror #10
 154:	00000044 	andeq	r0, r0, r4, asr #32
	...
 160:	0000001c 	andeq	r0, r0, ip, lsl r0
 164:	2fae0002 	svccs	0x00ae0002
 168:	00040000 	andeq	r0, r4, r0
 16c:	00000000 	andeq	r0, r0, r0
 170:	000095b0 			; <UNDEFINED> instruction: 0x000095b0
 174:	00000044 	andeq	r0, r0, r4, asr #32
	...
 180:	0000001c 	andeq	r0, r0, ip, lsl r0
 184:	30f00002 	rscscc	r0, r0, r2
 188:	00040000 	andeq	r0, r4, r0
 18c:	00000000 	andeq	r0, r0, r0
 190:	000095f4 	strdeq	r9, [r0], -r4
 194:	00000044 	andeq	r0, r0, r4, asr #32
	...
 1a0:	0000001c 	andeq	r0, r0, ip, lsl r0
 1a4:	32320002 	eorscc	r0, r2, #2
 1a8:	00040000 	andeq	r0, r4, r0
 1ac:	00000000 	andeq	r0, r0, r0
 1b0:	00009638 	andeq	r9, r0, r8, lsr r6
 1b4:	00000008 	andeq	r0, r0, r8
	...
 1c0:	0000001c 	andeq	r0, r0, ip, lsl r0
 1c4:	32ce0002 	sbccc	r0, lr, #2
 1c8:	00040000 	andeq	r0, r4, r0
 1cc:	00000000 	andeq	r0, r0, r0
 1d0:	00009640 	andeq	r9, r0, r0, asr #12
 1d4:	0000006c 	andeq	r0, r0, ip, rrx
	...
 1e0:	0000001c 	andeq	r0, r0, ip, lsl r0
 1e4:	34a90002 	strtcc	r0, [r9], #2
 1e8:	00040000 	andeq	r0, r4, r0
 1ec:	00000000 	andeq	r0, r0, r0
 1f0:	000096ac 	andeq	r9, r0, ip, lsr #13
 1f4:	00000074 	andeq	r0, r0, r4, ror r0
	...
 200:	0000001c 	andeq	r0, r0, ip, lsl r0
 204:	365a0002 	ldrbcc	r0, [sl], -r2
 208:	00040000 	andeq	r0, r4, r0
 20c:	00000000 	andeq	r0, r0, r0
 210:	00009720 	andeq	r9, r0, r0, lsr #14
 214:	00000098 	muleq	r0, r8, r0
	...
 220:	0000001c 	andeq	r0, r0, ip, lsl r0
 224:	38550002 	ldmdacc	r5, {r1}^
 228:	00040000 	andeq	r0, r4, r0
 22c:	00000000 	andeq	r0, r0, r0
 230:	0000981c 	andeq	r9, r0, ip, lsl r8
 234:	00000178 	andeq	r0, r0, r8, ror r1
	...
 240:	0000001c 	andeq	r0, r0, ip, lsl r0
 244:	451e0002 	ldrmi	r0, [lr, #-2]
 248:	00040000 	andeq	r0, r4, r0
 24c:	00000000 	andeq	r0, r0, r0
 250:	00009994 	muleq	r0, r4, r9
 254:	00000120 	andeq	r0, r0, r0, lsr #2
	...

Disassembly of section .debug_line:

00000000 <.debug_line>:
       0:	00000174 	andeq	r0, r0, r4, ror r1
       4:	01210002 	teqeq	r1, r2
       8:	01020000 	mrseq	r0, (UNDEF: 2)
       c:	000d0efb 	strdeq	r0, [sp], -fp
      10:	01010101 	tsteq	r1, r1, lsl #2
      14:	01000000 	mrseq	r0, (UNDEF: 0)
      18:	74010000 	strvc	r0, [r1], #-0
      1c:	73747365 	cmnvc	r4, #-1811939327	; 0x94000001
      20:	00302e32 	eorseq	r2, r0, r2, lsr lr
      24:	752f002e 	strvc	r0, [pc, #-46]!	; fffffffe <__bss_end__+0xffff58f6>
      28:	6c2f7273 	sfmvs	f7, 4, [pc], #-460	; fffffe64 <__bss_end__+0xffff575c>
      2c:	6c61636f 	stclvs	3, cr6, [r1], #-444	; 0xfffffe44
      30:	6c65432f 	stclvs	3, cr4, [r5], #-188	; 0xffffff44
      34:	2f72616c 	svccs	0x0072616c
      38:	2d6d7261 	sfmcs	f7, 2, [sp, #-388]!	; 0xfffffe7c
      3c:	656e6f6e 	strbvs	r6, [lr, #-3950]!	; 0xf6e
      40:	6261652d 	rsbvs	r6, r1, #188743680	; 0xb400000
      44:	2e342f69 	cdpcs	15, 3, cr2, cr4, cr9, {3}
      48:	2d332e38 	ldccs	14, cr2, [r3, #-224]!	; 0xffffff20
      4c:	37317363 	ldrcc	r7, [r1, -r3, ror #6]!
      50:	6c2f6530 	cfstr32vs	mvfx6, [pc], #-192	; ffffff98 <__bss_end__+0xffff5890>
      54:	672f6269 	strvs	r6, [pc, -r9, ror #4]!
      58:	612f6363 	teqvs	pc, r3, ror #6
      5c:	6e2d6d72 	mcrvs	13, 1, r6, cr13, cr2, {3}
      60:	2d656e6f 	stclcs	14, cr6, [r5, #-444]!	; 0xfffffe44
      64:	69626165 	stmdbvs	r2!, {r0, r2, r5, r6, r8, sp, lr}^
      68:	382e342f 	stmdacc	lr!, {r0, r1, r2, r3, r5, sl, ip, sp}
      6c:	692f332e 	stmdbvs	pc!, {r1, r2, r3, r5, r8, r9, ip, sp}	; <UNPREDICTABLE>
      70:	756c636e 	strbvc	r6, [ip, #-878]!	; 0x36e
      74:	2f006564 	svccs	0x00006564
      78:	72657355 	rsbvc	r7, r5, #1409286145	; 0x54000001
      7c:	72622f73 	rsbvc	r2, r2, #460	; 0x1cc
      80:	6a6e6169 	bvs	1b9862c <__bss_end__+0x1b8df24>
      84:	442f6e75 	strtmi	r6, [pc], #-3701	; 8c <__code_start__-0x7f74>
      88:	746b7365 	strbtvc	r7, [fp], #-869	; 0x365
      8c:	732f706f 	teqvc	pc, #111	; 0x6f
      90:	6f6f6863 	svcvs	0x006f6863
      94:	70532f6c 	subsvc	r2, r3, ip, ror #30
      98:	676e6972 			; <UNDEFINED> instruction: 0x676e6972
      9c:	30323931 	eorscc	r3, r2, r1, lsr r9
      a0:	3253432f 	subscc	r4, r3, #-1140850688	; 0xbc000000
      a4:	584c3034 	stmdapl	ip, {r2, r4, r5, ip, sp}^
      a8:	3273632f 	rsbscc	r6, r3, #-1140850688	; 0xbc000000
      ac:	786c3034 	stmdavc	ip!, {r2, r4, r5, ip, sp}^
      b0:	7330322d 	teqvc	r0, #-805306366	; 0xd0000002
      b4:	6c2f7270 	sfmvs	f7, 4, [pc], #-448	; fffffefc <__bss_end__+0xffff57f4>
      b8:	69706269 	ldmdbvs	r0!, {r0, r3, r5, r6, r9, sp, lr}^
      bc:	636e692f 	cmnvs	lr, #770048	; 0xbc000
      c0:	6564756c 	strbvs	r7, [r4, #-1388]!	; 0x56c
      c4:	36310000 	ldrtcc	r0, [r1], -r0
      c8:	7261702d 	rsbvc	r7, r1, #45	; 0x2d
      cc:	742d3274 	strtvc	r3, [sp], #-628	; 0x274
      d0:	36747365 	ldrbtcc	r7, [r4], -r5, ror #6
      d4:	0100632e 	tsteq	r0, lr, lsr #6
      d8:	69700000 	ldmdbvs	r0!, {}^	; <UNPREDICTABLE>
      dc:	7379732d 	cmnvc	r9, #-1275068416	; 0xb4000000
      e0:	636f6c2d 	cmnvs	pc, #11520	; 0x2d00
      e4:	00682e6b 	rsbeq	r2, r8, fp, ror #28
      e8:	63000002 	movwvs	r0, #2
      ec:	6b636568 	blvs	18d9694 <__bss_end__+0x18cef8c>
      f0:	746e692d 	strbtvc	r6, [lr], #-2349	; 0x92d
      f4:	656c7265 	strbvs	r7, [ip, #-613]!	; 0x265
      f8:	2e657661 	cdpcs	6, 6, cr7, cr5, cr1, {3}
      fc:	00020068 	andeq	r0, r2, r8, rrx
     100:	64747300 	ldrbtvs	r7, [r4], #-768	; 0x300
     104:	2d746e69 	ldclcs	14, cr6, [r4, #-420]!	; 0xfffffe5c
     108:	2e636367 	cdpcs	3, 6, cr6, cr3, cr7, {3}
     10c:	00030068 	andeq	r0, r3, r8, rrx
     110:	69707200 	ldmdbvs	r0!, {r9, ip, sp, lr}^
     114:	0400682e 	streq	r6, [r0], #-2094	; 0x82e
     118:	70630000 	rsbvc	r0, r3, r0
     11c:	642d3431 	strtvs	r3, [sp], #-1073	; 0x431
     120:	67756265 	ldrbvs	r6, [r5, -r5, ror #4]!
     124:	0200682e 	andeq	r6, r0, #3014656	; 0x2e0000
     128:	00000000 	andeq	r0, r0, r0
     12c:	80200205 	eorhi	r0, r0, r5, lsl #4
     130:	09030000 	stmdbeq	r3, {}	; <UNPREDICTABLE>
     134:	4d020401 	cfstrsmi	mvf0, [r2, #-4]
     138:	4b480104 	blmi	1200550 <__bss_end__+0x11f5e48>
     13c:	030204d7 	movweq	r0, #9431	; 0x24d7
     140:	9108820b 	tstls	r8, fp, lsl #4
     144:	76030104 	strvc	r0, [r3], -r4, lsl #2
     148:	04590866 	ldrbeq	r0, [r9], #-2150	; 0x866
     14c:	01044702 	tsteq	r4, r2, lsl #14
     150:	02044c4e 	andeq	r4, r4, #19968	; 0x4e00
     154:	04910887 	ldreq	r0, [r1], #2183	; 0x887
     158:	13f46301 	mvnsne	r6, #67108864	; 0x4000000
     15c:	6e030204 	cdpvs	2, 0, cr0, cr3, cr4, {0}
     160:	03010466 	movweq	r0, #5222	; 0x1466
     164:	4b139e15 	blmi	4e79c0 <__bss_end__+0x4dd2b8>
     168:	2e0213a0 	cdpcs	3, 0, cr1, cr2, cr0, {5}
     16c:	304ca019 	subcc	sl, ip, r9, lsl r0
     170:	02d8834c 	sbcseq	r8, r8, #76, 6	; 0x30000001
     174:	01010018 	tsteq	r1, r8, lsl r0
     178:	000001f4 	strdeq	r0, [r0], -r4
     17c:	00ff0002 	rscseq	r0, pc, r2
     180:	01020000 	mrseq	r0, (UNDEF: 2)
     184:	000d0efb 	strdeq	r0, [sp], -fp
     188:	01010101 	tsteq	r1, r1, lsl #2
     18c:	01000000 	mrseq	r0, (UNDEF: 0)
     190:	2f010000 	svccs	0x00010000
     194:	2f727375 	svccs	0x00727375
     198:	61636f6c 	cmnvs	r3, ip, ror #30
     19c:	65432f6c 	strbvs	r2, [r3, #-3948]	; 0xf6c
     1a0:	72616c6c 	rsbvc	r6, r1, #108, 24	; 0x6c00
     1a4:	6d72612f 	ldfvse	f6, [r2, #-188]!	; 0xffffff44
     1a8:	6e6f6e2d 	cdpvs	14, 6, cr6, cr15, cr13, {1}
     1ac:	61652d65 	cmnvs	r5, r5, ror #26
     1b0:	342f6962 	strtcc	r6, [pc], #-2402	; 1b8 <__code_start__-0x7e48>
     1b4:	332e382e 	teqcc	lr, #3014656	; 0x2e0000
     1b8:	3173632d 	cmncc	r3, sp, lsr #6
     1bc:	2f653037 	svccs	0x00653037
     1c0:	2f62696c 	svccs	0x0062696c
     1c4:	2f636367 	svccs	0x00636367
     1c8:	2d6d7261 	sfmcs	f7, 2, [sp, #-388]!	; 0xfffffe7c
     1cc:	656e6f6e 	strbvs	r6, [lr, #-3950]!	; 0xf6e
     1d0:	6261652d 	rsbvs	r6, r1, #188743680	; 0xb400000
     1d4:	2e342f69 	cdpcs	15, 3, cr2, cr4, cr9, {3}
     1d8:	2f332e38 	svccs	0x00332e38
     1dc:	6c636e69 	stclvs	14, cr6, [r3], #-420	; 0xfffffe5c
     1e0:	00656475 	rsbeq	r6, r5, r5, ror r4
     1e4:	6573552f 	ldrbvs	r5, [r3, #-1327]!	; 0x52f
     1e8:	622f7372 	eorvs	r7, pc, #-939524095	; 0xc8000001
     1ec:	6e616972 	mcrvs	9, 3, r6, cr1, cr2, {3}
     1f0:	2f6e756a 	svccs	0x006e756a
     1f4:	6b736544 	blvs	1cd970c <__bss_end__+0x1ccf004>
     1f8:	2f706f74 	svccs	0x00706f74
     1fc:	6f686373 	svcvs	0x00686373
     200:	532f6c6f 	teqpl	pc, #28416	; 0x6f00
     204:	6e697270 	mcrvs	2, 3, r7, cr9, cr0, {3}
     208:	32393167 	eorscc	r3, r9, #-1073741799	; 0xc0000019
     20c:	53432f30 	movtpl	r2, #16176	; 0x3f30
     210:	4c303432 	cfldrsmi	mvf3, [r0], #-200	; 0xffffff38
     214:	73632f58 	cmnvc	r3, #88, 30	; 0x160
     218:	6c303432 	cfldrsvs	mvf3, [r0], #-200	; 0xffffff38
     21c:	30322d78 	eorscc	r2, r2, r8, ror sp
     220:	2f727073 	svccs	0x00727073
     224:	7062696c 	rsbvc	r6, r2, ip, ror #18
     228:	6e692f69 	cdpvs	15, 6, cr2, cr9, cr9, {3}
     22c:	64756c63 	ldrbtvs	r6, [r5], #-3171	; 0xc63
     230:	63000065 	movwvs	r0, #101	; 0x65
     234:	2d343170 	ldfcss	f3, [r4, #-448]!	; 0xfffffe40
     238:	75626564 	strbvc	r6, [r2, #-1380]!	; 0x564
     23c:	00632e67 	rsbeq	r2, r3, r7, ror #28
     240:	63000000 	movwvs	r0, #0
     244:	2d343170 	ldfcss	f3, [r4, #-448]!	; 0xfffffe40
     248:	75626564 	strbvc	r6, [r2, #-1380]!	; 0x564
     24c:	00682e67 	rsbeq	r2, r8, r7, ror #28
     250:	73000000 	movwvc	r0, #0
     254:	6e696474 	mcrvs	4, 3, r6, cr9, cr4, {3}
     258:	63672d74 	cmnvs	r7, #116, 26	; 0x1d00
     25c:	00682e63 	rsbeq	r2, r8, r3, ror #28
     260:	72000001 	andvc	r0, r0, #1
     264:	682e6970 	stmdavs	lr!, {r4, r5, r6, r8, fp, sp, lr}
     268:	00000200 	andeq	r0, r0, r0, lsl #4
     26c:	2d697072 	stclcs	0, cr7, [r9, #-456]!	; 0xfffffe38
     270:	65746e69 	ldrbvs	r6, [r4, #-3689]!	; 0xe69
     274:	70757272 	rsbsvc	r7, r5, r2, ror r2
     278:	682e7374 	stmdavs	lr!, {r2, r4, r5, r6, r8, r9, ip, sp, lr}
     27c:	00000200 	andeq	r0, r0, r0, lsl #4
     280:	02050000 	andeq	r0, r5, #0
     284:	00008274 	andeq	r8, r0, r4, ror r2
     288:	03013503 	movweq	r3, #5379	; 0x1503
     28c:	24034a62 	strcs	r4, [r3], #-2658	; 0xa62
     290:	2e62032e 	cdpcs	3, 6, cr0, cr2, cr14, {1}
     294:	032e7a03 	teqeq	lr, #12288	; 0x3000
     298:	02002e29 	andeq	r2, r0, #656	; 0x290
     29c:	4a060104 	bmi	1806b4 <__bss_end__+0x175fac>
     2a0:	08650306 	stmdaeq	r5!, {r1, r2, r8, r9}^
     2a4:	2e780320 	cdpcs	3, 7, cr0, cr8, cr0, {1}
     2a8:	034a7a03 	movteq	r7, #43523	; 0xaa03
     2ac:	02002e3a 	andeq	r2, r0, #928	; 0x3a0
     2b0:	4a060104 	bmi	1806c8 <__bss_end__+0x175fc0>
     2b4:	7fbb0306 	svcvc	0x00bb0306
     2b8:	c8032008 	stmdagt	r3, {r3, sp}
     2bc:	f54b4a00 			; <UNDEFINED> instruction: 0xf54b4a00
     2c0:	036c0204 	cmneq	ip, #4, 4	; 0x40000000
     2c4:	4b344a13 	blmi	d12b18 <__bss_end__+0xd08410>
     2c8:	04d65d03 	ldrbeq	r5, [r6], #3331	; 0xd03
     2cc:	2e110301 	cdpcs	3, 1, cr0, cr1, cr1, {0}
     2d0:	01040200 	mrseq	r0, R12_usr
     2d4:	08066606 	stmdaeq	r6, {r1, r2, r9, sl, sp, lr}
     2d8:	04020022 	streq	r0, [r2], #-34	; 0x22
     2dc:	04820601 	streq	r0, [r2], #1537	; 0x601
     2e0:	7a030602 	bvc	c1af0 <__bss_end__+0xb73e8>
     2e4:	01042008 	tsteq	r4, r8
     2e8:	4b2e0c03 	blmi	b832fc <__bss_end__+0xb78bf4>
     2ec:	83315a08 	teqhi	r1, #8, 20	; 0x8000
     2f0:	7fbb032f 	svcvc	0x00bb032f
     2f4:	4a5b0366 	bmi	16c1094 <__bss_end__+0x16b698c>
     2f8:	82019b03 	andhi	r9, r1, #3072	; 0xc00
     2fc:	03016503 	movweq	r6, #5379	; 0x1503
     300:	62032e1f 	andvs	r2, r3, #496	; 0x1f0
     304:	03302c2e 	teqeq	r0, #11776	; 0x2e00
     308:	034a7eff 	movteq	r7, #44799	; 0xaeff
     30c:	a24a01b3 	subge	r0, sl, #-1073741780	; 0xc000002c
     310:	62030204 	andvs	r0, r3, #4, 4	; 0x40000000
     314:	01043366 	tsteq	r4, r6, ror #6
     318:	4b2e1b03 	blmi	b86f2c <__bss_end__+0xb7c824>
     31c:	040200d7 	streq	r0, [r2], #-215	; 0xd7
     320:	04820601 	streq	r0, [r2], #1537	; 0x601
     324:	4f030602 	svcmi	0x00030602
     328:	01042008 	tsteq	r4, r8
     32c:	4b2e3303 	blmi	b8cf40 <__bss_end__+0xb82838>
     330:	2e0b03f4 	mcrcs	3, 0, r0, cr11, cr4, {7}
     334:	3f082f01 	svccc	0x00082f01
     338:	017fb103 	cmneq	pc, r3, lsl #2
     33c:	2e00d303 	cdpcs	3, 0, cr13, cr0, cr3, {0}
     340:	2e7fae03 	cdpcs	14, 7, cr10, cr15, cr3, {0}
     344:	ff03302c 			; <UNDEFINED> instruction: 0xff03302c
     348:	e7034a7e 	smlsdx	r3, lr, sl, r4
     34c:	03a24a01 			; <UNDEFINED> instruction: 0x03a24a01
     350:	03017f96 	movweq	r7, #8086	; 0x1f96
     354:	318200fb 	strdcc	r0, [r2, fp]
     358:	10034b4b 	andne	r4, r3, fp, asr #22
     35c:	4a71032e 	bmi	1c4101c <__bss_end__+0x1c36914>
     360:	324b674c 	subcc	r6, fp, #76, 14	; 0x1300000
     364:	7703694e 	strvc	r6, [r3, -lr, asr #18]
     368:	02354d4a 	eorseq	r4, r5, #4736	; 0x1280
     36c:	01010004 	tsteq	r1, r4
     370:	00000267 	andeq	r0, r0, r7, ror #4
     374:	013b0002 	teqeq	fp, r2
     378:	01020000 	mrseq	r0, (UNDEF: 2)
     37c:	000d0efb 	strdeq	r0, [sp], -fp
     380:	01010101 	tsteq	r1, r1, lsl #2
     384:	01000000 	mrseq	r0, (UNDEF: 0)
     388:	2f010000 	svccs	0x00010000
     38c:	72657355 	rsbvc	r7, r5, #1409286145	; 0x54000001
     390:	72622f73 	rsbvc	r2, r2, #460	; 0x1cc
     394:	6a6e6169 	bvs	1b98940 <__bss_end__+0x1b8e238>
     398:	442f6e75 	strtmi	r6, [pc], #-3701	; 3a0 <__code_start__-0x7c60>
     39c:	746b7365 	strbtvc	r7, [fp], #-869	; 0x365
     3a0:	732f706f 	teqvc	pc, #111	; 0x6f
     3a4:	6f6f6863 	svcvs	0x006f6863
     3a8:	70532f6c 	subsvc	r2, r3, ip, ror #30
     3ac:	676e6972 			; <UNDEFINED> instruction: 0x676e6972
     3b0:	30323931 	eorscc	r3, r2, r1, lsr r9
     3b4:	3253432f 	subscc	r4, r3, #-1140850688	; 0xbc000000
     3b8:	584c3034 	stmdapl	ip, {r2, r4, r5, ip, sp}^
     3bc:	3273632f 	rsbscc	r6, r3, #-1140850688	; 0xbc000000
     3c0:	786c3034 	stmdavc	ip!, {r2, r4, r5, ip, sp}^
     3c4:	7330322d 	teqvc	r0, #-805306366	; 0xd0000002
     3c8:	6c2f7270 	sfmvs	f7, 4, [pc], #-448	; 210 <__code_start__-0x7df0>
     3cc:	69706269 	ldmdbvs	r0!, {r0, r3, r5, r6, r9, sp, lr}^
     3d0:	636e692f 	cmnvs	lr, #770048	; 0xbc000
     3d4:	6564756c 	strbvs	r7, [r4, #-1388]!	; 0x56c
     3d8:	73752f00 	cmnvc	r5, #0, 30
     3dc:	6f6c2f72 	svcvs	0x006c2f72
     3e0:	2f6c6163 	svccs	0x006c6163
     3e4:	6c6c6543 	cfstr64vs	mvdx6, [ip], #-268	; 0xfffffef4
     3e8:	612f7261 	teqvs	pc, r1, ror #4
     3ec:	6e2d6d72 	mcrvs	13, 1, r6, cr13, cr2, {3}
     3f0:	2d656e6f 	stclcs	14, cr6, [r5, #-444]!	; 0xfffffe44
     3f4:	69626165 	stmdbvs	r2!, {r0, r2, r5, r6, r8, sp, lr}^
     3f8:	382e342f 	stmdacc	lr!, {r0, r1, r2, r3, r5, sl, ip, sp}
     3fc:	632d332e 	teqvs	sp, #-1207959552	; 0xb8000000
     400:	30373173 	eorscc	r3, r7, r3, ror r1
     404:	696c2f65 	stmdbvs	ip!, {r0, r2, r5, r6, r8, r9, sl, fp, sp}^
     408:	63672f62 	cmnvs	r7, #392	; 0x188
     40c:	72612f63 	rsbvc	r2, r1, #396	; 0x18c
     410:	6f6e2d6d 	svcvs	0x006e2d6d
     414:	652d656e 	strvs	r6, [sp, #-1390]!	; 0x56e
     418:	2f696261 	svccs	0x00696261
     41c:	2e382e34 	mrccs	14, 1, r2, cr8, cr4, {1}
     420:	6e692f33 	mcrvs	15, 3, r2, cr9, cr3, {1}
     424:	64756c63 	ldrbtvs	r6, [r5], #-3171	; 0xc63
     428:	63000065 	movwvs	r0, #101	; 0x65
     42c:	6b636568 	blvs	18d99d4 <__bss_end__+0x18cf2cc>
     430:	746e692d 	strbtvc	r6, [lr], #-2349	; 0x92d
     434:	656c7265 	strbvs	r7, [ip, #-613]!	; 0x265
     438:	2e657661 	cdpcs	6, 6, cr7, cr5, cr1, {3}
     43c:	00000063 	andeq	r0, r0, r3, rrx
     440:	31706300 	cmncc	r0, r0, lsl #6
     444:	65642d34 	strbvs	r2, [r4, #-3380]!	; 0xd34
     448:	2e677562 	cdpcs	5, 6, cr7, cr7, cr2, {3}
     44c:	00000068 	andeq	r0, r0, r8, rrx
     450:	69707200 	ldmdbvs	r0!, {r9, ip, sp, lr}^
     454:	746e692d 	strbtvc	r6, [lr], #-2349	; 0x92d
     458:	75727265 	ldrbvc	r7, [r2, #-613]!	; 0x265
     45c:	2e737470 	mrccs	4, 3, r7, cr3, cr0, {3}
     460:	00010068 	andeq	r0, r1, r8, rrx
     464:	74696200 	strbtvc	r6, [r9], #-512	; 0x200
     468:	7075732d 	rsbsvc	r7, r5, sp, lsr #6
     46c:	74726f70 	ldrbtvc	r6, [r2], #-3952	; 0xf70
     470:	0000682e 	andeq	r6, r0, lr, lsr #16
     474:	70630000 	rsbvc	r0, r3, r0
     478:	752d7273 	strvc	r7, [sp, #-627]!	; 0x273
     47c:	2e6c6974 	mcrcs	9, 3, r6, cr12, cr4, {3}
     480:	00000068 	andeq	r0, r0, r8, rrx
     484:	64747300 	ldrbtvs	r7, [r4], #-768	; 0x300
     488:	2d746e69 	ldclcs	14, cr6, [r4, #-420]!	; 0xfffffe5c
     48c:	2e636367 	cdpcs	3, 6, cr6, cr3, cr7, {3}
     490:	00020068 	andeq	r0, r2, r8, rrx
     494:	65686300 	strbvs	r6, [r8, #-768]!	; 0x300
     498:	692d6b63 	pushvs	{r0, r1, r5, r6, r8, r9, fp, sp, lr}
     49c:	7265746e 	rsbvc	r7, r5, #1845493760	; 0x6e000000
     4a0:	7661656c 	strbtvc	r6, [r1], -ip, ror #10
     4a4:	00682e65 	rsbeq	r2, r8, r5, ror #28
     4a8:	72000000 	andvc	r0, r0, #0
     4ac:	682e6970 	stmdavs	lr!, {r4, r5, r6, r8, fp, sp, lr}
     4b0:	00000100 	andeq	r0, r0, r0, lsl #2
     4b4:	02050000 	andeq	r0, r5, #0
     4b8:	00008724 	andeq	r8, r0, r4, lsr #14
     4bc:	67010a03 	strvs	r0, [r1, -r3, lsl #20]
     4c0:	01040200 	mrseq	r0, R12_usr
     4c4:	02048206 	andeq	r8, r4, #1610612736	; 0x60000000
     4c8:	019a0306 	orrseq	r0, sl, r6, lsl #6
     4cc:	010433ba 			; <UNDEFINED> instruction: 0x010433ba
     4d0:	2e7ee203 	cdpcs	2, 7, cr14, cr14, cr3, {0}
     4d4:	834dd84b 	movthi	sp, #55371	; 0xd84b
     4d8:	2f4ba383 	svccs	0x004ba383
     4dc:	304b674b 	subcc	r6, fp, fp, asr #14
     4e0:	04020068 	streq	r0, [r2], #-104	; 0x68
     4e4:	06820601 	streq	r0, [r2], r1, lsl #12
     4e8:	00682108 	rsbeq	r2, r8, r8, lsl #2
     4ec:	06010402 	streq	r0, [r1], -r2, lsl #8
     4f0:	67bb0682 	ldrvs	r0, [fp, r2, lsl #13]!
     4f4:	01040200 	mrseq	r0, R12_usr
     4f8:	bb068206 	bllt	1a0d18 <__bss_end__+0x196610>
     4fc:	0304ca08 	movweq	ip, #18952	; 0x4a08
     500:	31040463 	tstcc	r4, r3, ror #8
     504:	6b030504 	blvs	c191c <__bss_end__+0xb7214>
     508:	0301042e 	movweq	r0, #5166	; 0x142e
     50c:	4e4b2e19 	mcrmi	14, 2, r2, cr11, cr9, {0}
     510:	00682a84 	rsbeq	r2, r8, r4, lsl #21
     514:	06010402 	streq	r0, [r1], -r2, lsl #8
     518:	6ad80666 	bvs	ff601eb8 <__bss_end__+0xff5f77b0>
     51c:	84314b67 	ldrthi	r4, [r1], #-2919	; 0xb67
     520:	849f6967 	ldrhi	r6, [pc], #2407	; 528 <__code_start__-0x7ad8>
     524:	04686869 	strbteq	r6, [r8], #-2153	; 0x869
     528:	82510304 	subshi	r0, r1, #4, 6	; 0x10000000
     52c:	6c030504 	cfstr32vs	mvfx0, [r3], {4}
     530:	0867652e 	stmdaeq	r7!, {r1, r2, r3, r5, r8, sl, sp, lr}^
     534:	02600825 	rsbeq	r0, r0, #2424832	; 0x250000
     538:	4b4b1528 	blmi	12c59e0 <__bss_end__+0x12bb2d8>
     53c:	034b4b4b 	movteq	r4, #47947	; 0xbb4b
     540:	044bf279 	strbeq	pc, [fp], #-633	; 0x279	; <UNPREDICTABLE>
     544:	2e380301 	cdpcs	3, 3, cr0, cr8, cr1, {0}
     548:	55030304 	strpl	r0, [r3, #-772]	; 0x304
     54c:	03040466 	movweq	r0, #17510	; 0x4466
     550:	05042e78 	streq	r2, [r4, #-3704]	; 0xe78
     554:	652e6c03 	strvs	r6, [lr, #-3075]!	; 0xc03
     558:	08250867 	stmdaeq	r5!, {r0, r1, r2, r5, r6, fp}
     55c:	15280260 	strne	r0, [r8, #-608]!	; 0x260
     560:	4b4b4b4b 	blmi	12d3294 <__bss_end__+0x12c8b8c>
     564:	f279034b 	vcgt.s<illegal width 64>	q8, <illegal reg q4.5>, <illegal reg q5.5>
     568:	0303044b 	movweq	r0, #13387	; 0x344b
     56c:	01042e0d 	tsteq	r4, sp, lsl #28
     570:	4c2e2c03 	stcmi	12, cr2, [lr], #-12
     574:	4a030404 	bmi	c158c <__bss_end__+0xb6e84>
     578:	0305044a 	movweq	r0, #21578	; 0x544a
     57c:	67652e6c 	strbvs	r2, [r5, -ip, ror #28]!
     580:	03042508 	movweq	r2, #17672	; 0x4508
     584:	58081703 	stmdapl	r8, {r0, r1, r8, r9, sl, ip}
     588:	78030404 	stmdavc	r3, {r2, sl}
     58c:	0305042e 	movweq	r0, #21550	; 0x542e
     590:	67652e6c 	strbvs	r2, [r5, -ip, ror #28]!
     594:	01042508 	tsteq	r4, r8, lsl #10
     598:	0800c703 	stmdaeq	r0, {r0, r1, r8, r9, sl, lr, pc}
     59c:	04020058 	streq	r0, [r2], #-88	; 0x58
     5a0:	064a0601 	strbeq	r0, [sl], -r1, lsl #12
     5a4:	2f4c2408 	svccs	0x004c2408
     5a8:	4e173a02 	vnmlsmi.f32	s6, s14, s4
     5ac:	6767684b 	strbvs	r6, [r7, -fp, asr #16]!
     5b0:	d67a039f 			; <UNDEFINED> instruction: 0xd67a039f
     5b4:	01040200 	mrseq	r0, R12_usr
     5b8:	03062e06 	movweq	r2, #28166	; 0x6e06
     5bc:	1aa14a12 	bne	fe852e0c <__bss_end__+0xfe848704>
     5c0:	2d2d2d49 	stccs	13, cr2, [sp, #-292]!	; 0xfffffedc
     5c4:	032d2d2d 	teqeq	sp, #2880	; 0xb40
     5c8:	2f4b4a0a 	svccs	0x004b4a0a
     5cc:	0402004b 	streq	r0, [r2], #-75	; 0x4b
     5d0:	82820601 	addhi	r0, r2, #1048576	; 0x100000
     5d4:	02029f06 	andeq	r9, r2, #6, 30
     5d8:	0c010100 	stfeqs	f0, [r1], {-0}
     5dc:	02000001 	andeq	r0, r0, #1
     5e0:	0000f500 	andeq	pc, r0, r0, lsl #10
     5e4:	fb010200 	blx	40dee <__bss_end__+0x366e6>
     5e8:	01000d0e 	tsteq	r0, lr, lsl #26
     5ec:	00010101 	andeq	r0, r1, r1, lsl #2
     5f0:	00010000 	andeq	r0, r1, r0
     5f4:	696c0100 	stmdbvs	ip!, {r8}^
     5f8:	2f006362 	svccs	0x00006362
     5fc:	2f727375 	svccs	0x00727375
     600:	61636f6c 	cmnvs	r3, ip, ror #30
     604:	65432f6c 	strbvs	r2, [r3, #-3948]	; 0xf6c
     608:	72616c6c 	rsbvc	r6, r1, #108, 24	; 0x6c00
     60c:	6d72612f 	ldfvse	f6, [r2, #-188]!	; 0xffffff44
     610:	6e6f6e2d 	cdpvs	14, 6, cr6, cr15, cr13, {1}
     614:	61652d65 	cmnvs	r5, r5, ror #26
     618:	342f6962 	strtcc	r6, [pc], #-2402	; 620 <__code_start__-0x79e0>
     61c:	332e382e 	teqcc	lr, #3014656	; 0x2e0000
     620:	3173632d 	cmncc	r3, sp, lsr #6
     624:	2f653037 	svccs	0x00653037
     628:	2f62696c 	svccs	0x0062696c
     62c:	2f636367 	svccs	0x00636367
     630:	2d6d7261 	sfmcs	f7, 2, [sp, #-388]!	; 0xfffffe7c
     634:	656e6f6e 	strbvs	r6, [lr, #-3950]!	; 0xf6e
     638:	6261652d 	rsbvs	r6, r1, #188743680	; 0xb400000
     63c:	2e342f69 	cdpcs	15, 3, cr2, cr4, cr9, {3}
     640:	2f332e38 	svccs	0x00332e38
     644:	6c636e69 	stclvs	14, cr6, [r3], #-420	; 0xfffffe5c
     648:	00656475 	rsbeq	r6, r5, r5, ror r4
     64c:	6573552f 	ldrbvs	r5, [r3, #-1327]!	; 0x52f
     650:	622f7372 	eorvs	r7, pc, #-939524095	; 0xc8000001
     654:	6e616972 	mcrvs	9, 3, r6, cr1, cr2, {3}
     658:	2f6e756a 	svccs	0x006e756a
     65c:	6b736544 	blvs	1cd9b74 <__bss_end__+0x1ccf46c>
     660:	2f706f74 	svccs	0x00706f74
     664:	6f686373 	svcvs	0x00686373
     668:	532f6c6f 	teqpl	pc, #28416	; 0x6f00
     66c:	6e697270 	mcrvs	2, 3, r7, cr9, cr0, {3}
     670:	32393167 	eorscc	r3, r9, #-1073741799	; 0xc0000019
     674:	53432f30 	movtpl	r2, #16176	; 0x3f30
     678:	4c303432 	cfldrsmi	mvf3, [r0], #-200	; 0xffffff38
     67c:	73632f58 	cmnvc	r3, #88, 30	; 0x160
     680:	6c303432 	cfldrsvs	mvf3, [r0], #-200	; 0xffffff38
     684:	30322d78 	eorscc	r2, r2, r8, ror sp
     688:	2f727073 	svccs	0x00727073
     68c:	7062696c 	rsbvc	r6, r2, ip, ror #18
     690:	6e692f69 	cdpvs	15, 6, cr2, cr9, cr9, {3}
     694:	64756c63 	ldrbtvs	r6, [r5], #-3171	; 0xc63
     698:	70000065 	andvc	r0, r0, r5, rrx
     69c:	746e6972 	strbtvc	r6, [lr], #-2418	; 0x972
     6a0:	00632e6b 	rsbeq	r2, r3, fp, ror #28
     6a4:	73000001 	movwvc	r0, #1
     6a8:	72616474 	rsbvc	r6, r1, #116, 8	; 0x74000000
     6ac:	00682e67 	rsbeq	r2, r8, r7, ror #28
     6b0:	3c000002 	stccc	0, cr0, [r0], {2}
     6b4:	6c697562 	cfstr64vs	mvdx7, [r9], #-392	; 0xfffffe78
     6b8:	6e692d74 	mcrvs	13, 3, r2, cr9, cr4, {3}
     6bc:	0000003e 	andeq	r0, r0, lr, lsr r0
     6c0:	69707200 	ldmdbvs	r0!, {r9, ip, sp, lr}^
     6c4:	0300682e 	movweq	r6, #2094	; 0x82e
     6c8:	61760000 	cmnvs	r6, r0
     6cc:	6972702d 	ldmdbvs	r2!, {r0, r2, r3, r5, ip, sp, lr}^
     6d0:	2e6b746e 	cdpcs	4, 6, cr7, cr11, cr14, {3}
     6d4:	00010068 	andeq	r0, r1, r8, rrx
     6d8:	05000000 	streq	r0, [r0, #-0]
     6dc:	008ea802 	addeq	sl, lr, r2, lsl #16
     6e0:	4b6b1700 	blmi	1ac62e8 <__bss_end__+0x1abbbe0>
     6e4:	0e0289bf 	mcreq	9, 0, r8, cr2, cr15, {5}
     6e8:	94010100 	strls	r0, [r1], #-256	; 0x100
     6ec:	02000000 	andeq	r0, r0, #0
     6f0:	00007c00 	andeq	r7, r0, r0, lsl #24
     6f4:	fb010200 	blx	40efe <__bss_end__+0x367f6>
     6f8:	01000d0e 	tsteq	r0, lr, lsl #26
     6fc:	00010101 	andeq	r0, r1, r1, lsl #2
     700:	00010000 	andeq	r0, r1, r0
     704:	696c0100 	stmdbvs	ip!, {r8}^
     708:	2f006362 	svccs	0x00006362
     70c:	72657355 	rsbvc	r7, r5, #1409286145	; 0x54000001
     710:	72622f73 	rsbvc	r2, r2, #460	; 0x1cc
     714:	6a6e6169 	bvs	1b98cc0 <__bss_end__+0x1b8e5b8>
     718:	442f6e75 	strtmi	r6, [pc], #-3701	; 720 <__code_start__-0x78e0>
     71c:	746b7365 	strbtvc	r7, [fp], #-869	; 0x365
     720:	732f706f 	teqvc	pc, #111	; 0x6f
     724:	6f6f6863 	svcvs	0x006f6863
     728:	70532f6c 	subsvc	r2, r3, ip, ror #30
     72c:	676e6972 			; <UNDEFINED> instruction: 0x676e6972
     730:	30323931 	eorscc	r3, r2, r1, lsr r9
     734:	3253432f 	subscc	r4, r3, #-1140850688	; 0xbc000000
     738:	584c3034 	stmdapl	ip, {r2, r4, r5, ip, sp}^
     73c:	3273632f 	rsbscc	r6, r3, #-1140850688	; 0xbc000000
     740:	786c3034 	stmdavc	ip!, {r2, r4, r5, ip, sp}^
     744:	7330322d 	teqvc	r0, #-805306366	; 0xd0000002
     748:	6c2f7270 	sfmvs	f7, 4, [pc], #-448	; 590 <__code_start__-0x7a70>
     74c:	69706269 	ldmdbvs	r0!, {r0, r3, r5, r6, r9, sp, lr}^
     750:	636e692f 	cmnvs	lr, #770048	; 0xbc000
     754:	6564756c 	strbvs	r7, [r4, #-1388]!	; 0x56c
     758:	75700000 	ldrbvc	r0, [r0, #-0]!
     75c:	61686374 	smcvs	34356	; 0x8634
     760:	00632e72 	rsbeq	r2, r3, r2, ror lr
     764:	72000001 	andvc	r0, r0, #1
     768:	682e6970 	stmdavs	lr!, {r4, r5, r6, r8, fp, sp, lr}
     76c:	00000200 	andeq	r0, r0, r0, lsl #4
     770:	02050000 	andeq	r0, r5, #0
     774:	00008f00 	andeq	r8, r0, r0, lsl #30
     778:	136b4a14 	cmnne	fp, #20, 20	; 0x14000
     77c:	080213bc 	stmdaeq	r2, {r2, r3, r4, r5, r7, r8, r9, ip}
     780:	a0010100 	andge	r0, r1, r0, lsl #2
     784:	02000000 	andeq	r0, r0, #0
     788:	00007900 	andeq	r7, r0, r0, lsl #18
     78c:	fb010200 	blx	40f96 <__bss_end__+0x3688e>
     790:	01000d0e 	tsteq	r0, lr, lsl #26
     794:	00010101 	andeq	r0, r1, r1, lsl #2
     798:	00010000 	andeq	r0, r1, r0
     79c:	696c0100 	stmdbvs	ip!, {r8}^
     7a0:	2f006362 	svccs	0x00006362
     7a4:	72657355 	rsbvc	r7, r5, #1409286145	; 0x54000001
     7a8:	72622f73 	rsbvc	r2, r2, #460	; 0x1cc
     7ac:	6a6e6169 	bvs	1b98d58 <__bss_end__+0x1b8e650>
     7b0:	442f6e75 	strtmi	r6, [pc], #-3701	; 7b8 <__code_start__-0x7848>
     7b4:	746b7365 	strbtvc	r7, [fp], #-869	; 0x365
     7b8:	732f706f 	teqvc	pc, #111	; 0x6f
     7bc:	6f6f6863 	svcvs	0x006f6863
     7c0:	70532f6c 	subsvc	r2, r3, ip, ror #30
     7c4:	676e6972 			; <UNDEFINED> instruction: 0x676e6972
     7c8:	30323931 	eorscc	r3, r2, r1, lsr r9
     7cc:	3253432f 	subscc	r4, r3, #-1140850688	; 0xbc000000
     7d0:	584c3034 	stmdapl	ip, {r2, r4, r5, ip, sp}^
     7d4:	3273632f 	rsbscc	r6, r3, #-1140850688	; 0xbc000000
     7d8:	786c3034 	stmdavc	ip!, {r2, r4, r5, ip, sp}^
     7dc:	7330322d 	teqvc	r0, #-805306366	; 0xd0000002
     7e0:	6c2f7270 	sfmvs	f7, 4, [pc], #-448	; 628 <__code_start__-0x79d8>
     7e4:	69706269 	ldmdbvs	r0!, {r0, r3, r5, r6, r9, sp, lr}^
     7e8:	636e692f 	cmnvs	lr, #770048	; 0xbc000
     7ec:	6564756c 	strbvs	r7, [r4, #-1388]!	; 0x56c
     7f0:	75700000 	ldrbvc	r0, [r0, #-0]!
     7f4:	632e6b74 	teqvs	lr, #116, 22	; 0x1d000
     7f8:	00000100 	andeq	r0, r0, r0, lsl #2
     7fc:	2e697072 	mcrcs	0, 3, r7, cr9, cr2, {3}
     800:	00020068 	andeq	r0, r2, r8, rrx
     804:	05000000 	streq	r0, [r0, #-0]
     808:	008f3c02 	addeq	r3, pc, r2, lsl #24
     80c:	2d4c1500 	cfstr64cs	mvdx1, [ip, #-0]
     810:	02040200 	andeq	r0, r4, #0, 4
     814:	0402002f 	streq	r0, [r2], #-47	; 0x2f
     818:	02004902 	andeq	r4, r0, #32768	; 0x8000
     81c:	2e060104 	adfcss	f0, f6, f4
     820:	06026b06 	streq	r6, [r2], -r6, lsl #22
     824:	f1010100 	setend	le
     828:	02000001 	andeq	r0, r0, #1
     82c:	0000e900 	andeq	lr, r0, r0, lsl #18
     830:	fb010200 	blx	4103a <__bss_end__+0x36932>
     834:	01000d0e 	tsteq	r0, lr, lsl #26
     838:	00010101 	andeq	r0, r1, r1, lsl #2
     83c:	00010000 	andeq	r0, r1, r0
     840:	696c0100 	stmdbvs	ip!, {r8}^
     844:	2f006362 	svccs	0x00006362
     848:	2f727375 	svccs	0x00727375
     84c:	61636f6c 	cmnvs	r3, ip, ror #30
     850:	65432f6c 	strbvs	r2, [r3, #-3948]	; 0xf6c
     854:	72616c6c 	rsbvc	r6, r1, #108, 24	; 0x6c00
     858:	6d72612f 	ldfvse	f6, [r2, #-188]!	; 0xffffff44
     85c:	6e6f6e2d 	cdpvs	14, 6, cr6, cr15, cr13, {1}
     860:	61652d65 	cmnvs	r5, r5, ror #26
     864:	342f6962 	strtcc	r6, [pc], #-2402	; 86c <__code_start__-0x7794>
     868:	332e382e 	teqcc	lr, #3014656	; 0x2e0000
     86c:	3173632d 	cmncc	r3, sp, lsr #6
     870:	2f653037 	svccs	0x00653037
     874:	2f62696c 	svccs	0x0062696c
     878:	2f636367 	svccs	0x00636367
     87c:	2d6d7261 	sfmcs	f7, 2, [sp, #-388]!	; 0xfffffe7c
     880:	656e6f6e 	strbvs	r6, [lr, #-3950]!	; 0xf6e
     884:	6261652d 	rsbvs	r6, r1, #188743680	; 0xb400000
     888:	2e342f69 	cdpcs	15, 3, cr2, cr4, cr9, {3}
     88c:	2f332e38 	svccs	0x00332e38
     890:	6c636e69 	stclvs	14, cr6, [r3], #-420	; 0xfffffe5c
     894:	00656475 	rsbeq	r6, r5, r5, ror r4
     898:	6573552f 	ldrbvs	r5, [r3, #-1327]!	; 0x52f
     89c:	622f7372 	eorvs	r7, pc, #-939524095	; 0xc8000001
     8a0:	6e616972 	mcrvs	9, 3, r6, cr1, cr2, {3}
     8a4:	2f6e756a 	svccs	0x006e756a
     8a8:	6b736544 	blvs	1cd9dc0 <__bss_end__+0x1ccf6b8>
     8ac:	2f706f74 	svccs	0x00706f74
     8b0:	6f686373 	svcvs	0x00686373
     8b4:	532f6c6f 	teqpl	pc, #28416	; 0x6f00
     8b8:	6e697270 	mcrvs	2, 3, r7, cr9, cr0, {3}
     8bc:	32393167 	eorscc	r3, r9, #-1073741799	; 0xc0000019
     8c0:	53432f30 	movtpl	r2, #16176	; 0x3f30
     8c4:	4c303432 	cfldrsmi	mvf3, [r0], #-200	; 0xffffff38
     8c8:	73632f58 	cmnvc	r3, #88, 30	; 0x160
     8cc:	6c303432 	cfldrsvs	mvf3, [r0], #-200	; 0xffffff38
     8d0:	30322d78 	eorscc	r2, r2, r8, ror sp
     8d4:	2f727073 	svccs	0x00727073
     8d8:	7062696c 	rsbvc	r6, r2, ip, ror #18
     8dc:	6e692f69 	cdpvs	15, 6, cr2, cr9, cr9, {3}
     8e0:	64756c63 	ldrbtvs	r6, [r5], #-3171	; 0xc63
     8e4:	76000065 	strvc	r0, [r0], -r5, rrx
     8e8:	72702d61 	rsbsvc	r2, r0, #6208	; 0x1840
     8ec:	6b746e69 	blvs	1d1c298 <__bss_end__+0x1d11b90>
     8f0:	0100632e 	tsteq	r0, lr, lsr #6
     8f4:	74730000 	ldrbtvc	r0, [r3], #-0
     8f8:	67726164 	ldrbvs	r6, [r2, -r4, ror #2]!
     8fc:	0200682e 	andeq	r6, r0, #3014656	; 0x2e0000
     900:	70720000 	rsbsvc	r0, r2, r0
     904:	00682e69 	rsbeq	r2, r8, r9, ror #28
     908:	3c000003 	stccc	0, cr0, [r0], {3}
     90c:	6c697562 	cfstr64vs	mvdx7, [r9], #-392	; 0xfffffe78
     910:	6e692d74 	mcrvs	13, 3, r2, cr9, cr4, {3}
     914:	0000003e 	andeq	r0, r0, lr, lsr r0
     918:	05000000 	streq	r0, [r0, #-0]
     91c:	008f7002 	addeq	r7, pc, r2
     920:	01260300 	teqeq	r6, r0, lsl #6
     924:	3113a501 	tstcc	r3, r1, lsl #10
     928:	0402002d 	streq	r0, [r2], #-45	; 0x2d
     92c:	02002f02 	andeq	r2, r0, #2, 30
     930:	002d0204 	eoreq	r0, sp, r4, lsl #4
     934:	2f020402 	svccs	0x00020402
     938:	01040200 	mrseq	r0, R12_usr
     93c:	304c4c2d 	subcc	r4, ip, sp, lsr #24
     940:	4f2f4b14 	svcmi	0x002f4b14
     944:	02040200 	andeq	r0, r4, #0, 4
     948:	04020067 	streq	r0, [r2], #-103	; 0x67
     94c:	4d4c6501 	cfstr64mi	mvdx6, [ip, #-4]
     950:	312fa030 	teqcc	pc, r0, lsr r0	; <UNPREDICTABLE>
     954:	16260230 			; <UNDEFINED> instruction: 0x16260230
     958:	002c2d84 	eoreq	r2, ip, r4, lsl #27
     95c:	30010402 	andcc	r0, r1, r2, lsl #8
     960:	01040200 	mrseq	r0, R12_usr
     964:	00660633 	rsbeq	r0, r6, r3, lsr r6
     968:	2e010402 	cdpcs	4, 0, cr0, cr1, cr2, {0}
     96c:	01040200 	mrseq	r0, R12_usr
     970:	67210806 	strvs	r0, [r1, -r6, lsl #16]!
     974:	8273032f 	rsbshi	r0, r3, #-1140850688	; 0xbc000000
     978:	002e1303 	eoreq	r1, lr, r3, lsl #6
     97c:	06010402 	streq	r0, [r1], -r2, lsl #8
     980:	04020066 	streq	r0, [r2], #-102	; 0x66
     984:	4b830601 	blmi	fe0c2190 <__bss_end__+0xfe0b7a88>
     988:	4b31674b 	blmi	c5a6bc <__bss_end__+0xc4ffb4>
     98c:	032e6503 	teqeq	lr, #12582912	; 0xc00000
     990:	02002e23 	andeq	r2, r0, #560	; 0x230
     994:	2e060104 	adfcss	f0, f6, f4
     998:	01040200 	mrseq	r0, R12_usr
     99c:	02009f06 	andeq	r9, r0, #6, 30
     9a0:	086a0104 	stmdaeq	sl!, {r2, r8}^
     9a4:	a403d723 	strge	sp, [r3], #-1827	; 0x723
     9a8:	4b3c087f 	blmi	f02bac <__bss_end__+0xef84a4>
     9ac:	01040200 	mrseq	r0, R12_usr
     9b0:	08064a06 	stmdaeq	r6, {r1, r2, r9, fp, lr}
     9b4:	4b2f4b21 	blmi	bd3640 <__bss_end__+0xbc8f38>
     9b8:	f200db03 	vqdmulh.s<illegal width 8>	d13, d0, d3
     9bc:	32484c9f 	subcc	r4, r8, #40704	; 0x9f00
     9c0:	4b842f4b 	blmi	fe10c6f4 <__bss_end__+0xfe101fec>
     9c4:	314d2d2f 	cmpcc	sp, pc, lsr #26
     9c8:	00832f30 	addeq	r2, r3, r0, lsr pc
     9cc:	2c010402 	cfstrscs	mvf0, [r1], {2}
     9d0:	040200be 	streq	r0, [r2], #-190	; 0xbe
     9d4:	064a0601 	strbeq	r0, [sl], -r1, lsl #12
     9d8:	36022208 	strcc	r2, [r2], -r8, lsl #4
     9dc:	d60e0316 			; <UNDEFINED> instruction: 0xd60e0316
     9e0:	08302108 	ldmdaeq	r0!, {r3, r8, sp}
     9e4:	21083121 	tstcs	r8, r1, lsr #2
     9e8:	30210830 	eorcc	r0, r1, r0, lsr r8
     9ec:	2108304b 	tstcs	r8, fp, asr #32
     9f0:	83834b30 	orrhi	r4, r3, #48, 22	; 0xc000
     9f4:	002f31d9 	ldrdeq	r3, [pc], -r9	; <UNPREDICTABLE>
     9f8:	65010402 	strvs	r0, [r1, #-1026]	; 0x402
     9fc:	02040200 	andeq	r0, r4, #0, 4
     a00:	02004a06 	andeq	r4, r0, #24576	; 0x6000
     a04:	03060104 	movweq	r0, #24836	; 0x6104
     a08:	00667fbf 	strhteq	r7, [r6], #-255	; 0xffffff01
     a0c:	06020402 	streq	r0, [r2], -r2, lsl #8
     a10:	c5030666 	strgt	r0, [r3, #-1638]	; 0x666
     a14:	02684a00 	rsbeq	r4, r8, #0, 20
     a18:	01010016 	tsteq	r1, r6, lsl r0
     a1c:	00000042 	andeq	r0, r0, r2, asr #32
     a20:	00280002 	eoreq	r0, r8, r2
     a24:	01020000 	mrseq	r0, (UNDEF: 2)
     a28:	000d0efb 	strdeq	r0, [sp], -fp
     a2c:	01010101 	tsteq	r1, r1, lsl #2
     a30:	01000000 	mrseq	r0, (UNDEF: 0)
     a34:	73010000 	movwvc	r0, #4096	; 0x1000
     a38:	66666174 			; <UNDEFINED> instruction: 0x66666174
     a3c:	6372732d 	cmnvs	r2, #-1275068416	; 0xb4000000
     a40:	61630000 	cmnvs	r3, r0
     a44:	2e656863 	cdpcs	8, 6, cr6, cr5, cr3, {3}
     a48:	00010063 	andeq	r0, r1, r3, rrx
     a4c:	05000000 	streq	r0, [r0, #-0]
     a50:	0094e802 	addseq	lr, r4, r2, lsl #16
     a54:	30141400 	andscc	r1, r4, r0, lsl #8
     a58:	31144e2f 	tstcc	r4, pc, lsr #28
     a5c:	0004022f 	andeq	r0, r4, pc, lsr #4
     a60:	009d0101 	addseq	r0, sp, r1, lsl #2
     a64:	00020000 	andeq	r0, r2, r0
     a68:	00000086 	andeq	r0, r0, r6, lsl #1
     a6c:	0efb0102 	cdpeq	1, 15, cr0, cr11, cr2, {0}
     a70:	0101000d 	tsteq	r1, sp
     a74:	00000101 	andeq	r0, r0, r1, lsl #2
     a78:	00000100 	andeq	r0, r0, r0, lsl #2
     a7c:	61747301 	cmnvs	r4, r1, lsl #6
     a80:	732d6666 	teqvc	sp, #106954752	; 0x6600000
     a84:	2f006372 	svccs	0x00006372
     a88:	72657355 	rsbvc	r7, r5, #1409286145	; 0x54000001
     a8c:	72622f73 	rsbvc	r2, r2, #460	; 0x1cc
     a90:	6a6e6169 	bvs	1b9903c <__bss_end__+0x1b8e934>
     a94:	442f6e75 	strtmi	r6, [pc], #-3701	; a9c <__code_start__-0x7564>
     a98:	746b7365 	strbtvc	r7, [fp], #-869	; 0x365
     a9c:	732f706f 	teqvc	pc, #111	; 0x6f
     aa0:	6f6f6863 	svcvs	0x006f6863
     aa4:	70532f6c 	subsvc	r2, r3, ip, ror #30
     aa8:	676e6972 			; <UNDEFINED> instruction: 0x676e6972
     aac:	30323931 	eorscc	r3, r2, r1, lsr r9
     ab0:	3253432f 	subscc	r4, r3, #-1140850688	; 0xbc000000
     ab4:	584c3034 	stmdapl	ip, {r2, r4, r5, ip, sp}^
     ab8:	3273632f 	rsbscc	r6, r3, #-1140850688	; 0xbc000000
     abc:	786c3034 	stmdavc	ip!, {r2, r4, r5, ip, sp}^
     ac0:	7330322d 	teqvc	r0, #-805306366	; 0xd0000002
     ac4:	6c2f7270 	sfmvs	f7, 4, [pc], #-448	; 90c <__code_start__-0x76f4>
     ac8:	69706269 	ldmdbvs	r0!, {r0, r3, r5, r6, r9, sp, lr}^
     acc:	636e692f 	cmnvs	lr, #770048	; 0xbc000
     ad0:	6564756c 	strbvs	r7, [r4, #-1388]!	; 0x56c
     ad4:	6c630000 	stclvs	0, cr0, [r3], #-0
     ad8:	2d6e6165 	stfcse	f6, [lr, #-404]!	; 0xfffffe6c
     adc:	6f626572 	svcvs	0x00626572
     ae0:	632e746f 	teqvs	lr, #1862270976	; 0x6f000000
     ae4:	00000100 	andeq	r0, r0, r0, lsl #2
     ae8:	2e697072 	mcrcs	0, 3, r7, cr9, cr2, {3}
     aec:	00020068 	andeq	r0, r2, r8, rrx
     af0:	05000000 	streq	r0, [r0, #-0]
     af4:	00950802 	addseq	r0, r5, r2, lsl #16
     af8:	2f2f1500 	svccs	0x002f1500
     afc:	06024b83 	streq	r4, [r2], -r3, lsl #23
     b00:	a6010100 	strge	r0, [r1], -r0, lsl #2
     b04:	02000000 	andeq	r0, r0, #0
     b08:	00008000 	andeq	r8, r0, r0
     b0c:	fb010200 	blx	41316 <__bss_end__+0x36c0e>
     b10:	01000d0e 	tsteq	r0, lr, lsl #26
     b14:	00010101 	andeq	r0, r1, r1, lsl #2
     b18:	00010000 	andeq	r0, r1, r0
     b1c:	74730100 	ldrbtvc	r0, [r3], #-256	; 0x100
     b20:	2d666661 	stclcs	6, cr6, [r6, #-388]!	; 0xfffffe7c
     b24:	00637273 	rsbeq	r7, r3, r3, ror r2
     b28:	6573552f 	ldrbvs	r5, [r3, #-1327]!	; 0x52f
     b2c:	622f7372 	eorvs	r7, pc, #-939524095	; 0xc8000001
     b30:	6e616972 	mcrvs	9, 3, r6, cr1, cr2, {3}
     b34:	2f6e756a 	svccs	0x006e756a
     b38:	6b736544 	blvs	1cda050 <__bss_end__+0x1ccf948>
     b3c:	2f706f74 	svccs	0x00706f74
     b40:	6f686373 	svcvs	0x00686373
     b44:	532f6c6f 	teqpl	pc, #28416	; 0x6f00
     b48:	6e697270 	mcrvs	2, 3, r7, cr9, cr0, {3}
     b4c:	32393167 	eorscc	r3, r9, #-1073741799	; 0xc0000019
     b50:	53432f30 	movtpl	r2, #16176	; 0x3f30
     b54:	4c303432 	cfldrsmi	mvf3, [r0], #-200	; 0xffffff38
     b58:	73632f58 	cmnvc	r3, #88, 30	; 0x160
     b5c:	6c303432 	cfldrsvs	mvf3, [r0], #-200	; 0xffffff38
     b60:	30322d78 	eorscc	r2, r2, r8, ror sp
     b64:	2f727073 	svccs	0x00727073
     b68:	7062696c 	rsbvc	r6, r2, ip, ror #18
     b6c:	6e692f69 	cdpvs	15, 6, cr2, cr9, cr9, {3}
     b70:	64756c63 	ldrbtvs	r6, [r5], #-3171	; 0xc63
     b74:	63000065 	movwvs	r0, #101	; 0x65
     b78:	72617473 	rsbvc	r7, r1, #1929379840	; 0x73000000
     b7c:	00632e74 	rsbeq	r2, r3, r4, ror lr
     b80:	72000001 	andvc	r0, r0, #1
     b84:	682e6970 	stmdavs	lr!, {r4, r5, r6, r8, fp, sp, lr}
     b88:	00000200 	andeq	r0, r0, r0, lsl #4
     b8c:	02050000 	andeq	r0, r5, #0
     b90:	00009534 	andeq	r9, r0, r4, lsr r5
     b94:	32010c03 	andcc	r0, r1, #768	; 0x300
     b98:	2f2d2f31 	svccs	0x002d2f31
     b9c:	01040200 	mrseq	r0, R12_usr
     ba0:	4a090349 	bmi	2418cc <__bss_end__+0x2371c4>
     ba4:	2f2e0d03 	svccs	0x002e0d03
     ba8:	01000602 	tsteq	r0, r2, lsl #12
     bac:	0000a201 	andeq	sl, r0, r1, lsl #4
     bb0:	8e000200 	cdphi	2, 0, cr0, cr0, cr0, {0}
     bb4:	02000000 	andeq	r0, r0, #0
     bb8:	0d0efb01 	vstreq	d15, [lr, #-4]
     bbc:	01010100 	mrseq	r0, (UNDEF: 17)
     bc0:	00000001 	andeq	r0, r0, r1
     bc4:	01000001 	tsteq	r0, r1
     bc8:	66617473 			; <UNDEFINED> instruction: 0x66617473
     bcc:	72732d66 	rsbsvc	r2, r3, #6528	; 0x1980
     bd0:	552f0063 	strpl	r0, [pc, #-99]!	; b75 <__code_start__-0x748b>
     bd4:	73726573 	cmnvc	r2, #482344960	; 0x1cc00000
     bd8:	6972622f 	ldmdbvs	r2!, {r0, r1, r2, r3, r5, r9, sp, lr}^
     bdc:	756a6e61 	strbvc	r6, [sl, #-3681]!	; 0xe61
     be0:	65442f6e 	strbvs	r2, [r4, #-3950]	; 0xf6e
     be4:	6f746b73 	svcvs	0x00746b73
     be8:	63732f70 	cmnvs	r3, #112, 30	; 0x1c0
     bec:	6c6f6f68 	stclvs	15, cr6, [pc], #-416	; a54 <__code_start__-0x75ac>
     bf0:	7270532f 	rsbsvc	r5, r0, #-1140850688	; 0xbc000000
     bf4:	31676e69 	cmncc	r7, r9, ror #28
     bf8:	2f303239 	svccs	0x00303239
     bfc:	34325343 	ldrtcc	r5, [r2], #-835	; 0x343
     c00:	2f584c30 	svccs	0x00584c30
     c04:	34327363 	ldrtcc	r7, [r2], #-867	; 0x363
     c08:	2d786c30 	ldclcs	12, cr6, [r8, #-192]!	; 0xffffff40
     c0c:	70733032 	rsbsvc	r3, r3, r2, lsr r0
     c10:	696c2f72 	stmdbvs	ip!, {r1, r4, r5, r6, r8, r9, sl, fp, sp}^
     c14:	2f697062 	svccs	0x00697062
     c18:	6c636e69 	stclvs	14, cr6, [r3], #-420	; 0xfffffe5c
     c1c:	00656475 	rsbeq	r6, r5, r5, ror r4
     c20:	66656400 	strbtvs	r6, [r5], -r0, lsl #8
     c24:	746c7561 	strbtvc	r7, [ip], #-1377	; 0x561
     c28:	6e61682d 	cdpvs	8, 6, cr6, cr1, cr13, {1}
     c2c:	72656c64 	rsbvc	r6, r5, #100, 24	; 0x6400
     c30:	7361662d 	cmnvc	r1, #47185920	; 0x2d00000
     c34:	00632e74 	rsbeq	r2, r3, r4, ror lr
     c38:	72000001 	andvc	r0, r0, #1
     c3c:	682e6970 	stmdavs	lr!, {r4, r5, r6, r8, fp, sp, lr}
     c40:	00000200 	andeq	r0, r0, r0, lsl #4
     c44:	02050000 	andeq	r0, r5, #0
     c48:	0000956c 	andeq	r9, r0, ip, ror #10
     c4c:	1c026613 	stcne	6, cr6, [r2], {19}
     c50:	a3010100 	movwge	r0, #4352	; 0x1100
     c54:	02000000 	andeq	r0, r0, #0
     c58:	00008f00 	andeq	r8, r0, r0, lsl #30
     c5c:	fb010200 	blx	41466 <__bss_end__+0x36d5e>
     c60:	01000d0e 	tsteq	r0, lr, lsl #26
     c64:	00010101 	andeq	r0, r1, r1, lsl #2
     c68:	00010000 	andeq	r0, r1, r0
     c6c:	74730100 	ldrbtvc	r0, [r3], #-256	; 0x100
     c70:	2d666661 	stclcs	6, cr6, [r6, #-388]!	; 0xfffffe7c
     c74:	00637273 	rsbeq	r7, r3, r3, ror r2
     c78:	6573552f 	ldrbvs	r5, [r3, #-1327]!	; 0x52f
     c7c:	622f7372 	eorvs	r7, pc, #-939524095	; 0xc8000001
     c80:	6e616972 	mcrvs	9, 3, r6, cr1, cr2, {3}
     c84:	2f6e756a 	svccs	0x006e756a
     c88:	6b736544 	blvs	1cda1a0 <__bss_end__+0x1ccfa98>
     c8c:	2f706f74 	svccs	0x00706f74
     c90:	6f686373 	svcvs	0x00686373
     c94:	532f6c6f 	teqpl	pc, #28416	; 0x6f00
     c98:	6e697270 	mcrvs	2, 3, r7, cr9, cr0, {3}
     c9c:	32393167 	eorscc	r3, r9, #-1073741799	; 0xc0000019
     ca0:	53432f30 	movtpl	r2, #16176	; 0x3f30
     ca4:	4c303432 	cfldrsmi	mvf3, [r0], #-200	; 0xffffff38
     ca8:	73632f58 	cmnvc	r3, #88, 30	; 0x160
     cac:	6c303432 	cfldrsvs	mvf3, [r0], #-200	; 0xffffff38
     cb0:	30322d78 	eorscc	r2, r2, r8, ror sp
     cb4:	2f727073 	svccs	0x00727073
     cb8:	7062696c 	rsbvc	r6, r2, ip, ror #18
     cbc:	6e692f69 	cdpvs	15, 6, cr2, cr9, cr9, {3}
     cc0:	64756c63 	ldrbtvs	r6, [r5], #-3171	; 0xc63
     cc4:	64000065 	strvs	r0, [r0], #-101	; 0x65
     cc8:	75616665 	strbvc	r6, [r1, #-1637]!	; 0x665
     ccc:	682d746c 	stmdavs	sp!, {r2, r3, r5, r6, sl, ip, sp, lr}
     cd0:	6c646e61 	stclvs	14, cr6, [r4], #-388	; 0xfffffe7c
     cd4:	722d7265 	eorvc	r7, sp, #1342177286	; 0x50000006
     cd8:	74657365 	strbtvc	r7, [r5], #-869	; 0x365
     cdc:	0100632e 	tsteq	r0, lr, lsr #6
     ce0:	70720000 	rsbsvc	r0, r2, r0
     ce4:	00682e69 	rsbeq	r2, r8, r9, ror #28
     ce8:	00000002 	andeq	r0, r0, r2
     cec:	b0020500 	andlt	r0, r2, r0, lsl #10
     cf0:	13000095 	movwne	r0, #149	; 0x95
     cf4:	001c0266 	andseq	r0, ip, r6, ror #4
     cf8:	00ac0101 	adceq	r0, ip, r1, lsl #2
     cfc:	00020000 	andeq	r0, r2, r0
     d00:	00000098 	muleq	r0, r8, r0
     d04:	0efb0102 	cdpeq	1, 15, cr0, cr11, cr2, {0}
     d08:	0101000d 	tsteq	r1, sp
     d0c:	00000101 	andeq	r0, r0, r1, lsl #2
     d10:	00000100 	andeq	r0, r0, r0, lsl #2
     d14:	61747301 	cmnvs	r4, r1, lsl #6
     d18:	732d6666 	teqvc	sp, #106954752	; 0x6600000
     d1c:	2f006372 	svccs	0x00006372
     d20:	72657355 	rsbvc	r7, r5, #1409286145	; 0x54000001
     d24:	72622f73 	rsbvc	r2, r2, #460	; 0x1cc
     d28:	6a6e6169 	bvs	1b992d4 <__bss_end__+0x1b8ebcc>
     d2c:	442f6e75 	strtmi	r6, [pc], #-3701	; d34 <__code_start__-0x72cc>
     d30:	746b7365 	strbtvc	r7, [fp], #-869	; 0x365
     d34:	732f706f 	teqvc	pc, #111	; 0x6f
     d38:	6f6f6863 	svcvs	0x006f6863
     d3c:	70532f6c 	subsvc	r2, r3, ip, ror #30
     d40:	676e6972 			; <UNDEFINED> instruction: 0x676e6972
     d44:	30323931 	eorscc	r3, r2, r1, lsr r9
     d48:	3253432f 	subscc	r4, r3, #-1140850688	; 0xbc000000
     d4c:	584c3034 	stmdapl	ip, {r2, r4, r5, ip, sp}^
     d50:	3273632f 	rsbscc	r6, r3, #-1140850688	; 0xbc000000
     d54:	786c3034 	stmdavc	ip!, {r2, r4, r5, ip, sp}^
     d58:	7330322d 	teqvc	r0, #-805306366	; 0xd0000002
     d5c:	6c2f7270 	sfmvs	f7, 4, [pc], #-448	; ba4 <__code_start__-0x745c>
     d60:	69706269 	ldmdbvs	r0!, {r0, r3, r5, r6, r9, sp, lr}^
     d64:	636e692f 	cmnvs	lr, #770048	; 0xbc000
     d68:	6564756c 	strbvs	r7, [r4, #-1388]!	; 0x56c
     d6c:	65640000 	strbvs	r0, [r4, #-0]!
     d70:	6c756166 	ldfvse	f6, [r5], #-408	; 0xfffffe68
     d74:	61682d74 	smcvs	33492	; 0x82d4
     d78:	656c646e 	strbvs	r6, [ip, #-1134]!	; 0x46e
     d7c:	6e752d72 	mrcvs	13, 3, r2, cr5, cr2, {3}
     d80:	69666564 	stmdbvs	r6!, {r2, r5, r6, r8, sl, sp, lr}^
     d84:	2d64656e 	cfstr64cs	mvdx6, [r4, #-440]!	; 0xfffffe48
     d88:	74736e69 	ldrbtvc	r6, [r3], #-3689	; 0xe69
     d8c:	0100632e 	tsteq	r0, lr, lsr #6
     d90:	70720000 	rsbsvc	r0, r2, r0
     d94:	00682e69 	rsbeq	r2, r8, r9, ror #28
     d98:	00000002 	andeq	r0, r0, r2
     d9c:	f4020500 	vst3.8	{d0,d2,d4}, [r2], r0
     da0:	13000095 	movwne	r0, #149	; 0x95
     da4:	001c0266 	andseq	r0, ip, r6, ror #4
     da8:	00470101 	subeq	r0, r7, r1, lsl #2
     dac:	00020000 	andeq	r0, r2, r0
     db0:	00000033 	andeq	r0, r0, r3, lsr r0
     db4:	0efb0102 	cdpeq	1, 15, cr0, cr11, cr2, {0}
     db8:	0101000d 	tsteq	r1, sp
     dbc:	00000101 	andeq	r0, r0, r1, lsl #2
     dc0:	00000100 	andeq	r0, r0, r0, lsl #2
     dc4:	61747301 	cmnvs	r4, r1, lsl #6
     dc8:	732d6666 	teqvc	sp, #106954752	; 0x6600000
     dcc:	00006372 	andeq	r6, r0, r2, ror r3
     dd0:	61666564 	cmnvs	r6, r4, ror #10
     dd4:	2d746c75 	ldclcs	12, cr6, [r4, #-468]!	; 0xfffffe2c
     dd8:	646e6168 	strbtvs	r6, [lr], #-360	; 0x168
     ddc:	7372656c 	cmnvc	r2, #108, 10	; 0x1b000000
     de0:	0100632e 	tsteq	r0, lr, lsr #6
     de4:	00000000 	andeq	r0, r0, r0
     de8:	96380205 	ldrtls	r0, [r8], -r5, lsl #4
     dec:	2f150000 	svccs	0x00150000
     df0:	01000202 	tsteq	r0, r2, lsl #4
     df4:	0000c901 	andeq	ip, r0, r1, lsl #18
     df8:	9a000200 	bls	1600 <__code_start__-0x6a00>
     dfc:	02000000 	andeq	r0, r0, #0
     e00:	0d0efb01 	vstreq	d15, [lr, #-4]
     e04:	01010100 	mrseq	r0, (UNDEF: 17)
     e08:	00000001 	andeq	r0, r0, r1
     e0c:	01000001 	tsteq	r0, r1
     e10:	66617473 			; <UNDEFINED> instruction: 0x66617473
     e14:	72732d66 	rsbsvc	r2, r3, #6528	; 0x1980
     e18:	552f0063 	strpl	r0, [pc, #-99]!	; dbd <__code_start__-0x7243>
     e1c:	73726573 	cmnvc	r2, #482344960	; 0x1cc00000
     e20:	6972622f 	ldmdbvs	r2!, {r0, r1, r2, r3, r5, r9, sp, lr}^
     e24:	756a6e61 	strbvc	r6, [sl, #-3681]!	; 0xe61
     e28:	65442f6e 	strbvs	r2, [r4, #-3950]	; 0xf6e
     e2c:	6f746b73 	svcvs	0x00746b73
     e30:	63732f70 	cmnvs	r3, #112, 30	; 0x1c0
     e34:	6c6f6f68 	stclvs	15, cr6, [pc], #-416	; c9c <__code_start__-0x7364>
     e38:	7270532f 	rsbsvc	r5, r0, #-1140850688	; 0xbc000000
     e3c:	31676e69 	cmncc	r7, r9, ror #28
     e40:	2f303239 	svccs	0x00303239
     e44:	34325343 	ldrtcc	r5, [r2], #-835	; 0x343
     e48:	2f584c30 	svccs	0x00584c30
     e4c:	34327363 	ldrtcc	r7, [r2], #-867	; 0x363
     e50:	2d786c30 	ldclcs	12, cr6, [r8, #-192]!	; 0xffffff40
     e54:	70733032 	rsbsvc	r3, r3, r2, lsr r0
     e58:	696c2f72 	stmdbvs	ip!, {r1, r4, r5, r6, r8, r9, sl, fp, sp}^
     e5c:	2f697062 	svccs	0x00697062
     e60:	6c636e69 	stclvs	14, cr6, [r3], #-420	; 0xfffffe5c
     e64:	00656475 	rsbeq	r6, r5, r5, ror r4
     e68:	746e6900 	strbtvc	r6, [lr], #-2304	; 0x900
     e6c:	75727265 	ldrbvc	r7, [r2, #-613]!	; 0x265
     e70:	2d737470 	cfldrdcs	mvd7, [r3, #-448]!	; 0xfffffe40
     e74:	00632e63 	rsbeq	r2, r3, r3, ror #28
     e78:	72000001 	andvc	r0, r0, #1
     e7c:	692d6970 	pushvs	{r4, r5, r6, r8, fp, sp, lr}
     e80:	7265746e 	rsbvc	r7, r5, #1845493760	; 0x6e000000
     e84:	74707572 	ldrbtvc	r7, [r0], #-1394	; 0x572
     e88:	00682e73 	rsbeq	r2, r8, r3, ror lr
     e8c:	72000002 	andvc	r0, r0, #2
     e90:	682e6970 	stmdavs	lr!, {r4, r5, r6, r8, fp, sp, lr}
     e94:	00000200 	andeq	r0, r0, r0, lsl #4
     e98:	02050000 	andeq	r0, r5, #0
     e9c:	00009640 	andeq	r9, r0, r0, asr #12
     ea0:	31011a03 	tstcc	r1, r3, lsl #20
     ea4:	3667672f 	strbtcc	r6, [r7], -pc, lsr #14
     ea8:	002d2f83 	eoreq	r2, sp, r3, lsl #31
     eac:	2f020402 	svccs	0x00020402
     eb0:	02040200 	andeq	r0, r4, #0, 4
     eb4:	04020065 	streq	r0, [r2], #-101	; 0x65
     eb8:	062e0601 	strteq	r0, [lr], -r1, lsl #12
     ebc:	000a024c 	andeq	r0, sl, ip, asr #4
     ec0:	00a20101 	adceq	r0, r2, r1, lsl #2
     ec4:	00020000 	andeq	r0, r2, r0
     ec8:	00000080 	andeq	r0, r0, r0, lsl #1
     ecc:	0efb0102 	cdpeq	1, 15, cr0, cr11, cr2, {0}
     ed0:	0101000d 	tsteq	r1, sp
     ed4:	00000101 	andeq	r0, r0, r1, lsl #2
     ed8:	00000100 	andeq	r0, r0, r0, lsl #2
     edc:	61747301 	cmnvs	r4, r1, lsl #6
     ee0:	732d6666 	teqvc	sp, #106954752	; 0x6600000
     ee4:	2f006372 	svccs	0x00006372
     ee8:	72657355 	rsbvc	r7, r5, #1409286145	; 0x54000001
     eec:	72622f73 	rsbvc	r2, r2, #460	; 0x1cc
     ef0:	6a6e6169 	bvs	1b9949c <__bss_end__+0x1b8ed94>
     ef4:	442f6e75 	strtmi	r6, [pc], #-3701	; efc <__code_start__-0x7104>
     ef8:	746b7365 	strbtvc	r7, [fp], #-869	; 0x365
     efc:	732f706f 	teqvc	pc, #111	; 0x6f
     f00:	6f6f6863 	svcvs	0x006f6863
     f04:	70532f6c 	subsvc	r2, r3, ip, ror #30
     f08:	676e6972 			; <UNDEFINED> instruction: 0x676e6972
     f0c:	30323931 	eorscc	r3, r2, r1, lsr r9
     f10:	3253432f 	subscc	r4, r3, #-1140850688	; 0xbc000000
     f14:	584c3034 	stmdapl	ip, {r2, r4, r5, ip, sp}^
     f18:	3273632f 	rsbscc	r6, r3, #-1140850688	; 0xbc000000
     f1c:	786c3034 	stmdavc	ip!, {r2, r4, r5, ip, sp}^
     f20:	7330322d 	teqvc	r0, #-805306366	; 0xd0000002
     f24:	6c2f7270 	sfmvs	f7, 4, [pc], #-448	; d6c <__code_start__-0x7294>
     f28:	69706269 	ldmdbvs	r0!, {r0, r3, r5, r6, r9, sp, lr}^
     f2c:	636e692f 	cmnvs	lr, #770048	; 0xbc000
     f30:	6564756c 	strbvs	r7, [r4, #-1388]!	; 0x56c
     f34:	65720000 	ldrbvs	r0, [r2, #-0]!
     f38:	746f6f62 	strbtvc	r6, [pc], #-3938	; f40 <__code_start__-0x70c0>
     f3c:	0100632e 	tsteq	r0, lr, lsr #6
     f40:	70720000 	rsbsvc	r0, r2, r0
     f44:	00682e69 	rsbeq	r2, r8, r9, ror #28
     f48:	00000002 	andeq	r0, r0, r2
     f4c:	ac020500 	cfstr32ge	mvfx0, [r2], {-0}
     f50:	03000096 	movweq	r0, #150	; 0x96
     f54:	3114010d 	tstcc	r4, sp, lsl #2
     f58:	2f15852f 	svccs	0x0015852f
     f5c:	672f4d4b 	strvs	r4, [pc, -fp, asr #26]!
     f60:	02675235 	rsbeq	r5, r7, #1342177283	; 0x50000003
     f64:	01010010 	tsteq	r1, r0, lsl r0
     f68:	000000ae 	andeq	r0, r0, lr, lsr #1
     f6c:	007f0002 	rsbseq	r0, pc, r2
     f70:	01020000 	mrseq	r0, (UNDEF: 2)
     f74:	000d0efb 	strdeq	r0, [sp], -fp
     f78:	01010101 	tsteq	r1, r1, lsl #2
     f7c:	01000000 	mrseq	r0, (UNDEF: 0)
     f80:	73010000 	movwvc	r0, #4096	; 0x1000
     f84:	66666174 			; <UNDEFINED> instruction: 0x66666174
     f88:	6372732d 	cmnvs	r2, #-1275068416	; 0xb4000000
     f8c:	73552f00 	cmpvc	r5, #0, 30
     f90:	2f737265 	svccs	0x00737265
     f94:	61697262 	cmnvs	r9, r2, ror #4
     f98:	6e756a6e 	vsubvs.f32	s13, s10, s29
     f9c:	7365442f 	cmnvc	r5, #788529152	; 0x2f000000
     fa0:	706f746b 	rsbvc	r7, pc, fp, ror #8
     fa4:	6863732f 	stmdavs	r3!, {r0, r1, r2, r3, r5, r8, r9, ip, sp, lr}^
     fa8:	2f6c6f6f 	svccs	0x006c6f6f
     fac:	69727053 	ldmdbvs	r2!, {r0, r1, r4, r6, ip, sp, lr}^
     fb0:	3931676e 	ldmdbcc	r1!, {r1, r2, r3, r5, r6, r8, r9, sl, sp, lr}
     fb4:	432f3032 	teqmi	pc, #50	; 0x32
     fb8:	30343253 	eorscc	r3, r4, r3, asr r2
     fbc:	632f584c 	teqvs	pc, #76, 16	; 0x4c0000
     fc0:	30343273 	eorscc	r3, r4, r3, ror r2
     fc4:	322d786c 	eorcc	r7, sp, #108, 16	; 0x6c0000
     fc8:	72707330 	rsbsvc	r7, r0, #48, 6	; 0xc0000000
     fcc:	62696c2f 	rsbvs	r6, r9, #12032	; 0x2f00
     fd0:	692f6970 	stmdbvs	pc!, {r4, r5, r6, r8, fp, sp, lr}	; <UNPREDICTABLE>
     fd4:	756c636e 	strbvc	r6, [ip, #-878]!	; 0x36e
     fd8:	00006564 	andeq	r6, r0, r4, ror #10
     fdc:	656d6974 	strbvs	r6, [sp, #-2420]!	; 0x974
     fe0:	00632e72 	rsbeq	r2, r3, r2, ror lr
     fe4:	72000001 	andvc	r0, r0, #1
     fe8:	682e6970 	stmdavs	lr!, {r4, r5, r6, r8, fp, sp, lr}
     fec:	00000200 	andeq	r0, r0, r0, lsl #4
     ff0:	02050000 	andeq	r0, r5, #0
     ff4:	00009720 	andeq	r9, r0, r0, lsr #14
     ff8:	2d2f1416 	cfstrscs	mvf1, [pc, #-88]!	; fa8 <__code_start__-0x7058>
     ffc:	01040200 	mrseq	r0, R12_usr
    1000:	6d062e06 	stcvs	14, cr2, [r6, #-24]	; 0xffffffe8
    1004:	4d4b2f31 	stclmi	15, cr2, [fp, #-196]	; 0xffffff3c
    1008:	304b2f31 	subcc	r2, fp, r1, lsr pc
    100c:	2f4c4b4c 	svccs	0x004c4b4c
    1010:	842f2f6a 	strthi	r2, [pc], #-3946	; 1018 <__code_start__-0x6fe8>
    1014:	0008022f 	andeq	r0, r8, pc, lsr #4
    1018:	01480101 	cmpeq	r8, r1, lsl #2
    101c:	00020000 	andeq	r0, r2, r0
    1020:	00000102 	andeq	r0, r0, r2, lsl #2
    1024:	0efb0102 	cdpeq	1, 15, cr0, cr11, cr2, {0}
    1028:	0101000d 	tsteq	r1, sp
    102c:	00000101 	andeq	r0, r0, r1, lsl #2
    1030:	00000100 	andeq	r0, r0, r0, lsl #2
    1034:	73752f01 	cmnvc	r5, #1, 30
    1038:	6e692f72 	mcrvs	15, 3, r2, cr9, cr2, {3}
    103c:	64756c63 	ldrbtvs	r6, [r5], #-3171	; 0xc63
    1040:	656e2f65 	strbvs	r2, [lr, #-3941]!	; 0xf65
    1044:	62696c77 	rsbvs	r6, r9, #30464	; 0x7700
    1048:	7379732f 	cmnvc	r9, #-1140850688	; 0xbc000000
    104c:	73752f00 	cmnvc	r5, #0, 30
    1050:	696c2f72 	stmdbvs	ip!, {r1, r4, r5, r6, r8, r9, sl, fp, sp}^
    1054:	63672f62 	cmnvs	r7, #392	; 0x188
    1058:	72612f63 	rsbvc	r2, r1, #396	; 0x18c
    105c:	6f6e2d6d 	svcvs	0x006e2d6d
    1060:	652d656e 	strvs	r6, [sp, #-1390]!	; 0x56e
    1064:	2f696261 	svccs	0x00696261
    1068:	2e332e36 	mrccs	14, 1, r2, cr3, cr6, {1}
    106c:	6e692f31 	mcrvs	15, 3, r2, cr9, cr1, {1}
    1070:	64756c63 	ldrbtvs	r6, [r5], #-3171	; 0xc63
    1074:	682f0065 	stmdavs	pc!, {r0, r2, r5, r6}	; <UNPREDICTABLE>
    1078:	2f656d6f 	svccs	0x00656d6f
    107c:	6c676e65 	stclvs	14, cr6, [r7], #-404	; 0xfffffe6c
    1080:	632f7265 	teqvs	pc, #1342177286	; 0x50000006
    1084:	7373616c 	cmnvc	r3, #108, 2
    1088:	3273632f 	rsbscc	r6, r3, #-1140850688	; 0xbc000000
    108c:	786c3034 	stmdavc	ip!, {r2, r4, r5, ip, sp}^
    1090:	7330322d 	teqvc	r0, #-805306366	; 0xd0000002
    1094:	2f2f7270 	svccs	0x002f7270
    1098:	7062696c 	rsbvc	r6, r2, ip, ror #18
    109c:	682f0069 	stmdavs	pc!, {r0, r3, r5, r6}	; <UNPREDICTABLE>
    10a0:	2f656d6f 	svccs	0x00656d6f
    10a4:	6c676e65 	stclvs	14, cr6, [r7], #-404	; 0xfffffe6c
    10a8:	632f7265 	teqvs	pc, #1342177286	; 0x50000006
    10ac:	7373616c 	cmnvc	r3, #108, 2
    10b0:	3273632f 	rsbscc	r6, r3, #-1140850688	; 0xbc000000
    10b4:	786c3034 	stmdavc	ip!, {r2, r4, r5, ip, sp}^
    10b8:	7330322d 	teqvc	r0, #-805306366	; 0xd0000002
    10bc:	2f2f7270 	svccs	0x002f7270
    10c0:	7062696c 	rsbvc	r6, r2, ip, ror #18
    10c4:	74732f69 	ldrbtvc	r2, [r3], #-3945	; 0xf69
    10c8:	2d666661 	stclcs	6, cr6, [r6, #-388]!	; 0xfffffe7c
    10cc:	00637273 	rsbeq	r7, r3, r3, ror r2
    10d0:	72617500 	rsbvc	r7, r1, #0, 10
    10d4:	00632e74 	rsbeq	r2, r3, r4, ror lr
    10d8:	6c000000 	stcvs	0, cr0, [r0], {-0}
    10dc:	2e6b636f 	cdpcs	3, 6, cr6, cr11, cr15, {3}
    10e0:	00010068 	andeq	r0, r1, r8, rrx
    10e4:	79745f00 	ldmdbvc	r4!, {r8, r9, sl, fp, ip, lr}^
    10e8:	2e736570 	mrccs	5, 3, r6, cr3, cr0, {3}
    10ec:	00010068 	andeq	r0, r1, r8, rrx
    10f0:	64747300 	ldrbtvs	r7, [r4], #-768	; 0x300
    10f4:	2e666564 	cdpcs	5, 6, cr6, cr6, cr4, {3}
    10f8:	00020068 	andeq	r0, r2, r8, rrx
    10fc:	65657200 	strbvs	r7, [r5, #-512]!	; 0x200
    1100:	682e746e 	stmdavs	lr!, {r1, r2, r3, r5, r6, sl, ip, sp, lr}
    1104:	00000100 	andeq	r0, r0, r0, lsl #2
    1108:	2e697072 	mcrcs	0, 3, r7, cr9, cr2, {3}
    110c:	00030068 	andeq	r0, r3, r8, rrx
    1110:	72617500 	rsbvc	r7, r1, #0, 10
    1114:	00682e74 	rsbeq	r2, r8, r4, ror lr
    1118:	67000004 	strvs	r0, [r0, -r4]
    111c:	2e6f6970 	mcrcs	9, 3, r6, cr15, cr0, {3}
    1120:	00040068 	andeq	r0, r4, r8, rrx
    1124:	05000000 	streq	r0, [r0, #-0]
    1128:	00981c02 	addseq	r1, r8, r2, lsl #24
    112c:	012c0300 	teqeq	ip, r0, lsl #6
    1130:	9e0c0367 	cdpls	3, 0, cr0, cr12, cr7, {3}
    1134:	35686735 	strbcc	r6, [r8, #-1845]!	; 0x735
    1138:	2e0c0368 	cdpcs	3, 0, cr0, cr12, cr8, {3}
    113c:	69696b85 	stmdbvs	r9!, {r0, r2, r7, r8, r9, fp, sp, lr}^
    1140:	6b660c03 	blvs	1984154 <__bss_end__+0x1979a4c>
    1144:	34420867 	strbcc	r0, [r2], #-2151	; 0x867
    1148:	68364b68 	ldmdavs	r6!, {r3, r5, r6, r8, r9, fp, lr}
    114c:	02002f87 	andeq	r2, r0, #540	; 0x21c
    1150:	682f0104 	stmdavs	pc!, {r2, r8}	; <UNPREDICTABLE>
    1154:	4b673067 	blmi	19cd2f8 <__bss_end__+0x19c2bf0>
    1158:	01040200 	mrseq	r0, R12_usr
    115c:	6967682f 	stmdbvs	r7!, {r0, r1, r2, r3, r5, fp, sp, lr}^
    1160:	0006022e 	andeq	r0, r6, lr, lsr #4
    1164:	012b0101 	teqeq	fp, r1, lsl #2
    1168:	00020000 	andeq	r0, r2, r0
    116c:	000000f8 	strdeq	r0, [r0], -r8
    1170:	0efb0102 	cdpeq	1, 15, cr0, cr11, cr2, {0}
    1174:	0101000d 	tsteq	r1, sp
    1178:	00000101 	andeq	r0, r0, r1, lsl #2
    117c:	00000100 	andeq	r0, r0, r0, lsl #2
    1180:	73752f01 	cmnvc	r5, #1, 30
    1184:	6e692f72 	mcrvs	15, 3, r2, cr9, cr2, {3}
    1188:	64756c63 	ldrbtvs	r6, [r5], #-3171	; 0xc63
    118c:	656e2f65 	strbvs	r2, [lr, #-3941]!	; 0xf65
    1190:	62696c77 	rsbvs	r6, r9, #30464	; 0x7700
    1194:	7379732f 	cmnvc	r9, #-1140850688	; 0xbc000000
    1198:	73752f00 	cmnvc	r5, #0, 30
    119c:	696c2f72 	stmdbvs	ip!, {r1, r4, r5, r6, r8, r9, sl, fp, sp}^
    11a0:	63672f62 	cmnvs	r7, #392	; 0x188
    11a4:	72612f63 	rsbvc	r2, r1, #396	; 0x18c
    11a8:	6f6e2d6d 	svcvs	0x006e2d6d
    11ac:	652d656e 	strvs	r6, [sp, #-1390]!	; 0x56e
    11b0:	2f696261 	svccs	0x00696261
    11b4:	2e332e36 	mrccs	14, 1, r2, cr3, cr6, {1}
    11b8:	6e692f31 	mcrvs	15, 3, r2, cr9, cr1, {1}
    11bc:	64756c63 	ldrbtvs	r6, [r5], #-3171	; 0xc63
    11c0:	682f0065 	stmdavs	pc!, {r0, r2, r5, r6}	; <UNPREDICTABLE>
    11c4:	2f656d6f 	svccs	0x00656d6f
    11c8:	6c676e65 	stclvs	14, cr6, [r7], #-404	; 0xfffffe6c
    11cc:	632f7265 	teqvs	pc, #1342177286	; 0x50000006
    11d0:	7373616c 	cmnvc	r3, #108, 2
    11d4:	3273632f 	rsbscc	r6, r3, #-1140850688	; 0xbc000000
    11d8:	786c3034 	stmdavc	ip!, {r2, r4, r5, ip, sp}^
    11dc:	7330322d 	teqvc	r0, #-805306366	; 0xd0000002
    11e0:	2f2f7270 	svccs	0x002f7270
    11e4:	7062696c 	rsbvc	r6, r2, ip, ror #18
    11e8:	682f0069 	stmdavs	pc!, {r0, r3, r5, r6}	; <UNPREDICTABLE>
    11ec:	2f656d6f 	svccs	0x00656d6f
    11f0:	6c676e65 	stclvs	14, cr6, [r7], #-404	; 0xfffffe6c
    11f4:	632f7265 	teqvs	pc, #1342177286	; 0x50000006
    11f8:	7373616c 	cmnvc	r3, #108, 2
    11fc:	3273632f 	rsbscc	r6, r3, #-1140850688	; 0xbc000000
    1200:	786c3034 	stmdavc	ip!, {r2, r4, r5, ip, sp}^
    1204:	7330322d 	teqvc	r0, #-805306366	; 0xd0000002
    1208:	2f2f7270 	svccs	0x002f7270
    120c:	7062696c 	rsbvc	r6, r2, ip, ror #18
    1210:	74732f69 	ldrbtvc	r2, [r3], #-3945	; 0xf69
    1214:	2d666661 	stclcs	6, cr6, [r6, #-388]!	; 0xfffffe7c
    1218:	00637273 	rsbeq	r7, r3, r3, ror r2
    121c:	69706700 	ldmdbvs	r0!, {r8, r9, sl, sp, lr}^
    1220:	00632e6f 	rsbeq	r2, r3, pc, ror #28
    1224:	6c000000 	stcvs	0, cr0, [r0], {-0}
    1228:	2e6b636f 	cdpcs	3, 6, cr6, cr11, cr15, {3}
    122c:	00010068 	andeq	r0, r1, r8, rrx
    1230:	79745f00 	ldmdbvc	r4!, {r8, r9, sl, fp, ip, lr}^
    1234:	2e736570 	mrccs	5, 3, r6, cr3, cr0, {3}
    1238:	00010068 	andeq	r0, r1, r8, rrx
    123c:	64747300 	ldrbtvs	r7, [r4], #-768	; 0x300
    1240:	2e666564 	cdpcs	5, 6, cr6, cr6, cr4, {3}
    1244:	00020068 	andeq	r0, r2, r8, rrx
    1248:	65657200 	strbvs	r7, [r5, #-512]!	; 0x200
    124c:	682e746e 	stmdavs	lr!, {r1, r2, r3, r5, r6, sl, ip, sp, lr}
    1250:	00000100 	andeq	r0, r0, r0, lsl #2
    1254:	2e697072 	mcrcs	0, 3, r7, cr9, cr2, {3}
    1258:	00030068 	andeq	r0, r3, r8, rrx
    125c:	69706700 	ldmdbvs	r0!, {r8, r9, sl, sp, lr}^
    1260:	00682e6f 	rsbeq	r2, r8, pc, ror #28
    1264:	00000004 	andeq	r0, r0, r4
    1268:	94020500 	strls	r0, [r2], #-1280	; 0x500
    126c:	03000099 	movweq	r0, #153	; 0x99
    1270:	4c130127 	ldfmis	f0, [r3], {39}	; 0x27
    1274:	68f44f47 	ldmvs	r4!, {r0, r1, r2, r6, r8, r9, sl, fp, lr}^
    1278:	2fa14c4b 	svccs	0x00a14c4b
    127c:	3149136a 	cmpcc	r9, sl, ror #6
    1280:	314913be 	strhcc	r1, [r9, #-62]	; 0xffffffc2
    1284:	2f6a2fbe 	svccs	0x006a2fbe
    1288:	134f484d 	movtne	r4, #63565	; 0xf84d
    128c:	b72f3249 	strlt	r3, [pc, -r9, asr #4]!
    1290:	01000602 	tsteq	r0, r2, lsl #12
    1294:	Address 0x0000000000001294 is out of bounds.


Disassembly of section .debug_str:

00000000 <.debug_str>:
   0:	5f746e63 	svcpl	0x00746e63
   4:	74696e69 	strbtvc	r6, [r9], #-3689	; 0xe69
   8:	73797300 	cmnvc	r9, #0, 6
   c:	636f6c5f 	cmnvs	pc, #24320	; 0x5f00
  10:	72745f6b 	rsbsvc	r5, r4, #428	; 0x1ac
  14:	746e0079 	strbtvc	r0, [lr], #-121	; 0x79
  18:	6c616972 	stclvs	9, cr6, [r1], #-456	; 0xfffffe38
  1c:	68630073 	stmdavs	r3!, {r0, r1, r4, r5, r6}^
  20:	656b6365 	strbvs	r6, [fp, #-869]!	; 0x365
  24:	00745f72 	rsbseq	r5, r4, r2, ror pc
  28:	74736e69 	ldrbtvc	r6, [r3], #-3689	; 0xe69
  2c:	756f635f 	strbvc	r6, [pc, #-863]!	; fffffcd5 <__bss_end__+0xffff55cd>
  30:	6e00746e 	cdpvs	4, 0, cr7, cr0, cr14, {3}
  34:	616d746f 	cmnvs	sp, pc, ror #8
  38:	63006e69 	movwvs	r6, #3689	; 0xe69
  3c:	415f746e 	cmpmi	pc, lr, ror #8
  40:	746e6300 	strbtvc	r6, [lr], #-768	; 0x300
  44:	6e00425f 	mcrvs	2, 0, r4, cr0, cr15, {2}
  48:	6f727265 	svcvs	0x00727265
  4c:	47007372 	smlsdxmi	r0, r2, r3, r7
  50:	4320554e 	teqmi	r0, #327155712	; 0x13800000
  54:	382e3420 	stmdacc	lr!, {r5, sl, ip, sp}
  58:	2d20332e 	stccs	3, cr3, [r0, #-184]!	; 0xffffff48
  5c:	7570636d 	ldrbvc	r6, [r0, #-877]!	; 0x36d
  60:	6d72613d 	ldfvse	f6, [r2, #-244]!	; 0xffffff0c
  64:	36373131 			; <UNDEFINED> instruction: 0x36373131
  68:	2d667a6a 	vstmdbcs	r6!, {s15-s120}
  6c:	6d2d2073 	stcvs	0, cr2, [sp, #-460]!	; 0xfffffe34
  70:	656e7574 	strbvs	r7, [lr, #-1396]!	; 0x574
  74:	6d72613d 	ldfvse	f6, [r2, #-244]!	; 0xffffff0c
  78:	36373131 			; <UNDEFINED> instruction: 0x36373131
  7c:	2d667a6a 	vstmdbcs	r6!, {s15-s120}
  80:	672d2073 			; <UNDEFINED> instruction: 0x672d2073
  84:	20626467 	rsbcs	r6, r2, r7, ror #8
  88:	20674f2d 	rsbcs	r4, r7, sp, lsr #30
  8c:	6474732d 	ldrbtvs	r7, [r4], #-813	; 0x32d
  90:	756e673d 	strbvc	r6, [lr, #-1853]!	; 0x73d
  94:	2d203939 	stccs	9, cr3, [r0, #-228]!	; 0xffffff1c
  98:	65726666 	ldrbvs	r6, [r2, #-1638]!	; 0x666
  9c:	61747365 	cmnvs	r4, r5, ror #6
  a0:	6e69646e 	cdpvs	4, 6, cr6, cr9, cr14, {3}
  a4:	662d2067 	strtvs	r2, [sp], -r7, rrx
  a8:	742d6f6e 	strtvc	r6, [sp], #-3950	; 0xf6e
  ac:	656c706f 	strbvs	r7, [ip, #-111]!	; 0x6f
  b0:	2d6c6576 	cfstr64cs	mvdx6, [ip, #-472]!	; 0xfffffe28
  b4:	726f6572 	rsbvc	r6, pc, #478150656	; 0x1c800000
  b8:	00726564 	rsbseq	r6, r2, r4, ror #10
  bc:	74697773 	strbtvc	r7, [r9], #-1907	; 0x773
  c0:	6f5f6863 	svcvs	0x005f6863
  c4:	6e695f6e 	cdpvs	15, 6, cr5, cr9, cr14, {3}
  c8:	6e5f7473 	mrcvs	4, 2, r7, cr15, cr3, {3}
  cc:	736e7500 	cmnvc	lr, #0, 10
  d0:	656e6769 	strbvs	r6, [lr, #-1897]!	; 0x769
  d4:	68632064 	stmdavs	r3!, {r2, r5, r6, sp}^
  d8:	63007261 	movwvs	r7, #609	; 0x261
  dc:	6e61656c 	cdpvs	5, 6, cr6, cr1, cr12, {3}
  e0:	6265725f 	rsbvs	r7, r5, #-268435451	; 0xf0000005
  e4:	00746f6f 	rsbseq	r6, r4, pc, ror #30
  e8:	726f6873 	rsbvc	r6, pc, #7536640	; 0x730000
  ec:	6e752074 	mrcvs	0, 3, r2, cr5, cr4, {3}
  f0:	6e676973 	mcrvs	9, 3, r6, cr7, cr3, {3}
  f4:	69206465 	stmdbvs	r0!, {r0, r2, r5, r6, sl, sp, lr}
  f8:	6200746e 	andvs	r7, r0, #1845493760	; 0x6e000000
  fc:	765f6b72 			; <UNDEFINED> instruction: 0x765f6b72
 100:	6f627265 	svcvs	0x00627265
 104:	705f6573 	subsvc	r6, pc, r3, ror r5	; <UNPREDICTABLE>
 108:	5f697000 	svcpl	0x00697000
 10c:	6b636f6c 	blvs	18dbec4 <__bss_end__+0x18d17bc>
 110:	7300745f 	movwvc	r7, #1119	; 0x45f
 114:	74726f68 	ldrbtvc	r6, [r2], #-3944	; 0xf68
 118:	746e6920 	strbtvc	r6, [lr], #-2336	; 0x920
 11c:	465f5f00 	ldrbmi	r5, [pc], -r0, lsl #30
 120:	54434e55 	strbpl	r4, [r3], #-3669	; 0xe55
 124:	5f4e4f49 	svcpl	0x004e4f49
 128:	6e69005f 	mcrvs	0, 3, r0, cr9, cr15, {2}
 12c:	6c726574 	cfldr64vs	mvdx6, [r2], #-464	; 0xfffffe30
 130:	69766165 	ldmdbvs	r6!, {r0, r2, r5, r6, r8, sp, lr}^
 134:	705f676e 	subsvc	r6, pc, lr, ror #14
 138:	746e6300 	strbtvc	r6, [lr], #-768	; 0x300
 13c:	5f6b6d5f 	svcpl	0x006b6d5f
 140:	63656863 	cmnvs	r5, #6488064	; 0x630000
 144:	0072656b 	rsbseq	r6, r2, fp, ror #10
 148:	74736574 	ldrbtvc	r6, [r3], #-1396	; 0x574
 14c:	302e3273 	eorcc	r3, lr, r3, ror r2
 150:	2d36312f 	ldfcss	f3, [r6, #-188]!	; 0xffffff44
 154:	74726170 	ldrbtvc	r6, [r2], #-368	; 0x170
 158:	65742d32 	ldrbvs	r2, [r4, #-3378]!	; 0xd32
 15c:	2e367473 	mrccs	4, 1, r7, cr6, cr3, {3}
 160:	6f6c0063 	svcvs	0x006c0063
 164:	6c20676e 	stcvs	7, cr6, [r0], #-440	; 0xfffffe48
 168:	20676e6f 	rsbcs	r6, r7, pc, ror #28
 16c:	69736e75 	ldmdbvs	r3!, {r0, r2, r4, r5, r6, r9, sl, fp, sp, lr}^
 170:	64656e67 	strbtvs	r6, [r5], #-3687	; 0xe67
 174:	746e6920 	strbtvc	r6, [lr], #-2336	; 0x920
 178:	77736e00 	ldrbvc	r6, [r3, -r0, lsl #28]!
 17c:	68637469 	stmdavs	r3!, {r0, r3, r5, r6, sl, ip, sp, lr}^
 180:	73007365 	movwvc	r7, #869	; 0x365
 184:	755f7379 	ldrbvc	r7, [pc, #-889]	; fffffe13 <__bss_end__+0xffff570b>
 188:	636f6c6e 	cmnvs	pc, #28160	; 0x6e00
 18c:	6973006b 	ldmdbvs	r3!, {r0, r1, r3, r5, r6}^
 190:	7974657a 	ldmdbvc	r4!, {r1, r3, r4, r5, r6, r8, sl, sp, lr}^
 194:	6c006570 	cfstr32vs	mvfx6, [r0], {112}	; 0x70
 198:	20676e6f 	rsbcs	r6, r7, pc, ror #28
 19c:	676e6f6c 	strbvs	r6, [lr, -ip, ror #30]!
 1a0:	746e6920 	strbtvc	r6, [lr], #-2336	; 0x920
 1a4:	69777300 	ldmdbvs	r7!, {r8, r9, ip, sp, lr}^
 1a8:	65686374 	strbvs	r6, [r8, #-884]!	; 0x374
 1ac:	00705f64 	rsbseq	r5, r0, r4, ror #30
 1b0:	74697773 	strbtvc	r7, [r9], #-1907	; 0x773
 1b4:	615f6863 	cmpvs	pc, r3, ror #16
 1b8:	00726464 	rsbseq	r6, r2, r4, ror #8
 1bc:	62616e65 	rsbvs	r6, r1, #1616	; 0x650
 1c0:	635f656c 	cmpvs	pc, #108, 10	; 0x1b000000
 1c4:	65686361 	strbvs	r6, [r8, #-865]!	; 0x361
 1c8:	73797300 	cmnvc	r9, #0, 6
 1cc:	636f6c5f 	cmnvs	pc, #24320	; 0x5f00
 1d0:	6e695f6b 	cdpvs	15, 6, cr5, cr9, cr11, {3}
 1d4:	63007469 	movwvs	r7, #1129	; 0x469
 1d8:	635f746e 	cmpvs	pc, #1845493760	; 0x6e000000
 1dc:	6b636568 	blvs	18d9784 <__bss_end__+0x18cf07c>
 1e0:	6e697500 	cdpvs	5, 6, cr7, cr9, cr0, {0}
 1e4:	5f323374 	svcpl	0x00323374
 1e8:	79730074 	ldmdbvc	r3!, {r2, r4, r5, r6}^
 1ec:	72745f73 	rsbsvc	r5, r4, #460	; 0x1cc
 1f0:	6f6c5f79 	svcvs	0x006c5f79
 1f4:	615f6b63 	cmpvs	pc, r3, ror #22
 1f8:	2f006d73 	svccs	0x00006d73
 1fc:	72657355 	rsbvc	r7, r5, #1409286145	; 0x54000001
 200:	72622f73 	rsbvc	r2, r2, #460	; 0x1cc
 204:	6a6e6169 	bvs	1b987b0 <__bss_end__+0x1b8e0a8>
 208:	442f6e75 	strtmi	r6, [pc], #-3701	; 210 <__code_start__-0x7df0>
 20c:	746b7365 	strbtvc	r7, [fp], #-869	; 0x365
 210:	732f706f 	teqvc	pc, #111	; 0x6f
 214:	6f6f6863 	svcvs	0x006f6863
 218:	70532f6c 	subsvc	r2, r3, ip, ror #30
 21c:	676e6972 			; <UNDEFINED> instruction: 0x676e6972
 220:	30323931 	eorscc	r3, r2, r1, lsr r9
 224:	3253432f 	subscc	r4, r3, #-1140850688	; 0xbc000000
 228:	584c3034 	stmdapl	ip, {r2, r4, r5, ip, sp}^
 22c:	3273632f 	rsbscc	r6, r3, #-1140850688	; 0xbc000000
 230:	786c3034 	stmdavc	ip!, {r2, r4, r5, ip, sp}^
 234:	7330322d 	teqvc	r0, #-805306366	; 0xd0000002
 238:	6c2f7270 	sfmvs	f7, 4, [pc], #-448	; 80 <__code_start__-0x7f80>
 23c:	2f736261 	svccs	0x00736261
 240:	6d2d3731 	stcvs	7, cr3, [sp, #-196]!	; 0xffffff3c
 244:	68636d65 	stmdavs	r3!, {r0, r2, r5, r6, r8, sl, fp, sp, lr}^
 248:	2f6b6365 	svccs	0x006b6365
 24c:	74726170 	ldrbtvc	r6, [r2], #-368	; 0x170
 250:	69732d31 	ldmdbvs	r3!, {r0, r4, r5, r8, sl, fp, sp}^
 254:	656c676e 	strbvs	r6, [ip, #-1902]!	; 0x76e
 258:	6574732d 	ldrbvs	r7, [r4, #-813]!	; 0x32d
 25c:	6f632f70 	svcvs	0x00632f70
 260:	73006564 	movwvc	r6, #1380	; 0x564
 264:	7370696b 	cmnvc	r0, #1753088	; 0x1ac000
 268:	69707200 	ldmdbvs	r0!, {r9, ip, sp, lr}^
 26c:	7365725f 	cmnvc	r5, #-268435451	; 0xf0000005
 270:	705f7465 	subsvc	r7, pc, r5, ror #8
 274:	00637475 	rsbeq	r7, r3, r5, ror r4
 278:	61746164 	cmnvs	r4, r4, ror #2
 27c:	6f62615f 	svcvs	0x0062615f
 280:	765f7472 			; <UNDEFINED> instruction: 0x765f7472
 284:	6f746365 	svcvs	0x00746365
 288:	72700072 	rsbsvc	r0, r0, #114	; 0x72
 28c:	74656665 	strbtvc	r6, [r5], #-1637	; 0x665
 290:	615f6863 	cmpvs	pc, r3, ror #16
 294:	74726f62 	ldrbtvc	r6, [r2], #-3938	; 0xf62
 298:	6365765f 	cmnvs	r5, #99614720	; 0x5f00000
 29c:	00726f74 	rsbseq	r6, r2, r4, ror pc
 2a0:	5f736177 	svcpl	0x00736177
 2a4:	75626564 	strbvc	r6, [r2, #-1380]!	; 0x564
 2a8:	61645f67 	cmnvs	r4, r7, ror #30
 2ac:	61666174 	smcvs	26132	; 0x6614
 2b0:	00746c75 	rsbseq	r6, r4, r5, ror ip
 2b4:	34317063 	ldrtcc	r7, [r1], #-99	; 0x63
 2b8:	6265642d 	rsbvs	r6, r5, #754974720	; 0x2d000000
 2bc:	632e6775 	teqvs	lr, #30670848	; 0x1d40000
 2c0:	73617700 	cmnvc	r1, #0, 14
 2c4:	6265645f 	rsbvs	r6, r5, #1593835520	; 0x5f000000
 2c8:	695f6775 	ldmdbvs	pc, {r0, r2, r4, r5, r6, r8, r9, sl, sp, lr}^	; <UNPREDICTABLE>
 2cc:	6674736e 	ldrbtvs	r7, [r4], -lr, ror #6
 2d0:	746c7561 	strbtvc	r7, [ip], #-1377	; 0x561
 2d4:	63736400 	cmnvs	r3, #0, 8
 2d8:	65735f72 	ldrbvs	r5, [r3, #-3954]!	; 0xf72
 2dc:	63770074 	cmnvs	r7, #116	; 0x74
 2e0:	725f3072 	subsvc	r3, pc, #114	; 0x72
 2e4:	77006765 	strvc	r6, [r0, -r5, ror #14]
 2e8:	5f307263 	svcpl	0x00307263
 2ec:	00746567 	rsbseq	r6, r4, r7, ror #10
 2f0:	74696e69 	strbtvc	r6, [r9], #-3689	; 0xe69
 2f4:	6200705f 	andvs	r7, r0, #95	; 0x5f
 2f8:	74706b72 	ldrbtvc	r6, [r0], #-2930	; 0xb72
 2fc:	6e61685f 	mcrvs	8, 3, r6, cr1, cr15, {2}
 300:	72656c64 	rsbvc	r6, r5, #100, 24	; 0x6400
 304:	70630030 	rsbvc	r0, r3, r0, lsr r0
 308:	625f3431 	subsvs	r3, pc, #822083584	; 0x31000000
 30c:	5f307263 	svcpl	0x00307263
 310:	00746573 	rsbseq	r6, r4, r3, ror r5
 314:	30727677 	rsbscc	r7, r2, r7, ror r6
 318:	6c61765f 	stclvs	6, cr7, [r1], #-380	; 0xfffffe84
 31c:	74617700 	strbtvc	r7, [r1], #-1792	; 0x700
 320:	74706863 	ldrbtvc	r6, [r0], #-2147	; 0x863
 324:	7465735f 	strbtvc	r7, [r5], #-863	; 0x35f
 328:	76770030 			; <UNDEFINED> instruction: 0x76770030
 32c:	735f3072 	cmpvc	pc, #114	; 0x72
 330:	62007465 	andvs	r7, r0, #1694498816	; 0x65000000
 334:	6e5f6b72 	vmovvs.s8	r6, d15[3]
 338:	65725f6f 	ldrbvs	r5, [r2, #-3951]!	; 0xf6f
 33c:	72655f74 	rsbvc	r5, r5, #116, 30	; 0x1d0
 340:	00726f72 	rsbseq	r6, r2, r2, ror pc
 344:	34317063 	ldrtcc	r7, [r1], #-99	; 0x63
 348:	7263625f 	rsbvc	r6, r3, #-268435451	; 0xf0000005
 34c:	65675f30 	strbvs	r5, [r7, #-3888]!	; 0xf30
 350:	72620074 	rsbvc	r0, r2, #116	; 0x74
 354:	5f74706b 	svcpl	0x0074706b
 358:	6d73696d 	ldclvs	9, cr6, [r3, #-436]!	; 0xfffffe4c
 35c:	68637461 	stmdavs	r3!, {r0, r5, r6, sl, ip, sp, lr}^
 360:	7465735f 	strbtvc	r7, [r5], #-863	; 0x35f
 364:	66640030 			; <UNDEFINED> instruction: 0x66640030
 368:	765f7273 			; <UNDEFINED> instruction: 0x765f7273
 36c:	69006c61 	stmdbvs	r0, {r0, r5, r6, sl, fp, sp, lr}
 370:	5f726166 	svcpl	0x00726166
 374:	00746567 	rsbseq	r6, r4, r7, ror #10
 378:	72736669 	rsbsvc	r6, r3, #110100480	; 0x6900000
 37c:	7465675f 	strbtvc	r6, [r5], #-1887	; 0x75f
 380:	74617700 	strbtvc	r7, [r1], #-1792	; 0x700
 384:	74706863 	ldrbtvc	r6, [r0], #-2147	; 0x863
 388:	6e61685f 	mcrvs	8, 3, r6, cr1, cr15, {2}
 38c:	72656c64 	rsbvc	r6, r5, #100, 24	; 0x6400
 390:	72620030 	rsbvc	r0, r2, #48	; 0x30
 394:	5f74706b 	svcpl	0x0074706b
 398:	6d73696d 	ldclvs	9, cr6, [r3, #-436]!	; 0xfffffe4c
 39c:	68637461 	stmdavs	r3!, {r0, r5, r6, sl, ip, sp, lr}^
 3a0:	7369645f 	cmnvc	r9, #1593835520	; 0x5f000000
 3a4:	656c6261 	strbvs	r6, [ip, #-609]!	; 0x261
 3a8:	61640030 	cmnvs	r4, r0, lsr r0
 3ac:	61666174 	smcvs	26132	; 0x6614
 3b0:	5f746c75 	svcpl	0x00746c75
 3b4:	6d6f7266 	sfmvs	f7, 2, [pc, #-408]!	; 224 <__code_start__-0x7ddc>
 3b8:	00646c5f 	rsbeq	r6, r4, pc, asr ip
 3bc:	34317063 	ldrtcc	r7, [r1], #-99	; 0x63
 3c0:	7276625f 	rsbsvc	r6, r6, #-268435451	; 0xf0000005
 3c4:	65735f30 	ldrbvs	r5, [r3, #-3888]!	; 0xf30
 3c8:	61770074 	cmnvs	r7, r4, ror r0
 3cc:	65645f73 	strbvs	r5, [r4, #-3955]!	; 0xf73
 3d0:	66677562 	strbtvs	r7, [r7], -r2, ror #10
 3d4:	746c7561 	strbtvc	r7, [ip], #-1377	; 0x561
 3d8:	6300725f 	movwvs	r7, #607	; 0x25f
 3dc:	5f343170 	svcpl	0x00343170
 3e0:	62616e65 	rsbvs	r6, r1, #1616	; 0x650
 3e4:	6e00656c 	cfsh32vs	mvfx6, mvfx0, #60
 3e8:	6c756166 	ldfvse	f6, [r5], #-408	; 0xfffffe68
 3ec:	62007374 	andvs	r7, r0, #116, 6	; 0xd0000001
 3f0:	5f307276 	svcpl	0x00307276
 3f4:	006c6176 	rsbeq	r6, ip, r6, ror r1
 3f8:	72736664 	rsbsvc	r6, r3, #100, 12	; 0x6400000
 3fc:	7465675f 	strbtvc	r6, [r5], #-1887	; 0x75f
 400:	73797300 	cmnvc	r9, #0, 6
 404:	6c6c6163 	stfvse	f6, [ip], #-396	; 0xfffffe74
 408:	6365765f 	cmnvs	r5, #99614720	; 0x5f00000
 40c:	00726f74 	rsbseq	r6, r2, r4, ror pc
 410:	66657270 			; <UNDEFINED> instruction: 0x66657270
 414:	68637465 	stmdavs	r3!, {r0, r2, r5, r6, sl, ip, sp, lr}^
 418:	756c665f 	strbvc	r6, [ip, #-1631]!	; 0x65f
 41c:	735f6873 	cmpvc	pc, #7536640	; 0x730000
 420:	62007465 	andvs	r7, r0, #1694498816	; 0x65000000
 424:	5f307263 	svcpl	0x00307263
 428:	00676572 	rsbeq	r6, r7, r2, ror r5
 42c:	646e6168 	strbtvs	r6, [lr], #-360	; 0x168
 430:	5f72656c 	svcpl	0x0072656c
 434:	66770074 			; <UNDEFINED> instruction: 0x66770074
 438:	675f7261 	ldrbvs	r7, [pc, -r1, ror #4]
 43c:	73007465 	movwvc	r7, #1125	; 0x465
 440:	6e5f7379 	mrcvs	3, 2, r7, cr15, cr9, {3}
 444:	62006d75 	andvs	r6, r0, #7488	; 0x1d40
 448:	74706b72 	ldrbtvc	r6, [r0], #-2930	; 0xb72
 44c:	7465735f 	strbtvc	r7, [r5], #-863	; 0x35f
 450:	63770030 	cmnvs	r7, #48	; 0x30
 454:	735f3072 	cmpvc	pc, #114	; 0x72
 458:	69007465 	stmdbvs	r0, {r0, r2, r5, r6, sl, ip, sp, lr}
 45c:	695f746e 	ldmdbvs	pc, {r1, r2, r3, r5, r6, sl, ip, sp, lr}^	; <UNPREDICTABLE>
 460:	0074696e 	rsbseq	r6, r4, lr, ror #18
 464:	676e6973 			; <UNDEFINED> instruction: 0x676e6973
 468:	735f656c 	cmpvc	pc, #108, 10	; 0x1b000000
 46c:	5f706574 	svcpl	0x00706574
 470:	646e6168 	strbtvs	r6, [lr], #-360	; 0x168
 474:	0072656c 	rsbseq	r6, r2, ip, ror #10
 478:	63656863 	cmnvs	r5, #6488064	; 0x630000
 47c:	657a5f6b 	ldrbvs	r5, [sl, #-3947]!	; 0xf6b
 480:	63006f72 	movwvs	r6, #3954	; 0xf72
 484:	6b636568 	blvs	18d9a2c <__bss_end__+0x18cf324>
 488:	746e692d 	strbtvc	r6, [lr], #-2349	; 0x92d
 48c:	656c7265 	strbvs	r7, [ip, #-613]!	; 0x265
 490:	2e657661 	cdpcs	6, 6, cr7, cr5, cr1, {3}
 494:	73750063 	cmnvc	r5, #99	; 0x63
 498:	745f7265 	ldrbvc	r7, [pc], #-613	; 4a0 <__code_start__-0x7b60>
 49c:	706d6172 	rsbvc	r6, sp, r2, ror r1
 4a0:	6e696c6f 	cdpvs	12, 6, cr6, cr9, cr15, {3}
 4a4:	65725f65 	ldrbvs	r5, [r2, #-3941]!	; 0xf65
 4a8:	70630074 	rsbvc	r0, r3, r4, ror r0
 4ac:	675f7273 			; <UNDEFINED> instruction: 0x675f7273
 4b0:	65007465 	strvs	r7, [r0, #-1125]	; 0x465
 4b4:	63657078 	cmnvs	r5, #120	; 0x78
 4b8:	5f646574 	svcpl	0x00646574
 4bc:	646e6168 	strbtvs	r6, [lr], #-360	; 0x168
 4c0:	6d00656c 	cfstr32vs	mvfx6, [r0, #-432]	; 0xfffffe50
 4c4:	006b7361 	rsbeq	r7, fp, r1, ror #6
 4c8:	73746962 	cmnvc	r4, #1605632	; 0x188000
 4cc:	726c635f 	rsbvc	r6, ip, #2080374785	; 0x7c000001
 4d0:	65686300 	strbvs	r6, [r8, #-768]!	; 0x300
 4d4:	6f5f6b63 	svcvs	0x005f6b63
 4d8:	635f656e 	cmpvs	pc, #461373440	; 0x1b800000
 4dc:	74697773 	strbtvc	r7, [r9], #-1907	; 0x773
 4e0:	6d006863 	stcvs	8, cr6, [r0, #-396]	; 0xfffffe74
 4e4:	5f65646f 	svcpl	0x0065646f
 4e8:	00727473 	rsbseq	r7, r2, r3, ror r4
 4ec:	65646f6d 	strbvs	r6, [r4, #-3949]!	; 0xf6d
 4f0:	7465735f 	strbtvc	r7, [r5], #-863	; 0x35f
 4f4:	65686300 	strbvs	r6, [r8, #-768]!	; 0x300
 4f8:	735f6b63 	cmpvc	pc, #101376	; 0x18c00
 4fc:	65757165 	ldrbvs	r7, [r5, #-357]!	; 0x165
 500:	6169746e 	cmnvs	r9, lr, ror #8
 504:	7063006c 	rsbvc	r0, r3, ip, rrx
 508:	6f5f7273 	svcvs	0x005f7273
 50c:	6200646c 	andvs	r6, r0, #108, 8	; 0x6c000000
 510:	5f737469 	svcpl	0x00737469
 514:	00746567 	rsbseq	r6, r4, r7, ror #10
 518:	72737063 	rsbsvc	r7, r3, #99	; 0x63
 51c:	6573755f 	ldrbvs	r7, [r3, #-1375]!	; 0x55f
 520:	70630072 	rsbvc	r0, r3, r2, ror r0
 524:	6d007273 	sfmvs	f7, 4, [r0, #-460]	; 0xfffffe34
 528:	5f65646f 	svcpl	0x0065646f
 52c:	6167656c 	cmnvs	r7, ip, ror #10
 530:	6f6d006c 	svcvs	0x006d006c
 534:	675f6564 	ldrbvs	r6, [pc, -r4, ror #10]
 538:	72007465 	andvc	r7, r0, #1694498816	; 0x65000000
 53c:	00736765 	rsbseq	r6, r3, r5, ror #14
 540:	65646f6d 	strbvs	r6, [r4, #-3949]!	; 0xf6d
 544:	675f5f00 	ldrbvs	r5, [pc, -r0, lsl #30]
 548:	5f63756e 	svcpl	0x0063756e
 54c:	6c5f6176 	ldfvse	f6, [pc], {118}	; 0x76
 550:	00747369 	rsbseq	r7, r4, r9, ror #6
 554:	6362696c 	cmnvs	r2, #108, 18	; 0x1b0000
 558:	6972702f 	ldmdbvs	r2!, {r0, r1, r2, r3, r5, ip, sp, lr}^
 55c:	2e6b746e 	cdpcs	4, 6, cr7, cr11, cr14, {3}
 560:	4e470063 	cdpmi	0, 4, cr0, cr7, cr3, {3}
 564:	20432055 	subcs	r2, r3, r5, asr r0
 568:	2e382e34 	mrccs	14, 1, r2, cr8, cr4, {1}
 56c:	6d2d2033 	stcvs	0, cr2, [sp, #-204]!	; 0xffffff34
 570:	3d757063 	ldclcc	0, cr7, [r5, #-396]!	; 0xfffffe74
 574:	316d7261 	cmncc	sp, r1, ror #4
 578:	6a363731 	bvs	d8e244 <__bss_end__+0xd83b3c>
 57c:	732d667a 	teqvc	sp, #127926272	; 0x7a00000
 580:	746d2d20 	strbtvc	r2, [sp], #-3360	; 0xd20
 584:	3d656e75 	stclcc	14, cr6, [r5, #-468]!	; 0xfffffe2c
 588:	316d7261 	cmncc	sp, r1, ror #4
 58c:	6a363731 	bvs	d8e258 <__bss_end__+0xd83b50>
 590:	732d667a 	teqvc	sp, #127926272	; 0x7a00000
 594:	67672d20 	strbvs	r2, [r7, -r0, lsr #26]!
 598:	2d206264 	sfmcs	f6, 4, [r0, #-400]!	; 0xfffffe70
 59c:	2d20674f 	stccs	7, cr6, [r0, #-316]!	; 0xfffffec4
 5a0:	3d647473 	cfstrdcc	mvd7, [r4, #-460]!	; 0xfffffe34
 5a4:	39756e67 	ldmdbcc	r5!, {r0, r1, r2, r5, r6, r9, sl, fp, sp, lr}^
 5a8:	662d2039 			; <UNDEFINED> instruction: 0x662d2039
 5ac:	65657266 	strbvs	r7, [r5, #-614]!	; 0x266
 5b0:	6e617473 	mcrvs	4, 3, r7, cr1, cr3, {3}
 5b4:	676e6964 	strbvs	r6, [lr, -r4, ror #18]!
 5b8:	5f617600 	svcpl	0x00617600
 5bc:	6e697270 	mcrvs	2, 3, r7, cr9, cr0, {3}
 5c0:	5f006b74 	svcpl	0x00006b74
 5c4:	5f61765f 	svcpl	0x0061765f
 5c8:	7473696c 	ldrbtvc	r6, [r3], #-2412	; 0x96c
 5cc:	73552f00 	cmpvc	r5, #0, 30
 5d0:	2f737265 	svccs	0x00737265
 5d4:	61697262 	cmnvs	r9, r2, ror #4
 5d8:	6e756a6e 	vsubvs.f32	s13, s10, s29
 5dc:	7365442f 	cmnvc	r5, #788529152	; 0x2f000000
 5e0:	706f746b 	rsbvc	r7, pc, fp, ror #8
 5e4:	6863732f 	stmdavs	r3!, {r0, r1, r2, r3, r5, r8, r9, ip, sp, lr}^
 5e8:	2f6c6f6f 	svccs	0x006c6f6f
 5ec:	69727053 	ldmdbvs	r2!, {r0, r1, r4, r6, ip, sp, lr}^
 5f0:	3931676e 	ldmdbcc	r1!, {r1, r2, r3, r5, r6, r8, r9, sl, sp, lr}
 5f4:	432f3032 	teqmi	pc, #50	; 0x32
 5f8:	30343253 	eorscc	r3, r4, r3, asr r2
 5fc:	632f584c 	teqvs	pc, #76, 16	; 0x4c0000
 600:	30343273 	eorscc	r3, r4, r3, ror r2
 604:	322d786c 	eorcc	r7, sp, #108, 16	; 0x6c0000
 608:	72707330 	rsbsvc	r7, r0, #48, 6	; 0xc0000000
 60c:	62696c2f 	rsbvs	r6, r9, #12032	; 0x2f00
 610:	5f006970 	svcpl	0x00006970
 614:	0070615f 	rsbseq	r6, r0, pc, asr r1
 618:	74726175 	ldrbtvc	r6, [r2], #-373	; 0x175
 61c:	7475705f 	ldrbtvc	r7, [r5], #-95	; 0x5f
 620:	6e690063 	cdpvs	0, 6, cr0, cr9, cr3, {3}
 624:	6e726574 	mrcvs	5, 3, r6, cr2, cr4, {3}
 628:	705f6c61 	subsvc	r6, pc, r1, ror #24
 62c:	68637475 	stmdavs	r3!, {r0, r2, r4, r5, r6, sl, ip, sp, lr}^
 630:	72007261 	andvc	r7, r0, #268435462	; 0x10000006
 634:	705f6970 	subsvc	r6, pc, r0, ror r9	; <UNPREDICTABLE>
 638:	68637475 	stmdavs	r3!, {r0, r2, r4, r5, r6, sl, ip, sp, lr}^
 63c:	6c007261 	sfmvs	f7, 4, [r0], {97}	; 0x61
 640:	2f636269 	svccs	0x00636269
 644:	63747570 	cmnvs	r4, #112, 10	; 0x1c000000
 648:	2e726168 	rpwcssz	f6, f2, #0.0
 64c:	70720063 	rsbsvc	r0, r2, r3, rrx
 650:	65735f69 	ldrbvs	r5, [r3, #-3945]!	; 0xf69
 654:	75705f74 	ldrbvc	r5, [r0, #-3956]!	; 0xf74
 658:	6c006374 	stcvs	3, cr6, [r0], {116}	; 0x74
 65c:	2f636269 	svccs	0x00636269
 660:	6b747570 	blvs	1d1dc28 <__bss_end__+0x1d13520>
 664:	6900632e 	stmdbvs	r0, {r1, r2, r3, r5, r8, r9, sp, lr}
 668:	7265746e 	rsbvc	r7, r5, #1845493760	; 0x6e000000
 66c:	5f6c616e 	svcpl	0x006c616e
 670:	6b747570 	blvs	1d1dc38 <__bss_end__+0x1d13530>
 674:	746d6600 	strbtvc	r6, [sp], #-1536	; 0x600
 678:	6174735f 	cmnvs	r4, pc, asr r3
 67c:	6e007472 	mcrvs	4, 0, r7, cr0, cr2, {3}
 680:	705f6765 	subsvc	r6, pc, r5, ror #14
 684:	76657200 	strbtvc	r7, [r5], -r0, lsl #4
 688:	65737265 	ldrbvs	r7, [r3, #-613]!	; 0x265
 68c:	64736900 	ldrbtvs	r6, [r3], #-2304	; 0x900
 690:	74696769 	strbtvc	r6, [r9], #-1897	; 0x769
 694:	74757000 	ldrbtvc	r7, [r5], #-0
 698:	70665f73 	rsbvc	r5, r6, r3, ror pc
 69c:	67697300 	strbvs	r7, [r9, -r0, lsl #6]!
 6a0:	5f64656e 	svcpl	0x0064656e
 6a4:	696c0070 	stmdbvs	ip!, {r4, r5, r6}^
 6a8:	762f6362 	strtvc	r6, [pc], -r2, ror #6
 6ac:	72702d61 	rsbsvc	r2, r0, #6208	; 0x1840
 6b0:	6b746e69 	blvs	1d1c05c <__bss_end__+0x1d11954>
 6b4:	7200632e 	andvc	r6, r0, #-1207959552	; 0xb8000000
 6b8:	735f6970 	cmpvc	pc, #112, 18	; 0x1c0000
 6bc:	6f5f7465 	svcvs	0x005f7465
 6c0:	75707475 	ldrbvc	r7, [r0, #-1141]!	; 0x475
 6c4:	69770074 	ldmdbvs	r7!, {r2, r4, r5, r6}^
 6c8:	00687464 	rsbeq	r7, r8, r4, ror #8
 6cc:	63747570 	cmnvs	r4, #112, 10	; 0x1c000000
 6d0:	0070665f 	rsbseq	r6, r0, pc, asr r6
 6d4:	74696d65 	strbtvc	r6, [r9], #-3429	; 0xd65
 6d8:	73696400 	cmnvc	r9, #0, 8
 6dc:	656c6261 	strbvs	r6, [ip, #-609]!	; 0x261
 6e0:	6361635f 	cmnvs	r1, #2080374785	; 0x7c000001
 6e4:	73006568 	movwvc	r6, #1384	; 0x568
 6e8:	66666174 			; <UNDEFINED> instruction: 0x66666174
 6ec:	6372732d 	cmnvs	r2, #-1275068416	; 0xb4000000
 6f0:	6361632f 	cmnvs	r1, #-1140850688	; 0xbc000000
 6f4:	632e6568 	teqvs	lr, #104, 10	; 0x1a000000
 6f8:	62657200 	rsbvs	r7, r5, #0, 4
 6fc:	5f746f6f 	svcpl	0x00746f6f
 700:	646e6168 	strbtvs	r6, [lr], #-360	; 0x168
 704:	0072656c 	rsbseq	r6, r2, ip, ror #10
 708:	66617473 			; <UNDEFINED> instruction: 0x66617473
 70c:	72732d66 	rsbsvc	r2, r3, #6528	; 0x1980
 710:	6c632f63 	stclvs	15, cr2, [r3], #-396	; 0xfffffe74
 714:	2d6e6165 	stfcse	f6, [lr, #-404]!	; 0xfffffe6c
 718:	6f626572 	svcvs	0x00626572
 71c:	632e746f 	teqvs	lr, #1862270976	; 0x6f000000
 720:	69707200 	ldmdbvs	r0!, {r9, ip, sp, lr}^
 724:	6265725f 	rsbvs	r7, r5, #-268435451	; 0xf0000005
 728:	00746f6f 	rsbseq	r6, r4, pc, ror #30
 72c:	616c6564 	cmnvs	ip, r4, ror #10
 730:	736d5f79 	cmnvc	sp, #484	; 0x1e4
 734:	625f5f00 	subsvs	r5, pc, #0, 30
 738:	735f7373 	cmpvc	pc, #-872415231	; 0xcc000001
 73c:	74726174 	ldrbtvc	r6, [r2], #-372	; 0x174
 740:	5f005f5f 	svcpl	0x00005f5f
 744:	7373625f 	cmnvc	r3, #-268435451	; 0xf0000005
 748:	646e655f 	strbtvs	r6, [lr], #-1375	; 0x55f
 74c:	63005f5f 	movwvs	r5, #3935	; 0xf5f
 750:	72617473 	rsbvc	r7, r1, #1929379840	; 0x73000000
 754:	61685f74 	smcvs	34292	; 0x85f4
 758:	656c646e 	strbvs	r6, [ip, #-1134]!	; 0x46e
 75c:	73620072 	cmnvc	r2, #114	; 0x72
 760:	6e655f73 	mcrvs	15, 3, r5, cr5, cr3, {3}
 764:	635f0064 	cmpvs	pc, #100	; 0x64
 768:	72617473 	rsbvc	r7, r1, #1929379840	; 0x73000000
 76c:	74730074 	ldrbtvc	r0, [r3], #-116	; 0x74
 770:	2d666661 	stclcs	6, cr6, [r6, #-388]!	; 0xfffffe7c
 774:	2f637273 	svccs	0x00637273
 778:	61747363 	cmnvs	r4, r3, ror #6
 77c:	632e7472 	teqvs	lr, #1912602624	; 0x72000000
 780:	61747300 	cmnvs	r4, r0, lsl #6
 784:	732d6666 	teqvc	sp, #106954752	; 0x6600000
 788:	642f6372 	strtvs	r6, [pc], #-882	; 790 <__code_start__-0x7870>
 78c:	75616665 	strbvc	r6, [r1, #-1637]!	; 0x665
 790:	682d746c 	stmdavs	sp!, {r2, r3, r5, r6, sl, ip, sp, lr}
 794:	6c646e61 	stclvs	14, cr6, [r4], #-388	; 0xfffffe7c
 798:	662d7265 	strtvs	r7, [sp], -r5, ror #4
 79c:	2e747361 	cdpcs	3, 7, cr7, cr4, cr1, {3}
 7a0:	61660063 	cmnvs	r6, r3, rrx
 7a4:	695f7473 	ldmdbvs	pc, {r0, r1, r4, r5, r6, sl, ip, sp, lr}^	; <UNPREDICTABLE>
 7a8:	7265746e 	rsbvc	r7, r5, #1845493760	; 0x6e000000
 7ac:	74707572 	ldrbtvc	r7, [r0], #-1394	; 0x572
 7b0:	6365765f 	cmnvs	r5, #99614720	; 0x5f00000
 7b4:	00726f74 	rsbseq	r6, r2, r4, ror pc
 7b8:	65736572 	ldrbvs	r6, [r3, #-1394]!	; 0x572
 7bc:	65765f74 	ldrbvs	r5, [r6, #-3956]!	; 0xf74
 7c0:	726f7463 	rsbvc	r7, pc, #1660944384	; 0x63000000
 7c4:	61747300 	cmnvs	r4, r0, lsl #6
 7c8:	732d6666 	teqvc	sp, #106954752	; 0x6600000
 7cc:	642f6372 	strtvs	r6, [pc], #-882	; 7d4 <__code_start__-0x782c>
 7d0:	75616665 	strbvc	r6, [r1, #-1637]!	; 0x665
 7d4:	682d746c 	stmdavs	sp!, {r2, r3, r5, r6, sl, ip, sp, lr}
 7d8:	6c646e61 	stclvs	14, cr6, [r4], #-388	; 0xfffffe7c
 7dc:	722d7265 	eorvc	r7, sp, #1342177286	; 0x50000006
 7e0:	74657365 	strbtvc	r7, [r5], #-869	; 0x365
 7e4:	7300632e 	movwvc	r6, #814	; 0x32e
 7e8:	66666174 			; <UNDEFINED> instruction: 0x66666174
 7ec:	6372732d 	cmnvs	r2, #-1275068416	; 0xb4000000
 7f0:	6665642f 	strbtvs	r6, [r5], -pc, lsr #8
 7f4:	746c7561 	strbtvc	r7, [ip], #-1377	; 0x561
 7f8:	6e61682d 	cdpvs	8, 6, cr6, cr1, cr13, {1}
 7fc:	72656c64 	rsbvc	r6, r5, #100, 24	; 0x6400
 800:	646e752d 	strbtvs	r7, [lr], #-1325	; 0x52d
 804:	6e696665 	cdpvs	6, 6, cr6, cr9, cr5, {3}
 808:	692d6465 	pushvs	{r0, r2, r5, r6, sl, sp, lr}
 80c:	2e74736e 	cdpcs	3, 7, cr7, cr4, cr14, {3}
 810:	6e750063 	cdpvs	0, 7, cr0, cr5, cr3, {3}
 814:	69666564 	stmdbvs	r6!, {r2, r5, r6, r8, sl, sp, lr}^
 818:	5f64656e 	svcpl	0x0064656e
 81c:	74736e69 	ldrbtvc	r6, [r3], #-3689	; 0xe69
 820:	74637572 	strbtvc	r7, [r3], #-1394	; 0x572
 824:	5f6e6f69 	svcpl	0x006e6f69
 828:	74636576 	strbtvc	r6, [r3], #-1398	; 0x576
 82c:	7300726f 	movwvc	r7, #623	; 0x26f
 830:	66666174 			; <UNDEFINED> instruction: 0x66666174
 834:	6372732d 	cmnvs	r2, #-1275068416	; 0xb4000000
 838:	6665642f 	strbtvs	r6, [r5], -pc, lsr #8
 83c:	746c7561 	strbtvc	r7, [ip], #-1377	; 0x561
 840:	6e61682d 	cdpvs	8, 6, cr6, cr1, cr13, {1}
 844:	72656c64 	rsbvc	r6, r5, #100, 24	; 0x6400
 848:	00632e73 	rsbeq	r2, r3, r3, ror lr
 84c:	5f515249 	svcpl	0x00515249
 850:	646e6570 	strbtvs	r6, [lr], #-1392	; 0x570
 854:	5f676e69 	svcpl	0x00676e69
 858:	69440032 	stmdbvs	r4, {r1, r4, r5}^
 85c:	6c626173 	stfvse	f6, [r2], #-460	; 0xfffffe34
 860:	61425f65 	cmpvs	r2, r5, ror #30
 864:	5f636973 	svcpl	0x00636973
 868:	73515249 	cmpvc	r1, #-1879048188	; 0x90000004
 86c:	51494600 	cmppl	r9, r0, lsl #12
 870:	6e6f635f 	mcrvs	3, 3, r6, cr15, cr15, {2}
 874:	6c6f7274 	sfmvs	f7, 2, [pc], #-464	; 6ac <__code_start__-0x7954>
 878:	6e695f00 	cdpvs	15, 6, cr5, cr9, cr0, {0}
 87c:	72726574 	rsbsvc	r6, r2, #116, 10	; 0x1d000000
 880:	5f747075 	svcpl	0x00747075
 884:	6c626174 	stfvse	f6, [r2], #-464	; 0xfffffe30
 888:	52490065 	subpl	r0, r9, #101	; 0x65
 88c:	61625f51 	cmnvs	r2, r1, asr pc
 890:	5f636973 	svcpl	0x00636973
 894:	646e6570 	strbtvs	r6, [lr], #-1392	; 0x570
 898:	00676e69 	rsbeq	r6, r7, r9, ror #28
 89c:	62616e45 	rsbvs	r6, r1, #1104	; 0x450
 8a0:	425f656c 	subsmi	r6, pc, #108, 10	; 0x1b000000
 8a4:	63697361 	cmnvs	r9, #-2080374783	; 0x84000001
 8a8:	5152495f 	cmppl	r2, pc, asr r9
 8ac:	6e450073 	mcrvs	0, 2, r0, cr5, cr3, {3}
 8b0:	656c6261 	strbvs	r6, [ip, #-609]!	; 0x261
 8b4:	5152495f 	cmppl	r2, pc, asr r9
 8b8:	00315f73 	eorseq	r5, r1, r3, ror pc
 8bc:	62616e45 	rsbvs	r6, r1, #1104	; 0x450
 8c0:	495f656c 	ldmdbmi	pc, {r2, r3, r5, r6, r8, sl, sp, lr}^	; <UNPREDICTABLE>
 8c4:	5f735152 	svcpl	0x00735152
 8c8:	695f0032 	ldmdbvs	pc, {r1, r4, r5}^	; <UNPREDICTABLE>
 8cc:	7265746e 	rsbvc	r7, r5, #1845493760	; 0x6e000000
 8d0:	74707572 	ldrbtvc	r7, [r0], #-1394	; 0x572
 8d4:	6261745f 	rsbvs	r7, r1, #1593835520	; 0x5f000000
 8d8:	655f656c 	ldrbvs	r6, [pc, #-1388]	; 374 <__code_start__-0x7c8c>
 8dc:	6400646e 	strvs	r6, [r0], #-1134	; 0x46e
 8e0:	625f7665 	subsvs	r7, pc, #105906176	; 0x6500000
 8e4:	69727261 	ldmdbvs	r2!, {r0, r5, r6, r9, ip, sp, lr}^
 8e8:	73007265 	movwvc	r7, #613	; 0x265
 8ec:	66666174 			; <UNDEFINED> instruction: 0x66666174
 8f0:	6372732d 	cmnvs	r2, #-1275068416	; 0xb4000000
 8f4:	746e692f 	strbtvc	r6, [lr], #-2351	; 0x92f
 8f8:	75727265 	ldrbvc	r7, [r2, #-613]!	; 0x265
 8fc:	2d737470 	cfldrdcs	mvd7, [r3, #-448]!	; 0xfffffe40
 900:	00632e63 	rsbeq	r2, r3, r3, ror #28
 904:	5f515249 	svcpl	0x00515249
 908:	65736142 	ldrbvs	r6, [r3, #-322]!	; 0x142
 90c:	54555000 	ldrbpl	r5, [r5], #-0
 910:	44003233 	strmi	r3, [r0], #-563	; 0x233
 914:	62617369 	rsbvs	r7, r1, #-1543503871	; 0xa4000001
 918:	495f656c 	ldmdbmi	pc, {r2, r3, r5, r6, r8, sl, sp, lr}^	; <UNPREDICTABLE>
 91c:	5f735152 	svcpl	0x00735152
 920:	69440031 	stmdbvs	r4, {r0, r4, r5}^
 924:	6c626173 	stfvse	f6, [r2], #-460	; 0xfffffe34
 928:	52495f65 	subpl	r5, r9, #404	; 0x194
 92c:	325f7351 	subscc	r7, pc, #1140850689	; 0x44000001
 930:	51524900 	cmppl	r2, r0, lsl #18
 934:	6e65705f 	mcrvs	0, 3, r7, cr5, cr15, {2}
 938:	676e6964 	strbvs	r6, [lr, -r4, ror #18]!
 93c:	6100315f 	tstvs	r0, pc, asr r1
 940:	73755f74 	cmnvc	r5, #116, 30	; 0x1d0
 944:	6c5f7265 	lfmvs	f7, 2, [pc], {101}	; 0x65
 948:	6c657665 	stclvs	6, cr7, [r5], #-404	; 0xfffffe6c
 94c:	61747300 	cmnvs	r4, r0, lsl #6
 950:	732d6666 	teqvc	sp, #106954752	; 0x6600000
 954:	722f6372 	eorvc	r6, pc, #-939524095	; 0xc8000001
 958:	6f6f6265 	svcvs	0x006f6265
 95c:	00632e74 	rsbeq	r2, r3, r4, ror lr
 960:	525f4d50 	subspl	r4, pc, #80, 26	; 0x1400
 964:	5f435453 	svcpl	0x00435453
 968:	46435257 			; <UNDEFINED> instruction: 0x46435257
 96c:	55465f47 	strbpl	r5, [r6, #-3911]	; 0xf47
 970:	525f4c4c 	subspl	r4, pc, #76, 24	; 0x4c00
 974:	54455345 	strbpl	r5, [r5], #-837	; 0x345
 978:	5f4d5000 	svcpl	0x004d5000
 97c:	474f4457 	smlsldmi	r4, pc, r7, r4	; <UNPREDICTABLE>
 980:	74657300 	strbtvc	r7, [r5], #-768	; 0x300
 984:	6573755f 	ldrbvs	r7, [r3, #-1375]!	; 0x55f
 988:	656c5f72 	strbvs	r5, [ip, #-3954]!	; 0xf72
 98c:	006c6576 	rsbeq	r6, ip, r6, ror r5
 990:	505f4d50 	subspl	r4, pc, r0, asr sp	; <UNPREDICTABLE>
 994:	57535341 	ldrbpl	r5, [r3, -r1, asr #6]
 998:	0044524f 	subeq	r5, r4, pc, asr #4
 99c:	525f4d50 	subspl	r4, pc, #80, 26	; 0x1400
 9a0:	00435453 	subeq	r5, r3, r3, asr r4
 9a4:	656d6974 	strbvs	r6, [sp, #-2420]!	; 0x974
 9a8:	65675f72 	strbvs	r5, [r7, #-3954]!	; 0xf72
 9ac:	73755f74 	cmnvc	r5, #116, 30	; 0x1d0
 9b0:	725f6365 	subsvc	r6, pc, #-1811939327	; 0x94000001
 9b4:	64007761 	strvs	r7, [r0], #-1889	; 0x761
 9b8:	79616c65 	stmdbvc	r1!, {r0, r2, r5, r6, sl, fp, sp, lr}^
 9bc:	6365735f 	cmnvs	r5, #2080374785	; 0x7c000001
 9c0:	61747300 	cmnvs	r4, r0, lsl #6
 9c4:	732d6666 	teqvc	sp, #106954752	; 0x6600000
 9c8:	742f6372 	strtvc	r6, [pc], #-882	; 9d0 <__code_start__-0x7630>
 9cc:	72656d69 	rsbvc	r6, r5, #6720	; 0x1a40
 9d0:	4700632e 	strmi	r6, [r0, -lr, lsr #6]
 9d4:	32335445 	eorscc	r5, r3, #1157627904	; 0x45000000
 9d8:	63697400 	cmnvs	r9, #0, 8
 9dc:	6400736b 	strvs	r7, [r0], #-875	; 0x36b
 9e0:	79616c65 	stmdbvc	r1!, {r0, r2, r5, r6, sl, fp, sp, lr}^
 9e4:	6379635f 	cmnvs	r9, #2080374785	; 0x7c000001
 9e8:	0073656c 	rsbseq	r6, r3, ip, ror #10
 9ec:	616c6564 	cmnvs	ip, r4, ror #10
 9f0:	73755f79 	cmnvc	r5, #484	; 0x1e4
 9f4:	6d697400 	cfstrdvs	mvd7, [r9, #-0]
 9f8:	675f7265 	ldrbvs	r7, [pc, -r5, ror #4]
 9fc:	755f7465 	ldrbvc	r7, [pc, #-1125]	; 59f <__code_start__-0x7a61>
 a00:	00636573 	rsbeq	r6, r3, r3, ror r5
 a04:	6f73645f 	svcvs	0x0073645f
 a08:	6e61685f 	mcrvs	8, 3, r6, cr1, cr15, {2}
 a0c:	00656c64 	rsbeq	r6, r5, r4, ror #24
 a10:	7a69735f 	bvc	1a5d794 <__bss_end__+0x1a5308c>
 a14:	725f0065 	subsvc	r0, pc, #101	; 0x65
 a18:	34646e61 	strbtcc	r6, [r4], #-3681	; 0xe61
 a1c:	655f0038 	ldrbvs	r0, [pc, #-56]	; 9ec <__code_start__-0x7614>
 a20:	6772656d 	ldrbvs	r6, [r2, -sp, ror #10]!
 a24:	79636e65 	stmdbvc	r3!, {r0, r2, r5, r6, r9, sl, fp, sp, lr}^
 a28:	72617500 	rsbvc	r7, r1, #0, 10
 a2c:	6e695f74 	mcrvs	15, 3, r5, cr9, cr4, {3}
 a30:	5f007469 	svcpl	0x00007469
 a34:	74726377 	ldrbtvc	r6, [r2], #-887	; 0x377
 a38:	5f626d6f 	svcpl	0x00626d6f
 a3c:	74617473 	strbtvc	r7, [r1], #-1139	; 0x473
 a40:	775f0065 	ldrbvc	r0, [pc, -r5, rrx]
 a44:	74727363 	ldrbtvc	r7, [r2], #-867	; 0x363
 a48:	73626d6f 	cmnvc	r2, #7104	; 0x1bc0
 a4c:	6174735f 	cmnvs	r4, pc, asr r3
 a50:	5f006574 	svcpl	0x00006574
 a54:	7366626c 	cmnvc	r6, #108, 4	; 0xc0000006
 a58:	00657a69 	rsbeq	r7, r5, r9, ror #20
 a5c:	4f495047 	svcmi	0x00495047
 a60:	4e55465f 	mrcmi	6, 2, r4, cr5, cr15, {2}
 a64:	4e495f43 	cdpmi	15, 4, cr5, cr9, cr3, {2}
 a68:	00545550 	subseq	r5, r4, r0, asr r5
 a6c:	72626d5f 	rsbvc	r6, r2, #6080	; 0x17c0
 a70:	63776f74 	cmnvs	r7, #116, 30	; 0x1d0
 a74:	6174735f 	cmnvs	r4, pc, asr r3
 a78:	5f006574 	svcpl	0x00006574
 a7c:	6f746377 	svcvs	0x00746377
 a80:	735f626d 	cmpvc	pc, #-805306362	; 0xd0000006
 a84:	65746174 	ldrbvs	r6, [r4, #-372]!	; 0x174
 a88:	745f5f00 	ldrbvc	r5, [pc], #-3840	; a90 <__code_start__-0x7570>
 a8c:	65735f6d 	ldrbvs	r5, [r3, #-3949]!	; 0xf6d
 a90:	74730063 	ldrbtvc	r0, [r3], #-99	; 0x63
 a94:	5f007461 	svcpl	0x00007461
 a98:	66756275 			; <UNDEFINED> instruction: 0x66756275
 a9c:	49504700 	ldmdbmi	r0, {r8, r9, sl, lr}^
 aa0:	55465f4f 	strbpl	r5, [r6, #-3919]	; 0xf4f
 aa4:	415f434e 	cmpmi	pc, lr, asr #6
 aa8:	0031544c 	eorseq	r5, r1, ip, asr #8
 aac:	7361625f 	cmnvc	r1, #-268435451	; 0xf0000005
 ab0:	6e630065 	cdpvs	0, 6, cr0, cr3, cr5, {3}
 ab4:	5f006c74 	svcpl	0x00006c74
 ab8:	5f6d745f 	svcpl	0x006d745f
 abc:	72756f68 	rsbsvc	r6, r5, #104, 30	; 0x1a0
 ac0:	735f5f00 	cmpvc	pc, #0, 30
 ac4:	6f5f0066 	svcvs	0x005f0066
 ac8:	78655f6e 	stmdavc	r5!, {r1, r2, r3, r5, r6, r8, r9, sl, fp, ip, lr}^
 acc:	615f7469 	cmpvs	pc, r9, ror #8
 ad0:	00736772 	rsbseq	r6, r3, r2, ror r7
 ad4:	6f6f635f 	svcvs	0x006f635f
 ad8:	0065696b 	rsbeq	r6, r5, fp, ror #18
 adc:	67735f5f 			; <UNDEFINED> instruction: 0x67735f5f
 ae0:	0065756c 	rsbeq	r7, r5, ip, ror #10
 ae4:	616c665f 	cmnvs	ip, pc, asr r6
 ae8:	5f007367 	svcpl	0x00007367
 aec:	635f7369 	cmpvs	pc, #-1543503871	; 0xa4000001
 af0:	5f006178 	svcpl	0x00006178
 af4:	69647473 	stmdbvs	r4!, {r0, r1, r4, r5, r6, sl, ip, sp, lr}^
 af8:	625f006e 	subsvs	r0, pc, #110	; 0x6e
 afc:	69736b6c 	ldmdbvs	r3!, {r2, r3, r5, r6, r8, r9, fp, sp, lr}^
 b00:	7500657a 	strvc	r6, [r0, #-1402]	; 0x57a
 b04:	2e747261 	cdpcs	2, 7, cr7, cr4, cr1, {3}
 b08:	75610063 	strbvc	r0, [r1, #-99]!	; 0x63
 b0c:	65705f78 	ldrbvs	r5, [r0, #-3960]!	; 0xf78
 b10:	68706972 	ldmdavs	r0!, {r1, r4, r5, r6, r8, fp, sp, lr}^
 b14:	635f0073 	cmpvs	pc, #115	; 0x73
 b18:	75627476 	strbvc	r7, [r2, #-1142]!	; 0x476
 b1c:	682f0066 	stmdavs	pc!, {r1, r2, r5, r6}	; <UNPREDICTABLE>
 b20:	2f656d6f 	svccs	0x00656d6f
 b24:	6c676e65 	stclvs	14, cr6, [r7], #-404	; 0xfffffe6c
 b28:	632f7265 	teqvs	pc, #1342177286	; 0x50000006
 b2c:	7373616c 	cmnvc	r3, #108, 2
 b30:	3273632f 	rsbscc	r6, r3, #-1140850688	; 0xbc000000
 b34:	786c3034 	stmdavc	ip!, {r2, r4, r5, ip, sp}^
 b38:	7330322d 	teqvc	r0, #-805306366	; 0xd0000002
 b3c:	6c2f7270 	sfmvs	f7, 4, [pc], #-448	; 984 <__code_start__-0x767c>
 b40:	69706269 	ldmdbvs	r0!, {r0, r3, r5, r6, r9, sp, lr}^
 b44:	6174732f 	cmnvs	r4, pc, lsr #6
 b48:	702d6666 	eorvc	r6, sp, r6, ror #12
 b4c:	61766972 	cmnvs	r6, r2, ror r9
 b50:	5f006574 	svcpl	0x00006574
 b54:	7273626d 	rsbsvc	r6, r3, #-805306362	; 0xd0000006
 b58:	63776f74 	cmnvs	r7, #116, 30	; 0x1d0
 b5c:	74735f73 	ldrbtvc	r5, [r3], #-3955	; 0xf73
 b60:	00657461 	rsbeq	r7, r5, r1, ror #8
 b64:	72626d5f 	rsbvc	r6, r2, #6080	; 0x17c0
 b68:	5f6e656c 	svcpl	0x006e656c
 b6c:	74617473 	strbtvc	r7, [r1], #-1139	; 0x473
 b70:	665f0065 	ldrbvs	r0, [pc], -r5, rrx
 b74:	6772616e 	ldrbvs	r6, [r2, -lr, ror #2]!
 b78:	75610073 	strbvc	r0, [r1, #-115]!	; 0x73
 b7c:	6e655f78 	mcrvs	15, 3, r5, cr5, cr8, {3}
 b80:	656c6261 	strbvs	r6, [ip, #-609]!	; 0x261
 b84:	665f0073 			; <UNDEFINED> instruction: 0x665f0073
 b88:	5f00736e 	svcpl	0x0000736e
 b8c:	6e676973 	mcrvs	9, 3, r6, cr7, cr3, {3}
 b90:	72617500 	rsbvc	r7, r1, #0, 10
 b94:	61635f74 	smcvs	13812	; 0x35f4
 b98:	75705f6e 	ldrbvc	r5, [r0, #-3950]!	; 0xf6e
 b9c:	5f006374 	svcpl	0x00006374
 ba0:	636f6c66 	cmnvs	pc, #26112	; 0x6600
 ba4:	00745f6b 	rsbseq	r5, r4, fp, ror #30
 ba8:	6474735f 	ldrbtvs	r7, [r4], #-863	; 0x35f
 bac:	00727265 	rsbseq	r7, r2, r5, ror #4
 bb0:	6769425f 			; <UNDEFINED> instruction: 0x6769425f
 bb4:	00746e69 	rsbseq	r6, r4, r9, ror #28
 bb8:	6d61675f 	stclvs	7, cr6, [r1, #-380]!	; 0xfffffe84
 bbc:	735f616d 	cmpvc	pc, #1073741851	; 0x4000001b
 bc0:	676e6769 	strbvs	r6, [lr, -r9, ror #14]!
 bc4:	5f006d61 	svcpl	0x00006d61
 bc8:	75736572 	ldrbvc	r6, [r3, #-1394]!	; 0x572
 bcc:	6b5f746c 	blvs	17ddd84 <__bss_end__+0x17d367c>
 bd0:	745f5f00 	ldrbvc	r5, [pc], #-3840	; bd8 <__code_start__-0x7428>
 bd4:	5f5f006d 	svcpl	0x005f006d
 bd8:	62686377 	rsbvs	r6, r8, #-603979775	; 0xdc000001
 bdc:	72617500 	rsbvc	r7, r1, #0, 10
 be0:	65675f74 	strbvs	r5, [r7, #-3956]!	; 0xf74
 be4:	5f006374 	svcpl	0x00006374
 be8:	6f647473 	svcvs	0x00647473
 bec:	5f007475 	svcpl	0x00007475
 bf0:	6c747663 	ldclvs	6, cr7, [r4], #-396	; 0xfffffe74
 bf4:	5f006e65 	svcpl	0x00006e65
 bf8:	656c6966 	strbvs	r6, [ip, #-2406]!	; 0x966
 bfc:	696e5f00 	stmdbvs	lr!, {r8, r9, sl, fp, ip, lr}^
 c00:	0073626f 	rsbseq	r6, r3, pc, ror #4
 c04:	6574615f 	ldrbvs	r6, [r4, #-351]!	; 0x15f
 c08:	30746978 	rsbscc	r6, r4, r8, ror r9
 c0c:	69735f00 	ldmdbvs	r3!, {r8, r9, sl, fp, ip, lr}^
 c10:	6c616e67 	stclvs	14, cr6, [r1], #-412	; 0xfffffe64
 c14:	6675625f 			; <UNDEFINED> instruction: 0x6675625f
 c18:	73615f00 	cmnvc	r1, #0, 30
 c1c:	6d697463 	cfstrdvs	mvd7, [r9, #-396]!	; 0xfffffe74
 c20:	75625f65 	strbvc	r5, [r2, #-3941]!	; 0xf65
 c24:	725f0066 	subsvc	r0, pc, #102	; 0x66
 c28:	6c757365 	ldclvs	3, cr7, [r5], #-404	; 0xfffffe6c
 c2c:	5f5f0074 	svcpl	0x005f0074
 c30:	00686377 	rsbeq	r6, r8, r7, ror r3
 c34:	4f495047 	svcmi	0x00495047
 c38:	4e55465f 	mrcmi	6, 2, r4, cr5, cr15, {2}
 c3c:	4c415f43 	mcrrmi	15, 4, r5, r1, cr3
 c40:	77003254 	smlsdvc	r0, r4, r2, r3
 c44:	5f746e69 	svcpl	0x00746e69
 c48:	6c5f0074 	mrrcvs	0, 7, r0, pc, cr4	; <UNPREDICTABLE>
 c4c:	006b636f 	rsbeq	r6, fp, pc, ror #6
 c50:	616c665f 	cmnvs	ip, pc, asr r6
 c54:	00327367 	eorseq	r7, r2, r7, ror #6
 c58:	6d745f5f 	ldclvs	15, cr5, [r4, #-380]!	; 0xfffffe84
 c5c:	6165795f 	cmnvs	r5, pc, asr r9
 c60:	6f5f0072 	svcvs	0x005f0072
 c64:	65736666 	ldrbvs	r6, [r3, #-1638]!	; 0x666
 c68:	70670074 	rsbvc	r0, r7, r4, ror r0
 c6c:	735f6f69 	cmpvc	pc, #420	; 0x1a4
 c70:	665f7465 	ldrbvs	r7, [pc], -r5, ror #8
 c74:	74636e75 	strbtvc	r6, [r3], #-3701	; 0xe75
 c78:	006e6f69 	rsbeq	r6, lr, r9, ror #30
 c7c:	78656e5f 	stmdavc	r5!, {r0, r1, r2, r3, r4, r6, r9, sl, fp, sp, lr}^
 c80:	5f006674 	svcpl	0x00006674
 c84:	5f6d745f 	svcpl	0x006d745f
 c88:	006e6f6d 	rsbeq	r6, lr, sp, ror #30
 c8c:	6574615f 	ldrbvs	r6, [r4, #-351]!	; 0x15f
 c90:	00746978 	rsbseq	r6, r4, r8, ror r9
 c94:	64735f5f 	ldrbtvs	r5, [r3], #-3935	; 0xf5f
 c98:	6e696469 	cdpvs	4, 6, cr6, cr9, cr9, {3}
 c9c:	5f007469 	svcpl	0x00007469
 ca0:	5f66666f 	svcpl	0x0066666f
 ca4:	61750074 	cmnvs	r5, r4, ror r0
 ca8:	5f007472 	svcpl	0x00007472
 cac:	65657266 	strbvs	r7, [r5, #-614]!	; 0x266
 cb0:	7473696c 	ldrbtvc	r6, [r3], #-2412	; 0x96c
 cb4:	4f4c5f00 	svcmi	0x004c5f00
 cb8:	525f4b43 	subspl	r4, pc, #68608	; 0x10c00
 cbc:	52554345 	subspl	r4, r5, #335544321	; 0x14000001
 cc0:	45564953 	ldrbmi	r4, [r6, #-2387]	; 0x953
 cc4:	5f00545f 	svcpl	0x0000545f
 cc8:	0077656e 	rsbseq	r6, r7, lr, ror #10
 ccc:	655f685f 	ldrbvs	r6, [pc, #-2143]	; 475 <__code_start__-0x7b8b>
 cd0:	6f6e7272 	svcvs	0x006e7272
 cd4:	745f5f00 	ldrbvc	r5, [pc], #-3840	; cdc <__code_start__-0x7324>
 cd8:	64795f6d 	ldrbtvs	r5, [r9], #-3949	; 0xf6d
 cdc:	5f007961 	svcpl	0x00007961
 ce0:	7562735f 	strbvc	r7, [r2, #-863]!	; 0x35f
 ce4:	695f0066 	ldmdbvs	pc, {r1, r2, r5, r6}^	; <UNPREDICTABLE>
 ce8:	0073626f 	rsbseq	r6, r3, pc, ror #4
 cec:	49465f5f 	stmdbmi	r6, {r0, r1, r2, r3, r4, r6, r8, r9, sl, fp, ip, lr}^
 cf0:	5f00454c 	svcpl	0x0000454c
 cf4:	7473626d 	ldrbtvc	r6, [r3], #-621	; 0x26d
 cf8:	5f657461 	svcpl	0x00657461
 cfc:	5f5f0074 	svcpl	0x005f0074
 d00:	4c494673 	mcrrmi	6, 7, r4, r9, cr3
 d04:	6d5f0045 	ldclvs	0, cr0, [pc, #-276]	; bf8 <__code_start__-0x7408>
 d08:	61747362 	cmnvs	r4, r2, ror #6
 d0c:	5f006574 	svcpl	0x00006574
 d10:	646e6172 	strbtvs	r6, [lr], #-370	; 0x172
 d14:	78656e5f 	stmdavc	r5!, {r0, r1, r2, r3, r4, r6, r9, sl, fp, sp, lr}^
 d18:	6d5f0074 	ldclvs	0, cr0, [pc, #-464]	; b50 <__code_start__-0x74b0>
 d1c:	6e656c62 	cdpvs	12, 6, cr6, cr5, cr2, {3}
 d20:	6174735f 	cmnvs	r4, pc, asr r3
 d24:	5f006574 	svcpl	0x00006574
 d28:	00636e69 	rsbeq	r6, r3, r9, ror #28
 d2c:	646e695f 	strbtvs	r6, [lr], #-2399	; 0x95f
 d30:	75635f00 	strbvc	r5, [r3, #-3840]!	; 0xf00
 d34:	6e657272 	mcrvs	2, 3, r7, cr5, cr2, {3}
 d38:	6f6c5f74 	svcvs	0x006c5f74
 d3c:	656c6163 	strbvs	r6, [ip, #-355]!	; 0x163
 d40:	635f5f00 	cmpvs	pc, #0, 30
 d44:	6e61656c 	cdpvs	5, 6, cr6, cr1, cr12, {3}
 d48:	5f007075 	svcpl	0x00007075
 d4c:	7778616d 	ldrbvc	r6, [r8, -sp, ror #2]!
 d50:	5f007364 	svcpl	0x00007364
 d54:	6e656572 	mcrvs	5, 3, r6, cr5, cr2, {3}
 d58:	735f0074 	cmpvc	pc, #116	; 0x74
 d5c:	00646565 	rsbeq	r6, r4, r5, ror #10
 d60:	6f635f5f 	svcvs	0x00635f5f
 d64:	00746e75 	rsbseq	r6, r4, r5, ror lr
 d68:	61765f5f 	cmnvs	r6, pc, asr pc
 d6c:	0065756c 	rsbeq	r7, r5, ip, ror #10
 d70:	6565735f 	strbvs	r7, [r5, #-863]!	; 0x35f
 d74:	6162006b 	cmnvs	r2, fp, rrx
 d78:	5f006475 	svcpl	0x00006475
 d7c:	736f7066 	cmnvc	pc, #102	; 0x66
 d80:	5f00745f 	svcpl	0x0000745f
 d84:	5f6d745f 	svcpl	0x006d745f
 d88:	006e696d 	rsbeq	r6, lr, sp, ror #18
 d8c:	61726373 	cmnvs	r2, r3, ror r3
 d90:	00686374 	rsbeq	r6, r8, r4, ror r3
 d94:	6c756d5f 	ldclvs	13, cr6, [r5], #-380	; 0xfffffe84
 d98:	75700074 	ldrbvc	r0, [r0, #-116]!	; 0x74
 d9c:	00323374 	eorseq	r3, r2, r4, ror r3
 da0:	20554e47 	subscs	r4, r5, r7, asr #28
 da4:	20393943 	eorscs	r3, r9, r3, asr #18
 da8:	2e332e36 	mrccs	14, 1, r2, cr3, cr6, {1}
 dac:	30322031 	eorscc	r2, r2, r1, lsr r0
 db0:	36303731 			; <UNDEFINED> instruction: 0x36303731
 db4:	2d203032 	stccs	0, cr3, [r0, #-200]!	; 0xffffff38
 db8:	7570636d 	ldrbvc	r6, [r0, #-877]!	; 0x36d
 dbc:	6d72613d 	ldfvse	f6, [r2, #-244]!	; 0xffffff0c
 dc0:	36373131 			; <UNDEFINED> instruction: 0x36373131
 dc4:	2d667a6a 	vstmdbcs	r6!, {s15-s120}
 dc8:	6d2d2073 	stcvs	0, cr2, [sp, #-460]!	; 0xfffffe34
 dcc:	656e7574 	strbvs	r7, [lr, #-1396]!	; 0x574
 dd0:	6d72613d 	ldfvse	f6, [r2, #-244]!	; 0xffffff0c
 dd4:	36373131 			; <UNDEFINED> instruction: 0x36373131
 dd8:	2d667a6a 	vstmdbcs	r6!, {s15-s120}
 ddc:	672d2073 			; <UNDEFINED> instruction: 0x672d2073
 de0:	20626467 	rsbcs	r6, r2, r7, ror #8
 de4:	20674f2d 	rsbcs	r4, r7, sp, lsr #30
 de8:	6474732d 	ldrbtvs	r7, [r4], #-813	; 0x32d
 dec:	756e673d 	strbvc	r6, [lr, #-1853]!	; 0x73d
 df0:	2d203939 	stccs	9, cr3, [r0, #-228]!	; 0xffffff1c
 df4:	65726666 	ldrbvs	r6, [r2, #-1638]!	; 0x666
 df8:	61747365 	cmnvs	r4, r5, ror #6
 dfc:	6e69646e 	cdpvs	4, 6, cr6, cr9, cr14, {3}
 e00:	735f0067 	cmpvc	pc, #103	; 0x67
 e04:	6f747274 	svcvs	0x00747274
 e08:	616c5f6b 	cmnvs	ip, fp, ror #30
 e0c:	5f007473 	svcpl	0x00007473
 e10:	79746e66 	ldmdbvc	r4!, {r1, r2, r5, r6, r9, sl, fp, sp, lr}^
 e14:	00736570 	rsbseq	r6, r3, r0, ror r5
 e18:	6464615f 	strbtvs	r6, [r4], #-351	; 0x15f
 e1c:	555f5f00 	ldrbpl	r5, [pc, #-3840]	; ffffff24 <__bss_end__+0xffff581c>
 e20:	676e6f4c 	strbvs	r6, [lr, -ip, asr #30]!
 e24:	65675f00 	strbvs	r5, [r7, #-3840]!	; 0xf00
 e28:	74616474 	strbtvc	r6, [r1], #-1140	; 0x474
 e2c:	72655f65 	rsbvc	r5, r5, #404	; 0x194
 e30:	675f0072 			; <UNDEFINED> instruction: 0x675f0072
 e34:	61626f6c 	cmnvs	r2, ip, ror #30
 e38:	6d695f6c 	stclvs	15, cr5, [r9, #-432]!	; 0xfffffe50
 e3c:	65727570 	ldrbvs	r7, [r2, #-1392]!	; 0x570
 e40:	7274705f 	rsbsvc	r7, r4, #95	; 0x5f
 e44:	75635f00 	strbvc	r5, [r3, #-3840]!	; 0xf00
 e48:	6e657272 	mcrvs	2, 3, r7, cr5, cr2, {3}
 e4c:	61635f74 	smcvs	13812	; 0x35f4
 e50:	6f676574 	svcvs	0x00676574
 e54:	5f007972 	svcpl	0x00007972
 e58:	73756e75 	cmnvc	r5, #1872	; 0x750
 e5c:	725f6465 	subsvc	r6, pc, #1694498816	; 0x65000000
 e60:	00646e61 	rsbeq	r6, r4, r1, ror #28
 e64:	7364775f 	cmnvc	r4, #24903680	; 0x17c0000
 e68:	745f5f00 	ldrbvc	r5, [pc], #-3840	; e70 <__code_start__-0x7190>
 e6c:	64775f6d 	ldrbtvs	r5, [r7], #-3949	; 0xf6d
 e70:	5f007961 	svcpl	0x00007961
 e74:	65756c67 	ldrbvs	r6, [r5, #-3175]!	; 0xc67
 e78:	49504700 	ldmdbmi	r0, {r8, r9, sl, lr}^
 e7c:	55465f4f 	strbpl	r5, [r6, #-3919]	; 0xf4f
 e80:	4f5f434e 	svcmi	0x005f434e
 e84:	55505455 	ldrbpl	r5, [r0, #-1109]	; 0x455
 e88:	6e5f0054 	mrcvs	0, 2, r0, cr15, cr4, {2}
 e8c:	6c6c616d 	stfvse	f6, [ip], #-436	; 0xfffffe4c
 e90:	5f00636f 	svcpl	0x0000636f
 e94:	6134366c 	teqvs	r4, ip, ror #12
 e98:	6675625f 			; <UNDEFINED> instruction: 0x6675625f
 e9c:	74656700 	strbtvc	r6, [r5], #-1792	; 0x700
 ea0:	75003233 	strvc	r3, [r0, #-563]	; 0x233
 ea4:	5f747261 	svcpl	0x00747261
 ea8:	5f6e6163 	svcpl	0x006e6163
 eac:	63746567 	cmnvs	r4, #432013312	; 0x19c00000
 eb0:	69735f00 	ldmdbvs	r3!, {r8, r9, sl, fp, ip, lr}^
 eb4:	75665f67 	strbvc	r5, [r6, #-3943]!	; 0xf67
 eb8:	6f00636e 	svcvs	0x0000636e
 ebc:	6e695f72 	mcrvs	15, 3, r5, cr9, cr2, {3}
 ec0:	75003233 	strvc	r3, [r0, #-563]	; 0x233
 ec4:	5f747261 	svcpl	0x00747261
 ec8:	5f736168 	svcpl	0x00736168
 ecc:	61746164 	cmnvs	r4, r4, ror #2
 ed0:	49504700 	ldmdbmi	r0, {r8, r9, sl, lr}^
 ed4:	55465f4f 	strbpl	r5, [r6, #-3919]	; 0xf4f
 ed8:	415f434e 	cmpmi	pc, lr, asr #6
 edc:	0030544c 	eorseq	r5, r0, ip, asr #8
 ee0:	75626e5f 	strbvc	r6, [r2, #-3679]!	; 0xe5f
 ee4:	755f0066 	ldrbvc	r0, [pc, #-102]	; e86 <__code_start__-0x717a>
 ee8:	6573756e 	ldrbvs	r7, [r3, #-1390]!	; 0x56e
 eec:	50470064 	subpl	r0, r7, r4, rrx
 ef0:	465f4f49 	ldrbmi	r4, [pc], -r9, asr #30
 ef4:	5f434e55 	svcpl	0x00434e55
 ef8:	33544c41 	cmpcc	r4, #16640	; 0x4100
 efc:	49504700 	ldmdbmi	r0, {r8, r9, sl, lr}^
 f00:	55465f4f 	strbpl	r5, [r6, #-3919]	; 0xf4f
 f04:	415f434e 	cmpmi	pc, lr, asr #6
 f08:	0034544c 	eorseq	r5, r4, ip, asr #8
 f0c:	4f495047 	svcmi	0x00495047
 f10:	4e55465f 	mrcmi	6, 2, r4, cr5, cr15, {2}
 f14:	4c415f43 	mcrrmi	15, 4, r5, r1, cr3
 f18:	5f003554 	svcpl	0x00003554
 f1c:	5f6d745f 	svcpl	0x006d745f
 f20:	73647369 	cmnvc	r4, #-1543503871	; 0xa4000001
 f24:	6c5f0074 	mrrcvs	0, 7, r0, pc, cr4	; <UNPREDICTABLE>
 f28:	6c61636f 	stclvs	3, cr6, [r1], #-444	; 0xfffffe44
 f2c:	656d6974 	strbvs	r6, [sp, #-2420]!	; 0x974
 f30:	6675625f 			; <UNDEFINED> instruction: 0x6675625f
 f34:	6c635f00 	stclvs	15, cr5, [r3], #-0
 f38:	0065736f 	rsbeq	r7, r5, pc, ror #6
 f3c:	3834725f 	ldmdacc	r4!, {r0, r1, r2, r3, r4, r6, r9, ip, sp, lr}
 f40:	626d5f00 	rsbvs	r5, sp, #0, 30
 f44:	63776f74 	cmnvs	r7, #116, 30	; 0x1d0
 f48:	6174735f 	cmnvs	r4, pc, asr r3
 f4c:	5f006574 	svcpl	0x00006574
 f50:	00733570 	rsbseq	r3, r3, r0, ror r5
 f54:	6d745f5f 	ldclvs	15, cr5, [r4, #-380]!	; 0xfffffe84
 f58:	61646d5f 	cmnvs	r4, pc, asr sp
 f5c:	70670079 	rsbvc	r0, r7, r9, ror r0
 f60:	735f6f69 	cmpvc	pc, #420	; 0x1a4
 f64:	6f5f7465 	svcvs	0x005f7465
 f68:	62006666 	andvs	r6, r0, #106954752	; 0x6600000
 f6c:	006b6e61 	rsbeq	r6, fp, r1, ror #28
 f70:	6f697067 	svcvs	0x00697067
 f74:	6700632e 	strvs	r6, [r0, -lr, lsr #6]
 f78:	5f6f6970 	svcpl	0x006f6970
 f7c:	64616572 	strbtvs	r6, [r1], #-1394	; 0x572
 f80:	69706700 	ldmdbvs	r0!, {r8, r9, sl, sp, lr}^
 f84:	65735f6f 	ldrbvs	r5, [r3, #-3951]!	; 0xf6f
 f88:	756f5f74 	strbvc	r5, [pc, #-3956]!	; 1c <__code_start__-0x7fe4>
 f8c:	74757074 	ldrbtvc	r7, [r5], #-116	; 0x74
 f90:	69706700 	ldmdbvs	r0!, {r8, r9, sl, sp, lr}^
 f94:	72775f6f 	rsbsvc	r5, r7, #444	; 0x1bc
 f98:	00657469 	rsbeq	r7, r5, r9, ror #8
 f9c:	6f697067 	svcvs	0x00697067
 fa0:	7465735f 	strbtvc	r7, [r5], #-863	; 0x35f
 fa4:	70670030 	rsbvc	r0, r7, r0, lsr r0
 fa8:	6c5f6f69 	mrrcvs	15, 6, r6, pc, cr9	; <UNPREDICTABLE>
 fac:	00307665 	eorseq	r7, r0, r5, ror #12
 fb0:	6f697067 	svcvs	0x00697067
 fb4:	7465735f 	strbtvc	r7, [r5], #-863	; 0x35f
 fb8:	706e695f 	rsbvc	r6, lr, pc, asr r9
 fbc:	67007475 	smlsdxvs	r0, r5, r4, r7
 fc0:	5f6f6970 	svcpl	0x006f6970
 fc4:	5f746573 	svcpl	0x00746573
 fc8:	67006e6f 	strvs	r6, [r0, -pc, ror #28]
 fcc:	5f6f6970 	svcpl	0x006f6970
 fd0:	636e7566 	cmnvs	lr, #427819008	; 0x19800000
 fd4:	6700745f 	smlsdvs	r0, pc, r4, r7	; <UNPREDICTABLE>
 fd8:	5f6f6970 	svcpl	0x006f6970
 fdc:	30726c63 	rsbscc	r6, r2, r3, ror #24
	...

Disassembly of section .debug_frame:

00000000 <.debug_frame>:
   0:	0000000c 	andeq	r0, r0, ip
   4:	ffffffff 			; <UNDEFINED> instruction: 0xffffffff
   8:	7c020001 	stcvc	0, cr0, [r2], {1}
   c:	000d0c0e 	andeq	r0, sp, lr, lsl #24
  10:	00000014 	andeq	r0, r0, r4, lsl r0
  14:	00000000 	andeq	r0, r0, r0
  18:	00008020 	andeq	r8, r0, r0, lsr #32
  1c:	000000b0 	strheq	r0, [r0], -r0	; <UNPREDICTABLE>
  20:	8e040e42 	cdphi	14, 0, cr0, cr4, cr2, {2}
  24:	100e4201 	andne	r4, lr, r1, lsl #4
  28:	00000014 	andeq	r0, r0, r4, lsl r0
  2c:	00000000 	andeq	r0, r0, r0
  30:	000080d0 	ldrdeq	r8, [r0], -r0
  34:	00000088 	andeq	r0, r0, r8, lsl #1
  38:	8e040e42 	cdphi	14, 0, cr0, cr4, cr2, {2}
  3c:	100e4201 	andne	r4, lr, r1, lsl #4
  40:	0000000c 	andeq	r0, r0, ip
  44:	00000000 	andeq	r0, r0, r0
  48:	00008158 	andeq	r8, r0, r8, asr r1
  4c:	00000020 	andeq	r0, r0, r0, lsr #32
  50:	0000000c 	andeq	r0, r0, ip
  54:	00000000 	andeq	r0, r0, r0
  58:	00008178 	andeq	r8, r0, r8, ror r1
  5c:	0000001c 	andeq	r0, r0, ip, lsl r0
  60:	0000000c 	andeq	r0, r0, ip
  64:	00000000 	andeq	r0, r0, r0
  68:	00008194 	muleq	r0, r4, r1
  6c:	00000070 	andeq	r0, r0, r0, ror r0
  70:	00000014 	andeq	r0, r0, r4, lsl r0
  74:	00000000 	andeq	r0, r0, r0
  78:	00008204 	andeq	r8, r0, r4, lsl #4
  7c:	00000070 	andeq	r0, r0, r0, ror r0
  80:	8e040e42 	cdphi	14, 0, cr0, cr4, cr2, {2}
  84:	400e4201 	andmi	r4, lr, r1, lsl #4
  88:	0000000c 	andeq	r0, r0, ip
  8c:	ffffffff 			; <UNDEFINED> instruction: 0xffffffff
  90:	7c020001 	stcvc	0, cr0, [r2], {1}
  94:	000d0c0e 	andeq	r0, sp, lr, lsl #24
  98:	00000014 	andeq	r0, r0, r4, lsl r0
  9c:	00000088 	andeq	r0, r0, r8, lsl #1
  a0:	00008274 	andeq	r8, r0, r4, ror r2
  a4:	000000b0 	strheq	r0, [r0], -r0	; <UNPREDICTABLE>
  a8:	8e040e42 	cdphi	14, 0, cr0, cr4, cr2, {2}
  ac:	100e4201 	andne	r4, lr, r1, lsl #4
  b0:	00000014 	andeq	r0, r0, r4, lsl r0
  b4:	00000088 	andeq	r0, r0, r8, lsl #1
  b8:	00008324 	andeq	r8, r0, r4, lsr #6
  bc:	000000dc 	ldrdeq	r0, [r0], -ip
  c0:	8e040e42 	cdphi	14, 0, cr0, cr4, cr2, {2}
  c4:	100e4201 	andne	r4, lr, r1, lsl #4
  c8:	00000014 	andeq	r0, r0, r4, lsl r0
  cc:	00000088 	andeq	r0, r0, r8, lsl #1
  d0:	00008400 	andeq	r8, r0, r0, lsl #8
  d4:	0000003c 	andeq	r0, r0, ip, lsr r0
  d8:	83080e42 	movwhi	r0, #36418	; 0x8e42
  dc:	00018e02 	andeq	r8, r1, r2, lsl #28
  e0:	0000000c 	andeq	r0, r0, ip
  e4:	00000088 	andeq	r0, r0, r8, lsl #1
  e8:	0000843c 	andeq	r8, r0, ip, lsr r4
  ec:	00000034 	andeq	r0, r0, r4, lsr r0
  f0:	00000014 	andeq	r0, r0, r4, lsl r0
  f4:	00000088 	andeq	r0, r0, r8, lsl #1
  f8:	00008470 	andeq	r8, r0, r0, ror r4
  fc:	00000098 	muleq	r0, r8, r0
 100:	8e040e42 	cdphi	14, 0, cr0, cr4, cr2, {2}
 104:	100e4201 	andne	r4, lr, r1, lsl #4
 108:	0000000c 	andeq	r0, r0, ip
 10c:	00000088 	andeq	r0, r0, r8, lsl #1
 110:	00008508 	andeq	r8, r0, r8, lsl #10
 114:	00000004 	andeq	r0, r0, r4
 118:	00000014 	andeq	r0, r0, r4, lsl r0
 11c:	00000088 	andeq	r0, r0, r8, lsl #1
 120:	0000850c 	andeq	r8, r0, ip, lsl #10
 124:	0000002c 	andeq	r0, r0, ip, lsr #32
 128:	83080e42 	movwhi	r0, #36418	; 0x8e42
 12c:	00018e02 	andeq	r8, r1, r2, lsl #28
 130:	0000000c 	andeq	r0, r0, ip
 134:	00000088 	andeq	r0, r0, r8, lsl #1
 138:	00008538 	andeq	r8, r0, r8, lsr r5
 13c:	00000034 	andeq	r0, r0, r4, lsr r0
 140:	0000000c 	andeq	r0, r0, ip
 144:	00000088 	andeq	r0, r0, r8, lsl #1
 148:	0000856c 	andeq	r8, r0, ip, ror #10
 14c:	00000010 	andeq	r0, r0, r0, lsl r0
 150:	00000014 	andeq	r0, r0, r4, lsl r0
 154:	00000088 	andeq	r0, r0, r8, lsl #1
 158:	0000857c 	andeq	r8, r0, ip, ror r5
 15c:	00000070 	andeq	r0, r0, r0, ror r0
 160:	83080e42 	movwhi	r0, #36418	; 0x8e42
 164:	00018e02 	andeq	r8, r1, r2, lsl #28
 168:	0000000c 	andeq	r0, r0, ip
 16c:	ffffffff 			; <UNDEFINED> instruction: 0xffffffff
 170:	7c020001 	stcvc	0, cr0, [r2], {1}
 174:	000d0c0e 	andeq	r0, sp, lr, lsl #24
 178:	00000018 	andeq	r0, r0, r8, lsl r0
 17c:	00000168 	andeq	r0, r0, r8, ror #2
 180:	00008724 	andeq	r8, r0, r4, lsr #14
 184:	000001ac 	andeq	r0, r0, ip, lsr #3
 188:	840c0e42 	strhi	r0, [ip], #-3650	; 0xe42
 18c:	8e028503 	cfsh32hi	mvfx8, mvfx2, #3
 190:	180e4201 	stmdane	lr, {r0, r9, lr}
 194:	00000024 	andeq	r0, r0, r4, lsr #32
 198:	00000168 	andeq	r0, r0, r8, ror #2
 19c:	000088d0 	ldrdeq	r8, [r0], -r0
 1a0:	000004e0 	andeq	r0, r0, r0, ror #9
 1a4:	84240e42 	strthi	r0, [r4], #-3650	; 0xe42
 1a8:	86088509 	strhi	r8, [r8], -r9, lsl #10
 1ac:	88068707 	stmdahi	r6, {r0, r1, r2, r8, r9, sl, pc}
 1b0:	8a048905 	bhi	1225cc <__bss_end__+0x117ec4>
 1b4:	8e028b03 	vmlahi.f64	d8, d2, d3
 1b8:	300e4201 	andcc	r4, lr, r1, lsl #4
 1bc:	00000018 	andeq	r0, r0, r8, lsl r0
 1c0:	00000168 	andeq	r0, r0, r8, ror #2
 1c4:	00008db0 			; <UNDEFINED> instruction: 0x00008db0
 1c8:	00000084 	andeq	r0, r0, r4, lsl #1
 1cc:	83100e42 	tsthi	r0, #1056	; 0x420
 1d0:	85038404 	strhi	r8, [r3, #-1028]	; 0x404
 1d4:	00018e02 	andeq	r8, r1, r2, lsl #28
 1d8:	0000000c 	andeq	r0, r0, ip
 1dc:	00000168 	andeq	r0, r0, r8, ror #2
 1e0:	00008e34 	andeq	r8, r0, r4, lsr lr
 1e4:	00000028 	andeq	r0, r0, r8, lsr #32
 1e8:	00000014 	andeq	r0, r0, r4, lsl r0
 1ec:	00000168 	andeq	r0, r0, r8, ror #2
 1f0:	00008e5c 	andeq	r8, r0, ip, asr lr
 1f4:	0000004c 	andeq	r0, r0, ip, asr #32
 1f8:	84080e42 	strhi	r0, [r8], #-3650	; 0xe42
 1fc:	00018e02 	andeq	r8, r1, r2, lsl #28
 200:	0000000c 	andeq	r0, r0, ip
 204:	ffffffff 			; <UNDEFINED> instruction: 0xffffffff
 208:	7c020001 	stcvc	0, cr0, [r2], {1}
 20c:	000d0c0e 	andeq	r0, sp, lr, lsl #24
 210:	00000024 	andeq	r0, r0, r4, lsr #32
 214:	00000200 	andeq	r0, r0, r0, lsl #4
 218:	00008ea8 	andeq	r8, r0, r8, lsr #29
 21c:	00000058 	andeq	r0, r0, r8, asr r0
 220:	80100e42 	andshi	r0, r0, r2, asr #28
 224:	82038104 	andhi	r8, r3, #4, 2
 228:	42018302 	andmi	r8, r1, #134217728	; 0x8000000
 22c:	07841c0e 	streq	r1, [r4, lr, lsl #24]
 230:	058e0685 	streq	r0, [lr, #1669]	; 0x685
 234:	00280e42 	eoreq	r0, r8, r2, asr #28
 238:	0000000c 	andeq	r0, r0, ip
 23c:	ffffffff 			; <UNDEFINED> instruction: 0xffffffff
 240:	7c020001 	stcvc	0, cr0, [r2], {1}
 244:	000d0c0e 	andeq	r0, sp, lr, lsl #24
 248:	00000014 	andeq	r0, r0, r4, lsl r0
 24c:	00000238 	andeq	r0, r0, r8, lsr r2
 250:	00008f00 	andeq	r8, r0, r0, lsl #30
 254:	00000014 	andeq	r0, r0, r4, lsl r0
 258:	84080e42 	strhi	r0, [r8], #-3650	; 0xe42
 25c:	00018e02 	andeq	r8, r1, r2, lsl #28
 260:	0000000c 	andeq	r0, r0, ip
 264:	00000238 	andeq	r0, r0, r8, lsr r2
 268:	00008f14 	andeq	r8, r0, r4, lsl pc
 26c:	00000018 	andeq	r0, r0, r8, lsl r0
 270:	0000000c 	andeq	r0, r0, ip
 274:	00000238 	andeq	r0, r0, r8, lsr r2
 278:	00008f2c 	andeq	r8, r0, ip, lsr #30
 27c:	00000010 	andeq	r0, r0, r0, lsl r0
 280:	0000000c 	andeq	r0, r0, ip
 284:	ffffffff 			; <UNDEFINED> instruction: 0xffffffff
 288:	7c020001 	stcvc	0, cr0, [r2], {1}
 28c:	000d0c0e 	andeq	r0, sp, lr, lsl #24
 290:	00000018 	andeq	r0, r0, r8, lsl r0
 294:	00000280 	andeq	r0, r0, r0, lsl #5
 298:	00008f3c 	andeq	r8, r0, ip, lsr pc
 29c:	00000034 	andeq	r0, r0, r4, lsr r0
 2a0:	83100e42 	tsthi	r0, #1056	; 0x420
 2a4:	85038404 	strhi	r8, [r3, #-1028]	; 0x404
 2a8:	00018e02 	andeq	r8, r1, r2, lsl #28
 2ac:	0000000c 	andeq	r0, r0, ip
 2b0:	ffffffff 			; <UNDEFINED> instruction: 0xffffffff
 2b4:	7c020001 	stcvc	0, cr0, [r2], {1}
 2b8:	000d0c0e 	andeq	r0, sp, lr, lsl #24
 2bc:	0000000c 	andeq	r0, r0, ip
 2c0:	000002ac 	andeq	r0, r0, ip, lsr #5
 2c4:	00008f70 	andeq	r8, r0, r0, ror pc
 2c8:	00000014 	andeq	r0, r0, r4, lsl r0
 2cc:	0000000c 	andeq	r0, r0, ip
 2d0:	000002ac 	andeq	r0, r0, ip, lsr #5
 2d4:	00008f84 	andeq	r8, r0, r4, lsl #31
 2d8:	0000002c 	andeq	r0, r0, ip, lsr #32
 2dc:	0000000c 	andeq	r0, r0, ip
 2e0:	000002ac 	andeq	r0, r0, ip, lsr #5
 2e4:	00008fb0 			; <UNDEFINED> instruction: 0x00008fb0
 2e8:	00000040 	andeq	r0, r0, r0, asr #32
 2ec:	00000020 	andeq	r0, r0, r0, lsr #32
 2f0:	000002ac 	andeq	r0, r0, ip, lsr #5
 2f4:	00008ff0 	strdeq	r8, [r0], -r0
 2f8:	000001bc 			; <UNDEFINED> instruction: 0x000001bc
 2fc:	84180e42 	ldrhi	r0, [r8], #-3650	; 0xe42
 300:	86058506 	strhi	r8, [r5], -r6, lsl #10
 304:	88038704 	stmdahi	r3, {r2, r8, r9, sl, pc}
 308:	42018e02 	andmi	r8, r1, #2, 28
 30c:	0000600e 	andeq	r6, r0, lr
 310:	00000014 	andeq	r0, r0, r4, lsl r0
 314:	000002ac 	andeq	r0, r0, ip, lsr #5
 318:	000091ac 	andeq	r9, r0, ip, lsr #3
 31c:	00000068 	andeq	r0, r0, r8, rrx
 320:	8e040e42 	cdphi	14, 0, cr0, cr4, cr2, {2}
 324:	100e4201 	andne	r4, lr, r1, lsl #4
 328:	00000028 	andeq	r0, r0, r8, lsr #32
 32c:	000002ac 	andeq	r0, r0, ip, lsr #5
 330:	00009214 	andeq	r9, r0, r4, lsl r2
 334:	000002d4 	ldrdeq	r0, [r0], -r4
 338:	84240e42 	strthi	r0, [r4], #-3650	; 0xe42
 33c:	86088509 	strhi	r8, [r8], -r9, lsl #10
 340:	88068707 	stmdahi	r6, {r0, r1, r2, r8, r9, sl, pc}
 344:	8a048905 	bhi	122760 <__bss_end__+0x118058>
 348:	8e028b03 	vmlahi.f64	d8, d2, d3
 34c:	b80e4201 	stmdalt	lr, {r0, r9, lr}
 350:	00000001 	andeq	r0, r0, r1
 354:	0000000c 	andeq	r0, r0, ip
 358:	ffffffff 			; <UNDEFINED> instruction: 0xffffffff
 35c:	7c020001 	stcvc	0, cr0, [r2], {1}
 360:	000d0c0e 	andeq	r0, sp, lr, lsl #24
 364:	0000000c 	andeq	r0, r0, ip
 368:	00000354 	andeq	r0, r0, r4, asr r3
 36c:	000094e8 	andeq	r9, r0, r8, ror #9
 370:	00000010 	andeq	r0, r0, r0, lsl r0
 374:	0000000c 	andeq	r0, r0, ip
 378:	00000354 	andeq	r0, r0, r4, asr r3
 37c:	000094f8 	strdeq	r9, [r0], -r8
 380:	00000010 	andeq	r0, r0, r0, lsl r0
 384:	0000000c 	andeq	r0, r0, ip
 388:	ffffffff 			; <UNDEFINED> instruction: 0xffffffff
 38c:	7c020001 	stcvc	0, cr0, [r2], {1}
 390:	000d0c0e 	andeq	r0, sp, lr, lsl #24
 394:	00000014 	andeq	r0, r0, r4, lsl r0
 398:	00000384 	andeq	r0, r0, r4, lsl #7
 39c:	00009508 	andeq	r9, r0, r8, lsl #10
 3a0:	0000002c 	andeq	r0, r0, ip, lsr #32
 3a4:	83080e42 	movwhi	r0, #36418	; 0x8e42
 3a8:	00018e02 	andeq	r8, r1, r2, lsl #28
 3ac:	0000000c 	andeq	r0, r0, ip
 3b0:	ffffffff 			; <UNDEFINED> instruction: 0xffffffff
 3b4:	7c020001 	stcvc	0, cr0, [r2], {1}
 3b8:	000d0c0e 	andeq	r0, sp, lr, lsl #24
 3bc:	00000014 	andeq	r0, r0, r4, lsl r0
 3c0:	000003ac 	andeq	r0, r0, ip, lsr #7
 3c4:	00009534 	andeq	r9, r0, r4, lsr r5
 3c8:	00000038 	andeq	r0, r0, r8, lsr r0
 3cc:	83080e42 	movwhi	r0, #36418	; 0x8e42
 3d0:	00018e02 	andeq	r8, r1, r2, lsl #28
 3d4:	0000000c 	andeq	r0, r0, ip
 3d8:	ffffffff 			; <UNDEFINED> instruction: 0xffffffff
 3dc:	7c020001 	stcvc	0, cr0, [r2], {1}
 3e0:	000d0c0e 	andeq	r0, sp, lr, lsl #24
 3e4:	00000014 	andeq	r0, r0, r4, lsl r0
 3e8:	000003d4 	ldrdeq	r0, [r0], -r4
 3ec:	0000956c 	andeq	r9, r0, ip, ror #10
 3f0:	00000044 	andeq	r0, r0, r4, asr #32
 3f4:	8e040e42 	cdphi	14, 0, cr0, cr4, cr2, {2}
 3f8:	100e4201 	andne	r4, lr, r1, lsl #4
 3fc:	0000000c 	andeq	r0, r0, ip
 400:	ffffffff 			; <UNDEFINED> instruction: 0xffffffff
 404:	7c020001 	stcvc	0, cr0, [r2], {1}
 408:	000d0c0e 	andeq	r0, sp, lr, lsl #24
 40c:	00000014 	andeq	r0, r0, r4, lsl r0
 410:	000003fc 	strdeq	r0, [r0], -ip
 414:	000095b0 			; <UNDEFINED> instruction: 0x000095b0
 418:	00000044 	andeq	r0, r0, r4, asr #32
 41c:	8e040e42 	cdphi	14, 0, cr0, cr4, cr2, {2}
 420:	100e4201 	andne	r4, lr, r1, lsl #4
 424:	0000000c 	andeq	r0, r0, ip
 428:	ffffffff 			; <UNDEFINED> instruction: 0xffffffff
 42c:	7c020001 	stcvc	0, cr0, [r2], {1}
 430:	000d0c0e 	andeq	r0, sp, lr, lsl #24
 434:	00000014 	andeq	r0, r0, r4, lsl r0
 438:	00000424 	andeq	r0, r0, r4, lsr #8
 43c:	000095f4 	strdeq	r9, [r0], -r4
 440:	00000044 	andeq	r0, r0, r4, asr #32
 444:	8e040e42 	cdphi	14, 0, cr0, cr4, cr2, {2}
 448:	100e4201 	andne	r4, lr, r1, lsl #4
 44c:	0000000c 	andeq	r0, r0, ip
 450:	ffffffff 			; <UNDEFINED> instruction: 0xffffffff
 454:	7c020001 	stcvc	0, cr0, [r2], {1}
 458:	000d0c0e 	andeq	r0, sp, lr, lsl #24
 45c:	0000000c 	andeq	r0, r0, ip
 460:	0000044c 	andeq	r0, r0, ip, asr #8
 464:	00009638 	andeq	r9, r0, r8, lsr r6
 468:	00000004 	andeq	r0, r0, r4
 46c:	0000000c 	andeq	r0, r0, ip
 470:	0000044c 	andeq	r0, r0, ip, asr #8
 474:	0000963c 	andeq	r9, r0, ip, lsr r6
 478:	00000004 	andeq	r0, r0, r4
 47c:	0000000c 	andeq	r0, r0, ip
 480:	ffffffff 			; <UNDEFINED> instruction: 0xffffffff
 484:	7c020001 	stcvc	0, cr0, [r2], {1}
 488:	000d0c0e 	andeq	r0, sp, lr, lsl #24
 48c:	00000014 	andeq	r0, r0, r4, lsl r0
 490:	0000047c 	andeq	r0, r0, ip, ror r4
 494:	00009640 	andeq	r9, r0, r0, asr #12
 498:	0000006c 	andeq	r0, r0, ip, rrx
 49c:	83080e42 	movwhi	r0, #36418	; 0x8e42
 4a0:	00018e02 	andeq	r8, r1, r2, lsl #28
 4a4:	0000000c 	andeq	r0, r0, ip
 4a8:	ffffffff 			; <UNDEFINED> instruction: 0xffffffff
 4ac:	7c020001 	stcvc	0, cr0, [r2], {1}
 4b0:	000d0c0e 	andeq	r0, sp, lr, lsl #24
 4b4:	0000000c 	andeq	r0, r0, ip
 4b8:	000004a4 	andeq	r0, r0, r4, lsr #9
 4bc:	000096ac 	andeq	r9, r0, ip, lsr #13
 4c0:	00000018 	andeq	r0, r0, r8, lsl r0
 4c4:	0000000c 	andeq	r0, r0, ip
 4c8:	000004a4 	andeq	r0, r0, r4, lsr #9
 4cc:	000096c4 	andeq	r9, r0, r4, asr #13
 4d0:	00000014 	andeq	r0, r0, r4, lsl r0
 4d4:	00000014 	andeq	r0, r0, r4, lsl r0
 4d8:	000004a4 	andeq	r0, r0, r4, lsr #9
 4dc:	000096d8 	ldrdeq	r9, [r0], -r8
 4e0:	00000048 	andeq	r0, r0, r8, asr #32
 4e4:	83080e42 	movwhi	r0, #36418	; 0x8e42
 4e8:	00018e02 	andeq	r8, r1, r2, lsl #28
 4ec:	0000000c 	andeq	r0, r0, ip
 4f0:	ffffffff 			; <UNDEFINED> instruction: 0xffffffff
 4f4:	7c020001 	stcvc	0, cr0, [r2], {1}
 4f8:	000d0c0e 	andeq	r0, sp, lr, lsl #24
 4fc:	0000000c 	andeq	r0, r0, ip
 500:	000004ec 	andeq	r0, r0, ip, ror #9
 504:	00009720 	andeq	r9, r0, r0, lsr #14
 508:	0000001c 	andeq	r0, r0, ip, lsl r0
 50c:	00000014 	andeq	r0, r0, r4, lsl r0
 510:	000004ec 	andeq	r0, r0, ip, ror #9
 514:	0000973c 	andeq	r9, r0, ip, lsr r7
 518:	00000014 	andeq	r0, r0, r4, lsl r0
 51c:	83080e42 	movwhi	r0, #36418	; 0x8e42
 520:	00018e02 	andeq	r8, r1, r2, lsl #28
 524:	00000014 	andeq	r0, r0, r4, lsl r0
 528:	000004ec 	andeq	r0, r0, ip, ror #9
 52c:	00009750 	andeq	r9, r0, r0, asr r7
 530:	0000001c 	andeq	r0, r0, ip, lsl r0
 534:	84080e42 	strhi	r0, [r8], #-3650	; 0xe42
 538:	00018e02 	andeq	r8, r1, r2, lsl #28
 53c:	00000018 	andeq	r0, r0, r8, lsl r0
 540:	000004ec 	andeq	r0, r0, ip, ror #9
 544:	0000976c 	andeq	r9, r0, ip, ror #14
 548:	00000024 	andeq	r0, r0, r4, lsr #32
 54c:	83100e42 	tsthi	r0, #1056	; 0x420
 550:	85038404 	strhi	r8, [r3, #-1028]	; 0x404
 554:	00018e02 	andeq	r8, r1, r2, lsl #28
 558:	00000014 	andeq	r0, r0, r4, lsl r0
 55c:	000004ec 	andeq	r0, r0, ip, ror #9
 560:	00009790 	muleq	r0, r0, r7
 564:	00000014 	andeq	r0, r0, r4, lsl r0
 568:	83080e42 	movwhi	r0, #36418	; 0x8e42
 56c:	00018e02 	andeq	r8, r1, r2, lsl #28
 570:	00000014 	andeq	r0, r0, r4, lsl r0
 574:	000004ec 	andeq	r0, r0, ip, ror #9
 578:	000097a4 	andeq	r9, r0, r4, lsr #15
 57c:	00000014 	andeq	r0, r0, r4, lsl r0
 580:	83080e42 	movwhi	r0, #36418	; 0x8e42
 584:	00018e02 	andeq	r8, r1, r2, lsl #28
 588:	0000000c 	andeq	r0, r0, ip
 58c:	ffffffff 			; <UNDEFINED> instruction: 0xffffffff
 590:	7c020001 	stcvc	0, cr0, [r2], {1}
 594:	000d0c0e 	andeq	r0, sp, lr, lsl #24
 598:	00000018 	andeq	r0, r0, r8, lsl r0
 59c:	00000588 	andeq	r0, r0, r8, lsl #11
 5a0:	0000981c 	andeq	r9, r0, ip, lsl r8
 5a4:	00000020 	andeq	r0, r0, r0, lsr #32
 5a8:	84100e42 	ldrhi	r0, [r0], #-3650	; 0xe42
 5ac:	86038504 	strhi	r8, [r3], -r4, lsl #10
 5b0:	00018e02 	andeq	r8, r1, r2, lsl #28
 5b4:	00000014 	andeq	r0, r0, r4, lsl r0
 5b8:	00000588 	andeq	r0, r0, r8, lsl #11
 5bc:	0000983c 	andeq	r9, r0, ip, lsr r8
 5c0:	000000b0 	strheq	r0, [r0], -r0	; <UNPREDICTABLE>
 5c4:	84080e42 	strhi	r0, [r8], #-3650	; 0xe42
 5c8:	00018e02 	andeq	r8, r1, r2, lsl #28
 5cc:	00000014 	andeq	r0, r0, r4, lsl r0
 5d0:	00000588 	andeq	r0, r0, r8, lsl #11
 5d4:	000098ec 	andeq	r9, r0, ip, ror #17
 5d8:	00000018 	andeq	r0, r0, r8, lsl r0
 5dc:	84080e42 	strhi	r0, [r8], #-3650	; 0xe42
 5e0:	00018e02 	andeq	r8, r1, r2, lsl #28
 5e4:	00000014 	andeq	r0, r0, r4, lsl r0
 5e8:	00000588 	andeq	r0, r0, r8, lsl #11
 5ec:	00009904 	andeq	r9, r0, r4, lsl #18
 5f0:	00000020 	andeq	r0, r0, r0, lsr #32
 5f4:	84080e42 	strhi	r0, [r8], #-3650	; 0xe42
 5f8:	00018e02 	andeq	r8, r1, r2, lsl #28
 5fc:	00000014 	andeq	r0, r0, r4, lsl r0
 600:	00000588 	andeq	r0, r0, r8, lsl #11
 604:	00009924 	andeq	r9, r0, r4, lsr #18
 608:	00000030 	andeq	r0, r0, r0, lsr r0
 60c:	84080e42 	strhi	r0, [r8], #-3650	; 0xe42
 610:	00018e02 	andeq	r8, r1, r2, lsl #28
 614:	00000014 	andeq	r0, r0, r4, lsl r0
 618:	00000588 	andeq	r0, r0, r8, lsl #11
 61c:	00009954 	andeq	r9, r0, r4, asr r9
 620:	00000030 	andeq	r0, r0, r0, lsr r0
 624:	84080e42 	strhi	r0, [r8], #-3650	; 0xe42
 628:	00018e02 	andeq	r8, r1, r2, lsl #28
 62c:	00000014 	andeq	r0, r0, r4, lsl r0
 630:	00000588 	andeq	r0, r0, r8, lsl #11
 634:	00009984 	andeq	r9, r0, r4, lsl #19
 638:	00000010 	andeq	r0, r0, r0, lsl r0
 63c:	84080e42 	strhi	r0, [r8], #-3650	; 0xe42
 640:	00018e02 	andeq	r8, r1, r2, lsl #28
 644:	0000000c 	andeq	r0, r0, ip
 648:	ffffffff 			; <UNDEFINED> instruction: 0xffffffff
 64c:	7c020001 	stcvc	0, cr0, [r2], {1}
 650:	000d0c0e 	andeq	r0, sp, lr, lsl #24
 654:	00000018 	andeq	r0, r0, r8, lsl r0
 658:	00000644 	andeq	r0, r0, r4, asr #12
 65c:	00009994 	muleq	r0, r4, r9
 660:	00000068 	andeq	r0, r0, r8, rrx
 664:	84100e4a 	ldrhi	r0, [r0], #-3658	; 0xe4a
 668:	86038504 	strhi	r8, [r3], -r4, lsl #10
 66c:	00018e02 	andeq	r8, r1, r2, lsl #28
 670:	00000014 	andeq	r0, r0, r4, lsl r0
 674:	00000644 	andeq	r0, r0, r4, asr #12
 678:	000099fc 	strdeq	r9, [r0], -ip
 67c:	00000010 	andeq	r0, r0, r0, lsl r0
 680:	84080e42 	strhi	r0, [r8], #-3650	; 0xe42
 684:	00018e02 	andeq	r8, r1, r2, lsl #28
 688:	00000014 	andeq	r0, r0, r4, lsl r0
 68c:	00000644 	andeq	r0, r0, r4, asr #12
 690:	00009a0c 	andeq	r9, r0, ip, lsl #20
 694:	00000024 	andeq	r0, r0, r4, lsr #32
 698:	84080e46 	strhi	r0, [r8], #-3654	; 0xe46
 69c:	00018e02 	andeq	r8, r1, r2, lsl #28
 6a0:	00000014 	andeq	r0, r0, r4, lsl r0
 6a4:	00000644 	andeq	r0, r0, r4, asr #12
 6a8:	00009a30 	andeq	r9, r0, r0, lsr sl
 6ac:	00000024 	andeq	r0, r0, r4, lsr #32
 6b0:	84080e46 	strhi	r0, [r8], #-3654	; 0xe46
 6b4:	00018e02 	andeq	r8, r1, r2, lsl #28
 6b8:	00000014 	andeq	r0, r0, r4, lsl r0
 6bc:	00000644 	andeq	r0, r0, r4, asr #12
 6c0:	00009a54 	andeq	r9, r0, r4, asr sl
 6c4:	00000010 	andeq	r0, r0, r0, lsl r0
 6c8:	84080e42 	strhi	r0, [r8], #-3650	; 0xe42
 6cc:	00018e02 	andeq	r8, r1, r2, lsl #28
 6d0:	00000014 	andeq	r0, r0, r4, lsl r0
 6d4:	00000644 	andeq	r0, r0, r4, asr #12
 6d8:	00009a64 	andeq	r9, r0, r4, ror #20
 6dc:	0000001c 	andeq	r0, r0, ip, lsl r0
 6e0:	84080e42 	strhi	r0, [r8], #-3650	; 0xe42
 6e4:	00018e02 	andeq	r8, r1, r2, lsl #28
 6e8:	00000018 	andeq	r0, r0, r8, lsl r0
 6ec:	00000644 	andeq	r0, r0, r4, asr #12
 6f0:	00009a80 	andeq	r9, r0, r0, lsl #21
 6f4:	00000034 	andeq	r0, r0, r4, lsr r0
 6f8:	84080e46 	strhi	r0, [r8], #-3654	; 0xe46
 6fc:	4e018e02 	cdpmi	14, 0, cr8, cr1, cr2, {0}
 700:	cec4000e 	cdpgt	0, 12, cr0, cr4, cr14, {0}

Disassembly of section .debug_ranges:

00000000 <.debug_ranges>:
   0:	000096ac 	andeq	r9, r0, ip, lsr #13
   4:	00009720 	andeq	r9, r0, r0, lsr #14
	...
