
test-gen.elf:     file format elf32-littlearm


Disassembly of section .text:

00008000 <_start>:
    8000:	e3a0d302 	mov	sp, #134217728	; 0x8000000
    8004:	e3a0b000 	mov	fp, #0
    8008:	eb0001ab 	bl	86bc <_cstart>
    800c:	eb0001d9 	bl	8778 <rpi_reboot>

00008010 <test_gen>:
    8010:	e92d43f8 	push	{r3, r4, r5, r6, r7, r8, r9, lr}
    8014:	e1a09000 	mov	r9, r0
    8018:	e1a07001 	mov	r7, r1
    801c:	e1a05002 	mov	r5, r2
    8020:	ee1f8f3c 	mrc	15, 0, r8, cr15, cr12, {1}
    8024:	ee1fcf3c 	mrc	15, 0, ip, cr15, cr12, {1}
    8028:	e59f6060 	ldr	r6, [pc, #96]	; 8090 <test_gen+0x80>
    802c:	e5963000 	ldr	r3, [r6]
    8030:	e1570003 	cmp	r7, r3
    8034:	9a00000f 	bls	8078 <test_gen+0x68>
    8038:	ee1f4f3c 	mrc	15, 0, r4, cr15, cr12, {1}
    803c:	e06c3004 	rsb	r3, ip, r4
    8040:	e1530005 	cmp	r3, r5
    8044:	3afffffb 	bcc	8038 <test_gen+0x28>
    8048:	e5961004 	ldr	r1, [r6, #4]
    804c:	e1a00009 	mov	r0, r9
    8050:	e2611001 	rsb	r1, r1, #1
    8054:	eb000292 	bl	8aa4 <gpio_write>
    8058:	e5963000 	ldr	r3, [r6]
    805c:	e5962004 	ldr	r2, [r6, #4]
    8060:	e2833001 	add	r3, r3, #1
    8064:	e2222001 	eor	r2, r2, #1
    8068:	e1a0c004 	mov	ip, r4
    806c:	e5863000 	str	r3, [r6]
    8070:	e5862004 	str	r2, [r6, #4]
    8074:	eaffffed 	b	8030 <test_gen+0x20>
    8078:	ee1f2f3c 	mrc	15, 0, r2, cr15, cr12, {1}
    807c:	e59f0010 	ldr	r0, [pc, #16]	; 8094 <test_gen+0x84>
    8080:	e0010795 	mul	r1, r5, r7
    8084:	e0682002 	rsb	r2, r8, r2
    8088:	e8bd43f8 	pop	{r3, r4, r5, r6, r7, r8, r9, lr}
    808c:	ea00000c 	b	80c4 <printk>
    8090:	000099ac 	andeq	r9, r0, ip, lsr #19
    8094:	00009750 	andeq	r9, r0, r0, asr r7

00008098 <notmain>:
    8098:	e92d4008 	push	{r3, lr}
    809c:	e3a00015 	mov	r0, #21
    80a0:	eb0001e8 	bl	8848 <gpio_set_output>
    80a4:	e3a03001 	mov	r3, #1
    80a8:	ee0f3f1c 	mcr	15, 0, r3, cr15, cr12, {0}
    80ac:	e3a00015 	mov	r0, #21
    80b0:	e3a0100b 	mov	r1, #11
    80b4:	e59f2004 	ldr	r2, [pc, #4]	; 80c0 <notmain+0x28>
    80b8:	ebffffd4 	bl	8010 <test_gen>
    80bc:	eb00016c 	bl	8674 <clean_reboot>
    80c0:	00001770 	andeq	r1, r0, r0, ror r7

000080c4 <printk>:
    80c4:	e92d000f 	push	{r0, r1, r2, r3}
    80c8:	e92d4030 	push	{r4, r5, lr}
    80cc:	e24dd00c 	sub	sp, sp, #12
    80d0:	e28d301c 	add	r3, sp, #28
    80d4:	e58d3004 	str	r3, [sp, #4]
    80d8:	e59f4034 	ldr	r4, [pc, #52]	; 8114 <printk+0x50>
    80dc:	e1a00004 	mov	r0, r4
    80e0:	e3a01b01 	mov	r1, #1024	; 0x400
    80e4:	e59d2018 	ldr	r2, [sp, #24]
    80e8:	eb0000bc 	bl	83e0 <va_printk>
    80ec:	e1a05000 	mov	r5, r0
    80f0:	e59f3020 	ldr	r3, [pc, #32]	; 8118 <printk+0x54>
    80f4:	e5933000 	ldr	r3, [r3]
    80f8:	e1a00004 	mov	r0, r4
    80fc:	e12fff33 	blx	r3
    8100:	e1a00005 	mov	r0, r5
    8104:	e28dd00c 	add	sp, sp, #12
    8108:	e8bd4030 	pop	{r4, r5, lr}
    810c:	e28dd010 	add	sp, sp, #16
    8110:	e12fff1e 	bx	lr
    8114:	000099b4 			; <UNDEFINED> instruction: 0x000099b4
    8118:	000096b4 			; <UNDEFINED> instruction: 0x000096b4

0000811c <internal_putk>:
    811c:	e92d4038 	push	{r3, r4, r5, lr}
    8120:	e1a04000 	mov	r4, r0
    8124:	e59f5020 	ldr	r5, [pc, #32]	; 814c <internal_putk+0x30>
    8128:	ea000002 	b	8138 <internal_putk+0x1c>
    812c:	e5953000 	ldr	r3, [r5]
    8130:	e12fff33 	blx	r3
    8134:	e2844001 	add	r4, r4, #1
    8138:	e5d40000 	ldrb	r0, [r4]
    813c:	e3500000 	cmp	r0, #0
    8140:	1afffff9 	bne	812c <internal_putk+0x10>
    8144:	e3a00001 	mov	r0, #1
    8148:	e8bd8038 	pop	{r3, r4, r5, pc}
    814c:	00009718 	andeq	r9, r0, r8, lsl r7

00008150 <isdigit>:
    8150:	e2400030 	sub	r0, r0, #48	; 0x30
    8154:	e3500009 	cmp	r0, #9
    8158:	83a00000 	movhi	r0, #0
    815c:	93a00001 	movls	r0, #1
    8160:	e12fff1e 	bx	lr

00008164 <pad>:
    8164:	e0611000 	rsb	r1, r1, r0
    8168:	e3a03020 	mov	r3, #32
    816c:	ea000002 	b	817c <pad+0x18>
    8170:	e5c03000 	strb	r3, [r0]
    8174:	e2811001 	add	r1, r1, #1
    8178:	e2800001 	add	r0, r0, #1
    817c:	e1510002 	cmp	r1, r2
    8180:	bafffffa 	blt	8170 <pad+0xc>
    8184:	e3a03000 	mov	r3, #0
    8188:	e5c03000 	strb	r3, [r0]
    818c:	e12fff1e 	bx	lr

00008190 <reverse>:
    8190:	e063c002 	rsb	ip, r3, r2
    8194:	e28cc001 	add	ip, ip, #1
    8198:	e15c0001 	cmp	ip, r1
    819c:	c061100c 	rsbgt	r1, r1, ip
    81a0:	c0833001 	addgt	r3, r3, r1
    81a4:	e2422001 	sub	r2, r2, #1
    81a8:	e1a01000 	mov	r1, r0
    81ac:	ea000002 	b	81bc <reverse+0x2c>
    81b0:	e452c001 	ldrb	ip, [r2], #-1
    81b4:	e5c1c000 	strb	ip, [r1]
    81b8:	e2811001 	add	r1, r1, #1
    81bc:	e1520003 	cmp	r2, r3
    81c0:	2afffffa 	bcs	81b0 <reverse+0x20>
    81c4:	e3a03000 	mov	r3, #0
    81c8:	e5c13000 	strb	r3, [r1]
    81cc:	e12fff1e 	bx	lr

000081d0 <emit>:
    81d0:	e92d41f0 	push	{r4, r5, r6, r7, r8, lr}
    81d4:	e24dd048 	sub	sp, sp, #72	; 0x48
    81d8:	e1a05001 	mov	r5, r1
    81dc:	e1a04002 	mov	r4, r2
    81e0:	e59d2060 	ldr	r2, [sp, #96]	; 0x60
    81e4:	e1520004 	cmp	r2, r4
    81e8:	c2442001 	subgt	r2, r4, #1
    81ec:	e1a0c003 	mov	ip, r3
    81f0:	e2400002 	sub	r0, r0, #2
    81f4:	e350000e 	cmp	r0, #14
    81f8:	979ff100 	ldrls	pc, [pc, r0, lsl #2]
    81fc:	ea000042 	b	830c <emit+0x13c>
    8200:	000082e4 	andeq	r8, r0, r4, ror #5
    8204:	0000830c 	andeq	r8, r0, ip, lsl #6
    8208:	0000830c 	andeq	r8, r0, ip, lsl #6
    820c:	0000830c 	andeq	r8, r0, ip, lsl #6
    8210:	0000830c 	andeq	r8, r0, ip, lsl #6
    8214:	0000830c 	andeq	r8, r0, ip, lsl #6
    8218:	000082d8 	ldrdeq	r8, [r0], -r8	; <UNPREDICTABLE>
    821c:	0000830c 	andeq	r8, r0, ip, lsl #6
    8220:	0000823c 	andeq	r8, r0, ip, lsr r2
    8224:	0000830c 	andeq	r8, r0, ip, lsl #6
    8228:	0000830c 	andeq	r8, r0, ip, lsl #6
    822c:	0000830c 	andeq	r8, r0, ip, lsl #6
    8230:	0000830c 	andeq	r8, r0, ip, lsl #6
    8234:	0000830c 	andeq	r8, r0, ip, lsl #6
    8238:	000082b0 			; <UNDEFINED> instruction: 0x000082b0
    823c:	e59d1064 	ldr	r1, [sp, #100]	; 0x64
    8240:	e2911000 	adds	r1, r1, #0
    8244:	13a01001 	movne	r1, #1
    8248:	e0111fa3 	ands	r1, r1, r3, lsr #31
    824c:	1263c000 	rsbne	ip, r3, #0
    8250:	13a08001 	movne	r8, #1
    8254:	03a08000 	moveq	r8, #0
    8258:	e28d1008 	add	r1, sp, #8
    825c:	e59f70f4 	ldr	r7, [pc, #244]	; 8358 <emit+0x188>
    8260:	e59f60f4 	ldr	r6, [pc, #244]	; 835c <emit+0x18c>
    8264:	ea000000 	b	826c <emit+0x9c>
    8268:	e1a01003 	mov	r1, r3
    826c:	e2813001 	add	r3, r1, #1
    8270:	e08e0c97 	umull	r0, lr, r7, ip
    8274:	e1a0e1ae 	lsr	lr, lr, #3
    8278:	e1a0000e 	mov	r0, lr
    827c:	e08ee10e 	add	lr, lr, lr, lsl #2
    8280:	e1a0e08e 	lsl	lr, lr, #1
    8284:	e06ee00c 	rsb	lr, lr, ip
    8288:	e7d6c00e 	ldrb	ip, [r6, lr]
    828c:	e5c1c000 	strb	ip, [r1]
    8290:	e1a0c000 	mov	ip, r0
    8294:	e3500000 	cmp	r0, #0
    8298:	1afffff2 	bne	8268 <emit+0x98>
    829c:	e3580000 	cmp	r8, #0
    82a0:	12813002 	addne	r3, r1, #2
    82a4:	13a0002d 	movne	r0, #45	; 0x2d
    82a8:	15c10001 	strbne	r0, [r1, #1]
    82ac:	ea00001f 	b	8330 <emit+0x160>
    82b0:	e28de008 	add	lr, sp, #8
    82b4:	e59f00a4 	ldr	r0, [pc, #164]	; 8360 <emit+0x190>
    82b8:	e28e3001 	add	r3, lr, #1
    82bc:	e20c100f 	and	r1, ip, #15
    82c0:	e7d01001 	ldrb	r1, [r0, r1]
    82c4:	e5ce1000 	strb	r1, [lr]
    82c8:	e1a0e003 	mov	lr, r3
    82cc:	e1b0c22c 	lsrs	ip, ip, #4
    82d0:	1afffff8 	bne	82b8 <emit+0xe8>
    82d4:	ea000015 	b	8330 <emit+0x160>
    82d8:	e5cd3008 	strb	r3, [sp, #8]
    82dc:	e28d3009 	add	r3, sp, #9
    82e0:	ea000012 	b	8330 <emit+0x160>
    82e4:	e28de008 	add	lr, sp, #8
    82e8:	e59f0074 	ldr	r0, [pc, #116]	; 8364 <emit+0x194>
    82ec:	e28e3001 	add	r3, lr, #1
    82f0:	e20c1001 	and	r1, ip, #1
    82f4:	e7d01001 	ldrb	r1, [r0, r1]
    82f8:	e5ce1000 	strb	r1, [lr]
    82fc:	e1a0e003 	mov	lr, r3
    8300:	e1b0c0ac 	lsrs	ip, ip, #1
    8304:	1afffff8 	bne	82ec <emit+0x11c>
    8308:	ea000008 	b	8330 <emit+0x160>
    830c:	eb00046d 	bl	94c8 <rpi_reset_putc>
    8310:	e59f3050 	ldr	r3, [pc, #80]	; 8368 <emit+0x198>
    8314:	e58d3000 	str	r3, [sp]
    8318:	e59f004c 	ldr	r0, [pc, #76]	; 836c <emit+0x19c>
    831c:	e59f104c 	ldr	r1, [pc, #76]	; 8370 <emit+0x1a0>
    8320:	e59f204c 	ldr	r2, [pc, #76]	; 8374 <emit+0x1a4>
    8324:	e3a03075 	mov	r3, #117	; 0x75
    8328:	ebffff65 	bl	80c4 <printk>
    832c:	eb0000d0 	bl	8674 <clean_reboot>
    8330:	e1a00003 	mov	r0, r3
    8334:	e28d1008 	add	r1, sp, #8
    8338:	ebffff89 	bl	8164 <pad>
    833c:	e1a02000 	mov	r2, r0
    8340:	e1a00005 	mov	r0, r5
    8344:	e1a01004 	mov	r1, r4
    8348:	e28d3008 	add	r3, sp, #8
    834c:	ebffff8f 	bl	8190 <reverse>
    8350:	e28dd048 	add	sp, sp, #72	; 0x48
    8354:	e8bd81f0 	pop	{r4, r5, r6, r7, r8, pc}
    8358:	cccccccd 	stclgt	12, cr12, [ip], {205}	; 0xcd
    835c:	000097c0 	andeq	r9, r0, r0, asr #15
    8360:	000097cc 	andeq	r9, r0, ip, asr #15
    8364:	000097e0 	andeq	r9, r0, r0, ror #15
    8368:	000097bc 			; <UNDEFINED> instruction: 0x000097bc
    836c:	00009794 	muleq	r0, r4, r7
    8370:	000097a8 	andeq	r9, r0, r8, lsr #15
    8374:	00009770 	andeq	r9, r0, r0, ror r7

00008378 <rpi_set_output>:
    8378:	e52de004 	push	{lr}		; (str lr, [sp, #-4]!)
    837c:	e24dd00c 	sub	sp, sp, #12
    8380:	e3500000 	cmp	r0, #0
    8384:	1a000008 	bne	83ac <rpi_set_output+0x34>
    8388:	eb00044e 	bl	94c8 <rpi_reset_putc>
    838c:	e59f3034 	ldr	r3, [pc, #52]	; 83c8 <rpi_set_output+0x50>
    8390:	e58d3000 	str	r3, [sp]
    8394:	e59f0030 	ldr	r0, [pc, #48]	; 83cc <rpi_set_output+0x54>
    8398:	e59f1030 	ldr	r1, [pc, #48]	; 83d0 <rpi_set_output+0x58>
    839c:	e59f2030 	ldr	r2, [pc, #48]	; 83d4 <rpi_set_output+0x5c>
    83a0:	e3a03020 	mov	r3, #32
    83a4:	ebffff46 	bl	80c4 <printk>
    83a8:	eb0000b1 	bl	8674 <clean_reboot>
    83ac:	e59f3024 	ldr	r3, [pc, #36]	; 83d8 <rpi_set_output+0x60>
    83b0:	e5830000 	str	r0, [r3]
    83b4:	e3510000 	cmp	r1, #0
    83b8:	159f301c 	ldrne	r3, [pc, #28]	; 83dc <rpi_set_output+0x64>
    83bc:	15831000 	strne	r1, [r3]
    83c0:	e28dd00c 	add	sp, sp, #12
    83c4:	e49df004 	pop	{pc}		; (ldr pc, [sp], #4)
    83c8:	000097e4 	andeq	r9, r0, r4, ror #15
    83cc:	00009794 	muleq	r0, r4, r7
    83d0:	000097a8 	andeq	r9, r0, r8, lsr #15
    83d4:	00009778 	andeq	r9, r0, r8, ror r7
    83d8:	00009718 	andeq	r9, r0, r8, lsl r7
    83dc:	000096b4 			; <UNDEFINED> instruction: 0x000096b4

000083e0 <va_printk>:
    83e0:	e92d4ff0 	push	{r4, r5, r6, r7, r8, r9, sl, fp, lr}
    83e4:	e24dd08c 	sub	sp, sp, #140	; 0x8c
    83e8:	e1a0a000 	mov	sl, r0
    83ec:	e1a09003 	mov	r9, r3
    83f0:	e2411001 	sub	r1, r1, #1
    83f4:	e0808001 	add	r8, r0, r1
    83f8:	e3a03000 	mov	r3, #0
    83fc:	e5c03000 	strb	r3, [r0]
    8400:	e1a04000 	mov	r4, r0
    8404:	e1a0b003 	mov	fp, r3
    8408:	ea000088 	b	8630 <va_printk+0x250>
    840c:	e3530025 	cmp	r3, #37	; 0x25
    8410:	12822001 	addne	r2, r2, #1
    8414:	15c43000 	strbne	r3, [r4]
    8418:	12844001 	addne	r4, r4, #1
    841c:	1a000083 	bne	8630 <va_printk+0x250>
    8420:	e5d21001 	ldrb	r1, [r2, #1]
    8424:	e3510025 	cmp	r1, #37	; 0x25
    8428:	05c43000 	strbeq	r3, [r4]
    842c:	02822002 	addeq	r2, r2, #2
    8430:	02844001 	addeq	r4, r4, #1
    8434:	0a00007d 	beq	8630 <va_printk+0x250>
    8438:	e2826001 	add	r6, r2, #1
    843c:	e1a0700b 	mov	r7, fp
    8440:	ea000004 	b	8458 <va_printk+0x78>
    8444:	e0877107 	add	r7, r7, r7, lsl #2
    8448:	e1a07087 	lsl	r7, r7, #1
    844c:	e0877005 	add	r7, r7, r5
    8450:	e2477030 	sub	r7, r7, #48	; 0x30
    8454:	e2866001 	add	r6, r6, #1
    8458:	e5d65000 	ldrb	r5, [r6]
    845c:	e1a00005 	mov	r0, r5
    8460:	ebffff3a 	bl	8150 <isdigit>
    8464:	e3500000 	cmp	r0, #0
    8468:	1afffff5 	bne	8444 <va_printk+0x64>
    846c:	e357001f 	cmp	r7, #31
    8470:	9a000008 	bls	8498 <va_printk+0xb8>
    8474:	eb000413 	bl	94c8 <rpi_reset_putc>
    8478:	e59f31dc 	ldr	r3, [pc, #476]	; 865c <va_printk+0x27c>
    847c:	e58d3000 	str	r3, [sp]
    8480:	e59f01d8 	ldr	r0, [pc, #472]	; 8660 <va_printk+0x280>
    8484:	e59f11d8 	ldr	r1, [pc, #472]	; 8664 <va_printk+0x284>
    8488:	e59f21d8 	ldr	r2, [pc, #472]	; 8668 <va_printk+0x288>
    848c:	e3a03092 	mov	r3, #146	; 0x92
    8490:	ebffff0b 	bl	80c4 <printk>
    8494:	eb000076 	bl	8674 <clean_reboot>
    8498:	e2455062 	sub	r5, r5, #98	; 0x62
    849c:	e3550016 	cmp	r5, #22
    84a0:	979ff105 	ldrls	pc, [pc, r5, lsl #2]
    84a4:	ea00004e 	b	85e4 <va_printk+0x204>
    84a8:	00008590 	muleq	r0, r0, r5
    84ac:	000085c0 	andeq	r8, r0, r0, asr #11
    84b0:	00008520 	andeq	r8, r0, r0, lsr #10
    84b4:	000085e4 	andeq	r8, r0, r4, ror #11
    84b8:	00008504 	andeq	r8, r0, r4, lsl #10
    84bc:	000085e4 	andeq	r8, r0, r4, ror #11
    84c0:	000085e4 	andeq	r8, r0, r4, ror #11
    84c4:	000085e4 	andeq	r8, r0, r4, ror #11
    84c8:	000085e4 	andeq	r8, r0, r4, ror #11
    84cc:	000085e4 	andeq	r8, r0, r4, ror #11
    84d0:	000085e4 	andeq	r8, r0, r4, ror #11
    84d4:	000085e4 	andeq	r8, r0, r4, ror #11
    84d8:	000085e4 	andeq	r8, r0, r4, ror #11
    84dc:	000085e4 	andeq	r8, r0, r4, ror #11
    84e0:	0000856c 	andeq	r8, r0, ip, ror #10
    84e4:	000085e4 	andeq	r8, r0, r4, ror #11
    84e8:	000085e4 	andeq	r8, r0, r4, ror #11
    84ec:	000085b4 			; <UNDEFINED> instruction: 0x000085b4
    84f0:	000085e4 	andeq	r8, r0, r4, ror #11
    84f4:	00008548 	andeq	r8, r0, r8, asr #10
    84f8:	000085e4 	andeq	r8, r0, r4, ror #11
    84fc:	000085e4 	andeq	r8, r0, r4, ror #11
    8500:	0000856c 	andeq	r8, r0, ip, ror #10
    8504:	eb0003ef 	bl	94c8 <rpi_reset_putc>
    8508:	e59f015c 	ldr	r0, [pc, #348]	; 866c <va_printk+0x28c>
    850c:	e59f1150 	ldr	r1, [pc, #336]	; 8664 <va_printk+0x284>
    8510:	e59f2150 	ldr	r2, [pc, #336]	; 8668 <va_printk+0x288>
    8514:	e3a03098 	mov	r3, #152	; 0x98
    8518:	ebfffee9 	bl	80c4 <printk>
    851c:	eb000054 	bl	8674 <clean_reboot>
    8520:	e5993000 	ldr	r3, [r9]
    8524:	e2899004 	add	r9, r9, #4
    8528:	e58d7000 	str	r7, [sp]
    852c:	e3a02001 	mov	r2, #1
    8530:	e58d2004 	str	r2, [sp, #4]
    8534:	e3a0000a 	mov	r0, #10
    8538:	e28d1008 	add	r1, sp, #8
    853c:	e3a02080 	mov	r2, #128	; 0x80
    8540:	ebffff22 	bl	81d0 <emit>
    8544:	ea00002f 	b	8608 <va_printk+0x228>
    8548:	e5993000 	ldr	r3, [r9]
    854c:	e2899004 	add	r9, r9, #4
    8550:	e58d7000 	str	r7, [sp]
    8554:	e58db004 	str	fp, [sp, #4]
    8558:	e3a0000a 	mov	r0, #10
    855c:	e28d1008 	add	r1, sp, #8
    8560:	e3a02080 	mov	r2, #128	; 0x80
    8564:	ebffff19 	bl	81d0 <emit>
    8568:	ea000026 	b	8608 <va_printk+0x228>
    856c:	e5993000 	ldr	r3, [r9]
    8570:	e2899004 	add	r9, r9, #4
    8574:	e58d7000 	str	r7, [sp]
    8578:	e58db004 	str	fp, [sp, #4]
    857c:	e3a00010 	mov	r0, #16
    8580:	e28d1008 	add	r1, sp, #8
    8584:	e3a02080 	mov	r2, #128	; 0x80
    8588:	ebffff10 	bl	81d0 <emit>
    858c:	ea00001d 	b	8608 <va_printk+0x228>
    8590:	e5993000 	ldr	r3, [r9]
    8594:	e2899004 	add	r9, r9, #4
    8598:	e58d7000 	str	r7, [sp]
    859c:	e58db004 	str	fp, [sp, #4]
    85a0:	e3a00002 	mov	r0, #2
    85a4:	e28d1008 	add	r1, sp, #8
    85a8:	e3a02080 	mov	r2, #128	; 0x80
    85ac:	ebffff07 	bl	81d0 <emit>
    85b0:	ea000014 	b	8608 <va_printk+0x228>
    85b4:	e5990000 	ldr	r0, [r9]
    85b8:	e2899004 	add	r9, r9, #4
    85bc:	ea000011 	b	8608 <va_printk+0x228>
    85c0:	e5993000 	ldr	r3, [r9]
    85c4:	e2899004 	add	r9, r9, #4
    85c8:	e58d7000 	str	r7, [sp]
    85cc:	e58db004 	str	fp, [sp, #4]
    85d0:	e3a00008 	mov	r0, #8
    85d4:	e08d1000 	add	r1, sp, r0
    85d8:	e3a02080 	mov	r2, #128	; 0x80
    85dc:	ebfffefb 	bl	81d0 <emit>
    85e0:	ea000008 	b	8608 <va_printk+0x228>
    85e4:	eb0003b7 	bl	94c8 <rpi_reset_putc>
    85e8:	e5d63000 	ldrb	r3, [r6]
    85ec:	e58d3000 	str	r3, [sp]
    85f0:	e59f0078 	ldr	r0, [pc, #120]	; 8670 <va_printk+0x290>
    85f4:	e59f1068 	ldr	r1, [pc, #104]	; 8664 <va_printk+0x284>
    85f8:	e59f2068 	ldr	r2, [pc, #104]	; 8668 <va_printk+0x288>
    85fc:	e3a030b9 	mov	r3, #185	; 0xb9
    8600:	ebfffeaf 	bl	80c4 <printk>
    8604:	eb00001a 	bl	8674 <clean_reboot>
    8608:	e2862001 	add	r2, r6, #1
    860c:	ea000002 	b	861c <va_printk+0x23c>
    8610:	e2800001 	add	r0, r0, #1
    8614:	e5c43000 	strb	r3, [r4]
    8618:	e2844001 	add	r4, r4, #1
    861c:	e1540008 	cmp	r4, r8
    8620:	2a000002 	bcs	8630 <va_printk+0x250>
    8624:	e5d03000 	ldrb	r3, [r0]
    8628:	e3530000 	cmp	r3, #0
    862c:	1afffff7 	bne	8610 <va_printk+0x230>
    8630:	e5d23000 	ldrb	r3, [r2]
    8634:	e3530000 	cmp	r3, #0
    8638:	0a000001 	beq	8644 <va_printk+0x264>
    863c:	e1540008 	cmp	r4, r8
    8640:	3affff71 	bcc	840c <va_printk+0x2c>
    8644:	e2840001 	add	r0, r4, #1
    8648:	e3a03000 	mov	r3, #0
    864c:	e5c43000 	strb	r3, [r4]
    8650:	e06a0000 	rsb	r0, sl, r0
    8654:	e28dd08c 	add	sp, sp, #140	; 0x8c
    8658:	e8bd8ff0 	pop	{r4, r5, r6, r7, r8, r9, sl, fp, pc}
    865c:	000097ec 	andeq	r9, r0, ip, ror #15
    8660:	00009794 	muleq	r0, r4, r7
    8664:	000097a8 	andeq	r9, r0, r8, lsr #15
    8668:	00009788 	andeq	r9, r0, r8, lsl #15
    866c:	000097f8 	strdeq	r9, [r0], -r8
    8670:	00009820 	andeq	r9, r0, r0, lsr #16

00008674 <clean_reboot>:
    8674:	e92d4008 	push	{r3, lr}
    8678:	e59f3014 	ldr	r3, [pc, #20]	; 8694 <clean_reboot+0x20>
    867c:	e5933000 	ldr	r3, [r3]
    8680:	e59f0010 	ldr	r0, [pc, #16]	; 8698 <clean_reboot+0x24>
    8684:	e12fff33 	blx	r3
    8688:	e3a00064 	mov	r0, #100	; 0x64
    868c:	eb000063 	bl	8820 <delay_ms>
    8690:	eb000038 	bl	8778 <rpi_reboot>
    8694:	000096b4 			; <UNDEFINED> instruction: 0x000096b4
    8698:	00009858 	andeq	r9, r0, r8, asr r8

0000869c <internal_sw_putchar>:
    869c:	e92d4010 	push	{r4, lr}
    86a0:	e1a04000 	mov	r4, r0
    86a4:	e59f000c 	ldr	r0, [pc, #12]	; 86b8 <internal_sw_putchar+0x1c>
    86a8:	e6ef1074 	uxtb	r1, r4
    86ac:	eb0001cd 	bl	8de8 <sw_uart_putc>
    86b0:	e1a00004 	mov	r0, r4
    86b4:	e8bd8010 	pop	{r4, pc}
    86b8:	00009db4 			; <UNDEFINED> instruction: 0x00009db4

000086bc <_cstart>:
    86bc:	e92d4008 	push	{r3, lr}
    86c0:	e59f3068 	ldr	r3, [pc, #104]	; 8730 <_cstart+0x74>
    86c4:	e59f2068 	ldr	r2, [pc, #104]	; 8734 <_cstart+0x78>
    86c8:	e3a01000 	mov	r1, #0
    86cc:	ea000001 	b	86d8 <_cstart+0x1c>
    86d0:	e5831000 	str	r1, [r3]
    86d4:	e2833004 	add	r3, r3, #4
    86d8:	e1530002 	cmp	r3, r2
    86dc:	3afffffb 	bcc	86d0 <_cstart+0x14>
    86e0:	eb00038c 	bl	9518 <cb_get_block>
    86e4:	e3500000 	cmp	r0, #0
    86e8:	0a00000e 	beq	8728 <_cstart+0x6c>
    86ec:	e5d02004 	ldrb	r2, [r0, #4]
    86f0:	e3520002 	cmp	r2, #2
    86f4:	1a00000b 	bne	8728 <_cstart+0x6c>
    86f8:	e59f1038 	ldr	r1, [pc, #56]	; 8738 <_cstart+0x7c>
    86fc:	e59f2038 	ldr	r2, [pc, #56]	; 873c <_cstart+0x80>
    8700:	e5821000 	str	r1, [r2]
    8704:	e59fc034 	ldr	ip, [pc, #52]	; 8740 <_cstart+0x84>
    8708:	e2803008 	add	r3, r0, #8
    870c:	e8930007 	ldm	r3, {r0, r1, r2}
    8710:	e88c0007 	stm	ip, {r0, r1, r2}
    8714:	e1a0000c 	mov	r0, ip
    8718:	e59f1024 	ldr	r1, [pc, #36]	; 8744 <_cstart+0x88>
    871c:	eb000314 	bl	9374 <sw_uart_printk>
    8720:	e59f0020 	ldr	r0, [pc, #32]	; 8748 <_cstart+0x8c>
    8724:	ebfffe66 	bl	80c4 <printk>
    8728:	ebfffe5a 	bl	8098 <notmain>
    872c:	eb000011 	bl	8778 <rpi_reboot>
    8730:	000099ac 	andeq	r9, r0, ip, lsr #19
    8734:	00009dc0 	andeq	r9, r0, r0, asr #27
    8738:	0000869c 	muleq	r0, ip, r6
    873c:	00009718 	andeq	r9, r0, r8, lsl r7
    8740:	00009db4 			; <UNDEFINED> instruction: 0x00009db4
    8744:	00009864 	andeq	r9, r0, r4, ror #16
    8748:	00009888 	andeq	r9, r0, r8, lsl #17

0000874c <at_user_level>:
    874c:	e10f0000 	mrs	r0, CPSR
    8750:	e200001f 	and	r0, r0, #31
    8754:	e3500010 	cmp	r0, #16
    8758:	13a00000 	movne	r0, #0
    875c:	03a00001 	moveq	r0, #1
    8760:	e12fff1e 	bx	lr

00008764 <set_user_level>:
    8764:	e10f3000 	mrs	r3, CPSR
    8768:	e3c3301f 	bic	r3, r3, #31
    876c:	e3833010 	orr	r3, r3, #16
    8770:	e129f003 	msr	CPSR_fc, r3
    8774:	e12fff1e 	bx	lr

00008778 <rpi_reboot>:
    8778:	e92d4008 	push	{r3, lr}
    877c:	ebfffff2 	bl	874c <at_user_level>
    8780:	e3500000 	cmp	r0, #0
    8784:	0a000000 	beq	878c <rpi_reboot+0x14>
    8788:	ebfffff5 	bl	8764 <set_user_level>
    878c:	e3a0001e 	mov	r0, #30
    8790:	eb000022 	bl	8820 <delay_ms>
    8794:	e59f0014 	ldr	r0, [pc, #20]	; 87b0 <rpi_reboot+0x38>
    8798:	e59f1014 	ldr	r1, [pc, #20]	; 87b4 <rpi_reboot+0x3c>
    879c:	eb000333 	bl	9470 <PUT32>
    87a0:	e59f0010 	ldr	r0, [pc, #16]	; 87b8 <rpi_reboot+0x40>
    87a4:	e59f1010 	ldr	r1, [pc, #16]	; 87bc <rpi_reboot+0x44>
    87a8:	eb000330 	bl	9470 <PUT32>
    87ac:	eafffffe 	b	87ac <rpi_reboot+0x34>
    87b0:	20100024 	andscs	r0, r0, r4, lsr #32
    87b4:	5a000001 	bpl	87c0 <delay_cycles>
    87b8:	2010001c 	andscs	r0, r0, ip, lsl r0
    87bc:	5a000020 	bpl	8844 <delay_sec+0x10>

000087c0 <delay_cycles>:
    87c0:	ea000001 	b	87cc <delay_cycles+0xc>
    87c4:	e2811000 	add	r1, r1, #0
    87c8:	e1a00003 	mov	r0, r3
    87cc:	e2403001 	sub	r3, r0, #1
    87d0:	e3500000 	cmp	r0, #0
    87d4:	1afffffa 	bne	87c4 <delay_cycles+0x4>
    87d8:	e12fff1e 	bx	lr

000087dc <timer_get_usec_raw>:
    87dc:	e92d4008 	push	{r3, lr}
    87e0:	e59f0004 	ldr	r0, [pc, #4]	; 87ec <timer_get_usec_raw+0x10>
    87e4:	eb00032d 	bl	94a0 <GET32>
    87e8:	e8bd8008 	pop	{r3, pc}
    87ec:	20003004 	andcs	r3, r0, r4

000087f0 <timer_get_usec>:
    87f0:	e92d4008 	push	{r3, lr}
    87f4:	ebfffff8 	bl	87dc <timer_get_usec_raw>
    87f8:	e8bd8008 	pop	{r3, pc}

000087fc <delay_us>:
    87fc:	e92d4038 	push	{r3, r4, r5, lr}
    8800:	e1a05000 	mov	r5, r0
    8804:	ebfffff9 	bl	87f0 <timer_get_usec>
    8808:	e1a04000 	mov	r4, r0
    880c:	ebfffff7 	bl	87f0 <timer_get_usec>
    8810:	e0640000 	rsb	r0, r4, r0
    8814:	e1500005 	cmp	r0, r5
    8818:	3afffffb 	bcc	880c <delay_us+0x10>
    881c:	e8bd8038 	pop	{r3, r4, r5, pc}

00008820 <delay_ms>:
    8820:	e92d4008 	push	{r3, lr}
    8824:	e3a03ffa 	mov	r3, #1000	; 0x3e8
    8828:	e0000093 	mul	r0, r3, r0
    882c:	ebfffff2 	bl	87fc <delay_us>
    8830:	e8bd8008 	pop	{r3, pc}

00008834 <delay_sec>:
    8834:	e92d4008 	push	{r3, lr}
    8838:	e3a03ffa 	mov	r3, #1000	; 0x3e8
    883c:	e0000093 	mul	r0, r3, r0
    8840:	ebfffff6 	bl	8820 <delay_ms>
    8844:	e8bd8008 	pop	{r3, pc}

00008848 <gpio_set_output>:
    8848:	e92d4038 	push	{r3, r4, r5, lr}
    884c:	e1a04000 	mov	r4, r0
    8850:	e350001f 	cmp	r0, #31
    8854:	88bd8038 	pophi	{r3, r4, r5, pc}
    8858:	e59f30b4 	ldr	r3, [pc, #180]	; 8914 <gpio_set_output+0xcc>
    885c:	e0832093 	umull	r2, r3, r3, r0
    8860:	e1a031a3 	lsr	r3, r3, #3
    8864:	e3530005 	cmp	r3, #5
    8868:	979ff103 	ldrls	pc, [pc, r3, lsl #2]
    886c:	ea000017 	b	88d0 <gpio_set_output+0x88>
    8870:	00008888 	andeq	r8, r0, r8, lsl #17
    8874:	00008894 	muleq	r0, r4, r8
    8878:	000088a0 	andeq	r8, r0, r0, lsr #17
    887c:	000088ac 	andeq	r8, r0, ip, lsr #17
    8880:	000088b8 			; <UNDEFINED> instruction: 0x000088b8
    8884:	000088c4 	andeq	r8, r0, r4, asr #17
    8888:	e59f3088 	ldr	r3, [pc, #136]	; 8918 <gpio_set_output+0xd0>
    888c:	e5935000 	ldr	r5, [r3]
    8890:	ea00000f 	b	88d4 <gpio_set_output+0x8c>
    8894:	e59f307c 	ldr	r3, [pc, #124]	; 8918 <gpio_set_output+0xd0>
    8898:	e5935004 	ldr	r5, [r3, #4]
    889c:	ea00000c 	b	88d4 <gpio_set_output+0x8c>
    88a0:	e59f3070 	ldr	r3, [pc, #112]	; 8918 <gpio_set_output+0xd0>
    88a4:	e5935008 	ldr	r5, [r3, #8]
    88a8:	ea000009 	b	88d4 <gpio_set_output+0x8c>
    88ac:	e59f3064 	ldr	r3, [pc, #100]	; 8918 <gpio_set_output+0xd0>
    88b0:	e593500c 	ldr	r5, [r3, #12]
    88b4:	ea000006 	b	88d4 <gpio_set_output+0x8c>
    88b8:	e59f3058 	ldr	r3, [pc, #88]	; 8918 <gpio_set_output+0xd0>
    88bc:	e5935010 	ldr	r5, [r3, #16]
    88c0:	ea000003 	b	88d4 <gpio_set_output+0x8c>
    88c4:	e59f304c 	ldr	r3, [pc, #76]	; 8918 <gpio_set_output+0xd0>
    88c8:	e5935014 	ldr	r5, [r3, #20]
    88cc:	ea000000 	b	88d4 <gpio_set_output+0x8c>
    88d0:	e3a05000 	mov	r5, #0
    88d4:	e1a00005 	mov	r0, r5
    88d8:	eb0002ee 	bl	9498 <get32>
    88dc:	e59f1030 	ldr	r1, [pc, #48]	; 8914 <gpio_set_output+0xcc>
    88e0:	e0813491 	umull	r3, r1, r1, r4
    88e4:	e1a011a1 	lsr	r1, r1, #3
    88e8:	e0811101 	add	r1, r1, r1, lsl #2
    88ec:	e1a01081 	lsl	r1, r1, #1
    88f0:	e0611004 	rsb	r1, r1, r4
    88f4:	e0811081 	add	r1, r1, r1, lsl #1
    88f8:	e3a03007 	mov	r3, #7
    88fc:	e1c03113 	bic	r3, r0, r3, lsl r1
    8900:	e1a00005 	mov	r0, r5
    8904:	e3a02001 	mov	r2, #1
    8908:	e1831112 	orr	r1, r3, r2, lsl r1
    890c:	eb0002d5 	bl	9468 <put32>
    8910:	e8bd8038 	pop	{r3, r4, r5, pc}
    8914:	cccccccd 	stclgt	12, cr12, [ip], {205}	; 0xcd
    8918:	000096b8 			; <UNDEFINED> instruction: 0x000096b8

0000891c <gpio_set_on>:
    891c:	e92d4008 	push	{r3, lr}
    8920:	e350001f 	cmp	r0, #31
    8924:	88bd8008 	pophi	{r3, pc}
    8928:	959f3020 	ldrls	r3, [pc, #32]	; 8950 <gpio_set_on+0x34>
    892c:	95932018 	ldrls	r2, [r3, #24]
    8930:	859f3018 	ldrhi	r3, [pc, #24]	; 8950 <gpio_set_on+0x34>
    8934:	8593201c 	ldrhi	r2, [r3, #28]
    8938:	e200301f 	and	r3, r0, #31
    893c:	e1a00002 	mov	r0, r2
    8940:	e3a01001 	mov	r1, #1
    8944:	e1a01311 	lsl	r1, r1, r3
    8948:	eb0002c6 	bl	9468 <put32>
    894c:	e8bd8008 	pop	{r3, pc}
    8950:	000096b8 			; <UNDEFINED> instruction: 0x000096b8

00008954 <gpio_set_off>:
    8954:	e92d4008 	push	{r3, lr}
    8958:	e350001f 	cmp	r0, #31
    895c:	88bd8008 	pophi	{r3, pc}
    8960:	959f3020 	ldrls	r3, [pc, #32]	; 8988 <gpio_set_off+0x34>
    8964:	95932020 	ldrls	r2, [r3, #32]
    8968:	859f3018 	ldrhi	r3, [pc, #24]	; 8988 <gpio_set_off+0x34>
    896c:	85932024 	ldrhi	r2, [r3, #36]	; 0x24
    8970:	e200301f 	and	r3, r0, #31
    8974:	e1a00002 	mov	r0, r2
    8978:	e3a01001 	mov	r1, #1
    897c:	e1a01311 	lsl	r1, r1, r3
    8980:	eb0002b8 	bl	9468 <put32>
    8984:	e8bd8008 	pop	{r3, pc}
    8988:	000096b8 			; <UNDEFINED> instruction: 0x000096b8

0000898c <gpio_set_input>:
    898c:	e92d4038 	push	{r3, r4, r5, lr}
    8990:	e1a04000 	mov	r4, r0
    8994:	e350001f 	cmp	r0, #31
    8998:	88bd8038 	pophi	{r3, r4, r5, pc}
    899c:	e59f30ac 	ldr	r3, [pc, #172]	; 8a50 <gpio_set_input+0xc4>
    89a0:	e0832093 	umull	r2, r3, r3, r0
    89a4:	e1a031a3 	lsr	r3, r3, #3
    89a8:	e3530005 	cmp	r3, #5
    89ac:	979ff103 	ldrls	pc, [pc, r3, lsl #2]
    89b0:	ea000017 	b	8a14 <gpio_set_input+0x88>
    89b4:	000089cc 	andeq	r8, r0, ip, asr #19
    89b8:	000089d8 	ldrdeq	r8, [r0], -r8	; <UNPREDICTABLE>
    89bc:	000089e4 	andeq	r8, r0, r4, ror #19
    89c0:	000089f0 	strdeq	r8, [r0], -r0
    89c4:	000089fc 	strdeq	r8, [r0], -ip
    89c8:	00008a08 	andeq	r8, r0, r8, lsl #20
    89cc:	e59f3080 	ldr	r3, [pc, #128]	; 8a54 <gpio_set_input+0xc8>
    89d0:	e5935000 	ldr	r5, [r3]
    89d4:	ea00000f 	b	8a18 <gpio_set_input+0x8c>
    89d8:	e59f3074 	ldr	r3, [pc, #116]	; 8a54 <gpio_set_input+0xc8>
    89dc:	e5935004 	ldr	r5, [r3, #4]
    89e0:	ea00000c 	b	8a18 <gpio_set_input+0x8c>
    89e4:	e59f3068 	ldr	r3, [pc, #104]	; 8a54 <gpio_set_input+0xc8>
    89e8:	e5935008 	ldr	r5, [r3, #8]
    89ec:	ea000009 	b	8a18 <gpio_set_input+0x8c>
    89f0:	e59f305c 	ldr	r3, [pc, #92]	; 8a54 <gpio_set_input+0xc8>
    89f4:	e593500c 	ldr	r5, [r3, #12]
    89f8:	ea000006 	b	8a18 <gpio_set_input+0x8c>
    89fc:	e59f3050 	ldr	r3, [pc, #80]	; 8a54 <gpio_set_input+0xc8>
    8a00:	e5935010 	ldr	r5, [r3, #16]
    8a04:	ea000003 	b	8a18 <gpio_set_input+0x8c>
    8a08:	e59f3044 	ldr	r3, [pc, #68]	; 8a54 <gpio_set_input+0xc8>
    8a0c:	e5935014 	ldr	r5, [r3, #20]
    8a10:	ea000000 	b	8a18 <gpio_set_input+0x8c>
    8a14:	e3a05000 	mov	r5, #0
    8a18:	e1a00005 	mov	r0, r5
    8a1c:	eb00029d 	bl	9498 <get32>
    8a20:	e59f1028 	ldr	r1, [pc, #40]	; 8a50 <gpio_set_input+0xc4>
    8a24:	e0813491 	umull	r3, r1, r1, r4
    8a28:	e1a011a1 	lsr	r1, r1, #3
    8a2c:	e0811101 	add	r1, r1, r1, lsl #2
    8a30:	e1a01081 	lsl	r1, r1, #1
    8a34:	e0611004 	rsb	r1, r1, r4
    8a38:	e0811081 	add	r1, r1, r1, lsl #1
    8a3c:	e3a03007 	mov	r3, #7
    8a40:	e1c01113 	bic	r1, r0, r3, lsl r1
    8a44:	e1a00005 	mov	r0, r5
    8a48:	eb000286 	bl	9468 <put32>
    8a4c:	e8bd8038 	pop	{r3, r4, r5, pc}
    8a50:	cccccccd 	stclgt	12, cr12, [ip], {205}	; 0xcd
    8a54:	000096b8 			; <UNDEFINED> instruction: 0x000096b8

00008a58 <gpio_read>:
    8a58:	e92d4010 	push	{r4, lr}
    8a5c:	e1a04000 	mov	r4, r0
    8a60:	e350001f 	cmp	r0, #31
    8a64:	8a00000b 	bhi	8a98 <gpio_read+0x40>
    8a68:	8a000003 	bhi	8a7c <gpio_read+0x24>
    8a6c:	e59f302c 	ldr	r3, [pc, #44]	; 8aa0 <gpio_read+0x48>
    8a70:	e5930028 	ldr	r0, [r3, #40]	; 0x28
    8a74:	eb000287 	bl	9498 <get32>
    8a78:	ea000002 	b	8a88 <gpio_read+0x30>
    8a7c:	e59f301c 	ldr	r3, [pc, #28]	; 8aa0 <gpio_read+0x48>
    8a80:	e593002c 	ldr	r0, [r3, #44]	; 0x2c
    8a84:	eb000283 	bl	9498 <get32>
    8a88:	e204401f 	and	r4, r4, #31
    8a8c:	e3a03001 	mov	r3, #1
    8a90:	e0000413 	and	r0, r0, r3, lsl r4
    8a94:	e8bd8010 	pop	{r4, pc}
    8a98:	e3e00000 	mvn	r0, #0
    8a9c:	e8bd8010 	pop	{r4, pc}
    8aa0:	000096b8 			; <UNDEFINED> instruction: 0x000096b8

00008aa4 <gpio_write>:
    8aa4:	e92d4008 	push	{r3, lr}
    8aa8:	e350001f 	cmp	r0, #31
    8aac:	88bd8008 	pophi	{r3, pc}
    8ab0:	e3510000 	cmp	r1, #0
    8ab4:	0a000001 	beq	8ac0 <gpio_write+0x1c>
    8ab8:	ebffff97 	bl	891c <gpio_set_on>
    8abc:	e8bd8008 	pop	{r3, pc}
    8ac0:	ebffffa3 	bl	8954 <gpio_set_off>
    8ac4:	e8bd8008 	pop	{r3, pc}

00008ac8 <gpio_set_function>:
    8ac8:	e92d4070 	push	{r4, r5, r6, lr}
    8acc:	e1a04000 	mov	r4, r0
    8ad0:	e1a05001 	mov	r5, r1
    8ad4:	e3510007 	cmp	r1, #7
    8ad8:	9350001f 	cmpls	r0, #31
    8adc:	88bd8070 	pophi	{r4, r5, r6, pc}
    8ae0:	e59f30b0 	ldr	r3, [pc, #176]	; 8b98 <gpio_set_function+0xd0>
    8ae4:	e0832093 	umull	r2, r3, r3, r0
    8ae8:	e1a031a3 	lsr	r3, r3, #3
    8aec:	e3530005 	cmp	r3, #5
    8af0:	979ff103 	ldrls	pc, [pc, r3, lsl #2]
    8af4:	ea000017 	b	8b58 <gpio_set_function+0x90>
    8af8:	00008b10 	andeq	r8, r0, r0, lsl fp
    8afc:	00008b1c 	andeq	r8, r0, ip, lsl fp
    8b00:	00008b28 	andeq	r8, r0, r8, lsr #22
    8b04:	00008b34 	andeq	r8, r0, r4, lsr fp
    8b08:	00008b40 	andeq	r8, r0, r0, asr #22
    8b0c:	00008b4c 	andeq	r8, r0, ip, asr #22
    8b10:	e59f3084 	ldr	r3, [pc, #132]	; 8b9c <gpio_set_function+0xd4>
    8b14:	e5936000 	ldr	r6, [r3]
    8b18:	ea00000f 	b	8b5c <gpio_set_function+0x94>
    8b1c:	e59f3078 	ldr	r3, [pc, #120]	; 8b9c <gpio_set_function+0xd4>
    8b20:	e5936004 	ldr	r6, [r3, #4]
    8b24:	ea00000c 	b	8b5c <gpio_set_function+0x94>
    8b28:	e59f306c 	ldr	r3, [pc, #108]	; 8b9c <gpio_set_function+0xd4>
    8b2c:	e5936008 	ldr	r6, [r3, #8]
    8b30:	ea000009 	b	8b5c <gpio_set_function+0x94>
    8b34:	e59f3060 	ldr	r3, [pc, #96]	; 8b9c <gpio_set_function+0xd4>
    8b38:	e593600c 	ldr	r6, [r3, #12]
    8b3c:	ea000006 	b	8b5c <gpio_set_function+0x94>
    8b40:	e59f3054 	ldr	r3, [pc, #84]	; 8b9c <gpio_set_function+0xd4>
    8b44:	e5936010 	ldr	r6, [r3, #16]
    8b48:	ea000003 	b	8b5c <gpio_set_function+0x94>
    8b4c:	e59f3048 	ldr	r3, [pc, #72]	; 8b9c <gpio_set_function+0xd4>
    8b50:	e5936014 	ldr	r6, [r3, #20]
    8b54:	ea000000 	b	8b5c <gpio_set_function+0x94>
    8b58:	e3a06000 	mov	r6, #0
    8b5c:	e1a00006 	mov	r0, r6
    8b60:	eb00024c 	bl	9498 <get32>
    8b64:	e59f302c 	ldr	r3, [pc, #44]	; 8b98 <gpio_set_function+0xd0>
    8b68:	e0832493 	umull	r2, r3, r3, r4
    8b6c:	e1a031a3 	lsr	r3, r3, #3
    8b70:	e0833103 	add	r3, r3, r3, lsl #2
    8b74:	e1a03083 	lsl	r3, r3, #1
    8b78:	e0633004 	rsb	r3, r3, r4
    8b7c:	e0833083 	add	r3, r3, r3, lsl #1
    8b80:	e3a01007 	mov	r1, #7
    8b84:	e1c01311 	bic	r1, r0, r1, lsl r3
    8b88:	e1a00006 	mov	r0, r6
    8b8c:	e1811315 	orr	r1, r1, r5, lsl r3
    8b90:	eb000234 	bl	9468 <put32>
    8b94:	e8bd8070 	pop	{r4, r5, r6, pc}
    8b98:	cccccccd 	stclgt	12, cr12, [ip], {205}	; 0xcd
    8b9c:	000096b8 			; <UNDEFINED> instruction: 0x000096b8

00008ba0 <gpio_toggle>:
    8ba0:	e92d4008 	push	{r3, lr}
    8ba4:	e350001f 	cmp	r0, #31
    8ba8:	88bd8008 	pophi	{r3, pc}
    8bac:	959f3020 	ldrls	r3, [pc, #32]	; 8bd4 <gpio_toggle+0x34>
    8bb0:	95932018 	ldrls	r2, [r3, #24]
    8bb4:	859f3018 	ldrhi	r3, [pc, #24]	; 8bd4 <gpio_toggle+0x34>
    8bb8:	8593201c 	ldrhi	r2, [r3, #28]
    8bbc:	e200301f 	and	r3, r0, #31
    8bc0:	e1a00002 	mov	r0, r2
    8bc4:	e3a01001 	mov	r1, #1
    8bc8:	e1a01311 	lsl	r1, r1, r3
    8bcc:	eb000225 	bl	9468 <put32>
    8bd0:	e8bd8008 	pop	{r3, pc}
    8bd4:	000096b8 			; <UNDEFINED> instruction: 0x000096b8

00008bd8 <is_gpio_int>:
    8bd8:	e92d4008 	push	{r3, lr}
    8bdc:	e59f301c 	ldr	r3, [pc, #28]	; 8c00 <is_gpio_int+0x28>
    8be0:	e5930030 	ldr	r0, [r3, #48]	; 0x30
    8be4:	eb00022b 	bl	9498 <get32>
    8be8:	e3500000 	cmp	r0, #0
    8bec:	0a000001 	beq	8bf8 <is_gpio_int+0x20>
    8bf0:	e3a00001 	mov	r0, #1
    8bf4:	e8bd8008 	pop	{r3, pc}
    8bf8:	e3a00000 	mov	r0, #0
    8bfc:	e8bd8008 	pop	{r3, pc}
    8c00:	000096b8 			; <UNDEFINED> instruction: 0x000096b8

00008c04 <gpio_int_rising_edge>:
    8c04:	e92d4038 	push	{r3, r4, r5, lr}
    8c08:	e1a04000 	mov	r4, r0
    8c0c:	e350001f 	cmp	r0, #31
    8c10:	88bd8038 	pophi	{r3, r4, r5, pc}
    8c14:	eb00020d 	bl	9450 <dev_barrier>
    8c18:	e354001f 	cmp	r4, #31
    8c1c:	8a000007 	bhi	8c40 <gpio_int_rising_edge+0x3c>
    8c20:	e59f505c 	ldr	r5, [pc, #92]	; 8c84 <gpio_int_rising_edge+0x80>
    8c24:	e5950034 	ldr	r0, [r5, #52]	; 0x34
    8c28:	eb00021a 	bl	9498 <get32>
    8c2c:	e3a01001 	mov	r1, #1
    8c30:	e1801411 	orr	r1, r0, r1, lsl r4
    8c34:	e5950034 	ldr	r0, [r5, #52]	; 0x34
    8c38:	eb00020a 	bl	9468 <put32>
    8c3c:	ea000007 	b	8c60 <gpio_int_rising_edge+0x5c>
    8c40:	e59f503c 	ldr	r5, [pc, #60]	; 8c84 <gpio_int_rising_edge+0x80>
    8c44:	e5950038 	ldr	r0, [r5, #56]	; 0x38
    8c48:	eb000212 	bl	9498 <get32>
    8c4c:	e204401f 	and	r4, r4, #31
    8c50:	e3a01001 	mov	r1, #1
    8c54:	e1801411 	orr	r1, r0, r1, lsl r4
    8c58:	e5950038 	ldr	r0, [r5, #56]	; 0x38
    8c5c:	eb000201 	bl	9468 <put32>
    8c60:	eb0001fa 	bl	9450 <dev_barrier>
    8c64:	e59f4018 	ldr	r4, [pc, #24]	; 8c84 <gpio_int_rising_edge+0x80>
    8c68:	e594003c 	ldr	r0, [r4, #60]	; 0x3c
    8c6c:	eb000209 	bl	9498 <get32>
    8c70:	e3801802 	orr	r1, r0, #131072	; 0x20000
    8c74:	e594003c 	ldr	r0, [r4, #60]	; 0x3c
    8c78:	eb0001fa 	bl	9468 <put32>
    8c7c:	eb0001f3 	bl	9450 <dev_barrier>
    8c80:	e8bd8038 	pop	{r3, r4, r5, pc}
    8c84:	000096b8 			; <UNDEFINED> instruction: 0x000096b8

00008c88 <gpio_int_falling_edge>:
    8c88:	e92d4038 	push	{r3, r4, r5, lr}
    8c8c:	e1a04000 	mov	r4, r0
    8c90:	e350001f 	cmp	r0, #31
    8c94:	88bd8038 	pophi	{r3, r4, r5, pc}
    8c98:	eb0001ec 	bl	9450 <dev_barrier>
    8c9c:	e354001f 	cmp	r4, #31
    8ca0:	8a000007 	bhi	8cc4 <gpio_int_falling_edge+0x3c>
    8ca4:	e59f505c 	ldr	r5, [pc, #92]	; 8d08 <gpio_int_falling_edge+0x80>
    8ca8:	e5950040 	ldr	r0, [r5, #64]	; 0x40
    8cac:	eb0001f9 	bl	9498 <get32>
    8cb0:	e3a01001 	mov	r1, #1
    8cb4:	e1801411 	orr	r1, r0, r1, lsl r4
    8cb8:	e5950040 	ldr	r0, [r5, #64]	; 0x40
    8cbc:	eb0001e9 	bl	9468 <put32>
    8cc0:	ea000007 	b	8ce4 <gpio_int_falling_edge+0x5c>
    8cc4:	e59f503c 	ldr	r5, [pc, #60]	; 8d08 <gpio_int_falling_edge+0x80>
    8cc8:	e5950044 	ldr	r0, [r5, #68]	; 0x44
    8ccc:	eb0001f1 	bl	9498 <get32>
    8cd0:	e204401f 	and	r4, r4, #31
    8cd4:	e3a01001 	mov	r1, #1
    8cd8:	e1801411 	orr	r1, r0, r1, lsl r4
    8cdc:	e5950044 	ldr	r0, [r5, #68]	; 0x44
    8ce0:	eb0001e0 	bl	9468 <put32>
    8ce4:	eb0001d9 	bl	9450 <dev_barrier>
    8ce8:	e59f4018 	ldr	r4, [pc, #24]	; 8d08 <gpio_int_falling_edge+0x80>
    8cec:	e594003c 	ldr	r0, [r4, #60]	; 0x3c
    8cf0:	eb0001e8 	bl	9498 <get32>
    8cf4:	e3801601 	orr	r1, r0, #1048576	; 0x100000
    8cf8:	e594003c 	ldr	r0, [r4, #60]	; 0x3c
    8cfc:	eb0001d9 	bl	9468 <put32>
    8d00:	eb0001d2 	bl	9450 <dev_barrier>
    8d04:	e8bd8038 	pop	{r3, r4, r5, pc}
    8d08:	000096b8 			; <UNDEFINED> instruction: 0x000096b8

00008d0c <gpio_event_detected>:
    8d0c:	e92d4010 	push	{r4, lr}
    8d10:	e1a04000 	mov	r4, r0
    8d14:	e350001f 	cmp	r0, #31
    8d18:	8a000019 	bhi	8d84 <gpio_event_detected+0x78>
    8d1c:	eb0001cb 	bl	9450 <dev_barrier>
    8d20:	e354001f 	cmp	r4, #31
    8d24:	8a000008 	bhi	8d4c <gpio_event_detected+0x40>
    8d28:	e59f305c 	ldr	r3, [pc, #92]	; 8d8c <gpio_event_detected+0x80>
    8d2c:	e5930048 	ldr	r0, [r3, #72]	; 0x48
    8d30:	eb0001d8 	bl	9498 <get32>
    8d34:	e3a03001 	mov	r3, #1
    8d38:	e0103413 	ands	r3, r0, r3, lsl r4
    8d3c:	0a00000d 	beq	8d78 <gpio_event_detected+0x6c>
    8d40:	eb0001c2 	bl	9450 <dev_barrier>
    8d44:	e3a00001 	mov	r0, #1
    8d48:	e8bd8010 	pop	{r4, pc}
    8d4c:	e59f3038 	ldr	r3, [pc, #56]	; 8d8c <gpio_event_detected+0x80>
    8d50:	e593004c 	ldr	r0, [r3, #76]	; 0x4c
    8d54:	eb0001cf 	bl	9498 <get32>
    8d58:	e3a03001 	mov	r3, #1
    8d5c:	e0004413 	and	r4, r0, r3, lsl r4
    8d60:	eb0001ba 	bl	9450 <dev_barrier>
    8d64:	e3540000 	cmp	r4, #0
    8d68:	0a000002 	beq	8d78 <gpio_event_detected+0x6c>
    8d6c:	eb0001b7 	bl	9450 <dev_barrier>
    8d70:	e3a00001 	mov	r0, #1
    8d74:	e8bd8010 	pop	{r4, pc}
    8d78:	eb0001b4 	bl	9450 <dev_barrier>
    8d7c:	e3a00000 	mov	r0, #0
    8d80:	e8bd8010 	pop	{r4, pc}
    8d84:	e3e00000 	mvn	r0, #0
    8d88:	e8bd8010 	pop	{r4, pc}
    8d8c:	000096b8 			; <UNDEFINED> instruction: 0x000096b8

00008d90 <gpio_event_clear>:
    8d90:	e92d4010 	push	{r4, lr}
    8d94:	e1a04000 	mov	r4, r0
    8d98:	e350001f 	cmp	r0, #31
    8d9c:	88bd8010 	pophi	{r4, pc}
    8da0:	eb0001aa 	bl	9450 <dev_barrier>
    8da4:	e354001f 	cmp	r4, #31
    8da8:	8a000005 	bhi	8dc4 <gpio_event_clear+0x34>
    8dac:	e59f3030 	ldr	r3, [pc, #48]	; 8de4 <gpio_event_clear+0x54>
    8db0:	e5930048 	ldr	r0, [r3, #72]	; 0x48
    8db4:	e3a01001 	mov	r1, #1
    8db8:	e1a01411 	lsl	r1, r1, r4
    8dbc:	eb0001a9 	bl	9468 <put32>
    8dc0:	ea000005 	b	8ddc <gpio_event_clear+0x4c>
    8dc4:	e204401f 	and	r4, r4, #31
    8dc8:	e59f3014 	ldr	r3, [pc, #20]	; 8de4 <gpio_event_clear+0x54>
    8dcc:	e593004c 	ldr	r0, [r3, #76]	; 0x4c
    8dd0:	e3a01001 	mov	r1, #1
    8dd4:	e1a01411 	lsl	r1, r1, r4
    8dd8:	eb0001a2 	bl	9468 <put32>
    8ddc:	eb00019b 	bl	9450 <dev_barrier>
    8de0:	e8bd8010 	pop	{r4, pc}
    8de4:	000096b8 			; <UNDEFINED> instruction: 0x000096b8

00008de8 <sw_uart_putc>:
    8de8:	e92d41f0 	push	{r4, r5, r6, r7, r8, lr}
    8dec:	e1a07001 	mov	r7, r1
    8df0:	e5d06000 	ldrb	r6, [r0]
    8df4:	e5905008 	ldr	r5, [r0, #8]
    8df8:	ee1f4f3c 	mrc	15, 0, r4, cr15, cr12, {1}
    8dfc:	e1a00006 	mov	r0, r6
    8e00:	e3a01000 	mov	r1, #0
    8e04:	ebffff26 	bl	8aa4 <gpio_write>
    8e08:	ee1f3f3c 	mrc	15, 0, r3, cr15, cr12, {1}
    8e0c:	e0643003 	rsb	r3, r4, r3
    8e10:	e1550003 	cmp	r5, r3
    8e14:	8afffffb 	bhi	8e08 <sw_uart_putc+0x20>
    8e18:	e1a08085 	lsl	r8, r5, #1
    8e1c:	e1a00006 	mov	r0, r6
    8e20:	e2071001 	and	r1, r7, #1
    8e24:	ebffff1e 	bl	8aa4 <gpio_write>
    8e28:	ee1f3f3c 	mrc	15, 0, r3, cr15, cr12, {1}
    8e2c:	e0643003 	rsb	r3, r4, r3
    8e30:	e1580003 	cmp	r8, r3
    8e34:	8afffffb 	bhi	8e28 <sw_uart_putc+0x40>
    8e38:	e0888005 	add	r8, r8, r5
    8e3c:	e1a00006 	mov	r0, r6
    8e40:	e2071002 	and	r1, r7, #2
    8e44:	ebffff16 	bl	8aa4 <gpio_write>
    8e48:	ee1f3f3c 	mrc	15, 0, r3, cr15, cr12, {1}
    8e4c:	e0643003 	rsb	r3, r4, r3
    8e50:	e1580003 	cmp	r8, r3
    8e54:	8afffffb 	bhi	8e48 <sw_uart_putc+0x60>
    8e58:	e0888005 	add	r8, r8, r5
    8e5c:	e1a00006 	mov	r0, r6
    8e60:	e2071004 	and	r1, r7, #4
    8e64:	ebffff0e 	bl	8aa4 <gpio_write>
    8e68:	ee1f3f3c 	mrc	15, 0, r3, cr15, cr12, {1}
    8e6c:	e0643003 	rsb	r3, r4, r3
    8e70:	e1580003 	cmp	r8, r3
    8e74:	8afffffb 	bhi	8e68 <sw_uart_putc+0x80>
    8e78:	e0888005 	add	r8, r8, r5
    8e7c:	e1a00006 	mov	r0, r6
    8e80:	e2071008 	and	r1, r7, #8
    8e84:	ebffff06 	bl	8aa4 <gpio_write>
    8e88:	ee1f3f3c 	mrc	15, 0, r3, cr15, cr12, {1}
    8e8c:	e0643003 	rsb	r3, r4, r3
    8e90:	e1580003 	cmp	r8, r3
    8e94:	8afffffb 	bhi	8e88 <sw_uart_putc+0xa0>
    8e98:	e0888005 	add	r8, r8, r5
    8e9c:	e1a00006 	mov	r0, r6
    8ea0:	e2071010 	and	r1, r7, #16
    8ea4:	ebfffefe 	bl	8aa4 <gpio_write>
    8ea8:	ee1f3f3c 	mrc	15, 0, r3, cr15, cr12, {1}
    8eac:	e0643003 	rsb	r3, r4, r3
    8eb0:	e1580003 	cmp	r8, r3
    8eb4:	8afffffb 	bhi	8ea8 <sw_uart_putc+0xc0>
    8eb8:	e0888005 	add	r8, r8, r5
    8ebc:	e1a00006 	mov	r0, r6
    8ec0:	e2071020 	and	r1, r7, #32
    8ec4:	ebfffef6 	bl	8aa4 <gpio_write>
    8ec8:	ee1f3f3c 	mrc	15, 0, r3, cr15, cr12, {1}
    8ecc:	e0643003 	rsb	r3, r4, r3
    8ed0:	e1580003 	cmp	r8, r3
    8ed4:	8afffffb 	bhi	8ec8 <sw_uart_putc+0xe0>
    8ed8:	e0888005 	add	r8, r8, r5
    8edc:	e1a00006 	mov	r0, r6
    8ee0:	e2071040 	and	r1, r7, #64	; 0x40
    8ee4:	ebfffeee 	bl	8aa4 <gpio_write>
    8ee8:	ee1f3f3c 	mrc	15, 0, r3, cr15, cr12, {1}
    8eec:	e0643003 	rsb	r3, r4, r3
    8ef0:	e1580003 	cmp	r8, r3
    8ef4:	8afffffb 	bhi	8ee8 <sw_uart_putc+0x100>
    8ef8:	e0888005 	add	r8, r8, r5
    8efc:	e1a00006 	mov	r0, r6
    8f00:	e2071080 	and	r1, r7, #128	; 0x80
    8f04:	ebfffee6 	bl	8aa4 <gpio_write>
    8f08:	ee1f3f3c 	mrc	15, 0, r3, cr15, cr12, {1}
    8f0c:	e0643003 	rsb	r3, r4, r3
    8f10:	e1580003 	cmp	r8, r3
    8f14:	8afffffb 	bhi	8f08 <sw_uart_putc+0x120>
    8f18:	e0885005 	add	r5, r8, r5
    8f1c:	e1a00006 	mov	r0, r6
    8f20:	e3a01001 	mov	r1, #1
    8f24:	ebfffede 	bl	8aa4 <gpio_write>
    8f28:	ee1f3f3c 	mrc	15, 0, r3, cr15, cr12, {1}
    8f2c:	e0643003 	rsb	r3, r4, r3
    8f30:	e1550003 	cmp	r5, r3
    8f34:	8afffffb 	bhi	8f28 <sw_uart_putc+0x140>
    8f38:	e8bd81f0 	pop	{r4, r5, r6, r7, r8, pc}

00008f3c <sw_uart_getc_timeout>:
    8f3c:	e92d43f8 	push	{r3, r4, r5, r6, r7, r8, r9, lr}
    8f40:	e1a09000 	mov	r9, r0
    8f44:	e5d07001 	ldrb	r7, [r0, #1]
    8f48:	e1a05007 	mov	r5, r7
    8f4c:	e1a06001 	mov	r6, r1
    8f50:	ebfffe21 	bl	87dc <timer_get_usec_raw>
    8f54:	e1a04000 	mov	r4, r0
    8f58:	e1a00005 	mov	r0, r5
    8f5c:	ebfffebd 	bl	8a58 <gpio_read>
    8f60:	e3500000 	cmp	r0, #0
    8f64:	0a000005 	beq	8f80 <sw_uart_getc_timeout+0x44>
    8f68:	ebfffe1b 	bl	87dc <timer_get_usec_raw>
    8f6c:	e0640000 	rsb	r0, r4, r0
    8f70:	e1560000 	cmp	r6, r0
    8f74:	2afffff7 	bcs	8f58 <sw_uart_getc_timeout+0x1c>
    8f78:	e3a03000 	mov	r3, #0
    8f7c:	ea000000 	b	8f84 <sw_uart_getc_timeout+0x48>
    8f80:	e3a03001 	mov	r3, #1
    8f84:	e3530000 	cmp	r3, #0
    8f88:	0a000059 	beq	90f4 <sw_uart_getc_timeout+0x1b8>
    8f8c:	ee1f8f3c 	mrc	15, 0, r8, cr15, cr12, {1}
    8f90:	e5994008 	ldr	r4, [r9, #8]
    8f94:	e08420a4 	add	r2, r4, r4, lsr #1
    8f98:	ee1f3f3c 	mrc	15, 0, r3, cr15, cr12, {1}
    8f9c:	e0683003 	rsb	r3, r8, r3
    8fa0:	e1520003 	cmp	r2, r3
    8fa4:	8afffffb 	bhi	8f98 <sw_uart_getc_timeout+0x5c>
    8fa8:	e0888004 	add	r8, r8, r4
    8fac:	e1a00007 	mov	r0, r7
    8fb0:	ebfffea8 	bl	8a58 <gpio_read>
    8fb4:	e1a09750 	asr	r9, r0, r7
    8fb8:	ee1f3f3c 	mrc	15, 0, r3, cr15, cr12, {1}
    8fbc:	e0683003 	rsb	r3, r8, r3
    8fc0:	e1540003 	cmp	r4, r3
    8fc4:	8afffffb 	bhi	8fb8 <sw_uart_getc_timeout+0x7c>
    8fc8:	e0888004 	add	r8, r8, r4
    8fcc:	e1a00007 	mov	r0, r7
    8fd0:	ebfffea0 	bl	8a58 <gpio_read>
    8fd4:	e1a00750 	asr	r0, r0, r7
    8fd8:	e1899080 	orr	r9, r9, r0, lsl #1
    8fdc:	ee1f3f3c 	mrc	15, 0, r3, cr15, cr12, {1}
    8fe0:	e0683003 	rsb	r3, r8, r3
    8fe4:	e1540003 	cmp	r4, r3
    8fe8:	8afffffb 	bhi	8fdc <sw_uart_getc_timeout+0xa0>
    8fec:	e0888004 	add	r8, r8, r4
    8ff0:	e1a00007 	mov	r0, r7
    8ff4:	ebfffe97 	bl	8a58 <gpio_read>
    8ff8:	e1a00750 	asr	r0, r0, r7
    8ffc:	e1899100 	orr	r9, r9, r0, lsl #2
    9000:	ee1f3f3c 	mrc	15, 0, r3, cr15, cr12, {1}
    9004:	e0683003 	rsb	r3, r8, r3
    9008:	e1540003 	cmp	r4, r3
    900c:	8afffffb 	bhi	9000 <sw_uart_getc_timeout+0xc4>
    9010:	e0888004 	add	r8, r8, r4
    9014:	e1a00007 	mov	r0, r7
    9018:	ebfffe8e 	bl	8a58 <gpio_read>
    901c:	e1a00750 	asr	r0, r0, r7
    9020:	e1899180 	orr	r9, r9, r0, lsl #3
    9024:	ee1f3f3c 	mrc	15, 0, r3, cr15, cr12, {1}
    9028:	e0683003 	rsb	r3, r8, r3
    902c:	e1540003 	cmp	r4, r3
    9030:	8afffffb 	bhi	9024 <sw_uart_getc_timeout+0xe8>
    9034:	e0888004 	add	r8, r8, r4
    9038:	e1a00007 	mov	r0, r7
    903c:	ebfffe85 	bl	8a58 <gpio_read>
    9040:	e1a00750 	asr	r0, r0, r7
    9044:	e1899200 	orr	r9, r9, r0, lsl #4
    9048:	ee1f3f3c 	mrc	15, 0, r3, cr15, cr12, {1}
    904c:	e0683003 	rsb	r3, r8, r3
    9050:	e1540003 	cmp	r4, r3
    9054:	8afffffb 	bhi	9048 <sw_uart_getc_timeout+0x10c>
    9058:	e0888004 	add	r8, r8, r4
    905c:	e1a00007 	mov	r0, r7
    9060:	ebfffe7c 	bl	8a58 <gpio_read>
    9064:	e1a00750 	asr	r0, r0, r7
    9068:	e1899280 	orr	r9, r9, r0, lsl #5
    906c:	ee1f3f3c 	mrc	15, 0, r3, cr15, cr12, {1}
    9070:	e0683003 	rsb	r3, r8, r3
    9074:	e1540003 	cmp	r4, r3
    9078:	8afffffb 	bhi	906c <sw_uart_getc_timeout+0x130>
    907c:	e0888004 	add	r8, r8, r4
    9080:	e1a00007 	mov	r0, r7
    9084:	ebfffe73 	bl	8a58 <gpio_read>
    9088:	e1a00750 	asr	r0, r0, r7
    908c:	e1899300 	orr	r9, r9, r0, lsl #6
    9090:	ee1f3f3c 	mrc	15, 0, r3, cr15, cr12, {1}
    9094:	e0683003 	rsb	r3, r8, r3
    9098:	e1540003 	cmp	r4, r3
    909c:	8afffffb 	bhi	9090 <sw_uart_getc_timeout+0x154>
    90a0:	e1a00007 	mov	r0, r7
    90a4:	ebfffe6b 	bl	8a58 <gpio_read>
    90a8:	e1a00750 	asr	r0, r0, r7
    90ac:	e1899380 	orr	r9, r9, r0, lsl #7
    90b0:	ebfffdc9 	bl	87dc <timer_get_usec_raw>
    90b4:	e1a04000 	mov	r4, r0
    90b8:	e1a00005 	mov	r0, r5
    90bc:	ebfffe65 	bl	8a58 <gpio_read>
    90c0:	e3500000 	cmp	r0, #0
    90c4:	0a000005 	beq	90e0 <sw_uart_getc_timeout+0x1a4>
    90c8:	ebfffdc3 	bl	87dc <timer_get_usec_raw>
    90cc:	e0640000 	rsb	r0, r4, r0
    90d0:	e1560000 	cmp	r6, r0
    90d4:	2afffff7 	bcs	90b8 <sw_uart_getc_timeout+0x17c>
    90d8:	e3a03000 	mov	r3, #0
    90dc:	ea000000 	b	90e4 <sw_uart_getc_timeout+0x1a8>
    90e0:	e3a03001 	mov	r3, #1
    90e4:	e3530000 	cmp	r3, #0
    90e8:	0a000003 	beq	90fc <sw_uart_getc_timeout+0x1c0>
    90ec:	e1a00009 	mov	r0, r9
    90f0:	e8bd83f8 	pop	{r3, r4, r5, r6, r7, r8, r9, pc}
    90f4:	e3e00000 	mvn	r0, #0
    90f8:	e8bd83f8 	pop	{r3, r4, r5, r6, r7, r8, r9, pc}
    90fc:	e3e00000 	mvn	r0, #0
    9100:	e8bd83f8 	pop	{r3, r4, r5, r6, r7, r8, r9, pc}

00009104 <sw_uart_gets_until>:
    9104:	e92d47f0 	push	{r4, r5, r6, r7, r8, r9, sl, lr}
    9108:	e24dd008 	sub	sp, sp, #8
    910c:	e1a08000 	mov	r8, r0
    9110:	e1a06001 	mov	r6, r1
    9114:	e1a09003 	mov	r9, r3
    9118:	e59da028 	ldr	sl, [sp, #40]	; 0x28
    911c:	e3520000 	cmp	r2, #0
    9120:	1a000008 	bne	9148 <sw_uart_gets_until+0x44>
    9124:	eb0000e7 	bl	94c8 <rpi_reset_putc>
    9128:	e59f3068 	ldr	r3, [pc, #104]	; 9198 <sw_uart_gets_until+0x94>
    912c:	e58d3000 	str	r3, [sp]
    9130:	e59f0064 	ldr	r0, [pc, #100]	; 919c <sw_uart_gets_until+0x98>
    9134:	e59f1064 	ldr	r1, [pc, #100]	; 91a0 <sw_uart_gets_until+0x9c>
    9138:	e59f2064 	ldr	r2, [pc, #100]	; 91a4 <sw_uart_gets_until+0xa0>
    913c:	e3a0306d 	mov	r3, #109	; 0x6d
    9140:	ebfffbdf 	bl	80c4 <printk>
    9144:	ebfffd4a 	bl	8674 <clean_reboot>
    9148:	e3a04000 	mov	r4, #0
    914c:	e5c14000 	strb	r4, [r1]
    9150:	e2427001 	sub	r7, r2, #1
    9154:	ea000007 	b	9178 <sw_uart_gets_until+0x74>
    9158:	e1a00008 	mov	r0, r8
    915c:	e1a0100a 	mov	r1, sl
    9160:	ebffff75 	bl	8f3c <sw_uart_getc_timeout>
    9164:	e6ef0070 	uxtb	r0, r0
    9168:	e1500009 	cmp	r0, r9
    916c:	0a000004 	beq	9184 <sw_uart_gets_until+0x80>
    9170:	e7c60005 	strb	r0, [r6, r5]
    9174:	e2844001 	add	r4, r4, #1
    9178:	e1a05004 	mov	r5, r4
    917c:	e1540007 	cmp	r4, r7
    9180:	3afffff4 	bcc	9158 <sw_uart_gets_until+0x54>
    9184:	e3a03000 	mov	r3, #0
    9188:	e7c63005 	strb	r3, [r6, r5]
    918c:	e1a00004 	mov	r0, r4
    9190:	e28dd008 	add	sp, sp, #8
    9194:	e8bd87f0 	pop	{r4, r5, r6, r7, r8, r9, sl, pc}
    9198:	00009920 	andeq	r9, r0, r0, lsr #18
    919c:	00009794 	muleq	r0, r4, r7
    91a0:	0000990c 	andeq	r9, r0, ip, lsl #18
    91a4:	00009894 	muleq	r0, r4, r8

000091a8 <sw_uart_gets_timeout>:
    91a8:	e92d41f0 	push	{r4, r5, r6, r7, r8, lr}
    91ac:	e24dd008 	sub	sp, sp, #8
    91b0:	e1a07000 	mov	r7, r0
    91b4:	e1a05001 	mov	r5, r1
    91b8:	e1a08003 	mov	r8, r3
    91bc:	e3520000 	cmp	r2, #0
    91c0:	1a000008 	bne	91e8 <sw_uart_gets_timeout+0x40>
    91c4:	eb0000bf 	bl	94c8 <rpi_reset_putc>
    91c8:	e59f3058 	ldr	r3, [pc, #88]	; 9228 <sw_uart_gets_timeout+0x80>
    91cc:	e58d3000 	str	r3, [sp]
    91d0:	e59f0054 	ldr	r0, [pc, #84]	; 922c <sw_uart_gets_timeout+0x84>
    91d4:	e59f1054 	ldr	r1, [pc, #84]	; 9230 <sw_uart_gets_timeout+0x88>
    91d8:	e59f2054 	ldr	r2, [pc, #84]	; 9234 <sw_uart_gets_timeout+0x8c>
    91dc:	e3a03083 	mov	r3, #131	; 0x83
    91e0:	ebfffbb7 	bl	80c4 <printk>
    91e4:	ebfffd22 	bl	8674 <clean_reboot>
    91e8:	e3a04000 	mov	r4, #0
    91ec:	e5c14000 	strb	r4, [r1]
    91f0:	e2426001 	sub	r6, r2, #1
    91f4:	ea000004 	b	920c <sw_uart_gets_timeout+0x64>
    91f8:	e1a00007 	mov	r0, r7
    91fc:	e1a01008 	mov	r1, r8
    9200:	ebffff4d 	bl	8f3c <sw_uart_getc_timeout>
    9204:	e7c50004 	strb	r0, [r5, r4]
    9208:	e2844001 	add	r4, r4, #1
    920c:	e1540006 	cmp	r4, r6
    9210:	3afffff8 	bcc	91f8 <sw_uart_gets_timeout+0x50>
    9214:	e3a03000 	mov	r3, #0
    9218:	e7c53004 	strb	r3, [r5, r4]
    921c:	e1a00004 	mov	r0, r4
    9220:	e28dd008 	add	sp, sp, #8
    9224:	e8bd81f0 	pop	{r4, r5, r6, r7, r8, pc}
    9228:	00009920 	andeq	r9, r0, r0, lsr #18
    922c:	00009794 	muleq	r0, r4, r7
    9230:	0000990c 	andeq	r9, r0, ip, lsl #18
    9234:	000098a8 	andeq	r9, r0, r8, lsr #17

00009238 <sw_uart_init_helper>:
    9238:	e92d41f0 	push	{r4, r5, r6, r7, r8, lr}
    923c:	e24dd008 	sub	sp, sp, #8
    9240:	e1a04000 	mov	r4, r0
    9244:	e1a06001 	mov	r6, r1
    9248:	e1a08002 	mov	r8, r2
    924c:	e1a05003 	mov	r5, r3
    9250:	e59d7020 	ldr	r7, [sp, #32]
    9254:	e1a00001 	mov	r0, r1
    9258:	ebfffd7a 	bl	8848 <gpio_set_output>
    925c:	e1a00008 	mov	r0, r8
    9260:	ebfffdc9 	bl	898c <gpio_set_input>
    9264:	e3a03001 	mov	r3, #1
    9268:	ee0f3f1c 	mcr	15, 0, r3, cr15, cr12, {0}
    926c:	e1a00006 	mov	r0, r6
    9270:	e3a01001 	mov	r1, #1
    9274:	ebfffe0a 	bl	8aa4 <gpio_write>
    9278:	e0020795 	mul	r2, r5, r7
    927c:	e59f3074 	ldr	r3, [pc, #116]	; 92f8 <sw_uart_init_helper+0xc0>
    9280:	e0653003 	rsb	r3, r5, r3
    9284:	e1530002 	cmp	r3, r2
    9288:	8a000005 	bhi	92a4 <sw_uart_init_helper+0x6c>
    928c:	e59f3064 	ldr	r3, [pc, #100]	; 92f8 <sw_uart_init_helper+0xc0>
    9290:	e0853003 	add	r3, r5, r3
    9294:	e1530002 	cmp	r3, r2
    9298:	2a000003 	bcs	92ac <sw_uart_init_helper+0x74>
    929c:	e3a03000 	mov	r3, #0
    92a0:	ea000002 	b	92b0 <sw_uart_init_helper+0x78>
    92a4:	e3a03000 	mov	r3, #0
    92a8:	ea000000 	b	92b0 <sw_uart_init_helper+0x78>
    92ac:	e3a03001 	mov	r3, #1
    92b0:	e3530000 	cmp	r3, #0
    92b4:	1a000008 	bne	92dc <sw_uart_init_helper+0xa4>
    92b8:	eb000082 	bl	94c8 <rpi_reset_putc>
    92bc:	e59f3038 	ldr	r3, [pc, #56]	; 92fc <sw_uart_init_helper+0xc4>
    92c0:	e58d3000 	str	r3, [sp]
    92c4:	e59f0034 	ldr	r0, [pc, #52]	; 9300 <sw_uart_init_helper+0xc8>
    92c8:	e59f1034 	ldr	r1, [pc, #52]	; 9304 <sw_uart_init_helper+0xcc>
    92cc:	e59f2034 	ldr	r2, [pc, #52]	; 9308 <sw_uart_init_helper+0xd0>
    92d0:	e3a0309d 	mov	r3, #157	; 0x9d
    92d4:	ebfffb7a 	bl	80c4 <printk>
    92d8:	ebfffce5 	bl	8674 <clean_reboot>
    92dc:	e5c46000 	strb	r6, [r4]
    92e0:	e5c48001 	strb	r8, [r4, #1]
    92e4:	e5845004 	str	r5, [r4, #4]
    92e8:	e5847008 	str	r7, [r4, #8]
    92ec:	e1a00004 	mov	r0, r4
    92f0:	e28dd008 	add	sp, sp, #8
    92f4:	e8bd81f0 	pop	{r4, r5, r6, r7, r8, pc}
    92f8:	29b92700 	ldmibcs	r9!, {r8, r9, sl, sp}
    92fc:	0000992c 	andeq	r9, r0, ip, lsr #18
    9300:	00009794 	muleq	r0, r4, r7
    9304:	0000990c 	andeq	r9, r0, ip, lsl #18
    9308:	000098c0 	andeq	r9, r0, r0, asr #17

0000930c <sw_uart_getc>:
    930c:	e92d4008 	push	{r3, lr}
    9310:	e3e01000 	mvn	r1, #0
    9314:	ebffff08 	bl	8f3c <sw_uart_getc_timeout>
    9318:	e3500000 	cmp	r0, #0
    931c:	a8bd8008 	popge	{r3, pc}
    9320:	eb000068 	bl	94c8 <rpi_reset_putc>
    9324:	e59f0010 	ldr	r0, [pc, #16]	; 933c <sw_uart_getc+0x30>
    9328:	e59f1010 	ldr	r1, [pc, #16]	; 9340 <sw_uart_getc+0x34>
    932c:	e59f2010 	ldr	r2, [pc, #16]	; 9344 <sw_uart_getc+0x38>
    9330:	e3a030ac 	mov	r3, #172	; 0xac
    9334:	ebfffb62 	bl	80c4 <printk>
    9338:	ebfffccd 	bl	8674 <clean_reboot>
    933c:	00009960 	andeq	r9, r0, r0, ror #18
    9340:	0000990c 	andeq	r9, r0, ip, lsl #18
    9344:	000098d4 	ldrdeq	r9, [r0], -r4

00009348 <sw_uart_putk>:
    9348:	e92d4038 	push	{r3, r4, r5, lr}
    934c:	e1a05000 	mov	r5, r0
    9350:	e1a04001 	mov	r4, r1
    9354:	ea000002 	b	9364 <sw_uart_putk+0x1c>
    9358:	e1a00005 	mov	r0, r5
    935c:	ebfffea1 	bl	8de8 <sw_uart_putc>
    9360:	e2844001 	add	r4, r4, #1
    9364:	e5d41000 	ldrb	r1, [r4]
    9368:	e3510000 	cmp	r1, #0
    936c:	1afffff9 	bne	9358 <sw_uart_putk+0x10>
    9370:	e8bd8038 	pop	{r3, r4, r5, pc}

00009374 <sw_uart_printk>:
    9374:	e92d000e 	push	{r1, r2, r3}
    9378:	e92d4030 	push	{r4, r5, lr}
    937c:	e24ddf76 	sub	sp, sp, #472	; 0x1d8
    9380:	e1a05000 	mov	r5, r0
    9384:	e28d3f7a 	add	r3, sp, #488	; 0x1e8
    9388:	e58d3008 	str	r3, [sp, #8]
    938c:	e28d000c 	add	r0, sp, #12
    9390:	e3a01f73 	mov	r1, #460	; 0x1cc
    9394:	e59d21e4 	ldr	r2, [sp, #484]	; 0x1e4
    9398:	ebfffc10 	bl	83e0 <va_printk>
    939c:	e1a04000 	mov	r4, r0
    93a0:	e59f3048 	ldr	r3, [pc, #72]	; 93f0 <sw_uart_printk+0x7c>
    93a4:	e1500003 	cmp	r0, r3
    93a8:	9a000008 	bls	93d0 <sw_uart_printk+0x5c>
    93ac:	eb000045 	bl	94c8 <rpi_reset_putc>
    93b0:	e59f303c 	ldr	r3, [pc, #60]	; 93f4 <sw_uart_printk+0x80>
    93b4:	e58d3000 	str	r3, [sp]
    93b8:	e59f0038 	ldr	r0, [pc, #56]	; 93f8 <sw_uart_printk+0x84>
    93bc:	e59f1038 	ldr	r1, [pc, #56]	; 93fc <sw_uart_printk+0x88>
    93c0:	e59f2038 	ldr	r2, [pc, #56]	; 9400 <sw_uart_printk+0x8c>
    93c4:	e3a030c0 	mov	r3, #192	; 0xc0
    93c8:	ebfffb3d 	bl	80c4 <printk>
    93cc:	ebfffca8 	bl	8674 <clean_reboot>
    93d0:	e1a00005 	mov	r0, r5
    93d4:	e28d100c 	add	r1, sp, #12
    93d8:	ebffffda 	bl	9348 <sw_uart_putk>
    93dc:	e1a00004 	mov	r0, r4
    93e0:	e28ddf76 	add	sp, sp, #472	; 0x1d8
    93e4:	e8bd4030 	pop	{r4, r5, lr}
    93e8:	e28dd00c 	add	sp, sp, #12
    93ec:	e12fff1e 	bx	lr
    93f0:	000001ca 	andeq	r0, r0, sl, asr #3
    93f4:	00009998 	muleq	r0, r8, r9
    93f8:	00009794 	muleq	r0, r4, r7
    93fc:	0000990c 	andeq	r9, r0, ip, lsl #18
    9400:	000098e4 	andeq	r9, r0, r4, ror #17

00009404 <sw_uart_gets_until_blk>:
    9404:	e52de004 	push	{lr}		; (str lr, [sp, #-4]!)
    9408:	e24dd00c 	sub	sp, sp, #12
    940c:	e3e0c000 	mvn	ip, #0
    9410:	e58dc000 	str	ip, [sp]
    9414:	ebffff3a 	bl	9104 <sw_uart_gets_until>
    9418:	e3500000 	cmp	r0, #0
    941c:	aa000006 	bge	943c <sw_uart_gets_until_blk+0x38>
    9420:	eb000028 	bl	94c8 <rpi_reset_putc>
    9424:	e59f0018 	ldr	r0, [pc, #24]	; 9444 <sw_uart_gets_until_blk+0x40>
    9428:	e59f1018 	ldr	r1, [pc, #24]	; 9448 <sw_uart_gets_until_blk+0x44>
    942c:	e59f2018 	ldr	r2, [pc, #24]	; 944c <sw_uart_gets_until_blk+0x48>
    9430:	e3a030c8 	mov	r3, #200	; 0xc8
    9434:	ebfffb22 	bl	80c4 <printk>
    9438:	ebfffc8d 	bl	8674 <clean_reboot>
    943c:	e28dd00c 	add	sp, sp, #12
    9440:	e49df004 	pop	{pc}		; (ldr pc, [sp], #4)
    9444:	00009960 	andeq	r9, r0, r0, ror #18
    9448:	0000990c 	andeq	r9, r0, ip, lsl #18
    944c:	000098f4 	strdeq	r9, [r0], -r4

00009450 <dev_barrier>:
    9450:	ea000002 	b	9460 <dsb>

00009454 <dmb>:
    9454:	e3a00000 	mov	r0, #0
    9458:	ee070fba 	mcr	15, 0, r0, cr7, cr10, {5}
    945c:	e12fff1e 	bx	lr

00009460 <dsb>:
    9460:	ee070f9a 	mcr	15, 0, r0, cr7, cr10, {4}
    9464:	e12fff1e 	bx	lr

00009468 <put32>:
    9468:	e5801000 	str	r1, [r0]
    946c:	e12fff1e 	bx	lr

00009470 <PUT32>:
    9470:	e5801000 	str	r1, [r0]
    9474:	e12fff1e 	bx	lr

00009478 <put16>:
    9478:	e1c010b0 	strh	r1, [r0]
    947c:	e12fff1e 	bx	lr

00009480 <PUT16>:
    9480:	e1c010b0 	strh	r1, [r0]
    9484:	e12fff1e 	bx	lr

00009488 <put8>:
    9488:	e5c01000 	strb	r1, [r0]
    948c:	e12fff1e 	bx	lr

00009490 <PUT8>:
    9490:	e5c01000 	strb	r1, [r0]
    9494:	e12fff1e 	bx	lr

00009498 <get32>:
    9498:	e5900000 	ldr	r0, [r0]
    949c:	e12fff1e 	bx	lr

000094a0 <GET32>:
    94a0:	e5900000 	ldr	r0, [r0]
    94a4:	e12fff1e 	bx	lr

000094a8 <GETPC>:
    94a8:	e1a0000e 	mov	r0, lr
    94ac:	e12fff1e 	bx	lr

000094b0 <dummy>:
    94b0:	e12fff1e 	bx	lr

000094b4 <internal_putchar>:
    94b4:	e92d4010 	push	{r4, lr}
    94b8:	e1a04000 	mov	r4, r0
    94bc:	eb00005e 	bl	963c <uart_putc>
    94c0:	e1a00004 	mov	r0, r4
    94c4:	e8bd8010 	pop	{r4, pc}

000094c8 <rpi_reset_putc>:
    94c8:	e59f2008 	ldr	r2, [pc, #8]	; 94d8 <rpi_reset_putc+0x10>
    94cc:	e59f3008 	ldr	r3, [pc, #8]	; 94dc <rpi_reset_putc+0x14>
    94d0:	e5832000 	str	r2, [r3]
    94d4:	e12fff1e 	bx	lr
    94d8:	000094b4 			; <UNDEFINED> instruction: 0x000094b4
    94dc:	00009718 	andeq	r9, r0, r8, lsl r7

000094e0 <rpi_set_putc>:
    94e0:	e59f3004 	ldr	r3, [pc, #4]	; 94ec <rpi_set_putc+0xc>
    94e4:	e5830000 	str	r0, [r3]
    94e8:	e12fff1e 	bx	lr
    94ec:	00009718 	andeq	r9, r0, r8, lsl r7

000094f0 <cb_new>:
    94f0:	e92d4008 	push	{r3, lr}
    94f4:	e3a00409 	mov	r0, #150994944	; 0x9000000
    94f8:	e3a01000 	mov	r1, #0
    94fc:	e3a02004 	mov	r2, #4
    9500:	eb000063 	bl	9694 <memset>
    9504:	e3a00409 	mov	r0, #150994944	; 0x9000000
    9508:	e59f3004 	ldr	r3, [pc, #4]	; 9514 <cb_new+0x24>
    950c:	e5803000 	str	r3, [r0]
    9510:	e8bd8008 	pop	{r3, pc}
    9514:	12345678 	eorsne	r5, r4, #120, 12	; 0x7800000

00009518 <cb_get_block>:
    9518:	e3a03409 	mov	r3, #150994944	; 0x9000000
    951c:	e5932000 	ldr	r2, [r3]
    9520:	e59f3014 	ldr	r3, [pc, #20]	; 953c <cb_get_block+0x24>
    9524:	e1520003 	cmp	r2, r3
    9528:	0a000001 	beq	9534 <cb_get_block+0x1c>
    952c:	e3a00000 	mov	r0, #0
    9530:	e12fff1e 	bx	lr
    9534:	e3a00409 	mov	r0, #150994944	; 0x9000000
    9538:	e12fff1e 	bx	lr
    953c:	12345678 	eorsne	r5, r4, #120, 12	; 0x7800000

00009540 <uart_init>:
    9540:	e92d4038 	push	{r3, r4, r5, lr}
    9544:	ebffffc1 	bl	9450 <dev_barrier>
    9548:	e3a0000e 	mov	r0, #14
    954c:	e3a01002 	mov	r1, #2
    9550:	ebfffd5c 	bl	8ac8 <gpio_set_function>
    9554:	e3a0000f 	mov	r0, #15
    9558:	e3a01002 	mov	r1, #2
    955c:	ebfffd59 	bl	8ac8 <gpio_set_function>
    9560:	ebffffba 	bl	9450 <dev_barrier>
    9564:	e59f4068 	ldr	r4, [pc, #104]	; 95d4 <uart_init+0x94>
    9568:	e5945000 	ldr	r5, [r4]
    956c:	e1a00005 	mov	r0, r5
    9570:	ebffffc8 	bl	9498 <get32>
    9574:	e3801001 	orr	r1, r0, #1
    9578:	e1a00005 	mov	r0, r5
    957c:	ebffffb9 	bl	9468 <put32>
    9580:	ebffffb2 	bl	9450 <dev_barrier>
    9584:	e5940004 	ldr	r0, [r4, #4]
    9588:	e3a01000 	mov	r1, #0
    958c:	ebffffb5 	bl	9468 <put32>
    9590:	e5940008 	ldr	r0, [r4, #8]
    9594:	e3a01000 	mov	r1, #0
    9598:	ebffffb2 	bl	9468 <put32>
    959c:	e594000c 	ldr	r0, [r4, #12]
    95a0:	e3a01006 	mov	r1, #6
    95a4:	ebffffaf 	bl	9468 <put32>
    95a8:	e5940010 	ldr	r0, [r4, #16]
    95ac:	e3a01003 	mov	r1, #3
    95b0:	ebffffac 	bl	9468 <put32>
    95b4:	e5940014 	ldr	r0, [r4, #20]
    95b8:	e59f1018 	ldr	r1, [pc, #24]	; 95d8 <uart_init+0x98>
    95bc:	ebffffa9 	bl	9468 <put32>
    95c0:	e5940004 	ldr	r0, [r4, #4]
    95c4:	e3a01003 	mov	r1, #3
    95c8:	ebffffa6 	bl	9468 <put32>
    95cc:	ebffff9f 	bl	9450 <dev_barrier>
    95d0:	e8bd8038 	pop	{r3, r4, r5, pc}
    95d4:	0000971c 	andeq	r9, r0, ip, lsl r7
    95d8:	0000010e 	andeq	r0, r0, lr, lsl #2

000095dc <uart_can_getc>:
    95dc:	e92d4008 	push	{r3, lr}
    95e0:	e59f300c 	ldr	r3, [pc, #12]	; 95f4 <uart_can_getc+0x18>
    95e4:	e5930018 	ldr	r0, [r3, #24]
    95e8:	ebffffaa 	bl	9498 <get32>
    95ec:	e2000001 	and	r0, r0, #1
    95f0:	e8bd8008 	pop	{r3, pc}
    95f4:	0000971c 	andeq	r9, r0, ip, lsl r7

000095f8 <uart_getc>:
    95f8:	e92d4008 	push	{r3, lr}
    95fc:	ebfffff6 	bl	95dc <uart_can_getc>
    9600:	e3500000 	cmp	r0, #0
    9604:	0afffffc 	beq	95fc <uart_getc+0x4>
    9608:	e59f300c 	ldr	r3, [pc, #12]	; 961c <uart_getc+0x24>
    960c:	e593001c 	ldr	r0, [r3, #28]
    9610:	ebffffa0 	bl	9498 <get32>
    9614:	e6ef0070 	uxtb	r0, r0
    9618:	e8bd8008 	pop	{r3, pc}
    961c:	0000971c 	andeq	r9, r0, ip, lsl r7

00009620 <uart_can_putc>:
    9620:	e92d4008 	push	{r3, lr}
    9624:	e59f300c 	ldr	r3, [pc, #12]	; 9638 <uart_can_putc+0x18>
    9628:	e5930018 	ldr	r0, [r3, #24]
    962c:	ebffff99 	bl	9498 <get32>
    9630:	e2000020 	and	r0, r0, #32
    9634:	e8bd8008 	pop	{r3, pc}
    9638:	0000971c 	andeq	r9, r0, ip, lsl r7

0000963c <uart_putc>:
    963c:	e92d4010 	push	{r4, lr}
    9640:	e1a04000 	mov	r4, r0
    9644:	ebfffff5 	bl	9620 <uart_can_putc>
    9648:	e3500000 	cmp	r0, #0
    964c:	0afffffc 	beq	9644 <uart_putc+0x8>
    9650:	e59f300c 	ldr	r3, [pc, #12]	; 9664 <uart_putc+0x28>
    9654:	e593001c 	ldr	r0, [r3, #28]
    9658:	e1a01004 	mov	r1, r4
    965c:	ebffff81 	bl	9468 <put32>
    9660:	e8bd8010 	pop	{r4, pc}
    9664:	0000971c 	andeq	r9, r0, ip, lsl r7

00009668 <uart_has_data>:
    9668:	e92d4008 	push	{r3, lr}
    966c:	ebffffda 	bl	95dc <uart_can_getc>
    9670:	e8bd8008 	pop	{r3, pc}

00009674 <uart_getc_async>:
    9674:	e92d4008 	push	{r3, lr}
    9678:	ebfffffa 	bl	9668 <uart_has_data>
    967c:	e3500000 	cmp	r0, #0
    9680:	0a000001 	beq	968c <uart_getc_async+0x18>
    9684:	ebffffdb 	bl	95f8 <uart_getc>
    9688:	e8bd8008 	pop	{r3, pc}
    968c:	e3e00000 	mvn	r0, #0
    9690:	e8bd8008 	pop	{r3, pc}

00009694 <memset>:
    9694:	e0802002 	add	r2, r0, r2
    9698:	e1a03000 	mov	r3, r0
    969c:	ea000001 	b	96a8 <memset+0x14>
    96a0:	e5c31000 	strb	r1, [r3]
    96a4:	e2833001 	add	r3, r3, #1
    96a8:	e1530002 	cmp	r3, r2
    96ac:	3afffffb 	bcc	96a0 <memset+0xc>
    96b0:	e12fff1e 	bx	lr

Disassembly of section .data:

000096b4 <putk>:
    96b4:	0000811c 	andeq	r8, r0, ip, lsl r1

000096b8 <GPFSEL0>:
    96b8:	20200000 	eorcs	r0, r0, r0

000096bc <GPFSEL1>:
    96bc:	20200004 	eorcs	r0, r0, r4

000096c0 <GPFSEL2>:
    96c0:	20200008 	eorcs	r0, r0, r8

000096c4 <GPFSEL3>:
    96c4:	2020000c 	eorcs	r0, r0, ip

000096c8 <GPFSEL4>:
    96c8:	20200010 	eorcs	r0, r0, r0, lsl r0

000096cc <GPFSEL5>:
    96cc:	20200014 	eorcs	r0, r0, r4, lsl r0

000096d0 <GPSET0>:
    96d0:	2020001c 	eorcs	r0, r0, ip, lsl r0

000096d4 <GPSET1>:
    96d4:	20200020 	eorcs	r0, r0, r0, lsr #32

000096d8 <GPCLR0>:
    96d8:	20200028 	eorcs	r0, r0, r8, lsr #32

000096dc <GPCLR1>:
    96dc:	2020002c 	eorcs	r0, r0, ip, lsr #32

000096e0 <GPLEV0>:
    96e0:	20200034 	eorcs	r0, r0, r4, lsr r0

000096e4 <GPLEV1>:
    96e4:	20200038 	eorcs	r0, r0, r8, lsr r0

000096e8 <IRQ_PENDING_2>:
    96e8:	2000b208 	andcs	fp, r0, r8, lsl #4

000096ec <GPREN0>:
    96ec:	2020004c 	eorcs	r0, r0, ip, asr #32

000096f0 <GPREN1>:
    96f0:	20200050 	eorcs	r0, r0, r0, asr r0

000096f4 <ENABLE_IRQS_2>:
    96f4:	2000b214 	andcs	fp, r0, r4, lsl r2

000096f8 <GPFEN0>:
    96f8:	20200058 	eorcs	r0, r0, r8, asr r0

000096fc <GPFEN1>:
    96fc:	2020005c 	eorcs	r0, r0, ip, asr r0

00009700 <GPEDS0>:
    9700:	20200040 	eorcs	r0, r0, r0, asr #32

00009704 <GPEDS1>:
    9704:	20200044 	eorcs	r0, r0, r4, asr #32

00009708 <IRQ_PENDING_1>:
    9708:	2000b204 	andcs	fp, r0, r4, lsl #4

0000970c <gpio_clr0>:
    970c:	20200028 	eorcs	r0, r0, r8, lsr #32

00009710 <gpio_set0>:
    9710:	2020001c 	eorcs	r0, r0, ip, lsl r0

00009714 <gpio_fsel0>:
    9714:	20200000 	eorcs	r0, r0, r0

00009718 <rpi_putchar>:
    9718:	000094b4 			; <UNDEFINED> instruction: 0x000094b4

0000971c <AUX_ENABLES>:
    971c:	20215004 	eorcs	r5, r1, r4

00009720 <AUX_MU_CNTL_REG>:
    9720:	20215060 	eorcs	r5, r1, r0, rrx

00009724 <AUX_MU_IER_REG>:
    9724:	20215044 	eorcs	r5, r1, r4, asr #32

00009728 <AUX_MU_IIR_REG>:
    9728:	20215048 	eorcs	r5, r1, r8, asr #32

0000972c <AUX_MU_LCR_REG>:
    972c:	2021504c 	eorcs	r5, r1, ip, asr #32

00009730 <AUX_MU_BAUD_REG>:
    9730:	20215068 	eorcs	r5, r1, r8, rrx

00009734 <AUX_MU_LSR_REG>:
    9734:	20215054 	eorcs	r5, r1, r4, asr r0

00009738 <AUX_MU_IO_REG>:
    9738:	20215040 	eorcs	r5, r1, r0, asr #32

0000973c <AUX_MU_STAT_REG>:
    973c:	20215064 	eorcs	r5, r1, r4, rrx

00009740 <AUX_MU_SCRATCH>:
    9740:	2021505c 	eorcs	r5, r1, ip, asr r0

00009744 <AUX_MU_MSR_REG>:
    9744:	20215058 	eorcs	r5, r1, r8, asr r0

00009748 <AUX_MU_MCR_REG>:
    9748:	20215050 	eorcs	r5, r1, r0, asr r0

0000974c <AUX_IRQ>:
    974c:	20215000 	eorcs	r5, r1, r0

Disassembly of section .rodata:

00009750 <__FUNCTION__.4265-0x20>:
    9750:	65707865 	ldrbvs	r7, [r0, #-2149]!	; 0x865
    9754:	64657463 	strbtvs	r7, [r5], #-1123	; 0x463
    9758:	20642520 	rsbcs	r2, r4, r0, lsr #10
    975c:	6c637963 	stclvs	9, cr7, [r3], #-396	; 0xfffffe74
    9760:	202c7365 	eorcs	r7, ip, r5, ror #6
    9764:	65766168 	ldrbvs	r6, [r6, #-360]!	; 0x168
    9768:	0a642520 	beq	1912bf0 <__bss_end__+0x1908e30>
    976c:	00000000 	andeq	r0, r0, r0

00009770 <__FUNCTION__.4265>:
    9770:	74696d65 	strbtvc	r6, [r9], #-3429	; 0xd65
    9774:	00000000 	andeq	r0, r0, r0

00009778 <__FUNCTION__.4213>:
    9778:	5f697072 	svcpl	0x00697072
    977c:	5f746573 	svcpl	0x00746573
    9780:	7074756f 	rsbsvc	r7, r4, pc, ror #10
    9784:	00007475 	andeq	r7, r0, r5, ror r4

00009788 <__FUNCTION__.4287>:
    9788:	705f6176 	subsvc	r6, pc, r6, ror r1	; <UNPREDICTABLE>
    978c:	746e6972 	strbtvc	r6, [lr], #-2418	; 0x972
    9790:	0000006b 	andeq	r0, r0, fp, rrx
    9794:	494e4150 	stmdbmi	lr, {r4, r6, r8, lr}^
    9798:	73253a43 	teqvc	r5, #274432	; 0x43000
    979c:	3a73253a 	bcc	1cd2c8c <__bss_end__+0x1cc8ecc>
    97a0:	253a6425 	ldrcs	r6, [sl, #-1061]!	; 0x425
    97a4:	00000a73 	andeq	r0, r0, r3, ror sl
    97a8:	6362696c 	cmnvs	r2, #108, 18	; 0x1b0000
    97ac:	2d61762f 	stclcs	6, cr7, [r1, #-188]!	; 0xffffff44
    97b0:	6e697270 	mcrvs	2, 3, r7, cr9, cr0, {3}
    97b4:	632e6b74 	teqvs	lr, #116, 22	; 0x1d000
    97b8:	00000000 	andeq	r0, r0, r0
    97bc:	00000030 	andeq	r0, r0, r0, lsr r0
    97c0:	33323130 	teqcc	r2, #48, 2
    97c4:	37363534 			; <UNDEFINED> instruction: 0x37363534
    97c8:	00003938 	andeq	r3, r0, r8, lsr r9
    97cc:	33323130 	teqcc	r2, #48, 2
    97d0:	37363534 			; <UNDEFINED> instruction: 0x37363534
    97d4:	62613938 	rsbvs	r3, r1, #56, 18	; 0xe0000
    97d8:	66656463 	strbtvs	r6, [r5], -r3, ror #8
    97dc:	00000000 	andeq	r0, r0, r0
    97e0:	00003130 	andeq	r3, r0, r0, lsr r1
    97e4:	63747570 	cmnvs	r4, #112, 10	; 0x1c000000
    97e8:	0070665f 	rsbseq	r6, r0, pc, asr r6
    97ec:	74646977 	strbtvc	r6, [r4], #-2423	; 0x977
    97f0:	203c2068 	eorscs	r2, ip, r8, rrx
    97f4:	00003233 	andeq	r3, r0, r3, lsr r2
    97f8:	494e4150 	stmdbmi	lr, {r4, r6, r8, lr}^
    97fc:	73253a43 	teqvc	r5, #274432	; 0x43000
    9800:	3a73253a 	bcc	1cd2cf0 <__bss_end__+0x1cc8f30>
    9804:	663a6425 	ldrtvs	r6, [sl], -r5, lsr #8
    9808:	74616f6c 	strbtvc	r6, [r1], #-3948	; 0xf6c
    980c:	746f6e20 	strbtvc	r6, [pc], #-3616	; 9814 <__FUNCTION__.4287+0x8c>
    9810:	616e6520 	cmnvs	lr, r0, lsr #10
    9814:	64656c62 	strbtvs	r6, [r5], #-3170	; 0xc62
    9818:	0a212121 	beq	851ca4 <__bss_end__+0x847ee4>
    981c:	00000000 	andeq	r0, r0, r0
    9820:	494e4150 	stmdbmi	lr, {r4, r6, r8, lr}^
    9824:	73253a43 	teqvc	r5, #274432	; 0x43000
    9828:	3a73253a 	bcc	1cd2d18 <__bss_end__+0x1cc8f58>
    982c:	703a6425 	eorsvc	r6, sl, r5, lsr #8
    9830:	746e6972 	strbtvc	r6, [lr], #-2418	; 0x972
    9834:	6e203a6b 	vnmulvs.f32	s6, s0, s23
    9838:	6820746f 	stmdavs	r0!, {r0, r1, r2, r3, r5, r6, sl, ip, sp, lr}
    983c:	6c646e61 	stclvs	14, cr6, [r4], #-388	; 0xfffffe7c
    9840:	20676e69 	rsbcs	r6, r7, r9, ror #28
    9844:	63657073 	cmnvs	r5, #115	; 0x73
    9848:	65696669 	strbvs	r6, [r9, #-1641]!	; 0x669
    984c:	25272072 	strcs	r2, [r7, #-114]!	; 0x72
    9850:	0a0a2763 	beq	2935e4 <__bss_end__+0x289824>
    9854:	00000000 	andeq	r0, r0, r0
    9858:	454e4f44 	strbmi	r4, [lr, #-3908]	; 0xf44
    985c:	0a212121 	beq	851ce8 <__bss_end__+0x847f28>
    9860:	00000000 	andeq	r0, r0, r0
    9864:	756f6261 	strbvc	r6, [pc, #-609]!	; 960b <uart_getc+0x13>
    9868:	6f742074 	svcvs	0x00742074
    986c:	69727020 	ldmdbvs	r2!, {r5, ip, sp, lr}^
    9870:	6f20746e 	svcvs	0x0020746e
    9874:	6572206e 	ldrbvs	r2, [r2, #-110]!	; 0x6e
    9878:	616c7567 	cmnvs	ip, r7, ror #10
    987c:	72702072 	rsbsvc	r2, r0, #114	; 0x72
    9880:	66746e69 	ldrbtvs	r6, [r4], -r9, ror #28
    9884:	0000000a 	andeq	r0, r0, sl
    9888:	63637573 	cmnvs	r3, #482344960	; 0x1cc00000
    988c:	21737365 	cmncs	r3, r5, ror #6
    9890:	0000000a 	andeq	r0, r0, sl

00009894 <__FUNCTION__.4314>:
    9894:	755f7773 	ldrbvc	r7, [pc, #-1907]	; 9129 <sw_uart_gets_until+0x25>
    9898:	5f747261 	svcpl	0x00747261
    989c:	73746567 	cmnvc	r4, #432013312	; 0x19c00000
    98a0:	746e755f 	strbtvc	r7, [lr], #-1375	; 0x55f
    98a4:	00006c69 	andeq	r6, r0, r9, ror #24

000098a8 <__FUNCTION__.4326>:
    98a8:	755f7773 	ldrbvc	r7, [pc, #-1907]	; 913d <sw_uart_gets_until+0x39>
    98ac:	5f747261 	svcpl	0x00747261
    98b0:	73746567 	cmnvc	r4, #432013312	; 0x19c00000
    98b4:	6d69745f 	cfstrdvs	mvd7, [r9, #-380]!	; 0xfffffe84
    98b8:	74756f65 	ldrbtvc	r6, [r5], #-3941	; 0xf65
    98bc:	00000000 	andeq	r0, r0, r0

000098c0 <__FUNCTION__.4340>:
    98c0:	755f7773 	ldrbvc	r7, [pc, #-1907]	; 9155 <sw_uart_gets_until+0x51>
    98c4:	5f747261 	svcpl	0x00747261
    98c8:	74696e69 	strbtvc	r6, [r9], #-3689	; 0xe69
    98cc:	6c65685f 	stclvs	8, cr6, [r5], #-380	; 0xfffffe84
    98d0:	00726570 	rsbseq	r6, r2, r0, ror r5

000098d4 <__FUNCTION__.4346>:
    98d4:	755f7773 	ldrbvc	r7, [pc, #-1907]	; 9169 <sw_uart_gets_until+0x65>
    98d8:	5f747261 	svcpl	0x00747261
    98dc:	63746567 	cmnvs	r4, #432013312	; 0x19c00000
    98e0:	00000000 	andeq	r0, r0, r0

000098e4 <__FUNCTION__.4368>:
    98e4:	755f7773 	ldrbvc	r7, [pc, #-1907]	; 9179 <sw_uart_gets_until+0x75>
    98e8:	5f747261 	svcpl	0x00747261
    98ec:	6e697270 	mcrvs	2, 3, r7, cr9, cr0, {3}
    98f0:	00006b74 	andeq	r6, r0, r4, ror fp

000098f4 <__FUNCTION__.4376>:
    98f4:	755f7773 	ldrbvc	r7, [pc, #-1907]	; 9189 <sw_uart_gets_until+0x85>
    98f8:	5f747261 	svcpl	0x00747261
    98fc:	73746567 	cmnvc	r4, #432013312	; 0x19c00000
    9900:	746e755f 	strbtvc	r7, [lr], #-1375	; 0x55f
    9904:	625f6c69 	subsvs	r6, pc, #26880	; 0x6900
    9908:	00006b6c 	andeq	r6, r0, ip, ror #22
    990c:	732d796d 	teqvc	sp, #1785856	; 0x1b4000
    9910:	732f6372 	teqvc	pc, #-939524095	; 0xc8000001
    9914:	61752d77 	cmnvs	r5, r7, ror sp
    9918:	632e7472 	teqvs	lr, #1912602624	; 0x72000000
    991c:	00000000 	andeq	r0, r0, r0
    9920:	7479626e 	ldrbtvc	r6, [r9], #-622	; 0x26e
    9924:	303e7365 	eorscc	r7, lr, r5, ror #6
    9928:	00000000 	andeq	r0, r0, r0
    992c:	7a686d28 	bvc	1a24dd4 <__bss_end__+0x1a1b014>
    9930:	62202d20 	eorvs	r2, r0, #32, 26	; 0x800
    9934:	29647561 	stmdbcs	r4!, {r0, r5, r6, r8, sl, ip, sp, lr}^
    9938:	203d3c20 	eorscs	r3, sp, r0, lsr #24
    993c:	69726564 	ldmdbvs	r2!, {r2, r5, r6, r8, sl, sp, lr}^
    9940:	20646576 	rsbcs	r6, r4, r6, ror r5
    9944:	64202626 	strtvs	r2, [r0], #-1574	; 0x626
    9948:	76697265 	strbtvc	r7, [r9], -r5, ror #4
    994c:	3c206465 	cfstrscc	mvf6, [r0], #-404	; 0xfffffe6c
    9950:	6d28203d 	stcvs	0, cr2, [r8, #-244]!	; 0xffffff0c
    9954:	2b207a68 	blcs	8282fc <__bss_end__+0x81e53c>
    9958:	75616220 	strbvc	r6, [r1, #-544]!	; 0x220
    995c:	00002964 	andeq	r2, r0, r4, ror #18
    9960:	494e4150 	stmdbmi	lr, {r4, r6, r8, lr}^
    9964:	73253a43 	teqvc	r5, #274432	; 0x43000
    9968:	3a73253a 	bcc	1cd2e58 <__bss_end__+0x1cc9098>
    996c:	693a6425 	ldmdbvs	sl!, {r0, r2, r5, sl, sp, lr}
    9970:	736f706d 	cmnvc	pc, #109	; 0x6d
    9974:	6c626973 	stclvs	9, cr6, [r2], #-460	; 0xfffffe34
    9978:	68203a65 	stmdavs	r0!, {r0, r2, r5, r6, r9, fp, ip, sp}
    997c:	20657661 	rsbcs	r7, r5, r1, ror #12
    9980:	69206e61 	stmdbvs	r0!, {r0, r5, r6, r9, sl, fp, sp, lr}
    9984:	6e69666e 	cdpvs	6, 6, cr6, cr9, cr14, {3}
    9988:	20657469 	rsbcs	r7, r5, r9, ror #8
    998c:	656d6974 	strbvs	r6, [sp, #-2420]!	; 0x974
    9990:	2174756f 	cmncs	r4, pc, ror #10
    9994:	00000a0a 	andeq	r0, r0, sl, lsl #20
    9998:	3c207a73 	stccc	10, cr7, [r0], #-460	; 0xfffffe34
    999c:	7a697320 	bvc	1a66624 <__bss_end__+0x1a5c864>
    99a0:	20666f65 	rsbcs	r6, r6, r5, ror #30
    99a4:	2d667562 	cfstr64cs	mvdx7, [r6, #-392]!	; 0xfffffe78
    99a8:	00000031 	andeq	r0, r0, r1, lsr r0

Disassembly of section .bss:

000099ac <__bss_start__>:
    99ac:	00000000 	andeq	r0, r0, r0

000099b0 <v.4236>:
    99b0:	00000000 	andeq	r0, r0, r0

000099b4 <buf.4213>:
	...

00009db4 <console_uart>:
	...

Disassembly of section .ARM.attributes:

00000000 <.ARM.attributes>:
   0:	00002a41 	andeq	r2, r0, r1, asr #20
   4:	61656100 	cmnvs	r5, r0, lsl #2
   8:	01006962 	tsteq	r0, r2, ror #18
   c:	00000020 	andeq	r0, r0, r0, lsr #32
  10:	4b5a3605 	blmi	168d82c <__bss_end__+0x1683a6c>
  14:	08070600 	stmdaeq	r7, {r9, sl}
  18:	12010901 	andne	r0, r1, #16384	; 0x4000
  1c:	15011404 	strne	r1, [r1, #-1028]	; 0x404
  20:	18031701 	stmdane	r3, {r0, r8, r9, sl, ip}
  24:	22011a01 	andcs	r1, r1, #4096	; 0x1000
  28:	Address 0x0000000000000028 is out of bounds.


Disassembly of section .comment:

00000000 <.comment>:
   0:	3a434347 	bcc	10d0d24 <__bss_end__+0x10c6f64>
   4:	4e472820 	cdpmi	8, 4, cr2, cr7, cr0, {1}
   8:	34202955 	strtcc	r2, [r0], #-2389	; 0x955
   c:	332e382e 	teqcc	lr, #3014656	; 0x2e0000
	...

Disassembly of section .debug_info:

00000000 <.debug_info>:
       0:	0000027c 	andeq	r0, r0, ip, ror r2
       4:	00000004 	andeq	r0, r0, r4
       8:	01040000 	mrseq	r0, (UNDEF: 4)
       c:	00000108 	andeq	r0, r0, r8, lsl #2
      10:	00000001 	andeq	r0, r0, r1
      14:	00002b00 	andeq	r2, r0, r0, lsl #22
      18:	00801000 	addeq	r1, r0, r0
      1c:	0000b400 	andeq	fp, r0, r0, lsl #8
      20:	00000000 	andeq	r0, r0, r0
      24:	05040200 	streq	r0, [r4, #-512]	; 0x200
      28:	00746e69 	rsbseq	r6, r4, r9, ror #28
      2c:	df070403 	svcle	0x00070403
      30:	03000000 	movweq	r0, #0
      34:	00990601 	addseq	r0, r9, r1, lsl #12
      38:	02030000 	andeq	r0, r3, #0
      3c:	00015f05 	andeq	r5, r1, r5, lsl #30
      40:	05040300 	streq	r0, [r4, #-768]	; 0x300
      44:	000000fa 	strdeq	r0, [r0], -sl
      48:	f5050803 			; <UNDEFINED> instruction: 0xf5050803
      4c:	03000000 	movweq	r0, #0
      50:	00970801 	addseq	r0, r7, r1, lsl #16
      54:	02030000 	andeq	r0, r3, #0
      58:	0000b207 	andeq	fp, r0, r7, lsl #4
      5c:	07040300 	streq	r0, [r4, -r0, lsl #6]
      60:	000000da 	ldrdeq	r0, [r0], -sl
      64:	d5070803 	strle	r0, [r7, #-2051]	; 0x803
      68:	03000000 	movweq	r0, #0
      6c:	00ec0704 	rsceq	r0, ip, r4, lsl #14
      70:	01030000 	mrseq	r0, (UNDEF: 3)
      74:	0000a008 	andeq	sl, r0, r8
      78:	7f040400 	svcvc	0x00040400
      7c:	05000000 	streq	r0, [r0, #-0]
      80:	00000072 	andeq	r0, r0, r2, ror r0
      84:	00001c06 	andeq	r1, r0, r6, lsl #24
      88:	10090100 	andne	r0, r9, r0, lsl #2
      8c:	88000080 	stmdahi	r0, {r7}
      90:	01000000 	mrseq	r0, (UNDEF: 0)
      94:	0001c59c 	muleq	r1, ip, r5
      98:	69700700 	ldmdbvs	r0!, {r8, r9, sl}^
      9c:	0901006e 	stmdbeq	r1, {r1, r2, r3, r5, r6}
      a0:	0000002c 	andeq	r0, r0, ip, lsr #32
      a4:	00000000 	andeq	r0, r0, r0
      a8:	01004e07 	tsteq	r0, r7, lsl #28
      ac:	00002c09 	andeq	r2, r0, r9, lsl #24
      b0:	00002c00 	andeq	r2, r0, r0, lsl #24
      b4:	01700800 	cmneq	r0, r0, lsl #16
      b8:	09010000 	stmdbeq	r1, {}	; <UNPREDICTABLE>
      bc:	0000002c 	andeq	r0, r0, ip, lsr #32
      c0:	00000058 	andeq	r0, r0, r8, asr r0
      c4:	0003a909 	andeq	sl, r3, r9, lsl #18
      c8:	2c0a0100 	stfcss	f0, [sl], {-0}
      cc:	84000000 	strhi	r0, [r0], #-0
      d0:	0a000000 	beq	d8 <_start-0x7f28>
      d4:	00000016 	andeq	r0, r0, r6, lsl r0
      d8:	00250c01 	eoreq	r0, r5, r1, lsl #24
      dc:	03050000 	movweq	r0, #20480	; 0x5000
      e0:	000099ac 	andeq	r9, r0, ip, lsr #19
      e4:	0100760b 	tsteq	r0, fp, lsl #12
      e8:	0000250d 	andeq	r2, r0, sp, lsl #10
      ec:	b0030500 	andlt	r0, r3, r0, lsl #10
      f0:	09000099 	stmdbeq	r0, {r0, r3, r4, r7}
      f4:	00000025 	andeq	r0, r0, r5, lsr #32
      f8:	002c0e01 	eoreq	r0, ip, r1, lsl #28
      fc:	00970000 	addseq	r0, r7, r0
     100:	650c0000 	strvs	r0, [ip, #-0]
     104:	0100646e 	tsteq	r0, lr, ror #8
     108:	00002c19 	andeq	r2, r0, r9, lsl ip
     10c:	80200d00 	eorhi	r0, r0, r0, lsl #26
     110:	00040000 	andeq	r0, r4, r0
     114:	012a0000 	teqeq	sl, r0
     118:	03090000 	movweq	r0, #36864	; 0x9000
     11c:	01000001 	tsteq	r0, r1
     120:	00002c0a 	andeq	r2, r0, sl, lsl #24
     124:	00008400 	andeq	r8, r0, r0, lsl #8
     128:	240d0000 	strcs	r0, [sp], #-0
     12c:	14000080 	strne	r0, [r0], #-128	; 0x80
     130:	47000000 	strmi	r0, [r0, -r0]
     134:	09000001 	stmdbeq	r0, {r0}
     138:	00000103 	andeq	r0, r0, r3, lsl #2
     13c:	002c0e01 	eoreq	r0, ip, r1, lsl #28
     140:	00aa0000 	adceq	r0, sl, r0
     144:	0d000000 	stceq	0, cr0, [r0, #-0]
     148:	00008038 	andeq	r8, r0, r8, lsr r0
     14c:	00000040 	andeq	r0, r0, r0, asr #32
     150:	0000018d 	andeq	r0, r0, sp, lsl #3
     154:	00016909 	andeq	r6, r1, r9, lsl #18
     158:	2c100100 	ldfcss	f0, [r0], {-0}
     15c:	bd000000 	stclt	0, cr0, [r0, #-0]
     160:	0e000000 	cdpeq	0, 0, cr0, cr0, cr0, {0}
     164:	00000000 	andeq	r0, r0, r0
     168:	0000017c 	andeq	r0, r0, ip, ror r1
     16c:	00010309 	andeq	r0, r1, r9, lsl #6
     170:	2c100100 	ldfcss	f0, [r0], {-0}
     174:	bd000000 	stclt	0, cr0, [r0, #-0]
     178:	00000000 	andeq	r0, r0, r0
     17c:	0080580f 	addeq	r5, r0, pc, lsl #16
     180:	00023b00 	andeq	r3, r2, r0, lsl #22
     184:	50011000 	andpl	r1, r1, r0
     188:	00007902 	andeq	r7, r0, r2, lsl #18
     18c:	80780d00 	rsbshi	r0, r8, r0, lsl #26
     190:	00040000 	andeq	r0, r4, r0
     194:	01a60000 			; <UNDEFINED> instruction: 0x01a60000
     198:	03110000 	tsteq	r1, #0
     19c:	01000001 	tsteq	r0, r1
     1a0:	00002c19 	andeq	r2, r0, r9, lsl ip
     1a4:	90120000 	andsls	r0, r2, r0
     1a8:	51000080 	smlabbpl	r0, r0, r0, r0
     1ac:	10000002 	andne	r0, r0, r2
     1b0:	f3075101 	vrhadd.u8	d5, d7, d1
     1b4:	01f35201 	mvnseq	r5, r1, lsl #4
     1b8:	01101e51 	tsteq	r0, r1, asr lr
     1bc:	50030550 	andpl	r0, r3, r0, asr r5
     1c0:	00000097 	muleq	r0, r7, r0
     1c4:	008f0600 	addeq	r0, pc, r0, lsl #12
     1c8:	1f010000 	svcne	0x00010000
     1cc:	00008098 	muleq	r0, r8, r0
     1d0:	0000002c 	andeq	r0, r0, ip, lsr #32
     1d4:	023b9c01 	eorseq	r9, fp, #256	; 0x100
     1d8:	70130000 	andsvc	r0, r3, r0
     1dc:	01006e69 	tsteq	r0, r9, ror #28
     1e0:	00002520 	andeq	r2, r0, r0, lsr #10
     1e4:	a40d1500 	strge	r1, [sp], #-1280	; 0x500
     1e8:	08000080 	stmdaeq	r0, {r7}
     1ec:	ff000000 			; <UNDEFINED> instruction: 0xff000000
     1f0:	13000001 	movwne	r0, #1
     1f4:	01006e69 	tsteq	r0, r9, ror #28
     1f8:	00002c22 	andeq	r2, r0, r2, lsr #24
     1fc:	14000100 	strne	r0, [r0], #-256	; 0x100
     200:	000080a4 	andeq	r8, r0, r4, lsr #1
     204:	00000267 	andeq	r0, r0, r7, ror #4
     208:	00000212 	andeq	r0, r0, r2, lsl r2
     20c:	01500110 	cmpeq	r0, r0, lsl r1
     210:	bc140045 	ldclt	0, cr0, [r4], {69}	; 0x45
     214:	84000080 	strhi	r0, [r0], #-128	; 0x80
     218:	31000000 	mrscc	r0, (UNDEF: 0)
     21c:	10000002 	andne	r0, r0, r2
     220:	0a035201 	beq	d4a2c <__bss_end__+0xcac6c>
     224:	01101770 	tsteq	r0, r0, ror r7
     228:	103b0151 	eorsne	r0, fp, r1, asr r1
     22c:	45015001 	strmi	r5, [r1, #-1]
     230:	80c01500 	sbchi	r1, r0, r0, lsl #10
     234:	02780000 	rsbseq	r0, r8, #0
     238:	16000000 	strne	r0, [r0], -r0
     23c:	0000000b 	andeq	r0, r0, fp
     240:	02512102 	subseq	r2, r1, #-2147483648	; 0x80000000
     244:	2c170000 	ldccs	0, cr0, [r7], {-0}
     248:	17000000 	strne	r0, [r0, -r0]
     24c:	0000002c 	andeq	r0, r0, ip, lsr #32
     250:	01ee1800 	mvneq	r1, r0, lsl #16
     254:	29030000 	stmdbcs	r3, {}	; <UNPREDICTABLE>
     258:	00000025 	andeq	r0, r0, r5, lsr #32
     25c:	00000267 	andeq	r0, r0, r7, ror #4
     260:	00007917 	andeq	r7, r0, r7, lsl r9
     264:	16001900 	strne	r1, [r0], -r0, lsl #18
     268:	000000c5 	andeq	r0, r0, r5, asr #1
     26c:	02781d02 	rsbseq	r1, r8, #2, 26	; 0x80
     270:	2c170000 	ldccs	0, cr0, [r7], {-0}
     274:	00000000 	andeq	r0, r0, r0
     278:	0000a51a 	andeq	sl, r0, sl, lsl r5
     27c:	00660300 	rsbeq	r0, r6, r0, lsl #6
     280:	00000191 	muleq	r0, r1, r1
     284:	015e0004 	cmpeq	lr, r4
     288:	01040000 	mrseq	r0, (UNDEF: 4)
     28c:	00000194 	muleq	r0, r4, r1
     290:	00018601 	andeq	r8, r1, r1, lsl #12
     294:	0001ff00 	andeq	pc, r1, r0, lsl #30
     298:	0080c400 	addeq	ip, r0, r0, lsl #8
     29c:	00005800 	andeq	r5, r0, r0, lsl #16
     2a0:	0000fc00 	andeq	pc, r0, r0, lsl #24
     2a4:	01770200 	cmneq	r7, r0, lsl #4
     2a8:	28020000 	stmdacs	r2, {}	; <UNPREDICTABLE>
     2ac:	00000030 	andeq	r0, r0, r0, lsr r0
     2b0:	0001f503 	andeq	pc, r1, r3, lsl #10
     2b4:	00030400 	andeq	r0, r3, r0, lsl #8
     2b8:	00000047 	andeq	r0, r0, r7, asr #32
     2bc:	00024804 	andeq	r4, r2, r4, lsl #16
     2c0:	00004700 	andeq	r4, r0, r0, lsl #14
     2c4:	05000000 	streq	r0, [r0, #-0]
     2c8:	01f70204 	mvnseq	r0, r4, lsl #4
     2cc:	62020000 	andvs	r0, r2, #0
     2d0:	00000025 	andeq	r0, r0, r5, lsr #32
     2d4:	69050406 	stmdbvs	r5, {r1, r2, sl}
     2d8:	0700746e 	streq	r7, [r0, -lr, ror #8]
     2dc:	00df0704 	sbcseq	r0, pc, r4, lsl #14
     2e0:	01070000 	mrseq	r0, (UNDEF: 7)
     2e4:	00009906 	andeq	r9, r0, r6, lsl #18
     2e8:	05020700 	streq	r0, [r2, #-1792]	; 0x700
     2ec:	0000015f 	andeq	r0, r0, pc, asr r1
     2f0:	fa050407 	blx	141314 <__bss_end__+0x137554>
     2f4:	07000000 	streq	r0, [r0, -r0]
     2f8:	00f50508 	rscseq	r0, r5, r8, lsl #10
     2fc:	01070000 	mrseq	r0, (UNDEF: 7)
     300:	00009708 	andeq	r9, r0, r8, lsl #14
     304:	07020700 	streq	r0, [r2, -r0, lsl #14]
     308:	000000b2 	strheq	r0, [r0], -r2
     30c:	da070407 	ble	1c1330 <__bss_end__+0x1b7570>
     310:	07000000 	streq	r0, [r0, -r0]
     314:	00d50708 	sbcseq	r0, r5, r8, lsl #14
     318:	04070000 	streq	r0, [r7], #-0
     31c:	0000ec07 	andeq	lr, r0, r7, lsl #24
     320:	a7040800 	strge	r0, [r4, -r0, lsl #16]
     324:	07000000 	streq	r0, [r0, -r0]
     328:	00a00801 	adceq	r0, r0, r1, lsl #16
     32c:	04080000 	streq	r0, [r8], #-0
     330:	000000b4 	strheq	r0, [r0], -r4
     334:	0000a709 	andeq	sl, r0, r9, lsl #14
     338:	01ee0a00 	mvneq	r0, r0, lsl #20
     33c:	06010000 	streq	r0, [r1], -r0
     340:	00000054 	andeq	r0, r0, r4, asr r0
     344:	000080c4 	andeq	r8, r0, r4, asr #1
     348:	00000058 	andeq	r0, r0, r8, asr r0
     34c:	01439c01 	cmpeq	r3, r1, lsl #24
     350:	660b0000 	strvs	r0, [fp], -r0
     354:	0100746d 	tsteq	r0, sp, ror #8
     358:	0000ae06 	andeq	sl, r0, r6, lsl #28
     35c:	70910200 	addsvc	r0, r1, r0, lsl #4
     360:	75620d0c 	strbvc	r0, [r2, #-3340]!	; 0xd0c
     364:	08010066 	stmdaeq	r1, {r1, r2, r5, r6}
     368:	00000143 	andeq	r0, r0, r3, asr #2
     36c:	99b40305 	ldmibls	r4!, {r0, r2, r8, r9}
     370:	430e0000 	movwmi	r0, #57344	; 0xe000
     374:	01000002 	tsteq	r0, r2
     378:	00004909 	andeq	r4, r0, r9, lsl #18
     37c:	5c910200 	lfmpl	f0, 4, [r1], {0}
     380:	007a730f 	rsbseq	r7, sl, pc, lsl #6
     384:	00540c01 	subseq	r0, r4, r1, lsl #24
     388:	00d00000 	sbcseq	r0, r0, r0
     38c:	ec100000 	ldc	0, cr0, [r0], {-0}
     390:	74000080 	strvc	r0, [r0], #-128	; 0x80
     394:	36000001 	strcc	r0, [r0], -r1
     398:	11000001 	tstne	r0, r1
     39c:	91025301 	tstls	r2, r1, lsl #6
     3a0:	5201114c 	andpl	r1, r1, #76, 2
     3a4:	06489103 	strbeq	r9, [r8], -r3, lsl #2
     3a8:	03510111 	cmpeq	r1, #1073741828	; 0x40000004
     3ac:	1104000a 	tstne	r4, sl
     3b0:	74025001 	strvc	r5, [r2], #-1
     3b4:	00120000 	andseq	r0, r2, r0
     3b8:	11000081 	smlabbne	r0, r1, r0, r0
     3bc:	74025001 	strvc	r5, [r2], #-1
     3c0:	13000000 	movwne	r0, #0
     3c4:	000000a7 	andeq	r0, r0, r7, lsr #1
     3c8:	00000154 	andeq	r0, r0, r4, asr r1
     3cc:	00009a14 	andeq	r9, r0, r4, lsl sl
     3d0:	0003ff00 	andeq	pc, r3, r0, lsl #30
     3d4:	00005415 	andeq	r5, r0, r5, lsl r4
     3d8:	00016300 	andeq	r6, r1, r0, lsl #6
     3dc:	00ae1600 	adceq	r1, lr, r0, lsl #12
     3e0:	17000000 	strne	r0, [r0, -r0]
     3e4:	00000262 	andeq	r0, r0, r2, ror #4
     3e8:	016e2204 	cmneq	lr, r4, lsl #4
     3ec:	04080000 	streq	r0, [r8], #-0
     3f0:	00000154 	andeq	r0, r0, r4, asr r1
     3f4:	0001eb18 	andeq	lr, r1, r8, lsl fp
     3f8:	54020500 	strpl	r0, [r2], #-1280	; 0x500
     3fc:	16000000 	strne	r0, [r0], -r0
     400:	000000a1 	andeq	r0, r0, r1, lsr #1
     404:	00005416 	andeq	r5, r0, r6, lsl r4
     408:	00ae1600 	adceq	r1, lr, r0, lsl #12
     40c:	49160000 	ldmdbmi	r6, {}	; <UNPREDICTABLE>
     410:	00000000 	andeq	r0, r0, r0
     414:	0000ee00 	andeq	lr, r0, r0, lsl #28
     418:	8f000400 	svchi	0x00000400
     41c:	04000002 	streq	r0, [r0], #-2
     420:	00019401 	andeq	r9, r1, r1, lsl #8
     424:	024d0100 	subeq	r0, sp, #0, 2
     428:	01ff0000 	mvnseq	r0, r0
     42c:	811c0000 	tsthi	ip, r0
     430:	00340000 	eorseq	r0, r4, r0
     434:	02020000 	andeq	r0, r2, #0
     438:	04020000 	streq	r0, [r2], #-0
     43c:	746e6905 	strbtvc	r6, [lr], #-2309	; 0x905
     440:	07040300 	streq	r0, [r4, -r0, lsl #6]
     444:	000000df 	ldrdeq	r0, [r0], -pc	; <UNPREDICTABLE>
     448:	99060103 	stmdbls	r6, {r0, r1, r8}
     44c:	03000000 	movweq	r0, #0
     450:	015f0502 	cmpeq	pc, r2, lsl #10
     454:	04030000 	streq	r0, [r3], #-0
     458:	0000fa05 	andeq	pc, r0, r5, lsl #20
     45c:	05080300 	streq	r0, [r8, #-768]	; 0x300
     460:	000000f5 	strdeq	r0, [r0], -r5
     464:	97080103 	strls	r0, [r8, -r3, lsl #2]
     468:	03000000 	movweq	r0, #0
     46c:	00b20702 	adcseq	r0, r2, r2, lsl #14
     470:	04030000 	streq	r0, [r3], #-0
     474:	0000da07 	andeq	sp, r0, r7, lsl #20
     478:	07080300 	streq	r0, [r8, -r0, lsl #6]
     47c:	000000d5 	ldrdeq	r0, [r0], -r5
     480:	ec070403 	cfstrs	mvf0, [r7], {3}
     484:	03000000 	movweq	r0, #0
     488:	00a00801 	adceq	r0, r0, r1, lsl #16
     48c:	04040000 	streq	r0, [r4], #-0
     490:	0000007f 	andeq	r0, r0, pc, ror r0
     494:	00007205 	andeq	r7, r0, r5, lsl #4
     498:	02590600 	subseq	r0, r9, #0, 12
     49c:	04010000 	streq	r0, [r1], #-0
     4a0:	00000025 	andeq	r0, r0, r5, lsr #32
     4a4:	0000811c 	andeq	r8, r0, ip, lsl r1
     4a8:	00000034 	andeq	r0, r0, r4, lsr r0
     4ac:	00ab9c01 	adceq	r9, fp, r1, lsl #24
     4b0:	70070000 	andvc	r0, r7, r0
     4b4:	79040100 	stmdbvc	r4, {r8}
     4b8:	f9000000 			; <UNDEFINED> instruction: 0xf9000000
     4bc:	00000000 	andeq	r0, r0, r0
     4c0:	00002508 	andeq	r2, r0, r8, lsl #10
     4c4:	0000ba00 	andeq	fp, r0, r0, lsl #20
     4c8:	00250900 	eoreq	r0, r5, r0, lsl #18
     4cc:	0a000000 	beq	4d4 <_start-0x7b2c>
     4d0:	00000267 	andeq	r0, r0, r7, ror #4
     4d4:	00c51d02 	sbceq	r1, r5, r2, lsl #26
     4d8:	04040000 	streq	r0, [r4], #-0
     4dc:	000000ab 	andeq	r0, r0, fp, lsr #1
     4e0:	00002508 	andeq	r2, r0, r8, lsl #10
     4e4:	0000da00 	andeq	sp, r0, r0, lsl #20
     4e8:	00790900 	rsbseq	r0, r9, r0, lsl #18
     4ec:	0b000000 	bleq	4f4 <_start-0x7b0c>
     4f0:	00000262 	andeq	r0, r0, r2, ror #4
     4f4:	00eb0c01 	rsceq	r0, fp, r1, lsl #24
     4f8:	03050000 	movweq	r0, #20480	; 0x5000
     4fc:	000096b4 			; <UNDEFINED> instruction: 0x000096b4
     500:	00cb0404 	sbceq	r0, fp, r4, lsl #8
     504:	a1000000 	mrsge	r0, (UNDEF: 0)
     508:	04000006 	streq	r0, [r0], #-6
     50c:	00032800 	andeq	r2, r3, r0, lsl #16
     510:	94010400 	strls	r0, [r1], #-1024	; 0x400
     514:	01000001 	tsteq	r0, r1
     518:	000002ac 	andeq	r0, r0, ip, lsr #5
     51c:	000001ff 	strdeq	r0, [r0], -pc	; <UNPREDICTABLE>
     520:	00008150 	andeq	r8, r0, r0, asr r1
     524:	00000524 	andeq	r0, r0, r4, lsr #10
     528:	0000029c 	muleq	r0, ip, r2
     52c:	69050402 	stmdbvs	r5, {r1, sl}
     530:	0300746e 	movweq	r7, #1134	; 0x46e
     534:	00df0704 	sbcseq	r0, pc, r4, lsl #14
     538:	01030000 	mrseq	r0, (UNDEF: 3)
     53c:	00009906 	andeq	r9, r0, r6, lsl #18
     540:	05020300 	streq	r0, [r2, #-768]	; 0x300
     544:	0000015f 	andeq	r0, r0, pc, asr r1
     548:	fa050403 	blx	14155c <__bss_end__+0x13779c>
     54c:	03000000 	movweq	r0, #0
     550:	00f50508 	rscseq	r0, r5, r8, lsl #10
     554:	01030000 	mrseq	r0, (UNDEF: 3)
     558:	00009708 	andeq	r9, r0, r8, lsl #14
     55c:	07020300 	streq	r0, [r2, -r0, lsl #6]
     560:	000000b2 	strheq	r0, [r0], -r2
     564:	da070403 	ble	1c1578 <__bss_end__+0x1b77b8>
     568:	03000000 	movweq	r0, #0
     56c:	00d50708 	sbcseq	r0, r5, r8, lsl #14
     570:	04030000 	streq	r0, [r3], #-0
     574:	0000ec07 	andeq	lr, r0, r7, lsl #24
     578:	05040400 	streq	r0, [r4, #-1024]	; 0x400
     57c:	00007a04 	andeq	r7, r0, r4, lsl #20
     580:	08010300 	stmdaeq	r1, {r8, r9}
     584:	000000a0 	andeq	r0, r0, r0, lsr #1
     588:	00870405 	addeq	r0, r7, r5, lsl #8
     58c:	7a060000 	bvc	180594 <__bss_end__+0x1767d4>
     590:	07000000 	streq	r0, [r0, -r0]
     594:	00000177 	andeq	r0, r0, r7, ror r1
     598:	00972802 	addseq	r2, r7, r2, lsl #16
     59c:	f5080000 			; <UNDEFINED> instruction: 0xf5080000
     5a0:	04000001 	streq	r0, [r0], #-1
     5a4:	00ae0004 	adceq	r0, lr, r4
     5a8:	48090000 	stmdami	r9, {}	; <UNPREDICTABLE>
     5ac:	72000002 	andvc	r0, r0, #2
     5b0:	00000000 	andeq	r0, r0, r0
     5b4:	01f70700 	mvnseq	r0, r0, lsl #14
     5b8:	62020000 	andvs	r0, r2, #0
     5bc:	0000008c 	andeq	r0, r0, ip, lsl #1
     5c0:	0002810a 	andeq	r8, r2, sl, lsl #2
     5c4:	25270100 	strcs	r0, [r7, #-256]!	; 0x100
     5c8:	50000000 	andpl	r0, r0, r0
     5cc:	14000081 	strne	r0, [r0], #-129	; 0x81
     5d0:	01000000 	mrseq	r0, (UNDEF: 0)
     5d4:	0000e09c 	muleq	r0, ip, r0
     5d8:	00630b00 	rsbeq	r0, r3, r0, lsl #22
     5dc:	00252701 	eoreq	r2, r5, r1, lsl #14
     5e0:	01170000 	tsteq	r7, r0
     5e4:	0c000000 	stceq	0, cr0, [r0], {-0}
     5e8:	00646170 	rsbeq	r6, r4, r0, ror r1
     5ec:	00742e01 	rsbseq	r2, r4, r1, lsl #28
     5f0:	81640000 	cmnhi	r4, r0
     5f4:	002c0000 	eoreq	r0, ip, r0
     5f8:	9c010000 	stcls	0, cr0, [r1], {-0}
     5fc:	00000130 	andeq	r0, r0, r0, lsr r1
     600:	0100700b 	tsteq	r0, fp
     604:	0000742e 	andeq	r7, r0, lr, lsr #8
     608:	00014500 	andeq	r4, r1, r0, lsl #10
     60c:	029e0d00 	addseq	r0, lr, #0, 26
     610:	2e010000 	cdpcs	0, 0, cr0, cr1, cr0, {0}
     614:	00000074 	andeq	r0, r0, r4, ror r0
     618:	00000170 	andeq	r0, r0, r0, ror r1
     61c:	0002cc0e 	andeq	ip, r2, lr, lsl #24
     620:	252e0100 	strcs	r0, [lr, #-256]!	; 0x100
     624:	01000000 	mrseq	r0, (UNDEF: 0)
     628:	656c0f52 	strbvs	r0, [ip, #-3922]!	; 0xf52
     62c:	2f01006e 	svccs	0x0001006e
     630:	00000025 	andeq	r0, r0, r5, lsr #32
     634:	0a005101 	beq	14a40 <__bss_end__+0xac80>
     638:	00000279 	andeq	r0, r0, r9, ror r2
     63c:	00743701 	rsbseq	r3, r4, r1, lsl #14
     640:	81900000 	orrshi	r0, r0, r0
     644:	00400000 	subeq	r0, r0, r0
     648:	9c010000 	stcls	0, cr0, [r1], {-0}
     64c:	0000019c 	muleq	r0, ip, r1
     650:	7473640b 	ldrbtvc	r6, [r3], #-1035	; 0x40b
     654:	74370100 	ldrtvc	r0, [r7], #-256	; 0x100
     658:	91000000 	mrsls	r0, (UNDEF: 0)
     65c:	0b000001 	bleq	668 <_start-0x7998>
     660:	3701006e 	strcc	r0, [r1, -lr, rrx]
     664:	00000025 	andeq	r0, r0, r5, lsr #32
     668:	000001c9 	andeq	r0, r0, r9, asr #3
     66c:	0100700b 	tsteq	r0, fp
     670:	00007437 	andeq	r7, r0, r7, lsr r4
     674:	0001ea00 	andeq	lr, r1, r0, lsl #20
     678:	03a90d00 			; <UNDEFINED> instruction: 0x03a90d00
     67c:	37010000 	strcc	r0, [r1, -r0]
     680:	00000074 	andeq	r0, r0, r4, ror r0
     684:	00000220 	andeq	r0, r0, r0, lsr #4
     688:	6e656c10 	mcrvs	12, 3, r6, cr5, cr0, {0}
     68c:	25390100 	ldrcs	r0, [r9, #-256]!	; 0x100
     690:	3e000000 	cdpcc	0, 0, cr0, cr0, cr0, {0}
     694:	0f000002 	svceq	0x00000002
     698:	3d010073 	stccc	0, cr0, [r1, #-460]	; 0xfffffe34
     69c:	00000074 	andeq	r0, r0, r4, ror r0
     6a0:	0a005001 	beq	146ac <__bss_end__+0xa8ec>
     6a4:	000002e9 	andeq	r0, r0, r9, ror #5
     6a8:	00744701 	rsbseq	r4, r4, r1, lsl #14
     6ac:	81d00000 	bicshi	r0, r0, r0
     6b0:	01a80000 			; <UNDEFINED> instruction: 0x01a80000
     6b4:	9c010000 	stcls	0, cr0, [r1], {-0}
     6b8:	000002df 	ldrdeq	r0, [r0], -pc	; <UNPREDICTABLE>
     6bc:	00029e0d 	andeq	r9, r2, sp, lsl #28
     6c0:	2c470100 	stfcse	f0, [r7], {-0}
     6c4:	65000000 	strvs	r0, [r0, #-0]
     6c8:	0b000002 	bleq	6d8 <_start-0x7928>
     6cc:	00747364 	rsbseq	r7, r4, r4, ror #6
     6d0:	00744701 	rsbseq	r4, r4, r1, lsl #14
     6d4:	02930000 	addseq	r0, r3, #0
     6d8:	6e0b0000 	cdpvs	0, 0, cr0, cr11, cr0, {0}
     6dc:	25470100 	strbcs	r0, [r7, #-256]	; 0x100
     6e0:	01000000 	mrseq	r0, (UNDEF: 0)
     6e4:	0b000003 	bleq	6f8 <_start-0x7908>
     6e8:	006c6176 	rsbeq	r6, ip, r6, ror r1
     6ec:	00254701 	eoreq	r4, r5, r1, lsl #14
     6f0:	032d0000 	teqeq	sp, #0
     6f4:	cc0d0000 	stcgt	0, cr0, [sp], {-0}
     6f8:	01000002 	tsteq	r0, r2
     6fc:	00002547 	andeq	r2, r0, r7, asr #10
     700:	0003ac00 	andeq	sl, r3, r0, lsl #24
     704:	02a30e00 	adceq	r0, r3, #0, 28
     708:	47010000 	strmi	r0, [r1, -r0]
     70c:	00000025 	andeq	r0, r0, r5, lsr #32
     710:	0f049102 	svceq	0x00049102
     714:	00667562 	rsbeq	r7, r6, r2, ror #10
     718:	02df4c01 	sbcseq	r4, pc, #256	; 0x100
     71c:	91030000 	mrsls	r0, (UNDEF: 3)
     720:	70107fa8 	andsvc	r7, r0, r8, lsr #31
     724:	744c0100 	strbvc	r0, [ip], #-256	; 0x100
     728:	d6000000 	strle	r0, [r0], -r0
     72c:	10000003 	andne	r0, r0, r3
     730:	4d010075 	stcmi	0, cr0, [r1, #-468]	; 0xfffffe2c
     734:	0000002c 	andeq	r0, r0, ip, lsr #32
     738:	00000492 	muleq	r0, r2, r4
     73c:	00028911 	andeq	r8, r2, r1, lsl r9
     740:	0002ff00 	andeq	pc, r2, r0, lsl #30
     744:	70030500 	andvc	r0, r3, r0, lsl #10
     748:	12000097 	andne	r0, r0, #151	; 0x97
     74c:	0000823c 	andeq	r8, r0, ip, lsr r2
     750:	00000074 	andeq	r0, r0, r4, ror r0
     754:	00000261 	andeq	r0, r0, r1, ror #4
     758:	00027313 	andeq	r7, r2, r3, lsl r3
     75c:	2c520100 	ldfcse	f0, [r2], {-0}
     760:	97000000 	strls	r0, [r0, -r0]
     764:	00000005 	andeq	r0, r0, r5
     768:	00831014 	addeq	r1, r3, r4, lsl r0
     76c:	00068000 	andeq	r8, r6, r0
     770:	832c1500 	teqhi	ip, #0, 10
     774:	06870000 	streq	r0, [r7], r0
     778:	02a30000 	adceq	r0, r3, #0
     77c:	01160000 	tsteq	r6, r0
     780:	75080253 	strvc	r0, [r8, #-595]	; 0x253
     784:	05520116 	ldrbeq	r0, [r2, #-278]	; 0x116
     788:	00977003 	addseq	r7, r7, r3
     78c:	51011600 	tstpl	r1, r0, lsl #12
     790:	97a80305 	strls	r0, [r8, r5, lsl #6]!
     794:	01160000 	tsteq	r6, r0
     798:	94030550 	strls	r0, [r3], #-1360	; 0x550
     79c:	16000097 			; <UNDEFINED> instruction: 0x16000097
     7a0:	05007d02 	streq	r7, [r0, #-3330]	; 0xd02
     7a4:	0097bc03 	addseq	fp, r7, r3, lsl #24
     7a8:	30140000 	andscc	r0, r4, r0
     7ac:	9d000083 	stcls	0, cr0, [r0, #-524]	; 0xfffffdf4
     7b0:	15000006 	strne	r0, [r0, #-6]
     7b4:	0000833c 	andeq	r8, r0, ip, lsr r3
     7b8:	000000e0 	andeq	r0, r0, r0, ror #1
     7bc:	000002c1 	andeq	r0, r0, r1, asr #5
     7c0:	03510116 	cmpeq	r1, #-2147483643	; 0x80000005
     7c4:	007fa091 			; <UNDEFINED> instruction: 0x007fa091
     7c8:	00835017 	addeq	r5, r3, r7, lsl r0
     7cc:	00013000 	andeq	r3, r1, r0
     7d0:	53011600 	movwpl	r1, #5632	; 0x1600
     7d4:	7fa09103 	svcvc	0x00a09103
     7d8:	02510116 	subseq	r0, r1, #-2147483643	; 0x80000005
     7dc:	01160074 	tsteq	r6, r4, ror r0
     7e0:	00750250 	rsbseq	r0, r5, r0, asr r2
     7e4:	7a180000 	bvc	6007ec <__bss_end__+0x5f6a2c>
     7e8:	ef000000 	svc	0x00000000
     7ec:	19000002 	stmdbne	r0, {r1}
     7f0:	0000006b 	andeq	r0, r0, fp, rrx
     7f4:	7a18003f 	bvc	6008f8 <__bss_end__+0x5f6b38>
     7f8:	ff000000 			; <UNDEFINED> instruction: 0xff000000
     7fc:	19000002 	stmdbne	r0, {r1}
     800:	0000006b 	andeq	r0, r0, fp, rrx
     804:	ef060004 	svc	0x00060004
     808:	1a000002 	bne	818 <_start-0x77e8>
     80c:	000002bd 			; <UNDEFINED> instruction: 0x000002bd
     810:	83781f01 	cmnhi	r8, #1, 30
     814:	00680000 	rsbeq	r0, r8, r0
     818:	9c010000 	stcls	0, cr0, [r1], {-0}
     81c:	00000392 	muleq	r0, r2, r3
     820:	0002d20d 	andeq	sp, r2, sp, lsl #4
     824:	a11f0100 	tstge	pc, r0, lsl #2
     828:	c3000003 	movwgt	r0, #3
     82c:	0d000005 	stceq	0, cr0, [r0, #-20]	; 0xffffffec
     830:	00000296 	muleq	r0, r6, r2
     834:	03b61f01 			; <UNDEFINED> instruction: 0x03b61f01
     838:	05ef0000 	strbeq	r0, [pc, #0]!	; 840 <_start-0x77c0>
     83c:	89110000 	ldmdbhi	r1, {}	; <UNPREDICTABLE>
     840:	cc000002 	stcgt	0, cr0, [r0], {2}
     844:	05000003 	streq	r0, [r0, #-3]
     848:	00977803 	addseq	r7, r7, r3, lsl #16
     84c:	838c1400 	orrhi	r1, ip, #0, 8
     850:	06800000 	streq	r0, [r0], r0
     854:	a8150000 	ldmdage	r5, {}	; <UNPREDICTABLE>
     858:	87000083 	strhi	r0, [r0, -r3, lsl #1]
     85c:	88000006 	stmdahi	r0, {r1, r2}
     860:	16000003 	strne	r0, [r0], -r3
     864:	08025301 	stmdaeq	r2, {r0, r8, r9, ip, lr}
     868:	52011620 	andpl	r1, r1, #32, 12	; 0x2000000
     86c:	97780305 	ldrbls	r0, [r8, -r5, lsl #6]!
     870:	01160000 	tsteq	r6, r0
     874:	a8030551 	stmdage	r3, {r0, r4, r6, r8, sl}
     878:	16000097 			; <UNDEFINED> instruction: 0x16000097
     87c:	03055001 	movweq	r5, #20481	; 0x5001
     880:	00009794 	muleq	r0, r4, r7
     884:	007d0216 	rsbseq	r0, sp, r6, lsl r2
     888:	97e40305 	strbls	r0, [r4, r5, lsl #6]!
     88c:	14000000 	strne	r0, [r0], #-0
     890:	000083ac 	andeq	r8, r0, ip, lsr #7
     894:	0000069d 	muleq	r0, sp, r6
     898:	00251b00 	eoreq	r1, r5, r0, lsl #22
     89c:	03a10000 			; <UNDEFINED> instruction: 0x03a10000
     8a0:	251c0000 	ldrcs	r0, [ip, #-0]
     8a4:	00000000 	andeq	r0, r0, r0
     8a8:	03920405 	orrseq	r0, r2, #83886080	; 0x5000000
     8ac:	251b0000 	ldrcs	r0, [fp, #-0]
     8b0:	b6000000 	strlt	r0, [r0], -r0
     8b4:	1c000003 	stcne	0, cr0, [r0], {3}
     8b8:	00000081 	andeq	r0, r0, r1, lsl #1
     8bc:	a7040500 	strge	r0, [r4, -r0, lsl #10]
     8c0:	18000003 	stmdane	r0, {r0, r1}
     8c4:	0000007a 	andeq	r0, r0, sl, ror r0
     8c8:	000003cc 	andeq	r0, r0, ip, asr #7
     8cc:	00006b19 	andeq	r6, r0, r9, lsl fp
     8d0:	06000e00 	streq	r0, [r0], -r0, lsl #28
     8d4:	000003bc 			; <UNDEFINED> instruction: 0x000003bc
     8d8:	0001eb1d 	andeq	lr, r1, sp, lsl fp
     8dc:	257d0100 	ldrbcs	r0, [sp, #-256]!	; 0x100
     8e0:	e0000000 	and	r0, r0, r0
     8e4:	94000083 	strls	r0, [r0], #-131	; 0x83
     8e8:	01000002 	tsteq	r0, r2
     8ec:	0006459c 	muleq	r6, ip, r5
     8f0:	75620b00 	strbvc	r0, [r2, #-2816]!	; 0xb00
     8f4:	7d010066 	stcvc	0, cr0, [r1, #-408]	; 0xfffffe68
     8f8:	00000074 	andeq	r0, r0, r4, ror r0
     8fc:	0000061b 	andeq	r0, r0, fp, lsl r6
     900:	01006e0b 	tsteq	r0, fp, lsl #28
     904:	0000257d 	andeq	r2, r0, sp, ror r5
     908:	00064700 	andeq	r4, r6, r0, lsl #14
     90c:	6d660b00 	vstmdbvs	r6!, {d16-d15}
     910:	7d010074 	stcvc	0, cr0, [r1, #-464]	; 0xfffffe30
     914:	00000081 	andeq	r0, r0, r1, lsl #1
     918:	00000675 	andeq	r0, r0, r5, ror r6
     91c:	0002430d 	andeq	r4, r2, sp, lsl #6
     920:	ae7d0100 	rpwgee	f0, f5, f0
     924:	a9000000 	stmdbge	r0, {}	; <UNPREDICTABLE>
     928:	10000006 	andne	r0, r0, r6
     92c:	7e010070 	mcrvc	0, 0, r0, cr1, cr0, {3}
     930:	00000074 	andeq	r0, r0, r4, ror r0
     934:	000006bc 			; <UNDEFINED> instruction: 0x000006bc
     938:	01006510 	tsteq	r0, r0, lsl r5
     93c:	0000747e 	andeq	r7, r0, lr, ror r4
     940:	00073a00 	andeq	r3, r7, r0, lsl #20
     944:	02891100 	addeq	r1, r9, #0, 2
     948:	06550000 	ldrbeq	r0, [r5], -r0
     94c:	03050000 	movweq	r0, #20480	; 0x5000
     950:	00009788 	andeq	r9, r0, r8, lsl #15
     954:	0000181e 	andeq	r1, r0, lr, lsl r8
     958:	00731000 	rsbseq	r1, r3, r0
     95c:	00748b01 	rsbseq	r8, r4, r1, lsl #22
     960:	07610000 	strbeq	r0, [r1, -r0]!
     964:	6e0f0000 	cdpvs	0, 0, cr0, cr15, cr0, {0}
     968:	01006d75 	tsteq	r0, r5, ror sp
     96c:	00065a8b 	andeq	r5, r6, fp, lsl #21
     970:	d8910300 	ldmle	r1, {r8, r9}
     974:	02cc137e 	sbceq	r1, ip, #-134217727	; 0xf8000001
     978:	8c010000 	stchi	0, cr0, [r1], {-0}
     97c:	0000002c 	andeq	r0, r0, ip, lsr #32
     980:	000007b6 			; <UNDEFINED> instruction: 0x000007b6
     984:	00846415 	addeq	r6, r4, r5, lsl r4
     988:	0000b900 	andeq	fp, r0, r0, lsl #18
     98c:	00049100 	andeq	r9, r4, r0, lsl #2
     990:	50011600 	andpl	r1, r1, r0, lsl #12
     994:	00007502 	andeq	r7, r0, r2, lsl #10
     998:	00847814 	addeq	r7, r4, r4, lsl r8
     99c:	00068000 	andeq	r8, r6, r0
     9a0:	84941500 	ldrhi	r1, [r4], #1280	; 0x500
     9a4:	06870000 	streq	r0, [r7], r0
     9a8:	04d30000 	ldrbeq	r0, [r3], #0
     9ac:	01160000 	tsteq	r6, r0
     9b0:	92080253 	andls	r0, r8, #805306373	; 0x30000005
     9b4:	05520116 	ldrbeq	r0, [r2, #-278]	; 0x116
     9b8:	00978803 	addseq	r8, r7, r3, lsl #16
     9bc:	51011600 	tstpl	r1, r0, lsl #12
     9c0:	97a80305 	strls	r0, [r8, r5, lsl #6]!
     9c4:	01160000 	tsteq	r6, r0
     9c8:	94030550 	strls	r0, [r3], #-1360	; 0x550
     9cc:	16000097 			; <UNDEFINED> instruction: 0x16000097
     9d0:	05007d02 	streq	r7, [r0, #-3330]	; 0xd02
     9d4:	0097ec03 	addseq	lr, r7, r3, lsl #24
     9d8:	98140000 	ldmdals	r4, {}	; <UNPREDICTABLE>
     9dc:	9d000084 	stcls	0, cr0, [r0, #-528]	; 0xfffffdf0
     9e0:	14000006 	strne	r0, [r0], #-6
     9e4:	00008508 	andeq	r8, r0, r8, lsl #10
     9e8:	00000680 	andeq	r0, r0, r0, lsl #13
     9ec:	00851c15 	addeq	r1, r5, r5, lsl ip
     9f0:	00068700 	andeq	r8, r6, r0, lsl #14
     9f4:	00051400 	andeq	r1, r5, r0, lsl #8
     9f8:	53011600 	movwpl	r1, #5632	; 0x1600
     9fc:	16980802 	ldrne	r0, [r8], r2, lsl #16
     a00:	03055201 	movweq	r5, #20993	; 0x5201
     a04:	00009788 	andeq	r9, r0, r8, lsl #15
     a08:	05510116 	ldrbeq	r0, [r1, #-278]	; 0x116
     a0c:	0097a803 	addseq	sl, r7, r3, lsl #16
     a10:	50011600 	andpl	r1, r1, r0, lsl #12
     a14:	97f80305 	ldrbls	r0, [r8, r5, lsl #6]!
     a18:	14000000 	strne	r0, [r0], #-0
     a1c:	00008520 	andeq	r8, r0, r0, lsr #10
     a20:	0000069d 	muleq	r0, sp, r6
     a24:	00854415 	addeq	r4, r5, r5, lsl r4
     a28:	00019c00 	andeq	r9, r1, r0, lsl #24
     a2c:	00054a00 	andeq	r4, r5, r0, lsl #20
     a30:	52011600 	andpl	r1, r1, #0, 12
     a34:	16800802 	strne	r0, [r0], r2, lsl #16
     a38:	91035101 	tstls	r3, r1, lsl #2
     a3c:	01167ed0 			; <UNDEFINED> instruction: 0x01167ed0
     a40:	163a0150 			; <UNDEFINED> instruction: 0x163a0150
     a44:	01047d02 	tsteq	r4, r2, lsl #26
     a48:	7d021631 	stcvc	6, cr1, [r2, #-196]	; 0xffffff3c
     a4c:	00770200 	rsbseq	r0, r7, r0, lsl #4
     a50:	85681500 	strbhi	r1, [r8, #-1280]!	; 0x500
     a54:	019c0000 	orrseq	r0, ip, r0
     a58:	05780000 	ldrbeq	r0, [r8, #-0]!
     a5c:	01160000 	tsteq	r6, r0
     a60:	80080252 	andhi	r0, r8, r2, asr r2
     a64:	03510116 	cmpeq	r1, #-2147483643	; 0x80000005
     a68:	167ed091 			; <UNDEFINED> instruction: 0x167ed091
     a6c:	3a015001 	bcc	54a78 <__bss_end__+0x4acb8>
     a70:	047d0216 	ldrbteq	r0, [sp], #-534	; 0x216
     a74:	16007b02 	strne	r7, [r0], -r2, lsl #22
     a78:	02007d02 	andeq	r7, r0, #2, 26	; 0x80
     a7c:	15000077 	strne	r0, [r0, #-119]	; 0x77
     a80:	0000858c 	andeq	r8, r0, ip, lsl #11
     a84:	0000019c 	muleq	r0, ip, r1
     a88:	000005a6 	andeq	r0, r0, r6, lsr #11
     a8c:	02520116 	subseq	r0, r2, #-2147483643	; 0x80000005
     a90:	01168008 	tsteq	r6, r8
     a94:	d0910351 	addsle	r0, r1, r1, asr r3
     a98:	5001167e 	andpl	r1, r1, lr, ror r6
     a9c:	02164001 	andseq	r4, r6, #1
     aa0:	7b02047d 	blvc	81c9c <__bss_end__+0x77edc>
     aa4:	7d021600 	stcvc	6, cr1, [r2, #-0]
     aa8:	00770200 	rsbseq	r0, r7, r0, lsl #4
     aac:	85b01500 	ldrhi	r1, [r0, #1280]!	; 0x500
     ab0:	019c0000 	orrseq	r0, ip, r0
     ab4:	05d40000 	ldrbeq	r0, [r4]
     ab8:	01160000 	tsteq	r6, r0
     abc:	80080252 	andhi	r0, r8, r2, asr r2
     ac0:	03510116 	cmpeq	r1, #-2147483643	; 0x80000005
     ac4:	167ed091 			; <UNDEFINED> instruction: 0x167ed091
     ac8:	32015001 	andcc	r5, r1, #1
     acc:	047d0216 	ldrbteq	r0, [sp], #-534	; 0x216
     ad0:	16007b02 	strne	r7, [r0], -r2, lsl #22
     ad4:	02007d02 	andeq	r7, r0, #2, 26	; 0x80
     ad8:	15000077 	strne	r0, [r0, #-119]	; 0x77
     adc:	000085e0 	andeq	r8, r0, r0, ror #11
     ae0:	0000019c 	muleq	r0, ip, r1
     ae4:	00000602 	andeq	r0, r0, r2, lsl #12
     ae8:	02520116 	subseq	r0, r2, #-2147483643	; 0x80000005
     aec:	01168008 	tsteq	r6, r8
     af0:	d0910351 	addsle	r0, r1, r1, asr r3
     af4:	5001167e 	andpl	r1, r1, lr, ror r6
     af8:	02163801 	andseq	r3, r6, #65536	; 0x10000
     afc:	7b02047d 	blvc	81cf8 <__bss_end__+0x77f38>
     b00:	7d021600 	stcvc	6, cr1, [r2, #-0]
     b04:	00770200 	rsbseq	r0, r7, r0, lsl #4
     b08:	85e81400 	strbhi	r1, [r8, #1024]!	; 0x400
     b0c:	06800000 	streq	r0, [r0], r0
     b10:	04150000 	ldreq	r0, [r5], #-0
     b14:	87000086 	strhi	r0, [r0, -r6, lsl #1]
     b18:	3a000006 	bcc	b38 <_start-0x74c8>
     b1c:	16000006 	strne	r0, [r0], -r6
     b20:	08025301 	stmdaeq	r2, {r0, r8, r9, ip, lr}
     b24:	520116b9 	andpl	r1, r1, #193986560	; 0xb900000
     b28:	97880305 	strls	r0, [r8, r5, lsl #6]
     b2c:	01160000 	tsteq	r6, r0
     b30:	a8030551 	stmdage	r3, {r0, r4, r6, r8, sl}
     b34:	16000097 			; <UNDEFINED> instruction: 0x16000097
     b38:	03055001 	movweq	r5, #20481	; 0x5001
     b3c:	00009820 	andeq	r9, r0, r0, lsr #16
     b40:	86081400 	strhi	r1, [r8], -r0, lsl #8
     b44:	069d0000 	ldreq	r0, [sp], r0
     b48:	00000000 	andeq	r0, r0, r0
     b4c:	00007a18 	andeq	r7, r0, r8, lsl sl
     b50:	00065500 	andeq	r5, r6, r0, lsl #10
     b54:	006b1900 	rsbeq	r1, fp, r0, lsl #18
     b58:	00090000 	andeq	r0, r9, r0
     b5c:	00064506 	andeq	r4, r6, r6, lsl #10
     b60:	007a1800 	rsbseq	r1, sl, r0, lsl #16
     b64:	066a0000 	strbteq	r0, [sl], -r0
     b68:	6b190000 	blvs	640b70 <__bss_end__+0x636db0>
     b6c:	7f000000 	svcvc	0x00000000
     b70:	02671f00 	rsbeq	r1, r7, #0, 30
     b74:	1d030000 	stcne	0, cr0, [r3, #-0]
     b78:	000003a1 	andeq	r0, r0, r1, lsr #7
     b7c:	0002621f 	andeq	r6, r2, pc, lsl r2
     b80:	b6220300 	strtlt	r0, [r2], -r0, lsl #6
     b84:	20000003 	andcs	r0, r0, r3
     b88:	000002da 	ldrdeq	r0, [r0], -sl
     b8c:	ee211e03 	cdp	14, 2, cr1, cr1, cr3, {0}
     b90:	03000001 	movweq	r0, #1
     b94:	00002529 	andeq	r2, r0, r9, lsr #10
     b98:	00069d00 	andeq	r9, r6, r0, lsl #26
     b9c:	00811c00 	addeq	r1, r1, r0, lsl #24
     ba0:	00220000 	eoreq	r0, r2, r0
     ba4:	0000a520 	andeq	sl, r0, r0, lsr #10
     ba8:	00660300 	rsbeq	r0, r6, r0, lsl #6
     bac:	000000ff 	strdeq	r0, [r0], -pc	; <UNPREDICTABLE>
     bb0:	05040004 	streq	r0, [r4, #-4]
     bb4:	01040000 	mrseq	r0, (UNDEF: 4)
     bb8:	00000194 	muleq	r0, r4, r1
     bbc:	0002f901 	andeq	pc, r2, r1, lsl #18
     bc0:	0001ff00 	andeq	pc, r1, r0, lsl #30
     bc4:	00867400 	addeq	r7, r6, r0, lsl #8
     bc8:	00002800 	andeq	r2, r0, r0, lsl #16
     bcc:	00048200 	andeq	r8, r4, r0, lsl #4
     bd0:	05040200 	streq	r0, [r4, #-512]	; 0x200
     bd4:	00746e69 	rsbseq	r6, r4, r9, ror #28
     bd8:	df070403 	svcle	0x00070403
     bdc:	03000000 	movweq	r0, #0
     be0:	00990601 	addseq	r0, r9, r1, lsl #12
     be4:	02030000 	andeq	r0, r3, #0
     be8:	00015f05 	andeq	r5, r1, r5, lsl #30
     bec:	05040300 	streq	r0, [r4, #-768]	; 0x300
     bf0:	000000fa 	strdeq	r0, [r0], -sl
     bf4:	f5050803 			; <UNDEFINED> instruction: 0xf5050803
     bf8:	03000000 	movweq	r0, #0
     bfc:	00970801 	addseq	r0, r7, r1, lsl #16
     c00:	02030000 	andeq	r0, r3, #0
     c04:	0000b207 	andeq	fp, r0, r7, lsl #4
     c08:	07040300 	streq	r0, [r4, -r0, lsl #6]
     c0c:	000000da 	ldrdeq	r0, [r0], -sl
     c10:	d5070803 	strle	r0, [r7, #-2051]	; 0x803
     c14:	03000000 	movweq	r0, #0
     c18:	00ec0704 	rsceq	r0, ip, r4, lsl #14
     c1c:	01030000 	mrseq	r0, (UNDEF: 3)
     c20:	0000a008 	andeq	sl, r0, r8
     c24:	7f040400 	svcvc	0x00040400
     c28:	05000000 	streq	r0, [r0, #-0]
     c2c:	00000072 	andeq	r0, r0, r2, ror r0
     c30:	0000a506 	andeq	sl, r0, r6, lsl #10
     c34:	74040100 	strvc	r0, [r4], #-256	; 0x100
     c38:	28000086 	stmdacs	r0, {r1, r2, r7}
     c3c:	01000000 	mrseq	r0, (UNDEF: 0)
     c40:	0000ca9c 	muleq	r0, ip, sl
     c44:	86880700 	strhi	r0, [r8], r0, lsl #14
     c48:	00ac0000 	adceq	r0, ip, r0
     c4c:	01080000 	mrseq	r0, (UNDEF: 8)
     c50:	58030550 	stmdapl	r3, {r4, r6, r8, sl}
     c54:	00000098 	muleq	r0, r8, r0
     c58:	00869009 	addeq	r9, r6, r9
     c5c:	0000ea00 	andeq	lr, r0, r0, lsl #20
     c60:	0000c000 	andeq	ip, r0, r0
     c64:	50010800 	andpl	r0, r1, r0, lsl #16
     c68:	00640802 	rsbeq	r0, r4, r2, lsl #16
     c6c:	0086940a 	addeq	r9, r6, sl, lsl #8
     c70:	0000fb00 	andeq	pc, r0, r0, lsl #22
     c74:	250b0000 	strcs	r0, [fp, #-0]
     c78:	d9000000 	stmdble	r0, {}	; <UNPREDICTABLE>
     c7c:	0c000000 	stceq	0, cr0, [r0], {-0}
     c80:	00000079 	andeq	r0, r0, r9, ror r0
     c84:	02620d00 	rsbeq	r0, r2, #0, 26
     c88:	22020000 	andcs	r0, r2, #0
     c8c:	000000e4 	andeq	r0, r0, r4, ror #1
     c90:	00ca0404 	sbceq	r0, sl, r4, lsl #8
     c94:	130e0000 	movwne	r0, #57344	; 0xe000
     c98:	02000003 	andeq	r0, r0, #3
     c9c:	0000fb50 	andeq	pc, r0, r0, asr fp	; <UNPREDICTABLE>
     ca0:	002c0c00 	eoreq	r0, ip, r0, lsl #24
     ca4:	0f000000 	svceq	0x00000000
     ca8:	000002ee 	andeq	r0, r0, lr, ror #5
     cac:	dd006302 	stcle	3, cr6, [r0, #-8]
     cb0:	04000002 	streq	r0, [r0], #-2
     cb4:	0005ce00 	andeq	ip, r5, r0, lsl #28
     cb8:	94010400 	strls	r0, [r1], #-1024	; 0x400
     cbc:	01000001 	tsteq	r0, r1
     cc0:	000003fe 	strdeq	r0, [r0], -lr
     cc4:	000001ff 	strdeq	r0, [r0], -pc	; <UNPREDICTABLE>
     cc8:	0000869c 	muleq	r0, ip, r6
     ccc:	000000b0 	strheq	r0, [r0], -r0	; <UNPREDICTABLE>
     cd0:	00000519 	andeq	r0, r0, r9, lsl r5
     cd4:	69050402 	stmdbvs	r5, {r1, sl}
     cd8:	0300746e 	movweq	r7, #1134	; 0x46e
     cdc:	00df0704 	sbcseq	r0, pc, r4, lsl #14
     ce0:	01030000 	mrseq	r0, (UNDEF: 3)
     ce4:	00009906 	andeq	r9, r0, r6, lsl #18
     ce8:	05020300 	streq	r0, [r2, #-768]	; 0x300
     cec:	0000015f 	andeq	r0, r0, pc, asr r1
     cf0:	fa050403 	blx	141d04 <__bss_end__+0x137f44>
     cf4:	03000000 	movweq	r0, #0
     cf8:	00f50508 	rscseq	r0, r5, r8, lsl #10
     cfc:	c7040000 	strgt	r0, [r4, -r0]
     d00:	02000003 	andeq	r0, r0, #3
     d04:	00005a2e 	andeq	r5, r0, lr, lsr #20
     d08:	08010300 	stmdaeq	r1, {r8, r9}
     d0c:	00000097 	muleq	r0, r7, r0
     d10:	b2070203 	andlt	r0, r7, #805306368	; 0x30000000
     d14:	04000000 	streq	r0, [r0], #-0
     d18:	0000041e 	andeq	r0, r0, lr, lsl r4
     d1c:	00733402 	rsbseq	r3, r3, r2, lsl #8
     d20:	04030000 	streq	r0, [r3], #-0
     d24:	0000da07 	andeq	sp, r0, r7, lsl #20
     d28:	07080300 	streq	r0, [r8, -r0, lsl #6]
     d2c:	000000d5 	ldrdeq	r0, [r0], -r5
     d30:	ec070403 	cfstrs	mvf0, [r7], {3}
     d34:	03000000 	movweq	r0, #0
     d38:	00a00801 	adceq	r0, r0, r1, lsl #16
     d3c:	04050000 	streq	r0, [r5], #-0
     d40:	00000095 	muleq	r0, r5, r0
     d44:	00008806 	andeq	r8, r0, r6, lsl #16
     d48:	030c0700 	movweq	r0, #50944	; 0xc700
     d4c:	0000d10e 	andeq	sp, r0, lr, lsl #2
     d50:	78740800 	ldmdavc	r4!, {fp}^
     d54:	4f0f0300 	svcmi	0x000f0300
     d58:	00000000 	andeq	r0, r0, r0
     d5c:	00787208 	rsbseq	r7, r8, r8, lsl #4
     d60:	004f0f03 	subeq	r0, pc, r3, lsl #30
     d64:	09010000 	stmdbeq	r1, {}	; <UNPREDICTABLE>
     d68:	00000395 	muleq	r0, r5, r3
     d6c:	00681003 	rsbeq	r1, r8, r3
     d70:	09040000 	stmdbeq	r4, {}	; <UNPREDICTABLE>
     d74:	00000346 	andeq	r0, r0, r6, asr #6
     d78:	00681103 	rsbeq	r1, r8, r3, lsl #2
     d7c:	00080000 	andeq	r0, r8, r0
     d80:	00037e04 	andeq	r7, r3, r4, lsl #28
     d84:	9a120300 	bls	48198c <__bss_end__+0x477bcc>
     d88:	0a000000 	beq	d90 <_start-0x7270>
     d8c:	f7100401 			; <UNDEFINED> instruction: 0xf7100401
     d90:	0b000000 	bleq	d98 <_start-0x7268>
     d94:	0000039a 	muleq	r0, sl, r3
     d98:	03880b01 	orreq	r0, r8, #1024	; 0x400
     d9c:	0b020000 	bleq	80da4 <__bss_end__+0x76fe4>
     da0:	00000370 	andeq	r0, r0, r0, ror r3
     da4:	af040003 	svcge	0x00040003
     da8:	04000003 	streq	r0, [r0], #-3
     dac:	0000dc10 	andeq	sp, r0, r0, lsl ip
     db0:	04140700 	ldreq	r0, [r4], #-1792	; 0x700
     db4:	00012f14 	andeq	r2, r1, r4, lsl pc
     db8:	04270900 	strteq	r0, [r7], #-2304	; 0x900
     dbc:	15040000 	strne	r0, [r4, #-0]
     dc0:	0000002c 	andeq	r0, r0, ip, lsr #32
     dc4:	04120900 	ldreq	r0, [r2], #-2304	; 0x900
     dc8:	18040000 	stmdane	r4, {}	; <UNPREDICTABLE>
     dcc:	000000f7 	strdeq	r0, [r0], -r7
     dd0:	03dd0904 	bicseq	r0, sp, #4, 18	; 0x10000
     dd4:	1b040000 	blne	100ddc <__bss_end__+0xf701c>
     dd8:	000000d1 	ldrdeq	r0, [r0], -r1
     ddc:	cf040008 	svcgt	0x00040008
     de0:	04000003 	streq	r0, [r0], #-3
     de4:	00010220 	andeq	r0, r1, r0, lsr #4
     de8:	031c0c00 	tsteq	ip, #0, 24
     dec:	06010000 	streq	r0, [r1], -r0
     df0:	00000025 	andeq	r0, r0, r5, lsr #32
     df4:	0000869c 	muleq	r0, ip, r6
     df8:	00000020 	andeq	r0, r0, r0, lsr #32
     dfc:	017a9c01 	cmneq	sl, r1, lsl #24
     e00:	630d0000 	movwvs	r0, #53248	; 0xd000
     e04:	25060100 	strcs	r0, [r6, #-256]	; 0x100
     e08:	e0000000 	and	r0, r0, r0
     e0c:	0e000007 	cdpeq	0, 0, cr0, cr0, cr7, {0}
     e10:	000086b0 			; <UNDEFINED> instruction: 0x000086b0
     e14:	0000027a 	andeq	r0, r0, sl, ror r2
     e18:	0251010f 	subseq	r0, r1, #-1073741821	; 0xc0000003
     e1c:	010f0074 	tsteq	pc, r4, ror r0	; <UNPREDICTABLE>
     e20:	b4030550 	strlt	r0, [r3], #-1360	; 0x550
     e24:	0000009d 	muleq	r0, sp, r0
     e28:	03a71000 			; <UNDEFINED> instruction: 0x03a71000
     e2c:	0b010000 	bleq	40e34 <__bss_end__+0x37074>
     e30:	000086bc 			; <UNDEFINED> instruction: 0x000086bc
     e34:	00000090 	muleq	r0, r0, r0
     e38:	02279c01 	eoreq	r9, r7, #256	; 0x100
     e3c:	30110000 	andscc	r0, r1, r0
     e40:	01000003 	tsteq	r0, r3
     e44:	0000250c 	andeq	r2, r0, ip, lsl #10
     e48:	03f21100 	mvnseq	r1, #0, 2
     e4c:	0c010000 	stceq	0, cr0, [r1], {-0}
     e50:	00000025 	andeq	r0, r0, r5, lsr #32
     e54:	00008f12 	andeq	r8, r0, r2, lsl pc
     e58:	130d0100 	movwne	r0, #53504	; 0xd100
     e5c:	00737362 	rsbseq	r7, r3, r2, ror #6
     e60:	02270f01 	eoreq	r0, r7, #1, 30
     e64:	07fe0000 	ldrbeq	r0, [lr, r0]!
     e68:	3e140000 	cdpcc	0, 1, cr0, cr4, cr0, {0}
     e6c:	01000003 	tsteq	r0, r3
     e70:	00022710 	andeq	r2, r2, r0, lsl r7
     e74:	62631300 	rsbvs	r1, r3, #0, 6
     e78:	2d170100 	ldfcss	f0, [r7, #-0]
     e7c:	1e000002 	cdpne	0, 0, cr0, cr0, cr2, {0}
     e80:	15000008 	strne	r0, [r0, #-8]
     e84:	000086e4 	andeq	r8, r0, r4, ror #13
     e88:	00000296 	muleq	r0, r6, r2
     e8c:	00872016 	addeq	r2, r7, r6, lsl r0
     e90:	0002a100 	andeq	sl, r2, r0, lsl #2
     e94:	0001fd00 	andeq	pc, r1, r0, lsl #26
     e98:	51010f00 	tstpl	r1, r0, lsl #30
     e9c:	98640305 	stmdals	r4!, {r0, r2, r8, r9}^
     ea0:	010f0000 	mrseq	r0, CPSR
     ea4:	b4030550 	strlt	r0, [r3], #-1360	; 0x550
     ea8:	0000009d 	muleq	r0, sp, r0
     eac:	00872816 	addeq	r2, r7, r6, lsl r8
     eb0:	0002bc00 	andeq	fp, r2, r0, lsl #24
     eb4:	00021400 	andeq	r1, r2, r0, lsl #8
     eb8:	50010f00 	andpl	r0, r1, r0, lsl #30
     ebc:	98880305 	stmls	r8, {r0, r2, r8, r9}
     ec0:	15000000 	strne	r0, [r0, #-0]
     ec4:	0000872c 	andeq	r8, r0, ip, lsr #14
     ec8:	000002d2 	ldrdeq	r0, [r0], -r2
     ecc:	00873015 	addeq	r3, r7, r5, lsl r0
     ed0:	0002d900 	andeq	sp, r2, r0, lsl #18
     ed4:	04050000 	streq	r0, [r5], #-0
     ed8:	00000025 	andeq	r0, r0, r5, lsr #32
     edc:	012f0405 	teqeq	pc, r5, lsl #8
     ee0:	54170000 	ldrpl	r0, [r7], #-0
     ee4:	01000003 	tsteq	r0, r3
     ee8:	0000d105 	andeq	sp, r0, r5, lsl #2
     eec:	b4030500 	strlt	r0, [r3], #-1280	; 0x500
     ef0:	1800009d 	stmdane	r0, {r0, r2, r3, r4, r7}
     ef4:	00000025 	andeq	r0, r0, r5, lsr #32
     ef8:	00000253 	andeq	r0, r0, r3, asr r2
     efc:	00002519 	andeq	r2, r0, r9, lsl r5
     f00:	67110000 	ldrvs	r0, [r1, -r0]
     f04:	05000002 	streq	r0, [r0, #-2]
     f08:	00025e1d 	andeq	r5, r2, sp, lsl lr
     f0c:	44040500 	strmi	r0, [r4], #-1280	; 0x500
     f10:	11000002 	tstne	r0, r2
     f14:	00000330 	andeq	r0, r0, r0, lsr r3
     f18:	00250c01 	eoreq	r0, r5, r1, lsl #24
     f1c:	f2110000 	vhadd.s16	d0, d1, d0
     f20:	01000003 	tsteq	r0, r3
     f24:	0000250c 	andeq	r2, r0, ip, lsl #10
     f28:	03ba1a00 			; <UNDEFINED> instruction: 0x03ba1a00
     f2c:	44030000 	strmi	r0, [r3], #-0
     f30:	00000290 	muleq	r0, r0, r2
     f34:	00029019 	andeq	r9, r2, r9, lsl r0
     f38:	005a1900 	subseq	r1, sl, r0, lsl #18
     f3c:	05000000 	streq	r0, [r0, #-0]
     f40:	0000d104 	andeq	sp, r0, r4, lsl #2
     f44:	03e51b00 	mvneq	r1, #0, 22
     f48:	2a040000 	bcs	100f50 <__bss_end__+0xf7190>
     f4c:	0000022d 	andeq	r0, r0, sp, lsr #4
     f50:	0003611c 	andeq	r6, r3, ip, lsl r1
     f54:	25150300 	ldrcs	r0, [r5, #-768]	; 0x300
     f58:	bc000000 	stclt	0, cr0, [r0], {-0}
     f5c:	19000002 	stmdbne	r0, {r1}
     f60:	00000290 	muleq	r0, r0, r2
     f64:	00008f19 	andeq	r8, r0, r9, lsl pc
     f68:	1c001d00 	stcne	13, cr1, [r0], {-0}
     f6c:	000001ee 	andeq	r0, r0, lr, ror #3
     f70:	00252905 	eoreq	r2, r5, r5, lsl #18
     f74:	02d20000 	sbcseq	r0, r2, #0
     f78:	8f190000 	svchi	0x00190000
     f7c:	1d000000 	stcne	0, cr0, [r0, #-0]
     f80:	008f1200 	addeq	r1, pc, r0, lsl #4
     f84:	d1050000 	mrsle	r0, (UNDEF: 5)
     f88:	0002ee12 	andeq	lr, r2, r2, lsl lr
     f8c:	00630500 	rsbeq	r0, r3, r0, lsl #10
     f90:	000001ad 	andeq	r0, r0, sp, lsr #3
     f94:	07650004 	strbeq	r0, [r5, -r4]!
     f98:	01040000 	mrseq	r0, (UNDEF: 4)
     f9c:	00000194 	muleq	r0, r4, r1
     fa0:	00044701 	andeq	r4, r4, r1, lsl #14
     fa4:	0001ff00 	andeq	pc, r1, r0, lsl #30
     fa8:	00003000 	andeq	r3, r0, r0
     fac:	00000000 	andeq	r0, r0, r0
     fb0:	00063e00 	andeq	r3, r6, r0, lsl #28
     fb4:	05040200 	streq	r0, [r4, #-512]	; 0x200
     fb8:	00746e69 	rsbseq	r6, r4, r9, ror #28
     fbc:	df070403 	svcle	0x00070403
     fc0:	03000000 	movweq	r0, #0
     fc4:	00990601 	addseq	r0, r9, r1, lsl #12
     fc8:	02030000 	andeq	r0, r3, #0
     fcc:	00015f05 	andeq	r5, r1, r5, lsl #30
     fd0:	05040300 	streq	r0, [r4, #-768]	; 0x300
     fd4:	000000fa 	strdeq	r0, [r0], -sl
     fd8:	f5050803 			; <UNDEFINED> instruction: 0xf5050803
     fdc:	03000000 	movweq	r0, #0
     fe0:	00970801 	addseq	r0, r7, r1, lsl #16
     fe4:	02030000 	andeq	r0, r3, #0
     fe8:	0000b207 	andeq	fp, r0, r7, lsl #4
     fec:	07040300 	streq	r0, [r4, -r0, lsl #6]
     ff0:	000000da 	ldrdeq	r0, [r0], -sl
     ff4:	d5070803 	strle	r0, [r7, #-2051]	; 0x803
     ff8:	03000000 	movweq	r0, #0
     ffc:	00ec0704 	rsceq	r0, ip, r4, lsl #14
    1000:	01030000 	mrseq	r0, (UNDEF: 3)
    1004:	0000a008 	andeq	sl, r0, r8
    1008:	042d0400 	strteq	r0, [sp], #-1024	; 0x400
    100c:	0e010000 	cdpeq	0, 0, cr0, cr1, cr0, {0}
    1010:	00000025 	andeq	r0, r0, r5, lsr #32
    1014:	0000874c 	andeq	r8, r0, ip, asr #14
    1018:	00000018 	andeq	r0, r0, r8, lsl r0
    101c:	00a29c01 	adceq	r9, r2, r1, lsl #24
    1020:	99050000 	stmdbls	r5, {}	; <UNPREDICTABLE>
    1024:	01000004 	tsteq	r0, r4
    1028:	00002c0f 	andeq	r2, r0, pc, lsl #24
    102c:	00083e00 	andeq	r3, r8, r0, lsl #28
    1030:	7c060000 	stcvc	0, cr0, [r6], {-0}
    1034:	01000004 	tsteq	r0, r4
    1038:	00876417 	addeq	r6, r7, r7, lsl r4
    103c:	00001400 	andeq	r1, r0, r0, lsl #8
    1040:	c79c0100 	ldrgt	r0, [ip, r0, lsl #2]
    1044:	05000000 	streq	r0, [r0, #-0]
    1048:	00000499 	muleq	r0, r9, r4
    104c:	002c1801 	eoreq	r1, ip, r1, lsl #16
    1050:	085d0000 	ldmdaeq	sp, {}^	; <UNPREDICTABLE>
    1054:	06000000 	streq	r0, [r0], -r0
    1058:	000002ee 	andeq	r0, r0, lr, ror #5
    105c:	87781f01 	ldrbhi	r1, [r8, -r1, lsl #30]!
    1060:	00480000 	subeq	r0, r8, r0
    1064:	9c010000 	stcls	0, cr0, [r1], {-0}
    1068:	00000177 	andeq	r0, r0, r7, ror r1
    106c:	00049107 	andeq	r9, r4, r7, lsl #2
    1070:	772a0100 	strvc	r0, [sl, -r0, lsl #2]!
    1074:	1c000001 	stcne	0, cr0, [r0], {1}
    1078:	07201000 	streq	r1, [r0, -r0]!
    107c:	00000474 	andeq	r0, r0, r4, ror r4
    1080:	01772b01 	cmneq	r7, r1, lsl #22
    1084:	00240000 	eoreq	r0, r4, r0
    1088:	3b072010 	blcc	1c90d0 <__bss_end__+0x1bf310>
    108c:	01000004 	tsteq	r0, r4
    1090:	0001772c 	andeq	r7, r1, ip, lsr #14
    1094:	00000000 	andeq	r0, r0, r0
    1098:	045b085a 	ldrbeq	r0, [fp], #-2138	; 0x85a
    109c:	2d010000 	stccs	0, cr0, [r1, #-0]
    10a0:	00000177 	andeq	r0, r0, r7, ror r1
    10a4:	87800920 	strhi	r0, [r0, r0, lsr #18]
    10a8:	00790000 	rsbseq	r0, r9, r0
    10ac:	8c090000 	stchi	0, cr0, [r9], {-0}
    10b0:	a2000087 	andge	r0, r0, #135	; 0x87
    10b4:	0a000000 	beq	10bc <_start-0x6f44>
    10b8:	00008794 	muleq	r0, r4, r7
    10bc:	0000018d 	andeq	r0, r0, sp, lsl #3
    10c0:	0000013a 	andeq	r0, r0, sl, lsr r1
    10c4:	0150010b 	cmpeq	r0, fp, lsl #2
    10c8:	a00a004e 	andge	r0, sl, lr, asr #32
    10cc:	9e000087 	cdpls	0, 0, cr0, cr0, cr7, {4}
    10d0:	5a000001 	bpl	10dc <_start-0x6f24>
    10d4:	0b000001 	bleq	10e0 <_start-0x6f20>
    10d8:	0c055101 	stfeqs	f5, [r5], {1}
    10dc:	5a000001 	bpl	10e8 <_start-0x6f18>
    10e0:	0550010b 	ldrbeq	r0, [r0, #-267]	; 0x10b
    10e4:	1000240c 	andne	r2, r0, ip, lsl #8
    10e8:	ac0c0020 	stcge	0, cr0, [ip], {32}
    10ec:	9e000087 	cdpls	0, 0, cr0, cr0, cr7, {4}
    10f0:	0b000001 	bleq	10fc <_start-0x6f04>
    10f4:	0c055101 	stfeqs	f5, [r5], {1}
    10f8:	5a000020 	bpl	1180 <_start-0x6e80>
    10fc:	0550010b 	ldrbeq	r0, [r0, #-267]	; 0x10b
    1100:	10001c0c 	andne	r1, r0, ip, lsl #24
    1104:	0d000020 	stceq	0, cr0, [r0, #-128]	; 0xffffff80
    1108:	00000025 	andeq	r0, r0, r5, lsr #32
    110c:	00043008 	andeq	r3, r4, r8
    1110:	880d0100 	stmdahi	sp, {r8}
    1114:	10000001 	andne	r0, r0, r1
    1118:	00002c0d 	andeq	r2, r0, sp, lsl #24
    111c:	03130e00 	tsteq	r3, #0, 28
    1120:	50020000 	andpl	r0, r2, r0
    1124:	0000019e 	muleq	r0, lr, r1
    1128:	00002c0f 	andeq	r2, r0, pc, lsl #24
    112c:	8b100000 	blhi	401134 <__bss_end__+0x3f7374>
    1130:	02000004 	andeq	r0, r0, #4
    1134:	002c0f9c 	mlaeq	ip, ip, pc, r0	; <UNPREDICTABLE>
    1138:	2c0f0000 	stccs	0, cr0, [pc], {-0}
    113c:	00000000 	andeq	r0, r0, r0
    1140:	0001d800 	andeq	sp, r1, r0, lsl #16
    1144:	53000400 	movwpl	r0, #1024	; 0x400
    1148:	04000008 	streq	r0, [r0], #-8
    114c:	00019401 	andeq	r9, r1, r1, lsl #8
    1150:	04bb0100 	ldrteq	r0, [fp], #256	; 0x100
    1154:	01ff0000 	mvnseq	r0, r0
    1158:	87c00000 	strbhi	r0, [r0, r0]
    115c:	00880000 	addeq	r0, r8, r0
    1160:	06db0000 	ldrbeq	r0, [fp], r0
    1164:	04020000 	streq	r0, [r2], #-0
    1168:	746e6905 	strbtvc	r6, [lr], #-2309	; 0x905
    116c:	07040300 	streq	r0, [r4, -r0, lsl #6]
    1170:	000000df 	ldrdeq	r0, [r0], -pc	; <UNPREDICTABLE>
    1174:	99060103 	stmdbls	r6, {r0, r1, r8}
    1178:	03000000 	movweq	r0, #0
    117c:	015f0502 	cmpeq	pc, r2, lsl #10
    1180:	04030000 	streq	r0, [r3], #-0
    1184:	0000fa05 	andeq	pc, r0, r5, lsl #20
    1188:	05080300 	streq	r0, [r8, #-768]	; 0x300
    118c:	000000f5 	strdeq	r0, [r0], -r5
    1190:	97080103 	strls	r0, [r8, -r3, lsl #2]
    1194:	03000000 	movweq	r0, #0
    1198:	00b20702 	adcseq	r0, r2, r2, lsl #14
    119c:	04030000 	streq	r0, [r3], #-0
    11a0:	0000da07 	andeq	sp, r0, r7, lsl #20
    11a4:	07080300 	streq	r0, [r8, -r0, lsl #6]
    11a8:	000000d5 	ldrdeq	r0, [r0], -r5
    11ac:	ec070403 	cfstrs	mvf0, [r7], {3}
    11b0:	03000000 	movweq	r0, #0
    11b4:	00a00801 	adceq	r0, r0, r1, lsl #16
    11b8:	da040000 	ble	1011c0 <__bss_end__+0xf7400>
    11bc:	01000004 	tsteq	r0, r4
    11c0:	0087c005 	addeq	ip, r7, r5
    11c4:	00001c00 	andeq	r1, r0, r0, lsl #24
    11c8:	9e9c0100 	fmllse	f0, f4, f0
    11cc:	05000000 	streq	r0, [r0, #-0]
    11d0:	000004d4 	ldrdeq	r0, [r0], -r4
    11d4:	002c0501 	eoreq	r0, ip, r1, lsl #10
    11d8:	08870000 	stmeq	r7, {}	; <UNPREDICTABLE>
    11dc:	06000000 	streq	r0, [r0], -r0
    11e0:	0000049e 	muleq	r0, lr, r4
    11e4:	002c0b01 	eoreq	r0, ip, r1, lsl #22
    11e8:	87dc0000 	ldrbhi	r0, [ip, r0]
    11ec:	00140000 	andseq	r0, r4, r0
    11f0:	9c010000 	stcls	0, cr0, [r1], {-0}
    11f4:	000000cb 	andeq	r0, r0, fp, asr #1
    11f8:	0087e807 	addeq	lr, r7, r7, lsl #16
    11fc:	0001ca00 	andeq	ip, r1, r0, lsl #20
    1200:	50010800 	andpl	r0, r1, r0, lsl #16
    1204:	30040c05 	andcc	r0, r4, r5, lsl #24
    1208:	00002000 	andeq	r2, r0, r0
    120c:	0004f006 	andeq	pc, r4, r6
    1210:	2c100100 	ldfcss	f0, [r0], {-0}
    1214:	f0000000 			; <UNDEFINED> instruction: 0xf0000000
    1218:	0c000087 	stceq	0, cr0, [r0], {135}	; 0x87
    121c:	01000000 	mrseq	r0, (UNDEF: 0)
    1220:	0000f99c 	muleq	r0, ip, r9
    1224:	00750900 	rsbseq	r0, r5, r0, lsl #18
    1228:	002c1401 	eoreq	r1, ip, r1, lsl #8
    122c:	50010000 	andpl	r0, r1, r0
    1230:	0087f80a 	addeq	pc, r7, sl, lsl #16
    1234:	00009e00 	andeq	r9, r0, r0, lsl #28
    1238:	e7040000 	str	r0, [r4, -r0]
    123c:	01000004 	tsteq	r0, r4
    1240:	0087fc19 	addeq	pc, r7, r9, lsl ip	; <UNPREDICTABLE>
    1244:	00002400 	andeq	r2, r0, r0, lsl #8
    1248:	579c0100 	ldrpl	r0, [ip, r0, lsl #2]
    124c:	0b000001 	bleq	1258 <_start-0x6da8>
    1250:	01007375 	tsteq	r0, r5, ror r3
    1254:	00002c19 	andeq	r2, r0, r9, lsl ip
    1258:	0008bb00 	andeq	fp, r8, r0, lsl #22
    125c:	62720900 	rsbsvs	r0, r2, #0, 18
    1260:	2c1a0100 	ldfcss	f0, [sl], {-0}
    1264:	01000000 	mrseq	r0, (UNDEF: 0)
    1268:	880c0c54 	stmdahi	ip, {r2, r4, r6, sl, fp}
    126c:	00100000 	andseq	r0, r0, r0
    1270:	014d0000 	mrseq	r0, (UNDEF: 77)
    1274:	720d0000 	andvc	r0, sp, #0
    1278:	1c010061 	stcne	0, cr0, [r1], {97}	; 0x61
    127c:	0000002c 	andeq	r0, r0, ip, lsr #32
    1280:	000008d9 	ldrdeq	r0, [r0], -r9
    1284:	0088100a 	addeq	r1, r8, sl
    1288:	0000cb00 	andeq	ip, r0, r0, lsl #22
    128c:	080a0000 	stmdaeq	sl, {}	; <UNPREDICTABLE>
    1290:	cb000088 	blgt	14b8 <_start-0x6b48>
    1294:	00000000 	andeq	r0, r0, r0
    1298:	00031304 	andeq	r1, r3, r4, lsl #6
    129c:	20220100 	eorcs	r0, r2, r0, lsl #2
    12a0:	14000088 	strne	r0, [r0], #-136	; 0x88
    12a4:	01000000 	mrseq	r0, (UNDEF: 0)
    12a8:	0001909c 	muleq	r1, ip, r0
    12ac:	736d0b00 	cmnvc	sp, #0, 22
    12b0:	2c220100 	stfcss	f0, [r2], #-0
    12b4:	ec000000 	stc	0, cr0, [r0], {-0}
    12b8:	07000008 	streq	r0, [r0, -r8]
    12bc:	00008830 	andeq	r8, r0, r0, lsr r8
    12c0:	000000f9 	strdeq	r0, [r0], -r9
    12c4:	07500108 	ldrbeq	r0, [r0, -r8, lsl #2]
    12c8:	0a5001f3 	beq	1401a9c <__bss_end__+0x13f7cdc>
    12cc:	001e03e8 	andseq	r0, lr, r8, ror #7
    12d0:	04b10400 	ldrteq	r0, [r1], #1024	; 0x400
    12d4:	25010000 	strcs	r0, [r1, #-0]
    12d8:	00008834 	andeq	r8, r0, r4, lsr r8
    12dc:	00000014 	andeq	r0, r0, r4, lsl r0
    12e0:	01ca9c01 	biceq	r9, sl, r1, lsl #24
    12e4:	730b0000 	movwvc	r0, #45056	; 0xb000
    12e8:	01006365 	tsteq	r0, r5, ror #6
    12ec:	00002c25 	andeq	r2, r0, r5, lsr #24
    12f0:	00090d00 	andeq	r0, r9, r0, lsl #26
    12f4:	88440700 	stmdahi	r4, {r8, r9, sl}^
    12f8:	01570000 	cmpeq	r7, r0
    12fc:	01080000 	mrseq	r0, (UNDEF: 8)
    1300:	01f30750 	mvnseq	r0, r0, asr r7
    1304:	03e80a50 	mvneq	r0, #80, 20	; 0x50000
    1308:	0e00001e 	mcreq	0, 0, r0, cr0, cr14, {0}
    130c:	000004ce 	andeq	r0, r0, lr, asr #9
    1310:	002ca802 	eoreq	sl, ip, r2, lsl #16
    1314:	2c0f0000 	stccs	0, cr0, [pc], {-0}
    1318:	00000000 	andeq	r0, r0, r0
    131c:	00088200 	andeq	r8, r8, r0, lsl #4
    1320:	36000400 	strcc	r0, [r0], -r0, lsl #8
    1324:	04000009 	streq	r0, [r0], #-9
    1328:	00019401 	andeq	r9, r1, r1, lsl #8
    132c:	055f0100 	ldrbeq	r0, [pc, #-256]	; 1234 <_start-0x6dcc>
    1330:	01ff0000 	mvnseq	r0, r0
    1334:	88480000 	stmdahi	r8, {}^	; <UNPREDICTABLE>
    1338:	05a00000 	streq	r0, [r0, #0]!
    133c:	07820000 	streq	r0, [r2, r0]
    1340:	08020000 	stmdaeq	r2, {}	; <UNPREDICTABLE>
    1344:	0000d507 	andeq	sp, r0, r7, lsl #10
    1348:	07040200 	streq	r0, [r4, -r0, lsl #4]
    134c:	000000df 	ldrdeq	r0, [r0], -pc	; <UNPREDICTABLE>
    1350:	99060102 	stmdbls	r6, {r1, r8}
    1354:	02000000 	andeq	r0, r0, #0
    1358:	015f0502 	cmpeq	pc, r2, lsl #10
    135c:	04020000 	streq	r0, [r2], #-0
    1360:	0000fa05 	andeq	pc, r0, r5, lsl #20
    1364:	05080200 	streq	r0, [r8, #-512]	; 0x200
    1368:	000000f5 	strdeq	r0, [r0], -r5
    136c:	97080102 	strls	r0, [r8, -r2, lsl #2]
    1370:	02000000 	andeq	r0, r0, #0
    1374:	00b20702 	adcseq	r0, r2, r2, lsl #14
    1378:	04020000 	streq	r0, [r2], #-0
    137c:	0000da07 	andeq	sp, r0, r7, lsl #20
    1380:	05040300 	streq	r0, [r4, #-768]	; 0x300
    1384:	00746e69 	rsbseq	r6, r4, r9, ror #28
    1388:	ec070402 	cfstrs	mvf0, [r7], {2}
    138c:	02000000 	andeq	r0, r0, #0
    1390:	00a00801 	adceq	r0, r0, r1, lsl #16
    1394:	01040000 	mrseq	r0, (UNDEF: 4)
    1398:	00b20c02 	adcseq	r0, r2, r2, lsl #24
    139c:	42050000 	andmi	r0, r5, #0
    13a0:	00000005 	andeq	r0, r0, r5
    13a4:	0006b005 	andeq	fp, r6, r5
    13a8:	e9050100 	stmdb	r5, {r8}
    13ac:	04000006 	streq	r0, [r0], #-6
    13b0:	0006f805 	andeq	pc, r6, r5, lsl #16
    13b4:	07050500 	streq	r0, [r5, -r0, lsl #10]
    13b8:	06000007 	streq	r0, [r0], -r7
    13bc:	00071605 	andeq	r1, r7, r5, lsl #12
    13c0:	25050700 	strcs	r0, [r5, #-1792]	; 0x700
    13c4:	03000007 	movweq	r0, #7
    13c8:	00073405 	andeq	r3, r7, r5, lsl #8
    13cc:	06000200 	streq	r0, [r0], -r0, lsl #4
    13d0:	000006dd 	ldrdeq	r0, [r0], -sp
    13d4:	00791502 	rsbseq	r1, r9, r2, lsl #10
    13d8:	c5070000 	strgt	r0, [r7, #-0]
    13dc:	01000000 	mrseq	r0, (UNDEF: 0)
    13e0:	0088483f 	addeq	r4, r8, pc, lsr r8
    13e4:	0000d400 	andeq	sp, r0, r0, lsl #8
    13e8:	339c0100 	orrscc	r0, ip, #0, 2
    13ec:	08000001 	stmdaeq	r0, {r0}
    13f0:	006e6970 	rsbeq	r6, lr, r0, ror r9
    13f4:	002c3f01 	eoreq	r3, ip, r1, lsl #30
    13f8:	092e0000 	stmdbeq	lr!, {}	; <UNPREDICTABLE>
    13fc:	9b090000 	blls	241404 <__bss_end__+0x237644>
    1400:	01000005 	tsteq	r0, r5
    1404:	00013347 	andeq	r3, r1, r7, asr #6
    1408:	00094c00 	andeq	r4, r9, r0, lsl #24
    140c:	07430900 	strbeq	r0, [r3, -r0, lsl #18]
    1410:	49010000 	stmdbmi	r1, {}	; <UNPREDICTABLE>
    1414:	0000002c 	andeq	r0, r0, ip, lsr #32
    1418:	000009a1 	andeq	r0, r0, r1, lsr #19
    141c:	00065609 	andeq	r5, r6, r9, lsl #12
    1420:	2c570100 	ldfcse	f0, [r7], {-0}
    1424:	6d000000 	stcvs	0, cr0, [r0, #-0]
    1428:	0a00000b 	beq	145c <_start-0x6ba4>
    142c:	000088dc 	ldrdeq	r8, [r0], -ip
    1430:	00000841 	andeq	r0, r0, r1, asr #16
    1434:	00000122 	andeq	r0, r0, r2, lsr #2
    1438:	0250010b 	subseq	r0, r0, #-1073741822	; 0xc0000002
    143c:	0c000075 	stceq	0, cr0, [r0], {117}	; 0x75
    1440:	00008910 	andeq	r8, r0, r0, lsl r9
    1444:	00000862 	andeq	r0, r0, r2, ror #16
    1448:	0250010b 	subseq	r0, r0, #-1073741822	; 0xc0000002
    144c:	00000075 	andeq	r0, r0, r5, ror r0
    1450:	0139040d 	teqeq	r9, sp, lsl #8
    1454:	2c0e0000 	stccs	0, cr0, [lr], {-0}
    1458:	07000000 	streq	r0, [r0, -r0]
    145c:	00000696 	muleq	r0, r6, r6
    1460:	891c6001 	ldmdbhi	ip, {r0, sp, lr}
    1464:	00380000 	eorseq	r0, r8, r0
    1468:	9c010000 	stcls	0, cr0, [r1], {-0}
    146c:	00000196 	muleq	r0, r6, r1
    1470:	6e697008 	cdpvs	0, 6, cr7, cr9, cr8, {0}
    1474:	2c600100 	stfcse	f0, [r0], #-0
    1478:	9d000000 	stcls	0, cr0, [r0, #-0]
    147c:	0900000b 	stmdbeq	r0, {r0, r1, r3}
    1480:	0000059b 	muleq	r0, fp, r5
    1484:	01336701 	teqeq	r3, r1, lsl #14
    1488:	0bbe0000 	bleq	fef81490 <__bss_end__+0xfef776d0>
    148c:	56090000 	strpl	r0, [r9], -r0
    1490:	01000006 	tsteq	r0, r6
    1494:	00002c68 	andeq	r2, r0, r8, ror #24
    1498:	000bf400 	andeq	pc, fp, r0, lsl #8
    149c:	894c0c00 	stmdbhi	ip, {sl, fp}^
    14a0:	08620000 	stmdaeq	r2!, {}^	; <UNPREDICTABLE>
    14a4:	010b0000 	mrseq	r0, (UNDEF: 11)
    14a8:	f3310751 	vaba.u<illegal width 64>	q0, <illegal reg q0.5>, <illegal reg q0.5>
    14ac:	1a4f5001 	bne	13d54b8 <__bss_end__+0x13cb6f8>
    14b0:	07000024 	streq	r0, [r0, -r4, lsr #32]
    14b4:	00000552 	andeq	r0, r0, r2, asr r5
    14b8:	89547b01 	ldmdbhi	r4, {r0, r8, r9, fp, ip, sp, lr}^
    14bc:	00380000 	eorseq	r0, r8, r0
    14c0:	9c010000 	stcls	0, cr0, [r1], {-0}
    14c4:	000001ee 	andeq	r0, r0, lr, ror #3
    14c8:	6e697008 	cdpvs	0, 6, cr7, cr9, cr8, {0}
    14cc:	2c7b0100 	ldfcse	f0, [fp], #-0
    14d0:	34000000 	strcc	r0, [r0], #-0
    14d4:	0900000c 	stmdbeq	r0, {r2, r3}
    14d8:	0000059b 	muleq	r0, fp, r5
    14dc:	01338101 	teqeq	r3, r1, lsl #2
    14e0:	0c550000 	mraeq	r0, r5, acc0
    14e4:	56090000 	strpl	r0, [r9], -r0
    14e8:	01000006 	tsteq	r0, r6
    14ec:	00002c82 	andeq	r2, r0, r2, lsl #25
    14f0:	000c8b00 	andeq	r8, ip, r0, lsl #22
    14f4:	89840c00 	stmibhi	r4, {sl, fp}
    14f8:	08620000 	stmdaeq	r2!, {}^	; <UNPREDICTABLE>
    14fc:	010b0000 	mrseq	r0, (UNDEF: 11)
    1500:	f3310751 	vaba.u<illegal width 64>	q0, <illegal reg q0.5>, <illegal reg q0.5>
    1504:	1a4f5001 	bne	13d5510 <__bss_end__+0x13cb750>
    1508:	07000024 	streq	r0, [r0, -r4, lsr #32]
    150c:	0000066d 	andeq	r0, r0, sp, ror #12
    1510:	898c9501 	stmibhi	ip, {r0, r8, sl, ip, pc}
    1514:	00cc0000 	sbceq	r0, ip, r0
    1518:	9c010000 	stcls	0, cr0, [r1], {-0}
    151c:	00000264 	andeq	r0, r0, r4, ror #4
    1520:	6e697008 	cdpvs	0, 6, cr7, cr9, cr8, {0}
    1524:	2c950100 	ldfcss	f0, [r5], {0}
    1528:	cb000000 	blgt	1530 <_start-0x6ad0>
    152c:	0900000c 	stmdbeq	r0, {r2, r3}
    1530:	0000059b 	muleq	r0, fp, r5
    1534:	01339b01 	teqeq	r3, r1, lsl #22
    1538:	0ce90000 	stcleq	0, cr0, [r9]
    153c:	43090000 	movwmi	r0, #36864	; 0x9000
    1540:	01000007 	tsteq	r0, r7
    1544:	00002c9d 	muleq	r0, sp, ip
    1548:	000d3e00 	andeq	r3, sp, r0, lsl #28
    154c:	06560900 	ldrbeq	r0, [r6], -r0, lsl #18
    1550:	ab010000 	blge	41558 <__bss_end__+0x37798>
    1554:	0000002c 	andeq	r0, r0, ip, lsr #32
    1558:	00000f0a 	andeq	r0, r0, sl, lsl #30
    155c:	008a200a 	addeq	r2, sl, sl
    1560:	00084100 	andeq	r4, r8, r0, lsl #2
    1564:	00025300 	andeq	r5, r2, r0, lsl #6
    1568:	50010b00 	andpl	r0, r1, r0, lsl #22
    156c:	00007502 	andeq	r7, r0, r2, lsl #10
    1570:	008a4c0c 	addeq	r4, sl, ip, lsl #24
    1574:	00086200 	andeq	r6, r8, r0, lsl #4
    1578:	50010b00 	andpl	r0, r1, r0, lsl #22
    157c:	00007502 	andeq	r7, r0, r2, lsl #10
    1580:	05ea0f00 	strbeq	r0, [sl, #3840]!	; 0xf00
    1584:	b3010000 	movwlt	r0, #4096	; 0x1000
    1588:	00000064 	andeq	r0, r0, r4, rrx
    158c:	00008a58 	andeq	r8, r0, r8, asr sl
    1590:	0000004c 	andeq	r0, r0, ip, asr #32
    1594:	02ac9c01 	adceq	r9, ip, #256	; 0x100
    1598:	70080000 	andvc	r0, r8, r0
    159c:	01006e69 	tsteq	r0, r9, ror #28
    15a0:	00002cb3 			; <UNDEFINED> instruction: 0x00002cb3
    15a4:	000f2800 	andeq	r2, pc, r0, lsl #16
    15a8:	00761000 	rsbseq	r1, r6, r0
    15ac:	002cb901 	eoreq	fp, ip, r1, lsl #18
    15b0:	0f800000 	svceq	0x00800000
    15b4:	78110000 	ldmdavc	r1, {}	; <UNPREDICTABLE>
    15b8:	4100008a 	smlabbmi	r0, sl, r0, r0
    15bc:	11000008 	tstne	r0, r8
    15c0:	00008a88 	andeq	r8, r0, r8, lsl #21
    15c4:	00000841 	andeq	r0, r0, r1, asr #16
    15c8:	000b0700 	andeq	r0, fp, r0, lsl #14
    15cc:	c5010000 	strgt	r0, [r1, #-0]
    15d0:	00008aa4 	andeq	r8, r0, r4, lsr #21
    15d4:	00000024 	andeq	r0, r0, r4, lsr #32
    15d8:	02fc9c01 	rscseq	r9, ip, #256	; 0x100
    15dc:	70080000 	andvc	r0, r8, r0
    15e0:	01006e69 	tsteq	r0, r9, ror #28
    15e4:	00002cc5 	andeq	r2, r0, r5, asr #25
    15e8:	000fb600 	andeq	fp, pc, r0, lsl #12
    15ec:	00760800 	rsbseq	r0, r6, r0, lsl #16
    15f0:	002cc501 	eoreq	ip, ip, r1, lsl #10
    15f4:	0ff00000 	svceq	0x00f00000	; IMB
    15f8:	bc0a0000 	stclt	0, cr0, [sl], {-0}
    15fc:	3e00008a 	cdpcc	0, 0, cr0, cr0, cr10, {4}
    1600:	f2000001 	vhadd.s8	d0, d0, d1
    1604:	0b000002 	bleq	1614 <_start-0x69ec>
    1608:	f3035001 	vhadd.u8	d5, d3, d1
    160c:	11005001 	tstne	r0, r1
    1610:	00008ac4 	andeq	r8, r0, r4, asr #21
    1614:	00000196 	muleq	r0, r6, r1
    1618:	06090700 	streq	r0, [r9], -r0, lsl #14
    161c:	d1010000 	mrsle	r0, (UNDEF: 1)
    1620:	00008ac8 	andeq	r8, r0, r8, asr #21
    1624:	000000d8 	ldrdeq	r0, [r0], -r8
    1628:	03819c01 	orreq	r9, r1, #256	; 0x100
    162c:	70080000 	andvc	r0, r8, r0
    1630:	01006e69 	tsteq	r0, r9, ror #28
    1634:	00002cd1 	ldrdeq	r2, [r0], -r1
    1638:	00102a00 	andseq	r2, r0, r0, lsl #20
    163c:	06681200 	strbteq	r1, [r8], -r0, lsl #4
    1640:	d1010000 	mrsle	r0, (UNDEF: 1)
    1644:	000000b2 	strheq	r0, [r0], -r2
    1648:	00001048 	andeq	r1, r0, r8, asr #32
    164c:	00059b09 	andeq	r9, r5, r9, lsl #22
    1650:	33d90100 	bicscc	r0, r9, #0, 2
    1654:	69000001 	stmdbvs	r0, {r0}
    1658:	09000010 	stmdbeq	r0, {r4}
    165c:	00000743 	andeq	r0, r0, r3, asr #14
    1660:	002cda01 	eoreq	sp, ip, r1, lsl #20
    1664:	10be0000 	adcsne	r0, lr, r0
    1668:	56090000 	strpl	r0, [r9], -r0
    166c:	01000006 	tsteq	r0, r6
    1670:	00002ce8 	andeq	r2, r0, r8, ror #25
    1674:	00128a00 	andseq	r8, r2, r0, lsl #20
    1678:	8b640a00 	blhi	1903e80 <__bss_end__+0x18fa0c0>
    167c:	08410000 	stmdaeq	r1, {}^	; <UNPREDICTABLE>
    1680:	03700000 	cmneq	r0, #0
    1684:	010b0000 	mrseq	r0, (UNDEF: 11)
    1688:	00760250 	rsbseq	r0, r6, r0, asr r2
    168c:	8b940c00 	blhi	fe504694 <__bss_end__+0xfe4fa8d4>
    1690:	08620000 	stmdaeq	r2!, {}^	; <UNPREDICTABLE>
    1694:	010b0000 	mrseq	r0, (UNDEF: 11)
    1698:	00760250 	rsbseq	r0, r6, r0, asr r2
    169c:	7c070000 	stcvc	0, cr0, [r7], {-0}
    16a0:	01000006 	tsteq	r0, r6
    16a4:	008ba0f1 	strdeq	sl, [fp], r1
    16a8:	00003800 	andeq	r3, r0, r0, lsl #16
    16ac:	d99c0100 	ldmible	ip, {r8}
    16b0:	08000003 	stmdaeq	r0, {r0, r1}
    16b4:	006e6970 	rsbeq	r6, lr, r0, ror r9
    16b8:	002cf101 	eoreq	pc, ip, r1, lsl #2
    16bc:	12bb0000 	adcsne	r0, fp, #0
    16c0:	9b090000 	blls	2416c8 <__bss_end__+0x237908>
    16c4:	01000005 	tsteq	r0, r5
    16c8:	000133f7 	strdeq	r3, [r1], -r7
    16cc:	0012dc00 	andseq	sp, r2, r0, lsl #24
    16d0:	06560900 	ldrbeq	r0, [r6], -r0, lsl #18
    16d4:	f8010000 			; <UNDEFINED> instruction: 0xf8010000
    16d8:	0000002c 	andeq	r0, r0, ip, lsr #32
    16dc:	00001312 	andeq	r1, r0, r2, lsl r3
    16e0:	008bd00c 	addeq	sp, fp, ip
    16e4:	00086200 	andeq	r6, r8, r0, lsl #4
    16e8:	51010b00 	tstpl	r1, r0, lsl #22
    16ec:	01f33107 	mvnseq	r3, r7, lsl #2
    16f0:	241a4f50 	ldrcs	r4, [sl], #-3920	; 0xf50
    16f4:	36130000 	ldrcc	r0, [r3], -r0
    16f8:	01000005 	tsteq	r0, r5
    16fc:	0064011f 	rsbeq	r0, r4, pc, lsl r1
    1700:	8bd80000 	blhi	ff601708 <__bss_end__+0xff5f7948>
    1704:	002c0000 	eoreq	r0, ip, r0
    1708:	9c010000 	stcls	0, cr0, [r1], {-0}
    170c:	0000040d 	andeq	r0, r0, sp, lsl #8
    1710:	00053914 	andeq	r3, r5, r4, lsl r9
    1714:	011f0100 	tsteq	pc, r0, lsl #2
    1718:	0000002c 	andeq	r0, r0, ip, lsr #32
    171c:	00001352 	andeq	r1, r0, r2, asr r3
    1720:	008be811 	addeq	lr, fp, r1, lsl r8
    1724:	00084100 	andeq	r4, r8, r0, lsl #2
    1728:	f4150000 			; <UNDEFINED> instruction: 0xf4150000
    172c:	01000005 	tsteq	r0, r5
    1730:	8c04012e 	stfhis	f0, [r4], {46}	; 0x2e
    1734:	00840000 	addeq	r0, r4, r0
    1738:	9c010000 	stcls	0, cr0, [r1], {-0}
    173c:	000004d1 	ldrdeq	r0, [r0], -r1
    1740:	6e697016 	mcrvs	0, 3, r7, cr9, cr6, {0}
    1744:	012e0100 	teqeq	lr, r0, lsl #2
    1748:	0000002c 	andeq	r0, r0, ip, lsr #32
    174c:	00001373 	andeq	r1, r0, r3, ror r3
    1750:	00056d17 	andeq	r6, r5, r7, lsl sp
    1754:	01400100 	mrseq	r0, (UNDEF: 80)
    1758:	0000002c 	andeq	r0, r0, ip, lsr #32
    175c:	0000139f 	muleq	r0, pc, r3	; <UNPREDICTABLE>
    1760:	008c2018 	addeq	r2, ip, r8, lsl r0
    1764:	00001c00 	andeq	r1, r0, r0, lsl #24
    1768:	00047300 	andeq	r7, r4, r0, lsl #6
    176c:	06561700 	ldrbeq	r1, [r6], -r0, lsl #14
    1770:	37010000 	strcc	r0, [r1, -r0]
    1774:	00002c01 	andeq	r2, r0, r1, lsl #24
    1778:	0013bd00 	andseq	fp, r3, r0, lsl #26
    177c:	8c2c1100 	stfhis	f1, [ip], #-0
    1780:	08410000 	stmdaeq	r1, {}^	; <UNPREDICTABLE>
    1784:	3c110000 	ldccc	0, cr0, [r1], {-0}
    1788:	6200008c 	andvs	r0, r0, #140	; 0x8c
    178c:	00000008 	andeq	r0, r0, r8
    1790:	008c4018 	addeq	r4, ip, r8, lsl r0
    1794:	00002000 	andeq	r2, r0, r0
    1798:	0004a300 	andeq	sl, r4, r0, lsl #6
    179c:	06561700 	ldrbeq	r1, [r6], -r0, lsl #14
    17a0:	3b010000 	blcc	417a8 <__bss_end__+0x379e8>
    17a4:	00002c01 	andeq	r2, r0, r1, lsl #24
    17a8:	0013db00 	andseq	sp, r3, r0, lsl #22
    17ac:	8c4c1100 	stfhie	f1, [ip], {-0}
    17b0:	08410000 	stmdaeq	r1, {}^	; <UNPREDICTABLE>
    17b4:	60110000 	andsvs	r0, r1, r0
    17b8:	6200008c 	andvs	r0, r0, #140	; 0x8c
    17bc:	00000008 	andeq	r0, r0, r8
    17c0:	008c1811 	addeq	r1, ip, r1, lsl r8
    17c4:	00087e00 	andeq	r7, r8, r0, lsl #28
    17c8:	8c641100 	stfhie	f1, [r4], #-0
    17cc:	087e0000 	ldmdaeq	lr!, {}^	; <UNPREDICTABLE>
    17d0:	70110000 	andsvc	r0, r1, r0
    17d4:	4100008c 	smlabbmi	r0, ip, r0, r0
    17d8:	11000008 	tstne	r0, r8
    17dc:	00008c7c 	andeq	r8, r0, ip, ror ip
    17e0:	00000862 	andeq	r0, r0, r2, ror #16
    17e4:	008c8011 	addeq	r8, ip, r1, lsl r0
    17e8:	00087e00 	andeq	r7, r8, r0, lsl #28
    17ec:	c7150000 	ldrgt	r0, [r5, -r0]
    17f0:	01000006 	tsteq	r0, r6
    17f4:	8c88014b 	stfhis	f0, [r8], {75}	; 0x4b
    17f8:	00840000 	addeq	r0, r4, r0
    17fc:	9c010000 	stcls	0, cr0, [r1], {-0}
    1800:	00000595 	muleq	r0, r5, r5
    1804:	6e697016 	mcrvs	0, 3, r7, cr9, cr6, {0}
    1808:	014b0100 	mrseq	r0, (UNDEF: 91)
    180c:	0000002c 	andeq	r0, r0, ip, lsr #32
    1810:	000013f9 	strdeq	r1, [r0], -r9
    1814:	00056d17 	andeq	r6, r5, r7, lsl sp
    1818:	015c0100 	cmpeq	ip, r0, lsl #2
    181c:	0000002c 	andeq	r0, r0, ip, lsr #32
    1820:	00001425 	andeq	r1, r0, r5, lsr #8
    1824:	008ca418 	addeq	sl, ip, r8, lsl r4
    1828:	00001c00 	andeq	r1, r0, r0, lsl #24
    182c:	00053700 	andeq	r3, r5, r0, lsl #14
    1830:	06561700 	ldrbeq	r1, [r6], -r0, lsl #14
    1834:	53010000 	movwpl	r0, #4096	; 0x1000
    1838:	00002c01 	andeq	r2, r0, r1, lsl #24
    183c:	00144300 	andseq	r4, r4, r0, lsl #6
    1840:	8cb01100 	ldfhis	f1, [r0]
    1844:	08410000 	stmdaeq	r1, {}^	; <UNPREDICTABLE>
    1848:	c0110000 	andsgt	r0, r1, r0
    184c:	6200008c 	andvs	r0, r0, #140	; 0x8c
    1850:	00000008 	andeq	r0, r0, r8
    1854:	008cc418 	addeq	ip, ip, r8, lsl r4
    1858:	00002000 	andeq	r2, r0, r0
    185c:	00056700 	andeq	r6, r5, r0, lsl #14
    1860:	06561700 	ldrbeq	r1, [r6], -r0, lsl #14
    1864:	57010000 	strpl	r0, [r1, -r0]
    1868:	00002c01 	andeq	r2, r0, r1, lsl #24
    186c:	00146100 	andseq	r6, r4, r0, lsl #2
    1870:	8cd01100 	ldfhie	f1, [r0], {0}
    1874:	08410000 	stmdaeq	r1, {}^	; <UNPREDICTABLE>
    1878:	e4110000 	ldr	r0, [r1], #-0
    187c:	6200008c 	andvs	r0, r0, #140	; 0x8c
    1880:	00000008 	andeq	r0, r0, r8
    1884:	008c9c11 	addeq	r9, ip, r1, lsl ip
    1888:	00087e00 	andeq	r7, r8, r0, lsl #28
    188c:	8ce81100 	stfhie	f1, [r8]
    1890:	087e0000 	ldmdaeq	lr!, {}^	; <UNPREDICTABLE>
    1894:	f4110000 			; <UNDEFINED> instruction: 0xf4110000
    1898:	4100008c 	smlabbmi	r0, ip, r0, r0
    189c:	11000008 	tstne	r0, r8
    18a0:	00008d00 	andeq	r8, r0, r0, lsl #26
    18a4:	00000862 	andeq	r0, r0, r2, ror #16
    18a8:	008d0411 	addeq	r0, sp, r1, lsl r4
    18ac:	00087e00 	andeq	r7, r8, r0, lsl #28
    18b0:	ff130000 			; <UNDEFINED> instruction: 0xff130000
    18b4:	01000004 	tsteq	r0, r4
    18b8:	00640166 	rsbeq	r0, r4, r6, ror #2
    18bc:	8d0c0000 	stchi	0, cr0, [ip, #-0]
    18c0:	00840000 	addeq	r0, r4, r0
    18c4:	9c010000 	stcls	0, cr0, [r1], {-0}
    18c8:	0000063b 	andeq	r0, r0, fp, lsr r6
    18cc:	6e697016 	mcrvs	0, 3, r7, cr9, cr6, {0}
    18d0:	01660100 	cmneq	r6, r0, lsl #2
    18d4:	0000002c 	andeq	r0, r0, ip, lsr #32
    18d8:	0000147f 	andeq	r1, r0, pc, ror r4
    18dc:	008d2818 	addeq	r2, sp, r8, lsl r8
    18e0:	00002400 	andeq	r2, r0, r0, lsl #8
    18e4:	0005ef00 	andeq	lr, r5, r0, lsl #30
    18e8:	05841700 	streq	r1, [r4, #1792]	; 0x700
    18ec:	6d010000 	stcvs	0, cr0, [r1, #-0]
    18f0:	00002c01 	andeq	r2, r0, r1, lsl #24
    18f4:	0014c100 	andseq	ip, r4, r0, lsl #2
    18f8:	8d341100 	ldfhis	f1, [r4, #-0]
    18fc:	08410000 	stmdaeq	r1, {}^	; <UNPREDICTABLE>
    1900:	44110000 	ldrmi	r0, [r1], #-0
    1904:	7e00008d 	cdpvc	0, 0, cr0, cr0, cr13, {4}
    1908:	00000008 	andeq	r0, r0, r8
    190c:	008d4c18 	addeq	r4, sp, r8, lsl ip
    1910:	00002c00 	andeq	r2, r0, r0, lsl #24
    1914:	00062800 	andeq	r2, r6, r0, lsl #16
    1918:	05841700 	streq	r1, [r4, #1792]	; 0x700
    191c:	70010000 	andvc	r0, r1, r0
    1920:	00002c01 	andeq	r2, r0, r1, lsl #24
    1924:	0014db00 	andseq	sp, r4, r0, lsl #22
    1928:	8d581100 	ldfhie	f1, [r8, #-0]
    192c:	08410000 	stmdaeq	r1, {}^	; <UNPREDICTABLE>
    1930:	64110000 	ldrvs	r0, [r1], #-0
    1934:	7e00008d 	cdpvc	0, 0, cr0, cr0, cr13, {4}
    1938:	11000008 	tstne	r0, r8
    193c:	00008d70 	andeq	r8, r0, r0, ror sp
    1940:	0000087e 	andeq	r0, r0, lr, ror r8
    1944:	8d201100 	stfhis	f1, [r0, #-0]
    1948:	087e0000 	ldmdaeq	lr!, {}^	; <UNPREDICTABLE>
    194c:	7c110000 	ldcvc	0, cr0, [r1], {-0}
    1950:	7e00008d 	cdpvc	0, 0, cr0, cr0, cr13, {4}
    1954:	00000008 	andeq	r0, r0, r8
    1958:	00062915 	andeq	r2, r6, r5, lsl r9
    195c:	01790100 	cmneq	r9, r0, lsl #2
    1960:	00008d90 	muleq	r0, r0, sp
    1964:	00000058 	andeq	r0, r0, r8, asr r0
    1968:	06a09c01 	strteq	r9, [r0], r1, lsl #24
    196c:	70160000 	andsvc	r0, r6, r0
    1970:	01006e69 	tsteq	r0, r9, ror #28
    1974:	002c0179 	eoreq	r0, ip, r9, ror r1
    1978:	14ee0000 	strbtne	r0, [lr], #0
    197c:	a4110000 	ldrge	r0, [r1], #-0
    1980:	7e00008d 	cdpvc	0, 0, cr0, cr0, cr13, {4}
    1984:	0a000008 	beq	19ac <_start-0x6654>
    1988:	00008dc0 	andeq	r8, r0, r0, asr #27
    198c:	00000862 	andeq	r0, r0, r2, ror #16
    1990:	00000680 	andeq	r0, r0, r0, lsl #13
    1994:	0451010b 	ldrbeq	r0, [r1], #-267	; 0x10b
    1998:	24007431 	strcs	r7, [r0], #-1073	; 0x431
    199c:	8ddc0a00 	vldrhi	s1, [ip]
    19a0:	08620000 	stmdaeq	r2!, {}^	; <UNPREDICTABLE>
    19a4:	06960000 	ldreq	r0, [r6], r0
    19a8:	010b0000 	mrseq	r0, (UNDEF: 11)
    19ac:	74310451 	ldrtvc	r0, [r1], #-1105	; 0x451
    19b0:	11002400 	tstne	r0, r0, lsl #8
    19b4:	00008de0 	andeq	r8, r0, r0, ror #27
    19b8:	0000087e 	andeq	r0, r0, lr, ror r8
    19bc:	05d81900 	ldrbeq	r1, [r8, #2304]	; 0x900
    19c0:	28010000 	stmdacs	r1, {}	; <UNPREDICTABLE>
    19c4:	00000133 	andeq	r0, r0, r3, lsr r1
    19c8:	97140305 	ldrls	r0, [r4, -r5, lsl #6]
    19cc:	5e190000 	cdppl	0, 1, cr0, cr9, cr0, {0}
    19d0:	01000006 	tsteq	r0, r6
    19d4:	00013329 	andeq	r3, r1, r9, lsr #6
    19d8:	10030500 	andne	r0, r3, r0, lsl #10
    19dc:	19000097 	stmdbne	r0, {r0, r1, r2, r4, r7}
    19e0:	0000074e 	andeq	r0, r0, lr, asr #14
    19e4:	01332a01 	teqeq	r3, r1, lsl #20
    19e8:	03050000 	movweq	r0, #20480	; 0x5000
    19ec:	0000970c 	andeq	r9, r0, ip, lsl #14
    19f0:	0005a419 	andeq	sl, r5, r9, lsl r4
    19f4:	332c0100 	teqcc	ip, #0, 2
    19f8:	05000001 	streq	r0, [r0, #-1]
    19fc:	0096b803 	addseq	fp, r6, r3, lsl #16
    1a00:	05ac1900 	streq	r1, [ip, #2304]!	; 0x900
    1a04:	2d010000 	stccs	0, cr0, [r1, #-0]
    1a08:	00000133 	andeq	r0, r0, r3, lsr r1
    1a0c:	96bc0305 	ldrtls	r0, [ip], r5, lsl #6
    1a10:	19190000 	ldmdbne	r9, {}	; <UNPREDICTABLE>
    1a14:	01000005 	tsteq	r0, r5
    1a18:	0001332e 	andeq	r3, r1, lr, lsr #6
    1a1c:	c0030500 	andgt	r0, r3, r0, lsl #10
    1a20:	19000096 	stmdbne	r0, {r1, r2, r4, r7}
    1a24:	000005b4 			; <UNDEFINED> instruction: 0x000005b4
    1a28:	01332f01 	teqeq	r3, r1, lsl #30
    1a2c:	03050000 	movweq	r0, #20480	; 0x5000
    1a30:	000096c4 	andeq	r9, r0, r4, asr #13
    1a34:	0005bc19 	andeq	fp, r5, r9, lsl ip
    1a38:	33300100 	teqcc	r0, #0, 2
    1a3c:	05000001 	streq	r0, [r0, #-1]
    1a40:	0096c803 	addseq	ip, r6, r3, lsl #16
    1a44:	05c41900 	strbeq	r1, [r4, #2304]	; 0x900
    1a48:	31010000 	mrscc	r0, (UNDEF: 1)
    1a4c:	00000133 	andeq	r0, r0, r3, lsr r1
    1a50:	96cc0305 	strbls	r0, [ip], r5, lsl #6
    1a54:	76190000 	ldrvc	r0, [r9], -r0
    1a58:	01000005 	tsteq	r0, r5
    1a5c:	00013333 	andeq	r3, r1, r3, lsr r3
    1a60:	d0030500 	andle	r0, r3, r0, lsl #10
    1a64:	19000096 	stmdbne	r0, {r1, r2, r4, r7}
    1a68:	0000057d 	andeq	r0, r0, sp, ror r5
    1a6c:	01333401 	teqeq	r3, r1, lsl #8
    1a70:	03050000 	movweq	r0, #20480	; 0x5000
    1a74:	000096d4 	ldrdeq	r9, [r0], -r4
    1a78:	00052119 	andeq	r2, r5, r9, lsl r1
    1a7c:	33360100 	teqcc	r6, #0, 2
    1a80:	05000001 	streq	r0, [r0, #-1]
    1a84:	0096d803 	addseq	sp, r6, r3, lsl #16
    1a88:	05e31900 	strbeq	r1, [r3, #2304]!	; 0x900
    1a8c:	37010000 	strcc	r0, [r1, -r0]
    1a90:	00000133 	andeq	r0, r0, r3, lsr r1
    1a94:	96dc0305 	ldrbls	r0, [ip], r5, lsl #6
    1a98:	8d190000 	ldchi	0, cr0, [r9, #-0]
    1a9c:	01000005 	tsteq	r0, r5
    1aa0:	00013339 	andeq	r3, r1, r9, lsr r3
    1aa4:	e0030500 	and	r0, r3, r0, lsl #10
    1aa8:	19000096 	stmdbne	r0, {r1, r2, r4, r7}
    1aac:	00000594 	muleq	r0, r4, r5
    1ab0:	01333a01 	teqeq	r3, r1, lsl #20
    1ab4:	03050000 	movweq	r0, #20480	; 0x5000
    1ab8:	000096e4 	andeq	r9, r0, r4, ror #13
    1abc:	00063a1a 	andeq	r3, r6, sl, lsl sl
    1ac0:	010a0100 	mrseq	r0, (UNDEF: 26)
    1ac4:	00000133 	andeq	r0, r0, r3, lsr r1
    1ac8:	97080305 	strls	r0, [r8, -r5, lsl #6]
    1acc:	481a0000 	ldmdami	sl, {}	; <UNPREDICTABLE>
    1ad0:	01000006 	tsteq	r0, r6
    1ad4:	0133010b 	teqeq	r3, fp, lsl #2
    1ad8:	03050000 	movweq	r0, #20480	; 0x5000
    1adc:	000096e8 	andeq	r9, r0, r8, ror #13
    1ae0:	0006881a 	andeq	r8, r6, sl, lsl r8
    1ae4:	010d0100 	mrseq	r0, (UNDEF: 29)
    1ae8:	00000133 	andeq	r0, r0, r3, lsr r1
    1aec:	97000305 	strls	r0, [r0, -r5, lsl #6]
    1af0:	8f1a0000 	svchi	0x001a0000
    1af4:	01000006 	tsteq	r0, r6
    1af8:	0133010e 	teqeq	r3, lr, lsl #2
    1afc:	03050000 	movweq	r0, #20480	; 0x5000
    1b00:	00009704 	andeq	r9, r0, r4, lsl #14
    1b04:	00061b1a 	andeq	r1, r6, sl, lsl fp
    1b08:	01100100 	tsteq	r0, r0, lsl #2
    1b0c:	00000133 	andeq	r0, r0, r3, lsr r1
    1b10:	96ec0305 	strbtls	r0, [ip], r5, lsl #6
    1b14:	221a0000 	andscs	r0, sl, #0
    1b18:	01000006 	tsteq	r0, r6
    1b1c:	01330111 	teqeq	r3, r1, lsl r1
    1b20:	03050000 	movweq	r0, #20480	; 0x5000
    1b24:	000096f0 	strdeq	r9, [r0], -r0
    1b28:	0006a21a 	andeq	sl, r6, sl, lsl r2
    1b2c:	01130100 	tsteq	r3, r0, lsl #2
    1b30:	00000133 	andeq	r0, r0, r3, lsr r1
    1b34:	96f80305 	ldrbtls	r0, [r8], r5, lsl #6
    1b38:	a91a0000 	ldmdbge	sl, {}	; <UNPREDICTABLE>
    1b3c:	01000006 	tsteq	r0, r6
    1b40:	01330114 	teqeq	r3, r4, lsl r1
    1b44:	03050000 	movweq	r0, #20480	; 0x5000
    1b48:	000096fc 	strdeq	r9, [r0], -ip
    1b4c:	0005281a 	andeq	r2, r5, sl, lsl r8
    1b50:	01160100 	tsteq	r6, r0, lsl #2
    1b54:	00000133 	andeq	r0, r0, r3, lsr r1
    1b58:	96f40305 	ldrbtls	r0, [r4], r5, lsl #6
    1b5c:	c11b0000 	tstgt	fp, r0
    1b60:	01000006 	tsteq	r0, r6
    1b64:	00002c20 	andeq	r2, r0, r0, lsr #24
    1b68:	00085600 	andeq	r5, r8, r0, lsl #12
    1b6c:	08561c00 	ldmdaeq	r6, {sl, fp, ip}^
    1b70:	0d000000 	stceq	0, cr0, [r0, #-0]
    1b74:	00085c04 	andeq	r5, r8, r4, lsl #24
    1b78:	08611d00 	stmdaeq	r1!, {r8, sl, fp, ip}^
    1b7c:	1f1e0000 	svcne	0x001e0000
    1b80:	00000513 	andeq	r0, r0, r3, lsl r5
    1b84:	08781e01 	ldmdaeq	r8!, {r0, r9, sl, fp, ip}^
    1b88:	781c0000 	ldmdavc	ip, {}	; <UNPREDICTABLE>
    1b8c:	1c000008 	stcne	0, cr0, [r0], {8}
    1b90:	0000002c 	andeq	r0, r0, ip, lsr #32
    1b94:	61040d00 	tstvs	r4, r0, lsl #26
    1b98:	20000008 	andcs	r0, r0, r8
    1b9c:	000005cc 	andeq	r0, r0, ip, asr #11
    1ba0:	f2008a03 	vpmax.s8	d8, d0, d3
    1ba4:	04000011 	streq	r0, [r0], #-17
    1ba8:	000b1000 	andeq	r1, fp, r0
    1bac:	94010400 	strls	r0, [r1], #-1024	; 0x400
    1bb0:	01000001 	tsteq	r0, r1
    1bb4:	000007ed 	andeq	r0, r0, sp, ror #15
    1bb8:	000001ff 	strdeq	r0, [r0], -pc	; <UNPREDICTABLE>
    1bbc:	00008de8 	andeq	r8, r0, r8, ror #27
    1bc0:	00000668 	andeq	r0, r0, r8, ror #12
    1bc4:	00000905 	andeq	r0, r0, r5, lsl #18
    1bc8:	69050402 	stmdbvs	r5, {r1, sl}
    1bcc:	0300746e 	movweq	r7, #1134	; 0x46e
    1bd0:	00df0704 	sbcseq	r0, pc, r4, lsl #14
    1bd4:	01030000 	mrseq	r0, (UNDEF: 3)
    1bd8:	00009906 	andeq	r9, r0, r6, lsl #18
    1bdc:	05020300 	streq	r0, [r2, #-768]	; 0x300
    1be0:	0000015f 	andeq	r0, r0, pc, asr r1
    1be4:	fa050403 	blx	142bf8 <__bss_end__+0x138e38>
    1be8:	03000000 	movweq	r0, #0
    1bec:	00f50508 	rscseq	r0, r5, r8, lsl #10
    1bf0:	c7040000 	strgt	r0, [r4, -r0]
    1bf4:	03000003 	movweq	r0, #3
    1bf8:	00005a2e 	andeq	r5, r0, lr, lsr #20
    1bfc:	08010300 	stmdaeq	r1, {r8, r9}
    1c00:	00000097 	muleq	r0, r7, r0
    1c04:	b2070203 	andlt	r0, r7, #805306368	; 0x30000000
    1c08:	04000000 	streq	r0, [r0], #-0
    1c0c:	0000041e 	andeq	r0, r0, lr, lsl r4
    1c10:	00733403 	rsbseq	r3, r3, r3, lsl #8
    1c14:	04030000 	streq	r0, [r3], #-0
    1c18:	0000da07 	andeq	sp, r0, r7, lsl #20
    1c1c:	07080300 	streq	r0, [r8, -r0, lsl #6]
    1c20:	000000d5 	ldrdeq	r0, [r0], -r5
    1c24:	ec070403 	cfstrs	mvf0, [r7], {3}
    1c28:	05000000 	streq	r0, [r0, #-0]
    1c2c:	90040604 	andls	r0, r4, r4, lsl #12
    1c30:	03000000 	movweq	r0, #0
    1c34:	00a00801 	adceq	r0, r0, r1, lsl #16
    1c38:	04060000 	streq	r0, [r6], #-0
    1c3c:	0000009d 	muleq	r0, sp, r0
    1c40:	00009007 	andeq	r9, r0, r7
    1c44:	040c0800 	streq	r0, [ip], #-2048	; 0x800
    1c48:	0000d90e 	andeq	sp, r0, lr, lsl #18
    1c4c:	78740900 	ldmdavc	r4!, {r8, fp}^
    1c50:	4f0f0400 	svcmi	0x000f0400
    1c54:	00000000 	andeq	r0, r0, r0
    1c58:	00787209 	rsbseq	r7, r8, r9, lsl #4
    1c5c:	004f0f04 	subeq	r0, pc, r4, lsl #30
    1c60:	0a010000 	beq	41c68 <__bss_end__+0x37ea8>
    1c64:	00000395 	muleq	r0, r5, r3
    1c68:	00681004 	rsbeq	r1, r8, r4
    1c6c:	0a040000 	beq	101c74 <__bss_end__+0xf7eb4>
    1c70:	00000346 	andeq	r0, r0, r6, asr #6
    1c74:	00681104 	rsbeq	r1, r8, r4, lsl #2
    1c78:	00080000 	andeq	r0, r8, r0
    1c7c:	00037e04 	andeq	r7, r3, r4, lsl #28
    1c80:	a2120400 	andsge	r0, r2, #0, 8
    1c84:	04000000 	streq	r0, [r0], #-0
    1c88:	00000177 	andeq	r0, r0, r7, ror r1
    1c8c:	00ef2805 	rsceq	r2, pc, r5, lsl #16
    1c90:	f50b0000 			; <UNDEFINED> instruction: 0xf50b0000
    1c94:	04000001 	streq	r0, [r0], #-1
    1c98:	01060009 	tsteq	r6, r9
    1c9c:	480c0000 	stmdami	ip, {}	; <UNPREDICTABLE>
    1ca0:	88000002 	stmdahi	r0, {r1}
    1ca4:	00000000 	andeq	r0, r0, r0
    1ca8:	01f70400 	mvnseq	r0, r0, lsl #8
    1cac:	62050000 	andvs	r0, r5, #0
    1cb0:	000000e4 	andeq	r0, r0, r4, ror #1
    1cb4:	0007b10d 	andeq	fp, r7, sp, lsl #2
    1cb8:	03090200 	movweq	r0, #37376	; 0x9200
    1cbc:	0000013f 	andeq	r0, r0, pc, lsr r1
    1cc0:	0003a90e 	andeq	sl, r3, lr, lsl #18
    1cc4:	2c090200 	sfmcs	f0, 4, [r9], {-0}
    1cc8:	0f000000 	svceq	0x00000000
    1ccc:	0902006e 	stmdbeq	r2, {r1, r2, r3, r5, r6}
    1cd0:	0000002c 	andeq	r0, r0, ip, lsr #32
    1cd4:	01031110 	tsteq	r3, r0, lsl r1
    1cd8:	0c020000 	stceq	0, cr0, [r2], {-0}
    1cdc:	0000002c 	andeq	r0, r0, ip, lsr #32
    1ce0:	640d0000 	strvs	r0, [sp], #-0
    1ce4:	02000007 	andeq	r0, r0, #7
    1ce8:	01760317 	cmneq	r6, r7, lsl r3
    1cec:	700f0000 	andvc	r0, pc, r0
    1cf0:	02006e69 	andeq	r6, r0, #1680	; 0x690
    1cf4:	00002c17 	andeq	r2, r0, r7, lsl ip
    1cf8:	00760f00 	rsbseq	r0, r6, r0, lsl #30
    1cfc:	002c1702 	eoreq	r1, ip, r2, lsl #14
    1d00:	a90e0000 	stmdbge	lr, {}	; <UNPREDICTABLE>
    1d04:	02000003 	andeq	r0, r0, #3
    1d08:	00002c17 	andeq	r2, r0, r7, lsl ip
    1d0c:	07b70e00 	ldreq	r0, [r7, r0, lsl #28]!
    1d10:	17020000 	strne	r0, [r2, -r0]
    1d14:	0000002c 	andeq	r0, r0, ip, lsr #32
    1d18:	03ba1200 			; <UNDEFINED> instruction: 0x03ba1200
    1d1c:	09010000 	stmdbeq	r1, {}	; <UNPREDICTABLE>
    1d20:	00008de8 	andeq	r8, r0, r8, ror #27
    1d24:	00000154 	andeq	r0, r0, r4, asr r1
    1d28:	07229c01 	streq	r9, [r2, -r1, lsl #24]!
    1d2c:	5c130000 	ldcpl	0, cr0, [r3], {-0}
    1d30:	01000003 	tsteq	r0, r3
    1d34:	00072209 	andeq	r2, r7, r9, lsl #4
    1d38:	00151a00 	andseq	r1, r5, r0, lsl #20
    1d3c:	00631400 	rsbeq	r1, r3, r0, lsl #8
    1d40:	005a0901 	subseq	r0, sl, r1, lsl #18
    1d44:	153b0000 	ldrne	r0, [fp, #-0]!
    1d48:	74150000 	ldrvc	r0, [r5], #-0
    1d4c:	0b010078 	bleq	41f34 <__bss_end__+0x38174>
    1d50:	00000025 	andeq	r0, r0, r5, lsr #32
    1d54:	08007606 	stmdaeq	r0, {r1, r2, r9, sl, ip, sp, lr}
    1d58:	169f1aff 			; <UNDEFINED> instruction: 0x169f1aff
    1d5c:	0c01006e 	stceq	0, cr0, [r1], {110}	; 0x6e
    1d60:	00000068 	andeq	r0, r0, r8, rrx
    1d64:	0000155c 	andeq	r1, r0, ip, asr r5
    1d68:	01007516 	tsteq	r0, r6, lsl r5
    1d6c:	0000680d 	andeq	r6, r0, sp, lsl #16
    1d70:	00156f00 	andseq	r6, r5, r0, lsl #30
    1d74:	00731500 	rsbseq	r1, r3, r0, lsl #10
    1d78:	00680e01 	rsbeq	r0, r8, r1, lsl #28
    1d7c:	54010000 	strpl	r0, [r1], #-0
    1d80:	008df817 	addeq	pc, sp, r7, lsl r8	; <UNPREDICTABLE>
    1d84:	00000400 	andeq	r0, r0, r0, lsl #8
    1d88:	0001f800 	andeq	pc, r1, r0, lsl #16
    1d8c:	01031800 	tsteq	r3, r0, lsl #16
    1d90:	0e010000 	cdpeq	0, 0, cr0, cr1, cr0, {0}
    1d94:	0000002c 	andeq	r0, r0, ip, lsr #32
    1d98:	19005401 	stmdbne	r0, {r0, sl, ip, lr}
    1d9c:	0000013f 	andeq	r0, r0, pc, lsr r1
    1da0:	00008dfc 	strdeq	r8, [r0], -ip
    1da4:	0000001c 	andeq	r0, r0, ip, lsl r0
    1da8:	02751101 	rsbseq	r1, r5, #1073741824	; 0x40000000
    1dac:	6a1a0000 	bvs	681db4 <__bss_end__+0x677ff4>
    1db0:	98000001 	stmdals	r0, {r0}
    1db4:	1b000015 	blne	1e10 <_start-0x61f0>
    1db8:	0000015f 	andeq	r0, r0, pc, asr r1
    1dbc:	561c5401 	ldrpl	r5, [ip], -r1, lsl #8
    1dc0:	00000001 	andeq	r0, r0, r1
    1dc4:	00014b1b 	andeq	r4, r1, fp, lsl fp
    1dc8:	19560100 	ldmdbne	r6, {r8}^
    1dcc:	00000111 	andeq	r0, r0, r1, lsl r1
    1dd0:	00008e08 	andeq	r8, r0, r8, lsl #28
    1dd4:	00000010 	andeq	r0, r0, r0, lsl r0
    1dd8:	025f1a02 	subseq	r1, pc, #8192	; 0x2000
    1ddc:	281a0000 	ldmdacs	sl, {}	; <UNPREDICTABLE>
    1de0:	ab000001 	blge	1dec <_start-0x6214>
    1de4:	1b000015 	blne	1e40 <_start-0x61c0>
    1de8:	0000011d 	andeq	r0, r0, sp, lsl r1
    1dec:	081d5401 	ldmdaeq	sp, {r0, sl, ip, lr}
    1df0:	0400008e 	streq	r0, [r0], #-142	; 0x8e
    1df4:	1e000000 	cdpne	0, 0, cr0, cr0, cr0, {0}
    1df8:	00000132 	andeq	r0, r0, r2, lsr r1
    1dfc:	000015be 			; <UNDEFINED> instruction: 0x000015be
    1e00:	081f0000 	ldmdaeq	pc, {}	; <UNPREDICTABLE>
    1e04:	5900008e 	stmdbpl	r0, {r1, r2, r3, r7}
    1e08:	20000011 	andcs	r0, r0, r1, lsl r0
    1e0c:	30015101 	andcc	r5, r1, r1, lsl #2
    1e10:	02500120 	subseq	r0, r0, #32, 2
    1e14:	00000076 	andeq	r0, r0, r6, ror r0
    1e18:	00013f19 	andeq	r3, r1, r9, lsl pc
    1e1c:	008e1c00 	addeq	r1, lr, r0, lsl #24
    1e20:	00001c00 	andeq	r1, r0, r0, lsl #24
    1e24:	f8130100 			; <UNDEFINED> instruction: 0xf8130100
    1e28:	1a000002 	bne	1e38 <_start-0x61c8>
    1e2c:	0000016a 	andeq	r0, r0, sl, ror #2
    1e30:	000015d1 	ldrdeq	r1, [r0], -r1	; <UNPREDICTABLE>
    1e34:	00015f1b 	andeq	r5, r1, fp, lsl pc
    1e38:	1a540100 	bne	1502240 <__bss_end__+0x14f8480>
    1e3c:	00000156 	andeq	r0, r0, r6, asr r1
    1e40:	000015f3 	strdeq	r1, [r0], -r3
    1e44:	00014b1b 	andeq	r4, r1, fp, lsl fp
    1e48:	19560100 	ldmdbne	r6, {r8}^
    1e4c:	00000111 	andeq	r0, r0, r1, lsl r1
    1e50:	00008e28 	andeq	r8, r0, r8, lsr #28
    1e54:	00000010 	andeq	r0, r0, r0, lsl r0
    1e58:	02df1a02 	sbcseq	r1, pc, #8192	; 0x2000
    1e5c:	281a0000 	ldmdacs	sl, {}	; <UNPREDICTABLE>
    1e60:	24000001 	strcs	r0, [r0], #-1
    1e64:	1b000016 	blne	1ec4 <_start-0x613c>
    1e68:	0000011d 	andeq	r0, r0, sp, lsl r1
    1e6c:	281d5401 	ldmdacs	sp, {r0, sl, ip, lr}
    1e70:	0400008e 	streq	r0, [r0], #-142	; 0x8e
    1e74:	1e000000 	cdpne	0, 0, cr0, cr0, cr0, {0}
    1e78:	00000132 	andeq	r0, r0, r2, lsr r1
    1e7c:	00001646 	andeq	r1, r0, r6, asr #12
    1e80:	281f0000 	ldmdacs	pc, {}	; <UNPREDICTABLE>
    1e84:	5900008e 	stmdbpl	r0, {r1, r2, r3, r7}
    1e88:	20000011 	andcs	r0, r0, r1, lsl r0
    1e8c:	77045101 	strvc	r5, [r4, -r1, lsl #2]
    1e90:	201a3100 	andscs	r3, sl, r0, lsl #2
    1e94:	76025001 	strvc	r5, [r2], -r1
    1e98:	19000000 	stmdbne	r0, {}	; <UNPREDICTABLE>
    1e9c:	0000013f 	andeq	r0, r0, pc, lsr r1
    1ea0:	00008e3c 	andeq	r8, r0, ip, lsr lr
    1ea4:	0000001c 	andeq	r0, r0, ip, lsl r0
    1ea8:	03801501 	orreq	r1, r0, #4194304	; 0x400000
    1eac:	6a1a0000 	bvs	681eb4 <__bss_end__+0x6780f4>
    1eb0:	59000001 	stmdbpl	r0, {r0}
    1eb4:	1b000016 	blne	1f14 <_start-0x60ec>
    1eb8:	0000015f 	andeq	r0, r0, pc, asr r1
    1ebc:	561b5401 	ldrpl	r5, [fp], -r1, lsl #8
    1ec0:	08000001 	stmdaeq	r0, {r0}
    1ec4:	1a320077 	bne	c820a8 <__bss_end__+0xc782e8>
    1ec8:	9f1aff08 	svcls	0x001aff08
    1ecc:	00014b1b 	andeq	r4, r1, fp, lsl fp
    1ed0:	19560100 	ldmdbne	r6, {r8}^
    1ed4:	00000111 	andeq	r0, r0, r1, lsl r1
    1ed8:	00008e48 	andeq	r8, r0, r8, asr #28
    1edc:	00000010 	andeq	r0, r0, r0, lsl r0
    1ee0:	03671a02 	cmneq	r7, #8192	; 0x2000
    1ee4:	281a0000 	ldmdacs	sl, {}	; <UNPREDICTABLE>
    1ee8:	7e000001 	cdpvc	0, 0, cr0, cr0, cr1, {0}
    1eec:	1b000016 	blne	1f4c <_start-0x60b4>
    1ef0:	0000011d 	andeq	r0, r0, sp, lsl r1
    1ef4:	481d5401 	ldmdami	sp, {r0, sl, ip, lr}
    1ef8:	0400008e 	streq	r0, [r0], #-142	; 0x8e
    1efc:	1e000000 	cdpne	0, 0, cr0, cr0, cr0, {0}
    1f00:	00000132 	andeq	r0, r0, r2, lsr r1
    1f04:	000016a3 	andeq	r1, r0, r3, lsr #13
    1f08:	481f0000 	ldmdami	pc, {}	; <UNPREDICTABLE>
    1f0c:	5900008e 	stmdbpl	r0, {r1, r2, r3, r7}
    1f10:	20000011 	andcs	r0, r0, r1, lsl r0
    1f14:	77045101 	strvc	r5, [r4, -r1, lsl #2]
    1f18:	201a3200 	andscs	r3, sl, r0, lsl #4
    1f1c:	76025001 	strvc	r5, [r2], -r1
    1f20:	19000000 	stmdbne	r0, {}	; <UNPREDICTABLE>
    1f24:	0000013f 	andeq	r0, r0, pc, lsr r1
    1f28:	00008e5c 	andeq	r8, r0, ip, asr lr
    1f2c:	0000001c 	andeq	r0, r0, ip, lsl r0
    1f30:	04081701 	streq	r1, [r8], #-1793	; 0x701
    1f34:	6a1a0000 	bvs	681f3c <__bss_end__+0x67817c>
    1f38:	b6000001 	strlt	r0, [r0], -r1
    1f3c:	1b000016 	blne	1f9c <_start-0x6064>
    1f40:	0000015f 	andeq	r0, r0, pc, asr r1
    1f44:	561b5401 	ldrpl	r5, [fp], -r1, lsl #8
    1f48:	08000001 	stmdaeq	r0, {r0}
    1f4c:	1a340077 	bne	d02130 <__bss_end__+0xcf8370>
    1f50:	9f1aff08 	svcls	0x001aff08
    1f54:	00014b1b 	andeq	r4, r1, fp, lsl fp
    1f58:	19560100 	ldmdbne	r6, {r8}^
    1f5c:	00000111 	andeq	r0, r0, r1, lsl r1
    1f60:	00008e68 	andeq	r8, r0, r8, ror #28
    1f64:	00000010 	andeq	r0, r0, r0, lsl r0
    1f68:	03ef1a02 	mvneq	r1, #8192	; 0x2000
    1f6c:	281a0000 	ldmdacs	sl, {}	; <UNPREDICTABLE>
    1f70:	d8000001 	stmdale	r0, {r0}
    1f74:	1b000016 	blne	1fd4 <_start-0x602c>
    1f78:	0000011d 	andeq	r0, r0, sp, lsl r1
    1f7c:	681d5401 	ldmdavs	sp, {r0, sl, ip, lr}
    1f80:	0400008e 	streq	r0, [r0], #-142	; 0x8e
    1f84:	1e000000 	cdpne	0, 0, cr0, cr0, cr0, {0}
    1f88:	00000132 	andeq	r0, r0, r2, lsr r1
    1f8c:	000016fa 	strdeq	r1, [r0], -sl
    1f90:	681f0000 	ldmdavs	pc, {}	; <UNPREDICTABLE>
    1f94:	5900008e 	stmdbpl	r0, {r1, r2, r3, r7}
    1f98:	20000011 	andcs	r0, r0, r1, lsl r0
    1f9c:	77045101 	strvc	r5, [r4, -r1, lsl #2]
    1fa0:	201a3400 	andscs	r3, sl, r0, lsl #8
    1fa4:	76025001 	strvc	r5, [r2], -r1
    1fa8:	19000000 	stmdbne	r0, {}	; <UNPREDICTABLE>
    1fac:	0000013f 	andeq	r0, r0, pc, lsr r1
    1fb0:	00008e7c 	andeq	r8, r0, ip, ror lr
    1fb4:	0000001c 	andeq	r0, r0, ip, lsl r0
    1fb8:	04901901 	ldreq	r1, [r0], #2305	; 0x901
    1fbc:	6a1a0000 	bvs	681fc4 <__bss_end__+0x678204>
    1fc0:	0d000001 	stceq	0, cr0, [r0, #-4]
    1fc4:	1b000017 	blne	2028 <_start-0x5fd8>
    1fc8:	0000015f 	andeq	r0, r0, pc, asr r1
    1fcc:	561b5401 	ldrpl	r5, [fp], -r1, lsl #8
    1fd0:	08000001 	stmdaeq	r0, {r0}
    1fd4:	1a380077 	bne	e021b8 <__bss_end__+0xdf83f8>
    1fd8:	9f1aff08 	svcls	0x001aff08
    1fdc:	00014b1b 	andeq	r4, r1, fp, lsl fp
    1fe0:	19560100 	ldmdbne	r6, {r8}^
    1fe4:	00000111 	andeq	r0, r0, r1, lsl r1
    1fe8:	00008e88 	andeq	r8, r0, r8, lsl #29
    1fec:	00000010 	andeq	r0, r0, r0, lsl r0
    1ff0:	04771a02 	ldrbteq	r1, [r7], #-2562	; 0xa02
    1ff4:	281a0000 	ldmdacs	sl, {}	; <UNPREDICTABLE>
    1ff8:	32000001 	andcc	r0, r0, #1
    1ffc:	1b000017 	blne	2060 <_start-0x5fa0>
    2000:	0000011d 	andeq	r0, r0, sp, lsl r1
    2004:	881d5401 	ldmdahi	sp, {r0, sl, ip, lr}
    2008:	0400008e 	streq	r0, [r0], #-142	; 0x8e
    200c:	1e000000 	cdpne	0, 0, cr0, cr0, cr0, {0}
    2010:	00000132 	andeq	r0, r0, r2, lsr r1
    2014:	00001757 	andeq	r1, r0, r7, asr r7
    2018:	881f0000 	ldmdahi	pc, {}	; <UNPREDICTABLE>
    201c:	5900008e 	stmdbpl	r0, {r1, r2, r3, r7}
    2020:	20000011 	andcs	r0, r0, r1, lsl r0
    2024:	77045101 	strvc	r5, [r4, -r1, lsl #2]
    2028:	201a3800 	andscs	r3, sl, r0, lsl #16
    202c:	76025001 	strvc	r5, [r2], -r1
    2030:	19000000 	stmdbne	r0, {}	; <UNPREDICTABLE>
    2034:	0000013f 	andeq	r0, r0, pc, lsr r1
    2038:	00008e9c 	muleq	r0, ip, lr
    203c:	0000001c 	andeq	r0, r0, ip, lsl r0
    2040:	05181b01 	ldreq	r1, [r8, #-2817]	; 0xb01
    2044:	6a1a0000 	bvs	68204c <__bss_end__+0x67828c>
    2048:	6a000001 	bvs	2054 <_start-0x5fac>
    204c:	1b000017 	blne	20b0 <_start-0x5f50>
    2050:	0000015f 	andeq	r0, r0, pc, asr r1
    2054:	561b5401 	ldrpl	r5, [fp], -r1, lsl #8
    2058:	08000001 	stmdaeq	r0, {r0}
    205c:	1a400077 	bne	1002240 <__bss_end__+0xff8480>
    2060:	9f1aff08 	svcls	0x001aff08
    2064:	00014b1b 	andeq	r4, r1, fp, lsl fp
    2068:	19560100 	ldmdbne	r6, {r8}^
    206c:	00000111 	andeq	r0, r0, r1, lsl r1
    2070:	00008ea8 	andeq	r8, r0, r8, lsr #29
    2074:	00000010 	andeq	r0, r0, r0, lsl r0
    2078:	04ff1a02 	ldrbteq	r1, [pc], #2562	; 2080 <_start-0x5f80>
    207c:	281a0000 	ldmdacs	sl, {}	; <UNPREDICTABLE>
    2080:	91000001 	tstls	r0, r1
    2084:	1b000017 	blne	20e8 <_start-0x5f18>
    2088:	0000011d 	andeq	r0, r0, sp, lsl r1
    208c:	a81d5401 	ldmdage	sp, {r0, sl, ip, lr}
    2090:	0400008e 	streq	r0, [r0], #-142	; 0x8e
    2094:	1e000000 	cdpne	0, 0, cr0, cr0, cr0, {0}
    2098:	00000132 	andeq	r0, r0, r2, lsr r1
    209c:	000017b8 			; <UNDEFINED> instruction: 0x000017b8
    20a0:	a81f0000 	ldmdage	pc, {}	; <UNPREDICTABLE>
    20a4:	5900008e 	stmdbpl	r0, {r1, r2, r3, r7}
    20a8:	20000011 	andcs	r0, r0, r1, lsl r0
    20ac:	77045101 	strvc	r5, [r4, -r1, lsl #2]
    20b0:	201a4000 	andscs	r4, sl, r0
    20b4:	76025001 	strvc	r5, [r2], -r1
    20b8:	19000000 	stmdbne	r0, {}	; <UNPREDICTABLE>
    20bc:	0000013f 	andeq	r0, r0, pc, lsr r1
    20c0:	00008ebc 			; <UNDEFINED> instruction: 0x00008ebc
    20c4:	0000001c 	andeq	r0, r0, ip, lsl r0
    20c8:	05a21d01 	streq	r1, [r2, #3329]!	; 0xd01
    20cc:	6a1a0000 	bvs	6820d4 <__bss_end__+0x678314>
    20d0:	cb000001 	blgt	20dc <_start-0x5f24>
    20d4:	1b000017 	blne	2138 <_start-0x5ec8>
    20d8:	0000015f 	andeq	r0, r0, pc, asr r1
    20dc:	561b5401 	ldrpl	r5, [fp], -r1, lsl #8
    20e0:	09000001 	stmdbeq	r0, {r0}
    20e4:	20080077 	andcs	r0, r8, r7, ror r0
    20e8:	1aff081a 	bne	fffc4158 <__bss_end__+0xfffba398>
    20ec:	014b1b9f 			; <UNDEFINED> instruction: 0x014b1b9f
    20f0:	56010000 	strpl	r0, [r1], -r0
    20f4:	00011119 	andeq	r1, r1, r9, lsl r1
    20f8:	008ec800 	addeq	ip, lr, r0, lsl #16
    20fc:	00001000 	andeq	r1, r0, r0
    2100:	881a0200 	ldmdahi	sl, {r9}
    2104:	1a000005 	bne	2120 <_start-0x5ee0>
    2108:	00000128 	andeq	r0, r0, r8, lsr #2
    210c:	000017f5 	strdeq	r1, [r0], -r5
    2110:	00011d1b 	andeq	r1, r1, fp, lsl sp
    2114:	1d540100 	ldfnee	f0, [r4, #-0]
    2118:	00008ec8 	andeq	r8, r0, r8, asr #29
    211c:	00000004 	andeq	r0, r0, r4
    2120:	0001321e 	andeq	r3, r1, lr, lsl r2
    2124:	00181f00 	andseq	r1, r8, r0, lsl #30
    2128:	1f000000 	svcne	0x00000000
    212c:	00008ec8 	andeq	r8, r0, r8, asr #29
    2130:	00001159 	andeq	r1, r0, r9, asr r1
    2134:	05510120 	ldrbeq	r0, [r1, #-288]	; 0x120
    2138:	20080077 	andcs	r0, r8, r7, ror r0
    213c:	5001201a 	andpl	r2, r1, sl, lsl r0
    2140:	00007602 	andeq	r7, r0, r2, lsl #12
    2144:	013f1900 	teqeq	pc, r0, lsl #18
    2148:	8edc0000 	cdphi	0, 13, cr0, cr12, cr0, {0}
    214c:	001c0000 	andseq	r0, ip, r0
    2150:	1f010000 	svcne	0x00010000
    2154:	0000062c 	andeq	r0, r0, ip, lsr #12
    2158:	00016a1a 	andeq	r6, r1, sl, lsl sl
    215c:	00183200 	andseq	r3, r8, r0, lsl #4
    2160:	015f1b00 	cmpeq	pc, r0, lsl #22
    2164:	54010000 	strpl	r0, [r1], #-0
    2168:	0001561b 	andeq	r5, r1, fp, lsl r6
    216c:	00770900 	rsbseq	r0, r7, r0, lsl #18
    2170:	081a4008 	ldmdaeq	sl, {r3, lr}
    2174:	1b9f1aff 	blne	fe7c8d78 <__bss_end__+0xfe7befb8>
    2178:	0000014b 	andeq	r0, r0, fp, asr #2
    217c:	11195601 	tstne	r9, r1, lsl #12
    2180:	e8000001 	stmda	r0, {r0}
    2184:	1000008e 	andne	r0, r0, lr, lsl #1
    2188:	02000000 	andeq	r0, r0, #0
    218c:	0006121a 	andeq	r1, r6, sl, lsl r2
    2190:	01281a00 	teqeq	r8, r0, lsl #20
    2194:	18540000 	ldmdane	r4, {}^	; <UNPREDICTABLE>
    2198:	1d1b0000 	ldcne	0, cr0, [fp, #-0]
    219c:	01000001 	tsteq	r0, r1
    21a0:	8ee81d54 	mcrhi	13, 7, r1, cr8, cr4, {2}
    21a4:	00040000 	andeq	r0, r4, r0
    21a8:	321e0000 	andscc	r0, lr, #0
    21ac:	76000001 	strvc	r0, [r0], -r1
    21b0:	00000018 	andeq	r0, r0, r8, lsl r0
    21b4:	8ee81f00 	cdphi	15, 14, cr1, cr8, cr0, {0}
    21b8:	11590000 	cmpne	r9, r0
    21bc:	01200000 	teqeq	r0, r0
    21c0:	00770551 	rsbseq	r0, r7, r1, asr r5
    21c4:	201a4008 	andscs	r4, sl, r8
    21c8:	76025001 	strvc	r5, [r2], -r1
    21cc:	19000000 	stmdbne	r0, {}	; <UNPREDICTABLE>
    21d0:	0000013f 	andeq	r0, r0, pc, lsr r1
    21d4:	00008efc 	strdeq	r8, [r0], -ip
    21d8:	0000001c 	andeq	r0, r0, ip, lsl r0
    21dc:	06ac2101 	strteq	r2, [ip], r1, lsl #2
    21e0:	6a1b0000 	bvs	6c21e8 <__bss_end__+0x6b8428>
    21e4:	01000001 	tsteq	r0, r1
    21e8:	015f1b58 	cmpeq	pc, r8, asr fp	; <UNPREDICTABLE>
    21ec:	54010000 	strpl	r0, [r1], #-0
    21f0:	0001561a 	andeq	r5, r1, sl, lsl r6
    21f4:	00188900 	andseq	r8, r8, r0, lsl #18
    21f8:	014b1b00 	cmpeq	fp, r0, lsl #22
    21fc:	56010000 	strpl	r0, [r1], -r0
    2200:	00011119 	andeq	r1, r1, r9, lsl r1
    2204:	008f0800 	addeq	r0, pc, r0, lsl #16
    2208:	00001000 	andeq	r1, r0, r0
    220c:	921a0200 	andsls	r0, sl, #0, 4
    2210:	1b000006 	blne	2230 <_start-0x5dd0>
    2214:	00000128 	andeq	r0, r0, r8, lsr #2
    2218:	1d1b5801 	ldcne	8, cr5, [fp, #-4]
    221c:	01000001 	tsteq	r0, r1
    2220:	8f081d54 	svchi	0x00081d54
    2224:	00040000 	andeq	r0, r4, r0
    2228:	321e0000 	andscc	r0, lr, #0
    222c:	bc000001 	stclt	0, cr0, [r0], {1}
    2230:	00000018 	andeq	r0, r0, r8, lsl r0
    2234:	8f081f00 	svchi	0x00081f00
    2238:	11590000 	cmpne	r9, r0
    223c:	01200000 	teqeq	r0, r0
    2240:	00770551 	rsbseq	r0, r7, r1, asr r5
    2244:	201a8008 	andscs	r8, sl, r8
    2248:	76025001 	strvc	r5, [r2], -r1
    224c:	21000000 	mrscs	r0, (UNDEF: 0)
    2250:	0000013f 	andeq	r0, r0, pc, lsr r1
    2254:	00008f1c 	andeq	r8, r0, ip, lsl pc
    2258:	0000001c 	andeq	r0, r0, ip, lsl r0
    225c:	6a1b2301 	bvs	6cae68 <__bss_end__+0x6c10a8>
    2260:	01000001 	tsteq	r0, r1
    2264:	015f1b55 	cmpeq	pc, r5, asr fp	; <UNPREDICTABLE>
    2268:	54010000 	strpl	r0, [r1], #-0
    226c:	0001561c 	andeq	r5, r1, ip, lsl r6
    2270:	4b1b0100 	blmi	6c2678 <__bss_end__+0x6b88b8>
    2274:	01000001 	tsteq	r0, r1
    2278:	01111956 	tsteq	r1, r6, asr r9
    227c:	8f280000 	svchi	0x00280000
    2280:	00100000 	andseq	r0, r0, r0
    2284:	1a020000 	bne	8228c <__bss_end__+0x784cc>
    2288:	0000070b 	andeq	r0, r0, fp, lsl #14
    228c:	0001281b 	andeq	r2, r1, fp, lsl r8
    2290:	1b550100 	blne	1542698 <__bss_end__+0x15388d8>
    2294:	0000011d 	andeq	r0, r0, sp, lsl r1
    2298:	281d5401 	ldmdacs	sp, {r0, sl, ip, lr}
    229c:	0400008f 	streq	r0, [r0], #-143	; 0x8f
    22a0:	1e000000 	cdpne	0, 0, cr0, cr0, cr0, {0}
    22a4:	00000132 	andeq	r0, r0, r2, lsr r1
    22a8:	000018cf 	andeq	r1, r0, pc, asr #17
    22ac:	281f0000 	ldmdacs	pc, {}	; <UNPREDICTABLE>
    22b0:	5900008f 	stmdbpl	r0, {r0, r1, r2, r3, r7}
    22b4:	20000011 	andcs	r0, r0, r1, lsl r0
    22b8:	31015101 	tstcc	r1, r1, lsl #2
    22bc:	02500120 	subseq	r0, r0, #32, 2
    22c0:	00000076 	andeq	r0, r0, r6, ror r0
    22c4:	d9040600 	stmdble	r4, {r9, sl}
    22c8:	22000000 	andcs	r0, r0, #0
    22cc:	00000846 	andeq	r0, r0, r6, asr #16
    22d0:	00252701 	eoreq	r2, r5, r1, lsl #14
    22d4:	62030000 	andvs	r0, r3, #0
    22d8:	0f000007 	svceq	0x00000007
    22dc:	01007872 	tsteq	r0, r2, ror r8
    22e0:	00002527 	andeq	r2, r0, r7, lsr #10
    22e4:	00760f00 	rsbseq	r0, r6, r0, lsl #30
    22e8:	00252701 	eoreq	r2, r5, r1, lsl #14
    22ec:	d30e0000 	movwle	r0, #57344	; 0xe000
    22f0:	01000007 	tsteq	r0, r7
    22f4:	00002c27 	andeq	r2, r0, r7, lsr #24
    22f8:	03a91100 			; <UNDEFINED> instruction: 0x03a91100
    22fc:	28010000 	stmdacs	r1, {}	; <UNPREDICTABLE>
    2300:	0000002c 	andeq	r0, r0, ip, lsr #32
    2304:	07742300 	ldrbeq	r2, [r4, -r0, lsl #6]!
    2308:	34010000 	strcc	r0, [r1], #-0
    230c:	00000025 	andeq	r0, r0, r5, lsr #32
    2310:	00008f3c 	andeq	r8, r0, ip, lsr pc
    2314:	000001c8 	andeq	r0, r0, r8, asr #3
    2318:	0b1e9c01 	bleq	7a9324 <__bss_end__+0x79f564>
    231c:	5c130000 	ldcpl	0, cr0, [r3], {-0}
    2320:	01000003 	tsteq	r0, r3
    2324:	00072234 	andeq	r2, r7, r4, lsr r2
    2328:	0018e200 	andseq	lr, r8, r0, lsl #4
    232c:	07d31300 	ldrbeq	r1, [r3, r0, lsl #6]
    2330:	34010000 	strcc	r0, [r1], #-0
    2334:	00000025 	andeq	r0, r0, r5, lsr #32
    2338:	00001927 	andeq	r1, r0, r7, lsr #18
    233c:	00787215 	rsbseq	r7, r8, r5, lsl r2
    2340:	00253501 	eoreq	r3, r5, r1, lsl #10
    2344:	55010000 	strpl	r0, [r1, #-0]
    2348:	01007316 	tsteq	r0, r6, lsl r3
    234c:	00002c3c 	andeq	r2, r0, ip, lsr ip
    2350:	00194500 	andseq	r4, r9, r0, lsl #10
    2354:	00751600 	rsbseq	r1, r5, r0, lsl #12
    2358:	00683f01 	rsbeq	r3, r8, r1, lsl #30
    235c:	19580000 	ldmdbne	r8, {}^	; <UNPREDICTABLE>
    2360:	6e160000 	cdpvs	0, 1, cr0, cr6, cr0, {0}
    2364:	2c400100 	stfcse	f0, [r0], {-0}
    2368:	6b000000 	blvs	2370 <_start-0x5c90>
    236c:	16000019 			; <UNDEFINED> instruction: 0x16000019
    2370:	41010063 	tstmi	r1, r3, rrx
    2374:	0000002c 	andeq	r0, r0, ip, lsr #32
    2378:	00001982 	andeq	r1, r0, r2, lsl #19
    237c:	00072819 	andeq	r2, r7, r9, lsl r8
    2380:	008f5000 	addeq	r5, pc, r0
    2384:	00003400 	andeq	r3, r0, r0, lsl #8
    2388:	3c380100 	ldfccs	f0, [r8], #-0
    238c:	1a000008 	bne	23b4 <_start-0x5c4c>
    2390:	0000074b 	andeq	r0, r0, fp, asr #14
    2394:	000019ac 	andeq	r1, r0, ip, lsr #19
    2398:	0007421c 	andeq	r4, r7, ip, lsl r2
    239c:	381b0000 	ldmdacc	fp, {}	; <UNPREDICTABLE>
    23a0:	01000007 	tsteq	r0, r7
    23a4:	8f501d55 	svchi	0x00501d55
    23a8:	00340000 	eorseq	r0, r4, r0
    23ac:	561e0000 	ldrpl	r0, [lr], -r0
    23b0:	ca000007 	bgt	23d4 <_start-0x5c2c>
    23b4:	24000019 	strcs	r0, [r0], #-25
    23b8:	00008f54 	andeq	r8, r0, r4, asr pc
    23bc:	0000116f 	andeq	r1, r0, pc, ror #2
    23c0:	008f6025 	addeq	r6, pc, r5, lsr #32
    23c4:	00117a00 	andseq	r7, r1, r0, lsl #20
    23c8:	00083100 	andeq	r3, r8, r0, lsl #2
    23cc:	50012000 	andpl	r2, r1, r0
    23d0:	00007502 	andeq	r7, r0, r2, lsl #10
    23d4:	008f6c24 	addeq	r6, pc, r4, lsr #24
    23d8:	00116f00 	andseq	r6, r1, r0, lsl #30
    23dc:	17000000 	strne	r0, [r0, -r0]
    23e0:	00008f8c 	andeq	r8, r0, ip, lsl #31
    23e4:	00000004 	andeq	r0, r0, r4
    23e8:	00000859 	andeq	r0, r0, r9, asr r8
    23ec:	00010326 	andeq	r0, r1, r6, lsr #6
    23f0:	2c3c0100 	ldfcss	f0, [ip], #-0
    23f4:	e8000000 	stmda	r0, {}	; <UNPREDICTABLE>
    23f8:	00000019 	andeq	r0, r0, r9, lsl r0
    23fc:	00011119 	andeq	r1, r1, r9, lsl r1
    2400:	008f9800 	addeq	r9, pc, r0, lsl #16
    2404:	00001000 	andeq	r1, r0, r0
    2408:	92440100 	subls	r0, r4, #0, 2
    240c:	1a000008 	bne	2434 <_start-0x5bcc>
    2410:	00000128 	andeq	r0, r0, r8, lsr #2
    2414:	000019fb 	strdeq	r1, [r0], -fp
    2418:	00011d1a 	andeq	r1, r1, sl, lsl sp
    241c:	001a2000 	andseq	r2, sl, r0
    2420:	8f981d00 	svchi	0x00981d00
    2424:	00040000 	andeq	r0, r4, r0
    2428:	321e0000 	andscc	r0, lr, #0
    242c:	33000001 	movwcc	r0, #1
    2430:	0000001a 	andeq	r0, r0, sl, lsl r0
    2434:	01111900 	tsteq	r1, r0, lsl #18
    2438:	8fb80000 	svchi	0x00b80000
    243c:	00100000 	andseq	r0, r0, r0
    2440:	48010000 	stmdami	r1, {}	; <UNPREDICTABLE>
    2444:	000008cb 	andeq	r0, r0, fp, asr #17
    2448:	0001281a 	andeq	r2, r1, sl, lsl r8
    244c:	001a4600 	andseq	r4, sl, r0, lsl #12
    2450:	011d1a00 	tsteq	sp, r0, lsl #20
    2454:	1a590000 	bne	164245c <__bss_end__+0x163869c>
    2458:	b81d0000 	ldmdalt	sp, {}	; <UNPREDICTABLE>
    245c:	0400008f 	streq	r0, [r0], #-143	; 0x8f
    2460:	1e000000 	cdpne	0, 0, cr0, cr0, cr0, {0}
    2464:	00000132 	andeq	r0, r0, r2, lsr r1
    2468:	00001a6c 	andeq	r1, r0, ip, ror #20
    246c:	11190000 	tstne	r9, r0
    2470:	dc000001 	stcle	0, cr0, [r0], {1}
    2474:	1000008f 	andne	r0, r0, pc, lsl #1
    2478:	01000000 	mrseq	r0, (UNDEF: 0)
    247c:	0009044b 	andeq	r0, r9, fp, asr #8
    2480:	01281a00 	teqeq	r8, r0, lsl #20
    2484:	1a7f0000 	bne	1fc248c <__bss_end__+0x1fb86cc>
    2488:	1d1a0000 	ldcne	0, cr0, [sl, #-0]
    248c:	92000001 	andls	r0, r0, #1
    2490:	1d00001a 	stcne	0, cr0, [r0, #-104]	; 0xffffff98
    2494:	00008fdc 	ldrdeq	r8, [r0], -ip
    2498:	00000004 	andeq	r0, r0, r4
    249c:	0001321e 	andeq	r3, r1, lr, lsl r2
    24a0:	001aa500 	andseq	sl, sl, r0, lsl #10
    24a4:	19000000 	stmdbne	r0, {}	; <UNPREDICTABLE>
    24a8:	00000111 	andeq	r0, r0, r1, lsl r1
    24ac:	00009000 	andeq	r9, r0, r0
    24b0:	00000010 	andeq	r0, r0, r0, lsl r0
    24b4:	093d4e01 	ldmdbeq	sp!, {r0, r9, sl, fp, lr}
    24b8:	281a0000 	ldmdacs	sl, {}	; <UNPREDICTABLE>
    24bc:	b8000001 	stmdalt	r0, {r0}
    24c0:	1a00001a 	bne	2530 <_start-0x5ad0>
    24c4:	0000011d 	andeq	r0, r0, sp, lsl r1
    24c8:	00001acb 	andeq	r1, r0, fp, asr #21
    24cc:	0090001d 	addseq	r0, r0, sp, lsl r0
    24d0:	00000400 	andeq	r0, r0, r0, lsl #8
    24d4:	01321e00 	teqeq	r2, r0, lsl #28
    24d8:	1ade0000 	bne	ff7824e0 <__bss_end__+0xff778720>
    24dc:	00000000 	andeq	r0, r0, r0
    24e0:	00011119 	andeq	r1, r1, r9, lsl r1
    24e4:	00902400 	addseq	r2, r0, r0, lsl #8
    24e8:	00001000 	andeq	r1, r0, r0
    24ec:	76510100 	ldrbvc	r0, [r1], -r0, lsl #2
    24f0:	1a000009 	bne	251c <_start-0x5ae4>
    24f4:	00000128 	andeq	r0, r0, r8, lsr #2
    24f8:	00001af1 	strdeq	r1, [r0], -r1	; <UNPREDICTABLE>
    24fc:	00011d1a 	andeq	r1, r1, sl, lsl sp
    2500:	001b0400 	andseq	r0, fp, r0, lsl #8
    2504:	90241d00 	eorls	r1, r4, r0, lsl #26
    2508:	00040000 	andeq	r0, r4, r0
    250c:	321e0000 	andscc	r0, lr, #0
    2510:	17000001 	strne	r0, [r0, -r1]
    2514:	0000001b 	andeq	r0, r0, fp, lsl r0
    2518:	01111900 	tsteq	r1, r0, lsl #18
    251c:	90480000 	subls	r0, r8, r0
    2520:	00100000 	andseq	r0, r0, r0
    2524:	54010000 	strpl	r0, [r1], #-0
    2528:	000009af 	andeq	r0, r0, pc, lsr #19
    252c:	0001281a 	andeq	r2, r1, sl, lsl r8
    2530:	001b2a00 	andseq	r2, fp, r0, lsl #20
    2534:	011d1a00 	tsteq	sp, r0, lsl #20
    2538:	1b3d0000 	blne	f42540 <__bss_end__+0xf38780>
    253c:	481d0000 	ldmdami	sp, {}	; <UNPREDICTABLE>
    2540:	04000090 	streq	r0, [r0], #-144	; 0x90
    2544:	1e000000 	cdpne	0, 0, cr0, cr0, cr0, {0}
    2548:	00000132 	andeq	r0, r0, r2, lsr r1
    254c:	00001b50 	andeq	r1, r0, r0, asr fp
    2550:	11190000 	tstne	r9, r0
    2554:	6c000001 	stcvs	0, cr0, [r0], {1}
    2558:	10000090 	mulne	r0, r0, r0
    255c:	01000000 	mrseq	r0, (UNDEF: 0)
    2560:	0009e857 	andeq	lr, r9, r7, asr r8
    2564:	01281a00 	teqeq	r8, r0, lsl #20
    2568:	1b630000 	blne	18c2570 <__bss_end__+0x18b87b0>
    256c:	1d1a0000 	ldcne	0, cr0, [sl, #-0]
    2570:	76000001 	strvc	r0, [r0], -r1
    2574:	1d00001b 	stcne	0, cr0, [r0, #-108]	; 0xffffff94
    2578:	0000906c 	andeq	r9, r0, ip, rrx
    257c:	00000004 	andeq	r0, r0, r4
    2580:	0001321e 	andeq	r3, r1, lr, lsl r2
    2584:	001b8900 	andseq	r8, fp, r0, lsl #18
    2588:	19000000 	stmdbne	r0, {}	; <UNPREDICTABLE>
    258c:	00000111 	andeq	r0, r0, r1, lsl r1
    2590:	00009090 	muleq	r0, r0, r0
    2594:	00000010 	andeq	r0, r0, r0, lsl r0
    2598:	0a1d5a01 	beq	758da4 <__bss_end__+0x74efe4>
    259c:	281a0000 	ldmdacs	sl, {}	; <UNPREDICTABLE>
    25a0:	9c000001 	stcls	0, cr0, [r0], {1}
    25a4:	2700001b 	smladcs	r0, fp, r0, r0
    25a8:	0000011d 	andeq	r0, r0, sp, lsl r1
    25ac:	0090901d 	addseq	r9, r0, sp, lsl r0
    25b0:	00000400 	andeq	r0, r0, r0, lsl #8
    25b4:	01321e00 	teqeq	r2, r0, lsl #28
    25b8:	1baf0000 	blne	febc25c0 <__bss_end__+0xfebb8800>
    25bc:	00000000 	andeq	r0, r0, r0
    25c0:	00072819 	andeq	r2, r7, r9, lsl r8
    25c4:	0090b000 	addseq	fp, r0, r0
    25c8:	00003400 	andeq	r3, r0, r0, lsl #8
    25cc:	81610100 	cmnhi	r1, r0, lsl #2
    25d0:	2700000a 	strcs	r0, [r0, -sl]
    25d4:	0000074b 	andeq	r0, r0, fp, asr #14
    25d8:	0007421a 	andeq	r4, r7, sl, lsl r2
    25dc:	001bc200 	andseq	ip, fp, r0, lsl #4
    25e0:	07381a00 	ldreq	r1, [r8, -r0, lsl #20]!
    25e4:	1be20000 	blne	ff8825ec <__bss_end__+0xff87882c>
    25e8:	b01d0000 	andslt	r0, sp, r0
    25ec:	34000090 	strcc	r0, [r0], #-144	; 0x90
    25f0:	1e000000 	cdpne	0, 0, cr0, cr0, cr0, {0}
    25f4:	00000756 	andeq	r0, r0, r6, asr r7
    25f8:	00001c00 	andeq	r1, r0, r0, lsl #24
    25fc:	0090b424 	addseq	fp, r0, r4, lsr #8
    2600:	00116f00 	andseq	r6, r1, r0, lsl #30
    2604:	90c02500 	sbcls	r2, r0, r0, lsl #10
    2608:	117a0000 	cmnne	sl, r0
    260c:	0a760000 	beq	1d82614 <__bss_end__+0x1d78854>
    2610:	01200000 	teqeq	r0, r0
    2614:	00750250 	rsbseq	r0, r5, r0, asr r2
    2618:	90cc2400 	sbcls	r2, ip, r0, lsl #8
    261c:	116f0000 	cmnne	pc, r0
    2620:	00000000 	andeq	r0, r0, r0
    2624:	008fb425 	addeq	fp, pc, r5, lsr #8
    2628:	00117a00 	andseq	r7, r1, r0, lsl #20
    262c:	000a9500 	andeq	r9, sl, r0, lsl #10
    2630:	50012000 	andpl	r2, r1, r0
    2634:	00007502 	andeq	r7, r0, r2, lsl #10
    2638:	008fd425 	addeq	sp, pc, r5, lsr #8
    263c:	00117a00 	andseq	r7, r1, r0, lsl #20
    2640:	000aa900 	andeq	sl, sl, r0, lsl #18
    2644:	50012000 	andpl	r2, r1, r0
    2648:	00007502 	andeq	r7, r0, r2, lsl #10
    264c:	008ff825 	addeq	pc, pc, r5, lsr #16
    2650:	00117a00 	andseq	r7, r1, r0, lsl #20
    2654:	000abd00 	andeq	fp, sl, r0, lsl #26
    2658:	50012000 	andpl	r2, r1, r0
    265c:	00007502 	andeq	r7, r0, r2, lsl #10
    2660:	00901c25 	addseq	r1, r0, r5, lsr #24
    2664:	00117a00 	andseq	r7, r1, r0, lsl #20
    2668:	000ad100 	andeq	sp, sl, r0, lsl #2
    266c:	50012000 	andpl	r2, r1, r0
    2670:	00007502 	andeq	r7, r0, r2, lsl #10
    2674:	00904025 	addseq	r4, r0, r5, lsr #32
    2678:	00117a00 	andseq	r7, r1, r0, lsl #20
    267c:	000ae500 	andeq	lr, sl, r0, lsl #10
    2680:	50012000 	andpl	r2, r1, r0
    2684:	00007502 	andeq	r7, r0, r2, lsl #10
    2688:	00906425 	addseq	r6, r0, r5, lsr #8
    268c:	00117a00 	andseq	r7, r1, r0, lsl #20
    2690:	000af900 	andeq	pc, sl, r0, lsl #18
    2694:	50012000 	andpl	r2, r1, r0
    2698:	00007502 	andeq	r7, r0, r2, lsl #10
    269c:	00908825 	addseq	r8, r0, r5, lsr #16
    26a0:	00117a00 	andseq	r7, r1, r0, lsl #20
    26a4:	000b0d00 	andeq	r0, fp, r0, lsl #26
    26a8:	50012000 	andpl	r2, r1, r0
    26ac:	00007502 	andeq	r7, r0, r2, lsl #10
    26b0:	0090a81f 	addseq	sl, r0, pc, lsl r8
    26b4:	00117a00 	andseq	r7, r1, r0, lsl #20
    26b8:	50012000 	andpl	r2, r1, r0
    26bc:	00007502 	andeq	r7, r0, r2, lsl #10
    26c0:	07892300 	streq	r2, [r9, r0, lsl #6]
    26c4:	6c010000 	stcvs	0, cr0, [r1], {-0}
    26c8:	00000025 	andeq	r0, r0, r5, lsr #32
    26cc:	00009104 	andeq	r9, r0, r4, lsl #2
    26d0:	000000a4 	andeq	r0, r0, r4, lsr #1
    26d4:	0c0c9c01 	stceq	12, cr9, [ip], {1}
    26d8:	75140000 	ldrvc	r0, [r4, #-0]
    26dc:	226c0100 	rsbcs	r0, ip, #0, 2
    26e0:	1e000007 	cdpne	0, 0, cr0, cr0, cr7, {0}
    26e4:	1400001c 	strne	r0, [r0], #-28
    26e8:	00667562 	rsbeq	r7, r6, r2, ror #10
    26ec:	0c0c6c01 	stceq	12, cr6, [ip], {1}
    26f0:	1c600000 	stclne	0, cr0, [r0], #-0
    26f4:	1b130000 	blne	4c26fc <__bss_end__+0x4b893c>
    26f8:	01000008 	tsteq	r0, r8
    26fc:	0000686c 	andeq	r6, r0, ip, ror #16
    2700:	001ca200 	andseq	sl, ip, r0, lsl #4
    2704:	6e651400 	cdpvs	4, 6, cr1, cr5, cr0, {0}
    2708:	6c010064 	stcvs	0, cr0, [r1], {100}	; 0x64
    270c:	0000004f 	andeq	r0, r0, pc, asr #32
    2710:	00001ce9 	andeq	r1, r0, r9, ror #25
    2714:	00082228 	andeq	r2, r8, r8, lsr #4
    2718:	686c0100 	stmdavs	ip!, {r8}^
    271c:	02000000 	andeq	r0, r0, #0
    2720:	89290091 	stmdbhi	r9!, {r0, r4, r7}
    2724:	22000002 	andcs	r0, r0, #2
    2728:	0500000c 	streq	r0, [r0, #-12]
    272c:	00989403 	addseq	r9, r8, r3, lsl #8
    2730:	00691600 	rsbeq	r1, r9, r0, lsl #12
    2734:	00257001 	eoreq	r7, r5, r1
    2738:	1d230000 	stcne	0, cr0, [r3, #-0]
    273c:	fe260000 	cdp2	0, 2, cr0, cr6, cr0, {0}
    2740:	01000007 	tsteq	r0, r7
    2744:	00004f71 	andeq	r4, r0, r1, ror pc
    2748:	001d4d00 	andseq	r4, sp, r0, lsl #26
    274c:	91282400 	teqls	r8, r0, lsl #8
    2750:	118f0000 	orrne	r0, pc, r0
    2754:	44250000 	strtmi	r0, [r5], #-0
    2758:	96000091 			; <UNDEFINED> instruction: 0x96000091
    275c:	ec000011 	stc	0, cr0, [r0], {17}
    2760:	2000000b 	andcs	r0, r0, fp
    2764:	08025301 	stmdaeq	r2, {r0, r8, r9, ip, lr}
    2768:	5201206d 	andpl	r2, r1, #109	; 0x6d
    276c:	98940305 	ldmls	r4, {r0, r2, r8, r9}
    2770:	01200000 	teqeq	r0, r0
    2774:	0c030551 	cfstr32eq	mvfx0, [r3], {81}	; 0x51
    2778:	20000099 	mulcs	r0, r9, r0
    277c:	03055001 	movweq	r5, #20481	; 0x5001
    2780:	00009794 	muleq	r0, r4, r7
    2784:	007d0220 	rsbseq	r0, sp, r0, lsr #4
    2788:	99200305 	stmdbls	r0!, {r0, r2, r8, r9}
    278c:	24000000 	strcs	r0, [r0], #-0
    2790:	00009148 	andeq	r9, r0, r8, asr #2
    2794:	000011ac 	andeq	r1, r0, ip, lsr #3
    2798:	0091641f 	addseq	r6, r1, pc, lsl r4
    279c:	00076200 	andeq	r6, r7, r0, lsl #4
    27a0:	51012000 	mrspl	r2, (UNDEF: 1)
    27a4:	20007a02 	andcs	r7, r0, r2, lsl #20
    27a8:	78025001 	stmdavc	r2, {r0, ip, lr}
    27ac:	06000000 	streq	r0, [r0], -r0
    27b0:	00004f04 	andeq	r4, r0, r4, lsl #30
    27b4:	00902a00 	addseq	r2, r0, r0, lsl #20
    27b8:	0c220000 	stceq	0, cr0, [r2], #-0
    27bc:	812b0000 	teqhi	fp, r0
    27c0:	12000000 	andne	r0, r0, #0
    27c4:	0c120700 	ldceq	7, cr0, [r2], {-0}
    27c8:	06230000 	strteq	r0, [r3], -r0
    27cc:	01000008 	tsteq	r0, r8
    27d0:	00002580 	andeq	r2, r0, r0, lsl #11
    27d4:	0091a800 	addseq	sl, r1, r0, lsl #16
    27d8:	00009000 	andeq	r9, r0, r0
    27dc:	f89c0100 			; <UNDEFINED> instruction: 0xf89c0100
    27e0:	1400000c 	strne	r0, [r0], #-12
    27e4:	80010075 	andhi	r0, r1, r5, ror r0
    27e8:	00000722 	andeq	r0, r0, r2, lsr #14
    27ec:	00001d60 	andeq	r1, r0, r0, ror #26
    27f0:	66756214 			; <UNDEFINED> instruction: 0x66756214
    27f4:	0c800100 	stfeqs	f0, [r0], {0}
    27f8:	a200000c 	andge	r0, r0, #12
    27fc:	1300001d 	movwne	r0, #29
    2800:	0000081b 	andeq	r0, r0, fp, lsl r8
    2804:	00688101 	rsbeq	r8, r8, r1, lsl #2
    2808:	1de40000 	stclne	0, cr0, [r4]
    280c:	22130000 	andscs	r0, r3, #0
    2810:	01000008 	tsteq	r0, r8
    2814:	00006881 	andeq	r6, r0, r1, lsl #17
    2818:	001e2b00 	andseq	r2, lr, r0, lsl #22
    281c:	02892900 	addeq	r2, r9, #0, 18
    2820:	0d080000 	stceq	0, cr0, [r8, #-0]
    2824:	03050000 	movweq	r0, #20480	; 0x5000
    2828:	000098a8 	andeq	r9, r0, r8, lsr #17
    282c:	01006916 	tsteq	r0, r6, lsl r9
    2830:	00002586 	andeq	r2, r0, r6, lsl #11
    2834:	001e6d00 	andseq	r6, lr, r0, lsl #26
    2838:	91c82400 	bicls	r2, r8, r0, lsl #8
    283c:	118f0000 	orrne	r0, pc, r0
    2840:	e4250000 	strt	r0, [r5], #-0
    2844:	96000091 			; <UNDEFINED> instruction: 0x96000091
    2848:	d8000011 	stmdale	r0, {r0, r4}
    284c:	2000000c 	andcs	r0, r0, ip
    2850:	08025301 	stmdaeq	r2, {r0, r8, r9, ip, lr}
    2854:	52012083 	andpl	r2, r1, #131	; 0x83
    2858:	98a80305 	stmials	r8!, {r0, r2, r8, r9}
    285c:	01200000 	teqeq	r0, r0
    2860:	0c030551 	cfstr32eq	mvfx0, [r3], {81}	; 0x51
    2864:	20000099 	mulcs	r0, r9, r0
    2868:	03055001 	movweq	r5, #20481	; 0x5001
    286c:	00009794 	muleq	r0, r4, r7
    2870:	007d0220 	rsbseq	r0, sp, r0, lsr #4
    2874:	99200305 	stmdbls	r0!, {r0, r2, r8, r9}
    2878:	24000000 	strcs	r0, [r0], #-0
    287c:	000091e8 	andeq	r9, r0, r8, ror #3
    2880:	000011ac 	andeq	r1, r0, ip, lsr #3
    2884:	0092041f 	addseq	r0, r2, pc, lsl r4
    2888:	00076200 	andeq	r6, r7, r0, lsl #4
    288c:	51012000 	mrspl	r2, (UNDEF: 1)
    2890:	20007802 	andcs	r7, r0, r2, lsl #16
    2894:	77025001 	strvc	r5, [r2, -r1]
    2898:	2a000000 	bcs	28a0 <_start-0x5760>
    289c:	00000090 	muleq	r0, r0, r0
    28a0:	00000d08 	andeq	r0, r0, r8, lsl #26
    28a4:	0000812b 	andeq	r8, r0, fp, lsr #2
    28a8:	07001400 	streq	r1, [r0, -r0, lsl #8]
    28ac:	00000cf8 	strdeq	r0, [r0], -r8
    28b0:	0007bf23 	andeq	fp, r7, r3, lsr #30
    28b4:	d9930100 	ldmible	r3, {r8}
    28b8:	38000000 	stmdacc	r0, {}	; <UNPREDICTABLE>
    28bc:	d4000092 	strle	r0, [r0], #-146	; 0x92
    28c0:	01000000 	mrseq	r0, (UNDEF: 0)
    28c4:	000e329c 	muleq	lr, ip, r2
    28c8:	78741400 	ldmdavc	r4!, {sl, ip}^
    28cc:	4f930100 	svcmi	0x00930100
    28d0:	97000000 	strls	r0, [r0, -r0]
    28d4:	1400001e 	strne	r0, [r0], #-30
    28d8:	01007872 	tsteq	r0, r2, ror r8
    28dc:	00004f93 	muleq	r0, r3, pc	; <UNPREDICTABLE>
    28e0:	001eb800 	andseq	fp, lr, r0, lsl #16
    28e4:	03951300 	orrseq	r1, r5, #0, 6
    28e8:	93010000 	movwls	r0, #4096	; 0x1000
    28ec:	00000068 	andeq	r0, r0, r8, rrx
    28f0:	00001ed9 	ldrdeq	r1, [r0], -r9
    28f4:	00075828 	andeq	r5, r7, r8, lsr #16
    28f8:	68930100 	ldmvs	r3, {r8}
    28fc:	02000000 	andeq	r0, r0, #0
    2900:	6d2c0091 	stcvs	0, cr0, [ip, #-580]!	; 0xfffffdbc
    2904:	01007a68 	tsteq	r0, r8, ror #20
    2908:	00002c9b 	muleq	r0, fp, ip
    290c:	b9270000 	stmdblt	r7!, {}	; <UNPREDICTABLE>
    2910:	07a92629 	streq	r2, [r9, r9, lsr #12]!
    2914:	9c010000 	stcls	0, cr0, [r1], {-0}
    2918:	0000002c 	andeq	r0, r0, ip, lsr #32
    291c:	00001f03 	andeq	r1, r0, r3, lsl #30
    2920:	00028929 	andeq	r8, r2, r9, lsr #18
    2924:	000e4200 	andeq	r4, lr, r0, lsl #4
    2928:	c0030500 	andgt	r0, r3, r0, lsl #10
    292c:	17000098 			; <UNDEFINED> instruction: 0x17000098
    2930:	00009264 	andeq	r9, r0, r4, ror #4
    2934:	00000008 	andeq	r0, r0, r8
    2938:	00000da5 	andeq	r0, r0, r5, lsr #27
    293c:	006e692d 	rsbeq	r6, lr, sp, lsr #18
    2940:	002c9701 	eoreq	r9, ip, r1, lsl #14
    2944:	00010000 	andeq	r0, r1, r0
    2948:	00925c25 	addseq	r5, r2, r5, lsr #24
    294c:	0011b300 	andseq	fp, r1, r0, lsl #6
    2950:	000db900 	andeq	fp, sp, r0, lsl #18
    2954:	50012000 	andpl	r2, r1, r0
    2958:	00007602 	andeq	r7, r0, r2, lsl #12
    295c:	00926425 	addseq	r6, r2, r5, lsr #8
    2960:	0011c400 	andseq	ip, r1, r0, lsl #8
    2964:	000dcd00 	andeq	ip, sp, r0, lsl #26
    2968:	50012000 	andpl	r2, r1, r0
    296c:	00007802 	andeq	r7, r0, r2, lsl #16
    2970:	00927825 	addseq	r7, r2, r5, lsr #16
    2974:	00115900 	andseq	r5, r1, r0, lsl #18
    2978:	000de600 	andeq	lr, sp, r0, lsl #12
    297c:	51012000 	mrspl	r2, (UNDEF: 1)
    2980:	01203101 	teqeq	r0, r1, lsl #2
    2984:	00760250 	rsbseq	r0, r6, r0, asr r2
    2988:	92bc2400 	adcsls	r2, ip, #0, 8
    298c:	118f0000 	orrne	r0, pc, r0
    2990:	d8250000 	stmdale	r5!, {}	; <UNPREDICTABLE>
    2994:	96000092 			; <UNDEFINED> instruction: 0x96000092
    2998:	28000011 	stmdacs	r0, {r0, r4}
    299c:	2000000e 	andcs	r0, r0, lr
    29a0:	08025301 	stmdaeq	r2, {r0, r8, r9, ip, lr}
    29a4:	5201209d 	andpl	r2, r1, #157	; 0x9d
    29a8:	98c00305 	stmials	r0, {r0, r2, r8, r9}^
    29ac:	01200000 	teqeq	r0, r0
    29b0:	0c030551 	cfstr32eq	mvfx0, [r3], {81}	; 0x51
    29b4:	20000099 	mulcs	r0, r9, r0
    29b8:	03055001 	movweq	r5, #20481	; 0x5001
    29bc:	00009794 	muleq	r0, r4, r7
    29c0:	007d0220 	rsbseq	r0, sp, r0, lsr #4
    29c4:	992c0305 	stmdbls	ip!, {r0, r2, r8, r9}
    29c8:	24000000 	strcs	r0, [r0], #-0
    29cc:	000092dc 	ldrdeq	r9, [r0], -ip
    29d0:	000011ac 	andeq	r1, r0, ip, lsr #3
    29d4:	00902a00 	addseq	r2, r0, r0, lsl #20
    29d8:	0e420000 	cdpeq	0, 4, cr0, cr2, cr0, {0}
    29dc:	812b0000 	teqhi	fp, r0
    29e0:	13000000 	movwne	r0, #0
    29e4:	0e320700 	cdpeq	7, 3, cr0, cr2, cr0, {0}
    29e8:	9c230000 	stcls	0, cr0, [r3], #-0
    29ec:	01000007 	tsteq	r0, r7
    29f0:	000025a9 	andeq	r2, r0, r9, lsr #11
    29f4:	00930c00 	addseq	r0, r3, r0, lsl #24
    29f8:	00003c00 	andeq	r3, r0, r0, lsl #24
    29fc:	ea9c0100 	b	fe702e04 <__bss_end__+0xfe6f9044>
    2a00:	1300000e 	movwne	r0, #14
    2a04:	0000035c 	andeq	r0, r0, ip, asr r3
    2a08:	0722a901 	streq	sl, [r2, -r1, lsl #18]!
    2a0c:	1f310000 	svcne	0x00310000
    2a10:	72160000 	andsvc	r0, r6, #0
    2a14:	01007365 	tsteq	r0, r5, ror #6
    2a18:	000025aa 	andeq	r2, r0, sl, lsr #11
    2a1c:	001f5200 	andseq	r5, pc, r0, lsl #4
    2a20:	02892900 	addeq	r2, r9, #0, 18
    2a24:	0efa0000 	cdpeq	0, 15, cr0, cr10, cr0, {0}
    2a28:	03050000 	movweq	r0, #20480	; 0x5000
    2a2c:	000098d4 	ldrdeq	r9, [r0], -r4
    2a30:	00931825 	addseq	r1, r3, r5, lsr #16
    2a34:	00076200 	andeq	r6, r7, r0, lsl #4
    2a38:	000ea800 	andeq	sl, lr, r0, lsl #16
    2a3c:	51012000 	mrspl	r2, (UNDEF: 1)
    2a40:	20ff0902 	rscscs	r0, pc, r2, lsl #18
    2a44:	f3035001 	vhadd.u8	d5, d3, d1
    2a48:	24005001 	strcs	r5, [r0], #-1
    2a4c:	00009324 	andeq	r9, r0, r4, lsr #6
    2a50:	0000118f 	andeq	r1, r0, pc, lsl #3
    2a54:	00933825 	addseq	r3, r3, r5, lsr #16
    2a58:	00119600 	andseq	r9, r1, r0, lsl #12
    2a5c:	000ee000 	andeq	lr, lr, r0
    2a60:	53012000 	movwpl	r2, #4096	; 0x1000
    2a64:	20ac0802 	adccs	r0, ip, r2, lsl #16
    2a68:	03055201 	movweq	r5, #20993	; 0x5201
    2a6c:	000098d4 	ldrdeq	r9, [r0], -r4
    2a70:	05510120 	ldrbeq	r0, [r1, #-288]	; 0x120
    2a74:	00990c03 	addseq	r0, r9, r3, lsl #24
    2a78:	50012000 	andpl	r2, r1, r0
    2a7c:	99600305 	stmdbls	r0!, {r0, r2, r8, r9}^
    2a80:	24000000 	strcs	r0, [r0], #-0
    2a84:	0000933c 	andeq	r9, r0, ip, lsr r3
    2a88:	000011ac 	andeq	r1, r0, ip, lsr #3
    2a8c:	00902a00 	addseq	r2, r0, r0, lsl #20
    2a90:	0efa0000 	cdpeq	0, 15, cr0, cr10, cr0, {0}
    2a94:	812b0000 	teqhi	fp, r0
    2a98:	0c000000 	stceq	0, cr0, [r0], {-0}
    2a9c:	0eea0700 	cdpeq	7, 14, cr0, cr10, cr0, {0}
    2aa0:	e0120000 	ands	r0, r2, r0
    2aa4:	01000007 	tsteq	r0, r7
    2aa8:	009348b0 			; <UNDEFINED> instruction: 0x009348b0
    2aac:	00002c00 	andeq	r2, r0, r0, lsl #24
    2ab0:	439c0100 	orrsmi	r0, ip, #0, 2
    2ab4:	1300000f 	movwne	r0, #15
    2ab8:	0000035c 	andeq	r0, r0, ip, asr r3
    2abc:	0722b001 	streq	fp, [r2, -r1]!
    2ac0:	1f650000 	svcne	0x00650000
    2ac4:	6d140000 	ldcvs	0, cr0, [r4, #-0]
    2ac8:	01006773 	tsteq	r0, r3, ror r7
    2acc:	000097b0 			; <UNDEFINED> instruction: 0x000097b0
    2ad0:	001f8300 	andseq	r8, pc, r0, lsl #6
    2ad4:	93601f00 	cmnls	r0, #0, 30
    2ad8:	01760000 	cmneq	r6, r0
    2adc:	01200000 	teqeq	r0, r0
    2ae0:	00750250 	rsbseq	r0, r5, r0, asr r2
    2ae4:	61230000 	teqvs	r3, r0
    2ae8:	01000003 	tsteq	r0, r3
    2aec:	000025b9 			; <UNDEFINED> instruction: 0x000025b9
    2af0:	00937400 	addseq	r7, r3, r0, lsl #8
    2af4:	00009000 	andeq	r9, r0, r0
    2af8:	419c0100 	orrsmi	r0, ip, r0, lsl #2
    2afc:	13000010 	movwne	r0, #16
    2b00:	0000035c 	andeq	r0, r0, ip, asr r3
    2b04:	0722b901 	streq	fp, [r2, -r1, lsl #18]!
    2b08:	1fa10000 	svcne	0x00a10000
    2b0c:	662e0000 	strtvs	r0, [lr], -r0
    2b10:	0100746d 	tsteq	r0, sp, ror #8
    2b14:	000097b9 			; <UNDEFINED> instruction: 0x000097b9
    2b18:	74910200 	ldrvc	r0, [r1], #512	; 0x200
    2b1c:	7562152f 	strbvc	r1, [r2, #-1327]!	; 0x52f
    2b20:	ba010066 	blt	42cc0 <__bss_end__+0x38f00>
    2b24:	00001041 	andeq	r1, r0, r1, asr #32
    2b28:	7c9c9103 	ldfvcd	f1, [ip], {3}
    2b2c:	00024318 	andeq	r4, r2, r8, lsl r3
    2b30:	06bc0100 	ldrteq	r0, [ip], r0, lsl #2
    2b34:	03000001 	movweq	r0, #1
    2b38:	167c9891 			; <UNDEFINED> instruction: 0x167c9891
    2b3c:	01007a73 	tsteq	r0, r3, ror sl
    2b40:	000025be 			; <UNDEFINED> instruction: 0x000025be
    2b44:	001fcd00 	andseq	ip, pc, r0, lsl #26
    2b48:	02892900 	addeq	r2, r9, #0, 18
    2b4c:	10620000 	rsbne	r0, r2, r0
    2b50:	03050000 	movweq	r0, #20480	; 0x5000
    2b54:	000098e4 	andeq	r9, r0, r4, ror #17
    2b58:	00939c25 	addseq	r9, r3, r5, lsr #24
    2b5c:	0011d500 	andseq	sp, r1, r0, lsl #10
    2b60:	000fde00 	andeq	sp, pc, r0, lsl #28
    2b64:	53012000 	movwpl	r2, #4096	; 0x1000
    2b68:	20589102 	subscs	r9, r8, r2, lsl #2
    2b6c:	91035201 	tstls	r3, r1, lsl #4
    2b70:	01200654 	teqeq	r0, r4, asr r6
    2b74:	cc0a0351 	stcgt	3, cr0, [sl], {81}	; 0x51
    2b78:	50012001 	andpl	r2, r1, r1
    2b7c:	7bfc9103 	blvc	fff26f90 <__bss_end__+0xfff1d1d0>
    2b80:	93b02400 	movsls	r2, #0, 8
    2b84:	118f0000 	orrne	r0, pc, r0
    2b88:	cc250000 	stcgt	0, cr0, [r5], #-0
    2b8c:	96000093 			; <UNDEFINED> instruction: 0x96000093
    2b90:	20000011 	andcs	r0, r0, r1, lsl r0
    2b94:	20000010 	andcs	r0, r0, r0, lsl r0
    2b98:	08025301 	stmdaeq	r2, {r0, r8, r9, ip, lr}
    2b9c:	520120c0 	andpl	r2, r1, #192	; 0xc0
    2ba0:	98e40305 	stmials	r4!, {r0, r2, r8, r9}^
    2ba4:	01200000 	teqeq	r0, r0
    2ba8:	0c030551 	cfstr32eq	mvfx0, [r3], {81}	; 0x51
    2bac:	20000099 	mulcs	r0, r9, r0
    2bb0:	03055001 	movweq	r5, #20481	; 0x5001
    2bb4:	00009794 	muleq	r0, r4, r7
    2bb8:	007d0220 	rsbseq	r0, sp, r0, lsr #4
    2bbc:	99980305 	ldmibls	r8, {r0, r2, r8, r9}
    2bc0:	24000000 	strcs	r0, [r0], #-0
    2bc4:	000093d0 	ldrdeq	r9, [r0], -r0
    2bc8:	000011ac 	andeq	r1, r0, ip, lsr #3
    2bcc:	0093dc1f 	addseq	sp, r3, pc, lsl ip
    2bd0:	000eff00 	andeq	pc, lr, r0, lsl #30
    2bd4:	51012000 	mrspl	r2, (UNDEF: 1)
    2bd8:	7bfc9103 	blvc	fff26fec <__bss_end__+0xfff1d22c>
    2bdc:	02500120 	subseq	r0, r0, #32, 2
    2be0:	00000075 	andeq	r0, r0, r5, ror r0
    2be4:	0000902a 	andeq	r9, r0, sl, lsr #32
    2be8:	00105200 	andseq	r5, r0, r0, lsl #4
    2bec:	00813000 	addeq	r3, r1, r0
    2bf0:	01cb0000 	biceq	r0, fp, r0
    2bf4:	00902a00 	addseq	r2, r0, r0, lsl #20
    2bf8:	10620000 	rsbne	r0, r2, r0
    2bfc:	812b0000 	teqhi	fp, r0
    2c00:	0e000000 	cdpeq	0, 0, cr0, cr0, cr0, {0}
    2c04:	10520700 	subsne	r0, r2, r0, lsl #14
    2c08:	2f230000 	svccs	0x00230000
    2c0c:	01000008 	tsteq	r0, r8
    2c10:	000025c5 	andeq	r2, r0, r5, asr #11
    2c14:	00940400 	addseq	r0, r4, r0, lsl #8
    2c18:	00004c00 	andeq	r4, r0, r0, lsl #24
    2c1c:	449c0100 	ldrmi	r0, [ip], #256	; 0x100
    2c20:	14000011 	strne	r0, [r0], #-17
    2c24:	c5010075 	strgt	r0, [r1, #-117]	; 0x75
    2c28:	00000722 	andeq	r0, r0, r2, lsr #14
    2c2c:	0000200c 	andeq	r2, r0, ip
    2c30:	66756214 			; <UNDEFINED> instruction: 0x66756214
    2c34:	0cc50100 	stfeqe	f0, [r5], {0}
    2c38:	2d00000c 	stccs	0, cr0, [r0, #-48]	; 0xffffffd0
    2c3c:	13000020 	movwne	r0, #32
    2c40:	0000081b 	andeq	r0, r0, fp, lsl r8
    2c44:	0068c501 	rsbeq	ip, r8, r1, lsl #10
    2c48:	204e0000 	subcs	r0, lr, r0
    2c4c:	65140000 	ldrvs	r0, [r4, #-0]
    2c50:	0100646e 	tsteq	r0, lr, ror #8
    2c54:	00004fc5 	andeq	r4, r0, r5, asr #31
    2c58:	00206f00 	eoreq	r6, r0, r0, lsl #30
    2c5c:	65721600 	ldrbvs	r1, [r2, #-1536]!	; 0x600
    2c60:	c6010073 			; <UNDEFINED> instruction: 0xc6010073
    2c64:	00000025 	andeq	r0, r0, r5, lsr #32
    2c68:	00002090 	muleq	r0, r0, r0
    2c6c:	00028929 	andeq	r8, r2, r9, lsr #18
    2c70:	00115400 	andseq	r5, r1, r0, lsl #8
    2c74:	f4030500 	vst3.8	{d0,d2,d4}, [r3], r0
    2c78:	25000098 	strcs	r0, [r0, #-152]	; 0x98
    2c7c:	00009418 	andeq	r9, r0, r8, lsl r4
    2c80:	00000b1e 	andeq	r0, r0, lr, lsl fp
    2c84:	00001102 	andeq	r1, r0, r2, lsl #2
    2c88:	03520120 	cmpeq	r2, #32, 2
    2c8c:	205201f3 	ldrshcs	r0, [r2], #-19	; 0xffffffed
    2c90:	f3035101 	vrhadd.u8	d5, d3, d1
    2c94:	01205101 	teqeq	r0, r1, lsl #2
    2c98:	01f30350 	mvnseq	r0, r0, asr r3
    2c9c:	7d022050 	stcvc	0, cr2, [r2, #-320]	; 0xfffffec0
    2ca0:	ff090200 			; <UNDEFINED> instruction: 0xff090200
    2ca4:	94242400 	strtls	r2, [r4], #-1024	; 0x400
    2ca8:	118f0000 	orrne	r0, pc, r0
    2cac:	38250000 	stmdacc	r5!, {}	; <UNPREDICTABLE>
    2cb0:	96000094 			; <UNDEFINED> instruction: 0x96000094
    2cb4:	3a000011 	bcc	2d00 <_start-0x5300>
    2cb8:	20000011 	andcs	r0, r0, r1, lsl r0
    2cbc:	08025301 	stmdaeq	r2, {r0, r8, r9, ip, lr}
    2cc0:	520120c8 	andpl	r2, r1, #200	; 0xc8
    2cc4:	98f40305 	ldmls	r4!, {r0, r2, r8, r9}^
    2cc8:	01200000 	teqeq	r0, r0
    2ccc:	0c030551 	cfstr32eq	mvfx0, [r3], {81}	; 0x51
    2cd0:	20000099 	mulcs	r0, r9, r0
    2cd4:	03055001 	movweq	r5, #20481	; 0x5001
    2cd8:	00009960 	andeq	r9, r0, r0, ror #18
    2cdc:	943c2400 	ldrtls	r2, [ip], #-1024	; 0x400
    2ce0:	11ac0000 			; <UNDEFINED> instruction: 0x11ac0000
    2ce4:	2a000000 	bcs	2cec <_start-0x5314>
    2ce8:	00000090 	muleq	r0, r0, r0
    2cec:	00001154 	andeq	r1, r0, r4, asr r1
    2cf0:	0000812b 	andeq	r8, r0, fp, lsr #2
    2cf4:	07001600 	streq	r1, [r0, -r0, lsl #12]
    2cf8:	00001144 	andeq	r1, r0, r4, asr #2
    2cfc:	00000b31 	andeq	r0, r0, r1, lsr fp
    2d00:	6f210600 	svcvs	0x00210600
    2d04:	32000011 	andcc	r0, r0, #17
    2d08:	0000002c 	andeq	r0, r0, ip, lsr #32
    2d0c:	00002c32 	andeq	r2, r0, r2, lsr ip
    2d10:	9e330000 	cdpls	0, 3, cr0, cr3, cr0, {0}
    2d14:	07000004 	streq	r0, [r0, -r4]
    2d18:	00002c57 	andeq	r2, r0, r7, asr ip
    2d1c:	05ea3400 	strbeq	r3, [sl, #1024]!	; 0x400
    2d20:	24060000 	strcs	r0, [r6], #-0
    2d24:	00000025 	andeq	r0, r0, r5, lsr #32
    2d28:	0000118f 	andeq	r1, r0, pc, lsl #3
    2d2c:	00002c32 	andeq	r2, r0, r2, lsr ip
    2d30:	da350000 	ble	d42d38 <__bss_end__+0xd38f78>
    2d34:	07000002 	streq	r0, [r0, -r2]
    2d38:	01ee341e 	mvneq	r3, lr, lsl r4
    2d3c:	29070000 	stmdbcs	r7, {}	; <UNPREDICTABLE>
    2d40:	00000025 	andeq	r0, r0, r5, lsr #32
    2d44:	000011ac 	andeq	r1, r0, ip, lsr #3
    2d48:	00009732 	andeq	r9, r0, r2, lsr r7
    2d4c:	35002f00 	strcc	r2, [r0, #-3840]	; 0xf00
    2d50:	000000a5 	andeq	r0, r0, r5, lsr #1
    2d54:	c5316607 	ldrgt	r6, [r1, #-1543]!	; 0x607
    2d58:	06000000 	streq	r0, [r0], -r0
    2d5c:	0011c41d 	andseq	ip, r1, sp, lsl r4
    2d60:	002c3200 	eoreq	r3, ip, r0, lsl #4
    2d64:	31000000 	mrscc	r0, (UNDEF: 0)
    2d68:	0000066d 	andeq	r0, r0, sp, ror #12
    2d6c:	11d51c06 	bicsne	r1, r5, r6, lsl #24
    2d70:	2c320000 	ldccs	0, cr0, [r2], #-0
    2d74:	00000000 	andeq	r0, r0, r0
    2d78:	0001eb36 	andeq	lr, r1, r6, lsr fp
    2d7c:	25020800 	strcs	r0, [r2, #-2048]	; 0x800
    2d80:	32000000 	andcc	r0, r0, #0
    2d84:	0000008a 	andeq	r0, r0, sl, lsl #1
    2d88:	00002532 	andeq	r2, r0, r2, lsr r5
    2d8c:	00973200 	addseq	r3, r7, r0, lsl #4
    2d90:	06320000 	ldrteq	r0, [r2], -r0
    2d94:	00000001 	andeq	r0, r0, r1
    2d98:	00011300 	andeq	r1, r1, r0, lsl #6
    2d9c:	e2000400 	and	r0, r0, #0, 8
    2da0:	0400000d 	streq	r0, [r0], #-13
    2da4:	00019401 	andeq	r9, r1, r1, lsl #8
    2da8:	08670100 	stmdaeq	r7!, {r8}^
    2dac:	01ff0000 	mvnseq	r0, r0
    2db0:	94b40000 	ldrtls	r0, [r4], #0
    2db4:	003c0000 	eorseq	r0, ip, r0
    2db8:	0c520000 	mraeq	r0, r2, acc0
    2dbc:	04020000 	streq	r0, [r2], #-0
    2dc0:	746e6905 	strbtvc	r6, [lr], #-2309	; 0x905
    2dc4:	07040300 	streq	r0, [r4, -r0, lsl #6]
    2dc8:	000000df 	ldrdeq	r0, [r0], -pc	; <UNPREDICTABLE>
    2dcc:	99060103 	stmdbls	r6, {r0, r1, r8}
    2dd0:	03000000 	movweq	r0, #0
    2dd4:	015f0502 	cmpeq	pc, r2, lsl #10
    2dd8:	04030000 	streq	r0, [r3], #-0
    2ddc:	0000fa05 	andeq	pc, r0, r5, lsl #20
    2de0:	05080300 	streq	r0, [r8, #-768]	; 0x300
    2de4:	000000f5 	strdeq	r0, [r0], -r5
    2de8:	97080103 	strls	r0, [r8, -r3, lsl #2]
    2dec:	03000000 	movweq	r0, #0
    2df0:	00b20702 	adcseq	r0, r2, r2, lsl #14
    2df4:	04030000 	streq	r0, [r3], #-0
    2df8:	0000da07 	andeq	sp, r0, r7, lsl #20
    2dfc:	07080300 	streq	r0, [r8, -r0, lsl #6]
    2e00:	000000d5 	ldrdeq	r0, [r0], -r5
    2e04:	ec070403 	cfstrs	mvf0, [r7], {3}
    2e08:	03000000 	movweq	r0, #0
    2e0c:	00a00801 	adceq	r0, r0, r1, lsl #16
    2e10:	56040000 	strpl	r0, [r4], -r0
    2e14:	01000008 	tsteq	r0, r8
    2e18:	00002503 	andeq	r2, r0, r3, lsl #10
    2e1c:	0094b400 	addseq	fp, r4, r0, lsl #8
    2e20:	00001400 	andeq	r1, r0, r0, lsl #8
    2e24:	b09c0100 	addslt	r0, ip, r0, lsl #2
    2e28:	05000000 	streq	r0, [r0, #-0]
    2e2c:	03010063 	movweq	r0, #4195	; 0x1063
    2e30:	00000025 	andeq	r0, r0, r5, lsr #32
    2e34:	000020ae 	andeq	r2, r0, lr, lsr #1
    2e38:	0094c006 	addseq	ip, r4, r6
    2e3c:	00010900 	andeq	r0, r1, r0, lsl #18
    2e40:	50010700 	andpl	r0, r1, r0, lsl #14
    2e44:	00007402 	andeq	r7, r0, r2, lsl #8
    2e48:	02da0800 	sbcseq	r0, sl, #0, 16
    2e4c:	08010000 	stmdaeq	r1, {}	; <UNPREDICTABLE>
    2e50:	000094c8 	andeq	r9, r0, r8, asr #9
    2e54:	00000018 	andeq	r0, r0, r8, lsl r0
    2e58:	76099c01 	strvc	r9, [r9], -r1, lsl #24
    2e5c:	01000008 	tsteq	r0, r8
    2e60:	0094e00b 	addseq	lr, r4, fp
    2e64:	00001000 	andeq	r1, r0, r0
    2e68:	e39c0100 	orrs	r0, ip, #0, 2
    2e6c:	0a000000 	beq	2e74 <_start-0x518c>
    2e70:	01007066 	tsteq	r0, r6, rrx
    2e74:	0000f20b 	andeq	pc, r0, fp, lsl #4
    2e78:	00500100 	subseq	r0, r0, r0, lsl #2
    2e7c:	0000250b 	andeq	r2, r0, fp, lsl #10
    2e80:	0000f200 	andeq	pc, r0, r0, lsl #4
    2e84:	00250c00 	eoreq	r0, r5, r0, lsl #24
    2e88:	0d000000 	stceq	0, cr0, [r0, #-0]
    2e8c:	0000e304 	andeq	lr, r0, r4, lsl #6
    2e90:	02670e00 	rsbeq	r0, r7, #0, 28
    2e94:	06010000 	streq	r0, [r1], -r0
    2e98:	000000f2 	strdeq	r0, [r0], -r2
    2e9c:	97180305 	ldrls	r0, [r8, -r5, lsl #6]
    2ea0:	bd0f0000 	stclt	0, cr0, [pc, #-0]	; 2ea8 <_start-0x5158>
    2ea4:	02000003 	andeq	r0, r0, #3
    2ea8:	002c0c3c 	eoreq	r0, ip, ip, lsr ip
    2eac:	00000000 	andeq	r0, r0, r0
    2eb0:	000001c3 	andeq	r0, r0, r3, asr #3
    2eb4:	0eca0004 	cdpeq	0, 12, cr0, cr10, cr4, {0}
    2eb8:	01040000 	mrseq	r0, (UNDEF: 4)
    2ebc:	00000194 	muleq	r0, r4, r1
    2ec0:	00089801 	andeq	r9, r8, r1, lsl #16
    2ec4:	0001ff00 	andeq	pc, r1, r0, lsl #30
    2ec8:	0094f000 	addseq	pc, r4, r0
    2ecc:	00005000 	andeq	r5, r0, r0
    2ed0:	000ce000 	andeq	lr, ip, r0
    2ed4:	05040200 	streq	r0, [r4, #-512]	; 0x200
    2ed8:	00746e69 	rsbseq	r6, r4, r9, ror #28
    2edc:	00088303 	andeq	r8, r8, r3, lsl #6
    2ee0:	37d40200 	ldrbcc	r0, [r4, r0, lsl #4]
    2ee4:	04000000 	streq	r0, [r0], #-0
    2ee8:	00df0704 	sbcseq	r0, pc, r4, lsl #14
    2eec:	01040000 	mrseq	r0, (UNDEF: 4)
    2ef0:	00009906 	andeq	r9, r0, r6, lsl #18
    2ef4:	05020400 	streq	r0, [r2, #-1024]	; 0x400
    2ef8:	0000015f 	andeq	r0, r0, pc, asr r1
    2efc:	fa050404 	blx	143f14 <__bss_end__+0x13a154>
    2f00:	04000000 	streq	r0, [r0], #-0
    2f04:	00f50508 	rscseq	r0, r5, r8, lsl #10
    2f08:	c7030000 	strgt	r0, [r3, -r0]
    2f0c:	03000003 	movweq	r0, #3
    2f10:	0000652e 	andeq	r6, r0, lr, lsr #10
    2f14:	08010400 	stmdaeq	r1, {sl}
    2f18:	00000097 	muleq	r0, r7, r0
    2f1c:	b2070204 	andlt	r0, r7, #4, 4	; 0x40000000
    2f20:	03000000 	movweq	r0, #0
    2f24:	0000041e 	andeq	r0, r0, lr, lsl r4
    2f28:	007e3403 	rsbseq	r3, lr, r3, lsl #8
    2f2c:	04040000 	streq	r0, [r4], #-0
    2f30:	0000da07 	andeq	sp, r0, r7, lsl #20
    2f34:	07080400 	streq	r0, [r8, -r0, lsl #8]
    2f38:	000000d5 	ldrdeq	r0, [r0], -r5
    2f3c:	ec070404 	cfstrs	mvf0, [r7], {4}
    2f40:	05000000 	streq	r0, [r0, #-0]
    2f44:	08010404 	stmdaeq	r1, {r2, sl}
    2f48:	000000a0 	andeq	r0, r0, r0, lsr #1
    2f4c:	0e040c06 	cdpeq	12, 0, cr0, cr4, cr6, {0}
    2f50:	000000d3 	ldrdeq	r0, [r0], -r3
    2f54:	00787407 	rsbseq	r7, r8, r7, lsl #8
    2f58:	005a0f04 	subseq	r0, sl, r4, lsl #30
    2f5c:	07000000 	streq	r0, [r0, -r0]
    2f60:	04007872 	streq	r7, [r0], #-2162	; 0x872
    2f64:	00005a0f 	andeq	r5, r0, pc, lsl #20
    2f68:	95080100 	strls	r0, [r8, #-256]	; 0x100
    2f6c:	04000003 	streq	r0, [r0], #-3
    2f70:	00007310 	andeq	r7, r0, r0, lsl r3
    2f74:	46080400 	strmi	r0, [r8], -r0, lsl #8
    2f78:	04000003 	streq	r0, [r0], #-3
    2f7c:	00007311 	andeq	r7, r0, r1, lsl r3
    2f80:	03000800 	movweq	r0, #2048	; 0x800
    2f84:	0000037e 	andeq	r0, r0, lr, ror r3
    2f88:	009c1204 	addseq	r1, ip, r4, lsl #4
    2f8c:	01090000 	mrseq	r0, (UNDEF: 9)
    2f90:	00f91005 	rscseq	r1, r9, r5
    2f94:	9a0a0000 	bls	282f9c <__bss_end__+0x2791dc>
    2f98:	01000003 	tsteq	r0, r3
    2f9c:	0003880a 	andeq	r8, r3, sl, lsl #16
    2fa0:	700a0200 	andvc	r0, sl, r0, lsl #4
    2fa4:	03000003 	movweq	r0, #3
    2fa8:	03af0300 			; <UNDEFINED> instruction: 0x03af0300
    2fac:	10050000 	andne	r0, r5, r0
    2fb0:	000000de 	ldrdeq	r0, [r0], -lr
    2fb4:	14051406 	strne	r1, [r5], #-1030	; 0x406
    2fb8:	00000131 	andeq	r0, r0, r1, lsr r1
    2fbc:	00042708 	andeq	r2, r4, r8, lsl #14
    2fc0:	37150500 	ldrcc	r0, [r5, -r0, lsl #10]
    2fc4:	00000000 	andeq	r0, r0, r0
    2fc8:	00041208 	andeq	r1, r4, r8, lsl #4
    2fcc:	f9180500 			; <UNDEFINED> instruction: 0xf9180500
    2fd0:	04000000 	streq	r0, [r0], #-0
    2fd4:	0003dd08 	andeq	sp, r3, r8, lsl #26
    2fd8:	d31b0500 	tstle	fp, #0, 10
    2fdc:	08000000 	stmdaeq	r0, {}	; <UNPREDICTABLE>
    2fe0:	03cf0300 	biceq	r0, pc, #0, 6
    2fe4:	20050000 	andcs	r0, r5, r0
    2fe8:	00000104 	andeq	r0, r0, r4, lsl #2
    2fec:	0008910b 	andeq	r9, r8, fp, lsl #2
    2ff0:	7e050100 	adfvcs	f0, f5, f0
    2ff4:	f0000001 			; <UNDEFINED> instruction: 0xf0000001
    2ff8:	28000094 	stmdacs	r0, {r2, r4, r7}
    2ffc:	01000000 	mrseq	r0, (UNDEF: 0)
    3000:	00017e9c 	muleq	r1, ip, lr
    3004:	00630c00 	rsbeq	r0, r3, r0, lsl #24
    3008:	017e0601 	cmneq	lr, r1, lsl #12
    300c:	00000000 	andeq	r0, r0, r0
    3010:	040d0900 	streq	r0, [sp], #-2304	; 0x900
    3014:	ab000095 	blge	3270 <_start-0x4d90>
    3018:	0e000001 	cdpeq	0, 0, cr0, cr0, cr1, {0}
    301c:	34015201 	strcc	r5, [r1], #-513	; 0x201
    3020:	0151010e 	cmpeq	r1, lr, lsl #2
    3024:	50010e30 	andpl	r0, r1, r0, lsr lr
    3028:	24474203 	strbcs	r4, [r7], #-515	; 0x203
    302c:	040f0000 	streq	r0, [pc], #-0	; 3034 <_start-0x4fcc>
    3030:	00000131 	andeq	r0, r0, r1, lsr r1
    3034:	0003e50b 	andeq	lr, r3, fp, lsl #10
    3038:	7e0c0100 	adfvce	f0, f4, f0
    303c:	18000001 	stmdane	r0, {r0}
    3040:	28000095 	stmdacs	r0, {r0, r2, r4, r7}
    3044:	01000000 	mrseq	r0, (UNDEF: 0)
    3048:	0001ab9c 	muleq	r1, ip, fp
    304c:	00630c00 	rsbeq	r0, r3, r0, lsl #24
    3050:	017e0d01 	cmneq	lr, r1, lsl #26
    3054:	00000000 	andeq	r0, r0, r0
    3058:	10000900 	andne	r0, r0, r0, lsl #18
    305c:	0000088a 	andeq	r0, r0, sl, lsl #17
    3060:	00931b06 	addseq	r1, r3, r6, lsl #22
    3064:	93110000 	tstls	r1, #0
    3068:	11000000 	mrsne	r0, (UNDEF: 0)
    306c:	00000025 	andeq	r0, r0, r5, lsr #32
    3070:	00002c11 	andeq	r2, r0, r1, lsl ip
    3074:	ff000000 			; <UNDEFINED> instruction: 0xff000000
    3078:	04000003 	streq	r0, [r0], #-3
    307c:	000fae00 	andeq	sl, pc, r0, lsl #28
    3080:	94010400 	strls	r0, [r1], #-1024	; 0x400
    3084:	01000001 	tsteq	r0, r1
    3088:	00000984 	andeq	r0, r0, r4, lsl #19
    308c:	000001ff 	strdeq	r0, [r0], -pc	; <UNPREDICTABLE>
    3090:	00009540 	andeq	r9, r0, r0, asr #10
    3094:	00000154 	andeq	r0, r0, r4, asr r1
    3098:	00000e0c 	andeq	r0, r0, ip, lsl #28
    309c:	69050402 	stmdbvs	r5, {r1, sl}
    30a0:	0300746e 	movweq	r7, #1134	; 0x46e
    30a4:	00df0704 	sbcseq	r0, pc, r4, lsl #14
    30a8:	01030000 	mrseq	r0, (UNDEF: 3)
    30ac:	00009906 	andeq	r9, r0, r6, lsl #18
    30b0:	05020300 	streq	r0, [r2, #-768]	; 0x300
    30b4:	0000015f 	andeq	r0, r0, pc, asr r1
    30b8:	fa050403 	blx	1440cc <__bss_end__+0x13a30c>
    30bc:	03000000 	movweq	r0, #0
    30c0:	00f50508 	rscseq	r0, r5, r8, lsl #10
    30c4:	01030000 	mrseq	r0, (UNDEF: 3)
    30c8:	00009708 	andeq	r9, r0, r8, lsl #14
    30cc:	07020300 	streq	r0, [r2, -r0, lsl #6]
    30d0:	000000b2 	strheq	r0, [r0], -r2
    30d4:	da070403 	ble	1c40e8 <__bss_end__+0x1ba328>
    30d8:	03000000 	movweq	r0, #0
    30dc:	00d50708 	sbcseq	r0, r5, r8, lsl #14
    30e0:	04030000 	streq	r0, [r3], #-0
    30e4:	0000ec07 	andeq	lr, r0, r7, lsl #24
    30e8:	08010300 	stmdaeq	r1, {r8, r9}
    30ec:	000000a0 	andeq	r0, r0, r0, lsr #1
    30f0:	0c020104 	stfeqs	f0, [r2], {4}
    30f4:	000000b2 	strheq	r0, [r0], -r2
    30f8:	00054205 	andeq	r4, r5, r5, lsl #4
    30fc:	b0050000 	andlt	r0, r5, r0
    3100:	01000006 	tsteq	r0, r6
    3104:	0006e905 	andeq	lr, r6, r5, lsl #18
    3108:	f8050400 			; <UNDEFINED> instruction: 0xf8050400
    310c:	05000006 	streq	r0, [r0, #-6]
    3110:	00070705 	andeq	r0, r7, r5, lsl #14
    3114:	16050600 	strne	r0, [r5], -r0, lsl #12
    3118:	07000007 	streq	r0, [r0, -r7]
    311c:	00072505 	andeq	r2, r7, r5, lsl #10
    3120:	34050300 	strcc	r0, [r5], #-768	; 0x300
    3124:	02000007 	andeq	r0, r0, #7
    3128:	06dd0600 	ldrbeq	r0, [sp], r0, lsl #12
    312c:	15020000 	strne	r0, [r2, #-0]
    3130:	00000079 	andeq	r0, r0, r9, ror r0
    3134:	00090b07 	andeq	r0, r9, r7, lsl #22
    3138:	40370100 	eorsmi	r0, r7, r0, lsl #2
    313c:	9c000095 	stcls	0, cr0, [r0], {149}	; 0x95
    3140:	01000000 	mrseq	r0, (UNDEF: 0)
    3144:	0001c39c 	muleq	r1, ip, r3
    3148:	95480800 	strbls	r0, [r8, #-2048]	; 0x800
    314c:	03a80000 			; <UNDEFINED> instruction: 0x03a80000
    3150:	54090000 	strpl	r0, [r9], #-0
    3154:	af000095 	svcge	0x00000095
    3158:	f3000003 	vhadd.u8	d0, d0, d3
    315c:	0a000000 	beq	3164 <_start-0x4e9c>
    3160:	32015101 	andcc	r5, r1, #1073741824	; 0x40000000
    3164:	0150010a 	cmpeq	r0, sl, lsl #2
    3168:	6009003e 	andvs	r0, r9, lr, lsr r0
    316c:	af000095 	svcge	0x00000095
    3170:	0b000003 	bleq	3184 <_start-0x4e7c>
    3174:	0a000001 	beq	3180 <_start-0x4e80>
    3178:	32015101 	andcc	r5, r1, #1073741824	; 0x40000000
    317c:	0150010a 	cmpeq	r0, sl, lsl #2
    3180:	6408003f 	strvs	r0, [r8], #-63	; 0x3f
    3184:	a8000095 	stmdage	r0, {r0, r2, r4, r7}
    3188:	09000003 	stmdbeq	r0, {r0, r1}
    318c:	00009574 	andeq	r9, r0, r4, ror r5
    3190:	000003c5 	andeq	r0, r0, r5, asr #7
    3194:	00000128 	andeq	r0, r0, r8, lsr #2
    3198:	0250010a 	subseq	r0, r0, #-2147483646	; 0x80000002
    319c:	09000075 	stmdbeq	r0, {r0, r2, r4, r5, r6}
    31a0:	00009580 	andeq	r9, r0, r0, lsl #11
    31a4:	000003e6 	andeq	r0, r0, r6, ror #7
    31a8:	0000013c 	andeq	r0, r0, ip, lsr r1
    31ac:	0250010a 	subseq	r0, r0, #-2147483646	; 0x80000002
    31b0:	08000075 	stmdaeq	r0, {r0, r2, r4, r5, r6}
    31b4:	00009584 	andeq	r9, r0, r4, lsl #11
    31b8:	000003a8 	andeq	r0, r0, r8, lsr #7
    31bc:	00959009 	addseq	r9, r5, r9
    31c0:	0003e600 	andeq	lr, r3, r0, lsl #12
    31c4:	00015800 	andeq	r5, r1, r0, lsl #16
    31c8:	51010a00 	tstpl	r1, r0, lsl #20
    31cc:	09003001 	stmdbeq	r0, {r0, ip, sp}
    31d0:	0000959c 	muleq	r0, ip, r5
    31d4:	000003e6 	andeq	r0, r0, r6, ror #7
    31d8:	0000016b 	andeq	r0, r0, fp, ror #2
    31dc:	0151010a 	cmpeq	r1, sl, lsl #2
    31e0:	a8090030 	stmdage	r9, {r4, r5}
    31e4:	e6000095 			; <UNDEFINED> instruction: 0xe6000095
    31e8:	7e000003 	cdpvc	0, 0, cr0, cr0, cr3, {0}
    31ec:	0a000001 	beq	31f8 <_start-0x4e08>
    31f0:	36015101 	strcc	r5, [r1], -r1, lsl #2
    31f4:	95b40900 	ldrls	r0, [r4, #2304]!	; 0x900
    31f8:	03e60000 	mvneq	r0, #0
    31fc:	01910000 	orrseq	r0, r1, r0
    3200:	010a0000 	mrseq	r0, (UNDEF: 10)
    3204:	00330151 	eorseq	r0, r3, r1, asr r1
    3208:	0095c009 	addseq	ip, r5, r9
    320c:	0003e600 	andeq	lr, r3, r0, lsl #12
    3210:	0001a600 	andeq	sl, r1, r0, lsl #12
    3214:	51010a00 	tstpl	r1, r0, lsl #20
    3218:	010e0a03 	tsteq	lr, r3, lsl #20
    321c:	95cc0900 	strbls	r0, [ip, #2304]	; 0x900
    3220:	03e60000 	mvneq	r0, #0
    3224:	01b90000 			; <UNDEFINED> instruction: 0x01b90000
    3228:	010a0000 	mrseq	r0, (UNDEF: 10)
    322c:	00330151 	eorseq	r0, r3, r1, asr r1
    3230:	0095d008 	addseq	sp, r5, r8
    3234:	0003a800 	andeq	sl, r3, r0, lsl #16
    3238:	df0b0000 	svcle	0x000b0000
    323c:	01000008 	tsteq	r0, r8
    3240:	00002557 	andeq	r2, r0, r7, asr r5
    3244:	0095dc00 	addseq	sp, r5, r0, lsl #24
    3248:	00001c00 	andeq	r1, r0, r0, lsl #24
    324c:	e69c0100 	ldr	r0, [ip], r0, lsl #2
    3250:	08000001 	stmdaeq	r0, {r0}
    3254:	000095ec 	andeq	r9, r0, ip, ror #11
    3258:	000003c5 	andeq	r0, r0, r5, asr #7
    325c:	079f0b00 	ldreq	r0, [pc, r0, lsl #22]
    3260:	5d010000 	stcpl	0, cr0, [r1, #-0]
    3264:	00000025 	andeq	r0, r0, r5, lsr #32
    3268:	000095f8 	strdeq	r9, [r0], -r8
    326c:	00000028 	andeq	r0, r0, r8, lsr #32
    3270:	02129c01 	andseq	r9, r2, #256	; 0x100
    3274:	00080000 	andeq	r0, r8, r0
    3278:	c3000096 	movwgt	r0, #150	; 0x96
    327c:	08000001 	stmdaeq	r0, {r0}
    3280:	00009614 	andeq	r9, r0, r4, lsl r6
    3284:	000003c5 	andeq	r0, r0, r5, asr #7
    3288:	09330b00 	ldmdbeq	r3!, {r8, r9, fp}
    328c:	64010000 	strvs	r0, [r1], #-0
    3290:	00000025 	andeq	r0, r0, r5, lsr #32
    3294:	00009620 	andeq	r9, r0, r0, lsr #12
    3298:	0000001c 	andeq	r0, r0, ip, lsl r0
    329c:	02359c01 	eorseq	r9, r5, #256	; 0x100
    32a0:	30080000 	andcc	r0, r8, r0
    32a4:	c5000096 	strgt	r0, [r0, #-150]	; 0x96
    32a8:	00000003 	andeq	r0, r0, r3
    32ac:	0003bd07 	andeq	fp, r3, r7, lsl #26
    32b0:	3c6a0100 	stfcce	f0, [sl], #-0
    32b4:	2c000096 	stccs	0, cr0, [r0], {150}	; 0x96
    32b8:	01000000 	mrseq	r0, (UNDEF: 0)
    32bc:	0002719c 	muleq	r2, ip, r1
    32c0:	00630c00 	rsbeq	r0, r3, r0, lsl #24
    32c4:	002c6a01 	eoreq	r6, ip, r1, lsl #20
    32c8:	20cc0000 	sbccs	r0, ip, r0
    32cc:	48080000 	stmdami	r8, {}	; <UNPREDICTABLE>
    32d0:	12000096 	andne	r0, r0, #150	; 0x96
    32d4:	0d000002 	stceq	0, cr0, [r0, #-8]
    32d8:	00009660 	andeq	r9, r0, r0, ror #12
    32dc:	000003e6 	andeq	r0, r0, r6, ror #7
    32e0:	0251010a 	subseq	r0, r1, #-2147483646	; 0x80000002
    32e4:	00000074 	andeq	r0, r0, r4, ror r0
    32e8:	0008fd0b 	andeq	pc, r8, fp, lsl #26
    32ec:	25740100 	ldrbcs	r0, [r4, #-256]!	; 0x100
    32f0:	68000000 	stmdavs	r0, {}	; <UNPREDICTABLE>
    32f4:	0c000096 	stceq	0, cr0, [r0], {150}	; 0x96
    32f8:	01000000 	mrseq	r0, (UNDEF: 0)
    32fc:	0002949c 	muleq	r2, ip, r4
    3300:	96700800 	ldrbtls	r0, [r0], -r0, lsl #16
    3304:	01c30000 	biceq	r0, r3, r0
    3308:	0b000000 	bleq	3310 <_start-0x4cf0>
    330c:	000009b0 			; <UNDEFINED> instruction: 0x000009b0
    3310:	00257801 	eoreq	r7, r5, r1, lsl #16
    3314:	96740000 	ldrbtls	r0, [r4], -r0
    3318:	00200000 	eoreq	r0, r0, r0
    331c:	9c010000 	stcls	0, cr0, [r1], {-0}
    3320:	000002c0 	andeq	r0, r0, r0, asr #5
    3324:	00967c08 	addseq	r7, r6, r8, lsl #24
    3328:	00027100 	andeq	r7, r2, r0, lsl #2
    332c:	96880800 	strls	r0, [r8], r0, lsl #16
    3330:	01e60000 	mvneq	r0, r0
    3334:	0e000000 	cdpeq	0, 0, cr0, cr0, cr0, {0}
    3338:	0000094d 	andeq	r0, r0, sp, asr #18
    333c:	02d11601 	sbcseq	r1, r1, #1048576	; 0x100000
    3340:	03050000 	movweq	r0, #20480	; 0x5000
    3344:	0000974c 	andeq	r9, r0, ip, asr #14
    3348:	02d7040f 	sbcseq	r0, r7, #251658240	; 0xf000000
    334c:	2c100000 	ldccs	0, cr0, [r0], {-0}
    3350:	0e000000 	cdpeq	0, 0, cr0, cr0, cr0, {0}
    3354:	00000941 	andeq	r0, r0, r1, asr #18
    3358:	02d11701 	sbcseq	r1, r1, #262144	; 0x40000
    335c:	03050000 	movweq	r0, #20480	; 0x5000
    3360:	0000971c 	andeq	r9, r0, ip, lsl r7
    3364:	0008c20e 	andeq	ip, r8, lr, lsl #4
    3368:	d11a0100 	tstle	sl, r0, lsl #2
    336c:	05000002 	streq	r0, [r0, #-2]
    3370:	00973803 	addseq	r3, r7, r3, lsl #16
    3374:	09150e00 	ldmdbeq	r5, {r9, sl, fp}
    3378:	1b010000 	blne	43380 <__bss_end__+0x395c0>
    337c:	000002d1 	ldrdeq	r0, [r0], -r1
    3380:	97240305 	strls	r0, [r4, -r5, lsl #6]!
    3384:	240e0000 	strcs	r0, [lr], #-0
    3388:	01000009 	tsteq	r0, r9
    338c:	0002d11c 	andeq	sp, r2, ip, lsl r1
    3390:	28030500 	stmdacs	r3, {r8, sl}
    3394:	0e000097 	mcreq	0, 0, r0, cr0, cr7, {4}
    3398:	00000992 	muleq	r0, r2, r9
    339c:	02d11d01 	sbcseq	r1, r1, #1, 26	; 0x40
    33a0:	03050000 	movweq	r0, #20480	; 0x5000
    33a4:	0000972c 	andeq	r9, r0, ip, lsr #14
    33a8:	0008b30e 	andeq	fp, r8, lr, lsl #6
    33ac:	d11e0100 	tstle	lr, r0, lsl #2
    33b0:	05000002 	streq	r0, [r0, #-2]
    33b4:	00974803 	addseq	r4, r7, r3, lsl #16
    33b8:	09a10e00 	stmibeq	r1!, {r9, sl, fp}
    33bc:	1f010000 	svcne	0x00010000
    33c0:	000002d1 	ldrdeq	r0, [r0], -r1
    33c4:	97340305 	ldrls	r0, [r4, -r5, lsl #6]!
    33c8:	d00e0000 	andle	r0, lr, r0
    33cc:	01000008 	tsteq	r0, r8
    33d0:	0002d120 	andeq	sp, r2, r0, lsr #2
    33d4:	44030500 	strmi	r0, [r3], #-1280	; 0x500
    33d8:	0e000097 	mcreq	0, 0, r0, cr0, cr7, {4}
    33dc:	00000975 	andeq	r0, r0, r5, ror r9
    33e0:	02d12101 	sbcseq	r2, r1, #1073741824	; 0x40000000
    33e4:	03050000 	movweq	r0, #20480	; 0x5000
    33e8:	00009740 	andeq	r9, r0, r0, asr #14
    33ec:	0008ed0e 	andeq	lr, r8, lr, lsl #26
    33f0:	d1220100 	teqle	r2, r0, lsl #2
    33f4:	05000002 	streq	r0, [r0, #-2]
    33f8:	00972003 	addseq	r2, r7, r3
    33fc:	09650e00 	stmdbeq	r5!, {r9, sl, fp}^
    3400:	23010000 	movwcs	r0, #4096	; 0x1000
    3404:	000002d1 	ldrdeq	r0, [r0], -r1
    3408:	973c0305 	ldrls	r0, [ip, -r5, lsl #6]!
    340c:	550e0000 	strpl	r0, [lr, #-0]
    3410:	01000009 	tsteq	r0, r9
    3414:	0002d124 	andeq	sp, r2, r4, lsr #2
    3418:	30030500 	andcc	r0, r3, r0, lsl #10
    341c:	11000097 	swpne	r0, r7, [r0]	; <UNPREDICTABLE>
    3420:	000005cc 	andeq	r0, r0, ip, asr #11
    3424:	09128a03 	ldmdbeq	r2, {r0, r1, r9, fp, pc}
    3428:	02000006 	andeq	r0, r0, #6
    342c:	0003c519 	andeq	ip, r3, r9, lsl r5
    3430:	002c1300 	eoreq	r1, ip, r0, lsl #6
    3434:	b2130000 	andslt	r0, r3, #0
    3438:	00000000 	andeq	r0, r0, r0
    343c:	0006c114 	andeq	ip, r6, r4, lsl r1
    3440:	2ca90300 	stccs	3, cr0, [r9]
    3444:	da000000 	ble	344c <_start-0x4bb4>
    3448:	13000003 	movwne	r0, #3
    344c:	000003da 	ldrdeq	r0, [r0], -sl
    3450:	e0040f00 	and	r0, r4, r0, lsl #30
    3454:	15000003 	strne	r0, [r0, #-3]
    3458:	000003e5 	andeq	r0, r0, r5, ror #7
    345c:	05131216 	ldreq	r1, [r3, #-534]	; 0x216
    3460:	9d030000 	stcls	0, cr0, [r3, #-0]
    3464:	000003fc 	strdeq	r0, [r0], -ip
    3468:	0003fc13 	andeq	pc, r3, r3, lsl ip	; <UNPREDICTABLE>
    346c:	002c1300 	eoreq	r1, ip, r0, lsl #6
    3470:	0f000000 	svceq	0x00000000
    3474:	0003e504 	andeq	lr, r3, r4, lsl #10
    3478:	00db0000 	sbcseq	r0, fp, r0
    347c:	00040000 	andeq	r0, r4, r0
    3480:	000010dc 	ldrdeq	r1, [r0], -ip
    3484:	01940104 	orrseq	r0, r4, r4, lsl #2
    3488:	c0010000 	andgt	r0, r1, r0
    348c:	ff000009 			; <UNDEFINED> instruction: 0xff000009
    3490:	94000001 	strls	r0, [r0], #-1
    3494:	20000096 	mulcs	r0, r6, r0
    3498:	11000000 	mrsne	r0, (UNDEF: 0)
    349c:	0200000f 	andeq	r0, r0, #15
    34a0:	00990601 	addseq	r0, r9, r1, lsl #12
    34a4:	01020000 	mrseq	r0, (UNDEF: 2)
    34a8:	00009708 	andeq	r9, r0, r8, lsl #14
    34ac:	05020200 	streq	r0, [r2, #-512]	; 0x200
    34b0:	0000015f 	andeq	r0, r0, pc, asr r1
    34b4:	b2070202 	andlt	r0, r7, #536870912	; 0x20000000
    34b8:	03000000 	movweq	r0, #0
    34bc:	6e690504 	cdpvs	5, 6, cr0, cr9, cr4, {0}
    34c0:	04020074 	streq	r0, [r2], #-116	; 0x74
    34c4:	0000df07 	andeq	sp, r0, r7, lsl #30
    34c8:	05080200 	streq	r0, [r8, #-512]	; 0x200
    34cc:	000000f5 	strdeq	r0, [r0], -r5
    34d0:	d5070802 	strle	r0, [r7, #-2050]	; 0x802
    34d4:	02000000 	andeq	r0, r0, #0
    34d8:	00fa0504 	rscseq	r0, sl, r4, lsl #10
    34dc:	04020000 	streq	r0, [r2], #-0
    34e0:	0000ec07 	andeq	lr, r0, r7, lsl #24
    34e4:	02040400 	andeq	r0, r4, #0, 8
    34e8:	00da0704 	sbcseq	r0, sl, r4, lsl #14
    34ec:	04050000 	streq	r0, [r5], #-0
    34f0:	0000007a 	andeq	r0, r0, sl, ror r0
    34f4:	a0080102 	andge	r0, r8, r2, lsl #2
    34f8:	06000000 	streq	r0, [r0], -r0
    34fc:	00000883 	andeq	r0, r0, r3, lsl #17
    3500:	0048d402 	subeq	sp, r8, r2, lsl #8
    3504:	8a070000 	bhi	1c350c <__bss_end__+0x1b974c>
    3508:	03000008 	movweq	r0, #8
    350c:	00006b1b 	andeq	r6, r0, fp, lsl fp
    3510:	00969400 	addseq	r9, r6, r0, lsl #8
    3514:	00002000 	andeq	r2, r0, r0
    3518:	089c0100 	ldmeq	ip, {r8}
    351c:	0100705f 	qaddeq	r7, pc, r0	; <UNPREDICTABLE>
    3520:	00006b03 	andeq	r6, r0, r3, lsl #22
    3524:	08500100 	ldmdaeq	r0, {r8}^
    3528:	03010063 	movweq	r0, #4195	; 0x1063
    352c:	00000041 	andeq	r0, r0, r1, asr #32
    3530:	6e095101 	adfvse	f5, f1, f1
    3534:	81030100 	mrshi	r0, (UNDEF: 19)
    3538:	ea000000 	b	3540 <_start-0x4ac0>
    353c:	0a000020 	beq	35c4 <_start-0x4a3c>
    3540:	04010070 	streq	r0, [r1], #-112	; 0x70
    3544:	00000074 	andeq	r0, r0, r4, ror r0
    3548:	0000210b 	andeq	r2, r0, fp, lsl #2
    354c:	0100650b 	tsteq	r0, fp, lsl #10
    3550:	00007404 	andeq	r7, r0, r4, lsl #8
    3554:	00520100 	subseq	r0, r2, r0, lsl #2
	...

Disassembly of section .debug_abbrev:

00000000 <.debug_abbrev>:
       0:	25011101 	strcs	r1, [r1, #-257]	; 0x101
       4:	030b130e 	movweq	r1, #45838	; 0xb30e
       8:	110e1b0e 	tstne	lr, lr, lsl #22
       c:	10061201 	andne	r1, r6, r1, lsl #4
      10:	02000017 	andeq	r0, r0, #23
      14:	0b0b0024 	bleq	2c00ac <__bss_end__+0x2b62ec>
      18:	08030b3e 	stmdaeq	r3, {r1, r2, r3, r4, r5, r8, r9, fp}
      1c:	24030000 	strcs	r0, [r3], #-0
      20:	3e0b0b00 	vmlacc.f64	d0, d11, d0
      24:	000e030b 	andeq	r0, lr, fp, lsl #6
      28:	000f0400 	andeq	r0, pc, r0, lsl #8
      2c:	13490b0b 	movtne	r0, #39691	; 0x9b0b
      30:	26050000 	strcs	r0, [r5], -r0
      34:	00134900 	andseq	r4, r3, r0, lsl #18
      38:	012e0600 	teqeq	lr, r0, lsl #12
      3c:	0e03193f 	mcreq	9, 0, r1, cr3, cr15, {1}
      40:	0b3b0b3a 	bleq	ec2d30 <__bss_end__+0xeb8f70>
      44:	01111927 	tsteq	r1, r7, lsr #18
      48:	18400612 	stmdane	r0, {r1, r4, r9, sl}^
      4c:	01194297 			; <UNDEFINED> instruction: 0x01194297
      50:	07000013 	smladeq	r0, r3, r0, r0
      54:	08030005 	stmdaeq	r3, {r0, r2}
      58:	0b3b0b3a 	bleq	ec2d48 <__bss_end__+0xeb8f88>
      5c:	17021349 	strne	r1, [r2, -r9, asr #6]
      60:	05080000 	streq	r0, [r8, #-0]
      64:	3a0e0300 	bcc	380c6c <__bss_end__+0x376eac>
      68:	490b3b0b 	stmdbmi	fp, {r0, r1, r3, r8, r9, fp, ip, sp}
      6c:	00170213 	andseq	r0, r7, r3, lsl r2
      70:	00340900 	eorseq	r0, r4, r0, lsl #18
      74:	0b3a0e03 	bleq	e83888 <__bss_end__+0xe79ac8>
      78:	13490b3b 	movtne	r0, #39739	; 0x9b3b
      7c:	00001702 	andeq	r1, r0, r2, lsl #14
      80:	0300340a 	movweq	r3, #1034	; 0x40a
      84:	3b0b3a0e 	blcc	2ce8c4 <__bss_end__+0x2c4b04>
      88:	0213490b 	andseq	r4, r3, #180224	; 0x2c000
      8c:	0b000018 	bleq	f4 <_start-0x7f0c>
      90:	08030034 	stmdaeq	r3, {r2, r4, r5}
      94:	0b3b0b3a 	bleq	ec2d84 <__bss_end__+0xeb8fc4>
      98:	18021349 	stmdane	r2, {r0, r3, r6, r8, r9, ip}
      9c:	340c0000 	strcc	r0, [ip], #-0
      a0:	3a080300 	bcc	200ca8 <__bss_end__+0x1f6ee8>
      a4:	490b3b0b 	stmdbmi	fp, {r0, r1, r3, r8, r9, fp, ip, sp}
      a8:	0d000013 	stceq	0, cr0, [r0, #-76]	; 0xffffffb4
      ac:	0111010b 	tsteq	r1, fp, lsl #2
      b0:	13010612 	movwne	r0, #5650	; 0x1612
      b4:	0b0e0000 	bleq	3800bc <__bss_end__+0x3762fc>
      b8:	01175501 	tsteq	r7, r1, lsl #10
      bc:	0f000013 	svceq	0x00000013
      c0:	01018289 	smlabbeq	r1, r9, r2, r8
      c4:	13310111 	teqne	r1, #1073741828	; 0x40000004
      c8:	8a100000 	bhi	4000d0 <__bss_end__+0x3f6310>
      cc:	02000182 	andeq	r0, r0, #-2147483616	; 0x80000020
      d0:	18429118 	stmdane	r2, {r3, r4, r8, ip, pc}^
      d4:	34110000 	ldrcc	r0, [r1], #-0
      d8:	3a0e0300 	bcc	380ce0 <__bss_end__+0x376f20>
      dc:	490b3b0b 	stmdbmi	fp, {r0, r1, r3, r8, r9, fp, ip, sp}
      e0:	12000013 	andne	r0, r0, #19
      e4:	01018289 	smlabbeq	r1, r9, r2, r8
      e8:	42950111 	addsmi	r0, r5, #1073741828	; 0x40000004
      ec:	00133119 	andseq	r3, r3, r9, lsl r1
      f0:	00341300 	eorseq	r1, r4, r0, lsl #6
      f4:	0b3a0803 	bleq	e82108 <__bss_end__+0xe78348>
      f8:	13490b3b 	movtne	r0, #39739	; 0x9b3b
      fc:	00000b1c 	andeq	r0, r0, ip, lsl fp
     100:	01828914 	orreq	r8, r2, r4, lsl r9
     104:	31011101 	tstcc	r1, r1, lsl #2
     108:	00130113 	andseq	r0, r3, r3, lsl r1
     10c:	82891500 	addhi	r1, r9, #0, 10
     110:	01110001 	tsteq	r1, r1
     114:	00001331 	andeq	r1, r0, r1, lsr r3
     118:	3f012e16 	svccc	0x00012e16
     11c:	3a0e0319 	bcc	380d88 <__bss_end__+0x376fc8>
     120:	270b3b0b 	strcs	r3, [fp, -fp, lsl #22]
     124:	01193c19 	tsteq	r9, r9, lsl ip
     128:	17000013 	smladne	r0, r3, r0, r0
     12c:	13490005 	movtne	r0, #36869	; 0x9005
     130:	2e180000 	cdpcs	0, 1, cr0, cr8, cr0, {0}
     134:	03193f01 	tsteq	r9, #1, 30
     138:	3b0b3a0e 	blcc	2ce978 <__bss_end__+0x2c4bb8>
     13c:	4919270b 	ldmdbmi	r9, {r0, r1, r3, r8, r9, sl, sp}
     140:	01193c13 	tsteq	r9, r3, lsl ip
     144:	19000013 	stmdbne	r0, {r0, r1, r4}
     148:	00000018 	andeq	r0, r0, r8, lsl r0
     14c:	3f002e1a 	svccc	0x00002e1a
     150:	3a0e0319 	bcc	380dbc <__bss_end__+0x376ffc>
     154:	270b3b0b 	strcs	r3, [fp, -fp, lsl #22]
     158:	00193c19 	andseq	r3, r9, r9, lsl ip
     15c:	11010000 	mrsne	r0, (UNDEF: 1)
     160:	130e2501 	movwne	r2, #58625	; 0xe501
     164:	1b0e030b 	blne	380d98 <__bss_end__+0x376fd8>
     168:	1201110e 	andne	r1, r1, #-2147483645	; 0x80000003
     16c:	00171006 	andseq	r1, r7, r6
     170:	00160200 	andseq	r0, r6, r0, lsl #4
     174:	0b3a0e03 	bleq	e83988 <__bss_end__+0xe79bc8>
     178:	13490b3b 	movtne	r0, #39739	; 0x9b3b
     17c:	13030000 	movwne	r0, #12288	; 0x3000
     180:	0b0e0301 	bleq	380d8c <__bss_end__+0x376fcc>
     184:	3b0b3a0b 	blcc	2ce9b8 <__bss_end__+0x2c4bf8>
     188:	0013010b 	andseq	r0, r3, fp, lsl #2
     18c:	000d0400 	andeq	r0, sp, r0, lsl #8
     190:	13490e03 	movtne	r0, #40451	; 0x9e03
     194:	19340b38 	ldmdbne	r4!, {r3, r4, r5, r8, r9, fp}
     198:	0f050000 	svceq	0x00050000
     19c:	000b0b00 	andeq	r0, fp, r0, lsl #22
     1a0:	00240600 	eoreq	r0, r4, r0, lsl #12
     1a4:	0b3e0b0b 	bleq	f82dd8 <__bss_end__+0xf79018>
     1a8:	00000803 	andeq	r0, r0, r3, lsl #16
     1ac:	0b002407 	bleq	91d0 <sw_uart_gets_timeout+0x28>
     1b0:	030b3e0b 	movweq	r3, #48651	; 0xbe0b
     1b4:	0800000e 	stmdaeq	r0, {r1, r2, r3}
     1b8:	0b0b000f 	bleq	2c01fc <__bss_end__+0x2b643c>
     1bc:	00001349 	andeq	r1, r0, r9, asr #6
     1c0:	49002609 	stmdbmi	r0, {r0, r3, r9, sl, sp}
     1c4:	0a000013 	beq	218 <_start-0x7de8>
     1c8:	193f012e 	ldmdbne	pc!, {r1, r2, r3, r5, r8}	; <UNPREDICTABLE>
     1cc:	0b3a0e03 	bleq	e839e0 <__bss_end__+0xe79c20>
     1d0:	19270b3b 	stmdbne	r7!, {r0, r1, r3, r4, r5, r8, r9, fp}
     1d4:	01111349 	tsteq	r1, r9, asr #6
     1d8:	18400612 	stmdane	r0, {r1, r4, r9, sl}^
     1dc:	01194297 			; <UNDEFINED> instruction: 0x01194297
     1e0:	0b000013 	bleq	234 <_start-0x7dcc>
     1e4:	08030005 	stmdaeq	r3, {r0, r2}
     1e8:	0b3b0b3a 	bleq	ec2ed8 <__bss_end__+0xeb9118>
     1ec:	18021349 	stmdane	r2, {r0, r3, r6, r8, r9, ip}
     1f0:	180c0000 	stmdane	ip, {}	; <UNPREDICTABLE>
     1f4:	0d000000 	stceq	0, cr0, [r0, #-0]
     1f8:	08030034 	stmdaeq	r3, {r2, r4, r5}
     1fc:	0b3b0b3a 	bleq	ec2eec <__bss_end__+0xeb912c>
     200:	18021349 	stmdane	r2, {r0, r3, r6, r8, r9, ip}
     204:	340e0000 	strcc	r0, [lr], #-0
     208:	3a0e0300 	bcc	380e10 <__bss_end__+0x377050>
     20c:	490b3b0b 	stmdbmi	fp, {r0, r1, r3, r8, r9, fp, ip, sp}
     210:	00180213 	andseq	r0, r8, r3, lsl r2
     214:	00340f00 	eorseq	r0, r4, r0, lsl #30
     218:	0b3a0803 	bleq	e8222c <__bss_end__+0xe7846c>
     21c:	13490b3b 	movtne	r0, #39739	; 0x9b3b
     220:	00001702 	andeq	r1, r0, r2, lsl #14
     224:	01828910 	orreq	r8, r2, r0, lsl r9
     228:	31011101 	tstcc	r1, r1, lsl #2
     22c:	00130113 	andseq	r0, r3, r3, lsl r1
     230:	828a1100 	addhi	r1, sl, #0, 2
     234:	18020001 	stmdane	r2, {r0}
     238:	00184291 	mulseq	r8, r1, r2
     23c:	82891200 	addhi	r1, r9, #0, 4
     240:	01110101 	tsteq	r1, r1, lsl #2
     244:	01130000 	tsteq	r3, r0
     248:	01134901 	tsteq	r3, r1, lsl #18
     24c:	14000013 	strne	r0, [r0], #-19
     250:	13490021 	movtne	r0, #36897	; 0x9021
     254:	0000052f 	andeq	r0, r0, pc, lsr #10
     258:	27011515 	smladcs	r1, r5, r5, r1
     25c:	01134919 	tsteq	r3, r9, lsl r9
     260:	16000013 			; <UNDEFINED> instruction: 0x16000013
     264:	13490005 	movtne	r0, #36869	; 0x9005
     268:	34170000 	ldrcc	r0, [r7], #-0
     26c:	3a0e0300 	bcc	380e74 <__bss_end__+0x3770b4>
     270:	490b3b0b 	stmdbmi	fp, {r0, r1, r3, r8, r9, fp, ip, sp}
     274:	3c193f13 	ldccc	15, cr3, [r9], {19}
     278:	18000019 	stmdane	r0, {r0, r3, r4}
     27c:	193f012e 	ldmdbne	pc!, {r1, r2, r3, r5, r8}	; <UNPREDICTABLE>
     280:	0b3a0e03 	bleq	e83a94 <__bss_end__+0xe79cd4>
     284:	19270b3b 	stmdbne	r7!, {r0, r1, r3, r4, r5, r8, r9, fp}
     288:	193c1349 	ldmdbne	ip!, {r0, r3, r6, r8, r9, ip}
     28c:	01000000 	mrseq	r0, (UNDEF: 0)
     290:	0e250111 	mcreq	1, 1, r0, cr5, cr1, {0}
     294:	0e030b13 	vmoveq.32	d3[0], r0
     298:	01110e1b 	tsteq	r1, fp, lsl lr
     29c:	17100612 			; <UNDEFINED> instruction: 0x17100612
     2a0:	24020000 	strcs	r0, [r2], #-0
     2a4:	3e0b0b00 	vmlacc.f64	d0, d11, d0
     2a8:	0008030b 	andeq	r0, r8, fp, lsl #6
     2ac:	00240300 	eoreq	r0, r4, r0, lsl #6
     2b0:	0b3e0b0b 	bleq	f82ee4 <__bss_end__+0xf79124>
     2b4:	00000e03 	andeq	r0, r0, r3, lsl #28
     2b8:	0b000f04 	bleq	3ed0 <_start-0x4130>
     2bc:	0013490b 	andseq	r4, r3, fp, lsl #18
     2c0:	00260500 	eoreq	r0, r6, r0, lsl #10
     2c4:	00001349 	andeq	r1, r0, r9, asr #6
     2c8:	3f012e06 	svccc	0x00012e06
     2cc:	3a0e0319 	bcc	380f38 <__bss_end__+0x377178>
     2d0:	270b3b0b 	strcs	r3, [fp, -fp, lsl #22]
     2d4:	11134919 	tstne	r3, r9, lsl r9
     2d8:	40061201 	andmi	r1, r6, r1, lsl #4
     2dc:	19429618 	stmdbne	r2, {r3, r4, r9, sl, ip, pc}^
     2e0:	00001301 	andeq	r1, r0, r1, lsl #6
     2e4:	03000507 	movweq	r0, #1287	; 0x507
     2e8:	3b0b3a08 	blcc	2ceb10 <__bss_end__+0x2c4d50>
     2ec:	0213490b 	andseq	r4, r3, #180224	; 0x2c000
     2f0:	08000017 	stmdaeq	r0, {r0, r1, r2, r4}
     2f4:	19270115 	stmdbne	r7!, {r0, r2, r4, r8}
     2f8:	13011349 	movwne	r1, #4937	; 0x1349
     2fc:	05090000 	streq	r0, [r9, #-0]
     300:	00134900 	andseq	r4, r3, r0, lsl #18
     304:	00340a00 	eorseq	r0, r4, r0, lsl #20
     308:	0b3a0e03 	bleq	e83b1c <__bss_end__+0xe79d5c>
     30c:	13490b3b 	movtne	r0, #39739	; 0x9b3b
     310:	193c193f 	ldmdbne	ip!, {r0, r1, r2, r3, r4, r5, r8, fp, ip}
     314:	340b0000 	strcc	r0, [fp], #-0
     318:	3a0e0300 	bcc	380f20 <__bss_end__+0x377160>
     31c:	490b3b0b 	stmdbmi	fp, {r0, r1, r3, r8, r9, fp, ip, sp}
     320:	02193f13 	andseq	r3, r9, #19, 30	; 0x4c
     324:	00000018 	andeq	r0, r0, r8, lsl r0
     328:	25011101 	strcs	r1, [r1, #-257]	; 0x101
     32c:	030b130e 	movweq	r1, #45838	; 0xb30e
     330:	110e1b0e 	tstne	lr, lr, lsl #22
     334:	10061201 	andne	r1, r6, r1, lsl #4
     338:	02000017 	andeq	r0, r0, #23
     33c:	0b0b0024 	bleq	2c03d4 <__bss_end__+0x2b6614>
     340:	08030b3e 	stmdaeq	r3, {r1, r2, r3, r4, r5, r8, r9, fp}
     344:	24030000 	strcs	r0, [r3], #-0
     348:	3e0b0b00 	vmlacc.f64	d0, d11, d0
     34c:	000e030b 	andeq	r0, lr, fp, lsl #6
     350:	000f0400 	andeq	r0, pc, r0, lsl #8
     354:	00000b0b 	andeq	r0, r0, fp, lsl #22
     358:	0b000f05 	bleq	3f74 <_start-0x408c>
     35c:	0013490b 	andseq	r4, r3, fp, lsl #18
     360:	00260600 	eoreq	r0, r6, r0, lsl #12
     364:	00001349 	andeq	r1, r0, r9, asr #6
     368:	03001607 	movweq	r1, #1543	; 0x607
     36c:	3b0b3a0e 	blcc	2cebac <__bss_end__+0x2c4dec>
     370:	0013490b 	andseq	r4, r3, fp, lsl #18
     374:	01130800 	tsteq	r3, r0, lsl #16
     378:	0b0b0e03 	bleq	2c3b8c <__bss_end__+0x2b9dcc>
     37c:	0b3b0b3a 	bleq	ec306c <__bss_end__+0xeb92ac>
     380:	00001301 	andeq	r1, r0, r1, lsl #6
     384:	03000d09 	movweq	r0, #3337	; 0xd09
     388:	3813490e 	ldmdacc	r3, {r1, r2, r3, r8, fp, lr}
     38c:	0019340b 	andseq	r3, r9, fp, lsl #8
     390:	012e0a00 	teqeq	lr, r0, lsl #20
     394:	0b3a0e03 	bleq	e83ba8 <__bss_end__+0xe79de8>
     398:	19270b3b 	stmdbne	r7!, {r0, r1, r3, r4, r5, r8, r9, fp}
     39c:	01111349 	tsteq	r1, r9, asr #6
     3a0:	18400612 	stmdane	r0, {r1, r4, r9, sl}^
     3a4:	01194297 			; <UNDEFINED> instruction: 0x01194297
     3a8:	0b000013 	bleq	3fc <_start-0x7c04>
     3ac:	08030005 	stmdaeq	r3, {r0, r2}
     3b0:	0b3b0b3a 	bleq	ec30a0 <__bss_end__+0xeb92e0>
     3b4:	17021349 	strne	r1, [r2, -r9, asr #6]
     3b8:	2e0c0000 	cdpcs	0, 0, cr0, cr12, cr0, {0}
     3bc:	3a080301 	bcc	200fc8 <__bss_end__+0x1f7208>
     3c0:	270b3b0b 	strcs	r3, [fp, -fp, lsl #22]
     3c4:	11134919 	tstne	r3, r9, lsl r9
     3c8:	40061201 	andmi	r1, r6, r1, lsl #4
     3cc:	19429718 	stmdbne	r2, {r3, r4, r8, r9, sl, ip, pc}^
     3d0:	00001301 	andeq	r1, r0, r1, lsl #6
     3d4:	0300050d 	movweq	r0, #1293	; 0x50d
     3d8:	3b0b3a0e 	blcc	2cec18 <__bss_end__+0x2c4e58>
     3dc:	0213490b 	andseq	r4, r3, #180224	; 0x2c000
     3e0:	0e000017 	mcreq	0, 0, r0, cr0, cr7, {0}
     3e4:	0e030005 	cdpeq	0, 0, cr0, cr3, cr5, {0}
     3e8:	0b3b0b3a 	bleq	ec30d8 <__bss_end__+0xeb9318>
     3ec:	18021349 	stmdane	r2, {r0, r3, r6, r8, r9, ip}
     3f0:	340f0000 	strcc	r0, [pc], #-0	; 3f8 <_start-0x7c08>
     3f4:	3a080300 	bcc	200ffc <__bss_end__+0x1f723c>
     3f8:	490b3b0b 	stmdbmi	fp, {r0, r1, r3, r8, r9, fp, ip, sp}
     3fc:	00180213 	andseq	r0, r8, r3, lsl r2
     400:	00341000 	eorseq	r1, r4, r0
     404:	0b3a0803 	bleq	e82418 <__bss_end__+0xe78658>
     408:	13490b3b 	movtne	r0, #39739	; 0x9b3b
     40c:	00001702 	andeq	r1, r0, r2, lsl #14
     410:	03003411 	movweq	r3, #1041	; 0x411
     414:	3413490e 	ldrcc	r4, [r3], #-2318	; 0x90e
     418:	00180219 	andseq	r0, r8, r9, lsl r2
     41c:	010b1200 	mrseq	r1, R11_fiq
     420:	06120111 			; <UNDEFINED> instruction: 0x06120111
     424:	00001301 	andeq	r1, r0, r1, lsl #6
     428:	03003413 	movweq	r3, #1043	; 0x413
     42c:	3b0b3a0e 	blcc	2cec6c <__bss_end__+0x2c4eac>
     430:	0213490b 	andseq	r4, r3, #180224	; 0x2c000
     434:	14000017 	strne	r0, [r0], #-23
     438:	00018289 	andeq	r8, r1, r9, lsl #5
     43c:	13310111 	teqne	r1, #1073741828	; 0x40000004
     440:	89150000 	ldmdbhi	r5, {}	; <UNPREDICTABLE>
     444:	11010182 	smlabbne	r1, r2, r1, r0
     448:	01133101 	tsteq	r3, r1, lsl #2
     44c:	16000013 			; <UNDEFINED> instruction: 0x16000013
     450:	0001828a 	andeq	r8, r1, sl, lsl #5
     454:	42911802 	addsmi	r1, r1, #131072	; 0x20000
     458:	17000018 	smladne	r0, r8, r0, r0
     45c:	01018289 	smlabbeq	r1, r9, r2, r8
     460:	13310111 	teqne	r1, #1073741828	; 0x40000004
     464:	01180000 	tsteq	r8, r0
     468:	01134901 	tsteq	r3, r1, lsl #18
     46c:	19000013 	stmdbne	r0, {r0, r1, r4}
     470:	13490021 	movtne	r0, #36897	; 0x9021
     474:	00000b2f 	andeq	r0, r0, pc, lsr #22
     478:	3f012e1a 	svccc	0x00012e1a
     47c:	3a0e0319 	bcc	3810e8 <__bss_end__+0x377328>
     480:	270b3b0b 	strcs	r3, [fp, -fp, lsl #22]
     484:	12011119 	andne	r1, r1, #1073741830	; 0x40000006
     488:	97184006 	ldrls	r4, [r8, -r6]
     48c:	13011942 	movwne	r1, #6466	; 0x1942
     490:	151b0000 	ldrne	r0, [fp, #-0]
     494:	49192701 	ldmdbmi	r9, {r0, r8, r9, sl, sp}
     498:	00130113 	andseq	r0, r3, r3, lsl r1
     49c:	00051c00 	andeq	r1, r5, r0, lsl #24
     4a0:	00001349 	andeq	r1, r0, r9, asr #6
     4a4:	3f012e1d 	svccc	0x00012e1d
     4a8:	3a0e0319 	bcc	381114 <__bss_end__+0x377354>
     4ac:	270b3b0b 	strcs	r3, [fp, -fp, lsl #22]
     4b0:	11134919 	tstne	r3, r9, lsl r9
     4b4:	40061201 	andmi	r1, r6, r1, lsl #4
     4b8:	19429718 	stmdbne	r2, {r3, r4, r8, r9, sl, ip, pc}^
     4bc:	00001301 	andeq	r1, r0, r1, lsl #6
     4c0:	55010b1e 	strpl	r0, [r1, #-2846]	; 0xb1e
     4c4:	1f000017 	svcne	0x00000017
     4c8:	0e030034 	mcreq	0, 0, r0, cr3, cr4, {1}
     4cc:	0b3b0b3a 	bleq	ec31bc <__bss_end__+0xeb93fc>
     4d0:	193f1349 	ldmdbne	pc!, {r0, r3, r6, r8, r9, ip}	; <UNPREDICTABLE>
     4d4:	0000193c 	andeq	r1, r0, ip, lsr r9
     4d8:	3f002e20 	svccc	0x00002e20
     4dc:	3a0e0319 	bcc	381148 <__bss_end__+0x377388>
     4e0:	270b3b0b 	strcs	r3, [fp, -fp, lsl #22]
     4e4:	00193c19 	andseq	r3, r9, r9, lsl ip
     4e8:	012e2100 	teqeq	lr, r0, lsl #2
     4ec:	0e03193f 	mcreq	9, 0, r1, cr3, cr15, {1}
     4f0:	0b3b0b3a 	bleq	ec31e0 <__bss_end__+0xeb9420>
     4f4:	13491927 	movtne	r1, #39207	; 0x9927
     4f8:	1301193c 	movwne	r1, #6460	; 0x193c
     4fc:	18220000 	stmdane	r2!, {}	; <UNPREDICTABLE>
     500:	00000000 	andeq	r0, r0, r0
     504:	25011101 	strcs	r1, [r1, #-257]	; 0x101
     508:	030b130e 	movweq	r1, #45838	; 0xb30e
     50c:	110e1b0e 	tstne	lr, lr, lsl #22
     510:	10061201 	andne	r1, r6, r1, lsl #4
     514:	02000017 	andeq	r0, r0, #23
     518:	0b0b0024 	bleq	2c05b0 <__bss_end__+0x2b67f0>
     51c:	08030b3e 	stmdaeq	r3, {r1, r2, r3, r4, r5, r8, r9, fp}
     520:	24030000 	strcs	r0, [r3], #-0
     524:	3e0b0b00 	vmlacc.f64	d0, d11, d0
     528:	000e030b 	andeq	r0, lr, fp, lsl #6
     52c:	000f0400 	andeq	r0, pc, r0, lsl #8
     530:	13490b0b 	movtne	r0, #39691	; 0x9b0b
     534:	26050000 	strcs	r0, [r5], -r0
     538:	00134900 	andseq	r4, r3, r0, lsl #18
     53c:	012e0600 	teqeq	lr, r0, lsl #12
     540:	0e03193f 	mcreq	9, 0, r1, cr3, cr15, {1}
     544:	0b3b0b3a 	bleq	ec3234 <__bss_end__+0xeb9474>
     548:	01111927 	tsteq	r1, r7, lsr #18
     54c:	18400612 	stmdane	r0, {r1, r4, r9, sl}^
     550:	01194297 			; <UNDEFINED> instruction: 0x01194297
     554:	07000013 	smladeq	r0, r3, r0, r0
     558:	01018289 	smlabbeq	r1, r9, r2, r8
     55c:	13010111 	movwne	r0, #4369	; 0x1111
     560:	8a080000 	bhi	200568 <__bss_end__+0x1f67a8>
     564:	02000182 	andeq	r0, r0, #-2147483616	; 0x80000020
     568:	18429118 	stmdane	r2, {r3, r4, r8, ip, pc}^
     56c:	89090000 	stmdbhi	r9, {}	; <UNPREDICTABLE>
     570:	11010182 	smlabbne	r1, r2, r1, r0
     574:	01133101 	tsteq	r3, r1, lsl #2
     578:	0a000013 	beq	5cc <_start-0x7a34>
     57c:	00018289 	andeq	r8, r1, r9, lsl #5
     580:	13310111 	teqne	r1, #1073741828	; 0x40000004
     584:	150b0000 	strne	r0, [fp, #-0]
     588:	49192701 	ldmdbmi	r9, {r0, r8, r9, sl, sp}
     58c:	00130113 	andseq	r0, r3, r3, lsl r1
     590:	00050c00 	andeq	r0, r5, r0, lsl #24
     594:	00001349 	andeq	r1, r0, r9, asr #6
     598:	0300340d 	movweq	r3, #1037	; 0x40d
     59c:	3b0b3a0e 	blcc	2ceddc <__bss_end__+0x2c501c>
     5a0:	3f13490b 	svccc	0x0013490b
     5a4:	00193c19 	andseq	r3, r9, r9, lsl ip
     5a8:	012e0e00 	teqeq	lr, r0, lsl #28
     5ac:	0e03193f 	mcreq	9, 0, r1, cr3, cr15, {1}
     5b0:	0b3b0b3a 	bleq	ec32a0 <__bss_end__+0xeb94e0>
     5b4:	193c1927 	ldmdbne	ip!, {r0, r1, r2, r5, r8, fp, ip}
     5b8:	00001301 	andeq	r1, r0, r1, lsl #6
     5bc:	3f002e0f 	svccc	0x00002e0f
     5c0:	3a0e0319 	bcc	38122c <__bss_end__+0x37746c>
     5c4:	270b3b0b 	strcs	r3, [fp, -fp, lsl #22]
     5c8:	00193c19 	andseq	r3, r9, r9, lsl ip
     5cc:	11010000 	mrsne	r0, (UNDEF: 1)
     5d0:	130e2501 	movwne	r2, #58625	; 0xe501
     5d4:	1b0e030b 	blne	381208 <__bss_end__+0x377448>
     5d8:	1201110e 	andne	r1, r1, #-2147483645	; 0x80000003
     5dc:	00171006 	andseq	r1, r7, r6
     5e0:	00240200 	eoreq	r0, r4, r0, lsl #4
     5e4:	0b3e0b0b 	bleq	f83218 <__bss_end__+0xf79458>
     5e8:	00000803 	andeq	r0, r0, r3, lsl #16
     5ec:	0b002403 	bleq	9600 <uart_getc+0x8>
     5f0:	030b3e0b 	movweq	r3, #48651	; 0xbe0b
     5f4:	0400000e 	streq	r0, [r0], #-14
     5f8:	0e030016 	mcreq	0, 0, r0, cr3, cr6, {0}
     5fc:	0b3b0b3a 	bleq	ec32ec <__bss_end__+0xeb952c>
     600:	00001349 	andeq	r1, r0, r9, asr #6
     604:	0b000f05 	bleq	4220 <_start-0x3de0>
     608:	0013490b 	andseq	r4, r3, fp, lsl #18
     60c:	00260600 	eoreq	r0, r6, r0, lsl #12
     610:	00001349 	andeq	r1, r0, r9, asr #6
     614:	0b011307 	bleq	45238 <__bss_end__+0x3b478>
     618:	3b0b3a0b 	blcc	2cee4c <__bss_end__+0x2c508c>
     61c:	0013010b 	andseq	r0, r3, fp, lsl #2
     620:	000d0800 	andeq	r0, sp, r0, lsl #16
     624:	0b3a0803 	bleq	e82638 <__bss_end__+0xe78878>
     628:	13490b3b 	movtne	r0, #39739	; 0x9b3b
     62c:	00000b38 	andeq	r0, r0, r8, lsr fp
     630:	03000d09 	movweq	r0, #3337	; 0xd09
     634:	3b0b3a0e 	blcc	2cee74 <__bss_end__+0x2c50b4>
     638:	3813490b 	ldmdacc	r3, {r0, r1, r3, r8, fp, lr}
     63c:	0a00000b 	beq	670 <_start-0x7990>
     640:	0b0b0104 	bleq	2c0a58 <__bss_end__+0x2b6c98>
     644:	0b3b0b3a 	bleq	ec3334 <__bss_end__+0xeb9574>
     648:	00001301 	andeq	r1, r0, r1, lsl #6
     64c:	0300280b 	movweq	r2, #2059	; 0x80b
     650:	000d1c0e 	andeq	r1, sp, lr, lsl #24
     654:	012e0c00 	teqeq	lr, r0, lsl #24
     658:	0b3a0e03 	bleq	e83e6c <__bss_end__+0xe7a0ac>
     65c:	19270b3b 	stmdbne	r7!, {r0, r1, r3, r4, r5, r8, r9, fp}
     660:	01111349 	tsteq	r1, r9, asr #6
     664:	18400612 	stmdane	r0, {r1, r4, r9, sl}^
     668:	01194297 			; <UNDEFINED> instruction: 0x01194297
     66c:	0d000013 	stceq	0, cr0, [r0, #-76]	; 0xffffffb4
     670:	08030005 	stmdaeq	r3, {r0, r2}
     674:	0b3b0b3a 	bleq	ec3364 <__bss_end__+0xeb95a4>
     678:	17021349 	strne	r1, [r2, -r9, asr #6]
     67c:	890e0000 	stmdbhi	lr, {}	; <UNPREDICTABLE>
     680:	11010182 	smlabbne	r1, r2, r1, r0
     684:	00133101 	andseq	r3, r3, r1, lsl #2
     688:	828a0f00 	addhi	r0, sl, #0, 30
     68c:	18020001 	stmdane	r2, {r0}
     690:	00184291 	mulseq	r8, r1, r2
     694:	012e1000 	teqeq	lr, r0
     698:	0e03193f 	mcreq	9, 0, r1, cr3, cr15, {1}
     69c:	0b3b0b3a 	bleq	ec338c <__bss_end__+0xeb95cc>
     6a0:	06120111 			; <UNDEFINED> instruction: 0x06120111
     6a4:	42971840 	addsmi	r1, r7, #64, 16	; 0x400000
     6a8:	00130119 	andseq	r0, r3, r9, lsl r1
     6ac:	00341100 	eorseq	r1, r4, r0, lsl #2
     6b0:	0b3a0e03 	bleq	e83ec4 <__bss_end__+0xe7a104>
     6b4:	13490b3b 	movtne	r0, #39739	; 0x9b3b
     6b8:	193c193f 	ldmdbne	ip!, {r0, r1, r2, r3, r4, r5, r8, fp, ip}
     6bc:	2e120000 	cdpcs	0, 1, cr0, cr2, cr0, {0}
     6c0:	03193f00 	tsteq	r9, #0, 30
     6c4:	3b0b3a0e 	blcc	2cef04 <__bss_end__+0x2c5144>
     6c8:	3c19270b 	ldccc	7, cr2, [r9], {11}
     6cc:	13000019 	movwne	r0, #25
     6d0:	08030034 	stmdaeq	r3, {r2, r4, r5}
     6d4:	0b3b0b3a 	bleq	ec33c4 <__bss_end__+0xeb9604>
     6d8:	17021349 	strne	r1, [r2, -r9, asr #6]
     6dc:	34140000 	ldrcc	r0, [r4], #-0
     6e0:	3a0e0300 	bcc	3812e8 <__bss_end__+0x377528>
     6e4:	490b3b0b 	stmdbmi	fp, {r0, r1, r3, r8, r9, fp, ip, sp}
     6e8:	15000013 	strne	r0, [r0, #-19]
     6ec:	00018289 	andeq	r8, r1, r9, lsl #5
     6f0:	13310111 	teqne	r1, #1073741828	; 0x40000004
     6f4:	89160000 	ldmdbhi	r6, {}	; <UNPREDICTABLE>
     6f8:	11010182 	smlabbne	r1, r2, r1, r0
     6fc:	01133101 	tsteq	r3, r1, lsl #2
     700:	17000013 	smladne	r0, r3, r0, r0
     704:	0e030034 	mcreq	0, 0, r0, cr3, cr4, {1}
     708:	0b3b0b3a 	bleq	ec33f8 <__bss_end__+0xeb9638>
     70c:	18021349 	stmdane	r2, {r0, r3, r6, r8, r9, ip}
     710:	15180000 	ldrne	r0, [r8, #-0]
     714:	49192701 	ldmdbmi	r9, {r0, r8, r9, sl, sp}
     718:	00130113 	andseq	r0, r3, r3, lsl r1
     71c:	00051900 	andeq	r1, r5, r0, lsl #18
     720:	00001349 	andeq	r1, r0, r9, asr #6
     724:	3f012e1a 	svccc	0x00012e1a
     728:	3a0e0319 	bcc	381394 <__bss_end__+0x3775d4>
     72c:	270b3b0b 	strcs	r3, [fp, -fp, lsl #22]
     730:	01193c19 	tsteq	r9, r9, lsl ip
     734:	1b000013 	blne	788 <_start-0x7878>
     738:	193f002e 	ldmdbne	pc!, {r1, r2, r3, r5}	; <UNPREDICTABLE>
     73c:	0b3a0e03 	bleq	e83f50 <__bss_end__+0xe7a190>
     740:	19270b3b 	stmdbne	r7!, {r0, r1, r3, r4, r5, r8, r9, fp}
     744:	193c1349 	ldmdbne	ip!, {r0, r3, r6, r8, r9, ip}
     748:	2e1c0000 	cdpcs	0, 1, cr0, cr12, cr0, {0}
     74c:	03193f01 	tsteq	r9, #1, 30
     750:	3b0b3a0e 	blcc	2cef90 <__bss_end__+0x2c51d0>
     754:	4919270b 	ldmdbmi	r9, {r0, r1, r3, r8, r9, sl, sp}
     758:	01193c13 	tsteq	r9, r3, lsl ip
     75c:	1d000013 	stcne	0, cr0, [r0, #-76]	; 0xffffffb4
     760:	00000018 	andeq	r0, r0, r8, lsl r0
     764:	01110100 	tsteq	r1, r0, lsl #2
     768:	0b130e25 	bleq	4c4004 <__bss_end__+0x4ba244>
     76c:	0e1b0e03 	cdpeq	14, 1, cr0, cr11, cr3, {0}
     770:	01111755 	tsteq	r1, r5, asr r7
     774:	00001710 	andeq	r1, r0, r0, lsl r7
     778:	0b002402 	bleq	9788 <__FUNCTION__.4287>
     77c:	030b3e0b 	movweq	r3, #48651	; 0xbe0b
     780:	03000008 	movweq	r0, #8
     784:	0b0b0024 	bleq	2c081c <__bss_end__+0x2b6a5c>
     788:	0e030b3e 	vmoveq.16	d3[0], r0
     78c:	2e040000 	cdpcs	0, 0, cr0, cr4, cr0, {0}
     790:	03193f01 	tsteq	r9, #1, 30
     794:	3b0b3a0e 	blcc	2cefd4 <__bss_end__+0x2c5214>
     798:	4919270b 	ldmdbmi	r9, {r0, r1, r3, r8, r9, sl, sp}
     79c:	12011113 	andne	r1, r1, #-1073741820	; 0xc0000004
     7a0:	97184006 	ldrls	r4, [r8, -r6]
     7a4:	13011942 	movwne	r1, #6466	; 0x1942
     7a8:	34050000 	strcc	r0, [r5], #-0
     7ac:	3a0e0300 	bcc	3813b4 <__bss_end__+0x3775f4>
     7b0:	490b3b0b 	stmdbmi	fp, {r0, r1, r3, r8, r9, fp, ip, sp}
     7b4:	00170213 	andseq	r0, r7, r3, lsl r2
     7b8:	012e0600 	teqeq	lr, r0, lsl #12
     7bc:	0e03193f 	mcreq	9, 0, r1, cr3, cr15, {1}
     7c0:	0b3b0b3a 	bleq	ec34b0 <__bss_end__+0xeb96f0>
     7c4:	01111927 	tsteq	r1, r7, lsr #18
     7c8:	18400612 	stmdane	r0, {r1, r4, r9, sl}^
     7cc:	01194297 			; <UNDEFINED> instruction: 0x01194297
     7d0:	07000013 	smladeq	r0, r3, r0, r0
     7d4:	0e030034 	mcreq	0, 0, r0, cr3, cr4, {1}
     7d8:	0b3b0b3a 	bleq	ec34c8 <__bss_end__+0xeb9708>
     7dc:	061c1349 	ldreq	r1, [ip], -r9, asr #6
     7e0:	34080000 	strcc	r0, [r8], #-0
     7e4:	3a0e0300 	bcc	3813ec <__bss_end__+0x37762c>
     7e8:	490b3b0b 	stmdbmi	fp, {r0, r1, r3, r8, r9, fp, ip, sp}
     7ec:	000b1c13 	andeq	r1, fp, r3, lsl ip
     7f0:	82890900 	addhi	r0, r9, #0, 18
     7f4:	01110001 	tsteq	r1, r1
     7f8:	00001331 	andeq	r1, r0, r1, lsr r3
     7fc:	0182890a 	orreq	r8, r2, sl, lsl #18
     800:	31011101 	tstcc	r1, r1, lsl #2
     804:	00130113 	andseq	r0, r3, r3, lsl r1
     808:	828a0b00 	addhi	r0, sl, #0, 22
     80c:	18020001 	stmdane	r2, {r0}
     810:	00184291 	mulseq	r8, r1, r2
     814:	82890c00 	addhi	r0, r9, #0, 24
     818:	01110101 	tsteq	r1, r1, lsl #2
     81c:	00001331 	andeq	r1, r0, r1, lsr r3
     820:	4900260d 	stmdbmi	r0, {r0, r2, r3, r9, sl, sp}
     824:	0e000013 	mcreq	0, 0, r0, cr0, cr3, {0}
     828:	193f012e 	ldmdbne	pc!, {r1, r2, r3, r5, r8}	; <UNPREDICTABLE>
     82c:	0b3a0e03 	bleq	e84040 <__bss_end__+0xe7a280>
     830:	19270b3b 	stmdbne	r7!, {r0, r1, r3, r4, r5, r8, r9, fp}
     834:	1301193c 	movwne	r1, #6460	; 0x193c
     838:	050f0000 	streq	r0, [pc, #-0]	; 840 <_start-0x77c0>
     83c:	00134900 	andseq	r4, r3, r0, lsl #18
     840:	012e1000 	teqeq	lr, r0
     844:	0e03193f 	mcreq	9, 0, r1, cr3, cr15, {1}
     848:	0b3b0b3a 	bleq	ec3538 <__bss_end__+0xeb9778>
     84c:	193c1927 	ldmdbne	ip!, {r0, r1, r2, r5, r8, fp, ip}
     850:	01000000 	mrseq	r0, (UNDEF: 0)
     854:	0e250111 	mcreq	1, 1, r0, cr5, cr1, {0}
     858:	0e030b13 	vmoveq.32	d3[0], r0
     85c:	01110e1b 	tsteq	r1, fp, lsl lr
     860:	17100612 			; <UNDEFINED> instruction: 0x17100612
     864:	24020000 	strcs	r0, [r2], #-0
     868:	3e0b0b00 	vmlacc.f64	d0, d11, d0
     86c:	0008030b 	andeq	r0, r8, fp, lsl #6
     870:	00240300 	eoreq	r0, r4, r0, lsl #6
     874:	0b3e0b0b 	bleq	f834a8 <__bss_end__+0xf796e8>
     878:	00000e03 	andeq	r0, r0, r3, lsl #28
     87c:	3f012e04 	svccc	0x00012e04
     880:	3a0e0319 	bcc	3814ec <__bss_end__+0x37772c>
     884:	270b3b0b 	strcs	r3, [fp, -fp, lsl #22]
     888:	12011119 	andne	r1, r1, #1073741830	; 0x40000006
     88c:	97184006 	ldrls	r4, [r8, -r6]
     890:	13011942 	movwne	r1, #6466	; 0x1942
     894:	05050000 	streq	r0, [r5, #-0]
     898:	3a0e0300 	bcc	3814a0 <__bss_end__+0x3776e0>
     89c:	490b3b0b 	stmdbmi	fp, {r0, r1, r3, r8, r9, fp, ip, sp}
     8a0:	00170213 	andseq	r0, r7, r3, lsl r2
     8a4:	012e0600 	teqeq	lr, r0, lsl #12
     8a8:	0e03193f 	mcreq	9, 0, r1, cr3, cr15, {1}
     8ac:	0b3b0b3a 	bleq	ec359c <__bss_end__+0xeb97dc>
     8b0:	13491927 	movtne	r1, #39207	; 0x9927
     8b4:	06120111 			; <UNDEFINED> instruction: 0x06120111
     8b8:	42971840 	addsmi	r1, r7, #64, 16	; 0x400000
     8bc:	00130119 	andseq	r0, r3, r9, lsl r1
     8c0:	82890700 	addhi	r0, r9, #0, 14
     8c4:	01110101 	tsteq	r1, r1, lsl #2
     8c8:	00001331 	andeq	r1, r0, r1, lsr r3
     8cc:	01828a08 	orreq	r8, r2, r8, lsl #20
     8d0:	91180200 	tstls	r8, r0, lsl #4
     8d4:	00001842 	andeq	r1, r0, r2, asr #16
     8d8:	03003409 	movweq	r3, #1033	; 0x409
     8dc:	3b0b3a08 	blcc	2cf104 <__bss_end__+0x2c5344>
     8e0:	0213490b 	andseq	r4, r3, #180224	; 0x2c000
     8e4:	0a000018 	beq	94c <_start-0x76b4>
     8e8:	00018289 	andeq	r8, r1, r9, lsl #5
     8ec:	13310111 	teqne	r1, #1073741828	; 0x40000004
     8f0:	050b0000 	streq	r0, [fp, #-0]
     8f4:	3a080300 	bcc	2014fc <__bss_end__+0x1f773c>
     8f8:	490b3b0b 	stmdbmi	fp, {r0, r1, r3, r8, r9, fp, ip, sp}
     8fc:	00170213 	andseq	r0, r7, r3, lsl r2
     900:	010b0c00 	tsteq	fp, r0, lsl #24
     904:	06120111 			; <UNDEFINED> instruction: 0x06120111
     908:	00001301 	andeq	r1, r0, r1, lsl #6
     90c:	0300340d 	movweq	r3, #1037	; 0x40d
     910:	3b0b3a08 	blcc	2cf138 <__bss_end__+0x2c5378>
     914:	0213490b 	andseq	r4, r3, #180224	; 0x2c000
     918:	0e000017 	mcreq	0, 0, r0, cr0, cr7, {0}
     91c:	193f012e 	ldmdbne	pc!, {r1, r2, r3, r5, r8}	; <UNPREDICTABLE>
     920:	0b3a0e03 	bleq	e84134 <__bss_end__+0xe7a374>
     924:	19270b3b 	stmdbne	r7!, {r0, r1, r3, r4, r5, r8, r9, fp}
     928:	193c1349 	ldmdbne	ip!, {r0, r3, r6, r8, r9, ip}
     92c:	050f0000 	streq	r0, [pc, #-0]	; 934 <_start-0x76cc>
     930:	00134900 	andseq	r4, r3, r0, lsl #18
     934:	11010000 	mrsne	r0, (UNDEF: 1)
     938:	130e2501 	movwne	r2, #58625	; 0xe501
     93c:	1b0e030b 	blne	381570 <__bss_end__+0x3777b0>
     940:	1201110e 	andne	r1, r1, #-2147483645	; 0x80000003
     944:	00171006 	andseq	r1, r7, r6
     948:	00240200 	eoreq	r0, r4, r0, lsl #4
     94c:	0b3e0b0b 	bleq	f83580 <__bss_end__+0xf797c0>
     950:	00000e03 	andeq	r0, r0, r3, lsl #28
     954:	0b002403 	bleq	9968 <__FUNCTION__.4376+0x74>
     958:	030b3e0b 	movweq	r3, #48651	; 0xbe0b
     95c:	04000008 	streq	r0, [r0], #-8
     960:	0b0b0104 	bleq	2c0d78 <__bss_end__+0x2b6fb8>
     964:	0b3b0b3a 	bleq	ec3654 <__bss_end__+0xeb9894>
     968:	00001301 	andeq	r1, r0, r1, lsl #6
     96c:	03002805 	movweq	r2, #2053	; 0x805
     970:	000d1c0e 	andeq	r1, sp, lr, lsl #24
     974:	00160600 	andseq	r0, r6, r0, lsl #12
     978:	0b3a0e03 	bleq	e8418c <__bss_end__+0xe7a3cc>
     97c:	13490b3b 	movtne	r0, #39739	; 0x9b3b
     980:	2e070000 	cdpcs	0, 0, cr0, cr7, cr0, {0}
     984:	03193f01 	tsteq	r9, #1, 30
     988:	3b0b3a0e 	blcc	2cf1c8 <__bss_end__+0x2c5408>
     98c:	1119270b 	tstne	r9, fp, lsl #14
     990:	40061201 	andmi	r1, r6, r1, lsl #4
     994:	19429718 	stmdbne	r2, {r3, r4, r8, r9, sl, ip, pc}^
     998:	00001301 	andeq	r1, r0, r1, lsl #6
     99c:	03000508 	movweq	r0, #1288	; 0x508
     9a0:	3b0b3a08 	blcc	2cf1c8 <__bss_end__+0x2c5408>
     9a4:	0213490b 	andseq	r4, r3, #180224	; 0x2c000
     9a8:	09000017 	stmdbeq	r0, {r0, r1, r2, r4}
     9ac:	0e030034 	mcreq	0, 0, r0, cr3, cr4, {1}
     9b0:	0b3b0b3a 	bleq	ec36a0 <__bss_end__+0xeb98e0>
     9b4:	17021349 	strne	r1, [r2, -r9, asr #6]
     9b8:	890a0000 	stmdbhi	sl, {}	; <UNPREDICTABLE>
     9bc:	11010182 	smlabbne	r1, r2, r1, r0
     9c0:	01133101 	tsteq	r3, r1, lsl #2
     9c4:	0b000013 	bleq	a18 <_start-0x75e8>
     9c8:	0001828a 	andeq	r8, r1, sl, lsl #5
     9cc:	42911802 	addsmi	r1, r1, #131072	; 0x20000
     9d0:	0c000018 	stceq	0, cr0, [r0], {24}
     9d4:	01018289 	smlabbeq	r1, r9, r2, r8
     9d8:	13310111 	teqne	r1, #1073741828	; 0x40000004
     9dc:	0f0d0000 	svceq	0x000d0000
     9e0:	490b0b00 	stmdbmi	fp, {r8, r9, fp}
     9e4:	0e000013 	mcreq	0, 0, r0, cr0, cr3, {0}
     9e8:	13490035 	movtne	r0, #36917	; 0x9035
     9ec:	2e0f0000 	cdpcs	0, 0, cr0, cr15, cr0, {0}
     9f0:	03193f01 	tsteq	r9, #1, 30
     9f4:	3b0b3a0e 	blcc	2cf234 <__bss_end__+0x2c5474>
     9f8:	4919270b 	ldmdbmi	r9, {r0, r1, r3, r8, r9, sl, sp}
     9fc:	12011113 	andne	r1, r1, #-1073741820	; 0xc0000004
     a00:	97184006 	ldrls	r4, [r8, -r6]
     a04:	13011942 	movwne	r1, #6466	; 0x1942
     a08:	34100000 	ldrcc	r0, [r0], #-0
     a0c:	3a080300 	bcc	201614 <__bss_end__+0x1f7854>
     a10:	490b3b0b 	stmdbmi	fp, {r0, r1, r3, r8, r9, fp, ip, sp}
     a14:	00170213 	andseq	r0, r7, r3, lsl r2
     a18:	82891100 	addhi	r1, r9, #0, 2
     a1c:	01110001 	tsteq	r1, r1
     a20:	00001331 	andeq	r1, r0, r1, lsr r3
     a24:	03000512 	movweq	r0, #1298	; 0x512
     a28:	3b0b3a0e 	blcc	2cf268 <__bss_end__+0x2c54a8>
     a2c:	0213490b 	andseq	r4, r3, #180224	; 0x2c000
     a30:	13000017 	movwne	r0, #23
     a34:	193f012e 	ldmdbne	pc!, {r1, r2, r3, r5, r8}	; <UNPREDICTABLE>
     a38:	0b3a0e03 	bleq	e8424c <__bss_end__+0xe7a48c>
     a3c:	1927053b 	stmdbne	r7!, {r0, r1, r3, r4, r5, r8, sl}
     a40:	01111349 	tsteq	r1, r9, asr #6
     a44:	18400612 	stmdane	r0, {r1, r4, r9, sl}^
     a48:	01194297 			; <UNDEFINED> instruction: 0x01194297
     a4c:	14000013 	strne	r0, [r0], #-19
     a50:	0e030005 	cdpeq	0, 0, cr0, cr3, cr5, {0}
     a54:	053b0b3a 	ldreq	r0, [fp, #-2874]!	; 0xb3a
     a58:	17021349 	strne	r1, [r2, -r9, asr #6]
     a5c:	2e150000 	cdpcs	0, 1, cr0, cr5, cr0, {0}
     a60:	03193f01 	tsteq	r9, #1, 30
     a64:	3b0b3a0e 	blcc	2cf2a4 <__bss_end__+0x2c54e4>
     a68:	11192705 	tstne	r9, r5, lsl #14
     a6c:	40061201 	andmi	r1, r6, r1, lsl #4
     a70:	19429718 	stmdbne	r2, {r3, r4, r8, r9, sl, ip, pc}^
     a74:	00001301 	andeq	r1, r0, r1, lsl #6
     a78:	03000516 	movweq	r0, #1302	; 0x516
     a7c:	3b0b3a08 	blcc	2cf2a4 <__bss_end__+0x2c54e4>
     a80:	02134905 	andseq	r4, r3, #81920	; 0x14000
     a84:	17000017 	smladne	r0, r7, r0, r0
     a88:	0e030034 	mcreq	0, 0, r0, cr3, cr4, {1}
     a8c:	053b0b3a 	ldreq	r0, [fp, #-2874]!	; 0xb3a
     a90:	17021349 	strne	r1, [r2, -r9, asr #6]
     a94:	0b180000 	bleq	600a9c <__bss_end__+0x5f6cdc>
     a98:	12011101 	andne	r1, r1, #1073741824	; 0x40000000
     a9c:	00130106 	andseq	r0, r3, r6, lsl #2
     aa0:	00341900 	eorseq	r1, r4, r0, lsl #18
     aa4:	0b3a0e03 	bleq	e842b8 <__bss_end__+0xe7a4f8>
     aa8:	13490b3b 	movtne	r0, #39739	; 0x9b3b
     aac:	1802193f 	stmdane	r2, {r0, r1, r2, r3, r4, r5, r8, fp, ip}
     ab0:	341a0000 	ldrcc	r0, [sl], #-0
     ab4:	3a0e0300 	bcc	3816bc <__bss_end__+0x3778fc>
     ab8:	49053b0b 	stmdbmi	r5, {r0, r1, r3, r8, r9, fp, ip, sp}
     abc:	02193f13 	andseq	r3, r9, #19, 30	; 0x4c
     ac0:	1b000018 	blne	b28 <_start-0x74d8>
     ac4:	193f012e 	ldmdbne	pc!, {r1, r2, r3, r5, r8}	; <UNPREDICTABLE>
     ac8:	0b3a0e03 	bleq	e842dc <__bss_end__+0xe7a51c>
     acc:	19270b3b 	stmdbne	r7!, {r0, r1, r3, r4, r5, r8, r9, fp}
     ad0:	193c1349 	ldmdbne	ip!, {r0, r3, r6, r8, r9, ip}
     ad4:	00001301 	andeq	r1, r0, r1, lsl #6
     ad8:	4900051c 	stmdbmi	r0, {r2, r3, r4, r8, sl}
     adc:	1d000013 	stcne	0, cr0, [r0, #-76]	; 0xffffffb4
     ae0:	13490026 	movtne	r0, #36902	; 0x9026
     ae4:	351e0000 	ldrcc	r0, [lr, #-0]
     ae8:	1f000000 	svcne	0x00000000
     aec:	193f012e 	ldmdbne	pc!, {r1, r2, r3, r5, r8}	; <UNPREDICTABLE>
     af0:	0b3a0e03 	bleq	e84304 <__bss_end__+0xe7a544>
     af4:	19270b3b 	stmdbne	r7!, {r0, r1, r3, r4, r5, r8, r9, fp}
     af8:	1301193c 	movwne	r1, #6460	; 0x193c
     afc:	2e200000 	cdpcs	0, 2, cr0, cr0, cr0, {0}
     b00:	03193f00 	tsteq	r9, #0, 30
     b04:	3b0b3a0e 	blcc	2cf344 <__bss_end__+0x2c5584>
     b08:	3c19270b 	ldccc	7, cr2, [r9], {11}
     b0c:	00000019 	andeq	r0, r0, r9, lsl r0
     b10:	25011101 	strcs	r1, [r1, #-257]	; 0x101
     b14:	030b130e 	movweq	r1, #45838	; 0xb30e
     b18:	110e1b0e 	tstne	lr, lr, lsl #22
     b1c:	10061201 	andne	r1, r6, r1, lsl #4
     b20:	02000017 	andeq	r0, r0, #23
     b24:	0b0b0024 	bleq	2c0bbc <__bss_end__+0x2b6dfc>
     b28:	08030b3e 	stmdaeq	r3, {r1, r2, r3, r4, r5, r8, r9, fp}
     b2c:	24030000 	strcs	r0, [r3], #-0
     b30:	3e0b0b00 	vmlacc.f64	d0, d11, d0
     b34:	000e030b 	andeq	r0, lr, fp, lsl #6
     b38:	00160400 	andseq	r0, r6, r0, lsl #8
     b3c:	0b3a0e03 	bleq	e84350 <__bss_end__+0xe7a590>
     b40:	13490b3b 	movtne	r0, #39739	; 0x9b3b
     b44:	0f050000 	svceq	0x00050000
     b48:	000b0b00 	andeq	r0, fp, r0, lsl #22
     b4c:	000f0600 	andeq	r0, pc, r0, lsl #12
     b50:	13490b0b 	movtne	r0, #39691	; 0x9b0b
     b54:	26070000 	strcs	r0, [r7], -r0
     b58:	00134900 	andseq	r4, r3, r0, lsl #18
     b5c:	01130800 	tsteq	r3, r0, lsl #16
     b60:	0b3a0b0b 	bleq	e83794 <__bss_end__+0xe799d4>
     b64:	13010b3b 	movwne	r0, #6971	; 0x1b3b
     b68:	0d090000 	stceq	0, cr0, [r9, #-0]
     b6c:	3a080300 	bcc	201774 <__bss_end__+0x1f79b4>
     b70:	490b3b0b 	stmdbmi	fp, {r0, r1, r3, r8, r9, fp, ip, sp}
     b74:	000b3813 	andeq	r3, fp, r3, lsl r8
     b78:	000d0a00 	andeq	r0, sp, r0, lsl #20
     b7c:	0b3a0e03 	bleq	e84390 <__bss_end__+0xe7a5d0>
     b80:	13490b3b 	movtne	r0, #39739	; 0x9b3b
     b84:	00000b38 	andeq	r0, r0, r8, lsr fp
     b88:	0301130b 	movweq	r1, #4875	; 0x130b
     b8c:	3a0b0b0e 	bcc	2c37cc <__bss_end__+0x2b9a0c>
     b90:	010b3b0b 	tsteq	fp, fp, lsl #22
     b94:	0c000013 	stceq	0, cr0, [r0], {19}
     b98:	0e03000d 	cdpeq	0, 0, cr0, cr3, cr13, {0}
     b9c:	0b381349 	bleq	e058c8 <__bss_end__+0xdfbb08>
     ba0:	00001934 	andeq	r1, r0, r4, lsr r9
     ba4:	03012e0d 	movweq	r2, #7693	; 0x1e0d
     ba8:	3b0b3a0e 	blcc	2cf3e8 <__bss_end__+0x2c5628>
     bac:	2019270b 	andscs	r2, r9, fp, lsl #14
     bb0:	0013010b 	andseq	r0, r3, fp, lsl #2
     bb4:	00050e00 	andeq	r0, r5, r0, lsl #28
     bb8:	0b3a0e03 	bleq	e843cc <__bss_end__+0xe7a60c>
     bbc:	13490b3b 	movtne	r0, #39739	; 0x9b3b
     bc0:	050f0000 	streq	r0, [pc, #-0]	; bc8 <_start-0x7438>
     bc4:	3a080300 	bcc	2017cc <__bss_end__+0x1f7a0c>
     bc8:	490b3b0b 	stmdbmi	fp, {r0, r1, r3, r8, r9, fp, ip, sp}
     bcc:	10000013 	andne	r0, r0, r3, lsl r0
     bd0:	0000010b 	andeq	r0, r0, fp, lsl #2
     bd4:	03003411 	movweq	r3, #1041	; 0x411
     bd8:	3b0b3a0e 	blcc	2cf418 <__bss_end__+0x2c5658>
     bdc:	0013490b 	andseq	r4, r3, fp, lsl #18
     be0:	012e1200 	teqeq	lr, r0, lsl #4
     be4:	0e03193f 	mcreq	9, 0, r1, cr3, cr15, {1}
     be8:	0b3b0b3a 	bleq	ec38d8 <__bss_end__+0xeb9b18>
     bec:	01111927 	tsteq	r1, r7, lsr #18
     bf0:	18400612 	stmdane	r0, {r1, r4, r9, sl}^
     bf4:	01194297 			; <UNDEFINED> instruction: 0x01194297
     bf8:	13000013 	movwne	r0, #19
     bfc:	0e030005 	cdpeq	0, 0, cr0, cr3, cr5, {0}
     c00:	0b3b0b3a 	bleq	ec38f0 <__bss_end__+0xeb9b30>
     c04:	17021349 	strne	r1, [r2, -r9, asr #6]
     c08:	05140000 	ldreq	r0, [r4, #-0]
     c0c:	3a080300 	bcc	201814 <__bss_end__+0x1f7a54>
     c10:	490b3b0b 	stmdbmi	fp, {r0, r1, r3, r8, r9, fp, ip, sp}
     c14:	00170213 	andseq	r0, r7, r3, lsl r2
     c18:	00341500 	eorseq	r1, r4, r0, lsl #10
     c1c:	0b3a0803 	bleq	e82c30 <__bss_end__+0xe78e70>
     c20:	13490b3b 	movtne	r0, #39739	; 0x9b3b
     c24:	00001802 	andeq	r1, r0, r2, lsl #16
     c28:	03003416 	movweq	r3, #1046	; 0x416
     c2c:	3b0b3a08 	blcc	2cf454 <__bss_end__+0x2c5694>
     c30:	0213490b 	andseq	r4, r3, #180224	; 0x2c000
     c34:	17000017 	smladne	r0, r7, r0, r0
     c38:	0111010b 	tsteq	r1, fp, lsl #2
     c3c:	13010612 	movwne	r0, #5650	; 0x1612
     c40:	34180000 	ldrcc	r0, [r8], #-0
     c44:	3a0e0300 	bcc	38184c <__bss_end__+0x377a8c>
     c48:	490b3b0b 	stmdbmi	fp, {r0, r1, r3, r8, r9, fp, ip, sp}
     c4c:	00180213 	andseq	r0, r8, r3, lsl r2
     c50:	011d1900 	tsteq	sp, r0, lsl #18
     c54:	01111331 	tsteq	r1, r1, lsr r3
     c58:	0b580612 	bleq	16024a8 <__bss_end__+0x15f86e8>
     c5c:	13010b59 	movwne	r0, #7001	; 0x1b59
     c60:	051a0000 	ldreq	r0, [sl, #-0]
     c64:	02133100 	andseq	r3, r3, #0, 2
     c68:	1b000017 	blne	ccc <_start-0x7334>
     c6c:	13310005 	teqne	r1, #5
     c70:	00001802 	andeq	r1, r0, r2, lsl #16
     c74:	3100051c 	tstcc	r0, ip, lsl r5
     c78:	000b1c13 	andeq	r1, fp, r3, lsl ip
     c7c:	010b1d00 	tsteq	fp, r0, lsl #26
     c80:	06120111 			; <UNDEFINED> instruction: 0x06120111
     c84:	341e0000 	ldrcc	r0, [lr], #-0
     c88:	02133100 	andseq	r3, r3, #0, 2
     c8c:	1f000017 	svcne	0x00000017
     c90:	01018289 	smlabbeq	r1, r9, r2, r8
     c94:	13310111 	teqne	r1, #1073741828	; 0x40000004
     c98:	8a200000 	bhi	800ca0 <__bss_end__+0x7f6ee0>
     c9c:	02000182 	andeq	r0, r0, #-2147483616	; 0x80000020
     ca0:	18429118 	stmdane	r2, {r3, r4, r8, ip, pc}^
     ca4:	1d210000 	stcne	0, cr0, [r1, #-0]
     ca8:	11133101 	tstne	r3, r1, lsl #2
     cac:	58061201 	stmdapl	r6, {r0, r9, ip}
     cb0:	000b590b 	andeq	r5, fp, fp, lsl #18
     cb4:	012e2200 	teqeq	lr, r0, lsl #4
     cb8:	0b3a0e03 	bleq	e844cc <__bss_end__+0xe7a70c>
     cbc:	19270b3b 	stmdbne	r7!, {r0, r1, r3, r4, r5, r8, r9, fp}
     cc0:	0b201349 	bleq	8059ec <__bss_end__+0x7fbc2c>
     cc4:	00001301 	andeq	r1, r0, r1, lsl #6
     cc8:	3f012e23 	svccc	0x00012e23
     ccc:	3a0e0319 	bcc	381938 <__bss_end__+0x377b78>
     cd0:	270b3b0b 	strcs	r3, [fp, -fp, lsl #22]
     cd4:	11134919 	tstne	r3, r9, lsl r9
     cd8:	40061201 	andmi	r1, r6, r1, lsl #4
     cdc:	19429718 	stmdbne	r2, {r3, r4, r8, r9, sl, ip, pc}^
     ce0:	00001301 	andeq	r1, r0, r1, lsl #6
     ce4:	01828924 	orreq	r8, r2, r4, lsr #18
     ce8:	31011100 	mrscc	r1, (UNDEF: 17)
     cec:	25000013 	strcs	r0, [r0, #-19]
     cf0:	01018289 	smlabbeq	r1, r9, r2, r8
     cf4:	13310111 	teqne	r1, #1073741828	; 0x40000004
     cf8:	00001301 	andeq	r1, r0, r1, lsl #6
     cfc:	03003426 	movweq	r3, #1062	; 0x426
     d00:	3b0b3a0e 	blcc	2cf540 <__bss_end__+0x2c5780>
     d04:	0213490b 	andseq	r4, r3, #180224	; 0x2c000
     d08:	27000017 	smladcs	r0, r7, r0, r0
     d0c:	13310005 	teqne	r1, #5
     d10:	05280000 	streq	r0, [r8, #-0]!
     d14:	3a0e0300 	bcc	38191c <__bss_end__+0x377b5c>
     d18:	490b3b0b 	stmdbmi	fp, {r0, r1, r3, r8, r9, fp, ip, sp}
     d1c:	00180213 	andseq	r0, r8, r3, lsl r2
     d20:	00342900 	eorseq	r2, r4, r0, lsl #18
     d24:	13490e03 	movtne	r0, #40451	; 0x9e03
     d28:	18021934 	stmdane	r2, {r2, r4, r5, r8, fp, ip}
     d2c:	012a0000 	teqeq	sl, r0
     d30:	01134901 	tsteq	r3, r1, lsl #18
     d34:	2b000013 	blcs	d88 <_start-0x7278>
     d38:	13490021 	movtne	r0, #36897	; 0x9021
     d3c:	00000b2f 	andeq	r0, r0, pc, lsr #22
     d40:	0300342c 	movweq	r3, #1068	; 0x42c
     d44:	3b0b3a08 	blcc	2cf56c <__bss_end__+0x2c57ac>
     d48:	1c13490b 	ldcne	9, cr4, [r3], {11}
     d4c:	2d000006 	stccs	0, cr0, [r0, #-24]	; 0xffffffe8
     d50:	08030034 	stmdaeq	r3, {r2, r4, r5}
     d54:	0b3b0b3a 	bleq	ec3a44 <__bss_end__+0xeb9c84>
     d58:	0b1c1349 	bleq	705a84 <__bss_end__+0x6fbcc4>
     d5c:	052e0000 	streq	r0, [lr, #-0]!
     d60:	3a080300 	bcc	201968 <__bss_end__+0x1f7ba8>
     d64:	490b3b0b 	stmdbmi	fp, {r0, r1, r3, r8, r9, fp, ip, sp}
     d68:	00180213 	andseq	r0, r8, r3, lsl r2
     d6c:	00182f00 	andseq	r2, r8, r0, lsl #30
     d70:	21300000 	teqcs	r0, r0
     d74:	2f134900 	svccs	0x00134900
     d78:	31000005 	tstcc	r0, r5
     d7c:	193f012e 	ldmdbne	pc!, {r1, r2, r3, r5, r8}	; <UNPREDICTABLE>
     d80:	0b3a0e03 	bleq	e84594 <__bss_end__+0xe7a7d4>
     d84:	19270b3b 	stmdbne	r7!, {r0, r1, r3, r4, r5, r8, r9, fp}
     d88:	1301193c 	movwne	r1, #6460	; 0x193c
     d8c:	05320000 	ldreq	r0, [r2, #-0]!
     d90:	00134900 	andseq	r4, r3, r0, lsl #18
     d94:	002e3300 	eoreq	r3, lr, r0, lsl #6
     d98:	0e03193f 	mcreq	9, 0, r1, cr3, cr15, {1}
     d9c:	0b3b0b3a 	bleq	ec3a8c <__bss_end__+0xeb9ccc>
     da0:	13491927 	movtne	r1, #39207	; 0x9927
     da4:	0000193c 	andeq	r1, r0, ip, lsr r9
     da8:	3f012e34 	svccc	0x00012e34
     dac:	3a0e0319 	bcc	381a18 <__bss_end__+0x377c58>
     db0:	270b3b0b 	strcs	r3, [fp, -fp, lsl #22]
     db4:	3c134919 	ldccc	9, cr4, [r3], {25}
     db8:	00130119 	andseq	r0, r3, r9, lsl r1
     dbc:	002e3500 	eoreq	r3, lr, r0, lsl #10
     dc0:	0e03193f 	mcreq	9, 0, r1, cr3, cr15, {1}
     dc4:	0b3b0b3a 	bleq	ec3ab4 <__bss_end__+0xeb9cf4>
     dc8:	193c1927 	ldmdbne	ip!, {r0, r1, r2, r5, r8, fp, ip}
     dcc:	2e360000 	cdpcs	0, 3, cr0, cr6, cr0, {0}
     dd0:	03193f01 	tsteq	r9, #1, 30
     dd4:	3b0b3a0e 	blcc	2cf614 <__bss_end__+0x2c5854>
     dd8:	4919270b 	ldmdbmi	r9, {r0, r1, r3, r8, r9, sl, sp}
     ddc:	00193c13 	andseq	r3, r9, r3, lsl ip
     de0:	11010000 	mrsne	r0, (UNDEF: 1)
     de4:	130e2501 	movwne	r2, #58625	; 0xe501
     de8:	1b0e030b 	blne	381a1c <__bss_end__+0x377c5c>
     dec:	1201110e 	andne	r1, r1, #-2147483645	; 0x80000003
     df0:	00171006 	andseq	r1, r7, r6
     df4:	00240200 	eoreq	r0, r4, r0, lsl #4
     df8:	0b3e0b0b 	bleq	f83a2c <__bss_end__+0xf79c6c>
     dfc:	00000803 	andeq	r0, r0, r3, lsl #16
     e00:	0b002403 	bleq	9e14 <__bss_end__+0x54>
     e04:	030b3e0b 	movweq	r3, #48651	; 0xbe0b
     e08:	0400000e 	streq	r0, [r0], #-14
     e0c:	0e03012e 	adfeqsp	f0, f3, #0.5
     e10:	0b3b0b3a 	bleq	ec3b00 <__bss_end__+0xeb9d40>
     e14:	13491927 	movtne	r1, #39207	; 0x9927
     e18:	06120111 			; <UNDEFINED> instruction: 0x06120111
     e1c:	42971840 	addsmi	r1, r7, #64, 16	; 0x400000
     e20:	00130119 	andseq	r0, r3, r9, lsl r1
     e24:	00050500 	andeq	r0, r5, r0, lsl #10
     e28:	0b3a0803 	bleq	e82e3c <__bss_end__+0xe7907c>
     e2c:	13490b3b 	movtne	r0, #39739	; 0x9b3b
     e30:	00001702 	andeq	r1, r0, r2, lsl #14
     e34:	01828906 	orreq	r8, r2, r6, lsl #18
     e38:	31011101 	tstcc	r1, r1, lsl #2
     e3c:	07000013 	smladeq	r0, r3, r0, r0
     e40:	0001828a 	andeq	r8, r1, sl, lsl #5
     e44:	42911802 	addsmi	r1, r1, #131072	; 0x20000
     e48:	08000018 	stmdaeq	r0, {r3, r4}
     e4c:	193f002e 	ldmdbne	pc!, {r1, r2, r3, r5}	; <UNPREDICTABLE>
     e50:	0b3a0e03 	bleq	e84664 <__bss_end__+0xe7a8a4>
     e54:	19270b3b 	stmdbne	r7!, {r0, r1, r3, r4, r5, r8, r9, fp}
     e58:	06120111 			; <UNDEFINED> instruction: 0x06120111
     e5c:	42971840 	addsmi	r1, r7, #64, 16	; 0x400000
     e60:	09000019 	stmdbeq	r0, {r0, r3, r4}
     e64:	193f012e 	ldmdbne	pc!, {r1, r2, r3, r5, r8}	; <UNPREDICTABLE>
     e68:	0b3a0e03 	bleq	e8467c <__bss_end__+0xe7a8bc>
     e6c:	19270b3b 	stmdbne	r7!, {r0, r1, r3, r4, r5, r8, r9, fp}
     e70:	06120111 			; <UNDEFINED> instruction: 0x06120111
     e74:	42971840 	addsmi	r1, r7, #64, 16	; 0x400000
     e78:	00130119 	andseq	r0, r3, r9, lsl r1
     e7c:	00050a00 	andeq	r0, r5, r0, lsl #20
     e80:	0b3a0803 	bleq	e82e94 <__bss_end__+0xe790d4>
     e84:	13490b3b 	movtne	r0, #39739	; 0x9b3b
     e88:	00001802 	andeq	r1, r0, r2, lsl #16
     e8c:	2701150b 	strcs	r1, [r1, -fp, lsl #10]
     e90:	01134919 	tsteq	r3, r9, lsl r9
     e94:	0c000013 	stceq	0, cr0, [r0], {19}
     e98:	13490005 	movtne	r0, #36869	; 0x9005
     e9c:	0f0d0000 	svceq	0x000d0000
     ea0:	490b0b00 	stmdbmi	fp, {r8, r9, fp}
     ea4:	0e000013 	mcreq	0, 0, r0, cr0, cr3, {0}
     ea8:	0e030034 	mcreq	0, 0, r0, cr3, cr4, {1}
     eac:	0b3b0b3a 	bleq	ec3b9c <__bss_end__+0xeb9ddc>
     eb0:	193f1349 	ldmdbne	pc!, {r0, r3, r6, r8, r9, ip}	; <UNPREDICTABLE>
     eb4:	00001802 	andeq	r1, r0, r2, lsl #16
     eb8:	3f012e0f 	svccc	0x00012e0f
     ebc:	3a0e0319 	bcc	381b28 <__bss_end__+0x377d68>
     ec0:	270b3b0b 	strcs	r3, [fp, -fp, lsl #22]
     ec4:	00193c19 	andseq	r3, r9, r9, lsl ip
     ec8:	11010000 	mrsne	r0, (UNDEF: 1)
     ecc:	130e2501 	movwne	r2, #58625	; 0xe501
     ed0:	1b0e030b 	blne	381b04 <__bss_end__+0x377d44>
     ed4:	1201110e 	andne	r1, r1, #-2147483645	; 0x80000003
     ed8:	00171006 	andseq	r1, r7, r6
     edc:	00240200 	eoreq	r0, r4, r0, lsl #4
     ee0:	0b3e0b0b 	bleq	f83b14 <__bss_end__+0xf79d54>
     ee4:	00000803 	andeq	r0, r0, r3, lsl #16
     ee8:	03001603 	movweq	r1, #1539	; 0x603
     eec:	3b0b3a0e 	blcc	2cf72c <__bss_end__+0x2c596c>
     ef0:	0013490b 	andseq	r4, r3, fp, lsl #18
     ef4:	00240400 	eoreq	r0, r4, r0, lsl #8
     ef8:	0b3e0b0b 	bleq	f83b2c <__bss_end__+0xf79d6c>
     efc:	00000e03 	andeq	r0, r0, r3, lsl #28
     f00:	0b000f05 	bleq	4b1c <_start-0x34e4>
     f04:	0600000b 	streq	r0, [r0], -fp
     f08:	0b0b0113 	bleq	2c135c <__bss_end__+0x2b759c>
     f0c:	0b3b0b3a 	bleq	ec3bfc <__bss_end__+0xeb9e3c>
     f10:	00001301 	andeq	r1, r0, r1, lsl #6
     f14:	03000d07 	movweq	r0, #3335	; 0xd07
     f18:	3b0b3a08 	blcc	2cf740 <__bss_end__+0x2c5980>
     f1c:	3813490b 	ldmdacc	r3, {r0, r1, r3, r8, fp, lr}
     f20:	0800000b 	stmdaeq	r0, {r0, r1, r3}
     f24:	0e03000d 	cdpeq	0, 0, cr0, cr3, cr13, {0}
     f28:	0b3b0b3a 	bleq	ec3c18 <__bss_end__+0xeb9e58>
     f2c:	0b381349 	bleq	e05c58 <__bss_end__+0xdfbe98>
     f30:	04090000 	streq	r0, [r9], #-0
     f34:	3a0b0b01 	bcc	2c3b40 <__bss_end__+0x2b9d80>
     f38:	010b3b0b 	tsteq	fp, fp, lsl #22
     f3c:	0a000013 	beq	f90 <_start-0x7070>
     f40:	0e030028 	cdpeq	0, 0, cr0, cr3, cr8, {1}
     f44:	00000d1c 	andeq	r0, r0, ip, lsl sp
     f48:	3f012e0b 	svccc	0x00012e0b
     f4c:	3a0e0319 	bcc	381bb8 <__bss_end__+0x377df8>
     f50:	270b3b0b 	strcs	r3, [fp, -fp, lsl #22]
     f54:	11134919 	tstne	r3, r9, lsl r9
     f58:	40061201 	andmi	r1, r6, r1, lsl #4
     f5c:	19429718 	stmdbne	r2, {r3, r4, r8, r9, sl, ip, pc}^
     f60:	00001301 	andeq	r1, r0, r1, lsl #6
     f64:	0300340c 	movweq	r3, #1036	; 0x40c
     f68:	3b0b3a08 	blcc	2cf790 <__bss_end__+0x2c59d0>
     f6c:	1c13490b 	ldcne	9, cr4, [r3], {11}
     f70:	0d000006 	stceq	0, cr0, [r0, #-24]	; 0xffffffe8
     f74:	01018289 	smlabbeq	r1, r9, r2, r8
     f78:	13310111 	teqne	r1, #1073741828	; 0x40000004
     f7c:	8a0e0000 	bhi	380f84 <__bss_end__+0x3771c4>
     f80:	02000182 	andeq	r0, r0, #-2147483616	; 0x80000020
     f84:	18429118 	stmdane	r2, {r3, r4, r8, ip, pc}^
     f88:	0f0f0000 	svceq	0x000f0000
     f8c:	490b0b00 	stmdbmi	fp, {r8, r9, fp}
     f90:	10000013 	andne	r0, r0, r3, lsl r0
     f94:	193f012e 	ldmdbne	pc!, {r1, r2, r3, r5, r8}	; <UNPREDICTABLE>
     f98:	0b3a0e03 	bleq	e847ac <__bss_end__+0xe7a9ec>
     f9c:	19270b3b 	stmdbne	r7!, {r0, r1, r3, r4, r5, r8, r9, fp}
     fa0:	193c1349 	ldmdbne	ip!, {r0, r3, r6, r8, r9, ip}
     fa4:	05110000 	ldreq	r0, [r1, #-0]
     fa8:	00134900 	andseq	r4, r3, r0, lsl #18
     fac:	11010000 	mrsne	r0, (UNDEF: 1)
     fb0:	130e2501 	movwne	r2, #58625	; 0xe501
     fb4:	1b0e030b 	blne	381be8 <__bss_end__+0x377e28>
     fb8:	1201110e 	andne	r1, r1, #-2147483645	; 0x80000003
     fbc:	00171006 	andseq	r1, r7, r6
     fc0:	00240200 	eoreq	r0, r4, r0, lsl #4
     fc4:	0b3e0b0b 	bleq	f83bf8 <__bss_end__+0xf79e38>
     fc8:	00000803 	andeq	r0, r0, r3, lsl #16
     fcc:	0b002403 	bleq	9fe0 <__bss_end__+0x220>
     fd0:	030b3e0b 	movweq	r3, #48651	; 0xbe0b
     fd4:	0400000e 	streq	r0, [r0], #-14
     fd8:	0b0b0104 	bleq	2c13f0 <__bss_end__+0x2b7630>
     fdc:	0b3b0b3a 	bleq	ec3ccc <__bss_end__+0xeb9f0c>
     fe0:	00001301 	andeq	r1, r0, r1, lsl #6
     fe4:	03002805 	movweq	r2, #2053	; 0x805
     fe8:	000d1c0e 	andeq	r1, sp, lr, lsl #24
     fec:	00160600 	andseq	r0, r6, r0, lsl #12
     ff0:	0b3a0e03 	bleq	e84804 <__bss_end__+0xe7aa44>
     ff4:	13490b3b 	movtne	r0, #39739	; 0x9b3b
     ff8:	2e070000 	cdpcs	0, 0, cr0, cr7, cr0, {0}
     ffc:	03193f01 	tsteq	r9, #1, 30
    1000:	3b0b3a0e 	blcc	2cf840 <__bss_end__+0x2c5a80>
    1004:	1119270b 	tstne	r9, fp, lsl #14
    1008:	40061201 	andmi	r1, r6, r1, lsl #4
    100c:	19429718 	stmdbne	r2, {r3, r4, r8, r9, sl, ip, pc}^
    1010:	00001301 	andeq	r1, r0, r1, lsl #6
    1014:	01828908 	orreq	r8, r2, r8, lsl #18
    1018:	31011100 	mrscc	r1, (UNDEF: 17)
    101c:	09000013 	stmdbeq	r0, {r0, r1, r4}
    1020:	01018289 	smlabbeq	r1, r9, r2, r8
    1024:	13310111 	teqne	r1, #1073741828	; 0x40000004
    1028:	00001301 	andeq	r1, r0, r1, lsl #6
    102c:	01828a0a 	orreq	r8, r2, sl, lsl #20
    1030:	91180200 	tstls	r8, r0, lsl #4
    1034:	00001842 	andeq	r1, r0, r2, asr #16
    1038:	3f012e0b 	svccc	0x00012e0b
    103c:	3a0e0319 	bcc	381ca8 <__bss_end__+0x377ee8>
    1040:	270b3b0b 	strcs	r3, [fp, -fp, lsl #22]
    1044:	11134919 	tstne	r3, r9, lsl r9
    1048:	40061201 	andmi	r1, r6, r1, lsl #4
    104c:	19429718 	stmdbne	r2, {r3, r4, r8, r9, sl, ip, pc}^
    1050:	00001301 	andeq	r1, r0, r1, lsl #6
    1054:	0300050c 	movweq	r0, #1292	; 0x50c
    1058:	3b0b3a08 	blcc	2cf880 <__bss_end__+0x2c5ac0>
    105c:	0213490b 	andseq	r4, r3, #180224	; 0x2c000
    1060:	0d000017 	stceq	0, cr0, [r0, #-92]	; 0xffffffa4
    1064:	01018289 	smlabbeq	r1, r9, r2, r8
    1068:	13310111 	teqne	r1, #1073741828	; 0x40000004
    106c:	340e0000 	strcc	r0, [lr], #-0
    1070:	3a0e0300 	bcc	381c78 <__bss_end__+0x377eb8>
    1074:	490b3b0b 	stmdbmi	fp, {r0, r1, r3, r8, r9, fp, ip, sp}
    1078:	02193f13 	andseq	r3, r9, #19, 30	; 0x4c
    107c:	0f000018 	svceq	0x00000018
    1080:	0b0b000f 	bleq	2c10c4 <__bss_end__+0x2b7304>
    1084:	00001349 	andeq	r1, r0, r9, asr #6
    1088:	49003510 	stmdbmi	r0, {r4, r8, sl, ip, sp}
    108c:	11000013 	tstne	r0, r3, lsl r0
    1090:	193f002e 	ldmdbne	pc!, {r1, r2, r3, r5}	; <UNPREDICTABLE>
    1094:	0b3a0e03 	bleq	e848a8 <__bss_end__+0xe7aae8>
    1098:	19270b3b 	stmdbne	r7!, {r0, r1, r3, r4, r5, r8, r9, fp}
    109c:	0000193c 	andeq	r1, r0, ip, lsr r9
    10a0:	3f012e12 	svccc	0x00012e12
    10a4:	3a0e0319 	bcc	381d10 <__bss_end__+0x377f50>
    10a8:	270b3b0b 	strcs	r3, [fp, -fp, lsl #22]
    10ac:	01193c19 	tsteq	r9, r9, lsl ip
    10b0:	13000013 	movwne	r0, #19
    10b4:	13490005 	movtne	r0, #36869	; 0x9005
    10b8:	2e140000 	cdpcs	0, 1, cr0, cr4, cr0, {0}
    10bc:	03193f01 	tsteq	r9, #1, 30
    10c0:	3b0b3a0e 	blcc	2cf900 <__bss_end__+0x2c5b40>
    10c4:	4919270b 	ldmdbmi	r9, {r0, r1, r3, r8, r9, sl, sp}
    10c8:	01193c13 	tsteq	r9, r3, lsl ip
    10cc:	15000013 	strne	r0, [r0, #-19]
    10d0:	13490026 	movtne	r0, #36902	; 0x9026
    10d4:	35160000 	ldrcc	r0, [r6, #-0]
    10d8:	00000000 	andeq	r0, r0, r0
    10dc:	25011101 	strcs	r1, [r1, #-257]	; 0x101
    10e0:	030b130e 	movweq	r1, #45838	; 0xb30e
    10e4:	110e1b0e 	tstne	lr, lr, lsl #22
    10e8:	10061201 	andne	r1, r6, r1, lsl #4
    10ec:	02000017 	andeq	r0, r0, #23
    10f0:	0b0b0024 	bleq	2c1188 <__bss_end__+0x2b73c8>
    10f4:	0e030b3e 	vmoveq.16	d3[0], r0
    10f8:	24030000 	strcs	r0, [r3], #-0
    10fc:	3e0b0b00 	vmlacc.f64	d0, d11, d0
    1100:	0008030b 	andeq	r0, r8, fp, lsl #6
    1104:	000f0400 	andeq	r0, pc, r0, lsl #8
    1108:	00000b0b 	andeq	r0, r0, fp, lsl #22
    110c:	0b000f05 	bleq	4d28 <_start-0x32d8>
    1110:	0013490b 	andseq	r4, r3, fp, lsl #18
    1114:	00160600 	andseq	r0, r6, r0, lsl #12
    1118:	0b3a0e03 	bleq	e8492c <__bss_end__+0xe7ab6c>
    111c:	13490b3b 	movtne	r0, #39739	; 0x9b3b
    1120:	2e070000 	cdpcs	0, 0, cr0, cr7, cr0, {0}
    1124:	03193f01 	tsteq	r9, #1, 30
    1128:	3b0b3a0e 	blcc	2cf968 <__bss_end__+0x2c5ba8>
    112c:	4919270b 	ldmdbmi	r9, {r0, r1, r3, r8, r9, sl, sp}
    1130:	12011113 	andne	r1, r1, #-1073741820	; 0xc0000004
    1134:	97184006 	ldrls	r4, [r8, -r6]
    1138:	00001942 	andeq	r1, r0, r2, asr #18
    113c:	03000508 	movweq	r0, #1288	; 0x508
    1140:	3b0b3a08 	blcc	2cf968 <__bss_end__+0x2c5ba8>
    1144:	0213490b 	andseq	r4, r3, #180224	; 0x2c000
    1148:	09000018 	stmdbeq	r0, {r3, r4}
    114c:	08030005 	stmdaeq	r3, {r0, r2}
    1150:	0b3b0b3a 	bleq	ec3e40 <__bss_end__+0xeba080>
    1154:	17021349 	strne	r1, [r2, -r9, asr #6]
    1158:	340a0000 	strcc	r0, [sl], #-0
    115c:	3a080300 	bcc	201d64 <__bss_end__+0x1f7fa4>
    1160:	490b3b0b 	stmdbmi	fp, {r0, r1, r3, r8, r9, fp, ip, sp}
    1164:	00170213 	andseq	r0, r7, r3, lsl r2
    1168:	00340b00 	eorseq	r0, r4, r0, lsl #22
    116c:	0b3a0803 	bleq	e83180 <__bss_end__+0xe793c0>
    1170:	13490b3b 	movtne	r0, #39739	; 0x9b3b
    1174:	00001802 	andeq	r1, r0, r2, lsl #16
	...

Disassembly of section .debug_loc:

00000000 <.debug_loc>:
       0:	00000000 	andeq	r0, r0, r0
       4:	00000020 	andeq	r0, r0, r0, lsr #32
       8:	20500001 	subscs	r0, r0, r1
       c:	7c000000 	stcvc	0, cr0, [r0], {-0}
      10:	01000000 	mrseq	r0, (UNDEF: 0)
      14:	007c5900 	rsbseq	r5, ip, r0, lsl #18
      18:	00880000 	addeq	r0, r8, r0
      1c:	00040000 	andeq	r0, r4, r0
      20:	9f5001f3 	svcls	0x005001f3
	...
      30:	00000020 	andeq	r0, r0, r0, lsr #32
      34:	20510001 	subscs	r0, r1, r1
      38:	7c000000 	stcvc	0, cr0, [r0], {-0}
      3c:	01000000 	mrseq	r0, (UNDEF: 0)
      40:	007c5700 	rsbseq	r5, ip, r0, lsl #14
      44:	00880000 	addeq	r0, r8, r0
      48:	00040000 	andeq	r0, r4, r0
      4c:	9f5101f3 	svcls	0x005101f3
	...
      5c:	00000020 	andeq	r0, r0, r0, lsr #32
      60:	20520001 	subscs	r0, r2, r1
      64:	7c000000 	stcvc	0, cr0, [r0], {-0}
      68:	01000000 	mrseq	r0, (UNDEF: 0)
      6c:	007c5500 	rsbseq	r5, ip, r0, lsl #10
      70:	00880000 	addeq	r0, r8, r0
      74:	00040000 	andeq	r0, r4, r0
      78:	9f5201f3 	svcls	0x005201f3
	...
      84:	00000014 	andeq	r0, r0, r4, lsl r0
      88:	0000007c 	andeq	r0, r0, ip, ror r0
      8c:	00580001 	subseq	r0, r8, r1
      90:	00000000 	andeq	r0, r0, r0
      94:	48000000 	stmdami	r0, {}	; <UNPREDICTABLE>
      98:	68000000 	stmdavs	r0, {}	; <UNPREDICTABLE>
      9c:	01000000 	mrseq	r0, (UNDEF: 0)
      a0:	00005400 	andeq	r5, r0, r0, lsl #8
      a4:	00000000 	andeq	r0, r0, r0
      a8:	00600000 	rsbeq	r0, r0, r0
      ac:	00680000 	rsbeq	r0, r8, r0
      b0:	00010000 	andeq	r0, r1, r0
      b4:	00000054 	andeq	r0, r0, r4, asr r0
      b8:	00000000 	andeq	r0, r0, r0
      bc:	00002c00 	andeq	r2, r0, r0, lsl #24
      c0:	00006800 	andeq	r6, r0, r0, lsl #16
      c4:	54000100 	strpl	r0, [r0], #-256	; 0x100
	...
      d0:	0000002c 	andeq	r0, r0, ip, lsr #32
      d4:	00000038 	andeq	r0, r0, r8, lsr r0
      d8:	38500001 	ldmdacc	r0, {r0}^
      dc:	48000000 	stmdami	r0, {}	; <UNPREDICTABLE>
      e0:	01000000 	mrseq	r0, (UNDEF: 0)
      e4:	00485500 	subeq	r5, r8, r0, lsl #10
      e8:	00580000 	subseq	r0, r8, r0
      ec:	00010000 	andeq	r0, r1, r0
      f0:	00000050 	andeq	r0, r0, r0, asr r0
	...
      fc:	00001000 	andeq	r1, r0, r0
     100:	50000100 	andpl	r0, r0, r0, lsl #2
     104:	00000010 	andeq	r0, r0, r0, lsl r0
     108:	00000034 	andeq	r0, r0, r4, lsr r0
     10c:	00540001 	subseq	r0, r4, r1
	...
     118:	04000000 	streq	r0, [r0], #-0
     11c:	01000000 	mrseq	r0, (UNDEF: 0)
     120:	00045000 	andeq	r5, r4, r0
     124:	000c0000 	andeq	r0, ip, r0
     128:	00030000 	andeq	r0, r3, r0
     12c:	0c9f3070 	ldceq	0, cr3, [pc], {112}	; 0x70
     130:	14000000 	strne	r0, [r0], #-0
     134:	04000000 	streq	r0, [r0], #-0
     138:	5001f300 	andpl	pc, r1, r0, lsl #6
     13c:	0000009f 	muleq	r0, pc, r0	; <UNPREDICTABLE>
     140:	00000000 	andeq	r0, r0, r0
     144:	00001400 	andeq	r1, r0, r0, lsl #8
     148:	00002000 	andeq	r2, r0, r0
     14c:	50000100 	andpl	r0, r0, r0, lsl #2
     150:	00000020 	andeq	r0, r0, r0, lsr #32
     154:	0000002c 	andeq	r0, r0, ip, lsr #32
     158:	01700003 	cmneq	r0, r3
     15c:	00002c9f 	muleq	r0, pc, ip	; <UNPREDICTABLE>
     160:	00004000 	andeq	r4, r0, r0
     164:	50000100 	andpl	r0, r0, r0, lsl #2
	...
     170:	00000014 	andeq	r0, r0, r4, lsl r0
     174:	00000018 	andeq	r0, r0, r8, lsl r0
     178:	18510001 	ldmdane	r1, {r0}^
     17c:	40000000 	andmi	r0, r0, r0
     180:	04000000 	streq	r0, [r0], #-0
     184:	5101f300 	mrspl	pc, SP_irq	; <UNPREDICTABLE>
     188:	0000009f 	muleq	r0, pc, r0	; <UNPREDICTABLE>
     18c:	00000000 	andeq	r0, r0, r0
     190:	00004000 	andeq	r4, r0, r0
     194:	00006000 	andeq	r6, r0, r0
     198:	50000100 	andpl	r0, r0, r0, lsl #2
     19c:	00000060 	andeq	r0, r0, r0, rrx
     1a0:	0000006c 	andeq	r0, r0, ip, rrx
     1a4:	01710003 	cmneq	r1, r3
     1a8:	00006c9f 	muleq	r0, pc, ip	; <UNPREDICTABLE>
     1ac:	00007400 	andeq	r7, r0, r0, lsl #8
     1b0:	51000100 	mrspl	r0, (UNDEF: 16)
     1b4:	00000074 	andeq	r0, r0, r4, ror r0
     1b8:	00000080 	andeq	r0, r0, r0, lsl #1
     1bc:	01710003 	cmneq	r1, r3
     1c0:	0000009f 	muleq	r0, pc, r0	; <UNPREDICTABLE>
     1c4:	00000000 	andeq	r0, r0, r0
     1c8:	00004000 	andeq	r4, r0, r0
     1cc:	00005000 	andeq	r5, r0, r0
     1d0:	51000100 	mrspl	r0, (UNDEF: 16)
     1d4:	00000050 	andeq	r0, r0, r0, asr r0
     1d8:	00000080 	andeq	r0, r0, r0, lsl #1
     1dc:	01f30004 	mvnseq	r0, r4
     1e0:	00009f51 	andeq	r9, r0, r1, asr pc
     1e4:	00000000 	andeq	r0, r0, r0
     1e8:	00400000 	subeq	r0, r0, r0
     1ec:	00580000 	subseq	r0, r8, r0
     1f0:	00010000 	andeq	r0, r1, r0
     1f4:	00005852 	andeq	r5, r0, r2, asr r8
     1f8:	00006400 	andeq	r6, r0, r0, lsl #8
     1fc:	52000100 	andpl	r0, r0, #0, 2
     200:	00000064 	andeq	r0, r0, r4, rrx
     204:	00000068 	andeq	r0, r0, r8, rrx
     208:	01720003 	cmneq	r2, r3
     20c:	0000689f 	muleq	r0, pc, r8	; <UNPREDICTABLE>
     210:	00008000 	andeq	r8, r0, r0
     214:	52000100 	andpl	r0, r0, #0, 2
	...
     220:	00000040 	andeq	r0, r0, r0, asr #32
     224:	00000054 	andeq	r0, r0, r4, asr r0
     228:	54530001 	ldrbpl	r0, [r3], #-1
     22c:	78000000 	stmdavc	r0, {}	; <UNPREDICTABLE>
     230:	01000000 	mrseq	r0, (UNDEF: 0)
     234:	00005300 	andeq	r5, r0, r0, lsl #6
     238:	00000000 	andeq	r0, r0, r0
     23c:	00480000 	subeq	r0, r8, r0
     240:	00600000 	rsbeq	r0, r0, r0
     244:	00010000 	andeq	r0, r1, r0
     248:	0000605c 	andeq	r6, r0, ip, asr r0
     24c:	00008000 	andeq	r8, r0, r0
     250:	f3000a00 	vpmax.u8	d0, d0, d0
     254:	01f35201 	mvnseq	r5, r1, lsl #4
     258:	01231c53 	teqeq	r3, r3, asr ip
     25c:	0000009f 	muleq	r0, pc, r0	; <UNPREDICTABLE>
     260:	00000000 	andeq	r0, r0, r0
     264:	00008000 	andeq	r8, r0, r0
     268:	0000a400 	andeq	sl, r0, r0, lsl #8
     26c:	50000100 	andpl	r0, r0, r0, lsl #2
     270:	000000a4 	andeq	r0, r0, r4, lsr #1
     274:	00000118 	andeq	r0, r0, r8, lsl r1
     278:	02700003 	rsbseq	r0, r0, #3
     27c:	0001189f 	muleq	r1, pc, r8	; <UNPREDICTABLE>
     280:	00022800 	andeq	r2, r2, r0, lsl #16
     284:	f3000400 	vshl.u8	d0, d0, d0
     288:	009f5001 	addseq	r5, pc, r1
     28c:	00000000 	andeq	r0, r0, r0
     290:	80000000 	andhi	r0, r0, r0
     294:	f0000000 			; <UNDEFINED> instruction: 0xf0000000
     298:	01000000 	mrseq	r0, (UNDEF: 0)
     29c:	00f05100 	rscseq	r5, r0, r0, lsl #2
     2a0:	01600000 	cmneq	r0, r0
     2a4:	00010000 	andeq	r0, r1, r0
     2a8:	00016055 	andeq	r6, r1, r5, asr r0
     2ac:	00016800 	andeq	r6, r1, r0, lsl #16
     2b0:	51000100 	mrspl	r0, (UNDEF: 16)
     2b4:	00000168 	andeq	r0, r0, r8, ror #2
     2b8:	00000188 	andeq	r0, r0, r8, lsl #3
     2bc:	88550001 	ldmdahi	r5, {r0}^
     2c0:	9c000001 	stcls	0, cr0, [r0], {1}
     2c4:	01000001 	tsteq	r0, r1
     2c8:	019c5100 	orrseq	r5, ip, r0, lsl #2
     2cc:	01bc0000 			; <UNDEFINED> instruction: 0x01bc0000
     2d0:	00010000 	andeq	r0, r1, r0
     2d4:	0001bc55 	andeq	fp, r1, r5, asr ip
     2d8:	0001bf00 	andeq	fp, r1, r0, lsl #30
     2dc:	51000100 	mrspl	r0, (UNDEF: 16)
     2e0:	000001bf 			; <UNDEFINED> instruction: 0x000001bf
     2e4:	00000208 	andeq	r0, r0, r8, lsl #4
     2e8:	08550001 	ldmdaeq	r5, {r0}^
     2ec:	28000002 	stmdacs	r0, {r1}
     2f0:	04000002 	streq	r0, [r0], #-2
     2f4:	5101f300 	mrspl	pc, SP_irq	; <UNPREDICTABLE>
     2f8:	0000009f 	muleq	r0, pc, r0	; <UNPREDICTABLE>
     2fc:	00000000 	andeq	r0, r0, r0
     300:	00008000 	andeq	r8, r0, r0
     304:	00009400 	andeq	r9, r0, r0, lsl #8
     308:	52000100 	andpl	r0, r0, #0, 2
     30c:	00000094 	muleq	r0, r4, r0
     310:	00000208 	andeq	r0, r0, r8, lsl #4
     314:	08540001 	ldmdaeq	r4, {r0}^
     318:	28000002 	stmdacs	r0, {r1}
     31c:	04000002 	streq	r0, [r0], #-2
     320:	5201f300 	andpl	pc, r1, #0, 6
     324:	0000009f 	muleq	r0, pc, r0	; <UNPREDICTABLE>
     328:	00000000 	andeq	r0, r0, r0
     32c:	00008000 	andeq	r8, r0, r0
     330:	00010000 	andeq	r0, r1, r0
     334:	53000100 	movwpl	r0, #256	; 0x100
     338:	00000104 	andeq	r0, r0, r4, lsl #2
     33c:	00000108 	andeq	r0, r0, r8, lsl #2
     340:	60530001 	subsvs	r0, r3, r1
     344:	68000001 	stmdavs	r0, {r0}
     348:	01000001 	tsteq	r0, r1
     34c:	01685300 	cmneq	r8, r0, lsl #6
     350:	01880000 	orreq	r0, r8, r0
     354:	00040000 	andeq	r0, r4, r0
     358:	9f5301f3 	svcls	0x005301f3
     35c:	00000188 	andeq	r0, r0, r8, lsl #3
     360:	00000190 	muleq	r0, r0, r1
     364:	90530001 	subsls	r0, r3, r1
     368:	94000001 	strls	r0, [r0], #-1
     36c:	01000001 	tsteq	r0, r1
     370:	01945c00 	orrseq	r5, r4, r0, lsl #24
     374:	019c0000 	orrseq	r0, ip, r0
     378:	00010000 	andeq	r0, r1, r0
     37c:	00019c53 	andeq	r9, r1, r3, asr ip
     380:	0001bc00 	andeq	fp, r1, r0, lsl #24
     384:	f3000400 	vshl.u8	d0, d0, d0
     388:	bc9f5301 	ldclt	3, cr5, [pc], {1}
     38c:	bf000001 	svclt	0x00000001
     390:	01000001 	tsteq	r0, r1
     394:	01bf5300 			; <UNDEFINED> instruction: 0x01bf5300
     398:	01e00000 	mvneq	r0, r0
     39c:	00040000 	andeq	r0, r4, r0
     3a0:	9f5301f3 	svcls	0x005301f3
	...
     3ac:	00000080 	andeq	r0, r0, r0, lsl #1
     3b0:	0000009c 	muleq	r0, ip, r0
     3b4:	00910002 	addseq	r0, r1, r2
     3b8:	0000009c 	muleq	r0, ip, r0
     3bc:	000001bf 			; <UNDEFINED> instruction: 0x000001bf
     3c0:	e0520001 	subs	r0, r2, r1
     3c4:	eb000001 	bl	3d0 <_start-0x7c30>
     3c8:	01000001 	tsteq	r0, r1
     3cc:	00005200 	andeq	r5, r0, r0, lsl #4
     3d0:	00000000 	andeq	r0, r0, r0
     3d4:	009c0000 	addseq	r0, ip, r0
     3d8:	010c0000 	mrseq	r0, (UNDEF: 12)
     3dc:	00040000 	andeq	r0, r4, r0
     3e0:	9f7fa091 	svcls	0x007fa091
     3e4:	0000010c 	andeq	r0, r0, ip, lsl #2
     3e8:	00000118 	andeq	r0, r0, r8, lsl r1
     3ec:	18510001 	ldmdane	r1, {r0}^
     3f0:	1c000001 	stcne	0, cr0, [r0], {1}
     3f4:	01000001 	tsteq	r0, r1
     3f8:	011c5300 	tsteq	ip, r0, lsl #6
     3fc:	01200000 	teqeq	r0, r0
     400:	00010000 	andeq	r0, r1, r0
     404:	00012051 	andeq	r2, r1, r1, asr r0
     408:	00016000 	andeq	r6, r1, r0
     40c:	53000100 	movwpl	r0, #256	; 0x100
     410:	00000160 	andeq	r0, r0, r0, ror #2
     414:	00000164 	andeq	r0, r0, r4, ror #2
     418:	a0910004 	addsge	r0, r1, r4
     41c:	01649f7f 	smceq	18943	; 0x49ff
     420:	016c0000 	cmneq	ip, r0
     424:	00010000 	andeq	r0, r1, r0
     428:	00016c5e 	andeq	r6, r1, lr, asr ip
     42c:	00018800 	andeq	r8, r1, r0, lsl #16
     430:	53000100 	movwpl	r0, #256	; 0x100
     434:	00000188 	andeq	r0, r0, r8, lsl #3
     438:	00000190 	muleq	r0, r0, r1
     43c:	a1910004 	orrsge	r0, r1, r4
     440:	01909f7f 	orrseq	r9, r0, pc, ror pc
     444:	01940000 	orrseq	r0, r4, r0
     448:	00010000 	andeq	r0, r1, r0
     44c:	00019453 	andeq	r9, r1, r3, asr r4
     450:	00019800 	andeq	r9, r1, r0, lsl #16
     454:	91000400 	tstls	r0, r0, lsl #8
     458:	989f7fa0 	ldmls	pc, {r5, r7, r8, r9, sl, fp, ip, sp, lr}	; <UNPREDICTABLE>
     45c:	a0000001 	andge	r0, r0, r1
     460:	01000001 	tsteq	r0, r1
     464:	01a05e00 	lsleq	r5, r0, #28
     468:	01bc0000 			; <UNDEFINED> instruction: 0x01bc0000
     46c:	00010000 	andeq	r0, r1, r0
     470:	0001bc53 	andeq	fp, r1, r3, asr ip
     474:	0001e000 	andeq	lr, r1, r0
     478:	91000400 	tstls	r0, r0, lsl #8
     47c:	e09f7fa0 	adds	r7, pc, r0, lsr #31
     480:	eb000001 	bl	48c <_start-0x7b74>
     484:	01000001 	tsteq	r0, r1
     488:	00005300 	andeq	r5, r0, r0, lsl #6
     48c:	00000000 	andeq	r0, r0, r0
     490:	00a00000 	adceq	r0, r0, r0
     494:	00ec0000 	rsceq	r0, ip, r0
     498:	00010000 	andeq	r0, r1, r0
     49c:	0000ec5c 	andeq	lr, r0, ip, asr ip
     4a0:	00010000 	andeq	r0, r1, r0
     4a4:	53000100 	movwpl	r0, #256	; 0x100
     4a8:	00000100 	andeq	r0, r0, r0, lsl #2
     4ac:	00000104 	andeq	r0, r0, r4, lsl #2
     4b0:	045c0001 	ldrbeq	r0, [ip], #-1
     4b4:	08000001 	stmdaeq	r0, {r0}
     4b8:	01000001 	tsteq	r0, r1
     4bc:	01085300 	mrseq	r5, (UNDEF: 56)
     4c0:	01180000 	tsteq	r8, r0
     4c4:	00010000 	andeq	r0, r1, r0
     4c8:	0001185c 	andeq	r1, r1, ip, asr r8
     4cc:	00011c00 	andeq	r1, r1, r0, lsl #24
     4d0:	50000100 	andpl	r0, r0, r0, lsl #2
     4d4:	0000011c 	andeq	r0, r0, ip, lsl r1
     4d8:	0000013c 	andeq	r0, r0, ip, lsr r1
     4dc:	445c0001 	ldrbmi	r0, [ip], #-1
     4e0:	58000001 	stmdapl	r0, {r0}
     4e4:	01000001 	tsteq	r0, r1
     4e8:	01585000 	cmpeq	r8, r0
     4ec:	01600000 	cmneq	r0, r0
     4f0:	00010000 	andeq	r0, r1, r0
     4f4:	0001605c 	andeq	r6, r1, ip, asr r0
     4f8:	00016800 	andeq	r6, r1, r0, lsl #16
     4fc:	53000100 	movwpl	r0, #256	; 0x100
     500:	00000168 	andeq	r0, r0, r8, ror #2
     504:	00000178 	andeq	r0, r0, r8, ror r1
     508:	785c0001 	ldmdavc	ip, {r0}^
     50c:	80000001 	andhi	r0, r0, r1
     510:	05000001 	streq	r0, [r0, #-1]
     514:	34007c00 	strcc	r7, [r0], #-3072	; 0xc00
     518:	01809f25 	orreq	r9, r0, r5, lsr #30
     51c:	01880000 	orreq	r0, r8, r0
     520:	00010000 	andeq	r0, r1, r0
     524:	0001885c 	andeq	r8, r1, ip, asr r8
     528:	00019000 	andeq	r9, r1, r0
     52c:	53000100 	movwpl	r0, #256	; 0x100
     530:	00000190 	muleq	r0, r0, r1
     534:	00000194 	muleq	r0, r4, r1
     538:	945c0001 	ldrbls	r0, [ip], #-1
     53c:	9c000001 	stcls	0, cr0, [r0], {1}
     540:	01000001 	tsteq	r0, r1
     544:	019c5300 	orrseq	r5, ip, r0, lsl #6
     548:	01ac0000 			; <UNDEFINED> instruction: 0x01ac0000
     54c:	00010000 	andeq	r0, r1, r0
     550:	0001ac5c 	andeq	sl, r1, ip, asr ip
     554:	0001b400 	andeq	fp, r1, r0, lsl #8
     558:	7c000500 	cfstr32vc	mvfx0, [r0], {-0}
     55c:	9f253100 	svcls	0x00253100
     560:	000001b4 			; <UNDEFINED> instruction: 0x000001b4
     564:	000001bc 			; <UNDEFINED> instruction: 0x000001bc
     568:	bc5c0001 	mrrclt	0, 0, r0, ip, cr1
     56c:	bf000001 	svclt	0x00000001
     570:	01000001 	tsteq	r0, r1
     574:	01bf5300 			; <UNDEFINED> instruction: 0x01bf5300
     578:	01e00000 	mvneq	r0, r0
     57c:	00040000 	andeq	r0, r4, r0
     580:	9f5301f3 	svcls	0x005301f3
     584:	000001e0 	andeq	r0, r0, r0, ror #3
     588:	000001eb 	andeq	r0, r0, fp, ror #3
     58c:	005c0001 	subseq	r0, ip, r1
     590:	00000000 	andeq	r0, r0, r0
     594:	ec000000 	stc	0, cr0, [r0], {-0}
     598:	fc000000 	stc2	0, cr0, [r0], {-0}
     59c:	02000000 	andeq	r0, r0, #0
     5a0:	fc9f3000 	ldc2	0, cr3, [pc], {0}
     5a4:	04000000 	streq	r0, [r0], #-0
     5a8:	02000001 	andeq	r0, r0, #1
     5ac:	049f3100 	ldreq	r3, [pc], #256	; 5b4 <_start-0x7a4c>
     5b0:	08000001 	stmdaeq	r0, {r0}
     5b4:	02000001 	andeq	r0, r0, #1
     5b8:	009f3000 	addseq	r3, pc, r0
     5bc:	00000000 	andeq	r0, r0, r0
     5c0:	28000000 	stmdacs	r0, {}	; <UNPREDICTABLE>
     5c4:	3b000002 	blcc	5d4 <_start-0x7a2c>
     5c8:	01000002 	tsteq	r0, r2
     5cc:	023b5000 	eorseq	r5, fp, #0
     5d0:	025c0000 	subseq	r0, ip, #0
     5d4:	00040000 	andeq	r0, r4, r0
     5d8:	9f5001f3 	svcls	0x005001f3
     5dc:	0000025c 	andeq	r0, r0, ip, asr r2
     5e0:	00000290 	muleq	r0, r0, r2
     5e4:	00500001 	subseq	r0, r0, r1
     5e8:	00000000 	andeq	r0, r0, r0
     5ec:	28000000 	stmdacs	r0, {}	; <UNPREDICTABLE>
     5f0:	3b000002 	blcc	600 <_start-0x7a00>
     5f4:	01000002 	tsteq	r0, r2
     5f8:	023b5100 	eorseq	r5, fp, #0, 2
     5fc:	025c0000 	subseq	r0, ip, #0
     600:	00040000 	andeq	r0, r4, r0
     604:	9f5101f3 	svcls	0x005101f3
     608:	0000025c 	andeq	r0, r0, ip, asr r2
     60c:	00000290 	muleq	r0, r0, r2
     610:	00510001 	subseq	r0, r1, r1
     614:	00000000 	andeq	r0, r0, r0
     618:	90000000 	andls	r0, r0, r0
     61c:	bc000002 	stclt	0, cr0, [r0], {2}
     620:	01000002 	tsteq	r0, r2
     624:	02bc5000 	adcseq	r5, ip, #0
     628:	050c0000 	streq	r0, [ip, #-0]
     62c:	00010000 	andeq	r0, r1, r0
     630:	00050c5a 	andeq	r0, r5, sl, asr ip
     634:	00052400 	andeq	r2, r5, r0, lsl #8
     638:	f3000400 	vshl.u8	d0, d0, d0
     63c:	009f5001 	addseq	r5, pc, r1
     640:	00000000 	andeq	r0, r0, r0
     644:	90000000 	andls	r0, r0, r0
     648:	a4000002 	strge	r0, [r0], #-2
     64c:	01000002 	tsteq	r0, r2
     650:	02a45100 	adceq	r5, r4, #0, 2
     654:	02bc0000 	adcseq	r0, ip, #0
     658:	00030000 	andeq	r0, r3, r0
     65c:	bc9f0171 	ldflts	f0, [pc], {113}	; 0x71
     660:	24000002 	strcs	r0, [r0], #-2
     664:	04000005 	streq	r0, [r0], #-5
     668:	5101f300 	mrspl	pc, SP_irq	; <UNPREDICTABLE>
     66c:	0000009f 	muleq	r0, pc, r0	; <UNPREDICTABLE>
     670:	00000000 	andeq	r0, r0, r0
     674:	00029000 	andeq	r9, r2, r0
     678:	0002c400 	andeq	ip, r2, r0, lsl #8
     67c:	52000100 	andpl	r0, r0, #0, 2
     680:	000002c4 	andeq	r0, r0, r4, asr #5
     684:	000002ec 	andeq	r0, r0, ip, ror #5
     688:	ec520001 	mrrc	0, 0, r0, r2, cr1
     68c:	bc000002 	stclt	0, cr0, [r0], {2}
     690:	01000004 	tsteq	r0, r4
     694:	04bc5600 	ldrteq	r5, [ip], #1536	; 0x600
     698:	05240000 	streq	r0, [r4, #-0]!
     69c:	00010000 	andeq	r0, r1, r0
     6a0:	00000052 	andeq	r0, r0, r2, asr r0
     6a4:	00000000 	andeq	r0, r0, r0
     6a8:	00029000 	andeq	r9, r2, r0
     6ac:	0002ac00 	andeq	sl, r2, r0, lsl #24
     6b0:	53000100 	movwpl	r0, #256	; 0x100
	...
     6bc:	000002a0 	andeq	r0, r0, r0, lsr #5
     6c0:	000002bc 			; <UNDEFINED> instruction: 0x000002bc
     6c4:	bc500001 	mrrclt	0, 0, r0, r0, cr1	; <UNPREDICTABLE>
     6c8:	c0000002 	andgt	r0, r0, r2
     6cc:	01000002 	tsteq	r0, r2
     6d0:	02c05400 	sbceq	r5, r0, #0, 8
     6d4:	02cc0000 	sbceq	r0, ip, #0
     6d8:	00030000 	andeq	r0, r3, r0
     6dc:	cc9f0174 	ldfgts	f0, [pc], {116}	; 0x74
     6e0:	d8000002 	stmdale	r0, {r1}
     6e4:	01000002 	tsteq	r0, r2
     6e8:	02d85400 	sbcseq	r5, r8, #0, 8
     6ec:	02e40000 	rsceq	r0, r4, #0
     6f0:	00030000 	andeq	r0, r3, r0
     6f4:	e49f0174 	ldr	r0, [pc], #372	; 6fc <_start-0x7904>
     6f8:	c0000002 	andgt	r0, r0, r2
     6fc:	01000004 	tsteq	r0, r4
     700:	04c05400 	strbeq	r5, [r0], #1024	; 0x400
     704:	04cc0000 	strbeq	r0, [ip], #0
     708:	00030000 	andeq	r0, r3, r0
     70c:	cc9f0174 	ldfgts	f0, [pc], {116}	; 0x74
     710:	f8000004 			; <UNDEFINED> instruction: 0xf8000004
     714:	01000004 	tsteq	r0, r4
     718:	04f85400 	ldrbteq	r5, [r8], #1024	; 0x400
     71c:	05040000 	streq	r0, [r4, #-0]
     720:	00010000 	andeq	r0, r1, r0
     724:	00050450 	andeq	r0, r5, r0, asr r4
     728:	00050c00 	andeq	r0, r5, r0, lsl #24
     72c:	74000300 	strvc	r0, [r0], #-768	; 0x300
     730:	00009f01 	andeq	r9, r0, r1, lsl #30
     734:	00000000 	andeq	r0, r0, r0
     738:	02a80000 	adceq	r0, r8, #0
     73c:	050c0000 	streq	r0, [ip, #-0]
     740:	00010000 	andeq	r0, r1, r0
     744:	00050c58 	andeq	r0, r5, r8, asr ip
     748:	00052400 	andeq	r2, r5, r0, lsl #8
     74c:	f3000a00 	vpmax.u8	d0, d0, d0
     750:	01f35101 	mvnseq	r5, r1, lsl #2
     754:	1c312250 	lfmne	f2, 4, [r1], #-320	; 0xfffffec0
     758:	0000009f 	muleq	r0, pc, r0	; <UNPREDICTABLE>
     75c:	00000000 	andeq	r0, r0, r0
     760:	0003f400 	andeq	pc, r3, r0, lsl #8
     764:	0003f800 	andeq	pc, r3, r0, lsl #16
     768:	50000100 	andpl	r0, r0, r0, lsl #2
     76c:	00000418 	andeq	r0, r0, r8, lsl r4
     770:	0000041c 	andeq	r0, r0, ip, lsl r4
     774:	3c500001 	mrrccc	0, 0, r0, r0, cr1	; <UNPREDICTABLE>
     778:	40000004 	andmi	r0, r0, r4
     77c:	01000004 	tsteq	r0, r4
     780:	04605000 	strbteq	r5, [r0], #-0
     784:	04640000 	strbteq	r0, [r4], #-0
     788:	00010000 	andeq	r0, r1, r0
     78c:	00046c50 	andeq	r6, r4, r0, asr ip
     790:	00047000 	andeq	r7, r4, r0
     794:	50000100 	andpl	r0, r0, r0, lsl #2
     798:	00000490 	muleq	r0, r0, r4
     79c:	00000494 	muleq	r0, r4, r4
     7a0:	b8500001 	ldmdalt	r0, {r0}^
     7a4:	e0000004 	and	r0, r0, r4
     7a8:	01000004 	tsteq	r0, r4
     7ac:	00005000 	andeq	r5, r0, r0
     7b0:	00000000 	andeq	r0, r0, r0
     7b4:	02ec0000 	rsceq	r0, ip, #0
     7b8:	02f40000 	rscseq	r0, r4, #0
     7bc:	00020000 	andeq	r0, r2, r0
     7c0:	02f49f30 	rscseq	r9, r4, #48, 30	; 0xc0
     7c4:	02f80000 	rscseq	r0, r8, #0
     7c8:	00010000 	andeq	r0, r1, r0
     7cc:	00030457 	andeq	r0, r3, r7, asr r4
     7d0:	0004e000 	andeq	lr, r4, r0
     7d4:	57000100 	strpl	r0, [r0, -r0, lsl #2]
	...
     7e4:	0000000c 	andeq	r0, r0, ip
     7e8:	0c500001 	mrrceq	0, 0, r0, r0, cr1	; <UNPREDICTABLE>
     7ec:	20000000 	andcs	r0, r0, r0
     7f0:	01000000 	mrseq	r0, (UNDEF: 0)
     7f4:	00005400 	andeq	r5, r0, r0, lsl #8
     7f8:	00000000 	andeq	r0, r0, r0
     7fc:	00340000 	eorseq	r0, r4, r0
     800:	003c0000 	eorseq	r0, ip, r0
     804:	00030000 	andeq	r0, r3, r0
     808:	3c9f0473 	cfldrscc	mvf0, [pc], {115}	; 0x73
     80c:	47000000 	strmi	r0, [r0, -r0]
     810:	01000000 	mrseq	r0, (UNDEF: 0)
     814:	00005300 	andeq	r5, r0, r0, lsl #6
     818:	00000000 	andeq	r0, r0, r0
     81c:	00480000 	subeq	r0, r8, r0
     820:	00740000 	rsbseq	r0, r4, r0
     824:	00010000 	andeq	r0, r1, r0
     828:	00007450 	andeq	r7, r0, r0, asr r4
     82c:	00008300 	andeq	r8, r0, r0, lsl #6
     830:	73000300 	movwvc	r0, #768	; 0x300
     834:	00009f78 	andeq	r9, r0, r8, ror pc
     838:	00000000 	andeq	r0, r0, r0
     83c:	874c0000 	strbhi	r0, [ip, -r0]
     840:	87500000 	ldrbhi	r0, [r0, -r0]
     844:	00020000 	andeq	r0, r2, r0
     848:	87509f30 	smmlarhi	r0, r0, pc, r9	; <UNPREDICTABLE>
     84c:	87540000 	ldrbhi	r0, [r4, -r0]
     850:	00010000 	andeq	r0, r1, r0
     854:	00000050 	andeq	r0, r0, r0, asr r0
     858:	00000000 	andeq	r0, r0, r0
     85c:	00876400 	addeq	r6, r7, r0, lsl #8
     860:	00876800 	addeq	r6, r7, r0, lsl #16
     864:	30000200 	andcc	r0, r0, r0, lsl #4
     868:	0087689f 	umulleq	r6, r7, pc, r8	; <UNPREDICTABLE>
     86c:	00876c00 	addeq	r6, r7, r0, lsl #24
     870:	53000100 	movwpl	r0, #256	; 0x100
     874:	00008770 	andeq	r8, r0, r0, ror r7
     878:	00008778 	andeq	r8, r0, r8, ror r7
     87c:	00530001 	subseq	r0, r3, r1
	...
     888:	04000000 	streq	r0, [r0], #-0
     88c:	01000000 	mrseq	r0, (UNDEF: 0)
     890:	00045000 	andeq	r5, r4, r0
     894:	000c0000 	andeq	r0, ip, r0
     898:	00010000 	andeq	r0, r1, r0
     89c:	00000c53 	andeq	r0, r0, r3, asr ip
     8a0:	00001000 	andeq	r1, r0, r0
     8a4:	50000100 	andpl	r0, r0, r0, lsl #2
     8a8:	00000010 	andeq	r0, r0, r0, lsl r0
     8ac:	0000001c 	andeq	r0, r0, ip, lsl r0
     8b0:	00530001 	subseq	r0, r3, r1
     8b4:	00000000 	andeq	r0, r0, r0
     8b8:	3c000000 	stccc	0, cr0, [r0], {-0}
     8bc:	47000000 	strmi	r0, [r0, -r0]
     8c0:	01000000 	mrseq	r0, (UNDEF: 0)
     8c4:	00475000 	subeq	r5, r7, r0
     8c8:	00600000 	rsbeq	r0, r0, r0
     8cc:	00010000 	andeq	r0, r1, r0
     8d0:	00000055 	andeq	r0, r0, r5, asr r0
     8d4:	00000000 	andeq	r0, r0, r0
     8d8:	00005000 	andeq	r5, r0, r0
     8dc:	00005400 	andeq	r5, r0, r0, lsl #8
     8e0:	50000100 	andpl	r0, r0, r0, lsl #2
	...
     8ec:	00000060 	andeq	r0, r0, r0, rrx
     8f0:	0000006c 	andeq	r0, r0, ip, rrx
     8f4:	6c500001 	mrrcvs	0, 0, r0, r0, cr1	; <UNPREDICTABLE>
     8f8:	74000000 	strvc	r0, [r0], #-0
     8fc:	04000000 	streq	r0, [r0], #-0
     900:	5001f300 	andpl	pc, r1, r0, lsl #6
     904:	0000009f 	muleq	r0, pc, r0	; <UNPREDICTABLE>
     908:	00000000 	andeq	r0, r0, r0
     90c:	00007400 	andeq	r7, r0, r0, lsl #8
     910:	00008000 	andeq	r8, r0, r0
     914:	50000100 	andpl	r0, r0, r0, lsl #2
     918:	00000080 	andeq	r0, r0, r0, lsl #1
     91c:	00000088 	andeq	r0, r0, r8, lsl #1
     920:	01f30004 	mvnseq	r0, r4
     924:	00009f50 	andeq	r9, r0, r0, asr pc
	...
     930:	00900000 	addseq	r0, r0, r0
     934:	00010000 	andeq	r0, r1, r0
     938:	00009050 	andeq	r9, r0, r0, asr r0
     93c:	0000d400 	andeq	sp, r0, r0, lsl #8
     940:	54000100 	strpl	r0, [r0], #-256	; 0x100
	...
     94c:	00000048 	andeq	r0, r0, r8, asr #32
     950:	0000004c 	andeq	r0, r0, ip, asr #32
     954:	54550001 	ldrbpl	r0, [r5], #-1
     958:	58000000 	stmdapl	r0, {}	; <UNPREDICTABLE>
     95c:	01000000 	mrseq	r0, (UNDEF: 0)
     960:	00605500 	rsbeq	r5, r0, r0, lsl #10
     964:	00640000 	rsbeq	r0, r4, r0
     968:	00010000 	andeq	r0, r1, r0
     96c:	00006c55 	andeq	r6, r0, r5, asr ip
     970:	00007000 	andeq	r7, r0, r0
     974:	55000100 	strpl	r0, [r0, #-256]	; 0x100
     978:	00000078 	andeq	r0, r0, r8, ror r0
     97c:	0000007c 	andeq	r0, r0, ip, ror r0
     980:	84550001 	ldrbhi	r0, [r5], #-1
     984:	88000000 	stmdahi	r0, {}	; <UNPREDICTABLE>
     988:	01000000 	mrseq	r0, (UNDEF: 0)
     98c:	008c5500 	addeq	r5, ip, r0, lsl #10
     990:	00d40000 	sbcseq	r0, r4, r0
     994:	00010000 	andeq	r0, r1, r0
     998:	00000055 	andeq	r0, r0, r5, asr r0
     99c:	00000000 	andeq	r0, r0, r0
     9a0:	00001c00 	andeq	r1, r0, r0, lsl #24
     9a4:	00004400 	andeq	r4, r0, r0, lsl #8
     9a8:	53000100 	movwpl	r0, #256	; 0x100
     9ac:	00000044 	andeq	r0, r0, r4, asr #32
     9b0:	0000004c 	andeq	r0, r0, ip, asr #32
     9b4:	0070001c 	rsbseq	r0, r0, ip, lsl r0
     9b8:	25f72cf7 	ldrbcs	r2, [r7, #3319]!	; 0xcf7
     9bc:	cd0825f4 	cfstr32gt	mvfx2, [r8, #-976]	; 0xfffffc30
     9c0:	00cccccc 	sbceq	ip, ip, ip, asr #25
     9c4:	1e000000 	cdpne	0, 0, cr0, cr0, cr0, {0}
     9c8:	25f72008 	ldrbcs	r2, [r7, #8]!
     9cc:	332cf725 	msrcc	CPSR_fs, #9699328	; 0x940000
     9d0:	004c9f25 	subeq	r9, ip, r5, lsr #30
     9d4:	00500000 	subseq	r0, r0, r0
     9d8:	00010000 	andeq	r0, r1, r0
     9dc:	00005053 	andeq	r5, r0, r3, asr r0
     9e0:	00005800 	andeq	r5, r0, r0, lsl #16
     9e4:	70001c00 	andvc	r1, r0, r0, lsl #24
     9e8:	f72cf700 			; <UNDEFINED> instruction: 0xf72cf700
     9ec:	0825f425 	stmdaeq	r5!, {r0, r2, r5, sl, ip, sp, lr, pc}
     9f0:	cccccccd 	stclgt	12, cr12, [ip], {205}	; 0xcd
     9f4:	00000000 	andeq	r0, r0, r0
     9f8:	f720081e 			; <UNDEFINED> instruction: 0xf720081e
     9fc:	2cf72525 	cfldr64cs	mvdx2, [r7], #148	; 0x94
     a00:	589f2533 	ldmpl	pc, {r0, r1, r4, r5, r8, sl, sp}	; <UNPREDICTABLE>
     a04:	5c000000 	stcpl	0, cr0, [r0], {-0}
     a08:	01000000 	mrseq	r0, (UNDEF: 0)
     a0c:	005c5300 	subseq	r5, ip, r0, lsl #6
     a10:	00640000 	rsbeq	r0, r4, r0
     a14:	001c0000 	andseq	r0, ip, r0
     a18:	2cf70070 	ldclcs	0, cr0, [r7], #448	; 0x1c0
     a1c:	25f425f7 	ldrbcs	r2, [r4, #1527]!	; 0x5f7
     a20:	cccccd08 	stclgt	13, cr12, [ip], {8}
     a24:	000000cc 	andeq	r0, r0, ip, asr #1
     a28:	20081e00 	andcs	r1, r8, r0, lsl #28
     a2c:	f72525f7 			; <UNDEFINED> instruction: 0xf72525f7
     a30:	9f25332c 	svcls	0x0025332c
     a34:	00000064 	andeq	r0, r0, r4, rrx
     a38:	00000068 	andeq	r0, r0, r8, rrx
     a3c:	68530001 	ldmdavs	r3, {r0}^
     a40:	70000000 	andvc	r0, r0, r0
     a44:	1c000000 	stcne	0, cr0, [r0], {-0}
     a48:	f7007000 			; <UNDEFINED> instruction: 0xf7007000
     a4c:	f425f72c 	vld1.8	{d15}, [r5 :128], ip
     a50:	cccd0825 	stclgt	8, cr0, [sp], {37}	; 0x25
     a54:	0000cccc 	andeq	ip, r0, ip, asr #25
     a58:	081e0000 	ldmdaeq	lr, {}	; <UNPREDICTABLE>
     a5c:	2525f720 	strcs	pc, [r5, #-1824]!	; 0x720
     a60:	25332cf7 	ldrcs	r2, [r3, #-3319]!	; 0xcf7
     a64:	0000709f 	muleq	r0, pc, r0	; <UNPREDICTABLE>
     a68:	00007400 	andeq	r7, r0, r0, lsl #8
     a6c:	53000100 	movwpl	r0, #256	; 0x100
     a70:	00000074 	andeq	r0, r0, r4, ror r0
     a74:	0000007c 	andeq	r0, r0, ip, ror r0
     a78:	0070001c 	rsbseq	r0, r0, ip, lsl r0
     a7c:	25f72cf7 	ldrbcs	r2, [r7, #3319]!	; 0xcf7
     a80:	cd0825f4 	cfstr32gt	mvfx2, [r8, #-976]	; 0xfffffc30
     a84:	00cccccc 	sbceq	ip, ip, ip, asr #25
     a88:	1e000000 	cdpne	0, 0, cr0, cr0, cr0, {0}
     a8c:	25f72008 	ldrbcs	r2, [r7, #8]!
     a90:	332cf725 	msrcc	CPSR_fs, #9699328	; 0x940000
     a94:	007c9f25 	rsbseq	r9, ip, r5, lsr #30
     a98:	00800000 	addeq	r0, r0, r0
     a9c:	00010000 	andeq	r0, r1, r0
     aa0:	00008053 	andeq	r8, r0, r3, asr r0
     aa4:	00008800 	andeq	r8, r0, r0, lsl #16
     aa8:	70001c00 	andvc	r1, r0, r0, lsl #24
     aac:	f72cf700 			; <UNDEFINED> instruction: 0xf72cf700
     ab0:	0825f425 	stmdaeq	r5!, {r0, r2, r5, sl, ip, sp, lr, pc}
     ab4:	cccccccd 	stclgt	12, cr12, [ip], {205}	; 0xcd
     ab8:	00000000 	andeq	r0, r0, r0
     abc:	f720081e 			; <UNDEFINED> instruction: 0xf720081e
     ac0:	2cf72525 	cfldr64cs	mvdx2, [r7], #148	; 0x94
     ac4:	889f2533 	ldmhi	pc, {r0, r1, r4, r5, r8, sl, sp}	; <UNPREDICTABLE>
     ac8:	8c000000 	stchi	0, cr0, [r0], {-0}
     acc:	01000000 	mrseq	r0, (UNDEF: 0)
     ad0:	008c5300 	addeq	r5, ip, r0, lsl #6
     ad4:	00900000 	addseq	r0, r0, r0
     ad8:	001c0000 	andseq	r0, ip, r0
     adc:	2cf70070 	ldclcs	0, cr0, [r7], #448	; 0x1c0
     ae0:	25f425f7 	ldrbcs	r2, [r4, #1527]!	; 0x5f7
     ae4:	cccccd08 	stclgt	13, cr12, [ip], {8}
     ae8:	000000cc 	andeq	r0, r0, ip, asr #1
     aec:	20081e00 	andcs	r1, r8, r0, lsl #28
     af0:	f72525f7 			; <UNDEFINED> instruction: 0xf72525f7
     af4:	9f25332c 	svcls	0x0025332c
     af8:	00000090 	muleq	r0, r0, r0
     afc:	00000098 	muleq	r0, r8, r0
     b00:	0074001c 	rsbseq	r0, r4, ip, lsl r0
     b04:	25f72cf7 	ldrbcs	r2, [r7, #3319]!	; 0xcf7
     b08:	cd0825f4 	cfstr32gt	mvfx2, [r8, #-976]	; 0xfffffc30
     b0c:	00cccccc 	sbceq	ip, ip, ip, asr #25
     b10:	1e000000 	cdpne	0, 0, cr0, cr0, cr0, {0}
     b14:	25f72008 	ldrbcs	r2, [r7, #8]!
     b18:	332cf725 	msrcc	CPSR_fs, #9699328	; 0x940000
     b1c:	00989f25 	addseq	r9, r8, r5, lsr #30
     b20:	009c0000 	addseq	r0, ip, r0
     b24:	00170000 	andseq	r0, r7, r0
     b28:	2cf70074 	ldclcs	0, cr0, [r7], #464	; 0x1d0
     b2c:	007125f7 	ldrshteq	r2, [r1], #-87	; 0xffffffa9
     b30:	25f72cf7 	ldrbcs	r2, [r7, #3319]!	; 0xcf7
     b34:	f720081e 			; <UNDEFINED> instruction: 0xf720081e
     b38:	2cf72525 	cfldr64cs	mvdx2, [r7], #148	; 0x94
     b3c:	9c9f2533 	cfldr32ls	mvfx2, [pc], {51}	; 0x33
     b40:	d4000000 	strle	r0, [r0], #-0
     b44:	1c000000 	stcne	0, cr0, [r0], {-0}
     b48:	f7007400 			; <UNDEFINED> instruction: 0xf7007400
     b4c:	f425f72c 	vld1.8	{d15}, [r5 :128], ip
     b50:	cccd0825 	stclgt	8, cr0, [sp], {37}	; 0x25
     b54:	0000cccc 	andeq	ip, r0, ip, asr #25
     b58:	081e0000 	ldmdaeq	lr, {}	; <UNPREDICTABLE>
     b5c:	2525f720 	strcs	pc, [r5, #-1824]!	; 0x720
     b60:	25332cf7 	ldrcs	r2, [r3, #-3319]!	; 0xcf7
     b64:	0000009f 	muleq	r0, pc, r0	; <UNPREDICTABLE>
     b68:	00000000 	andeq	r0, r0, r0
     b6c:	00009400 	andeq	r9, r0, r0, lsl #8
     b70:	0000b800 	andeq	fp, r0, r0, lsl #16
     b74:	50000100 	andpl	r0, r0, r0, lsl #2
     b78:	000000b8 	strheq	r0, [r0], -r8
     b7c:	000000c4 	andeq	r0, r0, r4, asr #1
     b80:	71310008 	teqvc	r1, r8
     b84:	00732400 	rsbseq	r2, r3, r0, lsl #8
     b88:	00c49f21 	sbceq	r9, r4, r1, lsr #30
     b8c:	00c70000 	sbceq	r0, r7, r0
     b90:	00010000 	andeq	r0, r1, r0
     b94:	00000051 	andeq	r0, r0, r1, asr r0
     b98:	00000000 	andeq	r0, r0, r0
     b9c:	0000d400 	andeq	sp, r0, r0, lsl #8
     ba0:	0000f800 	andeq	pc, r0, r0, lsl #16
     ba4:	50000100 	andpl	r0, r0, r0, lsl #2
     ba8:	000000f8 	strdeq	r0, [r0], -r8
     bac:	0000010c 	andeq	r0, r0, ip, lsl #2
     bb0:	01f30004 	mvnseq	r0, r4
     bb4:	00009f50 	andeq	r9, r0, r0, asr pc
     bb8:	00000000 	andeq	r0, r0, r0
     bbc:	00e00000 	rsceq	r0, r0, r0
     bc0:	00e80000 	rsceq	r0, r8, r0
     bc4:	00020000 	andeq	r0, r2, r0
     bc8:	00e89f30 	rsceq	r9, r8, r0, lsr pc
     bcc:	00e80000 	rsceq	r0, r8, r0
     bd0:	00010000 	andeq	r0, r1, r0
     bd4:	0000e852 	andeq	lr, r0, r2, asr r8
     bd8:	0000f000 	andeq	pc, r0, r0
     bdc:	30000200 	andcc	r0, r0, r0, lsl #4
     be0:	0000f09f 	muleq	r0, pc, r0	; <UNPREDICTABLE>
     be4:	00010300 	andeq	r0, r1, r0, lsl #6
     be8:	52000100 	andpl	r0, r0, #0, 2
	...
     bf4:	000000e0 	andeq	r0, r0, r0, ror #1
     bf8:	000000f4 	strdeq	r0, [r0], -r4
     bfc:	9f300002 	svcls	0x00300002
     c00:	000000f4 	strdeq	r0, [r0], -r4
     c04:	00000100 	andeq	r0, r0, r0, lsl #2
     c08:	73310005 	teqvc	r1, #5
     c0c:	009f2400 	addseq	r2, pc, r0, lsl #8
     c10:	03000001 	movweq	r0, #1
     c14:	01000001 	tsteq	r0, r1
     c18:	01035100 	mrseq	r5, (UNDEF: 19)
     c1c:	010c0000 	mrseq	r0, (UNDEF: 12)
     c20:	00080000 	andeq	r0, r8, r0
     c24:	5001f331 	andpl	pc, r1, r1, lsr r3	; <UNPREDICTABLE>
     c28:	9f241a4f 	svcls	0x00241a4f
	...
     c34:	0000010c 	andeq	r0, r0, ip, lsl #2
     c38:	00000130 	andeq	r0, r0, r0, lsr r1
     c3c:	30500001 	subscc	r0, r0, r1
     c40:	44000001 	strmi	r0, [r0], #-1
     c44:	04000001 	streq	r0, [r0], #-1
     c48:	5001f300 	andpl	pc, r1, r0, lsl #6
     c4c:	0000009f 	muleq	r0, pc, r0	; <UNPREDICTABLE>
     c50:	00000000 	andeq	r0, r0, r0
     c54:	00011800 	andeq	r1, r1, r0, lsl #16
     c58:	00012000 	andeq	r2, r1, r0
     c5c:	30000200 	andcc	r0, r0, r0, lsl #4
     c60:	0001209f 	muleq	r1, pc, r0	; <UNPREDICTABLE>
     c64:	00012000 	andeq	r2, r1, r0
     c68:	52000100 	andpl	r0, r0, #0, 2
     c6c:	00000120 	andeq	r0, r0, r0, lsr #2
     c70:	00000128 	andeq	r0, r0, r8, lsr #2
     c74:	9f300002 	svcls	0x00300002
     c78:	00000128 	andeq	r0, r0, r8, lsr #2
     c7c:	0000013b 	andeq	r0, r0, fp, lsr r1
     c80:	00520001 	subseq	r0, r2, r1
     c84:	00000000 	andeq	r0, r0, r0
     c88:	18000000 	stmdane	r0, {}	; <UNPREDICTABLE>
     c8c:	2c000001 	stccs	0, cr0, [r0], {1}
     c90:	02000001 	andeq	r0, r0, #1
     c94:	2c9f3000 	ldccs	0, cr3, [pc], {0}
     c98:	38000001 	stmdacc	r0, {r0}
     c9c:	05000001 	streq	r0, [r0, #-1]
     ca0:	00733100 	rsbseq	r3, r3, r0, lsl #2
     ca4:	01389f24 	teqeq	r8, r4, lsr #30
     ca8:	013b0000 	teqeq	fp, r0
     cac:	00010000 	andeq	r0, r1, r0
     cb0:	00013b51 	andeq	r3, r1, r1, asr fp
     cb4:	00014400 	andeq	r4, r1, r0, lsl #8
     cb8:	31000800 	tstcc	r0, r0, lsl #16
     cbc:	4f5001f3 	svcmi	0x005001f3
     cc0:	009f241a 	addseq	r2, pc, sl, lsl r4	; <UNPREDICTABLE>
     cc4:	00000000 	andeq	r0, r0, r0
     cc8:	44000000 	strmi	r0, [r0], #-0
     ccc:	d4000001 	strle	r0, [r0], #-1
     cd0:	01000001 	tsteq	r0, r1
     cd4:	01d45000 	bicseq	r5, r4, r0
     cd8:	02100000 	andseq	r0, r0, #0
     cdc:	00010000 	andeq	r0, r1, r0
     ce0:	00000054 	andeq	r0, r0, r4, asr r0
     ce4:	00000000 	andeq	r0, r0, r0
     ce8:	00018c00 	andeq	r8, r1, r0, lsl #24
     cec:	00019000 	andeq	r9, r1, r0
     cf0:	55000100 	strpl	r0, [r0, #-256]	; 0x100
     cf4:	00000198 	muleq	r0, r8, r1
     cf8:	0000019c 	muleq	r0, ip, r1
     cfc:	a4550001 	ldrbge	r0, [r5], #-1
     d00:	a8000001 	stmdage	r0, {r0}
     d04:	01000001 	tsteq	r0, r1
     d08:	01b05500 	lslseq	r5, r0, #10
     d0c:	01b40000 			; <UNDEFINED> instruction: 0x01b40000
     d10:	00010000 	andeq	r0, r1, r0
     d14:	0001bc55 	andeq	fp, r1, r5, asr ip
     d18:	0001c000 	andeq	ip, r1, r0
     d1c:	55000100 	strpl	r0, [r0, #-256]	; 0x100
     d20:	000001c8 	andeq	r0, r0, r8, asr #3
     d24:	000001cc 	andeq	r0, r0, ip, asr #3
     d28:	d0550001 	subsle	r0, r5, r1
     d2c:	10000001 	andne	r0, r0, r1
     d30:	01000002 	tsteq	r0, r2
     d34:	00005500 	andeq	r5, r0, r0, lsl #10
     d38:	00000000 	andeq	r0, r0, r0
     d3c:	01600000 	cmneq	r0, r0
     d40:	01880000 	orreq	r0, r8, r0
     d44:	00010000 	andeq	r0, r1, r0
     d48:	00018853 	andeq	r8, r1, r3, asr r8
     d4c:	00019000 	andeq	r9, r1, r0
     d50:	70001c00 	andvc	r1, r0, r0, lsl #24
     d54:	f72cf700 			; <UNDEFINED> instruction: 0xf72cf700
     d58:	0825f425 	stmdaeq	r5!, {r0, r2, r5, sl, ip, sp, lr, pc}
     d5c:	cccccccd 	stclgt	12, cr12, [ip], {205}	; 0xcd
     d60:	00000000 	andeq	r0, r0, r0
     d64:	f720081e 			; <UNDEFINED> instruction: 0xf720081e
     d68:	2cf72525 	cfldr64cs	mvdx2, [r7], #148	; 0x94
     d6c:	909f2533 	addsls	r2, pc, r3, lsr r5	; <UNPREDICTABLE>
     d70:	94000001 	strls	r0, [r0], #-1
     d74:	01000001 	tsteq	r0, r1
     d78:	01945300 	orrseq	r5, r4, r0, lsl #6
     d7c:	019c0000 	orrseq	r0, ip, r0
     d80:	001c0000 	andseq	r0, ip, r0
     d84:	2cf70070 	ldclcs	0, cr0, [r7], #448	; 0x1c0
     d88:	25f425f7 	ldrbcs	r2, [r4, #1527]!	; 0x5f7
     d8c:	cccccd08 	stclgt	13, cr12, [ip], {8}
     d90:	000000cc 	andeq	r0, r0, ip, asr #1
     d94:	20081e00 	andcs	r1, r8, r0, lsl #28
     d98:	f72525f7 			; <UNDEFINED> instruction: 0xf72525f7
     d9c:	9f25332c 	svcls	0x0025332c
     da0:	0000019c 	muleq	r0, ip, r1
     da4:	000001a0 	andeq	r0, r0, r0, lsr #3
     da8:	a0530001 	subsge	r0, r3, r1
     dac:	a8000001 	stmdage	r0, {r0}
     db0:	1c000001 	stcne	0, cr0, [r0], {1}
     db4:	f7007000 			; <UNDEFINED> instruction: 0xf7007000
     db8:	f425f72c 	vld1.8	{d15}, [r5 :128], ip
     dbc:	cccd0825 	stclgt	8, cr0, [sp], {37}	; 0x25
     dc0:	0000cccc 	andeq	ip, r0, ip, asr #25
     dc4:	081e0000 	ldmdaeq	lr, {}	; <UNPREDICTABLE>
     dc8:	2525f720 	strcs	pc, [r5, #-1824]!	; 0x720
     dcc:	25332cf7 	ldrcs	r2, [r3, #-3319]!	; 0xcf7
     dd0:	0001a89f 	muleq	r1, pc, r8	; <UNPREDICTABLE>
     dd4:	0001ac00 	andeq	sl, r1, r0, lsl #24
     dd8:	53000100 	movwpl	r0, #256	; 0x100
     ddc:	000001ac 	andeq	r0, r0, ip, lsr #3
     de0:	000001b4 			; <UNDEFINED> instruction: 0x000001b4
     de4:	0070001c 	rsbseq	r0, r0, ip, lsl r0
     de8:	25f72cf7 	ldrbcs	r2, [r7, #3319]!	; 0xcf7
     dec:	cd0825f4 	cfstr32gt	mvfx2, [r8, #-976]	; 0xfffffc30
     df0:	00cccccc 	sbceq	ip, ip, ip, asr #25
     df4:	1e000000 	cdpne	0, 0, cr0, cr0, cr0, {0}
     df8:	25f72008 	ldrbcs	r2, [r7, #8]!
     dfc:	332cf725 	msrcc	CPSR_fs, #9699328	; 0x940000
     e00:	01b49f25 			; <UNDEFINED> instruction: 0x01b49f25
     e04:	01b80000 			; <UNDEFINED> instruction: 0x01b80000
     e08:	00010000 	andeq	r0, r1, r0
     e0c:	0001b853 	andeq	fp, r1, r3, asr r8
     e10:	0001c000 	andeq	ip, r1, r0
     e14:	70001c00 	andvc	r1, r0, r0, lsl #24
     e18:	f72cf700 			; <UNDEFINED> instruction: 0xf72cf700
     e1c:	0825f425 	stmdaeq	r5!, {r0, r2, r5, sl, ip, sp, lr, pc}
     e20:	cccccccd 	stclgt	12, cr12, [ip], {205}	; 0xcd
     e24:	00000000 	andeq	r0, r0, r0
     e28:	f720081e 			; <UNDEFINED> instruction: 0xf720081e
     e2c:	2cf72525 	cfldr64cs	mvdx2, [r7], #148	; 0x94
     e30:	c09f2533 	addsgt	r2, pc, r3, lsr r5	; <UNPREDICTABLE>
     e34:	c4000001 	strgt	r0, [r0], #-1
     e38:	01000001 	tsteq	r0, r1
     e3c:	01c45300 	biceq	r5, r4, r0, lsl #6
     e40:	01cc0000 	biceq	r0, ip, r0
     e44:	001c0000 	andseq	r0, ip, r0
     e48:	2cf70070 	ldclcs	0, cr0, [r7], #448	; 0x1c0
     e4c:	25f425f7 	ldrbcs	r2, [r4, #1527]!	; 0x5f7
     e50:	cccccd08 	stclgt	13, cr12, [ip], {8}
     e54:	000000cc 	andeq	r0, r0, ip, asr #1
     e58:	20081e00 	andcs	r1, r8, r0, lsl #28
     e5c:	f72525f7 			; <UNDEFINED> instruction: 0xf72525f7
     e60:	9f25332c 	svcls	0x0025332c
     e64:	000001cc 	andeq	r0, r0, ip, asr #3
     e68:	000001d0 	ldrdeq	r0, [r0], -r0	; <UNPREDICTABLE>
     e6c:	d0530001 	subsle	r0, r3, r1
     e70:	d4000001 	strle	r0, [r0], #-1
     e74:	1c000001 	stcne	0, cr0, [r0], {1}
     e78:	f7007000 			; <UNDEFINED> instruction: 0xf7007000
     e7c:	f425f72c 	vld1.8	{d15}, [r5 :128], ip
     e80:	cccd0825 	stclgt	8, cr0, [sp], {37}	; 0x25
     e84:	0000cccc 	andeq	ip, r0, ip, asr #25
     e88:	081e0000 	ldmdaeq	lr, {}	; <UNPREDICTABLE>
     e8c:	2525f720 	strcs	pc, [r5, #-1824]!	; 0x720
     e90:	25332cf7 	ldrcs	r2, [r3, #-3319]!	; 0xcf7
     e94:	0001d49f 	muleq	r1, pc, r4	; <UNPREDICTABLE>
     e98:	0001dc00 	andeq	sp, r1, r0, lsl #24
     e9c:	74001c00 	strvc	r1, [r0], #-3072	; 0xc00
     ea0:	f72cf700 			; <UNDEFINED> instruction: 0xf72cf700
     ea4:	0825f425 	stmdaeq	r5!, {r0, r2, r5, sl, ip, sp, lr, pc}
     ea8:	cccccccd 	stclgt	12, cr12, [ip], {205}	; 0xcd
     eac:	00000000 	andeq	r0, r0, r0
     eb0:	f720081e 			; <UNDEFINED> instruction: 0xf720081e
     eb4:	2cf72525 	cfldr64cs	mvdx2, [r7], #148	; 0x94
     eb8:	dc9f2533 	cfldr32le	mvfx2, [pc], {51}	; 0x33
     ebc:	e0000001 	and	r0, r0, r1
     ec0:	17000001 	strne	r0, [r0, -r1]
     ec4:	f7007400 			; <UNDEFINED> instruction: 0xf7007400
     ec8:	7125f72c 	msrvc	SP_abt, ip
     ecc:	f72cf700 			; <UNDEFINED> instruction: 0xf72cf700
     ed0:	20081e25 	andcs	r1, r8, r5, lsr #28
     ed4:	f72525f7 			; <UNDEFINED> instruction: 0xf72525f7
     ed8:	9f25332c 	svcls	0x0025332c
     edc:	000001e0 	andeq	r0, r0, r0, ror #3
     ee0:	00000210 	andeq	r0, r0, r0, lsl r2
     ee4:	0074001c 	rsbseq	r0, r4, ip, lsl r0
     ee8:	25f72cf7 	ldrbcs	r2, [r7, #3319]!	; 0xcf7
     eec:	cd0825f4 	cfstr32gt	mvfx2, [r8, #-976]	; 0xfffffc30
     ef0:	00cccccc 	sbceq	ip, ip, ip, asr #25
     ef4:	1e000000 	cdpne	0, 0, cr0, cr0, cr0, {0}
     ef8:	25f72008 	ldrbcs	r2, [r7, #8]!
     efc:	332cf725 	msrcc	CPSR_fs, #9699328	; 0x940000
     f00:	00009f25 	andeq	r9, r0, r5, lsr #30
     f04:	00000000 	andeq	r0, r0, r0
     f08:	01d80000 	bicseq	r0, r8, r0
     f0c:	01fc0000 	mvnseq	r0, r0
     f10:	00010000 	andeq	r0, r1, r0
     f14:	0001fc50 	andeq	pc, r1, r0, asr ip	; <UNPREDICTABLE>
     f18:	00020300 	andeq	r0, r2, r0, lsl #6
     f1c:	51000100 	mrspl	r0, (UNDEF: 16)
	...
     f28:	00000210 	andeq	r0, r0, r0, lsl r2
     f2c:	0000022c 	andeq	r0, r0, ip, lsr #4
     f30:	2c500001 	mrrccs	0, 0, r0, r0, cr1	; <UNPREDICTABLE>
     f34:	34000002 	strcc	r0, [r0], #-2
     f38:	01000002 	tsteq	r0, r2
     f3c:	02345400 	eorseq	r5, r4, #0, 8
     f40:	023c0000 	eorseq	r0, ip, #0
     f44:	00010000 	andeq	r0, r1, r0
     f48:	00023c50 	andeq	r3, r2, r0, asr ip
     f4c:	00024400 	andeq	r4, r2, r0, lsl #8
     f50:	54000100 	strpl	r0, [r0], #-256	; 0x100
     f54:	00000244 	andeq	r0, r0, r4, asr #4
     f58:	00000250 	andeq	r0, r0, r0, asr r2
     f5c:	01f30004 	mvnseq	r0, r4
     f60:	02509f50 	subseq	r9, r0, #80, 30	; 0x140
     f64:	02540000 	subseq	r0, r4, #0
     f68:	00010000 	andeq	r0, r1, r0
     f6c:	00025450 	andeq	r5, r2, r0, asr r4
     f70:	00025c00 	andeq	r5, r2, r0, lsl #24
     f74:	54000100 	strpl	r0, [r0], #-256	; 0x100
	...
     f80:	00000220 	andeq	r0, r0, r0, lsr #4
     f84:	00000230 	andeq	r0, r0, r0, lsr r2
     f88:	9f300002 	svcls	0x00300002
     f8c:	00000230 	andeq	r0, r0, r0, lsr r2
     f90:	00000234 	andeq	r0, r0, r4, lsr r2
     f94:	34500001 	ldrbcc	r0, [r0], #-1
     f98:	40000002 	andmi	r0, r0, r2
     f9c:	02000002 	andeq	r0, r0, #2
     fa0:	409f3000 	addsmi	r3, pc, r0
     fa4:	4c000002 	stcmi	0, cr0, [r0], {2}
     fa8:	01000002 	tsteq	r0, r2
     fac:	00005000 	andeq	r5, r0, r0
     fb0:	00000000 	andeq	r0, r0, r0
     fb4:	025c0000 	subseq	r0, ip, #0
     fb8:	02730000 	rsbseq	r0, r3, #0
     fbc:	00010000 	andeq	r0, r1, r0
     fc0:	00027350 	andeq	r7, r2, r0, asr r3
     fc4:	00027800 	andeq	r7, r2, r0, lsl #16
     fc8:	f3000400 	vshl.u8	d0, d0, d0
     fcc:	789f5001 	ldmvc	pc, {r0, ip, lr}	; <UNPREDICTABLE>
     fd0:	7b000002 	blvc	fe0 <_start-0x7020>
     fd4:	01000002 	tsteq	r0, r2
     fd8:	027b5000 	rsbseq	r5, fp, #0
     fdc:	02800000 	addeq	r0, r0, #0
     fe0:	00040000 	andeq	r0, r4, r0
     fe4:	9f5001f3 	svcls	0x005001f3
	...
     ff0:	0000025c 	andeq	r0, r0, ip, asr r2
     ff4:	00000273 	andeq	r0, r0, r3, ror r2
     ff8:	73510001 	cmpvc	r1, #1
     ffc:	78000002 	stmdavc	r0, {r1}
    1000:	04000002 	streq	r0, [r0], #-2
    1004:	5101f300 	mrspl	pc, SP_irq	; <UNPREDICTABLE>
    1008:	0002789f 	muleq	r2, pc, r8	; <UNPREDICTABLE>
    100c:	00027b00 	andeq	r7, r2, r0, lsl #22
    1010:	51000100 	mrspl	r0, (UNDEF: 16)
    1014:	0000027b 	andeq	r0, r0, fp, ror r2
    1018:	00000280 	andeq	r0, r0, r0, lsl #5
    101c:	01f30004 	mvnseq	r0, r4
    1020:	00009f51 	andeq	r9, r0, r1, asr pc
    1024:	00000000 	andeq	r0, r0, r0
    1028:	02800000 	addeq	r0, r0, #0
    102c:	03180000 	tsteq	r8, #0
    1030:	00010000 	andeq	r0, r1, r0
    1034:	00031850 	andeq	r1, r3, r0, asr r8
    1038:	00035800 	andeq	r5, r3, r0, lsl #16
    103c:	54000100 	strpl	r0, [r0], #-256	; 0x100
	...
    1048:	00000280 	andeq	r0, r0, r0, lsl #5
    104c:	0000031b 	andeq	r0, r0, fp, lsl r3
    1050:	1b510001 	blne	144105c <__bss_end__+0x143729c>
    1054:	58000003 	stmdapl	r0, {r0, r1}
    1058:	04000003 	streq	r0, [r0], #-3
    105c:	5101f300 	mrspl	pc, SP_irq	; <UNPREDICTABLE>
    1060:	0000009f 	muleq	r0, pc, r0	; <UNPREDICTABLE>
    1064:	00000000 	andeq	r0, r0, r0
    1068:	0002d000 	andeq	sp, r2, r0
    106c:	0002d400 	andeq	sp, r2, r0, lsl #8
    1070:	56000100 	strpl	r0, [r0], -r0, lsl #2
    1074:	000002dc 	ldrdeq	r0, [r0], -ip
    1078:	000002e0 	andeq	r0, r0, r0, ror #5
    107c:	e8560001 	ldmda	r6, {r0}^
    1080:	ec000002 	stc	0, cr0, [r0], {2}
    1084:	01000002 	tsteq	r0, r2
    1088:	02f45600 	rscseq	r5, r4, #0, 12
    108c:	02f80000 	rscseq	r0, r8, #0
    1090:	00010000 	andeq	r0, r1, r0
    1094:	00030056 	andeq	r0, r3, r6, asr r0
    1098:	00030400 	andeq	r0, r3, r0, lsl #8
    109c:	56000100 	strpl	r0, [r0], -r0, lsl #2
    10a0:	0000030c 	andeq	r0, r0, ip, lsl #6
    10a4:	00000310 	andeq	r0, r0, r0, lsl r3
    10a8:	14560001 	ldrbne	r0, [r6], #-1
    10ac:	58000003 	stmdapl	r0, {r0, r1}
    10b0:	01000003 	tsteq	r0, r3
    10b4:	00005600 	andeq	r5, r0, r0, lsl #12
    10b8:	00000000 	andeq	r0, r0, r0
    10bc:	02a40000 	adceq	r0, r4, #0
    10c0:	02cc0000 	sbceq	r0, ip, #0
    10c4:	00010000 	andeq	r0, r1, r0
    10c8:	0002cc53 	andeq	ip, r2, r3, asr ip
    10cc:	0002d400 	andeq	sp, r2, r0, lsl #8
    10d0:	70001c00 	andvc	r1, r0, r0, lsl #24
    10d4:	f72cf700 			; <UNDEFINED> instruction: 0xf72cf700
    10d8:	0825f425 	stmdaeq	r5!, {r0, r2, r5, sl, ip, sp, lr, pc}
    10dc:	cccccccd 	stclgt	12, cr12, [ip], {205}	; 0xcd
    10e0:	00000000 	andeq	r0, r0, r0
    10e4:	f720081e 			; <UNDEFINED> instruction: 0xf720081e
    10e8:	2cf72525 	cfldr64cs	mvdx2, [r7], #148	; 0x94
    10ec:	d49f2533 	ldrle	r2, [pc], #1331	; 10f4 <_start-0x6f0c>
    10f0:	d8000002 	stmdale	r0, {r1}
    10f4:	01000002 	tsteq	r0, r2
    10f8:	02d85300 	sbcseq	r5, r8, #0, 6
    10fc:	02e00000 	rsceq	r0, r0, #0
    1100:	001c0000 	andseq	r0, ip, r0
    1104:	2cf70070 	ldclcs	0, cr0, [r7], #448	; 0x1c0
    1108:	25f425f7 	ldrbcs	r2, [r4, #1527]!	; 0x5f7
    110c:	cccccd08 	stclgt	13, cr12, [ip], {8}
    1110:	000000cc 	andeq	r0, r0, ip, asr #1
    1114:	20081e00 	andcs	r1, r8, r0, lsl #28
    1118:	f72525f7 			; <UNDEFINED> instruction: 0xf72525f7
    111c:	9f25332c 	svcls	0x0025332c
    1120:	000002e0 	andeq	r0, r0, r0, ror #5
    1124:	000002e4 	andeq	r0, r0, r4, ror #5
    1128:	e4530001 	ldrb	r0, [r3], #-1
    112c:	ec000002 	stc	0, cr0, [r0], {2}
    1130:	1c000002 	stcne	0, cr0, [r0], {2}
    1134:	f7007000 			; <UNDEFINED> instruction: 0xf7007000
    1138:	f425f72c 	vld1.8	{d15}, [r5 :128], ip
    113c:	cccd0825 	stclgt	8, cr0, [sp], {37}	; 0x25
    1140:	0000cccc 	andeq	ip, r0, ip, asr #25
    1144:	081e0000 	ldmdaeq	lr, {}	; <UNPREDICTABLE>
    1148:	2525f720 	strcs	pc, [r5, #-1824]!	; 0x720
    114c:	25332cf7 	ldrcs	r2, [r3, #-3319]!	; 0xcf7
    1150:	0002ec9f 	muleq	r2, pc, ip	; <UNPREDICTABLE>
    1154:	0002f000 	andeq	pc, r2, r0
    1158:	53000100 	movwpl	r0, #256	; 0x100
    115c:	000002f0 	strdeq	r0, [r0], -r0	; <UNPREDICTABLE>
    1160:	000002f8 	strdeq	r0, [r0], -r8
    1164:	0070001c 	rsbseq	r0, r0, ip, lsl r0
    1168:	25f72cf7 	ldrbcs	r2, [r7, #3319]!	; 0xcf7
    116c:	cd0825f4 	cfstr32gt	mvfx2, [r8, #-976]	; 0xfffffc30
    1170:	00cccccc 	sbceq	ip, ip, ip, asr #25
    1174:	1e000000 	cdpne	0, 0, cr0, cr0, cr0, {0}
    1178:	25f72008 	ldrbcs	r2, [r7, #8]!
    117c:	332cf725 	msrcc	CPSR_fs, #9699328	; 0x940000
    1180:	02f89f25 	rscseq	r9, r8, #37, 30	; 0x94
    1184:	02fc0000 	rscseq	r0, ip, #0
    1188:	00010000 	andeq	r0, r1, r0
    118c:	0002fc53 	andeq	pc, r2, r3, asr ip	; <UNPREDICTABLE>
    1190:	00030400 	andeq	r0, r3, r0, lsl #8
    1194:	70001c00 	andvc	r1, r0, r0, lsl #24
    1198:	f72cf700 			; <UNDEFINED> instruction: 0xf72cf700
    119c:	0825f425 	stmdaeq	r5!, {r0, r2, r5, sl, ip, sp, lr, pc}
    11a0:	cccccccd 	stclgt	12, cr12, [ip], {205}	; 0xcd
    11a4:	00000000 	andeq	r0, r0, r0
    11a8:	f720081e 			; <UNDEFINED> instruction: 0xf720081e
    11ac:	2cf72525 	cfldr64cs	mvdx2, [r7], #148	; 0x94
    11b0:	049f2533 	ldreq	r2, [pc], #1331	; 11b8 <_start-0x6e48>
    11b4:	08000003 	stmdaeq	r0, {r0, r1}
    11b8:	01000003 	tsteq	r0, r3
    11bc:	03085300 	movweq	r5, #33536	; 0x8300
    11c0:	03100000 	tsteq	r0, #0
    11c4:	001c0000 	andseq	r0, ip, r0
    11c8:	2cf70070 	ldclcs	0, cr0, [r7], #448	; 0x1c0
    11cc:	25f425f7 	ldrbcs	r2, [r4, #1527]!	; 0x5f7
    11d0:	cccccd08 	stclgt	13, cr12, [ip], {8}
    11d4:	000000cc 	andeq	r0, r0, ip, asr #1
    11d8:	20081e00 	andcs	r1, r8, r0, lsl #28
    11dc:	f72525f7 			; <UNDEFINED> instruction: 0xf72525f7
    11e0:	9f25332c 	svcls	0x0025332c
    11e4:	00000310 	andeq	r0, r0, r0, lsl r3
    11e8:	00000314 	andeq	r0, r0, r4, lsl r3
    11ec:	14530001 	ldrbne	r0, [r3], #-1
    11f0:	18000003 	stmdane	r0, {r0, r1}
    11f4:	1c000003 	stcne	0, cr0, [r0], {3}
    11f8:	f7007000 			; <UNDEFINED> instruction: 0xf7007000
    11fc:	f425f72c 	vld1.8	{d15}, [r5 :128], ip
    1200:	cccd0825 	stclgt	8, cr0, [sp], {37}	; 0x25
    1204:	0000cccc 	andeq	ip, r0, ip, asr #25
    1208:	081e0000 	ldmdaeq	lr, {}	; <UNPREDICTABLE>
    120c:	2525f720 	strcs	pc, [r5, #-1824]!	; 0x720
    1210:	25332cf7 	ldrcs	r2, [r3, #-3319]!	; 0xcf7
    1214:	0003189f 	muleq	r3, pc, r8	; <UNPREDICTABLE>
    1218:	00032000 	andeq	r2, r3, r0
    121c:	74001c00 	strvc	r1, [r0], #-3072	; 0xc00
    1220:	f72cf700 			; <UNDEFINED> instruction: 0xf72cf700
    1224:	0825f425 	stmdaeq	r5!, {r0, r2, r5, sl, ip, sp, lr, pc}
    1228:	cccccccd 	stclgt	12, cr12, [ip], {205}	; 0xcd
    122c:	00000000 	andeq	r0, r0, r0
    1230:	f720081e 			; <UNDEFINED> instruction: 0xf720081e
    1234:	2cf72525 	cfldr64cs	mvdx2, [r7], #148	; 0x94
    1238:	209f2533 	addscs	r2, pc, r3, lsr r5	; <UNPREDICTABLE>
    123c:	24000003 	strcs	r0, [r0], #-3
    1240:	17000003 	strne	r0, [r0, -r3]
    1244:	f7007400 			; <UNDEFINED> instruction: 0xf7007400
    1248:	7325f72c 	msrvc	CPSR_sc, #44, 14	; 0xb00000
    124c:	f72cf700 			; <UNDEFINED> instruction: 0xf72cf700
    1250:	20081e25 	andcs	r1, r8, r5, lsr #28
    1254:	f72525f7 			; <UNDEFINED> instruction: 0xf72525f7
    1258:	9f25332c 	svcls	0x0025332c
    125c:	00000324 	andeq	r0, r0, r4, lsr #6
    1260:	00000358 	andeq	r0, r0, r8, asr r3
    1264:	0074001c 	rsbseq	r0, r4, ip, lsl r0
    1268:	25f72cf7 	ldrbcs	r2, [r7, #3319]!	; 0xcf7
    126c:	cd0825f4 	cfstr32gt	mvfx2, [r8, #-976]	; 0xfffffc30
    1270:	00cccccc 	sbceq	ip, ip, ip, asr #25
    1274:	1e000000 	cdpne	0, 0, cr0, cr0, cr0, {0}
    1278:	25f72008 	ldrbcs	r2, [r7, #8]!
    127c:	332cf725 	msrcc	CPSR_fs, #9699328	; 0x940000
    1280:	00009f25 	andeq	r9, r0, r5, lsr #30
    1284:	00000000 	andeq	r0, r0, r0
    1288:	031c0000 	tsteq	ip, #0
    128c:	03400000 	movteq	r0, #0
    1290:	00010000 	andeq	r0, r1, r0
    1294:	00034050 	andeq	r4, r3, r0, asr r0
    1298:	00034800 	andeq	r4, r3, r0, lsl #16
    129c:	75000900 	strvc	r0, [r0, #-2304]	; 0x900
    12a0:	24007300 	strcs	r7, [r0], #-768	; 0x300
    12a4:	9f210071 	svcls	0x00210071
    12a8:	00000348 	andeq	r0, r0, r8, asr #6
    12ac:	0000034b 	andeq	r0, r0, fp, asr #6
    12b0:	00510001 	subseq	r0, r1, r1
    12b4:	00000000 	andeq	r0, r0, r0
    12b8:	58000000 	stmdapl	r0, {}	; <UNPREDICTABLE>
    12bc:	7c000003 	stcvc	0, cr0, [r0], {3}
    12c0:	01000003 	tsteq	r0, r3
    12c4:	037c5000 	cmneq	ip, #0
    12c8:	03900000 	orrseq	r0, r0, #0
    12cc:	00040000 	andeq	r0, r4, r0
    12d0:	9f5001f3 	svcls	0x005001f3
	...
    12dc:	00000364 	andeq	r0, r0, r4, ror #6
    12e0:	0000036c 	andeq	r0, r0, ip, ror #6
    12e4:	9f300002 	svcls	0x00300002
    12e8:	0000036c 	andeq	r0, r0, ip, ror #6
    12ec:	0000036c 	andeq	r0, r0, ip, ror #6
    12f0:	6c520001 	mrrcvs	0, 0, r0, r2, cr1
    12f4:	74000003 	strvc	r0, [r0], #-3
    12f8:	02000003 	andeq	r0, r0, #3
    12fc:	749f3000 	ldrvc	r3, [pc], #0	; 1304 <_start-0x6cfc>
    1300:	87000003 	strhi	r0, [r0, -r3]
    1304:	01000003 	tsteq	r0, r3
    1308:	00005200 	andeq	r5, r0, r0, lsl #4
    130c:	00000000 	andeq	r0, r0, r0
    1310:	03640000 	cmneq	r4, #0
    1314:	03780000 	cmneq	r8, #0
    1318:	00020000 	andeq	r0, r2, r0
    131c:	03789f30 	cmneq	r8, #48, 30	; 0xc0
    1320:	03840000 	orreq	r0, r4, #0
    1324:	00050000 	andeq	r0, r5, r0
    1328:	24007331 	strcs	r7, [r0], #-817	; 0x331
    132c:	0003849f 	muleq	r3, pc, r4	; <UNPREDICTABLE>
    1330:	00038700 	andeq	r8, r3, r0, lsl #14
    1334:	51000100 	mrspl	r0, (UNDEF: 16)
    1338:	00000387 	andeq	r0, r0, r7, lsl #7
    133c:	00000390 	muleq	r0, r0, r3
    1340:	f3310008 	vhadd.u<illegal width 64>	d0, d1, d8
    1344:	1a4f5001 	bne	13d5350 <__bss_end__+0x13cb590>
    1348:	00009f24 	andeq	r9, r0, r4, lsr #30
    134c:	00000000 	andeq	r0, r0, r0
    1350:	03900000 	orrseq	r0, r0, #0
    1354:	039c0000 	orrseq	r0, ip, #0
    1358:	00010000 	andeq	r0, r1, r0
    135c:	00039c50 	andeq	r9, r3, r0, asr ip
    1360:	0003bc00 	andeq	fp, r3, r0, lsl #24
    1364:	f3000400 	vshl.u8	d0, d0, d0
    1368:	009f5001 	addseq	r5, pc, r1
    136c:	00000000 	andeq	r0, r0, r0
    1370:	bc000000 	stclt	0, cr0, [r0], {-0}
    1374:	cf000003 	svcgt	0x00000003
    1378:	01000003 	tsteq	r0, r3
    137c:	03cf5000 	biceq	r5, pc, #0
    1380:	04080000 	streq	r0, [r8], #-0
    1384:	00010000 	andeq	r0, r1, r0
    1388:	00040854 	andeq	r0, r4, r4, asr r8
    138c:	00044000 	andeq	r4, r4, r0
    1390:	f3000400 	vshl.u8	d0, d0, d0
    1394:	009f5001 	addseq	r5, pc, r1
    1398:	00000000 	andeq	r0, r0, r0
    139c:	28000000 	stmdacs	r0, {}	; <UNPREDICTABLE>
    13a0:	2c000004 	stccs	0, cr0, [r0], {4}
    13a4:	01000004 	tsteq	r0, r4
    13a8:	042c5000 	strteq	r5, [ip], #-0
    13ac:	04330000 	ldrteq	r0, [r3], #-0
    13b0:	00010000 	andeq	r0, r1, r0
    13b4:	00000051 	andeq	r0, r0, r1, asr r0
    13b8:	00000000 	andeq	r0, r0, r0
    13bc:	0003e400 	andeq	lr, r3, r0, lsl #8
    13c0:	0003ec00 	andeq	lr, r3, r0, lsl #24
    13c4:	50000100 	andpl	r0, r0, r0, lsl #2
    13c8:	000003ec 	andeq	r0, r0, ip, ror #7
    13cc:	000003f3 	strdeq	r0, [r0], -r3
    13d0:	00510001 	subseq	r0, r1, r1
    13d4:	00000000 	andeq	r0, r0, r0
    13d8:	04000000 	streq	r0, [r0], #-0
    13dc:	10000004 	andne	r0, r0, r4
    13e0:	01000004 	tsteq	r0, r4
    13e4:	04105000 	ldreq	r5, [r0], #-0
    13e8:	04170000 	ldreq	r0, [r7], #-0
    13ec:	00010000 	andeq	r0, r1, r0
    13f0:	00000051 	andeq	r0, r0, r1, asr r0
    13f4:	00000000 	andeq	r0, r0, r0
    13f8:	00044000 	andeq	r4, r4, r0
    13fc:	00045300 	andeq	r5, r4, r0, lsl #6
    1400:	50000100 	andpl	r0, r0, r0, lsl #2
    1404:	00000453 	andeq	r0, r0, r3, asr r4
    1408:	0000048c 	andeq	r0, r0, ip, lsl #9
    140c:	8c540001 	mrrchi	0, 0, r0, r4, cr1
    1410:	c4000004 	strgt	r0, [r0], #-4
    1414:	04000004 	streq	r0, [r0], #-4
    1418:	5001f300 	andpl	pc, r1, r0, lsl #6
    141c:	0000009f 	muleq	r0, pc, r0	; <UNPREDICTABLE>
    1420:	00000000 	andeq	r0, r0, r0
    1424:	0004ac00 	andeq	sl, r4, r0, lsl #24
    1428:	0004b000 	andeq	fp, r4, r0
    142c:	50000100 	andpl	r0, r0, r0, lsl #2
    1430:	000004b0 			; <UNDEFINED> instruction: 0x000004b0
    1434:	000004b7 			; <UNDEFINED> instruction: 0x000004b7
    1438:	00510001 	subseq	r0, r1, r1
    143c:	00000000 	andeq	r0, r0, r0
    1440:	68000000 	stmdavs	r0, {}	; <UNPREDICTABLE>
    1444:	70000004 	andvc	r0, r0, r4
    1448:	01000004 	tsteq	r0, r4
    144c:	04705000 	ldrbteq	r5, [r0], #-0
    1450:	04770000 	ldrbteq	r0, [r7], #-0
    1454:	00010000 	andeq	r0, r1, r0
    1458:	00000051 	andeq	r0, r0, r1, asr r0
    145c:	00000000 	andeq	r0, r0, r0
    1460:	00048800 	andeq	r8, r4, r0, lsl #16
    1464:	00049400 	andeq	r9, r4, r0, lsl #8
    1468:	50000100 	andpl	r0, r0, r0, lsl #2
    146c:	00000494 	muleq	r0, r4, r4
    1470:	0000049b 	muleq	r0, fp, r4
    1474:	00510001 	subseq	r0, r1, r1
    1478:	00000000 	andeq	r0, r0, r0
    147c:	c4000000 	strgt	r0, [r0], #-0
    1480:	d7000004 	strle	r0, [r0, -r4]
    1484:	01000004 	tsteq	r0, r4
    1488:	04d75000 	ldrbeq	r5, [r7], #0
    148c:	05180000 	ldreq	r0, [r8, #-0]
    1490:	00010000 	andeq	r0, r1, r0
    1494:	00051854 	andeq	r1, r5, r4, asr r8
    1498:	00053c00 	andeq	r3, r5, r0, lsl #24
    149c:	f3000400 	vshl.u8	d0, d0, d0
    14a0:	3c9f5001 	ldccc	0, cr5, [pc], {1}
    14a4:	40000005 	andmi	r0, r0, r5
    14a8:	01000005 	tsteq	r0, r5
    14ac:	05405000 	strbeq	r5, [r0, #-0]
    14b0:	05480000 	strbeq	r0, [r8, #-0]
    14b4:	00010000 	andeq	r0, r1, r0
    14b8:	00000054 	andeq	r0, r0, r4, asr r0
    14bc:	00000000 	andeq	r0, r0, r0
    14c0:	0004ec00 	andeq	lr, r4, r0, lsl #24
    14c4:	0004fb00 	andeq	pc, r4, r0, lsl #22
    14c8:	31000800 	tstcc	r0, r0, lsl #16
    14cc:	70240074 	eorvc	r0, r4, r4, ror r0
    14d0:	009f1a00 	addseq	r1, pc, r0, lsl #20
    14d4:	00000000 	andeq	r0, r0, r0
    14d8:	18000000 	stmdane	r0, {}	; <UNPREDICTABLE>
    14dc:	30000005 	andcc	r0, r0, r5
    14e0:	01000005 	tsteq	r0, r5
    14e4:	00005400 	andeq	r5, r0, r0, lsl #8
    14e8:	00000000 	andeq	r0, r0, r0
    14ec:	05480000 	strbeq	r0, [r8, #-0]
    14f0:	055b0000 	ldrbeq	r0, [fp, #-0]
    14f4:	00010000 	andeq	r0, r1, r0
    14f8:	00055b50 	andeq	r5, r5, r0, asr fp
    14fc:	00058000 	andeq	r8, r5, r0
    1500:	54000100 	strpl	r0, [r0], #-256	; 0x100
    1504:	00000580 	andeq	r0, r0, r0, lsl #11
    1508:	000005a0 	andeq	r0, r0, r0, lsr #11
    150c:	01f30004 	mvnseq	r0, r4
    1510:	00009f50 	andeq	r9, r0, r0, asr pc
	...
    151c:	00180000 	andseq	r0, r8, r0
    1520:	00010000 	andeq	r0, r1, r0
    1524:	00001850 	andeq	r1, r0, r0, asr r8
    1528:	00015400 	andeq	r5, r1, r0, lsl #8
    152c:	f3000400 	vshl.u8	d0, d0, d0
    1530:	009f5001 	addseq	r5, pc, r1
	...
    153c:	1c000000 	stcne	0, cr0, [r0], {-0}
    1540:	01000000 	mrseq	r0, (UNDEF: 0)
    1544:	001c5100 	andseq	r5, ip, r0, lsl #2
    1548:	01540000 	cmpeq	r4, r0
    154c:	00040000 	andeq	r0, r4, r0
    1550:	9f5101f3 	svcls	0x005101f3
	...
    155c:	00000010 	andeq	r0, r0, r0, lsl r0
    1560:	00000134 	andeq	r0, r0, r4, lsr r1
    1564:	00550001 	subseq	r0, r5, r1
    1568:	00000000 	andeq	r0, r0, r0
    156c:	10000000 	andne	r0, r0, r0
    1570:	34000000 	strcc	r0, [r0], #-0
    1574:	01000000 	mrseq	r0, (UNDEF: 0)
    1578:	00345500 	eorseq	r5, r4, r0, lsl #10
    157c:	01340000 	teqeq	r4, r0
    1580:	00010000 	andeq	r0, r1, r0
    1584:	00013458 	andeq	r3, r1, r8, asr r4
    1588:	00015400 	andeq	r5, r1, r0, lsl #8
    158c:	55000100 	strpl	r0, [r0, #-256]	; 0x100
	...
    1598:	00000014 	andeq	r0, r0, r4, lsl r0
    159c:	00000134 	andeq	r0, r0, r4, lsr r1
    15a0:	00550001 	subseq	r0, r5, r1
    15a4:	00000000 	andeq	r0, r0, r0
    15a8:	20000000 	andcs	r0, r0, r0
    15ac:	34000000 	strcc	r0, [r0], #-0
    15b0:	01000001 	tsteq	r0, r1
    15b4:	00005500 	andeq	r5, r0, r0, lsl #10
    15b8:	00000000 	andeq	r0, r0, r0
    15bc:	00240000 	eoreq	r0, r4, r0
    15c0:	00280000 	eoreq	r0, r8, r0
    15c4:	00010000 	andeq	r0, r1, r0
    15c8:	00000053 	andeq	r0, r0, r3, asr r0
    15cc:	00000000 	andeq	r0, r0, r0
    15d0:	00003400 	andeq	r3, r0, r0, lsl #8
    15d4:	00005400 	andeq	r5, r0, r0, lsl #8
    15d8:	58000100 	stmdapl	r0, {r8}
    15dc:	00000054 	andeq	r0, r0, r4, asr r0
    15e0:	00000134 	andeq	r0, r0, r4, lsr r1
    15e4:	00750005 	rsbseq	r0, r5, r5
    15e8:	009f2431 	addseq	r2, pc, r1, lsr r4	; <UNPREDICTABLE>
    15ec:	00000000 	andeq	r0, r0, r0
    15f0:	34000000 	strcc	r0, [r0], #-0
    15f4:	3c000000 	stccc	0, cr0, [r0], {-0}
    15f8:	05000000 	streq	r0, [r0, #-0]
    15fc:	31007700 	tstcc	r0, r0, lsl #14
    1600:	003c9f1a 	eorseq	r9, ip, sl, lsl pc
    1604:	003f0000 	eorseq	r0, pc, r0
    1608:	00010000 	andeq	r0, r1, r0
    160c:	00003f51 	andeq	r3, r0, r1, asr pc
    1610:	00015400 	andeq	r5, r1, r0, lsl #8
    1614:	77000500 	strvc	r0, [r0, -r0, lsl #10]
    1618:	9f1a3100 	svcls	0x001a3100
	...
    1624:	00000040 	andeq	r0, r0, r0, asr #32
    1628:	00000054 	andeq	r0, r0, r4, asr r0
    162c:	54580001 	ldrbpl	r0, [r8], #-1
    1630:	34000000 	strcc	r0, [r0], #-0
    1634:	05000001 	streq	r0, [r0, #-1]
    1638:	31007500 	tstcc	r0, r0, lsl #10
    163c:	00009f24 	andeq	r9, r0, r4, lsr #30
    1640:	00000000 	andeq	r0, r0, r0
    1644:	00440000 	subeq	r0, r4, r0
    1648:	00480000 	subeq	r0, r8, r0
    164c:	00010000 	andeq	r0, r1, r0
    1650:	00000053 	andeq	r0, r0, r3, asr r0
    1654:	00000000 	andeq	r0, r0, r0
    1658:	00005400 	andeq	r5, r0, r0, lsl #8
    165c:	00007400 	andeq	r7, r0, r0, lsl #8
    1660:	58000100 	stmdapl	r0, {r8}
    1664:	00000074 	andeq	r0, r0, r4, ror r0
    1668:	00000134 	andeq	r0, r0, r4, lsr r1
    166c:	00750008 	rsbseq	r0, r5, r8
    1670:	00752431 	rsbseq	r2, r5, r1, lsr r4
    1674:	00009f22 	andeq	r9, r0, r2, lsr #30
    1678:	00000000 	andeq	r0, r0, r0
    167c:	00600000 	rsbeq	r0, r0, r0
    1680:	00740000 	rsbseq	r0, r4, r0
    1684:	00010000 	andeq	r0, r1, r0
    1688:	00007458 	andeq	r7, r0, r8, asr r4
    168c:	00013400 	andeq	r3, r1, r0, lsl #8
    1690:	75000800 	strvc	r0, [r0, #-2048]	; 0x800
    1694:	75243100 	strvc	r3, [r4, #-256]!	; 0x100
    1698:	009f2200 	addseq	r2, pc, r0, lsl #4
    169c:	00000000 	andeq	r0, r0, r0
    16a0:	64000000 	strvs	r0, [r0], #-0
    16a4:	68000000 	stmdavs	r0, {}	; <UNPREDICTABLE>
    16a8:	01000000 	mrseq	r0, (UNDEF: 0)
    16ac:	00005300 	andeq	r5, r0, r0, lsl #6
    16b0:	00000000 	andeq	r0, r0, r0
    16b4:	00740000 	rsbseq	r0, r4, r0
    16b8:	00940000 	addseq	r0, r4, r0
    16bc:	00010000 	andeq	r0, r1, r0
    16c0:	00009458 	andeq	r9, r0, r8, asr r4
    16c4:	00013400 	andeq	r3, r1, r0, lsl #8
    16c8:	75000500 	strvc	r0, [r0, #-1280]	; 0x500
    16cc:	9f243200 	svcls	0x00243200
	...
    16d8:	00000080 	andeq	r0, r0, r0, lsl #1
    16dc:	00000094 	muleq	r0, r4, r0
    16e0:	94580001 	ldrbls	r0, [r8], #-1
    16e4:	34000000 	strcc	r0, [r0], #-0
    16e8:	05000001 	streq	r0, [r0, #-1]
    16ec:	32007500 	andcc	r7, r0, #0, 10
    16f0:	00009f24 	andeq	r9, r0, r4, lsr #30
    16f4:	00000000 	andeq	r0, r0, r0
    16f8:	00840000 	addeq	r0, r4, r0
    16fc:	00880000 	addeq	r0, r8, r0
    1700:	00010000 	andeq	r0, r1, r0
    1704:	00000053 	andeq	r0, r0, r3, asr r0
    1708:	00000000 	andeq	r0, r0, r0
    170c:	00009400 	andeq	r9, r0, r0, lsl #8
    1710:	0000b400 	andeq	fp, r0, r0, lsl #8
    1714:	58000100 	stmdapl	r0, {r8}
    1718:	000000b4 	strheq	r0, [r0], -r4
    171c:	00000134 	andeq	r0, r0, r4, lsr r1
    1720:	00750008 	rsbseq	r0, r5, r8
    1724:	00752432 	rsbseq	r2, r5, r2, lsr r4
    1728:	00009f22 	andeq	r9, r0, r2, lsr #30
    172c:	00000000 	andeq	r0, r0, r0
    1730:	00a00000 	adceq	r0, r0, r0
    1734:	00b40000 	adcseq	r0, r4, r0
    1738:	00010000 	andeq	r0, r1, r0
    173c:	0000b458 	andeq	fp, r0, r8, asr r4
    1740:	00013400 	andeq	r3, r1, r0, lsl #8
    1744:	75000800 	strvc	r0, [r0, #-2048]	; 0x800
    1748:	75243200 	strvc	r3, [r4, #-512]!	; 0x200
    174c:	009f2200 	addseq	r2, pc, r0, lsl #4
    1750:	00000000 	andeq	r0, r0, r0
    1754:	a4000000 	strge	r0, [r0], #-0
    1758:	a8000000 	stmdage	r0, {}	; <UNPREDICTABLE>
    175c:	01000000 	mrseq	r0, (UNDEF: 0)
    1760:	00005300 	andeq	r5, r0, r0, lsl #6
    1764:	00000000 	andeq	r0, r0, r0
    1768:	00b40000 	adcseq	r0, r4, r0
    176c:	00d40000 	sbcseq	r0, r4, r0
    1770:	00010000 	andeq	r0, r1, r0
    1774:	0000d458 	andeq	sp, r0, r8, asr r4
    1778:	00013400 	andeq	r3, r1, r0, lsl #8
    177c:	75000a00 	strvc	r0, [r0, #-2560]	; 0xa00
    1780:	75243200 	strvc	r3, [r4, #-512]!	; 0x200
    1784:	22243100 	eorcs	r3, r4, #0, 2
    1788:	0000009f 	muleq	r0, pc, r0	; <UNPREDICTABLE>
    178c:	00000000 	andeq	r0, r0, r0
    1790:	0000c000 	andeq	ip, r0, r0
    1794:	0000d400 	andeq	sp, r0, r0, lsl #8
    1798:	58000100 	stmdapl	r0, {r8}
    179c:	000000d4 	ldrdeq	r0, [r0], -r4
    17a0:	00000134 	andeq	r0, r0, r4, lsr r1
    17a4:	0075000a 	rsbseq	r0, r5, sl
    17a8:	00752432 	rsbseq	r2, r5, r2, lsr r4
    17ac:	9f222431 	svcls	0x00222431
	...
    17b8:	000000c4 	andeq	r0, r0, r4, asr #1
    17bc:	000000c8 	andeq	r0, r0, r8, asr #1
    17c0:	00530001 	subseq	r0, r3, r1
    17c4:	00000000 	andeq	r0, r0, r0
    17c8:	d4000000 	strle	r0, [r0], #-0
    17cc:	f4000000 	vst4.8	{d0-d3}, [r0], r0
    17d0:	01000000 	mrseq	r0, (UNDEF: 0)
    17d4:	00f45800 	rscseq	r5, r4, r0, lsl #16
    17d8:	01340000 	teqeq	r4, r0
    17dc:	000d0000 	andeq	r0, sp, r0
    17e0:	24320075 	ldrtcs	r0, [r2], #-117	; 0x75
    17e4:	24310075 	ldrtcs	r0, [r1], #-117	; 0x75
    17e8:	22007522 	andcs	r7, r0, #142606336	; 0x8800000
    17ec:	0000009f 	muleq	r0, pc, r0	; <UNPREDICTABLE>
    17f0:	00000000 	andeq	r0, r0, r0
    17f4:	0000e000 	andeq	lr, r0, r0
    17f8:	0000f400 	andeq	pc, r0, r0, lsl #8
    17fc:	58000100 	stmdapl	r0, {r8}
    1800:	000000f4 	strdeq	r0, [r0], -r4
    1804:	00000134 	andeq	r0, r0, r4, lsr r1
    1808:	0075000d 	rsbseq	r0, r5, sp
    180c:	00752432 	rsbseq	r2, r5, r2, lsr r4
    1810:	75222431 	strvc	r2, [r2, #-1073]!	; 0x431
    1814:	009f2200 	addseq	r2, pc, r0, lsl #4
    1818:	00000000 	andeq	r0, r0, r0
    181c:	e4000000 	str	r0, [r0], #-0
    1820:	e8000000 	stmda	r0, {}	; <UNPREDICTABLE>
    1824:	01000000 	mrseq	r0, (UNDEF: 0)
    1828:	00005300 	andeq	r5, r0, r0, lsl #6
    182c:	00000000 	andeq	r0, r0, r0
    1830:	00f40000 	rscseq	r0, r4, r0
    1834:	01140000 	tsteq	r4, r0
    1838:	00010000 	andeq	r0, r1, r0
    183c:	00011458 	andeq	r1, r1, r8, asr r4
    1840:	00013400 	andeq	r3, r1, r0, lsl #8
    1844:	75000500 	strvc	r0, [r0, #-1280]	; 0x500
    1848:	9f243300 	svcls	0x00243300
	...
    1854:	00000100 	andeq	r0, r0, r0, lsl #2
    1858:	00000114 	andeq	r0, r0, r4, lsl r1
    185c:	14580001 	ldrbne	r0, [r8], #-1
    1860:	34000001 	strcc	r0, [r0], #-1
    1864:	05000001 	streq	r0, [r0, #-1]
    1868:	33007500 	movwcc	r7, #1280	; 0x500
    186c:	00009f24 	andeq	r9, r0, r4, lsr #30
    1870:	00000000 	andeq	r0, r0, r0
    1874:	01040000 	mrseq	r0, (UNDEF: 4)
    1878:	01080000 	mrseq	r0, (UNDEF: 8)
    187c:	00010000 	andeq	r0, r1, r0
    1880:	00000053 	andeq	r0, r0, r3, asr r0
    1884:	00000000 	andeq	r0, r0, r0
    1888:	00011400 	andeq	r1, r1, r0, lsl #8
    188c:	00011c00 	andeq	r1, r1, r0, lsl #24
    1890:	77000600 	strvc	r0, [r0, -r0, lsl #12]
    1894:	1a800800 	bne	fe00389c <__bss_end__+0xfdff9adc>
    1898:	00011c9f 	muleq	r1, pc, ip	; <UNPREDICTABLE>
    189c:	00011f00 	andeq	r1, r1, r0, lsl #30
    18a0:	51000100 	mrspl	r0, (UNDEF: 16)
    18a4:	0000011f 	andeq	r0, r0, pc, lsl r1
    18a8:	00000154 	andeq	r0, r0, r4, asr r1
    18ac:	00770006 	rsbseq	r0, r7, r6
    18b0:	9f1a8008 	svcls	0x001a8008
	...
    18bc:	00000124 	andeq	r0, r0, r4, lsr #2
    18c0:	00000128 	andeq	r0, r0, r8, lsr #2
    18c4:	00530001 	subseq	r0, r3, r1
    18c8:	00000000 	andeq	r0, r0, r0
    18cc:	44000000 	strmi	r0, [r0], #-0
    18d0:	48000001 	stmdami	r0, {r0}
    18d4:	01000001 	tsteq	r0, r1
    18d8:	00005300 	andeq	r5, r0, r0, lsl #6
    18dc:	00000000 	andeq	r0, r0, r0
    18e0:	01540000 	cmpeq	r4, r0
    18e4:	016b0000 	cmneq	fp, r0
    18e8:	00010000 	andeq	r0, r1, r0
    18ec:	00016b50 	andeq	r6, r1, r0, asr fp
    18f0:	0001d000 	andeq	sp, r1, r0
    18f4:	59000100 	stmdbpl	r0, {r8}
    18f8:	000001d0 	ldrdeq	r0, [r0], -r0	; <UNPREDICTABLE>
    18fc:	0000030c 	andeq	r0, r0, ip, lsl #6
    1900:	01f30004 	mvnseq	r0, r4
    1904:	030c9f50 	movweq	r9, #53072	; 0xcf50
    1908:	03140000 	tsteq	r4, #0
    190c:	00010000 	andeq	r0, r1, r0
    1910:	00031459 	andeq	r1, r3, r9, asr r4
    1914:	00031c00 	andeq	r1, r3, r0, lsl #24
    1918:	f3000400 	vshl.u8	d0, d0, d0
    191c:	009f5001 	addseq	r5, pc, r1
    1920:	00000000 	andeq	r0, r0, r0
    1924:	54000000 	strpl	r0, [r0], #-0
    1928:	6b000001 	blvs	1934 <_start-0x66cc>
    192c:	01000001 	tsteq	r0, r1
    1930:	016b5100 	cmneq	fp, r0, lsl #2
    1934:	031c0000 	tsteq	ip, #0
    1938:	00010000 	andeq	r0, r1, r0
    193c:	00000056 	andeq	r0, r0, r6, asr r0
    1940:	00000000 	andeq	r0, r0, r0
    1944:	0001a800 	andeq	sl, r1, r0, lsl #16
    1948:	00029800 	andeq	r9, r2, r0, lsl #16
    194c:	58000100 	stmdapl	r0, {r8}
	...
    1958:	000001ac 	andeq	r0, r0, ip, lsr #3
    195c:	000002d0 	ldrdeq	r0, [r0], -r0	; <UNPREDICTABLE>
    1960:	00540001 	subseq	r0, r4, r1
    1964:	00000000 	andeq	r0, r0, r0
    1968:	ac000000 	stcge	0, cr0, [r0], {-0}
    196c:	d0000001 	andle	r0, r0, r1
    1970:	05000002 	streq	r0, [r0, #-2]
    1974:	31007400 	tstcc	r0, r0, lsl #8
    1978:	00009f25 	andeq	r9, r0, r5, lsr #30
    197c:	00000000 	andeq	r0, r0, r0
    1980:	01ac0000 			; <UNDEFINED> instruction: 0x01ac0000
    1984:	01d00000 	bicseq	r0, r0, r0
    1988:	00020000 	andeq	r0, r2, r0
    198c:	01d09f30 	bicseq	r9, r0, r0, lsr pc
    1990:	030c0000 	movweq	r0, #49152	; 0xc000
    1994:	00010000 	andeq	r0, r1, r0
    1998:	00031459 	andeq	r1, r3, r9, asr r4
    199c:	00031c00 	andeq	r1, r3, r0, lsl #24
    19a0:	59000100 	stmdbpl	r0, {r8}
	...
    19ac:	00000168 	andeq	r0, r0, r8, ror #2
    19b0:	0000016b 	andeq	r0, r0, fp, ror #2
    19b4:	6b510001 	blvs	14419c0 <__bss_end__+0x1437c00>
    19b8:	1c000001 	stcne	0, cr0, [r0], {1}
    19bc:	01000003 	tsteq	r0, r3
    19c0:	00005600 	andeq	r5, r0, r0, lsl #12
    19c4:	00000000 	andeq	r0, r0, r0
    19c8:	01700000 	cmneq	r0, r0
    19cc:	01ac0000 			; <UNDEFINED> instruction: 0x01ac0000
    19d0:	00010000 	andeq	r0, r1, r0
    19d4:	00030c54 	andeq	r0, r3, r4, asr ip
    19d8:	00031400 	andeq	r1, r3, r0, lsl #8
    19dc:	54000100 	strpl	r0, [r0], #-256	; 0x100
	...
    19e8:	000001a8 	andeq	r0, r0, r8, lsr #3
    19ec:	000001c4 	andeq	r0, r0, r4, asr #3
    19f0:	00580001 	subseq	r0, r8, r1
    19f4:	00000000 	andeq	r0, r0, r0
    19f8:	b0000000 	andlt	r0, r0, r0
    19fc:	cb000001 	blgt	1a08 <_start-0x65f8>
    1a00:	01000001 	tsteq	r0, r1
    1a04:	01cb5200 	biceq	r5, fp, r0, lsl #4
    1a08:	02d00000 	sbcseq	r0, r0, #0
    1a0c:	00080000 	andeq	r0, r8, r0
    1a10:	25310074 	ldrcs	r0, [r1, #-116]!	; 0x74
    1a14:	9f220074 	svcls	0x00220074
	...
    1a20:	000001b0 			; <UNDEFINED> instruction: 0x000001b0
    1a24:	000001c4 	andeq	r0, r0, r4, asr #3
    1a28:	00580001 	subseq	r0, r8, r1
    1a2c:	00000000 	andeq	r0, r0, r0
    1a30:	b4000000 	strlt	r0, [r0], #-0
    1a34:	b8000001 	stmdalt	r0, {r0}
    1a38:	01000001 	tsteq	r0, r1
    1a3c:	00005300 	andeq	r5, r0, r0, lsl #6
    1a40:	00000000 	andeq	r0, r0, r0
    1a44:	01d00000 	bicseq	r0, r0, r0
    1a48:	02d00000 	sbcseq	r0, r0, #0
    1a4c:	00010000 	andeq	r0, r1, r0
    1a50:	00000054 	andeq	r0, r0, r4, asr r0
    1a54:	00000000 	andeq	r0, r0, r0
    1a58:	0001d000 	andeq	sp, r1, r0
    1a5c:	0001e400 	andeq	lr, r1, r0, lsl #8
    1a60:	58000100 	stmdapl	r0, {r8}
	...
    1a6c:	000001d4 	ldrdeq	r0, [r0], -r4
    1a70:	000001d8 	ldrdeq	r0, [r0], -r8
    1a74:	00530001 	subseq	r0, r3, r1
    1a78:	00000000 	andeq	r0, r0, r0
    1a7c:	f4000000 	vst4.8	{d0-d3}, [r0], r0
    1a80:	d0000001 	andle	r0, r0, r1
    1a84:	01000002 	tsteq	r0, r2
    1a88:	00005400 	andeq	r5, r0, r0, lsl #8
    1a8c:	00000000 	andeq	r0, r0, r0
    1a90:	01f40000 	mvnseq	r0, r0
    1a94:	02080000 	andeq	r0, r8, #0
    1a98:	00010000 	andeq	r0, r1, r0
    1a9c:	00000058 	andeq	r0, r0, r8, asr r0
    1aa0:	00000000 	andeq	r0, r0, r0
    1aa4:	0001f800 	andeq	pc, r1, r0, lsl #16
    1aa8:	0001fc00 	andeq	pc, r1, r0, lsl #24
    1aac:	53000100 	movwpl	r0, #256	; 0x100
	...
    1ab8:	00000218 	andeq	r0, r0, r8, lsl r2
    1abc:	000002d0 	ldrdeq	r0, [r0], -r0	; <UNPREDICTABLE>
    1ac0:	00540001 	subseq	r0, r4, r1
    1ac4:	00000000 	andeq	r0, r0, r0
    1ac8:	18000000 	stmdane	r0, {}	; <UNPREDICTABLE>
    1acc:	2c000002 	stccs	0, cr0, [r0], {2}
    1ad0:	01000002 	tsteq	r0, r2
    1ad4:	00005800 	andeq	r5, r0, r0, lsl #16
    1ad8:	00000000 	andeq	r0, r0, r0
    1adc:	021c0000 	andseq	r0, ip, #0
    1ae0:	02200000 	eoreq	r0, r0, #0
    1ae4:	00010000 	andeq	r0, r1, r0
    1ae8:	00000053 	andeq	r0, r0, r3, asr r0
    1aec:	00000000 	andeq	r0, r0, r0
    1af0:	00023c00 	andeq	r3, r2, r0, lsl #24
    1af4:	0002d000 	andeq	sp, r2, r0
    1af8:	54000100 	strpl	r0, [r0], #-256	; 0x100
	...
    1b04:	0000023c 	andeq	r0, r0, ip, lsr r2
    1b08:	00000250 	andeq	r0, r0, r0, asr r2
    1b0c:	00580001 	subseq	r0, r8, r1
    1b10:	00000000 	andeq	r0, r0, r0
    1b14:	40000000 	andmi	r0, r0, r0
    1b18:	44000002 	strmi	r0, [r0], #-2
    1b1c:	01000002 	tsteq	r0, r2
    1b20:	00005300 	andeq	r5, r0, r0, lsl #6
    1b24:	00000000 	andeq	r0, r0, r0
    1b28:	02600000 	rsbeq	r0, r0, #0
    1b2c:	02d00000 	sbcseq	r0, r0, #0
    1b30:	00010000 	andeq	r0, r1, r0
    1b34:	00000054 	andeq	r0, r0, r4, asr r0
    1b38:	00000000 	andeq	r0, r0, r0
    1b3c:	00026000 	andeq	r6, r2, r0
    1b40:	00027400 	andeq	r7, r2, r0, lsl #8
    1b44:	58000100 	stmdapl	r0, {r8}
	...
    1b50:	00000264 	andeq	r0, r0, r4, ror #4
    1b54:	00000268 	andeq	r0, r0, r8, ror #4
    1b58:	00530001 	subseq	r0, r3, r1
    1b5c:	00000000 	andeq	r0, r0, r0
    1b60:	84000000 	strhi	r0, [r0], #-0
    1b64:	d0000002 	andle	r0, r0, r2
    1b68:	01000002 	tsteq	r0, r2
    1b6c:	00005400 	andeq	r5, r0, r0, lsl #8
    1b70:	00000000 	andeq	r0, r0, r0
    1b74:	02840000 	addeq	r0, r4, #0
    1b78:	02980000 	addseq	r0, r8, #0
    1b7c:	00010000 	andeq	r0, r1, r0
    1b80:	00000058 	andeq	r0, r0, r8, asr r0
    1b84:	00000000 	andeq	r0, r0, r0
    1b88:	00028800 	andeq	r8, r2, r0, lsl #16
    1b8c:	00028c00 	andeq	r8, r2, r0, lsl #24
    1b90:	53000100 	movwpl	r0, #256	; 0x100
	...
    1b9c:	000002a8 	andeq	r0, r0, r8, lsr #5
    1ba0:	000002d0 	ldrdeq	r0, [r0], -r0	; <UNPREDICTABLE>
    1ba4:	00540001 	subseq	r0, r4, r1
    1ba8:	00000000 	andeq	r0, r0, r0
    1bac:	ac000000 	stcge	0, cr0, [r0], {-0}
    1bb0:	b0000002 	andlt	r0, r0, r2
    1bb4:	01000002 	tsteq	r0, r2
    1bb8:	00005300 	andeq	r5, r0, r0, lsl #6
    1bbc:	00000000 	andeq	r0, r0, r0
    1bc0:	02c80000 	sbceq	r0, r8, #0
    1bc4:	030c0000 	movweq	r0, #49152	; 0xc000
    1bc8:	00020000 	andeq	r0, r2, r0
    1bcc:	03149f30 	tsteq	r4, #48, 30	; 0xc0
    1bd0:	031c0000 	tsteq	ip, #0
    1bd4:	00020000 	andeq	r0, r2, r0
    1bd8:	00009f30 	andeq	r9, r0, r0, lsr pc
    1bdc:	00000000 	andeq	r0, r0, r0
    1be0:	02c80000 	sbceq	r0, r8, #0
    1be4:	030c0000 	movweq	r0, #49152	; 0xc000
    1be8:	00010000 	andeq	r0, r1, r0
    1bec:	00031455 	andeq	r1, r3, r5, asr r4
    1bf0:	00031c00 	andeq	r1, r3, r0, lsl #24
    1bf4:	55000100 	strpl	r0, [r0, #-256]	; 0x100
	...
    1c00:	000002d0 	ldrdeq	r0, [r0], -r0	; <UNPREDICTABLE>
    1c04:	0000030c 	andeq	r0, r0, ip, lsl #6
    1c08:	14540001 	ldrbne	r0, [r4], #-1
    1c0c:	1c000003 	stcne	0, cr0, [r0], {3}
    1c10:	01000003 	tsteq	r0, r3
    1c14:	00005400 	andeq	r5, r0, r0, lsl #8
    1c18:	00000000 	andeq	r0, r0, r0
    1c1c:	031c0000 	tsteq	ip, #0
    1c20:	033f0000 	teqeq	pc, #0
    1c24:	00010000 	andeq	r0, r1, r0
    1c28:	00033f50 	andeq	r3, r3, r0, asr pc
    1c2c:	00036000 	andeq	r6, r3, r0
    1c30:	58000100 	stmdapl	r0, {r8}
    1c34:	00000360 	andeq	r0, r0, r0, ror #6
    1c38:	00000370 	andeq	r0, r0, r0, ror r3
    1c3c:	70500001 	subsvc	r0, r0, r1
    1c40:	b0000003 	andlt	r0, r0, r3
    1c44:	01000003 	tsteq	r0, r3
    1c48:	03b05800 	movseq	r5, #0, 16
    1c4c:	03c00000 	biceq	r0, r0, #0
    1c50:	00040000 	andeq	r0, r4, r0
    1c54:	9f5001f3 	svcls	0x005001f3
	...
    1c60:	0000031c 	andeq	r0, r0, ip, lsl r3
    1c64:	0000033f 	andeq	r0, r0, pc, lsr r3
    1c68:	3f510001 	svccc	0x00510001
    1c6c:	60000003 	andvs	r0, r0, r3
    1c70:	01000003 	tsteq	r0, r3
    1c74:	03605600 	cmneq	r0, #0, 12
    1c78:	03700000 	cmneq	r0, #0
    1c7c:	00010000 	andeq	r0, r1, r0
    1c80:	00037051 	andeq	r7, r3, r1, asr r0
    1c84:	0003b000 	andeq	fp, r3, r0
    1c88:	56000100 	strpl	r0, [r0], -r0, lsl #2
    1c8c:	000003b0 			; <UNDEFINED> instruction: 0x000003b0
    1c90:	000003c0 	andeq	r0, r0, r0, asr #7
    1c94:	01f30004 	mvnseq	r0, r4
    1c98:	00009f51 	andeq	r9, r0, r1, asr pc
    1c9c:	00000000 	andeq	r0, r0, r0
    1ca0:	031c0000 	tsteq	ip, #0
    1ca4:	033f0000 	teqeq	pc, #0
    1ca8:	00010000 	andeq	r0, r1, r0
    1cac:	00033f52 	andeq	r3, r3, r2, asr pc
    1cb0:	00036000 	andeq	r6, r3, r0
    1cb4:	f3000400 	vshl.u8	d0, d0, d0
    1cb8:	609f5201 	addsvs	r5, pc, r1, lsl #4
    1cbc:	70000003 	andvc	r0, r0, r3
    1cc0:	01000003 	tsteq	r0, r3
    1cc4:	03705200 	cmneq	r0, #0, 4
    1cc8:	03b00000 	movseq	r0, #0
    1ccc:	00030000 	andeq	r0, r3, r0
    1cd0:	b09f0177 	addslt	r0, pc, r7, ror r1	; <UNPREDICTABLE>
    1cd4:	c0000003 	andgt	r0, r0, r3
    1cd8:	04000003 	streq	r0, [r0], #-3
    1cdc:	5201f300 	andpl	pc, r1, #0, 6
    1ce0:	0000009f 	muleq	r0, pc, r0	; <UNPREDICTABLE>
    1ce4:	00000000 	andeq	r0, r0, r0
    1ce8:	00031c00 	andeq	r1, r3, r0, lsl #24
    1cec:	00033f00 	andeq	r3, r3, r0, lsl #30
    1cf0:	53000100 	movwpl	r0, #256	; 0x100
    1cf4:	0000033f 	andeq	r0, r0, pc, lsr r3
    1cf8:	00000360 	andeq	r0, r0, r0, ror #6
    1cfc:	01f30004 	mvnseq	r0, r4
    1d00:	03609f53 	cmneq	r0, #332	; 0x14c
    1d04:	03700000 	cmneq	r0, #0
    1d08:	00010000 	andeq	r0, r1, r0
    1d0c:	00037053 	andeq	r7, r3, r3, asr r0
    1d10:	0003c000 	andeq	ip, r3, r0
    1d14:	f3000400 	vshl.u8	d0, d0, d0
    1d18:	009f5301 	addseq	r5, pc, r1, lsl #6
    1d1c:	00000000 	andeq	r0, r0, r0
    1d20:	68000000 	stmdavs	r0, {}	; <UNPREDICTABLE>
    1d24:	70000003 	andvc	r0, r0, r3
    1d28:	02000003 	andeq	r0, r0, #3
    1d2c:	709f3000 	addsvc	r3, pc, r0
    1d30:	b0000003 	andlt	r0, r0, r3
    1d34:	01000003 	tsteq	r0, r3
    1d38:	03b05400 	movseq	r5, #0, 8
    1d3c:	03c00000 	biceq	r0, r0, #0
    1d40:	00010000 	andeq	r0, r1, r0
    1d44:	00000050 	andeq	r0, r0, r0, asr r0
    1d48:	00000000 	andeq	r0, r0, r0
    1d4c:	00038000 	andeq	r8, r3, r0
    1d50:	00039000 	andeq	r9, r3, r0
    1d54:	50000100 	andpl	r0, r0, r0, lsl #2
	...
    1d60:	000003c0 	andeq	r0, r0, r0, asr #7
    1d64:	000003df 	ldrdeq	r0, [r0], -pc	; <UNPREDICTABLE>
    1d68:	df500001 	svcle	0x00500001
    1d6c:	00000003 	andeq	r0, r0, r3
    1d70:	01000004 	tsteq	r0, r4
    1d74:	04005700 	streq	r5, [r0], #-1792	; 0x700
    1d78:	04100000 	ldreq	r0, [r0], #-0
    1d7c:	00010000 	andeq	r0, r1, r0
    1d80:	00041050 	andeq	r1, r4, r0, asr r0
    1d84:	00044000 	andeq	r4, r4, r0
    1d88:	57000100 	strpl	r0, [r0, -r0, lsl #2]
    1d8c:	00000440 	andeq	r0, r0, r0, asr #8
    1d90:	00000450 	andeq	r0, r0, r0, asr r4
    1d94:	01f30004 	mvnseq	r0, r4
    1d98:	00009f50 	andeq	r9, r0, r0, asr pc
    1d9c:	00000000 	andeq	r0, r0, r0
    1da0:	03c00000 	biceq	r0, r0, #0
    1da4:	03df0000 	bicseq	r0, pc, #0
    1da8:	00010000 	andeq	r0, r1, r0
    1dac:	0003df51 	andeq	sp, r3, r1, asr pc
    1db0:	00040000 	andeq	r0, r4, r0
    1db4:	55000100 	strpl	r0, [r0, #-256]	; 0x100
    1db8:	00000400 	andeq	r0, r0, r0, lsl #8
    1dbc:	00000410 	andeq	r0, r0, r0, lsl r4
    1dc0:	10510001 	subsne	r0, r1, r1
    1dc4:	40000004 	andmi	r0, r0, r4
    1dc8:	01000004 	tsteq	r0, r4
    1dcc:	04405500 	strbeq	r5, [r0], #-1280	; 0x500
    1dd0:	04500000 	ldrbeq	r0, [r0], #-0
    1dd4:	00040000 	andeq	r0, r4, r0
    1dd8:	9f5101f3 	svcls	0x005101f3
	...
    1de4:	000003c0 	andeq	r0, r0, r0, asr #7
    1de8:	000003df 	ldrdeq	r0, [r0], -pc	; <UNPREDICTABLE>
    1dec:	df520001 	svcle	0x00520001
    1df0:	00000003 	andeq	r0, r0, r3
    1df4:	04000004 	streq	r0, [r0], #-4
    1df8:	5201f300 	andpl	pc, r1, #0, 6
    1dfc:	0004009f 	muleq	r4, pc, r0	; <UNPREDICTABLE>
    1e00:	00041000 	andeq	r1, r4, r0
    1e04:	52000100 	andpl	r0, r0, #0, 2
    1e08:	00000410 	andeq	r0, r0, r0, lsl r4
    1e0c:	00000440 	andeq	r0, r0, r0, asr #8
    1e10:	01760003 	cmneq	r6, r3
    1e14:	0004409f 	muleq	r4, pc, r0	; <UNPREDICTABLE>
    1e18:	00045000 	andeq	r5, r4, r0
    1e1c:	f3000400 	vshl.u8	d0, d0, d0
    1e20:	009f5201 	addseq	r5, pc, r1, lsl #4
    1e24:	00000000 	andeq	r0, r0, r0
    1e28:	c0000000 	andgt	r0, r0, r0
    1e2c:	df000003 	svcle	0x00000003
    1e30:	01000003 	tsteq	r0, r3
    1e34:	03df5300 	bicseq	r5, pc, #0, 6
    1e38:	04000000 	streq	r0, [r0], #-0
    1e3c:	00010000 	andeq	r0, r1, r0
    1e40:	00040058 	andeq	r0, r4, r8, asr r0
    1e44:	00041000 	andeq	r1, r4, r0
    1e48:	53000100 	movwpl	r0, #256	; 0x100
    1e4c:	00000410 	andeq	r0, r0, r0, lsl r4
    1e50:	00000440 	andeq	r0, r0, r0, asr #8
    1e54:	40580001 	subsmi	r0, r8, r1
    1e58:	50000004 	andpl	r0, r0, r4
    1e5c:	04000004 	streq	r0, [r0], #-4
    1e60:	5301f300 	movwpl	pc, #4864	; 0x1300	; <UNPREDICTABLE>
    1e64:	0000009f 	muleq	r0, pc, r0	; <UNPREDICTABLE>
    1e68:	00000000 	andeq	r0, r0, r0
    1e6c:	00040800 	andeq	r0, r4, r0, lsl #16
    1e70:	00041000 	andeq	r1, r4, r0
    1e74:	30000200 	andcc	r0, r0, r0, lsl #4
    1e78:	0004109f 	muleq	r4, pc, r0	; <UNPREDICTABLE>
    1e7c:	00044000 	andeq	r4, r4, r0
    1e80:	54000100 	strpl	r0, [r0], #-256	; 0x100
    1e84:	00000440 	andeq	r0, r0, r0, asr #8
    1e88:	00000450 	andeq	r0, r0, r0, asr r4
    1e8c:	00500001 	subseq	r0, r0, r1
    1e90:	00000000 	andeq	r0, r0, r0
    1e94:	50000000 	andpl	r0, r0, r0
    1e98:	73000004 	movwvc	r0, #4
    1e9c:	01000004 	tsteq	r0, r4
    1ea0:	04735100 	ldrbteq	r5, [r3], #-256	; 0x100
    1ea4:	05240000 	streq	r0, [r4, #-0]!
    1ea8:	00040000 	andeq	r0, r4, r0
    1eac:	9f5101f3 	svcls	0x005101f3
	...
    1eb8:	00000450 	andeq	r0, r0, r0, asr r4
    1ebc:	00000473 	andeq	r0, r0, r3, ror r4
    1ec0:	73520001 	cmpvc	r2, #1
    1ec4:	24000004 	strcs	r0, [r0], #-4
    1ec8:	04000005 	streq	r0, [r0], #-5
    1ecc:	5201f300 	andpl	pc, r1, #0, 6
    1ed0:	0000009f 	muleq	r0, pc, r0	; <UNPREDICTABLE>
    1ed4:	00000000 	andeq	r0, r0, r0
    1ed8:	00045000 	andeq	r5, r4, r0
    1edc:	00047300 	andeq	r7, r4, r0, lsl #6
    1ee0:	53000100 	movwpl	r0, #256	; 0x100
    1ee4:	00000473 	andeq	r0, r0, r3, ror r4
    1ee8:	00000510 	andeq	r0, r0, r0, lsl r5
    1eec:	10550001 	subsne	r0, r5, r1
    1ef0:	24000005 	strcs	r0, [r0], #-5
    1ef4:	02000005 	andeq	r0, r0, #5
    1ef8:	00047000 	andeq	r7, r4, r0
    1efc:	00000000 	andeq	r0, r0, r0
    1f00:	94000000 	strls	r0, [r0], #-0
    1f04:	d3000004 	movwle	r0, #4
    1f08:	01000004 	tsteq	r0, r4
    1f0c:	04d35200 	ldrbeq	r5, [r3], #512	; 0x200
    1f10:	04f40000 	ldrbteq	r0, [r4], #0
    1f14:	00060000 	andeq	r0, r6, r0
    1f18:	00770075 	rsbseq	r0, r7, r5, ror r0
    1f1c:	04f49f1e 	ldrbteq	r9, [r4], #3870	; 0xf1e
    1f20:	05240000 	streq	r0, [r4, #-0]!
    1f24:	00010000 	andeq	r0, r1, r0
    1f28:	00000052 	andeq	r0, r0, r2, asr r0
    1f2c:	00000000 	andeq	r0, r0, r0
    1f30:	00052400 	andeq	r2, r5, r0, lsl #8
    1f34:	00052f00 	andeq	r2, r5, r0, lsl #30
    1f38:	50000100 	andpl	r0, r0, r0, lsl #2
    1f3c:	0000052f 	andeq	r0, r0, pc, lsr #10
    1f40:	00000560 	andeq	r0, r0, r0, ror #10
    1f44:	01f30004 	mvnseq	r0, r4
    1f48:	00009f50 	andeq	r9, r0, r0, asr pc
    1f4c:	00000000 	andeq	r0, r0, r0
    1f50:	05300000 	ldreq	r0, [r0, #-0]!
    1f54:	053b0000 	ldreq	r0, [fp, #-0]!
    1f58:	00010000 	andeq	r0, r1, r0
    1f5c:	00000050 	andeq	r0, r0, r0, asr r0
    1f60:	00000000 	andeq	r0, r0, r0
    1f64:	00056000 	andeq	r6, r5, r0
    1f68:	00057000 	andeq	r7, r5, r0
    1f6c:	50000100 	andpl	r0, r0, r0, lsl #2
    1f70:	00000570 	andeq	r0, r0, r0, ror r5
    1f74:	0000058c 	andeq	r0, r0, ip, lsl #11
    1f78:	00550001 	subseq	r0, r5, r1
    1f7c:	00000000 	andeq	r0, r0, r0
    1f80:	60000000 	andvs	r0, r0, r0
    1f84:	70000005 	andvc	r0, r0, r5
    1f88:	01000005 	tsteq	r0, r5
    1f8c:	05705100 	ldrbeq	r5, [r0, #-256]!	; 0x100
    1f90:	058c0000 	streq	r0, [ip]
    1f94:	00010000 	andeq	r0, r1, r0
    1f98:	00000054 	andeq	r0, r0, r4, asr r0
    1f9c:	00000000 	andeq	r0, r0, r0
    1fa0:	00058c00 	andeq	r8, r5, r0, lsl #24
    1fa4:	0005a800 	andeq	sl, r5, r0, lsl #16
    1fa8:	50000100 	andpl	r0, r0, r0, lsl #2
    1fac:	000005a8 	andeq	r0, r0, r8, lsr #11
    1fb0:	00000600 	andeq	r0, r0, r0, lsl #12
    1fb4:	00550001 	subseq	r0, r5, r1
    1fb8:	1c000006 	stcne	0, cr0, [r0], {6}
    1fbc:	04000006 	streq	r0, [r0], #-6
    1fc0:	5001f300 	andpl	pc, r1, r0, lsl #6
    1fc4:	0000009f 	muleq	r0, pc, r0	; <UNPREDICTABLE>
    1fc8:	00000000 	andeq	r0, r0, r0
    1fcc:	0005b800 	andeq	fp, r5, r0, lsl #16
    1fd0:	0005c700 	andeq	ip, r5, r0, lsl #14
    1fd4:	50000100 	andpl	r0, r0, r0, lsl #2
    1fd8:	000005c7 	andeq	r0, r0, r7, asr #11
    1fdc:	000005e8 	andeq	r0, r0, r8, ror #11
    1fe0:	e8540001 	ldmda	r4, {r0}^
    1fe4:	ec000005 	stc	0, cr0, [r0], {5}
    1fe8:	01000005 	tsteq	r0, r5
    1fec:	05ec5000 	strbeq	r5, [ip, #0]!
    1ff0:	06000000 	streq	r0, [r0], -r0
    1ff4:	00010000 	andeq	r0, r1, r0
    1ff8:	00060054 	andeq	r0, r6, r4, asr r0
    1ffc:	00061c00 	andeq	r1, r6, r0, lsl #24
    2000:	50000100 	andpl	r0, r0, r0, lsl #2
	...
    200c:	0000061c 	andeq	r0, r0, ip, lsl r6
    2010:	0000062f 	andeq	r0, r0, pc, lsr #12
    2014:	2f500001 	svccs	0x00500001
    2018:	68000006 	stmdavs	r0, {r1, r2}
    201c:	04000006 	streq	r0, [r0], #-6
    2020:	5001f300 	andpl	pc, r1, r0, lsl #6
    2024:	0000009f 	muleq	r0, pc, r0	; <UNPREDICTABLE>
    2028:	00000000 	andeq	r0, r0, r0
    202c:	00061c00 	andeq	r1, r6, r0, lsl #24
    2030:	00062f00 	andeq	r2, r6, r0, lsl #30
    2034:	51000100 	mrspl	r0, (UNDEF: 16)
    2038:	0000062f 	andeq	r0, r0, pc, lsr #12
    203c:	00000668 	andeq	r0, r0, r8, ror #12
    2040:	01f30004 	mvnseq	r0, r4
    2044:	00009f51 	andeq	r9, r0, r1, asr pc
    2048:	00000000 	andeq	r0, r0, r0
    204c:	061c0000 	ldreq	r0, [ip], -r0
    2050:	062f0000 	strteq	r0, [pc], -r0
    2054:	00010000 	andeq	r0, r1, r0
    2058:	00062f52 	andeq	r2, r6, r2, asr pc
    205c:	00066800 	andeq	r6, r6, r0, lsl #16
    2060:	f3000400 	vshl.u8	d0, d0, d0
    2064:	009f5201 	addseq	r5, pc, r1, lsl #4
    2068:	00000000 	andeq	r0, r0, r0
    206c:	1c000000 	stcne	0, cr0, [r0], {-0}
    2070:	2f000006 	svccs	0x00000006
    2074:	01000006 	tsteq	r0, r6
    2078:	062f5300 	strteq	r5, [pc], -r0, lsl #6
    207c:	06680000 	strbteq	r0, [r8], -r0
    2080:	00040000 	andeq	r0, r4, r0
    2084:	9f5301f3 	svcls	0x005301f3
	...
    2090:	00000630 	andeq	r0, r0, r0, lsr r6
    2094:	0000063b 	andeq	r0, r0, fp, lsr r6
    2098:	54500001 	ldrbpl	r0, [r0], #-1
    209c:	68000006 	stmdavs	r0, {r1, r2}
    20a0:	01000006 	tsteq	r0, r6
    20a4:	00005000 	andeq	r5, r0, r0
	...
    20b0:	000b0000 	andeq	r0, fp, r0
    20b4:	00010000 	andeq	r0, r1, r0
    20b8:	00000b50 	andeq	r0, r0, r0, asr fp
    20bc:	00001400 	andeq	r1, r0, r0, lsl #8
    20c0:	54000100 	strpl	r0, [r0], #-256	; 0x100
	...
    20cc:	000000fc 	strdeq	r0, [r0], -ip
    20d0:	00000104 	andeq	r0, r0, r4, lsl #2
    20d4:	04500001 	ldrbeq	r0, [r0], #-1
    20d8:	28000001 	stmdacs	r0, {r0}
    20dc:	01000001 	tsteq	r0, r1
    20e0:	00005400 	andeq	r5, r0, r0, lsl #8
	...
    20ec:	00040000 	andeq	r0, r4, r0
    20f0:	00010000 	andeq	r0, r1, r0
    20f4:	00000452 	andeq	r0, r0, r2, asr r4
    20f8:	00002000 	andeq	r2, r0, r0
    20fc:	f3000400 	vshl.u8	d0, d0, d0
    2100:	009f5201 	addseq	r5, pc, r1, lsl #4
	...
    210c:	0c000000 	stceq	0, cr0, [r0], {-0}
    2110:	01000000 	mrseq	r0, (UNDEF: 0)
    2114:	000c5000 	andeq	r5, ip, r0
    2118:	00140000 	andseq	r0, r4, r0
    211c:	00030000 	andeq	r0, r3, r0
    2120:	149f0173 	ldrne	r0, [pc], #371	; 2128 <_start-0x5ed8>
    2124:	20000000 	andcs	r0, r0, r0
    2128:	01000000 	mrseq	r0, (UNDEF: 0)
    212c:	00005300 	andeq	r5, r0, r0, lsl #6
    2130:	00000000 	andeq	r0, r0, r0
	...

Disassembly of section .debug_aranges:

00000000 <.debug_aranges>:
   0:	0000001c 	andeq	r0, r0, ip, lsl r0
   4:	00000002 	andeq	r0, r0, r2
   8:	00040000 	andeq	r0, r4, r0
   c:	00000000 	andeq	r0, r0, r0
  10:	00008010 	andeq	r8, r0, r0, lsl r0
  14:	000000b4 	strheq	r0, [r0], -r4
	...
  20:	0000001c 	andeq	r0, r0, ip, lsl r0
  24:	02800002 	addeq	r0, r0, #2
  28:	00040000 	andeq	r0, r4, r0
  2c:	00000000 	andeq	r0, r0, r0
  30:	000080c4 	andeq	r8, r0, r4, asr #1
  34:	00000058 	andeq	r0, r0, r8, asr r0
	...
  40:	0000001c 	andeq	r0, r0, ip, lsl r0
  44:	04150002 	ldreq	r0, [r5], #-2
  48:	00040000 	andeq	r0, r4, r0
  4c:	00000000 	andeq	r0, r0, r0
  50:	0000811c 	andeq	r8, r0, ip, lsl r1
  54:	00000034 	andeq	r0, r0, r4, lsr r0
	...
  60:	0000001c 	andeq	r0, r0, ip, lsl r0
  64:	05070002 	streq	r0, [r7, #-2]
  68:	00040000 	andeq	r0, r4, r0
  6c:	00000000 	andeq	r0, r0, r0
  70:	00008150 	andeq	r8, r0, r0, asr r1
  74:	00000524 	andeq	r0, r0, r4, lsr #10
	...
  80:	0000001c 	andeq	r0, r0, ip, lsl r0
  84:	0bac0002 	bleq	feb00094 <__bss_end__+0xfeaf62d4>
  88:	00040000 	andeq	r0, r4, r0
  8c:	00000000 	andeq	r0, r0, r0
  90:	00008674 	andeq	r8, r0, r4, ror r6
  94:	00000028 	andeq	r0, r0, r8, lsr #32
	...
  a0:	0000001c 	andeq	r0, r0, ip, lsl r0
  a4:	0caf0002 	stceq	0, cr0, [pc], #8	; b4 <_start-0x7f4c>
  a8:	00040000 	andeq	r0, r4, r0
  ac:	00000000 	andeq	r0, r0, r0
  b0:	0000869c 	muleq	r0, ip, r6
  b4:	000000b0 	strheq	r0, [r0], -r0	; <UNPREDICTABLE>
	...
  c0:	0000001c 	andeq	r0, r0, ip, lsl r0
  c4:	0f900002 	svceq	0x00900002
  c8:	00040000 	andeq	r0, r4, r0
  cc:	00000000 	andeq	r0, r0, r0
  d0:	0000874c 	andeq	r8, r0, ip, asr #14
  d4:	00000074 	andeq	r0, r0, r4, ror r0
	...
  e0:	0000001c 	andeq	r0, r0, ip, lsl r0
  e4:	11410002 	cmpne	r1, r2
  e8:	00040000 	andeq	r0, r4, r0
  ec:	00000000 	andeq	r0, r0, r0
  f0:	000087c0 	andeq	r8, r0, r0, asr #15
  f4:	00000088 	andeq	r0, r0, r8, lsl #1
	...
 100:	0000001c 	andeq	r0, r0, ip, lsl r0
 104:	131d0002 	tstne	sp, #2
 108:	00040000 	andeq	r0, r4, r0
 10c:	00000000 	andeq	r0, r0, r0
 110:	00008848 	andeq	r8, r0, r8, asr #16
 114:	000005a0 	andeq	r0, r0, r0, lsr #11
	...
 120:	0000001c 	andeq	r0, r0, ip, lsl r0
 124:	1ba30002 	blne	fe8c0134 <__bss_end__+0xfe8b6374>
 128:	00040000 	andeq	r0, r4, r0
 12c:	00000000 	andeq	r0, r0, r0
 130:	00008de8 	andeq	r8, r0, r8, ror #27
 134:	00000668 	andeq	r0, r0, r8, ror #12
	...
 140:	0000001c 	andeq	r0, r0, ip, lsl r0
 144:	2d990002 	ldccs	0, cr0, [r9, #8]
 148:	00040000 	andeq	r0, r4, r0
 14c:	00000000 	andeq	r0, r0, r0
 150:	000094b4 			; <UNDEFINED> instruction: 0x000094b4
 154:	0000003c 	andeq	r0, r0, ip, lsr r0
	...
 160:	0000001c 	andeq	r0, r0, ip, lsl r0
 164:	2eb00002 	cdpcs	0, 11, cr0, cr0, cr2, {0}
 168:	00040000 	andeq	r0, r4, r0
 16c:	00000000 	andeq	r0, r0, r0
 170:	000094f0 	strdeq	r9, [r0], -r0
 174:	00000050 	andeq	r0, r0, r0, asr r0
	...
 180:	0000001c 	andeq	r0, r0, ip, lsl r0
 184:	30770002 	rsbscc	r0, r7, r2
 188:	00040000 	andeq	r0, r4, r0
 18c:	00000000 	andeq	r0, r0, r0
 190:	00009540 	andeq	r9, r0, r0, asr #10
 194:	00000154 	andeq	r0, r0, r4, asr r1
	...
 1a0:	0000001c 	andeq	r0, r0, ip, lsl r0
 1a4:	347a0002 	ldrbtcc	r0, [sl], #-2
 1a8:	00040000 	andeq	r0, r4, r0
 1ac:	00000000 	andeq	r0, r0, r0
 1b0:	00009694 	muleq	r0, r4, r6
 1b4:	00000020 	andeq	r0, r0, r0, lsr #32
	...

Disassembly of section .debug_ranges:

00000000 <.debug_ranges>:
   0:	00000028 	andeq	r0, r0, r8, lsr #32
   4:	0000002c 	andeq	r0, r0, ip, lsr #32
   8:	00000058 	andeq	r0, r0, r8, asr r0
   c:	0000005c 	andeq	r0, r0, ip, asr r0
	...
  18:	000002b4 			; <UNDEFINED> instruction: 0x000002b4
  1c:	000002b8 			; <UNDEFINED> instruction: 0x000002b8
  20:	000002e8 	andeq	r0, r0, r8, ror #5
  24:	000004e0 	andeq	r0, r0, r0, ror #9
	...
  30:	0000874c 	andeq	r8, r0, ip, asr #14
  34:	000087c0 	andeq	r8, r0, r0, asr #15
	...

Disassembly of section .debug_line:

00000000 <.debug_line>:
       0:	000000f8 	strdeq	r0, [r0], -r8
       4:	00c70002 	sbceq	r0, r7, r2
       8:	01020000 	mrseq	r0, (UNDEF: 2)
       c:	000d0efb 	strdeq	r0, [sp], -fp
      10:	01010101 	tsteq	r1, r1, lsl #2
      14:	01000000 	mrseq	r0, (UNDEF: 0)
      18:	2f010000 	svccs	0x00010000
      1c:	72657355 	rsbvc	r7, r5, #1409286145	; 0x54000001
      20:	72622f73 	rsbvc	r2, r2, #460	; 0x1cc
      24:	6a6e6169 	bvs	1b985d0 <__bss_end__+0x1b8e810>
      28:	442f6e75 	strtmi	r6, [pc], #-3701	; 30 <_start-0x7fd0>
      2c:	746b7365 	strbtvc	r7, [fp], #-869	; 0x365
      30:	732f706f 	teqvc	pc, #111	; 0x6f
      34:	6f6f6863 	svcvs	0x006f6863
      38:	69572f6c 	ldmdbvs	r7, {r2, r3, r5, r6, r8, r9, sl, fp, sp}^
      3c:	7265746e 	rsbvc	r7, r5, #1845493760	; 0x6e000000
      40:	30323931 	eorscc	r3, r2, r1, lsr r9
      44:	3153432f 	cmpcc	r3, pc, lsr #6
      48:	2f453034 	svccs	0x00453034
      4c:	34317363 	ldrtcc	r7, [r1], #-867	; 0x363
      50:	322d6530 	eorcc	r6, sp, #48, 10	; 0xc000000
      54:	6e697730 	mcrvs	7, 3, r7, cr9, cr0, {1}
      58:	62696c2f 	rsbvs	r6, r9, #12032	; 0x2f00
      5c:	632f6970 	teqvs	pc, #112, 18	; 0x1c0000
      60:	30343173 	eorscc	r3, r4, r3, ror r1
      64:	72732d65 	rsbsvc	r2, r3, #6464	; 0x1940
      68:	552f0063 	strpl	r0, [pc, #-99]!	; d <_start-0x7ff3>
      6c:	73726573 	cmnvc	r2, #482344960	; 0x1cc00000
      70:	6972622f 	ldmdbvs	r2!, {r0, r1, r2, r3, r5, r9, sp, lr}^
      74:	756a6e61 	strbvc	r6, [sl, #-3681]!	; 0xe61
      78:	65442f6e 	strbvs	r2, [r4, #-3950]	; 0xf6e
      7c:	6f746b73 	svcvs	0x00746b73
      80:	63732f70 	cmnvs	r3, #112, 30	; 0x1c0
      84:	6c6f6f68 	stclvs	15, cr6, [pc], #-416	; fffffeec <__bss_end__+0xffff612c>
      88:	6e69572f 	cdpvs	7, 6, cr5, cr9, cr15, {1}
      8c:	31726574 	cmncc	r2, r4, ror r5
      90:	2f303239 	svccs	0x00303239
      94:	34315343 	ldrtcc	r5, [r1], #-835	; 0x343
      98:	632f4530 	teqvs	pc, #48, 10	; 0xc000000
      9c:	30343173 	eorscc	r3, r4, r3, ror r1
      a0:	30322d65 	eorscc	r2, r2, r5, ror #26
      a4:	2f6e6977 	svccs	0x006e6977
      a8:	7062696c 	rsbvc	r6, r2, ip, ror #18
      ac:	74000069 	strvc	r0, [r0], #-105	; 0x69
      b0:	2d747365 	ldclcs	3, cr7, [r4, #-404]!	; 0xfffffe6c
      b4:	2e6e6567 	cdpcs	5, 6, cr6, cr14, cr7, {3}
      b8:	00000063 	andeq	r0, r0, r3, rrx
      bc:	69706700 	ldmdbvs	r0!, {r8, r9, sl, sp, lr}^
      c0:	00682e6f 	rsbeq	r2, r8, pc, ror #28
      c4:	72000001 	andvc	r0, r0, #1
      c8:	682e6970 	stmdavs	lr!, {r4, r5, r6, r8, fp, sp, lr}
      cc:	00000200 	andeq	r0, r0, r0, lsl #4
      d0:	02050000 	andeq	r0, r5, #0
      d4:	00008010 	andeq	r8, r0, r0, lsl r0
      d8:	32672e1a 	rsbcc	r2, r7, #416	; 0x1a0
      dc:	01040200 	mrseq	r0, R12_usr
      e0:	040200a0 	streq	r0, [r2], #-160	; 0xa0
      e4:	84672f01 	strbthi	r2, [r7], #-3841	; 0xf01
      e8:	292f2d2f 	stmdbcs	pc!, {r0, r1, r2, r3, r5, r8, sl, fp, sp}	; <UNPREDICTABLE>
      ec:	314e2f32 	cmpcc	lr, r2, lsr pc
      f0:	30692d67 	rsbcc	r2, r9, r7, ror #26
      f4:	02844d4b 	addeq	r4, r4, #4800	; 0x12c0
      f8:	01010004 	tsteq	r1, r4
      fc:	00000102 	andeq	r0, r0, r2, lsl #2
     100:	00eb0002 	rsceq	r0, fp, r2
     104:	01020000 	mrseq	r0, (UNDEF: 2)
     108:	000d0efb 	strdeq	r0, [sp], -fp
     10c:	01010101 	tsteq	r1, r1, lsl #2
     110:	01000000 	mrseq	r0, (UNDEF: 0)
     114:	6c010000 	stcvs	0, cr0, [r1], {-0}
     118:	00636269 	rsbeq	r6, r3, r9, ror #4
     11c:	7273752f 	rsbsvc	r7, r3, #197132288	; 0xbc00000
     120:	636f6c2f 	cmnvs	pc, #12032	; 0x2f00
     124:	432f6c61 	teqmi	pc, #24832	; 0x6100
     128:	616c6c65 	cmnvs	ip, r5, ror #24
     12c:	72612f72 	rsbvc	r2, r1, #456	; 0x1c8
     130:	6f6e2d6d 	svcvs	0x006e2d6d
     134:	652d656e 	strvs	r6, [sp, #-1390]!	; 0x56e
     138:	2f696261 	svccs	0x00696261
     13c:	2e382e34 	mrccs	14, 1, r2, cr8, cr4, {1}
     140:	73632d33 	cmnvc	r3, #3264	; 0xcc0
     144:	65303731 	ldrvs	r3, [r0, #-1841]!	; 0x731
     148:	62696c2f 	rsbvs	r6, r9, #12032	; 0x2f00
     14c:	6363672f 	cmnvs	r3, #12320768	; 0xbc0000
     150:	6d72612f 	ldfvse	f6, [r2, #-188]!	; 0xffffff44
     154:	6e6f6e2d 	cdpvs	14, 6, cr6, cr15, cr13, {1}
     158:	61652d65 	cmnvs	r5, r5, ror #26
     15c:	342f6962 	strtcc	r6, [pc], #-2402	; 164 <_start-0x7e9c>
     160:	332e382e 	teqcc	lr, #3014656	; 0x2e0000
     164:	636e692f 	cmnvs	lr, #770048	; 0xbc000
     168:	6564756c 	strbvs	r7, [r4, #-1388]!	; 0x56c
     16c:	73552f00 	cmpvc	r5, #0, 30
     170:	2f737265 	svccs	0x00737265
     174:	61697262 	cmnvs	r9, r2, ror #4
     178:	6e756a6e 	vsubvs.f32	s13, s10, s29
     17c:	7365442f 	cmnvc	r5, #788529152	; 0x2f000000
     180:	706f746b 	rsbvc	r7, pc, fp, ror #8
     184:	6863732f 	stmdavs	r3!, {r0, r1, r2, r3, r5, r8, r9, ip, sp, lr}^
     188:	2f6c6f6f 	svccs	0x006c6f6f
     18c:	746e6957 	strbtvc	r6, [lr], #-2391	; 0x957
     190:	39317265 	ldmdbcc	r1!, {r0, r2, r5, r6, r9, ip, sp, lr}
     194:	432f3032 	teqmi	pc, #50	; 0x32
     198:	30343153 	eorscc	r3, r4, r3, asr r1
     19c:	73632f45 	cmnvc	r3, #276	; 0x114
     1a0:	65303431 	ldrvs	r3, [r0, #-1073]!	; 0x431
     1a4:	7730322d 	ldrvc	r3, [r0, -sp, lsr #4]!
     1a8:	6c2f6e69 	stcvs	14, cr6, [pc], #-420	; c <_start-0x7ff4>
     1ac:	69706269 	ldmdbvs	r0!, {r0, r3, r5, r6, r9, sp, lr}^
     1b0:	72700000 	rsbsvc	r0, r0, #0
     1b4:	6b746e69 	blvs	1d1bb60 <__bss_end__+0x1d11da0>
     1b8:	0100632e 	tsteq	r0, lr, lsr #6
     1bc:	74730000 	ldrbtvc	r0, [r3], #-0
     1c0:	67726164 	ldrbvs	r6, [r2, -r4, ror #2]!
     1c4:	0200682e 	andeq	r6, r0, #3014656	; 0x2e0000
     1c8:	623c0000 	eorsvs	r0, ip, #0
     1cc:	746c6975 	strbtvc	r6, [ip], #-2421	; 0x975
     1d0:	3e6e692d 	cdpcc	9, 6, cr6, cr14, cr13, {1}
     1d4:	00000000 	andeq	r0, r0, r0
     1d8:	2e697072 	mcrcs	0, 3, r7, cr9, cr2, {3}
     1dc:	00030068 	andeq	r0, r3, r8, rrx
     1e0:	2d617600 	stclcs	6, cr7, [r1, #-0]
     1e4:	6e697270 	mcrvs	2, 3, r7, cr9, cr0, {3}
     1e8:	682e6b74 	stmdavs	lr!, {r2, r4, r5, r6, r8, r9, fp, sp, lr}
     1ec:	00000100 	andeq	r0, r0, r0, lsl #2
     1f0:	02050000 	andeq	r0, r5, #0
     1f4:	000080c4 	andeq	r8, r0, r4, asr #1
     1f8:	bf4b6b17 	svclt	0x004b6b17
     1fc:	000e0289 	andeq	r0, lr, r9, lsl #5
     200:	00960101 	addseq	r0, r6, r1, lsl #2
     204:	00020000 	andeq	r0, r2, r0
     208:	0000006f 	andeq	r0, r0, pc, rrx
     20c:	0efb0102 	cdpeq	1, 15, cr0, cr11, cr2, {0}
     210:	0101000d 	tsteq	r1, sp
     214:	00000101 	andeq	r0, r0, r1, lsl #2
     218:	00000100 	andeq	r0, r0, r0, lsl #2
     21c:	62696c01 	rsbvs	r6, r9, #256	; 0x100
     220:	552f0063 	strpl	r0, [pc, #-99]!	; 1c5 <_start-0x7e3b>
     224:	73726573 	cmnvc	r2, #482344960	; 0x1cc00000
     228:	6972622f 	ldmdbvs	r2!, {r0, r1, r2, r3, r5, r9, sp, lr}^
     22c:	756a6e61 	strbvc	r6, [sl, #-3681]!	; 0xe61
     230:	65442f6e 	strbvs	r2, [r4, #-3950]	; 0xf6e
     234:	6f746b73 	svcvs	0x00746b73
     238:	63732f70 	cmnvs	r3, #112, 30	; 0x1c0
     23c:	6c6f6f68 	stclvs	15, cr6, [pc], #-416	; a4 <_start-0x7f5c>
     240:	6e69572f 	cdpvs	7, 6, cr5, cr9, cr15, {1}
     244:	31726574 	cmncc	r2, r4, ror r5
     248:	2f303239 	svccs	0x00303239
     24c:	34315343 	ldrtcc	r5, [r1], #-835	; 0x343
     250:	632f4530 	teqvs	pc, #48, 10	; 0xc000000
     254:	30343173 	eorscc	r3, r4, r3, ror r1
     258:	30322d65 	eorscc	r2, r2, r5, ror #26
     25c:	2f6e6977 	svccs	0x006e6977
     260:	7062696c 	rsbvc	r6, r2, ip, ror #18
     264:	70000069 	andvc	r0, r0, r9, rrx
     268:	2e6b7475 	mcrcs	4, 3, r7, cr11, cr5, {3}
     26c:	00010063 	andeq	r0, r1, r3, rrx
     270:	69707200 	ldmdbvs	r0!, {r9, ip, sp, lr}^
     274:	0200682e 	andeq	r6, r0, #3014656	; 0x2e0000
     278:	00000000 	andeq	r0, r0, r0
     27c:	811c0205 	tsthi	ip, r5, lsl #4
     280:	4c150000 	ldcmi	0, cr0, [r5], {-0}
     284:	0402002d 	streq	r0, [r2], #-45	; 0x2d
     288:	02002f02 	andeq	r2, r0, #2, 30
     28c:	00490204 	subeq	r0, r9, r4, lsl #4
     290:	06010402 	streq	r0, [r1], -r2, lsl #8
     294:	026b062e 	rsbeq	r0, fp, #48234496	; 0x2e00000
     298:	01010006 	tsteq	r1, r6
     29c:	000001e2 	andeq	r0, r0, r2, ror #3
     2a0:	00df0002 	sbcseq	r0, pc, r2
     2a4:	01020000 	mrseq	r0, (UNDEF: 2)
     2a8:	000d0efb 	strdeq	r0, [sp], -fp
     2ac:	01010101 	tsteq	r1, r1, lsl #2
     2b0:	01000000 	mrseq	r0, (UNDEF: 0)
     2b4:	6c010000 	stcvs	0, cr0, [r1], {-0}
     2b8:	00636269 	rsbeq	r6, r3, r9, ror #4
     2bc:	7273752f 	rsbsvc	r7, r3, #197132288	; 0xbc00000
     2c0:	636f6c2f 	cmnvs	pc, #12032	; 0x2f00
     2c4:	432f6c61 	teqmi	pc, #24832	; 0x6100
     2c8:	616c6c65 	cmnvs	ip, r5, ror #24
     2cc:	72612f72 	rsbvc	r2, r1, #456	; 0x1c8
     2d0:	6f6e2d6d 	svcvs	0x006e2d6d
     2d4:	652d656e 	strvs	r6, [sp, #-1390]!	; 0x56e
     2d8:	2f696261 	svccs	0x00696261
     2dc:	2e382e34 	mrccs	14, 1, r2, cr8, cr4, {1}
     2e0:	73632d33 	cmnvc	r3, #3264	; 0xcc0
     2e4:	65303731 	ldrvs	r3, [r0, #-1841]!	; 0x731
     2e8:	62696c2f 	rsbvs	r6, r9, #12032	; 0x2f00
     2ec:	6363672f 	cmnvs	r3, #12320768	; 0xbc0000
     2f0:	6d72612f 	ldfvse	f6, [r2, #-188]!	; 0xffffff44
     2f4:	6e6f6e2d 	cdpvs	14, 6, cr6, cr15, cr13, {1}
     2f8:	61652d65 	cmnvs	r5, r5, ror #26
     2fc:	342f6962 	strtcc	r6, [pc], #-2402	; 304 <_start-0x7cfc>
     300:	332e382e 	teqcc	lr, #3014656	; 0x2e0000
     304:	636e692f 	cmnvs	lr, #770048	; 0xbc000
     308:	6564756c 	strbvs	r7, [r4, #-1388]!	; 0x56c
     30c:	73552f00 	cmpvc	r5, #0, 30
     310:	2f737265 	svccs	0x00737265
     314:	61697262 	cmnvs	r9, r2, ror #4
     318:	6e756a6e 	vsubvs.f32	s13, s10, s29
     31c:	7365442f 	cmnvc	r5, #788529152	; 0x2f000000
     320:	706f746b 	rsbvc	r7, pc, fp, ror #8
     324:	6863732f 	stmdavs	r3!, {r0, r1, r2, r3, r5, r8, r9, ip, sp, lr}^
     328:	2f6c6f6f 	svccs	0x006c6f6f
     32c:	746e6957 	strbtvc	r6, [lr], #-2391	; 0x957
     330:	39317265 	ldmdbcc	r1!, {r0, r2, r5, r6, r9, ip, sp, lr}
     334:	432f3032 	teqmi	pc, #50	; 0x32
     338:	30343153 	eorscc	r3, r4, r3, asr r1
     33c:	73632f45 	cmnvc	r3, #276	; 0x114
     340:	65303431 	ldrvs	r3, [r0, #-1073]!	; 0x431
     344:	7730322d 	ldrvc	r3, [r0, -sp, lsr #4]!
     348:	6c2f6e69 	stcvs	14, cr6, [pc], #-420	; 1ac <_start-0x7e54>
     34c:	69706269 	ldmdbvs	r0!, {r0, r3, r5, r6, r9, sp, lr}^
     350:	61760000 	cmnvs	r6, r0
     354:	6972702d 	ldmdbvs	r2!, {r0, r2, r3, r5, ip, sp, lr}^
     358:	2e6b746e 	cdpcs	4, 6, cr7, cr11, cr14, {3}
     35c:	00010063 	andeq	r0, r1, r3, rrx
     360:	64747300 	ldrbtvs	r7, [r4], #-768	; 0x300
     364:	2e677261 	cdpcs	2, 6, cr7, cr7, cr1, {3}
     368:	00020068 	andeq	r0, r2, r8, rrx
     36c:	69707200 	ldmdbvs	r0!, {r9, ip, sp, lr}^
     370:	0300682e 	movweq	r6, #2094	; 0x82e
     374:	623c0000 	eorsvs	r0, ip, #0
     378:	746c6975 	strbtvc	r6, [ip], #-2421	; 0x975
     37c:	3e6e692d 	cdpcc	9, 6, cr6, cr14, cr13, {1}
     380:	00000000 	andeq	r0, r0, r0
     384:	02050000 	andeq	r0, r5, #0
     388:	00008150 	andeq	r8, r0, r0, asr r1
     38c:	01012603 	tsteq	r1, r3, lsl #12
     390:	2d3113a5 	ldccs	3, cr1, [r1, #-660]!	; 0xfffffd6c
     394:	02040200 	andeq	r0, r4, #0, 4
     398:	0402002f 	streq	r0, [r2], #-47	; 0x2f
     39c:	02002d02 	andeq	r2, r0, #2, 26	; 0x80
     3a0:	002f0204 	eoreq	r0, pc, r4, lsl #4
     3a4:	2d010402 	cfstrscs	mvf0, [r1, #-8]
     3a8:	14304c4c 	ldrtne	r4, [r0], #-3148	; 0xc4c
     3ac:	004f2f4b 	subeq	r2, pc, fp, asr #30
     3b0:	67020402 	strvs	r0, [r2, -r2, lsl #8]
     3b4:	01040200 	mrseq	r0, R12_usr
     3b8:	304d4c65 	subcc	r4, sp, r5, ror #24
     3bc:	30312fa0 	eorscc	r2, r1, r0, lsr #31
     3c0:	84162602 	ldrhi	r2, [r6], #-1538	; 0x602
     3c4:	02002c2d 	andeq	r2, r0, #11520	; 0x2d00
     3c8:	00300104 	eorseq	r0, r0, r4, lsl #2
     3cc:	33010402 	movwcc	r0, #5122	; 0x1402
     3d0:	02006606 	andeq	r6, r0, #6291456	; 0x600000
     3d4:	002e0104 	eoreq	r0, lr, r4, lsl #2
     3d8:	06010402 	streq	r0, [r1], -r2, lsl #8
     3dc:	2f672108 	svccs	0x00672108
     3e0:	03827303 	orreq	r7, r2, #201326592	; 0xc000000
     3e4:	02002e13 	andeq	r2, r0, #304	; 0x130
     3e8:	2e060104 	adfcss	f0, f6, f4
     3ec:	01040200 	mrseq	r0, R12_usr
     3f0:	4b6a9f06 	blmi	1aa8010 <__bss_end__+0x1a9e250>
     3f4:	032e6703 	teqeq	lr, #786432	; 0xc0000
     3f8:	02002e21 	andeq	r2, r0, #528	; 0x210
     3fc:	2e060104 	adfcss	f0, f6, f4
     400:	01040200 	mrseq	r0, R12_usr
     404:	02009f06 	andeq	r9, r0, #6, 30
     408:	086a0104 	stmdaeq	sl!, {r2, r8}^
     40c:	a603f323 	strge	pc, [r3], -r3, lsr #6
     410:	4b3c087f 	blmi	f02614 <__bss_end__+0xef8854>
     414:	01040200 	mrseq	r0, R12_usr
     418:	08064a06 	stmdaeq	r6, {r1, r2, r9, fp, lr}
     41c:	4b2f4b21 	blmi	bd30a8 <__bss_end__+0xbc92e8>
     420:	f200d903 	vmla.i8	d13, d0, d3
     424:	03484c83 	movteq	r4, #35971	; 0x8c83
     428:	75032e0e 	strvc	r2, [r3, #-3598]	; 0xe0e
     42c:	842f2f2e 	strthi	r2, [pc], #-3886	; 434 <_start-0x7bcc>
     430:	4d2d2f4b 	stcmi	15, cr2, [sp, #-300]!	; 0xfffffed4
     434:	832f3031 	teqhi	pc, #49	; 0x31
     438:	01040200 	mrseq	r0, R12_usr
     43c:	0200a22c 	andeq	sl, r0, #44, 4	; 0xc0000002
     440:	4a060104 	bmi	180858 <__bss_end__+0x176a98>
     444:	02220806 	eoreq	r0, r2, #393216	; 0x60000
     448:	0e031636 	mcreq	6, 0, r1, cr3, cr6, {1}
     44c:	302108d6 	ldrdcc	r0, [r1], -r6	; <UNPREDICTABLE>
     450:	30f331f3 	ldrshtcc	r3, [r3], #19
     454:	304b30f3 	strdcc	r3, [fp], #-3
     458:	230830f3 	movwcs	r3, #33011	; 0x80f3
     45c:	02002f31 	andeq	r2, r0, #49, 30	; 0xc4
     460:	00650104 	rsbeq	r0, r5, r4, lsl #2
     464:	06020402 	streq	r0, [r2], -r2, lsl #8
     468:	0402004a 	streq	r0, [r2], #-74	; 0x4a
     46c:	42030601 	andmi	r0, r3, #1048576	; 0x100000
     470:	04020066 	streq	r0, [r2], #-102	; 0x66
     474:	06660602 	strbteq	r0, [r6], -r2, lsl #12
     478:	4a00c203 	bmi	30c8c <__bss_end__+0x26ecc>
     47c:	00120268 	andseq	r0, r2, r8, ror #4
     480:	00930101 	addseq	r0, r3, r1, lsl #2
     484:	00020000 	andeq	r0, r2, r0
     488:	0000007d 	andeq	r0, r0, sp, ror r0
     48c:	0efb0102 	cdpeq	1, 15, cr0, cr11, cr2, {0}
     490:	0101000d 	tsteq	r1, sp
     494:	00000101 	andeq	r0, r0, r1, lsl #2
     498:	00000100 	andeq	r0, r0, r0, lsl #2
     49c:	31736301 	cmncc	r3, r1, lsl #6
     4a0:	2d653034 	stclcs	0, cr3, [r5, #-208]!	; 0xffffff30
     4a4:	00637273 	rsbeq	r7, r3, r3, ror r2
     4a8:	6573552f 	ldrbvs	r5, [r3, #-1327]!	; 0x52f
     4ac:	622f7372 	eorvs	r7, pc, #-939524095	; 0xc8000001
     4b0:	6e616972 	mcrvs	9, 3, r6, cr1, cr2, {3}
     4b4:	2f6e756a 	svccs	0x006e756a
     4b8:	6b736544 	blvs	1cd99d0 <__bss_end__+0x1ccfc10>
     4bc:	2f706f74 	svccs	0x00706f74
     4c0:	6f686373 	svcvs	0x00686373
     4c4:	572f6c6f 	strpl	r6, [pc, -pc, ror #24]!
     4c8:	65746e69 	ldrbvs	r6, [r4, #-3689]!	; 0xe69
     4cc:	32393172 	eorscc	r3, r9, #-2147483620	; 0x8000001c
     4d0:	53432f30 	movtpl	r2, #16176	; 0x3f30
     4d4:	45303431 	ldrmi	r3, [r0, #-1073]!	; 0x431
     4d8:	3173632f 	cmncc	r3, pc, lsr #6
     4dc:	2d653034 	stclcs	0, cr3, [r5, #-208]!	; 0xffffff30
     4e0:	69773032 	ldmdbvs	r7!, {r1, r4, r5, ip, sp}^
     4e4:	696c2f6e 	stmdbvs	ip!, {r1, r2, r3, r5, r6, r8, r9, sl, fp, sp}^
     4e8:	00697062 	rsbeq	r7, r9, r2, rrx
     4ec:	656c6300 	strbvs	r6, [ip, #-768]!	; 0x300
     4f0:	722d6e61 	eorvc	r6, sp, #1552	; 0x610
     4f4:	6f6f6265 	svcvs	0x006f6265
     4f8:	00632e74 	rsbeq	r2, r3, r4, ror lr
     4fc:	72000001 	andvc	r0, r0, #1
     500:	682e6970 	stmdavs	lr!, {r4, r5, r6, r8, fp, sp, lr}
     504:	00000200 	andeq	r0, r0, r0, lsl #4
     508:	02050000 	andeq	r0, r5, #0
     50c:	00008674 	andeq	r8, r0, r4, ror r6
     510:	4b832f15 	blmi	fe0cc16c <__bss_end__+0xfe0c23ac>
     514:	01000602 	tsteq	r0, r2, lsl #12
     518:	00012101 	andeq	r2, r1, r1, lsl #2
     51c:	f8000200 			; <UNDEFINED> instruction: 0xf8000200
     520:	02000000 	andeq	r0, r0, #0
     524:	0d0efb01 	vstreq	d15, [lr, #-4]
     528:	01010100 	mrseq	r0, (UNDEF: 17)
     52c:	00000001 	andeq	r0, r0, r1
     530:	01000001 	tsteq	r0, r1
     534:	34317363 	ldrtcc	r7, [r1], #-867	; 0x363
     538:	732d6530 	teqvc	sp, #48, 10	; 0xc000000
     53c:	2f006372 	svccs	0x00006372
     540:	2f727375 	svccs	0x00727375
     544:	61636f6c 	cmnvs	r3, ip, ror #30
     548:	65432f6c 	strbvs	r2, [r3, #-3948]	; 0xf6c
     54c:	72616c6c 	rsbvc	r6, r1, #108, 24	; 0x6c00
     550:	6d72612f 	ldfvse	f6, [r2, #-188]!	; 0xffffff44
     554:	6e6f6e2d 	cdpvs	14, 6, cr6, cr15, cr13, {1}
     558:	61652d65 	cmnvs	r5, r5, ror #26
     55c:	342f6962 	strtcc	r6, [pc], #-2402	; 564 <_start-0x7a9c>
     560:	332e382e 	teqcc	lr, #3014656	; 0x2e0000
     564:	3173632d 	cmncc	r3, sp, lsr #6
     568:	2f653037 	svccs	0x00653037
     56c:	2f62696c 	svccs	0x0062696c
     570:	2f636367 	svccs	0x00636367
     574:	2d6d7261 	sfmcs	f7, 2, [sp, #-388]!	; 0xfffffe7c
     578:	656e6f6e 	strbvs	r6, [lr, #-3950]!	; 0xf6e
     57c:	6261652d 	rsbvs	r6, r1, #188743680	; 0xb400000
     580:	2e342f69 	cdpcs	15, 3, cr2, cr4, cr9, {3}
     584:	2f332e38 	svccs	0x00332e38
     588:	6c636e69 	stclvs	14, cr6, [r3], #-420	; 0xfffffe5c
     58c:	00656475 	rsbeq	r6, r5, r5, ror r4
     590:	6573552f 	ldrbvs	r5, [r3, #-1327]!	; 0x52f
     594:	622f7372 	eorvs	r7, pc, #-939524095	; 0xc8000001
     598:	6e616972 	mcrvs	9, 3, r6, cr1, cr2, {3}
     59c:	2f6e756a 	svccs	0x006e756a
     5a0:	6b736544 	blvs	1cd9ab8 <__bss_end__+0x1ccfcf8>
     5a4:	2f706f74 	svccs	0x00706f74
     5a8:	6f686373 	svcvs	0x00686373
     5ac:	572f6c6f 	strpl	r6, [pc, -pc, ror #24]!
     5b0:	65746e69 	ldrbvs	r6, [r4, #-3689]!	; 0xe69
     5b4:	32393172 	eorscc	r3, r9, #-2147483620	; 0x8000001c
     5b8:	53432f30 	movtpl	r2, #16176	; 0x3f30
     5bc:	45303431 	ldrmi	r3, [r0, #-1073]!	; 0x431
     5c0:	3173632f 	cmncc	r3, pc, lsr #6
     5c4:	2d653034 	stclcs	0, cr3, [r5, #-208]!	; 0xffffff30
     5c8:	69773032 	ldmdbvs	r7!, {r1, r4, r5, ip, sp}^
     5cc:	696c2f6e 	stmdbvs	ip!, {r1, r2, r3, r5, r6, r8, r9, sl, fp, sp}^
     5d0:	00697062 	rsbeq	r7, r9, r2, rrx
     5d4:	74736300 	ldrbtvc	r6, [r3], #-768	; 0x300
     5d8:	2e747261 	cdpcs	2, 7, cr7, cr4, cr1, {3}
     5dc:	00010063 	andeq	r0, r1, r3, rrx
     5e0:	64747300 	ldrbtvs	r7, [r4], #-768	; 0x300
     5e4:	2d746e69 	ldclcs	14, cr6, [r4, #-420]!	; 0xfffffe5c
     5e8:	2e636367 	cdpcs	3, 6, cr6, cr3, cr7, {3}
     5ec:	00020068 	andeq	r0, r2, r8, rrx
     5f0:	2d777300 	ldclcs	3, cr7, [r7, #-0]
     5f4:	74726175 	ldrbtvc	r6, [r2], #-373	; 0x175
     5f8:	0100682e 	tsteq	r0, lr, lsr #16
     5fc:	6f630000 	svcvs	0x00630000
     600:	6f72746e 	svcvs	0x0072746e
     604:	6c622d6c 	stclvs	13, cr2, [r2], #-432	; 0xfffffe50
     608:	2e6b636f 	cdpcs	3, 6, cr6, cr11, cr15, {3}
     60c:	00010068 	andeq	r0, r1, r8, rrx
     610:	69707200 	ldmdbvs	r0!, {r9, ip, sp, lr}^
     614:	0300682e 	movweq	r6, #2094	; 0x82e
     618:	00000000 	andeq	r0, r0, r0
     61c:	869c0205 	ldrhi	r0, [ip], r5, lsl #4
     620:	4b170000 	blmi	5c0628 <__bss_end__+0x5b6868>
     624:	31326868 	teqcc	r2, r8, ror #16
     628:	002f2d2f 	eoreq	r2, pc, pc, lsr #26
     62c:	49010402 	stmdbmi	r1, {r1, sl}
     630:	674b2f4f 	strbvs	r2, [fp, -pc, asr #30]
     634:	4e678367 	cdpmi	3, 6, cr8, cr7, cr7, {3}
     638:	0010022f 	andseq	r0, r0, pc, lsr #4
     63c:	00990101 	addseq	r0, r9, r1, lsl #2
     640:	00020000 	andeq	r0, r2, r0
     644:	00000077 	andeq	r0, r0, r7, ror r0
     648:	0efb0102 	cdpeq	1, 15, cr0, cr11, cr2, {0}
     64c:	0101000d 	tsteq	r1, sp
     650:	00000101 	andeq	r0, r0, r1, lsl #2
     654:	00000100 	andeq	r0, r0, r0, lsl #2
     658:	31736301 	cmncc	r3, r1, lsl #6
     65c:	2d653034 	stclcs	0, cr3, [r5, #-208]!	; 0xffffff30
     660:	00637273 	rsbeq	r7, r3, r3, ror r2
     664:	6573552f 	ldrbvs	r5, [r3, #-1327]!	; 0x52f
     668:	622f7372 	eorvs	r7, pc, #-939524095	; 0xc8000001
     66c:	6e616972 	mcrvs	9, 3, r6, cr1, cr2, {3}
     670:	2f6e756a 	svccs	0x006e756a
     674:	6b736544 	blvs	1cd9b8c <__bss_end__+0x1ccfdcc>
     678:	2f706f74 	svccs	0x00706f74
     67c:	6f686373 	svcvs	0x00686373
     680:	572f6c6f 	strpl	r6, [pc, -pc, ror #24]!
     684:	65746e69 	ldrbvs	r6, [r4, #-3689]!	; 0xe69
     688:	32393172 	eorscc	r3, r9, #-2147483620	; 0x8000001c
     68c:	53432f30 	movtpl	r2, #16176	; 0x3f30
     690:	45303431 	ldrmi	r3, [r0, #-1073]!	; 0x431
     694:	3173632f 	cmncc	r3, pc, lsr #6
     698:	2d653034 	stclcs	0, cr3, [r5, #-208]!	; 0xffffff30
     69c:	69773032 	ldmdbvs	r7!, {r1, r4, r5, ip, sp}^
     6a0:	696c2f6e 	stmdbvs	ip!, {r1, r2, r3, r5, r6, r8, r9, sl, fp, sp}^
     6a4:	00697062 	rsbeq	r7, r9, r2, rrx
     6a8:	62657200 	rsbvs	r7, r5, #0, 4
     6ac:	2e746f6f 	cdpcs	15, 7, cr6, cr4, cr15, {3}
     6b0:	00010063 	andeq	r0, r1, r3, rrx
     6b4:	69707200 	ldmdbvs	r0!, {r9, ip, sp, lr}^
     6b8:	0200682e 	andeq	r6, r0, #3014656	; 0x2e0000
     6bc:	00000000 	andeq	r0, r0, r0
     6c0:	874c0205 	strbhi	r0, [ip, -r5, lsl #4]
     6c4:	0d030000 	stceq	0, cr0, [r3, #-0]
     6c8:	2f311401 	svccs	0x00311401
     6cc:	4b2f1585 	blmi	bc5ce8 <__bss_end__+0xbbbf28>
     6d0:	35672f4d 	strbcc	r2, [r7, #-3917]!	; 0xf4d
     6d4:	10026752 	andne	r6, r2, r2, asr r7
     6d8:	a3010100 	movwge	r0, #4352	; 0x1100
     6dc:	02000000 	andeq	r0, r0, #0
     6e0:	00007600 	andeq	r7, r0, r0, lsl #12
     6e4:	fb010200 	blx	40eee <__bss_end__+0x3712e>
     6e8:	01000d0e 	tsteq	r0, lr, lsl #26
     6ec:	00010101 	andeq	r0, r1, r1, lsl #2
     6f0:	00010000 	andeq	r0, r1, r0
     6f4:	73630100 	cmnvc	r3, #0, 2
     6f8:	65303431 	ldrvs	r3, [r0, #-1073]!	; 0x431
     6fc:	6372732d 	cmnvs	r2, #-1275068416	; 0xb4000000
     700:	73552f00 	cmpvc	r5, #0, 30
     704:	2f737265 	svccs	0x00737265
     708:	61697262 	cmnvs	r9, r2, ror #4
     70c:	6e756a6e 	vsubvs.f32	s13, s10, s29
     710:	7365442f 	cmnvc	r5, #788529152	; 0x2f000000
     714:	706f746b 	rsbvc	r7, pc, fp, ror #8
     718:	6863732f 	stmdavs	r3!, {r0, r1, r2, r3, r5, r8, r9, ip, sp, lr}^
     71c:	2f6c6f6f 	svccs	0x006c6f6f
     720:	746e6957 	strbtvc	r6, [lr], #-2391	; 0x957
     724:	39317265 	ldmdbcc	r1!, {r0, r2, r5, r6, r9, ip, sp, lr}
     728:	432f3032 	teqmi	pc, #50	; 0x32
     72c:	30343153 	eorscc	r3, r4, r3, asr r1
     730:	73632f45 	cmnvc	r3, #276	; 0x114
     734:	65303431 	ldrvs	r3, [r0, #-1073]!	; 0x431
     738:	7730322d 	ldrvc	r3, [r0, -sp, lsr #4]!
     73c:	6c2f6e69 	stcvs	14, cr6, [pc], #-420	; 5a0 <_start-0x7a60>
     740:	69706269 	ldmdbvs	r0!, {r0, r3, r5, r6, r9, sp, lr}^
     744:	69740000 	ldmdbvs	r4!, {}^	; <UNPREDICTABLE>
     748:	2e72656d 	cdpcs	5, 7, cr6, cr2, cr13, {3}
     74c:	00010063 	andeq	r0, r1, r3, rrx
     750:	69707200 	ldmdbvs	r0!, {r9, ip, sp, lr}^
     754:	0200682e 	andeq	r6, r0, #3014656	; 0x2e0000
     758:	00000000 	andeq	r0, r0, r0
     75c:	87c00205 	strbhi	r0, [r0, r5, lsl #4]
     760:	13160000 	tstne	r6, #0
     764:	02002d2f 	andeq	r2, r0, #3008	; 0xbc0
     768:	2e060104 	adfcss	f0, f6, f4
     76c:	2f316806 	svccs	0x00316806
     770:	31324d4b 	teqcc	r2, fp, asr #26
     774:	2f4c4b30 	svccs	0x004c4b30
     778:	842f2f6a 	strthi	r2, [pc], #-3946	; 780 <_start-0x7880>
     77c:	0008022f 	andeq	r0, r8, pc, lsr #4
     780:	017f0101 	cmneq	pc, r1, lsl #2
     784:	00020000 	andeq	r0, r2, r0
     788:	000000ca 	andeq	r0, r0, sl, asr #1
     78c:	0efb0102 	cdpeq	1, 15, cr0, cr11, cr2, {0}
     790:	0101000d 	tsteq	r1, sp
     794:	00000101 	andeq	r0, r0, r1, lsl #2
     798:	00000100 	andeq	r0, r0, r0, lsl #2
     79c:	2d796d01 	ldclcs	13, cr6, [r9, #-4]!
     7a0:	00637273 	rsbeq	r7, r3, r3, ror r2
     7a4:	6573552f 	ldrbvs	r5, [r3, #-1327]!	; 0x52f
     7a8:	622f7372 	eorvs	r7, pc, #-939524095	; 0xc8000001
     7ac:	6e616972 	mcrvs	9, 3, r6, cr1, cr2, {3}
     7b0:	2f6e756a 	svccs	0x006e756a
     7b4:	6b736544 	blvs	1cd9ccc <__bss_end__+0x1ccff0c>
     7b8:	2f706f74 	svccs	0x00706f74
     7bc:	6f686373 	svcvs	0x00686373
     7c0:	572f6c6f 	strpl	r6, [pc, -pc, ror #24]!
     7c4:	65746e69 	ldrbvs	r6, [r4, #-3689]!	; 0xe69
     7c8:	32393172 	eorscc	r3, r9, #-2147483620	; 0x8000001c
     7cc:	53432f30 	movtpl	r2, #16176	; 0x3f30
     7d0:	45303431 	ldrmi	r3, [r0, #-1073]!	; 0x431
     7d4:	3173632f 	cmncc	r3, pc, lsr #6
     7d8:	2d653034 	stclcs	0, cr3, [r5, #-208]!	; 0xffffff30
     7dc:	69773032 	ldmdbvs	r7!, {r1, r4, r5, ip, sp}^
     7e0:	696c2f6e 	stmdbvs	ip!, {r1, r2, r3, r5, r6, r8, r9, sl, fp, sp}^
     7e4:	2f697062 	svccs	0x00697062
     7e8:	34317363 	ldrtcc	r7, [r1], #-867	; 0x363
     7ec:	732d6530 	teqvc	sp, #48, 10	; 0xc000000
     7f0:	2f006372 	svccs	0x00006372
     7f4:	72657355 	rsbvc	r7, r5, #1409286145	; 0x54000001
     7f8:	72622f73 	rsbvc	r2, r2, #460	; 0x1cc
     7fc:	6a6e6169 	bvs	1b98da8 <__bss_end__+0x1b8efe8>
     800:	442f6e75 	strtmi	r6, [pc], #-3701	; 808 <_start-0x77f8>
     804:	746b7365 	strbtvc	r7, [fp], #-869	; 0x365
     808:	732f706f 	teqvc	pc, #111	; 0x6f
     80c:	6f6f6863 	svcvs	0x006f6863
     810:	69572f6c 	ldmdbvs	r7, {r2, r3, r5, r6, r8, r9, sl, fp, sp}^
     814:	7265746e 	rsbvc	r7, r5, #1845493760	; 0x6e000000
     818:	30323931 	eorscc	r3, r2, r1, lsr r9
     81c:	3153432f 	cmpcc	r3, pc, lsr #6
     820:	2f453034 	svccs	0x00453034
     824:	34317363 	ldrtcc	r7, [r1], #-867	; 0x363
     828:	322d6530 	eorcc	r6, sp, #48, 10	; 0xc000000
     82c:	6e697730 	mcrvs	7, 3, r7, cr9, cr0, {1}
     830:	62696c2f 	rsbvs	r6, r9, #12032	; 0x2f00
     834:	00006970 	andeq	r6, r0, r0, ror r9
     838:	6f697067 	svcvs	0x00697067
     83c:	0100632e 	tsteq	r0, lr, lsr #6
     840:	70670000 	rsbvc	r0, r7, r0
     844:	682e6f69 	stmdavs	lr!, {r0, r3, r5, r6, r8, r9, sl, fp, sp, lr}
     848:	00000200 	andeq	r0, r0, r0, lsl #4
     84c:	2e697072 	mcrcs	0, 3, r7, cr9, cr2, {3}
     850:	00030068 	andeq	r0, r3, r8, rrx
     854:	05000000 	streq	r0, [r0, #-0]
     858:	00884802 	addeq	r4, r8, r2, lsl #16
     85c:	013e0300 	teqeq	lr, r0, lsl #6
     860:	0869504e 	stmdaeq	r9!, {r1, r2, r3, r6, ip, lr}^
     864:	67676721 	strbvs	r6, [r7, -r1, lsr #14]!
     868:	32676767 	rsbcc	r6, r7, #27000832	; 0x19c0000
     86c:	dc22084b 	stcle	8, cr0, [r2], #-300	; 0xfffffed4
     870:	4e135131 	mrcmi	1, 0, r5, cr3, cr1, {1}
     874:	31be3050 			; <UNDEFINED> instruction: 0x31be3050
     878:	4f4d1350 	svcmi	0x004d1350
     87c:	504cc030 	subpl	ip, ip, r0, lsr r0
     880:	67210869 	strvs	r0, [r1, -r9, ror #16]!
     884:	67676767 	strbvs	r6, [r7, -r7, ror #14]!
     888:	084b3267 	stmdaeq	fp, {r0, r1, r2, r5, r6, r9, ip, sp}^
     88c:	504ca421 	subpl	sl, ip, r1, lsr #8
     890:	0369842f 	cmneq	r9, #788529152	; 0x2f000000
     894:	0c038275 	sfmeq	f0, 1, [r3], {117}	; 0x75
     898:	4e304d2e 	cdpmi	13, 3, cr4, cr0, cr14, {1}
     89c:	6a4d4c4b 	bvs	13539d0 <__bss_end__+0x1349c10>
     8a0:	2108696b 	tstcs	r8, fp, ror #18
     8a4:	67676767 	strbvs	r6, [r7, -r7, ror #14]!
     8a8:	4b326767 	blmi	c9a64c <__bss_end__+0xc9088c>
     8ac:	30c02208 	sbccc	r2, r0, r8, lsl #4
     8b0:	504e1351 	subpl	r1, lr, r1, asr r3
     8b4:	ba180330 	blt	60157c <__bss_end__+0x5f77bc>
     8b8:	2f4c9f31 	svccs	0x004c9f31
     8bc:	2f4e4d52 	svccs	0x004e4d52
     8c0:	684b674b 	stmdavs	fp, {r0, r1, r3, r6, r8, r9, sl, sp, lr}^
     8c4:	2f4c6767 	svccs	0x004c6767
     8c8:	6e4b2f67 	cdpvs	15, 4, cr2, cr11, cr7, {3}
     8cc:	4b2f4e4c 	blmi	bd4204 <__bss_end__+0xbca444>
     8d0:	67684b67 	strbvs	r4, [r8, -r7, ror #22]!
     8d4:	672f4c67 	strvs	r4, [pc, -r7, ror #24]!
     8d8:	4b6d4b2f 	blmi	1b5359c <__bss_end__+0x1b497dc>
     8dc:	674b2f4e 	strbvs	r2, [fp, -lr, asr #30]
     8e0:	01040200 	mrseq	r0, R12_usr
     8e4:	68066606 	stmdavs	r6, {r1, r2, r9, sl, sp, lr}
     8e8:	02002f9f 	andeq	r2, r0, #636	; 0x27c
     8ec:	4a060104 	bmi	180d04 <__bss_end__+0x176f44>
     8f0:	032f6806 	teqeq	pc, #393216	; 0x60000
     8f4:	0e034a73 	mcreq	10, 0, r4, cr3, cr3, {3}
     8f8:	4e4c4d2e 	cdpmi	13, 4, cr4, cr12, cr14, {1}
     8fc:	bcbc4b2f 	fldmiaxlt	ip!, {d4-d26}	;@ Deprecated
     900:	01000602 	tsteq	r0, r2, lsl #12
     904:	00034901 	andeq	r4, r3, r1, lsl #18
     908:	bd000200 	sfmlt	f0, 4, [r0, #-0]
     90c:	02000001 	andeq	r0, r0, #1
     910:	0d0efb01 	vstreq	d15, [lr, #-4]
     914:	01010100 	mrseq	r0, (UNDEF: 17)
     918:	00000001 	andeq	r0, r0, r1
     91c:	01000001 	tsteq	r0, r1
     920:	732d796d 	teqvc	sp, #1785856	; 0x1b4000
     924:	2f006372 	svccs	0x00006372
     928:	72657355 	rsbvc	r7, r5, #1409286145	; 0x54000001
     92c:	72622f73 	rsbvc	r2, r2, #460	; 0x1cc
     930:	6a6e6169 	bvs	1b98edc <__bss_end__+0x1b8f11c>
     934:	442f6e75 	strtmi	r6, [pc], #-3701	; 93c <_start-0x76c4>
     938:	746b7365 	strbtvc	r7, [fp], #-869	; 0x365
     93c:	732f706f 	teqvc	pc, #111	; 0x6f
     940:	6f6f6863 	svcvs	0x006f6863
     944:	69572f6c 	ldmdbvs	r7, {r2, r3, r5, r6, r8, r9, sl, fp, sp}^
     948:	7265746e 	rsbvc	r7, r5, #1845493760	; 0x6e000000
     94c:	30323931 	eorscc	r3, r2, r1, lsr r9
     950:	3153432f 	cmpcc	r3, pc, lsr #6
     954:	2f453034 	svccs	0x00453034
     958:	34317363 	ldrtcc	r7, [r1], #-867	; 0x363
     95c:	322d6530 	eorcc	r6, sp, #48, 10	; 0xc000000
     960:	6e697730 	mcrvs	7, 3, r7, cr9, cr0, {1}
     964:	62696c2f 	rsbvs	r6, r9, #12032	; 0x2f00
     968:	632f6970 	teqvs	pc, #112, 18	; 0x1c0000
     96c:	30343173 	eorscc	r3, r4, r3, ror r1
     970:	72732d65 	rsbsvc	r2, r3, #6464	; 0x1940
     974:	752f0063 	strvc	r0, [pc, #-99]!	; 919 <_start-0x76e7>
     978:	6c2f7273 	sfmvs	f7, 4, [pc], #-460	; 7b4 <_start-0x784c>
     97c:	6c61636f 	stclvs	3, cr6, [r1], #-444	; 0xfffffe44
     980:	6c65432f 	stclvs	3, cr4, [r5], #-188	; 0xffffff44
     984:	2f72616c 	svccs	0x0072616c
     988:	2d6d7261 	sfmcs	f7, 2, [sp, #-388]!	; 0xfffffe7c
     98c:	656e6f6e 	strbvs	r6, [lr, #-3950]!	; 0xf6e
     990:	6261652d 	rsbvs	r6, r1, #188743680	; 0xb400000
     994:	2e342f69 	cdpcs	15, 3, cr2, cr4, cr9, {3}
     998:	2d332e38 	ldccs	14, cr2, [r3, #-224]!	; 0xffffff20
     99c:	37317363 	ldrcc	r7, [r1, -r3, ror #6]!
     9a0:	6c2f6530 	cfstr32vs	mvfx6, [pc], #-192	; 8e8 <_start-0x7718>
     9a4:	672f6269 	strvs	r6, [pc, -r9, ror #4]!
     9a8:	612f6363 	teqvs	pc, r3, ror #6
     9ac:	6e2d6d72 	mcrvs	13, 1, r6, cr13, cr2, {3}
     9b0:	2d656e6f 	stclcs	14, cr6, [r5, #-444]!	; 0xfffffe44
     9b4:	69626165 	stmdbvs	r2!, {r0, r2, r5, r6, r8, sp, lr}^
     9b8:	382e342f 	stmdacc	lr!, {r0, r1, r2, r3, r5, sl, ip, sp}
     9bc:	692f332e 	stmdbvs	pc!, {r1, r2, r3, r5, r8, r9, ip, sp}	; <UNPREDICTABLE>
     9c0:	756c636e 	strbvc	r6, [ip, #-878]!	; 0x36e
     9c4:	2f006564 	svccs	0x00006564
     9c8:	72657355 	rsbvc	r7, r5, #1409286145	; 0x54000001
     9cc:	72622f73 	rsbvc	r2, r2, #460	; 0x1cc
     9d0:	6a6e6169 	bvs	1b98f7c <__bss_end__+0x1b8f1bc>
     9d4:	442f6e75 	strtmi	r6, [pc], #-3701	; 9dc <_start-0x7624>
     9d8:	746b7365 	strbtvc	r7, [fp], #-869	; 0x365
     9dc:	732f706f 	teqvc	pc, #111	; 0x6f
     9e0:	6f6f6863 	svcvs	0x006f6863
     9e4:	69572f6c 	ldmdbvs	r7, {r2, r3, r5, r6, r8, r9, sl, fp, sp}^
     9e8:	7265746e 	rsbvc	r7, r5, #1845493760	; 0x6e000000
     9ec:	30323931 	eorscc	r3, r2, r1, lsr r9
     9f0:	3153432f 	cmpcc	r3, pc, lsr #6
     9f4:	2f453034 	svccs	0x00453034
     9f8:	34317363 	ldrtcc	r7, [r1], #-867	; 0x363
     9fc:	322d6530 	eorcc	r6, sp, #48, 10	; 0xc000000
     a00:	6e697730 	mcrvs	7, 3, r7, cr9, cr0, {1}
     a04:	62696c2f 	rsbvs	r6, r9, #12032	; 0x2f00
     a08:	2f006970 	svccs	0x00006970
     a0c:	72657355 	rsbvc	r7, r5, #1409286145	; 0x54000001
     a10:	72622f73 	rsbvc	r2, r2, #460	; 0x1cc
     a14:	6a6e6169 	bvs	1b98fc0 <__bss_end__+0x1b8f200>
     a18:	442f6e75 	strtmi	r6, [pc], #-3701	; a20 <_start-0x75e0>
     a1c:	746b7365 	strbtvc	r7, [fp], #-869	; 0x365
     a20:	732f706f 	teqvc	pc, #111	; 0x6f
     a24:	6f6f6863 	svcvs	0x006f6863
     a28:	69572f6c 	ldmdbvs	r7, {r2, r3, r5, r6, r8, r9, sl, fp, sp}^
     a2c:	7265746e 	rsbvc	r7, r5, #1845493760	; 0x6e000000
     a30:	30323931 	eorscc	r3, r2, r1, lsr r9
     a34:	3153432f 	cmpcc	r3, pc, lsr #6
     a38:	2f453034 	svccs	0x00453034
     a3c:	34317363 	ldrtcc	r7, [r1], #-867	; 0x363
     a40:	322d6530 	eorcc	r6, sp, #48, 10	; 0xc000000
     a44:	6e697730 	mcrvs	7, 3, r7, cr9, cr0, {1}
     a48:	62696c2f 	rsbvs	r6, r9, #12032	; 0x2f00
     a4c:	6c2f6970 	stcvs	9, cr6, [pc], #-448	; 894 <_start-0x776c>
     a50:	00636269 	rsbeq	r6, r3, r9, ror #4
     a54:	2d777300 	ldclcs	3, cr7, [r7, #-0]
     a58:	74726175 	ldrbtvc	r6, [r2], #-373	; 0x175
     a5c:	0100632e 	tsteq	r0, lr, lsr #6
     a60:	79630000 	stmdbvc	r3!, {}^	; <UNPREDICTABLE>
     a64:	2d656c63 	stclcs	12, cr6, [r5, #-396]!	; 0xfffffe74
     a68:	6c697475 	cfstrdvs	mvd7, [r9], #-468	; 0xfffffe2c
     a6c:	0200682e 	andeq	r6, r0, #3014656	; 0x2e0000
     a70:	74730000 	ldrbtvc	r0, [r3], #-0
     a74:	746e6964 	strbtvc	r6, [lr], #-2404	; 0x964
     a78:	6363672d 	cmnvs	r3, #11796480	; 0xb40000
     a7c:	0300682e 	movweq	r6, #2094	; 0x82e
     a80:	77730000 	ldrbvc	r0, [r3, -r0]!
     a84:	7261752d 	rsbvc	r7, r1, #188743680	; 0xb400000
     a88:	00682e74 	rsbeq	r2, r8, r4, ror lr
     a8c:	73000002 	movwvc	r0, #2
     a90:	72616474 	rsbvc	r6, r1, #116, 8	; 0x74000000
     a94:	00682e67 	rsbeq	r2, r8, r7, ror #28
     a98:	67000003 	strvs	r0, [r0, -r3]
     a9c:	2e6f6970 	mcrcs	9, 3, r6, cr15, cr0, {3}
     aa0:	00020068 	andeq	r0, r2, r8, rrx
     aa4:	69707200 	ldmdbvs	r0!, {r9, ip, sp, lr}^
     aa8:	0400682e 	streq	r6, [r0], #-2094	; 0x82e
     aac:	61760000 	cmnvs	r6, r0
     ab0:	6972702d 	ldmdbvs	r2!, {r0, r2, r3, r5, ip, sp, lr}^
     ab4:	2e6b746e 	cdpcs	4, 6, cr7, cr11, cr14, {3}
     ab8:	00050068 	andeq	r0, r5, r8, rrx
     abc:	75623c00 	strbvc	r3, [r2, #-3072]!	; 0xc00
     ac0:	2d746c69 	ldclcs	12, cr6, [r4, #-420]!	; 0xfffffe5c
     ac4:	003e6e69 	eorseq	r6, lr, r9, ror #28
     ac8:	00000000 	andeq	r0, r0, r0
     acc:	e8020500 	stmda	r2, {r8, sl}
     ad0:	1a00008d 	bne	d0c <_start-0x72f4>
     ad4:	04302f4c 	ldrteq	r2, [r0], #-3916	; 0xf4c
     ad8:	2e0b0302 	cdpcs	3, 0, cr0, cr11, cr2, {0}
     adc:	04667303 	strbteq	r7, [r6], #-771	; 0x303
     ae0:	02048801 	andeq	r8, r4, #65536	; 0x10000
     ae4:	66730335 			; <UNDEFINED> instruction: 0x66730335
     ae8:	048a0104 	streq	r0, [sl], #260	; 0x104
     aec:	73033302 	movwvc	r3, #13058	; 0x3302
     af0:	03010466 	movweq	r0, #5222	; 0x1466
     af4:	0204820a 	andeq	r8, r4, #-1610612736	; 0xa0000000
     af8:	66730331 			; <UNDEFINED> instruction: 0x66730331
     afc:	0c030104 	stfeqs	f0, [r3], {4}
     b00:	2f020482 	svccs	0x00020482
     b04:	04667303 	strbteq	r7, [r6], #-771	; 0x303
     b08:	820e0301 	andhi	r0, lr, #67108864	; 0x4000000
     b0c:	032d0204 	teqeq	sp, #4, 4	; 0x40000000
     b10:	01046673 	tsteq	r4, r3, ror r6
     b14:	04821003 	streq	r1, [r2], #3
     b18:	73032b02 	movwvc	r2, #15106	; 0x3b02
     b1c:	03010466 	movweq	r0, #5222	; 0x1466
     b20:	02048212 	andeq	r8, r4, #536870913	; 0x20000001
     b24:	66730329 	ldrbtvs	r0, [r3], -r9, lsr #6
     b28:	14030104 	strne	r0, [r3], #-260	; 0x104
     b2c:	03020482 	movweq	r0, #9346	; 0x2482
     b30:	73032e79 	movwvc	r2, #15993	; 0x3e79
     b34:	03010466 	movweq	r0, #5222	; 0x1466
     b38:	02048216 	andeq	r8, r4, #1610612737	; 0x60000001
     b3c:	032e7703 	teqeq	lr, #786432	; 0xc0000
     b40:	01046673 	tsteq	r4, r3, ror r6
     b44:	03821803 	orreq	r1, r2, #196608	; 0x30000
     b48:	4d4b2e10 	stclmi	14, cr2, [fp, #-64]	; 0xffffffc0
     b4c:	4c2e7003 	stcmi	0, cr7, [lr], #-12
     b50:	03488384 	movteq	r8, #33668	; 0x8384
     b54:	314e2e0d 	cmpcc	lr, sp, lsl #28
     b58:	03020433 	movweq	r0, #9267	; 0x2433
     b5c:	01042e48 	tsteq	r4, r8, asr #28
     b60:	2f823a03 	svccs	0x00823a03
     b64:	45030204 	strmi	r0, [r3, #-516]	; 0x204
     b68:	03010466 	movweq	r0, #5222	; 0x1466
     b6c:	042f823d 	strteq	r8, [pc], #-573	; b74 <_start-0x748c>
     b70:	82420302 	subhi	r0, r2, #134217728	; 0x8000000
     b74:	c0030104 	andgt	r0, r3, r4, lsl #2
     b78:	042f8200 	strteq	r8, [pc], #-512	; b80 <_start-0x7480>
     b7c:	7fbf0302 	svcvc	0x00bf0302
     b80:	03010482 	movweq	r0, #5250	; 0x1482
     b84:	2f8200c3 	svccs	0x008200c3
     b88:	bc030204 	sfmlt	f0, 4, [r3], {4}
     b8c:	0104827f 	tsteq	r4, pc, ror r2
     b90:	8200c603 	andhi	ip, r0, #3145728	; 0x300000
     b94:	0302042f 	movweq	r0, #9263	; 0x242f
     b98:	04827fb9 	streq	r7, [r2], #4025	; 0xfb9
     b9c:	00c90301 	sbceq	r0, r9, r1, lsl #6
     ba0:	02042f82 	andeq	r2, r4, #520	; 0x208
     ba4:	827fb603 	rsbshi	fp, pc, #3145728	; 0x300000
     ba8:	cc030104 	stfgts	f0, [r3], {4}
     bac:	042f8200 	strteq	r8, [pc], #-512	; bb4 <_start-0x744c>
     bb0:	7fb30302 	svcvc	0x00b30302
     bb4:	03010482 	movweq	r0, #5250	; 0x1482
     bb8:	038200d0 	orreq	r0, r2, #208	; 0xd0
     bbc:	844c824c 	strbhi	r8, [ip], #-588	; 0x24c
     bc0:	36034883 	strcc	r4, [r3], -r3, lsl #17
     bc4:	54034e2e 	strpl	r4, [r3], #-3630	; 0xe2e
     bc8:	4a29034a 	bmi	a418f8 <__bss_end__+0xa37b38>
     bcc:	00bb3432 	adcseq	r3, fp, r2, lsr r4
     bd0:	06010402 	streq	r0, [r1], -r2, lsl #8
     bd4:	2108064a 	tstcs	r8, sl, asr #12
     bd8:	2cbb4b4e 	vldmiacs	fp!, {d4-<overflow reg d42>}
     bdc:	01040200 	mrseq	r0, R12_usr
     be0:	6d062e06 	stcvs	14, cr2, [r6, #-24]	; 0xffffffe8
     be4:	00a0dc4c 	adceq	sp, r0, ip, asr #24
     be8:	06010402 	streq	r0, [r1], -r2, lsl #8
     bec:	2108064a 	tstcs	r8, sl, asr #12
     bf0:	0402004d 	streq	r0, [r2], #-77	; 0x4d
     bf4:	02004b02 	andeq	r4, r0, #2048	; 0x800
     bf8:	00810204 	addeq	r0, r1, r4, lsl #4
     bfc:	06010402 	streq	r0, [r1], -r2, lsl #8
     c00:	4c4d062e 	mcrrmi	6, 2, r0, sp, cr14
     c04:	4b4bd8dd 	blmi	12f6f80 <__bss_end__+0x12ed1c0>
     c08:	002f6a4b 	eoreq	r6, pc, fp, asr #20
     c0c:	06010402 	streq	r0, [r1], -r2, lsl #8
     c10:	02008282 	andeq	r8, r0, #536870920	; 0x20000008
     c14:	009e0404 	addseq	r0, lr, r4, lsl #8
     c18:	4a010402 	bmi	41c28 <__bss_end__+0x37e68>
     c1c:	88230806 	stmdahi	r3!, {r1, r2, fp}
     c20:	4b4b2ff5 	blmi	12ccbfc <__bss_end__+0x12c2e3c>
     c24:	00674008 	rsbeq	r4, r7, r8
     c28:	2f020402 	svccs	0x00020402
     c2c:	02040200 	andeq	r0, r4, #0, 4
     c30:	04020049 	streq	r0, [r2], #-73	; 0x49
     c34:	062e0601 	strteq	r0, [lr], -r1, lsl #12
     c38:	4b863468 	blmi	fe18dde0 <__bss_end__+0xfe184020>
     c3c:	040200a0 	streq	r0, [r2], #-160	; 0xa0
     c40:	06660601 	strbteq	r0, [r6], -r1, lsl #12
     c44:	08682108 	stmdaeq	r8!, {r3, r8, sp}^
     c48:	4b674b3e 	blmi	19d3948 <__bss_end__+0x19c9b88>
     c4c:	000a02d8 	ldrdeq	r0, [sl], -r8
     c50:	008a0101 	addeq	r0, sl, r1, lsl #2
     c54:	00020000 	andeq	r0, r2, r0
     c58:	00000072 	andeq	r0, r0, r2, ror r0
     c5c:	0efb0102 	cdpeq	1, 15, cr0, cr11, cr2, {0}
     c60:	0101000d 	tsteq	r1, sp
     c64:	00000101 	andeq	r0, r0, r1, lsl #2
     c68:	00000100 	andeq	r0, r0, r0, lsl #2
     c6c:	62696c01 	rsbvs	r6, r9, #256	; 0x100
     c70:	552f0063 	strpl	r0, [pc, #-99]!	; c15 <_start-0x73eb>
     c74:	73726573 	cmnvc	r2, #482344960	; 0x1cc00000
     c78:	6972622f 	ldmdbvs	r2!, {r0, r1, r2, r3, r5, r9, sp, lr}^
     c7c:	756a6e61 	strbvc	r6, [sl, #-3681]!	; 0xe61
     c80:	65442f6e 	strbvs	r2, [r4, #-3950]	; 0xf6e
     c84:	6f746b73 	svcvs	0x00746b73
     c88:	63732f70 	cmnvs	r3, #112, 30	; 0x1c0
     c8c:	6c6f6f68 	stclvs	15, cr6, [pc], #-416	; af4 <_start-0x750c>
     c90:	6e69572f 	cdpvs	7, 6, cr5, cr9, cr15, {1}
     c94:	31726574 	cmncc	r2, r4, ror r5
     c98:	2f303239 	svccs	0x00303239
     c9c:	34315343 	ldrtcc	r5, [r1], #-835	; 0x343
     ca0:	632f4530 	teqvs	pc, #48, 10	; 0xc000000
     ca4:	30343173 	eorscc	r3, r4, r3, ror r1
     ca8:	30322d65 	eorscc	r2, r2, r5, ror #26
     cac:	2f6e6977 	svccs	0x006e6977
     cb0:	7062696c 	rsbvc	r6, r2, ip, ror #18
     cb4:	70000069 	andvc	r0, r0, r9, rrx
     cb8:	68637475 	stmdavs	r3!, {r0, r2, r4, r5, r6, sl, ip, sp, lr}^
     cbc:	632e7261 	teqvs	lr, #268435462	; 0x10000006
     cc0:	00000100 	andeq	r0, r0, r0, lsl #2
     cc4:	2e697072 	mcrcs	0, 3, r7, cr9, cr2, {3}
     cc8:	00020068 	andeq	r0, r2, r8, rrx
     ccc:	05000000 	streq	r0, [r0, #-0]
     cd0:	0094b402 	addseq	fp, r4, r2, lsl #8
     cd4:	6b4a1400 	blvs	1285cdc <__bss_end__+0x127bf1c>
     cd8:	0213bc13 	andseq	fp, r3, #4864	; 0x1300
     cdc:	01010008 	tsteq	r1, r8
     ce0:	00000128 	andeq	r0, r0, r8, lsr #2
     ce4:	010d0002 	tsteq	sp, r2
     ce8:	01020000 	mrseq	r0, (UNDEF: 2)
     cec:	000d0efb 	strdeq	r0, [sp], -fp
     cf0:	01010101 	tsteq	r1, r1, lsl #2
     cf4:	01000000 	mrseq	r0, (UNDEF: 0)
     cf8:	63010000 	movwvs	r0, #4096	; 0x1000
     cfc:	30343173 	eorscc	r3, r4, r3, ror r1
     d00:	72732d65 	rsbsvc	r2, r3, #6464	; 0x1940
     d04:	752f0063 	strvc	r0, [pc, #-99]!	; ca9 <_start-0x7357>
     d08:	6c2f7273 	sfmvs	f7, 4, [pc], #-460	; b44 <_start-0x74bc>
     d0c:	6c61636f 	stclvs	3, cr6, [r1], #-444	; 0xfffffe44
     d10:	6c65432f 	stclvs	3, cr4, [r5], #-188	; 0xffffff44
     d14:	2f72616c 	svccs	0x0072616c
     d18:	2d6d7261 	sfmcs	f7, 2, [sp, #-388]!	; 0xfffffe7c
     d1c:	656e6f6e 	strbvs	r6, [lr, #-3950]!	; 0xf6e
     d20:	6261652d 	rsbvs	r6, r1, #188743680	; 0xb400000
     d24:	2e342f69 	cdpcs	15, 3, cr2, cr4, cr9, {3}
     d28:	2d332e38 	ldccs	14, cr2, [r3, #-224]!	; 0xffffff20
     d2c:	37317363 	ldrcc	r7, [r1, -r3, ror #6]!
     d30:	6c2f6530 	cfstr32vs	mvfx6, [pc], #-192	; c78 <_start-0x7388>
     d34:	672f6269 	strvs	r6, [pc, -r9, ror #4]!
     d38:	612f6363 	teqvs	pc, r3, ror #6
     d3c:	6e2d6d72 	mcrvs	13, 1, r6, cr13, cr2, {3}
     d40:	2d656e6f 	stclcs	14, cr6, [r5, #-444]!	; 0xfffffe44
     d44:	69626165 	stmdbvs	r2!, {r0, r2, r5, r6, r8, sp, lr}^
     d48:	382e342f 	stmdacc	lr!, {r0, r1, r2, r3, r5, sl, ip, sp}
     d4c:	692f332e 	stmdbvs	pc!, {r1, r2, r3, r5, r8, r9, ip, sp}	; <UNPREDICTABLE>
     d50:	756c636e 	strbvc	r6, [ip, #-878]!	; 0x36e
     d54:	2f006564 	svccs	0x00006564
     d58:	2f727375 	svccs	0x00727375
     d5c:	61636f6c 	cmnvs	r3, ip, ror #30
     d60:	65432f6c 	strbvs	r2, [r3, #-3948]	; 0xf6c
     d64:	72616c6c 	rsbvc	r6, r1, #108, 24	; 0x6c00
     d68:	6d72612f 	ldfvse	f6, [r2, #-188]!	; 0xffffff44
     d6c:	6e6f6e2d 	cdpvs	14, 6, cr6, cr15, cr13, {1}
     d70:	61652d65 	cmnvs	r5, r5, ror #26
     d74:	342f6962 	strtcc	r6, [pc], #-2402	; d7c <_start-0x7284>
     d78:	332e382e 	teqcc	lr, #3014656	; 0x2e0000
     d7c:	3173632d 	cmncc	r3, sp, lsr #6
     d80:	2f653037 	svccs	0x00653037
     d84:	2d6d7261 	sfmcs	f7, 2, [sp, #-388]!	; 0xfffffe7c
     d88:	656e6f6e 	strbvs	r6, [lr, #-3950]!	; 0xf6e
     d8c:	6261652d 	rsbvs	r6, r1, #188743680	; 0xb400000
     d90:	6e692f69 	cdpvs	15, 6, cr2, cr9, cr9, {3}
     d94:	64756c63 	ldrbtvs	r6, [r5], #-3171	; 0xc63
     d98:	63000065 	movwvs	r0, #101	; 0x65
     d9c:	72746e6f 	rsbsvc	r6, r4, #1776	; 0x6f0
     da0:	622d6c6f 	eorvs	r6, sp, #28416	; 0x6f00
     da4:	6b636f6c 	blvs	18dcb5c <__bss_end__+0x18d2d9c>
     da8:	0100632e 	tsteq	r0, lr, lsr #6
     dac:	74730000 	ldrbtvc	r0, [r3], #-0
     db0:	66656464 	strbtvs	r6, [r5], -r4, ror #8
     db4:	0200682e 	andeq	r6, r0, #3014656	; 0x2e0000
     db8:	74730000 	ldrbtvc	r0, [r3], #-0
     dbc:	746e6964 	strbtvc	r6, [lr], #-2404	; 0x964
     dc0:	6363672d 	cmnvs	r3, #11796480	; 0xb40000
     dc4:	0200682e 	andeq	r6, r0, #3014656	; 0x2e0000
     dc8:	77730000 	ldrbvc	r0, [r3, -r0]!
     dcc:	7261752d 	rsbvc	r7, r1, #188743680	; 0xb400000
     dd0:	00682e74 	rsbeq	r2, r8, r4, ror lr
     dd4:	63000001 	movwvs	r0, #1
     dd8:	72746e6f 	rsbsvc	r6, r4, #1776	; 0x6f0
     ddc:	622d6c6f 	eorvs	r6, sp, #28416	; 0x6f00
     de0:	6b636f6c 	blvs	18dcb98 <__bss_end__+0x18d2dd8>
     de4:	0100682e 	tsteq	r0, lr, lsr #16
     de8:	74730000 	ldrbtvc	r0, [r3], #-0
     dec:	676e6972 			; <UNDEFINED> instruction: 0x676e6972
     df0:	0300682e 	movweq	r6, #2094	; 0x82e
     df4:	00000000 	andeq	r0, r0, r0
     df8:	94f00205 	ldrbtls	r0, [r0], #517	; 0x205
     dfc:	30160000 	andscc	r0, r6, r0
     e00:	144c6883 	strbne	r6, [ip], #-2179	; 0x883
     e04:	022f4b9f 	eoreq	r4, pc, #162816	; 0x27c00
     e08:	01010004 	tsteq	r1, r4
     e0c:	00000101 	andeq	r0, r0, r1, lsl #2
     e10:	00ca0002 	sbceq	r0, sl, r2
     e14:	01020000 	mrseq	r0, (UNDEF: 2)
     e18:	000d0efb 	strdeq	r0, [sp], -fp
     e1c:	01010101 	tsteq	r1, r1, lsl #2
     e20:	01000000 	mrseq	r0, (UNDEF: 0)
     e24:	6d010000 	stcvs	0, cr0, [r1, #-0]
     e28:	72732d79 	rsbsvc	r2, r3, #7744	; 0x1e40
     e2c:	552f0063 	strpl	r0, [pc, #-99]!	; dd1 <_start-0x722f>
     e30:	73726573 	cmnvc	r2, #482344960	; 0x1cc00000
     e34:	6972622f 	ldmdbvs	r2!, {r0, r1, r2, r3, r5, r9, sp, lr}^
     e38:	756a6e61 	strbvc	r6, [sl, #-3681]!	; 0xe61
     e3c:	65442f6e 	strbvs	r2, [r4, #-3950]	; 0xf6e
     e40:	6f746b73 	svcvs	0x00746b73
     e44:	63732f70 	cmnvs	r3, #112, 30	; 0x1c0
     e48:	6c6f6f68 	stclvs	15, cr6, [pc], #-416	; cb0 <_start-0x7350>
     e4c:	6e69572f 	cdpvs	7, 6, cr5, cr9, cr15, {1}
     e50:	31726574 	cmncc	r2, r4, ror r5
     e54:	2f303239 	svccs	0x00303239
     e58:	34315343 	ldrtcc	r5, [r1], #-835	; 0x343
     e5c:	632f4530 	teqvs	pc, #48, 10	; 0xc000000
     e60:	30343173 	eorscc	r3, r4, r3, ror r1
     e64:	30322d65 	eorscc	r2, r2, r5, ror #26
     e68:	2f6e6977 	svccs	0x006e6977
     e6c:	7062696c 	rsbvc	r6, r2, ip, ror #18
     e70:	73632f69 	cmnvc	r3, #420	; 0x1a4
     e74:	65303431 	ldrvs	r3, [r0, #-1073]!	; 0x431
     e78:	6372732d 	cmnvs	r2, #-1275068416	; 0xb4000000
     e7c:	73552f00 	cmpvc	r5, #0, 30
     e80:	2f737265 	svccs	0x00737265
     e84:	61697262 	cmnvs	r9, r2, ror #4
     e88:	6e756a6e 	vsubvs.f32	s13, s10, s29
     e8c:	7365442f 	cmnvc	r5, #788529152	; 0x2f000000
     e90:	706f746b 	rsbvc	r7, pc, fp, ror #8
     e94:	6863732f 	stmdavs	r3!, {r0, r1, r2, r3, r5, r8, r9, ip, sp, lr}^
     e98:	2f6c6f6f 	svccs	0x006c6f6f
     e9c:	746e6957 	strbtvc	r6, [lr], #-2391	; 0x957
     ea0:	39317265 	ldmdbcc	r1!, {r0, r2, r5, r6, r9, ip, sp, lr}
     ea4:	432f3032 	teqmi	pc, #50	; 0x32
     ea8:	30343153 	eorscc	r3, r4, r3, asr r1
     eac:	73632f45 	cmnvc	r3, #276	; 0x114
     eb0:	65303431 	ldrvs	r3, [r0, #-1073]!	; 0x431
     eb4:	7730322d 	ldrvc	r3, [r0, -sp, lsr #4]!
     eb8:	6c2f6e69 	stcvs	14, cr6, [pc], #-420	; d1c <_start-0x72e4>
     ebc:	69706269 	ldmdbvs	r0!, {r0, r3, r5, r6, r9, sp, lr}^
     ec0:	61750000 	cmnvs	r5, r0
     ec4:	632e7472 	teqvs	lr, #1912602624	; 0x72000000
     ec8:	00000100 	andeq	r0, r0, r0, lsl #2
     ecc:	6f697067 	svcvs	0x00697067
     ed0:	0200682e 	andeq	r6, r0, #3014656	; 0x2e0000
     ed4:	70720000 	rsbsvc	r0, r2, r0
     ed8:	00682e69 	rsbeq	r2, r8, r9, ror #28
     edc:	00000003 	andeq	r0, r0, r3
     ee0:	40020500 	andmi	r0, r2, r0, lsl #10
     ee4:	03000095 	movweq	r0, #149	; 0x95
     ee8:	33300136 	teqcc	r0, #-2147483635	; 0x8000000d
     eec:	d8306d67 	ldmdale	r0!, {r0, r1, r2, r5, r6, r8, sl, fp, sp, lr}
     ef0:	67676730 			; <UNDEFINED> instruction: 0x67676730
     ef4:	86686767 	strbthi	r6, [r8], -r7, ror #14
     ef8:	306a672f 	rsbcc	r6, sl, pc, lsr #14
     efc:	2f696767 	svccs	0x00696767
     f00:	674c6a67 	strbvs	r6, [ip, -r7, ror #20]
     f04:	302f2fc1 	eorcc	r2, pc, r1, asr #31
     f08:	3049682f 	subcc	r6, r9, pc, lsr #16
     f0c:	01000202 	tsteq	r0, r2, lsl #4
     f10:	0000ec01 	andeq	lr, r0, r1, lsl #24
     f14:	d0000200 	andle	r0, r0, r0, lsl #4
     f18:	02000000 	andeq	r0, r0, #0
     f1c:	0d0efb01 	vstreq	d15, [lr, #-4]
     f20:	01010100 	mrseq	r0, (UNDEF: 17)
     f24:	00000001 	andeq	r0, r0, r1
     f28:	01000001 	tsteq	r0, r1
     f2c:	6362696c 	cmnvs	r2, #108, 18	; 0x1b0000
     f30:	73752f00 	cmnvc	r5, #0, 30
     f34:	6f6c2f72 	svcvs	0x006c2f72
     f38:	2f6c6163 	svccs	0x006c6163
     f3c:	6c6c6543 	cfstr64vs	mvdx6, [ip], #-268	; 0xfffffef4
     f40:	612f7261 	teqvs	pc, r1, ror #4
     f44:	6e2d6d72 	mcrvs	13, 1, r6, cr13, cr2, {3}
     f48:	2d656e6f 	stclcs	14, cr6, [r5, #-444]!	; 0xfffffe44
     f4c:	69626165 	stmdbvs	r2!, {r0, r2, r5, r6, r8, sp, lr}^
     f50:	382e342f 	stmdacc	lr!, {r0, r1, r2, r3, r5, sl, ip, sp}
     f54:	632d332e 	teqvs	sp, #-1207959552	; 0xb8000000
     f58:	30373173 	eorscc	r3, r7, r3, ror r1
     f5c:	696c2f65 	stmdbvs	ip!, {r0, r2, r5, r6, r8, r9, sl, fp, sp}^
     f60:	63672f62 	cmnvs	r7, #392	; 0x188
     f64:	72612f63 	rsbvc	r2, r1, #396	; 0x18c
     f68:	6f6e2d6d 	svcvs	0x006e2d6d
     f6c:	652d656e 	strvs	r6, [sp, #-1390]!	; 0x56e
     f70:	2f696261 	svccs	0x00696261
     f74:	2e382e34 	mrccs	14, 1, r2, cr8, cr4, {1}
     f78:	6e692f33 	mcrvs	15, 3, r2, cr9, cr3, {1}
     f7c:	64756c63 	ldrbtvs	r6, [r5], #-3171	; 0xc63
     f80:	752f0065 	strvc	r0, [pc, #-101]!	; f23 <_start-0x70dd>
     f84:	6c2f7273 	sfmvs	f7, 4, [pc], #-460	; dc0 <_start-0x7240>
     f88:	6c61636f 	stclvs	3, cr6, [r1], #-444	; 0xfffffe44
     f8c:	6c65432f 	stclvs	3, cr4, [r5], #-188	; 0xffffff44
     f90:	2f72616c 	svccs	0x0072616c
     f94:	2d6d7261 	sfmcs	f7, 2, [sp, #-388]!	; 0xfffffe7c
     f98:	656e6f6e 	strbvs	r6, [lr, #-3950]!	; 0xf6e
     f9c:	6261652d 	rsbvs	r6, r1, #188743680	; 0xb400000
     fa0:	2e342f69 	cdpcs	15, 3, cr2, cr4, cr9, {3}
     fa4:	2d332e38 	ldccs	14, cr2, [r3, #-224]!	; 0xffffff20
     fa8:	37317363 	ldrcc	r7, [r1, -r3, ror #6]!
     fac:	612f6530 	teqvs	pc, r0, lsr r5	; <UNPREDICTABLE>
     fb0:	6e2d6d72 	mcrvs	13, 1, r6, cr13, cr2, {3}
     fb4:	2d656e6f 	stclcs	14, cr6, [r5, #-444]!	; 0xfffffe44
     fb8:	69626165 	stmdbvs	r2!, {r0, r2, r5, r6, r8, sp, lr}^
     fbc:	636e692f 	cmnvs	lr, #770048	; 0xbc000
     fc0:	6564756c 	strbvs	r7, [r4, #-1388]!	; 0x56c
     fc4:	656d0000 	strbvs	r0, [sp, #-0]!
     fc8:	7465736d 	strbtvc	r7, [r5], #-877	; 0x36d
     fcc:	0100632e 	tsteq	r0, lr, lsr #6
     fd0:	74730000 	ldrbtvc	r0, [r3], #-0
     fd4:	66656464 	strbtvs	r6, [r5], -r4, ror #8
     fd8:	0200682e 	andeq	r6, r0, #3014656	; 0x2e0000
     fdc:	74730000 	ldrbtvc	r0, [r3], #-0
     fe0:	676e6972 			; <UNDEFINED> instruction: 0x676e6972
     fe4:	0300682e 	movweq	r6, #2094	; 0x82e
     fe8:	00000000 	andeq	r0, r0, r0
     fec:	96940205 	ldrls	r0, [r4], r5, lsl #4
     ff0:	13140000 	tstne	r4, #0
     ff4:	02002f4c 	andeq	r2, r0, #76, 30	; 0x130
     ff8:	4d490104 	stfmie	f0, [r9, #-16]
     ffc:	01000202 	tsteq	r0, r2, lsl #4
    1000:	Address 0x0000000000001000 is out of bounds.


Disassembly of section .debug_str:

00000000 <.debug_str>:
   0:	74736574 	ldrbtvc	r6, [r3], #-1396	; 0x574
   4:	6e65672d 	cdpvs	7, 6, cr6, cr5, cr13, {1}
   8:	6700632e 	strvs	r6, [r0, -lr, lsr #6]
   c:	5f6f6970 	svcpl	0x006f6970
  10:	74697277 	strbtvc	r7, [r9], #-631	; 0x277
  14:	6f630065 	svcvs	0x00630065
  18:	00746e75 	rsbseq	r6, r4, r5, ror lr
  1c:	74736574 	ldrbtvc	r6, [r3], #-1396	; 0x574
  20:	6e65675f 	mcrvs	7, 3, r6, cr5, cr15, {2}
  24:	72696600 	rsbvc	r6, r9, #0, 12
  28:	2f007473 	svccs	0x00007473
  2c:	72657355 	rsbvc	r7, r5, #1409286145	; 0x54000001
  30:	72622f73 	rsbvc	r2, r2, #460	; 0x1cc
  34:	6a6e6169 	bvs	1b985e0 <__bss_end__+0x1b8e820>
  38:	442f6e75 	strtmi	r6, [pc], #-3701	; 40 <_start-0x7fc0>
  3c:	746b7365 	strbtvc	r7, [fp], #-869	; 0x365
  40:	732f706f 	teqvc	pc, #111	; 0x6f
  44:	6f6f6863 	svcvs	0x006f6863
  48:	70532f6c 	subsvc	r2, r3, ip, ror #30
  4c:	676e6972 			; <UNDEFINED> instruction: 0x676e6972
  50:	30323931 	eorscc	r3, r2, r1, lsr r9
  54:	3253432f 	subscc	r4, r3, #-1140850688	; 0xbc000000
  58:	584c3034 	stmdapl	ip, {r2, r4, r5, ip, sp}^
  5c:	3273632f 	rsbscc	r6, r3, #-1140850688	; 0xbc000000
  60:	786c3034 	stmdavc	ip!, {r2, r4, r5, ip, sp}^
  64:	7330322d 	teqvc	r0, #-805306366	; 0xd0000002
  68:	6c2f7270 	sfmvs	f7, 4, [pc], #-448	; fffffeb0 <__bss_end__+0xffff60f0>
  6c:	2f736261 	svccs	0x00736261
  70:	6f6c2d33 	svcvs	0x006c2d33
  74:	2d636967 	stclcs	9, cr6, [r3, #-412]!	; 0xfffffe64
  78:	6c616e61 	stclvs	14, cr6, [r1], #-388	; 0xfffffe7c
  7c:	72657a79 	rsbvc	r7, r5, #495616	; 0x79000
  80:	646f632f 	strbtvs	r6, [pc], #-815	; 88 <_start-0x7f78>
  84:	65742f65 	ldrbvs	r2, [r4, #-3941]!	; 0xf65
  88:	672d7473 			; <UNDEFINED> instruction: 0x672d7473
  8c:	6e006e65 	cdpvs	14, 0, cr6, cr0, cr5, {3}
  90:	616d746f 	cmnvs	sp, pc, ror #8
  94:	75006e69 	strvc	r6, [r0, #-3689]	; 0xe69
  98:	6769736e 	strbvs	r7, [r9, -lr, ror #6]!
  9c:	2064656e 	rsbcs	r6, r4, lr, ror #10
  a0:	72616863 	rsbvc	r6, r1, #6488064	; 0x630000
  a4:	656c6300 	strbvs	r6, [ip, #-768]!	; 0x300
  a8:	725f6e61 	subsvc	r6, pc, #1552	; 0x610
  ac:	6f6f6265 	svcvs	0x006f6265
  b0:	68730074 	ldmdavs	r3!, {r2, r4, r5, r6}^
  b4:	2074726f 	rsbscs	r7, r4, pc, ror #4
  b8:	69736e75 	ldmdbvs	r3!, {r0, r2, r4, r5, r6, r9, sl, fp, sp, lr}^
  bc:	64656e67 	strbtvs	r6, [r5], #-3687	; 0xe67
  c0:	746e6920 	strbtvc	r6, [lr], #-2336	; 0x920
  c4:	69706700 	ldmdbvs	r0!, {r8, r9, sl, sp, lr}^
  c8:	65735f6f 	ldrbvs	r5, [r3, #-3951]!	; 0xf6f
  cc:	756f5f74 	strbvc	r5, [pc, #-3956]!	; fffff160 <__bss_end__+0xffff53a0>
  d0:	74757074 	ldrbtvc	r7, [r5], #-116	; 0x74
  d4:	6e6f6c00 	cdpvs	12, 6, cr6, cr15, cr0, {0}
  d8:	6f6c2067 	svcvs	0x006c2067
  dc:	7520676e 	strvc	r6, [r0, #-1902]!	; 0x76e
  e0:	6769736e 	strbvs	r7, [r9, -lr, ror #6]!
  e4:	2064656e 	rsbcs	r6, r4, lr, ror #10
  e8:	00746e69 	rsbseq	r6, r4, r9, ror #28
  ec:	657a6973 	ldrbvs	r6, [sl, #-2419]!	; 0x973
  f0:	65707974 	ldrbvs	r7, [r0, #-2420]!	; 0x974
  f4:	6e6f6c00 	cdpvs	12, 6, cr6, cr15, cr0, {0}
  f8:	6f6c2067 	svcvs	0x006c2067
  fc:	6920676e 	stmdbvs	r0!, {r1, r2, r3, r5, r6, r8, r9, sl, sp, lr}
 100:	5f00746e 	svcpl	0x0000746e
 104:	0074756f 	rsbseq	r7, r4, pc, ror #10
 108:	20554e47 	subscs	r4, r5, r7, asr #28
 10c:	2e342043 	cdpcs	0, 3, cr2, cr4, cr3, {2}
 110:	20332e38 	eorscs	r2, r3, r8, lsr lr
 114:	70636d2d 	rsbvc	r6, r3, sp, lsr #26
 118:	72613d75 	rsbvc	r3, r1, #7488	; 0x1d40
 11c:	3731316d 	ldrcc	r3, [r1, -sp, ror #2]!
 120:	667a6a36 			; <UNDEFINED> instruction: 0x667a6a36
 124:	2d20732d 	stccs	3, cr7, [r0, #-180]!	; 0xffffff4c
 128:	6e75746d 	cdpvs	4, 7, cr7, cr5, cr13, {3}
 12c:	72613d65 	rsbvc	r3, r1, #6464	; 0x1940
 130:	3731316d 	ldrcc	r3, [r1, -sp, ror #2]!
 134:	667a6a36 			; <UNDEFINED> instruction: 0x667a6a36
 138:	2d20732d 	stccs	3, cr7, [r0, #-180]!	; 0xffffff4c
 13c:	62646767 	rsbvs	r6, r4, #27000832	; 0x19c0000
 140:	334f2d20 	movtcc	r2, #64800	; 0xfd20
 144:	74732d20 	ldrbtvc	r2, [r3], #-3360	; 0xd20
 148:	6e673d64 	cdpvs	13, 6, cr3, cr7, cr4, {3}
 14c:	20393975 	eorscs	r3, r9, r5, ror r9
 150:	7266662d 	rsbvc	r6, r6, #47185920	; 0x2d00000
 154:	74736565 	ldrbtvc	r6, [r3], #-1381	; 0x565
 158:	69646e61 	stmdbvs	r4!, {r0, r5, r6, r9, sl, fp, sp, lr}^
 15c:	7300676e 	movwvc	r6, #1902	; 0x76e
 160:	74726f68 	ldrbtvc	r6, [r2], #-3944	; 0xf68
 164:	746e6920 	strbtvc	r6, [lr], #-2336	; 0x920
 168:	6d617300 	stclvs	3, cr7, [r1, #-0]
 16c:	00656c70 	rsbeq	r6, r5, r0, ror ip
 170:	6379636e 	cmnvs	r9, #-1207959551	; 0xb8000001
 174:	5f00656c 	svcpl	0x0000656c
 178:	756e675f 	strbvc	r6, [lr, #-1887]!	; 0x75f
 17c:	61765f63 	cmnvs	r6, r3, ror #30
 180:	73696c5f 	cmnvc	r9, #24320	; 0x5f00
 184:	696c0074 	stmdbvs	ip!, {r2, r4, r5, r6}^
 188:	702f6362 	eorvc	r6, pc, r2, ror #6
 18c:	746e6972 	strbtvc	r6, [lr], #-2418	; 0x972
 190:	00632e6b 	rsbeq	r2, r3, fp, ror #28
 194:	20554e47 	subscs	r4, r5, r7, asr #28
 198:	2e342043 	cdpcs	0, 3, cr2, cr4, cr3, {2}
 19c:	20332e38 	eorscs	r2, r3, r8, lsr lr
 1a0:	70636d2d 	rsbvc	r6, r3, sp, lsr #26
 1a4:	72613d75 	rsbvc	r3, r1, #7488	; 0x1d40
 1a8:	3731316d 	ldrcc	r3, [r1, -sp, ror #2]!
 1ac:	667a6a36 			; <UNDEFINED> instruction: 0x667a6a36
 1b0:	2d20732d 	stccs	3, cr7, [r0, #-180]!	; 0xffffff4c
 1b4:	6e75746d 	cdpvs	4, 7, cr7, cr5, cr13, {3}
 1b8:	72613d65 	rsbvc	r3, r1, #6464	; 0x1940
 1bc:	3731316d 	ldrcc	r3, [r1, -sp, ror #2]!
 1c0:	667a6a36 			; <UNDEFINED> instruction: 0x667a6a36
 1c4:	2d20732d 	stccs	3, cr7, [r0, #-180]!	; 0xffffff4c
 1c8:	62646767 	rsbvs	r6, r4, #27000832	; 0x19c0000
 1cc:	674f2d20 	strbvs	r2, [pc, -r0, lsr #26]
 1d0:	74732d20 	ldrbtvc	r2, [r3], #-3360	; 0xd20
 1d4:	6e673d64 	cdpvs	13, 6, cr3, cr7, cr4, {3}
 1d8:	20393975 	eorscs	r3, r9, r5, ror r9
 1dc:	7266662d 	rsbvc	r6, r6, #47185920	; 0x2d00000
 1e0:	74736565 	ldrbtvc	r6, [r3], #-1381	; 0x565
 1e4:	69646e61 	stmdbvs	r4!, {r0, r5, r6, r9, sl, fp, sp, lr}^
 1e8:	7600676e 	strvc	r6, [r0], -lr, ror #14
 1ec:	72705f61 	rsbsvc	r5, r0, #388	; 0x184
 1f0:	6b746e69 	blvs	1d1bb9c <__bss_end__+0x1d11ddc>
 1f4:	765f5f00 	ldrbvc	r5, [pc], -r0, lsl #30
 1f8:	696c5f61 	stmdbvs	ip!, {r0, r5, r6, r8, r9, sl, fp, ip, lr}^
 1fc:	2f007473 	svccs	0x00007473
 200:	72657355 	rsbvc	r7, r5, #1409286145	; 0x54000001
 204:	72622f73 	rsbvc	r2, r2, #460	; 0x1cc
 208:	6a6e6169 	bvs	1b987b4 <__bss_end__+0x1b8e9f4>
 20c:	442f6e75 	strtmi	r6, [pc], #-3701	; 214 <_start-0x7dec>
 210:	746b7365 	strbtvc	r7, [fp], #-869	; 0x365
 214:	732f706f 	teqvc	pc, #111	; 0x6f
 218:	6f6f6863 	svcvs	0x006f6863
 21c:	69572f6c 	ldmdbvs	r7, {r2, r3, r5, r6, r8, r9, sl, fp, sp}^
 220:	7265746e 	rsbvc	r7, r5, #1845493760	; 0x6e000000
 224:	30323931 	eorscc	r3, r2, r1, lsr r9
 228:	3153432f 	cmpcc	r3, pc, lsr #6
 22c:	2f453034 	svccs	0x00453034
 230:	34317363 	ldrtcc	r7, [r1], #-867	; 0x363
 234:	322d6530 	eorcc	r6, sp, #48, 10	; 0xc000000
 238:	6e697730 	mcrvs	7, 3, r7, cr9, cr0, {1}
 23c:	62696c2f 	rsbvs	r6, r9, #12032	; 0x2f00
 240:	61006970 	tstvs	r0, r0, ror r9
 244:	00736772 	rsbseq	r6, r3, r2, ror r7
 248:	70615f5f 	rsbvc	r5, r1, pc, asr pc
 24c:	62696c00 	rsbvs	r6, r9, #0, 24
 250:	75702f63 	ldrbvc	r2, [r0, #-3939]!	; 0xf63
 254:	632e6b74 	teqvs	lr, #116, 22	; 0x1d000
 258:	746e6900 	strbtvc	r6, [lr], #-2304	; 0x900
 25c:	616e7265 	cmnvs	lr, r5, ror #4
 260:	75705f6c 	ldrbvc	r5, [r0, #-3948]!	; 0xf6c
 264:	72006b74 	andvc	r6, r0, #116, 22	; 0x1d000
 268:	705f6970 	subsvc	r6, pc, r0, ror r9	; <UNPREDICTABLE>
 26c:	68637475 	stmdavs	r3!, {r0, r2, r4, r5, r6, sl, ip, sp, lr}^
 270:	6e007261 	cdpvs	2, 0, cr7, cr0, cr1, {3}
 274:	705f6765 	subsvc	r6, pc, r5, ror #14
 278:	76657200 	strbtvc	r7, [r5], -r0, lsl #4
 27c:	65737265 	ldrbvs	r7, [r3, #-613]!	; 0x265
 280:	64736900 	ldrbtvs	r6, [r3], #-2304	; 0x900
 284:	74696769 	strbtvc	r6, [r9], #-1897	; 0x769
 288:	465f5f00 	ldrbmi	r5, [pc], -r0, lsl #30
 28c:	54434e55 	strbpl	r4, [r3], #-3669	; 0xe55
 290:	5f4e4f49 	svcpl	0x004e4f49
 294:	7570005f 	ldrbvc	r0, [r0, #-95]!	; 0x5f
 298:	665f7374 			; <UNDEFINED> instruction: 0x665f7374
 29c:	61620070 	smcvs	8192	; 0x2000
 2a0:	73006573 	movwvc	r6, #1395	; 0x573
 2a4:	656e6769 	strbvs	r6, [lr, #-1897]!	; 0x769
 2a8:	00705f64 	rsbseq	r5, r0, r4, ror #30
 2ac:	6362696c 	cmnvs	r2, #108, 18	; 0x1b0000
 2b0:	2d61762f 	stclcs	6, cr7, [r1, #-188]!	; 0xffffff44
 2b4:	6e697270 	mcrvs	2, 3, r7, cr9, cr0, {3}
 2b8:	632e6b74 	teqvs	lr, #116, 22	; 0x1d000
 2bc:	69707200 	ldmdbvs	r0!, {r9, ip, sp, lr}^
 2c0:	7465735f 	strbtvc	r7, [r5], #-863	; 0x35f
 2c4:	74756f5f 	ldrbtvc	r6, [r5], #-3935	; 0xf5f
 2c8:	00747570 	rsbseq	r7, r4, r0, ror r5
 2cc:	74646977 	strbtvc	r6, [r4], #-2423	; 0x977
 2d0:	75700068 	ldrbvc	r0, [r0, #-104]!	; 0x68
 2d4:	665f6374 			; <UNDEFINED> instruction: 0x665f6374
 2d8:	70720070 	rsbsvc	r0, r2, r0, ror r0
 2dc:	65725f69 	ldrbvs	r5, [r2, #-3945]!	; 0xf69
 2e0:	5f746573 	svcpl	0x00746573
 2e4:	63747570 	cmnvs	r4, #112, 10	; 0x1c000000
 2e8:	696d6500 	stmdbvs	sp!, {r8, sl, sp, lr}^
 2ec:	70720074 	rsbsvc	r0, r2, r4, ror r0
 2f0:	65725f69 	ldrbvs	r5, [r2, #-3945]!	; 0xf69
 2f4:	746f6f62 	strbtvc	r6, [pc], #-3938	; 2fc <_start-0x7d04>
 2f8:	31736300 	cmncc	r3, r0, lsl #6
 2fc:	2d653034 	stclcs	0, cr3, [r5, #-208]!	; 0xffffff30
 300:	2f637273 	svccs	0x00637273
 304:	61656c63 	cmnvs	r5, r3, ror #24
 308:	65722d6e 	ldrbvs	r2, [r2, #-3438]!	; 0xd6e
 30c:	746f6f62 	strbtvc	r6, [pc], #-3938	; 314 <_start-0x7cec>
 310:	6400632e 	strvs	r6, [r0], #-814	; 0x32e
 314:	79616c65 	stmdbvc	r1!, {r0, r2, r5, r6, sl, fp, sp, lr}^
 318:	00736d5f 	rsbseq	r6, r3, pc, asr sp
 31c:	65746e69 	ldrbvs	r6, [r4, #-3689]!	; 0xe69
 320:	6c616e72 	stclvs	14, cr6, [r1], #-456	; 0xfffffe38
 324:	5f77735f 	svcpl	0x0077735f
 328:	63747570 	cmnvs	r4, #112, 10	; 0x1c000000
 32c:	00726168 	rsbseq	r6, r2, r8, ror #2
 330:	73625f5f 	cmnvc	r2, #380	; 0x17c
 334:	74735f73 	ldrbtvc	r5, [r3], #-3955	; 0xf73
 338:	5f747261 	svcpl	0x00747261
 33c:	7362005f 	cmnvc	r2, #95	; 0x5f
 340:	6e655f73 	mcrvs	15, 3, r5, cr5, cr3, {3}
 344:	79630064 	stmdbvc	r3!, {r2, r5, r6}^
 348:	5f656c63 	svcpl	0x00656c63
 34c:	5f726570 	svcpl	0x00726570
 350:	00746962 	rsbseq	r6, r4, r2, ror #18
 354:	736e6f63 	cmnvc	lr, #396	; 0x18c
 358:	5f656c6f 	svcpl	0x00656c6f
 35c:	74726175 	ldrbtvc	r6, [r2], #-373	; 0x175
 360:	5f777300 	svcpl	0x00777300
 364:	74726175 	ldrbtvc	r6, [r2], #-373	; 0x175
 368:	6972705f 	ldmdbvs	r2!, {r0, r1, r2, r3, r4, r6, ip, sp, lr}^
 36c:	006b746e 	rsbeq	r7, fp, lr, ror #8
 370:	43545550 	cmpmi	r4, #80, 10	; 0x14000000
 374:	5053455f 	subspl	r4, r3, pc, asr r5
 378:	5241555f 	subpl	r5, r1, #398458880	; 0x17c00000
 37c:	77730054 			; <UNDEFINED> instruction: 0x77730054
 380:	7261755f 	rsbvc	r7, r1, #398458880	; 0x17c00000
 384:	00745f74 	rsbseq	r5, r4, r4, ror pc
 388:	43545550 	cmpmi	r4, #80, 10	; 0x14000000
 38c:	5f57535f 	svcpl	0x0057535f
 390:	54524155 	ldrbpl	r4, [r2], #-341	; 0x155
 394:	75616200 	strbvc	r6, [r1, #-512]!	; 0x200
 398:	55500064 	ldrbpl	r0, [r0, #-100]	; 0x64
 39c:	485f4354 	ldmdami	pc, {r2, r4, r6, r8, r9, lr}^	; <UNPREDICTABLE>
 3a0:	41555f57 	cmpmi	r5, r7, asr pc
 3a4:	5f005452 	svcpl	0x00005452
 3a8:	61747363 	cmnvs	r4, r3, ror #6
 3ac:	75007472 	strvc	r7, [r0, #-1138]	; 0x472
 3b0:	5f747261 	svcpl	0x00747261
 3b4:	5f766564 	svcpl	0x00766564
 3b8:	77730074 			; <UNDEFINED> instruction: 0x77730074
 3bc:	7261755f 	rsbvc	r7, r1, #398458880	; 0x17c00000
 3c0:	75705f74 	ldrbvc	r5, [r0, #-3956]!	; 0xf74
 3c4:	75006374 	strvc	r6, [r0, #-884]	; 0x374
 3c8:	38746e69 	ldmdacc	r4!, {r0, r3, r5, r6, r9, sl, fp, sp, lr}^
 3cc:	6300745f 	movwvs	r7, #1119	; 0x45f
 3d0:	72746e6f 	rsbsvc	r6, r4, #1776	; 0x6f0
 3d4:	625f6c6f 	subsvs	r6, pc, #28416	; 0x6f00
 3d8:	745f6b6c 	ldrbvc	r6, [pc], #-2924	; 3e0 <_start-0x7c20>
 3dc:	5f777300 	svcpl	0x00777300
 3e0:	74726175 	ldrbtvc	r6, [r2], #-373	; 0x175
 3e4:	5f626300 	svcpl	0x00626300
 3e8:	5f746567 	svcpl	0x00746567
 3ec:	636f6c62 	cmnvs	pc, #25088	; 0x6200
 3f0:	5f5f006b 	svcpl	0x005f006b
 3f4:	5f737362 	svcpl	0x00737362
 3f8:	5f646e65 	svcpl	0x00646e65
 3fc:	7363005f 	cmnvc	r3, #95	; 0x5f
 400:	65303431 	ldrvs	r3, [r0, #-1073]!	; 0x431
 404:	6372732d 	cmnvs	r2, #-1275068416	; 0xb4000000
 408:	7473632f 	ldrbtvc	r6, [r3], #-815	; 0x32f
 40c:	2e747261 	cdpcs	2, 7, cr7, cr4, cr1, {3}
 410:	6f630063 	svcvs	0x00630063
 414:	6c6f736e 	stclvs	3, cr7, [pc], #-440	; 264 <_start-0x7d9c>
 418:	65645f65 	strbvs	r5, [r4, #-3941]!	; 0xf65
 41c:	69750076 	ldmdbvs	r5!, {r1, r2, r4, r5, r6}^
 420:	3233746e 	eorscc	r7, r3, #1845493760	; 0x6e000000
 424:	6d00745f 	cfstrsvs	mvf7, [r0, #-380]	; 0xfffffe84
 428:	63696761 	cmnvs	r9, #25427968	; 0x1840000
 42c:	5f746100 	svcpl	0x00746100
 430:	72657375 	rsbvc	r7, r5, #-738197503	; 0xd4000001
 434:	76656c5f 			; <UNDEFINED> instruction: 0x76656c5f
 438:	50006c65 	andpl	r6, r0, r5, ror #24
 43c:	41505f4d 	cmpmi	r0, sp, asr #30
 440:	4f575353 	svcmi	0x00575353
 444:	63004452 	movwvs	r4, #1106	; 0x452
 448:	30343173 	eorscc	r3, r4, r3, ror r1
 44c:	72732d65 	rsbsvc	r2, r3, #6464	; 0x1940
 450:	65722f63 	ldrbvs	r2, [r2, #-3939]!	; 0xf63
 454:	746f6f62 	strbtvc	r6, [pc], #-3938	; 45c <_start-0x7ba4>
 458:	5000632e 	andpl	r6, r0, lr, lsr #6
 45c:	53525f4d 	cmppl	r2, #308	; 0x134
 460:	575f4354 			; <UNDEFINED> instruction: 0x575f4354
 464:	47464352 	smlsldmi	r4, r6, r2, r3
 468:	4c55465f 	mrrcmi	6, 5, r4, r5, cr15
 46c:	45525f4c 	ldrbmi	r5, [r2, #-3916]	; 0xf4c
 470:	00544553 	subseq	r4, r4, r3, asr r5
 474:	575f4d50 			; <UNDEFINED> instruction: 0x575f4d50
 478:	00474f44 	subeq	r4, r7, r4, asr #30
 47c:	5f746573 	svcpl	0x00746573
 480:	72657375 	rsbvc	r7, r5, #-738197503	; 0xd4000001
 484:	76656c5f 			; <UNDEFINED> instruction: 0x76656c5f
 488:	50006c65 	andpl	r6, r0, r5, ror #24
 48c:	32335455 	eorscc	r5, r3, #1426063360	; 0x55000000
 490:	5f4d5000 	svcpl	0x004d5000
 494:	43545352 	cmpmi	r4, #1207959553	; 0x48000001
 498:	73706300 	cmnvc	r0, #0, 6
 49c:	69740072 	ldmdbvs	r4!, {r1, r4, r5, r6}^
 4a0:	5f72656d 	svcpl	0x0072656d
 4a4:	5f746567 	svcpl	0x00746567
 4a8:	63657375 	cmnvs	r5, #-738197503	; 0xd4000001
 4ac:	7761725f 			; <UNDEFINED> instruction: 0x7761725f
 4b0:	6c656400 	cfstrdvs	mvd6, [r5], #-0
 4b4:	735f7961 	cmpvc	pc, #1589248	; 0x184000
 4b8:	63006365 	movwvs	r6, #869	; 0x365
 4bc:	30343173 	eorscc	r3, r4, r3, ror r1
 4c0:	72732d65 	rsbsvc	r2, r3, #6464	; 0x1940
 4c4:	69742f63 	ldmdbvs	r4!, {r0, r1, r5, r6, r8, r9, sl, fp, sp}^
 4c8:	2e72656d 	cdpcs	5, 7, cr6, cr2, cr13, {3}
 4cc:	45470063 	strbmi	r0, [r7, #-99]	; 0x63
 4d0:	00323354 	eorseq	r3, r2, r4, asr r3
 4d4:	6b636974 	blvs	18daaac <__bss_end__+0x18d0cec>
 4d8:	65640073 	strbvs	r0, [r4, #-115]!	; 0x73
 4dc:	5f79616c 	svcpl	0x0079616c
 4e0:	6c637963 	stclvs	9, cr7, [r3], #-396	; 0xfffffe74
 4e4:	64007365 	strvs	r7, [r0], #-869	; 0x365
 4e8:	79616c65 	stmdbvc	r1!, {r0, r2, r5, r6, sl, fp, sp, lr}^
 4ec:	0073755f 	rsbseq	r7, r3, pc, asr r5
 4f0:	656d6974 	strbvs	r6, [sp, #-2420]!	; 0x974
 4f4:	65675f72 	strbvs	r5, [r7, #-3954]!	; 0xf72
 4f8:	73755f74 	cmnvc	r5, #116, 30	; 0x1d0
 4fc:	67006365 	strvs	r6, [r0, -r5, ror #6]
 500:	5f6f6970 	svcpl	0x006f6970
 504:	6e657665 	cdpvs	6, 6, cr7, cr5, cr5, {3}
 508:	65645f74 	strbvs	r5, [r4, #-3956]!	; 0xf74
 50c:	74636574 	strbtvc	r6, [r3], #-1396	; 0x574
 510:	70006465 	andvc	r6, r0, r5, ror #8
 514:	32337475 	eorscc	r7, r3, #1962934272	; 0x75000000
 518:	46504700 	ldrbmi	r4, [r0], -r0, lsl #14
 51c:	324c4553 	subcc	r4, ip, #348127232	; 0x14c00000
 520:	43504700 	cmpmi	r0, #0, 14
 524:	0030524c 	eorseq	r5, r0, ip, asr #4
 528:	42414e45 	submi	r4, r1, #1104	; 0x450
 52c:	495f454c 	ldmdbmi	pc, {r2, r3, r6, r8, sl, lr}^	; <UNPREDICTABLE>
 530:	5f535152 	svcpl	0x00535152
 534:	73690032 	cmnvc	r9, #50	; 0x32
 538:	6970675f 	ldmdbvs	r0!, {r0, r1, r2, r3, r4, r6, r8, r9, sl, sp, lr}^
 53c:	6e695f6f 	cdpvs	15, 6, cr5, cr9, cr15, {3}
 540:	50470074 	subpl	r0, r7, r4, ror r0
 544:	465f4f49 	ldrbmi	r4, [pc], -r9, asr #30
 548:	5f434e55 	svcpl	0x00434e55
 54c:	55504e49 	ldrbpl	r4, [r0, #-3657]	; 0xe49
 550:	70670054 	rsbvc	r0, r7, r4, asr r0
 554:	735f6f69 	cmpvc	pc, #420	; 0x1a4
 558:	6f5f7465 	svcvs	0x005f7465
 55c:	6d006666 	stcvs	6, cr6, [r0, #-408]	; 0xfffffe68
 560:	72732d79 	rsbsvc	r2, r3, #7744	; 0x1e40
 564:	70672f63 	rsbvc	r2, r7, r3, ror #30
 568:	632e6f69 	teqvs	lr, #420	; 0x1a4
 56c:	746e6900 	strbtvc	r6, [lr], #-2304	; 0x900
 570:	73616d5f 	cmnvc	r1, #6080	; 0x17c0
 574:	5047006b 	subpl	r0, r7, fp, rrx
 578:	30544553 	subscc	r4, r4, r3, asr r5
 57c:	53504700 	cmppl	r0, #0, 14
 580:	00315445 	eorseq	r5, r1, r5, asr #8
 584:	5f676572 	svcpl	0x00676572
 588:	74617473 	strbtvc	r7, [r1], #-1139	; 0x473
 58c:	4c504700 	mrrcmi	7, 0, r4, r0, cr0
 590:	00305645 	eorseq	r5, r0, r5, asr #12
 594:	454c5047 	strbmi	r5, [ip, #-71]	; 0x47
 598:	67003156 	smlsdvs	r0, r6, r1, r3
 59c:	5f6f6970 	svcpl	0x006f6970
 5a0:	00676572 	rsbeq	r6, r7, r2, ror r5
 5a4:	53465047 	movtpl	r5, #24647	; 0x6047
 5a8:	00304c45 	eorseq	r4, r0, r5, asr #24
 5ac:	53465047 	movtpl	r5, #24647	; 0x6047
 5b0:	00314c45 	eorseq	r4, r1, r5, asr #24
 5b4:	53465047 	movtpl	r5, #24647	; 0x6047
 5b8:	00334c45 	eorseq	r4, r3, r5, asr #24
 5bc:	53465047 	movtpl	r5, #24647	; 0x6047
 5c0:	00344c45 	eorseq	r4, r4, r5, asr #24
 5c4:	53465047 	movtpl	r5, #24647	; 0x6047
 5c8:	00354c45 	eorseq	r4, r5, r5, asr #24
 5cc:	5f766564 	svcpl	0x00766564
 5d0:	72726162 	rsbsvc	r6, r2, #-2147483624	; 0x80000018
 5d4:	00726569 	rsbseq	r6, r2, r9, ror #10
 5d8:	6f697067 	svcvs	0x00697067
 5dc:	6573665f 	ldrbvs	r6, [r3, #-1631]!	; 0x65f
 5e0:	4700306c 	strmi	r3, [r0, -ip, rrx]
 5e4:	524c4350 	subpl	r4, ip, #80, 6	; 0x40000001
 5e8:	70670031 	rsbvc	r0, r7, r1, lsr r0
 5ec:	725f6f69 	subsvc	r6, pc, #420	; 0x1a4
 5f0:	00646165 	rsbeq	r6, r4, r5, ror #2
 5f4:	6f697067 	svcvs	0x00697067
 5f8:	746e695f 	strbtvc	r6, [lr], #-2399	; 0x95f
 5fc:	7369725f 	cmnvc	r9, #-268435451	; 0xf0000005
 600:	5f676e69 	svcpl	0x00676e69
 604:	65676465 	strbvs	r6, [r7, #-1125]!	; 0x465
 608:	69706700 	ldmdbvs	r0!, {r8, r9, sl, sp, lr}^
 60c:	65735f6f 	ldrbvs	r5, [r3, #-3951]!	; 0xf6f
 610:	75665f74 	strbvc	r5, [r6, #-3956]!	; 0xf74
 614:	6974636e 	ldmdbvs	r4!, {r1, r2, r3, r5, r6, r8, r9, sp, lr}^
 618:	47006e6f 	strmi	r6, [r0, -pc, ror #28]
 61c:	4e455250 	mcrmi	2, 2, r5, cr5, cr0, {2}
 620:	50470030 	subpl	r0, r7, r0, lsr r0
 624:	314e4552 	cmpcc	lr, r2, asr r5
 628:	69706700 	ldmdbvs	r0!, {r8, r9, sl, sp, lr}^
 62c:	76655f6f 	strbtvc	r5, [r5], -pc, ror #30
 630:	5f746e65 	svcpl	0x00746e65
 634:	61656c63 	cmnvs	r5, r3, ror #24
 638:	52490072 	subpl	r0, r9, #114	; 0x72
 63c:	45505f51 	ldrbmi	r5, [r0, #-3921]	; 0xf51
 640:	4e49444e 	cdpmi	4, 4, cr4, cr9, cr14, {2}
 644:	00315f47 	eorseq	r5, r1, r7, asr #30
 648:	5f515249 	svcpl	0x00515249
 64c:	444e4550 	strbmi	r4, [lr], #-1360	; 0x550
 650:	5f474e49 	svcpl	0x00474e49
 654:	69620032 	stmdbvs	r2!, {r1, r4, r5}^
 658:	73616d74 	cmnvc	r1, #116, 26	; 0x1d00
 65c:	7067006b 	rsbvc	r0, r7, fp, rrx
 660:	735f6f69 	cmpvc	pc, #420	; 0x1a4
 664:	00307465 	eorseq	r7, r0, r5, ror #8
 668:	636e7566 	cmnvs	lr, #427819008	; 0x19800000
 66c:	69706700 	ldmdbvs	r0!, {r8, r9, sl, sp, lr}^
 670:	65735f6f 	ldrbvs	r5, [r3, #-3951]!	; 0xf6f
 674:	6e695f74 	mcrvs	15, 3, r5, cr9, cr4, {3}
 678:	00747570 	rsbseq	r7, r4, r0, ror r5
 67c:	6f697067 	svcvs	0x00697067
 680:	676f745f 			; <UNDEFINED> instruction: 0x676f745f
 684:	00656c67 	rsbeq	r6, r5, r7, ror #24
 688:	44455047 	strbmi	r5, [r5], #-71	; 0x47
 68c:	47003053 	smlsdmi	r0, r3, r0, r3
 690:	53444550 	movtpl	r4, #17744	; 0x4550
 694:	70670031 	rsbvc	r0, r7, r1, lsr r0
 698:	735f6f69 	cmpvc	pc, #420	; 0x1a4
 69c:	6f5f7465 	svcvs	0x005f7465
 6a0:	5047006e 	subpl	r0, r7, lr, rrx
 6a4:	304e4546 	subcc	r4, lr, r6, asr #10
 6a8:	46504700 	ldrbmi	r4, [r0], -r0, lsl #14
 6ac:	00314e45 	eorseq	r4, r1, r5, asr #28
 6b0:	4f495047 	svcmi	0x00495047
 6b4:	4e55465f 	mrcmi	6, 2, r4, cr5, cr15, {2}
 6b8:	554f5f43 	strbpl	r5, [pc, #-3907]	; fffff77d <__bss_end__+0xffff59bd>
 6bc:	54555054 	ldrbpl	r5, [r5], #-84	; 0x54
 6c0:	74656700 	strbtvc	r6, [r5], #-1792	; 0x700
 6c4:	67003233 	smladxvs	r0, r3, r2, r3
 6c8:	5f6f6970 	svcpl	0x006f6970
 6cc:	5f746e69 	svcpl	0x00746e69
 6d0:	6c6c6166 	stfvse	f6, [ip], #-408	; 0xfffffe68
 6d4:	5f676e69 	svcpl	0x00676e69
 6d8:	65676465 	strbvs	r6, [r7, #-1125]!	; 0x465
 6dc:	69706700 	ldmdbvs	r0!, {r8, r9, sl, sp, lr}^
 6e0:	75665f6f 	strbvc	r5, [r6, #-3951]!	; 0xf6f
 6e4:	745f636e 	ldrbvc	r6, [pc], #-878	; 6ec <_start-0x7914>
 6e8:	49504700 	ldmdbmi	r0, {r8, r9, sl, lr}^
 6ec:	55465f4f 	strbpl	r5, [r6, #-3919]	; 0xf4f
 6f0:	415f434e 	cmpmi	pc, lr, asr #6
 6f4:	0030544c 	eorseq	r5, r0, ip, asr #8
 6f8:	4f495047 	svcmi	0x00495047
 6fc:	4e55465f 	mrcmi	6, 2, r4, cr5, cr15, {2}
 700:	4c415f43 	mcrrmi	15, 4, r5, r1, cr3
 704:	47003154 	smlsdmi	r0, r4, r1, r3
 708:	5f4f4950 	svcpl	0x004f4950
 70c:	434e5546 	movtmi	r5, #58694	; 0xe546
 710:	544c415f 	strbpl	r4, [ip], #-351	; 0x15f
 714:	50470032 	subpl	r0, r7, r2, lsr r0
 718:	465f4f49 	ldrbmi	r4, [pc], -r9, asr #30
 71c:	5f434e55 	svcpl	0x00434e55
 720:	33544c41 	cmpcc	r4, #16640	; 0x4100
 724:	49504700 	ldmdbmi	r0, {r8, r9, sl, lr}^
 728:	55465f4f 	strbpl	r5, [r6, #-3919]	; 0xf4f
 72c:	415f434e 	cmpmi	pc, lr, asr #6
 730:	0034544c 	eorseq	r5, r4, ip, asr #8
 734:	4f495047 	svcmi	0x00495047
 738:	4e55465f 	mrcmi	6, 2, r4, cr5, cr15, {2}
 73c:	4c415f43 	mcrrmi	15, 4, r5, r1, cr3
 740:	72003554 	andvc	r3, r0, #84, 10	; 0x15000000
 744:	735f6765 	cmpvc	pc, #26476544	; 0x1940000
 748:	63656c65 	cmnvs	r5, #25856	; 0x6500
 74c:	70670074 	rsbvc	r0, r7, r4, ror r0
 750:	635f6f69 	cmpvs	pc, #420	; 0x1a4
 754:	0030726c 	eorseq	r7, r0, ip, ror #4
 758:	5f637963 	svcpl	0x00637963
 75c:	5f726570 	svcpl	0x00726570
 760:	00746962 	rsbseq	r6, r4, r2, ror #18
 764:	74697277 	strbtvc	r7, [r9], #-631	; 0x277
 768:	79635f65 	stmdbvc	r3!, {r0, r2, r5, r6, r8, r9, sl, fp, ip, lr}^
 76c:	6e755f63 	cdpvs	15, 7, cr5, cr5, cr3, {3}
 770:	006c6974 	rsbeq	r6, ip, r4, ror r9
 774:	755f7773 	ldrbvc	r7, [pc, #-1907]	; 9 <_start-0x7ff7>
 778:	5f747261 	svcpl	0x00747261
 77c:	63746567 	cmnvs	r4, #432013312	; 0x19c00000
 780:	6d69745f 	cfstrdvs	mvd7, [r9, #-380]!	; 0xfffffe84
 784:	74756f65 	ldrbtvc	r6, [r5], #-3941	; 0xf65
 788:	5f777300 	svcpl	0x00777300
 78c:	74726175 	ldrbtvc	r6, [r2], #-373	; 0x175
 790:	7465675f 	strbtvc	r6, [r5], #-1887	; 0x75f
 794:	6e755f73 	mrcvs	15, 3, r5, cr5, cr3, {3}
 798:	006c6974 	rsbeq	r6, ip, r4, ror r9
 79c:	755f7773 	ldrbvc	r7, [pc, #-1907]	; 31 <_start-0x7fcf>
 7a0:	5f747261 	svcpl	0x00747261
 7a4:	63746567 	cmnvs	r4, #432013312	; 0x19c00000
 7a8:	72656400 	rsbvc	r6, r5, #0, 8
 7ac:	64657669 	strbtvs	r7, [r5], #-1641	; 0x669
 7b0:	6c656400 	cfstrdvs	mvd6, [r5], #-0
 7b4:	6e5f7961 	cdpvs	9, 5, cr7, cr15, cr1, {3}
 7b8:	6c637963 	stclvs	9, cr7, [r3], #-396	; 0xfffffe74
 7bc:	73007365 	movwvc	r7, #869	; 0x365
 7c0:	61755f77 	cmnvs	r5, r7, ror pc
 7c4:	695f7472 	ldmdbvs	pc, {r1, r4, r5, r6, sl, ip, sp, lr}^	; <UNPREDICTABLE>
 7c8:	5f74696e 	svcpl	0x0074696e
 7cc:	706c6568 	rsbvc	r6, ip, r8, ror #10
 7d0:	74007265 	strvc	r7, [r0], #-613	; 0x265
 7d4:	6f656d69 	svcvs	0x00656d69
 7d8:	755f7475 	ldrbvc	r7, [pc, #-1141]	; 36b <_start-0x7c95>
 7dc:	00636573 	rsbeq	r6, r3, r3, ror r5
 7e0:	755f7773 	ldrbvc	r7, [pc, #-1907]	; 75 <_start-0x7f8b>
 7e4:	5f747261 	svcpl	0x00747261
 7e8:	6b747570 	blvs	1d1ddb0 <__bss_end__+0x1d13ff0>
 7ec:	2d796d00 	ldclcs	13, cr6, [r9, #-0]
 7f0:	2f637273 	svccs	0x00637273
 7f4:	752d7773 	strvc	r7, [sp, #-1907]!	; 0x773
 7f8:	2e747261 	cdpcs	2, 7, cr7, cr4, cr1, {3}
 7fc:	68630063 	stmdavs	r3!, {r0, r1, r5, r6}^
 800:	695f7261 	ldmdbvs	pc, {r0, r5, r6, r9, ip, sp, lr}^	; <UNPREDICTABLE>
 804:	7773006e 	ldrbvc	r0, [r3, -lr, rrx]!
 808:	7261755f 	rsbvc	r7, r1, #398458880	; 0x17c00000
 80c:	65675f74 	strbvs	r5, [r7, #-3956]!	; 0xf74
 810:	745f7374 	ldrbvc	r7, [pc], #-884	; 818 <_start-0x77e8>
 814:	6f656d69 	svcvs	0x00656d69
 818:	6e007475 	mcrvs	4, 0, r7, cr0, cr5, {3}
 81c:	65747962 	ldrbvs	r7, [r4, #-2402]!	; 0x962
 820:	73750073 	cmnvc	r5, #115	; 0x73
 824:	745f6365 	ldrbvc	r6, [pc], #-869	; 82c <_start-0x77d4>
 828:	6f656d69 	svcvs	0x00656d69
 82c:	73007475 	movwvc	r7, #1141	; 0x475
 830:	61755f77 	cmnvs	r5, r7, ror pc
 834:	675f7472 			; <UNDEFINED> instruction: 0x675f7472
 838:	5f737465 	svcpl	0x00737465
 83c:	69746e75 	ldmdbvs	r4!, {r0, r2, r4, r5, r6, r9, sl, fp, sp, lr}^
 840:	6c625f6c 	stclvs	15, cr5, [r2], #-432	; 0xfffffe50
 844:	6177006b 	cmnvs	r7, fp, rrx
 848:	755f7469 	ldrbvc	r7, [pc, #-1129]	; 3e7 <_start-0x7c19>
 84c:	6c69746e 	cfstrdvs	mvd7, [r9], #-440	; 0xfffffe48
 850:	6573755f 	ldrbvs	r7, [r3, #-1375]!	; 0x55f
 854:	6e690063 	cdpvs	0, 6, cr0, cr9, cr3, {3}
 858:	6e726574 	mrcvs	5, 3, r6, cr2, cr4, {3}
 85c:	705f6c61 	subsvc	r6, pc, r1, ror #24
 860:	68637475 	stmdavs	r3!, {r0, r2, r4, r5, r6, sl, ip, sp, lr}^
 864:	6c007261 	sfmvs	f7, 4, [r0], {97}	; 0x61
 868:	2f636269 	svccs	0x00636269
 86c:	63747570 	cmnvs	r4, #112, 10	; 0x1c000000
 870:	2e726168 	rpwcssz	f6, f2, #0.0
 874:	70720063 	rsbsvc	r0, r2, r3, rrx
 878:	65735f69 	ldrbvs	r5, [r3, #-3945]!	; 0xf69
 87c:	75705f74 	ldrbvc	r5, [r0, #-3956]!	; 0xf74
 880:	73006374 	movwvc	r6, #884	; 0x374
 884:	5f657a69 	svcpl	0x00657a69
 888:	656d0074 	strbvs	r0, [sp, #-116]!	; 0x74
 88c:	7465736d 	strbtvc	r7, [r5], #-877	; 0x36d
 890:	5f626300 	svcpl	0x00626300
 894:	0077656e 	rsbseq	r6, r7, lr, ror #10
 898:	34317363 	ldrtcc	r7, [r1], #-867	; 0x363
 89c:	732d6530 	teqvc	sp, #48, 10	; 0xc000000
 8a0:	632f6372 	teqvs	pc, #-939524095	; 0xc8000001
 8a4:	72746e6f 	rsbsvc	r6, r4, #1776	; 0x6f0
 8a8:	622d6c6f 	eorvs	r6, sp, #28416	; 0x6f00
 8ac:	6b636f6c 	blvs	18dc664 <__bss_end__+0x18d28a4>
 8b0:	4100632e 	tstmi	r0, lr, lsr #6
 8b4:	4d5f5855 	ldclmi	8, cr5, [pc, #-340]	; 768 <_start-0x7898>
 8b8:	434d5f55 	movtmi	r5, #57173	; 0xdf55
 8bc:	45525f52 	ldrbmi	r5, [r2, #-3922]	; 0xf52
 8c0:	55410047 	strbpl	r0, [r1, #-71]	; 0x47
 8c4:	554d5f58 	strbpl	r5, [sp, #-3928]	; 0xf58
 8c8:	5f4f495f 	svcpl	0x004f495f
 8cc:	00474552 	subeq	r4, r7, r2, asr r5
 8d0:	5f585541 	svcpl	0x00585541
 8d4:	4d5f554d 	cfldr64mi	mvdx5, [pc, #-308]	; 7a8 <_start-0x7858>
 8d8:	525f5253 	subspl	r5, pc, #805306373	; 0x30000005
 8dc:	75004745 	strvc	r4, [r0, #-1861]	; 0x745
 8e0:	5f747261 	svcpl	0x00747261
 8e4:	5f6e6163 	svcpl	0x006e6163
 8e8:	63746567 	cmnvs	r4, #432013312	; 0x19c00000
 8ec:	58554100 	ldmdapl	r5, {r8, lr}^
 8f0:	5f554d5f 	svcpl	0x00554d5f
 8f4:	4c544e43 	mrrcmi	14, 4, r4, r4, cr3	; <UNPREDICTABLE>
 8f8:	4745525f 	smlsldmi	r5, r5, pc, r2	; <UNPREDICTABLE>
 8fc:	72617500 	rsbvc	r7, r1, #0, 10
 900:	61685f74 	smcvs	34292	; 0x85f4
 904:	61645f73 	smcvs	17907	; 0x45f3
 908:	75006174 	strvc	r6, [r0, #-372]	; 0x174
 90c:	5f747261 	svcpl	0x00747261
 910:	74696e69 	strbtvc	r6, [r9], #-3689	; 0xe69
 914:	58554100 	ldmdapl	r5, {r8, lr}^
 918:	5f554d5f 	svcpl	0x00554d5f
 91c:	5f524549 	svcpl	0x00524549
 920:	00474552 	subeq	r4, r7, r2, asr r5
 924:	5f585541 	svcpl	0x00585541
 928:	495f554d 	ldmdbmi	pc, {r0, r2, r3, r6, r8, sl, ip, lr}^	; <UNPREDICTABLE>
 92c:	525f5249 	subspl	r5, pc, #-1879048188	; 0x90000004
 930:	75004745 	strvc	r4, [r0, #-1861]	; 0x745
 934:	5f747261 	svcpl	0x00747261
 938:	5f6e6163 	svcpl	0x006e6163
 93c:	63747570 	cmnvs	r4, #112, 10	; 0x1c000000
 940:	58554100 	ldmdapl	r5, {r8, lr}^
 944:	414e455f 	cmpmi	lr, pc, asr r5
 948:	53454c42 	movtpl	r4, #23618	; 0x5c42
 94c:	58554100 	ldmdapl	r5, {r8, lr}^
 950:	5152495f 	cmppl	r2, pc, asr r9
 954:	58554100 	ldmdapl	r5, {r8, lr}^
 958:	5f554d5f 	svcpl	0x00554d5f
 95c:	44554142 	ldrbmi	r4, [r5], #-322	; 0x142
 960:	4745525f 	smlsldmi	r5, r5, pc, r2	; <UNPREDICTABLE>
 964:	58554100 	ldmdapl	r5, {r8, lr}^
 968:	5f554d5f 	svcpl	0x00554d5f
 96c:	54415453 	strbpl	r5, [r1], #-1107	; 0x453
 970:	4745525f 	smlsldmi	r5, r5, pc, r2	; <UNPREDICTABLE>
 974:	58554100 	ldmdapl	r5, {r8, lr}^
 978:	5f554d5f 	svcpl	0x00554d5f
 97c:	41524353 	cmpmi	r2, r3, asr r3
 980:	00484354 	subeq	r4, r8, r4, asr r3
 984:	732d796d 	teqvc	sp, #1785856	; 0x1b4000
 988:	752f6372 	strvc	r6, [pc, #-882]!	; 61e <_start-0x79e2>
 98c:	2e747261 	cdpcs	2, 7, cr7, cr4, cr1, {3}
 990:	55410063 	strbpl	r0, [r1, #-99]	; 0x63
 994:	554d5f58 	strbpl	r5, [sp, #-3928]	; 0xf58
 998:	52434c5f 	subpl	r4, r3, #24320	; 0x5f00
 99c:	4745525f 	smlsldmi	r5, r5, pc, r2	; <UNPREDICTABLE>
 9a0:	58554100 	ldmdapl	r5, {r8, lr}^
 9a4:	5f554d5f 	svcpl	0x00554d5f
 9a8:	5f52534c 	svcpl	0x0052534c
 9ac:	00474552 	subeq	r4, r7, r2, asr r5
 9b0:	74726175 	ldrbtvc	r6, [r2], #-373	; 0x175
 9b4:	7465675f 	strbtvc	r6, [r5], #-1887	; 0x75f
 9b8:	73615f63 	cmnvc	r1, #396	; 0x18c
 9bc:	00636e79 	rsbeq	r6, r3, r9, ror lr
 9c0:	6362696c 	cmnvs	r2, #108, 18	; 0x1b0000
 9c4:	6d656d2f 	stclvs	13, cr6, [r5, #-188]!	; 0xffffff44
 9c8:	2e746573 	mrccs	5, 3, r6, cr4, cr3, {3}
 9cc:	Address 0x00000000000009cc is out of bounds.


Disassembly of section .debug_frame:

00000000 <.debug_frame>:
   0:	0000000c 	andeq	r0, r0, ip
   4:	ffffffff 			; <UNDEFINED> instruction: 0xffffffff
   8:	7c020001 	stcvc	0, cr0, [r2], {1}
   c:	000d0c0e 	andeq	r0, sp, lr, lsl #24
  10:	00000020 	andeq	r0, r0, r0, lsr #32
  14:	00000000 	andeq	r0, r0, r0
  18:	00008010 	andeq	r8, r0, r0, lsl r0
  1c:	00000088 	andeq	r0, r0, r8, lsl #1
  20:	83200e42 	teqhi	r0, #1056	; 0x420
  24:	85078408 	strhi	r8, [r7, #-1032]	; 0x408
  28:	87058606 	strhi	r8, [r5, -r6, lsl #12]
  2c:	89038804 	stmdbhi	r3, {r2, fp, pc}
  30:	00018e02 	andeq	r8, r1, r2, lsl #28
  34:	00000014 	andeq	r0, r0, r4, lsl r0
  38:	00000000 	andeq	r0, r0, r0
  3c:	00008098 	muleq	r0, r8, r0
  40:	0000002c 	andeq	r0, r0, ip, lsr #32
  44:	83080e42 	movwhi	r0, #36418	; 0x8e42
  48:	00018e02 	andeq	r8, r1, r2, lsl #28
  4c:	0000000c 	andeq	r0, r0, ip
  50:	ffffffff 			; <UNDEFINED> instruction: 0xffffffff
  54:	7c020001 	stcvc	0, cr0, [r2], {1}
  58:	000d0c0e 	andeq	r0, sp, lr, lsl #24
  5c:	00000024 	andeq	r0, r0, r4, lsr #32
  60:	0000004c 	andeq	r0, r0, ip, asr #32
  64:	000080c4 	andeq	r8, r0, r4, asr #1
  68:	00000058 	andeq	r0, r0, r8, asr r0
  6c:	80100e42 	andshi	r0, r0, r2, asr #28
  70:	82038104 	andhi	r8, r3, #4, 2
  74:	42018302 	andmi	r8, r1, #134217728	; 0x8000000
  78:	07841c0e 	streq	r1, [r4, lr, lsl #24]
  7c:	058e0685 	streq	r0, [lr, #1669]	; 0x685
  80:	00280e42 	eoreq	r0, r8, r2, asr #28
  84:	0000000c 	andeq	r0, r0, ip
  88:	ffffffff 			; <UNDEFINED> instruction: 0xffffffff
  8c:	7c020001 	stcvc	0, cr0, [r2], {1}
  90:	000d0c0e 	andeq	r0, sp, lr, lsl #24
  94:	00000018 	andeq	r0, r0, r8, lsl r0
  98:	00000084 	andeq	r0, r0, r4, lsl #1
  9c:	0000811c 	andeq	r8, r0, ip, lsl r1
  a0:	00000034 	andeq	r0, r0, r4, lsr r0
  a4:	83100e42 	tsthi	r0, #1056	; 0x420
  a8:	85038404 	strhi	r8, [r3, #-1028]	; 0x404
  ac:	00018e02 	andeq	r8, r1, r2, lsl #28
  b0:	0000000c 	andeq	r0, r0, ip
  b4:	ffffffff 			; <UNDEFINED> instruction: 0xffffffff
  b8:	7c020001 	stcvc	0, cr0, [r2], {1}
  bc:	000d0c0e 	andeq	r0, sp, lr, lsl #24
  c0:	0000000c 	andeq	r0, r0, ip
  c4:	000000b0 	strheq	r0, [r0], -r0	; <UNPREDICTABLE>
  c8:	00008150 	andeq	r8, r0, r0, asr r1
  cc:	00000014 	andeq	r0, r0, r4, lsl r0
  d0:	0000000c 	andeq	r0, r0, ip
  d4:	000000b0 	strheq	r0, [r0], -r0	; <UNPREDICTABLE>
  d8:	00008164 	andeq	r8, r0, r4, ror #2
  dc:	0000002c 	andeq	r0, r0, ip, lsr #32
  e0:	0000000c 	andeq	r0, r0, ip
  e4:	000000b0 	strheq	r0, [r0], -r0	; <UNPREDICTABLE>
  e8:	00008190 	muleq	r0, r0, r1
  ec:	00000040 	andeq	r0, r0, r0, asr #32
  f0:	00000020 	andeq	r0, r0, r0, lsr #32
  f4:	000000b0 	strheq	r0, [r0], -r0	; <UNPREDICTABLE>
  f8:	000081d0 	ldrdeq	r8, [r0], -r0
  fc:	000001a8 	andeq	r0, r0, r8, lsr #3
 100:	84180e42 	ldrhi	r0, [r8], #-3650	; 0xe42
 104:	86058506 	strhi	r8, [r5], -r6, lsl #10
 108:	88038704 	stmdahi	r3, {r2, r8, r9, sl, pc}
 10c:	42018e02 	andmi	r8, r1, #2, 28
 110:	0000600e 	andeq	r6, r0, lr
 114:	00000014 	andeq	r0, r0, r4, lsl r0
 118:	000000b0 	strheq	r0, [r0], -r0	; <UNPREDICTABLE>
 11c:	00008378 	andeq	r8, r0, r8, ror r3
 120:	00000068 	andeq	r0, r0, r8, rrx
 124:	8e040e42 	cdphi	14, 0, cr0, cr4, cr2, {2}
 128:	100e4201 	andne	r4, lr, r1, lsl #4
 12c:	00000028 	andeq	r0, r0, r8, lsr #32
 130:	000000b0 	strheq	r0, [r0], -r0	; <UNPREDICTABLE>
 134:	000083e0 	andeq	r8, r0, r0, ror #7
 138:	00000294 	muleq	r0, r4, r2
 13c:	84240e42 	strthi	r0, [r4], #-3650	; 0xe42
 140:	86088509 	strhi	r8, [r8], -r9, lsl #10
 144:	88068707 	stmdahi	r6, {r0, r1, r2, r8, r9, sl, pc}
 148:	8a048905 	bhi	122564 <__bss_end__+0x1187a4>
 14c:	8e028b03 	vmlahi.f64	d8, d2, d3
 150:	b00e4201 	andlt	r4, lr, r1, lsl #4
 154:	00000001 	andeq	r0, r0, r1
 158:	0000000c 	andeq	r0, r0, ip
 15c:	ffffffff 			; <UNDEFINED> instruction: 0xffffffff
 160:	7c020001 	stcvc	0, cr0, [r2], {1}
 164:	000d0c0e 	andeq	r0, sp, lr, lsl #24
 168:	00000014 	andeq	r0, r0, r4, lsl r0
 16c:	00000158 	andeq	r0, r0, r8, asr r1
 170:	00008674 	andeq	r8, r0, r4, ror r6
 174:	00000028 	andeq	r0, r0, r8, lsr #32
 178:	83080e42 	movwhi	r0, #36418	; 0x8e42
 17c:	00018e02 	andeq	r8, r1, r2, lsl #28
 180:	0000000c 	andeq	r0, r0, ip
 184:	ffffffff 			; <UNDEFINED> instruction: 0xffffffff
 188:	7c020001 	stcvc	0, cr0, [r2], {1}
 18c:	000d0c0e 	andeq	r0, sp, lr, lsl #24
 190:	00000014 	andeq	r0, r0, r4, lsl r0
 194:	00000180 	andeq	r0, r0, r0, lsl #3
 198:	0000869c 	muleq	r0, ip, r6
 19c:	00000020 	andeq	r0, r0, r0, lsr #32
 1a0:	84080e42 	strhi	r0, [r8], #-3650	; 0xe42
 1a4:	00018e02 	andeq	r8, r1, r2, lsl #28
 1a8:	00000014 	andeq	r0, r0, r4, lsl r0
 1ac:	00000180 	andeq	r0, r0, r0, lsl #3
 1b0:	000086bc 			; <UNDEFINED> instruction: 0x000086bc
 1b4:	00000090 	muleq	r0, r0, r0
 1b8:	83080e42 	movwhi	r0, #36418	; 0x8e42
 1bc:	00018e02 	andeq	r8, r1, r2, lsl #28
 1c0:	0000000c 	andeq	r0, r0, ip
 1c4:	ffffffff 			; <UNDEFINED> instruction: 0xffffffff
 1c8:	7c020001 	stcvc	0, cr0, [r2], {1}
 1cc:	000d0c0e 	andeq	r0, sp, lr, lsl #24
 1d0:	0000000c 	andeq	r0, r0, ip
 1d4:	000001c0 	andeq	r0, r0, r0, asr #3
 1d8:	0000874c 	andeq	r8, r0, ip, asr #14
 1dc:	00000018 	andeq	r0, r0, r8, lsl r0
 1e0:	0000000c 	andeq	r0, r0, ip
 1e4:	000001c0 	andeq	r0, r0, r0, asr #3
 1e8:	00008764 	andeq	r8, r0, r4, ror #14
 1ec:	00000014 	andeq	r0, r0, r4, lsl r0
 1f0:	00000014 	andeq	r0, r0, r4, lsl r0
 1f4:	000001c0 	andeq	r0, r0, r0, asr #3
 1f8:	00008778 	andeq	r8, r0, r8, ror r7
 1fc:	00000048 	andeq	r0, r0, r8, asr #32
 200:	83080e42 	movwhi	r0, #36418	; 0x8e42
 204:	00018e02 	andeq	r8, r1, r2, lsl #28
 208:	0000000c 	andeq	r0, r0, ip
 20c:	ffffffff 			; <UNDEFINED> instruction: 0xffffffff
 210:	7c020001 	stcvc	0, cr0, [r2], {1}
 214:	000d0c0e 	andeq	r0, sp, lr, lsl #24
 218:	0000000c 	andeq	r0, r0, ip
 21c:	00000208 	andeq	r0, r0, r8, lsl #4
 220:	000087c0 	andeq	r8, r0, r0, asr #15
 224:	0000001c 	andeq	r0, r0, ip, lsl r0
 228:	00000014 	andeq	r0, r0, r4, lsl r0
 22c:	00000208 	andeq	r0, r0, r8, lsl #4
 230:	000087dc 	ldrdeq	r8, [r0], -ip
 234:	00000014 	andeq	r0, r0, r4, lsl r0
 238:	83080e42 	movwhi	r0, #36418	; 0x8e42
 23c:	00018e02 	andeq	r8, r1, r2, lsl #28
 240:	00000014 	andeq	r0, r0, r4, lsl r0
 244:	00000208 	andeq	r0, r0, r8, lsl #4
 248:	000087f0 	strdeq	r8, [r0], -r0
 24c:	0000000c 	andeq	r0, r0, ip
 250:	83080e42 	movwhi	r0, #36418	; 0x8e42
 254:	00018e02 	andeq	r8, r1, r2, lsl #28
 258:	00000018 	andeq	r0, r0, r8, lsl r0
 25c:	00000208 	andeq	r0, r0, r8, lsl #4
 260:	000087fc 	strdeq	r8, [r0], -ip
 264:	00000024 	andeq	r0, r0, r4, lsr #32
 268:	83100e42 	tsthi	r0, #1056	; 0x420
 26c:	85038404 	strhi	r8, [r3, #-1028]	; 0x404
 270:	00018e02 	andeq	r8, r1, r2, lsl #28
 274:	00000014 	andeq	r0, r0, r4, lsl r0
 278:	00000208 	andeq	r0, r0, r8, lsl #4
 27c:	00008820 	andeq	r8, r0, r0, lsr #16
 280:	00000014 	andeq	r0, r0, r4, lsl r0
 284:	83080e42 	movwhi	r0, #36418	; 0x8e42
 288:	00018e02 	andeq	r8, r1, r2, lsl #28
 28c:	00000014 	andeq	r0, r0, r4, lsl r0
 290:	00000208 	andeq	r0, r0, r8, lsl #4
 294:	00008834 	andeq	r8, r0, r4, lsr r8
 298:	00000014 	andeq	r0, r0, r4, lsl r0
 29c:	83080e42 	movwhi	r0, #36418	; 0x8e42
 2a0:	00018e02 	andeq	r8, r1, r2, lsl #28
 2a4:	0000000c 	andeq	r0, r0, ip
 2a8:	ffffffff 			; <UNDEFINED> instruction: 0xffffffff
 2ac:	7c020001 	stcvc	0, cr0, [r2], {1}
 2b0:	000d0c0e 	andeq	r0, sp, lr, lsl #24
 2b4:	00000018 	andeq	r0, r0, r8, lsl r0
 2b8:	000002a4 	andeq	r0, r0, r4, lsr #5
 2bc:	00008848 	andeq	r8, r0, r8, asr #16
 2c0:	000000d4 	ldrdeq	r0, [r0], -r4
 2c4:	83100e42 	tsthi	r0, #1056	; 0x420
 2c8:	85038404 	strhi	r8, [r3, #-1028]	; 0x404
 2cc:	00018e02 	andeq	r8, r1, r2, lsl #28
 2d0:	00000014 	andeq	r0, r0, r4, lsl r0
 2d4:	000002a4 	andeq	r0, r0, r4, lsr #5
 2d8:	0000891c 	andeq	r8, r0, ip, lsl r9
 2dc:	00000038 	andeq	r0, r0, r8, lsr r0
 2e0:	83080e42 	movwhi	r0, #36418	; 0x8e42
 2e4:	00018e02 	andeq	r8, r1, r2, lsl #28
 2e8:	00000014 	andeq	r0, r0, r4, lsl r0
 2ec:	000002a4 	andeq	r0, r0, r4, lsr #5
 2f0:	00008954 	andeq	r8, r0, r4, asr r9
 2f4:	00000038 	andeq	r0, r0, r8, lsr r0
 2f8:	83080e42 	movwhi	r0, #36418	; 0x8e42
 2fc:	00018e02 	andeq	r8, r1, r2, lsl #28
 300:	00000018 	andeq	r0, r0, r8, lsl r0
 304:	000002a4 	andeq	r0, r0, r4, lsr #5
 308:	0000898c 	andeq	r8, r0, ip, lsl #19
 30c:	000000cc 	andeq	r0, r0, ip, asr #1
 310:	83100e42 	tsthi	r0, #1056	; 0x420
 314:	85038404 	strhi	r8, [r3, #-1028]	; 0x404
 318:	00018e02 	andeq	r8, r1, r2, lsl #28
 31c:	00000014 	andeq	r0, r0, r4, lsl r0
 320:	000002a4 	andeq	r0, r0, r4, lsr #5
 324:	00008a58 	andeq	r8, r0, r8, asr sl
 328:	0000004c 	andeq	r0, r0, ip, asr #32
 32c:	84080e42 	strhi	r0, [r8], #-3650	; 0xe42
 330:	00018e02 	andeq	r8, r1, r2, lsl #28
 334:	00000014 	andeq	r0, r0, r4, lsl r0
 338:	000002a4 	andeq	r0, r0, r4, lsr #5
 33c:	00008aa4 	andeq	r8, r0, r4, lsr #21
 340:	00000024 	andeq	r0, r0, r4, lsr #32
 344:	83080e42 	movwhi	r0, #36418	; 0x8e42
 348:	00018e02 	andeq	r8, r1, r2, lsl #28
 34c:	00000018 	andeq	r0, r0, r8, lsl r0
 350:	000002a4 	andeq	r0, r0, r4, lsr #5
 354:	00008ac8 	andeq	r8, r0, r8, asr #21
 358:	000000d8 	ldrdeq	r0, [r0], -r8
 35c:	84100e42 	ldrhi	r0, [r0], #-3650	; 0xe42
 360:	86038504 	strhi	r8, [r3], -r4, lsl #10
 364:	00018e02 	andeq	r8, r1, r2, lsl #28
 368:	00000014 	andeq	r0, r0, r4, lsl r0
 36c:	000002a4 	andeq	r0, r0, r4, lsr #5
 370:	00008ba0 	andeq	r8, r0, r0, lsr #23
 374:	00000038 	andeq	r0, r0, r8, lsr r0
 378:	83080e42 	movwhi	r0, #36418	; 0x8e42
 37c:	00018e02 	andeq	r8, r1, r2, lsl #28
 380:	00000014 	andeq	r0, r0, r4, lsl r0
 384:	000002a4 	andeq	r0, r0, r4, lsr #5
 388:	00008bd8 	ldrdeq	r8, [r0], -r8	; <UNPREDICTABLE>
 38c:	0000002c 	andeq	r0, r0, ip, lsr #32
 390:	83080e42 	movwhi	r0, #36418	; 0x8e42
 394:	00018e02 	andeq	r8, r1, r2, lsl #28
 398:	00000018 	andeq	r0, r0, r8, lsl r0
 39c:	000002a4 	andeq	r0, r0, r4, lsr #5
 3a0:	00008c04 	andeq	r8, r0, r4, lsl #24
 3a4:	00000084 	andeq	r0, r0, r4, lsl #1
 3a8:	83100e42 	tsthi	r0, #1056	; 0x420
 3ac:	85038404 	strhi	r8, [r3, #-1028]	; 0x404
 3b0:	00018e02 	andeq	r8, r1, r2, lsl #28
 3b4:	00000018 	andeq	r0, r0, r8, lsl r0
 3b8:	000002a4 	andeq	r0, r0, r4, lsr #5
 3bc:	00008c88 	andeq	r8, r0, r8, lsl #25
 3c0:	00000084 	andeq	r0, r0, r4, lsl #1
 3c4:	83100e42 	tsthi	r0, #1056	; 0x420
 3c8:	85038404 	strhi	r8, [r3, #-1028]	; 0x404
 3cc:	00018e02 	andeq	r8, r1, r2, lsl #28
 3d0:	00000014 	andeq	r0, r0, r4, lsl r0
 3d4:	000002a4 	andeq	r0, r0, r4, lsr #5
 3d8:	00008d0c 	andeq	r8, r0, ip, lsl #26
 3dc:	00000084 	andeq	r0, r0, r4, lsl #1
 3e0:	84080e42 	strhi	r0, [r8], #-3650	; 0xe42
 3e4:	00018e02 	andeq	r8, r1, r2, lsl #28
 3e8:	00000014 	andeq	r0, r0, r4, lsl r0
 3ec:	000002a4 	andeq	r0, r0, r4, lsr #5
 3f0:	00008d90 	muleq	r0, r0, sp
 3f4:	00000058 	andeq	r0, r0, r8, asr r0
 3f8:	84080e42 	strhi	r0, [r8], #-3650	; 0xe42
 3fc:	00018e02 	andeq	r8, r1, r2, lsl #28
 400:	0000000c 	andeq	r0, r0, ip
 404:	ffffffff 			; <UNDEFINED> instruction: 0xffffffff
 408:	7c020001 	stcvc	0, cr0, [r2], {1}
 40c:	000d0c0e 	andeq	r0, sp, lr, lsl #24
 410:	0000001c 	andeq	r0, r0, ip, lsl r0
 414:	00000400 	andeq	r0, r0, r0, lsl #8
 418:	00008de8 	andeq	r8, r0, r8, ror #27
 41c:	00000154 	andeq	r0, r0, r4, asr r1
 420:	84180e42 	ldrhi	r0, [r8], #-3650	; 0xe42
 424:	86058506 	strhi	r8, [r5], -r6, lsl #10
 428:	88038704 	stmdahi	r3, {r2, r8, r9, sl, pc}
 42c:	00018e02 	andeq	r8, r1, r2, lsl #28
 430:	00000020 	andeq	r0, r0, r0, lsr #32
 434:	00000400 	andeq	r0, r0, r0, lsl #8
 438:	00008f3c 	andeq	r8, r0, ip, lsr pc
 43c:	000001c8 	andeq	r0, r0, r8, asr #3
 440:	83200e42 	teqhi	r0, #1056	; 0x420
 444:	85078408 	strhi	r8, [r7, #-1032]	; 0x408
 448:	87058606 	strhi	r8, [r5, -r6, lsl #12]
 44c:	89038804 	stmdbhi	r3, {r2, fp, pc}
 450:	00018e02 	andeq	r8, r1, r2, lsl #28
 454:	00000024 	andeq	r0, r0, r4, lsr #32
 458:	00000400 	andeq	r0, r0, r0, lsl #8
 45c:	00009104 	andeq	r9, r0, r4, lsl #2
 460:	000000a4 	andeq	r0, r0, r4, lsr #1
 464:	84200e42 	strthi	r0, [r0], #-3650	; 0xe42
 468:	86078508 	strhi	r8, [r7], -r8, lsl #10
 46c:	88058706 	stmdahi	r5, {r1, r2, r8, r9, sl, pc}
 470:	8a038904 	bhi	e2888 <__bss_end__+0xd8ac8>
 474:	42018e02 	andmi	r8, r1, #2, 28
 478:	0000280e 	andeq	r2, r0, lr, lsl #16
 47c:	00000020 	andeq	r0, r0, r0, lsr #32
 480:	00000400 	andeq	r0, r0, r0, lsl #8
 484:	000091a8 	andeq	r9, r0, r8, lsr #3
 488:	00000090 	muleq	r0, r0, r0
 48c:	84180e42 	ldrhi	r0, [r8], #-3650	; 0xe42
 490:	86058506 	strhi	r8, [r5], -r6, lsl #10
 494:	88038704 	stmdahi	r3, {r2, r8, r9, sl, pc}
 498:	42018e02 	andmi	r8, r1, #2, 28
 49c:	0000200e 	andeq	r2, r0, lr
 4a0:	00000020 	andeq	r0, r0, r0, lsr #32
 4a4:	00000400 	andeq	r0, r0, r0, lsl #8
 4a8:	00009238 	andeq	r9, r0, r8, lsr r2
 4ac:	000000d4 	ldrdeq	r0, [r0], -r4
 4b0:	84180e42 	ldrhi	r0, [r8], #-3650	; 0xe42
 4b4:	86058506 	strhi	r8, [r5], -r6, lsl #10
 4b8:	88038704 	stmdahi	r3, {r2, r8, r9, sl, pc}
 4bc:	42018e02 	andmi	r8, r1, #2, 28
 4c0:	0000200e 	andeq	r2, r0, lr
 4c4:	00000014 	andeq	r0, r0, r4, lsl r0
 4c8:	00000400 	andeq	r0, r0, r0, lsl #8
 4cc:	0000930c 	andeq	r9, r0, ip, lsl #6
 4d0:	0000003c 	andeq	r0, r0, ip, lsr r0
 4d4:	83080e42 	movwhi	r0, #36418	; 0x8e42
 4d8:	00018e02 	andeq	r8, r1, r2, lsl #28
 4dc:	00000018 	andeq	r0, r0, r8, lsl r0
 4e0:	00000400 	andeq	r0, r0, r0, lsl #8
 4e4:	00009348 	andeq	r9, r0, r8, asr #6
 4e8:	0000002c 	andeq	r0, r0, ip, lsr #32
 4ec:	83100e42 	tsthi	r0, #1056	; 0x420
 4f0:	85038404 	strhi	r8, [r3, #-1028]	; 0x404
 4f4:	00018e02 	andeq	r8, r1, r2, lsl #28
 4f8:	00000024 	andeq	r0, r0, r4, lsr #32
 4fc:	00000400 	andeq	r0, r0, r0, lsl #8
 500:	00009374 	andeq	r9, r0, r4, ror r3
 504:	00000090 	muleq	r0, r0, r0
 508:	810c0e42 	tsthi	ip, r2, asr #28
 50c:	83028203 	movwhi	r8, #8707	; 0x2203
 510:	180e4201 	stmdane	lr, {r0, r9, lr}
 514:	05850684 	streq	r0, [r5, #1668]	; 0x684
 518:	0e42048e 	cdpeq	4, 4, cr0, cr2, cr14, {4}
 51c:	000003f0 	strdeq	r0, [r0], -r0	; <UNPREDICTABLE>
 520:	00000014 	andeq	r0, r0, r4, lsl r0
 524:	00000400 	andeq	r0, r0, r0, lsl #8
 528:	00009404 	andeq	r9, r0, r4, lsl #8
 52c:	0000004c 	andeq	r0, r0, ip, asr #32
 530:	8e040e42 	cdphi	14, 0, cr0, cr4, cr2, {2}
 534:	100e4201 	andne	r4, lr, r1, lsl #4
 538:	0000000c 	andeq	r0, r0, ip
 53c:	ffffffff 			; <UNDEFINED> instruction: 0xffffffff
 540:	7c020001 	stcvc	0, cr0, [r2], {1}
 544:	000d0c0e 	andeq	r0, sp, lr, lsl #24
 548:	00000014 	andeq	r0, r0, r4, lsl r0
 54c:	00000538 	andeq	r0, r0, r8, lsr r5
 550:	000094b4 			; <UNDEFINED> instruction: 0x000094b4
 554:	00000014 	andeq	r0, r0, r4, lsl r0
 558:	84080e42 	strhi	r0, [r8], #-3650	; 0xe42
 55c:	00018e02 	andeq	r8, r1, r2, lsl #28
 560:	0000000c 	andeq	r0, r0, ip
 564:	00000538 	andeq	r0, r0, r8, lsr r5
 568:	000094c8 	andeq	r9, r0, r8, asr #9
 56c:	00000018 	andeq	r0, r0, r8, lsl r0
 570:	0000000c 	andeq	r0, r0, ip
 574:	00000538 	andeq	r0, r0, r8, lsr r5
 578:	000094e0 	andeq	r9, r0, r0, ror #9
 57c:	00000010 	andeq	r0, r0, r0, lsl r0
 580:	0000000c 	andeq	r0, r0, ip
 584:	ffffffff 			; <UNDEFINED> instruction: 0xffffffff
 588:	7c020001 	stcvc	0, cr0, [r2], {1}
 58c:	000d0c0e 	andeq	r0, sp, lr, lsl #24
 590:	00000014 	andeq	r0, r0, r4, lsl r0
 594:	00000580 	andeq	r0, r0, r0, lsl #11
 598:	000094f0 	strdeq	r9, [r0], -r0
 59c:	00000028 	andeq	r0, r0, r8, lsr #32
 5a0:	83080e42 	movwhi	r0, #36418	; 0x8e42
 5a4:	00018e02 	andeq	r8, r1, r2, lsl #28
 5a8:	0000000c 	andeq	r0, r0, ip
 5ac:	00000580 	andeq	r0, r0, r0, lsl #11
 5b0:	00009518 	andeq	r9, r0, r8, lsl r5
 5b4:	00000028 	andeq	r0, r0, r8, lsr #32
 5b8:	0000000c 	andeq	r0, r0, ip
 5bc:	ffffffff 			; <UNDEFINED> instruction: 0xffffffff
 5c0:	7c020001 	stcvc	0, cr0, [r2], {1}
 5c4:	000d0c0e 	andeq	r0, sp, lr, lsl #24
 5c8:	00000018 	andeq	r0, r0, r8, lsl r0
 5cc:	000005b8 			; <UNDEFINED> instruction: 0x000005b8
 5d0:	00009540 	andeq	r9, r0, r0, asr #10
 5d4:	0000009c 	muleq	r0, ip, r0
 5d8:	83100e42 	tsthi	r0, #1056	; 0x420
 5dc:	85038404 	strhi	r8, [r3, #-1028]	; 0x404
 5e0:	00018e02 	andeq	r8, r1, r2, lsl #28
 5e4:	00000014 	andeq	r0, r0, r4, lsl r0
 5e8:	000005b8 			; <UNDEFINED> instruction: 0x000005b8
 5ec:	000095dc 	ldrdeq	r9, [r0], -ip
 5f0:	0000001c 	andeq	r0, r0, ip, lsl r0
 5f4:	83080e42 	movwhi	r0, #36418	; 0x8e42
 5f8:	00018e02 	andeq	r8, r1, r2, lsl #28
 5fc:	00000014 	andeq	r0, r0, r4, lsl r0
 600:	000005b8 			; <UNDEFINED> instruction: 0x000005b8
 604:	000095f8 	strdeq	r9, [r0], -r8
 608:	00000028 	andeq	r0, r0, r8, lsr #32
 60c:	83080e42 	movwhi	r0, #36418	; 0x8e42
 610:	00018e02 	andeq	r8, r1, r2, lsl #28
 614:	00000014 	andeq	r0, r0, r4, lsl r0
 618:	000005b8 			; <UNDEFINED> instruction: 0x000005b8
 61c:	00009620 	andeq	r9, r0, r0, lsr #12
 620:	0000001c 	andeq	r0, r0, ip, lsl r0
 624:	83080e42 	movwhi	r0, #36418	; 0x8e42
 628:	00018e02 	andeq	r8, r1, r2, lsl #28
 62c:	00000014 	andeq	r0, r0, r4, lsl r0
 630:	000005b8 			; <UNDEFINED> instruction: 0x000005b8
 634:	0000963c 	andeq	r9, r0, ip, lsr r6
 638:	0000002c 	andeq	r0, r0, ip, lsr #32
 63c:	84080e42 	strhi	r0, [r8], #-3650	; 0xe42
 640:	00018e02 	andeq	r8, r1, r2, lsl #28
 644:	00000014 	andeq	r0, r0, r4, lsl r0
 648:	000005b8 			; <UNDEFINED> instruction: 0x000005b8
 64c:	00009668 	andeq	r9, r0, r8, ror #12
 650:	0000000c 	andeq	r0, r0, ip
 654:	83080e42 	movwhi	r0, #36418	; 0x8e42
 658:	00018e02 	andeq	r8, r1, r2, lsl #28
 65c:	00000014 	andeq	r0, r0, r4, lsl r0
 660:	000005b8 			; <UNDEFINED> instruction: 0x000005b8
 664:	00009674 	andeq	r9, r0, r4, ror r6
 668:	00000020 	andeq	r0, r0, r0, lsr #32
 66c:	83080e42 	movwhi	r0, #36418	; 0x8e42
 670:	00018e02 	andeq	r8, r1, r2, lsl #28
 674:	0000000c 	andeq	r0, r0, ip
 678:	ffffffff 			; <UNDEFINED> instruction: 0xffffffff
 67c:	7c020001 	stcvc	0, cr0, [r2], {1}
 680:	000d0c0e 	andeq	r0, sp, lr, lsl #24
 684:	0000000c 	andeq	r0, r0, ip
 688:	00000674 	andeq	r0, r0, r4, ror r6
 68c:	00009694 	muleq	r0, r4, r6
 690:	00000020 	andeq	r0, r0, r0, lsr #32
