
test-gen.elf:     file format elf32-littlearm


Disassembly of section .text:

00008000 <_start>:
    8000:	e3a0d302 	mov	sp, #134217728	; 0x8000000
    8004:	e3a0b000 	mov	fp, #0
    8008:	eb0001c5 	bl	8724 <_cstart>
    800c:	eb0001f3 	bl	87e0 <rpi_reboot>

00008010 <test_gen>:
    8010:	e92d4ff0 	push	{r4, r5, r6, r7, r8, r9, sl, fp, lr}
    8014:	e1a0a000 	mov	sl, r0
    8018:	e24dd00c 	sub	sp, sp, #12
    801c:	e1a08001 	mov	r8, r1
    8020:	e1a05002 	mov	r5, r2
    8024:	ee1f9f3c 	mrc	15, 0, r9, cr15, cr12, {1}
    8028:	e3a02001 	mov	r2, #1
    802c:	e1a02012 	lsl	r2, r2, r0
    8030:	e59f6094 	ldr	r6, [pc, #148]	; 80cc <test_gen+0xbc>
    8034:	e1a0c009 	mov	ip, r9
    8038:	e5967000 	ldr	r7, [r6]
    803c:	e1a0b006 	mov	fp, r6
    8040:	e1580007 	cmp	r8, r7
    8044:	9a000015 	bls	80a0 <test_gen+0x90>
    8048:	ee1f4f3c 	mrc	15, 0, r4, cr15, cr12, {1}
    804c:	e06c3004 	rsb	r3, ip, r4
    8050:	e1530005 	cmp	r3, r5
    8054:	3afffffb 	bcc	8048 <test_gen+0x38>
    8058:	e5963004 	ldr	r3, [r6, #4]
    805c:	e3530001 	cmp	r3, #1
    8060:	0a000015 	beq	80bc <test_gen+0xac>
    8064:	e35a001f 	cmp	sl, #31
    8068:	8a000006 	bhi	8088 <test_gen+0x78>
    806c:	e59f005c 	ldr	r0, [pc, #92]	; 80d0 <test_gen+0xc0>
    8070:	e1a01002 	mov	r1, r2
    8074:	e58d2004 	str	r2, [sp, #4]
    8078:	eb000514 	bl	94d0 <put32>
    807c:	e59b7000 	ldr	r7, [fp]
    8080:	e59b3004 	ldr	r3, [fp, #4]
    8084:	e59d2004 	ldr	r2, [sp, #4]
    8088:	e2877001 	add	r7, r7, #1
    808c:	e2233001 	eor	r3, r3, #1
    8090:	e5867000 	str	r7, [r6]
    8094:	e5863004 	str	r3, [r6, #4]
    8098:	e1a0c004 	mov	ip, r4
    809c:	eaffffe7 	b	8040 <test_gen+0x30>
    80a0:	ee1f2f3c 	mrc	15, 0, r2, cr15, cr12, {1}
    80a4:	e0010895 	mul	r1, r5, r8
    80a8:	e59f0024 	ldr	r0, [pc, #36]	; 80d4 <test_gen+0xc4>
    80ac:	e0692002 	rsb	r2, r9, r2
    80b0:	e28dd00c 	add	sp, sp, #12
    80b4:	e8bd4ff0 	pop	{r4, r5, r6, r7, r8, r9, sl, fp, lr}
    80b8:	ea000013 	b	810c <printk>
    80bc:	e35a001f 	cmp	sl, #31
    80c0:	8afffff0 	bhi	8088 <test_gen+0x78>
    80c4:	e59f000c 	ldr	r0, [pc, #12]	; 80d8 <test_gen+0xc8>
    80c8:	eaffffe8 	b	8070 <test_gen+0x60>
    80cc:	00009a14 	andeq	r9, r0, r4, lsl sl
    80d0:	2020001c 	eorcs	r0, r0, ip, lsl r0
    80d4:	000097b8 			; <UNDEFINED> instruction: 0x000097b8
    80d8:	20200028 	eorcs	r0, r0, r8, lsr #32

000080dc <notmain>:
    80dc:	e92d4008 	push	{r3, lr}
    80e0:	eb000175 	bl	86bc <enable_cache>
    80e4:	e3a00015 	mov	r0, #21
    80e8:	eb0001f0 	bl	88b0 <gpio_set_output>
    80ec:	e3a03001 	mov	r3, #1
    80f0:	ee0f3f1c 	mcr	15, 0, r3, cr15, cr12, {0}
    80f4:	e3a00015 	mov	r0, #21
    80f8:	e3a0100b 	mov	r1, #11
    80fc:	e59f2004 	ldr	r2, [pc, #4]	; 8108 <notmain+0x2c>
    8100:	ebffffc2 	bl	8010 <test_gen>
    8104:	eb000174 	bl	86dc <clean_reboot>
    8108:	00001770 	andeq	r1, r0, r0, ror r7

0000810c <printk>:
    810c:	e92d000f 	push	{r0, r1, r2, r3}
    8110:	e92d4030 	push	{r4, r5, lr}
    8114:	e24dd00c 	sub	sp, sp, #12
    8118:	e28d301c 	add	r3, sp, #28
    811c:	e58d3004 	str	r3, [sp, #4]
    8120:	e59f4034 	ldr	r4, [pc, #52]	; 815c <printk+0x50>
    8124:	e1a00004 	mov	r0, r4
    8128:	e3a01b01 	mov	r1, #1024	; 0x400
    812c:	e59d2018 	ldr	r2, [sp, #24]
    8130:	eb0000bc 	bl	8428 <va_printk>
    8134:	e1a05000 	mov	r5, r0
    8138:	e59f3020 	ldr	r3, [pc, #32]	; 8160 <printk+0x54>
    813c:	e5933000 	ldr	r3, [r3]
    8140:	e1a00004 	mov	r0, r4
    8144:	e12fff33 	blx	r3
    8148:	e1a00005 	mov	r0, r5
    814c:	e28dd00c 	add	sp, sp, #12
    8150:	e8bd4030 	pop	{r4, r5, lr}
    8154:	e28dd010 	add	sp, sp, #16
    8158:	e12fff1e 	bx	lr
    815c:	00009a1c 	andeq	r9, r0, ip, lsl sl
    8160:	0000971c 	andeq	r9, r0, ip, lsl r7

00008164 <internal_putk>:
    8164:	e92d4038 	push	{r3, r4, r5, lr}
    8168:	e1a04000 	mov	r4, r0
    816c:	e59f5020 	ldr	r5, [pc, #32]	; 8194 <internal_putk+0x30>
    8170:	ea000002 	b	8180 <internal_putk+0x1c>
    8174:	e5953000 	ldr	r3, [r5]
    8178:	e12fff33 	blx	r3
    817c:	e2844001 	add	r4, r4, #1
    8180:	e5d40000 	ldrb	r0, [r4]
    8184:	e3500000 	cmp	r0, #0
    8188:	1afffff9 	bne	8174 <internal_putk+0x10>
    818c:	e3a00001 	mov	r0, #1
    8190:	e8bd8038 	pop	{r3, r4, r5, pc}
    8194:	00009780 	andeq	r9, r0, r0, lsl #15

00008198 <isdigit>:
    8198:	e2400030 	sub	r0, r0, #48	; 0x30
    819c:	e3500009 	cmp	r0, #9
    81a0:	83a00000 	movhi	r0, #0
    81a4:	93a00001 	movls	r0, #1
    81a8:	e12fff1e 	bx	lr

000081ac <pad>:
    81ac:	e0611000 	rsb	r1, r1, r0
    81b0:	e3a03020 	mov	r3, #32
    81b4:	ea000002 	b	81c4 <pad+0x18>
    81b8:	e5c03000 	strb	r3, [r0]
    81bc:	e2811001 	add	r1, r1, #1
    81c0:	e2800001 	add	r0, r0, #1
    81c4:	e1510002 	cmp	r1, r2
    81c8:	bafffffa 	blt	81b8 <pad+0xc>
    81cc:	e3a03000 	mov	r3, #0
    81d0:	e5c03000 	strb	r3, [r0]
    81d4:	e12fff1e 	bx	lr

000081d8 <reverse>:
    81d8:	e063c002 	rsb	ip, r3, r2
    81dc:	e28cc001 	add	ip, ip, #1
    81e0:	e15c0001 	cmp	ip, r1
    81e4:	c061100c 	rsbgt	r1, r1, ip
    81e8:	c0833001 	addgt	r3, r3, r1
    81ec:	e2422001 	sub	r2, r2, #1
    81f0:	e1a01000 	mov	r1, r0
    81f4:	ea000002 	b	8204 <reverse+0x2c>
    81f8:	e452c001 	ldrb	ip, [r2], #-1
    81fc:	e5c1c000 	strb	ip, [r1]
    8200:	e2811001 	add	r1, r1, #1
    8204:	e1520003 	cmp	r2, r3
    8208:	2afffffa 	bcs	81f8 <reverse+0x20>
    820c:	e3a03000 	mov	r3, #0
    8210:	e5c13000 	strb	r3, [r1]
    8214:	e12fff1e 	bx	lr

00008218 <emit>:
    8218:	e92d41f0 	push	{r4, r5, r6, r7, r8, lr}
    821c:	e24dd048 	sub	sp, sp, #72	; 0x48
    8220:	e1a05001 	mov	r5, r1
    8224:	e1a04002 	mov	r4, r2
    8228:	e59d2060 	ldr	r2, [sp, #96]	; 0x60
    822c:	e1520004 	cmp	r2, r4
    8230:	c2442001 	subgt	r2, r4, #1
    8234:	e1a0c003 	mov	ip, r3
    8238:	e2400002 	sub	r0, r0, #2
    823c:	e350000e 	cmp	r0, #14
    8240:	979ff100 	ldrls	pc, [pc, r0, lsl #2]
    8244:	ea000042 	b	8354 <emit+0x13c>
    8248:	0000832c 	andeq	r8, r0, ip, lsr #6
    824c:	00008354 	andeq	r8, r0, r4, asr r3
    8250:	00008354 	andeq	r8, r0, r4, asr r3
    8254:	00008354 	andeq	r8, r0, r4, asr r3
    8258:	00008354 	andeq	r8, r0, r4, asr r3
    825c:	00008354 	andeq	r8, r0, r4, asr r3
    8260:	00008320 	andeq	r8, r0, r0, lsr #6
    8264:	00008354 	andeq	r8, r0, r4, asr r3
    8268:	00008284 	andeq	r8, r0, r4, lsl #5
    826c:	00008354 	andeq	r8, r0, r4, asr r3
    8270:	00008354 	andeq	r8, r0, r4, asr r3
    8274:	00008354 	andeq	r8, r0, r4, asr r3
    8278:	00008354 	andeq	r8, r0, r4, asr r3
    827c:	00008354 	andeq	r8, r0, r4, asr r3
    8280:	000082f8 	strdeq	r8, [r0], -r8	; <UNPREDICTABLE>
    8284:	e59d1064 	ldr	r1, [sp, #100]	; 0x64
    8288:	e2911000 	adds	r1, r1, #0
    828c:	13a01001 	movne	r1, #1
    8290:	e0111fa3 	ands	r1, r1, r3, lsr #31
    8294:	1263c000 	rsbne	ip, r3, #0
    8298:	13a08001 	movne	r8, #1
    829c:	03a08000 	moveq	r8, #0
    82a0:	e28d1008 	add	r1, sp, #8
    82a4:	e59f70f4 	ldr	r7, [pc, #244]	; 83a0 <emit+0x188>
    82a8:	e59f60f4 	ldr	r6, [pc, #244]	; 83a4 <emit+0x18c>
    82ac:	ea000000 	b	82b4 <emit+0x9c>
    82b0:	e1a01003 	mov	r1, r3
    82b4:	e2813001 	add	r3, r1, #1
    82b8:	e08e0c97 	umull	r0, lr, r7, ip
    82bc:	e1a0e1ae 	lsr	lr, lr, #3
    82c0:	e1a0000e 	mov	r0, lr
    82c4:	e08ee10e 	add	lr, lr, lr, lsl #2
    82c8:	e1a0e08e 	lsl	lr, lr, #1
    82cc:	e06ee00c 	rsb	lr, lr, ip
    82d0:	e7d6c00e 	ldrb	ip, [r6, lr]
    82d4:	e5c1c000 	strb	ip, [r1]
    82d8:	e1a0c000 	mov	ip, r0
    82dc:	e3500000 	cmp	r0, #0
    82e0:	1afffff2 	bne	82b0 <emit+0x98>
    82e4:	e3580000 	cmp	r8, #0
    82e8:	12813002 	addne	r3, r1, #2
    82ec:	13a0002d 	movne	r0, #45	; 0x2d
    82f0:	15c10001 	strbne	r0, [r1, #1]
    82f4:	ea00001f 	b	8378 <emit+0x160>
    82f8:	e28de008 	add	lr, sp, #8
    82fc:	e59f00a4 	ldr	r0, [pc, #164]	; 83a8 <emit+0x190>
    8300:	e28e3001 	add	r3, lr, #1
    8304:	e20c100f 	and	r1, ip, #15
    8308:	e7d01001 	ldrb	r1, [r0, r1]
    830c:	e5ce1000 	strb	r1, [lr]
    8310:	e1a0e003 	mov	lr, r3
    8314:	e1b0c22c 	lsrs	ip, ip, #4
    8318:	1afffff8 	bne	8300 <emit+0xe8>
    831c:	ea000015 	b	8378 <emit+0x160>
    8320:	e5cd3008 	strb	r3, [sp, #8]
    8324:	e28d3009 	add	r3, sp, #9
    8328:	ea000012 	b	8378 <emit+0x160>
    832c:	e28de008 	add	lr, sp, #8
    8330:	e59f0074 	ldr	r0, [pc, #116]	; 83ac <emit+0x194>
    8334:	e28e3001 	add	r3, lr, #1
    8338:	e20c1001 	and	r1, ip, #1
    833c:	e7d01001 	ldrb	r1, [r0, r1]
    8340:	e5ce1000 	strb	r1, [lr]
    8344:	e1a0e003 	mov	lr, r3
    8348:	e1b0c0ac 	lsrs	ip, ip, #1
    834c:	1afffff8 	bne	8334 <emit+0x11c>
    8350:	ea000008 	b	8378 <emit+0x160>
    8354:	eb000475 	bl	9530 <rpi_reset_putc>
    8358:	e59f3050 	ldr	r3, [pc, #80]	; 83b0 <emit+0x198>
    835c:	e58d3000 	str	r3, [sp]
    8360:	e59f004c 	ldr	r0, [pc, #76]	; 83b4 <emit+0x19c>
    8364:	e59f104c 	ldr	r1, [pc, #76]	; 83b8 <emit+0x1a0>
    8368:	e59f204c 	ldr	r2, [pc, #76]	; 83bc <emit+0x1a4>
    836c:	e3a03075 	mov	r3, #117	; 0x75
    8370:	ebffff65 	bl	810c <printk>
    8374:	eb0000d8 	bl	86dc <clean_reboot>
    8378:	e1a00003 	mov	r0, r3
    837c:	e28d1008 	add	r1, sp, #8
    8380:	ebffff89 	bl	81ac <pad>
    8384:	e1a02000 	mov	r2, r0
    8388:	e1a00005 	mov	r0, r5
    838c:	e1a01004 	mov	r1, r4
    8390:	e28d3008 	add	r3, sp, #8
    8394:	ebffff8f 	bl	81d8 <reverse>
    8398:	e28dd048 	add	sp, sp, #72	; 0x48
    839c:	e8bd81f0 	pop	{r4, r5, r6, r7, r8, pc}
    83a0:	cccccccd 	stclgt	12, cr12, [ip], {205}	; 0xcd
    83a4:	00009828 	andeq	r9, r0, r8, lsr #16
    83a8:	00009834 	andeq	r9, r0, r4, lsr r8
    83ac:	00009848 	andeq	r9, r0, r8, asr #16
    83b0:	00009824 	andeq	r9, r0, r4, lsr #16
    83b4:	000097fc 	strdeq	r9, [r0], -ip
    83b8:	00009810 	andeq	r9, r0, r0, lsl r8
    83bc:	000097d8 	ldrdeq	r9, [r0], -r8

000083c0 <rpi_set_output>:
    83c0:	e52de004 	push	{lr}		; (str lr, [sp, #-4]!)
    83c4:	e24dd00c 	sub	sp, sp, #12
    83c8:	e3500000 	cmp	r0, #0
    83cc:	1a000008 	bne	83f4 <rpi_set_output+0x34>
    83d0:	eb000456 	bl	9530 <rpi_reset_putc>
    83d4:	e59f3034 	ldr	r3, [pc, #52]	; 8410 <rpi_set_output+0x50>
    83d8:	e58d3000 	str	r3, [sp]
    83dc:	e59f0030 	ldr	r0, [pc, #48]	; 8414 <rpi_set_output+0x54>
    83e0:	e59f1030 	ldr	r1, [pc, #48]	; 8418 <rpi_set_output+0x58>
    83e4:	e59f2030 	ldr	r2, [pc, #48]	; 841c <rpi_set_output+0x5c>
    83e8:	e3a03020 	mov	r3, #32
    83ec:	ebffff46 	bl	810c <printk>
    83f0:	eb0000b9 	bl	86dc <clean_reboot>
    83f4:	e59f3024 	ldr	r3, [pc, #36]	; 8420 <rpi_set_output+0x60>
    83f8:	e5830000 	str	r0, [r3]
    83fc:	e3510000 	cmp	r1, #0
    8400:	159f301c 	ldrne	r3, [pc, #28]	; 8424 <rpi_set_output+0x64>
    8404:	15831000 	strne	r1, [r3]
    8408:	e28dd00c 	add	sp, sp, #12
    840c:	e49df004 	pop	{pc}		; (ldr pc, [sp], #4)
    8410:	0000984c 	andeq	r9, r0, ip, asr #16
    8414:	000097fc 	strdeq	r9, [r0], -ip
    8418:	00009810 	andeq	r9, r0, r0, lsl r8
    841c:	000097e0 	andeq	r9, r0, r0, ror #15
    8420:	00009780 	andeq	r9, r0, r0, lsl #15
    8424:	0000971c 	andeq	r9, r0, ip, lsl r7

00008428 <va_printk>:
    8428:	e92d4ff0 	push	{r4, r5, r6, r7, r8, r9, sl, fp, lr}
    842c:	e24dd08c 	sub	sp, sp, #140	; 0x8c
    8430:	e1a0a000 	mov	sl, r0
    8434:	e1a09003 	mov	r9, r3
    8438:	e2411001 	sub	r1, r1, #1
    843c:	e0808001 	add	r8, r0, r1
    8440:	e3a03000 	mov	r3, #0
    8444:	e5c03000 	strb	r3, [r0]
    8448:	e1a04000 	mov	r4, r0
    844c:	e1a0b003 	mov	fp, r3
    8450:	ea000088 	b	8678 <va_printk+0x250>
    8454:	e3530025 	cmp	r3, #37	; 0x25
    8458:	12822001 	addne	r2, r2, #1
    845c:	15c43000 	strbne	r3, [r4]
    8460:	12844001 	addne	r4, r4, #1
    8464:	1a000083 	bne	8678 <va_printk+0x250>
    8468:	e5d21001 	ldrb	r1, [r2, #1]
    846c:	e3510025 	cmp	r1, #37	; 0x25
    8470:	05c43000 	strbeq	r3, [r4]
    8474:	02822002 	addeq	r2, r2, #2
    8478:	02844001 	addeq	r4, r4, #1
    847c:	0a00007d 	beq	8678 <va_printk+0x250>
    8480:	e2826001 	add	r6, r2, #1
    8484:	e1a0700b 	mov	r7, fp
    8488:	ea000004 	b	84a0 <va_printk+0x78>
    848c:	e0877107 	add	r7, r7, r7, lsl #2
    8490:	e1a07087 	lsl	r7, r7, #1
    8494:	e0877005 	add	r7, r7, r5
    8498:	e2477030 	sub	r7, r7, #48	; 0x30
    849c:	e2866001 	add	r6, r6, #1
    84a0:	e5d65000 	ldrb	r5, [r6]
    84a4:	e1a00005 	mov	r0, r5
    84a8:	ebffff3a 	bl	8198 <isdigit>
    84ac:	e3500000 	cmp	r0, #0
    84b0:	1afffff5 	bne	848c <va_printk+0x64>
    84b4:	e357001f 	cmp	r7, #31
    84b8:	9a000008 	bls	84e0 <va_printk+0xb8>
    84bc:	eb00041b 	bl	9530 <rpi_reset_putc>
    84c0:	e59f31dc 	ldr	r3, [pc, #476]	; 86a4 <va_printk+0x27c>
    84c4:	e58d3000 	str	r3, [sp]
    84c8:	e59f01d8 	ldr	r0, [pc, #472]	; 86a8 <va_printk+0x280>
    84cc:	e59f11d8 	ldr	r1, [pc, #472]	; 86ac <va_printk+0x284>
    84d0:	e59f21d8 	ldr	r2, [pc, #472]	; 86b0 <va_printk+0x288>
    84d4:	e3a03092 	mov	r3, #146	; 0x92
    84d8:	ebffff0b 	bl	810c <printk>
    84dc:	eb00007e 	bl	86dc <clean_reboot>
    84e0:	e2455062 	sub	r5, r5, #98	; 0x62
    84e4:	e3550016 	cmp	r5, #22
    84e8:	979ff105 	ldrls	pc, [pc, r5, lsl #2]
    84ec:	ea00004e 	b	862c <va_printk+0x204>
    84f0:	000085d8 	ldrdeq	r8, [r0], -r8	; <UNPREDICTABLE>
    84f4:	00008608 	andeq	r8, r0, r8, lsl #12
    84f8:	00008568 	andeq	r8, r0, r8, ror #10
    84fc:	0000862c 	andeq	r8, r0, ip, lsr #12
    8500:	0000854c 	andeq	r8, r0, ip, asr #10
    8504:	0000862c 	andeq	r8, r0, ip, lsr #12
    8508:	0000862c 	andeq	r8, r0, ip, lsr #12
    850c:	0000862c 	andeq	r8, r0, ip, lsr #12
    8510:	0000862c 	andeq	r8, r0, ip, lsr #12
    8514:	0000862c 	andeq	r8, r0, ip, lsr #12
    8518:	0000862c 	andeq	r8, r0, ip, lsr #12
    851c:	0000862c 	andeq	r8, r0, ip, lsr #12
    8520:	0000862c 	andeq	r8, r0, ip, lsr #12
    8524:	0000862c 	andeq	r8, r0, ip, lsr #12
    8528:	000085b4 			; <UNDEFINED> instruction: 0x000085b4
    852c:	0000862c 	andeq	r8, r0, ip, lsr #12
    8530:	0000862c 	andeq	r8, r0, ip, lsr #12
    8534:	000085fc 	strdeq	r8, [r0], -ip
    8538:	0000862c 	andeq	r8, r0, ip, lsr #12
    853c:	00008590 	muleq	r0, r0, r5
    8540:	0000862c 	andeq	r8, r0, ip, lsr #12
    8544:	0000862c 	andeq	r8, r0, ip, lsr #12
    8548:	000085b4 			; <UNDEFINED> instruction: 0x000085b4
    854c:	eb0003f7 	bl	9530 <rpi_reset_putc>
    8550:	e59f015c 	ldr	r0, [pc, #348]	; 86b4 <va_printk+0x28c>
    8554:	e59f1150 	ldr	r1, [pc, #336]	; 86ac <va_printk+0x284>
    8558:	e59f2150 	ldr	r2, [pc, #336]	; 86b0 <va_printk+0x288>
    855c:	e3a03098 	mov	r3, #152	; 0x98
    8560:	ebfffee9 	bl	810c <printk>
    8564:	eb00005c 	bl	86dc <clean_reboot>
    8568:	e5993000 	ldr	r3, [r9]
    856c:	e2899004 	add	r9, r9, #4
    8570:	e58d7000 	str	r7, [sp]
    8574:	e3a02001 	mov	r2, #1
    8578:	e58d2004 	str	r2, [sp, #4]
    857c:	e3a0000a 	mov	r0, #10
    8580:	e28d1008 	add	r1, sp, #8
    8584:	e3a02080 	mov	r2, #128	; 0x80
    8588:	ebffff22 	bl	8218 <emit>
    858c:	ea00002f 	b	8650 <va_printk+0x228>
    8590:	e5993000 	ldr	r3, [r9]
    8594:	e2899004 	add	r9, r9, #4
    8598:	e58d7000 	str	r7, [sp]
    859c:	e58db004 	str	fp, [sp, #4]
    85a0:	e3a0000a 	mov	r0, #10
    85a4:	e28d1008 	add	r1, sp, #8
    85a8:	e3a02080 	mov	r2, #128	; 0x80
    85ac:	ebffff19 	bl	8218 <emit>
    85b0:	ea000026 	b	8650 <va_printk+0x228>
    85b4:	e5993000 	ldr	r3, [r9]
    85b8:	e2899004 	add	r9, r9, #4
    85bc:	e58d7000 	str	r7, [sp]
    85c0:	e58db004 	str	fp, [sp, #4]
    85c4:	e3a00010 	mov	r0, #16
    85c8:	e28d1008 	add	r1, sp, #8
    85cc:	e3a02080 	mov	r2, #128	; 0x80
    85d0:	ebffff10 	bl	8218 <emit>
    85d4:	ea00001d 	b	8650 <va_printk+0x228>
    85d8:	e5993000 	ldr	r3, [r9]
    85dc:	e2899004 	add	r9, r9, #4
    85e0:	e58d7000 	str	r7, [sp]
    85e4:	e58db004 	str	fp, [sp, #4]
    85e8:	e3a00002 	mov	r0, #2
    85ec:	e28d1008 	add	r1, sp, #8
    85f0:	e3a02080 	mov	r2, #128	; 0x80
    85f4:	ebffff07 	bl	8218 <emit>
    85f8:	ea000014 	b	8650 <va_printk+0x228>
    85fc:	e5990000 	ldr	r0, [r9]
    8600:	e2899004 	add	r9, r9, #4
    8604:	ea000011 	b	8650 <va_printk+0x228>
    8608:	e5993000 	ldr	r3, [r9]
    860c:	e2899004 	add	r9, r9, #4
    8610:	e58d7000 	str	r7, [sp]
    8614:	e58db004 	str	fp, [sp, #4]
    8618:	e3a00008 	mov	r0, #8
    861c:	e08d1000 	add	r1, sp, r0
    8620:	e3a02080 	mov	r2, #128	; 0x80
    8624:	ebfffefb 	bl	8218 <emit>
    8628:	ea000008 	b	8650 <va_printk+0x228>
    862c:	eb0003bf 	bl	9530 <rpi_reset_putc>
    8630:	e5d63000 	ldrb	r3, [r6]
    8634:	e58d3000 	str	r3, [sp]
    8638:	e59f0078 	ldr	r0, [pc, #120]	; 86b8 <va_printk+0x290>
    863c:	e59f1068 	ldr	r1, [pc, #104]	; 86ac <va_printk+0x284>
    8640:	e59f2068 	ldr	r2, [pc, #104]	; 86b0 <va_printk+0x288>
    8644:	e3a030b9 	mov	r3, #185	; 0xb9
    8648:	ebfffeaf 	bl	810c <printk>
    864c:	eb000022 	bl	86dc <clean_reboot>
    8650:	e2862001 	add	r2, r6, #1
    8654:	ea000002 	b	8664 <va_printk+0x23c>
    8658:	e2800001 	add	r0, r0, #1
    865c:	e5c43000 	strb	r3, [r4]
    8660:	e2844001 	add	r4, r4, #1
    8664:	e1540008 	cmp	r4, r8
    8668:	2a000002 	bcs	8678 <va_printk+0x250>
    866c:	e5d03000 	ldrb	r3, [r0]
    8670:	e3530000 	cmp	r3, #0
    8674:	1afffff7 	bne	8658 <va_printk+0x230>
    8678:	e5d23000 	ldrb	r3, [r2]
    867c:	e3530000 	cmp	r3, #0
    8680:	0a000001 	beq	868c <va_printk+0x264>
    8684:	e1540008 	cmp	r4, r8
    8688:	3affff71 	bcc	8454 <va_printk+0x2c>
    868c:	e2840001 	add	r0, r4, #1
    8690:	e3a03000 	mov	r3, #0
    8694:	e5c43000 	strb	r3, [r4]
    8698:	e06a0000 	rsb	r0, sl, r0
    869c:	e28dd08c 	add	sp, sp, #140	; 0x8c
    86a0:	e8bd8ff0 	pop	{r4, r5, r6, r7, r8, r9, sl, fp, pc}
    86a4:	00009854 	andeq	r9, r0, r4, asr r8
    86a8:	000097fc 	strdeq	r9, [r0], -ip
    86ac:	00009810 	andeq	r9, r0, r0, lsl r8
    86b0:	000097f0 	strdeq	r9, [r0], -r0
    86b4:	00009860 	andeq	r9, r0, r0, ror #16
    86b8:	00009888 	andeq	r9, r0, r8, lsl #17

000086bc <enable_cache>:
    86bc:	ee113f10 	mrc	15, 0, r3, cr1, cr0, {0}
    86c0:	e3833b06 	orr	r3, r3, #6144	; 0x1800
    86c4:	ee013f10 	mcr	15, 0, r3, cr1, cr0, {0}
    86c8:	e12fff1e 	bx	lr

000086cc <disable_cache>:
    86cc:	ee113f10 	mrc	15, 0, r3, cr1, cr0, {0}
    86d0:	e3c33b06 	bic	r3, r3, #6144	; 0x1800
    86d4:	ee013f10 	mcr	15, 0, r3, cr1, cr0, {0}
    86d8:	e12fff1e 	bx	lr

000086dc <clean_reboot>:
    86dc:	e92d4008 	push	{r3, lr}
    86e0:	e59f3014 	ldr	r3, [pc, #20]	; 86fc <clean_reboot+0x20>
    86e4:	e5933000 	ldr	r3, [r3]
    86e8:	e59f0010 	ldr	r0, [pc, #16]	; 8700 <clean_reboot+0x24>
    86ec:	e12fff33 	blx	r3
    86f0:	e3a00064 	mov	r0, #100	; 0x64
    86f4:	eb000063 	bl	8888 <delay_ms>
    86f8:	eb000038 	bl	87e0 <rpi_reboot>
    86fc:	0000971c 	andeq	r9, r0, ip, lsl r7
    8700:	000098c0 	andeq	r9, r0, r0, asr #17

00008704 <internal_sw_putchar>:
    8704:	e92d4010 	push	{r4, lr}
    8708:	e1a04000 	mov	r4, r0
    870c:	e59f000c 	ldr	r0, [pc, #12]	; 8720 <internal_sw_putchar+0x1c>
    8710:	e6ef1074 	uxtb	r1, r4
    8714:	eb0001cd 	bl	8e50 <sw_uart_putc>
    8718:	e1a00004 	mov	r0, r4
    871c:	e8bd8010 	pop	{r4, pc}
    8720:	00009e1c 	andeq	r9, r0, ip, lsl lr

00008724 <_cstart>:
    8724:	e92d4008 	push	{r3, lr}
    8728:	e59f3068 	ldr	r3, [pc, #104]	; 8798 <_cstart+0x74>
    872c:	e59f2068 	ldr	r2, [pc, #104]	; 879c <_cstart+0x78>
    8730:	e3a01000 	mov	r1, #0
    8734:	ea000001 	b	8740 <_cstart+0x1c>
    8738:	e5831000 	str	r1, [r3]
    873c:	e2833004 	add	r3, r3, #4
    8740:	e1530002 	cmp	r3, r2
    8744:	3afffffb 	bcc	8738 <_cstart+0x14>
    8748:	eb00038c 	bl	9580 <cb_get_block>
    874c:	e3500000 	cmp	r0, #0
    8750:	0a00000e 	beq	8790 <_cstart+0x6c>
    8754:	e5d02004 	ldrb	r2, [r0, #4]
    8758:	e3520002 	cmp	r2, #2
    875c:	1a00000b 	bne	8790 <_cstart+0x6c>
    8760:	e59f1038 	ldr	r1, [pc, #56]	; 87a0 <_cstart+0x7c>
    8764:	e59f2038 	ldr	r2, [pc, #56]	; 87a4 <_cstart+0x80>
    8768:	e5821000 	str	r1, [r2]
    876c:	e59fc034 	ldr	ip, [pc, #52]	; 87a8 <_cstart+0x84>
    8770:	e2803008 	add	r3, r0, #8
    8774:	e8930007 	ldm	r3, {r0, r1, r2}
    8778:	e88c0007 	stm	ip, {r0, r1, r2}
    877c:	e1a0000c 	mov	r0, ip
    8780:	e59f1024 	ldr	r1, [pc, #36]	; 87ac <_cstart+0x88>
    8784:	eb000314 	bl	93dc <sw_uart_printk>
    8788:	e59f0020 	ldr	r0, [pc, #32]	; 87b0 <_cstart+0x8c>
    878c:	ebfffe5e 	bl	810c <printk>
    8790:	ebfffe51 	bl	80dc <notmain>
    8794:	eb000011 	bl	87e0 <rpi_reboot>
    8798:	00009a14 	andeq	r9, r0, r4, lsl sl
    879c:	00009e28 	andeq	r9, r0, r8, lsr #28
    87a0:	00008704 	andeq	r8, r0, r4, lsl #14
    87a4:	00009780 	andeq	r9, r0, r0, lsl #15
    87a8:	00009e1c 	andeq	r9, r0, ip, lsl lr
    87ac:	000098cc 	andeq	r9, r0, ip, asr #17
    87b0:	000098f0 	strdeq	r9, [r0], -r0

000087b4 <at_user_level>:
    87b4:	e10f0000 	mrs	r0, CPSR
    87b8:	e200001f 	and	r0, r0, #31
    87bc:	e3500010 	cmp	r0, #16
    87c0:	13a00000 	movne	r0, #0
    87c4:	03a00001 	moveq	r0, #1
    87c8:	e12fff1e 	bx	lr

000087cc <set_user_level>:
    87cc:	e10f3000 	mrs	r3, CPSR
    87d0:	e3c3301f 	bic	r3, r3, #31
    87d4:	e3833010 	orr	r3, r3, #16
    87d8:	e129f003 	msr	CPSR_fc, r3
    87dc:	e12fff1e 	bx	lr

000087e0 <rpi_reboot>:
    87e0:	e92d4008 	push	{r3, lr}
    87e4:	ebfffff2 	bl	87b4 <at_user_level>
    87e8:	e3500000 	cmp	r0, #0
    87ec:	0a000000 	beq	87f4 <rpi_reboot+0x14>
    87f0:	ebfffff5 	bl	87cc <set_user_level>
    87f4:	e3a0001e 	mov	r0, #30
    87f8:	eb000022 	bl	8888 <delay_ms>
    87fc:	e59f0014 	ldr	r0, [pc, #20]	; 8818 <rpi_reboot+0x38>
    8800:	e59f1014 	ldr	r1, [pc, #20]	; 881c <rpi_reboot+0x3c>
    8804:	eb000333 	bl	94d8 <PUT32>
    8808:	e59f0010 	ldr	r0, [pc, #16]	; 8820 <rpi_reboot+0x40>
    880c:	e59f1010 	ldr	r1, [pc, #16]	; 8824 <rpi_reboot+0x44>
    8810:	eb000330 	bl	94d8 <PUT32>
    8814:	eafffffe 	b	8814 <rpi_reboot+0x34>
    8818:	20100024 	andscs	r0, r0, r4, lsr #32
    881c:	5a000001 	bpl	8828 <delay_cycles>
    8820:	2010001c 	andscs	r0, r0, ip, lsl r0
    8824:	5a000020 	bpl	88ac <delay_sec+0x10>

00008828 <delay_cycles>:
    8828:	ea000001 	b	8834 <delay_cycles+0xc>
    882c:	e2811000 	add	r1, r1, #0
    8830:	e1a00003 	mov	r0, r3
    8834:	e2403001 	sub	r3, r0, #1
    8838:	e3500000 	cmp	r0, #0
    883c:	1afffffa 	bne	882c <delay_cycles+0x4>
    8840:	e12fff1e 	bx	lr

00008844 <timer_get_usec_raw>:
    8844:	e92d4008 	push	{r3, lr}
    8848:	e59f0004 	ldr	r0, [pc, #4]	; 8854 <timer_get_usec_raw+0x10>
    884c:	eb00032d 	bl	9508 <GET32>
    8850:	e8bd8008 	pop	{r3, pc}
    8854:	20003004 	andcs	r3, r0, r4

00008858 <timer_get_usec>:
    8858:	e92d4008 	push	{r3, lr}
    885c:	ebfffff8 	bl	8844 <timer_get_usec_raw>
    8860:	e8bd8008 	pop	{r3, pc}

00008864 <delay_us>:
    8864:	e92d4038 	push	{r3, r4, r5, lr}
    8868:	e1a05000 	mov	r5, r0
    886c:	ebfffff9 	bl	8858 <timer_get_usec>
    8870:	e1a04000 	mov	r4, r0
    8874:	ebfffff7 	bl	8858 <timer_get_usec>
    8878:	e0640000 	rsb	r0, r4, r0
    887c:	e1500005 	cmp	r0, r5
    8880:	3afffffb 	bcc	8874 <delay_us+0x10>
    8884:	e8bd8038 	pop	{r3, r4, r5, pc}

00008888 <delay_ms>:
    8888:	e92d4008 	push	{r3, lr}
    888c:	e3a03ffa 	mov	r3, #1000	; 0x3e8
    8890:	e0000093 	mul	r0, r3, r0
    8894:	ebfffff2 	bl	8864 <delay_us>
    8898:	e8bd8008 	pop	{r3, pc}

0000889c <delay_sec>:
    889c:	e92d4008 	push	{r3, lr}
    88a0:	e3a03ffa 	mov	r3, #1000	; 0x3e8
    88a4:	e0000093 	mul	r0, r3, r0
    88a8:	ebfffff6 	bl	8888 <delay_ms>
    88ac:	e8bd8008 	pop	{r3, pc}

000088b0 <gpio_set_output>:
    88b0:	e92d4038 	push	{r3, r4, r5, lr}
    88b4:	e1a04000 	mov	r4, r0
    88b8:	e350001f 	cmp	r0, #31
    88bc:	88bd8038 	pophi	{r3, r4, r5, pc}
    88c0:	e59f30b4 	ldr	r3, [pc, #180]	; 897c <gpio_set_output+0xcc>
    88c4:	e0832093 	umull	r2, r3, r3, r0
    88c8:	e1a031a3 	lsr	r3, r3, #3
    88cc:	e3530005 	cmp	r3, #5
    88d0:	979ff103 	ldrls	pc, [pc, r3, lsl #2]
    88d4:	ea000017 	b	8938 <gpio_set_output+0x88>
    88d8:	000088f0 	strdeq	r8, [r0], -r0
    88dc:	000088fc 	strdeq	r8, [r0], -ip
    88e0:	00008908 	andeq	r8, r0, r8, lsl #18
    88e4:	00008914 	andeq	r8, r0, r4, lsl r9
    88e8:	00008920 	andeq	r8, r0, r0, lsr #18
    88ec:	0000892c 	andeq	r8, r0, ip, lsr #18
    88f0:	e59f3088 	ldr	r3, [pc, #136]	; 8980 <gpio_set_output+0xd0>
    88f4:	e5935000 	ldr	r5, [r3]
    88f8:	ea00000f 	b	893c <gpio_set_output+0x8c>
    88fc:	e59f307c 	ldr	r3, [pc, #124]	; 8980 <gpio_set_output+0xd0>
    8900:	e5935004 	ldr	r5, [r3, #4]
    8904:	ea00000c 	b	893c <gpio_set_output+0x8c>
    8908:	e59f3070 	ldr	r3, [pc, #112]	; 8980 <gpio_set_output+0xd0>
    890c:	e5935008 	ldr	r5, [r3, #8]
    8910:	ea000009 	b	893c <gpio_set_output+0x8c>
    8914:	e59f3064 	ldr	r3, [pc, #100]	; 8980 <gpio_set_output+0xd0>
    8918:	e593500c 	ldr	r5, [r3, #12]
    891c:	ea000006 	b	893c <gpio_set_output+0x8c>
    8920:	e59f3058 	ldr	r3, [pc, #88]	; 8980 <gpio_set_output+0xd0>
    8924:	e5935010 	ldr	r5, [r3, #16]
    8928:	ea000003 	b	893c <gpio_set_output+0x8c>
    892c:	e59f304c 	ldr	r3, [pc, #76]	; 8980 <gpio_set_output+0xd0>
    8930:	e5935014 	ldr	r5, [r3, #20]
    8934:	ea000000 	b	893c <gpio_set_output+0x8c>
    8938:	e3a05000 	mov	r5, #0
    893c:	e1a00005 	mov	r0, r5
    8940:	eb0002ee 	bl	9500 <get32>
    8944:	e59f1030 	ldr	r1, [pc, #48]	; 897c <gpio_set_output+0xcc>
    8948:	e0813491 	umull	r3, r1, r1, r4
    894c:	e1a011a1 	lsr	r1, r1, #3
    8950:	e0811101 	add	r1, r1, r1, lsl #2
    8954:	e1a01081 	lsl	r1, r1, #1
    8958:	e0611004 	rsb	r1, r1, r4
    895c:	e0811081 	add	r1, r1, r1, lsl #1
    8960:	e3a03007 	mov	r3, #7
    8964:	e1c03113 	bic	r3, r0, r3, lsl r1
    8968:	e1a00005 	mov	r0, r5
    896c:	e3a02001 	mov	r2, #1
    8970:	e1831112 	orr	r1, r3, r2, lsl r1
    8974:	eb0002d5 	bl	94d0 <put32>
    8978:	e8bd8038 	pop	{r3, r4, r5, pc}
    897c:	cccccccd 	stclgt	12, cr12, [ip], {205}	; 0xcd
    8980:	00009720 	andeq	r9, r0, r0, lsr #14

00008984 <gpio_set_on>:
    8984:	e92d4008 	push	{r3, lr}
    8988:	e350001f 	cmp	r0, #31
    898c:	88bd8008 	pophi	{r3, pc}
    8990:	959f3020 	ldrls	r3, [pc, #32]	; 89b8 <gpio_set_on+0x34>
    8994:	95932018 	ldrls	r2, [r3, #24]
    8998:	859f3018 	ldrhi	r3, [pc, #24]	; 89b8 <gpio_set_on+0x34>
    899c:	8593201c 	ldrhi	r2, [r3, #28]
    89a0:	e200301f 	and	r3, r0, #31
    89a4:	e1a00002 	mov	r0, r2
    89a8:	e3a01001 	mov	r1, #1
    89ac:	e1a01311 	lsl	r1, r1, r3
    89b0:	eb0002c6 	bl	94d0 <put32>
    89b4:	e8bd8008 	pop	{r3, pc}
    89b8:	00009720 	andeq	r9, r0, r0, lsr #14

000089bc <gpio_set_off>:
    89bc:	e92d4008 	push	{r3, lr}
    89c0:	e350001f 	cmp	r0, #31
    89c4:	88bd8008 	pophi	{r3, pc}
    89c8:	959f3020 	ldrls	r3, [pc, #32]	; 89f0 <gpio_set_off+0x34>
    89cc:	95932020 	ldrls	r2, [r3, #32]
    89d0:	859f3018 	ldrhi	r3, [pc, #24]	; 89f0 <gpio_set_off+0x34>
    89d4:	85932024 	ldrhi	r2, [r3, #36]	; 0x24
    89d8:	e200301f 	and	r3, r0, #31
    89dc:	e1a00002 	mov	r0, r2
    89e0:	e3a01001 	mov	r1, #1
    89e4:	e1a01311 	lsl	r1, r1, r3
    89e8:	eb0002b8 	bl	94d0 <put32>
    89ec:	e8bd8008 	pop	{r3, pc}
    89f0:	00009720 	andeq	r9, r0, r0, lsr #14

000089f4 <gpio_set_input>:
    89f4:	e92d4038 	push	{r3, r4, r5, lr}
    89f8:	e1a04000 	mov	r4, r0
    89fc:	e350001f 	cmp	r0, #31
    8a00:	88bd8038 	pophi	{r3, r4, r5, pc}
    8a04:	e59f30ac 	ldr	r3, [pc, #172]	; 8ab8 <gpio_set_input+0xc4>
    8a08:	e0832093 	umull	r2, r3, r3, r0
    8a0c:	e1a031a3 	lsr	r3, r3, #3
    8a10:	e3530005 	cmp	r3, #5
    8a14:	979ff103 	ldrls	pc, [pc, r3, lsl #2]
    8a18:	ea000017 	b	8a7c <gpio_set_input+0x88>
    8a1c:	00008a34 	andeq	r8, r0, r4, lsr sl
    8a20:	00008a40 	andeq	r8, r0, r0, asr #20
    8a24:	00008a4c 	andeq	r8, r0, ip, asr #20
    8a28:	00008a58 	andeq	r8, r0, r8, asr sl
    8a2c:	00008a64 	andeq	r8, r0, r4, ror #20
    8a30:	00008a70 	andeq	r8, r0, r0, ror sl
    8a34:	e59f3080 	ldr	r3, [pc, #128]	; 8abc <gpio_set_input+0xc8>
    8a38:	e5935000 	ldr	r5, [r3]
    8a3c:	ea00000f 	b	8a80 <gpio_set_input+0x8c>
    8a40:	e59f3074 	ldr	r3, [pc, #116]	; 8abc <gpio_set_input+0xc8>
    8a44:	e5935004 	ldr	r5, [r3, #4]
    8a48:	ea00000c 	b	8a80 <gpio_set_input+0x8c>
    8a4c:	e59f3068 	ldr	r3, [pc, #104]	; 8abc <gpio_set_input+0xc8>
    8a50:	e5935008 	ldr	r5, [r3, #8]
    8a54:	ea000009 	b	8a80 <gpio_set_input+0x8c>
    8a58:	e59f305c 	ldr	r3, [pc, #92]	; 8abc <gpio_set_input+0xc8>
    8a5c:	e593500c 	ldr	r5, [r3, #12]
    8a60:	ea000006 	b	8a80 <gpio_set_input+0x8c>
    8a64:	e59f3050 	ldr	r3, [pc, #80]	; 8abc <gpio_set_input+0xc8>
    8a68:	e5935010 	ldr	r5, [r3, #16]
    8a6c:	ea000003 	b	8a80 <gpio_set_input+0x8c>
    8a70:	e59f3044 	ldr	r3, [pc, #68]	; 8abc <gpio_set_input+0xc8>
    8a74:	e5935014 	ldr	r5, [r3, #20]
    8a78:	ea000000 	b	8a80 <gpio_set_input+0x8c>
    8a7c:	e3a05000 	mov	r5, #0
    8a80:	e1a00005 	mov	r0, r5
    8a84:	eb00029d 	bl	9500 <get32>
    8a88:	e59f1028 	ldr	r1, [pc, #40]	; 8ab8 <gpio_set_input+0xc4>
    8a8c:	e0813491 	umull	r3, r1, r1, r4
    8a90:	e1a011a1 	lsr	r1, r1, #3
    8a94:	e0811101 	add	r1, r1, r1, lsl #2
    8a98:	e1a01081 	lsl	r1, r1, #1
    8a9c:	e0611004 	rsb	r1, r1, r4
    8aa0:	e0811081 	add	r1, r1, r1, lsl #1
    8aa4:	e3a03007 	mov	r3, #7
    8aa8:	e1c01113 	bic	r1, r0, r3, lsl r1
    8aac:	e1a00005 	mov	r0, r5
    8ab0:	eb000286 	bl	94d0 <put32>
    8ab4:	e8bd8038 	pop	{r3, r4, r5, pc}
    8ab8:	cccccccd 	stclgt	12, cr12, [ip], {205}	; 0xcd
    8abc:	00009720 	andeq	r9, r0, r0, lsr #14

00008ac0 <gpio_read>:
    8ac0:	e92d4010 	push	{r4, lr}
    8ac4:	e1a04000 	mov	r4, r0
    8ac8:	e350001f 	cmp	r0, #31
    8acc:	8a00000b 	bhi	8b00 <gpio_read+0x40>
    8ad0:	8a000003 	bhi	8ae4 <gpio_read+0x24>
    8ad4:	e59f302c 	ldr	r3, [pc, #44]	; 8b08 <gpio_read+0x48>
    8ad8:	e5930028 	ldr	r0, [r3, #40]	; 0x28
    8adc:	eb000287 	bl	9500 <get32>
    8ae0:	ea000002 	b	8af0 <gpio_read+0x30>
    8ae4:	e59f301c 	ldr	r3, [pc, #28]	; 8b08 <gpio_read+0x48>
    8ae8:	e593002c 	ldr	r0, [r3, #44]	; 0x2c
    8aec:	eb000283 	bl	9500 <get32>
    8af0:	e204401f 	and	r4, r4, #31
    8af4:	e3a03001 	mov	r3, #1
    8af8:	e0000413 	and	r0, r0, r3, lsl r4
    8afc:	e8bd8010 	pop	{r4, pc}
    8b00:	e3e00000 	mvn	r0, #0
    8b04:	e8bd8010 	pop	{r4, pc}
    8b08:	00009720 	andeq	r9, r0, r0, lsr #14

00008b0c <gpio_write>:
    8b0c:	e92d4008 	push	{r3, lr}
    8b10:	e350001f 	cmp	r0, #31
    8b14:	88bd8008 	pophi	{r3, pc}
    8b18:	e3510000 	cmp	r1, #0
    8b1c:	0a000001 	beq	8b28 <gpio_write+0x1c>
    8b20:	ebffff97 	bl	8984 <gpio_set_on>
    8b24:	e8bd8008 	pop	{r3, pc}
    8b28:	ebffffa3 	bl	89bc <gpio_set_off>
    8b2c:	e8bd8008 	pop	{r3, pc}

00008b30 <gpio_set_function>:
    8b30:	e92d4070 	push	{r4, r5, r6, lr}
    8b34:	e1a04000 	mov	r4, r0
    8b38:	e1a05001 	mov	r5, r1
    8b3c:	e3510007 	cmp	r1, #7
    8b40:	9350001f 	cmpls	r0, #31
    8b44:	88bd8070 	pophi	{r4, r5, r6, pc}
    8b48:	e59f30b0 	ldr	r3, [pc, #176]	; 8c00 <gpio_set_function+0xd0>
    8b4c:	e0832093 	umull	r2, r3, r3, r0
    8b50:	e1a031a3 	lsr	r3, r3, #3
    8b54:	e3530005 	cmp	r3, #5
    8b58:	979ff103 	ldrls	pc, [pc, r3, lsl #2]
    8b5c:	ea000017 	b	8bc0 <gpio_set_function+0x90>
    8b60:	00008b78 	andeq	r8, r0, r8, ror fp
    8b64:	00008b84 	andeq	r8, r0, r4, lsl #23
    8b68:	00008b90 	muleq	r0, r0, fp
    8b6c:	00008b9c 	muleq	r0, ip, fp
    8b70:	00008ba8 	andeq	r8, r0, r8, lsr #23
    8b74:	00008bb4 			; <UNDEFINED> instruction: 0x00008bb4
    8b78:	e59f3084 	ldr	r3, [pc, #132]	; 8c04 <gpio_set_function+0xd4>
    8b7c:	e5936000 	ldr	r6, [r3]
    8b80:	ea00000f 	b	8bc4 <gpio_set_function+0x94>
    8b84:	e59f3078 	ldr	r3, [pc, #120]	; 8c04 <gpio_set_function+0xd4>
    8b88:	e5936004 	ldr	r6, [r3, #4]
    8b8c:	ea00000c 	b	8bc4 <gpio_set_function+0x94>
    8b90:	e59f306c 	ldr	r3, [pc, #108]	; 8c04 <gpio_set_function+0xd4>
    8b94:	e5936008 	ldr	r6, [r3, #8]
    8b98:	ea000009 	b	8bc4 <gpio_set_function+0x94>
    8b9c:	e59f3060 	ldr	r3, [pc, #96]	; 8c04 <gpio_set_function+0xd4>
    8ba0:	e593600c 	ldr	r6, [r3, #12]
    8ba4:	ea000006 	b	8bc4 <gpio_set_function+0x94>
    8ba8:	e59f3054 	ldr	r3, [pc, #84]	; 8c04 <gpio_set_function+0xd4>
    8bac:	e5936010 	ldr	r6, [r3, #16]
    8bb0:	ea000003 	b	8bc4 <gpio_set_function+0x94>
    8bb4:	e59f3048 	ldr	r3, [pc, #72]	; 8c04 <gpio_set_function+0xd4>
    8bb8:	e5936014 	ldr	r6, [r3, #20]
    8bbc:	ea000000 	b	8bc4 <gpio_set_function+0x94>
    8bc0:	e3a06000 	mov	r6, #0
    8bc4:	e1a00006 	mov	r0, r6
    8bc8:	eb00024c 	bl	9500 <get32>
    8bcc:	e59f302c 	ldr	r3, [pc, #44]	; 8c00 <gpio_set_function+0xd0>
    8bd0:	e0832493 	umull	r2, r3, r3, r4
    8bd4:	e1a031a3 	lsr	r3, r3, #3
    8bd8:	e0833103 	add	r3, r3, r3, lsl #2
    8bdc:	e1a03083 	lsl	r3, r3, #1
    8be0:	e0633004 	rsb	r3, r3, r4
    8be4:	e0833083 	add	r3, r3, r3, lsl #1
    8be8:	e3a01007 	mov	r1, #7
    8bec:	e1c01311 	bic	r1, r0, r1, lsl r3
    8bf0:	e1a00006 	mov	r0, r6
    8bf4:	e1811315 	orr	r1, r1, r5, lsl r3
    8bf8:	eb000234 	bl	94d0 <put32>
    8bfc:	e8bd8070 	pop	{r4, r5, r6, pc}
    8c00:	cccccccd 	stclgt	12, cr12, [ip], {205}	; 0xcd
    8c04:	00009720 	andeq	r9, r0, r0, lsr #14

00008c08 <gpio_toggle>:
    8c08:	e92d4008 	push	{r3, lr}
    8c0c:	e350001f 	cmp	r0, #31
    8c10:	88bd8008 	pophi	{r3, pc}
    8c14:	959f3020 	ldrls	r3, [pc, #32]	; 8c3c <gpio_toggle+0x34>
    8c18:	95932018 	ldrls	r2, [r3, #24]
    8c1c:	859f3018 	ldrhi	r3, [pc, #24]	; 8c3c <gpio_toggle+0x34>
    8c20:	8593201c 	ldrhi	r2, [r3, #28]
    8c24:	e200301f 	and	r3, r0, #31
    8c28:	e1a00002 	mov	r0, r2
    8c2c:	e3a01001 	mov	r1, #1
    8c30:	e1a01311 	lsl	r1, r1, r3
    8c34:	eb000225 	bl	94d0 <put32>
    8c38:	e8bd8008 	pop	{r3, pc}
    8c3c:	00009720 	andeq	r9, r0, r0, lsr #14

00008c40 <is_gpio_int>:
    8c40:	e92d4008 	push	{r3, lr}
    8c44:	e59f301c 	ldr	r3, [pc, #28]	; 8c68 <is_gpio_int+0x28>
    8c48:	e5930030 	ldr	r0, [r3, #48]	; 0x30
    8c4c:	eb00022b 	bl	9500 <get32>
    8c50:	e3500000 	cmp	r0, #0
    8c54:	0a000001 	beq	8c60 <is_gpio_int+0x20>
    8c58:	e3a00001 	mov	r0, #1
    8c5c:	e8bd8008 	pop	{r3, pc}
    8c60:	e3a00000 	mov	r0, #0
    8c64:	e8bd8008 	pop	{r3, pc}
    8c68:	00009720 	andeq	r9, r0, r0, lsr #14

00008c6c <gpio_int_rising_edge>:
    8c6c:	e92d4038 	push	{r3, r4, r5, lr}
    8c70:	e1a04000 	mov	r4, r0
    8c74:	e350001f 	cmp	r0, #31
    8c78:	88bd8038 	pophi	{r3, r4, r5, pc}
    8c7c:	eb00020d 	bl	94b8 <dev_barrier>
    8c80:	e354001f 	cmp	r4, #31
    8c84:	8a000007 	bhi	8ca8 <gpio_int_rising_edge+0x3c>
    8c88:	e59f505c 	ldr	r5, [pc, #92]	; 8cec <gpio_int_rising_edge+0x80>
    8c8c:	e5950034 	ldr	r0, [r5, #52]	; 0x34
    8c90:	eb00021a 	bl	9500 <get32>
    8c94:	e3a01001 	mov	r1, #1
    8c98:	e1801411 	orr	r1, r0, r1, lsl r4
    8c9c:	e5950034 	ldr	r0, [r5, #52]	; 0x34
    8ca0:	eb00020a 	bl	94d0 <put32>
    8ca4:	ea000007 	b	8cc8 <gpio_int_rising_edge+0x5c>
    8ca8:	e59f503c 	ldr	r5, [pc, #60]	; 8cec <gpio_int_rising_edge+0x80>
    8cac:	e5950038 	ldr	r0, [r5, #56]	; 0x38
    8cb0:	eb000212 	bl	9500 <get32>
    8cb4:	e204401f 	and	r4, r4, #31
    8cb8:	e3a01001 	mov	r1, #1
    8cbc:	e1801411 	orr	r1, r0, r1, lsl r4
    8cc0:	e5950038 	ldr	r0, [r5, #56]	; 0x38
    8cc4:	eb000201 	bl	94d0 <put32>
    8cc8:	eb0001fa 	bl	94b8 <dev_barrier>
    8ccc:	e59f4018 	ldr	r4, [pc, #24]	; 8cec <gpio_int_rising_edge+0x80>
    8cd0:	e594003c 	ldr	r0, [r4, #60]	; 0x3c
    8cd4:	eb000209 	bl	9500 <get32>
    8cd8:	e3801802 	orr	r1, r0, #131072	; 0x20000
    8cdc:	e594003c 	ldr	r0, [r4, #60]	; 0x3c
    8ce0:	eb0001fa 	bl	94d0 <put32>
    8ce4:	eb0001f3 	bl	94b8 <dev_barrier>
    8ce8:	e8bd8038 	pop	{r3, r4, r5, pc}
    8cec:	00009720 	andeq	r9, r0, r0, lsr #14

00008cf0 <gpio_int_falling_edge>:
    8cf0:	e92d4038 	push	{r3, r4, r5, lr}
    8cf4:	e1a04000 	mov	r4, r0
    8cf8:	e350001f 	cmp	r0, #31
    8cfc:	88bd8038 	pophi	{r3, r4, r5, pc}
    8d00:	eb0001ec 	bl	94b8 <dev_barrier>
    8d04:	e354001f 	cmp	r4, #31
    8d08:	8a000007 	bhi	8d2c <gpio_int_falling_edge+0x3c>
    8d0c:	e59f505c 	ldr	r5, [pc, #92]	; 8d70 <gpio_int_falling_edge+0x80>
    8d10:	e5950040 	ldr	r0, [r5, #64]	; 0x40
    8d14:	eb0001f9 	bl	9500 <get32>
    8d18:	e3a01001 	mov	r1, #1
    8d1c:	e1801411 	orr	r1, r0, r1, lsl r4
    8d20:	e5950040 	ldr	r0, [r5, #64]	; 0x40
    8d24:	eb0001e9 	bl	94d0 <put32>
    8d28:	ea000007 	b	8d4c <gpio_int_falling_edge+0x5c>
    8d2c:	e59f503c 	ldr	r5, [pc, #60]	; 8d70 <gpio_int_falling_edge+0x80>
    8d30:	e5950044 	ldr	r0, [r5, #68]	; 0x44
    8d34:	eb0001f1 	bl	9500 <get32>
    8d38:	e204401f 	and	r4, r4, #31
    8d3c:	e3a01001 	mov	r1, #1
    8d40:	e1801411 	orr	r1, r0, r1, lsl r4
    8d44:	e5950044 	ldr	r0, [r5, #68]	; 0x44
    8d48:	eb0001e0 	bl	94d0 <put32>
    8d4c:	eb0001d9 	bl	94b8 <dev_barrier>
    8d50:	e59f4018 	ldr	r4, [pc, #24]	; 8d70 <gpio_int_falling_edge+0x80>
    8d54:	e594003c 	ldr	r0, [r4, #60]	; 0x3c
    8d58:	eb0001e8 	bl	9500 <get32>
    8d5c:	e3801601 	orr	r1, r0, #1048576	; 0x100000
    8d60:	e594003c 	ldr	r0, [r4, #60]	; 0x3c
    8d64:	eb0001d9 	bl	94d0 <put32>
    8d68:	eb0001d2 	bl	94b8 <dev_barrier>
    8d6c:	e8bd8038 	pop	{r3, r4, r5, pc}
    8d70:	00009720 	andeq	r9, r0, r0, lsr #14

00008d74 <gpio_event_detected>:
    8d74:	e92d4010 	push	{r4, lr}
    8d78:	e1a04000 	mov	r4, r0
    8d7c:	e350001f 	cmp	r0, #31
    8d80:	8a000019 	bhi	8dec <gpio_event_detected+0x78>
    8d84:	eb0001cb 	bl	94b8 <dev_barrier>
    8d88:	e354001f 	cmp	r4, #31
    8d8c:	8a000008 	bhi	8db4 <gpio_event_detected+0x40>
    8d90:	e59f305c 	ldr	r3, [pc, #92]	; 8df4 <gpio_event_detected+0x80>
    8d94:	e5930048 	ldr	r0, [r3, #72]	; 0x48
    8d98:	eb0001d8 	bl	9500 <get32>
    8d9c:	e3a03001 	mov	r3, #1
    8da0:	e0103413 	ands	r3, r0, r3, lsl r4
    8da4:	0a00000d 	beq	8de0 <gpio_event_detected+0x6c>
    8da8:	eb0001c2 	bl	94b8 <dev_barrier>
    8dac:	e3a00001 	mov	r0, #1
    8db0:	e8bd8010 	pop	{r4, pc}
    8db4:	e59f3038 	ldr	r3, [pc, #56]	; 8df4 <gpio_event_detected+0x80>
    8db8:	e593004c 	ldr	r0, [r3, #76]	; 0x4c
    8dbc:	eb0001cf 	bl	9500 <get32>
    8dc0:	e3a03001 	mov	r3, #1
    8dc4:	e0004413 	and	r4, r0, r3, lsl r4
    8dc8:	eb0001ba 	bl	94b8 <dev_barrier>
    8dcc:	e3540000 	cmp	r4, #0
    8dd0:	0a000002 	beq	8de0 <gpio_event_detected+0x6c>
    8dd4:	eb0001b7 	bl	94b8 <dev_barrier>
    8dd8:	e3a00001 	mov	r0, #1
    8ddc:	e8bd8010 	pop	{r4, pc}
    8de0:	eb0001b4 	bl	94b8 <dev_barrier>
    8de4:	e3a00000 	mov	r0, #0
    8de8:	e8bd8010 	pop	{r4, pc}
    8dec:	e3e00000 	mvn	r0, #0
    8df0:	e8bd8010 	pop	{r4, pc}
    8df4:	00009720 	andeq	r9, r0, r0, lsr #14

00008df8 <gpio_event_clear>:
    8df8:	e92d4010 	push	{r4, lr}
    8dfc:	e1a04000 	mov	r4, r0
    8e00:	e350001f 	cmp	r0, #31
    8e04:	88bd8010 	pophi	{r4, pc}
    8e08:	eb0001aa 	bl	94b8 <dev_barrier>
    8e0c:	e354001f 	cmp	r4, #31
    8e10:	8a000005 	bhi	8e2c <gpio_event_clear+0x34>
    8e14:	e59f3030 	ldr	r3, [pc, #48]	; 8e4c <gpio_event_clear+0x54>
    8e18:	e5930048 	ldr	r0, [r3, #72]	; 0x48
    8e1c:	e3a01001 	mov	r1, #1
    8e20:	e1a01411 	lsl	r1, r1, r4
    8e24:	eb0001a9 	bl	94d0 <put32>
    8e28:	ea000005 	b	8e44 <gpio_event_clear+0x4c>
    8e2c:	e204401f 	and	r4, r4, #31
    8e30:	e59f3014 	ldr	r3, [pc, #20]	; 8e4c <gpio_event_clear+0x54>
    8e34:	e593004c 	ldr	r0, [r3, #76]	; 0x4c
    8e38:	e3a01001 	mov	r1, #1
    8e3c:	e1a01411 	lsl	r1, r1, r4
    8e40:	eb0001a2 	bl	94d0 <put32>
    8e44:	eb00019b 	bl	94b8 <dev_barrier>
    8e48:	e8bd8010 	pop	{r4, pc}
    8e4c:	00009720 	andeq	r9, r0, r0, lsr #14

00008e50 <sw_uart_putc>:
    8e50:	e92d41f0 	push	{r4, r5, r6, r7, r8, lr}
    8e54:	e1a07001 	mov	r7, r1
    8e58:	e5d06000 	ldrb	r6, [r0]
    8e5c:	e5905008 	ldr	r5, [r0, #8]
    8e60:	ee1f4f3c 	mrc	15, 0, r4, cr15, cr12, {1}
    8e64:	e1a00006 	mov	r0, r6
    8e68:	e3a01000 	mov	r1, #0
    8e6c:	ebffff26 	bl	8b0c <gpio_write>
    8e70:	ee1f3f3c 	mrc	15, 0, r3, cr15, cr12, {1}
    8e74:	e0643003 	rsb	r3, r4, r3
    8e78:	e1550003 	cmp	r5, r3
    8e7c:	8afffffb 	bhi	8e70 <sw_uart_putc+0x20>
    8e80:	e1a08085 	lsl	r8, r5, #1
    8e84:	e1a00006 	mov	r0, r6
    8e88:	e2071001 	and	r1, r7, #1
    8e8c:	ebffff1e 	bl	8b0c <gpio_write>
    8e90:	ee1f3f3c 	mrc	15, 0, r3, cr15, cr12, {1}
    8e94:	e0643003 	rsb	r3, r4, r3
    8e98:	e1580003 	cmp	r8, r3
    8e9c:	8afffffb 	bhi	8e90 <sw_uart_putc+0x40>
    8ea0:	e0888005 	add	r8, r8, r5
    8ea4:	e1a00006 	mov	r0, r6
    8ea8:	e2071002 	and	r1, r7, #2
    8eac:	ebffff16 	bl	8b0c <gpio_write>
    8eb0:	ee1f3f3c 	mrc	15, 0, r3, cr15, cr12, {1}
    8eb4:	e0643003 	rsb	r3, r4, r3
    8eb8:	e1580003 	cmp	r8, r3
    8ebc:	8afffffb 	bhi	8eb0 <sw_uart_putc+0x60>
    8ec0:	e0888005 	add	r8, r8, r5
    8ec4:	e1a00006 	mov	r0, r6
    8ec8:	e2071004 	and	r1, r7, #4
    8ecc:	ebffff0e 	bl	8b0c <gpio_write>
    8ed0:	ee1f3f3c 	mrc	15, 0, r3, cr15, cr12, {1}
    8ed4:	e0643003 	rsb	r3, r4, r3
    8ed8:	e1580003 	cmp	r8, r3
    8edc:	8afffffb 	bhi	8ed0 <sw_uart_putc+0x80>
    8ee0:	e0888005 	add	r8, r8, r5
    8ee4:	e1a00006 	mov	r0, r6
    8ee8:	e2071008 	and	r1, r7, #8
    8eec:	ebffff06 	bl	8b0c <gpio_write>
    8ef0:	ee1f3f3c 	mrc	15, 0, r3, cr15, cr12, {1}
    8ef4:	e0643003 	rsb	r3, r4, r3
    8ef8:	e1580003 	cmp	r8, r3
    8efc:	8afffffb 	bhi	8ef0 <sw_uart_putc+0xa0>
    8f00:	e0888005 	add	r8, r8, r5
    8f04:	e1a00006 	mov	r0, r6
    8f08:	e2071010 	and	r1, r7, #16
    8f0c:	ebfffefe 	bl	8b0c <gpio_write>
    8f10:	ee1f3f3c 	mrc	15, 0, r3, cr15, cr12, {1}
    8f14:	e0643003 	rsb	r3, r4, r3
    8f18:	e1580003 	cmp	r8, r3
    8f1c:	8afffffb 	bhi	8f10 <sw_uart_putc+0xc0>
    8f20:	e0888005 	add	r8, r8, r5
    8f24:	e1a00006 	mov	r0, r6
    8f28:	e2071020 	and	r1, r7, #32
    8f2c:	ebfffef6 	bl	8b0c <gpio_write>
    8f30:	ee1f3f3c 	mrc	15, 0, r3, cr15, cr12, {1}
    8f34:	e0643003 	rsb	r3, r4, r3
    8f38:	e1580003 	cmp	r8, r3
    8f3c:	8afffffb 	bhi	8f30 <sw_uart_putc+0xe0>
    8f40:	e0888005 	add	r8, r8, r5
    8f44:	e1a00006 	mov	r0, r6
    8f48:	e2071040 	and	r1, r7, #64	; 0x40
    8f4c:	ebfffeee 	bl	8b0c <gpio_write>
    8f50:	ee1f3f3c 	mrc	15, 0, r3, cr15, cr12, {1}
    8f54:	e0643003 	rsb	r3, r4, r3
    8f58:	e1580003 	cmp	r8, r3
    8f5c:	8afffffb 	bhi	8f50 <sw_uart_putc+0x100>
    8f60:	e0888005 	add	r8, r8, r5
    8f64:	e1a00006 	mov	r0, r6
    8f68:	e2071080 	and	r1, r7, #128	; 0x80
    8f6c:	ebfffee6 	bl	8b0c <gpio_write>
    8f70:	ee1f3f3c 	mrc	15, 0, r3, cr15, cr12, {1}
    8f74:	e0643003 	rsb	r3, r4, r3
    8f78:	e1580003 	cmp	r8, r3
    8f7c:	8afffffb 	bhi	8f70 <sw_uart_putc+0x120>
    8f80:	e0885005 	add	r5, r8, r5
    8f84:	e1a00006 	mov	r0, r6
    8f88:	e3a01001 	mov	r1, #1
    8f8c:	ebfffede 	bl	8b0c <gpio_write>
    8f90:	ee1f3f3c 	mrc	15, 0, r3, cr15, cr12, {1}
    8f94:	e0643003 	rsb	r3, r4, r3
    8f98:	e1550003 	cmp	r5, r3
    8f9c:	8afffffb 	bhi	8f90 <sw_uart_putc+0x140>
    8fa0:	e8bd81f0 	pop	{r4, r5, r6, r7, r8, pc}

00008fa4 <sw_uart_getc_timeout>:
    8fa4:	e92d43f8 	push	{r3, r4, r5, r6, r7, r8, r9, lr}
    8fa8:	e1a09000 	mov	r9, r0
    8fac:	e5d07001 	ldrb	r7, [r0, #1]
    8fb0:	e1a05007 	mov	r5, r7
    8fb4:	e1a06001 	mov	r6, r1
    8fb8:	ebfffe21 	bl	8844 <timer_get_usec_raw>
    8fbc:	e1a04000 	mov	r4, r0
    8fc0:	e1a00005 	mov	r0, r5
    8fc4:	ebfffebd 	bl	8ac0 <gpio_read>
    8fc8:	e3500000 	cmp	r0, #0
    8fcc:	0a000005 	beq	8fe8 <sw_uart_getc_timeout+0x44>
    8fd0:	ebfffe1b 	bl	8844 <timer_get_usec_raw>
    8fd4:	e0640000 	rsb	r0, r4, r0
    8fd8:	e1560000 	cmp	r6, r0
    8fdc:	2afffff7 	bcs	8fc0 <sw_uart_getc_timeout+0x1c>
    8fe0:	e3a03000 	mov	r3, #0
    8fe4:	ea000000 	b	8fec <sw_uart_getc_timeout+0x48>
    8fe8:	e3a03001 	mov	r3, #1
    8fec:	e3530000 	cmp	r3, #0
    8ff0:	0a000059 	beq	915c <sw_uart_getc_timeout+0x1b8>
    8ff4:	ee1f8f3c 	mrc	15, 0, r8, cr15, cr12, {1}
    8ff8:	e5994008 	ldr	r4, [r9, #8]
    8ffc:	e08420a4 	add	r2, r4, r4, lsr #1
    9000:	ee1f3f3c 	mrc	15, 0, r3, cr15, cr12, {1}
    9004:	e0683003 	rsb	r3, r8, r3
    9008:	e1520003 	cmp	r2, r3
    900c:	8afffffb 	bhi	9000 <sw_uart_getc_timeout+0x5c>
    9010:	e0888004 	add	r8, r8, r4
    9014:	e1a00007 	mov	r0, r7
    9018:	ebfffea8 	bl	8ac0 <gpio_read>
    901c:	e1a09750 	asr	r9, r0, r7
    9020:	ee1f3f3c 	mrc	15, 0, r3, cr15, cr12, {1}
    9024:	e0683003 	rsb	r3, r8, r3
    9028:	e1540003 	cmp	r4, r3
    902c:	8afffffb 	bhi	9020 <sw_uart_getc_timeout+0x7c>
    9030:	e0888004 	add	r8, r8, r4
    9034:	e1a00007 	mov	r0, r7
    9038:	ebfffea0 	bl	8ac0 <gpio_read>
    903c:	e1a00750 	asr	r0, r0, r7
    9040:	e1899080 	orr	r9, r9, r0, lsl #1
    9044:	ee1f3f3c 	mrc	15, 0, r3, cr15, cr12, {1}
    9048:	e0683003 	rsb	r3, r8, r3
    904c:	e1540003 	cmp	r4, r3
    9050:	8afffffb 	bhi	9044 <sw_uart_getc_timeout+0xa0>
    9054:	e0888004 	add	r8, r8, r4
    9058:	e1a00007 	mov	r0, r7
    905c:	ebfffe97 	bl	8ac0 <gpio_read>
    9060:	e1a00750 	asr	r0, r0, r7
    9064:	e1899100 	orr	r9, r9, r0, lsl #2
    9068:	ee1f3f3c 	mrc	15, 0, r3, cr15, cr12, {1}
    906c:	e0683003 	rsb	r3, r8, r3
    9070:	e1540003 	cmp	r4, r3
    9074:	8afffffb 	bhi	9068 <sw_uart_getc_timeout+0xc4>
    9078:	e0888004 	add	r8, r8, r4
    907c:	e1a00007 	mov	r0, r7
    9080:	ebfffe8e 	bl	8ac0 <gpio_read>
    9084:	e1a00750 	asr	r0, r0, r7
    9088:	e1899180 	orr	r9, r9, r0, lsl #3
    908c:	ee1f3f3c 	mrc	15, 0, r3, cr15, cr12, {1}
    9090:	e0683003 	rsb	r3, r8, r3
    9094:	e1540003 	cmp	r4, r3
    9098:	8afffffb 	bhi	908c <sw_uart_getc_timeout+0xe8>
    909c:	e0888004 	add	r8, r8, r4
    90a0:	e1a00007 	mov	r0, r7
    90a4:	ebfffe85 	bl	8ac0 <gpio_read>
    90a8:	e1a00750 	asr	r0, r0, r7
    90ac:	e1899200 	orr	r9, r9, r0, lsl #4
    90b0:	ee1f3f3c 	mrc	15, 0, r3, cr15, cr12, {1}
    90b4:	e0683003 	rsb	r3, r8, r3
    90b8:	e1540003 	cmp	r4, r3
    90bc:	8afffffb 	bhi	90b0 <sw_uart_getc_timeout+0x10c>
    90c0:	e0888004 	add	r8, r8, r4
    90c4:	e1a00007 	mov	r0, r7
    90c8:	ebfffe7c 	bl	8ac0 <gpio_read>
    90cc:	e1a00750 	asr	r0, r0, r7
    90d0:	e1899280 	orr	r9, r9, r0, lsl #5
    90d4:	ee1f3f3c 	mrc	15, 0, r3, cr15, cr12, {1}
    90d8:	e0683003 	rsb	r3, r8, r3
    90dc:	e1540003 	cmp	r4, r3
    90e0:	8afffffb 	bhi	90d4 <sw_uart_getc_timeout+0x130>
    90e4:	e0888004 	add	r8, r8, r4
    90e8:	e1a00007 	mov	r0, r7
    90ec:	ebfffe73 	bl	8ac0 <gpio_read>
    90f0:	e1a00750 	asr	r0, r0, r7
    90f4:	e1899300 	orr	r9, r9, r0, lsl #6
    90f8:	ee1f3f3c 	mrc	15, 0, r3, cr15, cr12, {1}
    90fc:	e0683003 	rsb	r3, r8, r3
    9100:	e1540003 	cmp	r4, r3
    9104:	8afffffb 	bhi	90f8 <sw_uart_getc_timeout+0x154>
    9108:	e1a00007 	mov	r0, r7
    910c:	ebfffe6b 	bl	8ac0 <gpio_read>
    9110:	e1a00750 	asr	r0, r0, r7
    9114:	e1899380 	orr	r9, r9, r0, lsl #7
    9118:	ebfffdc9 	bl	8844 <timer_get_usec_raw>
    911c:	e1a04000 	mov	r4, r0
    9120:	e1a00005 	mov	r0, r5
    9124:	ebfffe65 	bl	8ac0 <gpio_read>
    9128:	e3500000 	cmp	r0, #0
    912c:	0a000005 	beq	9148 <sw_uart_getc_timeout+0x1a4>
    9130:	ebfffdc3 	bl	8844 <timer_get_usec_raw>
    9134:	e0640000 	rsb	r0, r4, r0
    9138:	e1560000 	cmp	r6, r0
    913c:	2afffff7 	bcs	9120 <sw_uart_getc_timeout+0x17c>
    9140:	e3a03000 	mov	r3, #0
    9144:	ea000000 	b	914c <sw_uart_getc_timeout+0x1a8>
    9148:	e3a03001 	mov	r3, #1
    914c:	e3530000 	cmp	r3, #0
    9150:	0a000003 	beq	9164 <sw_uart_getc_timeout+0x1c0>
    9154:	e1a00009 	mov	r0, r9
    9158:	e8bd83f8 	pop	{r3, r4, r5, r6, r7, r8, r9, pc}
    915c:	e3e00000 	mvn	r0, #0
    9160:	e8bd83f8 	pop	{r3, r4, r5, r6, r7, r8, r9, pc}
    9164:	e3e00000 	mvn	r0, #0
    9168:	e8bd83f8 	pop	{r3, r4, r5, r6, r7, r8, r9, pc}

0000916c <sw_uart_gets_until>:
    916c:	e92d47f0 	push	{r4, r5, r6, r7, r8, r9, sl, lr}
    9170:	e24dd008 	sub	sp, sp, #8
    9174:	e1a08000 	mov	r8, r0
    9178:	e1a06001 	mov	r6, r1
    917c:	e1a09003 	mov	r9, r3
    9180:	e59da028 	ldr	sl, [sp, #40]	; 0x28
    9184:	e3520000 	cmp	r2, #0
    9188:	1a000008 	bne	91b0 <sw_uart_gets_until+0x44>
    918c:	eb0000e7 	bl	9530 <rpi_reset_putc>
    9190:	e59f3068 	ldr	r3, [pc, #104]	; 9200 <sw_uart_gets_until+0x94>
    9194:	e58d3000 	str	r3, [sp]
    9198:	e59f0064 	ldr	r0, [pc, #100]	; 9204 <sw_uart_gets_until+0x98>
    919c:	e59f1064 	ldr	r1, [pc, #100]	; 9208 <sw_uart_gets_until+0x9c>
    91a0:	e59f2064 	ldr	r2, [pc, #100]	; 920c <sw_uart_gets_until+0xa0>
    91a4:	e3a0306d 	mov	r3, #109	; 0x6d
    91a8:	ebfffbd7 	bl	810c <printk>
    91ac:	ebfffd4a 	bl	86dc <clean_reboot>
    91b0:	e3a04000 	mov	r4, #0
    91b4:	e5c14000 	strb	r4, [r1]
    91b8:	e2427001 	sub	r7, r2, #1
    91bc:	ea000007 	b	91e0 <sw_uart_gets_until+0x74>
    91c0:	e1a00008 	mov	r0, r8
    91c4:	e1a0100a 	mov	r1, sl
    91c8:	ebffff75 	bl	8fa4 <sw_uart_getc_timeout>
    91cc:	e6ef0070 	uxtb	r0, r0
    91d0:	e1500009 	cmp	r0, r9
    91d4:	0a000004 	beq	91ec <sw_uart_gets_until+0x80>
    91d8:	e7c60005 	strb	r0, [r6, r5]
    91dc:	e2844001 	add	r4, r4, #1
    91e0:	e1a05004 	mov	r5, r4
    91e4:	e1540007 	cmp	r4, r7
    91e8:	3afffff4 	bcc	91c0 <sw_uart_gets_until+0x54>
    91ec:	e3a03000 	mov	r3, #0
    91f0:	e7c63005 	strb	r3, [r6, r5]
    91f4:	e1a00004 	mov	r0, r4
    91f8:	e28dd008 	add	sp, sp, #8
    91fc:	e8bd87f0 	pop	{r4, r5, r6, r7, r8, r9, sl, pc}
    9200:	00009988 	andeq	r9, r0, r8, lsl #19
    9204:	000097fc 	strdeq	r9, [r0], -ip
    9208:	00009974 	andeq	r9, r0, r4, ror r9
    920c:	000098fc 	strdeq	r9, [r0], -ip

00009210 <sw_uart_gets_timeout>:
    9210:	e92d41f0 	push	{r4, r5, r6, r7, r8, lr}
    9214:	e24dd008 	sub	sp, sp, #8
    9218:	e1a07000 	mov	r7, r0
    921c:	e1a05001 	mov	r5, r1
    9220:	e1a08003 	mov	r8, r3
    9224:	e3520000 	cmp	r2, #0
    9228:	1a000008 	bne	9250 <sw_uart_gets_timeout+0x40>
    922c:	eb0000bf 	bl	9530 <rpi_reset_putc>
    9230:	e59f3058 	ldr	r3, [pc, #88]	; 9290 <sw_uart_gets_timeout+0x80>
    9234:	e58d3000 	str	r3, [sp]
    9238:	e59f0054 	ldr	r0, [pc, #84]	; 9294 <sw_uart_gets_timeout+0x84>
    923c:	e59f1054 	ldr	r1, [pc, #84]	; 9298 <sw_uart_gets_timeout+0x88>
    9240:	e59f2054 	ldr	r2, [pc, #84]	; 929c <sw_uart_gets_timeout+0x8c>
    9244:	e3a03083 	mov	r3, #131	; 0x83
    9248:	ebfffbaf 	bl	810c <printk>
    924c:	ebfffd22 	bl	86dc <clean_reboot>
    9250:	e3a04000 	mov	r4, #0
    9254:	e5c14000 	strb	r4, [r1]
    9258:	e2426001 	sub	r6, r2, #1
    925c:	ea000004 	b	9274 <sw_uart_gets_timeout+0x64>
    9260:	e1a00007 	mov	r0, r7
    9264:	e1a01008 	mov	r1, r8
    9268:	ebffff4d 	bl	8fa4 <sw_uart_getc_timeout>
    926c:	e7c50004 	strb	r0, [r5, r4]
    9270:	e2844001 	add	r4, r4, #1
    9274:	e1540006 	cmp	r4, r6
    9278:	3afffff8 	bcc	9260 <sw_uart_gets_timeout+0x50>
    927c:	e3a03000 	mov	r3, #0
    9280:	e7c53004 	strb	r3, [r5, r4]
    9284:	e1a00004 	mov	r0, r4
    9288:	e28dd008 	add	sp, sp, #8
    928c:	e8bd81f0 	pop	{r4, r5, r6, r7, r8, pc}
    9290:	00009988 	andeq	r9, r0, r8, lsl #19
    9294:	000097fc 	strdeq	r9, [r0], -ip
    9298:	00009974 	andeq	r9, r0, r4, ror r9
    929c:	00009910 	andeq	r9, r0, r0, lsl r9

000092a0 <sw_uart_init_helper>:
    92a0:	e92d41f0 	push	{r4, r5, r6, r7, r8, lr}
    92a4:	e24dd008 	sub	sp, sp, #8
    92a8:	e1a04000 	mov	r4, r0
    92ac:	e1a06001 	mov	r6, r1
    92b0:	e1a08002 	mov	r8, r2
    92b4:	e1a05003 	mov	r5, r3
    92b8:	e59d7020 	ldr	r7, [sp, #32]
    92bc:	e1a00001 	mov	r0, r1
    92c0:	ebfffd7a 	bl	88b0 <gpio_set_output>
    92c4:	e1a00008 	mov	r0, r8
    92c8:	ebfffdc9 	bl	89f4 <gpio_set_input>
    92cc:	e3a03001 	mov	r3, #1
    92d0:	ee0f3f1c 	mcr	15, 0, r3, cr15, cr12, {0}
    92d4:	e1a00006 	mov	r0, r6
    92d8:	e3a01001 	mov	r1, #1
    92dc:	ebfffe0a 	bl	8b0c <gpio_write>
    92e0:	e0020795 	mul	r2, r5, r7
    92e4:	e59f3074 	ldr	r3, [pc, #116]	; 9360 <sw_uart_init_helper+0xc0>
    92e8:	e0653003 	rsb	r3, r5, r3
    92ec:	e1530002 	cmp	r3, r2
    92f0:	8a000005 	bhi	930c <sw_uart_init_helper+0x6c>
    92f4:	e59f3064 	ldr	r3, [pc, #100]	; 9360 <sw_uart_init_helper+0xc0>
    92f8:	e0853003 	add	r3, r5, r3
    92fc:	e1530002 	cmp	r3, r2
    9300:	2a000003 	bcs	9314 <sw_uart_init_helper+0x74>
    9304:	e3a03000 	mov	r3, #0
    9308:	ea000002 	b	9318 <sw_uart_init_helper+0x78>
    930c:	e3a03000 	mov	r3, #0
    9310:	ea000000 	b	9318 <sw_uart_init_helper+0x78>
    9314:	e3a03001 	mov	r3, #1
    9318:	e3530000 	cmp	r3, #0
    931c:	1a000008 	bne	9344 <sw_uart_init_helper+0xa4>
    9320:	eb000082 	bl	9530 <rpi_reset_putc>
    9324:	e59f3038 	ldr	r3, [pc, #56]	; 9364 <sw_uart_init_helper+0xc4>
    9328:	e58d3000 	str	r3, [sp]
    932c:	e59f0034 	ldr	r0, [pc, #52]	; 9368 <sw_uart_init_helper+0xc8>
    9330:	e59f1034 	ldr	r1, [pc, #52]	; 936c <sw_uart_init_helper+0xcc>
    9334:	e59f2034 	ldr	r2, [pc, #52]	; 9370 <sw_uart_init_helper+0xd0>
    9338:	e3a0309d 	mov	r3, #157	; 0x9d
    933c:	ebfffb72 	bl	810c <printk>
    9340:	ebfffce5 	bl	86dc <clean_reboot>
    9344:	e5c46000 	strb	r6, [r4]
    9348:	e5c48001 	strb	r8, [r4, #1]
    934c:	e5845004 	str	r5, [r4, #4]
    9350:	e5847008 	str	r7, [r4, #8]
    9354:	e1a00004 	mov	r0, r4
    9358:	e28dd008 	add	sp, sp, #8
    935c:	e8bd81f0 	pop	{r4, r5, r6, r7, r8, pc}
    9360:	29b92700 	ldmibcs	r9!, {r8, r9, sl, sp}
    9364:	00009994 	muleq	r0, r4, r9
    9368:	000097fc 	strdeq	r9, [r0], -ip
    936c:	00009974 	andeq	r9, r0, r4, ror r9
    9370:	00009928 	andeq	r9, r0, r8, lsr #18

00009374 <sw_uart_getc>:
    9374:	e92d4008 	push	{r3, lr}
    9378:	e3e01000 	mvn	r1, #0
    937c:	ebffff08 	bl	8fa4 <sw_uart_getc_timeout>
    9380:	e3500000 	cmp	r0, #0
    9384:	a8bd8008 	popge	{r3, pc}
    9388:	eb000068 	bl	9530 <rpi_reset_putc>
    938c:	e59f0010 	ldr	r0, [pc, #16]	; 93a4 <sw_uart_getc+0x30>
    9390:	e59f1010 	ldr	r1, [pc, #16]	; 93a8 <sw_uart_getc+0x34>
    9394:	e59f2010 	ldr	r2, [pc, #16]	; 93ac <sw_uart_getc+0x38>
    9398:	e3a030ac 	mov	r3, #172	; 0xac
    939c:	ebfffb5a 	bl	810c <printk>
    93a0:	ebfffccd 	bl	86dc <clean_reboot>
    93a4:	000099c8 	andeq	r9, r0, r8, asr #19
    93a8:	00009974 	andeq	r9, r0, r4, ror r9
    93ac:	0000993c 	andeq	r9, r0, ip, lsr r9

000093b0 <sw_uart_putk>:
    93b0:	e92d4038 	push	{r3, r4, r5, lr}
    93b4:	e1a05000 	mov	r5, r0
    93b8:	e1a04001 	mov	r4, r1
    93bc:	ea000002 	b	93cc <sw_uart_putk+0x1c>
    93c0:	e1a00005 	mov	r0, r5
    93c4:	ebfffea1 	bl	8e50 <sw_uart_putc>
    93c8:	e2844001 	add	r4, r4, #1
    93cc:	e5d41000 	ldrb	r1, [r4]
    93d0:	e3510000 	cmp	r1, #0
    93d4:	1afffff9 	bne	93c0 <sw_uart_putk+0x10>
    93d8:	e8bd8038 	pop	{r3, r4, r5, pc}

000093dc <sw_uart_printk>:
    93dc:	e92d000e 	push	{r1, r2, r3}
    93e0:	e92d4030 	push	{r4, r5, lr}
    93e4:	e24ddf76 	sub	sp, sp, #472	; 0x1d8
    93e8:	e1a05000 	mov	r5, r0
    93ec:	e28d3f7a 	add	r3, sp, #488	; 0x1e8
    93f0:	e58d3008 	str	r3, [sp, #8]
    93f4:	e28d000c 	add	r0, sp, #12
    93f8:	e3a01f73 	mov	r1, #460	; 0x1cc
    93fc:	e59d21e4 	ldr	r2, [sp, #484]	; 0x1e4
    9400:	ebfffc08 	bl	8428 <va_printk>
    9404:	e1a04000 	mov	r4, r0
    9408:	e59f3048 	ldr	r3, [pc, #72]	; 9458 <sw_uart_printk+0x7c>
    940c:	e1500003 	cmp	r0, r3
    9410:	9a000008 	bls	9438 <sw_uart_printk+0x5c>
    9414:	eb000045 	bl	9530 <rpi_reset_putc>
    9418:	e59f303c 	ldr	r3, [pc, #60]	; 945c <sw_uart_printk+0x80>
    941c:	e58d3000 	str	r3, [sp]
    9420:	e59f0038 	ldr	r0, [pc, #56]	; 9460 <sw_uart_printk+0x84>
    9424:	e59f1038 	ldr	r1, [pc, #56]	; 9464 <sw_uart_printk+0x88>
    9428:	e59f2038 	ldr	r2, [pc, #56]	; 9468 <sw_uart_printk+0x8c>
    942c:	e3a030c0 	mov	r3, #192	; 0xc0
    9430:	ebfffb35 	bl	810c <printk>
    9434:	ebfffca8 	bl	86dc <clean_reboot>
    9438:	e1a00005 	mov	r0, r5
    943c:	e28d100c 	add	r1, sp, #12
    9440:	ebffffda 	bl	93b0 <sw_uart_putk>
    9444:	e1a00004 	mov	r0, r4
    9448:	e28ddf76 	add	sp, sp, #472	; 0x1d8
    944c:	e8bd4030 	pop	{r4, r5, lr}
    9450:	e28dd00c 	add	sp, sp, #12
    9454:	e12fff1e 	bx	lr
    9458:	000001ca 	andeq	r0, r0, sl, asr #3
    945c:	00009a00 	andeq	r9, r0, r0, lsl #20
    9460:	000097fc 	strdeq	r9, [r0], -ip
    9464:	00009974 	andeq	r9, r0, r4, ror r9
    9468:	0000994c 	andeq	r9, r0, ip, asr #18

0000946c <sw_uart_gets_until_blk>:
    946c:	e52de004 	push	{lr}		; (str lr, [sp, #-4]!)
    9470:	e24dd00c 	sub	sp, sp, #12
    9474:	e3e0c000 	mvn	ip, #0
    9478:	e58dc000 	str	ip, [sp]
    947c:	ebffff3a 	bl	916c <sw_uart_gets_until>
    9480:	e3500000 	cmp	r0, #0
    9484:	aa000006 	bge	94a4 <sw_uart_gets_until_blk+0x38>
    9488:	eb000028 	bl	9530 <rpi_reset_putc>
    948c:	e59f0018 	ldr	r0, [pc, #24]	; 94ac <sw_uart_gets_until_blk+0x40>
    9490:	e59f1018 	ldr	r1, [pc, #24]	; 94b0 <sw_uart_gets_until_blk+0x44>
    9494:	e59f2018 	ldr	r2, [pc, #24]	; 94b4 <sw_uart_gets_until_blk+0x48>
    9498:	e3a030c8 	mov	r3, #200	; 0xc8
    949c:	ebfffb1a 	bl	810c <printk>
    94a0:	ebfffc8d 	bl	86dc <clean_reboot>
    94a4:	e28dd00c 	add	sp, sp, #12
    94a8:	e49df004 	pop	{pc}		; (ldr pc, [sp], #4)
    94ac:	000099c8 	andeq	r9, r0, r8, asr #19
    94b0:	00009974 	andeq	r9, r0, r4, ror r9
    94b4:	0000995c 	andeq	r9, r0, ip, asr r9

000094b8 <dev_barrier>:
    94b8:	ea000002 	b	94c8 <dsb>

000094bc <dmb>:
    94bc:	e3a00000 	mov	r0, #0
    94c0:	ee070fba 	mcr	15, 0, r0, cr7, cr10, {5}
    94c4:	e12fff1e 	bx	lr

000094c8 <dsb>:
    94c8:	ee070f9a 	mcr	15, 0, r0, cr7, cr10, {4}
    94cc:	e12fff1e 	bx	lr

000094d0 <put32>:
    94d0:	e5801000 	str	r1, [r0]
    94d4:	e12fff1e 	bx	lr

000094d8 <PUT32>:
    94d8:	e5801000 	str	r1, [r0]
    94dc:	e12fff1e 	bx	lr

000094e0 <put16>:
    94e0:	e1c010b0 	strh	r1, [r0]
    94e4:	e12fff1e 	bx	lr

000094e8 <PUT16>:
    94e8:	e1c010b0 	strh	r1, [r0]
    94ec:	e12fff1e 	bx	lr

000094f0 <put8>:
    94f0:	e5c01000 	strb	r1, [r0]
    94f4:	e12fff1e 	bx	lr

000094f8 <PUT8>:
    94f8:	e5c01000 	strb	r1, [r0]
    94fc:	e12fff1e 	bx	lr

00009500 <get32>:
    9500:	e5900000 	ldr	r0, [r0]
    9504:	e12fff1e 	bx	lr

00009508 <GET32>:
    9508:	e5900000 	ldr	r0, [r0]
    950c:	e12fff1e 	bx	lr

00009510 <GETPC>:
    9510:	e1a0000e 	mov	r0, lr
    9514:	e12fff1e 	bx	lr

00009518 <dummy>:
    9518:	e12fff1e 	bx	lr

0000951c <internal_putchar>:
    951c:	e92d4010 	push	{r4, lr}
    9520:	e1a04000 	mov	r4, r0
    9524:	eb00005e 	bl	96a4 <uart_putc>
    9528:	e1a00004 	mov	r0, r4
    952c:	e8bd8010 	pop	{r4, pc}

00009530 <rpi_reset_putc>:
    9530:	e59f2008 	ldr	r2, [pc, #8]	; 9540 <rpi_reset_putc+0x10>
    9534:	e59f3008 	ldr	r3, [pc, #8]	; 9544 <rpi_reset_putc+0x14>
    9538:	e5832000 	str	r2, [r3]
    953c:	e12fff1e 	bx	lr
    9540:	0000951c 	andeq	r9, r0, ip, lsl r5
    9544:	00009780 	andeq	r9, r0, r0, lsl #15

00009548 <rpi_set_putc>:
    9548:	e59f3004 	ldr	r3, [pc, #4]	; 9554 <rpi_set_putc+0xc>
    954c:	e5830000 	str	r0, [r3]
    9550:	e12fff1e 	bx	lr
    9554:	00009780 	andeq	r9, r0, r0, lsl #15

00009558 <cb_new>:
    9558:	e92d4008 	push	{r3, lr}
    955c:	e3a00409 	mov	r0, #150994944	; 0x9000000
    9560:	e3a01000 	mov	r1, #0
    9564:	e3a02004 	mov	r2, #4
    9568:	eb000063 	bl	96fc <memset>
    956c:	e3a00409 	mov	r0, #150994944	; 0x9000000
    9570:	e59f3004 	ldr	r3, [pc, #4]	; 957c <cb_new+0x24>
    9574:	e5803000 	str	r3, [r0]
    9578:	e8bd8008 	pop	{r3, pc}
    957c:	12345678 	eorsne	r5, r4, #120, 12	; 0x7800000

00009580 <cb_get_block>:
    9580:	e3a03409 	mov	r3, #150994944	; 0x9000000
    9584:	e5932000 	ldr	r2, [r3]
    9588:	e59f3014 	ldr	r3, [pc, #20]	; 95a4 <cb_get_block+0x24>
    958c:	e1520003 	cmp	r2, r3
    9590:	0a000001 	beq	959c <cb_get_block+0x1c>
    9594:	e3a00000 	mov	r0, #0
    9598:	e12fff1e 	bx	lr
    959c:	e3a00409 	mov	r0, #150994944	; 0x9000000
    95a0:	e12fff1e 	bx	lr
    95a4:	12345678 	eorsne	r5, r4, #120, 12	; 0x7800000

000095a8 <uart_init>:
    95a8:	e92d4038 	push	{r3, r4, r5, lr}
    95ac:	ebffffc1 	bl	94b8 <dev_barrier>
    95b0:	e3a0000e 	mov	r0, #14
    95b4:	e3a01002 	mov	r1, #2
    95b8:	ebfffd5c 	bl	8b30 <gpio_set_function>
    95bc:	e3a0000f 	mov	r0, #15
    95c0:	e3a01002 	mov	r1, #2
    95c4:	ebfffd59 	bl	8b30 <gpio_set_function>
    95c8:	ebffffba 	bl	94b8 <dev_barrier>
    95cc:	e59f4068 	ldr	r4, [pc, #104]	; 963c <uart_init+0x94>
    95d0:	e5945000 	ldr	r5, [r4]
    95d4:	e1a00005 	mov	r0, r5
    95d8:	ebffffc8 	bl	9500 <get32>
    95dc:	e3801001 	orr	r1, r0, #1
    95e0:	e1a00005 	mov	r0, r5
    95e4:	ebffffb9 	bl	94d0 <put32>
    95e8:	ebffffb2 	bl	94b8 <dev_barrier>
    95ec:	e5940004 	ldr	r0, [r4, #4]
    95f0:	e3a01000 	mov	r1, #0
    95f4:	ebffffb5 	bl	94d0 <put32>
    95f8:	e5940008 	ldr	r0, [r4, #8]
    95fc:	e3a01000 	mov	r1, #0
    9600:	ebffffb2 	bl	94d0 <put32>
    9604:	e594000c 	ldr	r0, [r4, #12]
    9608:	e3a01006 	mov	r1, #6
    960c:	ebffffaf 	bl	94d0 <put32>
    9610:	e5940010 	ldr	r0, [r4, #16]
    9614:	e3a01003 	mov	r1, #3
    9618:	ebffffac 	bl	94d0 <put32>
    961c:	e5940014 	ldr	r0, [r4, #20]
    9620:	e59f1018 	ldr	r1, [pc, #24]	; 9640 <uart_init+0x98>
    9624:	ebffffa9 	bl	94d0 <put32>
    9628:	e5940004 	ldr	r0, [r4, #4]
    962c:	e3a01003 	mov	r1, #3
    9630:	ebffffa6 	bl	94d0 <put32>
    9634:	ebffff9f 	bl	94b8 <dev_barrier>
    9638:	e8bd8038 	pop	{r3, r4, r5, pc}
    963c:	00009784 	andeq	r9, r0, r4, lsl #15
    9640:	0000010e 	andeq	r0, r0, lr, lsl #2

00009644 <uart_can_getc>:
    9644:	e92d4008 	push	{r3, lr}
    9648:	e59f300c 	ldr	r3, [pc, #12]	; 965c <uart_can_getc+0x18>
    964c:	e5930018 	ldr	r0, [r3, #24]
    9650:	ebffffaa 	bl	9500 <get32>
    9654:	e2000001 	and	r0, r0, #1
    9658:	e8bd8008 	pop	{r3, pc}
    965c:	00009784 	andeq	r9, r0, r4, lsl #15

00009660 <uart_getc>:
    9660:	e92d4008 	push	{r3, lr}
    9664:	ebfffff6 	bl	9644 <uart_can_getc>
    9668:	e3500000 	cmp	r0, #0
    966c:	0afffffc 	beq	9664 <uart_getc+0x4>
    9670:	e59f300c 	ldr	r3, [pc, #12]	; 9684 <uart_getc+0x24>
    9674:	e593001c 	ldr	r0, [r3, #28]
    9678:	ebffffa0 	bl	9500 <get32>
    967c:	e6ef0070 	uxtb	r0, r0
    9680:	e8bd8008 	pop	{r3, pc}
    9684:	00009784 	andeq	r9, r0, r4, lsl #15

00009688 <uart_can_putc>:
    9688:	e92d4008 	push	{r3, lr}
    968c:	e59f300c 	ldr	r3, [pc, #12]	; 96a0 <uart_can_putc+0x18>
    9690:	e5930018 	ldr	r0, [r3, #24]
    9694:	ebffff99 	bl	9500 <get32>
    9698:	e2000020 	and	r0, r0, #32
    969c:	e8bd8008 	pop	{r3, pc}
    96a0:	00009784 	andeq	r9, r0, r4, lsl #15

000096a4 <uart_putc>:
    96a4:	e92d4010 	push	{r4, lr}
    96a8:	e1a04000 	mov	r4, r0
    96ac:	ebfffff5 	bl	9688 <uart_can_putc>
    96b0:	e3500000 	cmp	r0, #0
    96b4:	0afffffc 	beq	96ac <uart_putc+0x8>
    96b8:	e59f300c 	ldr	r3, [pc, #12]	; 96cc <uart_putc+0x28>
    96bc:	e593001c 	ldr	r0, [r3, #28]
    96c0:	e1a01004 	mov	r1, r4
    96c4:	ebffff81 	bl	94d0 <put32>
    96c8:	e8bd8010 	pop	{r4, pc}
    96cc:	00009784 	andeq	r9, r0, r4, lsl #15

000096d0 <uart_has_data>:
    96d0:	e92d4008 	push	{r3, lr}
    96d4:	ebffffda 	bl	9644 <uart_can_getc>
    96d8:	e8bd8008 	pop	{r3, pc}

000096dc <uart_getc_async>:
    96dc:	e92d4008 	push	{r3, lr}
    96e0:	ebfffffa 	bl	96d0 <uart_has_data>
    96e4:	e3500000 	cmp	r0, #0
    96e8:	0a000001 	beq	96f4 <uart_getc_async+0x18>
    96ec:	ebffffdb 	bl	9660 <uart_getc>
    96f0:	e8bd8008 	pop	{r3, pc}
    96f4:	e3e00000 	mvn	r0, #0
    96f8:	e8bd8008 	pop	{r3, pc}

000096fc <memset>:
    96fc:	e0802002 	add	r2, r0, r2
    9700:	e1a03000 	mov	r3, r0
    9704:	ea000001 	b	9710 <memset+0x14>
    9708:	e5c31000 	strb	r1, [r3]
    970c:	e2833001 	add	r3, r3, #1
    9710:	e1530002 	cmp	r3, r2
    9714:	3afffffb 	bcc	9708 <memset+0xc>
    9718:	e12fff1e 	bx	lr

Disassembly of section .data:

0000971c <putk>:
    971c:	00008164 	andeq	r8, r0, r4, ror #2

00009720 <GPFSEL0>:
    9720:	20200000 	eorcs	r0, r0, r0

00009724 <GPFSEL1>:
    9724:	20200004 	eorcs	r0, r0, r4

00009728 <GPFSEL2>:
    9728:	20200008 	eorcs	r0, r0, r8

0000972c <GPFSEL3>:
    972c:	2020000c 	eorcs	r0, r0, ip

00009730 <GPFSEL4>:
    9730:	20200010 	eorcs	r0, r0, r0, lsl r0

00009734 <GPFSEL5>:
    9734:	20200014 	eorcs	r0, r0, r4, lsl r0

00009738 <GPSET0>:
    9738:	2020001c 	eorcs	r0, r0, ip, lsl r0

0000973c <GPSET1>:
    973c:	20200020 	eorcs	r0, r0, r0, lsr #32

00009740 <GPCLR0>:
    9740:	20200028 	eorcs	r0, r0, r8, lsr #32

00009744 <GPCLR1>:
    9744:	2020002c 	eorcs	r0, r0, ip, lsr #32

00009748 <GPLEV0>:
    9748:	20200034 	eorcs	r0, r0, r4, lsr r0

0000974c <GPLEV1>:
    974c:	20200038 	eorcs	r0, r0, r8, lsr r0

00009750 <IRQ_PENDING_2>:
    9750:	2000b208 	andcs	fp, r0, r8, lsl #4

00009754 <GPREN0>:
    9754:	2020004c 	eorcs	r0, r0, ip, asr #32

00009758 <GPREN1>:
    9758:	20200050 	eorcs	r0, r0, r0, asr r0

0000975c <ENABLE_IRQS_2>:
    975c:	2000b214 	andcs	fp, r0, r4, lsl r2

00009760 <GPFEN0>:
    9760:	20200058 	eorcs	r0, r0, r8, asr r0

00009764 <GPFEN1>:
    9764:	2020005c 	eorcs	r0, r0, ip, asr r0

00009768 <GPEDS0>:
    9768:	20200040 	eorcs	r0, r0, r0, asr #32

0000976c <GPEDS1>:
    976c:	20200044 	eorcs	r0, r0, r4, asr #32

00009770 <IRQ_PENDING_1>:
    9770:	2000b204 	andcs	fp, r0, r4, lsl #4

00009774 <gpio_clr0>:
    9774:	20200028 	eorcs	r0, r0, r8, lsr #32

00009778 <gpio_set0>:
    9778:	2020001c 	eorcs	r0, r0, ip, lsl r0

0000977c <gpio_fsel0>:
    977c:	20200000 	eorcs	r0, r0, r0

00009780 <rpi_putchar>:
    9780:	0000951c 	andeq	r9, r0, ip, lsl r5

00009784 <AUX_ENABLES>:
    9784:	20215004 	eorcs	r5, r1, r4

00009788 <AUX_MU_CNTL_REG>:
    9788:	20215060 	eorcs	r5, r1, r0, rrx

0000978c <AUX_MU_IER_REG>:
    978c:	20215044 	eorcs	r5, r1, r4, asr #32

00009790 <AUX_MU_IIR_REG>:
    9790:	20215048 	eorcs	r5, r1, r8, asr #32

00009794 <AUX_MU_LCR_REG>:
    9794:	2021504c 	eorcs	r5, r1, ip, asr #32

00009798 <AUX_MU_BAUD_REG>:
    9798:	20215068 	eorcs	r5, r1, r8, rrx

0000979c <AUX_MU_LSR_REG>:
    979c:	20215054 	eorcs	r5, r1, r4, asr r0

000097a0 <AUX_MU_IO_REG>:
    97a0:	20215040 	eorcs	r5, r1, r0, asr #32

000097a4 <AUX_MU_STAT_REG>:
    97a4:	20215064 	eorcs	r5, r1, r4, rrx

000097a8 <AUX_MU_SCRATCH>:
    97a8:	2021505c 	eorcs	r5, r1, ip, asr r0

000097ac <AUX_MU_MSR_REG>:
    97ac:	20215058 	eorcs	r5, r1, r8, asr r0

000097b0 <AUX_MU_MCR_REG>:
    97b0:	20215050 	eorcs	r5, r1, r0, asr r0

000097b4 <AUX_IRQ>:
    97b4:	20215000 	eorcs	r5, r1, r0

Disassembly of section .rodata:

000097b8 <__FUNCTION__.4265-0x20>:
    97b8:	65707865 	ldrbvs	r7, [r0, #-2149]!	; 0x865
    97bc:	64657463 	strbtvs	r7, [r5], #-1123	; 0x463
    97c0:	20642520 	rsbcs	r2, r4, r0, lsr #10
    97c4:	6c637963 	stclvs	9, cr7, [r3], #-396	; 0xfffffe74
    97c8:	202c7365 	eorcs	r7, ip, r5, ror #6
    97cc:	65766168 	ldrbvs	r6, [r6, #-360]!	; 0x168
    97d0:	0a642520 	beq	1912c58 <__bss_end__+0x1908e30>
    97d4:	00000000 	andeq	r0, r0, r0

000097d8 <__FUNCTION__.4265>:
    97d8:	74696d65 	strbtvc	r6, [r9], #-3429	; 0xd65
    97dc:	00000000 	andeq	r0, r0, r0

000097e0 <__FUNCTION__.4213>:
    97e0:	5f697072 	svcpl	0x00697072
    97e4:	5f746573 	svcpl	0x00746573
    97e8:	7074756f 	rsbsvc	r7, r4, pc, ror #10
    97ec:	00007475 	andeq	r7, r0, r5, ror r4

000097f0 <__FUNCTION__.4287>:
    97f0:	705f6176 	subsvc	r6, pc, r6, ror r1	; <UNPREDICTABLE>
    97f4:	746e6972 	strbtvc	r6, [lr], #-2418	; 0x972
    97f8:	0000006b 	andeq	r0, r0, fp, rrx
    97fc:	494e4150 	stmdbmi	lr, {r4, r6, r8, lr}^
    9800:	73253a43 	teqvc	r5, #274432	; 0x43000
    9804:	3a73253a 	bcc	1cd2cf4 <__bss_end__+0x1cc8ecc>
    9808:	253a6425 	ldrcs	r6, [sl, #-1061]!	; 0x425
    980c:	00000a73 	andeq	r0, r0, r3, ror sl
    9810:	6362696c 	cmnvs	r2, #108, 18	; 0x1b0000
    9814:	2d61762f 	stclcs	6, cr7, [r1, #-188]!	; 0xffffff44
    9818:	6e697270 	mcrvs	2, 3, r7, cr9, cr0, {3}
    981c:	632e6b74 	teqvs	lr, #116, 22	; 0x1d000
    9820:	00000000 	andeq	r0, r0, r0
    9824:	00000030 	andeq	r0, r0, r0, lsr r0
    9828:	33323130 	teqcc	r2, #48, 2
    982c:	37363534 			; <UNDEFINED> instruction: 0x37363534
    9830:	00003938 	andeq	r3, r0, r8, lsr r9
    9834:	33323130 	teqcc	r2, #48, 2
    9838:	37363534 			; <UNDEFINED> instruction: 0x37363534
    983c:	62613938 	rsbvs	r3, r1, #56, 18	; 0xe0000
    9840:	66656463 	strbtvs	r6, [r5], -r3, ror #8
    9844:	00000000 	andeq	r0, r0, r0
    9848:	00003130 	andeq	r3, r0, r0, lsr r1
    984c:	63747570 	cmnvs	r4, #112, 10	; 0x1c000000
    9850:	0070665f 	rsbseq	r6, r0, pc, asr r6
    9854:	74646977 	strbtvc	r6, [r4], #-2423	; 0x977
    9858:	203c2068 	eorscs	r2, ip, r8, rrx
    985c:	00003233 	andeq	r3, r0, r3, lsr r2
    9860:	494e4150 	stmdbmi	lr, {r4, r6, r8, lr}^
    9864:	73253a43 	teqvc	r5, #274432	; 0x43000
    9868:	3a73253a 	bcc	1cd2d58 <__bss_end__+0x1cc8f30>
    986c:	663a6425 	ldrtvs	r6, [sl], -r5, lsr #8
    9870:	74616f6c 	strbtvc	r6, [r1], #-3948	; 0xf6c
    9874:	746f6e20 	strbtvc	r6, [pc], #-3616	; 987c <__FUNCTION__.4287+0x8c>
    9878:	616e6520 	cmnvs	lr, r0, lsr #10
    987c:	64656c62 	strbtvs	r6, [r5], #-3170	; 0xc62
    9880:	0a212121 	beq	851d0c <__bss_end__+0x847ee4>
    9884:	00000000 	andeq	r0, r0, r0
    9888:	494e4150 	stmdbmi	lr, {r4, r6, r8, lr}^
    988c:	73253a43 	teqvc	r5, #274432	; 0x43000
    9890:	3a73253a 	bcc	1cd2d80 <__bss_end__+0x1cc8f58>
    9894:	703a6425 	eorsvc	r6, sl, r5, lsr #8
    9898:	746e6972 	strbtvc	r6, [lr], #-2418	; 0x972
    989c:	6e203a6b 	vnmulvs.f32	s6, s0, s23
    98a0:	6820746f 	stmdavs	r0!, {r0, r1, r2, r3, r5, r6, sl, ip, sp, lr}
    98a4:	6c646e61 	stclvs	14, cr6, [r4], #-388	; 0xfffffe7c
    98a8:	20676e69 	rsbcs	r6, r7, r9, ror #28
    98ac:	63657073 	cmnvs	r5, #115	; 0x73
    98b0:	65696669 	strbvs	r6, [r9, #-1641]!	; 0x669
    98b4:	25272072 	strcs	r2, [r7, #-114]!	; 0x72
    98b8:	0a0a2763 	beq	29364c <__bss_end__+0x289824>
    98bc:	00000000 	andeq	r0, r0, r0
    98c0:	454e4f44 	strbmi	r4, [lr, #-3908]	; 0xf44
    98c4:	0a212121 	beq	851d50 <__bss_end__+0x847f28>
    98c8:	00000000 	andeq	r0, r0, r0
    98cc:	756f6261 	strbvc	r6, [pc, #-609]!	; 9673 <uart_getc+0x13>
    98d0:	6f742074 	svcvs	0x00742074
    98d4:	69727020 	ldmdbvs	r2!, {r5, ip, sp, lr}^
    98d8:	6f20746e 	svcvs	0x0020746e
    98dc:	6572206e 	ldrbvs	r2, [r2, #-110]!	; 0x6e
    98e0:	616c7567 	cmnvs	ip, r7, ror #10
    98e4:	72702072 	rsbsvc	r2, r0, #114	; 0x72
    98e8:	66746e69 	ldrbtvs	r6, [r4], -r9, ror #28
    98ec:	0000000a 	andeq	r0, r0, sl
    98f0:	63637573 	cmnvs	r3, #482344960	; 0x1cc00000
    98f4:	21737365 	cmncs	r3, r5, ror #6
    98f8:	0000000a 	andeq	r0, r0, sl

000098fc <__FUNCTION__.4314>:
    98fc:	755f7773 	ldrbvc	r7, [pc, #-1907]	; 9191 <sw_uart_gets_until+0x25>
    9900:	5f747261 	svcpl	0x00747261
    9904:	73746567 	cmnvc	r4, #432013312	; 0x19c00000
    9908:	746e755f 	strbtvc	r7, [lr], #-1375	; 0x55f
    990c:	00006c69 	andeq	r6, r0, r9, ror #24

00009910 <__FUNCTION__.4326>:
    9910:	755f7773 	ldrbvc	r7, [pc, #-1907]	; 91a5 <sw_uart_gets_until+0x39>
    9914:	5f747261 	svcpl	0x00747261
    9918:	73746567 	cmnvc	r4, #432013312	; 0x19c00000
    991c:	6d69745f 	cfstrdvs	mvd7, [r9, #-380]!	; 0xfffffe84
    9920:	74756f65 	ldrbtvc	r6, [r5], #-3941	; 0xf65
    9924:	00000000 	andeq	r0, r0, r0

00009928 <__FUNCTION__.4340>:
    9928:	755f7773 	ldrbvc	r7, [pc, #-1907]	; 91bd <sw_uart_gets_until+0x51>
    992c:	5f747261 	svcpl	0x00747261
    9930:	74696e69 	strbtvc	r6, [r9], #-3689	; 0xe69
    9934:	6c65685f 	stclvs	8, cr6, [r5], #-380	; 0xfffffe84
    9938:	00726570 	rsbseq	r6, r2, r0, ror r5

0000993c <__FUNCTION__.4346>:
    993c:	755f7773 	ldrbvc	r7, [pc, #-1907]	; 91d1 <sw_uart_gets_until+0x65>
    9940:	5f747261 	svcpl	0x00747261
    9944:	63746567 	cmnvs	r4, #432013312	; 0x19c00000
    9948:	00000000 	andeq	r0, r0, r0

0000994c <__FUNCTION__.4368>:
    994c:	755f7773 	ldrbvc	r7, [pc, #-1907]	; 91e1 <sw_uart_gets_until+0x75>
    9950:	5f747261 	svcpl	0x00747261
    9954:	6e697270 	mcrvs	2, 3, r7, cr9, cr0, {3}
    9958:	00006b74 	andeq	r6, r0, r4, ror fp

0000995c <__FUNCTION__.4376>:
    995c:	755f7773 	ldrbvc	r7, [pc, #-1907]	; 91f1 <sw_uart_gets_until+0x85>
    9960:	5f747261 	svcpl	0x00747261
    9964:	73746567 	cmnvc	r4, #432013312	; 0x19c00000
    9968:	746e755f 	strbtvc	r7, [lr], #-1375	; 0x55f
    996c:	625f6c69 	subsvs	r6, pc, #26880	; 0x6900
    9970:	00006b6c 	andeq	r6, r0, ip, ror #22
    9974:	732d796d 	teqvc	sp, #1785856	; 0x1b4000
    9978:	732f6372 	teqvc	pc, #-939524095	; 0xc8000001
    997c:	61752d77 	cmnvs	r5, r7, ror sp
    9980:	632e7472 	teqvs	lr, #1912602624	; 0x72000000
    9984:	00000000 	andeq	r0, r0, r0
    9988:	7479626e 	ldrbtvc	r6, [r9], #-622	; 0x26e
    998c:	303e7365 	eorscc	r7, lr, r5, ror #6
    9990:	00000000 	andeq	r0, r0, r0
    9994:	7a686d28 	bvc	1a24e3c <__bss_end__+0x1a1b014>
    9998:	62202d20 	eorvs	r2, r0, #32, 26	; 0x800
    999c:	29647561 	stmdbcs	r4!, {r0, r5, r6, r8, sl, ip, sp, lr}^
    99a0:	203d3c20 	eorscs	r3, sp, r0, lsr #24
    99a4:	69726564 	ldmdbvs	r2!, {r2, r5, r6, r8, sl, sp, lr}^
    99a8:	20646576 	rsbcs	r6, r4, r6, ror r5
    99ac:	64202626 	strtvs	r2, [r0], #-1574	; 0x626
    99b0:	76697265 	strbtvc	r7, [r9], -r5, ror #4
    99b4:	3c206465 	cfstrscc	mvf6, [r0], #-404	; 0xfffffe6c
    99b8:	6d28203d 	stcvs	0, cr2, [r8, #-244]!	; 0xffffff0c
    99bc:	2b207a68 	blcs	828364 <__bss_end__+0x81e53c>
    99c0:	75616220 	strbvc	r6, [r1, #-544]!	; 0x220
    99c4:	00002964 	andeq	r2, r0, r4, ror #18
    99c8:	494e4150 	stmdbmi	lr, {r4, r6, r8, lr}^
    99cc:	73253a43 	teqvc	r5, #274432	; 0x43000
    99d0:	3a73253a 	bcc	1cd2ec0 <__bss_end__+0x1cc9098>
    99d4:	693a6425 	ldmdbvs	sl!, {r0, r2, r5, sl, sp, lr}
    99d8:	736f706d 	cmnvc	pc, #109	; 0x6d
    99dc:	6c626973 	stclvs	9, cr6, [r2], #-460	; 0xfffffe34
    99e0:	68203a65 	stmdavs	r0!, {r0, r2, r5, r6, r9, fp, ip, sp}
    99e4:	20657661 	rsbcs	r7, r5, r1, ror #12
    99e8:	69206e61 	stmdbvs	r0!, {r0, r5, r6, r9, sl, fp, sp, lr}
    99ec:	6e69666e 	cdpvs	6, 6, cr6, cr9, cr14, {3}
    99f0:	20657469 	rsbcs	r7, r5, r9, ror #8
    99f4:	656d6974 	strbvs	r6, [sp, #-2420]!	; 0x974
    99f8:	2174756f 	cmncs	r4, pc, ror #10
    99fc:	00000a0a 	andeq	r0, r0, sl, lsl #20
    9a00:	3c207a73 	stccc	10, cr7, [r0], #-460	; 0xfffffe34
    9a04:	7a697320 	bvc	1a6668c <__bss_end__+0x1a5c864>
    9a08:	20666f65 	rsbcs	r6, r6, r5, ror #30
    9a0c:	2d667562 	cfstr64cs	mvdx7, [r6, #-392]!	; 0xfffffe78
    9a10:	00000031 	andeq	r0, r0, r1, lsr r0

Disassembly of section .bss:

00009a14 <__bss_start__>:
    9a14:	00000000 	andeq	r0, r0, r0

00009a18 <v.4262>:
    9a18:	00000000 	andeq	r0, r0, r0

00009a1c <buf.4213>:
	...

00009e1c <console_uart>:
	...

Disassembly of section .ARM.attributes:

00000000 <.ARM.attributes>:
   0:	00002a41 	andeq	r2, r0, r1, asr #20
   4:	61656100 	cmnvs	r5, r0, lsl #2
   8:	01006962 	tsteq	r0, r2, ror #18
   c:	00000020 	andeq	r0, r0, r0, lsr #32
  10:	4b5a3605 	blmi	168d82c <__bss_end__+0x1683a04>
  14:	08070600 	stmdaeq	r7, {r9, sl}
  18:	12010901 	andne	r0, r1, #16384	; 0x4000
  1c:	15011404 	strne	r1, [r1, #-1028]	; 0x404
  20:	18031701 	stmdane	r3, {r0, r8, r9, sl, ip}
  24:	22011a01 	andcs	r1, r1, #4096	; 0x1000
  28:	Address 0x0000000000000028 is out of bounds.


Disassembly of section .comment:

00000000 <.comment>:
   0:	3a434347 	bcc	10d0d24 <__bss_end__+0x10c6efc>
   4:	4e472820 	cdpmi	8, 4, cr2, cr7, cr0, {1}
   8:	34202955 	strtcc	r2, [r0], #-2389	; 0x955
   c:	332e382e 	teqcc	lr, #3014656	; 0x2e0000
	...

Disassembly of section .debug_info:

00000000 <.debug_info>:
       0:	0000046c 	andeq	r0, r0, ip, ror #8
       4:	00000004 	andeq	r0, r0, r4
       8:	01040000 	mrseq	r0, (UNDEF: 4)
       c:	00000180 	andeq	r0, r0, r0, lsl #3
      10:	00003401 	andeq	r3, r0, r1, lsl #8
      14:	00004600 	andeq	r4, r0, r0, lsl #12
      18:	00801000 	addeq	r1, r0, r0
      1c:	0000fc00 	andeq	pc, r0, r0, lsl #24
      20:	00000000 	andeq	r0, r0, r0
      24:	05040200 	streq	r0, [r4, #-512]	; 0x200
      28:	00746e69 	rsbseq	r6, r4, r9, ror #28
      2c:	35070403 	strcc	r0, [r7, #-1027]	; 0x403
      30:	03000001 	movweq	r0, #1
      34:	00cc0601 	sbceq	r0, ip, r1, lsl #12
      38:	02030000 	andeq	r0, r3, #0
      3c:	0001df05 	andeq	sp, r1, r5, lsl #30
      40:	05040300 	streq	r0, [r4, #-768]	; 0x300
      44:	00000160 	andeq	r0, r0, r0, ror #2
      48:	5b050803 	blpl	14205c <__bss_end__+0x138234>
      4c:	03000001 	movweq	r0, #1
      50:	00ca0801 	sbceq	r0, sl, r1, lsl #16
      54:	02030000 	andeq	r0, r3, #0
      58:	0000ec07 	andeq	lr, r0, r7, lsl #24
      5c:	07040300 	streq	r0, [r4, -r0, lsl #6]
      60:	00000130 	andeq	r0, r0, r0, lsr r1
      64:	2b070803 	blcs	1c2078 <__bss_end__+0x1b8250>
      68:	03000001 	movweq	r0, #1
      6c:	01520704 	cmpeq	r2, r4, lsl #14
      70:	01030000 	mrseq	r0, (UNDEF: 3)
      74:	0000d308 	andeq	sp, r0, r8, lsl #6
      78:	7f040400 	svcvc	0x00040400
      7c:	05000000 	streq	r0, [r0, #-0]
      80:	00000072 	andeq	r0, r0, r2, ror r0
      84:	00014206 	andeq	r4, r1, r6, lsl #4
      88:	03510100 	cmpeq	r1, #0, 2
      8c:	000000a5 	andeq	r0, r0, r5, lsr #1
      90:	6e697007 	cdpvs	0, 6, cr7, cr9, cr7, {0}
      94:	2c510100 	ldfcse	f0, [r1], {-0}
      98:	07000000 	streq	r0, [r0, -r0]
      9c:	51010076 	tstpl	r1, r6, ror r0
      a0:	0000002c 	andeq	r0, r0, ip, lsr #32
      a4:	00b90600 	adcseq	r0, r9, r0, lsl #12
      a8:	1e010000 	cdpne	0, 0, cr0, cr1, cr0, {0}
      ac:	0000d303 	andeq	sp, r0, r3, lsl #6
      b0:	69700700 	ldmdbvs	r0!, {r8, r9, sl}^
      b4:	1e01006e 	cdpne	0, 0, cr0, cr1, cr14, {3}
      b8:	0000002c 	andeq	r0, r0, ip, lsr #32
      bc:	00020408 	andeq	r0, r2, r8, lsl #8
      c0:	d3250100 	teqle	r5, #0, 2
      c4:	08000000 	stmdaeq	r0, {}	; <UNPREDICTABLE>
      c8:	000001d7 	ldrdeq	r0, [r0], -r7
      cc:	002c2601 	eoreq	r2, ip, r1, lsl #12
      d0:	04000000 	streq	r0, [r0], #-0
      d4:	0000d904 	andeq	sp, r0, r4, lsl #18
      d8:	002c0900 	eoreq	r0, ip, r0, lsl #18
      dc:	69060000 	stmdbvs	r6, {}	; <UNPREDICTABLE>
      e0:	01000001 	tsteq	r0, r1
      e4:	010c0339 	tsteq	ip, r9, lsr r3
      e8:	70070000 	andvc	r0, r7, r0
      ec:	01006e69 	tsteq	r0, r9, ror #28
      f0:	00002c39 	andeq	r2, r0, r9, lsr ip
      f4:	02040800 	andeq	r0, r4, #0, 16
      f8:	3f010000 	svccc	0x00010000
      fc:	000000d3 	ldrdeq	r0, [r0], -r3
     100:	0001d708 	andeq	sp, r1, r8, lsl #14
     104:	2c400100 	stfcse	f0, [r0], {-0}
     108:	00000000 	andeq	r0, r0, r0
     10c:	00002b0a 	andeq	r2, r0, sl, lsl #22
     110:	10590100 	subsne	r0, r9, r0, lsl #2
     114:	cc000080 	stcgt	0, cr0, [r0], {128}	; 0x80
     118:	01000000 	mrseq	r0, (UNDEF: 0)
     11c:	0002a99c 	muleq	r2, ip, r9
     120:	69700b00 	ldmdbvs	r0!, {r8, r9, fp}^
     124:	5901006e 	stmdbpl	r1, {r1, r2, r3, r5, r6}
     128:	0000002c 	andeq	r0, r0, ip, lsr #32
     12c:	00000000 	andeq	r0, r0, r0
     130:	01004e0b 	tsteq	r0, fp, lsl #28
     134:	00002c59 	andeq	r2, r0, r9, asr ip
     138:	00003700 	andeq	r3, r0, r0, lsl #14
     13c:	01fd0c00 	mvnseq	r0, r0, lsl #24
     140:	59010000 	stmdbpl	r1, {}	; <UNPREDICTABLE>
     144:	0000002c 	andeq	r0, r0, ip, lsr #32
     148:	0000006e 	andeq	r0, r0, lr, rrx
     14c:	00001a0d 	andeq	r1, r0, sp, lsl #20
     150:	255a0100 	ldrbcs	r0, [sl, #-256]	; 0x100
     154:	05000000 	streq	r0, [r0, #-0]
     158:	009a1403 	addseq	r1, sl, r3, lsl #8
     15c:	00760e00 	rsbseq	r0, r6, r0, lsl #28
     160:	00255b01 	eoreq	r5, r5, r1, lsl #22
     164:	03050000 	movweq	r0, #20480	; 0x5000
     168:	00009a18 	andeq	r9, r0, r8, lsl sl
     16c:	00048f0f 	andeq	r8, r4, pc, lsl #30
     170:	2c5c0100 	ldfcse	f0, [ip], {-0}
     174:	a5000000 	strge	r0, [r0, #-0]
     178:	0f000000 	svceq	0x00000000
     17c:	00000014 	andeq	r0, r0, r4, lsl r0
     180:	002c5d01 	eoreq	r5, ip, r1, lsl #26
     184:	00c30000 	sbceq	r0, r3, r0
     188:	65100000 	ldrvs	r0, [r0, #-0]
     18c:	0100646e 	tsteq	r0, lr, ror #8
     190:	00002c68 	andeq	r2, r0, r8, ror #24
     194:	80241100 	eorhi	r1, r4, r0, lsl #2
     198:	00040000 	andeq	r0, r4, r0
     19c:	01b20000 			; <UNDEFINED> instruction: 0x01b20000
     1a0:	7b0f0000 	blvc	3c01a8 <__bss_end__+0x3b6380>
     1a4:	01000001 	tsteq	r0, r1
     1a8:	00002c5c 	andeq	r2, r0, ip, asr ip
     1ac:	0000a500 	andeq	sl, r0, r0, lsl #10
     1b0:	00120000 	andseq	r0, r2, r0
     1b4:	71000000 	mrsvc	r0, (UNDEF: 0)
     1b8:	0f000002 	svceq	0x00000002
     1bc:	000001f6 	strdeq	r0, [r0], -r6
     1c0:	002c6001 	eoreq	r6, ip, r1
     1c4:	00f70000 	rscseq	r0, r7, r0
     1c8:	84130000 	ldrhi	r0, [r3], #-0
     1cc:	28000000 	stmdacs	r0, {}	; <UNPREDICTABLE>
     1d0:	20000080 	andcs	r0, r0, r0, lsl #1
     1d4:	01000000 	mrseq	r0, (UNDEF: 0)
     1d8:	00025b62 	andeq	r5, r2, r2, ror #22
     1dc:	009b1400 	addseq	r1, fp, r0, lsl #8
     1e0:	01150000 	tsteq	r5, r0
     1e4:	90150000 	andsls	r0, r5, r0
     1e8:	13000000 	movwne	r0, #0
     1ec:	000000a5 	andeq	r0, r0, r5, lsr #1
     1f0:	00008028 	andeq	r8, r0, r8, lsr #32
     1f4:	00000040 	andeq	r0, r0, r0, asr #32
     1f8:	02205401 	eoreq	r5, r0, #16777216	; 0x1000000
     1fc:	b1140000 	tstlt	r4, r0
     200:	3b000000 	blcc	208 <_start-0x7df8>
     204:	16000001 	strne	r0, [r0], -r1
     208:	00000040 	andeq	r0, r0, r0, asr #32
     20c:	0000bc17 	andeq	fp, r0, r7, lsl ip
     210:	00014e00 	andeq	r4, r1, r0, lsl #28
     214:	00c71700 	sbceq	r1, r7, r0, lsl #14
     218:	01660000 	cmneq	r6, r0
     21c:	00000000 	andeq	r0, r0, r0
     220:	0000de18 	andeq	sp, r0, r8, lsl lr
     224:	00807000 	addeq	r7, r0, r0
     228:	00005800 	andeq	r5, r0, r0, lsl #16
     22c:	19560100 	ldmdbne	r6, {r8}^
     230:	000000ea 	andeq	r0, r0, sl, ror #1
     234:	58165a01 	ldmdapl	r6, {r0, r9, fp, ip, lr}
     238:	1a000000 	bne	240 <_start-0x7dc0>
     23c:	000000f5 	strdeq	r0, [r0], -r5
     240:	20200028 	eorcs	r0, r0, r8, lsr #32
     244:	0001001b 	andeq	r0, r1, fp, lsl r0
     248:	7a310500 	bvc	c41650 <__bss_end__+0xc37828>
     24c:	1c9f2400 	cfldrsne	mvf2, [pc], {0}
     250:	0000807c 	andeq	r8, r0, ip, ror r0
     254:	0000041d 	andeq	r0, r0, sp, lsl r4
     258:	16000000 	strne	r0, [r0], -r0
     25c:	00000070 	andeq	r0, r0, r0, ror r0
     260:	00017b0f 	andeq	r7, r1, pc, lsl #22
     264:	2c600100 	stfcse	f0, [r0], #-0
     268:	f7000000 			; <UNDEFINED> instruction: 0xf7000000
     26c:	00000000 	andeq	r0, r0, r0
     270:	80a01100 	adchi	r1, r0, r0, lsl #2
     274:	00040000 	andeq	r0, r4, r0
     278:	028a0000 	addeq	r0, sl, #0
     27c:	7b080000 	blvc	200284 <__bss_end__+0x1f645c>
     280:	01000001 	tsteq	r0, r1
     284:	00002c68 	andeq	r2, r0, r8, ror #24
     288:	bc1d0000 	ldclt	0, cr0, [sp], {-0}
     28c:	3a000080 	bcc	494 <_start-0x7b6c>
     290:	1e000004 	cdpne	0, 0, cr0, cr0, cr4, {0}
     294:	f3075101 	vrhadd.u8	d5, d7, d1
     298:	01f35201 	mvnseq	r5, r1, lsl #4
     29c:	011e1e51 	tsteq	lr, r1, asr lr
     2a0:	b8030550 	stmdalt	r3, {r4, r6, r8, sl}
     2a4:	00000097 	muleq	r0, r7, r0
     2a8:	00aa0a00 	adceq	r0, sl, r0, lsl #20
     2ac:	6e010000 	cdpvs	0, 0, cr0, cr1, cr0, {0}
     2b0:	000080dc 	ldrdeq	r8, [r0], -ip
     2b4:	00000030 	andeq	r0, r0, r0, lsr r0
     2b8:	03289c01 	teqeq	r8, #256	; 0x100
     2bc:	701f0000 	andsvc	r0, pc, r0
     2c0:	01006e69 	tsteq	r0, r9, ror #28
     2c4:	0000256f 	andeq	r2, r0, pc, ror #10
     2c8:	ec111500 	cfldr32	mvfx1, [r1], {-0}
     2cc:	08000080 	stmdaeq	r0, {r7}
     2d0:	e3000000 	movw	r0, #0
     2d4:	1f000002 	svcne	0x00000002
     2d8:	01006e69 	tsteq	r0, r9, ror #28
     2dc:	00002c72 	andeq	r2, r0, r2, ror ip
     2e0:	1c000100 	stfnes	f0, [r0], {-0}
     2e4:	000080e4 	andeq	r8, r0, r4, ror #1
     2e8:	00000450 	andeq	r0, r0, r0, asr r4
     2ec:	0080ec20 	addeq	lr, r0, r0, lsr #24
     2f0:	00045700 	andeq	r5, r4, r0, lsl #14
     2f4:	0002ff00 	andeq	pc, r2, r0, lsl #30
     2f8:	50011e00 	andpl	r1, r1, r0, lsl #28
     2fc:	20004501 	andcs	r4, r0, r1, lsl #10
     300:	00008104 	andeq	r8, r0, r4, lsl #2
     304:	0000010c 	andeq	r0, r0, ip, lsl #2
     308:	0000031e 	andeq	r0, r0, lr, lsl r3
     30c:	0352011e 	cmpeq	r2, #-2147483641	; 0x80000007
     310:	1e17700a 	cdpne	0, 1, cr7, cr7, cr10, {0}
     314:	3b015101 	blcc	54720 <__bss_end__+0x4a8f8>
     318:	0150011e 	cmpeq	r0, lr, lsl r1
     31c:	081c0045 	ldmdaeq	ip, {r0, r2, r6}
     320:	68000081 	stmdavs	r0, {r0, r7}
     324:	00000004 	andeq	r0, r0, r4
     328:	00002021 	andeq	r2, r0, r1, lsr #32
     32c:	d3080100 	movwle	r0, #33024	; 0x8100
     330:	00000000 	andeq	r0, r0, r0
     334:	21202000 	teqcs	r0, r0
     338:	0000000a 	andeq	r0, r0, sl
     33c:	00d30901 	sbcseq	r0, r3, r1, lsl #18
     340:	001c0000 	andseq	r0, ip, r0
     344:	00212020 	eoreq	r2, r1, r0, lsr #32
     348:	01000000 	mrseq	r0, (UNDEF: 0)
     34c:	0000d30a 	andeq	sp, r0, sl, lsl #6
     350:	20002800 	andcs	r2, r0, r0, lsl #16
     354:	020d2120 	andeq	r2, sp, #32, 2
     358:	0c010000 	stceq	0, cr0, [r1], {-0}
     35c:	000000d3 	ldrdeq	r0, [r0], -r3
     360:	20200000 	eorcs	r0, r0, r0
     364:	00012321 	andeq	r2, r1, r1, lsr #6
     368:	d30d0100 	movwle	r0, #53504	; 0xd100
     36c:	04000000 	streq	r0, [r0], #-0
     370:	21202000 	teqcs	r0, r0
     374:	0000021c 	andeq	r0, r0, ip, lsl r2
     378:	00d30e01 	sbcseq	r0, r3, r1, lsl #28
     37c:	00080000 	andeq	r0, r8, r0
     380:	24212020 	strtcs	r2, [r1], #-32
     384:	01000002 	tsteq	r0, r2
     388:	0000d30f 	andeq	sp, r0, pc, lsl #6
     38c:	20000c00 	andcs	r0, r0, r0, lsl #24
     390:	022c2120 	eoreq	r2, ip, #32, 2
     394:	10010000 	andne	r0, r1, r0
     398:	000000d3 	ldrdeq	r0, [r0], -r3
     39c:	20200010 	eorcs	r0, r0, r0, lsl r0
     3a0:	00023421 	andeq	r3, r2, r1, lsr #8
     3a4:	d3110100 	tstle	r1, #0, 2
     3a8:	14000000 	strne	r0, [r0], #-0
     3ac:	21202000 	teqcs	r0, r0
     3b0:	00000105 	andeq	r0, r0, r5, lsl #2
     3b4:	03be1301 			; <UNDEFINED> instruction: 0x03be1301
     3b8:	001c0000 	andseq	r0, ip, r0
     3bc:	d3052020 	movwle	r2, #20512	; 0x5020
     3c0:	21000000 	mrscs	r0, (UNDEF: 0)
     3c4:	0000010c 	andeq	r0, r0, ip, lsl #2
     3c8:	03d21401 	bicseq	r1, r2, #16777216	; 0x1000000
     3cc:	00200000 	eoreq	r0, r0, r0
     3d0:	d3052020 	movwle	r2, #20512	; 0x5020
     3d4:	21000000 	mrscs	r0, (UNDEF: 0)
     3d8:	000000e5 	andeq	r0, r0, r5, ror #1
     3dc:	03e61601 	mvneq	r1, #1048576	; 0x100000
     3e0:	00280000 	eoreq	r0, r8, r0
     3e4:	d3052020 	movwle	r2, #20512	; 0x5020
     3e8:	21000000 	mrscs	r0, (UNDEF: 0)
     3ec:	0000003f 	andeq	r0, r0, pc, lsr r0
     3f0:	03fa1701 	mvnseq	r1, #262144	; 0x40000
     3f4:	002c0000 	eoreq	r0, ip, r0
     3f8:	d3052020 	movwle	r2, #20512	; 0x5020
     3fc:	21000000 	mrscs	r0, (UNDEF: 0)
     400:	00000215 	andeq	r0, r0, r5, lsl r2
     404:	00d31901 	sbcseq	r1, r3, r1, lsl #18
     408:	00340000 	eorseq	r0, r4, r0
     40c:	b2212020 	eorlt	r2, r1, #32
     410:	01000000 	mrseq	r0, (UNDEF: 0)
     414:	0000d31a 	andeq	sp, r0, sl, lsl r3
     418:	20003800 	andcs	r3, r0, r0, lsl #16
     41c:	00ff2220 	rscseq	r2, pc, r0, lsr #4
     420:	9d020000 	stcls	0, cr0, [r2, #-0]
     424:	00000433 	andeq	r0, r0, r3, lsr r4
     428:	00043323 	andeq	r3, r4, r3, lsr #6
     42c:	002c2300 	eoreq	r2, ip, r0, lsl #6
     430:	04000000 	streq	r0, [r0], #-0
     434:	00043904 	andeq	r3, r4, r4, lsl #18
     438:	b3252400 	teqlt	r5, #0, 8
     43c:	02000002 	andeq	r0, r0, #2
     440:	00002529 	andeq	r2, r0, r9, lsr #10
     444:	00045000 	andeq	r5, r4, r0
     448:	00792300 	rsbseq	r2, r9, r0, lsl #6
     44c:	00260000 	eoreq	r0, r6, r0
     450:	0001e927 	andeq	lr, r1, r7, lsr #18
     454:	228e0200 	addcs	r0, lr, #0, 4
     458:	00000113 	andeq	r0, r0, r3, lsl r1
     45c:	04681d03 	strbteq	r1, [r8], #-3331	; 0xd03
     460:	2c230000 	stccs	0, cr0, [r3], #-0
     464:	00000000 	andeq	r0, r0, r0
     468:	0000d827 	andeq	sp, r0, r7, lsr #16
     46c:	00660200 	rsbeq	r0, r6, r0, lsl #4
     470:	00000191 	muleq	r0, r1, r1
     474:	01e70004 	mvneq	r0, r4
     478:	01040000 	mrseq	r0, (UNDEF: 4)
     47c:	00000259 	andeq	r0, r0, r9, asr r2
     480:	00024b01 	andeq	r4, r2, r1, lsl #22
     484:	0002c400 	andeq	ip, r2, r0, lsl #8
     488:	00810c00 	addeq	r0, r1, r0, lsl #24
     48c:	00005800 	andeq	r5, r0, r0, lsl #16
     490:	00011a00 	andeq	r1, r1, r0, lsl #20
     494:	023c0200 	eorseq	r0, ip, #0, 4
     498:	28020000 	stmdacs	r2, {}	; <UNPREDICTABLE>
     49c:	00000030 	andeq	r0, r0, r0, lsr r0
     4a0:	0002ba03 	andeq	fp, r2, r3, lsl #20
     4a4:	00030400 	andeq	r0, r3, r0, lsl #8
     4a8:	00000047 	andeq	r0, r0, r7, asr #32
     4ac:	00030d04 	andeq	r0, r3, r4, lsl #26
     4b0:	00004700 	andeq	r4, r0, r0, lsl #14
     4b4:	05000000 	streq	r0, [r0, #-0]
     4b8:	02bc0204 	adcseq	r0, ip, #4, 4	; 0x40000000
     4bc:	62020000 	andvs	r0, r2, #0
     4c0:	00000025 	andeq	r0, r0, r5, lsr #32
     4c4:	69050406 	stmdbvs	r5, {r1, r2, sl}
     4c8:	0700746e 	streq	r7, [r0, -lr, ror #8]
     4cc:	01350704 	teqeq	r5, r4, lsl #14
     4d0:	01070000 	mrseq	r0, (UNDEF: 7)
     4d4:	0000cc06 	andeq	ip, r0, r6, lsl #24
     4d8:	05020700 	streq	r0, [r2, #-1792]	; 0x700
     4dc:	000001df 	ldrdeq	r0, [r0], -pc	; <UNPREDICTABLE>
     4e0:	60050407 	andvs	r0, r5, r7, lsl #8
     4e4:	07000001 	streq	r0, [r0, -r1]
     4e8:	015b0508 	cmpeq	fp, r8, lsl #10
     4ec:	01070000 	mrseq	r0, (UNDEF: 7)
     4f0:	0000ca08 	andeq	ip, r0, r8, lsl #20
     4f4:	07020700 	streq	r0, [r2, -r0, lsl #14]
     4f8:	000000ec 	andeq	r0, r0, ip, ror #1
     4fc:	30070407 	andcc	r0, r7, r7, lsl #8
     500:	07000001 	streq	r0, [r0, -r1]
     504:	012b0708 	teqeq	fp, r8, lsl #14
     508:	04070000 	streq	r0, [r7], #-0
     50c:	00015207 	andeq	r5, r1, r7, lsl #4
     510:	a7040800 	strge	r0, [r4, -r0, lsl #16]
     514:	07000000 	streq	r0, [r0, -r0]
     518:	00d30801 	sbcseq	r0, r3, r1, lsl #16
     51c:	04080000 	streq	r0, [r8], #-0
     520:	000000b4 	strheq	r0, [r0], -r4
     524:	0000a709 	andeq	sl, r0, r9, lsl #14
     528:	02b30a00 	adcseq	r0, r3, #0, 20
     52c:	06010000 	streq	r0, [r1], -r0
     530:	00000054 	andeq	r0, r0, r4, asr r0
     534:	0000810c 	andeq	r8, r0, ip, lsl #2
     538:	00000058 	andeq	r0, r0, r8, asr r0
     53c:	01439c01 	cmpeq	r3, r1, lsl #24
     540:	660b0000 	strvs	r0, [fp], -r0
     544:	0100746d 	tsteq	r0, sp, ror #8
     548:	0000ae06 	andeq	sl, r0, r6, lsl #28
     54c:	70910200 	addsvc	r0, r1, r0, lsl #4
     550:	75620d0c 	strbvc	r0, [r2, #-3340]!	; 0xd0c
     554:	08010066 	stmdaeq	r1, {r1, r2, r5, r6}
     558:	00000143 	andeq	r0, r0, r3, asr #2
     55c:	9a1c0305 	bls	701178 <__bss_end__+0x6f7350>
     560:	080e0000 	stmdaeq	lr, {}	; <UNPREDICTABLE>
     564:	01000003 	tsteq	r0, r3
     568:	00004909 	andeq	r4, r0, r9, lsl #18
     56c:	5c910200 	lfmpl	f0, 4, [r1], {0}
     570:	007a730f 	rsbseq	r7, sl, pc, lsl #6
     574:	00540c01 	subseq	r0, r4, r1, lsl #24
     578:	017d0000 	cmneq	sp, r0
     57c:	34100000 	ldrcc	r0, [r0], #-0
     580:	74000081 	strvc	r0, [r0], #-129	; 0x81
     584:	36000001 	strcc	r0, [r0], -r1
     588:	11000001 	tstne	r0, r1
     58c:	91025301 	tstls	r2, r1, lsl #6
     590:	5201114c 	andpl	r1, r1, #76, 2
     594:	06489103 	strbeq	r9, [r8], -r3, lsl #2
     598:	03510111 	cmpeq	r1, #1073741828	; 0x40000004
     59c:	1104000a 	tstne	r4, sl
     5a0:	74025001 	strvc	r5, [r2], #-1
     5a4:	48120000 	ldmdami	r2, {}	; <UNPREDICTABLE>
     5a8:	11000081 	smlabbne	r0, r1, r0, r0
     5ac:	74025001 	strvc	r5, [r2], #-1
     5b0:	13000000 	movwne	r0, #0
     5b4:	000000a7 	andeq	r0, r0, r7, lsr #1
     5b8:	00000154 	andeq	r0, r0, r4, asr r1
     5bc:	00009a14 	andeq	r9, r0, r4, lsl sl
     5c0:	0003ff00 	andeq	pc, r3, r0, lsl #30
     5c4:	00005415 	andeq	r5, r0, r5, lsl r4
     5c8:	00016300 	andeq	r6, r1, r0, lsl #6
     5cc:	00ae1600 	adceq	r1, lr, r0, lsl #12
     5d0:	17000000 	strne	r0, [r0, -r0]
     5d4:	00000327 	andeq	r0, r0, r7, lsr #6
     5d8:	016e2204 	cmneq	lr, r4, lsl #4
     5dc:	04080000 	streq	r0, [r8], #-0
     5e0:	00000154 	andeq	r0, r0, r4, asr r1
     5e4:	0002b018 	andeq	fp, r2, r8, lsl r0
     5e8:	54020500 	strpl	r0, [r2], #-1280	; 0x500
     5ec:	16000000 	strne	r0, [r0], -r0
     5f0:	000000a1 	andeq	r0, r0, r1, lsr #1
     5f4:	00005416 	andeq	r5, r0, r6, lsl r4
     5f8:	00ae1600 	adceq	r1, lr, r0, lsl #12
     5fc:	49160000 	ldmdbmi	r6, {}	; <UNPREDICTABLE>
     600:	00000000 	andeq	r0, r0, r0
     604:	0000ee00 	andeq	lr, r0, r0, lsl #28
     608:	18000400 	stmdane	r0, {sl}
     60c:	04000003 	streq	r0, [r0], #-3
     610:	00025901 	andeq	r5, r2, r1, lsl #18
     614:	03120100 	tsteq	r2, #0, 2
     618:	02c40000 	sbceq	r0, r4, #0
     61c:	81640000 	cmnhi	r4, r0
     620:	00340000 	eorseq	r0, r4, r0
     624:	02200000 	eoreq	r0, r0, #0
     628:	04020000 	streq	r0, [r2], #-0
     62c:	746e6905 	strbtvc	r6, [lr], #-2309	; 0x905
     630:	07040300 	streq	r0, [r4, -r0, lsl #6]
     634:	00000135 	andeq	r0, r0, r5, lsr r1
     638:	cc060103 	stfgts	f0, [r6], {3}
     63c:	03000000 	movweq	r0, #0
     640:	01df0502 	bicseq	r0, pc, r2, lsl #10
     644:	04030000 	streq	r0, [r3], #-0
     648:	00016005 	andeq	r6, r1, r5
     64c:	05080300 	streq	r0, [r8, #-768]	; 0x300
     650:	0000015b 	andeq	r0, r0, fp, asr r1
     654:	ca080103 	bgt	200a68 <__bss_end__+0x1f6c40>
     658:	03000000 	movweq	r0, #0
     65c:	00ec0702 	rsceq	r0, ip, r2, lsl #14
     660:	04030000 	streq	r0, [r3], #-0
     664:	00013007 	andeq	r3, r1, r7
     668:	07080300 	streq	r0, [r8, -r0, lsl #6]
     66c:	0000012b 	andeq	r0, r0, fp, lsr #2
     670:	52070403 	andpl	r0, r7, #50331648	; 0x3000000
     674:	03000001 	movweq	r0, #1
     678:	00d30801 	sbcseq	r0, r3, r1, lsl #16
     67c:	04040000 	streq	r0, [r4], #-0
     680:	0000007f 	andeq	r0, r0, pc, ror r0
     684:	00007205 	andeq	r7, r0, r5, lsl #4
     688:	031e0600 	tsteq	lr, #0, 12
     68c:	04010000 	streq	r0, [r1], #-0
     690:	00000025 	andeq	r0, r0, r5, lsr #32
     694:	00008164 	andeq	r8, r0, r4, ror #2
     698:	00000034 	andeq	r0, r0, r4, lsr r0
     69c:	00ab9c01 	adceq	r9, fp, r1, lsl #24
     6a0:	70070000 	andvc	r0, r7, r0
     6a4:	79040100 	stmdbvc	r4, {r8}
     6a8:	a6000000 	strge	r0, [r0], -r0
     6ac:	00000001 	andeq	r0, r0, r1
     6b0:	00002508 	andeq	r2, r0, r8, lsl #10
     6b4:	0000ba00 	andeq	fp, r0, r0, lsl #20
     6b8:	00250900 	eoreq	r0, r5, r0, lsl #18
     6bc:	0a000000 	beq	6c4 <_start-0x793c>
     6c0:	0000032c 	andeq	r0, r0, ip, lsr #6
     6c4:	00c51d02 	sbceq	r1, r5, r2, lsl #26
     6c8:	04040000 	streq	r0, [r4], #-0
     6cc:	000000ab 	andeq	r0, r0, fp, lsr #1
     6d0:	00002508 	andeq	r2, r0, r8, lsl #10
     6d4:	0000da00 	andeq	sp, r0, r0, lsl #20
     6d8:	00790900 	rsbseq	r0, r9, r0, lsl #18
     6dc:	0b000000 	bleq	6e4 <_start-0x791c>
     6e0:	00000327 	andeq	r0, r0, r7, lsr #6
     6e4:	00eb0c01 	rsceq	r0, fp, r1, lsl #24
     6e8:	03050000 	movweq	r0, #20480	; 0x5000
     6ec:	0000971c 	andeq	r9, r0, ip, lsl r7
     6f0:	00cb0404 	sbceq	r0, fp, r4, lsl #8
     6f4:	a1000000 	mrsge	r0, (UNDEF: 0)
     6f8:	04000006 	streq	r0, [r0], #-6
     6fc:	0003b100 	andeq	fp, r3, r0, lsl #2
     700:	59010400 	stmdbpl	r1, {sl}
     704:	01000002 	tsteq	r0, r2
     708:	00000371 	andeq	r0, r0, r1, ror r3
     70c:	000002c4 	andeq	r0, r0, r4, asr #5
     710:	00008198 	muleq	r0, r8, r1
     714:	00000524 	andeq	r0, r0, r4, lsr #10
     718:	000002ba 			; <UNDEFINED> instruction: 0x000002ba
     71c:	69050402 	stmdbvs	r5, {r1, sl}
     720:	0300746e 	movweq	r7, #1134	; 0x46e
     724:	01350704 	teqeq	r5, r4, lsl #14
     728:	01030000 	mrseq	r0, (UNDEF: 3)
     72c:	0000cc06 	andeq	ip, r0, r6, lsl #24
     730:	05020300 	streq	r0, [r2, #-768]	; 0x300
     734:	000001df 	ldrdeq	r0, [r0], -pc	; <UNPREDICTABLE>
     738:	60050403 	andvs	r0, r5, r3, lsl #8
     73c:	03000001 	movweq	r0, #1
     740:	015b0508 	cmpeq	fp, r8, lsl #10
     744:	01030000 	mrseq	r0, (UNDEF: 3)
     748:	0000ca08 	andeq	ip, r0, r8, lsl #20
     74c:	07020300 	streq	r0, [r2, -r0, lsl #6]
     750:	000000ec 	andeq	r0, r0, ip, ror #1
     754:	30070403 	andcc	r0, r7, r3, lsl #8
     758:	03000001 	movweq	r0, #1
     75c:	012b0708 	teqeq	fp, r8, lsl #14
     760:	04030000 	streq	r0, [r3], #-0
     764:	00015207 	andeq	r5, r1, r7, lsl #4
     768:	05040400 	streq	r0, [r4, #-1024]	; 0x400
     76c:	00007a04 	andeq	r7, r0, r4, lsl #20
     770:	08010300 	stmdaeq	r1, {r8, r9}
     774:	000000d3 	ldrdeq	r0, [r0], -r3
     778:	00870405 	addeq	r0, r7, r5, lsl #8
     77c:	7a060000 	bvc	180784 <__bss_end__+0x17695c>
     780:	07000000 	streq	r0, [r0, -r0]
     784:	0000023c 	andeq	r0, r0, ip, lsr r2
     788:	00972802 	addseq	r2, r7, r2, lsl #16
     78c:	ba080000 	blt	200794 <__bss_end__+0x1f696c>
     790:	04000002 	streq	r0, [r0], #-2
     794:	00ae0004 	adceq	r0, lr, r4
     798:	0d090000 	stceq	0, cr0, [r9, #-0]
     79c:	72000003 	andvc	r0, r0, #3
     7a0:	00000000 	andeq	r0, r0, r0
     7a4:	02bc0700 	adcseq	r0, ip, #0, 14
     7a8:	62020000 	andvs	r0, r2, #0
     7ac:	0000008c 	andeq	r0, r0, ip, lsl #1
     7b0:	0003460a 	andeq	r4, r3, sl, lsl #12
     7b4:	25270100 	strcs	r0, [r7, #-256]!	; 0x100
     7b8:	98000000 	stmdals	r0, {}	; <UNPREDICTABLE>
     7bc:	14000081 	strne	r0, [r0], #-129	; 0x81
     7c0:	01000000 	mrseq	r0, (UNDEF: 0)
     7c4:	0000e09c 	muleq	r0, ip, r0
     7c8:	00630b00 	rsbeq	r0, r3, r0, lsl #22
     7cc:	00252701 	eoreq	r2, r5, r1, lsl #14
     7d0:	01c40000 	biceq	r0, r4, r0
     7d4:	0c000000 	stceq	0, cr0, [r0], {-0}
     7d8:	00646170 	rsbeq	r6, r4, r0, ror r1
     7dc:	00742e01 	rsbseq	r2, r4, r1, lsl #28
     7e0:	81ac0000 			; <UNDEFINED> instruction: 0x81ac0000
     7e4:	002c0000 	eoreq	r0, ip, r0
     7e8:	9c010000 	stcls	0, cr0, [r1], {-0}
     7ec:	00000130 	andeq	r0, r0, r0, lsr r1
     7f0:	0100700b 	tsteq	r0, fp
     7f4:	0000742e 	andeq	r7, r0, lr, lsr #8
     7f8:	0001f200 	andeq	pc, r1, r0, lsl #4
     7fc:	03630d00 	cmneq	r3, #0, 26
     800:	2e010000 	cdpcs	0, 0, cr0, cr1, cr0, {0}
     804:	00000074 	andeq	r0, r0, r4, ror r0
     808:	0000021d 	andeq	r0, r0, sp, lsl r2
     80c:	0003910e 	andeq	r9, r3, lr, lsl #2
     810:	252e0100 	strcs	r0, [lr, #-256]!	; 0x100
     814:	01000000 	mrseq	r0, (UNDEF: 0)
     818:	656c0f52 	strbvs	r0, [ip, #-3922]!	; 0xf52
     81c:	2f01006e 	svccs	0x0001006e
     820:	00000025 	andeq	r0, r0, r5, lsr #32
     824:	0a005101 	beq	14c30 <__bss_end__+0xae08>
     828:	0000033e 	andeq	r0, r0, lr, lsr r3
     82c:	00743701 	rsbseq	r3, r4, r1, lsl #14
     830:	81d80000 	bicshi	r0, r8, r0
     834:	00400000 	subeq	r0, r0, r0
     838:	9c010000 	stcls	0, cr0, [r1], {-0}
     83c:	0000019c 	muleq	r0, ip, r1
     840:	7473640b 	ldrbtvc	r6, [r3], #-1035	; 0x40b
     844:	74370100 	ldrtvc	r0, [r7], #-256	; 0x100
     848:	3e000000 	cdpcc	0, 0, cr0, cr0, cr0, {0}
     84c:	0b000002 	bleq	85c <_start-0x77a4>
     850:	3701006e 	strcc	r0, [r1, -lr, rrx]
     854:	00000025 	andeq	r0, r0, r5, lsr #32
     858:	00000276 	andeq	r0, r0, r6, ror r2
     85c:	0100700b 	tsteq	r0, fp
     860:	00007437 	andeq	r7, r0, r7, lsr r4
     864:	00029700 	andeq	r9, r2, r0, lsl #14
     868:	048f0d00 	streq	r0, [pc], #3328	; 870 <_start-0x7790>
     86c:	37010000 	strcc	r0, [r1, -r0]
     870:	00000074 	andeq	r0, r0, r4, ror r0
     874:	000002cd 	andeq	r0, r0, sp, asr #5
     878:	6e656c10 	mcrvs	12, 3, r6, cr5, cr0, {0}
     87c:	25390100 	ldrcs	r0, [r9, #-256]!	; 0x100
     880:	eb000000 	bl	888 <_start-0x7778>
     884:	0f000002 	svceq	0x00000002
     888:	3d010073 	stccc	0, cr0, [r1, #-460]	; 0xfffffe34
     88c:	00000074 	andeq	r0, r0, r4, ror r0
     890:	0a005001 	beq	1489c <__bss_end__+0xaa74>
     894:	000003ae 	andeq	r0, r0, lr, lsr #7
     898:	00744701 	rsbseq	r4, r4, r1, lsl #14
     89c:	82180000 	andshi	r0, r8, #0
     8a0:	01a80000 			; <UNDEFINED> instruction: 0x01a80000
     8a4:	9c010000 	stcls	0, cr0, [r1], {-0}
     8a8:	000002df 	ldrdeq	r0, [r0], -pc	; <UNPREDICTABLE>
     8ac:	0003630d 	andeq	r6, r3, sp, lsl #6
     8b0:	2c470100 	stfcse	f0, [r7], {-0}
     8b4:	12000000 	andne	r0, r0, #0
     8b8:	0b000003 	bleq	8cc <_start-0x7734>
     8bc:	00747364 	rsbseq	r7, r4, r4, ror #6
     8c0:	00744701 	rsbseq	r4, r4, r1, lsl #14
     8c4:	03400000 	movteq	r0, #0
     8c8:	6e0b0000 	cdpvs	0, 0, cr0, cr11, cr0, {0}
     8cc:	25470100 	strbcs	r0, [r7, #-256]	; 0x100
     8d0:	ae000000 	cdpge	0, 0, cr0, cr0, cr0, {0}
     8d4:	0b000003 	bleq	8e8 <_start-0x7718>
     8d8:	006c6176 	rsbeq	r6, ip, r6, ror r1
     8dc:	00254701 	eoreq	r4, r5, r1, lsl #14
     8e0:	03da0000 	bicseq	r0, sl, #0
     8e4:	910d0000 	mrsls	r0, (UNDEF: 13)
     8e8:	01000003 	tsteq	r0, r3
     8ec:	00002547 	andeq	r2, r0, r7, asr #10
     8f0:	00045900 	andeq	r5, r4, r0, lsl #18
     8f4:	03680e00 	cmneq	r8, #0, 28
     8f8:	47010000 	strmi	r0, [r1, -r0]
     8fc:	00000025 	andeq	r0, r0, r5, lsr #32
     900:	0f049102 	svceq	0x00049102
     904:	00667562 	rsbeq	r7, r6, r2, ror #10
     908:	02df4c01 	sbcseq	r4, pc, #256	; 0x100
     90c:	91030000 	mrsls	r0, (UNDEF: 3)
     910:	70107fa8 	andsvc	r7, r0, r8, lsr #31
     914:	744c0100 	strbvc	r0, [ip], #-256	; 0x100
     918:	83000000 	movwhi	r0, #0
     91c:	10000004 	andne	r0, r0, r4
     920:	4d010075 	stcmi	0, cr0, [r1, #-468]	; 0xfffffe2c
     924:	0000002c 	andeq	r0, r0, ip, lsr #32
     928:	0000053f 	andeq	r0, r0, pc, lsr r5
     92c:	00034e11 	andeq	r4, r3, r1, lsl lr
     930:	0002ff00 	andeq	pc, r2, r0, lsl #30
     934:	d8030500 	stmdale	r3, {r8, sl}
     938:	12000097 	andne	r0, r0, #151	; 0x97
     93c:	00008284 	andeq	r8, r0, r4, lsl #5
     940:	00000074 	andeq	r0, r0, r4, ror r0
     944:	00000261 	andeq	r0, r0, r1, ror #4
     948:	00033813 	andeq	r3, r3, r3, lsl r8
     94c:	2c520100 	ldfcse	f0, [r2], {-0}
     950:	44000000 	strmi	r0, [r0], #-0
     954:	00000006 	andeq	r0, r0, r6
     958:	00835814 	addeq	r5, r3, r4, lsl r8
     95c:	00068000 	andeq	r8, r6, r0
     960:	83741500 	cmnhi	r4, #0, 10
     964:	06870000 	streq	r0, [r7], r0
     968:	02a30000 	adceq	r0, r3, #0
     96c:	01160000 	tsteq	r6, r0
     970:	75080253 	strvc	r0, [r8, #-595]	; 0x253
     974:	05520116 	ldrbeq	r0, [r2, #-278]	; 0x116
     978:	0097d803 	addseq	sp, r7, r3, lsl #16
     97c:	51011600 	tstpl	r1, r0, lsl #12
     980:	98100305 	ldmdals	r0, {r0, r2, r8, r9}
     984:	01160000 	tsteq	r6, r0
     988:	fc030550 	stc2	5, cr0, [r3], {80}	; 0x50
     98c:	16000097 			; <UNDEFINED> instruction: 0x16000097
     990:	05007d02 	streq	r7, [r0, #-3330]	; 0xd02
     994:	00982403 	addseq	r2, r8, r3, lsl #8
     998:	78140000 	ldmdavc	r4, {}	; <UNPREDICTABLE>
     99c:	9d000083 	stcls	0, cr0, [r0, #-524]	; 0xfffffdf4
     9a0:	15000006 	strne	r0, [r0, #-6]
     9a4:	00008384 	andeq	r8, r0, r4, lsl #7
     9a8:	000000e0 	andeq	r0, r0, r0, ror #1
     9ac:	000002c1 	andeq	r0, r0, r1, asr #5
     9b0:	03510116 	cmpeq	r1, #-2147483643	; 0x80000005
     9b4:	007fa091 			; <UNDEFINED> instruction: 0x007fa091
     9b8:	00839817 	addeq	r9, r3, r7, lsl r8
     9bc:	00013000 	andeq	r3, r1, r0
     9c0:	53011600 	movwpl	r1, #5632	; 0x1600
     9c4:	7fa09103 	svcvc	0x00a09103
     9c8:	02510116 	subseq	r0, r1, #-2147483643	; 0x80000005
     9cc:	01160074 	tsteq	r6, r4, ror r0
     9d0:	00750250 	rsbseq	r0, r5, r0, asr r2
     9d4:	7a180000 	bvc	6009dc <__bss_end__+0x5f6bb4>
     9d8:	ef000000 	svc	0x00000000
     9dc:	19000002 	stmdbne	r0, {r1}
     9e0:	0000006b 	andeq	r0, r0, fp, rrx
     9e4:	7a18003f 	bvc	600ae8 <__bss_end__+0x5f6cc0>
     9e8:	ff000000 			; <UNDEFINED> instruction: 0xff000000
     9ec:	19000002 	stmdbne	r0, {r1}
     9f0:	0000006b 	andeq	r0, r0, fp, rrx
     9f4:	ef060004 	svc	0x00060004
     9f8:	1a000002 	bne	a08 <_start-0x75f8>
     9fc:	00000382 	andeq	r0, r0, r2, lsl #7
     a00:	83c01f01 	bichi	r1, r0, #1, 30
     a04:	00680000 	rsbeq	r0, r8, r0
     a08:	9c010000 	stcls	0, cr0, [r1], {-0}
     a0c:	00000392 	muleq	r0, r2, r3
     a10:	0003970d 	andeq	r9, r3, sp, lsl #14
     a14:	a11f0100 	tstge	pc, r0, lsl #2
     a18:	70000003 	andvc	r0, r0, r3
     a1c:	0d000006 	stceq	0, cr0, [r0, #-24]	; 0xffffffe8
     a20:	0000035b 	andeq	r0, r0, fp, asr r3
     a24:	03b61f01 			; <UNDEFINED> instruction: 0x03b61f01
     a28:	069c0000 	ldreq	r0, [ip], r0
     a2c:	4e110000 	cdpmi	0, 1, cr0, cr1, cr0, {0}
     a30:	cc000003 	stcgt	0, cr0, [r0], {3}
     a34:	05000003 	streq	r0, [r0, #-3]
     a38:	0097e003 	addseq	lr, r7, r3
     a3c:	83d41400 	bicshi	r1, r4, #0, 8
     a40:	06800000 	streq	r0, [r0], r0
     a44:	f0150000 			; <UNDEFINED> instruction: 0xf0150000
     a48:	87000083 	strhi	r0, [r0, -r3, lsl #1]
     a4c:	88000006 	stmdahi	r0, {r1, r2}
     a50:	16000003 	strne	r0, [r0], -r3
     a54:	08025301 	stmdaeq	r2, {r0, r8, r9, ip, lr}
     a58:	52011620 	andpl	r1, r1, #32, 12	; 0x2000000
     a5c:	97e00305 	strbls	r0, [r0, r5, lsl #6]!
     a60:	01160000 	tsteq	r6, r0
     a64:	10030551 	andne	r0, r3, r1, asr r5
     a68:	16000098 			; <UNDEFINED> instruction: 0x16000098
     a6c:	03055001 	movweq	r5, #20481	; 0x5001
     a70:	000097fc 	strdeq	r9, [r0], -ip
     a74:	007d0216 	rsbseq	r0, sp, r6, lsl r2
     a78:	984c0305 	stmdals	ip, {r0, r2, r8, r9}^
     a7c:	14000000 	strne	r0, [r0], #-0
     a80:	000083f4 	strdeq	r8, [r0], -r4
     a84:	0000069d 	muleq	r0, sp, r6
     a88:	00251b00 	eoreq	r1, r5, r0, lsl #22
     a8c:	03a10000 			; <UNDEFINED> instruction: 0x03a10000
     a90:	251c0000 	ldrcs	r0, [ip, #-0]
     a94:	00000000 	andeq	r0, r0, r0
     a98:	03920405 	orrseq	r0, r2, #83886080	; 0x5000000
     a9c:	251b0000 	ldrcs	r0, [fp, #-0]
     aa0:	b6000000 	strlt	r0, [r0], -r0
     aa4:	1c000003 	stcne	0, cr0, [r0], {3}
     aa8:	00000081 	andeq	r0, r0, r1, lsl #1
     aac:	a7040500 	strge	r0, [r4, -r0, lsl #10]
     ab0:	18000003 	stmdane	r0, {r0, r1}
     ab4:	0000007a 	andeq	r0, r0, sl, ror r0
     ab8:	000003cc 	andeq	r0, r0, ip, asr #7
     abc:	00006b19 	andeq	r6, r0, r9, lsl fp
     ac0:	06000e00 	streq	r0, [r0], -r0, lsl #28
     ac4:	000003bc 			; <UNDEFINED> instruction: 0x000003bc
     ac8:	0002b01d 	andeq	fp, r2, sp, lsl r0
     acc:	257d0100 	ldrbcs	r0, [sp, #-256]!	; 0x100
     ad0:	28000000 	stmdacs	r0, {}	; <UNPREDICTABLE>
     ad4:	94000084 	strls	r0, [r0], #-132	; 0x84
     ad8:	01000002 	tsteq	r0, r2
     adc:	0006459c 	muleq	r6, ip, r5
     ae0:	75620b00 	strbvc	r0, [r2, #-2816]!	; 0xb00
     ae4:	7d010066 	stcvc	0, cr0, [r1, #-408]	; 0xfffffe68
     ae8:	00000074 	andeq	r0, r0, r4, ror r0
     aec:	000006c8 	andeq	r0, r0, r8, asr #13
     af0:	01006e0b 	tsteq	r0, fp, lsl #28
     af4:	0000257d 	andeq	r2, r0, sp, ror r5
     af8:	0006f400 	andeq	pc, r6, r0, lsl #8
     afc:	6d660b00 	vstmdbvs	r6!, {d16-d15}
     b00:	7d010074 	stcvc	0, cr0, [r1, #-464]	; 0xfffffe30
     b04:	00000081 	andeq	r0, r0, r1, lsl #1
     b08:	00000722 	andeq	r0, r0, r2, lsr #14
     b0c:	0003080d 	andeq	r0, r3, sp, lsl #16
     b10:	ae7d0100 	rpwgee	f0, f5, f0
     b14:	56000000 	strpl	r0, [r0], -r0
     b18:	10000007 	andne	r0, r0, r7
     b1c:	7e010070 	mcrvc	0, 0, r0, cr1, cr0, {3}
     b20:	00000074 	andeq	r0, r0, r4, ror r0
     b24:	00000769 	andeq	r0, r0, r9, ror #14
     b28:	01006510 	tsteq	r0, r0, lsl r5
     b2c:	0000747e 	andeq	r7, r0, lr, ror r4
     b30:	0007e700 	andeq	lr, r7, r0, lsl #14
     b34:	034e1100 	movteq	r1, #57600	; 0xe100
     b38:	06550000 	ldrbeq	r0, [r5], -r0
     b3c:	03050000 	movweq	r0, #20480	; 0x5000
     b40:	000097f0 	strdeq	r9, [r0], -r0
     b44:	0000881e 	andeq	r8, r0, lr, lsl r8
     b48:	00731000 	rsbseq	r1, r3, r0
     b4c:	00748b01 	rsbseq	r8, r4, r1, lsl #22
     b50:	080e0000 	stmdaeq	lr, {}	; <UNPREDICTABLE>
     b54:	6e0f0000 	cdpvs	0, 0, cr0, cr15, cr0, {0}
     b58:	01006d75 	tsteq	r0, r5, ror sp
     b5c:	00065a8b 	andeq	r5, r6, fp, lsl #21
     b60:	d8910300 	ldmle	r1, {r8, r9}
     b64:	0391137e 	orrseq	r1, r1, #-134217727	; 0xf8000001
     b68:	8c010000 	stchi	0, cr0, [r1], {-0}
     b6c:	0000002c 	andeq	r0, r0, ip, lsr #32
     b70:	00000863 	andeq	r0, r0, r3, ror #16
     b74:	0084ac15 	addeq	sl, r4, r5, lsl ip
     b78:	0000b900 	andeq	fp, r0, r0, lsl #18
     b7c:	00049100 	andeq	r9, r4, r0, lsl #2
     b80:	50011600 	andpl	r1, r1, r0, lsl #12
     b84:	00007502 	andeq	r7, r0, r2, lsl #10
     b88:	0084c014 	addeq	ip, r4, r4, lsl r0
     b8c:	00068000 	andeq	r8, r6, r0
     b90:	84dc1500 	ldrbhi	r1, [ip], #1280	; 0x500
     b94:	06870000 	streq	r0, [r7], r0
     b98:	04d30000 	ldrbeq	r0, [r3], #0
     b9c:	01160000 	tsteq	r6, r0
     ba0:	92080253 	andls	r0, r8, #805306373	; 0x30000005
     ba4:	05520116 	ldrbeq	r0, [r2, #-278]	; 0x116
     ba8:	0097f003 	addseq	pc, r7, r3
     bac:	51011600 	tstpl	r1, r0, lsl #12
     bb0:	98100305 	ldmdals	r0, {r0, r2, r8, r9}
     bb4:	01160000 	tsteq	r6, r0
     bb8:	fc030550 	stc2	5, cr0, [r3], {80}	; 0x50
     bbc:	16000097 			; <UNDEFINED> instruction: 0x16000097
     bc0:	05007d02 	streq	r7, [r0, #-3330]	; 0xd02
     bc4:	00985403 	addseq	r5, r8, r3, lsl #8
     bc8:	e0140000 	ands	r0, r4, r0
     bcc:	9d000084 	stcls	0, cr0, [r0, #-528]	; 0xfffffdf0
     bd0:	14000006 	strne	r0, [r0], #-6
     bd4:	00008550 	andeq	r8, r0, r0, asr r5
     bd8:	00000680 	andeq	r0, r0, r0, lsl #13
     bdc:	00856415 	addeq	r6, r5, r5, lsl r4
     be0:	00068700 	andeq	r8, r6, r0, lsl #14
     be4:	00051400 	andeq	r1, r5, r0, lsl #8
     be8:	53011600 	movwpl	r1, #5632	; 0x1600
     bec:	16980802 	ldrne	r0, [r8], r2, lsl #16
     bf0:	03055201 	movweq	r5, #20993	; 0x5201
     bf4:	000097f0 	strdeq	r9, [r0], -r0
     bf8:	05510116 	ldrbeq	r0, [r1, #-278]	; 0x116
     bfc:	00981003 	addseq	r1, r8, r3
     c00:	50011600 	andpl	r1, r1, r0, lsl #12
     c04:	98600305 	stmdals	r0!, {r0, r2, r8, r9}^
     c08:	14000000 	strne	r0, [r0], #-0
     c0c:	00008568 	andeq	r8, r0, r8, ror #10
     c10:	0000069d 	muleq	r0, sp, r6
     c14:	00858c15 	addeq	r8, r5, r5, lsl ip
     c18:	00019c00 	andeq	r9, r1, r0, lsl #24
     c1c:	00054a00 	andeq	r4, r5, r0, lsl #20
     c20:	52011600 	andpl	r1, r1, #0, 12
     c24:	16800802 	strne	r0, [r0], r2, lsl #16
     c28:	91035101 	tstls	r3, r1, lsl #2
     c2c:	01167ed0 			; <UNDEFINED> instruction: 0x01167ed0
     c30:	163a0150 			; <UNDEFINED> instruction: 0x163a0150
     c34:	01047d02 	tsteq	r4, r2, lsl #26
     c38:	7d021631 	stcvc	6, cr1, [r2, #-196]	; 0xffffff3c
     c3c:	00770200 	rsbseq	r0, r7, r0, lsl #4
     c40:	85b01500 	ldrhi	r1, [r0, #1280]!	; 0x500
     c44:	019c0000 	orrseq	r0, ip, r0
     c48:	05780000 	ldrbeq	r0, [r8, #-0]!
     c4c:	01160000 	tsteq	r6, r0
     c50:	80080252 	andhi	r0, r8, r2, asr r2
     c54:	03510116 	cmpeq	r1, #-2147483643	; 0x80000005
     c58:	167ed091 			; <UNDEFINED> instruction: 0x167ed091
     c5c:	3a015001 	bcc	54c68 <__bss_end__+0x4ae40>
     c60:	047d0216 	ldrbteq	r0, [sp], #-534	; 0x216
     c64:	16007b02 	strne	r7, [r0], -r2, lsl #22
     c68:	02007d02 	andeq	r7, r0, #2, 26	; 0x80
     c6c:	15000077 	strne	r0, [r0, #-119]	; 0x77
     c70:	000085d4 	ldrdeq	r8, [r0], -r4
     c74:	0000019c 	muleq	r0, ip, r1
     c78:	000005a6 	andeq	r0, r0, r6, lsr #11
     c7c:	02520116 	subseq	r0, r2, #-2147483643	; 0x80000005
     c80:	01168008 	tsteq	r6, r8
     c84:	d0910351 	addsle	r0, r1, r1, asr r3
     c88:	5001167e 	andpl	r1, r1, lr, ror r6
     c8c:	02164001 	andseq	r4, r6, #1
     c90:	7b02047d 	blvc	81e8c <__bss_end__+0x78064>
     c94:	7d021600 	stcvc	6, cr1, [r2, #-0]
     c98:	00770200 	rsbseq	r0, r7, r0, lsl #4
     c9c:	85f81500 	ldrbhi	r1, [r8, #1280]!	; 0x500
     ca0:	019c0000 	orrseq	r0, ip, r0
     ca4:	05d40000 	ldrbeq	r0, [r4]
     ca8:	01160000 	tsteq	r6, r0
     cac:	80080252 	andhi	r0, r8, r2, asr r2
     cb0:	03510116 	cmpeq	r1, #-2147483643	; 0x80000005
     cb4:	167ed091 			; <UNDEFINED> instruction: 0x167ed091
     cb8:	32015001 	andcc	r5, r1, #1
     cbc:	047d0216 	ldrbteq	r0, [sp], #-534	; 0x216
     cc0:	16007b02 	strne	r7, [r0], -r2, lsl #22
     cc4:	02007d02 	andeq	r7, r0, #2, 26	; 0x80
     cc8:	15000077 	strne	r0, [r0, #-119]	; 0x77
     ccc:	00008628 	andeq	r8, r0, r8, lsr #12
     cd0:	0000019c 	muleq	r0, ip, r1
     cd4:	00000602 	andeq	r0, r0, r2, lsl #12
     cd8:	02520116 	subseq	r0, r2, #-2147483643	; 0x80000005
     cdc:	01168008 	tsteq	r6, r8
     ce0:	d0910351 	addsle	r0, r1, r1, asr r3
     ce4:	5001167e 	andpl	r1, r1, lr, ror r6
     ce8:	02163801 	andseq	r3, r6, #65536	; 0x10000
     cec:	7b02047d 	blvc	81ee8 <__bss_end__+0x780c0>
     cf0:	7d021600 	stcvc	6, cr1, [r2, #-0]
     cf4:	00770200 	rsbseq	r0, r7, r0, lsl #4
     cf8:	86301400 	ldrthi	r1, [r0], -r0, lsl #8
     cfc:	06800000 	streq	r0, [r0], r0
     d00:	4c150000 	ldcmi	0, cr0, [r5], {-0}
     d04:	87000086 	strhi	r0, [r0, -r6, lsl #1]
     d08:	3a000006 	bcc	d28 <_start-0x72d8>
     d0c:	16000006 	strne	r0, [r0], -r6
     d10:	08025301 	stmdaeq	r2, {r0, r8, r9, ip, lr}
     d14:	520116b9 	andpl	r1, r1, #193986560	; 0xb900000
     d18:	97f00305 	ldrbls	r0, [r0, r5, lsl #6]!
     d1c:	01160000 	tsteq	r6, r0
     d20:	10030551 	andne	r0, r3, r1, asr r5
     d24:	16000098 			; <UNDEFINED> instruction: 0x16000098
     d28:	03055001 	movweq	r5, #20481	; 0x5001
     d2c:	00009888 	andeq	r9, r0, r8, lsl #17
     d30:	86501400 	ldrbhi	r1, [r0], -r0, lsl #8
     d34:	069d0000 	ldreq	r0, [sp], r0
     d38:	00000000 	andeq	r0, r0, r0
     d3c:	00007a18 	andeq	r7, r0, r8, lsl sl
     d40:	00065500 	andeq	r5, r6, r0, lsl #10
     d44:	006b1900 	rsbeq	r1, fp, r0, lsl #18
     d48:	00090000 	andeq	r0, r9, r0
     d4c:	00064506 	andeq	r4, r6, r6, lsl #10
     d50:	007a1800 	rsbseq	r1, sl, r0, lsl #16
     d54:	066a0000 	strbteq	r0, [sl], -r0
     d58:	6b190000 	blvs	640d60 <__bss_end__+0x636f38>
     d5c:	7f000000 	svcvc	0x00000000
     d60:	032c1f00 	teqeq	ip, #0, 30
     d64:	1d030000 	stcne	0, cr0, [r3, #-0]
     d68:	000003a1 	andeq	r0, r0, r1, lsr #7
     d6c:	0003271f 	andeq	r2, r3, pc, lsl r7
     d70:	b6220300 	strtlt	r0, [r2], -r0, lsl #6
     d74:	20000003 	andcs	r0, r0, r3
     d78:	0000039f 	muleq	r0, pc, r3	; <UNPREDICTABLE>
     d7c:	b3211e03 	teqlt	r1, #3, 28	; 0x30
     d80:	03000002 	movweq	r0, #2
     d84:	00002529 	andeq	r2, r0, r9, lsr #10
     d88:	00069d00 	andeq	r9, r6, r0, lsl #26
     d8c:	00811c00 	addeq	r1, r1, r0, lsl #24
     d90:	00220000 	eoreq	r0, r2, r0
     d94:	0000d820 	andeq	sp, r0, r0, lsr #16
     d98:	00660300 	rsbeq	r0, r6, r0, lsl #6
     d9c:	000000b8 	strheq	r0, [r0], -r8
     da0:	058d0004 	streq	r0, [sp, #4]
     da4:	01040000 	mrseq	r0, (UNDEF: 4)
     da8:	00000259 	andeq	r0, r0, r9, asr r2
     dac:	0003c101 	andeq	ip, r3, r1, lsl #2
     db0:	0002c400 	andeq	ip, r2, r0, lsl #8
     db4:	0086bc00 	addeq	fp, r6, r0, lsl #24
     db8:	00002000 	andeq	r2, r0, r0
     dbc:	0004a000 	andeq	sl, r4, r0
     dc0:	05040200 	streq	r0, [r4, #-512]	; 0x200
     dc4:	00746e69 	rsbseq	r6, r4, r9, ror #28
     dc8:	35070403 	strcc	r0, [r7, #-1027]	; 0x403
     dcc:	03000001 	movweq	r0, #1
     dd0:	00cc0601 	sbceq	r0, ip, r1, lsl #12
     dd4:	02030000 	andeq	r0, r3, #0
     dd8:	0001df05 	andeq	sp, r1, r5, lsl #30
     ddc:	05040300 	streq	r0, [r4, #-768]	; 0x300
     de0:	00000160 	andeq	r0, r0, r0, ror #2
     de4:	5b050803 	blpl	142df8 <__bss_end__+0x138fd0>
     de8:	03000001 	movweq	r0, #1
     dec:	00ca0801 	sbceq	r0, sl, r1, lsl #16
     df0:	02030000 	andeq	r0, r3, #0
     df4:	0000ec07 	andeq	lr, r0, r7, lsl #24
     df8:	07040300 	streq	r0, [r4, -r0, lsl #6]
     dfc:	00000130 	andeq	r0, r0, r0, lsr r1
     e00:	2b070803 	blcs	1c2e14 <__bss_end__+0x1b8fec>
     e04:	03000001 	movweq	r0, #1
     e08:	01520704 	cmpeq	r2, r4, lsl #14
     e0c:	01030000 	mrseq	r0, (UNDEF: 3)
     e10:	0000d308 	andeq	sp, r0, r8, lsl #6
     e14:	01e90400 	mvneq	r0, r0, lsl #8
     e18:	03010000 	movweq	r0, #4096	; 0x1000
     e1c:	000086bc 			; <UNDEFINED> instruction: 0x000086bc
     e20:	00000010 	andeq	r0, r0, r0, lsl r0
     e24:	009c9c01 	addseq	r9, ip, r1, lsl #24
     e28:	72050000 	andvc	r0, r5, #0
     e2c:	2c040100 	stfcss	f0, [r4], {-0}
     e30:	8d000000 	stchi	0, cr0, [r0, #-0]
     e34:	00000008 	andeq	r0, r0, r8
     e38:	0003b306 	andeq	fp, r3, r6, lsl #6
     e3c:	cc0c0100 	stfgts	f0, [ip], {-0}
     e40:	10000086 	andne	r0, r0, r6, lsl #1
     e44:	01000000 	mrseq	r0, (UNDEF: 0)
     e48:	0072059c 			; <UNDEFINED> instruction: 0x0072059c
     e4c:	002c0d01 	eoreq	r0, ip, r1, lsl #26
     e50:	08b10000 	ldmeq	r1!, {}	; <UNPREDICTABLE>
     e54:	00000000 	andeq	r0, r0, r0
     e58:	000000ff 	strdeq	r0, [r0], -pc	; <UNPREDICTABLE>
     e5c:	05f80004 	ldrbeq	r0, [r8, #4]!
     e60:	01040000 	mrseq	r0, (UNDEF: 4)
     e64:	00000259 	andeq	r0, r0, r9, asr r2
     e68:	0003df01 	andeq	sp, r3, r1, lsl #30
     e6c:	0002c400 	andeq	ip, r2, r0, lsl #8
     e70:	0086dc00 	addeq	sp, r6, r0, lsl #24
     e74:	00002800 	andeq	r2, r0, r0, lsl #16
     e78:	0004e700 	andeq	lr, r4, r0, lsl #14
     e7c:	05040200 	streq	r0, [r4, #-512]	; 0x200
     e80:	00746e69 	rsbseq	r6, r4, r9, ror #28
     e84:	35070403 	strcc	r0, [r7, #-1027]	; 0x403
     e88:	03000001 	movweq	r0, #1
     e8c:	00cc0601 	sbceq	r0, ip, r1, lsl #12
     e90:	02030000 	andeq	r0, r3, #0
     e94:	0001df05 	andeq	sp, r1, r5, lsl #30
     e98:	05040300 	streq	r0, [r4, #-768]	; 0x300
     e9c:	00000160 	andeq	r0, r0, r0, ror #2
     ea0:	5b050803 	blpl	142eb4 <__bss_end__+0x13908c>
     ea4:	03000001 	movweq	r0, #1
     ea8:	00ca0801 	sbceq	r0, sl, r1, lsl #16
     eac:	02030000 	andeq	r0, r3, #0
     eb0:	0000ec07 	andeq	lr, r0, r7, lsl #24
     eb4:	07040300 	streq	r0, [r4, -r0, lsl #6]
     eb8:	00000130 	andeq	r0, r0, r0, lsr r1
     ebc:	2b070803 	blcs	1c2ed0 <__bss_end__+0x1b90a8>
     ec0:	03000001 	movweq	r0, #1
     ec4:	01520704 	cmpeq	r2, r4, lsl #14
     ec8:	01030000 	mrseq	r0, (UNDEF: 3)
     ecc:	0000d308 	andeq	sp, r0, r8, lsl #6
     ed0:	7f040400 	svcvc	0x00040400
     ed4:	05000000 	streq	r0, [r0, #-0]
     ed8:	00000072 	andeq	r0, r0, r2, ror r0
     edc:	0000d806 	andeq	sp, r0, r6, lsl #16
     ee0:	dc040100 	stfles	f0, [r4], {-0}
     ee4:	28000086 	stmdacs	r0, {r1, r2, r7}
     ee8:	01000000 	mrseq	r0, (UNDEF: 0)
     eec:	0000ca9c 	muleq	r0, ip, sl
     ef0:	86f00700 	ldrbthi	r0, [r0], r0, lsl #14
     ef4:	00ac0000 	adceq	r0, ip, r0
     ef8:	01080000 	mrseq	r0, (UNDEF: 8)
     efc:	c0030550 	andgt	r0, r3, r0, asr r5
     f00:	00000098 	muleq	r0, r8, r0
     f04:	0086f809 	addeq	pc, r6, r9, lsl #16
     f08:	0000ea00 	andeq	lr, r0, r0, lsl #20
     f0c:	0000c000 	andeq	ip, r0, r0
     f10:	50010800 	andpl	r0, r1, r0, lsl #16
     f14:	00640802 	rsbeq	r0, r4, r2, lsl #16
     f18:	0086fc0a 	addeq	pc, r6, sl, lsl #24
     f1c:	0000fb00 	andeq	pc, r0, r0, lsl #22
     f20:	250b0000 	strcs	r0, [fp, #-0]
     f24:	d9000000 	stmdble	r0, {}	; <UNPREDICTABLE>
     f28:	0c000000 	stceq	0, cr0, [r0], {-0}
     f2c:	00000079 	andeq	r0, r0, r9, ror r0
     f30:	03270d00 	teqeq	r7, #0, 26
     f34:	22020000 	andcs	r0, r2, #0
     f38:	000000e4 	andeq	r0, r0, r4, ror #1
     f3c:	00ca0404 	sbceq	r0, sl, r4, lsl #8
     f40:	f90e0000 			; <UNDEFINED> instruction: 0xf90e0000
     f44:	02000003 	andeq	r0, r0, #3
     f48:	0000fb50 	andeq	pc, r0, r0, asr fp	; <UNPREDICTABLE>
     f4c:	002c0c00 	eoreq	r0, ip, r0, lsl #24
     f50:	0f000000 	svceq	0x00000000
     f54:	000003d4 	ldrdeq	r0, [r0], -r4
     f58:	dd006302 	stcle	3, cr6, [r0, #-8]
     f5c:	04000002 	streq	r0, [r0], #-2
     f60:	0006c200 	andeq	ip, r6, r0, lsl #4
     f64:	59010400 	stmdbpl	r1, {sl}
     f68:	01000002 	tsteq	r0, r2
     f6c:	000004e4 	andeq	r0, r0, r4, ror #9
     f70:	000002c4 	andeq	r0, r0, r4, asr #5
     f74:	00008704 	andeq	r8, r0, r4, lsl #14
     f78:	000000b0 	strheq	r0, [r0], -r0	; <UNPREDICTABLE>
     f7c:	0000057e 	andeq	r0, r0, lr, ror r5
     f80:	69050402 	stmdbvs	r5, {r1, sl}
     f84:	0300746e 	movweq	r7, #1134	; 0x46e
     f88:	01350704 	teqeq	r5, r4, lsl #14
     f8c:	01030000 	mrseq	r0, (UNDEF: 3)
     f90:	0000cc06 	andeq	ip, r0, r6, lsl #24
     f94:	05020300 	streq	r0, [r2, #-768]	; 0x300
     f98:	000001df 	ldrdeq	r0, [r0], -pc	; <UNPREDICTABLE>
     f9c:	60050403 	andvs	r0, r5, r3, lsl #8
     fa0:	03000001 	movweq	r0, #1
     fa4:	015b0508 	cmpeq	fp, r8, lsl #10
     fa8:	ad040000 	stcge	0, cr0, [r4, #-0]
     fac:	02000004 	andeq	r0, r0, #4
     fb0:	00005a2e 	andeq	r5, r0, lr, lsr #20
     fb4:	08010300 	stmdaeq	r1, {r8, r9}
     fb8:	000000ca 	andeq	r0, r0, sl, asr #1
     fbc:	ec070203 	sfm	f0, 4, [r7], {3}
     fc0:	04000000 	streq	r0, [r0], #-0
     fc4:	00000504 	andeq	r0, r0, r4, lsl #10
     fc8:	00733402 	rsbseq	r3, r3, r2, lsl #8
     fcc:	04030000 	streq	r0, [r3], #-0
     fd0:	00013007 	andeq	r3, r1, r7
     fd4:	07080300 	streq	r0, [r8, -r0, lsl #6]
     fd8:	0000012b 	andeq	r0, r0, fp, lsr #2
     fdc:	52070403 	andpl	r0, r7, #50331648	; 0x3000000
     fe0:	03000001 	movweq	r0, #1
     fe4:	00d30801 	sbcseq	r0, r3, r1, lsl #16
     fe8:	04050000 	streq	r0, [r5], #-0
     fec:	00000095 	muleq	r0, r5, r0
     ff0:	00008806 	andeq	r8, r0, r6, lsl #16
     ff4:	030c0700 	movweq	r0, #50944	; 0xc700
     ff8:	0000d10e 	andeq	sp, r0, lr, lsl #2
     ffc:	78740800 	ldmdavc	r4!, {fp}^
    1000:	4f0f0300 	svcmi	0x000f0300
    1004:	00000000 	andeq	r0, r0, r0
    1008:	00787208 	rsbseq	r7, r8, r8, lsl #4
    100c:	004f0f03 	subeq	r0, pc, r3, lsl #30
    1010:	09010000 	stmdbeq	r1, {}	; <UNPREDICTABLE>
    1014:	0000047b 	andeq	r0, r0, fp, ror r4
    1018:	00681003 	rsbeq	r1, r8, r3
    101c:	09040000 	stmdbeq	r4, {}	; <UNPREDICTABLE>
    1020:	0000042c 	andeq	r0, r0, ip, lsr #8
    1024:	00681103 	rsbeq	r1, r8, r3, lsl #2
    1028:	00080000 	andeq	r0, r8, r0
    102c:	00046404 	andeq	r6, r4, r4, lsl #8
    1030:	9a120300 	bls	481c38 <__bss_end__+0x477e10>
    1034:	0a000000 	beq	103c <_start-0x6fc4>
    1038:	f7100401 			; <UNDEFINED> instruction: 0xf7100401
    103c:	0b000000 	bleq	1044 <_start-0x6fbc>
    1040:	00000480 	andeq	r0, r0, r0, lsl #9
    1044:	046e0b01 	strbteq	r0, [lr], #-2817	; 0xb01
    1048:	0b020000 	bleq	81050 <__bss_end__+0x77228>
    104c:	00000456 	andeq	r0, r0, r6, asr r4
    1050:	95040003 	strls	r0, [r4, #-3]
    1054:	04000004 	streq	r0, [r0], #-4
    1058:	0000dc10 	andeq	sp, r0, r0, lsl ip
    105c:	04140700 	ldreq	r0, [r4], #-1792	; 0x700
    1060:	00012f14 	andeq	r2, r1, r4, lsl pc
    1064:	050d0900 	streq	r0, [sp, #-2304]	; 0x900
    1068:	15040000 	strne	r0, [r4, #-0]
    106c:	0000002c 	andeq	r0, r0, ip, lsr #32
    1070:	04f80900 	ldrbteq	r0, [r8], #2304	; 0x900
    1074:	18040000 	stmdane	r4, {}	; <UNPREDICTABLE>
    1078:	000000f7 	strdeq	r0, [r0], -r7
    107c:	04c30904 	strbeq	r0, [r3], #2308	; 0x904
    1080:	1b040000 	blne	101088 <__bss_end__+0xf7260>
    1084:	000000d1 	ldrdeq	r0, [r0], -r1
    1088:	b5040008 	strlt	r0, [r4, #-8]
    108c:	04000004 	streq	r0, [r0], #-4
    1090:	00010220 	andeq	r0, r1, r0, lsr #4
    1094:	04020c00 	streq	r0, [r2], #-3072	; 0xc00
    1098:	06010000 	streq	r0, [r1], -r0
    109c:	00000025 	andeq	r0, r0, r5, lsr #32
    10a0:	00008704 	andeq	r8, r0, r4, lsl #14
    10a4:	00000020 	andeq	r0, r0, r0, lsr #32
    10a8:	017a9c01 	cmneq	sl, r1, lsl #24
    10ac:	630d0000 	movwvs	r0, #53248	; 0xd000
    10b0:	25060100 	strcs	r0, [r6, #-256]	; 0x100
    10b4:	d5000000 	strle	r0, [r0, #-0]
    10b8:	0e000008 	cdpeq	0, 0, cr0, cr0, cr8, {0}
    10bc:	00008718 	andeq	r8, r0, r8, lsl r7
    10c0:	0000027a 	andeq	r0, r0, sl, ror r2
    10c4:	0251010f 	subseq	r0, r1, #-1073741821	; 0xc0000003
    10c8:	010f0074 	tsteq	pc, r4, ror r0	; <UNPREDICTABLE>
    10cc:	1c030550 	cfstr32ne	mvfx0, [r3], {80}	; 0x50
    10d0:	0000009e 	muleq	r0, lr, r0
    10d4:	048d1000 	streq	r1, [sp], #0
    10d8:	0b010000 	bleq	410e0 <__bss_end__+0x372b8>
    10dc:	00008724 	andeq	r8, r0, r4, lsr #14
    10e0:	00000090 	muleq	r0, r0, r0
    10e4:	02279c01 	eoreq	r9, r7, #256	; 0x100
    10e8:	16110000 	ldrne	r0, [r1], -r0
    10ec:	01000004 	tsteq	r0, r4
    10f0:	0000250c 	andeq	r2, r0, ip, lsl #10
    10f4:	04d81100 	ldrbeq	r1, [r8], #256	; 0x100
    10f8:	0c010000 	stceq	0, cr0, [r1], {-0}
    10fc:	00000025 	andeq	r0, r0, r5, lsr #32
    1100:	0000aa12 	andeq	sl, r0, r2, lsl sl
    1104:	130d0100 	movwne	r0, #53504	; 0xd100
    1108:	00737362 	rsbseq	r7, r3, r2, ror #6
    110c:	02270f01 	eoreq	r0, r7, #1, 30
    1110:	08f30000 	ldmeq	r3!, {}^	; <UNPREDICTABLE>
    1114:	24140000 	ldrcs	r0, [r4], #-0
    1118:	01000004 	tsteq	r0, r4
    111c:	00022710 	andeq	r2, r2, r0, lsl r7
    1120:	62631300 	rsbvs	r1, r3, #0, 6
    1124:	2d170100 	ldfcss	f0, [r7, #-0]
    1128:	13000002 	movwne	r0, #2
    112c:	15000009 	strne	r0, [r0, #-9]
    1130:	0000874c 	andeq	r8, r0, ip, asr #14
    1134:	00000296 	muleq	r0, r6, r2
    1138:	00878816 	addeq	r8, r7, r6, lsl r8
    113c:	0002a100 	andeq	sl, r2, r0, lsl #2
    1140:	0001fd00 	andeq	pc, r1, r0, lsl #26
    1144:	51010f00 	tstpl	r1, r0, lsl #30
    1148:	98cc0305 	stmials	ip, {r0, r2, r8, r9}^
    114c:	010f0000 	mrseq	r0, CPSR
    1150:	1c030550 	cfstr32ne	mvfx0, [r3], {80}	; 0x50
    1154:	0000009e 	muleq	r0, lr, r0
    1158:	00879016 	addeq	r9, r7, r6, lsl r0
    115c:	0002bc00 	andeq	fp, r2, r0, lsl #24
    1160:	00021400 	andeq	r1, r2, r0, lsl #8
    1164:	50010f00 	andpl	r0, r1, r0, lsl #30
    1168:	98f00305 	ldmls	r0!, {r0, r2, r8, r9}^
    116c:	15000000 	strne	r0, [r0, #-0]
    1170:	00008794 	muleq	r0, r4, r7
    1174:	000002d2 	ldrdeq	r0, [r0], -r2
    1178:	00879815 	addeq	r9, r7, r5, lsl r8
    117c:	0002d900 	andeq	sp, r2, r0, lsl #18
    1180:	04050000 	streq	r0, [r5], #-0
    1184:	00000025 	andeq	r0, r0, r5, lsr #32
    1188:	012f0405 	teqeq	pc, r5, lsl #8
    118c:	3a170000 	bcc	5c1194 <__bss_end__+0x5b736c>
    1190:	01000004 	tsteq	r0, r4
    1194:	0000d105 	andeq	sp, r0, r5, lsl #2
    1198:	1c030500 	cfstr32ne	mvfx0, [r3], {-0}
    119c:	1800009e 	stmdane	r0, {r1, r2, r3, r4, r7}
    11a0:	00000025 	andeq	r0, r0, r5, lsr #32
    11a4:	00000253 	andeq	r0, r0, r3, asr r2
    11a8:	00002519 	andeq	r2, r0, r9, lsl r5
    11ac:	2c110000 	ldccs	0, cr0, [r1], {-0}
    11b0:	05000003 	streq	r0, [r0, #-3]
    11b4:	00025e1d 	andeq	r5, r2, sp, lsl lr
    11b8:	44040500 	strmi	r0, [r4], #-1280	; 0x500
    11bc:	11000002 	tstne	r0, r2
    11c0:	00000416 	andeq	r0, r0, r6, lsl r4
    11c4:	00250c01 	eoreq	r0, r5, r1, lsl #24
    11c8:	d8110000 	ldmdale	r1, {}	; <UNPREDICTABLE>
    11cc:	01000004 	tsteq	r0, r4
    11d0:	0000250c 	andeq	r2, r0, ip, lsl #10
    11d4:	04a01a00 	strteq	r1, [r0], #2560	; 0xa00
    11d8:	44030000 	strmi	r0, [r3], #-0
    11dc:	00000290 	muleq	r0, r0, r2
    11e0:	00029019 	andeq	r9, r2, r9, lsl r0
    11e4:	005a1900 	subseq	r1, sl, r0, lsl #18
    11e8:	05000000 	streq	r0, [r0, #-0]
    11ec:	0000d104 	andeq	sp, r0, r4, lsl #2
    11f0:	04cb1b00 	strbeq	r1, [fp], #2816	; 0xb00
    11f4:	2a040000 	bcs	1011fc <__bss_end__+0xf73d4>
    11f8:	0000022d 	andeq	r0, r0, sp, lsr #4
    11fc:	0004471c 	andeq	r4, r4, ip, lsl r7
    1200:	25150300 	ldrcs	r0, [r5, #-768]	; 0x300
    1204:	bc000000 	stclt	0, cr0, [r0], {-0}
    1208:	19000002 	stmdbne	r0, {r1}
    120c:	00000290 	muleq	r0, r0, r2
    1210:	00008f19 	andeq	r8, r0, r9, lsl pc
    1214:	1c001d00 	stcne	13, cr1, [r0], {-0}
    1218:	000002b3 			; <UNDEFINED> instruction: 0x000002b3
    121c:	00252905 	eoreq	r2, r5, r5, lsl #18
    1220:	02d20000 	sbcseq	r0, r2, #0
    1224:	8f190000 	svchi	0x00190000
    1228:	1d000000 	stcne	0, cr0, [r0, #-0]
    122c:	00aa1200 	adceq	r1, sl, r0, lsl #4
    1230:	d1050000 	mrsle	r0, (UNDEF: 5)
    1234:	0003d412 	andeq	sp, r3, r2, lsl r4
    1238:	00630500 	rsbeq	r0, r3, r0, lsl #10
    123c:	000001ad 	andeq	r0, r0, sp, lsr #3
    1240:	08590004 	ldmdaeq	r9, {r2}^
    1244:	01040000 	mrseq	r0, (UNDEF: 4)
    1248:	00000259 	andeq	r0, r0, r9, asr r2
    124c:	00052d01 	andeq	r2, r5, r1, lsl #26
    1250:	0002c400 	andeq	ip, r2, r0, lsl #8
    1254:	0000a000 	andeq	sl, r0, r0
    1258:	00000000 	andeq	r0, r0, r0
    125c:	0006a300 	andeq	sl, r6, r0, lsl #6
    1260:	05040200 	streq	r0, [r4, #-512]	; 0x200
    1264:	00746e69 	rsbseq	r6, r4, r9, ror #28
    1268:	35070403 	strcc	r0, [r7, #-1027]	; 0x403
    126c:	03000001 	movweq	r0, #1
    1270:	00cc0601 	sbceq	r0, ip, r1, lsl #12
    1274:	02030000 	andeq	r0, r3, #0
    1278:	0001df05 	andeq	sp, r1, r5, lsl #30
    127c:	05040300 	streq	r0, [r4, #-768]	; 0x300
    1280:	00000160 	andeq	r0, r0, r0, ror #2
    1284:	5b050803 	blpl	143298 <__bss_end__+0x139470>
    1288:	03000001 	movweq	r0, #1
    128c:	00ca0801 	sbceq	r0, sl, r1, lsl #16
    1290:	02030000 	andeq	r0, r3, #0
    1294:	0000ec07 	andeq	lr, r0, r7, lsl #24
    1298:	07040300 	streq	r0, [r4, -r0, lsl #6]
    129c:	00000130 	andeq	r0, r0, r0, lsr r1
    12a0:	2b070803 	blcs	1c32b4 <__bss_end__+0x1b948c>
    12a4:	03000001 	movweq	r0, #1
    12a8:	01520704 	cmpeq	r2, r4, lsl #14
    12ac:	01030000 	mrseq	r0, (UNDEF: 3)
    12b0:	0000d308 	andeq	sp, r0, r8, lsl #6
    12b4:	05130400 	ldreq	r0, [r3, #-1024]	; 0x400
    12b8:	0e010000 	cdpeq	0, 0, cr0, cr1, cr0, {0}
    12bc:	00000025 	andeq	r0, r0, r5, lsr #32
    12c0:	000087b4 			; <UNDEFINED> instruction: 0x000087b4
    12c4:	00000018 	andeq	r0, r0, r8, lsl r0
    12c8:	00a29c01 	adceq	r9, r2, r1, lsl #24
    12cc:	7f050000 	svcvc	0x00050000
    12d0:	01000005 	tsteq	r0, r5
    12d4:	00002c0f 	andeq	r2, r0, pc, lsl #24
    12d8:	00093300 	andeq	r3, r9, r0, lsl #6
    12dc:	62060000 	andvs	r0, r6, #0
    12e0:	01000005 	tsteq	r0, r5
    12e4:	0087cc17 	addeq	ip, r7, r7, lsl ip
    12e8:	00001400 	andeq	r1, r0, r0, lsl #8
    12ec:	c79c0100 	ldrgt	r0, [ip, r0, lsl #2]
    12f0:	05000000 	streq	r0, [r0, #-0]
    12f4:	0000057f 	andeq	r0, r0, pc, ror r5
    12f8:	002c1801 	eoreq	r1, ip, r1, lsl #16
    12fc:	09520000 	ldmdbeq	r2, {}^	; <UNPREDICTABLE>
    1300:	06000000 	streq	r0, [r0], -r0
    1304:	000003d4 	ldrdeq	r0, [r0], -r4
    1308:	87e01f01 	strbhi	r1, [r0, r1, lsl #30]!
    130c:	00480000 	subeq	r0, r8, r0
    1310:	9c010000 	stcls	0, cr0, [r1], {-0}
    1314:	00000177 	andeq	r0, r0, r7, ror r1
    1318:	00057707 	andeq	r7, r5, r7, lsl #14
    131c:	772a0100 	strvc	r0, [sl, -r0, lsl #2]!
    1320:	1c000001 	stcne	0, cr0, [r0], {1}
    1324:	07201000 	streq	r1, [r0, -r0]!
    1328:	0000055a 	andeq	r0, r0, sl, asr r5
    132c:	01772b01 	cmneq	r7, r1, lsl #22
    1330:	00240000 	eoreq	r0, r4, r0
    1334:	21072010 	tstcs	r7, r0, lsl r0
    1338:	01000005 	tsteq	r0, r5
    133c:	0001772c 	andeq	r7, r1, ip, lsr #14
    1340:	00000000 	andeq	r0, r0, r0
    1344:	0541085a 	strbeq	r0, [r1, #-2138]	; 0x85a
    1348:	2d010000 	stccs	0, cr0, [r1, #-0]
    134c:	00000177 	andeq	r0, r0, r7, ror r1
    1350:	87e80920 	strbhi	r0, [r8, r0, lsr #18]!
    1354:	00790000 	rsbseq	r0, r9, r0
    1358:	f4090000 	vst4.8	{d0-d3}, [r9], r0
    135c:	a2000087 	andge	r0, r0, #135	; 0x87
    1360:	0a000000 	beq	1368 <_start-0x6c98>
    1364:	000087fc 	strdeq	r8, [r0], -ip
    1368:	0000018d 	andeq	r0, r0, sp, lsl #3
    136c:	0000013a 	andeq	r0, r0, sl, lsr r1
    1370:	0150010b 	cmpeq	r0, fp, lsl #2
    1374:	080a004e 	stmdaeq	sl, {r1, r2, r3, r6}
    1378:	9e000088 	cdpls	0, 0, cr0, cr0, cr8, {4}
    137c:	5a000001 	bpl	1388 <_start-0x6c78>
    1380:	0b000001 	bleq	138c <_start-0x6c74>
    1384:	0c055101 	stfeqs	f5, [r5], {1}
    1388:	5a000001 	bpl	1394 <_start-0x6c6c>
    138c:	0550010b 	ldrbeq	r0, [r0, #-267]	; 0x10b
    1390:	1000240c 	andne	r2, r0, ip, lsl #8
    1394:	140c0020 	strne	r0, [ip], #-32
    1398:	9e000088 	cdpls	0, 0, cr0, cr0, cr8, {4}
    139c:	0b000001 	bleq	13a8 <_start-0x6c58>
    13a0:	0c055101 	stfeqs	f5, [r5], {1}
    13a4:	5a000020 	bpl	142c <_start-0x6bd4>
    13a8:	0550010b 	ldrbeq	r0, [r0, #-267]	; 0x10b
    13ac:	10001c0c 	andne	r1, r0, ip, lsl #24
    13b0:	0d000020 	stceq	0, cr0, [r0, #-128]	; 0xffffff80
    13b4:	00000025 	andeq	r0, r0, r5, lsr #32
    13b8:	00051608 	andeq	r1, r5, r8, lsl #12
    13bc:	880d0100 	stmdahi	sp, {r8}
    13c0:	10000001 	andne	r0, r0, r1
    13c4:	00002c0d 	andeq	r2, r0, sp, lsl #24
    13c8:	03f90e00 	mvnseq	r0, #0, 28
    13cc:	50020000 	andpl	r0, r2, r0
    13d0:	0000019e 	muleq	r0, lr, r1
    13d4:	00002c0f 	andeq	r2, r0, pc, lsl #24
    13d8:	71100000 	tstvc	r0, r0
    13dc:	02000005 	andeq	r0, r0, #5
    13e0:	002c0f9c 	mlaeq	ip, ip, pc, r0	; <UNPREDICTABLE>
    13e4:	2c0f0000 	stccs	0, cr0, [pc], {-0}
    13e8:	00000000 	andeq	r0, r0, r0
    13ec:	0001d800 	andeq	sp, r1, r0, lsl #16
    13f0:	47000400 	strmi	r0, [r0, -r0, lsl #8]
    13f4:	04000009 	streq	r0, [r0], #-9
    13f8:	00025901 	andeq	r5, r2, r1, lsl #18
    13fc:	05a10100 	streq	r0, [r1, #256]!	; 0x100
    1400:	02c40000 	sbceq	r0, r4, #0
    1404:	88280000 	stmdahi	r8!, {}	; <UNPREDICTABLE>
    1408:	00880000 	addeq	r0, r8, r0
    140c:	07400000 	strbeq	r0, [r0, -r0]
    1410:	04020000 	streq	r0, [r2], #-0
    1414:	746e6905 	strbtvc	r6, [lr], #-2309	; 0x905
    1418:	07040300 	streq	r0, [r4, -r0, lsl #6]
    141c:	00000135 	andeq	r0, r0, r5, lsr r1
    1420:	cc060103 	stfgts	f0, [r6], {3}
    1424:	03000000 	movweq	r0, #0
    1428:	01df0502 	bicseq	r0, pc, r2, lsl #10
    142c:	04030000 	streq	r0, [r3], #-0
    1430:	00016005 	andeq	r6, r1, r5
    1434:	05080300 	streq	r0, [r8, #-768]	; 0x300
    1438:	0000015b 	andeq	r0, r0, fp, asr r1
    143c:	ca080103 	bgt	201850 <__bss_end__+0x1f7a28>
    1440:	03000000 	movweq	r0, #0
    1444:	00ec0702 	rsceq	r0, ip, r2, lsl #14
    1448:	04030000 	streq	r0, [r3], #-0
    144c:	00013007 	andeq	r3, r1, r7
    1450:	07080300 	streq	r0, [r8, -r0, lsl #6]
    1454:	0000012b 	andeq	r0, r0, fp, lsr #2
    1458:	52070403 	andpl	r0, r7, #50331648	; 0x3000000
    145c:	03000001 	movweq	r0, #1
    1460:	00d30801 	sbcseq	r0, r3, r1, lsl #16
    1464:	c0040000 	andgt	r0, r4, r0
    1468:	01000005 	tsteq	r0, r5
    146c:	00882805 	addeq	r2, r8, r5, lsl #16
    1470:	00001c00 	andeq	r1, r0, r0, lsl #24
    1474:	9e9c0100 	fmllse	f0, f4, f0
    1478:	05000000 	streq	r0, [r0, #-0]
    147c:	000005ba 			; <UNDEFINED> instruction: 0x000005ba
    1480:	002c0501 	eoreq	r0, ip, r1, lsl #10
    1484:	097c0000 	ldmdbeq	ip!, {}^	; <UNPREDICTABLE>
    1488:	06000000 	streq	r0, [r0], -r0
    148c:	00000584 	andeq	r0, r0, r4, lsl #11
    1490:	002c0b01 	eoreq	r0, ip, r1, lsl #22
    1494:	88440000 	stmdahi	r4, {}^	; <UNPREDICTABLE>
    1498:	00140000 	andseq	r0, r4, r0
    149c:	9c010000 	stcls	0, cr0, [r1], {-0}
    14a0:	000000cb 	andeq	r0, r0, fp, asr #1
    14a4:	00885007 	addeq	r5, r8, r7
    14a8:	0001ca00 	andeq	ip, r1, r0, lsl #20
    14ac:	50010800 	andpl	r0, r1, r0, lsl #16
    14b0:	30040c05 	andcc	r0, r4, r5, lsl #24
    14b4:	00002000 	andeq	r2, r0, r0
    14b8:	0005d606 	andeq	sp, r5, r6, lsl #12
    14bc:	2c100100 	ldfcss	f0, [r0], {-0}
    14c0:	58000000 	stmdapl	r0, {}	; <UNPREDICTABLE>
    14c4:	0c000088 	stceq	0, cr0, [r0], {136}	; 0x88
    14c8:	01000000 	mrseq	r0, (UNDEF: 0)
    14cc:	0000f99c 	muleq	r0, ip, r9
    14d0:	00750900 	rsbseq	r0, r5, r0, lsl #18
    14d4:	002c1401 	eoreq	r1, ip, r1, lsl #8
    14d8:	50010000 	andpl	r0, r1, r0
    14dc:	0088600a 	addeq	r6, r8, sl
    14e0:	00009e00 	andeq	r9, r0, r0, lsl #28
    14e4:	cd040000 	stcgt	0, cr0, [r4, #-0]
    14e8:	01000005 	tsteq	r0, r5
    14ec:	00886419 	addeq	r6, r8, r9, lsl r4
    14f0:	00002400 	andeq	r2, r0, r0, lsl #8
    14f4:	579c0100 	ldrpl	r0, [ip, r0, lsl #2]
    14f8:	0b000001 	bleq	1504 <_start-0x6afc>
    14fc:	01007375 	tsteq	r0, r5, ror r3
    1500:	00002c19 	andeq	r2, r0, r9, lsl ip
    1504:	0009b000 	andeq	fp, r9, r0
    1508:	62720900 	rsbsvs	r0, r2, #0, 18
    150c:	2c1a0100 	ldfcss	f0, [sl], {-0}
    1510:	01000000 	mrseq	r0, (UNDEF: 0)
    1514:	88740c54 	ldmdahi	r4!, {r2, r4, r6, sl, fp}^
    1518:	00100000 	andseq	r0, r0, r0
    151c:	014d0000 	mrseq	r0, (UNDEF: 77)
    1520:	720d0000 	andvc	r0, sp, #0
    1524:	1c010061 	stcne	0, cr0, [r1], {97}	; 0x61
    1528:	0000002c 	andeq	r0, r0, ip, lsr #32
    152c:	000009ce 	andeq	r0, r0, lr, asr #19
    1530:	0088780a 	addeq	r7, r8, sl, lsl #16
    1534:	0000cb00 	andeq	ip, r0, r0, lsl #22
    1538:	700a0000 	andvc	r0, sl, r0
    153c:	cb000088 	blgt	1764 <_start-0x689c>
    1540:	00000000 	andeq	r0, r0, r0
    1544:	0003f904 	andeq	pc, r3, r4, lsl #18
    1548:	88220100 	stmdahi	r2!, {r8}
    154c:	14000088 	strne	r0, [r0], #-136	; 0x88
    1550:	01000000 	mrseq	r0, (UNDEF: 0)
    1554:	0001909c 	muleq	r1, ip, r0
    1558:	736d0b00 	cmnvc	sp, #0, 22
    155c:	2c220100 	stfcss	f0, [r2], #-0
    1560:	e1000000 	mrs	r0, (UNDEF: 0)
    1564:	07000009 	streq	r0, [r0, -r9]
    1568:	00008898 	muleq	r0, r8, r8
    156c:	000000f9 	strdeq	r0, [r0], -r9
    1570:	07500108 	ldrbeq	r0, [r0, -r8, lsl #2]
    1574:	0a5001f3 	beq	1401d48 <__bss_end__+0x13f7f20>
    1578:	001e03e8 	andseq	r0, lr, r8, ror #7
    157c:	05970400 	ldreq	r0, [r7, #1024]	; 0x400
    1580:	25010000 	strcs	r0, [r1, #-0]
    1584:	0000889c 	muleq	r0, ip, r8
    1588:	00000014 	andeq	r0, r0, r4, lsl r0
    158c:	01ca9c01 	biceq	r9, sl, r1, lsl #24
    1590:	730b0000 	movwvc	r0, #45056	; 0xb000
    1594:	01006365 	tsteq	r0, r5, ror #6
    1598:	00002c25 	andeq	r2, r0, r5, lsr #24
    159c:	000a0200 	andeq	r0, sl, r0, lsl #4
    15a0:	88ac0700 	stmiahi	ip!, {r8, r9, sl}
    15a4:	01570000 	cmpeq	r7, r0
    15a8:	01080000 	mrseq	r0, (UNDEF: 8)
    15ac:	01f30750 	mvnseq	r0, r0, asr r7
    15b0:	03e80a50 	mvneq	r0, #80, 20	; 0x50000
    15b4:	0e00001e 	mcreq	0, 0, r0, cr0, cr14, {0}
    15b8:	000005b4 			; <UNDEFINED> instruction: 0x000005b4
    15bc:	002ca802 	eoreq	sl, ip, r2, lsl #16
    15c0:	2c0f0000 	stccs	0, cr0, [pc], {-0}
    15c4:	00000000 	andeq	r0, r0, r0
    15c8:	00088200 	andeq	r8, r8, r0, lsl #4
    15cc:	2a000400 	bcs	25d4 <_start-0x5a2c>
    15d0:	0400000a 	streq	r0, [r0], #-10
    15d4:	00025901 	andeq	r5, r2, r1, lsl #18
    15d8:	06230100 	strteq	r0, [r3], -r0, lsl #2
    15dc:	02c40000 	sbceq	r0, r4, #0
    15e0:	88b00000 	ldmhi	r0!, {}	; <UNPREDICTABLE>
    15e4:	05a00000 	streq	r0, [r0, #0]!
    15e8:	07e70000 	strbeq	r0, [r7, r0]!
    15ec:	08020000 	stmdaeq	r2, {}	; <UNPREDICTABLE>
    15f0:	00012b07 	andeq	r2, r1, r7, lsl #22
    15f4:	07040200 	streq	r0, [r4, -r0, lsl #4]
    15f8:	00000135 	andeq	r0, r0, r5, lsr r1
    15fc:	cc060102 	stfgts	f0, [r6], {2}
    1600:	02000000 	andeq	r0, r0, #0
    1604:	01df0502 	bicseq	r0, pc, r2, lsl #10
    1608:	04020000 	streq	r0, [r2], #-0
    160c:	00016005 	andeq	r6, r1, r5
    1610:	05080200 	streq	r0, [r8, #-512]	; 0x200
    1614:	0000015b 	andeq	r0, r0, fp, asr r1
    1618:	ca080102 	bgt	201a28 <__bss_end__+0x1f7c00>
    161c:	02000000 	andeq	r0, r0, #0
    1620:	00ec0702 	rsceq	r0, ip, r2, lsl #14
    1624:	04020000 	streq	r0, [r2], #-0
    1628:	00013007 	andeq	r3, r1, r7
    162c:	05040300 	streq	r0, [r4, #-768]	; 0x300
    1630:	00746e69 	rsbseq	r6, r4, r9, ror #28
    1634:	52070402 	andpl	r0, r7, #33554432	; 0x2000000
    1638:	02000001 	andeq	r0, r0, #1
    163c:	00d30801 	sbcseq	r0, r3, r1, lsl #16
    1640:	01040000 	mrseq	r0, (UNDEF: 4)
    1644:	00b20c02 	adcseq	r0, r2, r2, lsl #24
    1648:	13050000 	movwne	r0, #20480	; 0x5000
    164c:	00000006 	andeq	r0, r0, r6
    1650:	0006f705 	andeq	pc, r6, r5, lsl #14
    1654:	30050100 	andcc	r0, r5, r0, lsl #2
    1658:	04000007 	streq	r0, [r0], #-7
    165c:	00073f05 	andeq	r3, r7, r5, lsl #30
    1660:	4e050500 	cfsh32mi	mvfx0, mvfx5, #0
    1664:	06000007 	streq	r0, [r0], -r7
    1668:	00075d05 	andeq	r5, r7, r5, lsl #26
    166c:	6c050700 	stcvs	7, cr0, [r5], {-0}
    1670:	03000007 	movweq	r0, #7
    1674:	00077b05 	andeq	r7, r7, r5, lsl #22
    1678:	06000200 	streq	r0, [r0], -r0, lsl #4
    167c:	00000724 	andeq	r0, r0, r4, lsr #14
    1680:	00791502 	rsbseq	r1, r9, r2, lsl #10
    1684:	13070000 	movwne	r0, #28672	; 0x7000
    1688:	01000001 	tsteq	r0, r1
    168c:	0088b03f 	addeq	fp, r8, pc, lsr r0
    1690:	0000d400 	andeq	sp, r0, r0, lsl #8
    1694:	339c0100 	orrscc	r0, ip, #0, 2
    1698:	08000001 	stmdaeq	r0, {r0}
    169c:	006e6970 	rsbeq	r6, lr, r0, ror r9
    16a0:	002c3f01 	eoreq	r3, ip, r1, lsl #30
    16a4:	0a230000 	beq	8c16ac <__bss_end__+0x8b7884>
    16a8:	04090000 	streq	r0, [r9], #-0
    16ac:	01000002 	tsteq	r0, r2
    16b0:	00013347 	andeq	r3, r1, r7, asr #6
    16b4:	000a4100 	andeq	r4, sl, r0, lsl #2
    16b8:	078a0900 	streq	r0, [sl, r0, lsl #18]
    16bc:	49010000 	stmdbmi	r1, {}	; <UNPREDICTABLE>
    16c0:	0000002c 	andeq	r0, r0, ip, lsr #32
    16c4:	00000a96 	muleq	r0, r6, sl
    16c8:	0001d709 	andeq	sp, r1, r9, lsl #14
    16cc:	2c570100 	ldfcse	f0, [r7], {-0}
    16d0:	62000000 	andvs	r0, r0, #0
    16d4:	0a00000c 	beq	170c <_start-0x68f4>
    16d8:	00008944 	andeq	r8, r0, r4, asr #18
    16dc:	00000841 	andeq	r0, r0, r1, asr #16
    16e0:	00000122 	andeq	r0, r0, r2, lsr #2
    16e4:	0250010b 	subseq	r0, r0, #-1073741822	; 0xc0000002
    16e8:	0c000075 	stceq	0, cr0, [r0], {117}	; 0x75
    16ec:	00008978 	andeq	r8, r0, r8, ror r9
    16f0:	00000862 	andeq	r0, r0, r2, ror #16
    16f4:	0250010b 	subseq	r0, r0, #-1073741822	; 0xc0000002
    16f8:	00000075 	andeq	r0, r0, r5, ror r0
    16fc:	0139040d 	teqeq	r9, sp, lsl #8
    1700:	2c0e0000 	stccs	0, cr0, [lr], {-0}
    1704:	07000000 	streq	r0, [r0, -r0]
    1708:	000000be 	strheq	r0, [r0], -lr
    170c:	89846001 	stmibhi	r4, {r0, sp, lr}
    1710:	00380000 	eorseq	r0, r8, r0
    1714:	9c010000 	stcls	0, cr0, [r1], {-0}
    1718:	00000196 	muleq	r0, r6, r1
    171c:	6e697008 	cdpvs	0, 6, cr7, cr9, cr8, {0}
    1720:	2c600100 	stfcse	f0, [r0], #-0
    1724:	92000000 	andls	r0, r0, #0
    1728:	0900000c 	stmdbeq	r0, {r2, r3}
    172c:	00000204 	andeq	r0, r0, r4, lsl #4
    1730:	01336701 	teqeq	r3, r1, lsl #14
    1734:	0cb30000 	ldceq	0, cr0, [r3]
    1738:	d7090000 	strle	r0, [r9, -r0]
    173c:	01000001 	tsteq	r0, r1
    1740:	00002c68 	andeq	r2, r0, r8, ror #24
    1744:	000ce900 	andeq	lr, ip, r0, lsl #18
    1748:	89b40c00 	ldmibhi	r4!, {sl, fp}
    174c:	08620000 	stmdaeq	r2!, {}^	; <UNPREDICTABLE>
    1750:	010b0000 	mrseq	r0, (UNDEF: 11)
    1754:	f3310751 	vaba.u<illegal width 64>	q0, <illegal reg q0.5>, <illegal reg q0.5>
    1758:	1a4f5001 	bne	13d5764 <__bss_end__+0x13cb93c>
    175c:	07000024 	streq	r0, [r0, -r4, lsr #32]
    1760:	0000016e 	andeq	r0, r0, lr, ror #2
    1764:	89bc7b01 	ldmibhi	ip!, {r0, r8, r9, fp, ip, sp, lr}
    1768:	00380000 	eorseq	r0, r8, r0
    176c:	9c010000 	stcls	0, cr0, [r1], {-0}
    1770:	000001ee 	andeq	r0, r0, lr, ror #3
    1774:	6e697008 	cdpvs	0, 6, cr7, cr9, cr8, {0}
    1778:	2c7b0100 	ldfcse	f0, [fp], #-0
    177c:	29000000 	stmdbcs	r0, {}	; <UNPREDICTABLE>
    1780:	0900000d 	stmdbeq	r0, {r0, r2, r3}
    1784:	00000204 	andeq	r0, r0, r4, lsl #4
    1788:	01338101 	teqeq	r3, r1, lsl #2
    178c:	0d4a0000 	stcleq	0, cr0, [sl, #-0]
    1790:	d7090000 	strle	r0, [r9, -r0]
    1794:	01000001 	tsteq	r0, r1
    1798:	00002c82 	andeq	r2, r0, r2, lsl #25
    179c:	000d8000 	andeq	r8, sp, r0
    17a0:	89ec0c00 	stmibhi	ip!, {sl, fp}^
    17a4:	08620000 	stmdaeq	r2!, {}^	; <UNPREDICTABLE>
    17a8:	010b0000 	mrseq	r0, (UNDEF: 11)
    17ac:	f3310751 	vaba.u<illegal width 64>	q0, <illegal reg q0.5>, <illegal reg q0.5>
    17b0:	1a4f5001 	bne	13d57bc <__bss_end__+0x13cb994>
    17b4:	07000024 	streq	r0, [r0, -r4, lsr #32]
    17b8:	000006c0 	andeq	r0, r0, r0, asr #13
    17bc:	89f49501 	ldmibhi	r4!, {r0, r8, sl, ip, pc}^
    17c0:	00cc0000 	sbceq	r0, ip, r0
    17c4:	9c010000 	stcls	0, cr0, [r1], {-0}
    17c8:	00000264 	andeq	r0, r0, r4, ror #4
    17cc:	6e697008 	cdpvs	0, 6, cr7, cr9, cr8, {0}
    17d0:	2c950100 	ldfcss	f0, [r5], {0}
    17d4:	c0000000 	andgt	r0, r0, r0
    17d8:	0900000d 	stmdbeq	r0, {r0, r2, r3}
    17dc:	00000204 	andeq	r0, r0, r4, lsl #4
    17e0:	01339b01 	teqeq	r3, r1, lsl #22
    17e4:	0dde0000 	ldcleq	0, cr0, [lr]
    17e8:	8a090000 	bhi	2417f0 <__bss_end__+0x2379c8>
    17ec:	01000007 	tsteq	r0, r7
    17f0:	00002c9d 	muleq	r0, sp, ip
    17f4:	000e3300 	andeq	r3, lr, r0, lsl #6
    17f8:	01d70900 	bicseq	r0, r7, r0, lsl #18
    17fc:	ab010000 	blge	41804 <__bss_end__+0x379dc>
    1800:	0000002c 	andeq	r0, r0, ip, lsr #32
    1804:	00000fff 	strdeq	r0, [r0], -pc	; <UNPREDICTABLE>
    1808:	008a880a 	addeq	r8, sl, sl, lsl #16
    180c:	00084100 	andeq	r4, r8, r0, lsl #2
    1810:	00025300 	andeq	r5, r2, r0, lsl #6
    1814:	50010b00 	andpl	r0, r1, r0, lsl #22
    1818:	00007502 	andeq	r7, r0, r2, lsl #10
    181c:	008ab40c 	addeq	fp, sl, ip, lsl #8
    1820:	00086200 	andeq	r6, r8, r0, lsl #4
    1824:	50010b00 	andpl	r0, r1, r0, lsl #22
    1828:	00007502 	andeq	r7, r0, r2, lsl #10
    182c:	064f0f00 	strbeq	r0, [pc], -r0, lsl #30
    1830:	b3010000 	movwlt	r0, #4096	; 0x1000
    1834:	00000064 	andeq	r0, r0, r4, rrx
    1838:	00008ac0 	andeq	r8, r0, r0, asr #21
    183c:	0000004c 	andeq	r0, r0, ip, asr #32
    1840:	02ac9c01 	adceq	r9, ip, #256	; 0x100
    1844:	70080000 	andvc	r0, r8, r0
    1848:	01006e69 	tsteq	r0, r9, ror #28
    184c:	00002cb3 			; <UNDEFINED> instruction: 0x00002cb3
    1850:	00101d00 	andseq	r1, r0, r0, lsl #26
    1854:	00761000 	rsbseq	r1, r6, r0
    1858:	002cb901 	eoreq	fp, ip, r1, lsl #18
    185c:	10750000 	rsbsne	r0, r5, r0
    1860:	e0110000 	ands	r0, r1, r0
    1864:	4100008a 	smlabbmi	r0, sl, r0, r0
    1868:	11000008 	tstne	r0, r8
    186c:	00008af0 	strdeq	r8, [r0], -r0
    1870:	00000841 	andeq	r0, r0, r1, asr #16
    1874:	01470700 	cmpeq	r7, r0, lsl #14
    1878:	c5010000 	strgt	r0, [r1, #-0]
    187c:	00008b0c 	andeq	r8, r0, ip, lsl #22
    1880:	00000024 	andeq	r0, r0, r4, lsr #32
    1884:	02fc9c01 	rscseq	r9, ip, #256	; 0x100
    1888:	70080000 	andvc	r0, r8, r0
    188c:	01006e69 	tsteq	r0, r9, ror #28
    1890:	00002cc5 	andeq	r2, r0, r5, asr #25
    1894:	0010ab00 	andseq	sl, r0, r0, lsl #22
    1898:	00760800 	rsbseq	r0, r6, r0, lsl #16
    189c:	002cc501 	eoreq	ip, ip, r1, lsl #10
    18a0:	10e50000 	rscne	r0, r5, r0
    18a4:	240a0000 	strcs	r0, [sl], #-0
    18a8:	3e00008b 	cdpcc	0, 0, cr0, cr0, cr11, {4}
    18ac:	f2000001 	vhadd.s8	d0, d0, d1
    18b0:	0b000002 	bleq	18c0 <_start-0x6740>
    18b4:	f3035001 	vhadd.u8	d5, d3, d1
    18b8:	11005001 	tstne	r0, r1
    18bc:	00008b2c 	andeq	r8, r0, ip, lsr #22
    18c0:	00000196 	muleq	r0, r6, r1
    18c4:	066e0700 	strbteq	r0, [lr], -r0, lsl #14
    18c8:	d1010000 	mrsle	r0, (UNDEF: 1)
    18cc:	00008b30 	andeq	r8, r0, r0, lsr fp
    18d0:	000000d8 	ldrdeq	r0, [r0], -r8
    18d4:	03819c01 	orreq	r9, r1, #256	; 0x100
    18d8:	70080000 	andvc	r0, r8, r0
    18dc:	01006e69 	tsteq	r0, r9, ror #28
    18e0:	00002cd1 	ldrdeq	r2, [r0], -r1
    18e4:	00111f00 	andseq	r1, r1, r0, lsl #30
    18e8:	06bb1200 	ldrteq	r1, [fp], r0, lsl #4
    18ec:	d1010000 	mrsle	r0, (UNDEF: 1)
    18f0:	000000b2 	strheq	r0, [r0], -r2
    18f4:	0000113d 	andeq	r1, r0, sp, lsr r1
    18f8:	00020409 	andeq	r0, r2, r9, lsl #8
    18fc:	33d90100 	bicscc	r0, r9, #0, 2
    1900:	5e000001 	cdppl	0, 0, cr0, cr0, cr1, {0}
    1904:	09000011 	stmdbeq	r0, {r0, r4}
    1908:	0000078a 	andeq	r0, r0, sl, lsl #15
    190c:	002cda01 	eoreq	sp, ip, r1, lsl #20
    1910:	11b30000 			; <UNDEFINED> instruction: 0x11b30000
    1914:	d7090000 	strle	r0, [r9, -r0]
    1918:	01000001 	tsteq	r0, r1
    191c:	00002ce8 	andeq	r2, r0, r8, ror #25
    1920:	00137f00 	andseq	r7, r3, r0, lsl #30
    1924:	8bcc0a00 	blhi	ff30412c <__bss_end__+0xff2fa304>
    1928:	08410000 	stmdaeq	r1, {}^	; <UNPREDICTABLE>
    192c:	03700000 	cmneq	r0, #0
    1930:	010b0000 	mrseq	r0, (UNDEF: 11)
    1934:	00760250 	rsbseq	r0, r6, r0, asr r2
    1938:	8bfc0c00 	blhi	fff04940 <__bss_end__+0xffefab18>
    193c:	08620000 	stmdaeq	r2!, {}^	; <UNPREDICTABLE>
    1940:	010b0000 	mrseq	r0, (UNDEF: 11)
    1944:	00760250 	rsbseq	r0, r6, r0, asr r2
    1948:	cf070000 	svcgt	0x00070000
    194c:	01000006 	tsteq	r0, r6
    1950:	008c08f1 	strdeq	r0, [ip], r1
    1954:	00003800 	andeq	r3, r0, r0, lsl #16
    1958:	d99c0100 	ldmible	ip, {r8}
    195c:	08000003 	stmdaeq	r0, {r0, r1}
    1960:	006e6970 	rsbeq	r6, lr, r0, ror r9
    1964:	002cf101 	eoreq	pc, ip, r1, lsl #2
    1968:	13b00000 	movsne	r0, #0
    196c:	04090000 	streq	r0, [r9], #-0
    1970:	01000002 	tsteq	r0, r2
    1974:	000133f7 	strdeq	r3, [r1], -r7
    1978:	0013d100 	andseq	sp, r3, r0, lsl #2
    197c:	01d70900 	bicseq	r0, r7, r0, lsl #18
    1980:	f8010000 			; <UNDEFINED> instruction: 0xf8010000
    1984:	0000002c 	andeq	r0, r0, ip, lsr #32
    1988:	00001407 	andeq	r1, r0, r7, lsl #8
    198c:	008c380c 	addeq	r3, ip, ip, lsl #16
    1990:	00086200 	andeq	r6, r8, r0, lsl #4
    1994:	51010b00 	tstpl	r1, r0, lsl #22
    1998:	01f33107 	mvnseq	r3, r7, lsl #2
    199c:	241a4f50 	ldrcs	r4, [sl], #-3920	; 0xf50
    19a0:	07130000 	ldreq	r0, [r3, -r0]
    19a4:	01000006 	tsteq	r0, r6
    19a8:	0064011f 	rsbeq	r0, r4, pc, lsl r1
    19ac:	8c400000 	marhi	acc0, r0, r0
    19b0:	002c0000 	eoreq	r0, ip, r0
    19b4:	9c010000 	stcls	0, cr0, [r1], {-0}
    19b8:	0000040d 	andeq	r0, r0, sp, lsl #8
    19bc:	00060a14 	andeq	r0, r6, r4, lsl sl
    19c0:	011f0100 	tsteq	pc, r0, lsl #2
    19c4:	0000002c 	andeq	r0, r0, ip, lsr #32
    19c8:	00001447 	andeq	r1, r0, r7, asr #8
    19cc:	008c5011 	addeq	r5, ip, r1, lsl r0
    19d0:	00084100 	andeq	r4, r8, r0, lsl #2
    19d4:	59150000 	ldmdbpl	r5, {}	; <UNPREDICTABLE>
    19d8:	01000006 	tsteq	r0, r6
    19dc:	8c6c012e 	stfhie	f0, [ip], #-184	; 0xffffff48
    19e0:	00840000 	addeq	r0, r4, r0
    19e4:	9c010000 	stcls	0, cr0, [r1], {-0}
    19e8:	000004d1 	ldrdeq	r0, [r0], -r1
    19ec:	6e697016 	mcrvs	0, 3, r7, cr9, cr6, {0}
    19f0:	012e0100 	teqeq	lr, r0, lsl #2
    19f4:	0000002c 	andeq	r0, r0, ip, lsr #32
    19f8:	00001468 	andeq	r1, r0, r8, ror #8
    19fc:	00063117 	andeq	r3, r6, r7, lsl r1
    1a00:	01400100 	mrseq	r0, (UNDEF: 80)
    1a04:	0000002c 	andeq	r0, r0, ip, lsr #32
    1a08:	00001494 	muleq	r0, r4, r4
    1a0c:	008c8818 	addeq	r8, ip, r8, lsl r8
    1a10:	00001c00 	andeq	r1, r0, r0, lsl #24
    1a14:	00047300 	andeq	r7, r4, r0, lsl #6
    1a18:	01d71700 	bicseq	r1, r7, r0, lsl #14
    1a1c:	37010000 	strcc	r0, [r1, -r0]
    1a20:	00002c01 	andeq	r2, r0, r1, lsl #24
    1a24:	0014b200 	andseq	fp, r4, r0, lsl #4
    1a28:	8c941100 	ldfhis	f1, [r4], {0}
    1a2c:	08410000 	stmdaeq	r1, {}^	; <UNPREDICTABLE>
    1a30:	a4110000 	ldrge	r0, [r1], #-0
    1a34:	6200008c 	andvs	r0, r0, #140	; 0x8c
    1a38:	00000008 	andeq	r0, r0, r8
    1a3c:	008ca818 	addeq	sl, ip, r8, lsl r8
    1a40:	00002000 	andeq	r2, r0, r0
    1a44:	0004a300 	andeq	sl, r4, r0, lsl #6
    1a48:	01d71700 	bicseq	r1, r7, r0, lsl #14
    1a4c:	3b010000 	blcc	41a54 <__bss_end__+0x37c2c>
    1a50:	00002c01 	andeq	r2, r0, r1, lsl #24
    1a54:	0014d000 	andseq	sp, r4, r0
    1a58:	8cb41100 	ldfhis	f1, [r4]
    1a5c:	08410000 	stmdaeq	r1, {}^	; <UNPREDICTABLE>
    1a60:	c8110000 	ldmdagt	r1, {}	; <UNPREDICTABLE>
    1a64:	6200008c 	andvs	r0, r0, #140	; 0x8c
    1a68:	00000008 	andeq	r0, r0, r8
    1a6c:	008c8011 	addeq	r8, ip, r1, lsl r0
    1a70:	00087e00 	andeq	r7, r8, r0, lsl #28
    1a74:	8ccc1100 	stfhie	f1, [ip], {0}
    1a78:	087e0000 	ldmdaeq	lr!, {}^	; <UNPREDICTABLE>
    1a7c:	d8110000 	ldmdale	r1, {}	; <UNPREDICTABLE>
    1a80:	4100008c 	smlabbmi	r0, ip, r0, r0
    1a84:	11000008 	tstne	r0, r8
    1a88:	00008ce4 	andeq	r8, r0, r4, ror #25
    1a8c:	00000862 	andeq	r0, r0, r2, ror #16
    1a90:	008ce811 	addeq	lr, ip, r1, lsl r8
    1a94:	00087e00 	andeq	r7, r8, r0, lsl #28
    1a98:	0e150000 	cdpeq	0, 1, cr0, cr5, cr0, {0}
    1a9c:	01000007 	tsteq	r0, r7
    1aa0:	8cf0014b 	ldfhie	f0, [r0], #300	; 0x12c
    1aa4:	00840000 	addeq	r0, r4, r0
    1aa8:	9c010000 	stcls	0, cr0, [r1], {-0}
    1aac:	00000595 	muleq	r0, r5, r5
    1ab0:	6e697016 	mcrvs	0, 3, r7, cr9, cr6, {0}
    1ab4:	014b0100 	mrseq	r0, (UNDEF: 91)
    1ab8:	0000002c 	andeq	r0, r0, ip, lsr #32
    1abc:	000014ee 	andeq	r1, r0, lr, ror #9
    1ac0:	00063117 	andeq	r3, r6, r7, lsl r1
    1ac4:	015c0100 	cmpeq	ip, r0, lsl #2
    1ac8:	0000002c 	andeq	r0, r0, ip, lsr #32
    1acc:	0000151a 	andeq	r1, r0, sl, lsl r5
    1ad0:	008d0c18 	addeq	r0, sp, r8, lsl ip
    1ad4:	00001c00 	andeq	r1, r0, r0, lsl #24
    1ad8:	00053700 	andeq	r3, r5, r0, lsl #14
    1adc:	01d71700 	bicseq	r1, r7, r0, lsl #14
    1ae0:	53010000 	movwpl	r0, #4096	; 0x1000
    1ae4:	00002c01 	andeq	r2, r0, r1, lsl #24
    1ae8:	00153800 	andseq	r3, r5, r0, lsl #16
    1aec:	8d181100 	ldfhis	f1, [r8, #-0]
    1af0:	08410000 	stmdaeq	r1, {}^	; <UNPREDICTABLE>
    1af4:	28110000 	ldmdacs	r1, {}	; <UNPREDICTABLE>
    1af8:	6200008d 	andvs	r0, r0, #141	; 0x8d
    1afc:	00000008 	andeq	r0, r0, r8
    1b00:	008d2c18 	addeq	r2, sp, r8, lsl ip
    1b04:	00002000 	andeq	r2, r0, r0
    1b08:	00056700 	andeq	r6, r5, r0, lsl #14
    1b0c:	01d71700 	bicseq	r1, r7, r0, lsl #14
    1b10:	57010000 	strpl	r0, [r1, -r0]
    1b14:	00002c01 	andeq	r2, r0, r1, lsl #24
    1b18:	00155600 	andseq	r5, r5, r0, lsl #12
    1b1c:	8d381100 	ldfhis	f1, [r8, #-0]
    1b20:	08410000 	stmdaeq	r1, {}^	; <UNPREDICTABLE>
    1b24:	4c110000 	ldcmi	0, cr0, [r1], {-0}
    1b28:	6200008d 	andvs	r0, r0, #141	; 0x8d
    1b2c:	00000008 	andeq	r0, r0, r8
    1b30:	008d0411 	addeq	r0, sp, r1, lsl r4
    1b34:	00087e00 	andeq	r7, r8, r0, lsl #28
    1b38:	8d501100 	ldfhie	f1, [r0, #-0]
    1b3c:	087e0000 	ldmdaeq	lr!, {}^	; <UNPREDICTABLE>
    1b40:	5c110000 	ldcpl	0, cr0, [r1], {-0}
    1b44:	4100008d 	smlabbmi	r0, sp, r0, r0
    1b48:	11000008 	tstne	r0, r8
    1b4c:	00008d68 	andeq	r8, r0, r8, ror #26
    1b50:	00000862 	andeq	r0, r0, r2, ror #16
    1b54:	008d6c11 	addeq	r6, sp, r1, lsl ip
    1b58:	00087e00 	andeq	r7, r8, r0, lsl #28
    1b5c:	e5130000 	ldr	r0, [r3, #-0]
    1b60:	01000005 	tsteq	r0, r5
    1b64:	00640166 	rsbeq	r0, r4, r6, ror #2
    1b68:	8d740000 	ldclhi	0, cr0, [r4, #-0]
    1b6c:	00840000 	addeq	r0, r4, r0
    1b70:	9c010000 	stcls	0, cr0, [r1], {-0}
    1b74:	0000063b 	andeq	r0, r0, fp, lsr r6
    1b78:	6e697016 	mcrvs	0, 3, r7, cr9, cr6, {0}
    1b7c:	01660100 	cmneq	r6, r0, lsl #2
    1b80:	0000002c 	andeq	r0, r0, ip, lsr #32
    1b84:	00001574 	andeq	r1, r0, r4, ror r5
    1b88:	008d9018 	addeq	r9, sp, r8, lsl r0
    1b8c:	00002400 	andeq	r2, r0, r0, lsl #8
    1b90:	0005ef00 	andeq	lr, r5, r0, lsl #30
    1b94:	063a1700 	ldrteq	r1, [sl], -r0, lsl #14
    1b98:	6d010000 	stcvs	0, cr0, [r1, #-0]
    1b9c:	00002c01 	andeq	r2, r0, r1, lsl #24
    1ba0:	0015b600 	andseq	fp, r5, r0, lsl #12
    1ba4:	8d9c1100 	ldfhis	f1, [ip]
    1ba8:	08410000 	stmdaeq	r1, {}^	; <UNPREDICTABLE>
    1bac:	ac110000 	ldcge	0, cr0, [r1], {-0}
    1bb0:	7e00008d 	cdpvc	0, 0, cr0, cr0, cr13, {4}
    1bb4:	00000008 	andeq	r0, r0, r8
    1bb8:	008db418 	addeq	fp, sp, r8, lsl r4
    1bbc:	00002c00 	andeq	r2, r0, r0, lsl #24
    1bc0:	00062800 	andeq	r2, r6, r0, lsl #16
    1bc4:	063a1700 	ldrteq	r1, [sl], -r0, lsl #14
    1bc8:	70010000 	andvc	r0, r1, r0
    1bcc:	00002c01 	andeq	r2, r0, r1, lsl #24
    1bd0:	0015d000 	andseq	sp, r5, r0
    1bd4:	8dc01100 	stfhie	f1, [r0]
    1bd8:	08410000 	stmdaeq	r1, {}^	; <UNPREDICTABLE>
    1bdc:	cc110000 	ldcgt	0, cr0, [r1], {-0}
    1be0:	7e00008d 	cdpvc	0, 0, cr0, cr0, cr13, {4}
    1be4:	11000008 	tstne	r0, r8
    1be8:	00008dd8 	ldrdeq	r8, [r0], -r8	; <UNPREDICTABLE>
    1bec:	0000087e 	andeq	r0, r0, lr, ror r8
    1bf0:	8d881100 	stfhis	f1, [r8]
    1bf4:	087e0000 	ldmdaeq	lr!, {}^	; <UNPREDICTABLE>
    1bf8:	e4110000 	ldr	r0, [r1], #-0
    1bfc:	7e00008d 	cdpvc	0, 0, cr0, cr0, cr13, {4}
    1c00:	00000008 	andeq	r0, r0, r8
    1c04:	00068e15 	andeq	r8, r6, r5, lsl lr
    1c08:	01790100 	cmneq	r9, r0, lsl #2
    1c0c:	00008df8 	strdeq	r8, [r0], -r8	; <UNPREDICTABLE>
    1c10:	00000058 	andeq	r0, r0, r8, asr r0
    1c14:	06a09c01 	strteq	r9, [r0], r1, lsl #24
    1c18:	70160000 	andsvc	r0, r6, r0
    1c1c:	01006e69 	tsteq	r0, r9, ror #28
    1c20:	002c0179 	eoreq	r0, ip, r9, ror r1
    1c24:	15e30000 	strbne	r0, [r3, #0]!
    1c28:	0c110000 	ldceq	0, cr0, [r1], {-0}
    1c2c:	7e00008e 	cdpvc	0, 0, cr0, cr0, cr14, {4}
    1c30:	0a000008 	beq	1c58 <_start-0x63a8>
    1c34:	00008e28 	andeq	r8, r0, r8, lsr #28
    1c38:	00000862 	andeq	r0, r0, r2, ror #16
    1c3c:	00000680 	andeq	r0, r0, r0, lsl #13
    1c40:	0451010b 	ldrbeq	r0, [r1], #-267	; 0x10b
    1c44:	24007431 	strcs	r7, [r0], #-1073	; 0x431
    1c48:	8e440a00 	vmlahi.f32	s1, s8, s0
    1c4c:	08620000 	stmdaeq	r2!, {}^	; <UNPREDICTABLE>
    1c50:	06960000 	ldreq	r0, [r6], r0
    1c54:	010b0000 	mrseq	r0, (UNDEF: 11)
    1c58:	74310451 	ldrtvc	r0, [r1], #-1105	; 0x451
    1c5c:	11002400 	tstne	r0, r0, lsl #8
    1c60:	00008e48 	andeq	r8, r0, r8, asr #28
    1c64:	0000087e 	andeq	r0, r0, lr, ror r8
    1c68:	00201900 	eoreq	r1, r0, r0, lsl #18
    1c6c:	28010000 	stmdacs	r1, {}	; <UNPREDICTABLE>
    1c70:	00000133 	andeq	r0, r0, r3, lsr r1
    1c74:	977c0305 	ldrbls	r0, [ip, -r5, lsl #6]!
    1c78:	0a190000 	beq	641c80 <__bss_end__+0x637e58>
    1c7c:	01000000 	mrseq	r0, (UNDEF: 0)
    1c80:	00013329 	andeq	r3, r1, r9, lsr #6
    1c84:	78030500 	stmdavc	r3, {r8, sl}
    1c88:	19000097 	stmdbne	r0, {r0, r1, r2, r4, r7}
    1c8c:	00000000 	andeq	r0, r0, r0
    1c90:	01332a01 	teqeq	r3, r1, lsl #20
    1c94:	03050000 	movweq	r0, #20480	; 0x5000
    1c98:	00009774 	andeq	r9, r0, r4, ror r7
    1c9c:	00020d19 	andeq	r0, r2, r9, lsl sp
    1ca0:	332c0100 	teqcc	ip, #0, 2
    1ca4:	05000001 	streq	r0, [r0, #-1]
    1ca8:	00972003 	addseq	r2, r7, r3
    1cac:	01231900 	teqeq	r3, r0, lsl #18
    1cb0:	2d010000 	stccs	0, cr0, [r1, #-0]
    1cb4:	00000133 	andeq	r0, r0, r3, lsr r1
    1cb8:	97240305 	strls	r0, [r4, -r5, lsl #6]!
    1cbc:	1c190000 	ldcne	0, cr0, [r9], {-0}
    1cc0:	01000002 	tsteq	r0, r2
    1cc4:	0001332e 	andeq	r3, r1, lr, lsr #6
    1cc8:	28030500 	stmdacs	r3, {r8, sl}
    1ccc:	19000097 	stmdbne	r0, {r0, r1, r2, r4, r7}
    1cd0:	00000224 	andeq	r0, r0, r4, lsr #4
    1cd4:	01332f01 	teqeq	r3, r1, lsl #30
    1cd8:	03050000 	movweq	r0, #20480	; 0x5000
    1cdc:	0000972c 	andeq	r9, r0, ip, lsr #14
    1ce0:	00022c19 	andeq	r2, r2, r9, lsl ip
    1ce4:	33300100 	teqcc	r0, #0, 2
    1ce8:	05000001 	streq	r0, [r0, #-1]
    1cec:	00973003 	addseq	r3, r7, r3
    1cf0:	02341900 	eorseq	r1, r4, #0, 18
    1cf4:	31010000 	mrscc	r0, (UNDEF: 1)
    1cf8:	00000133 	andeq	r0, r0, r3, lsr r1
    1cfc:	97340305 	ldrls	r0, [r4, -r5, lsl #6]!
    1d00:	05190000 	ldreq	r0, [r9, #-0]
    1d04:	01000001 	tsteq	r0, r1
    1d08:	00013333 	andeq	r3, r1, r3, lsr r3
    1d0c:	38030500 	stmdacc	r3, {r8, sl}
    1d10:	19000097 	stmdbne	r0, {r0, r1, r2, r4, r7}
    1d14:	0000010c 	andeq	r0, r0, ip, lsl #2
    1d18:	01333401 	teqeq	r3, r1, lsl #8
    1d1c:	03050000 	movweq	r0, #20480	; 0x5000
    1d20:	0000973c 	andeq	r9, r0, ip, lsr r7
    1d24:	0000e519 	andeq	lr, r0, r9, lsl r5
    1d28:	33360100 	teqcc	r6, #0, 2
    1d2c:	05000001 	streq	r0, [r0, #-1]
    1d30:	00974003 	addseq	r4, r7, r3
    1d34:	003f1900 	eorseq	r1, pc, r0, lsl #18
    1d38:	37010000 	strcc	r0, [r1, -r0]
    1d3c:	00000133 	andeq	r0, r0, r3, lsr r1
    1d40:	97440305 	strbls	r0, [r4, -r5, lsl #6]
    1d44:	15190000 	ldrne	r0, [r9, #-0]
    1d48:	01000002 	tsteq	r0, r2
    1d4c:	00013339 	andeq	r3, r1, r9, lsr r3
    1d50:	48030500 	stmdami	r3, {r8, sl}
    1d54:	19000097 	stmdbne	r0, {r0, r1, r2, r4, r7}
    1d58:	000000b2 	strheq	r0, [r0], -r2
    1d5c:	01333a01 	teqeq	r3, r1, lsl #20
    1d60:	03050000 	movweq	r0, #20480	; 0x5000
    1d64:	0000974c 	andeq	r9, r0, ip, asr #14
    1d68:	00069f1a 	andeq	r9, r6, sl, lsl pc
    1d6c:	010a0100 	mrseq	r0, (UNDEF: 26)
    1d70:	00000133 	andeq	r0, r0, r3, lsr r1
    1d74:	97700305 	ldrbls	r0, [r0, -r5, lsl #6]!
    1d78:	ad1a0000 	ldcge	0, cr0, [sl, #-0]
    1d7c:	01000006 	tsteq	r0, r6
    1d80:	0133010b 	teqeq	r3, fp, lsl #2
    1d84:	03050000 	movweq	r0, #20480	; 0x5000
    1d88:	00009750 	andeq	r9, r0, r0, asr r7
    1d8c:	0006db1a 	andeq	sp, r6, sl, lsl fp
    1d90:	010d0100 	mrseq	r0, (UNDEF: 29)
    1d94:	00000133 	andeq	r0, r0, r3, lsr r1
    1d98:	97680305 	strbls	r0, [r8, -r5, lsl #6]!
    1d9c:	e21a0000 	ands	r0, sl, #0
    1da0:	01000006 	tsteq	r0, r6
    1da4:	0133010e 	teqeq	r3, lr, lsl #2
    1da8:	03050000 	movweq	r0, #20480	; 0x5000
    1dac:	0000976c 	andeq	r9, r0, ip, ror #14
    1db0:	0006801a 	andeq	r8, r6, sl, lsl r0
    1db4:	01100100 	tsteq	r0, r0, lsl #2
    1db8:	00000133 	andeq	r0, r0, r3, lsr r1
    1dbc:	97540305 	ldrbls	r0, [r4, -r5, lsl #6]
    1dc0:	871a0000 	ldrhi	r0, [sl, -r0]
    1dc4:	01000006 	tsteq	r0, r6
    1dc8:	01330111 	teqeq	r3, r1, lsl r1
    1dcc:	03050000 	movweq	r0, #20480	; 0x5000
    1dd0:	00009758 	andeq	r9, r0, r8, asr r7
    1dd4:	0006e91a 	andeq	lr, r6, sl, lsl r9
    1dd8:	01130100 	tsteq	r3, r0, lsl #2
    1ddc:	00000133 	andeq	r0, r0, r3, lsr r1
    1de0:	97600305 	strbls	r0, [r0, -r5, lsl #6]!
    1de4:	f01a0000 			; <UNDEFINED> instruction: 0xf01a0000
    1de8:	01000006 	tsteq	r0, r6
    1dec:	01330114 	teqeq	r3, r4, lsl r1
    1df0:	03050000 	movweq	r0, #20480	; 0x5000
    1df4:	00009764 	andeq	r9, r0, r4, ror #14
    1df8:	0005f91a 	andeq	pc, r5, sl, lsl r9	; <UNPREDICTABLE>
    1dfc:	01160100 	tsteq	r6, r0, lsl #2
    1e00:	00000133 	andeq	r0, r0, r3, lsr r1
    1e04:	975c0305 	ldrbls	r0, [ip, -r5, lsl #6]
    1e08:	081b0000 	ldmdaeq	fp, {}	; <UNPREDICTABLE>
    1e0c:	01000007 	tsteq	r0, r7
    1e10:	00002c20 	andeq	r2, r0, r0, lsr #24
    1e14:	00085600 	andeq	r5, r8, r0, lsl #12
    1e18:	08561c00 	ldmdaeq	r6, {sl, fp, ip}^
    1e1c:	0d000000 	stceq	0, cr0, [r0, #-0]
    1e20:	00085c04 	andeq	r5, r8, r4, lsl #24
    1e24:	08611d00 	stmdaeq	r1!, {r8, sl, fp, ip}^
    1e28:	1f1e0000 	svcne	0x001e0000
    1e2c:	000000ff 	strdeq	r0, [r0], -pc	; <UNPREDICTABLE>
    1e30:	08781e01 	ldmdaeq	r8!, {r0, r9, sl, fp, ip}^
    1e34:	781c0000 	ldmdavc	ip, {}	; <UNPREDICTABLE>
    1e38:	1c000008 	stcne	0, cr0, [r0], {8}
    1e3c:	0000002c 	andeq	r0, r0, ip, lsr #32
    1e40:	61040d00 	tstvs	r4, r0, lsl #26
    1e44:	20000008 	andcs	r0, r0, r8
    1e48:	00000643 	andeq	r0, r0, r3, asr #12
    1e4c:	f2008a03 	vpmax.s8	d8, d0, d3
    1e50:	04000011 	streq	r0, [r0], #-17
    1e54:	000c0400 	andeq	r0, ip, r0, lsl #8
    1e58:	59010400 	stmdbpl	r1, {sl}
    1e5c:	01000002 	tsteq	r0, r2
    1e60:	0000082a 	andeq	r0, r0, sl, lsr #16
    1e64:	000002c4 	andeq	r0, r0, r4, asr #5
    1e68:	00008e50 	andeq	r8, r0, r0, asr lr
    1e6c:	00000668 	andeq	r0, r0, r8, ror #12
    1e70:	0000096a 	andeq	r0, r0, sl, ror #18
    1e74:	69050402 	stmdbvs	r5, {r1, sl}
    1e78:	0300746e 	movweq	r7, #1134	; 0x46e
    1e7c:	01350704 	teqeq	r5, r4, lsl #14
    1e80:	01030000 	mrseq	r0, (UNDEF: 3)
    1e84:	0000cc06 	andeq	ip, r0, r6, lsl #24
    1e88:	05020300 	streq	r0, [r2, #-768]	; 0x300
    1e8c:	000001df 	ldrdeq	r0, [r0], -pc	; <UNPREDICTABLE>
    1e90:	60050403 	andvs	r0, r5, r3, lsl #8
    1e94:	03000001 	movweq	r0, #1
    1e98:	015b0508 	cmpeq	fp, r8, lsl #10
    1e9c:	ad040000 	stcge	0, cr0, [r4, #-0]
    1ea0:	03000004 	movweq	r0, #4
    1ea4:	00005a2e 	andeq	r5, r0, lr, lsr #20
    1ea8:	08010300 	stmdaeq	r1, {r8, r9}
    1eac:	000000ca 	andeq	r0, r0, sl, asr #1
    1eb0:	ec070203 	sfm	f0, 4, [r7], {3}
    1eb4:	04000000 	streq	r0, [r0], #-0
    1eb8:	00000504 	andeq	r0, r0, r4, lsl #10
    1ebc:	00733403 	rsbseq	r3, r3, r3, lsl #8
    1ec0:	04030000 	streq	r0, [r3], #-0
    1ec4:	00013007 	andeq	r3, r1, r7
    1ec8:	07080300 	streq	r0, [r8, -r0, lsl #6]
    1ecc:	0000012b 	andeq	r0, r0, fp, lsr #2
    1ed0:	52070403 	andpl	r0, r7, #50331648	; 0x3000000
    1ed4:	05000001 	streq	r0, [r0, #-1]
    1ed8:	90040604 	andls	r0, r4, r4, lsl #12
    1edc:	03000000 	movweq	r0, #0
    1ee0:	00d30801 	sbcseq	r0, r3, r1, lsl #16
    1ee4:	04060000 	streq	r0, [r6], #-0
    1ee8:	0000009d 	muleq	r0, sp, r0
    1eec:	00009007 	andeq	r9, r0, r7
    1ef0:	040c0800 	streq	r0, [ip], #-2048	; 0x800
    1ef4:	0000d90e 	andeq	sp, r0, lr, lsl #18
    1ef8:	78740900 	ldmdavc	r4!, {r8, fp}^
    1efc:	4f0f0400 	svcmi	0x000f0400
    1f00:	00000000 	andeq	r0, r0, r0
    1f04:	00787209 	rsbseq	r7, r8, r9, lsl #4
    1f08:	004f0f04 	subeq	r0, pc, r4, lsl #30
    1f0c:	0a010000 	beq	41f14 <__bss_end__+0x380ec>
    1f10:	0000047b 	andeq	r0, r0, fp, ror r4
    1f14:	00681004 	rsbeq	r1, r8, r4
    1f18:	0a040000 	beq	101f20 <__bss_end__+0xf80f8>
    1f1c:	0000042c 	andeq	r0, r0, ip, lsr #8
    1f20:	00681104 	rsbeq	r1, r8, r4, lsl #2
    1f24:	00080000 	andeq	r0, r8, r0
    1f28:	00046404 	andeq	r6, r4, r4, lsl #8
    1f2c:	a2120400 	andsge	r0, r2, #0, 8
    1f30:	04000000 	streq	r0, [r0], #-0
    1f34:	0000023c 	andeq	r0, r0, ip, lsr r2
    1f38:	00ef2805 	rsceq	r2, pc, r5, lsl #16
    1f3c:	ba0b0000 	blt	2c1f44 <__bss_end__+0x2b811c>
    1f40:	04000002 	streq	r0, [r0], #-2
    1f44:	01060009 	tsteq	r6, r9
    1f48:	0d0c0000 	stceq	0, cr0, [ip, #-0]
    1f4c:	88000003 	stmdahi	r0, {r0, r1}
    1f50:	00000000 	andeq	r0, r0, r0
    1f54:	02bc0400 	adcseq	r0, ip, #0, 8
    1f58:	62050000 	andvs	r0, r5, #0
    1f5c:	000000e4 	andeq	r0, r0, r4, ror #1
    1f60:	0007ee0d 	andeq	lr, r7, sp, lsl #28
    1f64:	03090200 	movweq	r0, #37376	; 0x9200
    1f68:	0000013f 	andeq	r0, r0, pc, lsr r1
    1f6c:	00048f0e 	andeq	r8, r4, lr, lsl #30
    1f70:	2c090200 	sfmcs	f0, 4, [r9], {-0}
    1f74:	0f000000 	svceq	0x00000000
    1f78:	0902006e 	stmdbeq	r2, {r1, r2, r3, r5, r6}
    1f7c:	0000002c 	andeq	r0, r0, ip, lsr #32
    1f80:	017b1110 	cmneq	fp, r0, lsl r1
    1f84:	0c020000 	stceq	0, cr0, [r2], {-0}
    1f88:	0000002c 	andeq	r0, r0, ip, lsr #32
    1f8c:	a10d0000 	mrsge	r0, (UNDEF: 13)
    1f90:	02000007 	andeq	r0, r0, #7
    1f94:	01760317 	cmneq	r6, r7, lsl r3
    1f98:	700f0000 	andvc	r0, pc, r0
    1f9c:	02006e69 	andeq	r6, r0, #1680	; 0x690
    1fa0:	00002c17 	andeq	r2, r0, r7, lsl ip
    1fa4:	00760f00 	rsbseq	r0, r6, r0, lsl #30
    1fa8:	002c1702 	eoreq	r1, ip, r2, lsl #14
    1fac:	8f0e0000 	svchi	0x000e0000
    1fb0:	02000004 	andeq	r0, r0, #4
    1fb4:	00002c17 	andeq	r2, r0, r7, lsl ip
    1fb8:	07f40e00 	ldrbeq	r0, [r4, r0, lsl #28]!
    1fbc:	17020000 	strne	r0, [r2, -r0]
    1fc0:	0000002c 	andeq	r0, r0, ip, lsr #32
    1fc4:	04a01200 	strteq	r1, [r0], #512	; 0x200
    1fc8:	09010000 	stmdbeq	r1, {}	; <UNPREDICTABLE>
    1fcc:	00008e50 	andeq	r8, r0, r0, asr lr
    1fd0:	00000154 	andeq	r0, r0, r4, asr r1
    1fd4:	07229c01 	streq	r9, [r2, -r1, lsl #24]!
    1fd8:	42130000 	andsmi	r0, r3, #0
    1fdc:	01000004 	tsteq	r0, r4
    1fe0:	00072209 	andeq	r2, r7, r9, lsl #4
    1fe4:	00160f00 	andseq	r0, r6, r0, lsl #30
    1fe8:	00631400 	rsbeq	r1, r3, r0, lsl #8
    1fec:	005a0901 	subseq	r0, sl, r1, lsl #18
    1ff0:	16300000 	ldrtne	r0, [r0], -r0
    1ff4:	74150000 	ldrvc	r0, [r5], #-0
    1ff8:	0b010078 	bleq	421e0 <__bss_end__+0x383b8>
    1ffc:	00000025 	andeq	r0, r0, r5, lsr #32
    2000:	08007606 	stmdaeq	r0, {r1, r2, r9, sl, ip, sp, lr}
    2004:	169f1aff 			; <UNDEFINED> instruction: 0x169f1aff
    2008:	0c01006e 	stceq	0, cr0, [r1], {110}	; 0x6e
    200c:	00000068 	andeq	r0, r0, r8, rrx
    2010:	00001651 	andeq	r1, r0, r1, asr r6
    2014:	01007516 	tsteq	r0, r6, lsl r5
    2018:	0000680d 	andeq	r6, r0, sp, lsl #16
    201c:	00166400 	andseq	r6, r6, r0, lsl #8
    2020:	00731500 	rsbseq	r1, r3, r0, lsl #10
    2024:	00680e01 	rsbeq	r0, r8, r1, lsl #28
    2028:	54010000 	strpl	r0, [r1], #-0
    202c:	008e6017 	addeq	r6, lr, r7, lsl r0
    2030:	00000400 	andeq	r0, r0, r0, lsl #8
    2034:	0001f800 	andeq	pc, r1, r0, lsl #16
    2038:	017b1800 	cmneq	fp, r0, lsl #16
    203c:	0e010000 	cdpeq	0, 0, cr0, cr1, cr0, {0}
    2040:	0000002c 	andeq	r0, r0, ip, lsr #32
    2044:	19005401 	stmdbne	r0, {r0, sl, ip, lr}
    2048:	0000013f 	andeq	r0, r0, pc, lsr r1
    204c:	00008e64 	andeq	r8, r0, r4, ror #28
    2050:	0000001c 	andeq	r0, r0, ip, lsl r0
    2054:	02751101 	rsbseq	r1, r5, #1073741824	; 0x40000000
    2058:	6a1a0000 	bvs	682060 <__bss_end__+0x678238>
    205c:	8d000001 	stchi	0, cr0, [r0, #-4]
    2060:	1b000016 	blne	20c0 <_start-0x5f40>
    2064:	0000015f 	andeq	r0, r0, pc, asr r1
    2068:	561c5401 	ldrpl	r5, [ip], -r1, lsl #8
    206c:	00000001 	andeq	r0, r0, r1
    2070:	00014b1b 	andeq	r4, r1, fp, lsl fp
    2074:	19560100 	ldmdbne	r6, {r8}^
    2078:	00000111 	andeq	r0, r0, r1, lsl r1
    207c:	00008e70 	andeq	r8, r0, r0, ror lr
    2080:	00000010 	andeq	r0, r0, r0, lsl r0
    2084:	025f1a02 	subseq	r1, pc, #8192	; 0x2000
    2088:	281a0000 	ldmdacs	sl, {}	; <UNPREDICTABLE>
    208c:	a0000001 	andge	r0, r0, r1
    2090:	1b000016 	blne	20f0 <_start-0x5f10>
    2094:	0000011d 	andeq	r0, r0, sp, lsl r1
    2098:	701d5401 	andsvc	r5, sp, r1, lsl #8
    209c:	0400008e 	streq	r0, [r0], #-142	; 0x8e
    20a0:	1e000000 	cdpne	0, 0, cr0, cr0, cr0, {0}
    20a4:	00000132 	andeq	r0, r0, r2, lsr r1
    20a8:	000016b3 			; <UNDEFINED> instruction: 0x000016b3
    20ac:	701f0000 	andsvc	r0, pc, r0
    20b0:	5900008e 	stmdbpl	r0, {r1, r2, r3, r7}
    20b4:	20000011 	andcs	r0, r0, r1, lsl r0
    20b8:	30015101 	andcc	r5, r1, r1, lsl #2
    20bc:	02500120 	subseq	r0, r0, #32, 2
    20c0:	00000076 	andeq	r0, r0, r6, ror r0
    20c4:	00013f19 	andeq	r3, r1, r9, lsl pc
    20c8:	008e8400 	addeq	r8, lr, r0, lsl #8
    20cc:	00001c00 	andeq	r1, r0, r0, lsl #24
    20d0:	f8130100 			; <UNDEFINED> instruction: 0xf8130100
    20d4:	1a000002 	bne	20e4 <_start-0x5f1c>
    20d8:	0000016a 	andeq	r0, r0, sl, ror #2
    20dc:	000016c6 	andeq	r1, r0, r6, asr #13
    20e0:	00015f1b 	andeq	r5, r1, fp, lsl pc
    20e4:	1a540100 	bne	15024ec <__bss_end__+0x14f86c4>
    20e8:	00000156 	andeq	r0, r0, r6, asr r1
    20ec:	000016e8 	andeq	r1, r0, r8, ror #13
    20f0:	00014b1b 	andeq	r4, r1, fp, lsl fp
    20f4:	19560100 	ldmdbne	r6, {r8}^
    20f8:	00000111 	andeq	r0, r0, r1, lsl r1
    20fc:	00008e90 	muleq	r0, r0, lr
    2100:	00000010 	andeq	r0, r0, r0, lsl r0
    2104:	02df1a02 	sbcseq	r1, pc, #8192	; 0x2000
    2108:	281a0000 	ldmdacs	sl, {}	; <UNPREDICTABLE>
    210c:	19000001 	stmdbne	r0, {r0}
    2110:	1b000017 	blne	2174 <_start-0x5e8c>
    2114:	0000011d 	andeq	r0, r0, sp, lsl r1
    2118:	901d5401 	andsls	r5, sp, r1, lsl #8
    211c:	0400008e 	streq	r0, [r0], #-142	; 0x8e
    2120:	1e000000 	cdpne	0, 0, cr0, cr0, cr0, {0}
    2124:	00000132 	andeq	r0, r0, r2, lsr r1
    2128:	0000173b 	andeq	r1, r0, fp, lsr r7
    212c:	901f0000 	andsls	r0, pc, r0
    2130:	5900008e 	stmdbpl	r0, {r1, r2, r3, r7}
    2134:	20000011 	andcs	r0, r0, r1, lsl r0
    2138:	77045101 	strvc	r5, [r4, -r1, lsl #2]
    213c:	201a3100 	andscs	r3, sl, r0, lsl #2
    2140:	76025001 	strvc	r5, [r2], -r1
    2144:	19000000 	stmdbne	r0, {}	; <UNPREDICTABLE>
    2148:	0000013f 	andeq	r0, r0, pc, lsr r1
    214c:	00008ea4 	andeq	r8, r0, r4, lsr #29
    2150:	0000001c 	andeq	r0, r0, ip, lsl r0
    2154:	03801501 	orreq	r1, r0, #4194304	; 0x400000
    2158:	6a1a0000 	bvs	682160 <__bss_end__+0x678338>
    215c:	4e000001 	cdpmi	0, 0, cr0, cr0, cr1, {0}
    2160:	1b000017 	blne	21c4 <_start-0x5e3c>
    2164:	0000015f 	andeq	r0, r0, pc, asr r1
    2168:	561b5401 	ldrpl	r5, [fp], -r1, lsl #8
    216c:	08000001 	stmdaeq	r0, {r0}
    2170:	1a320077 	bne	c82354 <__bss_end__+0xc7852c>
    2174:	9f1aff08 	svcls	0x001aff08
    2178:	00014b1b 	andeq	r4, r1, fp, lsl fp
    217c:	19560100 	ldmdbne	r6, {r8}^
    2180:	00000111 	andeq	r0, r0, r1, lsl r1
    2184:	00008eb0 			; <UNDEFINED> instruction: 0x00008eb0
    2188:	00000010 	andeq	r0, r0, r0, lsl r0
    218c:	03671a02 	cmneq	r7, #8192	; 0x2000
    2190:	281a0000 	ldmdacs	sl, {}	; <UNPREDICTABLE>
    2194:	73000001 	movwvc	r0, #1
    2198:	1b000017 	blne	21fc <_start-0x5e04>
    219c:	0000011d 	andeq	r0, r0, sp, lsl r1
    21a0:	b01d5401 	andslt	r5, sp, r1, lsl #8
    21a4:	0400008e 	streq	r0, [r0], #-142	; 0x8e
    21a8:	1e000000 	cdpne	0, 0, cr0, cr0, cr0, {0}
    21ac:	00000132 	andeq	r0, r0, r2, lsr r1
    21b0:	00001798 	muleq	r0, r8, r7
    21b4:	b01f0000 	andslt	r0, pc, r0
    21b8:	5900008e 	stmdbpl	r0, {r1, r2, r3, r7}
    21bc:	20000011 	andcs	r0, r0, r1, lsl r0
    21c0:	77045101 	strvc	r5, [r4, -r1, lsl #2]
    21c4:	201a3200 	andscs	r3, sl, r0, lsl #4
    21c8:	76025001 	strvc	r5, [r2], -r1
    21cc:	19000000 	stmdbne	r0, {}	; <UNPREDICTABLE>
    21d0:	0000013f 	andeq	r0, r0, pc, lsr r1
    21d4:	00008ec4 	andeq	r8, r0, r4, asr #29
    21d8:	0000001c 	andeq	r0, r0, ip, lsl r0
    21dc:	04081701 	streq	r1, [r8], #-1793	; 0x701
    21e0:	6a1a0000 	bvs	6821e8 <__bss_end__+0x6783c0>
    21e4:	ab000001 	blge	21f0 <_start-0x5e10>
    21e8:	1b000017 	blne	224c <_start-0x5db4>
    21ec:	0000015f 	andeq	r0, r0, pc, asr r1
    21f0:	561b5401 	ldrpl	r5, [fp], -r1, lsl #8
    21f4:	08000001 	stmdaeq	r0, {r0}
    21f8:	1a340077 	bne	d023dc <__bss_end__+0xcf85b4>
    21fc:	9f1aff08 	svcls	0x001aff08
    2200:	00014b1b 	andeq	r4, r1, fp, lsl fp
    2204:	19560100 	ldmdbne	r6, {r8}^
    2208:	00000111 	andeq	r0, r0, r1, lsl r1
    220c:	00008ed0 	ldrdeq	r8, [r0], -r0
    2210:	00000010 	andeq	r0, r0, r0, lsl r0
    2214:	03ef1a02 	mvneq	r1, #8192	; 0x2000
    2218:	281a0000 	ldmdacs	sl, {}	; <UNPREDICTABLE>
    221c:	cd000001 	stcgt	0, cr0, [r0, #-4]
    2220:	1b000017 	blne	2284 <_start-0x5d7c>
    2224:	0000011d 	andeq	r0, r0, sp, lsl r1
    2228:	d01d5401 	andsle	r5, sp, r1, lsl #8
    222c:	0400008e 	streq	r0, [r0], #-142	; 0x8e
    2230:	1e000000 	cdpne	0, 0, cr0, cr0, cr0, {0}
    2234:	00000132 	andeq	r0, r0, r2, lsr r1
    2238:	000017ef 	andeq	r1, r0, pc, ror #15
    223c:	d01f0000 	andsle	r0, pc, r0
    2240:	5900008e 	stmdbpl	r0, {r1, r2, r3, r7}
    2244:	20000011 	andcs	r0, r0, r1, lsl r0
    2248:	77045101 	strvc	r5, [r4, -r1, lsl #2]
    224c:	201a3400 	andscs	r3, sl, r0, lsl #8
    2250:	76025001 	strvc	r5, [r2], -r1
    2254:	19000000 	stmdbne	r0, {}	; <UNPREDICTABLE>
    2258:	0000013f 	andeq	r0, r0, pc, lsr r1
    225c:	00008ee4 	andeq	r8, r0, r4, ror #29
    2260:	0000001c 	andeq	r0, r0, ip, lsl r0
    2264:	04901901 	ldreq	r1, [r0], #2305	; 0x901
    2268:	6a1a0000 	bvs	682270 <__bss_end__+0x678448>
    226c:	02000001 	andeq	r0, r0, #1
    2270:	1b000018 	blne	22d8 <_start-0x5d28>
    2274:	0000015f 	andeq	r0, r0, pc, asr r1
    2278:	561b5401 	ldrpl	r5, [fp], -r1, lsl #8
    227c:	08000001 	stmdaeq	r0, {r0}
    2280:	1a380077 	bne	e02464 <__bss_end__+0xdf863c>
    2284:	9f1aff08 	svcls	0x001aff08
    2288:	00014b1b 	andeq	r4, r1, fp, lsl fp
    228c:	19560100 	ldmdbne	r6, {r8}^
    2290:	00000111 	andeq	r0, r0, r1, lsl r1
    2294:	00008ef0 	strdeq	r8, [r0], -r0
    2298:	00000010 	andeq	r0, r0, r0, lsl r0
    229c:	04771a02 	ldrbteq	r1, [r7], #-2562	; 0xa02
    22a0:	281a0000 	ldmdacs	sl, {}	; <UNPREDICTABLE>
    22a4:	27000001 	strcs	r0, [r0, -r1]
    22a8:	1b000018 	blne	2310 <_start-0x5cf0>
    22ac:	0000011d 	andeq	r0, r0, sp, lsl r1
    22b0:	f01d5401 			; <UNDEFINED> instruction: 0xf01d5401
    22b4:	0400008e 	streq	r0, [r0], #-142	; 0x8e
    22b8:	1e000000 	cdpne	0, 0, cr0, cr0, cr0, {0}
    22bc:	00000132 	andeq	r0, r0, r2, lsr r1
    22c0:	0000184c 	andeq	r1, r0, ip, asr #16
    22c4:	f01f0000 			; <UNDEFINED> instruction: 0xf01f0000
    22c8:	5900008e 	stmdbpl	r0, {r1, r2, r3, r7}
    22cc:	20000011 	andcs	r0, r0, r1, lsl r0
    22d0:	77045101 	strvc	r5, [r4, -r1, lsl #2]
    22d4:	201a3800 	andscs	r3, sl, r0, lsl #16
    22d8:	76025001 	strvc	r5, [r2], -r1
    22dc:	19000000 	stmdbne	r0, {}	; <UNPREDICTABLE>
    22e0:	0000013f 	andeq	r0, r0, pc, lsr r1
    22e4:	00008f04 	andeq	r8, r0, r4, lsl #30
    22e8:	0000001c 	andeq	r0, r0, ip, lsl r0
    22ec:	05181b01 	ldreq	r1, [r8, #-2817]	; 0xb01
    22f0:	6a1a0000 	bvs	6822f8 <__bss_end__+0x6784d0>
    22f4:	5f000001 	svcpl	0x00000001
    22f8:	1b000018 	blne	2360 <_start-0x5ca0>
    22fc:	0000015f 	andeq	r0, r0, pc, asr r1
    2300:	561b5401 	ldrpl	r5, [fp], -r1, lsl #8
    2304:	08000001 	stmdaeq	r0, {r0}
    2308:	1a400077 	bne	10024ec <__bss_end__+0xff86c4>
    230c:	9f1aff08 	svcls	0x001aff08
    2310:	00014b1b 	andeq	r4, r1, fp, lsl fp
    2314:	19560100 	ldmdbne	r6, {r8}^
    2318:	00000111 	andeq	r0, r0, r1, lsl r1
    231c:	00008f10 	andeq	r8, r0, r0, lsl pc
    2320:	00000010 	andeq	r0, r0, r0, lsl r0
    2324:	04ff1a02 	ldrbteq	r1, [pc], #2562	; 232c <_start-0x5cd4>
    2328:	281a0000 	ldmdacs	sl, {}	; <UNPREDICTABLE>
    232c:	86000001 	strhi	r0, [r0], -r1
    2330:	1b000018 	blne	2398 <_start-0x5c68>
    2334:	0000011d 	andeq	r0, r0, sp, lsl r1
    2338:	101d5401 	andsne	r5, sp, r1, lsl #8
    233c:	0400008f 	streq	r0, [r0], #-143	; 0x8f
    2340:	1e000000 	cdpne	0, 0, cr0, cr0, cr0, {0}
    2344:	00000132 	andeq	r0, r0, r2, lsr r1
    2348:	000018ad 	andeq	r1, r0, sp, lsr #17
    234c:	101f0000 	andsne	r0, pc, r0
    2350:	5900008f 	stmdbpl	r0, {r0, r1, r2, r3, r7}
    2354:	20000011 	andcs	r0, r0, r1, lsl r0
    2358:	77045101 	strvc	r5, [r4, -r1, lsl #2]
    235c:	201a4000 	andscs	r4, sl, r0
    2360:	76025001 	strvc	r5, [r2], -r1
    2364:	19000000 	stmdbne	r0, {}	; <UNPREDICTABLE>
    2368:	0000013f 	andeq	r0, r0, pc, lsr r1
    236c:	00008f24 	andeq	r8, r0, r4, lsr #30
    2370:	0000001c 	andeq	r0, r0, ip, lsl r0
    2374:	05a21d01 	streq	r1, [r2, #3329]!	; 0xd01
    2378:	6a1a0000 	bvs	682380 <__bss_end__+0x678558>
    237c:	c0000001 	andgt	r0, r0, r1
    2380:	1b000018 	blne	23e8 <_start-0x5c18>
    2384:	0000015f 	andeq	r0, r0, pc, asr r1
    2388:	561b5401 	ldrpl	r5, [fp], -r1, lsl #8
    238c:	09000001 	stmdbeq	r0, {r0}
    2390:	20080077 	andcs	r0, r8, r7, ror r0
    2394:	1aff081a 	bne	fffc4404 <__bss_end__+0xfffba5dc>
    2398:	014b1b9f 			; <UNDEFINED> instruction: 0x014b1b9f
    239c:	56010000 	strpl	r0, [r1], -r0
    23a0:	00011119 	andeq	r1, r1, r9, lsl r1
    23a4:	008f3000 	addeq	r3, pc, r0
    23a8:	00001000 	andeq	r1, r0, r0
    23ac:	881a0200 	ldmdahi	sl, {r9}
    23b0:	1a000005 	bne	23cc <_start-0x5c34>
    23b4:	00000128 	andeq	r0, r0, r8, lsr #2
    23b8:	000018ea 	andeq	r1, r0, sl, ror #17
    23bc:	00011d1b 	andeq	r1, r1, fp, lsl sp
    23c0:	1d540100 	ldfnee	f0, [r4, #-0]
    23c4:	00008f30 	andeq	r8, r0, r0, lsr pc
    23c8:	00000004 	andeq	r0, r0, r4
    23cc:	0001321e 	andeq	r3, r1, lr, lsl r2
    23d0:	00191400 	andseq	r1, r9, r0, lsl #8
    23d4:	1f000000 	svcne	0x00000000
    23d8:	00008f30 	andeq	r8, r0, r0, lsr pc
    23dc:	00001159 	andeq	r1, r0, r9, asr r1
    23e0:	05510120 	ldrbeq	r0, [r1, #-288]	; 0x120
    23e4:	20080077 	andcs	r0, r8, r7, ror r0
    23e8:	5001201a 	andpl	r2, r1, sl, lsl r0
    23ec:	00007602 	andeq	r7, r0, r2, lsl #12
    23f0:	013f1900 	teqeq	pc, r0, lsl #18
    23f4:	8f440000 	svchi	0x00440000
    23f8:	001c0000 	andseq	r0, ip, r0
    23fc:	1f010000 	svcne	0x00010000
    2400:	0000062c 	andeq	r0, r0, ip, lsr #12
    2404:	00016a1a 	andeq	r6, r1, sl, lsl sl
    2408:	00192700 	andseq	r2, r9, r0, lsl #14
    240c:	015f1b00 	cmpeq	pc, r0, lsl #22
    2410:	54010000 	strpl	r0, [r1], #-0
    2414:	0001561b 	andeq	r5, r1, fp, lsl r6
    2418:	00770900 	rsbseq	r0, r7, r0, lsl #18
    241c:	081a4008 	ldmdaeq	sl, {r3, lr}
    2420:	1b9f1aff 	blne	fe7c9024 <__bss_end__+0xfe7bf1fc>
    2424:	0000014b 	andeq	r0, r0, fp, asr #2
    2428:	11195601 	tstne	r9, r1, lsl #12
    242c:	50000001 	andpl	r0, r0, r1
    2430:	1000008f 	andne	r0, r0, pc, lsl #1
    2434:	02000000 	andeq	r0, r0, #0
    2438:	0006121a 	andeq	r1, r6, sl, lsl r2
    243c:	01281a00 	teqeq	r8, r0, lsl #20
    2440:	19490000 	stmdbne	r9, {}^	; <UNPREDICTABLE>
    2444:	1d1b0000 	ldcne	0, cr0, [fp, #-0]
    2448:	01000001 	tsteq	r0, r1
    244c:	8f501d54 	svchi	0x00501d54
    2450:	00040000 	andeq	r0, r4, r0
    2454:	321e0000 	andscc	r0, lr, #0
    2458:	6b000001 	blvs	2464 <_start-0x5b9c>
    245c:	00000019 	andeq	r0, r0, r9, lsl r0
    2460:	8f501f00 	svchi	0x00501f00
    2464:	11590000 	cmpne	r9, r0
    2468:	01200000 	teqeq	r0, r0
    246c:	00770551 	rsbseq	r0, r7, r1, asr r5
    2470:	201a4008 	andscs	r4, sl, r8
    2474:	76025001 	strvc	r5, [r2], -r1
    2478:	19000000 	stmdbne	r0, {}	; <UNPREDICTABLE>
    247c:	0000013f 	andeq	r0, r0, pc, lsr r1
    2480:	00008f64 	andeq	r8, r0, r4, ror #30
    2484:	0000001c 	andeq	r0, r0, ip, lsl r0
    2488:	06ac2101 	strteq	r2, [ip], r1, lsl #2
    248c:	6a1b0000 	bvs	6c2494 <__bss_end__+0x6b866c>
    2490:	01000001 	tsteq	r0, r1
    2494:	015f1b58 	cmpeq	pc, r8, asr fp	; <UNPREDICTABLE>
    2498:	54010000 	strpl	r0, [r1], #-0
    249c:	0001561a 	andeq	r5, r1, sl, lsl r6
    24a0:	00197e00 	andseq	r7, r9, r0, lsl #28
    24a4:	014b1b00 	cmpeq	fp, r0, lsl #22
    24a8:	56010000 	strpl	r0, [r1], -r0
    24ac:	00011119 	andeq	r1, r1, r9, lsl r1
    24b0:	008f7000 	addeq	r7, pc, r0
    24b4:	00001000 	andeq	r1, r0, r0
    24b8:	921a0200 	andsls	r0, sl, #0, 4
    24bc:	1b000006 	blne	24dc <_start-0x5b24>
    24c0:	00000128 	andeq	r0, r0, r8, lsr #2
    24c4:	1d1b5801 	ldcne	8, cr5, [fp, #-4]
    24c8:	01000001 	tsteq	r0, r1
    24cc:	8f701d54 	svchi	0x00701d54
    24d0:	00040000 	andeq	r0, r4, r0
    24d4:	321e0000 	andscc	r0, lr, #0
    24d8:	b1000001 	tstlt	r0, r1
    24dc:	00000019 	andeq	r0, r0, r9, lsl r0
    24e0:	8f701f00 	svchi	0x00701f00
    24e4:	11590000 	cmpne	r9, r0
    24e8:	01200000 	teqeq	r0, r0
    24ec:	00770551 	rsbseq	r0, r7, r1, asr r5
    24f0:	201a8008 	andscs	r8, sl, r8
    24f4:	76025001 	strvc	r5, [r2], -r1
    24f8:	21000000 	mrscs	r0, (UNDEF: 0)
    24fc:	0000013f 	andeq	r0, r0, pc, lsr r1
    2500:	00008f84 	andeq	r8, r0, r4, lsl #31
    2504:	0000001c 	andeq	r0, r0, ip, lsl r0
    2508:	6a1b2301 	bvs	6cb114 <__bss_end__+0x6c12ec>
    250c:	01000001 	tsteq	r0, r1
    2510:	015f1b55 	cmpeq	pc, r5, asr fp	; <UNPREDICTABLE>
    2514:	54010000 	strpl	r0, [r1], #-0
    2518:	0001561c 	andeq	r5, r1, ip, lsl r6
    251c:	4b1b0100 	blmi	6c2924 <__bss_end__+0x6b8afc>
    2520:	01000001 	tsteq	r0, r1
    2524:	01111956 	tsteq	r1, r6, asr r9
    2528:	8f900000 	svchi	0x00900000
    252c:	00100000 	andseq	r0, r0, r0
    2530:	1a020000 	bne	82538 <__bss_end__+0x78710>
    2534:	0000070b 	andeq	r0, r0, fp, lsl #14
    2538:	0001281b 	andeq	r2, r1, fp, lsl r8
    253c:	1b550100 	blne	1542944 <__bss_end__+0x1538b1c>
    2540:	0000011d 	andeq	r0, r0, sp, lsl r1
    2544:	901d5401 	andsls	r5, sp, r1, lsl #8
    2548:	0400008f 	streq	r0, [r0], #-143	; 0x8f
    254c:	1e000000 	cdpne	0, 0, cr0, cr0, cr0, {0}
    2550:	00000132 	andeq	r0, r0, r2, lsr r1
    2554:	000019c4 	andeq	r1, r0, r4, asr #19
    2558:	901f0000 	andsls	r0, pc, r0
    255c:	5900008f 	stmdbpl	r0, {r0, r1, r2, r3, r7}
    2560:	20000011 	andcs	r0, r0, r1, lsl r0
    2564:	31015101 	tstcc	r1, r1, lsl #2
    2568:	02500120 	subseq	r0, r0, #32, 2
    256c:	00000076 	andeq	r0, r0, r6, ror r0
    2570:	d9040600 	stmdble	r4, {r9, sl}
    2574:	22000000 	andcs	r0, r0, #0
    2578:	00000883 	andeq	r0, r0, r3, lsl #17
    257c:	00252701 	eoreq	r2, r5, r1, lsl #14
    2580:	62030000 	andvs	r0, r3, #0
    2584:	0f000007 	svceq	0x00000007
    2588:	01007872 	tsteq	r0, r2, ror r8
    258c:	00002527 	andeq	r2, r0, r7, lsr #10
    2590:	00760f00 	rsbseq	r0, r6, r0, lsl #30
    2594:	00252701 	eoreq	r2, r5, r1, lsl #14
    2598:	100e0000 	andne	r0, lr, r0
    259c:	01000008 	tsteq	r0, r8
    25a0:	00002c27 	andeq	r2, r0, r7, lsr #24
    25a4:	048f1100 	streq	r1, [pc], #256	; 25ac <_start-0x5a54>
    25a8:	28010000 	stmdacs	r1, {}	; <UNPREDICTABLE>
    25ac:	0000002c 	andeq	r0, r0, ip, lsr #32
    25b0:	07b12300 	ldreq	r2, [r1, r0, lsl #6]!
    25b4:	34010000 	strcc	r0, [r1], #-0
    25b8:	00000025 	andeq	r0, r0, r5, lsr #32
    25bc:	00008fa4 	andeq	r8, r0, r4, lsr #31
    25c0:	000001c8 	andeq	r0, r0, r8, asr #3
    25c4:	0b1e9c01 	bleq	7a95d0 <__bss_end__+0x79f7a8>
    25c8:	42130000 	andsmi	r0, r3, #0
    25cc:	01000004 	tsteq	r0, r4
    25d0:	00072234 	andeq	r2, r7, r4, lsr r2
    25d4:	0019d700 	andseq	sp, r9, r0, lsl #14
    25d8:	08101300 	ldmdaeq	r0, {r8, r9, ip}
    25dc:	34010000 	strcc	r0, [r1], #-0
    25e0:	00000025 	andeq	r0, r0, r5, lsr #32
    25e4:	00001a1c 	andeq	r1, r0, ip, lsl sl
    25e8:	00787215 	rsbseq	r7, r8, r5, lsl r2
    25ec:	00253501 	eoreq	r3, r5, r1, lsl #10
    25f0:	55010000 	strpl	r0, [r1, #-0]
    25f4:	01007316 	tsteq	r0, r6, lsl r3
    25f8:	00002c3c 	andeq	r2, r0, ip, lsr ip
    25fc:	001a3a00 	andseq	r3, sl, r0, lsl #20
    2600:	00751600 	rsbseq	r1, r5, r0, lsl #12
    2604:	00683f01 	rsbeq	r3, r8, r1, lsl #30
    2608:	1a4d0000 	bne	1342610 <__bss_end__+0x13387e8>
    260c:	6e160000 	cdpvs	0, 1, cr0, cr6, cr0, {0}
    2610:	2c400100 	stfcse	f0, [r0], {-0}
    2614:	60000000 	andvs	r0, r0, r0
    2618:	1600001a 			; <UNDEFINED> instruction: 0x1600001a
    261c:	41010063 	tstmi	r1, r3, rrx
    2620:	0000002c 	andeq	r0, r0, ip, lsr #32
    2624:	00001a77 	andeq	r1, r0, r7, ror sl
    2628:	00072819 	andeq	r2, r7, r9, lsl r8
    262c:	008fb800 	addeq	fp, pc, r0, lsl #16
    2630:	00003400 	andeq	r3, r0, r0, lsl #8
    2634:	3c380100 	ldfccs	f0, [r8], #-0
    2638:	1a000008 	bne	2660 <_start-0x59a0>
    263c:	0000074b 	andeq	r0, r0, fp, asr #14
    2640:	00001aa1 	andeq	r1, r0, r1, lsr #21
    2644:	0007421c 	andeq	r4, r7, ip, lsl r2
    2648:	381b0000 	ldmdacc	fp, {}	; <UNPREDICTABLE>
    264c:	01000007 	tsteq	r0, r7
    2650:	8fb81d55 	svchi	0x00b81d55
    2654:	00340000 	eorseq	r0, r4, r0
    2658:	561e0000 	ldrpl	r0, [lr], -r0
    265c:	bf000007 	svclt	0x00000007
    2660:	2400001a 	strcs	r0, [r0], #-26
    2664:	00008fbc 			; <UNDEFINED> instruction: 0x00008fbc
    2668:	0000116f 	andeq	r1, r0, pc, ror #2
    266c:	008fc825 	addeq	ip, pc, r5, lsr #16
    2670:	00117a00 	andseq	r7, r1, r0, lsl #20
    2674:	00083100 	andeq	r3, r8, r0, lsl #2
    2678:	50012000 	andpl	r2, r1, r0
    267c:	00007502 	andeq	r7, r0, r2, lsl #10
    2680:	008fd424 	addeq	sp, pc, r4, lsr #8
    2684:	00116f00 	andseq	r6, r1, r0, lsl #30
    2688:	17000000 	strne	r0, [r0, -r0]
    268c:	00008ff4 	strdeq	r8, [r0], -r4
    2690:	00000004 	andeq	r0, r0, r4
    2694:	00000859 	andeq	r0, r0, r9, asr r8
    2698:	00017b26 	andeq	r7, r1, r6, lsr #22
    269c:	2c3c0100 	ldfcss	f0, [ip], #-0
    26a0:	dd000000 	stcle	0, cr0, [r0, #-0]
    26a4:	0000001a 	andeq	r0, r0, sl, lsl r0
    26a8:	00011119 	andeq	r1, r1, r9, lsl r1
    26ac:	00900000 	addseq	r0, r0, r0
    26b0:	00001000 	andeq	r1, r0, r0
    26b4:	92440100 	subls	r0, r4, #0, 2
    26b8:	1a000008 	bne	26e0 <_start-0x5920>
    26bc:	00000128 	andeq	r0, r0, r8, lsr #2
    26c0:	00001af0 	strdeq	r1, [r0], -r0
    26c4:	00011d1a 	andeq	r1, r1, sl, lsl sp
    26c8:	001b1500 	andseq	r1, fp, r0, lsl #10
    26cc:	90001d00 	andls	r1, r0, r0, lsl #26
    26d0:	00040000 	andeq	r0, r4, r0
    26d4:	321e0000 	andscc	r0, lr, #0
    26d8:	28000001 	stmdacs	r0, {r0}
    26dc:	0000001b 	andeq	r0, r0, fp, lsl r0
    26e0:	01111900 	tsteq	r1, r0, lsl #18
    26e4:	90200000 	eorls	r0, r0, r0
    26e8:	00100000 	andseq	r0, r0, r0
    26ec:	48010000 	stmdami	r1, {}	; <UNPREDICTABLE>
    26f0:	000008cb 	andeq	r0, r0, fp, asr #17
    26f4:	0001281a 	andeq	r2, r1, sl, lsl r8
    26f8:	001b3b00 	andseq	r3, fp, r0, lsl #22
    26fc:	011d1a00 	tsteq	sp, r0, lsl #20
    2700:	1b4e0000 	blne	1382708 <__bss_end__+0x13788e0>
    2704:	201d0000 	andscs	r0, sp, r0
    2708:	04000090 	streq	r0, [r0], #-144	; 0x90
    270c:	1e000000 	cdpne	0, 0, cr0, cr0, cr0, {0}
    2710:	00000132 	andeq	r0, r0, r2, lsr r1
    2714:	00001b61 	andeq	r1, r0, r1, ror #22
    2718:	11190000 	tstne	r9, r0
    271c:	44000001 	strmi	r0, [r0], #-1
    2720:	10000090 	mulne	r0, r0, r0
    2724:	01000000 	mrseq	r0, (UNDEF: 0)
    2728:	0009044b 	andeq	r0, r9, fp, asr #8
    272c:	01281a00 	teqeq	r8, r0, lsl #20
    2730:	1b740000 	blne	1d02738 <__bss_end__+0x1cf8910>
    2734:	1d1a0000 	ldcne	0, cr0, [sl, #-0]
    2738:	87000001 	strhi	r0, [r0, -r1]
    273c:	1d00001b 	stcne	0, cr0, [r0, #-108]	; 0xffffff94
    2740:	00009044 	andeq	r9, r0, r4, asr #32
    2744:	00000004 	andeq	r0, r0, r4
    2748:	0001321e 	andeq	r3, r1, lr, lsl r2
    274c:	001b9a00 	andseq	r9, fp, r0, lsl #20
    2750:	19000000 	stmdbne	r0, {}	; <UNPREDICTABLE>
    2754:	00000111 	andeq	r0, r0, r1, lsl r1
    2758:	00009068 	andeq	r9, r0, r8, rrx
    275c:	00000010 	andeq	r0, r0, r0, lsl r0
    2760:	093d4e01 	ldmdbeq	sp!, {r0, r9, sl, fp, lr}
    2764:	281a0000 	ldmdacs	sl, {}	; <UNPREDICTABLE>
    2768:	ad000001 	stcge	0, cr0, [r0, #-4]
    276c:	1a00001b 	bne	27e0 <_start-0x5820>
    2770:	0000011d 	andeq	r0, r0, sp, lsl r1
    2774:	00001bc0 	andeq	r1, r0, r0, asr #23
    2778:	0090681d 	addseq	r6, r0, sp, lsl r8
    277c:	00000400 	andeq	r0, r0, r0, lsl #8
    2780:	01321e00 	teqeq	r2, r0, lsl #28
    2784:	1bd30000 	blne	ff4c278c <__bss_end__+0xff4b8964>
    2788:	00000000 	andeq	r0, r0, r0
    278c:	00011119 	andeq	r1, r1, r9, lsl r1
    2790:	00908c00 	addseq	r8, r0, r0, lsl #24
    2794:	00001000 	andeq	r1, r0, r0
    2798:	76510100 	ldrbvc	r0, [r1], -r0, lsl #2
    279c:	1a000009 	bne	27c8 <_start-0x5838>
    27a0:	00000128 	andeq	r0, r0, r8, lsr #2
    27a4:	00001be6 	andeq	r1, r0, r6, ror #23
    27a8:	00011d1a 	andeq	r1, r1, sl, lsl sp
    27ac:	001bf900 	andseq	pc, fp, r0, lsl #18
    27b0:	908c1d00 	addls	r1, ip, r0, lsl #26
    27b4:	00040000 	andeq	r0, r4, r0
    27b8:	321e0000 	andscc	r0, lr, #0
    27bc:	0c000001 	stceq	0, cr0, [r0], {1}
    27c0:	0000001c 	andeq	r0, r0, ip, lsl r0
    27c4:	01111900 	tsteq	r1, r0, lsl #18
    27c8:	90b00000 	adcsls	r0, r0, r0
    27cc:	00100000 	andseq	r0, r0, r0
    27d0:	54010000 	strpl	r0, [r1], #-0
    27d4:	000009af 	andeq	r0, r0, pc, lsr #19
    27d8:	0001281a 	andeq	r2, r1, sl, lsl r8
    27dc:	001c1f00 	andseq	r1, ip, r0, lsl #30
    27e0:	011d1a00 	tsteq	sp, r0, lsl #20
    27e4:	1c320000 	ldcne	0, cr0, [r2], #-0
    27e8:	b01d0000 	andslt	r0, sp, r0
    27ec:	04000090 	streq	r0, [r0], #-144	; 0x90
    27f0:	1e000000 	cdpne	0, 0, cr0, cr0, cr0, {0}
    27f4:	00000132 	andeq	r0, r0, r2, lsr r1
    27f8:	00001c45 	andeq	r1, r0, r5, asr #24
    27fc:	11190000 	tstne	r9, r0
    2800:	d4000001 	strle	r0, [r0], #-1
    2804:	10000090 	mulne	r0, r0, r0
    2808:	01000000 	mrseq	r0, (UNDEF: 0)
    280c:	0009e857 	andeq	lr, r9, r7, asr r8
    2810:	01281a00 	teqeq	r8, r0, lsl #20
    2814:	1c580000 	mrane	r0, r8, acc0
    2818:	1d1a0000 	ldcne	0, cr0, [sl, #-0]
    281c:	6b000001 	blvs	2828 <_start-0x57d8>
    2820:	1d00001c 	stcne	0, cr0, [r0, #-112]	; 0xffffff90
    2824:	000090d4 	ldrdeq	r9, [r0], -r4
    2828:	00000004 	andeq	r0, r0, r4
    282c:	0001321e 	andeq	r3, r1, lr, lsl r2
    2830:	001c7e00 	andseq	r7, ip, r0, lsl #28
    2834:	19000000 	stmdbne	r0, {}	; <UNPREDICTABLE>
    2838:	00000111 	andeq	r0, r0, r1, lsl r1
    283c:	000090f8 	strdeq	r9, [r0], -r8
    2840:	00000010 	andeq	r0, r0, r0, lsl r0
    2844:	0a1d5a01 	beq	759050 <__bss_end__+0x74f228>
    2848:	281a0000 	ldmdacs	sl, {}	; <UNPREDICTABLE>
    284c:	91000001 	tstls	r0, r1
    2850:	2700001c 	smladcs	r0, ip, r0, r0
    2854:	0000011d 	andeq	r0, r0, sp, lsl r1
    2858:	0090f81d 	addseq	pc, r0, sp, lsl r8	; <UNPREDICTABLE>
    285c:	00000400 	andeq	r0, r0, r0, lsl #8
    2860:	01321e00 	teqeq	r2, r0, lsl #28
    2864:	1ca40000 	stcne	0, cr0, [r4]
    2868:	00000000 	andeq	r0, r0, r0
    286c:	00072819 	andeq	r2, r7, r9, lsl r8
    2870:	00911800 	addseq	r1, r1, r0, lsl #16
    2874:	00003400 	andeq	r3, r0, r0, lsl #8
    2878:	81610100 	cmnhi	r1, r0, lsl #2
    287c:	2700000a 	strcs	r0, [r0, -sl]
    2880:	0000074b 	andeq	r0, r0, fp, asr #14
    2884:	0007421a 	andeq	r4, r7, sl, lsl r2
    2888:	001cb700 	andseq	fp, ip, r0, lsl #14
    288c:	07381a00 	ldreq	r1, [r8, -r0, lsl #20]!
    2890:	1cd70000 	ldclne	0, cr0, [r7], {0}
    2894:	181d0000 	ldmdane	sp, {}	; <UNPREDICTABLE>
    2898:	34000091 	strcc	r0, [r0], #-145	; 0x91
    289c:	1e000000 	cdpne	0, 0, cr0, cr0, cr0, {0}
    28a0:	00000756 	andeq	r0, r0, r6, asr r7
    28a4:	00001cf5 	strdeq	r1, [r0], -r5
    28a8:	00911c24 	addseq	r1, r1, r4, lsr #24
    28ac:	00116f00 	andseq	r6, r1, r0, lsl #30
    28b0:	91282500 	teqls	r8, r0, lsl #10
    28b4:	117a0000 	cmnne	sl, r0
    28b8:	0a760000 	beq	1d828c0 <__bss_end__+0x1d78a98>
    28bc:	01200000 	teqeq	r0, r0
    28c0:	00750250 	rsbseq	r0, r5, r0, asr r2
    28c4:	91342400 	teqls	r4, r0, lsl #8
    28c8:	116f0000 	cmnne	pc, r0
    28cc:	00000000 	andeq	r0, r0, r0
    28d0:	00901c25 	addseq	r1, r0, r5, lsr #24
    28d4:	00117a00 	andseq	r7, r1, r0, lsl #20
    28d8:	000a9500 	andeq	r9, sl, r0, lsl #10
    28dc:	50012000 	andpl	r2, r1, r0
    28e0:	00007502 	andeq	r7, r0, r2, lsl #10
    28e4:	00903c25 	addseq	r3, r0, r5, lsr #24
    28e8:	00117a00 	andseq	r7, r1, r0, lsl #20
    28ec:	000aa900 	andeq	sl, sl, r0, lsl #18
    28f0:	50012000 	andpl	r2, r1, r0
    28f4:	00007502 	andeq	r7, r0, r2, lsl #10
    28f8:	00906025 	addseq	r6, r0, r5, lsr #32
    28fc:	00117a00 	andseq	r7, r1, r0, lsl #20
    2900:	000abd00 	andeq	fp, sl, r0, lsl #26
    2904:	50012000 	andpl	r2, r1, r0
    2908:	00007502 	andeq	r7, r0, r2, lsl #10
    290c:	00908425 	addseq	r8, r0, r5, lsr #8
    2910:	00117a00 	andseq	r7, r1, r0, lsl #20
    2914:	000ad100 	andeq	sp, sl, r0, lsl #2
    2918:	50012000 	andpl	r2, r1, r0
    291c:	00007502 	andeq	r7, r0, r2, lsl #10
    2920:	0090a825 	addseq	sl, r0, r5, lsr #16
    2924:	00117a00 	andseq	r7, r1, r0, lsl #20
    2928:	000ae500 	andeq	lr, sl, r0, lsl #10
    292c:	50012000 	andpl	r2, r1, r0
    2930:	00007502 	andeq	r7, r0, r2, lsl #10
    2934:	0090cc25 	addseq	ip, r0, r5, lsr #24
    2938:	00117a00 	andseq	r7, r1, r0, lsl #20
    293c:	000af900 	andeq	pc, sl, r0, lsl #18
    2940:	50012000 	andpl	r2, r1, r0
    2944:	00007502 	andeq	r7, r0, r2, lsl #10
    2948:	0090f025 	addseq	pc, r0, r5, lsr #32
    294c:	00117a00 	andseq	r7, r1, r0, lsl #20
    2950:	000b0d00 	andeq	r0, fp, r0, lsl #26
    2954:	50012000 	andpl	r2, r1, r0
    2958:	00007502 	andeq	r7, r0, r2, lsl #10
    295c:	0091101f 	addseq	r1, r1, pc, lsl r0
    2960:	00117a00 	andseq	r7, r1, r0, lsl #20
    2964:	50012000 	andpl	r2, r1, r0
    2968:	00007502 	andeq	r7, r0, r2, lsl #10
    296c:	07c62300 	strbeq	r2, [r6, r0, lsl #6]
    2970:	6c010000 	stcvs	0, cr0, [r1], {-0}
    2974:	00000025 	andeq	r0, r0, r5, lsr #32
    2978:	0000916c 	andeq	r9, r0, ip, ror #2
    297c:	000000a4 	andeq	r0, r0, r4, lsr #1
    2980:	0c0c9c01 	stceq	12, cr9, [ip], {1}
    2984:	75140000 	ldrvc	r0, [r4, #-0]
    2988:	226c0100 	rsbcs	r0, ip, #0, 2
    298c:	13000007 	movwne	r0, #7
    2990:	1400001d 	strne	r0, [r0], #-29
    2994:	00667562 	rsbeq	r7, r6, r2, ror #10
    2998:	0c0c6c01 	stceq	12, cr6, [ip], {1}
    299c:	1d550000 	ldclne	0, cr0, [r5, #-0]
    29a0:	58130000 	ldmdapl	r3, {}	; <UNPREDICTABLE>
    29a4:	01000008 	tsteq	r0, r8
    29a8:	0000686c 	andeq	r6, r0, ip, ror #16
    29ac:	001d9700 	andseq	r9, sp, r0, lsl #14
    29b0:	6e651400 	cdpvs	4, 6, cr1, cr5, cr0, {0}
    29b4:	6c010064 	stcvs	0, cr0, [r1], {100}	; 0x64
    29b8:	0000004f 	andeq	r0, r0, pc, asr #32
    29bc:	00001dde 	ldrdeq	r1, [r0], -lr
    29c0:	00085f28 	andeq	r5, r8, r8, lsr #30
    29c4:	686c0100 	stmdavs	ip!, {r8}^
    29c8:	02000000 	andeq	r0, r0, #0
    29cc:	4e290091 	mcrmi	0, 1, r0, cr9, cr1, {4}
    29d0:	22000003 	andcs	r0, r0, #3
    29d4:	0500000c 	streq	r0, [r0, #-12]
    29d8:	0098fc03 	addseq	pc, r8, r3, lsl #24
    29dc:	00691600 	rsbeq	r1, r9, r0, lsl #12
    29e0:	00257001 	eoreq	r7, r5, r1
    29e4:	1e180000 	cdpne	0, 1, cr0, cr8, cr0, {0}
    29e8:	3b260000 	blcc	9829f0 <__bss_end__+0x978bc8>
    29ec:	01000008 	tsteq	r0, r8
    29f0:	00004f71 	andeq	r4, r0, r1, ror pc
    29f4:	001e4200 	andseq	r4, lr, r0, lsl #4
    29f8:	91902400 	orrsls	r2, r0, r0, lsl #8
    29fc:	118f0000 	orrne	r0, pc, r0
    2a00:	ac250000 	stcge	0, cr0, [r5], #-0
    2a04:	96000091 			; <UNDEFINED> instruction: 0x96000091
    2a08:	ec000011 	stc	0, cr0, [r0], {17}
    2a0c:	2000000b 	andcs	r0, r0, fp
    2a10:	08025301 	stmdaeq	r2, {r0, r8, r9, ip, lr}
    2a14:	5201206d 	andpl	r2, r1, #109	; 0x6d
    2a18:	98fc0305 	ldmls	ip!, {r0, r2, r8, r9}^
    2a1c:	01200000 	teqeq	r0, r0
    2a20:	74030551 	strvc	r0, [r3], #-1361	; 0x551
    2a24:	20000099 	mulcs	r0, r9, r0
    2a28:	03055001 	movweq	r5, #20481	; 0x5001
    2a2c:	000097fc 	strdeq	r9, [r0], -ip
    2a30:	007d0220 	rsbseq	r0, sp, r0, lsr #4
    2a34:	99880305 	stmibls	r8, {r0, r2, r8, r9}
    2a38:	24000000 	strcs	r0, [r0], #-0
    2a3c:	000091b0 			; <UNDEFINED> instruction: 0x000091b0
    2a40:	000011ac 	andeq	r1, r0, ip, lsr #3
    2a44:	0091cc1f 	addseq	ip, r1, pc, lsl ip
    2a48:	00076200 	andeq	r6, r7, r0, lsl #4
    2a4c:	51012000 	mrspl	r2, (UNDEF: 1)
    2a50:	20007a02 	andcs	r7, r0, r2, lsl #20
    2a54:	78025001 	stmdavc	r2, {r0, ip, lr}
    2a58:	06000000 	streq	r0, [r0], -r0
    2a5c:	00004f04 	andeq	r4, r0, r4, lsl #30
    2a60:	00902a00 	addseq	r2, r0, r0, lsl #20
    2a64:	0c220000 	stceq	0, cr0, [r2], #-0
    2a68:	812b0000 	teqhi	fp, r0
    2a6c:	12000000 	andne	r0, r0, #0
    2a70:	0c120700 	ldceq	7, cr0, [r2], {-0}
    2a74:	43230000 	teqmi	r3, #0
    2a78:	01000008 	tsteq	r0, r8
    2a7c:	00002580 	andeq	r2, r0, r0, lsl #11
    2a80:	00921000 	addseq	r1, r2, r0
    2a84:	00009000 	andeq	r9, r0, r0
    2a88:	f89c0100 			; <UNDEFINED> instruction: 0xf89c0100
    2a8c:	1400000c 	strne	r0, [r0], #-12
    2a90:	80010075 	andhi	r0, r1, r5, ror r0
    2a94:	00000722 	andeq	r0, r0, r2, lsr #14
    2a98:	00001e55 	andeq	r1, r0, r5, asr lr
    2a9c:	66756214 			; <UNDEFINED> instruction: 0x66756214
    2aa0:	0c800100 	stfeqs	f0, [r0], {0}
    2aa4:	9700000c 	strls	r0, [r0, -ip]
    2aa8:	1300001e 	movwne	r0, #30
    2aac:	00000858 	andeq	r0, r0, r8, asr r8
    2ab0:	00688101 	rsbeq	r8, r8, r1, lsl #2
    2ab4:	1ed90000 	cdpne	0, 13, cr0, cr9, cr0, {0}
    2ab8:	5f130000 	svcpl	0x00130000
    2abc:	01000008 	tsteq	r0, r8
    2ac0:	00006881 	andeq	r6, r0, r1, lsl #17
    2ac4:	001f2000 	andseq	r2, pc, r0
    2ac8:	034e2900 	movteq	r2, #59648	; 0xe900
    2acc:	0d080000 	stceq	0, cr0, [r8, #-0]
    2ad0:	03050000 	movweq	r0, #20480	; 0x5000
    2ad4:	00009910 	andeq	r9, r0, r0, lsl r9
    2ad8:	01006916 	tsteq	r0, r6, lsl r9
    2adc:	00002586 	andeq	r2, r0, r6, lsl #11
    2ae0:	001f6200 	andseq	r6, pc, r0, lsl #4
    2ae4:	92302400 	eorsls	r2, r0, #0, 8
    2ae8:	118f0000 	orrne	r0, pc, r0
    2aec:	4c250000 	stcmi	0, cr0, [r5], #-0
    2af0:	96000092 			; <UNDEFINED> instruction: 0x96000092
    2af4:	d8000011 	stmdale	r0, {r0, r4}
    2af8:	2000000c 	andcs	r0, r0, ip
    2afc:	08025301 	stmdaeq	r2, {r0, r8, r9, ip, lr}
    2b00:	52012083 	andpl	r2, r1, #131	; 0x83
    2b04:	99100305 	ldmdbls	r0, {r0, r2, r8, r9}
    2b08:	01200000 	teqeq	r0, r0
    2b0c:	74030551 	strvc	r0, [r3], #-1361	; 0x551
    2b10:	20000099 	mulcs	r0, r9, r0
    2b14:	03055001 	movweq	r5, #20481	; 0x5001
    2b18:	000097fc 	strdeq	r9, [r0], -ip
    2b1c:	007d0220 	rsbseq	r0, sp, r0, lsr #4
    2b20:	99880305 	stmibls	r8, {r0, r2, r8, r9}
    2b24:	24000000 	strcs	r0, [r0], #-0
    2b28:	00009250 	andeq	r9, r0, r0, asr r2
    2b2c:	000011ac 	andeq	r1, r0, ip, lsr #3
    2b30:	00926c1f 	addseq	r6, r2, pc, lsl ip
    2b34:	00076200 	andeq	r6, r7, r0, lsl #4
    2b38:	51012000 	mrspl	r2, (UNDEF: 1)
    2b3c:	20007802 	andcs	r7, r0, r2, lsl #16
    2b40:	77025001 	strvc	r5, [r2, -r1]
    2b44:	2a000000 	bcs	2b4c <_start-0x54b4>
    2b48:	00000090 	muleq	r0, r0, r0
    2b4c:	00000d08 	andeq	r0, r0, r8, lsl #26
    2b50:	0000812b 	andeq	r8, r0, fp, lsr #2
    2b54:	07001400 	streq	r1, [r0, -r0, lsl #8]
    2b58:	00000cf8 	strdeq	r0, [r0], -r8
    2b5c:	0007fc23 	andeq	pc, r7, r3, lsr #24
    2b60:	d9930100 	ldmible	r3, {r8}
    2b64:	a0000000 	andge	r0, r0, r0
    2b68:	d4000092 	strle	r0, [r0], #-146	; 0x92
    2b6c:	01000000 	mrseq	r0, (UNDEF: 0)
    2b70:	000e329c 	muleq	lr, ip, r2
    2b74:	78741400 	ldmdavc	r4!, {sl, ip}^
    2b78:	4f930100 	svcmi	0x00930100
    2b7c:	8c000000 	stchi	0, cr0, [r0], {-0}
    2b80:	1400001f 	strne	r0, [r0], #-31
    2b84:	01007872 	tsteq	r0, r2, ror r8
    2b88:	00004f93 	muleq	r0, r3, pc	; <UNPREDICTABLE>
    2b8c:	001fad00 	andseq	sl, pc, r0, lsl #26
    2b90:	047b1300 	ldrbteq	r1, [fp], #-768	; 0x300
    2b94:	93010000 	movwls	r0, #4096	; 0x1000
    2b98:	00000068 	andeq	r0, r0, r8, rrx
    2b9c:	00001fce 	andeq	r1, r0, lr, asr #31
    2ba0:	00079528 	andeq	r9, r7, r8, lsr #10
    2ba4:	68930100 	ldmvs	r3, {r8}
    2ba8:	02000000 	andeq	r0, r0, #0
    2bac:	6d2c0091 	stcvs	0, cr0, [ip, #-580]!	; 0xfffffdbc
    2bb0:	01007a68 	tsteq	r0, r8, ror #20
    2bb4:	00002c9b 	muleq	r0, fp, ip
    2bb8:	b9270000 	stmdblt	r7!, {}	; <UNPREDICTABLE>
    2bbc:	07e62629 	strbeq	r2, [r6, r9, lsr #12]!
    2bc0:	9c010000 	stcls	0, cr0, [r1], {-0}
    2bc4:	0000002c 	andeq	r0, r0, ip, lsr #32
    2bc8:	00001ff8 	strdeq	r1, [r0], -r8
    2bcc:	00034e29 	andeq	r4, r3, r9, lsr #28
    2bd0:	000e4200 	andeq	r4, lr, r0, lsl #4
    2bd4:	28030500 	stmdacs	r3, {r8, sl}
    2bd8:	17000099 			; <UNDEFINED> instruction: 0x17000099
    2bdc:	000092cc 	andeq	r9, r0, ip, asr #5
    2be0:	00000008 	andeq	r0, r0, r8
    2be4:	00000da5 	andeq	r0, r0, r5, lsr #27
    2be8:	006e692d 	rsbeq	r6, lr, sp, lsr #18
    2bec:	002c9701 	eoreq	r9, ip, r1, lsl #14
    2bf0:	00010000 	andeq	r0, r1, r0
    2bf4:	0092c425 	addseq	ip, r2, r5, lsr #8
    2bf8:	0011b300 	andseq	fp, r1, r0, lsl #6
    2bfc:	000db900 	andeq	fp, sp, r0, lsl #18
    2c00:	50012000 	andpl	r2, r1, r0
    2c04:	00007602 	andeq	r7, r0, r2, lsl #12
    2c08:	0092cc25 	addseq	ip, r2, r5, lsr #24
    2c0c:	0011c400 	andseq	ip, r1, r0, lsl #8
    2c10:	000dcd00 	andeq	ip, sp, r0, lsl #26
    2c14:	50012000 	andpl	r2, r1, r0
    2c18:	00007802 	andeq	r7, r0, r2, lsl #16
    2c1c:	0092e025 	addseq	lr, r2, r5, lsr #32
    2c20:	00115900 	andseq	r5, r1, r0, lsl #18
    2c24:	000de600 	andeq	lr, sp, r0, lsl #12
    2c28:	51012000 	mrspl	r2, (UNDEF: 1)
    2c2c:	01203101 	teqeq	r0, r1, lsl #2
    2c30:	00760250 	rsbseq	r0, r6, r0, asr r2
    2c34:	93242400 	teqls	r4, #0, 8
    2c38:	118f0000 	orrne	r0, pc, r0
    2c3c:	40250000 	eormi	r0, r5, r0
    2c40:	96000093 			; <UNDEFINED> instruction: 0x96000093
    2c44:	28000011 	stmdacs	r0, {r0, r4}
    2c48:	2000000e 	andcs	r0, r0, lr
    2c4c:	08025301 	stmdaeq	r2, {r0, r8, r9, ip, lr}
    2c50:	5201209d 	andpl	r2, r1, #157	; 0x9d
    2c54:	99280305 	stmdbls	r8!, {r0, r2, r8, r9}
    2c58:	01200000 	teqeq	r0, r0
    2c5c:	74030551 	strvc	r0, [r3], #-1361	; 0x551
    2c60:	20000099 	mulcs	r0, r9, r0
    2c64:	03055001 	movweq	r5, #20481	; 0x5001
    2c68:	000097fc 	strdeq	r9, [r0], -ip
    2c6c:	007d0220 	rsbseq	r0, sp, r0, lsr #4
    2c70:	99940305 	ldmibls	r4, {r0, r2, r8, r9}
    2c74:	24000000 	strcs	r0, [r0], #-0
    2c78:	00009344 	andeq	r9, r0, r4, asr #6
    2c7c:	000011ac 	andeq	r1, r0, ip, lsr #3
    2c80:	00902a00 	addseq	r2, r0, r0, lsl #20
    2c84:	0e420000 	cdpeq	0, 4, cr0, cr2, cr0, {0}
    2c88:	812b0000 	teqhi	fp, r0
    2c8c:	13000000 	movwne	r0, #0
    2c90:	0e320700 	cdpeq	7, 3, cr0, cr2, cr0, {0}
    2c94:	d9230000 	stmdble	r3!, {}	; <UNPREDICTABLE>
    2c98:	01000007 	tsteq	r0, r7
    2c9c:	000025a9 	andeq	r2, r0, r9, lsr #11
    2ca0:	00937400 	addseq	r7, r3, r0, lsl #8
    2ca4:	00003c00 	andeq	r3, r0, r0, lsl #24
    2ca8:	ea9c0100 	b	fe7030b0 <__bss_end__+0xfe6f9288>
    2cac:	1300000e 	movwne	r0, #14
    2cb0:	00000442 	andeq	r0, r0, r2, asr #8
    2cb4:	0722a901 	streq	sl, [r2, -r1, lsl #18]!
    2cb8:	20260000 	eorcs	r0, r6, r0
    2cbc:	72160000 	andsvc	r0, r6, #0
    2cc0:	01007365 	tsteq	r0, r5, ror #6
    2cc4:	000025aa 	andeq	r2, r0, sl, lsr #11
    2cc8:	00204700 	eoreq	r4, r0, r0, lsl #14
    2ccc:	034e2900 	movteq	r2, #59648	; 0xe900
    2cd0:	0efa0000 	cdpeq	0, 15, cr0, cr10, cr0, {0}
    2cd4:	03050000 	movweq	r0, #20480	; 0x5000
    2cd8:	0000993c 	andeq	r9, r0, ip, lsr r9
    2cdc:	00938025 	addseq	r8, r3, r5, lsr #32
    2ce0:	00076200 	andeq	r6, r7, r0, lsl #4
    2ce4:	000ea800 	andeq	sl, lr, r0, lsl #16
    2ce8:	51012000 	mrspl	r2, (UNDEF: 1)
    2cec:	20ff0902 	rscscs	r0, pc, r2, lsl #18
    2cf0:	f3035001 	vhadd.u8	d5, d3, d1
    2cf4:	24005001 	strcs	r5, [r0], #-1
    2cf8:	0000938c 	andeq	r9, r0, ip, lsl #7
    2cfc:	0000118f 	andeq	r1, r0, pc, lsl #3
    2d00:	0093a025 	addseq	sl, r3, r5, lsr #32
    2d04:	00119600 	andseq	r9, r1, r0, lsl #12
    2d08:	000ee000 	andeq	lr, lr, r0
    2d0c:	53012000 	movwpl	r2, #4096	; 0x1000
    2d10:	20ac0802 	adccs	r0, ip, r2, lsl #16
    2d14:	03055201 	movweq	r5, #20993	; 0x5201
    2d18:	0000993c 	andeq	r9, r0, ip, lsr r9
    2d1c:	05510120 	ldrbeq	r0, [r1, #-288]	; 0x120
    2d20:	00997403 	addseq	r7, r9, r3, lsl #8
    2d24:	50012000 	andpl	r2, r1, r0
    2d28:	99c80305 	stmibls	r8, {r0, r2, r8, r9}^
    2d2c:	24000000 	strcs	r0, [r0], #-0
    2d30:	000093a4 	andeq	r9, r0, r4, lsr #7
    2d34:	000011ac 	andeq	r1, r0, ip, lsr #3
    2d38:	00902a00 	addseq	r2, r0, r0, lsl #20
    2d3c:	0efa0000 	cdpeq	0, 15, cr0, cr10, cr0, {0}
    2d40:	812b0000 	teqhi	fp, r0
    2d44:	0c000000 	stceq	0, cr0, [r0], {-0}
    2d48:	0eea0700 	cdpeq	7, 14, cr0, cr10, cr0, {0}
    2d4c:	1d120000 	ldcne	0, cr0, [r2, #-0]
    2d50:	01000008 	tsteq	r0, r8
    2d54:	0093b0b0 	ldrheq	fp, [r3], r0
    2d58:	00002c00 	andeq	r2, r0, r0, lsl #24
    2d5c:	439c0100 	orrsmi	r0, ip, #0, 2
    2d60:	1300000f 	movwne	r0, #15
    2d64:	00000442 	andeq	r0, r0, r2, asr #8
    2d68:	0722b001 	streq	fp, [r2, -r1]!
    2d6c:	205a0000 	subscs	r0, sl, r0
    2d70:	6d140000 	ldcvs	0, cr0, [r4, #-0]
    2d74:	01006773 	tsteq	r0, r3, ror r7
    2d78:	000097b0 			; <UNDEFINED> instruction: 0x000097b0
    2d7c:	00207800 	eoreq	r7, r0, r0, lsl #16
    2d80:	93c81f00 	bicls	r1, r8, #0, 30
    2d84:	01760000 	cmneq	r6, r0
    2d88:	01200000 	teqeq	r0, r0
    2d8c:	00750250 	rsbseq	r0, r5, r0, asr r2
    2d90:	47230000 	strmi	r0, [r3, -r0]!
    2d94:	01000004 	tsteq	r0, r4
    2d98:	000025b9 			; <UNDEFINED> instruction: 0x000025b9
    2d9c:	0093dc00 	addseq	sp, r3, r0, lsl #24
    2da0:	00009000 	andeq	r9, r0, r0
    2da4:	419c0100 	orrsmi	r0, ip, r0, lsl #2
    2da8:	13000010 	movwne	r0, #16
    2dac:	00000442 	andeq	r0, r0, r2, asr #8
    2db0:	0722b901 	streq	fp, [r2, -r1, lsl #18]!
    2db4:	20960000 	addscs	r0, r6, r0
    2db8:	662e0000 	strtvs	r0, [lr], -r0
    2dbc:	0100746d 	tsteq	r0, sp, ror #8
    2dc0:	000097b9 			; <UNDEFINED> instruction: 0x000097b9
    2dc4:	74910200 	ldrvc	r0, [r1], #512	; 0x200
    2dc8:	7562152f 	strbvc	r1, [r2, #-1327]!	; 0x52f
    2dcc:	ba010066 	blt	42f6c <__bss_end__+0x39144>
    2dd0:	00001041 	andeq	r1, r0, r1, asr #32
    2dd4:	7c9c9103 	ldfvcd	f1, [ip], {3}
    2dd8:	00030818 	andeq	r0, r3, r8, lsl r8
    2ddc:	06bc0100 	ldrteq	r0, [ip], r0, lsl #2
    2de0:	03000001 	movweq	r0, #1
    2de4:	167c9891 			; <UNDEFINED> instruction: 0x167c9891
    2de8:	01007a73 	tsteq	r0, r3, ror sl
    2dec:	000025be 			; <UNDEFINED> instruction: 0x000025be
    2df0:	0020c200 	eoreq	ip, r0, r0, lsl #4
    2df4:	034e2900 	movteq	r2, #59648	; 0xe900
    2df8:	10620000 	rsbne	r0, r2, r0
    2dfc:	03050000 	movweq	r0, #20480	; 0x5000
    2e00:	0000994c 	andeq	r9, r0, ip, asr #18
    2e04:	00940425 	addseq	r0, r4, r5, lsr #8
    2e08:	0011d500 	andseq	sp, r1, r0, lsl #10
    2e0c:	000fde00 	andeq	sp, pc, r0, lsl #28
    2e10:	53012000 	movwpl	r2, #4096	; 0x1000
    2e14:	20589102 	subscs	r9, r8, r2, lsl #2
    2e18:	91035201 	tstls	r3, r1, lsl #4
    2e1c:	01200654 	teqeq	r0, r4, asr r6
    2e20:	cc0a0351 	stcgt	3, cr0, [sl], {81}	; 0x51
    2e24:	50012001 	andpl	r2, r1, r1
    2e28:	7bfc9103 	blvc	fff2723c <__bss_end__+0xfff1d414>
    2e2c:	94182400 	ldrls	r2, [r8], #-1024	; 0x400
    2e30:	118f0000 	orrne	r0, pc, r0
    2e34:	34250000 	strtcc	r0, [r5], #-0
    2e38:	96000094 			; <UNDEFINED> instruction: 0x96000094
    2e3c:	20000011 	andcs	r0, r0, r1, lsl r0
    2e40:	20000010 	andcs	r0, r0, r0, lsl r0
    2e44:	08025301 	stmdaeq	r2, {r0, r8, r9, ip, lr}
    2e48:	520120c0 	andpl	r2, r1, #192	; 0xc0
    2e4c:	994c0305 	stmdbls	ip, {r0, r2, r8, r9}^
    2e50:	01200000 	teqeq	r0, r0
    2e54:	74030551 	strvc	r0, [r3], #-1361	; 0x551
    2e58:	20000099 	mulcs	r0, r9, r0
    2e5c:	03055001 	movweq	r5, #20481	; 0x5001
    2e60:	000097fc 	strdeq	r9, [r0], -ip
    2e64:	007d0220 	rsbseq	r0, sp, r0, lsr #4
    2e68:	9a000305 	bls	3a84 <_start-0x457c>
    2e6c:	24000000 	strcs	r0, [r0], #-0
    2e70:	00009438 	andeq	r9, r0, r8, lsr r4
    2e74:	000011ac 	andeq	r1, r0, ip, lsr #3
    2e78:	0094441f 	addseq	r4, r4, pc, lsl r4
    2e7c:	000eff00 	andeq	pc, lr, r0, lsl #30
    2e80:	51012000 	mrspl	r2, (UNDEF: 1)
    2e84:	7bfc9103 	blvc	fff27298 <__bss_end__+0xfff1d470>
    2e88:	02500120 	subseq	r0, r0, #32, 2
    2e8c:	00000075 	andeq	r0, r0, r5, ror r0
    2e90:	0000902a 	andeq	r9, r0, sl, lsr #32
    2e94:	00105200 	andseq	r5, r0, r0, lsl #4
    2e98:	00813000 	addeq	r3, r1, r0
    2e9c:	01cb0000 	biceq	r0, fp, r0
    2ea0:	00902a00 	addseq	r2, r0, r0, lsl #20
    2ea4:	10620000 	rsbne	r0, r2, r0
    2ea8:	812b0000 	teqhi	fp, r0
    2eac:	0e000000 	cdpeq	0, 0, cr0, cr0, cr0, {0}
    2eb0:	10520700 	subsne	r0, r2, r0, lsl #14
    2eb4:	6c230000 	stcvs	0, cr0, [r3], #-0
    2eb8:	01000008 	tsteq	r0, r8
    2ebc:	000025c5 	andeq	r2, r0, r5, asr #11
    2ec0:	00946c00 	addseq	r6, r4, r0, lsl #24
    2ec4:	00004c00 	andeq	r4, r0, r0, lsl #24
    2ec8:	449c0100 	ldrmi	r0, [ip], #256	; 0x100
    2ecc:	14000011 	strne	r0, [r0], #-17
    2ed0:	c5010075 	strgt	r0, [r1, #-117]	; 0x75
    2ed4:	00000722 	andeq	r0, r0, r2, lsr #14
    2ed8:	00002101 	andeq	r2, r0, r1, lsl #2
    2edc:	66756214 			; <UNDEFINED> instruction: 0x66756214
    2ee0:	0cc50100 	stfeqe	f0, [r5], {0}
    2ee4:	2200000c 	andcs	r0, r0, #12
    2ee8:	13000021 	movwne	r0, #33	; 0x21
    2eec:	00000858 	andeq	r0, r0, r8, asr r8
    2ef0:	0068c501 	rsbeq	ip, r8, r1, lsl #10
    2ef4:	21430000 	mrscs	r0, (UNDEF: 67)
    2ef8:	65140000 	ldrvs	r0, [r4, #-0]
    2efc:	0100646e 	tsteq	r0, lr, ror #8
    2f00:	00004fc5 	andeq	r4, r0, r5, asr #31
    2f04:	00216400 	eoreq	r6, r1, r0, lsl #8
    2f08:	65721600 	ldrbvs	r1, [r2, #-1536]!	; 0x600
    2f0c:	c6010073 			; <UNDEFINED> instruction: 0xc6010073
    2f10:	00000025 	andeq	r0, r0, r5, lsr #32
    2f14:	00002185 	andeq	r2, r0, r5, lsl #3
    2f18:	00034e29 	andeq	r4, r3, r9, lsr #28
    2f1c:	00115400 	andseq	r5, r1, r0, lsl #8
    2f20:	5c030500 	cfstr32pl	mvfx0, [r3], {-0}
    2f24:	25000099 	strcs	r0, [r0, #-153]	; 0x99
    2f28:	00009480 	andeq	r9, r0, r0, lsl #9
    2f2c:	00000b1e 	andeq	r0, r0, lr, lsl fp
    2f30:	00001102 	andeq	r1, r0, r2, lsl #2
    2f34:	03520120 	cmpeq	r2, #32, 2
    2f38:	205201f3 	ldrshcs	r0, [r2], #-19	; 0xffffffed
    2f3c:	f3035101 	vrhadd.u8	d5, d3, d1
    2f40:	01205101 	teqeq	r0, r1, lsl #2
    2f44:	01f30350 	mvnseq	r0, r0, asr r3
    2f48:	7d022050 	stcvc	0, cr2, [r2, #-320]	; 0xfffffec0
    2f4c:	ff090200 			; <UNDEFINED> instruction: 0xff090200
    2f50:	948c2400 	strls	r2, [ip], #1024	; 0x400
    2f54:	118f0000 	orrne	r0, pc, r0
    2f58:	a0250000 	eorge	r0, r5, r0
    2f5c:	96000094 			; <UNDEFINED> instruction: 0x96000094
    2f60:	3a000011 	bcc	2fac <_start-0x5054>
    2f64:	20000011 	andcs	r0, r0, r1, lsl r0
    2f68:	08025301 	stmdaeq	r2, {r0, r8, r9, ip, lr}
    2f6c:	520120c8 	andpl	r2, r1, #200	; 0xc8
    2f70:	995c0305 	ldmdbls	ip, {r0, r2, r8, r9}^
    2f74:	01200000 	teqeq	r0, r0
    2f78:	74030551 	strvc	r0, [r3], #-1361	; 0x551
    2f7c:	20000099 	mulcs	r0, r9, r0
    2f80:	03055001 	movweq	r5, #20481	; 0x5001
    2f84:	000099c8 	andeq	r9, r0, r8, asr #19
    2f88:	94a42400 	strtls	r2, [r4], #1024	; 0x400
    2f8c:	11ac0000 			; <UNDEFINED> instruction: 0x11ac0000
    2f90:	2a000000 	bcs	2f98 <_start-0x5068>
    2f94:	00000090 	muleq	r0, r0, r0
    2f98:	00001154 	andeq	r1, r0, r4, asr r1
    2f9c:	0000812b 	andeq	r8, r0, fp, lsr #2
    2fa0:	07001600 	streq	r1, [r0, -r0, lsl #12]
    2fa4:	00001144 	andeq	r1, r0, r4, asr #2
    2fa8:	00014731 	andeq	r4, r1, r1, lsr r7
    2fac:	6f210600 	svcvs	0x00210600
    2fb0:	32000011 	andcc	r0, r0, #17
    2fb4:	0000002c 	andeq	r0, r0, ip, lsr #32
    2fb8:	00002c32 	andeq	r2, r0, r2, lsr ip
    2fbc:	84330000 	ldrthi	r0, [r3], #-0
    2fc0:	07000005 	streq	r0, [r0, -r5]
    2fc4:	00002c57 	andeq	r2, r0, r7, asr ip
    2fc8:	064f3400 	strbeq	r3, [pc], -r0, lsl #8
    2fcc:	24060000 	strcs	r0, [r6], #-0
    2fd0:	00000025 	andeq	r0, r0, r5, lsr #32
    2fd4:	0000118f 	andeq	r1, r0, pc, lsl #3
    2fd8:	00002c32 	andeq	r2, r0, r2, lsr ip
    2fdc:	9f350000 	svcls	0x00350000
    2fe0:	07000003 	streq	r0, [r0, -r3]
    2fe4:	02b3341e 	adcseq	r3, r3, #503316480	; 0x1e000000
    2fe8:	29070000 	stmdbcs	r7, {}	; <UNPREDICTABLE>
    2fec:	00000025 	andeq	r0, r0, r5, lsr #32
    2ff0:	000011ac 	andeq	r1, r0, ip, lsr #3
    2ff4:	00009732 	andeq	r9, r0, r2, lsr r7
    2ff8:	35002f00 	strcc	r2, [r0, #-3840]	; 0xf00
    2ffc:	000000d8 	ldrdeq	r0, [r0], -r8
    3000:	13316607 	teqne	r1, #7340032	; 0x700000
    3004:	06000001 	streq	r0, [r0], -r1
    3008:	0011c41d 	andseq	ip, r1, sp, lsl r4
    300c:	002c3200 	eoreq	r3, ip, r0, lsl #4
    3010:	31000000 	mrscc	r0, (UNDEF: 0)
    3014:	000006c0 	andeq	r0, r0, r0, asr #13
    3018:	11d51c06 	bicsne	r1, r5, r6, lsl #24
    301c:	2c320000 	ldccs	0, cr0, [r2], #-0
    3020:	00000000 	andeq	r0, r0, r0
    3024:	0002b036 	andeq	fp, r2, r6, lsr r0
    3028:	25020800 	strcs	r0, [r2, #-2048]	; 0x800
    302c:	32000000 	andcc	r0, r0, #0
    3030:	0000008a 	andeq	r0, r0, sl, lsl #1
    3034:	00002532 	andeq	r2, r0, r2, lsr r5
    3038:	00973200 	addseq	r3, r7, r0, lsl #4
    303c:	06320000 	ldrteq	r0, [r2], -r0
    3040:	00000001 	andeq	r0, r0, r1
    3044:	00011300 	andeq	r1, r1, r0, lsl #6
    3048:	d6000400 	strle	r0, [r0], -r0, lsl #8
    304c:	0400000e 	streq	r0, [r0], #-14
    3050:	00025901 	andeq	r5, r2, r1, lsl #18
    3054:	08a40100 	stmiaeq	r4!, {r8}
    3058:	02c40000 	sbceq	r0, r4, #0
    305c:	951c0000 	ldrls	r0, [ip, #-0]
    3060:	003c0000 	eorseq	r0, ip, r0
    3064:	0cb70000 	ldceq	0, cr0, [r7]
    3068:	04020000 	streq	r0, [r2], #-0
    306c:	746e6905 	strbtvc	r6, [lr], #-2309	; 0x905
    3070:	07040300 	streq	r0, [r4, -r0, lsl #6]
    3074:	00000135 	andeq	r0, r0, r5, lsr r1
    3078:	cc060103 	stfgts	f0, [r6], {3}
    307c:	03000000 	movweq	r0, #0
    3080:	01df0502 	bicseq	r0, pc, r2, lsl #10
    3084:	04030000 	streq	r0, [r3], #-0
    3088:	00016005 	andeq	r6, r1, r5
    308c:	05080300 	streq	r0, [r8, #-768]	; 0x300
    3090:	0000015b 	andeq	r0, r0, fp, asr r1
    3094:	ca080103 	bgt	2034a8 <__bss_end__+0x1f9680>
    3098:	03000000 	movweq	r0, #0
    309c:	00ec0702 	rsceq	r0, ip, r2, lsl #14
    30a0:	04030000 	streq	r0, [r3], #-0
    30a4:	00013007 	andeq	r3, r1, r7
    30a8:	07080300 	streq	r0, [r8, -r0, lsl #6]
    30ac:	0000012b 	andeq	r0, r0, fp, lsr #2
    30b0:	52070403 	andpl	r0, r7, #50331648	; 0x3000000
    30b4:	03000001 	movweq	r0, #1
    30b8:	00d30801 	sbcseq	r0, r3, r1, lsl #16
    30bc:	93040000 	movwls	r0, #16384	; 0x4000
    30c0:	01000008 	tsteq	r0, r8
    30c4:	00002503 	andeq	r2, r0, r3, lsl #10
    30c8:	00951c00 	addseq	r1, r5, r0, lsl #24
    30cc:	00001400 	andeq	r1, r0, r0, lsl #8
    30d0:	b09c0100 	addslt	r0, ip, r0, lsl #2
    30d4:	05000000 	streq	r0, [r0, #-0]
    30d8:	03010063 	movweq	r0, #4195	; 0x1063
    30dc:	00000025 	andeq	r0, r0, r5, lsr #32
    30e0:	000021a3 	andeq	r2, r0, r3, lsr #3
    30e4:	00952806 	addseq	r2, r5, r6, lsl #16
    30e8:	00010900 	andeq	r0, r1, r0, lsl #18
    30ec:	50010700 	andpl	r0, r1, r0, lsl #14
    30f0:	00007402 	andeq	r7, r0, r2, lsl #8
    30f4:	039f0800 	orrseq	r0, pc, #0, 16
    30f8:	08010000 	stmdaeq	r1, {}	; <UNPREDICTABLE>
    30fc:	00009530 	andeq	r9, r0, r0, lsr r5
    3100:	00000018 	andeq	r0, r0, r8, lsl r0
    3104:	b3099c01 	movwlt	r9, #39937	; 0x9c01
    3108:	01000008 	tsteq	r0, r8
    310c:	0095480b 	addseq	r4, r5, fp, lsl #16
    3110:	00001000 	andeq	r1, r0, r0
    3114:	e39c0100 	orrs	r0, ip, #0, 2
    3118:	0a000000 	beq	3120 <_start-0x4ee0>
    311c:	01007066 	tsteq	r0, r6, rrx
    3120:	0000f20b 	andeq	pc, r0, fp, lsl #4
    3124:	00500100 	subseq	r0, r0, r0, lsl #2
    3128:	0000250b 	andeq	r2, r0, fp, lsl #10
    312c:	0000f200 	andeq	pc, r0, r0, lsl #4
    3130:	00250c00 	eoreq	r0, r5, r0, lsl #24
    3134:	0d000000 	stceq	0, cr0, [r0, #-0]
    3138:	0000e304 	andeq	lr, r0, r4, lsl #6
    313c:	032c0e00 	teqeq	ip, #0, 28
    3140:	06010000 	streq	r0, [r1], -r0
    3144:	000000f2 	strdeq	r0, [r0], -r2
    3148:	97800305 	strls	r0, [r0, r5, lsl #6]
    314c:	a30f0000 	movwge	r0, #61440	; 0xf000
    3150:	02000004 	andeq	r0, r0, #4
    3154:	002c0c3c 	eoreq	r0, ip, ip, lsr ip
    3158:	00000000 	andeq	r0, r0, r0
    315c:	000001c3 	andeq	r0, r0, r3, asr #3
    3160:	0fbe0004 	svceq	0x00be0004
    3164:	01040000 	mrseq	r0, (UNDEF: 4)
    3168:	00000259 	andeq	r0, r0, r9, asr r2
    316c:	0008d501 	andeq	sp, r8, r1, lsl #10
    3170:	0002c400 	andeq	ip, r2, r0, lsl #8
    3174:	00955800 	addseq	r5, r5, r0, lsl #16
    3178:	00005000 	andeq	r5, r0, r0
    317c:	000d4500 	andeq	r4, sp, r0, lsl #10
    3180:	05040200 	streq	r0, [r4, #-512]	; 0x200
    3184:	00746e69 	rsbseq	r6, r4, r9, ror #28
    3188:	0008c003 	andeq	ip, r8, r3
    318c:	37d40200 	ldrbcc	r0, [r4, r0, lsl #4]
    3190:	04000000 	streq	r0, [r0], #-0
    3194:	01350704 	teqeq	r5, r4, lsl #14
    3198:	01040000 	mrseq	r0, (UNDEF: 4)
    319c:	0000cc06 	andeq	ip, r0, r6, lsl #24
    31a0:	05020400 	streq	r0, [r2, #-1024]	; 0x400
    31a4:	000001df 	ldrdeq	r0, [r0], -pc	; <UNPREDICTABLE>
    31a8:	60050404 	andvs	r0, r5, r4, lsl #8
    31ac:	04000001 	streq	r0, [r0], #-1
    31b0:	015b0508 	cmpeq	fp, r8, lsl #10
    31b4:	ad030000 	stcge	0, cr0, [r3, #-0]
    31b8:	03000004 	movweq	r0, #4
    31bc:	0000652e 	andeq	r6, r0, lr, lsr #10
    31c0:	08010400 	stmdaeq	r1, {sl}
    31c4:	000000ca 	andeq	r0, r0, sl, asr #1
    31c8:	ec070204 	sfm	f0, 4, [r7], {4}
    31cc:	03000000 	movweq	r0, #0
    31d0:	00000504 	andeq	r0, r0, r4, lsl #10
    31d4:	007e3403 	rsbseq	r3, lr, r3, lsl #8
    31d8:	04040000 	streq	r0, [r4], #-0
    31dc:	00013007 	andeq	r3, r1, r7
    31e0:	07080400 	streq	r0, [r8, -r0, lsl #8]
    31e4:	0000012b 	andeq	r0, r0, fp, lsr #2
    31e8:	52070404 	andpl	r0, r7, #4, 8	; 0x4000000
    31ec:	05000001 	streq	r0, [r0, #-1]
    31f0:	08010404 	stmdaeq	r1, {r2, sl}
    31f4:	000000d3 	ldrdeq	r0, [r0], -r3
    31f8:	0e040c06 	cdpeq	12, 0, cr0, cr4, cr6, {0}
    31fc:	000000d3 	ldrdeq	r0, [r0], -r3
    3200:	00787407 	rsbseq	r7, r8, r7, lsl #8
    3204:	005a0f04 	subseq	r0, sl, r4, lsl #30
    3208:	07000000 	streq	r0, [r0, -r0]
    320c:	04007872 	streq	r7, [r0], #-2162	; 0x872
    3210:	00005a0f 	andeq	r5, r0, pc, lsl #20
    3214:	7b080100 	blvc	20361c <__bss_end__+0x1f97f4>
    3218:	04000004 	streq	r0, [r0], #-4
    321c:	00007310 	andeq	r7, r0, r0, lsl r3
    3220:	2c080400 	cfstrscs	mvf0, [r8], {-0}
    3224:	04000004 	streq	r0, [r0], #-4
    3228:	00007311 	andeq	r7, r0, r1, lsl r3
    322c:	03000800 	movweq	r0, #2048	; 0x800
    3230:	00000464 	andeq	r0, r0, r4, ror #8
    3234:	009c1204 	addseq	r1, ip, r4, lsl #4
    3238:	01090000 	mrseq	r0, (UNDEF: 9)
    323c:	00f91005 	rscseq	r1, r9, r5
    3240:	800a0000 	andhi	r0, sl, r0
    3244:	01000004 	tsteq	r0, r4
    3248:	00046e0a 	andeq	r6, r4, sl, lsl #28
    324c:	560a0200 	strpl	r0, [sl], -r0, lsl #4
    3250:	03000004 	movweq	r0, #4
    3254:	04950300 	ldreq	r0, [r5], #768	; 0x300
    3258:	10050000 	andne	r0, r5, r0
    325c:	000000de 	ldrdeq	r0, [r0], -lr
    3260:	14051406 	strne	r1, [r5], #-1030	; 0x406
    3264:	00000131 	andeq	r0, r0, r1, lsr r1
    3268:	00050d08 	andeq	r0, r5, r8, lsl #26
    326c:	37150500 	ldrcc	r0, [r5, -r0, lsl #10]
    3270:	00000000 	andeq	r0, r0, r0
    3274:	0004f808 	andeq	pc, r4, r8, lsl #16
    3278:	f9180500 			; <UNDEFINED> instruction: 0xf9180500
    327c:	04000000 	streq	r0, [r0], #-0
    3280:	0004c308 	andeq	ip, r4, r8, lsl #6
    3284:	d31b0500 	tstle	fp, #0, 10
    3288:	08000000 	stmdaeq	r0, {}	; <UNPREDICTABLE>
    328c:	04b50300 	ldrteq	r0, [r5], #768	; 0x300
    3290:	20050000 	andcs	r0, r5, r0
    3294:	00000104 	andeq	r0, r0, r4, lsl #2
    3298:	0008ce0b 	andeq	ip, r8, fp, lsl #28
    329c:	7e050100 	adfvcs	f0, f5, f0
    32a0:	58000001 	stmdapl	r0, {r0}
    32a4:	28000095 	stmdacs	r0, {r0, r2, r4, r7}
    32a8:	01000000 	mrseq	r0, (UNDEF: 0)
    32ac:	00017e9c 	muleq	r1, ip, lr
    32b0:	00630c00 	rsbeq	r0, r3, r0, lsl #24
    32b4:	017e0601 	cmneq	lr, r1, lsl #12
    32b8:	00000000 	andeq	r0, r0, r0
    32bc:	6c0d0900 	stcvs	9, cr0, [sp], {-0}
    32c0:	ab000095 	blge	351c <_start-0x4ae4>
    32c4:	0e000001 	cdpeq	0, 0, cr0, cr0, cr1, {0}
    32c8:	34015201 	strcc	r5, [r1], #-513	; 0x201
    32cc:	0151010e 	cmpeq	r1, lr, lsl #2
    32d0:	50010e30 	andpl	r0, r1, r0, lsr lr
    32d4:	24474203 	strbcs	r4, [r7], #-515	; 0x203
    32d8:	040f0000 	streq	r0, [pc], #-0	; 32e0 <_start-0x4d20>
    32dc:	00000131 	andeq	r0, r0, r1, lsr r1
    32e0:	0004cb0b 	andeq	ip, r4, fp, lsl #22
    32e4:	7e0c0100 	adfvce	f0, f4, f0
    32e8:	80000001 	andhi	r0, r0, r1
    32ec:	28000095 	stmdacs	r0, {r0, r2, r4, r7}
    32f0:	01000000 	mrseq	r0, (UNDEF: 0)
    32f4:	0001ab9c 	muleq	r1, ip, fp
    32f8:	00630c00 	rsbeq	r0, r3, r0, lsl #24
    32fc:	017e0d01 	cmneq	lr, r1, lsl #26
    3300:	00000000 	andeq	r0, r0, r0
    3304:	10000900 	andne	r0, r0, r0, lsl #18
    3308:	000008c7 	andeq	r0, r0, r7, asr #17
    330c:	00931b06 	addseq	r1, r3, r6, lsl #22
    3310:	93110000 	tstls	r1, #0
    3314:	11000000 	mrsne	r0, (UNDEF: 0)
    3318:	00000025 	andeq	r0, r0, r5, lsr #32
    331c:	00002c11 	andeq	r2, r0, r1, lsl ip
    3320:	ff000000 			; <UNDEFINED> instruction: 0xff000000
    3324:	04000003 	streq	r0, [r0], #-3
    3328:	0010a200 	andseq	sl, r0, r0, lsl #4
    332c:	59010400 	stmdbpl	r1, {sl}
    3330:	01000002 	tsteq	r0, r2
    3334:	000009c1 	andeq	r0, r0, r1, asr #19
    3338:	000002c4 	andeq	r0, r0, r4, asr #5
    333c:	000095a8 	andeq	r9, r0, r8, lsr #11
    3340:	00000154 	andeq	r0, r0, r4, asr r1
    3344:	00000e71 	andeq	r0, r0, r1, ror lr
    3348:	69050402 	stmdbvs	r5, {r1, sl}
    334c:	0300746e 	movweq	r7, #1134	; 0x46e
    3350:	01350704 	teqeq	r5, r4, lsl #14
    3354:	01030000 	mrseq	r0, (UNDEF: 3)
    3358:	0000cc06 	andeq	ip, r0, r6, lsl #24
    335c:	05020300 	streq	r0, [r2, #-768]	; 0x300
    3360:	000001df 	ldrdeq	r0, [r0], -pc	; <UNPREDICTABLE>
    3364:	60050403 	andvs	r0, r5, r3, lsl #8
    3368:	03000001 	movweq	r0, #1
    336c:	015b0508 	cmpeq	fp, r8, lsl #10
    3370:	01030000 	mrseq	r0, (UNDEF: 3)
    3374:	0000ca08 	andeq	ip, r0, r8, lsl #20
    3378:	07020300 	streq	r0, [r2, -r0, lsl #6]
    337c:	000000ec 	andeq	r0, r0, ip, ror #1
    3380:	30070403 	andcc	r0, r7, r3, lsl #8
    3384:	03000001 	movweq	r0, #1
    3388:	012b0708 	teqeq	fp, r8, lsl #14
    338c:	04030000 	streq	r0, [r3], #-0
    3390:	00015207 	andeq	r5, r1, r7, lsl #4
    3394:	08010300 	stmdaeq	r1, {r8, r9}
    3398:	000000d3 	ldrdeq	r0, [r0], -r3
    339c:	0c020104 	stfeqs	f0, [r2], {4}
    33a0:	000000b2 	strheq	r0, [r0], -r2
    33a4:	00061305 	andeq	r1, r6, r5, lsl #6
    33a8:	f7050000 			; <UNDEFINED> instruction: 0xf7050000
    33ac:	01000006 	tsteq	r0, r6
    33b0:	00073005 	andeq	r3, r7, r5
    33b4:	3f050400 	svccc	0x00050400
    33b8:	05000007 	streq	r0, [r0, #-7]
    33bc:	00074e05 	andeq	r4, r7, r5, lsl #28
    33c0:	5d050600 	stcpl	6, cr0, [r5, #-0]
    33c4:	07000007 	streq	r0, [r0, -r7]
    33c8:	00076c05 	andeq	r6, r7, r5, lsl #24
    33cc:	7b050300 	blvc	143fd4 <__bss_end__+0x13a1ac>
    33d0:	02000007 	andeq	r0, r0, #7
    33d4:	07240600 	streq	r0, [r4, -r0, lsl #12]!
    33d8:	15020000 	strne	r0, [r2, #-0]
    33dc:	00000079 	andeq	r0, r0, r9, ror r0
    33e0:	00094807 	andeq	r4, r9, r7, lsl #16
    33e4:	a8370100 	ldmdage	r7!, {r8}
    33e8:	9c000095 	stcls	0, cr0, [r0], {149}	; 0x95
    33ec:	01000000 	mrseq	r0, (UNDEF: 0)
    33f0:	0001c39c 	muleq	r1, ip, r3
    33f4:	95b00800 	ldrls	r0, [r0, #2048]!	; 0x800
    33f8:	03a80000 			; <UNDEFINED> instruction: 0x03a80000
    33fc:	bc090000 	stclt	0, cr0, [r9], {-0}
    3400:	af000095 	svcge	0x00000095
    3404:	f3000003 	vhadd.u8	d0, d0, d3
    3408:	0a000000 	beq	3410 <_start-0x4bf0>
    340c:	32015101 	andcc	r5, r1, #1073741824	; 0x40000000
    3410:	0150010a 	cmpeq	r0, sl, lsl #2
    3414:	c809003e 	stmdagt	r9, {r1, r2, r3, r4, r5}
    3418:	af000095 	svcge	0x00000095
    341c:	0b000003 	bleq	3430 <_start-0x4bd0>
    3420:	0a000001 	beq	342c <_start-0x4bd4>
    3424:	32015101 	andcc	r5, r1, #1073741824	; 0x40000000
    3428:	0150010a 	cmpeq	r0, sl, lsl #2
    342c:	cc08003f 	stcgt	0, cr0, [r8], {63}	; 0x3f
    3430:	a8000095 	stmdage	r0, {r0, r2, r4, r7}
    3434:	09000003 	stmdbeq	r0, {r0, r1}
    3438:	000095dc 	ldrdeq	r9, [r0], -ip
    343c:	000003c5 	andeq	r0, r0, r5, asr #7
    3440:	00000128 	andeq	r0, r0, r8, lsr #2
    3444:	0250010a 	subseq	r0, r0, #-2147483646	; 0x80000002
    3448:	09000075 	stmdbeq	r0, {r0, r2, r4, r5, r6}
    344c:	000095e8 	andeq	r9, r0, r8, ror #11
    3450:	000003e6 	andeq	r0, r0, r6, ror #7
    3454:	0000013c 	andeq	r0, r0, ip, lsr r1
    3458:	0250010a 	subseq	r0, r0, #-2147483646	; 0x80000002
    345c:	08000075 	stmdaeq	r0, {r0, r2, r4, r5, r6}
    3460:	000095ec 	andeq	r9, r0, ip, ror #11
    3464:	000003a8 	andeq	r0, r0, r8, lsr #7
    3468:	0095f809 	addseq	pc, r5, r9, lsl #16
    346c:	0003e600 	andeq	lr, r3, r0, lsl #12
    3470:	00015800 	andeq	r5, r1, r0, lsl #16
    3474:	51010a00 	tstpl	r1, r0, lsl #20
    3478:	09003001 	stmdbeq	r0, {r0, ip, sp}
    347c:	00009604 	andeq	r9, r0, r4, lsl #12
    3480:	000003e6 	andeq	r0, r0, r6, ror #7
    3484:	0000016b 	andeq	r0, r0, fp, ror #2
    3488:	0151010a 	cmpeq	r1, sl, lsl #2
    348c:	10090030 	andne	r0, r9, r0, lsr r0
    3490:	e6000096 			; <UNDEFINED> instruction: 0xe6000096
    3494:	7e000003 	cdpvc	0, 0, cr0, cr0, cr3, {0}
    3498:	0a000001 	beq	34a4 <_start-0x4b5c>
    349c:	36015101 	strcc	r5, [r1], -r1, lsl #2
    34a0:	961c0900 	ldrls	r0, [ip], -r0, lsl #18
    34a4:	03e60000 	mvneq	r0, #0
    34a8:	01910000 	orrseq	r0, r1, r0
    34ac:	010a0000 	mrseq	r0, (UNDEF: 10)
    34b0:	00330151 	eorseq	r0, r3, r1, asr r1
    34b4:	00962809 	addseq	r2, r6, r9, lsl #16
    34b8:	0003e600 	andeq	lr, r3, r0, lsl #12
    34bc:	0001a600 	andeq	sl, r1, r0, lsl #12
    34c0:	51010a00 	tstpl	r1, r0, lsl #20
    34c4:	010e0a03 	tsteq	lr, r3, lsl #20
    34c8:	96340900 	ldrtls	r0, [r4], -r0, lsl #18
    34cc:	03e60000 	mvneq	r0, #0
    34d0:	01b90000 			; <UNDEFINED> instruction: 0x01b90000
    34d4:	010a0000 	mrseq	r0, (UNDEF: 10)
    34d8:	00330151 	eorseq	r0, r3, r1, asr r1
    34dc:	00963808 	addseq	r3, r6, r8, lsl #16
    34e0:	0003a800 	andeq	sl, r3, r0, lsl #16
    34e4:	1c0b0000 	stcne	0, cr0, [fp], {-0}
    34e8:	01000009 	tsteq	r0, r9
    34ec:	00002557 	andeq	r2, r0, r7, asr r5
    34f0:	00964400 	addseq	r4, r6, r0, lsl #8
    34f4:	00001c00 	andeq	r1, r0, r0, lsl #24
    34f8:	e69c0100 	ldr	r0, [ip], r0, lsl #2
    34fc:	08000001 	stmdaeq	r0, {r0}
    3500:	00009654 	andeq	r9, r0, r4, asr r6
    3504:	000003c5 	andeq	r0, r0, r5, asr #7
    3508:	07dc0b00 	ldrbeq	r0, [ip, r0, lsl #22]
    350c:	5d010000 	stcpl	0, cr0, [r1, #-0]
    3510:	00000025 	andeq	r0, r0, r5, lsr #32
    3514:	00009660 	andeq	r9, r0, r0, ror #12
    3518:	00000028 	andeq	r0, r0, r8, lsr #32
    351c:	02129c01 	andseq	r9, r2, #256	; 0x100
    3520:	68080000 	stmdavs	r8, {}	; <UNPREDICTABLE>
    3524:	c3000096 	movwgt	r0, #150	; 0x96
    3528:	08000001 	stmdaeq	r0, {r0}
    352c:	0000967c 	andeq	r9, r0, ip, ror r6
    3530:	000003c5 	andeq	r0, r0, r5, asr #7
    3534:	09700b00 	ldmdbeq	r0!, {r8, r9, fp}^
    3538:	64010000 	strvs	r0, [r1], #-0
    353c:	00000025 	andeq	r0, r0, r5, lsr #32
    3540:	00009688 	andeq	r9, r0, r8, lsl #13
    3544:	0000001c 	andeq	r0, r0, ip, lsl r0
    3548:	02359c01 	eorseq	r9, r5, #256	; 0x100
    354c:	98080000 	stmdals	r8, {}	; <UNPREDICTABLE>
    3550:	c5000096 	strgt	r0, [r0, #-150]	; 0x96
    3554:	00000003 	andeq	r0, r0, r3
    3558:	0004a307 	andeq	sl, r4, r7, lsl #6
    355c:	a46a0100 	strbtge	r0, [sl], #-256	; 0x100
    3560:	2c000096 	stccs	0, cr0, [r0], {150}	; 0x96
    3564:	01000000 	mrseq	r0, (UNDEF: 0)
    3568:	0002719c 	muleq	r2, ip, r1
    356c:	00630c00 	rsbeq	r0, r3, r0, lsl #24
    3570:	002c6a01 	eoreq	r6, ip, r1, lsl #20
    3574:	21c10000 	biccs	r0, r1, r0
    3578:	b0080000 	andlt	r0, r8, r0
    357c:	12000096 	andne	r0, r0, #150	; 0x96
    3580:	0d000002 	stceq	0, cr0, [r0, #-8]
    3584:	000096c8 	andeq	r9, r0, r8, asr #13
    3588:	000003e6 	andeq	r0, r0, r6, ror #7
    358c:	0251010a 	subseq	r0, r1, #-2147483646	; 0x80000002
    3590:	00000074 	andeq	r0, r0, r4, ror r0
    3594:	00093a0b 	andeq	r3, r9, fp, lsl #20
    3598:	25740100 	ldrbcs	r0, [r4, #-256]!	; 0x100
    359c:	d0000000 	andle	r0, r0, r0
    35a0:	0c000096 	stceq	0, cr0, [r0], {150}	; 0x96
    35a4:	01000000 	mrseq	r0, (UNDEF: 0)
    35a8:	0002949c 	muleq	r2, ip, r4
    35ac:	96d80800 	ldrbls	r0, [r8], r0, lsl #16
    35b0:	01c30000 	biceq	r0, r3, r0
    35b4:	0b000000 	bleq	35bc <_start-0x4a44>
    35b8:	000009ed 	andeq	r0, r0, sp, ror #19
    35bc:	00257801 	eoreq	r7, r5, r1, lsl #16
    35c0:	96dc0000 	ldrbls	r0, [ip], r0
    35c4:	00200000 	eoreq	r0, r0, r0
    35c8:	9c010000 	stcls	0, cr0, [r1], {-0}
    35cc:	000002c0 	andeq	r0, r0, r0, asr #5
    35d0:	0096e408 	addseq	lr, r6, r8, lsl #8
    35d4:	00027100 	andeq	r7, r2, r0, lsl #2
    35d8:	96f00800 	ldrbtls	r0, [r0], r0, lsl #16
    35dc:	01e60000 	mvneq	r0, r0
    35e0:	0e000000 	cdpeq	0, 0, cr0, cr0, cr0, {0}
    35e4:	0000098a 	andeq	r0, r0, sl, lsl #19
    35e8:	02d11601 	sbcseq	r1, r1, #1048576	; 0x100000
    35ec:	03050000 	movweq	r0, #20480	; 0x5000
    35f0:	000097b4 			; <UNDEFINED> instruction: 0x000097b4
    35f4:	02d7040f 	sbcseq	r0, r7, #251658240	; 0xf000000
    35f8:	2c100000 	ldccs	0, cr0, [r0], {-0}
    35fc:	0e000000 	cdpeq	0, 0, cr0, cr0, cr0, {0}
    3600:	0000097e 	andeq	r0, r0, lr, ror r9
    3604:	02d11701 	sbcseq	r1, r1, #262144	; 0x40000
    3608:	03050000 	movweq	r0, #20480	; 0x5000
    360c:	00009784 	andeq	r9, r0, r4, lsl #15
    3610:	0008ff0e 	andeq	pc, r8, lr, lsl #30
    3614:	d11a0100 	tstle	sl, r0, lsl #2
    3618:	05000002 	streq	r0, [r0, #-2]
    361c:	0097a003 	addseq	sl, r7, r3
    3620:	09520e00 	ldmdbeq	r2, {r9, sl, fp}^
    3624:	1b010000 	blne	4362c <__bss_end__+0x39804>
    3628:	000002d1 	ldrdeq	r0, [r0], -r1
    362c:	978c0305 	strls	r0, [ip, r5, lsl #6]
    3630:	610e0000 	mrsvs	r0, (UNDEF: 14)
    3634:	01000009 	tsteq	r0, r9
    3638:	0002d11c 	andeq	sp, r2, ip, lsl r1
    363c:	90030500 	andls	r0, r3, r0, lsl #10
    3640:	0e000097 	mcreq	0, 0, r0, cr0, cr7, {4}
    3644:	000009cf 	andeq	r0, r0, pc, asr #19
    3648:	02d11d01 	sbcseq	r1, r1, #1, 26	; 0x40
    364c:	03050000 	movweq	r0, #20480	; 0x5000
    3650:	00009794 	muleq	r0, r4, r7
    3654:	0008f00e 	andeq	pc, r8, lr
    3658:	d11e0100 	tstle	lr, r0, lsl #2
    365c:	05000002 	streq	r0, [r0, #-2]
    3660:	0097b003 	addseq	fp, r7, r3
    3664:	09de0e00 	ldmibeq	lr, {r9, sl, fp}^
    3668:	1f010000 	svcne	0x00010000
    366c:	000002d1 	ldrdeq	r0, [r0], -r1
    3670:	979c0305 	ldrls	r0, [ip, r5, lsl #6]
    3674:	0d0e0000 	stceq	0, cr0, [lr, #-0]
    3678:	01000009 	tsteq	r0, r9
    367c:	0002d120 	andeq	sp, r2, r0, lsr #2
    3680:	ac030500 	cfstr32ge	mvfx0, [r3], {-0}
    3684:	0e000097 	mcreq	0, 0, r0, cr0, cr7, {4}
    3688:	000009b2 			; <UNDEFINED> instruction: 0x000009b2
    368c:	02d12101 	sbcseq	r2, r1, #1073741824	; 0x40000000
    3690:	03050000 	movweq	r0, #20480	; 0x5000
    3694:	000097a8 	andeq	r9, r0, r8, lsr #15
    3698:	00092a0e 	andeq	r2, r9, lr, lsl #20
    369c:	d1220100 	teqle	r2, r0, lsl #2
    36a0:	05000002 	streq	r0, [r0, #-2]
    36a4:	00978803 	addseq	r8, r7, r3, lsl #16
    36a8:	09a20e00 	stmibeq	r2!, {r9, sl, fp}
    36ac:	23010000 	movwcs	r0, #4096	; 0x1000
    36b0:	000002d1 	ldrdeq	r0, [r0], -r1
    36b4:	97a40305 	strls	r0, [r4, r5, lsl #6]!
    36b8:	920e0000 	andls	r0, lr, #0
    36bc:	01000009 	tsteq	r0, r9
    36c0:	0002d124 	andeq	sp, r2, r4, lsr #2
    36c4:	98030500 	stmdals	r3, {r8, sl}
    36c8:	11000097 	swpne	r0, r7, [r0]	; <UNPREDICTABLE>
    36cc:	00000643 	andeq	r0, r0, r3, asr #12
    36d0:	6e128a03 	vnmlsvs.f32	s16, s4, s6
    36d4:	02000006 	andeq	r0, r0, #6
    36d8:	0003c519 	andeq	ip, r3, r9, lsl r5
    36dc:	002c1300 	eoreq	r1, ip, r0, lsl #6
    36e0:	b2130000 	andslt	r0, r3, #0
    36e4:	00000000 	andeq	r0, r0, r0
    36e8:	00070814 	andeq	r0, r7, r4, lsl r8
    36ec:	2ca90300 	stccs	3, cr0, [r9]
    36f0:	da000000 	ble	36f8 <_start-0x4908>
    36f4:	13000003 	movwne	r0, #3
    36f8:	000003da 	ldrdeq	r0, [r0], -sl
    36fc:	e0040f00 	and	r0, r4, r0, lsl #30
    3700:	15000003 	strne	r0, [r0, #-3]
    3704:	000003e5 	andeq	r0, r0, r5, ror #7
    3708:	00ff1216 	rscseq	r1, pc, r6, lsl r2	; <UNPREDICTABLE>
    370c:	9d030000 	stcls	0, cr0, [r3, #-0]
    3710:	000003fc 	strdeq	r0, [r0], -ip
    3714:	0003fc13 	andeq	pc, r3, r3, lsl ip	; <UNPREDICTABLE>
    3718:	002c1300 	eoreq	r1, ip, r0, lsl #6
    371c:	0f000000 	svceq	0x00000000
    3720:	0003e504 	andeq	lr, r3, r4, lsl #10
    3724:	00db0000 	sbcseq	r0, fp, r0
    3728:	00040000 	andeq	r0, r4, r0
    372c:	000011d0 	ldrdeq	r1, [r0], -r0
    3730:	02590104 	subseq	r0, r9, #4, 2
    3734:	fd010000 	stc2	0, cr0, [r1, #-0]
    3738:	c4000009 	strgt	r0, [r0], #-9
    373c:	fc000002 	stc2	0, cr0, [r0], {2}
    3740:	20000096 	mulcs	r0, r6, r0
    3744:	76000000 	strvc	r0, [r0], -r0
    3748:	0200000f 	andeq	r0, r0, #15
    374c:	00cc0601 	sbceq	r0, ip, r1, lsl #12
    3750:	01020000 	mrseq	r0, (UNDEF: 2)
    3754:	0000ca08 	andeq	ip, r0, r8, lsl #20
    3758:	05020200 	streq	r0, [r2, #-512]	; 0x200
    375c:	000001df 	ldrdeq	r0, [r0], -pc	; <UNPREDICTABLE>
    3760:	ec070202 	sfm	f0, 4, [r7], {2}
    3764:	03000000 	movweq	r0, #0
    3768:	6e690504 	cdpvs	5, 6, cr0, cr9, cr4, {0}
    376c:	04020074 	streq	r0, [r2], #-116	; 0x74
    3770:	00013507 	andeq	r3, r1, r7, lsl #10
    3774:	05080200 	streq	r0, [r8, #-512]	; 0x200
    3778:	0000015b 	andeq	r0, r0, fp, asr r1
    377c:	2b070802 	blcs	1c578c <__bss_end__+0x1bb964>
    3780:	02000001 	andeq	r0, r0, #1
    3784:	01600504 	cmneq	r0, r4, lsl #10
    3788:	04020000 	streq	r0, [r2], #-0
    378c:	00015207 	andeq	r5, r1, r7, lsl #4
    3790:	02040400 	andeq	r0, r4, #0, 8
    3794:	01300704 	teqeq	r0, r4, lsl #14
    3798:	04050000 	streq	r0, [r5], #-0
    379c:	0000007a 	andeq	r0, r0, sl, ror r0
    37a0:	d3080102 	movwle	r0, #33026	; 0x8102
    37a4:	06000000 	streq	r0, [r0], -r0
    37a8:	000008c0 	andeq	r0, r0, r0, asr #17
    37ac:	0048d402 	subeq	sp, r8, r2, lsl #8
    37b0:	c7070000 	strgt	r0, [r7, -r0]
    37b4:	03000008 	movweq	r0, #8
    37b8:	00006b1b 	andeq	r6, r0, fp, lsl fp
    37bc:	0096fc00 	addseq	pc, r6, r0, lsl #24
    37c0:	00002000 	andeq	r2, r0, r0
    37c4:	089c0100 	ldmeq	ip, {r8}
    37c8:	0100705f 	qaddeq	r7, pc, r0	; <UNPREDICTABLE>
    37cc:	00006b03 	andeq	r6, r0, r3, lsl #22
    37d0:	08500100 	ldmdaeq	r0, {r8}^
    37d4:	03010063 	movweq	r0, #4195	; 0x1063
    37d8:	00000041 	andeq	r0, r0, r1, asr #32
    37dc:	6e095101 	adfvse	f5, f1, f1
    37e0:	81030100 	mrshi	r0, (UNDEF: 19)
    37e4:	df000000 	svcle	0x00000000
    37e8:	0a000021 	beq	3874 <_start-0x478c>
    37ec:	04010070 	streq	r0, [r1], #-112	; 0x70
    37f0:	00000074 	andeq	r0, r0, r4, ror r0
    37f4:	00002200 	andeq	r2, r0, r0, lsl #4
    37f8:	0100650b 	tsteq	r0, fp, lsl #10
    37fc:	00007404 	andeq	r7, r0, r4, lsl #8
    3800:	00520100 	subseq	r0, r2, r0, lsl #2
	...

Disassembly of section .debug_abbrev:

00000000 <.debug_abbrev>:
       0:	25011101 	strcs	r1, [r1, #-257]	; 0x101
       4:	030b130e 	movweq	r1, #45838	; 0xb30e
       8:	110e1b0e 	tstne	lr, lr, lsl #22
       c:	10061201 	andne	r1, r6, r1, lsl #4
      10:	02000017 	andeq	r0, r0, #23
      14:	0b0b0024 	bleq	2c00ac <__bss_end__+0x2b6284>
      18:	08030b3e 	stmdaeq	r3, {r1, r2, r3, r4, r5, r8, r9, fp}
      1c:	24030000 	strcs	r0, [r3], #-0
      20:	3e0b0b00 	vmlacc.f64	d0, d11, d0
      24:	000e030b 	andeq	r0, lr, fp, lsl #6
      28:	000f0400 	andeq	r0, pc, r0, lsl #8
      2c:	13490b0b 	movtne	r0, #39691	; 0x9b0b
      30:	26050000 	strcs	r0, [r5], -r0
      34:	00134900 	andseq	r4, r3, r0, lsl #18
      38:	012e0600 	teqeq	lr, r0, lsl #12
      3c:	0b3a0e03 	bleq	e83850 <__bss_end__+0xe79a28>
      40:	19270b3b 	stmdbne	r7!, {r0, r1, r3, r4, r5, r8, r9, fp}
      44:	13010b20 	movwne	r0, #6944	; 0x1b20
      48:	05070000 	streq	r0, [r7, #-0]
      4c:	3a080300 	bcc	200c54 <__bss_end__+0x1f6e2c>
      50:	490b3b0b 	stmdbmi	fp, {r0, r1, r3, r8, r9, fp, ip, sp}
      54:	08000013 	stmdaeq	r0, {r0, r1, r4}
      58:	0e030034 	mcreq	0, 0, r0, cr3, cr4, {1}
      5c:	0b3b0b3a 	bleq	ec2d4c <__bss_end__+0xeb8f24>
      60:	00001349 	andeq	r1, r0, r9, asr #6
      64:	49003509 	stmdbmi	r0, {r0, r3, r8, sl, ip, sp}
      68:	0a000013 	beq	bc <_start-0x7f44>
      6c:	193f012e 	ldmdbne	pc!, {r1, r2, r3, r5, r8}	; <UNPREDICTABLE>
      70:	0b3a0e03 	bleq	e83884 <__bss_end__+0xe79a5c>
      74:	19270b3b 	stmdbne	r7!, {r0, r1, r3, r4, r5, r8, r9, fp}
      78:	06120111 			; <UNDEFINED> instruction: 0x06120111
      7c:	42971840 	addsmi	r1, r7, #64, 16	; 0x400000
      80:	00130119 	andseq	r0, r3, r9, lsl r1
      84:	00050b00 	andeq	r0, r5, r0, lsl #22
      88:	0b3a0803 	bleq	e8209c <__bss_end__+0xe78274>
      8c:	13490b3b 	movtne	r0, #39739	; 0x9b3b
      90:	00001702 	andeq	r1, r0, r2, lsl #14
      94:	0300050c 	movweq	r0, #1292	; 0x50c
      98:	3b0b3a0e 	blcc	2ce8d8 <__bss_end__+0x2c4ab0>
      9c:	0213490b 	andseq	r4, r3, #180224	; 0x2c000
      a0:	0d000017 	stceq	0, cr0, [r0, #-92]	; 0xffffffa4
      a4:	0e030034 	mcreq	0, 0, r0, cr3, cr4, {1}
      a8:	0b3b0b3a 	bleq	ec2d98 <__bss_end__+0xeb8f70>
      ac:	18021349 	stmdane	r2, {r0, r3, r6, r8, r9, ip}
      b0:	340e0000 	strcc	r0, [lr], #-0
      b4:	3a080300 	bcc	200cbc <__bss_end__+0x1f6e94>
      b8:	490b3b0b 	stmdbmi	fp, {r0, r1, r3, r8, r9, fp, ip, sp}
      bc:	00180213 	andseq	r0, r8, r3, lsl r2
      c0:	00340f00 	eorseq	r0, r4, r0, lsl #30
      c4:	0b3a0e03 	bleq	e838d8 <__bss_end__+0xe79ab0>
      c8:	13490b3b 	movtne	r0, #39739	; 0x9b3b
      cc:	00001702 	andeq	r1, r0, r2, lsl #14
      d0:	03003410 	movweq	r3, #1040	; 0x410
      d4:	3b0b3a08 	blcc	2ce8fc <__bss_end__+0x2c4ad4>
      d8:	0013490b 	andseq	r4, r3, fp, lsl #18
      dc:	010b1100 	mrseq	r1, (UNDEF: 27)
      e0:	06120111 			; <UNDEFINED> instruction: 0x06120111
      e4:	00001301 	andeq	r1, r0, r1, lsl #6
      e8:	55010b12 	strpl	r0, [r1, #-2834]	; 0xb12
      ec:	00130117 	andseq	r0, r3, r7, lsl r1
      f0:	011d1300 	tsteq	sp, r0, lsl #6
      f4:	01521331 	cmpeq	r2, r1, lsr r3
      f8:	0b581755 	bleq	1605e54 <__bss_end__+0x15fc02c>
      fc:	13010b59 	movwne	r0, #7001	; 0x1b59
     100:	05140000 	ldreq	r0, [r4, #-0]
     104:	02133100 	andseq	r3, r3, #0, 2
     108:	15000017 	strne	r0, [r0, #-23]
     10c:	13310005 	teqne	r1, #5
     110:	0b160000 	bleq	580118 <__bss_end__+0x5762f0>
     114:	00175501 	andseq	r5, r7, r1, lsl #10
     118:	00341700 	eorseq	r1, r4, r0, lsl #14
     11c:	17021331 	smladxne	r2, r1, r3, r1
     120:	1d180000 	ldcne	0, cr0, [r8, #-0]
     124:	52133101 	andspl	r3, r3, #1073741824	; 0x40000000
     128:	58175501 	ldmdapl	r7, {r0, r8, sl, ip, lr}
     12c:	000b590b 	andeq	r5, fp, fp, lsl #18
     130:	00051900 	andeq	r1, r5, r0, lsl #18
     134:	18021331 	stmdane	r2, {r0, r4, r5, r8, r9, ip}
     138:	341a0000 	ldrcc	r0, [sl], #-0
     13c:	1c133100 	ldfnes	f3, [r3], {-0}
     140:	1b000006 	blne	160 <_start-0x7ea0>
     144:	13310034 	teqne	r1, #52	; 0x34
     148:	00001802 	andeq	r1, r0, r2, lsl #16
     14c:	0182891c 	orreq	r8, r2, ip, lsl r9
     150:	31011100 	mrscc	r1, (UNDEF: 17)
     154:	1d000013 	stcne	0, cr0, [r0, #-76]	; 0xffffffb4
     158:	01018289 	smlabbeq	r1, r9, r2, r8
     15c:	42950111 	addsmi	r0, r5, #1073741828	; 0x40000004
     160:	00133119 	andseq	r3, r3, r9, lsl r1
     164:	828a1e00 	addhi	r1, sl, #0, 28
     168:	18020001 	stmdane	r2, {r0}
     16c:	00184291 	mulseq	r8, r1, r2
     170:	00341f00 	eorseq	r1, r4, r0, lsl #30
     174:	0b3a0803 	bleq	e82188 <__bss_end__+0xe78360>
     178:	13490b3b 	movtne	r0, #39739	; 0x9b3b
     17c:	00000b1c 	andeq	r0, r0, ip, lsl fp
     180:	01828920 	orreq	r8, r2, r0, lsr #18
     184:	31011101 	tstcc	r1, r1, lsl #2
     188:	00130113 	andseq	r0, r3, r3, lsl r1
     18c:	00342100 	eorseq	r2, r4, r0, lsl #2
     190:	0b3a0e03 	bleq	e839a4 <__bss_end__+0xe79b7c>
     194:	13490b3b 	movtne	r0, #39739	; 0x9b3b
     198:	0000061c 	andeq	r0, r0, ip, lsl r6
     19c:	3f012e22 	svccc	0x00012e22
     1a0:	3a0e0319 	bcc	380e0c <__bss_end__+0x376fe4>
     1a4:	270b3b0b 	strcs	r3, [fp, -fp, lsl #22]
     1a8:	01193c19 	tsteq	r9, r9, lsl ip
     1ac:	23000013 	movwcs	r0, #19
     1b0:	13490005 	movtne	r0, #36869	; 0x9005
     1b4:	35240000 	strcc	r0, [r4, #-0]!
     1b8:	25000000 	strcs	r0, [r0, #-0]
     1bc:	193f012e 	ldmdbne	pc!, {r1, r2, r3, r5, r8}	; <UNPREDICTABLE>
     1c0:	0b3a0e03 	bleq	e839d4 <__bss_end__+0xe79bac>
     1c4:	19270b3b 	stmdbne	r7!, {r0, r1, r3, r4, r5, r8, r9, fp}
     1c8:	193c1349 	ldmdbne	ip!, {r0, r3, r6, r8, r9, ip}
     1cc:	00001301 	andeq	r1, r0, r1, lsl #6
     1d0:	00001826 	andeq	r1, r0, r6, lsr #16
     1d4:	002e2700 	eoreq	r2, lr, r0, lsl #14
     1d8:	0e03193f 	mcreq	9, 0, r1, cr3, cr15, {1}
     1dc:	0b3b0b3a 	bleq	ec2ecc <__bss_end__+0xeb90a4>
     1e0:	193c1927 	ldmdbne	ip!, {r0, r1, r2, r5, r8, fp, ip}
     1e4:	01000000 	mrseq	r0, (UNDEF: 0)
     1e8:	0e250111 	mcreq	1, 1, r0, cr5, cr1, {0}
     1ec:	0e030b13 	vmoveq.32	d3[0], r0
     1f0:	01110e1b 	tsteq	r1, fp, lsl lr
     1f4:	17100612 			; <UNDEFINED> instruction: 0x17100612
     1f8:	16020000 	strne	r0, [r2], -r0
     1fc:	3a0e0300 	bcc	380e04 <__bss_end__+0x376fdc>
     200:	490b3b0b 	stmdbmi	fp, {r0, r1, r3, r8, r9, fp, ip, sp}
     204:	03000013 	movweq	r0, #19
     208:	0e030113 	mcreq	1, 0, r0, cr3, cr3, {0}
     20c:	0b3a0b0b 	bleq	e82e40 <__bss_end__+0xe79018>
     210:	13010b3b 	movwne	r0, #6971	; 0x1b3b
     214:	0d040000 	stceq	0, cr0, [r4, #-0]
     218:	490e0300 	stmdbmi	lr, {r8, r9}
     21c:	340b3813 	strcc	r3, [fp], #-2067	; 0x813
     220:	05000019 	streq	r0, [r0, #-25]
     224:	0b0b000f 	bleq	2c0268 <__bss_end__+0x2b6440>
     228:	24060000 	strcs	r0, [r6], #-0
     22c:	3e0b0b00 	vmlacc.f64	d0, d11, d0
     230:	0008030b 	andeq	r0, r8, fp, lsl #6
     234:	00240700 	eoreq	r0, r4, r0, lsl #14
     238:	0b3e0b0b 	bleq	f82e6c <__bss_end__+0xf79044>
     23c:	00000e03 	andeq	r0, r0, r3, lsl #28
     240:	0b000f08 	bleq	3e68 <_start-0x4198>
     244:	0013490b 	andseq	r4, r3, fp, lsl #18
     248:	00260900 	eoreq	r0, r6, r0, lsl #18
     24c:	00001349 	andeq	r1, r0, r9, asr #6
     250:	3f012e0a 	svccc	0x00012e0a
     254:	3a0e0319 	bcc	380ec0 <__bss_end__+0x377098>
     258:	270b3b0b 	strcs	r3, [fp, -fp, lsl #22]
     25c:	11134919 	tstne	r3, r9, lsl r9
     260:	40061201 	andmi	r1, r6, r1, lsl #4
     264:	19429718 	stmdbne	r2, {r3, r4, r8, r9, sl, ip, pc}^
     268:	00001301 	andeq	r1, r0, r1, lsl #6
     26c:	0300050b 	movweq	r0, #1291	; 0x50b
     270:	3b0b3a08 	blcc	2cea98 <__bss_end__+0x2c4c70>
     274:	0213490b 	andseq	r4, r3, #180224	; 0x2c000
     278:	0c000018 	stceq	0, cr0, [r0], {24}
     27c:	00000018 	andeq	r0, r0, r8, lsl r0
     280:	0300340d 	movweq	r3, #1037	; 0x40d
     284:	3b0b3a08 	blcc	2ceaac <__bss_end__+0x2c4c84>
     288:	0213490b 	andseq	r4, r3, #180224	; 0x2c000
     28c:	0e000018 	mcreq	0, 0, r0, cr0, cr8, {0}
     290:	0e030034 	mcreq	0, 0, r0, cr3, cr4, {1}
     294:	0b3b0b3a 	bleq	ec2f84 <__bss_end__+0xeb915c>
     298:	18021349 	stmdane	r2, {r0, r3, r6, r8, r9, ip}
     29c:	340f0000 	strcc	r0, [pc], #-0	; 2a4 <_start-0x7d5c>
     2a0:	3a080300 	bcc	200ea8 <__bss_end__+0x1f7080>
     2a4:	490b3b0b 	stmdbmi	fp, {r0, r1, r3, r8, r9, fp, ip, sp}
     2a8:	00170213 	andseq	r0, r7, r3, lsl r2
     2ac:	82891000 	addhi	r1, r9, #0
     2b0:	01110101 	tsteq	r1, r1, lsl #2
     2b4:	13011331 	movwne	r1, #4913	; 0x1331
     2b8:	8a110000 	bhi	4402c0 <__bss_end__+0x436498>
     2bc:	02000182 	andeq	r0, r0, #-2147483616	; 0x80000020
     2c0:	18429118 	stmdane	r2, {r3, r4, r8, ip, pc}^
     2c4:	89120000 	ldmdbhi	r2, {}	; <UNPREDICTABLE>
     2c8:	11010182 	smlabbne	r1, r2, r1, r0
     2cc:	13000001 	movwne	r0, #1
     2d0:	13490101 	movtne	r0, #37121	; 0x9101
     2d4:	00001301 	andeq	r1, r0, r1, lsl #6
     2d8:	49002114 	stmdbmi	r0, {r2, r4, r8, sp}
     2dc:	00052f13 	andeq	r2, r5, r3, lsl pc
     2e0:	01151500 	tsteq	r5, r0, lsl #10
     2e4:	13491927 	movtne	r1, #39207	; 0x9927
     2e8:	00001301 	andeq	r1, r0, r1, lsl #6
     2ec:	49000516 	stmdbmi	r0, {r1, r2, r4, r8, sl}
     2f0:	17000013 	smladne	r0, r3, r0, r0
     2f4:	0e030034 	mcreq	0, 0, r0, cr3, cr4, {1}
     2f8:	0b3b0b3a 	bleq	ec2fe8 <__bss_end__+0xeb91c0>
     2fc:	193f1349 	ldmdbne	pc!, {r0, r3, r6, r8, r9, ip}	; <UNPREDICTABLE>
     300:	0000193c 	andeq	r1, r0, ip, lsr r9
     304:	3f012e18 	svccc	0x00012e18
     308:	3a0e0319 	bcc	380f74 <__bss_end__+0x37714c>
     30c:	270b3b0b 	strcs	r3, [fp, -fp, lsl #22]
     310:	3c134919 	ldccc	9, cr4, [r3], {25}
     314:	00000019 	andeq	r0, r0, r9, lsl r0
     318:	25011101 	strcs	r1, [r1, #-257]	; 0x101
     31c:	030b130e 	movweq	r1, #45838	; 0xb30e
     320:	110e1b0e 	tstne	lr, lr, lsl #22
     324:	10061201 	andne	r1, r6, r1, lsl #4
     328:	02000017 	andeq	r0, r0, #23
     32c:	0b0b0024 	bleq	2c03c4 <__bss_end__+0x2b659c>
     330:	08030b3e 	stmdaeq	r3, {r1, r2, r3, r4, r5, r8, r9, fp}
     334:	24030000 	strcs	r0, [r3], #-0
     338:	3e0b0b00 	vmlacc.f64	d0, d11, d0
     33c:	000e030b 	andeq	r0, lr, fp, lsl #6
     340:	000f0400 	andeq	r0, pc, r0, lsl #8
     344:	13490b0b 	movtne	r0, #39691	; 0x9b0b
     348:	26050000 	strcs	r0, [r5], -r0
     34c:	00134900 	andseq	r4, r3, r0, lsl #18
     350:	012e0600 	teqeq	lr, r0, lsl #12
     354:	0e03193f 	mcreq	9, 0, r1, cr3, cr15, {1}
     358:	0b3b0b3a 	bleq	ec3048 <__bss_end__+0xeb9220>
     35c:	13491927 	movtne	r1, #39207	; 0x9927
     360:	06120111 			; <UNDEFINED> instruction: 0x06120111
     364:	42961840 	addsmi	r1, r6, #64, 16	; 0x400000
     368:	00130119 	andseq	r0, r3, r9, lsl r1
     36c:	00050700 	andeq	r0, r5, r0, lsl #14
     370:	0b3a0803 	bleq	e82384 <__bss_end__+0xe7855c>
     374:	13490b3b 	movtne	r0, #39739	; 0x9b3b
     378:	00001702 	andeq	r1, r0, r2, lsl #14
     37c:	27011508 	strcs	r1, [r1, -r8, lsl #10]
     380:	01134919 	tsteq	r3, r9, lsl r9
     384:	09000013 	stmdbeq	r0, {r0, r1, r4}
     388:	13490005 	movtne	r0, #36869	; 0x9005
     38c:	340a0000 	strcc	r0, [sl], #-0
     390:	3a0e0300 	bcc	380f98 <__bss_end__+0x377170>
     394:	490b3b0b 	stmdbmi	fp, {r0, r1, r3, r8, r9, fp, ip, sp}
     398:	3c193f13 	ldccc	15, cr3, [r9], {19}
     39c:	0b000019 	bleq	408 <_start-0x7bf8>
     3a0:	0e030034 	mcreq	0, 0, r0, cr3, cr4, {1}
     3a4:	0b3b0b3a 	bleq	ec3094 <__bss_end__+0xeb926c>
     3a8:	193f1349 	ldmdbne	pc!, {r0, r3, r6, r8, r9, ip}	; <UNPREDICTABLE>
     3ac:	00001802 	andeq	r1, r0, r2, lsl #16
     3b0:	01110100 	tsteq	r1, r0, lsl #2
     3b4:	0b130e25 	bleq	4c3c50 <__bss_end__+0x4b9e28>
     3b8:	0e1b0e03 	cdpeq	14, 1, cr0, cr11, cr3, {0}
     3bc:	06120111 			; <UNDEFINED> instruction: 0x06120111
     3c0:	00001710 	andeq	r1, r0, r0, lsl r7
     3c4:	0b002402 	bleq	93d4 <sw_uart_putk+0x24>
     3c8:	030b3e0b 	movweq	r3, #48651	; 0xbe0b
     3cc:	03000008 	movweq	r0, #8
     3d0:	0b0b0024 	bleq	2c0468 <__bss_end__+0x2b6640>
     3d4:	0e030b3e 	vmoveq.16	d3[0], r0
     3d8:	0f040000 	svceq	0x00040000
     3dc:	000b0b00 	andeq	r0, fp, r0, lsl #22
     3e0:	000f0500 	andeq	r0, pc, r0, lsl #10
     3e4:	13490b0b 	movtne	r0, #39691	; 0x9b0b
     3e8:	26060000 	strcs	r0, [r6], -r0
     3ec:	00134900 	andseq	r4, r3, r0, lsl #18
     3f0:	00160700 	andseq	r0, r6, r0, lsl #14
     3f4:	0b3a0e03 	bleq	e83c08 <__bss_end__+0xe79de0>
     3f8:	13490b3b 	movtne	r0, #39739	; 0x9b3b
     3fc:	13080000 	movwne	r0, #32768	; 0x8000
     400:	0b0e0301 	bleq	38100c <__bss_end__+0x3771e4>
     404:	3b0b3a0b 	blcc	2cec38 <__bss_end__+0x2c4e10>
     408:	0013010b 	andseq	r0, r3, fp, lsl #2
     40c:	000d0900 	andeq	r0, sp, r0, lsl #18
     410:	13490e03 	movtne	r0, #40451	; 0x9e03
     414:	19340b38 	ldmdbne	r4!, {r3, r4, r5, r8, r9, fp}
     418:	2e0a0000 	cdpcs	0, 0, cr0, cr10, cr0, {0}
     41c:	3a0e0301 	bcc	381028 <__bss_end__+0x377200>
     420:	270b3b0b 	strcs	r3, [fp, -fp, lsl #22]
     424:	11134919 	tstne	r3, r9, lsl r9
     428:	40061201 	andmi	r1, r6, r1, lsl #4
     42c:	19429718 	stmdbne	r2, {r3, r4, r8, r9, sl, ip, pc}^
     430:	00001301 	andeq	r1, r0, r1, lsl #6
     434:	0300050b 	movweq	r0, #1291	; 0x50b
     438:	3b0b3a08 	blcc	2cec60 <__bss_end__+0x2c4e38>
     43c:	0213490b 	andseq	r4, r3, #180224	; 0x2c000
     440:	0c000017 	stceq	0, cr0, [r0], {23}
     444:	0803012e 	stmdaeq	r3, {r1, r2, r3, r5, r8}
     448:	0b3b0b3a 	bleq	ec3138 <__bss_end__+0xeb9310>
     44c:	13491927 	movtne	r1, #39207	; 0x9927
     450:	06120111 			; <UNDEFINED> instruction: 0x06120111
     454:	42971840 	addsmi	r1, r7, #64, 16	; 0x400000
     458:	00130119 	andseq	r0, r3, r9, lsl r1
     45c:	00050d00 	andeq	r0, r5, r0, lsl #26
     460:	0b3a0e03 	bleq	e83c74 <__bss_end__+0xe79e4c>
     464:	13490b3b 	movtne	r0, #39739	; 0x9b3b
     468:	00001702 	andeq	r1, r0, r2, lsl #14
     46c:	0300050e 	movweq	r0, #1294	; 0x50e
     470:	3b0b3a0e 	blcc	2cecb0 <__bss_end__+0x2c4e88>
     474:	0213490b 	andseq	r4, r3, #180224	; 0x2c000
     478:	0f000018 	svceq	0x00000018
     47c:	08030034 	stmdaeq	r3, {r2, r4, r5}
     480:	0b3b0b3a 	bleq	ec3170 <__bss_end__+0xeb9348>
     484:	18021349 	stmdane	r2, {r0, r3, r6, r8, r9, ip}
     488:	34100000 	ldrcc	r0, [r0], #-0
     48c:	3a080300 	bcc	201094 <__bss_end__+0x1f726c>
     490:	490b3b0b 	stmdbmi	fp, {r0, r1, r3, r8, r9, fp, ip, sp}
     494:	00170213 	andseq	r0, r7, r3, lsl r2
     498:	00341100 	eorseq	r1, r4, r0, lsl #2
     49c:	13490e03 	movtne	r0, #40451	; 0x9e03
     4a0:	18021934 	stmdane	r2, {r2, r4, r5, r8, fp, ip}
     4a4:	0b120000 	bleq	4804ac <__bss_end__+0x476684>
     4a8:	12011101 	andne	r1, r1, #1073741824	; 0x40000000
     4ac:	00130106 	andseq	r0, r3, r6, lsl #2
     4b0:	00341300 	eorseq	r1, r4, r0, lsl #6
     4b4:	0b3a0e03 	bleq	e83cc8 <__bss_end__+0xe79ea0>
     4b8:	13490b3b 	movtne	r0, #39739	; 0x9b3b
     4bc:	00001702 	andeq	r1, r0, r2, lsl #14
     4c0:	01828914 	orreq	r8, r2, r4, lsl r9
     4c4:	31011100 	mrscc	r1, (UNDEF: 17)
     4c8:	15000013 	strne	r0, [r0, #-19]
     4cc:	01018289 	smlabbeq	r1, r9, r2, r8
     4d0:	13310111 	teqne	r1, #1073741828	; 0x40000004
     4d4:	00001301 	andeq	r1, r0, r1, lsl #6
     4d8:	01828a16 	orreq	r8, r2, r6, lsl sl
     4dc:	91180200 	tstls	r8, r0, lsl #4
     4e0:	00001842 	andeq	r1, r0, r2, asr #16
     4e4:	01828917 	orreq	r8, r2, r7, lsl r9
     4e8:	31011101 	tstcc	r1, r1, lsl #2
     4ec:	18000013 	stmdane	r0, {r0, r1, r4}
     4f0:	13490101 	movtne	r0, #37121	; 0x9101
     4f4:	00001301 	andeq	r1, r0, r1, lsl #6
     4f8:	49002119 	stmdbmi	r0, {r0, r3, r4, r8, sp}
     4fc:	000b2f13 	andeq	r2, fp, r3, lsl pc
     500:	012e1a00 	teqeq	lr, r0, lsl #20
     504:	0e03193f 	mcreq	9, 0, r1, cr3, cr15, {1}
     508:	0b3b0b3a 	bleq	ec31f8 <__bss_end__+0xeb93d0>
     50c:	01111927 	tsteq	r1, r7, lsr #18
     510:	18400612 	stmdane	r0, {r1, r4, r9, sl}^
     514:	01194297 			; <UNDEFINED> instruction: 0x01194297
     518:	1b000013 	blne	56c <_start-0x7a94>
     51c:	19270115 	stmdbne	r7!, {r0, r2, r4, r8}
     520:	13011349 	movwne	r1, #4937	; 0x1349
     524:	051c0000 	ldreq	r0, [ip, #-0]
     528:	00134900 	andseq	r4, r3, r0, lsl #18
     52c:	012e1d00 	teqeq	lr, r0, lsl #26
     530:	0e03193f 	mcreq	9, 0, r1, cr3, cr15, {1}
     534:	0b3b0b3a 	bleq	ec3224 <__bss_end__+0xeb93fc>
     538:	13491927 	movtne	r1, #39207	; 0x9927
     53c:	06120111 			; <UNDEFINED> instruction: 0x06120111
     540:	42971840 	addsmi	r1, r7, #64, 16	; 0x400000
     544:	00130119 	andseq	r0, r3, r9, lsl r1
     548:	010b1e00 	tsteq	fp, r0, lsl #28
     54c:	00001755 	andeq	r1, r0, r5, asr r7
     550:	0300341f 	movweq	r3, #1055	; 0x41f
     554:	3b0b3a0e 	blcc	2ced94 <__bss_end__+0x2c4f6c>
     558:	3f13490b 	svccc	0x0013490b
     55c:	00193c19 	andseq	r3, r9, r9, lsl ip
     560:	002e2000 	eoreq	r2, lr, r0
     564:	0e03193f 	mcreq	9, 0, r1, cr3, cr15, {1}
     568:	0b3b0b3a 	bleq	ec3258 <__bss_end__+0xeb9430>
     56c:	193c1927 	ldmdbne	ip!, {r0, r1, r2, r5, r8, fp, ip}
     570:	2e210000 	cdpcs	0, 2, cr0, cr1, cr0, {0}
     574:	03193f01 	tsteq	r9, #1, 30
     578:	3b0b3a0e 	blcc	2cedb8 <__bss_end__+0x2c4f90>
     57c:	4919270b 	ldmdbmi	r9, {r0, r1, r3, r8, r9, sl, sp}
     580:	01193c13 	tsteq	r9, r3, lsl ip
     584:	22000013 	andcs	r0, r0, #19
     588:	00000018 	andeq	r0, r0, r8, lsl r0
     58c:	01110100 	tsteq	r1, r0, lsl #2
     590:	0b130e25 	bleq	4c3e2c <__bss_end__+0x4ba004>
     594:	0e1b0e03 	cdpeq	14, 1, cr0, cr11, cr3, {0}
     598:	06120111 			; <UNDEFINED> instruction: 0x06120111
     59c:	00001710 	andeq	r1, r0, r0, lsl r7
     5a0:	0b002402 	bleq	95b0 <uart_init+0x8>
     5a4:	030b3e0b 	movweq	r3, #48651	; 0xbe0b
     5a8:	03000008 	movweq	r0, #8
     5ac:	0b0b0024 	bleq	2c0644 <__bss_end__+0x2b681c>
     5b0:	0e030b3e 	vmoveq.16	d3[0], r0
     5b4:	2e040000 	cdpcs	0, 0, cr0, cr4, cr0, {0}
     5b8:	03193f01 	tsteq	r9, #1, 30
     5bc:	3b0b3a0e 	blcc	2cedfc <__bss_end__+0x2c4fd4>
     5c0:	1119270b 	tstne	r9, fp, lsl #14
     5c4:	40061201 	andmi	r1, r6, r1, lsl #4
     5c8:	19429718 	stmdbne	r2, {r3, r4, r8, r9, sl, ip, pc}^
     5cc:	00001301 	andeq	r1, r0, r1, lsl #6
     5d0:	03003405 	movweq	r3, #1029	; 0x405
     5d4:	3b0b3a08 	blcc	2cedfc <__bss_end__+0x2c4fd4>
     5d8:	0213490b 	andseq	r4, r3, #180224	; 0x2c000
     5dc:	06000017 			; <UNDEFINED> instruction: 0x06000017
     5e0:	193f012e 	ldmdbne	pc!, {r1, r2, r3, r5, r8}	; <UNPREDICTABLE>
     5e4:	0b3a0e03 	bleq	e83df8 <__bss_end__+0xe79fd0>
     5e8:	19270b3b 	stmdbne	r7!, {r0, r1, r3, r4, r5, r8, r9, fp}
     5ec:	06120111 			; <UNDEFINED> instruction: 0x06120111
     5f0:	42971840 	addsmi	r1, r7, #64, 16	; 0x400000
     5f4:	00000019 	andeq	r0, r0, r9, lsl r0
     5f8:	25011101 	strcs	r1, [r1, #-257]	; 0x101
     5fc:	030b130e 	movweq	r1, #45838	; 0xb30e
     600:	110e1b0e 	tstne	lr, lr, lsl #22
     604:	10061201 	andne	r1, r6, r1, lsl #4
     608:	02000017 	andeq	r0, r0, #23
     60c:	0b0b0024 	bleq	2c06a4 <__bss_end__+0x2b687c>
     610:	08030b3e 	stmdaeq	r3, {r1, r2, r3, r4, r5, r8, r9, fp}
     614:	24030000 	strcs	r0, [r3], #-0
     618:	3e0b0b00 	vmlacc.f64	d0, d11, d0
     61c:	000e030b 	andeq	r0, lr, fp, lsl #6
     620:	000f0400 	andeq	r0, pc, r0, lsl #8
     624:	13490b0b 	movtne	r0, #39691	; 0x9b0b
     628:	26050000 	strcs	r0, [r5], -r0
     62c:	00134900 	andseq	r4, r3, r0, lsl #18
     630:	012e0600 	teqeq	lr, r0, lsl #12
     634:	0e03193f 	mcreq	9, 0, r1, cr3, cr15, {1}
     638:	0b3b0b3a 	bleq	ec3328 <__bss_end__+0xeb9500>
     63c:	01111927 	tsteq	r1, r7, lsr #18
     640:	18400612 	stmdane	r0, {r1, r4, r9, sl}^
     644:	01194297 			; <UNDEFINED> instruction: 0x01194297
     648:	07000013 	smladeq	r0, r3, r0, r0
     64c:	01018289 	smlabbeq	r1, r9, r2, r8
     650:	13010111 	movwne	r0, #4369	; 0x1111
     654:	8a080000 	bhi	20065c <__bss_end__+0x1f6834>
     658:	02000182 	andeq	r0, r0, #-2147483616	; 0x80000020
     65c:	18429118 	stmdane	r2, {r3, r4, r8, ip, pc}^
     660:	89090000 	stmdbhi	r9, {}	; <UNPREDICTABLE>
     664:	11010182 	smlabbne	r1, r2, r1, r0
     668:	01133101 	tsteq	r3, r1, lsl #2
     66c:	0a000013 	beq	6c0 <_start-0x7940>
     670:	00018289 	andeq	r8, r1, r9, lsl #5
     674:	13310111 	teqne	r1, #1073741828	; 0x40000004
     678:	150b0000 	strne	r0, [fp, #-0]
     67c:	49192701 	ldmdbmi	r9, {r0, r8, r9, sl, sp}
     680:	00130113 	andseq	r0, r3, r3, lsl r1
     684:	00050c00 	andeq	r0, r5, r0, lsl #24
     688:	00001349 	andeq	r1, r0, r9, asr #6
     68c:	0300340d 	movweq	r3, #1037	; 0x40d
     690:	3b0b3a0e 	blcc	2ceed0 <__bss_end__+0x2c50a8>
     694:	3f13490b 	svccc	0x0013490b
     698:	00193c19 	andseq	r3, r9, r9, lsl ip
     69c:	012e0e00 	teqeq	lr, r0, lsl #28
     6a0:	0e03193f 	mcreq	9, 0, r1, cr3, cr15, {1}
     6a4:	0b3b0b3a 	bleq	ec3394 <__bss_end__+0xeb956c>
     6a8:	193c1927 	ldmdbne	ip!, {r0, r1, r2, r5, r8, fp, ip}
     6ac:	00001301 	andeq	r1, r0, r1, lsl #6
     6b0:	3f002e0f 	svccc	0x00002e0f
     6b4:	3a0e0319 	bcc	381320 <__bss_end__+0x3774f8>
     6b8:	270b3b0b 	strcs	r3, [fp, -fp, lsl #22]
     6bc:	00193c19 	andseq	r3, r9, r9, lsl ip
     6c0:	11010000 	mrsne	r0, (UNDEF: 1)
     6c4:	130e2501 	movwne	r2, #58625	; 0xe501
     6c8:	1b0e030b 	blne	3812fc <__bss_end__+0x3774d4>
     6cc:	1201110e 	andne	r1, r1, #-2147483645	; 0x80000003
     6d0:	00171006 	andseq	r1, r7, r6
     6d4:	00240200 	eoreq	r0, r4, r0, lsl #4
     6d8:	0b3e0b0b 	bleq	f8330c <__bss_end__+0xf794e4>
     6dc:	00000803 	andeq	r0, r0, r3, lsl #16
     6e0:	0b002403 	bleq	96f4 <uart_getc_async+0x18>
     6e4:	030b3e0b 	movweq	r3, #48651	; 0xbe0b
     6e8:	0400000e 	streq	r0, [r0], #-14
     6ec:	0e030016 	mcreq	0, 0, r0, cr3, cr6, {0}
     6f0:	0b3b0b3a 	bleq	ec33e0 <__bss_end__+0xeb95b8>
     6f4:	00001349 	andeq	r1, r0, r9, asr #6
     6f8:	0b000f05 	bleq	4314 <_start-0x3cec>
     6fc:	0013490b 	andseq	r4, r3, fp, lsl #18
     700:	00260600 	eoreq	r0, r6, r0, lsl #12
     704:	00001349 	andeq	r1, r0, r9, asr #6
     708:	0b011307 	bleq	4532c <__bss_end__+0x3b504>
     70c:	3b0b3a0b 	blcc	2cef40 <__bss_end__+0x2c5118>
     710:	0013010b 	andseq	r0, r3, fp, lsl #2
     714:	000d0800 	andeq	r0, sp, r0, lsl #16
     718:	0b3a0803 	bleq	e8272c <__bss_end__+0xe78904>
     71c:	13490b3b 	movtne	r0, #39739	; 0x9b3b
     720:	00000b38 	andeq	r0, r0, r8, lsr fp
     724:	03000d09 	movweq	r0, #3337	; 0xd09
     728:	3b0b3a0e 	blcc	2cef68 <__bss_end__+0x2c5140>
     72c:	3813490b 	ldmdacc	r3, {r0, r1, r3, r8, fp, lr}
     730:	0a00000b 	beq	764 <_start-0x789c>
     734:	0b0b0104 	bleq	2c0b4c <__bss_end__+0x2b6d24>
     738:	0b3b0b3a 	bleq	ec3428 <__bss_end__+0xeb9600>
     73c:	00001301 	andeq	r1, r0, r1, lsl #6
     740:	0300280b 	movweq	r2, #2059	; 0x80b
     744:	000d1c0e 	andeq	r1, sp, lr, lsl #24
     748:	012e0c00 	teqeq	lr, r0, lsl #24
     74c:	0b3a0e03 	bleq	e83f60 <__bss_end__+0xe7a138>
     750:	19270b3b 	stmdbne	r7!, {r0, r1, r3, r4, r5, r8, r9, fp}
     754:	01111349 	tsteq	r1, r9, asr #6
     758:	18400612 	stmdane	r0, {r1, r4, r9, sl}^
     75c:	01194297 			; <UNDEFINED> instruction: 0x01194297
     760:	0d000013 	stceq	0, cr0, [r0, #-76]	; 0xffffffb4
     764:	08030005 	stmdaeq	r3, {r0, r2}
     768:	0b3b0b3a 	bleq	ec3458 <__bss_end__+0xeb9630>
     76c:	17021349 	strne	r1, [r2, -r9, asr #6]
     770:	890e0000 	stmdbhi	lr, {}	; <UNPREDICTABLE>
     774:	11010182 	smlabbne	r1, r2, r1, r0
     778:	00133101 	andseq	r3, r3, r1, lsl #2
     77c:	828a0f00 	addhi	r0, sl, #0, 30
     780:	18020001 	stmdane	r2, {r0}
     784:	00184291 	mulseq	r8, r1, r2
     788:	012e1000 	teqeq	lr, r0
     78c:	0e03193f 	mcreq	9, 0, r1, cr3, cr15, {1}
     790:	0b3b0b3a 	bleq	ec3480 <__bss_end__+0xeb9658>
     794:	06120111 			; <UNDEFINED> instruction: 0x06120111
     798:	42971840 	addsmi	r1, r7, #64, 16	; 0x400000
     79c:	00130119 	andseq	r0, r3, r9, lsl r1
     7a0:	00341100 	eorseq	r1, r4, r0, lsl #2
     7a4:	0b3a0e03 	bleq	e83fb8 <__bss_end__+0xe7a190>
     7a8:	13490b3b 	movtne	r0, #39739	; 0x9b3b
     7ac:	193c193f 	ldmdbne	ip!, {r0, r1, r2, r3, r4, r5, r8, fp, ip}
     7b0:	2e120000 	cdpcs	0, 1, cr0, cr2, cr0, {0}
     7b4:	03193f00 	tsteq	r9, #0, 30
     7b8:	3b0b3a0e 	blcc	2ceff8 <__bss_end__+0x2c51d0>
     7bc:	3c19270b 	ldccc	7, cr2, [r9], {11}
     7c0:	13000019 	movwne	r0, #25
     7c4:	08030034 	stmdaeq	r3, {r2, r4, r5}
     7c8:	0b3b0b3a 	bleq	ec34b8 <__bss_end__+0xeb9690>
     7cc:	17021349 	strne	r1, [r2, -r9, asr #6]
     7d0:	34140000 	ldrcc	r0, [r4], #-0
     7d4:	3a0e0300 	bcc	3813dc <__bss_end__+0x3775b4>
     7d8:	490b3b0b 	stmdbmi	fp, {r0, r1, r3, r8, r9, fp, ip, sp}
     7dc:	15000013 	strne	r0, [r0, #-19]
     7e0:	00018289 	andeq	r8, r1, r9, lsl #5
     7e4:	13310111 	teqne	r1, #1073741828	; 0x40000004
     7e8:	89160000 	ldmdbhi	r6, {}	; <UNPREDICTABLE>
     7ec:	11010182 	smlabbne	r1, r2, r1, r0
     7f0:	01133101 	tsteq	r3, r1, lsl #2
     7f4:	17000013 	smladne	r0, r3, r0, r0
     7f8:	0e030034 	mcreq	0, 0, r0, cr3, cr4, {1}
     7fc:	0b3b0b3a 	bleq	ec34ec <__bss_end__+0xeb96c4>
     800:	18021349 	stmdane	r2, {r0, r3, r6, r8, r9, ip}
     804:	15180000 	ldrne	r0, [r8, #-0]
     808:	49192701 	ldmdbmi	r9, {r0, r8, r9, sl, sp}
     80c:	00130113 	andseq	r0, r3, r3, lsl r1
     810:	00051900 	andeq	r1, r5, r0, lsl #18
     814:	00001349 	andeq	r1, r0, r9, asr #6
     818:	3f012e1a 	svccc	0x00012e1a
     81c:	3a0e0319 	bcc	381488 <__bss_end__+0x377660>
     820:	270b3b0b 	strcs	r3, [fp, -fp, lsl #22]
     824:	01193c19 	tsteq	r9, r9, lsl ip
     828:	1b000013 	blne	87c <_start-0x7784>
     82c:	193f002e 	ldmdbne	pc!, {r1, r2, r3, r5}	; <UNPREDICTABLE>
     830:	0b3a0e03 	bleq	e84044 <__bss_end__+0xe7a21c>
     834:	19270b3b 	stmdbne	r7!, {r0, r1, r3, r4, r5, r8, r9, fp}
     838:	193c1349 	ldmdbne	ip!, {r0, r3, r6, r8, r9, ip}
     83c:	2e1c0000 	cdpcs	0, 1, cr0, cr12, cr0, {0}
     840:	03193f01 	tsteq	r9, #1, 30
     844:	3b0b3a0e 	blcc	2cf084 <__bss_end__+0x2c525c>
     848:	4919270b 	ldmdbmi	r9, {r0, r1, r3, r8, r9, sl, sp}
     84c:	01193c13 	tsteq	r9, r3, lsl ip
     850:	1d000013 	stcne	0, cr0, [r0, #-76]	; 0xffffffb4
     854:	00000018 	andeq	r0, r0, r8, lsl r0
     858:	01110100 	tsteq	r1, r0, lsl #2
     85c:	0b130e25 	bleq	4c40f8 <__bss_end__+0x4ba2d0>
     860:	0e1b0e03 	cdpeq	14, 1, cr0, cr11, cr3, {0}
     864:	01111755 	tsteq	r1, r5, asr r7
     868:	00001710 	andeq	r1, r0, r0, lsl r7
     86c:	0b002402 	bleq	987c <__FUNCTION__.4287+0x8c>
     870:	030b3e0b 	movweq	r3, #48651	; 0xbe0b
     874:	03000008 	movweq	r0, #8
     878:	0b0b0024 	bleq	2c0910 <__bss_end__+0x2b6ae8>
     87c:	0e030b3e 	vmoveq.16	d3[0], r0
     880:	2e040000 	cdpcs	0, 0, cr0, cr4, cr0, {0}
     884:	03193f01 	tsteq	r9, #1, 30
     888:	3b0b3a0e 	blcc	2cf0c8 <__bss_end__+0x2c52a0>
     88c:	4919270b 	ldmdbmi	r9, {r0, r1, r3, r8, r9, sl, sp}
     890:	12011113 	andne	r1, r1, #-1073741820	; 0xc0000004
     894:	97184006 	ldrls	r4, [r8, -r6]
     898:	13011942 	movwne	r1, #6466	; 0x1942
     89c:	34050000 	strcc	r0, [r5], #-0
     8a0:	3a0e0300 	bcc	3814a8 <__bss_end__+0x377680>
     8a4:	490b3b0b 	stmdbmi	fp, {r0, r1, r3, r8, r9, fp, ip, sp}
     8a8:	00170213 	andseq	r0, r7, r3, lsl r2
     8ac:	012e0600 	teqeq	lr, r0, lsl #12
     8b0:	0e03193f 	mcreq	9, 0, r1, cr3, cr15, {1}
     8b4:	0b3b0b3a 	bleq	ec35a4 <__bss_end__+0xeb977c>
     8b8:	01111927 	tsteq	r1, r7, lsr #18
     8bc:	18400612 	stmdane	r0, {r1, r4, r9, sl}^
     8c0:	01194297 			; <UNDEFINED> instruction: 0x01194297
     8c4:	07000013 	smladeq	r0, r3, r0, r0
     8c8:	0e030034 	mcreq	0, 0, r0, cr3, cr4, {1}
     8cc:	0b3b0b3a 	bleq	ec35bc <__bss_end__+0xeb9794>
     8d0:	061c1349 	ldreq	r1, [ip], -r9, asr #6
     8d4:	34080000 	strcc	r0, [r8], #-0
     8d8:	3a0e0300 	bcc	3814e0 <__bss_end__+0x3776b8>
     8dc:	490b3b0b 	stmdbmi	fp, {r0, r1, r3, r8, r9, fp, ip, sp}
     8e0:	000b1c13 	andeq	r1, fp, r3, lsl ip
     8e4:	82890900 	addhi	r0, r9, #0, 18
     8e8:	01110001 	tsteq	r1, r1
     8ec:	00001331 	andeq	r1, r0, r1, lsr r3
     8f0:	0182890a 	orreq	r8, r2, sl, lsl #18
     8f4:	31011101 	tstcc	r1, r1, lsl #2
     8f8:	00130113 	andseq	r0, r3, r3, lsl r1
     8fc:	828a0b00 	addhi	r0, sl, #0, 22
     900:	18020001 	stmdane	r2, {r0}
     904:	00184291 	mulseq	r8, r1, r2
     908:	82890c00 	addhi	r0, r9, #0, 24
     90c:	01110101 	tsteq	r1, r1, lsl #2
     910:	00001331 	andeq	r1, r0, r1, lsr r3
     914:	4900260d 	stmdbmi	r0, {r0, r2, r3, r9, sl, sp}
     918:	0e000013 	mcreq	0, 0, r0, cr0, cr3, {0}
     91c:	193f012e 	ldmdbne	pc!, {r1, r2, r3, r5, r8}	; <UNPREDICTABLE>
     920:	0b3a0e03 	bleq	e84134 <__bss_end__+0xe7a30c>
     924:	19270b3b 	stmdbne	r7!, {r0, r1, r3, r4, r5, r8, r9, fp}
     928:	1301193c 	movwne	r1, #6460	; 0x193c
     92c:	050f0000 	streq	r0, [pc, #-0]	; 934 <_start-0x76cc>
     930:	00134900 	andseq	r4, r3, r0, lsl #18
     934:	012e1000 	teqeq	lr, r0
     938:	0e03193f 	mcreq	9, 0, r1, cr3, cr15, {1}
     93c:	0b3b0b3a 	bleq	ec362c <__bss_end__+0xeb9804>
     940:	193c1927 	ldmdbne	ip!, {r0, r1, r2, r5, r8, fp, ip}
     944:	01000000 	mrseq	r0, (UNDEF: 0)
     948:	0e250111 	mcreq	1, 1, r0, cr5, cr1, {0}
     94c:	0e030b13 	vmoveq.32	d3[0], r0
     950:	01110e1b 	tsteq	r1, fp, lsl lr
     954:	17100612 			; <UNDEFINED> instruction: 0x17100612
     958:	24020000 	strcs	r0, [r2], #-0
     95c:	3e0b0b00 	vmlacc.f64	d0, d11, d0
     960:	0008030b 	andeq	r0, r8, fp, lsl #6
     964:	00240300 	eoreq	r0, r4, r0, lsl #6
     968:	0b3e0b0b 	bleq	f8359c <__bss_end__+0xf79774>
     96c:	00000e03 	andeq	r0, r0, r3, lsl #28
     970:	3f012e04 	svccc	0x00012e04
     974:	3a0e0319 	bcc	3815e0 <__bss_end__+0x3777b8>
     978:	270b3b0b 	strcs	r3, [fp, -fp, lsl #22]
     97c:	12011119 	andne	r1, r1, #1073741830	; 0x40000006
     980:	97184006 	ldrls	r4, [r8, -r6]
     984:	13011942 	movwne	r1, #6466	; 0x1942
     988:	05050000 	streq	r0, [r5, #-0]
     98c:	3a0e0300 	bcc	381594 <__bss_end__+0x37776c>
     990:	490b3b0b 	stmdbmi	fp, {r0, r1, r3, r8, r9, fp, ip, sp}
     994:	00170213 	andseq	r0, r7, r3, lsl r2
     998:	012e0600 	teqeq	lr, r0, lsl #12
     99c:	0e03193f 	mcreq	9, 0, r1, cr3, cr15, {1}
     9a0:	0b3b0b3a 	bleq	ec3690 <__bss_end__+0xeb9868>
     9a4:	13491927 	movtne	r1, #39207	; 0x9927
     9a8:	06120111 			; <UNDEFINED> instruction: 0x06120111
     9ac:	42971840 	addsmi	r1, r7, #64, 16	; 0x400000
     9b0:	00130119 	andseq	r0, r3, r9, lsl r1
     9b4:	82890700 	addhi	r0, r9, #0, 14
     9b8:	01110101 	tsteq	r1, r1, lsl #2
     9bc:	00001331 	andeq	r1, r0, r1, lsr r3
     9c0:	01828a08 	orreq	r8, r2, r8, lsl #20
     9c4:	91180200 	tstls	r8, r0, lsl #4
     9c8:	00001842 	andeq	r1, r0, r2, asr #16
     9cc:	03003409 	movweq	r3, #1033	; 0x409
     9d0:	3b0b3a08 	blcc	2cf1f8 <__bss_end__+0x2c53d0>
     9d4:	0213490b 	andseq	r4, r3, #180224	; 0x2c000
     9d8:	0a000018 	beq	a40 <_start-0x75c0>
     9dc:	00018289 	andeq	r8, r1, r9, lsl #5
     9e0:	13310111 	teqne	r1, #1073741828	; 0x40000004
     9e4:	050b0000 	streq	r0, [fp, #-0]
     9e8:	3a080300 	bcc	2015f0 <__bss_end__+0x1f77c8>
     9ec:	490b3b0b 	stmdbmi	fp, {r0, r1, r3, r8, r9, fp, ip, sp}
     9f0:	00170213 	andseq	r0, r7, r3, lsl r2
     9f4:	010b0c00 	tsteq	fp, r0, lsl #24
     9f8:	06120111 			; <UNDEFINED> instruction: 0x06120111
     9fc:	00001301 	andeq	r1, r0, r1, lsl #6
     a00:	0300340d 	movweq	r3, #1037	; 0x40d
     a04:	3b0b3a08 	blcc	2cf22c <__bss_end__+0x2c5404>
     a08:	0213490b 	andseq	r4, r3, #180224	; 0x2c000
     a0c:	0e000017 	mcreq	0, 0, r0, cr0, cr7, {0}
     a10:	193f012e 	ldmdbne	pc!, {r1, r2, r3, r5, r8}	; <UNPREDICTABLE>
     a14:	0b3a0e03 	bleq	e84228 <__bss_end__+0xe7a400>
     a18:	19270b3b 	stmdbne	r7!, {r0, r1, r3, r4, r5, r8, r9, fp}
     a1c:	193c1349 	ldmdbne	ip!, {r0, r3, r6, r8, r9, ip}
     a20:	050f0000 	streq	r0, [pc, #-0]	; a28 <_start-0x75d8>
     a24:	00134900 	andseq	r4, r3, r0, lsl #18
     a28:	11010000 	mrsne	r0, (UNDEF: 1)
     a2c:	130e2501 	movwne	r2, #58625	; 0xe501
     a30:	1b0e030b 	blne	381664 <__bss_end__+0x37783c>
     a34:	1201110e 	andne	r1, r1, #-2147483645	; 0x80000003
     a38:	00171006 	andseq	r1, r7, r6
     a3c:	00240200 	eoreq	r0, r4, r0, lsl #4
     a40:	0b3e0b0b 	bleq	f83674 <__bss_end__+0xf7984c>
     a44:	00000e03 	andeq	r0, r0, r3, lsl #28
     a48:	0b002403 	bleq	9a5c <buf.4213+0x40>
     a4c:	030b3e0b 	movweq	r3, #48651	; 0xbe0b
     a50:	04000008 	streq	r0, [r0], #-8
     a54:	0b0b0104 	bleq	2c0e6c <__bss_end__+0x2b7044>
     a58:	0b3b0b3a 	bleq	ec3748 <__bss_end__+0xeb9920>
     a5c:	00001301 	andeq	r1, r0, r1, lsl #6
     a60:	03002805 	movweq	r2, #2053	; 0x805
     a64:	000d1c0e 	andeq	r1, sp, lr, lsl #24
     a68:	00160600 	andseq	r0, r6, r0, lsl #12
     a6c:	0b3a0e03 	bleq	e84280 <__bss_end__+0xe7a458>
     a70:	13490b3b 	movtne	r0, #39739	; 0x9b3b
     a74:	2e070000 	cdpcs	0, 0, cr0, cr7, cr0, {0}
     a78:	03193f01 	tsteq	r9, #1, 30
     a7c:	3b0b3a0e 	blcc	2cf2bc <__bss_end__+0x2c5494>
     a80:	1119270b 	tstne	r9, fp, lsl #14
     a84:	40061201 	andmi	r1, r6, r1, lsl #4
     a88:	19429718 	stmdbne	r2, {r3, r4, r8, r9, sl, ip, pc}^
     a8c:	00001301 	andeq	r1, r0, r1, lsl #6
     a90:	03000508 	movweq	r0, #1288	; 0x508
     a94:	3b0b3a08 	blcc	2cf2bc <__bss_end__+0x2c5494>
     a98:	0213490b 	andseq	r4, r3, #180224	; 0x2c000
     a9c:	09000017 	stmdbeq	r0, {r0, r1, r2, r4}
     aa0:	0e030034 	mcreq	0, 0, r0, cr3, cr4, {1}
     aa4:	0b3b0b3a 	bleq	ec3794 <__bss_end__+0xeb996c>
     aa8:	17021349 	strne	r1, [r2, -r9, asr #6]
     aac:	890a0000 	stmdbhi	sl, {}	; <UNPREDICTABLE>
     ab0:	11010182 	smlabbne	r1, r2, r1, r0
     ab4:	01133101 	tsteq	r3, r1, lsl #2
     ab8:	0b000013 	bleq	b0c <_start-0x74f4>
     abc:	0001828a 	andeq	r8, r1, sl, lsl #5
     ac0:	42911802 	addsmi	r1, r1, #131072	; 0x20000
     ac4:	0c000018 	stceq	0, cr0, [r0], {24}
     ac8:	01018289 	smlabbeq	r1, r9, r2, r8
     acc:	13310111 	teqne	r1, #1073741828	; 0x40000004
     ad0:	0f0d0000 	svceq	0x000d0000
     ad4:	490b0b00 	stmdbmi	fp, {r8, r9, fp}
     ad8:	0e000013 	mcreq	0, 0, r0, cr0, cr3, {0}
     adc:	13490035 	movtne	r0, #36917	; 0x9035
     ae0:	2e0f0000 	cdpcs	0, 0, cr0, cr15, cr0, {0}
     ae4:	03193f01 	tsteq	r9, #1, 30
     ae8:	3b0b3a0e 	blcc	2cf328 <__bss_end__+0x2c5500>
     aec:	4919270b 	ldmdbmi	r9, {r0, r1, r3, r8, r9, sl, sp}
     af0:	12011113 	andne	r1, r1, #-1073741820	; 0xc0000004
     af4:	97184006 	ldrls	r4, [r8, -r6]
     af8:	13011942 	movwne	r1, #6466	; 0x1942
     afc:	34100000 	ldrcc	r0, [r0], #-0
     b00:	3a080300 	bcc	201708 <__bss_end__+0x1f78e0>
     b04:	490b3b0b 	stmdbmi	fp, {r0, r1, r3, r8, r9, fp, ip, sp}
     b08:	00170213 	andseq	r0, r7, r3, lsl r2
     b0c:	82891100 	addhi	r1, r9, #0, 2
     b10:	01110001 	tsteq	r1, r1
     b14:	00001331 	andeq	r1, r0, r1, lsr r3
     b18:	03000512 	movweq	r0, #1298	; 0x512
     b1c:	3b0b3a0e 	blcc	2cf35c <__bss_end__+0x2c5534>
     b20:	0213490b 	andseq	r4, r3, #180224	; 0x2c000
     b24:	13000017 	movwne	r0, #23
     b28:	193f012e 	ldmdbne	pc!, {r1, r2, r3, r5, r8}	; <UNPREDICTABLE>
     b2c:	0b3a0e03 	bleq	e84340 <__bss_end__+0xe7a518>
     b30:	1927053b 	stmdbne	r7!, {r0, r1, r3, r4, r5, r8, sl}
     b34:	01111349 	tsteq	r1, r9, asr #6
     b38:	18400612 	stmdane	r0, {r1, r4, r9, sl}^
     b3c:	01194297 			; <UNDEFINED> instruction: 0x01194297
     b40:	14000013 	strne	r0, [r0], #-19
     b44:	0e030005 	cdpeq	0, 0, cr0, cr3, cr5, {0}
     b48:	053b0b3a 	ldreq	r0, [fp, #-2874]!	; 0xb3a
     b4c:	17021349 	strne	r1, [r2, -r9, asr #6]
     b50:	2e150000 	cdpcs	0, 1, cr0, cr5, cr0, {0}
     b54:	03193f01 	tsteq	r9, #1, 30
     b58:	3b0b3a0e 	blcc	2cf398 <__bss_end__+0x2c5570>
     b5c:	11192705 	tstne	r9, r5, lsl #14
     b60:	40061201 	andmi	r1, r6, r1, lsl #4
     b64:	19429718 	stmdbne	r2, {r3, r4, r8, r9, sl, ip, pc}^
     b68:	00001301 	andeq	r1, r0, r1, lsl #6
     b6c:	03000516 	movweq	r0, #1302	; 0x516
     b70:	3b0b3a08 	blcc	2cf398 <__bss_end__+0x2c5570>
     b74:	02134905 	andseq	r4, r3, #81920	; 0x14000
     b78:	17000017 	smladne	r0, r7, r0, r0
     b7c:	0e030034 	mcreq	0, 0, r0, cr3, cr4, {1}
     b80:	053b0b3a 	ldreq	r0, [fp, #-2874]!	; 0xb3a
     b84:	17021349 	strne	r1, [r2, -r9, asr #6]
     b88:	0b180000 	bleq	600b90 <__bss_end__+0x5f6d68>
     b8c:	12011101 	andne	r1, r1, #1073741824	; 0x40000000
     b90:	00130106 	andseq	r0, r3, r6, lsl #2
     b94:	00341900 	eorseq	r1, r4, r0, lsl #18
     b98:	0b3a0e03 	bleq	e843ac <__bss_end__+0xe7a584>
     b9c:	13490b3b 	movtne	r0, #39739	; 0x9b3b
     ba0:	1802193f 	stmdane	r2, {r0, r1, r2, r3, r4, r5, r8, fp, ip}
     ba4:	341a0000 	ldrcc	r0, [sl], #-0
     ba8:	3a0e0300 	bcc	3817b0 <__bss_end__+0x377988>
     bac:	49053b0b 	stmdbmi	r5, {r0, r1, r3, r8, r9, fp, ip, sp}
     bb0:	02193f13 	andseq	r3, r9, #19, 30	; 0x4c
     bb4:	1b000018 	blne	c1c <_start-0x73e4>
     bb8:	193f012e 	ldmdbne	pc!, {r1, r2, r3, r5, r8}	; <UNPREDICTABLE>
     bbc:	0b3a0e03 	bleq	e843d0 <__bss_end__+0xe7a5a8>
     bc0:	19270b3b 	stmdbne	r7!, {r0, r1, r3, r4, r5, r8, r9, fp}
     bc4:	193c1349 	ldmdbne	ip!, {r0, r3, r6, r8, r9, ip}
     bc8:	00001301 	andeq	r1, r0, r1, lsl #6
     bcc:	4900051c 	stmdbmi	r0, {r2, r3, r4, r8, sl}
     bd0:	1d000013 	stcne	0, cr0, [r0, #-76]	; 0xffffffb4
     bd4:	13490026 	movtne	r0, #36902	; 0x9026
     bd8:	351e0000 	ldrcc	r0, [lr, #-0]
     bdc:	1f000000 	svcne	0x00000000
     be0:	193f012e 	ldmdbne	pc!, {r1, r2, r3, r5, r8}	; <UNPREDICTABLE>
     be4:	0b3a0e03 	bleq	e843f8 <__bss_end__+0xe7a5d0>
     be8:	19270b3b 	stmdbne	r7!, {r0, r1, r3, r4, r5, r8, r9, fp}
     bec:	1301193c 	movwne	r1, #6460	; 0x193c
     bf0:	2e200000 	cdpcs	0, 2, cr0, cr0, cr0, {0}
     bf4:	03193f00 	tsteq	r9, #0, 30
     bf8:	3b0b3a0e 	blcc	2cf438 <__bss_end__+0x2c5610>
     bfc:	3c19270b 	ldccc	7, cr2, [r9], {11}
     c00:	00000019 	andeq	r0, r0, r9, lsl r0
     c04:	25011101 	strcs	r1, [r1, #-257]	; 0x101
     c08:	030b130e 	movweq	r1, #45838	; 0xb30e
     c0c:	110e1b0e 	tstne	lr, lr, lsl #22
     c10:	10061201 	andne	r1, r6, r1, lsl #4
     c14:	02000017 	andeq	r0, r0, #23
     c18:	0b0b0024 	bleq	2c0cb0 <__bss_end__+0x2b6e88>
     c1c:	08030b3e 	stmdaeq	r3, {r1, r2, r3, r4, r5, r8, r9, fp}
     c20:	24030000 	strcs	r0, [r3], #-0
     c24:	3e0b0b00 	vmlacc.f64	d0, d11, d0
     c28:	000e030b 	andeq	r0, lr, fp, lsl #6
     c2c:	00160400 	andseq	r0, r6, r0, lsl #8
     c30:	0b3a0e03 	bleq	e84444 <__bss_end__+0xe7a61c>
     c34:	13490b3b 	movtne	r0, #39739	; 0x9b3b
     c38:	0f050000 	svceq	0x00050000
     c3c:	000b0b00 	andeq	r0, fp, r0, lsl #22
     c40:	000f0600 	andeq	r0, pc, r0, lsl #12
     c44:	13490b0b 	movtne	r0, #39691	; 0x9b0b
     c48:	26070000 	strcs	r0, [r7], -r0
     c4c:	00134900 	andseq	r4, r3, r0, lsl #18
     c50:	01130800 	tsteq	r3, r0, lsl #16
     c54:	0b3a0b0b 	bleq	e83888 <__bss_end__+0xe79a60>
     c58:	13010b3b 	movwne	r0, #6971	; 0x1b3b
     c5c:	0d090000 	stceq	0, cr0, [r9, #-0]
     c60:	3a080300 	bcc	201868 <__bss_end__+0x1f7a40>
     c64:	490b3b0b 	stmdbmi	fp, {r0, r1, r3, r8, r9, fp, ip, sp}
     c68:	000b3813 	andeq	r3, fp, r3, lsl r8
     c6c:	000d0a00 	andeq	r0, sp, r0, lsl #20
     c70:	0b3a0e03 	bleq	e84484 <__bss_end__+0xe7a65c>
     c74:	13490b3b 	movtne	r0, #39739	; 0x9b3b
     c78:	00000b38 	andeq	r0, r0, r8, lsr fp
     c7c:	0301130b 	movweq	r1, #4875	; 0x130b
     c80:	3a0b0b0e 	bcc	2c38c0 <__bss_end__+0x2b9a98>
     c84:	010b3b0b 	tsteq	fp, fp, lsl #22
     c88:	0c000013 	stceq	0, cr0, [r0], {19}
     c8c:	0e03000d 	cdpeq	0, 0, cr0, cr3, cr13, {0}
     c90:	0b381349 	bleq	e059bc <__bss_end__+0xdfbb94>
     c94:	00001934 	andeq	r1, r0, r4, lsr r9
     c98:	03012e0d 	movweq	r2, #7693	; 0x1e0d
     c9c:	3b0b3a0e 	blcc	2cf4dc <__bss_end__+0x2c56b4>
     ca0:	2019270b 	andscs	r2, r9, fp, lsl #14
     ca4:	0013010b 	andseq	r0, r3, fp, lsl #2
     ca8:	00050e00 	andeq	r0, r5, r0, lsl #28
     cac:	0b3a0e03 	bleq	e844c0 <__bss_end__+0xe7a698>
     cb0:	13490b3b 	movtne	r0, #39739	; 0x9b3b
     cb4:	050f0000 	streq	r0, [pc, #-0]	; cbc <_start-0x7344>
     cb8:	3a080300 	bcc	2018c0 <__bss_end__+0x1f7a98>
     cbc:	490b3b0b 	stmdbmi	fp, {r0, r1, r3, r8, r9, fp, ip, sp}
     cc0:	10000013 	andne	r0, r0, r3, lsl r0
     cc4:	0000010b 	andeq	r0, r0, fp, lsl #2
     cc8:	03003411 	movweq	r3, #1041	; 0x411
     ccc:	3b0b3a0e 	blcc	2cf50c <__bss_end__+0x2c56e4>
     cd0:	0013490b 	andseq	r4, r3, fp, lsl #18
     cd4:	012e1200 	teqeq	lr, r0, lsl #4
     cd8:	0e03193f 	mcreq	9, 0, r1, cr3, cr15, {1}
     cdc:	0b3b0b3a 	bleq	ec39cc <__bss_end__+0xeb9ba4>
     ce0:	01111927 	tsteq	r1, r7, lsr #18
     ce4:	18400612 	stmdane	r0, {r1, r4, r9, sl}^
     ce8:	01194297 			; <UNDEFINED> instruction: 0x01194297
     cec:	13000013 	movwne	r0, #19
     cf0:	0e030005 	cdpeq	0, 0, cr0, cr3, cr5, {0}
     cf4:	0b3b0b3a 	bleq	ec39e4 <__bss_end__+0xeb9bbc>
     cf8:	17021349 	strne	r1, [r2, -r9, asr #6]
     cfc:	05140000 	ldreq	r0, [r4, #-0]
     d00:	3a080300 	bcc	201908 <__bss_end__+0x1f7ae0>
     d04:	490b3b0b 	stmdbmi	fp, {r0, r1, r3, r8, r9, fp, ip, sp}
     d08:	00170213 	andseq	r0, r7, r3, lsl r2
     d0c:	00341500 	eorseq	r1, r4, r0, lsl #10
     d10:	0b3a0803 	bleq	e82d24 <__bss_end__+0xe78efc>
     d14:	13490b3b 	movtne	r0, #39739	; 0x9b3b
     d18:	00001802 	andeq	r1, r0, r2, lsl #16
     d1c:	03003416 	movweq	r3, #1046	; 0x416
     d20:	3b0b3a08 	blcc	2cf548 <__bss_end__+0x2c5720>
     d24:	0213490b 	andseq	r4, r3, #180224	; 0x2c000
     d28:	17000017 	smladne	r0, r7, r0, r0
     d2c:	0111010b 	tsteq	r1, fp, lsl #2
     d30:	13010612 	movwne	r0, #5650	; 0x1612
     d34:	34180000 	ldrcc	r0, [r8], #-0
     d38:	3a0e0300 	bcc	381940 <__bss_end__+0x377b18>
     d3c:	490b3b0b 	stmdbmi	fp, {r0, r1, r3, r8, r9, fp, ip, sp}
     d40:	00180213 	andseq	r0, r8, r3, lsl r2
     d44:	011d1900 	tsteq	sp, r0, lsl #18
     d48:	01111331 	tsteq	r1, r1, lsr r3
     d4c:	0b580612 	bleq	160259c <__bss_end__+0x15f8774>
     d50:	13010b59 	movwne	r0, #7001	; 0x1b59
     d54:	051a0000 	ldreq	r0, [sl, #-0]
     d58:	02133100 	andseq	r3, r3, #0, 2
     d5c:	1b000017 	blne	dc0 <_start-0x7240>
     d60:	13310005 	teqne	r1, #5
     d64:	00001802 	andeq	r1, r0, r2, lsl #16
     d68:	3100051c 	tstcc	r0, ip, lsl r5
     d6c:	000b1c13 	andeq	r1, fp, r3, lsl ip
     d70:	010b1d00 	tsteq	fp, r0, lsl #26
     d74:	06120111 			; <UNDEFINED> instruction: 0x06120111
     d78:	341e0000 	ldrcc	r0, [lr], #-0
     d7c:	02133100 	andseq	r3, r3, #0, 2
     d80:	1f000017 	svcne	0x00000017
     d84:	01018289 	smlabbeq	r1, r9, r2, r8
     d88:	13310111 	teqne	r1, #1073741828	; 0x40000004
     d8c:	8a200000 	bhi	800d94 <__bss_end__+0x7f6f6c>
     d90:	02000182 	andeq	r0, r0, #-2147483616	; 0x80000020
     d94:	18429118 	stmdane	r2, {r3, r4, r8, ip, pc}^
     d98:	1d210000 	stcne	0, cr0, [r1, #-0]
     d9c:	11133101 	tstne	r3, r1, lsl #2
     da0:	58061201 	stmdapl	r6, {r0, r9, ip}
     da4:	000b590b 	andeq	r5, fp, fp, lsl #18
     da8:	012e2200 	teqeq	lr, r0, lsl #4
     dac:	0b3a0e03 	bleq	e845c0 <__bss_end__+0xe7a798>
     db0:	19270b3b 	stmdbne	r7!, {r0, r1, r3, r4, r5, r8, r9, fp}
     db4:	0b201349 	bleq	805ae0 <__bss_end__+0x7fbcb8>
     db8:	00001301 	andeq	r1, r0, r1, lsl #6
     dbc:	3f012e23 	svccc	0x00012e23
     dc0:	3a0e0319 	bcc	381a2c <__bss_end__+0x377c04>
     dc4:	270b3b0b 	strcs	r3, [fp, -fp, lsl #22]
     dc8:	11134919 	tstne	r3, r9, lsl r9
     dcc:	40061201 	andmi	r1, r6, r1, lsl #4
     dd0:	19429718 	stmdbne	r2, {r3, r4, r8, r9, sl, ip, pc}^
     dd4:	00001301 	andeq	r1, r0, r1, lsl #6
     dd8:	01828924 	orreq	r8, r2, r4, lsr #18
     ddc:	31011100 	mrscc	r1, (UNDEF: 17)
     de0:	25000013 	strcs	r0, [r0, #-19]
     de4:	01018289 	smlabbeq	r1, r9, r2, r8
     de8:	13310111 	teqne	r1, #1073741828	; 0x40000004
     dec:	00001301 	andeq	r1, r0, r1, lsl #6
     df0:	03003426 	movweq	r3, #1062	; 0x426
     df4:	3b0b3a0e 	blcc	2cf634 <__bss_end__+0x2c580c>
     df8:	0213490b 	andseq	r4, r3, #180224	; 0x2c000
     dfc:	27000017 	smladcs	r0, r7, r0, r0
     e00:	13310005 	teqne	r1, #5
     e04:	05280000 	streq	r0, [r8, #-0]!
     e08:	3a0e0300 	bcc	381a10 <__bss_end__+0x377be8>
     e0c:	490b3b0b 	stmdbmi	fp, {r0, r1, r3, r8, r9, fp, ip, sp}
     e10:	00180213 	andseq	r0, r8, r3, lsl r2
     e14:	00342900 	eorseq	r2, r4, r0, lsl #18
     e18:	13490e03 	movtne	r0, #40451	; 0x9e03
     e1c:	18021934 	stmdane	r2, {r2, r4, r5, r8, fp, ip}
     e20:	012a0000 	teqeq	sl, r0
     e24:	01134901 	tsteq	r3, r1, lsl #18
     e28:	2b000013 	blcs	e7c <_start-0x7184>
     e2c:	13490021 	movtne	r0, #36897	; 0x9021
     e30:	00000b2f 	andeq	r0, r0, pc, lsr #22
     e34:	0300342c 	movweq	r3, #1068	; 0x42c
     e38:	3b0b3a08 	blcc	2cf660 <__bss_end__+0x2c5838>
     e3c:	1c13490b 	ldcne	9, cr4, [r3], {11}
     e40:	2d000006 	stccs	0, cr0, [r0, #-24]	; 0xffffffe8
     e44:	08030034 	stmdaeq	r3, {r2, r4, r5}
     e48:	0b3b0b3a 	bleq	ec3b38 <__bss_end__+0xeb9d10>
     e4c:	0b1c1349 	bleq	705b78 <__bss_end__+0x6fbd50>
     e50:	052e0000 	streq	r0, [lr, #-0]!
     e54:	3a080300 	bcc	201a5c <__bss_end__+0x1f7c34>
     e58:	490b3b0b 	stmdbmi	fp, {r0, r1, r3, r8, r9, fp, ip, sp}
     e5c:	00180213 	andseq	r0, r8, r3, lsl r2
     e60:	00182f00 	andseq	r2, r8, r0, lsl #30
     e64:	21300000 	teqcs	r0, r0
     e68:	2f134900 	svccs	0x00134900
     e6c:	31000005 	tstcc	r0, r5
     e70:	193f012e 	ldmdbne	pc!, {r1, r2, r3, r5, r8}	; <UNPREDICTABLE>
     e74:	0b3a0e03 	bleq	e84688 <__bss_end__+0xe7a860>
     e78:	19270b3b 	stmdbne	r7!, {r0, r1, r3, r4, r5, r8, r9, fp}
     e7c:	1301193c 	movwne	r1, #6460	; 0x193c
     e80:	05320000 	ldreq	r0, [r2, #-0]!
     e84:	00134900 	andseq	r4, r3, r0, lsl #18
     e88:	002e3300 	eoreq	r3, lr, r0, lsl #6
     e8c:	0e03193f 	mcreq	9, 0, r1, cr3, cr15, {1}
     e90:	0b3b0b3a 	bleq	ec3b80 <__bss_end__+0xeb9d58>
     e94:	13491927 	movtne	r1, #39207	; 0x9927
     e98:	0000193c 	andeq	r1, r0, ip, lsr r9
     e9c:	3f012e34 	svccc	0x00012e34
     ea0:	3a0e0319 	bcc	381b0c <__bss_end__+0x377ce4>
     ea4:	270b3b0b 	strcs	r3, [fp, -fp, lsl #22]
     ea8:	3c134919 	ldccc	9, cr4, [r3], {25}
     eac:	00130119 	andseq	r0, r3, r9, lsl r1
     eb0:	002e3500 	eoreq	r3, lr, r0, lsl #10
     eb4:	0e03193f 	mcreq	9, 0, r1, cr3, cr15, {1}
     eb8:	0b3b0b3a 	bleq	ec3ba8 <__bss_end__+0xeb9d80>
     ebc:	193c1927 	ldmdbne	ip!, {r0, r1, r2, r5, r8, fp, ip}
     ec0:	2e360000 	cdpcs	0, 3, cr0, cr6, cr0, {0}
     ec4:	03193f01 	tsteq	r9, #1, 30
     ec8:	3b0b3a0e 	blcc	2cf708 <__bss_end__+0x2c58e0>
     ecc:	4919270b 	ldmdbmi	r9, {r0, r1, r3, r8, r9, sl, sp}
     ed0:	00193c13 	andseq	r3, r9, r3, lsl ip
     ed4:	11010000 	mrsne	r0, (UNDEF: 1)
     ed8:	130e2501 	movwne	r2, #58625	; 0xe501
     edc:	1b0e030b 	blne	381b10 <__bss_end__+0x377ce8>
     ee0:	1201110e 	andne	r1, r1, #-2147483645	; 0x80000003
     ee4:	00171006 	andseq	r1, r7, r6
     ee8:	00240200 	eoreq	r0, r4, r0, lsl #4
     eec:	0b3e0b0b 	bleq	f83b20 <__bss_end__+0xf79cf8>
     ef0:	00000803 	andeq	r0, r0, r3, lsl #16
     ef4:	0b002403 	bleq	9f08 <__bss_end__+0xe0>
     ef8:	030b3e0b 	movweq	r3, #48651	; 0xbe0b
     efc:	0400000e 	streq	r0, [r0], #-14
     f00:	0e03012e 	adfeqsp	f0, f3, #0.5
     f04:	0b3b0b3a 	bleq	ec3bf4 <__bss_end__+0xeb9dcc>
     f08:	13491927 	movtne	r1, #39207	; 0x9927
     f0c:	06120111 			; <UNDEFINED> instruction: 0x06120111
     f10:	42971840 	addsmi	r1, r7, #64, 16	; 0x400000
     f14:	00130119 	andseq	r0, r3, r9, lsl r1
     f18:	00050500 	andeq	r0, r5, r0, lsl #10
     f1c:	0b3a0803 	bleq	e82f30 <__bss_end__+0xe79108>
     f20:	13490b3b 	movtne	r0, #39739	; 0x9b3b
     f24:	00001702 	andeq	r1, r0, r2, lsl #14
     f28:	01828906 	orreq	r8, r2, r6, lsl #18
     f2c:	31011101 	tstcc	r1, r1, lsl #2
     f30:	07000013 	smladeq	r0, r3, r0, r0
     f34:	0001828a 	andeq	r8, r1, sl, lsl #5
     f38:	42911802 	addsmi	r1, r1, #131072	; 0x20000
     f3c:	08000018 	stmdaeq	r0, {r3, r4}
     f40:	193f002e 	ldmdbne	pc!, {r1, r2, r3, r5}	; <UNPREDICTABLE>
     f44:	0b3a0e03 	bleq	e84758 <__bss_end__+0xe7a930>
     f48:	19270b3b 	stmdbne	r7!, {r0, r1, r3, r4, r5, r8, r9, fp}
     f4c:	06120111 			; <UNDEFINED> instruction: 0x06120111
     f50:	42971840 	addsmi	r1, r7, #64, 16	; 0x400000
     f54:	09000019 	stmdbeq	r0, {r0, r3, r4}
     f58:	193f012e 	ldmdbne	pc!, {r1, r2, r3, r5, r8}	; <UNPREDICTABLE>
     f5c:	0b3a0e03 	bleq	e84770 <__bss_end__+0xe7a948>
     f60:	19270b3b 	stmdbne	r7!, {r0, r1, r3, r4, r5, r8, r9, fp}
     f64:	06120111 			; <UNDEFINED> instruction: 0x06120111
     f68:	42971840 	addsmi	r1, r7, #64, 16	; 0x400000
     f6c:	00130119 	andseq	r0, r3, r9, lsl r1
     f70:	00050a00 	andeq	r0, r5, r0, lsl #20
     f74:	0b3a0803 	bleq	e82f88 <__bss_end__+0xe79160>
     f78:	13490b3b 	movtne	r0, #39739	; 0x9b3b
     f7c:	00001802 	andeq	r1, r0, r2, lsl #16
     f80:	2701150b 	strcs	r1, [r1, -fp, lsl #10]
     f84:	01134919 	tsteq	r3, r9, lsl r9
     f88:	0c000013 	stceq	0, cr0, [r0], {19}
     f8c:	13490005 	movtne	r0, #36869	; 0x9005
     f90:	0f0d0000 	svceq	0x000d0000
     f94:	490b0b00 	stmdbmi	fp, {r8, r9, fp}
     f98:	0e000013 	mcreq	0, 0, r0, cr0, cr3, {0}
     f9c:	0e030034 	mcreq	0, 0, r0, cr3, cr4, {1}
     fa0:	0b3b0b3a 	bleq	ec3c90 <__bss_end__+0xeb9e68>
     fa4:	193f1349 	ldmdbne	pc!, {r0, r3, r6, r8, r9, ip}	; <UNPREDICTABLE>
     fa8:	00001802 	andeq	r1, r0, r2, lsl #16
     fac:	3f012e0f 	svccc	0x00012e0f
     fb0:	3a0e0319 	bcc	381c1c <__bss_end__+0x377df4>
     fb4:	270b3b0b 	strcs	r3, [fp, -fp, lsl #22]
     fb8:	00193c19 	andseq	r3, r9, r9, lsl ip
     fbc:	11010000 	mrsne	r0, (UNDEF: 1)
     fc0:	130e2501 	movwne	r2, #58625	; 0xe501
     fc4:	1b0e030b 	blne	381bf8 <__bss_end__+0x377dd0>
     fc8:	1201110e 	andne	r1, r1, #-2147483645	; 0x80000003
     fcc:	00171006 	andseq	r1, r7, r6
     fd0:	00240200 	eoreq	r0, r4, r0, lsl #4
     fd4:	0b3e0b0b 	bleq	f83c08 <__bss_end__+0xf79de0>
     fd8:	00000803 	andeq	r0, r0, r3, lsl #16
     fdc:	03001603 	movweq	r1, #1539	; 0x603
     fe0:	3b0b3a0e 	blcc	2cf820 <__bss_end__+0x2c59f8>
     fe4:	0013490b 	andseq	r4, r3, fp, lsl #18
     fe8:	00240400 	eoreq	r0, r4, r0, lsl #8
     fec:	0b3e0b0b 	bleq	f83c20 <__bss_end__+0xf79df8>
     ff0:	00000e03 	andeq	r0, r0, r3, lsl #28
     ff4:	0b000f05 	bleq	4c10 <_start-0x33f0>
     ff8:	0600000b 	streq	r0, [r0], -fp
     ffc:	0b0b0113 	bleq	2c1450 <__bss_end__+0x2b7628>
    1000:	0b3b0b3a 	bleq	ec3cf0 <__bss_end__+0xeb9ec8>
    1004:	00001301 	andeq	r1, r0, r1, lsl #6
    1008:	03000d07 	movweq	r0, #3335	; 0xd07
    100c:	3b0b3a08 	blcc	2cf834 <__bss_end__+0x2c5a0c>
    1010:	3813490b 	ldmdacc	r3, {r0, r1, r3, r8, fp, lr}
    1014:	0800000b 	stmdaeq	r0, {r0, r1, r3}
    1018:	0e03000d 	cdpeq	0, 0, cr0, cr3, cr13, {0}
    101c:	0b3b0b3a 	bleq	ec3d0c <__bss_end__+0xeb9ee4>
    1020:	0b381349 	bleq	e05d4c <__bss_end__+0xdfbf24>
    1024:	04090000 	streq	r0, [r9], #-0
    1028:	3a0b0b01 	bcc	2c3c34 <__bss_end__+0x2b9e0c>
    102c:	010b3b0b 	tsteq	fp, fp, lsl #22
    1030:	0a000013 	beq	1084 <_start-0x6f7c>
    1034:	0e030028 	cdpeq	0, 0, cr0, cr3, cr8, {1}
    1038:	00000d1c 	andeq	r0, r0, ip, lsl sp
    103c:	3f012e0b 	svccc	0x00012e0b
    1040:	3a0e0319 	bcc	381cac <__bss_end__+0x377e84>
    1044:	270b3b0b 	strcs	r3, [fp, -fp, lsl #22]
    1048:	11134919 	tstne	r3, r9, lsl r9
    104c:	40061201 	andmi	r1, r6, r1, lsl #4
    1050:	19429718 	stmdbne	r2, {r3, r4, r8, r9, sl, ip, pc}^
    1054:	00001301 	andeq	r1, r0, r1, lsl #6
    1058:	0300340c 	movweq	r3, #1036	; 0x40c
    105c:	3b0b3a08 	blcc	2cf884 <__bss_end__+0x2c5a5c>
    1060:	1c13490b 	ldcne	9, cr4, [r3], {11}
    1064:	0d000006 	stceq	0, cr0, [r0, #-24]	; 0xffffffe8
    1068:	01018289 	smlabbeq	r1, r9, r2, r8
    106c:	13310111 	teqne	r1, #1073741828	; 0x40000004
    1070:	8a0e0000 	bhi	381078 <__bss_end__+0x377250>
    1074:	02000182 	andeq	r0, r0, #-2147483616	; 0x80000020
    1078:	18429118 	stmdane	r2, {r3, r4, r8, ip, pc}^
    107c:	0f0f0000 	svceq	0x000f0000
    1080:	490b0b00 	stmdbmi	fp, {r8, r9, fp}
    1084:	10000013 	andne	r0, r0, r3, lsl r0
    1088:	193f012e 	ldmdbne	pc!, {r1, r2, r3, r5, r8}	; <UNPREDICTABLE>
    108c:	0b3a0e03 	bleq	e848a0 <__bss_end__+0xe7aa78>
    1090:	19270b3b 	stmdbne	r7!, {r0, r1, r3, r4, r5, r8, r9, fp}
    1094:	193c1349 	ldmdbne	ip!, {r0, r3, r6, r8, r9, ip}
    1098:	05110000 	ldreq	r0, [r1, #-0]
    109c:	00134900 	andseq	r4, r3, r0, lsl #18
    10a0:	11010000 	mrsne	r0, (UNDEF: 1)
    10a4:	130e2501 	movwne	r2, #58625	; 0xe501
    10a8:	1b0e030b 	blne	381cdc <__bss_end__+0x377eb4>
    10ac:	1201110e 	andne	r1, r1, #-2147483645	; 0x80000003
    10b0:	00171006 	andseq	r1, r7, r6
    10b4:	00240200 	eoreq	r0, r4, r0, lsl #4
    10b8:	0b3e0b0b 	bleq	f83cec <__bss_end__+0xf79ec4>
    10bc:	00000803 	andeq	r0, r0, r3, lsl #16
    10c0:	0b002403 	bleq	a0d4 <__bss_end__+0x2ac>
    10c4:	030b3e0b 	movweq	r3, #48651	; 0xbe0b
    10c8:	0400000e 	streq	r0, [r0], #-14
    10cc:	0b0b0104 	bleq	2c14e4 <__bss_end__+0x2b76bc>
    10d0:	0b3b0b3a 	bleq	ec3dc0 <__bss_end__+0xeb9f98>
    10d4:	00001301 	andeq	r1, r0, r1, lsl #6
    10d8:	03002805 	movweq	r2, #2053	; 0x805
    10dc:	000d1c0e 	andeq	r1, sp, lr, lsl #24
    10e0:	00160600 	andseq	r0, r6, r0, lsl #12
    10e4:	0b3a0e03 	bleq	e848f8 <__bss_end__+0xe7aad0>
    10e8:	13490b3b 	movtne	r0, #39739	; 0x9b3b
    10ec:	2e070000 	cdpcs	0, 0, cr0, cr7, cr0, {0}
    10f0:	03193f01 	tsteq	r9, #1, 30
    10f4:	3b0b3a0e 	blcc	2cf934 <__bss_end__+0x2c5b0c>
    10f8:	1119270b 	tstne	r9, fp, lsl #14
    10fc:	40061201 	andmi	r1, r6, r1, lsl #4
    1100:	19429718 	stmdbne	r2, {r3, r4, r8, r9, sl, ip, pc}^
    1104:	00001301 	andeq	r1, r0, r1, lsl #6
    1108:	01828908 	orreq	r8, r2, r8, lsl #18
    110c:	31011100 	mrscc	r1, (UNDEF: 17)
    1110:	09000013 	stmdbeq	r0, {r0, r1, r4}
    1114:	01018289 	smlabbeq	r1, r9, r2, r8
    1118:	13310111 	teqne	r1, #1073741828	; 0x40000004
    111c:	00001301 	andeq	r1, r0, r1, lsl #6
    1120:	01828a0a 	orreq	r8, r2, sl, lsl #20
    1124:	91180200 	tstls	r8, r0, lsl #4
    1128:	00001842 	andeq	r1, r0, r2, asr #16
    112c:	3f012e0b 	svccc	0x00012e0b
    1130:	3a0e0319 	bcc	381d9c <__bss_end__+0x377f74>
    1134:	270b3b0b 	strcs	r3, [fp, -fp, lsl #22]
    1138:	11134919 	tstne	r3, r9, lsl r9
    113c:	40061201 	andmi	r1, r6, r1, lsl #4
    1140:	19429718 	stmdbne	r2, {r3, r4, r8, r9, sl, ip, pc}^
    1144:	00001301 	andeq	r1, r0, r1, lsl #6
    1148:	0300050c 	movweq	r0, #1292	; 0x50c
    114c:	3b0b3a08 	blcc	2cf974 <__bss_end__+0x2c5b4c>
    1150:	0213490b 	andseq	r4, r3, #180224	; 0x2c000
    1154:	0d000017 	stceq	0, cr0, [r0, #-92]	; 0xffffffa4
    1158:	01018289 	smlabbeq	r1, r9, r2, r8
    115c:	13310111 	teqne	r1, #1073741828	; 0x40000004
    1160:	340e0000 	strcc	r0, [lr], #-0
    1164:	3a0e0300 	bcc	381d6c <__bss_end__+0x377f44>
    1168:	490b3b0b 	stmdbmi	fp, {r0, r1, r3, r8, r9, fp, ip, sp}
    116c:	02193f13 	andseq	r3, r9, #19, 30	; 0x4c
    1170:	0f000018 	svceq	0x00000018
    1174:	0b0b000f 	bleq	2c11b8 <__bss_end__+0x2b7390>
    1178:	00001349 	andeq	r1, r0, r9, asr #6
    117c:	49003510 	stmdbmi	r0, {r4, r8, sl, ip, sp}
    1180:	11000013 	tstne	r0, r3, lsl r0
    1184:	193f002e 	ldmdbne	pc!, {r1, r2, r3, r5}	; <UNPREDICTABLE>
    1188:	0b3a0e03 	bleq	e8499c <__bss_end__+0xe7ab74>
    118c:	19270b3b 	stmdbne	r7!, {r0, r1, r3, r4, r5, r8, r9, fp}
    1190:	0000193c 	andeq	r1, r0, ip, lsr r9
    1194:	3f012e12 	svccc	0x00012e12
    1198:	3a0e0319 	bcc	381e04 <__bss_end__+0x377fdc>
    119c:	270b3b0b 	strcs	r3, [fp, -fp, lsl #22]
    11a0:	01193c19 	tsteq	r9, r9, lsl ip
    11a4:	13000013 	movwne	r0, #19
    11a8:	13490005 	movtne	r0, #36869	; 0x9005
    11ac:	2e140000 	cdpcs	0, 1, cr0, cr4, cr0, {0}
    11b0:	03193f01 	tsteq	r9, #1, 30
    11b4:	3b0b3a0e 	blcc	2cf9f4 <__bss_end__+0x2c5bcc>
    11b8:	4919270b 	ldmdbmi	r9, {r0, r1, r3, r8, r9, sl, sp}
    11bc:	01193c13 	tsteq	r9, r3, lsl ip
    11c0:	15000013 	strne	r0, [r0, #-19]
    11c4:	13490026 	movtne	r0, #36902	; 0x9026
    11c8:	35160000 	ldrcc	r0, [r6, #-0]
    11cc:	00000000 	andeq	r0, r0, r0
    11d0:	25011101 	strcs	r1, [r1, #-257]	; 0x101
    11d4:	030b130e 	movweq	r1, #45838	; 0xb30e
    11d8:	110e1b0e 	tstne	lr, lr, lsl #22
    11dc:	10061201 	andne	r1, r6, r1, lsl #4
    11e0:	02000017 	andeq	r0, r0, #23
    11e4:	0b0b0024 	bleq	2c127c <__bss_end__+0x2b7454>
    11e8:	0e030b3e 	vmoveq.16	d3[0], r0
    11ec:	24030000 	strcs	r0, [r3], #-0
    11f0:	3e0b0b00 	vmlacc.f64	d0, d11, d0
    11f4:	0008030b 	andeq	r0, r8, fp, lsl #6
    11f8:	000f0400 	andeq	r0, pc, r0, lsl #8
    11fc:	00000b0b 	andeq	r0, r0, fp, lsl #22
    1200:	0b000f05 	bleq	4e1c <_start-0x31e4>
    1204:	0013490b 	andseq	r4, r3, fp, lsl #18
    1208:	00160600 	andseq	r0, r6, r0, lsl #12
    120c:	0b3a0e03 	bleq	e84a20 <__bss_end__+0xe7abf8>
    1210:	13490b3b 	movtne	r0, #39739	; 0x9b3b
    1214:	2e070000 	cdpcs	0, 0, cr0, cr7, cr0, {0}
    1218:	03193f01 	tsteq	r9, #1, 30
    121c:	3b0b3a0e 	blcc	2cfa5c <__bss_end__+0x2c5c34>
    1220:	4919270b 	ldmdbmi	r9, {r0, r1, r3, r8, r9, sl, sp}
    1224:	12011113 	andne	r1, r1, #-1073741820	; 0xc0000004
    1228:	97184006 	ldrls	r4, [r8, -r6]
    122c:	00001942 	andeq	r1, r0, r2, asr #18
    1230:	03000508 	movweq	r0, #1288	; 0x508
    1234:	3b0b3a08 	blcc	2cfa5c <__bss_end__+0x2c5c34>
    1238:	0213490b 	andseq	r4, r3, #180224	; 0x2c000
    123c:	09000018 	stmdbeq	r0, {r3, r4}
    1240:	08030005 	stmdaeq	r3, {r0, r2}
    1244:	0b3b0b3a 	bleq	ec3f34 <__bss_end__+0xeba10c>
    1248:	17021349 	strne	r1, [r2, -r9, asr #6]
    124c:	340a0000 	strcc	r0, [sl], #-0
    1250:	3a080300 	bcc	201e58 <__bss_end__+0x1f8030>
    1254:	490b3b0b 	stmdbmi	fp, {r0, r1, r3, r8, r9, fp, ip, sp}
    1258:	00170213 	andseq	r0, r7, r3, lsl r2
    125c:	00340b00 	eorseq	r0, r4, r0, lsl #22
    1260:	0b3a0803 	bleq	e83274 <__bss_end__+0xe7944c>
    1264:	13490b3b 	movtne	r0, #39739	; 0x9b3b
    1268:	00001802 	andeq	r1, r0, r2, lsl #16
	...

Disassembly of section .debug_loc:

00000000 <.debug_loc>:
       0:	00000000 	andeq	r0, r0, r0
       4:	00000030 	andeq	r0, r0, r0, lsr r0
       8:	30500001 	subscc	r0, r0, r1
       c:	a8000000 	stmdage	r0, {}	; <UNPREDICTABLE>
      10:	01000000 	mrseq	r0, (UNDEF: 0)
      14:	00a85a00 	adceq	r5, r8, r0, lsl #20
      18:	00ac0000 	adceq	r0, ip, r0
      1c:	00040000 	andeq	r0, r4, r0
      20:	9f5001f3 	svcls	0x005001f3
      24:	000000ac 	andeq	r0, r0, ip, lsr #1
      28:	000000cc 	andeq	r0, r0, ip, asr #1
      2c:	005a0001 	subseq	r0, sl, r1
	...
      38:	30000000 	andcc	r0, r0, r0
      3c:	01000000 	mrseq	r0, (UNDEF: 0)
      40:	00305100 	eorseq	r5, r0, r0, lsl #2
      44:	00a80000 	adceq	r0, r8, r0
      48:	00010000 	andeq	r0, r1, r0
      4c:	0000a858 	andeq	sl, r0, r8, asr r8
      50:	0000ac00 	andeq	sl, r0, r0, lsl #24
      54:	f3000400 	vshl.u8	d0, d0, d0
      58:	ac9f5101 	ldfges	f5, [pc], {1}
      5c:	cc000000 	stcgt	0, cr0, [r0], {-0}
      60:	01000000 	mrseq	r0, (UNDEF: 0)
      64:	00005800 	andeq	r5, r0, r0, lsl #16
	...
      70:	001c0000 	andseq	r0, ip, r0
      74:	00010000 	andeq	r0, r1, r0
      78:	00001c52 	andeq	r1, r0, r2, asr ip
      7c:	0000a800 	andeq	sl, r0, r0, lsl #16
      80:	55000100 	strpl	r0, [r0, #-256]	; 0x100
      84:	000000a8 	andeq	r0, r0, r8, lsr #1
      88:	000000ac 	andeq	r0, r0, ip, lsr #1
      8c:	01f30004 	mvnseq	r0, r4
      90:	00ac9f52 	adceq	r9, ip, r2, asr pc
      94:	00cc0000 	sbceq	r0, ip, r0
      98:	00010000 	andeq	r0, r1, r0
      9c:	00000055 	andeq	r0, r0, r5, asr r0
      a0:	00000000 	andeq	r0, r0, r0
      a4:	00001800 	andeq	r1, r0, r0, lsl #16
      a8:	0000a800 	andeq	sl, r0, r0, lsl #16
      ac:	59000100 	stmdbpl	r0, {r8}
      b0:	000000ac 	andeq	r0, r0, ip, lsr #1
      b4:	000000cc 	andeq	r0, r0, ip, asr #1
      b8:	00590001 	subseq	r0, r9, r1
      bc:	00000000 	andeq	r0, r0, r0
      c0:	18000000 	stmdane	r0, {}	; <UNPREDICTABLE>
      c4:	30000000 	andcc	r0, r0, r0
      c8:	01000000 	mrseq	r0, (UNDEF: 0)
      cc:	00305900 	eorseq	r5, r0, r0, lsl #18
      d0:	003c0000 	eorseq	r0, ip, r0
      d4:	00010000 	andeq	r0, r1, r0
      d8:	0000785c 	andeq	r7, r0, ip, asr r8
      dc:	00009000 	andeq	r9, r0, r0
      e0:	54000100 	strpl	r0, [r0], #-256	; 0x100
      e4:	00000090 	muleq	r0, r0, r0
      e8:	000000ab 	andeq	r0, r0, fp, lsr #1
      ec:	005c0001 	subseq	r0, ip, r1
      f0:	00000000 	andeq	r0, r0, r0
      f4:	3c000000 	stccc	0, cr0, [r0], {-0}
      f8:	90000000 	andls	r0, r0, r0
      fc:	01000000 	mrseq	r0, (UNDEF: 0)
     100:	00ac5400 	adceq	r5, ip, r0, lsl #8
     104:	00cc0000 	sbceq	r0, ip, r0
     108:	00010000 	andeq	r0, r1, r0
     10c:	00000054 	andeq	r0, r0, r4, asr r0
     110:	00000000 	andeq	r0, r0, r0
     114:	00004c00 	andeq	r4, r0, r0, lsl #24
     118:	00006b00 	andeq	r6, r0, r0, lsl #22
     11c:	31000500 	tstcc	r0, r0, lsl #10
     120:	9f1c0073 	svcls	0x001c0073
     124:	000000ac 	andeq	r0, r0, ip, lsr #1
     128:	000000cc 	andeq	r0, r0, ip, asr #1
     12c:	73310005 	teqvc	r1, #5
     130:	009f1c00 	addseq	r1, pc, r0, lsl #24
     134:	00000000 	andeq	r0, r0, r0
     138:	54000000 	strpl	r0, [r0], #-0
     13c:	60000000 	andvs	r0, r0, r0
     140:	01000000 	mrseq	r0, (UNDEF: 0)
     144:	00005a00 	andeq	r5, r0, r0, lsl #20
     148:	00000000 	andeq	r0, r0, r0
     14c:	005c0000 	subseq	r0, ip, r0
     150:	00600000 	rsbeq	r0, r0, r0
     154:	00060000 	andeq	r0, r6, r0
     158:	20001c0c 	andcs	r1, r0, ip, lsl #24
     15c:	00009f20 	andeq	r9, r0, r0, lsr #30
     160:	00000000 	andeq	r0, r0, r0
     164:	005c0000 	subseq	r0, ip, r0
     168:	00600000 	rsbeq	r0, r0, r0
     16c:	00050000 	andeq	r0, r5, r0
     170:	24007a31 	strcs	r7, [r0], #-2609	; 0xa31
     174:	0000009f 	muleq	r0, pc, r0	; <UNPREDICTABLE>
     178:	00000000 	andeq	r0, r0, r0
     17c:	00002c00 	andeq	r2, r0, r0, lsl #24
     180:	00003800 	andeq	r3, r0, r0, lsl #16
     184:	50000100 	andpl	r0, r0, r0, lsl #2
     188:	00000038 	andeq	r0, r0, r8, lsr r0
     18c:	00000048 	andeq	r0, r0, r8, asr #32
     190:	48550001 	ldmdami	r5, {r0}^
     194:	58000000 	stmdapl	r0, {}	; <UNPREDICTABLE>
     198:	01000000 	mrseq	r0, (UNDEF: 0)
     19c:	00005000 	andeq	r5, r0, r0
	...
     1a8:	00100000 	andseq	r0, r0, r0
     1ac:	00010000 	andeq	r0, r1, r0
     1b0:	00001050 	andeq	r1, r0, r0, asr r0
     1b4:	00003400 	andeq	r3, r0, r0, lsl #8
     1b8:	54000100 	strpl	r0, [r0], #-256	; 0x100
	...
     1c8:	00000004 	andeq	r0, r0, r4
     1cc:	04500001 	ldrbeq	r0, [r0], #-1
     1d0:	0c000000 	stceq	0, cr0, [r0], {-0}
     1d4:	03000000 	movweq	r0, #0
     1d8:	9f307000 	svcls	0x00307000
     1dc:	0000000c 	andeq	r0, r0, ip
     1e0:	00000014 	andeq	r0, r0, r4, lsl r0
     1e4:	01f30004 	mvnseq	r0, r4
     1e8:	00009f50 	andeq	r9, r0, r0, asr pc
     1ec:	00000000 	andeq	r0, r0, r0
     1f0:	00140000 	andseq	r0, r4, r0
     1f4:	00200000 	eoreq	r0, r0, r0
     1f8:	00010000 	andeq	r0, r1, r0
     1fc:	00002050 	andeq	r2, r0, r0, asr r0
     200:	00002c00 	andeq	r2, r0, r0, lsl #24
     204:	70000300 	andvc	r0, r0, r0, lsl #6
     208:	002c9f01 	eoreq	r9, ip, r1, lsl #30
     20c:	00400000 	subeq	r0, r0, r0
     210:	00010000 	andeq	r0, r1, r0
     214:	00000050 	andeq	r0, r0, r0, asr r0
     218:	00000000 	andeq	r0, r0, r0
     21c:	00001400 	andeq	r1, r0, r0, lsl #8
     220:	00001800 	andeq	r1, r0, r0, lsl #16
     224:	51000100 	mrspl	r0, (UNDEF: 16)
     228:	00000018 	andeq	r0, r0, r8, lsl r0
     22c:	00000040 	andeq	r0, r0, r0, asr #32
     230:	01f30004 	mvnseq	r0, r4
     234:	00009f51 	andeq	r9, r0, r1, asr pc
     238:	00000000 	andeq	r0, r0, r0
     23c:	00400000 	subeq	r0, r0, r0
     240:	00600000 	rsbeq	r0, r0, r0
     244:	00010000 	andeq	r0, r1, r0
     248:	00006050 	andeq	r6, r0, r0, asr r0
     24c:	00006c00 	andeq	r6, r0, r0, lsl #24
     250:	71000300 	mrsvc	r0, LR_irq
     254:	006c9f01 	rsbeq	r9, ip, r1, lsl #30
     258:	00740000 	rsbseq	r0, r4, r0
     25c:	00010000 	andeq	r0, r1, r0
     260:	00007451 	andeq	r7, r0, r1, asr r4
     264:	00008000 	andeq	r8, r0, r0
     268:	71000300 	mrsvc	r0, LR_irq
     26c:	00009f01 	andeq	r9, r0, r1, lsl #30
     270:	00000000 	andeq	r0, r0, r0
     274:	00400000 	subeq	r0, r0, r0
     278:	00500000 	subseq	r0, r0, r0
     27c:	00010000 	andeq	r0, r1, r0
     280:	00005051 	andeq	r5, r0, r1, asr r0
     284:	00008000 	andeq	r8, r0, r0
     288:	f3000400 	vshl.u8	d0, d0, d0
     28c:	009f5101 	addseq	r5, pc, r1, lsl #2
     290:	00000000 	andeq	r0, r0, r0
     294:	40000000 	andmi	r0, r0, r0
     298:	58000000 	stmdapl	r0, {}	; <UNPREDICTABLE>
     29c:	01000000 	mrseq	r0, (UNDEF: 0)
     2a0:	00585200 	subseq	r5, r8, r0, lsl #4
     2a4:	00640000 	rsbeq	r0, r4, r0
     2a8:	00010000 	andeq	r0, r1, r0
     2ac:	00006452 	andeq	r6, r0, r2, asr r4
     2b0:	00006800 	andeq	r6, r0, r0, lsl #16
     2b4:	72000300 	andvc	r0, r0, #0, 6
     2b8:	00689f01 	rsbeq	r9, r8, r1, lsl #30
     2bc:	00800000 	addeq	r0, r0, r0
     2c0:	00010000 	andeq	r0, r1, r0
     2c4:	00000052 	andeq	r0, r0, r2, asr r0
     2c8:	00000000 	andeq	r0, r0, r0
     2cc:	00004000 	andeq	r4, r0, r0
     2d0:	00005400 	andeq	r5, r0, r0, lsl #8
     2d4:	53000100 	movwpl	r0, #256	; 0x100
     2d8:	00000054 	andeq	r0, r0, r4, asr r0
     2dc:	00000078 	andeq	r0, r0, r8, ror r0
     2e0:	00530001 	subseq	r0, r3, r1
     2e4:	00000000 	andeq	r0, r0, r0
     2e8:	48000000 	stmdami	r0, {}	; <UNPREDICTABLE>
     2ec:	60000000 	andvs	r0, r0, r0
     2f0:	01000000 	mrseq	r0, (UNDEF: 0)
     2f4:	00605c00 	rsbeq	r5, r0, r0, lsl #24
     2f8:	00800000 	addeq	r0, r0, r0
     2fc:	000a0000 	andeq	r0, sl, r0
     300:	f35201f3 	vbsl	q8, q9, <illegal reg q9.5>
     304:	231c5301 	tstcs	ip, #67108864	; 0x4000000
     308:	00009f01 	andeq	r9, r0, r1, lsl #30
     30c:	00000000 	andeq	r0, r0, r0
     310:	00800000 	addeq	r0, r0, r0
     314:	00a40000 	adceq	r0, r4, r0
     318:	00010000 	andeq	r0, r1, r0
     31c:	0000a450 	andeq	sl, r0, r0, asr r4
     320:	00011800 	andeq	r1, r1, r0, lsl #16
     324:	70000300 	andvc	r0, r0, r0, lsl #6
     328:	01189f02 	tsteq	r8, r2, lsl #30
     32c:	02280000 	eoreq	r0, r8, #0
     330:	00040000 	andeq	r0, r4, r0
     334:	9f5001f3 	svcls	0x005001f3
	...
     340:	00000080 	andeq	r0, r0, r0, lsl #1
     344:	000000f0 	strdeq	r0, [r0], -r0	; <UNPREDICTABLE>
     348:	f0510001 			; <UNDEFINED> instruction: 0xf0510001
     34c:	60000000 	andvs	r0, r0, r0
     350:	01000001 	tsteq	r0, r1
     354:	01605500 	cmneq	r0, r0, lsl #10
     358:	01680000 	cmneq	r8, r0
     35c:	00010000 	andeq	r0, r1, r0
     360:	00016851 	andeq	r6, r1, r1, asr r8
     364:	00018800 	andeq	r8, r1, r0, lsl #16
     368:	55000100 	strpl	r0, [r0, #-256]	; 0x100
     36c:	00000188 	andeq	r0, r0, r8, lsl #3
     370:	0000019c 	muleq	r0, ip, r1
     374:	9c510001 	mrrcls	0, 0, r0, r1, cr1
     378:	bc000001 	stclt	0, cr0, [r0], {1}
     37c:	01000001 	tsteq	r0, r1
     380:	01bc5500 			; <UNDEFINED> instruction: 0x01bc5500
     384:	01bf0000 			; <UNDEFINED> instruction: 0x01bf0000
     388:	00010000 	andeq	r0, r1, r0
     38c:	0001bf51 	andeq	fp, r1, r1, asr pc
     390:	00020800 	andeq	r0, r2, r0, lsl #16
     394:	55000100 	strpl	r0, [r0, #-256]	; 0x100
     398:	00000208 	andeq	r0, r0, r8, lsl #4
     39c:	00000228 	andeq	r0, r0, r8, lsr #4
     3a0:	01f30004 	mvnseq	r0, r4
     3a4:	00009f51 	andeq	r9, r0, r1, asr pc
     3a8:	00000000 	andeq	r0, r0, r0
     3ac:	00800000 	addeq	r0, r0, r0
     3b0:	00940000 	addseq	r0, r4, r0
     3b4:	00010000 	andeq	r0, r1, r0
     3b8:	00009452 	andeq	r9, r0, r2, asr r4
     3bc:	00020800 	andeq	r0, r2, r0, lsl #16
     3c0:	54000100 	strpl	r0, [r0], #-256	; 0x100
     3c4:	00000208 	andeq	r0, r0, r8, lsl #4
     3c8:	00000228 	andeq	r0, r0, r8, lsr #4
     3cc:	01f30004 	mvnseq	r0, r4
     3d0:	00009f52 	andeq	r9, r0, r2, asr pc
     3d4:	00000000 	andeq	r0, r0, r0
     3d8:	00800000 	addeq	r0, r0, r0
     3dc:	01000000 	mrseq	r0, (UNDEF: 0)
     3e0:	00010000 	andeq	r0, r1, r0
     3e4:	00010453 	andeq	r0, r1, r3, asr r4
     3e8:	00010800 	andeq	r0, r1, r0, lsl #16
     3ec:	53000100 	movwpl	r0, #256	; 0x100
     3f0:	00000160 	andeq	r0, r0, r0, ror #2
     3f4:	00000168 	andeq	r0, r0, r8, ror #2
     3f8:	68530001 	ldmdavs	r3, {r0}^
     3fc:	88000001 	stmdahi	r0, {r0}
     400:	04000001 	streq	r0, [r0], #-1
     404:	5301f300 	movwpl	pc, #4864	; 0x1300	; <UNPREDICTABLE>
     408:	0001889f 	muleq	r1, pc, r8	; <UNPREDICTABLE>
     40c:	00019000 	andeq	r9, r1, r0
     410:	53000100 	movwpl	r0, #256	; 0x100
     414:	00000190 	muleq	r0, r0, r1
     418:	00000194 	muleq	r0, r4, r1
     41c:	945c0001 	ldrbls	r0, [ip], #-1
     420:	9c000001 	stcls	0, cr0, [r0], {1}
     424:	01000001 	tsteq	r0, r1
     428:	019c5300 	orrseq	r5, ip, r0, lsl #6
     42c:	01bc0000 			; <UNDEFINED> instruction: 0x01bc0000
     430:	00040000 	andeq	r0, r4, r0
     434:	9f5301f3 	svcls	0x005301f3
     438:	000001bc 			; <UNDEFINED> instruction: 0x000001bc
     43c:	000001bf 			; <UNDEFINED> instruction: 0x000001bf
     440:	bf530001 	svclt	0x00530001
     444:	e0000001 	and	r0, r0, r1
     448:	04000001 	streq	r0, [r0], #-1
     44c:	5301f300 	movwpl	pc, #4864	; 0x1300	; <UNPREDICTABLE>
     450:	0000009f 	muleq	r0, pc, r0	; <UNPREDICTABLE>
     454:	00000000 	andeq	r0, r0, r0
     458:	00008000 	andeq	r8, r0, r0
     45c:	00009c00 	andeq	r9, r0, r0, lsl #24
     460:	91000200 	mrsls	r0, R8_usr
     464:	00009c00 	andeq	r9, r0, r0, lsl #24
     468:	0001bf00 	andeq	fp, r1, r0, lsl #30
     46c:	52000100 	andpl	r0, r0, #0, 2
     470:	000001e0 	andeq	r0, r0, r0, ror #3
     474:	000001eb 	andeq	r0, r0, fp, ror #3
     478:	00520001 	subseq	r0, r2, r1
     47c:	00000000 	andeq	r0, r0, r0
     480:	9c000000 	stcls	0, cr0, [r0], {-0}
     484:	0c000000 	stceq	0, cr0, [r0], {-0}
     488:	04000001 	streq	r0, [r0], #-1
     48c:	7fa09100 	svcvc	0x00a09100
     490:	00010c9f 	muleq	r1, pc, ip	; <UNPREDICTABLE>
     494:	00011800 	andeq	r1, r1, r0, lsl #16
     498:	51000100 	mrspl	r0, (UNDEF: 16)
     49c:	00000118 	andeq	r0, r0, r8, lsl r1
     4a0:	0000011c 	andeq	r0, r0, ip, lsl r1
     4a4:	1c530001 	mrrcne	0, 0, r0, r3, cr1
     4a8:	20000001 	andcs	r0, r0, r1
     4ac:	01000001 	tsteq	r0, r1
     4b0:	01205100 	teqeq	r0, r0, lsl #2
     4b4:	01600000 	cmneq	r0, r0
     4b8:	00010000 	andeq	r0, r1, r0
     4bc:	00016053 	andeq	r6, r1, r3, asr r0
     4c0:	00016400 	andeq	r6, r1, r0, lsl #8
     4c4:	91000400 	tstls	r0, r0, lsl #8
     4c8:	649f7fa0 	ldrvs	r7, [pc], #4000	; 4d0 <_start-0x7b30>
     4cc:	6c000001 	stcvs	0, cr0, [r0], {1}
     4d0:	01000001 	tsteq	r0, r1
     4d4:	016c5e00 	cmneq	ip, r0, lsl #28
     4d8:	01880000 	orreq	r0, r8, r0
     4dc:	00010000 	andeq	r0, r1, r0
     4e0:	00018853 	andeq	r8, r1, r3, asr r8
     4e4:	00019000 	andeq	r9, r1, r0
     4e8:	91000400 	tstls	r0, r0, lsl #8
     4ec:	909f7fa1 	addsls	r7, pc, r1, lsr #31
     4f0:	94000001 	strls	r0, [r0], #-1
     4f4:	01000001 	tsteq	r0, r1
     4f8:	01945300 	orrseq	r5, r4, r0, lsl #6
     4fc:	01980000 	orrseq	r0, r8, r0
     500:	00040000 	andeq	r0, r4, r0
     504:	9f7fa091 	svcls	0x007fa091
     508:	00000198 	muleq	r0, r8, r1
     50c:	000001a0 	andeq	r0, r0, r0, lsr #3
     510:	a05e0001 	subsge	r0, lr, r1
     514:	bc000001 	stclt	0, cr0, [r0], {1}
     518:	01000001 	tsteq	r0, r1
     51c:	01bc5300 			; <UNDEFINED> instruction: 0x01bc5300
     520:	01e00000 	mvneq	r0, r0
     524:	00040000 	andeq	r0, r4, r0
     528:	9f7fa091 	svcls	0x007fa091
     52c:	000001e0 	andeq	r0, r0, r0, ror #3
     530:	000001eb 	andeq	r0, r0, fp, ror #3
     534:	00530001 	subseq	r0, r3, r1
     538:	00000000 	andeq	r0, r0, r0
     53c:	a0000000 	andge	r0, r0, r0
     540:	ec000000 	stc	0, cr0, [r0], {-0}
     544:	01000000 	mrseq	r0, (UNDEF: 0)
     548:	00ec5c00 	rsceq	r5, ip, r0, lsl #24
     54c:	01000000 	mrseq	r0, (UNDEF: 0)
     550:	00010000 	andeq	r0, r1, r0
     554:	00010053 	andeq	r0, r1, r3, asr r0
     558:	00010400 	andeq	r0, r1, r0, lsl #8
     55c:	5c000100 	stfpls	f0, [r0], {-0}
     560:	00000104 	andeq	r0, r0, r4, lsl #2
     564:	00000108 	andeq	r0, r0, r8, lsl #2
     568:	08530001 	ldmdaeq	r3, {r0}^
     56c:	18000001 	stmdane	r0, {r0}
     570:	01000001 	tsteq	r0, r1
     574:	01185c00 	tsteq	r8, r0, lsl #24
     578:	011c0000 	tsteq	ip, r0
     57c:	00010000 	andeq	r0, r1, r0
     580:	00011c50 	andeq	r1, r1, r0, asr ip
     584:	00013c00 	andeq	r3, r1, r0, lsl #24
     588:	5c000100 	stfpls	f0, [r0], {-0}
     58c:	00000144 	andeq	r0, r0, r4, asr #2
     590:	00000158 	andeq	r0, r0, r8, asr r1
     594:	58500001 	ldmdapl	r0, {r0}^
     598:	60000001 	andvs	r0, r0, r1
     59c:	01000001 	tsteq	r0, r1
     5a0:	01605c00 	cmneq	r0, r0, lsl #24
     5a4:	01680000 	cmneq	r8, r0
     5a8:	00010000 	andeq	r0, r1, r0
     5ac:	00016853 	andeq	r6, r1, r3, asr r8
     5b0:	00017800 	andeq	r7, r1, r0, lsl #16
     5b4:	5c000100 	stfpls	f0, [r0], {-0}
     5b8:	00000178 	andeq	r0, r0, r8, ror r1
     5bc:	00000180 	andeq	r0, r0, r0, lsl #3
     5c0:	007c0005 	rsbseq	r0, ip, r5
     5c4:	809f2534 	addshi	r2, pc, r4, lsr r5	; <UNPREDICTABLE>
     5c8:	88000001 	stmdahi	r0, {r0}
     5cc:	01000001 	tsteq	r0, r1
     5d0:	01885c00 	orreq	r5, r8, r0, lsl #24
     5d4:	01900000 	orrseq	r0, r0, r0
     5d8:	00010000 	andeq	r0, r1, r0
     5dc:	00019053 	andeq	r9, r1, r3, asr r0
     5e0:	00019400 	andeq	r9, r1, r0, lsl #8
     5e4:	5c000100 	stfpls	f0, [r0], {-0}
     5e8:	00000194 	muleq	r0, r4, r1
     5ec:	0000019c 	muleq	r0, ip, r1
     5f0:	9c530001 	mrrcls	0, 0, r0, r3, cr1
     5f4:	ac000001 	stcge	0, cr0, [r0], {1}
     5f8:	01000001 	tsteq	r0, r1
     5fc:	01ac5c00 			; <UNDEFINED> instruction: 0x01ac5c00
     600:	01b40000 			; <UNDEFINED> instruction: 0x01b40000
     604:	00050000 	andeq	r0, r5, r0
     608:	2531007c 	ldrcs	r0, [r1, #-124]!	; 0x7c
     60c:	0001b49f 	muleq	r1, pc, r4	; <UNPREDICTABLE>
     610:	0001bc00 	andeq	fp, r1, r0, lsl #24
     614:	5c000100 	stfpls	f0, [r0], {-0}
     618:	000001bc 			; <UNDEFINED> instruction: 0x000001bc
     61c:	000001bf 			; <UNDEFINED> instruction: 0x000001bf
     620:	bf530001 	svclt	0x00530001
     624:	e0000001 	and	r0, r0, r1
     628:	04000001 	streq	r0, [r0], #-1
     62c:	5301f300 	movwpl	pc, #4864	; 0x1300	; <UNPREDICTABLE>
     630:	0001e09f 	muleq	r1, pc, r0	; <UNPREDICTABLE>
     634:	0001eb00 	andeq	lr, r1, r0, lsl #22
     638:	5c000100 	stfpls	f0, [r0], {-0}
	...
     644:	000000ec 	andeq	r0, r0, ip, ror #1
     648:	000000fc 	strdeq	r0, [r0], -ip
     64c:	9f300002 	svcls	0x00300002
     650:	000000fc 	strdeq	r0, [r0], -ip
     654:	00000104 	andeq	r0, r0, r4, lsl #2
     658:	9f310002 	svcls	0x00310002
     65c:	00000104 	andeq	r0, r0, r4, lsl #2
     660:	00000108 	andeq	r0, r0, r8, lsl #2
     664:	9f300002 	svcls	0x00300002
	...
     670:	00000228 	andeq	r0, r0, r8, lsr #4
     674:	0000023b 	andeq	r0, r0, fp, lsr r2
     678:	3b500001 	blcc	1400684 <__bss_end__+0x13f685c>
     67c:	5c000002 	stcpl	0, cr0, [r0], {2}
     680:	04000002 	streq	r0, [r0], #-2
     684:	5001f300 	andpl	pc, r1, r0, lsl #6
     688:	00025c9f 	muleq	r2, pc, ip	; <UNPREDICTABLE>
     68c:	00029000 	andeq	r9, r2, r0
     690:	50000100 	andpl	r0, r0, r0, lsl #2
	...
     69c:	00000228 	andeq	r0, r0, r8, lsr #4
     6a0:	0000023b 	andeq	r0, r0, fp, lsr r2
     6a4:	3b510001 	blcc	14406b0 <__bss_end__+0x1436888>
     6a8:	5c000002 	stcpl	0, cr0, [r0], {2}
     6ac:	04000002 	streq	r0, [r0], #-2
     6b0:	5101f300 	mrspl	pc, SP_irq	; <UNPREDICTABLE>
     6b4:	00025c9f 	muleq	r2, pc, ip	; <UNPREDICTABLE>
     6b8:	00029000 	andeq	r9, r2, r0
     6bc:	51000100 	mrspl	r0, (UNDEF: 16)
	...
     6c8:	00000290 	muleq	r0, r0, r2
     6cc:	000002bc 			; <UNDEFINED> instruction: 0x000002bc
     6d0:	bc500001 	mrrclt	0, 0, r0, r0, cr1	; <UNPREDICTABLE>
     6d4:	0c000002 	stceq	0, cr0, [r0], {2}
     6d8:	01000005 	tsteq	r0, r5
     6dc:	050c5a00 	streq	r5, [ip, #-2560]	; 0xa00
     6e0:	05240000 	streq	r0, [r4, #-0]!
     6e4:	00040000 	andeq	r0, r4, r0
     6e8:	9f5001f3 	svcls	0x005001f3
	...
     6f4:	00000290 	muleq	r0, r0, r2
     6f8:	000002a4 	andeq	r0, r0, r4, lsr #5
     6fc:	a4510001 	ldrbge	r0, [r1], #-1
     700:	bc000002 	stclt	0, cr0, [r0], {2}
     704:	03000002 	movweq	r0, #2
     708:	9f017100 	svcls	0x00017100
     70c:	000002bc 			; <UNDEFINED> instruction: 0x000002bc
     710:	00000524 	andeq	r0, r0, r4, lsr #10
     714:	01f30004 	mvnseq	r0, r4
     718:	00009f51 	andeq	r9, r0, r1, asr pc
     71c:	00000000 	andeq	r0, r0, r0
     720:	02900000 	addseq	r0, r0, #0
     724:	02c40000 	sbceq	r0, r4, #0
     728:	00010000 	andeq	r0, r1, r0
     72c:	0002c452 	andeq	ip, r2, r2, asr r4
     730:	0002ec00 	andeq	lr, r2, r0, lsl #24
     734:	52000100 	andpl	r0, r0, #0, 2
     738:	000002ec 	andeq	r0, r0, ip, ror #5
     73c:	000004bc 			; <UNDEFINED> instruction: 0x000004bc
     740:	bc560001 	mrrclt	0, 0, r0, r6, cr1
     744:	24000004 	strcs	r0, [r0], #-4
     748:	01000005 	tsteq	r0, r5
     74c:	00005200 	andeq	r5, r0, r0, lsl #4
     750:	00000000 	andeq	r0, r0, r0
     754:	02900000 	addseq	r0, r0, #0
     758:	02ac0000 	adceq	r0, ip, #0
     75c:	00010000 	andeq	r0, r1, r0
     760:	00000053 	andeq	r0, r0, r3, asr r0
     764:	00000000 	andeq	r0, r0, r0
     768:	0002a000 	andeq	sl, r2, r0
     76c:	0002bc00 	andeq	fp, r2, r0, lsl #24
     770:	50000100 	andpl	r0, r0, r0, lsl #2
     774:	000002bc 			; <UNDEFINED> instruction: 0x000002bc
     778:	000002c0 	andeq	r0, r0, r0, asr #5
     77c:	c0540001 	subsgt	r0, r4, r1
     780:	cc000002 	stcgt	0, cr0, [r0], {2}
     784:	03000002 	movweq	r0, #2
     788:	9f017400 	svcls	0x00017400
     78c:	000002cc 	andeq	r0, r0, ip, asr #5
     790:	000002d8 	ldrdeq	r0, [r0], -r8
     794:	d8540001 	ldmdale	r4, {r0}^
     798:	e4000002 	str	r0, [r0], #-2
     79c:	03000002 	movweq	r0, #2
     7a0:	9f017400 	svcls	0x00017400
     7a4:	000002e4 	andeq	r0, r0, r4, ror #5
     7a8:	000004c0 	andeq	r0, r0, r0, asr #9
     7ac:	c0540001 	subsgt	r0, r4, r1
     7b0:	cc000004 	stcgt	0, cr0, [r0], {4}
     7b4:	03000004 	movweq	r0, #4
     7b8:	9f017400 	svcls	0x00017400
     7bc:	000004cc 	andeq	r0, r0, ip, asr #9
     7c0:	000004f8 	strdeq	r0, [r0], -r8
     7c4:	f8540001 			; <UNDEFINED> instruction: 0xf8540001
     7c8:	04000004 	streq	r0, [r0], #-4
     7cc:	01000005 	tsteq	r0, r5
     7d0:	05045000 	streq	r5, [r4, #-0]
     7d4:	050c0000 	streq	r0, [ip, #-0]
     7d8:	00030000 	andeq	r0, r3, r0
     7dc:	009f0174 	addseq	r0, pc, r4, ror r1	; <UNPREDICTABLE>
     7e0:	00000000 	andeq	r0, r0, r0
     7e4:	a8000000 	stmdage	r0, {}	; <UNPREDICTABLE>
     7e8:	0c000002 	stceq	0, cr0, [r0], {2}
     7ec:	01000005 	tsteq	r0, r5
     7f0:	050c5800 	streq	r5, [ip, #-2048]	; 0x800
     7f4:	05240000 	streq	r0, [r4, #-0]!
     7f8:	000a0000 	andeq	r0, sl, r0
     7fc:	f35101f3 	vbsl	q8, <illegal reg q8.5>, <illegal reg q9.5>
     800:	31225001 	teqcc	r2, r1
     804:	00009f1c 	andeq	r9, r0, ip, lsl pc
     808:	00000000 	andeq	r0, r0, r0
     80c:	03f40000 	mvnseq	r0, #0
     810:	03f80000 	mvnseq	r0, #0
     814:	00010000 	andeq	r0, r1, r0
     818:	00041850 	andeq	r1, r4, r0, asr r8
     81c:	00041c00 	andeq	r1, r4, r0, lsl #24
     820:	50000100 	andpl	r0, r0, r0, lsl #2
     824:	0000043c 	andeq	r0, r0, ip, lsr r4
     828:	00000440 	andeq	r0, r0, r0, asr #8
     82c:	60500001 	subsvs	r0, r0, r1
     830:	64000004 	strvs	r0, [r0], #-4
     834:	01000004 	tsteq	r0, r4
     838:	046c5000 	strbteq	r5, [ip], #-0
     83c:	04700000 	ldrbteq	r0, [r0], #-0
     840:	00010000 	andeq	r0, r1, r0
     844:	00049050 	andeq	r9, r4, r0, asr r0
     848:	00049400 	andeq	r9, r4, r0, lsl #8
     84c:	50000100 	andpl	r0, r0, r0, lsl #2
     850:	000004b8 			; <UNDEFINED> instruction: 0x000004b8
     854:	000004e0 	andeq	r0, r0, r0, ror #9
     858:	00500001 	subseq	r0, r0, r1
     85c:	00000000 	andeq	r0, r0, r0
     860:	ec000000 	stc	0, cr0, [r0], {-0}
     864:	f4000002 	vst4.8	{d0-d3}, [r0], r2
     868:	02000002 	andeq	r0, r0, #2
     86c:	f49f3000 			; <UNDEFINED> instruction: 0xf49f3000
     870:	f8000002 			; <UNDEFINED> instruction: 0xf8000002
     874:	01000002 	tsteq	r0, r2
     878:	03045700 	movweq	r5, #18176	; 0x4700
     87c:	04e00000 	strbteq	r0, [r0], #0
     880:	00010000 	andeq	r0, r1, r0
     884:	00000057 	andeq	r0, r0, r7, asr r0
     888:	00000000 	andeq	r0, r0, r0
     88c:	00000400 	andeq	r0, r0, r0, lsl #8
     890:	00000800 	andeq	r0, r0, r0, lsl #16
     894:	73000700 	movwvc	r0, #1792	; 0x700
     898:	10000a00 	andne	r0, r0, r0, lsl #20
     89c:	00089f21 	andeq	r9, r8, r1, lsr #30
     8a0:	00100000 	andseq	r0, r0, r0
     8a4:	00010000 	andeq	r0, r1, r0
     8a8:	00000053 	andeq	r0, r0, r3, asr r0
     8ac:	00000000 	andeq	r0, r0, r0
     8b0:	00001400 	andeq	r1, r0, r0, lsl #8
     8b4:	00001800 	andeq	r1, r0, r0, lsl #16
     8b8:	73000700 	movwvc	r0, #1792	; 0x700
     8bc:	efff0b00 	svc	0x00ff0b00
     8c0:	00189f1a 	andseq	r9, r8, sl, lsl pc
     8c4:	00200000 	eoreq	r0, r0, r0
     8c8:	00010000 	andeq	r0, r1, r0
     8cc:	00000053 	andeq	r0, r0, r3, asr r0
	...
     8d8:	00000c00 	andeq	r0, r0, r0, lsl #24
     8dc:	50000100 	andpl	r0, r0, r0, lsl #2
     8e0:	0000000c 	andeq	r0, r0, ip
     8e4:	00000020 	andeq	r0, r0, r0, lsr #32
     8e8:	00540001 	subseq	r0, r4, r1
     8ec:	00000000 	andeq	r0, r0, r0
     8f0:	34000000 	strcc	r0, [r0], #-0
     8f4:	3c000000 	stccc	0, cr0, [r0], {-0}
     8f8:	03000000 	movweq	r0, #0
     8fc:	9f047300 	svcls	0x00047300
     900:	0000003c 	andeq	r0, r0, ip, lsr r0
     904:	00000047 	andeq	r0, r0, r7, asr #32
     908:	00530001 	subseq	r0, r3, r1
     90c:	00000000 	andeq	r0, r0, r0
     910:	48000000 	stmdami	r0, {}	; <UNPREDICTABLE>
     914:	74000000 	strvc	r0, [r0], #-0
     918:	01000000 	mrseq	r0, (UNDEF: 0)
     91c:	00745000 	rsbseq	r5, r4, r0
     920:	00830000 	addeq	r0, r3, r0
     924:	00030000 	andeq	r0, r3, r0
     928:	009f7873 	addseq	r7, pc, r3, ror r8	; <UNPREDICTABLE>
     92c:	00000000 	andeq	r0, r0, r0
     930:	b4000000 	strlt	r0, [r0], #-0
     934:	b8000087 	stmdalt	r0, {r0, r1, r2, r7}
     938:	02000087 	andeq	r0, r0, #135	; 0x87
     93c:	b89f3000 	ldmlt	pc, {ip, sp}	; <UNPREDICTABLE>
     940:	bc000087 	stclt	0, cr0, [r0], {135}	; 0x87
     944:	01000087 	smlabbeq	r0, r7, r0, r0
     948:	00005000 	andeq	r5, r0, r0
     94c:	00000000 	andeq	r0, r0, r0
     950:	87cc0000 	strbhi	r0, [ip, r0]
     954:	87d00000 	ldrbhi	r0, [r0, r0]
     958:	00020000 	andeq	r0, r2, r0
     95c:	87d09f30 			; <UNDEFINED> instruction: 0x87d09f30
     960:	87d40000 	ldrbhi	r0, [r4, r0]
     964:	00010000 	andeq	r0, r1, r0
     968:	0087d853 	addeq	sp, r7, r3, asr r8
     96c:	0087e000 	addeq	lr, r7, r0
     970:	53000100 	movwpl	r0, #256	; 0x100
	...
     980:	00000004 	andeq	r0, r0, r4
     984:	04500001 	ldrbeq	r0, [r0], #-1
     988:	0c000000 	stceq	0, cr0, [r0], {-0}
     98c:	01000000 	mrseq	r0, (UNDEF: 0)
     990:	000c5300 	andeq	r5, ip, r0, lsl #6
     994:	00100000 	andseq	r0, r0, r0
     998:	00010000 	andeq	r0, r1, r0
     99c:	00001050 	andeq	r1, r0, r0, asr r0
     9a0:	00001c00 	andeq	r1, r0, r0, lsl #24
     9a4:	53000100 	movwpl	r0, #256	; 0x100
	...
     9b0:	0000003c 	andeq	r0, r0, ip, lsr r0
     9b4:	00000047 	andeq	r0, r0, r7, asr #32
     9b8:	47500001 	ldrbmi	r0, [r0, -r1]
     9bc:	60000000 	andvs	r0, r0, r0
     9c0:	01000000 	mrseq	r0, (UNDEF: 0)
     9c4:	00005500 	andeq	r5, r0, r0, lsl #10
     9c8:	00000000 	andeq	r0, r0, r0
     9cc:	00500000 	subseq	r0, r0, r0
     9d0:	00540000 	subseq	r0, r4, r0
     9d4:	00010000 	andeq	r0, r1, r0
     9d8:	00000050 	andeq	r0, r0, r0, asr r0
     9dc:	00000000 	andeq	r0, r0, r0
     9e0:	00006000 	andeq	r6, r0, r0
     9e4:	00006c00 	andeq	r6, r0, r0, lsl #24
     9e8:	50000100 	andpl	r0, r0, r0, lsl #2
     9ec:	0000006c 	andeq	r0, r0, ip, rrx
     9f0:	00000074 	andeq	r0, r0, r4, ror r0
     9f4:	01f30004 	mvnseq	r0, r4
     9f8:	00009f50 	andeq	r9, r0, r0, asr pc
     9fc:	00000000 	andeq	r0, r0, r0
     a00:	00740000 	rsbseq	r0, r4, r0
     a04:	00800000 	addeq	r0, r0, r0
     a08:	00010000 	andeq	r0, r1, r0
     a0c:	00008050 	andeq	r8, r0, r0, asr r0
     a10:	00008800 	andeq	r8, r0, r0, lsl #16
     a14:	f3000400 	vshl.u8	d0, d0, d0
     a18:	009f5001 	addseq	r5, pc, r1
	...
     a24:	90000000 	andls	r0, r0, r0
     a28:	01000000 	mrseq	r0, (UNDEF: 0)
     a2c:	00905000 	addseq	r5, r0, r0
     a30:	00d40000 	sbcseq	r0, r4, r0
     a34:	00010000 	andeq	r0, r1, r0
     a38:	00000054 	andeq	r0, r0, r4, asr r0
     a3c:	00000000 	andeq	r0, r0, r0
     a40:	00004800 	andeq	r4, r0, r0, lsl #16
     a44:	00004c00 	andeq	r4, r0, r0, lsl #24
     a48:	55000100 	strpl	r0, [r0, #-256]	; 0x100
     a4c:	00000054 	andeq	r0, r0, r4, asr r0
     a50:	00000058 	andeq	r0, r0, r8, asr r0
     a54:	60550001 	subsvs	r0, r5, r1
     a58:	64000000 	strvs	r0, [r0], #-0
     a5c:	01000000 	mrseq	r0, (UNDEF: 0)
     a60:	006c5500 	rsbeq	r5, ip, r0, lsl #10
     a64:	00700000 	rsbseq	r0, r0, r0
     a68:	00010000 	andeq	r0, r1, r0
     a6c:	00007855 	andeq	r7, r0, r5, asr r8
     a70:	00007c00 	andeq	r7, r0, r0, lsl #24
     a74:	55000100 	strpl	r0, [r0, #-256]	; 0x100
     a78:	00000084 	andeq	r0, r0, r4, lsl #1
     a7c:	00000088 	andeq	r0, r0, r8, lsl #1
     a80:	8c550001 	mrrchi	0, 0, r0, r5, cr1
     a84:	d4000000 	strle	r0, [r0], #-0
     a88:	01000000 	mrseq	r0, (UNDEF: 0)
     a8c:	00005500 	andeq	r5, r0, r0, lsl #10
     a90:	00000000 	andeq	r0, r0, r0
     a94:	001c0000 	andseq	r0, ip, r0
     a98:	00440000 	subeq	r0, r4, r0
     a9c:	00010000 	andeq	r0, r1, r0
     aa0:	00004453 	andeq	r4, r0, r3, asr r4
     aa4:	00004c00 	andeq	r4, r0, r0, lsl #24
     aa8:	70001c00 	andvc	r1, r0, r0, lsl #24
     aac:	f72cf700 			; <UNDEFINED> instruction: 0xf72cf700
     ab0:	0825f425 	stmdaeq	r5!, {r0, r2, r5, sl, ip, sp, lr, pc}
     ab4:	cccccccd 	stclgt	12, cr12, [ip], {205}	; 0xcd
     ab8:	00000000 	andeq	r0, r0, r0
     abc:	f720081e 			; <UNDEFINED> instruction: 0xf720081e
     ac0:	2cf72525 	cfldr64cs	mvdx2, [r7], #148	; 0x94
     ac4:	4c9f2533 	cfldr32mi	mvfx2, [pc], {51}	; 0x33
     ac8:	50000000 	andpl	r0, r0, r0
     acc:	01000000 	mrseq	r0, (UNDEF: 0)
     ad0:	00505300 	subseq	r5, r0, r0, lsl #6
     ad4:	00580000 	subseq	r0, r8, r0
     ad8:	001c0000 	andseq	r0, ip, r0
     adc:	2cf70070 	ldclcs	0, cr0, [r7], #448	; 0x1c0
     ae0:	25f425f7 	ldrbcs	r2, [r4, #1527]!	; 0x5f7
     ae4:	cccccd08 	stclgt	13, cr12, [ip], {8}
     ae8:	000000cc 	andeq	r0, r0, ip, asr #1
     aec:	20081e00 	andcs	r1, r8, r0, lsl #28
     af0:	f72525f7 			; <UNDEFINED> instruction: 0xf72525f7
     af4:	9f25332c 	svcls	0x0025332c
     af8:	00000058 	andeq	r0, r0, r8, asr r0
     afc:	0000005c 	andeq	r0, r0, ip, asr r0
     b00:	5c530001 	mrrcpl	0, 0, r0, r3, cr1
     b04:	64000000 	strvs	r0, [r0], #-0
     b08:	1c000000 	stcne	0, cr0, [r0], {-0}
     b0c:	f7007000 			; <UNDEFINED> instruction: 0xf7007000
     b10:	f425f72c 	vld1.8	{d15}, [r5 :128], ip
     b14:	cccd0825 	stclgt	8, cr0, [sp], {37}	; 0x25
     b18:	0000cccc 	andeq	ip, r0, ip, asr #25
     b1c:	081e0000 	ldmdaeq	lr, {}	; <UNPREDICTABLE>
     b20:	2525f720 	strcs	pc, [r5, #-1824]!	; 0x720
     b24:	25332cf7 	ldrcs	r2, [r3, #-3319]!	; 0xcf7
     b28:	0000649f 	muleq	r0, pc, r4	; <UNPREDICTABLE>
     b2c:	00006800 	andeq	r6, r0, r0, lsl #16
     b30:	53000100 	movwpl	r0, #256	; 0x100
     b34:	00000068 	andeq	r0, r0, r8, rrx
     b38:	00000070 	andeq	r0, r0, r0, ror r0
     b3c:	0070001c 	rsbseq	r0, r0, ip, lsl r0
     b40:	25f72cf7 	ldrbcs	r2, [r7, #3319]!	; 0xcf7
     b44:	cd0825f4 	cfstr32gt	mvfx2, [r8, #-976]	; 0xfffffc30
     b48:	00cccccc 	sbceq	ip, ip, ip, asr #25
     b4c:	1e000000 	cdpne	0, 0, cr0, cr0, cr0, {0}
     b50:	25f72008 	ldrbcs	r2, [r7, #8]!
     b54:	332cf725 	msrcc	CPSR_fs, #9699328	; 0x940000
     b58:	00709f25 	rsbseq	r9, r0, r5, lsr #30
     b5c:	00740000 	rsbseq	r0, r4, r0
     b60:	00010000 	andeq	r0, r1, r0
     b64:	00007453 	andeq	r7, r0, r3, asr r4
     b68:	00007c00 	andeq	r7, r0, r0, lsl #24
     b6c:	70001c00 	andvc	r1, r0, r0, lsl #24
     b70:	f72cf700 			; <UNDEFINED> instruction: 0xf72cf700
     b74:	0825f425 	stmdaeq	r5!, {r0, r2, r5, sl, ip, sp, lr, pc}
     b78:	cccccccd 	stclgt	12, cr12, [ip], {205}	; 0xcd
     b7c:	00000000 	andeq	r0, r0, r0
     b80:	f720081e 			; <UNDEFINED> instruction: 0xf720081e
     b84:	2cf72525 	cfldr64cs	mvdx2, [r7], #148	; 0x94
     b88:	7c9f2533 	cfldr32vc	mvfx2, [pc], {51}	; 0x33
     b8c:	80000000 	andhi	r0, r0, r0
     b90:	01000000 	mrseq	r0, (UNDEF: 0)
     b94:	00805300 	addeq	r5, r0, r0, lsl #6
     b98:	00880000 	addeq	r0, r8, r0
     b9c:	001c0000 	andseq	r0, ip, r0
     ba0:	2cf70070 	ldclcs	0, cr0, [r7], #448	; 0x1c0
     ba4:	25f425f7 	ldrbcs	r2, [r4, #1527]!	; 0x5f7
     ba8:	cccccd08 	stclgt	13, cr12, [ip], {8}
     bac:	000000cc 	andeq	r0, r0, ip, asr #1
     bb0:	20081e00 	andcs	r1, r8, r0, lsl #28
     bb4:	f72525f7 			; <UNDEFINED> instruction: 0xf72525f7
     bb8:	9f25332c 	svcls	0x0025332c
     bbc:	00000088 	andeq	r0, r0, r8, lsl #1
     bc0:	0000008c 	andeq	r0, r0, ip, lsl #1
     bc4:	8c530001 	mrrchi	0, 0, r0, r3, cr1
     bc8:	90000000 	andls	r0, r0, r0
     bcc:	1c000000 	stcne	0, cr0, [r0], {-0}
     bd0:	f7007000 			; <UNDEFINED> instruction: 0xf7007000
     bd4:	f425f72c 	vld1.8	{d15}, [r5 :128], ip
     bd8:	cccd0825 	stclgt	8, cr0, [sp], {37}	; 0x25
     bdc:	0000cccc 	andeq	ip, r0, ip, asr #25
     be0:	081e0000 	ldmdaeq	lr, {}	; <UNPREDICTABLE>
     be4:	2525f720 	strcs	pc, [r5, #-1824]!	; 0x720
     be8:	25332cf7 	ldrcs	r2, [r3, #-3319]!	; 0xcf7
     bec:	0000909f 	muleq	r0, pc, r0	; <UNPREDICTABLE>
     bf0:	00009800 	andeq	r9, r0, r0, lsl #16
     bf4:	74001c00 	strvc	r1, [r0], #-3072	; 0xc00
     bf8:	f72cf700 			; <UNDEFINED> instruction: 0xf72cf700
     bfc:	0825f425 	stmdaeq	r5!, {r0, r2, r5, sl, ip, sp, lr, pc}
     c00:	cccccccd 	stclgt	12, cr12, [ip], {205}	; 0xcd
     c04:	00000000 	andeq	r0, r0, r0
     c08:	f720081e 			; <UNDEFINED> instruction: 0xf720081e
     c0c:	2cf72525 	cfldr64cs	mvdx2, [r7], #148	; 0x94
     c10:	989f2533 	ldmls	pc, {r0, r1, r4, r5, r8, sl, sp}	; <UNPREDICTABLE>
     c14:	9c000000 	stcls	0, cr0, [r0], {-0}
     c18:	17000000 	strne	r0, [r0, -r0]
     c1c:	f7007400 			; <UNDEFINED> instruction: 0xf7007400
     c20:	7125f72c 	msrvc	SP_abt, ip
     c24:	f72cf700 			; <UNDEFINED> instruction: 0xf72cf700
     c28:	20081e25 	andcs	r1, r8, r5, lsr #28
     c2c:	f72525f7 			; <UNDEFINED> instruction: 0xf72525f7
     c30:	9f25332c 	svcls	0x0025332c
     c34:	0000009c 	muleq	r0, ip, r0
     c38:	000000d4 	ldrdeq	r0, [r0], -r4
     c3c:	0074001c 	rsbseq	r0, r4, ip, lsl r0
     c40:	25f72cf7 	ldrbcs	r2, [r7, #3319]!	; 0xcf7
     c44:	cd0825f4 	cfstr32gt	mvfx2, [r8, #-976]	; 0xfffffc30
     c48:	00cccccc 	sbceq	ip, ip, ip, asr #25
     c4c:	1e000000 	cdpne	0, 0, cr0, cr0, cr0, {0}
     c50:	25f72008 	ldrbcs	r2, [r7, #8]!
     c54:	332cf725 	msrcc	CPSR_fs, #9699328	; 0x940000
     c58:	00009f25 	andeq	r9, r0, r5, lsr #30
     c5c:	00000000 	andeq	r0, r0, r0
     c60:	00940000 	addseq	r0, r4, r0
     c64:	00b80000 	adcseq	r0, r8, r0
     c68:	00010000 	andeq	r0, r1, r0
     c6c:	0000b850 	andeq	fp, r0, r0, asr r8
     c70:	0000c400 	andeq	ip, r0, r0, lsl #8
     c74:	31000800 	tstcc	r0, r0, lsl #16
     c78:	73240071 	teqvc	r4, #113	; 0x71
     c7c:	c49f2100 	ldrgt	r2, [pc], #256	; c84 <_start-0x737c>
     c80:	c7000000 	strgt	r0, [r0, -r0]
     c84:	01000000 	mrseq	r0, (UNDEF: 0)
     c88:	00005100 	andeq	r5, r0, r0, lsl #2
     c8c:	00000000 	andeq	r0, r0, r0
     c90:	00d40000 	sbcseq	r0, r4, r0
     c94:	00f80000 	rscseq	r0, r8, r0
     c98:	00010000 	andeq	r0, r1, r0
     c9c:	0000f850 	andeq	pc, r0, r0, asr r8	; <UNPREDICTABLE>
     ca0:	00010c00 	andeq	r0, r1, r0, lsl #24
     ca4:	f3000400 	vshl.u8	d0, d0, d0
     ca8:	009f5001 	addseq	r5, pc, r1
     cac:	00000000 	andeq	r0, r0, r0
     cb0:	e0000000 	and	r0, r0, r0
     cb4:	e8000000 	stmda	r0, {}	; <UNPREDICTABLE>
     cb8:	02000000 	andeq	r0, r0, #0
     cbc:	e89f3000 	ldm	pc, {ip, sp}	; <UNPREDICTABLE>
     cc0:	e8000000 	stmda	r0, {}	; <UNPREDICTABLE>
     cc4:	01000000 	mrseq	r0, (UNDEF: 0)
     cc8:	00e85200 	rsceq	r5, r8, r0, lsl #4
     ccc:	00f00000 	rscseq	r0, r0, r0
     cd0:	00020000 	andeq	r0, r2, r0
     cd4:	00f09f30 	rscseq	r9, r0, r0, lsr pc
     cd8:	01030000 	mrseq	r0, (UNDEF: 3)
     cdc:	00010000 	andeq	r0, r1, r0
     ce0:	00000052 	andeq	r0, r0, r2, asr r0
     ce4:	00000000 	andeq	r0, r0, r0
     ce8:	0000e000 	andeq	lr, r0, r0
     cec:	0000f400 	andeq	pc, r0, r0, lsl #8
     cf0:	30000200 	andcc	r0, r0, r0, lsl #4
     cf4:	0000f49f 	muleq	r0, pc, r4	; <UNPREDICTABLE>
     cf8:	00010000 	andeq	r0, r1, r0
     cfc:	31000500 	tstcc	r0, r0, lsl #10
     d00:	9f240073 	svcls	0x00240073
     d04:	00000100 	andeq	r0, r0, r0, lsl #2
     d08:	00000103 	andeq	r0, r0, r3, lsl #2
     d0c:	03510001 	cmpeq	r1, #1
     d10:	0c000001 	stceq	0, cr0, [r0], {1}
     d14:	08000001 	stmdaeq	r0, {r0}
     d18:	01f33100 	mvnseq	r3, r0, lsl #2
     d1c:	241a4f50 	ldrcs	r4, [sl], #-3920	; 0xf50
     d20:	0000009f 	muleq	r0, pc, r0	; <UNPREDICTABLE>
     d24:	00000000 	andeq	r0, r0, r0
     d28:	00010c00 	andeq	r0, r1, r0, lsl #24
     d2c:	00013000 	andeq	r3, r1, r0
     d30:	50000100 	andpl	r0, r0, r0, lsl #2
     d34:	00000130 	andeq	r0, r0, r0, lsr r1
     d38:	00000144 	andeq	r0, r0, r4, asr #2
     d3c:	01f30004 	mvnseq	r0, r4
     d40:	00009f50 	andeq	r9, r0, r0, asr pc
     d44:	00000000 	andeq	r0, r0, r0
     d48:	01180000 	tsteq	r8, r0
     d4c:	01200000 	teqeq	r0, r0
     d50:	00020000 	andeq	r0, r2, r0
     d54:	01209f30 	teqeq	r0, r0, lsr pc
     d58:	01200000 	teqeq	r0, r0
     d5c:	00010000 	andeq	r0, r1, r0
     d60:	00012052 	andeq	r2, r1, r2, asr r0
     d64:	00012800 	andeq	r2, r1, r0, lsl #16
     d68:	30000200 	andcc	r0, r0, r0, lsl #4
     d6c:	0001289f 	muleq	r1, pc, r8	; <UNPREDICTABLE>
     d70:	00013b00 	andeq	r3, r1, r0, lsl #22
     d74:	52000100 	andpl	r0, r0, #0, 2
	...
     d80:	00000118 	andeq	r0, r0, r8, lsl r1
     d84:	0000012c 	andeq	r0, r0, ip, lsr #2
     d88:	9f300002 	svcls	0x00300002
     d8c:	0000012c 	andeq	r0, r0, ip, lsr #2
     d90:	00000138 	andeq	r0, r0, r8, lsr r1
     d94:	73310005 	teqvc	r1, #5
     d98:	389f2400 	ldmcc	pc, {sl, sp}	; <UNPREDICTABLE>
     d9c:	3b000001 	blcc	da8 <_start-0x7258>
     da0:	01000001 	tsteq	r0, r1
     da4:	013b5100 	teqeq	fp, r0, lsl #2
     da8:	01440000 	mrseq	r0, (UNDEF: 68)
     dac:	00080000 	andeq	r0, r8, r0
     db0:	5001f331 	andpl	pc, r1, r1, lsr r3	; <UNPREDICTABLE>
     db4:	9f241a4f 	svcls	0x00241a4f
	...
     dc0:	00000144 	andeq	r0, r0, r4, asr #2
     dc4:	000001d4 	ldrdeq	r0, [r0], -r4
     dc8:	d4500001 	ldrble	r0, [r0], #-1
     dcc:	10000001 	andne	r0, r0, r1
     dd0:	01000002 	tsteq	r0, r2
     dd4:	00005400 	andeq	r5, r0, r0, lsl #8
     dd8:	00000000 	andeq	r0, r0, r0
     ddc:	018c0000 	orreq	r0, ip, r0
     de0:	01900000 	orrseq	r0, r0, r0
     de4:	00010000 	andeq	r0, r1, r0
     de8:	00019855 	andeq	r9, r1, r5, asr r8
     dec:	00019c00 	andeq	r9, r1, r0, lsl #24
     df0:	55000100 	strpl	r0, [r0, #-256]	; 0x100
     df4:	000001a4 	andeq	r0, r0, r4, lsr #3
     df8:	000001a8 	andeq	r0, r0, r8, lsr #3
     dfc:	b0550001 	subslt	r0, r5, r1
     e00:	b4000001 	strlt	r0, [r0], #-1
     e04:	01000001 	tsteq	r0, r1
     e08:	01bc5500 			; <UNDEFINED> instruction: 0x01bc5500
     e0c:	01c00000 	biceq	r0, r0, r0
     e10:	00010000 	andeq	r0, r1, r0
     e14:	0001c855 	andeq	ip, r1, r5, asr r8
     e18:	0001cc00 	andeq	ip, r1, r0, lsl #24
     e1c:	55000100 	strpl	r0, [r0, #-256]	; 0x100
     e20:	000001d0 	ldrdeq	r0, [r0], -r0	; <UNPREDICTABLE>
     e24:	00000210 	andeq	r0, r0, r0, lsl r2
     e28:	00550001 	subseq	r0, r5, r1
     e2c:	00000000 	andeq	r0, r0, r0
     e30:	60000000 	andvs	r0, r0, r0
     e34:	88000001 	stmdahi	r0, {r0}
     e38:	01000001 	tsteq	r0, r1
     e3c:	01885300 	orreq	r5, r8, r0, lsl #6
     e40:	01900000 	orrseq	r0, r0, r0
     e44:	001c0000 	andseq	r0, ip, r0
     e48:	2cf70070 	ldclcs	0, cr0, [r7], #448	; 0x1c0
     e4c:	25f425f7 	ldrbcs	r2, [r4, #1527]!	; 0x5f7
     e50:	cccccd08 	stclgt	13, cr12, [ip], {8}
     e54:	000000cc 	andeq	r0, r0, ip, asr #1
     e58:	20081e00 	andcs	r1, r8, r0, lsl #28
     e5c:	f72525f7 			; <UNDEFINED> instruction: 0xf72525f7
     e60:	9f25332c 	svcls	0x0025332c
     e64:	00000190 	muleq	r0, r0, r1
     e68:	00000194 	muleq	r0, r4, r1
     e6c:	94530001 	ldrbls	r0, [r3], #-1
     e70:	9c000001 	stcls	0, cr0, [r0], {1}
     e74:	1c000001 	stcne	0, cr0, [r0], {1}
     e78:	f7007000 			; <UNDEFINED> instruction: 0xf7007000
     e7c:	f425f72c 	vld1.8	{d15}, [r5 :128], ip
     e80:	cccd0825 	stclgt	8, cr0, [sp], {37}	; 0x25
     e84:	0000cccc 	andeq	ip, r0, ip, asr #25
     e88:	081e0000 	ldmdaeq	lr, {}	; <UNPREDICTABLE>
     e8c:	2525f720 	strcs	pc, [r5, #-1824]!	; 0x720
     e90:	25332cf7 	ldrcs	r2, [r3, #-3319]!	; 0xcf7
     e94:	00019c9f 	muleq	r1, pc, ip	; <UNPREDICTABLE>
     e98:	0001a000 	andeq	sl, r1, r0
     e9c:	53000100 	movwpl	r0, #256	; 0x100
     ea0:	000001a0 	andeq	r0, r0, r0, lsr #3
     ea4:	000001a8 	andeq	r0, r0, r8, lsr #3
     ea8:	0070001c 	rsbseq	r0, r0, ip, lsl r0
     eac:	25f72cf7 	ldrbcs	r2, [r7, #3319]!	; 0xcf7
     eb0:	cd0825f4 	cfstr32gt	mvfx2, [r8, #-976]	; 0xfffffc30
     eb4:	00cccccc 	sbceq	ip, ip, ip, asr #25
     eb8:	1e000000 	cdpne	0, 0, cr0, cr0, cr0, {0}
     ebc:	25f72008 	ldrbcs	r2, [r7, #8]!
     ec0:	332cf725 	msrcc	CPSR_fs, #9699328	; 0x940000
     ec4:	01a89f25 			; <UNDEFINED> instruction: 0x01a89f25
     ec8:	01ac0000 			; <UNDEFINED> instruction: 0x01ac0000
     ecc:	00010000 	andeq	r0, r1, r0
     ed0:	0001ac53 	andeq	sl, r1, r3, asr ip
     ed4:	0001b400 	andeq	fp, r1, r0, lsl #8
     ed8:	70001c00 	andvc	r1, r0, r0, lsl #24
     edc:	f72cf700 			; <UNDEFINED> instruction: 0xf72cf700
     ee0:	0825f425 	stmdaeq	r5!, {r0, r2, r5, sl, ip, sp, lr, pc}
     ee4:	cccccccd 	stclgt	12, cr12, [ip], {205}	; 0xcd
     ee8:	00000000 	andeq	r0, r0, r0
     eec:	f720081e 			; <UNDEFINED> instruction: 0xf720081e
     ef0:	2cf72525 	cfldr64cs	mvdx2, [r7], #148	; 0x94
     ef4:	b49f2533 	ldrlt	r2, [pc], #1331	; efc <_start-0x7104>
     ef8:	b8000001 	stmdalt	r0, {r0}
     efc:	01000001 	tsteq	r0, r1
     f00:	01b85300 			; <UNDEFINED> instruction: 0x01b85300
     f04:	01c00000 	biceq	r0, r0, r0
     f08:	001c0000 	andseq	r0, ip, r0
     f0c:	2cf70070 	ldclcs	0, cr0, [r7], #448	; 0x1c0
     f10:	25f425f7 	ldrbcs	r2, [r4, #1527]!	; 0x5f7
     f14:	cccccd08 	stclgt	13, cr12, [ip], {8}
     f18:	000000cc 	andeq	r0, r0, ip, asr #1
     f1c:	20081e00 	andcs	r1, r8, r0, lsl #28
     f20:	f72525f7 			; <UNDEFINED> instruction: 0xf72525f7
     f24:	9f25332c 	svcls	0x0025332c
     f28:	000001c0 	andeq	r0, r0, r0, asr #3
     f2c:	000001c4 	andeq	r0, r0, r4, asr #3
     f30:	c4530001 	ldrbgt	r0, [r3], #-1
     f34:	cc000001 	stcgt	0, cr0, [r0], {1}
     f38:	1c000001 	stcne	0, cr0, [r0], {1}
     f3c:	f7007000 			; <UNDEFINED> instruction: 0xf7007000
     f40:	f425f72c 	vld1.8	{d15}, [r5 :128], ip
     f44:	cccd0825 	stclgt	8, cr0, [sp], {37}	; 0x25
     f48:	0000cccc 	andeq	ip, r0, ip, asr #25
     f4c:	081e0000 	ldmdaeq	lr, {}	; <UNPREDICTABLE>
     f50:	2525f720 	strcs	pc, [r5, #-1824]!	; 0x720
     f54:	25332cf7 	ldrcs	r2, [r3, #-3319]!	; 0xcf7
     f58:	0001cc9f 	muleq	r1, pc, ip	; <UNPREDICTABLE>
     f5c:	0001d000 	andeq	sp, r1, r0
     f60:	53000100 	movwpl	r0, #256	; 0x100
     f64:	000001d0 	ldrdeq	r0, [r0], -r0	; <UNPREDICTABLE>
     f68:	000001d4 	ldrdeq	r0, [r0], -r4
     f6c:	0070001c 	rsbseq	r0, r0, ip, lsl r0
     f70:	25f72cf7 	ldrbcs	r2, [r7, #3319]!	; 0xcf7
     f74:	cd0825f4 	cfstr32gt	mvfx2, [r8, #-976]	; 0xfffffc30
     f78:	00cccccc 	sbceq	ip, ip, ip, asr #25
     f7c:	1e000000 	cdpne	0, 0, cr0, cr0, cr0, {0}
     f80:	25f72008 	ldrbcs	r2, [r7, #8]!
     f84:	332cf725 	msrcc	CPSR_fs, #9699328	; 0x940000
     f88:	01d49f25 	bicseq	r9, r4, r5, lsr #30
     f8c:	01dc0000 	bicseq	r0, ip, r0
     f90:	001c0000 	andseq	r0, ip, r0
     f94:	2cf70074 	ldclcs	0, cr0, [r7], #464	; 0x1d0
     f98:	25f425f7 	ldrbcs	r2, [r4, #1527]!	; 0x5f7
     f9c:	cccccd08 	stclgt	13, cr12, [ip], {8}
     fa0:	000000cc 	andeq	r0, r0, ip, asr #1
     fa4:	20081e00 	andcs	r1, r8, r0, lsl #28
     fa8:	f72525f7 			; <UNDEFINED> instruction: 0xf72525f7
     fac:	9f25332c 	svcls	0x0025332c
     fb0:	000001dc 	ldrdeq	r0, [r0], -ip
     fb4:	000001e0 	andeq	r0, r0, r0, ror #3
     fb8:	00740017 	rsbseq	r0, r4, r7, lsl r0
     fbc:	25f72cf7 	ldrbcs	r2, [r7, #3319]!	; 0xcf7
     fc0:	2cf70071 	ldclcs	0, cr0, [r7], #452	; 0x1c4
     fc4:	081e25f7 	ldmdaeq	lr, {r0, r1, r2, r4, r5, r6, r7, r8, sl, sp}
     fc8:	2525f720 	strcs	pc, [r5, #-1824]!	; 0x720
     fcc:	25332cf7 	ldrcs	r2, [r3, #-3319]!	; 0xcf7
     fd0:	0001e09f 	muleq	r1, pc, r0	; <UNPREDICTABLE>
     fd4:	00021000 	andeq	r1, r2, r0
     fd8:	74001c00 	strvc	r1, [r0], #-3072	; 0xc00
     fdc:	f72cf700 			; <UNDEFINED> instruction: 0xf72cf700
     fe0:	0825f425 	stmdaeq	r5!, {r0, r2, r5, sl, ip, sp, lr, pc}
     fe4:	cccccccd 	stclgt	12, cr12, [ip], {205}	; 0xcd
     fe8:	00000000 	andeq	r0, r0, r0
     fec:	f720081e 			; <UNDEFINED> instruction: 0xf720081e
     ff0:	2cf72525 	cfldr64cs	mvdx2, [r7], #148	; 0x94
     ff4:	009f2533 	addseq	r2, pc, r3, lsr r5	; <UNPREDICTABLE>
     ff8:	00000000 	andeq	r0, r0, r0
     ffc:	d8000000 	stmdale	r0, {}	; <UNPREDICTABLE>
    1000:	fc000001 	stc2	0, cr0, [r0], {1}
    1004:	01000001 	tsteq	r0, r1
    1008:	01fc5000 	mvnseq	r5, r0
    100c:	02030000 	andeq	r0, r3, #0
    1010:	00010000 	andeq	r0, r1, r0
    1014:	00000051 	andeq	r0, r0, r1, asr r0
    1018:	00000000 	andeq	r0, r0, r0
    101c:	00021000 	andeq	r1, r2, r0
    1020:	00022c00 	andeq	r2, r2, r0, lsl #24
    1024:	50000100 	andpl	r0, r0, r0, lsl #2
    1028:	0000022c 	andeq	r0, r0, ip, lsr #4
    102c:	00000234 	andeq	r0, r0, r4, lsr r2
    1030:	34540001 	ldrbcc	r0, [r4], #-1
    1034:	3c000002 	stccc	0, cr0, [r0], {2}
    1038:	01000002 	tsteq	r0, r2
    103c:	023c5000 	eorseq	r5, ip, #0
    1040:	02440000 	subeq	r0, r4, #0
    1044:	00010000 	andeq	r0, r1, r0
    1048:	00024454 	andeq	r4, r2, r4, asr r4
    104c:	00025000 	andeq	r5, r2, r0
    1050:	f3000400 	vshl.u8	d0, d0, d0
    1054:	509f5001 	addspl	r5, pc, r1
    1058:	54000002 	strpl	r0, [r0], #-2
    105c:	01000002 	tsteq	r0, r2
    1060:	02545000 	subseq	r5, r4, #0
    1064:	025c0000 	subseq	r0, ip, #0
    1068:	00010000 	andeq	r0, r1, r0
    106c:	00000054 	andeq	r0, r0, r4, asr r0
    1070:	00000000 	andeq	r0, r0, r0
    1074:	00022000 	andeq	r2, r2, r0
    1078:	00023000 	andeq	r3, r2, r0
    107c:	30000200 	andcc	r0, r0, r0, lsl #4
    1080:	0002309f 	muleq	r2, pc, r0	; <UNPREDICTABLE>
    1084:	00023400 	andeq	r3, r2, r0, lsl #8
    1088:	50000100 	andpl	r0, r0, r0, lsl #2
    108c:	00000234 	andeq	r0, r0, r4, lsr r2
    1090:	00000240 	andeq	r0, r0, r0, asr #4
    1094:	9f300002 	svcls	0x00300002
    1098:	00000240 	andeq	r0, r0, r0, asr #4
    109c:	0000024c 	andeq	r0, r0, ip, asr #4
    10a0:	00500001 	subseq	r0, r0, r1
    10a4:	00000000 	andeq	r0, r0, r0
    10a8:	5c000000 	stcpl	0, cr0, [r0], {-0}
    10ac:	73000002 	movwvc	r0, #2
    10b0:	01000002 	tsteq	r0, r2
    10b4:	02735000 	rsbseq	r5, r3, #0
    10b8:	02780000 	rsbseq	r0, r8, #0
    10bc:	00040000 	andeq	r0, r4, r0
    10c0:	9f5001f3 	svcls	0x005001f3
    10c4:	00000278 	andeq	r0, r0, r8, ror r2
    10c8:	0000027b 	andeq	r0, r0, fp, ror r2
    10cc:	7b500001 	blvc	14010d8 <__bss_end__+0x13f72b0>
    10d0:	80000002 	andhi	r0, r0, r2
    10d4:	04000002 	streq	r0, [r0], #-2
    10d8:	5001f300 	andpl	pc, r1, r0, lsl #6
    10dc:	0000009f 	muleq	r0, pc, r0	; <UNPREDICTABLE>
    10e0:	00000000 	andeq	r0, r0, r0
    10e4:	00025c00 	andeq	r5, r2, r0, lsl #24
    10e8:	00027300 	andeq	r7, r2, r0, lsl #6
    10ec:	51000100 	mrspl	r0, (UNDEF: 16)
    10f0:	00000273 	andeq	r0, r0, r3, ror r2
    10f4:	00000278 	andeq	r0, r0, r8, ror r2
    10f8:	01f30004 	mvnseq	r0, r4
    10fc:	02789f51 	rsbseq	r9, r8, #324	; 0x144
    1100:	027b0000 	rsbseq	r0, fp, #0
    1104:	00010000 	andeq	r0, r1, r0
    1108:	00027b51 	andeq	r7, r2, r1, asr fp
    110c:	00028000 	andeq	r8, r2, r0
    1110:	f3000400 	vshl.u8	d0, d0, d0
    1114:	009f5101 	addseq	r5, pc, r1, lsl #2
    1118:	00000000 	andeq	r0, r0, r0
    111c:	80000000 	andhi	r0, r0, r0
    1120:	18000002 	stmdane	r0, {r1}
    1124:	01000003 	tsteq	r0, r3
    1128:	03185000 	tsteq	r8, #0
    112c:	03580000 	cmpeq	r8, #0
    1130:	00010000 	andeq	r0, r1, r0
    1134:	00000054 	andeq	r0, r0, r4, asr r0
    1138:	00000000 	andeq	r0, r0, r0
    113c:	00028000 	andeq	r8, r2, r0
    1140:	00031b00 	andeq	r1, r3, r0, lsl #22
    1144:	51000100 	mrspl	r0, (UNDEF: 16)
    1148:	0000031b 	andeq	r0, r0, fp, lsl r3
    114c:	00000358 	andeq	r0, r0, r8, asr r3
    1150:	01f30004 	mvnseq	r0, r4
    1154:	00009f51 	andeq	r9, r0, r1, asr pc
    1158:	00000000 	andeq	r0, r0, r0
    115c:	02d00000 	sbcseq	r0, r0, #0
    1160:	02d40000 	sbcseq	r0, r4, #0
    1164:	00010000 	andeq	r0, r1, r0
    1168:	0002dc56 	andeq	sp, r2, r6, asr ip
    116c:	0002e000 	andeq	lr, r2, r0
    1170:	56000100 	strpl	r0, [r0], -r0, lsl #2
    1174:	000002e8 	andeq	r0, r0, r8, ror #5
    1178:	000002ec 	andeq	r0, r0, ip, ror #5
    117c:	f4560001 			; <UNDEFINED> instruction: 0xf4560001
    1180:	f8000002 			; <UNDEFINED> instruction: 0xf8000002
    1184:	01000002 	tsteq	r0, r2
    1188:	03005600 	movweq	r5, #1536	; 0x600
    118c:	03040000 	movweq	r0, #16384	; 0x4000
    1190:	00010000 	andeq	r0, r1, r0
    1194:	00030c56 	andeq	r0, r3, r6, asr ip
    1198:	00031000 	andeq	r1, r3, r0
    119c:	56000100 	strpl	r0, [r0], -r0, lsl #2
    11a0:	00000314 	andeq	r0, r0, r4, lsl r3
    11a4:	00000358 	andeq	r0, r0, r8, asr r3
    11a8:	00560001 	subseq	r0, r6, r1
    11ac:	00000000 	andeq	r0, r0, r0
    11b0:	a4000000 	strge	r0, [r0], #-0
    11b4:	cc000002 	stcgt	0, cr0, [r0], {2}
    11b8:	01000002 	tsteq	r0, r2
    11bc:	02cc5300 	sbceq	r5, ip, #0, 6
    11c0:	02d40000 	sbcseq	r0, r4, #0
    11c4:	001c0000 	andseq	r0, ip, r0
    11c8:	2cf70070 	ldclcs	0, cr0, [r7], #448	; 0x1c0
    11cc:	25f425f7 	ldrbcs	r2, [r4, #1527]!	; 0x5f7
    11d0:	cccccd08 	stclgt	13, cr12, [ip], {8}
    11d4:	000000cc 	andeq	r0, r0, ip, asr #1
    11d8:	20081e00 	andcs	r1, r8, r0, lsl #28
    11dc:	f72525f7 			; <UNDEFINED> instruction: 0xf72525f7
    11e0:	9f25332c 	svcls	0x0025332c
    11e4:	000002d4 	ldrdeq	r0, [r0], -r4
    11e8:	000002d8 	ldrdeq	r0, [r0], -r8
    11ec:	d8530001 	ldmdale	r3, {r0}^
    11f0:	e0000002 	and	r0, r0, r2
    11f4:	1c000002 	stcne	0, cr0, [r0], {2}
    11f8:	f7007000 			; <UNDEFINED> instruction: 0xf7007000
    11fc:	f425f72c 	vld1.8	{d15}, [r5 :128], ip
    1200:	cccd0825 	stclgt	8, cr0, [sp], {37}	; 0x25
    1204:	0000cccc 	andeq	ip, r0, ip, asr #25
    1208:	081e0000 	ldmdaeq	lr, {}	; <UNPREDICTABLE>
    120c:	2525f720 	strcs	pc, [r5, #-1824]!	; 0x720
    1210:	25332cf7 	ldrcs	r2, [r3, #-3319]!	; 0xcf7
    1214:	0002e09f 	muleq	r2, pc, r0	; <UNPREDICTABLE>
    1218:	0002e400 	andeq	lr, r2, r0, lsl #8
    121c:	53000100 	movwpl	r0, #256	; 0x100
    1220:	000002e4 	andeq	r0, r0, r4, ror #5
    1224:	000002ec 	andeq	r0, r0, ip, ror #5
    1228:	0070001c 	rsbseq	r0, r0, ip, lsl r0
    122c:	25f72cf7 	ldrbcs	r2, [r7, #3319]!	; 0xcf7
    1230:	cd0825f4 	cfstr32gt	mvfx2, [r8, #-976]	; 0xfffffc30
    1234:	00cccccc 	sbceq	ip, ip, ip, asr #25
    1238:	1e000000 	cdpne	0, 0, cr0, cr0, cr0, {0}
    123c:	25f72008 	ldrbcs	r2, [r7, #8]!
    1240:	332cf725 	msrcc	CPSR_fs, #9699328	; 0x940000
    1244:	02ec9f25 	rsceq	r9, ip, #37, 30	; 0x94
    1248:	02f00000 	rscseq	r0, r0, #0
    124c:	00010000 	andeq	r0, r1, r0
    1250:	0002f053 	andeq	pc, r2, r3, asr r0	; <UNPREDICTABLE>
    1254:	0002f800 	andeq	pc, r2, r0, lsl #16
    1258:	70001c00 	andvc	r1, r0, r0, lsl #24
    125c:	f72cf700 			; <UNDEFINED> instruction: 0xf72cf700
    1260:	0825f425 	stmdaeq	r5!, {r0, r2, r5, sl, ip, sp, lr, pc}
    1264:	cccccccd 	stclgt	12, cr12, [ip], {205}	; 0xcd
    1268:	00000000 	andeq	r0, r0, r0
    126c:	f720081e 			; <UNDEFINED> instruction: 0xf720081e
    1270:	2cf72525 	cfldr64cs	mvdx2, [r7], #148	; 0x94
    1274:	f89f2533 			; <UNDEFINED> instruction: 0xf89f2533
    1278:	fc000002 	stc2	0, cr0, [r0], {2}
    127c:	01000002 	tsteq	r0, r2
    1280:	02fc5300 	rscseq	r5, ip, #0, 6
    1284:	03040000 	movweq	r0, #16384	; 0x4000
    1288:	001c0000 	andseq	r0, ip, r0
    128c:	2cf70070 	ldclcs	0, cr0, [r7], #448	; 0x1c0
    1290:	25f425f7 	ldrbcs	r2, [r4, #1527]!	; 0x5f7
    1294:	cccccd08 	stclgt	13, cr12, [ip], {8}
    1298:	000000cc 	andeq	r0, r0, ip, asr #1
    129c:	20081e00 	andcs	r1, r8, r0, lsl #28
    12a0:	f72525f7 			; <UNDEFINED> instruction: 0xf72525f7
    12a4:	9f25332c 	svcls	0x0025332c
    12a8:	00000304 	andeq	r0, r0, r4, lsl #6
    12ac:	00000308 	andeq	r0, r0, r8, lsl #6
    12b0:	08530001 	ldmdaeq	r3, {r0}^
    12b4:	10000003 	andne	r0, r0, r3
    12b8:	1c000003 	stcne	0, cr0, [r0], {3}
    12bc:	f7007000 			; <UNDEFINED> instruction: 0xf7007000
    12c0:	f425f72c 	vld1.8	{d15}, [r5 :128], ip
    12c4:	cccd0825 	stclgt	8, cr0, [sp], {37}	; 0x25
    12c8:	0000cccc 	andeq	ip, r0, ip, asr #25
    12cc:	081e0000 	ldmdaeq	lr, {}	; <UNPREDICTABLE>
    12d0:	2525f720 	strcs	pc, [r5, #-1824]!	; 0x720
    12d4:	25332cf7 	ldrcs	r2, [r3, #-3319]!	; 0xcf7
    12d8:	0003109f 	muleq	r3, pc, r0	; <UNPREDICTABLE>
    12dc:	00031400 	andeq	r1, r3, r0, lsl #8
    12e0:	53000100 	movwpl	r0, #256	; 0x100
    12e4:	00000314 	andeq	r0, r0, r4, lsl r3
    12e8:	00000318 	andeq	r0, r0, r8, lsl r3
    12ec:	0070001c 	rsbseq	r0, r0, ip, lsl r0
    12f0:	25f72cf7 	ldrbcs	r2, [r7, #3319]!	; 0xcf7
    12f4:	cd0825f4 	cfstr32gt	mvfx2, [r8, #-976]	; 0xfffffc30
    12f8:	00cccccc 	sbceq	ip, ip, ip, asr #25
    12fc:	1e000000 	cdpne	0, 0, cr0, cr0, cr0, {0}
    1300:	25f72008 	ldrbcs	r2, [r7, #8]!
    1304:	332cf725 	msrcc	CPSR_fs, #9699328	; 0x940000
    1308:	03189f25 	tsteq	r8, #37, 30	; 0x94
    130c:	03200000 	teqeq	r0, #0
    1310:	001c0000 	andseq	r0, ip, r0
    1314:	2cf70074 	ldclcs	0, cr0, [r7], #464	; 0x1d0
    1318:	25f425f7 	ldrbcs	r2, [r4, #1527]!	; 0x5f7
    131c:	cccccd08 	stclgt	13, cr12, [ip], {8}
    1320:	000000cc 	andeq	r0, r0, ip, asr #1
    1324:	20081e00 	andcs	r1, r8, r0, lsl #28
    1328:	f72525f7 			; <UNDEFINED> instruction: 0xf72525f7
    132c:	9f25332c 	svcls	0x0025332c
    1330:	00000320 	andeq	r0, r0, r0, lsr #6
    1334:	00000324 	andeq	r0, r0, r4, lsr #6
    1338:	00740017 	rsbseq	r0, r4, r7, lsl r0
    133c:	25f72cf7 	ldrbcs	r2, [r7, #3319]!	; 0xcf7
    1340:	2cf70073 	ldclcs	0, cr0, [r7], #460	; 0x1cc
    1344:	081e25f7 	ldmdaeq	lr, {r0, r1, r2, r4, r5, r6, r7, r8, sl, sp}
    1348:	2525f720 	strcs	pc, [r5, #-1824]!	; 0x720
    134c:	25332cf7 	ldrcs	r2, [r3, #-3319]!	; 0xcf7
    1350:	0003249f 	muleq	r3, pc, r4	; <UNPREDICTABLE>
    1354:	00035800 	andeq	r5, r3, r0, lsl #16
    1358:	74001c00 	strvc	r1, [r0], #-3072	; 0xc00
    135c:	f72cf700 			; <UNDEFINED> instruction: 0xf72cf700
    1360:	0825f425 	stmdaeq	r5!, {r0, r2, r5, sl, ip, sp, lr, pc}
    1364:	cccccccd 	stclgt	12, cr12, [ip], {205}	; 0xcd
    1368:	00000000 	andeq	r0, r0, r0
    136c:	f720081e 			; <UNDEFINED> instruction: 0xf720081e
    1370:	2cf72525 	cfldr64cs	mvdx2, [r7], #148	; 0x94
    1374:	009f2533 	addseq	r2, pc, r3, lsr r5	; <UNPREDICTABLE>
    1378:	00000000 	andeq	r0, r0, r0
    137c:	1c000000 	stcne	0, cr0, [r0], {-0}
    1380:	40000003 	andmi	r0, r0, r3
    1384:	01000003 	tsteq	r0, r3
    1388:	03405000 	movteq	r5, #0
    138c:	03480000 	movteq	r0, #32768	; 0x8000
    1390:	00090000 	andeq	r0, r9, r0
    1394:	00730075 	rsbseq	r0, r3, r5, ror r0
    1398:	21007124 	tstcs	r0, r4, lsr #2
    139c:	0003489f 	muleq	r3, pc, r8	; <UNPREDICTABLE>
    13a0:	00034b00 	andeq	r4, r3, r0, lsl #22
    13a4:	51000100 	mrspl	r0, (UNDEF: 16)
	...
    13b0:	00000358 	andeq	r0, r0, r8, asr r3
    13b4:	0000037c 	andeq	r0, r0, ip, ror r3
    13b8:	7c500001 	mrrcvc	0, 0, r0, r0, cr1	; <UNPREDICTABLE>
    13bc:	90000003 	andls	r0, r0, r3
    13c0:	04000003 	streq	r0, [r0], #-3
    13c4:	5001f300 	andpl	pc, r1, r0, lsl #6
    13c8:	0000009f 	muleq	r0, pc, r0	; <UNPREDICTABLE>
    13cc:	00000000 	andeq	r0, r0, r0
    13d0:	00036400 	andeq	r6, r3, r0, lsl #8
    13d4:	00036c00 	andeq	r6, r3, r0, lsl #24
    13d8:	30000200 	andcc	r0, r0, r0, lsl #4
    13dc:	00036c9f 	muleq	r3, pc, ip	; <UNPREDICTABLE>
    13e0:	00036c00 	andeq	r6, r3, r0, lsl #24
    13e4:	52000100 	andpl	r0, r0, #0, 2
    13e8:	0000036c 	andeq	r0, r0, ip, ror #6
    13ec:	00000374 	andeq	r0, r0, r4, ror r3
    13f0:	9f300002 	svcls	0x00300002
    13f4:	00000374 	andeq	r0, r0, r4, ror r3
    13f8:	00000387 	andeq	r0, r0, r7, lsl #7
    13fc:	00520001 	subseq	r0, r2, r1
    1400:	00000000 	andeq	r0, r0, r0
    1404:	64000000 	strvs	r0, [r0], #-0
    1408:	78000003 	stmdavc	r0, {r0, r1}
    140c:	02000003 	andeq	r0, r0, #3
    1410:	789f3000 	ldmvc	pc, {ip, sp}	; <UNPREDICTABLE>
    1414:	84000003 	strhi	r0, [r0], #-3
    1418:	05000003 	streq	r0, [r0, #-3]
    141c:	00733100 	rsbseq	r3, r3, r0, lsl #2
    1420:	03849f24 	orreq	r9, r4, #36, 30	; 0x90
    1424:	03870000 	orreq	r0, r7, #0
    1428:	00010000 	andeq	r0, r1, r0
    142c:	00038751 	andeq	r8, r3, r1, asr r7
    1430:	00039000 	andeq	r9, r3, r0
    1434:	31000800 	tstcc	r0, r0, lsl #16
    1438:	4f5001f3 	svcmi	0x005001f3
    143c:	009f241a 	addseq	r2, pc, sl, lsl r4	; <UNPREDICTABLE>
    1440:	00000000 	andeq	r0, r0, r0
    1444:	90000000 	andls	r0, r0, r0
    1448:	9c000003 	stcls	0, cr0, [r0], {3}
    144c:	01000003 	tsteq	r0, r3
    1450:	039c5000 	orrseq	r5, ip, #0
    1454:	03bc0000 			; <UNDEFINED> instruction: 0x03bc0000
    1458:	00040000 	andeq	r0, r4, r0
    145c:	9f5001f3 	svcls	0x005001f3
	...
    1468:	000003bc 			; <UNDEFINED> instruction: 0x000003bc
    146c:	000003cf 	andeq	r0, r0, pc, asr #7
    1470:	cf500001 	svcgt	0x00500001
    1474:	08000003 	stmdaeq	r0, {r0, r1}
    1478:	01000004 	tsteq	r0, r4
    147c:	04085400 	streq	r5, [r8], #-1024	; 0x400
    1480:	04400000 	strbeq	r0, [r0], #-0
    1484:	00040000 	andeq	r0, r4, r0
    1488:	9f5001f3 	svcls	0x005001f3
	...
    1494:	00000428 	andeq	r0, r0, r8, lsr #8
    1498:	0000042c 	andeq	r0, r0, ip, lsr #8
    149c:	2c500001 	mrrccs	0, 0, r0, r0, cr1	; <UNPREDICTABLE>
    14a0:	33000004 	movwcc	r0, #4
    14a4:	01000004 	tsteq	r0, r4
    14a8:	00005100 	andeq	r5, r0, r0, lsl #2
    14ac:	00000000 	andeq	r0, r0, r0
    14b0:	03e40000 	mvneq	r0, #0
    14b4:	03ec0000 	mvneq	r0, #0
    14b8:	00010000 	andeq	r0, r1, r0
    14bc:	0003ec50 	andeq	lr, r3, r0, asr ip
    14c0:	0003f300 	andeq	pc, r3, r0, lsl #6
    14c4:	51000100 	mrspl	r0, (UNDEF: 16)
	...
    14d0:	00000404 	andeq	r0, r0, r4, lsl #8
    14d4:	00000410 	andeq	r0, r0, r0, lsl r4
    14d8:	10500001 	subsne	r0, r0, r1
    14dc:	17000004 	strne	r0, [r0, -r4]
    14e0:	01000004 	tsteq	r0, r4
    14e4:	00005100 	andeq	r5, r0, r0, lsl #2
    14e8:	00000000 	andeq	r0, r0, r0
    14ec:	04400000 	strbeq	r0, [r0], #-0
    14f0:	04530000 	ldrbeq	r0, [r3], #-0
    14f4:	00010000 	andeq	r0, r1, r0
    14f8:	00045350 	andeq	r5, r4, r0, asr r3
    14fc:	00048c00 	andeq	r8, r4, r0, lsl #24
    1500:	54000100 	strpl	r0, [r0], #-256	; 0x100
    1504:	0000048c 	andeq	r0, r0, ip, lsl #9
    1508:	000004c4 	andeq	r0, r0, r4, asr #9
    150c:	01f30004 	mvnseq	r0, r4
    1510:	00009f50 	andeq	r9, r0, r0, asr pc
    1514:	00000000 	andeq	r0, r0, r0
    1518:	04ac0000 	strteq	r0, [ip], #0
    151c:	04b00000 	ldrteq	r0, [r0], #0
    1520:	00010000 	andeq	r0, r1, r0
    1524:	0004b050 	andeq	fp, r4, r0, asr r0
    1528:	0004b700 	andeq	fp, r4, r0, lsl #14
    152c:	51000100 	mrspl	r0, (UNDEF: 16)
	...
    1538:	00000468 	andeq	r0, r0, r8, ror #8
    153c:	00000470 	andeq	r0, r0, r0, ror r4
    1540:	70500001 	subsvc	r0, r0, r1
    1544:	77000004 	strvc	r0, [r0, -r4]
    1548:	01000004 	tsteq	r0, r4
    154c:	00005100 	andeq	r5, r0, r0, lsl #2
    1550:	00000000 	andeq	r0, r0, r0
    1554:	04880000 	streq	r0, [r8], #0
    1558:	04940000 	ldreq	r0, [r4], #0
    155c:	00010000 	andeq	r0, r1, r0
    1560:	00049450 	andeq	r9, r4, r0, asr r4
    1564:	00049b00 	andeq	r9, r4, r0, lsl #22
    1568:	51000100 	mrspl	r0, (UNDEF: 16)
	...
    1574:	000004c4 	andeq	r0, r0, r4, asr #9
    1578:	000004d7 	ldrdeq	r0, [r0], -r7
    157c:	d7500001 	ldrble	r0, [r0, -r1]
    1580:	18000004 	stmdane	r0, {r2}
    1584:	01000005 	tsteq	r0, r5
    1588:	05185400 	ldreq	r5, [r8, #-1024]	; 0x400
    158c:	053c0000 	ldreq	r0, [ip, #-0]!
    1590:	00040000 	andeq	r0, r4, r0
    1594:	9f5001f3 	svcls	0x005001f3
    1598:	0000053c 	andeq	r0, r0, ip, lsr r5
    159c:	00000540 	andeq	r0, r0, r0, asr #10
    15a0:	40500001 	subsmi	r0, r0, r1
    15a4:	48000005 	stmdami	r0, {r0, r2}
    15a8:	01000005 	tsteq	r0, r5
    15ac:	00005400 	andeq	r5, r0, r0, lsl #8
    15b0:	00000000 	andeq	r0, r0, r0
    15b4:	04ec0000 	strbteq	r0, [ip], #0
    15b8:	04fb0000 	ldrbteq	r0, [fp], #0
    15bc:	00080000 	andeq	r0, r8, r0
    15c0:	24007431 	strcs	r7, [r0], #-1073	; 0x431
    15c4:	9f1a0070 	svcls	0x001a0070
	...
    15d0:	00000518 	andeq	r0, r0, r8, lsl r5
    15d4:	00000530 	andeq	r0, r0, r0, lsr r5
    15d8:	00540001 	subseq	r0, r4, r1
    15dc:	00000000 	andeq	r0, r0, r0
    15e0:	48000000 	stmdami	r0, {}	; <UNPREDICTABLE>
    15e4:	5b000005 	blpl	1600 <_start-0x6a00>
    15e8:	01000005 	tsteq	r0, r5
    15ec:	055b5000 	ldrbeq	r5, [fp, #-0]
    15f0:	05800000 	streq	r0, [r0]
    15f4:	00010000 	andeq	r0, r1, r0
    15f8:	00058054 	andeq	r8, r5, r4, asr r0
    15fc:	0005a000 	andeq	sl, r5, r0
    1600:	f3000400 	vshl.u8	d0, d0, d0
    1604:	009f5001 	addseq	r5, pc, r1
	...
    1610:	18000000 	stmdane	r0, {}	; <UNPREDICTABLE>
    1614:	01000000 	mrseq	r0, (UNDEF: 0)
    1618:	00185000 	andseq	r5, r8, r0
    161c:	01540000 	cmpeq	r4, r0
    1620:	00040000 	andeq	r0, r4, r0
    1624:	9f5001f3 	svcls	0x005001f3
	...
    1634:	0000001c 	andeq	r0, r0, ip, lsl r0
    1638:	1c510001 	mrrcne	0, 0, r0, r1, cr1
    163c:	54000000 	strpl	r0, [r0], #-0
    1640:	04000001 	streq	r0, [r0], #-1
    1644:	5101f300 	mrspl	pc, SP_irq	; <UNPREDICTABLE>
    1648:	0000009f 	muleq	r0, pc, r0	; <UNPREDICTABLE>
    164c:	00000000 	andeq	r0, r0, r0
    1650:	00001000 	andeq	r1, r0, r0
    1654:	00013400 	andeq	r3, r1, r0, lsl #8
    1658:	55000100 	strpl	r0, [r0, #-256]	; 0x100
	...
    1664:	00000010 	andeq	r0, r0, r0, lsl r0
    1668:	00000034 	andeq	r0, r0, r4, lsr r0
    166c:	34550001 	ldrbcc	r0, [r5], #-1
    1670:	34000000 	strcc	r0, [r0], #-0
    1674:	01000001 	tsteq	r0, r1
    1678:	01345800 	teqeq	r4, r0, lsl #16
    167c:	01540000 	cmpeq	r4, r0
    1680:	00010000 	andeq	r0, r1, r0
    1684:	00000055 	andeq	r0, r0, r5, asr r0
    1688:	00000000 	andeq	r0, r0, r0
    168c:	00001400 	andeq	r1, r0, r0, lsl #8
    1690:	00013400 	andeq	r3, r1, r0, lsl #8
    1694:	55000100 	strpl	r0, [r0, #-256]	; 0x100
	...
    16a0:	00000020 	andeq	r0, r0, r0, lsr #32
    16a4:	00000134 	andeq	r0, r0, r4, lsr r1
    16a8:	00550001 	subseq	r0, r5, r1
    16ac:	00000000 	andeq	r0, r0, r0
    16b0:	24000000 	strcs	r0, [r0], #-0
    16b4:	28000000 	stmdacs	r0, {}	; <UNPREDICTABLE>
    16b8:	01000000 	mrseq	r0, (UNDEF: 0)
    16bc:	00005300 	andeq	r5, r0, r0, lsl #6
    16c0:	00000000 	andeq	r0, r0, r0
    16c4:	00340000 	eorseq	r0, r4, r0
    16c8:	00540000 	subseq	r0, r4, r0
    16cc:	00010000 	andeq	r0, r1, r0
    16d0:	00005458 	andeq	r5, r0, r8, asr r4
    16d4:	00013400 	andeq	r3, r1, r0, lsl #8
    16d8:	75000500 	strvc	r0, [r0, #-1280]	; 0x500
    16dc:	9f243100 	svcls	0x00243100
	...
    16e8:	00000034 	andeq	r0, r0, r4, lsr r0
    16ec:	0000003c 	andeq	r0, r0, ip, lsr r0
    16f0:	00770005 	rsbseq	r0, r7, r5
    16f4:	3c9f1a31 	vldmiacc	pc, {s2-s50}
    16f8:	3f000000 	svccc	0x00000000
    16fc:	01000000 	mrseq	r0, (UNDEF: 0)
    1700:	003f5100 	eorseq	r5, pc, r0, lsl #2
    1704:	01540000 	cmpeq	r4, r0
    1708:	00050000 	andeq	r0, r5, r0
    170c:	1a310077 	bne	c418f0 <__bss_end__+0xc37ac8>
    1710:	0000009f 	muleq	r0, pc, r0	; <UNPREDICTABLE>
    1714:	00000000 	andeq	r0, r0, r0
    1718:	00004000 	andeq	r4, r0, r0
    171c:	00005400 	andeq	r5, r0, r0, lsl #8
    1720:	58000100 	stmdapl	r0, {r8}
    1724:	00000054 	andeq	r0, r0, r4, asr r0
    1728:	00000134 	andeq	r0, r0, r4, lsr r1
    172c:	00750005 	rsbseq	r0, r5, r5
    1730:	009f2431 	addseq	r2, pc, r1, lsr r4	; <UNPREDICTABLE>
    1734:	00000000 	andeq	r0, r0, r0
    1738:	44000000 	strmi	r0, [r0], #-0
    173c:	48000000 	stmdami	r0, {}	; <UNPREDICTABLE>
    1740:	01000000 	mrseq	r0, (UNDEF: 0)
    1744:	00005300 	andeq	r5, r0, r0, lsl #6
    1748:	00000000 	andeq	r0, r0, r0
    174c:	00540000 	subseq	r0, r4, r0
    1750:	00740000 	rsbseq	r0, r4, r0
    1754:	00010000 	andeq	r0, r1, r0
    1758:	00007458 	andeq	r7, r0, r8, asr r4
    175c:	00013400 	andeq	r3, r1, r0, lsl #8
    1760:	75000800 	strvc	r0, [r0, #-2048]	; 0x800
    1764:	75243100 	strvc	r3, [r4, #-256]!	; 0x100
    1768:	009f2200 	addseq	r2, pc, r0, lsl #4
    176c:	00000000 	andeq	r0, r0, r0
    1770:	60000000 	andvs	r0, r0, r0
    1774:	74000000 	strvc	r0, [r0], #-0
    1778:	01000000 	mrseq	r0, (UNDEF: 0)
    177c:	00745800 	rsbseq	r5, r4, r0, lsl #16
    1780:	01340000 	teqeq	r4, r0
    1784:	00080000 	andeq	r0, r8, r0
    1788:	24310075 	ldrtcs	r0, [r1], #-117	; 0x75
    178c:	9f220075 	svcls	0x00220075
	...
    1798:	00000064 	andeq	r0, r0, r4, rrx
    179c:	00000068 	andeq	r0, r0, r8, rrx
    17a0:	00530001 	subseq	r0, r3, r1
    17a4:	00000000 	andeq	r0, r0, r0
    17a8:	74000000 	strvc	r0, [r0], #-0
    17ac:	94000000 	strls	r0, [r0], #-0
    17b0:	01000000 	mrseq	r0, (UNDEF: 0)
    17b4:	00945800 	addseq	r5, r4, r0, lsl #16
    17b8:	01340000 	teqeq	r4, r0
    17bc:	00050000 	andeq	r0, r5, r0
    17c0:	24320075 	ldrtcs	r0, [r2], #-117	; 0x75
    17c4:	0000009f 	muleq	r0, pc, r0	; <UNPREDICTABLE>
    17c8:	00000000 	andeq	r0, r0, r0
    17cc:	00008000 	andeq	r8, r0, r0
    17d0:	00009400 	andeq	r9, r0, r0, lsl #8
    17d4:	58000100 	stmdapl	r0, {r8}
    17d8:	00000094 	muleq	r0, r4, r0
    17dc:	00000134 	andeq	r0, r0, r4, lsr r1
    17e0:	00750005 	rsbseq	r0, r5, r5
    17e4:	009f2432 	addseq	r2, pc, r2, lsr r4	; <UNPREDICTABLE>
    17e8:	00000000 	andeq	r0, r0, r0
    17ec:	84000000 	strhi	r0, [r0], #-0
    17f0:	88000000 	stmdahi	r0, {}	; <UNPREDICTABLE>
    17f4:	01000000 	mrseq	r0, (UNDEF: 0)
    17f8:	00005300 	andeq	r5, r0, r0, lsl #6
    17fc:	00000000 	andeq	r0, r0, r0
    1800:	00940000 	addseq	r0, r4, r0
    1804:	00b40000 	adcseq	r0, r4, r0
    1808:	00010000 	andeq	r0, r1, r0
    180c:	0000b458 	andeq	fp, r0, r8, asr r4
    1810:	00013400 	andeq	r3, r1, r0, lsl #8
    1814:	75000800 	strvc	r0, [r0, #-2048]	; 0x800
    1818:	75243200 	strvc	r3, [r4, #-512]!	; 0x200
    181c:	009f2200 	addseq	r2, pc, r0, lsl #4
    1820:	00000000 	andeq	r0, r0, r0
    1824:	a0000000 	andge	r0, r0, r0
    1828:	b4000000 	strlt	r0, [r0], #-0
    182c:	01000000 	mrseq	r0, (UNDEF: 0)
    1830:	00b45800 	adcseq	r5, r4, r0, lsl #16
    1834:	01340000 	teqeq	r4, r0
    1838:	00080000 	andeq	r0, r8, r0
    183c:	24320075 	ldrtcs	r0, [r2], #-117	; 0x75
    1840:	9f220075 	svcls	0x00220075
	...
    184c:	000000a4 	andeq	r0, r0, r4, lsr #1
    1850:	000000a8 	andeq	r0, r0, r8, lsr #1
    1854:	00530001 	subseq	r0, r3, r1
    1858:	00000000 	andeq	r0, r0, r0
    185c:	b4000000 	strlt	r0, [r0], #-0
    1860:	d4000000 	strle	r0, [r0], #-0
    1864:	01000000 	mrseq	r0, (UNDEF: 0)
    1868:	00d45800 	sbcseq	r5, r4, r0, lsl #16
    186c:	01340000 	teqeq	r4, r0
    1870:	000a0000 	andeq	r0, sl, r0
    1874:	24320075 	ldrtcs	r0, [r2], #-117	; 0x75
    1878:	24310075 	ldrtcs	r0, [r1], #-117	; 0x75
    187c:	00009f22 	andeq	r9, r0, r2, lsr #30
    1880:	00000000 	andeq	r0, r0, r0
    1884:	00c00000 	sbceq	r0, r0, r0
    1888:	00d40000 	sbcseq	r0, r4, r0
    188c:	00010000 	andeq	r0, r1, r0
    1890:	0000d458 	andeq	sp, r0, r8, asr r4
    1894:	00013400 	andeq	r3, r1, r0, lsl #8
    1898:	75000a00 	strvc	r0, [r0, #-2560]	; 0xa00
    189c:	75243200 	strvc	r3, [r4, #-512]!	; 0x200
    18a0:	22243100 	eorcs	r3, r4, #0, 2
    18a4:	0000009f 	muleq	r0, pc, r0	; <UNPREDICTABLE>
    18a8:	00000000 	andeq	r0, r0, r0
    18ac:	0000c400 	andeq	ip, r0, r0, lsl #8
    18b0:	0000c800 	andeq	ip, r0, r0, lsl #16
    18b4:	53000100 	movwpl	r0, #256	; 0x100
	...
    18c0:	000000d4 	ldrdeq	r0, [r0], -r4
    18c4:	000000f4 	strdeq	r0, [r0], -r4
    18c8:	f4580001 			; <UNDEFINED> instruction: 0xf4580001
    18cc:	34000000 	strcc	r0, [r0], #-0
    18d0:	0d000001 	stceq	0, cr0, [r0, #-4]
    18d4:	32007500 	andcc	r7, r0, #0, 10
    18d8:	31007524 	tstcc	r0, r4, lsr #10
    18dc:	00752224 	rsbseq	r2, r5, r4, lsr #4
    18e0:	00009f22 	andeq	r9, r0, r2, lsr #30
    18e4:	00000000 	andeq	r0, r0, r0
    18e8:	00e00000 	rsceq	r0, r0, r0
    18ec:	00f40000 	rscseq	r0, r4, r0
    18f0:	00010000 	andeq	r0, r1, r0
    18f4:	0000f458 	andeq	pc, r0, r8, asr r4	; <UNPREDICTABLE>
    18f8:	00013400 	andeq	r3, r1, r0, lsl #8
    18fc:	75000d00 	strvc	r0, [r0, #-3328]	; 0xd00
    1900:	75243200 	strvc	r3, [r4, #-512]!	; 0x200
    1904:	22243100 	eorcs	r3, r4, #0, 2
    1908:	9f220075 	svcls	0x00220075
	...
    1914:	000000e4 	andeq	r0, r0, r4, ror #1
    1918:	000000e8 	andeq	r0, r0, r8, ror #1
    191c:	00530001 	subseq	r0, r3, r1
    1920:	00000000 	andeq	r0, r0, r0
    1924:	f4000000 	vst4.8	{d0-d3}, [r0], r0
    1928:	14000000 	strne	r0, [r0], #-0
    192c:	01000001 	tsteq	r0, r1
    1930:	01145800 	tsteq	r4, r0, lsl #16
    1934:	01340000 	teqeq	r4, r0
    1938:	00050000 	andeq	r0, r5, r0
    193c:	24330075 	ldrtcs	r0, [r3], #-117	; 0x75
    1940:	0000009f 	muleq	r0, pc, r0	; <UNPREDICTABLE>
    1944:	00000000 	andeq	r0, r0, r0
    1948:	00010000 	andeq	r0, r1, r0
    194c:	00011400 	andeq	r1, r1, r0, lsl #8
    1950:	58000100 	stmdapl	r0, {r8}
    1954:	00000114 	andeq	r0, r0, r4, lsl r1
    1958:	00000134 	andeq	r0, r0, r4, lsr r1
    195c:	00750005 	rsbseq	r0, r5, r5
    1960:	009f2433 	addseq	r2, pc, r3, lsr r4	; <UNPREDICTABLE>
    1964:	00000000 	andeq	r0, r0, r0
    1968:	04000000 	streq	r0, [r0], #-0
    196c:	08000001 	stmdaeq	r0, {r0}
    1970:	01000001 	tsteq	r0, r1
    1974:	00005300 	andeq	r5, r0, r0, lsl #6
    1978:	00000000 	andeq	r0, r0, r0
    197c:	01140000 	tsteq	r4, r0
    1980:	011c0000 	tsteq	ip, r0
    1984:	00060000 	andeq	r0, r6, r0
    1988:	80080077 	andhi	r0, r8, r7, ror r0
    198c:	011c9f1a 	tsteq	ip, sl, lsl pc
    1990:	011f0000 	tsteq	pc, r0
    1994:	00010000 	andeq	r0, r1, r0
    1998:	00011f51 	andeq	r1, r1, r1, asr pc
    199c:	00015400 	andeq	r5, r1, r0, lsl #8
    19a0:	77000600 	strvc	r0, [r0, -r0, lsl #12]
    19a4:	1a800800 	bne	fe0039ac <__bss_end__+0xfdff9b84>
    19a8:	0000009f 	muleq	r0, pc, r0	; <UNPREDICTABLE>
    19ac:	00000000 	andeq	r0, r0, r0
    19b0:	00012400 	andeq	r2, r1, r0, lsl #8
    19b4:	00012800 	andeq	r2, r1, r0, lsl #16
    19b8:	53000100 	movwpl	r0, #256	; 0x100
	...
    19c4:	00000144 	andeq	r0, r0, r4, asr #2
    19c8:	00000148 	andeq	r0, r0, r8, asr #2
    19cc:	00530001 	subseq	r0, r3, r1
    19d0:	00000000 	andeq	r0, r0, r0
    19d4:	54000000 	strpl	r0, [r0], #-0
    19d8:	6b000001 	blvs	19e4 <_start-0x661c>
    19dc:	01000001 	tsteq	r0, r1
    19e0:	016b5000 	cmneq	fp, r0
    19e4:	01d00000 	bicseq	r0, r0, r0
    19e8:	00010000 	andeq	r0, r1, r0
    19ec:	0001d059 	andeq	sp, r1, r9, asr r0
    19f0:	00030c00 	andeq	r0, r3, r0, lsl #24
    19f4:	f3000400 	vshl.u8	d0, d0, d0
    19f8:	0c9f5001 	ldceq	0, cr5, [pc], {1}
    19fc:	14000003 	strne	r0, [r0], #-3
    1a00:	01000003 	tsteq	r0, r3
    1a04:	03145900 	tsteq	r4, #0, 18
    1a08:	031c0000 	tsteq	ip, #0
    1a0c:	00040000 	andeq	r0, r4, r0
    1a10:	9f5001f3 	svcls	0x005001f3
	...
    1a1c:	00000154 	andeq	r0, r0, r4, asr r1
    1a20:	0000016b 	andeq	r0, r0, fp, ror #2
    1a24:	6b510001 	blvs	1441a30 <__bss_end__+0x1437c08>
    1a28:	1c000001 	stcne	0, cr0, [r0], {1}
    1a2c:	01000003 	tsteq	r0, r3
    1a30:	00005600 	andeq	r5, r0, r0, lsl #12
    1a34:	00000000 	andeq	r0, r0, r0
    1a38:	01a80000 			; <UNDEFINED> instruction: 0x01a80000
    1a3c:	02980000 	addseq	r0, r8, #0
    1a40:	00010000 	andeq	r0, r1, r0
    1a44:	00000058 	andeq	r0, r0, r8, asr r0
    1a48:	00000000 	andeq	r0, r0, r0
    1a4c:	0001ac00 	andeq	sl, r1, r0, lsl #24
    1a50:	0002d000 	andeq	sp, r2, r0
    1a54:	54000100 	strpl	r0, [r0], #-256	; 0x100
	...
    1a60:	000001ac 	andeq	r0, r0, ip, lsr #3
    1a64:	000002d0 	ldrdeq	r0, [r0], -r0	; <UNPREDICTABLE>
    1a68:	00740005 	rsbseq	r0, r4, r5
    1a6c:	009f2531 	addseq	r2, pc, r1, lsr r5	; <UNPREDICTABLE>
    1a70:	00000000 	andeq	r0, r0, r0
    1a74:	ac000000 	stcge	0, cr0, [r0], {-0}
    1a78:	d0000001 	andle	r0, r0, r1
    1a7c:	02000001 	andeq	r0, r0, #1
    1a80:	d09f3000 	addsle	r3, pc, r0
    1a84:	0c000001 	stceq	0, cr0, [r0], {1}
    1a88:	01000003 	tsteq	r0, r3
    1a8c:	03145900 	tsteq	r4, #0, 18
    1a90:	031c0000 	tsteq	ip, #0
    1a94:	00010000 	andeq	r0, r1, r0
    1a98:	00000059 	andeq	r0, r0, r9, asr r0
    1a9c:	00000000 	andeq	r0, r0, r0
    1aa0:	00016800 	andeq	r6, r1, r0, lsl #16
    1aa4:	00016b00 	andeq	r6, r1, r0, lsl #22
    1aa8:	51000100 	mrspl	r0, (UNDEF: 16)
    1aac:	0000016b 	andeq	r0, r0, fp, ror #2
    1ab0:	0000031c 	andeq	r0, r0, ip, lsl r3
    1ab4:	00560001 	subseq	r0, r6, r1
    1ab8:	00000000 	andeq	r0, r0, r0
    1abc:	70000000 	andvc	r0, r0, r0
    1ac0:	ac000001 	stcge	0, cr0, [r0], {1}
    1ac4:	01000001 	tsteq	r0, r1
    1ac8:	030c5400 	movweq	r5, #50176	; 0xc400
    1acc:	03140000 	tsteq	r4, #0
    1ad0:	00010000 	andeq	r0, r1, r0
    1ad4:	00000054 	andeq	r0, r0, r4, asr r0
    1ad8:	00000000 	andeq	r0, r0, r0
    1adc:	0001a800 	andeq	sl, r1, r0, lsl #16
    1ae0:	0001c400 	andeq	ip, r1, r0, lsl #8
    1ae4:	58000100 	stmdapl	r0, {r8}
	...
    1af0:	000001b0 			; <UNDEFINED> instruction: 0x000001b0
    1af4:	000001cb 	andeq	r0, r0, fp, asr #3
    1af8:	cb520001 	blgt	1481b04 <__bss_end__+0x1477cdc>
    1afc:	d0000001 	andle	r0, r0, r1
    1b00:	08000002 	stmdaeq	r0, {r1}
    1b04:	31007400 	tstcc	r0, r0, lsl #8
    1b08:	22007425 	andcs	r7, r0, #620756992	; 0x25000000
    1b0c:	0000009f 	muleq	r0, pc, r0	; <UNPREDICTABLE>
    1b10:	00000000 	andeq	r0, r0, r0
    1b14:	0001b000 	andeq	fp, r1, r0
    1b18:	0001c400 	andeq	ip, r1, r0, lsl #8
    1b1c:	58000100 	stmdapl	r0, {r8}
	...
    1b28:	000001b4 			; <UNDEFINED> instruction: 0x000001b4
    1b2c:	000001b8 			; <UNDEFINED> instruction: 0x000001b8
    1b30:	00530001 	subseq	r0, r3, r1
    1b34:	00000000 	andeq	r0, r0, r0
    1b38:	d0000000 	andle	r0, r0, r0
    1b3c:	d0000001 	andle	r0, r0, r1
    1b40:	01000002 	tsteq	r0, r2
    1b44:	00005400 	andeq	r5, r0, r0, lsl #8
    1b48:	00000000 	andeq	r0, r0, r0
    1b4c:	01d00000 	bicseq	r0, r0, r0
    1b50:	01e40000 	mvneq	r0, r0
    1b54:	00010000 	andeq	r0, r1, r0
    1b58:	00000058 	andeq	r0, r0, r8, asr r0
    1b5c:	00000000 	andeq	r0, r0, r0
    1b60:	0001d400 	andeq	sp, r1, r0, lsl #8
    1b64:	0001d800 	andeq	sp, r1, r0, lsl #16
    1b68:	53000100 	movwpl	r0, #256	; 0x100
	...
    1b74:	000001f4 	strdeq	r0, [r0], -r4
    1b78:	000002d0 	ldrdeq	r0, [r0], -r0	; <UNPREDICTABLE>
    1b7c:	00540001 	subseq	r0, r4, r1
    1b80:	00000000 	andeq	r0, r0, r0
    1b84:	f4000000 	vst4.8	{d0-d3}, [r0], r0
    1b88:	08000001 	stmdaeq	r0, {r0}
    1b8c:	01000002 	tsteq	r0, r2
    1b90:	00005800 	andeq	r5, r0, r0, lsl #16
    1b94:	00000000 	andeq	r0, r0, r0
    1b98:	01f80000 	mvnseq	r0, r0
    1b9c:	01fc0000 	mvnseq	r0, r0
    1ba0:	00010000 	andeq	r0, r1, r0
    1ba4:	00000053 	andeq	r0, r0, r3, asr r0
    1ba8:	00000000 	andeq	r0, r0, r0
    1bac:	00021800 	andeq	r1, r2, r0, lsl #16
    1bb0:	0002d000 	andeq	sp, r2, r0
    1bb4:	54000100 	strpl	r0, [r0], #-256	; 0x100
	...
    1bc0:	00000218 	andeq	r0, r0, r8, lsl r2
    1bc4:	0000022c 	andeq	r0, r0, ip, lsr #4
    1bc8:	00580001 	subseq	r0, r8, r1
    1bcc:	00000000 	andeq	r0, r0, r0
    1bd0:	1c000000 	stcne	0, cr0, [r0], {-0}
    1bd4:	20000002 	andcs	r0, r0, r2
    1bd8:	01000002 	tsteq	r0, r2
    1bdc:	00005300 	andeq	r5, r0, r0, lsl #6
    1be0:	00000000 	andeq	r0, r0, r0
    1be4:	023c0000 	eorseq	r0, ip, #0
    1be8:	02d00000 	sbcseq	r0, r0, #0
    1bec:	00010000 	andeq	r0, r1, r0
    1bf0:	00000054 	andeq	r0, r0, r4, asr r0
    1bf4:	00000000 	andeq	r0, r0, r0
    1bf8:	00023c00 	andeq	r3, r2, r0, lsl #24
    1bfc:	00025000 	andeq	r5, r2, r0
    1c00:	58000100 	stmdapl	r0, {r8}
	...
    1c0c:	00000240 	andeq	r0, r0, r0, asr #4
    1c10:	00000244 	andeq	r0, r0, r4, asr #4
    1c14:	00530001 	subseq	r0, r3, r1
    1c18:	00000000 	andeq	r0, r0, r0
    1c1c:	60000000 	andvs	r0, r0, r0
    1c20:	d0000002 	andle	r0, r0, r2
    1c24:	01000002 	tsteq	r0, r2
    1c28:	00005400 	andeq	r5, r0, r0, lsl #8
    1c2c:	00000000 	andeq	r0, r0, r0
    1c30:	02600000 	rsbeq	r0, r0, #0
    1c34:	02740000 	rsbseq	r0, r4, #0
    1c38:	00010000 	andeq	r0, r1, r0
    1c3c:	00000058 	andeq	r0, r0, r8, asr r0
    1c40:	00000000 	andeq	r0, r0, r0
    1c44:	00026400 	andeq	r6, r2, r0, lsl #8
    1c48:	00026800 	andeq	r6, r2, r0, lsl #16
    1c4c:	53000100 	movwpl	r0, #256	; 0x100
	...
    1c58:	00000284 	andeq	r0, r0, r4, lsl #5
    1c5c:	000002d0 	ldrdeq	r0, [r0], -r0	; <UNPREDICTABLE>
    1c60:	00540001 	subseq	r0, r4, r1
    1c64:	00000000 	andeq	r0, r0, r0
    1c68:	84000000 	strhi	r0, [r0], #-0
    1c6c:	98000002 	stmdals	r0, {r1}
    1c70:	01000002 	tsteq	r0, r2
    1c74:	00005800 	andeq	r5, r0, r0, lsl #16
    1c78:	00000000 	andeq	r0, r0, r0
    1c7c:	02880000 	addeq	r0, r8, #0
    1c80:	028c0000 	addeq	r0, ip, #0
    1c84:	00010000 	andeq	r0, r1, r0
    1c88:	00000053 	andeq	r0, r0, r3, asr r0
    1c8c:	00000000 	andeq	r0, r0, r0
    1c90:	0002a800 	andeq	sl, r2, r0, lsl #16
    1c94:	0002d000 	andeq	sp, r2, r0
    1c98:	54000100 	strpl	r0, [r0], #-256	; 0x100
	...
    1ca4:	000002ac 	andeq	r0, r0, ip, lsr #5
    1ca8:	000002b0 			; <UNDEFINED> instruction: 0x000002b0
    1cac:	00530001 	subseq	r0, r3, r1
    1cb0:	00000000 	andeq	r0, r0, r0
    1cb4:	c8000000 	stmdagt	r0, {}	; <UNPREDICTABLE>
    1cb8:	0c000002 	stceq	0, cr0, [r0], {2}
    1cbc:	02000003 	andeq	r0, r0, #3
    1cc0:	149f3000 	ldrne	r3, [pc], #0	; 1cc8 <_start-0x6338>
    1cc4:	1c000003 	stcne	0, cr0, [r0], {3}
    1cc8:	02000003 	andeq	r0, r0, #3
    1ccc:	009f3000 	addseq	r3, pc, r0
    1cd0:	00000000 	andeq	r0, r0, r0
    1cd4:	c8000000 	stmdagt	r0, {}	; <UNPREDICTABLE>
    1cd8:	0c000002 	stceq	0, cr0, [r0], {2}
    1cdc:	01000003 	tsteq	r0, r3
    1ce0:	03145500 	tsteq	r4, #0, 10
    1ce4:	031c0000 	tsteq	ip, #0
    1ce8:	00010000 	andeq	r0, r1, r0
    1cec:	00000055 	andeq	r0, r0, r5, asr r0
    1cf0:	00000000 	andeq	r0, r0, r0
    1cf4:	0002d000 	andeq	sp, r2, r0
    1cf8:	00030c00 	andeq	r0, r3, r0, lsl #24
    1cfc:	54000100 	strpl	r0, [r0], #-256	; 0x100
    1d00:	00000314 	andeq	r0, r0, r4, lsl r3
    1d04:	0000031c 	andeq	r0, r0, ip, lsl r3
    1d08:	00540001 	subseq	r0, r4, r1
    1d0c:	00000000 	andeq	r0, r0, r0
    1d10:	1c000000 	stcne	0, cr0, [r0], {-0}
    1d14:	3f000003 	svccc	0x00000003
    1d18:	01000003 	tsteq	r0, r3
    1d1c:	033f5000 	teqeq	pc, #0
    1d20:	03600000 	cmneq	r0, #0
    1d24:	00010000 	andeq	r0, r1, r0
    1d28:	00036058 	andeq	r6, r3, r8, asr r0
    1d2c:	00037000 	andeq	r7, r3, r0
    1d30:	50000100 	andpl	r0, r0, r0, lsl #2
    1d34:	00000370 	andeq	r0, r0, r0, ror r3
    1d38:	000003b0 			; <UNDEFINED> instruction: 0x000003b0
    1d3c:	b0580001 	subslt	r0, r8, r1
    1d40:	c0000003 	andgt	r0, r0, r3
    1d44:	04000003 	streq	r0, [r0], #-3
    1d48:	5001f300 	andpl	pc, r1, r0, lsl #6
    1d4c:	0000009f 	muleq	r0, pc, r0	; <UNPREDICTABLE>
    1d50:	00000000 	andeq	r0, r0, r0
    1d54:	00031c00 	andeq	r1, r3, r0, lsl #24
    1d58:	00033f00 	andeq	r3, r3, r0, lsl #30
    1d5c:	51000100 	mrspl	r0, (UNDEF: 16)
    1d60:	0000033f 	andeq	r0, r0, pc, lsr r3
    1d64:	00000360 	andeq	r0, r0, r0, ror #6
    1d68:	60560001 	subsvs	r0, r6, r1
    1d6c:	70000003 	andvc	r0, r0, r3
    1d70:	01000003 	tsteq	r0, r3
    1d74:	03705100 	cmneq	r0, #0, 2
    1d78:	03b00000 	movseq	r0, #0
    1d7c:	00010000 	andeq	r0, r1, r0
    1d80:	0003b056 	andeq	fp, r3, r6, asr r0
    1d84:	0003c000 	andeq	ip, r3, r0
    1d88:	f3000400 	vshl.u8	d0, d0, d0
    1d8c:	009f5101 	addseq	r5, pc, r1, lsl #2
    1d90:	00000000 	andeq	r0, r0, r0
    1d94:	1c000000 	stcne	0, cr0, [r0], {-0}
    1d98:	3f000003 	svccc	0x00000003
    1d9c:	01000003 	tsteq	r0, r3
    1da0:	033f5200 	teqeq	pc, #0, 4
    1da4:	03600000 	cmneq	r0, #0
    1da8:	00040000 	andeq	r0, r4, r0
    1dac:	9f5201f3 	svcls	0x005201f3
    1db0:	00000360 	andeq	r0, r0, r0, ror #6
    1db4:	00000370 	andeq	r0, r0, r0, ror r3
    1db8:	70520001 	subsvc	r0, r2, r1
    1dbc:	b0000003 	andlt	r0, r0, r3
    1dc0:	03000003 	movweq	r0, #3
    1dc4:	9f017700 	svcls	0x00017700
    1dc8:	000003b0 			; <UNDEFINED> instruction: 0x000003b0
    1dcc:	000003c0 	andeq	r0, r0, r0, asr #7
    1dd0:	01f30004 	mvnseq	r0, r4
    1dd4:	00009f52 	andeq	r9, r0, r2, asr pc
    1dd8:	00000000 	andeq	r0, r0, r0
    1ddc:	031c0000 	tsteq	ip, #0
    1de0:	033f0000 	teqeq	pc, #0
    1de4:	00010000 	andeq	r0, r1, r0
    1de8:	00033f53 	andeq	r3, r3, r3, asr pc
    1dec:	00036000 	andeq	r6, r3, r0
    1df0:	f3000400 	vshl.u8	d0, d0, d0
    1df4:	609f5301 	addsvs	r5, pc, r1, lsl #6
    1df8:	70000003 	andvc	r0, r0, r3
    1dfc:	01000003 	tsteq	r0, r3
    1e00:	03705300 	cmneq	r0, #0, 6
    1e04:	03c00000 	biceq	r0, r0, #0
    1e08:	00040000 	andeq	r0, r4, r0
    1e0c:	9f5301f3 	svcls	0x005301f3
	...
    1e18:	00000368 	andeq	r0, r0, r8, ror #6
    1e1c:	00000370 	andeq	r0, r0, r0, ror r3
    1e20:	9f300002 	svcls	0x00300002
    1e24:	00000370 	andeq	r0, r0, r0, ror r3
    1e28:	000003b0 			; <UNDEFINED> instruction: 0x000003b0
    1e2c:	b0540001 	subslt	r0, r4, r1
    1e30:	c0000003 	andgt	r0, r0, r3
    1e34:	01000003 	tsteq	r0, r3
    1e38:	00005000 	andeq	r5, r0, r0
    1e3c:	00000000 	andeq	r0, r0, r0
    1e40:	03800000 	orreq	r0, r0, #0
    1e44:	03900000 	orrseq	r0, r0, #0
    1e48:	00010000 	andeq	r0, r1, r0
    1e4c:	00000050 	andeq	r0, r0, r0, asr r0
    1e50:	00000000 	andeq	r0, r0, r0
    1e54:	0003c000 	andeq	ip, r3, r0
    1e58:	0003df00 	andeq	sp, r3, r0, lsl #30
    1e5c:	50000100 	andpl	r0, r0, r0, lsl #2
    1e60:	000003df 	ldrdeq	r0, [r0], -pc	; <UNPREDICTABLE>
    1e64:	00000400 	andeq	r0, r0, r0, lsl #8
    1e68:	00570001 	subseq	r0, r7, r1
    1e6c:	10000004 	andne	r0, r0, r4
    1e70:	01000004 	tsteq	r0, r4
    1e74:	04105000 	ldreq	r5, [r0], #-0
    1e78:	04400000 	strbeq	r0, [r0], #-0
    1e7c:	00010000 	andeq	r0, r1, r0
    1e80:	00044057 	andeq	r4, r4, r7, asr r0
    1e84:	00045000 	andeq	r5, r4, r0
    1e88:	f3000400 	vshl.u8	d0, d0, d0
    1e8c:	009f5001 	addseq	r5, pc, r1
    1e90:	00000000 	andeq	r0, r0, r0
    1e94:	c0000000 	andgt	r0, r0, r0
    1e98:	df000003 	svcle	0x00000003
    1e9c:	01000003 	tsteq	r0, r3
    1ea0:	03df5100 	bicseq	r5, pc, #0, 2
    1ea4:	04000000 	streq	r0, [r0], #-0
    1ea8:	00010000 	andeq	r0, r1, r0
    1eac:	00040055 	andeq	r0, r4, r5, asr r0
    1eb0:	00041000 	andeq	r1, r4, r0
    1eb4:	51000100 	mrspl	r0, (UNDEF: 16)
    1eb8:	00000410 	andeq	r0, r0, r0, lsl r4
    1ebc:	00000440 	andeq	r0, r0, r0, asr #8
    1ec0:	40550001 	subsmi	r0, r5, r1
    1ec4:	50000004 	andpl	r0, r0, r4
    1ec8:	04000004 	streq	r0, [r0], #-4
    1ecc:	5101f300 	mrspl	pc, SP_irq	; <UNPREDICTABLE>
    1ed0:	0000009f 	muleq	r0, pc, r0	; <UNPREDICTABLE>
    1ed4:	00000000 	andeq	r0, r0, r0
    1ed8:	0003c000 	andeq	ip, r3, r0
    1edc:	0003df00 	andeq	sp, r3, r0, lsl #30
    1ee0:	52000100 	andpl	r0, r0, #0, 2
    1ee4:	000003df 	ldrdeq	r0, [r0], -pc	; <UNPREDICTABLE>
    1ee8:	00000400 	andeq	r0, r0, r0, lsl #8
    1eec:	01f30004 	mvnseq	r0, r4
    1ef0:	04009f52 	streq	r9, [r0], #-3922	; 0xf52
    1ef4:	04100000 	ldreq	r0, [r0], #-0
    1ef8:	00010000 	andeq	r0, r1, r0
    1efc:	00041052 	andeq	r1, r4, r2, asr r0
    1f00:	00044000 	andeq	r4, r4, r0
    1f04:	76000300 	strvc	r0, [r0], -r0, lsl #6
    1f08:	04409f01 	strbeq	r9, [r0], #-3841	; 0xf01
    1f0c:	04500000 	ldrbeq	r0, [r0], #-0
    1f10:	00040000 	andeq	r0, r4, r0
    1f14:	9f5201f3 	svcls	0x005201f3
	...
    1f20:	000003c0 	andeq	r0, r0, r0, asr #7
    1f24:	000003df 	ldrdeq	r0, [r0], -pc	; <UNPREDICTABLE>
    1f28:	df530001 	svcle	0x00530001
    1f2c:	00000003 	andeq	r0, r0, r3
    1f30:	01000004 	tsteq	r0, r4
    1f34:	04005800 	streq	r5, [r0], #-2048	; 0x800
    1f38:	04100000 	ldreq	r0, [r0], #-0
    1f3c:	00010000 	andeq	r0, r1, r0
    1f40:	00041053 	andeq	r1, r4, r3, asr r0
    1f44:	00044000 	andeq	r4, r4, r0
    1f48:	58000100 	stmdapl	r0, {r8}
    1f4c:	00000440 	andeq	r0, r0, r0, asr #8
    1f50:	00000450 	andeq	r0, r0, r0, asr r4
    1f54:	01f30004 	mvnseq	r0, r4
    1f58:	00009f53 	andeq	r9, r0, r3, asr pc
    1f5c:	00000000 	andeq	r0, r0, r0
    1f60:	04080000 	streq	r0, [r8], #-0
    1f64:	04100000 	ldreq	r0, [r0], #-0
    1f68:	00020000 	andeq	r0, r2, r0
    1f6c:	04109f30 	ldreq	r9, [r0], #-3888	; 0xf30
    1f70:	04400000 	strbeq	r0, [r0], #-0
    1f74:	00010000 	andeq	r0, r1, r0
    1f78:	00044054 	andeq	r4, r4, r4, asr r0
    1f7c:	00045000 	andeq	r5, r4, r0
    1f80:	50000100 	andpl	r0, r0, r0, lsl #2
	...
    1f8c:	00000450 	andeq	r0, r0, r0, asr r4
    1f90:	00000473 	andeq	r0, r0, r3, ror r4
    1f94:	73510001 	cmpvc	r1, #1
    1f98:	24000004 	strcs	r0, [r0], #-4
    1f9c:	04000005 	streq	r0, [r0], #-5
    1fa0:	5101f300 	mrspl	pc, SP_irq	; <UNPREDICTABLE>
    1fa4:	0000009f 	muleq	r0, pc, r0	; <UNPREDICTABLE>
    1fa8:	00000000 	andeq	r0, r0, r0
    1fac:	00045000 	andeq	r5, r4, r0
    1fb0:	00047300 	andeq	r7, r4, r0, lsl #6
    1fb4:	52000100 	andpl	r0, r0, #0, 2
    1fb8:	00000473 	andeq	r0, r0, r3, ror r4
    1fbc:	00000524 	andeq	r0, r0, r4, lsr #10
    1fc0:	01f30004 	mvnseq	r0, r4
    1fc4:	00009f52 	andeq	r9, r0, r2, asr pc
    1fc8:	00000000 	andeq	r0, r0, r0
    1fcc:	04500000 	ldrbeq	r0, [r0], #-0
    1fd0:	04730000 	ldrbteq	r0, [r3], #-0
    1fd4:	00010000 	andeq	r0, r1, r0
    1fd8:	00047353 	andeq	r7, r4, r3, asr r3
    1fdc:	00051000 	andeq	r1, r5, r0
    1fe0:	55000100 	strpl	r0, [r0, #-256]	; 0x100
    1fe4:	00000510 	andeq	r0, r0, r0, lsl r5
    1fe8:	00000524 	andeq	r0, r0, r4, lsr #10
    1fec:	04700002 	ldrbteq	r0, [r0], #-2
	...
    1ff8:	00000494 	muleq	r0, r4, r4
    1ffc:	000004d3 	ldrdeq	r0, [r0], -r3
    2000:	d3520001 	cmple	r2, #1
    2004:	f4000004 	vst4.8	{d0-d3}, [r0], r4
    2008:	06000004 	streq	r0, [r0], -r4
    200c:	77007500 	strvc	r7, [r0, -r0, lsl #10]
    2010:	f49f1e00 			; <UNDEFINED> instruction: 0xf49f1e00
    2014:	24000004 	strcs	r0, [r0], #-4
    2018:	01000005 	tsteq	r0, r5
    201c:	00005200 	andeq	r5, r0, r0, lsl #4
    2020:	00000000 	andeq	r0, r0, r0
    2024:	05240000 	streq	r0, [r4, #-0]!
    2028:	052f0000 	streq	r0, [pc, #-0]!	; 2030 <_start-0x5fd0>
    202c:	00010000 	andeq	r0, r1, r0
    2030:	00052f50 	andeq	r2, r5, r0, asr pc
    2034:	00056000 	andeq	r6, r5, r0
    2038:	f3000400 	vshl.u8	d0, d0, d0
    203c:	009f5001 	addseq	r5, pc, r1
    2040:	00000000 	andeq	r0, r0, r0
    2044:	30000000 	andcc	r0, r0, r0
    2048:	3b000005 	blcc	2064 <_start-0x5f9c>
    204c:	01000005 	tsteq	r0, r5
    2050:	00005000 	andeq	r5, r0, r0
    2054:	00000000 	andeq	r0, r0, r0
    2058:	05600000 	strbeq	r0, [r0, #-0]!
    205c:	05700000 	ldrbeq	r0, [r0, #-0]!
    2060:	00010000 	andeq	r0, r1, r0
    2064:	00057050 	andeq	r7, r5, r0, asr r0
    2068:	00058c00 	andeq	r8, r5, r0, lsl #24
    206c:	55000100 	strpl	r0, [r0, #-256]	; 0x100
	...
    2078:	00000560 	andeq	r0, r0, r0, ror #10
    207c:	00000570 	andeq	r0, r0, r0, ror r5
    2080:	70510001 	subsvc	r0, r1, r1
    2084:	8c000005 	stchi	0, cr0, [r0], {5}
    2088:	01000005 	tsteq	r0, r5
    208c:	00005400 	andeq	r5, r0, r0, lsl #8
    2090:	00000000 	andeq	r0, r0, r0
    2094:	058c0000 	streq	r0, [ip]
    2098:	05a80000 	streq	r0, [r8, #0]!
    209c:	00010000 	andeq	r0, r1, r0
    20a0:	0005a850 	andeq	sl, r5, r0, asr r8
    20a4:	00060000 	andeq	r0, r6, r0
    20a8:	55000100 	strpl	r0, [r0, #-256]	; 0x100
    20ac:	00000600 	andeq	r0, r0, r0, lsl #12
    20b0:	0000061c 	andeq	r0, r0, ip, lsl r6
    20b4:	01f30004 	mvnseq	r0, r4
    20b8:	00009f50 	andeq	r9, r0, r0, asr pc
    20bc:	00000000 	andeq	r0, r0, r0
    20c0:	05b80000 	ldreq	r0, [r8, #0]!
    20c4:	05c70000 	strbeq	r0, [r7]
    20c8:	00010000 	andeq	r0, r1, r0
    20cc:	0005c750 	andeq	ip, r5, r0, asr r7
    20d0:	0005e800 	andeq	lr, r5, r0, lsl #16
    20d4:	54000100 	strpl	r0, [r0], #-256	; 0x100
    20d8:	000005e8 	andeq	r0, r0, r8, ror #11
    20dc:	000005ec 	andeq	r0, r0, ip, ror #11
    20e0:	ec500001 	mrrc	0, 0, r0, r0, cr1	; <UNPREDICTABLE>
    20e4:	00000005 	andeq	r0, r0, r5
    20e8:	01000006 	tsteq	r0, r6
    20ec:	06005400 	streq	r5, [r0], -r0, lsl #8
    20f0:	061c0000 	ldreq	r0, [ip], -r0
    20f4:	00010000 	andeq	r0, r1, r0
    20f8:	00000050 	andeq	r0, r0, r0, asr r0
    20fc:	00000000 	andeq	r0, r0, r0
    2100:	00061c00 	andeq	r1, r6, r0, lsl #24
    2104:	00062f00 	andeq	r2, r6, r0, lsl #30
    2108:	50000100 	andpl	r0, r0, r0, lsl #2
    210c:	0000062f 	andeq	r0, r0, pc, lsr #12
    2110:	00000668 	andeq	r0, r0, r8, ror #12
    2114:	01f30004 	mvnseq	r0, r4
    2118:	00009f50 	andeq	r9, r0, r0, asr pc
    211c:	00000000 	andeq	r0, r0, r0
    2120:	061c0000 	ldreq	r0, [ip], -r0
    2124:	062f0000 	strteq	r0, [pc], -r0
    2128:	00010000 	andeq	r0, r1, r0
    212c:	00062f51 	andeq	r2, r6, r1, asr pc
    2130:	00066800 	andeq	r6, r6, r0, lsl #16
    2134:	f3000400 	vshl.u8	d0, d0, d0
    2138:	009f5101 	addseq	r5, pc, r1, lsl #2
    213c:	00000000 	andeq	r0, r0, r0
    2140:	1c000000 	stcne	0, cr0, [r0], {-0}
    2144:	2f000006 	svccs	0x00000006
    2148:	01000006 	tsteq	r0, r6
    214c:	062f5200 	strteq	r5, [pc], -r0, lsl #4
    2150:	06680000 	strbteq	r0, [r8], -r0
    2154:	00040000 	andeq	r0, r4, r0
    2158:	9f5201f3 	svcls	0x005201f3
	...
    2164:	0000061c 	andeq	r0, r0, ip, lsl r6
    2168:	0000062f 	andeq	r0, r0, pc, lsr #12
    216c:	2f530001 	svccs	0x00530001
    2170:	68000006 	stmdavs	r0, {r1, r2}
    2174:	04000006 	streq	r0, [r0], #-6
    2178:	5301f300 	movwpl	pc, #4864	; 0x1300	; <UNPREDICTABLE>
    217c:	0000009f 	muleq	r0, pc, r0	; <UNPREDICTABLE>
    2180:	00000000 	andeq	r0, r0, r0
    2184:	00063000 	andeq	r3, r6, r0
    2188:	00063b00 	andeq	r3, r6, r0, lsl #22
    218c:	50000100 	andpl	r0, r0, r0, lsl #2
    2190:	00000654 	andeq	r0, r0, r4, asr r6
    2194:	00000668 	andeq	r0, r0, r8, ror #12
    2198:	00500001 	subseq	r0, r0, r1
	...
    21a4:	0b000000 	bleq	21ac <_start-0x5e54>
    21a8:	01000000 	mrseq	r0, (UNDEF: 0)
    21ac:	000b5000 	andeq	r5, fp, r0
    21b0:	00140000 	andseq	r0, r4, r0
    21b4:	00010000 	andeq	r0, r1, r0
    21b8:	00000054 	andeq	r0, r0, r4, asr r0
    21bc:	00000000 	andeq	r0, r0, r0
    21c0:	0000fc00 	andeq	pc, r0, r0, lsl #24
    21c4:	00010400 	andeq	r0, r1, r0, lsl #8
    21c8:	50000100 	andpl	r0, r0, r0, lsl #2
    21cc:	00000104 	andeq	r0, r0, r4, lsl #2
    21d0:	00000128 	andeq	r0, r0, r8, lsr #2
    21d4:	00540001 	subseq	r0, r4, r1
	...
    21e0:	04000000 	streq	r0, [r0], #-0
    21e4:	01000000 	mrseq	r0, (UNDEF: 0)
    21e8:	00045200 	andeq	r5, r4, r0, lsl #4
    21ec:	00200000 	eoreq	r0, r0, r0
    21f0:	00040000 	andeq	r0, r4, r0
    21f4:	9f5201f3 	svcls	0x005201f3
	...
    2204:	0000000c 	andeq	r0, r0, ip
    2208:	0c500001 	mrrceq	0, 0, r0, r0, cr1	; <UNPREDICTABLE>
    220c:	14000000 	strne	r0, [r0], #-0
    2210:	03000000 	movweq	r0, #0
    2214:	9f017300 	svcls	0x00017300
    2218:	00000014 	andeq	r0, r0, r4, lsl r0
    221c:	00000020 	andeq	r0, r0, r0, lsr #32
    2220:	00530001 	subseq	r0, r3, r1
    2224:	00000000 	andeq	r0, r0, r0
    2228:	Address 0x0000000000002228 is out of bounds.


Disassembly of section .debug_aranges:

00000000 <.debug_aranges>:
   0:	0000001c 	andeq	r0, r0, ip, lsl r0
   4:	00000002 	andeq	r0, r0, r2
   8:	00040000 	andeq	r0, r4, r0
   c:	00000000 	andeq	r0, r0, r0
  10:	00008010 	andeq	r8, r0, r0, lsl r0
  14:	000000fc 	strdeq	r0, [r0], -ip
	...
  20:	0000001c 	andeq	r0, r0, ip, lsl r0
  24:	04700002 	ldrbteq	r0, [r0], #-2
  28:	00040000 	andeq	r0, r4, r0
  2c:	00000000 	andeq	r0, r0, r0
  30:	0000810c 	andeq	r8, r0, ip, lsl #2
  34:	00000058 	andeq	r0, r0, r8, asr r0
	...
  40:	0000001c 	andeq	r0, r0, ip, lsl r0
  44:	06050002 	streq	r0, [r5], -r2
  48:	00040000 	andeq	r0, r4, r0
  4c:	00000000 	andeq	r0, r0, r0
  50:	00008164 	andeq	r8, r0, r4, ror #2
  54:	00000034 	andeq	r0, r0, r4, lsr r0
	...
  60:	0000001c 	andeq	r0, r0, ip, lsl r0
  64:	06f70002 	ldrbteq	r0, [r7], r2
  68:	00040000 	andeq	r0, r4, r0
  6c:	00000000 	andeq	r0, r0, r0
  70:	00008198 	muleq	r0, r8, r1
  74:	00000524 	andeq	r0, r0, r4, lsr #10
	...
  80:	0000001c 	andeq	r0, r0, ip, lsl r0
  84:	0d9c0002 	ldceq	0, cr0, [ip, #8]
  88:	00040000 	andeq	r0, r4, r0
  8c:	00000000 	andeq	r0, r0, r0
  90:	000086bc 			; <UNDEFINED> instruction: 0x000086bc
  94:	00000020 	andeq	r0, r0, r0, lsr #32
	...
  a0:	0000001c 	andeq	r0, r0, ip, lsl r0
  a4:	0e580002 	cdpeq	0, 5, cr0, cr8, cr2, {0}
  a8:	00040000 	andeq	r0, r4, r0
  ac:	00000000 	andeq	r0, r0, r0
  b0:	000086dc 	ldrdeq	r8, [r0], -ip
  b4:	00000028 	andeq	r0, r0, r8, lsr #32
	...
  c0:	0000001c 	andeq	r0, r0, ip, lsl r0
  c4:	0f5b0002 	svceq	0x005b0002
  c8:	00040000 	andeq	r0, r4, r0
  cc:	00000000 	andeq	r0, r0, r0
  d0:	00008704 	andeq	r8, r0, r4, lsl #14
  d4:	000000b0 	strheq	r0, [r0], -r0	; <UNPREDICTABLE>
	...
  e0:	0000001c 	andeq	r0, r0, ip, lsl r0
  e4:	123c0002 	eorsne	r0, ip, #2
  e8:	00040000 	andeq	r0, r4, r0
  ec:	00000000 	andeq	r0, r0, r0
  f0:	000087b4 			; <UNDEFINED> instruction: 0x000087b4
  f4:	00000074 	andeq	r0, r0, r4, ror r0
	...
 100:	0000001c 	andeq	r0, r0, ip, lsl r0
 104:	13ed0002 	mvnne	r0, #2
 108:	00040000 	andeq	r0, r4, r0
 10c:	00000000 	andeq	r0, r0, r0
 110:	00008828 	andeq	r8, r0, r8, lsr #16
 114:	00000088 	andeq	r0, r0, r8, lsl #1
	...
 120:	0000001c 	andeq	r0, r0, ip, lsl r0
 124:	15c90002 	strbne	r0, [r9, #2]
 128:	00040000 	andeq	r0, r4, r0
 12c:	00000000 	andeq	r0, r0, r0
 130:	000088b0 			; <UNDEFINED> instruction: 0x000088b0
 134:	000005a0 	andeq	r0, r0, r0, lsr #11
	...
 140:	0000001c 	andeq	r0, r0, ip, lsl r0
 144:	1e4f0002 	cdpne	0, 4, cr0, cr15, cr2, {0}
 148:	00040000 	andeq	r0, r4, r0
 14c:	00000000 	andeq	r0, r0, r0
 150:	00008e50 	andeq	r8, r0, r0, asr lr
 154:	00000668 	andeq	r0, r0, r8, ror #12
	...
 160:	0000001c 	andeq	r0, r0, ip, lsl r0
 164:	30450002 	subcc	r0, r5, r2
 168:	00040000 	andeq	r0, r4, r0
 16c:	00000000 	andeq	r0, r0, r0
 170:	0000951c 	andeq	r9, r0, ip, lsl r5
 174:	0000003c 	andeq	r0, r0, ip, lsr r0
	...
 180:	0000001c 	andeq	r0, r0, ip, lsl r0
 184:	315c0002 	cmpcc	ip, r2
 188:	00040000 	andeq	r0, r4, r0
 18c:	00000000 	andeq	r0, r0, r0
 190:	00009558 	andeq	r9, r0, r8, asr r5
 194:	00000050 	andeq	r0, r0, r0, asr r0
	...
 1a0:	0000001c 	andeq	r0, r0, ip, lsl r0
 1a4:	33230002 	teqcc	r3, #2
 1a8:	00040000 	andeq	r0, r4, r0
 1ac:	00000000 	andeq	r0, r0, r0
 1b0:	000095a8 	andeq	r9, r0, r8, lsr #11
 1b4:	00000154 	andeq	r0, r0, r4, asr r1
	...
 1c0:	0000001c 	andeq	r0, r0, ip, lsl r0
 1c4:	37260002 	strcc	r0, [r6, -r2]!
 1c8:	00040000 	andeq	r0, r4, r0
 1cc:	00000000 	andeq	r0, r0, r0
 1d0:	000096fc 	strdeq	r9, [r0], -ip
 1d4:	00000020 	andeq	r0, r0, r0, lsr #32
	...

Disassembly of section .debug_ranges:

00000000 <.debug_ranges>:
   0:	00000018 	andeq	r0, r0, r8, lsl r0
   4:	00000024 	andeq	r0, r0, r4, lsr #32
   8:	0000002c 	andeq	r0, r0, ip, lsr #32
   c:	00000090 	muleq	r0, r0, r0
  10:	000000ac 	andeq	r0, r0, ip, lsr #1
  14:	000000cc 	andeq	r0, r0, ip, asr #1
	...
  20:	00000018 	andeq	r0, r0, r8, lsl r0
  24:	00000024 	andeq	r0, r0, r4, lsr #32
  28:	0000004c 	andeq	r0, r0, ip, asr #32
  2c:	00000078 	andeq	r0, r0, r8, ror r0
  30:	000000ac 	andeq	r0, r0, ip, lsr #1
  34:	000000cc 	andeq	r0, r0, ip, asr #1
	...
  40:	00000018 	andeq	r0, r0, r8, lsl r0
  44:	00000024 	andeq	r0, r0, r4, lsr #32
  48:	00000054 	andeq	r0, r0, r4, asr r0
  4c:	00000060 	andeq	r0, r0, r0, rrx
	...
  58:	00000060 	andeq	r0, r0, r0, rrx
  5c:	00000078 	andeq	r0, r0, r8, ror r0
  60:	000000ac 	andeq	r0, r0, ip, lsr #1
  64:	000000cc 	andeq	r0, r0, ip, asr #1
	...
  70:	00000038 	andeq	r0, r0, r8, lsr r0
  74:	0000003c 	andeq	r0, r0, ip, lsr r0
  78:	00000088 	andeq	r0, r0, r8, lsl #1
  7c:	00000090 	muleq	r0, r0, r0
	...
  88:	000002b4 			; <UNDEFINED> instruction: 0x000002b4
  8c:	000002b8 			; <UNDEFINED> instruction: 0x000002b8
  90:	000002e8 	andeq	r0, r0, r8, ror #5
  94:	000004e0 	andeq	r0, r0, r0, ror #9
	...
  a0:	000087b4 			; <UNDEFINED> instruction: 0x000087b4
  a4:	00008828 	andeq	r8, r0, r8, lsr #16
	...

Disassembly of section .debug_line:

00000000 <.debug_line>:
       0:	00000116 	andeq	r0, r0, r6, lsl r1
       4:	00c70002 	sbceq	r0, r7, r2
       8:	01020000 	mrseq	r0, (UNDEF: 2)
       c:	000d0efb 	strdeq	r0, [sp], -fp
      10:	01010101 	tsteq	r1, r1, lsl #2
      14:	01000000 	mrseq	r0, (UNDEF: 0)
      18:	2f010000 	svccs	0x00010000
      1c:	72657355 	rsbvc	r7, r5, #1409286145	; 0x54000001
      20:	72622f73 	rsbvc	r2, r2, #460	; 0x1cc
      24:	6a6e6169 	bvs	1b985d0 <__bss_end__+0x1b8e7a8>
      28:	442f6e75 	strtmi	r6, [pc], #-3701	; 30 <_start-0x7fd0>
      2c:	746b7365 	strbtvc	r7, [fp], #-869	; 0x365
      30:	732f706f 	teqvc	pc, #111	; 0x6f
      34:	6f6f6863 	svcvs	0x006f6863
      38:	69572f6c 	ldmdbvs	r7, {r2, r3, r5, r6, r8, r9, sl, fp, sp}^
      3c:	7265746e 	rsbvc	r7, r5, #1845493760	; 0x6e000000
      40:	30323931 	eorscc	r3, r2, r1, lsr r9
      44:	3153432f 	cmpcc	r3, pc, lsr #6
      48:	2f453034 	svccs	0x00453034
      4c:	34317363 	ldrtcc	r7, [r1], #-867	; 0x363
      50:	322d6530 	eorcc	r6, sp, #48, 10	; 0xc000000
      54:	6e697730 	mcrvs	7, 3, r7, cr9, cr0, {1}
      58:	62696c2f 	rsbvs	r6, r9, #12032	; 0x2f00
      5c:	2f006970 	svccs	0x00006970
      60:	72657355 	rsbvc	r7, r5, #1409286145	; 0x54000001
      64:	72622f73 	rsbvc	r2, r2, #460	; 0x1cc
      68:	6a6e6169 	bvs	1b98614 <__bss_end__+0x1b8e7ec>
      6c:	442f6e75 	strtmi	r6, [pc], #-3701	; 74 <_start-0x7f8c>
      70:	746b7365 	strbtvc	r7, [fp], #-869	; 0x365
      74:	732f706f 	teqvc	pc, #111	; 0x6f
      78:	6f6f6863 	svcvs	0x006f6863
      7c:	69572f6c 	ldmdbvs	r7, {r2, r3, r5, r6, r8, r9, sl, fp, sp}^
      80:	7265746e 	rsbvc	r7, r5, #1845493760	; 0x6e000000
      84:	30323931 	eorscc	r3, r2, r1, lsr r9
      88:	3153432f 	cmpcc	r3, pc, lsr #6
      8c:	2f453034 	svccs	0x00453034
      90:	34317363 	ldrtcc	r7, [r1], #-867	; 0x363
      94:	322d6530 	eorcc	r6, sp, #48, 10	; 0xc000000
      98:	6e697730 	mcrvs	7, 3, r7, cr9, cr0, {1}
      9c:	62696c2f 	rsbvs	r6, r9, #12032	; 0x2f00
      a0:	632f6970 	teqvs	pc, #112, 18	; 0x1c0000
      a4:	30343173 	eorscc	r3, r4, r3, ror r1
      a8:	72732d65 	rsbsvc	r2, r3, #6464	; 0x1940
      ac:	74000063 	strvc	r0, [r0], #-99	; 0x63
      b0:	2d747365 	ldclcs	3, cr7, [r4, #-404]!	; 0xfffffe6c
      b4:	2e6e6567 	cdpcs	5, 6, cr6, cr14, cr7, {3}
      b8:	00000063 	andeq	r0, r0, r3, rrx
      bc:	69707200 	ldmdbvs	r0!, {r9, ip, sp, lr}^
      c0:	0100682e 	tsteq	r0, lr, lsr #16
      c4:	70670000 	rsbvc	r0, r7, r0
      c8:	682e6f69 	stmdavs	lr!, {r0, r3, r5, r6, r8, r9, sl, fp, sp, lr}
      cc:	00000200 	andeq	r0, r0, r0, lsl #4
      d0:	02050000 	andeq	r0, r5, #0
      d4:	00008010 	andeq	r8, r0, r0, lsl r0
      d8:	0100d803 	tsteq	r0, r3, lsl #16
      dc:	57034d66 	strpl	r4, [r3, -r6, ror #26]
      e0:	662a032e 	strtvs	r0, [sl], -lr, lsr #6
      e4:	0402004f 	streq	r0, [r2], #-79	; 0x4f
      e8:	02006401 	andeq	r6, r0, #16777216	; 0x1000000
      ec:	672f0104 	strvs	r0, [pc, -r4, lsl #2]!
      f0:	032e7103 	teqeq	lr, #-1073741824	; 0xc0000000
      f4:	14034a4e 	strne	r4, [r3], #-2638	; 0xa4e
      f8:	2e18034a 	cdpcs	3, 1, cr0, cr8, cr10, {2}
      fc:	2fba1703 	svccs	0x00ba1703
     100:	52292f2d 	eorpl	r2, r9, #45, 30	; 0xb4
     104:	03496731 	movteq	r6, #38705	; 0x9731
     108:	11032e51 	tstne	r3, r1, asr lr
     10c:	ba21034a 	blt	840e3c <__bss_end__+0x837014>
     110:	4d4b2f30 	stclmi	15, cr2, [fp, #-192]	; 0xffffff40
     114:	00040284 	andeq	r0, r4, r4, lsl #5
     118:	01020101 	tsteq	r2, r1, lsl #2
     11c:	00020000 	andeq	r0, r2, r0
     120:	000000eb 	andeq	r0, r0, fp, ror #1
     124:	0efb0102 	cdpeq	1, 15, cr0, cr11, cr2, {0}
     128:	0101000d 	tsteq	r1, sp
     12c:	00000101 	andeq	r0, r0, r1, lsl #2
     130:	00000100 	andeq	r0, r0, r0, lsl #2
     134:	62696c01 	rsbvs	r6, r9, #256	; 0x100
     138:	752f0063 	strvc	r0, [pc, #-99]!	; dd <_start-0x7f23>
     13c:	6c2f7273 	sfmvs	f7, 4, [pc], #-460	; ffffff78 <__bss_end__+0xffff6150>
     140:	6c61636f 	stclvs	3, cr6, [r1], #-444	; 0xfffffe44
     144:	6c65432f 	stclvs	3, cr4, [r5], #-188	; 0xffffff44
     148:	2f72616c 	svccs	0x0072616c
     14c:	2d6d7261 	sfmcs	f7, 2, [sp, #-388]!	; 0xfffffe7c
     150:	656e6f6e 	strbvs	r6, [lr, #-3950]!	; 0xf6e
     154:	6261652d 	rsbvs	r6, r1, #188743680	; 0xb400000
     158:	2e342f69 	cdpcs	15, 3, cr2, cr4, cr9, {3}
     15c:	2d332e38 	ldccs	14, cr2, [r3, #-224]!	; 0xffffff20
     160:	37317363 	ldrcc	r7, [r1, -r3, ror #6]!
     164:	6c2f6530 	cfstr32vs	mvfx6, [pc], #-192	; ac <_start-0x7f54>
     168:	672f6269 	strvs	r6, [pc, -r9, ror #4]!
     16c:	612f6363 	teqvs	pc, r3, ror #6
     170:	6e2d6d72 	mcrvs	13, 1, r6, cr13, cr2, {3}
     174:	2d656e6f 	stclcs	14, cr6, [r5, #-444]!	; 0xfffffe44
     178:	69626165 	stmdbvs	r2!, {r0, r2, r5, r6, r8, sp, lr}^
     17c:	382e342f 	stmdacc	lr!, {r0, r1, r2, r3, r5, sl, ip, sp}
     180:	692f332e 	stmdbvs	pc!, {r1, r2, r3, r5, r8, r9, ip, sp}	; <UNPREDICTABLE>
     184:	756c636e 	strbvc	r6, [ip, #-878]!	; 0x36e
     188:	2f006564 	svccs	0x00006564
     18c:	72657355 	rsbvc	r7, r5, #1409286145	; 0x54000001
     190:	72622f73 	rsbvc	r2, r2, #460	; 0x1cc
     194:	6a6e6169 	bvs	1b98740 <__bss_end__+0x1b8e918>
     198:	442f6e75 	strtmi	r6, [pc], #-3701	; 1a0 <_start-0x7e60>
     19c:	746b7365 	strbtvc	r7, [fp], #-869	; 0x365
     1a0:	732f706f 	teqvc	pc, #111	; 0x6f
     1a4:	6f6f6863 	svcvs	0x006f6863
     1a8:	69572f6c 	ldmdbvs	r7, {r2, r3, r5, r6, r8, r9, sl, fp, sp}^
     1ac:	7265746e 	rsbvc	r7, r5, #1845493760	; 0x6e000000
     1b0:	30323931 	eorscc	r3, r2, r1, lsr r9
     1b4:	3153432f 	cmpcc	r3, pc, lsr #6
     1b8:	2f453034 	svccs	0x00453034
     1bc:	34317363 	ldrtcc	r7, [r1], #-867	; 0x363
     1c0:	322d6530 	eorcc	r6, sp, #48, 10	; 0xc000000
     1c4:	6e697730 	mcrvs	7, 3, r7, cr9, cr0, {1}
     1c8:	62696c2f 	rsbvs	r6, r9, #12032	; 0x2f00
     1cc:	00006970 	andeq	r6, r0, r0, ror r9
     1d0:	6e697270 	mcrvs	2, 3, r7, cr9, cr0, {3}
     1d4:	632e6b74 	teqvs	lr, #116, 22	; 0x1d000
     1d8:	00000100 	andeq	r0, r0, r0, lsl #2
     1dc:	61647473 	smcvs	18243	; 0x4743
     1e0:	682e6772 	stmdavs	lr!, {r1, r4, r5, r6, r8, r9, sl, sp, lr}
     1e4:	00000200 	andeq	r0, r0, r0, lsl #4
     1e8:	6975623c 	ldmdbvs	r5!, {r2, r3, r4, r5, r9, sp, lr}^
     1ec:	692d746c 	pushvs	{r2, r3, r5, r6, sl, ip, sp, lr}
     1f0:	00003e6e 	andeq	r3, r0, lr, ror #28
     1f4:	70720000 	rsbsvc	r0, r2, r0
     1f8:	00682e69 	rsbeq	r2, r8, r9, ror #28
     1fc:	76000003 	strvc	r0, [r0], -r3
     200:	72702d61 	rsbsvc	r2, r0, #6208	; 0x1840
     204:	6b746e69 	blvs	1d1bbb0 <__bss_end__+0x1d11d88>
     208:	0100682e 	tsteq	r0, lr, lsr #16
     20c:	00000000 	andeq	r0, r0, r0
     210:	810c0205 	tsthi	ip, r5, lsl #4
     214:	6b170000 	blvs	5c021c <__bss_end__+0x5b63f4>
     218:	0289bf4b 	addeq	fp, r9, #300	; 0x12c
     21c:	0101000e 	tsteq	r1, lr
     220:	00000096 	muleq	r0, r6, r0
     224:	006f0002 	rsbeq	r0, pc, r2
     228:	01020000 	mrseq	r0, (UNDEF: 2)
     22c:	000d0efb 	strdeq	r0, [sp], -fp
     230:	01010101 	tsteq	r1, r1, lsl #2
     234:	01000000 	mrseq	r0, (UNDEF: 0)
     238:	6c010000 	stcvs	0, cr0, [r1], {-0}
     23c:	00636269 	rsbeq	r6, r3, r9, ror #4
     240:	6573552f 	ldrbvs	r5, [r3, #-1327]!	; 0x52f
     244:	622f7372 	eorvs	r7, pc, #-939524095	; 0xc8000001
     248:	6e616972 	mcrvs	9, 3, r6, cr1, cr2, {3}
     24c:	2f6e756a 	svccs	0x006e756a
     250:	6b736544 	blvs	1cd9768 <__bss_end__+0x1ccf940>
     254:	2f706f74 	svccs	0x00706f74
     258:	6f686373 	svcvs	0x00686373
     25c:	572f6c6f 	strpl	r6, [pc, -pc, ror #24]!
     260:	65746e69 	ldrbvs	r6, [r4, #-3689]!	; 0xe69
     264:	32393172 	eorscc	r3, r9, #-2147483620	; 0x8000001c
     268:	53432f30 	movtpl	r2, #16176	; 0x3f30
     26c:	45303431 	ldrmi	r3, [r0, #-1073]!	; 0x431
     270:	3173632f 	cmncc	r3, pc, lsr #6
     274:	2d653034 	stclcs	0, cr3, [r5, #-208]!	; 0xffffff30
     278:	69773032 	ldmdbvs	r7!, {r1, r4, r5, ip, sp}^
     27c:	696c2f6e 	stmdbvs	ip!, {r1, r2, r3, r5, r6, r8, r9, sl, fp, sp}^
     280:	00697062 	rsbeq	r7, r9, r2, rrx
     284:	74757000 	ldrbtvc	r7, [r5], #-0
     288:	00632e6b 	rsbeq	r2, r3, fp, ror #28
     28c:	72000001 	andvc	r0, r0, #1
     290:	682e6970 	stmdavs	lr!, {r4, r5, r6, r8, fp, sp, lr}
     294:	00000200 	andeq	r0, r0, r0, lsl #4
     298:	02050000 	andeq	r0, r5, #0
     29c:	00008164 	andeq	r8, r0, r4, ror #2
     2a0:	002d4c15 	eoreq	r4, sp, r5, lsl ip
     2a4:	2f020402 	svccs	0x00020402
     2a8:	02040200 	andeq	r0, r4, #0, 4
     2ac:	04020049 	streq	r0, [r2], #-73	; 0x49
     2b0:	062e0601 	strteq	r0, [lr], -r1, lsl #12
     2b4:	0006026b 	andeq	r0, r6, fp, ror #4
     2b8:	01e20101 	mvneq	r0, r1, lsl #2
     2bc:	00020000 	andeq	r0, r2, r0
     2c0:	000000df 	ldrdeq	r0, [r0], -pc	; <UNPREDICTABLE>
     2c4:	0efb0102 	cdpeq	1, 15, cr0, cr11, cr2, {0}
     2c8:	0101000d 	tsteq	r1, sp
     2cc:	00000101 	andeq	r0, r0, r1, lsl #2
     2d0:	00000100 	andeq	r0, r0, r0, lsl #2
     2d4:	62696c01 	rsbvs	r6, r9, #256	; 0x100
     2d8:	752f0063 	strvc	r0, [pc, #-99]!	; 27d <_start-0x7d83>
     2dc:	6c2f7273 	sfmvs	f7, 4, [pc], #-460	; 118 <_start-0x7ee8>
     2e0:	6c61636f 	stclvs	3, cr6, [r1], #-444	; 0xfffffe44
     2e4:	6c65432f 	stclvs	3, cr4, [r5], #-188	; 0xffffff44
     2e8:	2f72616c 	svccs	0x0072616c
     2ec:	2d6d7261 	sfmcs	f7, 2, [sp, #-388]!	; 0xfffffe7c
     2f0:	656e6f6e 	strbvs	r6, [lr, #-3950]!	; 0xf6e
     2f4:	6261652d 	rsbvs	r6, r1, #188743680	; 0xb400000
     2f8:	2e342f69 	cdpcs	15, 3, cr2, cr4, cr9, {3}
     2fc:	2d332e38 	ldccs	14, cr2, [r3, #-224]!	; 0xffffff20
     300:	37317363 	ldrcc	r7, [r1, -r3, ror #6]!
     304:	6c2f6530 	cfstr32vs	mvfx6, [pc], #-192	; 24c <_start-0x7db4>
     308:	672f6269 	strvs	r6, [pc, -r9, ror #4]!
     30c:	612f6363 	teqvs	pc, r3, ror #6
     310:	6e2d6d72 	mcrvs	13, 1, r6, cr13, cr2, {3}
     314:	2d656e6f 	stclcs	14, cr6, [r5, #-444]!	; 0xfffffe44
     318:	69626165 	stmdbvs	r2!, {r0, r2, r5, r6, r8, sp, lr}^
     31c:	382e342f 	stmdacc	lr!, {r0, r1, r2, r3, r5, sl, ip, sp}
     320:	692f332e 	stmdbvs	pc!, {r1, r2, r3, r5, r8, r9, ip, sp}	; <UNPREDICTABLE>
     324:	756c636e 	strbvc	r6, [ip, #-878]!	; 0x36e
     328:	2f006564 	svccs	0x00006564
     32c:	72657355 	rsbvc	r7, r5, #1409286145	; 0x54000001
     330:	72622f73 	rsbvc	r2, r2, #460	; 0x1cc
     334:	6a6e6169 	bvs	1b988e0 <__bss_end__+0x1b8eab8>
     338:	442f6e75 	strtmi	r6, [pc], #-3701	; 340 <_start-0x7cc0>
     33c:	746b7365 	strbtvc	r7, [fp], #-869	; 0x365
     340:	732f706f 	teqvc	pc, #111	; 0x6f
     344:	6f6f6863 	svcvs	0x006f6863
     348:	69572f6c 	ldmdbvs	r7, {r2, r3, r5, r6, r8, r9, sl, fp, sp}^
     34c:	7265746e 	rsbvc	r7, r5, #1845493760	; 0x6e000000
     350:	30323931 	eorscc	r3, r2, r1, lsr r9
     354:	3153432f 	cmpcc	r3, pc, lsr #6
     358:	2f453034 	svccs	0x00453034
     35c:	34317363 	ldrtcc	r7, [r1], #-867	; 0x363
     360:	322d6530 	eorcc	r6, sp, #48, 10	; 0xc000000
     364:	6e697730 	mcrvs	7, 3, r7, cr9, cr0, {1}
     368:	62696c2f 	rsbvs	r6, r9, #12032	; 0x2f00
     36c:	00006970 	andeq	r6, r0, r0, ror r9
     370:	702d6176 	eorvc	r6, sp, r6, ror r1
     374:	746e6972 	strbtvc	r6, [lr], #-2418	; 0x972
     378:	00632e6b 	rsbeq	r2, r3, fp, ror #28
     37c:	73000001 	movwvc	r0, #1
     380:	72616474 	rsbvc	r6, r1, #116, 8	; 0x74000000
     384:	00682e67 	rsbeq	r2, r8, r7, ror #28
     388:	72000002 	andvc	r0, r0, #2
     38c:	682e6970 	stmdavs	lr!, {r4, r5, r6, r8, fp, sp, lr}
     390:	00000300 	andeq	r0, r0, r0, lsl #6
     394:	6975623c 	ldmdbvs	r5!, {r2, r3, r4, r5, r9, sp, lr}^
     398:	692d746c 	pushvs	{r2, r3, r5, r6, sl, ip, sp, lr}
     39c:	00003e6e 	andeq	r3, r0, lr, ror #28
     3a0:	00000000 	andeq	r0, r0, r0
     3a4:	81980205 	orrshi	r0, r8, r5, lsl #4
     3a8:	26030000 	strcs	r0, [r3], -r0
     3ac:	13a50101 			; <UNDEFINED> instruction: 0x13a50101
     3b0:	02002d31 	andeq	r2, r0, #3136	; 0xc40
     3b4:	002f0204 	eoreq	r0, pc, r4, lsl #4
     3b8:	2d020402 	cfstrscs	mvf0, [r2, #-8]
     3bc:	02040200 	andeq	r0, r4, #0, 4
     3c0:	0402002f 	streq	r0, [r2], #-47	; 0x2f
     3c4:	4c4c2d01 	mcrrmi	13, 0, r2, ip, cr1
     3c8:	2f4b1430 	svccs	0x004b1430
     3cc:	0402004f 	streq	r0, [r2], #-79	; 0x4f
     3d0:	02006702 	andeq	r6, r0, #524288	; 0x80000
     3d4:	4c650104 	stfmie	f0, [r5], #-16
     3d8:	2fa0304d 	svccs	0x00a0304d
     3dc:	26023031 			; <UNDEFINED> instruction: 0x26023031
     3e0:	2c2d8416 	cfstrscs	mvf8, [sp], #-88	; 0xffffffa8
     3e4:	01040200 	mrseq	r0, R12_usr
     3e8:	04020030 	streq	r0, [r2], #-48	; 0x30
     3ec:	66063301 	strvs	r3, [r6], -r1, lsl #6
     3f0:	01040200 	mrseq	r0, R12_usr
     3f4:	0402002e 	streq	r0, [r2], #-46	; 0x2e
     3f8:	21080601 	tstcs	r8, r1, lsl #12
     3fc:	73032f67 	movwvc	r2, #16231	; 0x3f67
     400:	2e130382 	cdpcs	3, 1, cr0, cr3, cr2, {4}
     404:	01040200 	mrseq	r0, R12_usr
     408:	02002e06 	andeq	r2, r0, #6, 28	; 0x60
     40c:	9f060104 	svcls	0x00060104
     410:	67034b6a 	strvs	r4, [r3, -sl, ror #22]
     414:	2e21032e 	cdpcs	3, 2, cr0, cr1, cr14, {1}
     418:	01040200 	mrseq	r0, R12_usr
     41c:	02002e06 	andeq	r2, r0, #6, 28	; 0x60
     420:	9f060104 	svcls	0x00060104
     424:	01040200 	mrseq	r0, R12_usr
     428:	f323086a 	vsub.i32	q0, <illegal reg q1.5>, q13
     42c:	087fa603 	ldmdaeq	pc!, {r0, r1, r9, sl, sp, pc}^	; <UNPREDICTABLE>
     430:	02004b3c 	andeq	r4, r0, #60, 22	; 0xf000
     434:	4a060104 	bmi	18084c <__bss_end__+0x176a24>
     438:	4b210806 	blmi	842458 <__bss_end__+0x838630>
     43c:	d9034b2f 	stmdble	r3, {r0, r1, r2, r3, r5, r8, r9, fp, lr}
     440:	4c83f200 	sfmmi	f7, 1, [r3], {0}
     444:	2e0e0348 	cdpcs	3, 0, cr0, cr14, cr8, {2}
     448:	2f2e7503 	svccs	0x002e7503
     44c:	2f4b842f 	svccs	0x004b842f
     450:	30314d2d 	eorscc	r4, r1, sp, lsr #26
     454:	0200832f 	andeq	r8, r0, #-1140850688	; 0xbc000000
     458:	a22c0104 	eorge	r0, ip, #4, 2
     45c:	01040200 	mrseq	r0, R12_usr
     460:	08064a06 	stmdaeq	r6, {r1, r2, r9, fp, lr}
     464:	16360222 	ldrtne	r0, [r6], -r2, lsr #4
     468:	08d60e03 	ldmeq	r6, {r0, r1, r9, sl, fp}^
     46c:	31f33021 	mvnscc	r3, r1, lsr #32
     470:	30f330f3 	ldrshtcc	r3, [r3], #3
     474:	30f3304b 	rscscc	r3, r3, fp, asr #32
     478:	2f312308 	svccs	0x00312308
     47c:	01040200 	mrseq	r0, R12_usr
     480:	04020065 	streq	r0, [r2], #-101	; 0x65
     484:	004a0602 	subeq	r0, sl, r2, lsl #12
     488:	06010402 	streq	r0, [r1], -r2, lsl #8
     48c:	00664203 	rsbeq	r4, r6, r3, lsl #4
     490:	06020402 	streq	r0, [r2], -r2, lsl #8
     494:	c2030666 	andgt	r0, r3, #106954752	; 0x6600000
     498:	02684a00 	rsbeq	r4, r8, #0, 20
     49c:	01010012 	tsteq	r1, r2, lsl r0
     4a0:	00000043 	andeq	r0, r0, r3, asr #32
     4a4:	00290002 	eoreq	r0, r9, r2
     4a8:	01020000 	mrseq	r0, (UNDEF: 2)
     4ac:	000d0efb 	strdeq	r0, [sp], -fp
     4b0:	01010101 	tsteq	r1, r1, lsl #2
     4b4:	01000000 	mrseq	r0, (UNDEF: 0)
     4b8:	63010000 	movwvs	r0, #4096	; 0x1000
     4bc:	30343173 	eorscc	r3, r4, r3, ror r1
     4c0:	72732d65 	rsbsvc	r2, r3, #6464	; 0x1940
     4c4:	63000063 	movwvs	r0, #99	; 0x63
     4c8:	65686361 	strbvs	r6, [r8, #-865]!	; 0x361
     4cc:	0100632e 	tsteq	r0, lr, lsr #6
     4d0:	00000000 	andeq	r0, r0, r0
     4d4:	86bc0205 	ldrthi	r0, [ip], r5, lsl #4
     4d8:	14140000 	ldrne	r0, [r4], #-0
     4dc:	144e2f30 	strbne	r2, [lr], #-3888	; 0xf30
     4e0:	04022f31 	streq	r2, [r2], #-3889	; 0xf31
     4e4:	93010100 	movwls	r0, #4352	; 0x1100
     4e8:	02000000 	andeq	r0, r0, #0
     4ec:	00007d00 	andeq	r7, r0, r0, lsl #26
     4f0:	fb010200 	blx	40cfa <__bss_end__+0x36ed2>
     4f4:	01000d0e 	tsteq	r0, lr, lsl #26
     4f8:	00010101 	andeq	r0, r1, r1, lsl #2
     4fc:	00010000 	andeq	r0, r1, r0
     500:	73630100 	cmnvc	r3, #0, 2
     504:	65303431 	ldrvs	r3, [r0, #-1073]!	; 0x431
     508:	6372732d 	cmnvs	r2, #-1275068416	; 0xb4000000
     50c:	73552f00 	cmpvc	r5, #0, 30
     510:	2f737265 	svccs	0x00737265
     514:	61697262 	cmnvs	r9, r2, ror #4
     518:	6e756a6e 	vsubvs.f32	s13, s10, s29
     51c:	7365442f 	cmnvc	r5, #788529152	; 0x2f000000
     520:	706f746b 	rsbvc	r7, pc, fp, ror #8
     524:	6863732f 	stmdavs	r3!, {r0, r1, r2, r3, r5, r8, r9, ip, sp, lr}^
     528:	2f6c6f6f 	svccs	0x006c6f6f
     52c:	746e6957 	strbtvc	r6, [lr], #-2391	; 0x957
     530:	39317265 	ldmdbcc	r1!, {r0, r2, r5, r6, r9, ip, sp, lr}
     534:	432f3032 	teqmi	pc, #50	; 0x32
     538:	30343153 	eorscc	r3, r4, r3, asr r1
     53c:	73632f45 	cmnvc	r3, #276	; 0x114
     540:	65303431 	ldrvs	r3, [r0, #-1073]!	; 0x431
     544:	7730322d 	ldrvc	r3, [r0, -sp, lsr #4]!
     548:	6c2f6e69 	stcvs	14, cr6, [pc], #-420	; 3ac <_start-0x7c54>
     54c:	69706269 	ldmdbvs	r0!, {r0, r3, r5, r6, r9, sp, lr}^
     550:	6c630000 	stclvs	0, cr0, [r3], #-0
     554:	2d6e6165 	stfcse	f6, [lr, #-404]!	; 0xfffffe6c
     558:	6f626572 	svcvs	0x00626572
     55c:	632e746f 	teqvs	lr, #1862270976	; 0x6f000000
     560:	00000100 	andeq	r0, r0, r0, lsl #2
     564:	2e697072 	mcrcs	0, 3, r7, cr9, cr2, {3}
     568:	00020068 	andeq	r0, r2, r8, rrx
     56c:	05000000 	streq	r0, [r0, #-0]
     570:	0086dc02 	addeq	sp, r6, r2, lsl #24
     574:	832f1500 	teqhi	pc, #0, 10
     578:	0006024b 	andeq	r0, r6, fp, asr #4
     57c:	01210101 	teqeq	r1, r1, lsl #2
     580:	00020000 	andeq	r0, r2, r0
     584:	000000f8 	strdeq	r0, [r0], -r8
     588:	0efb0102 	cdpeq	1, 15, cr0, cr11, cr2, {0}
     58c:	0101000d 	tsteq	r1, sp
     590:	00000101 	andeq	r0, r0, r1, lsl #2
     594:	00000100 	andeq	r0, r0, r0, lsl #2
     598:	31736301 	cmncc	r3, r1, lsl #6
     59c:	2d653034 	stclcs	0, cr3, [r5, #-208]!	; 0xffffff30
     5a0:	00637273 	rsbeq	r7, r3, r3, ror r2
     5a4:	7273752f 	rsbsvc	r7, r3, #197132288	; 0xbc00000
     5a8:	636f6c2f 	cmnvs	pc, #12032	; 0x2f00
     5ac:	432f6c61 	teqmi	pc, #24832	; 0x6100
     5b0:	616c6c65 	cmnvs	ip, r5, ror #24
     5b4:	72612f72 	rsbvc	r2, r1, #456	; 0x1c8
     5b8:	6f6e2d6d 	svcvs	0x006e2d6d
     5bc:	652d656e 	strvs	r6, [sp, #-1390]!	; 0x56e
     5c0:	2f696261 	svccs	0x00696261
     5c4:	2e382e34 	mrccs	14, 1, r2, cr8, cr4, {1}
     5c8:	73632d33 	cmnvc	r3, #3264	; 0xcc0
     5cc:	65303731 	ldrvs	r3, [r0, #-1841]!	; 0x731
     5d0:	62696c2f 	rsbvs	r6, r9, #12032	; 0x2f00
     5d4:	6363672f 	cmnvs	r3, #12320768	; 0xbc0000
     5d8:	6d72612f 	ldfvse	f6, [r2, #-188]!	; 0xffffff44
     5dc:	6e6f6e2d 	cdpvs	14, 6, cr6, cr15, cr13, {1}
     5e0:	61652d65 	cmnvs	r5, r5, ror #26
     5e4:	342f6962 	strtcc	r6, [pc], #-2402	; 5ec <_start-0x7a14>
     5e8:	332e382e 	teqcc	lr, #3014656	; 0x2e0000
     5ec:	636e692f 	cmnvs	lr, #770048	; 0xbc000
     5f0:	6564756c 	strbvs	r7, [r4, #-1388]!	; 0x56c
     5f4:	73552f00 	cmpvc	r5, #0, 30
     5f8:	2f737265 	svccs	0x00737265
     5fc:	61697262 	cmnvs	r9, r2, ror #4
     600:	6e756a6e 	vsubvs.f32	s13, s10, s29
     604:	7365442f 	cmnvc	r5, #788529152	; 0x2f000000
     608:	706f746b 	rsbvc	r7, pc, fp, ror #8
     60c:	6863732f 	stmdavs	r3!, {r0, r1, r2, r3, r5, r8, r9, ip, sp, lr}^
     610:	2f6c6f6f 	svccs	0x006c6f6f
     614:	746e6957 	strbtvc	r6, [lr], #-2391	; 0x957
     618:	39317265 	ldmdbcc	r1!, {r0, r2, r5, r6, r9, ip, sp, lr}
     61c:	432f3032 	teqmi	pc, #50	; 0x32
     620:	30343153 	eorscc	r3, r4, r3, asr r1
     624:	73632f45 	cmnvc	r3, #276	; 0x114
     628:	65303431 	ldrvs	r3, [r0, #-1073]!	; 0x431
     62c:	7730322d 	ldrvc	r3, [r0, -sp, lsr #4]!
     630:	6c2f6e69 	stcvs	14, cr6, [pc], #-420	; 494 <_start-0x7b6c>
     634:	69706269 	ldmdbvs	r0!, {r0, r3, r5, r6, r9, sp, lr}^
     638:	73630000 	cmnvc	r3, #0
     63c:	74726174 	ldrbtvc	r6, [r2], #-372	; 0x174
     640:	0100632e 	tsteq	r0, lr, lsr #6
     644:	74730000 	ldrbtvc	r0, [r3], #-0
     648:	746e6964 	strbtvc	r6, [lr], #-2404	; 0x964
     64c:	6363672d 	cmnvs	r3, #11796480	; 0xb40000
     650:	0200682e 	andeq	r6, r0, #3014656	; 0x2e0000
     654:	77730000 	ldrbvc	r0, [r3, -r0]!
     658:	7261752d 	rsbvc	r7, r1, #188743680	; 0xb400000
     65c:	00682e74 	rsbeq	r2, r8, r4, ror lr
     660:	63000001 	movwvs	r0, #1
     664:	72746e6f 	rsbsvc	r6, r4, #1776	; 0x6f0
     668:	622d6c6f 	eorvs	r6, sp, #28416	; 0x6f00
     66c:	6b636f6c 	blvs	18dc424 <__bss_end__+0x18d25fc>
     670:	0100682e 	tsteq	r0, lr, lsr #16
     674:	70720000 	rsbsvc	r0, r2, r0
     678:	00682e69 	rsbeq	r2, r8, r9, ror #28
     67c:	00000003 	andeq	r0, r0, r3
     680:	04020500 	streq	r0, [r2], #-1280	; 0x500
     684:	17000087 	strne	r0, [r0, -r7, lsl #1]
     688:	3268684b 	rsbcc	r6, r8, #4915200	; 0x4b0000
     68c:	2f2d2f31 	svccs	0x002d2f31
     690:	01040200 	mrseq	r0, R12_usr
     694:	4b2f4f49 	blmi	bd43c0 <__bss_end__+0xbca598>
     698:	67836767 	strvs	r6, [r3, r7, ror #14]
     69c:	10022f4e 	andne	r2, r2, lr, asr #30
     6a0:	99010100 	stmdbls	r1, {r8}
     6a4:	02000000 	andeq	r0, r0, #0
     6a8:	00007700 	andeq	r7, r0, r0, lsl #14
     6ac:	fb010200 	blx	40eb6 <__bss_end__+0x3708e>
     6b0:	01000d0e 	tsteq	r0, lr, lsl #26
     6b4:	00010101 	andeq	r0, r1, r1, lsl #2
     6b8:	00010000 	andeq	r0, r1, r0
     6bc:	73630100 	cmnvc	r3, #0, 2
     6c0:	65303431 	ldrvs	r3, [r0, #-1073]!	; 0x431
     6c4:	6372732d 	cmnvs	r2, #-1275068416	; 0xb4000000
     6c8:	73552f00 	cmpvc	r5, #0, 30
     6cc:	2f737265 	svccs	0x00737265
     6d0:	61697262 	cmnvs	r9, r2, ror #4
     6d4:	6e756a6e 	vsubvs.f32	s13, s10, s29
     6d8:	7365442f 	cmnvc	r5, #788529152	; 0x2f000000
     6dc:	706f746b 	rsbvc	r7, pc, fp, ror #8
     6e0:	6863732f 	stmdavs	r3!, {r0, r1, r2, r3, r5, r8, r9, ip, sp, lr}^
     6e4:	2f6c6f6f 	svccs	0x006c6f6f
     6e8:	746e6957 	strbtvc	r6, [lr], #-2391	; 0x957
     6ec:	39317265 	ldmdbcc	r1!, {r0, r2, r5, r6, r9, ip, sp, lr}
     6f0:	432f3032 	teqmi	pc, #50	; 0x32
     6f4:	30343153 	eorscc	r3, r4, r3, asr r1
     6f8:	73632f45 	cmnvc	r3, #276	; 0x114
     6fc:	65303431 	ldrvs	r3, [r0, #-1073]!	; 0x431
     700:	7730322d 	ldrvc	r3, [r0, -sp, lsr #4]!
     704:	6c2f6e69 	stcvs	14, cr6, [pc], #-420	; 568 <_start-0x7a98>
     708:	69706269 	ldmdbvs	r0!, {r0, r3, r5, r6, r9, sp, lr}^
     70c:	65720000 	ldrbvs	r0, [r2, #-0]!
     710:	746f6f62 	strbtvc	r6, [pc], #-3938	; 718 <_start-0x78e8>
     714:	0100632e 	tsteq	r0, lr, lsr #6
     718:	70720000 	rsbsvc	r0, r2, r0
     71c:	00682e69 	rsbeq	r2, r8, r9, ror #28
     720:	00000002 	andeq	r0, r0, r2
     724:	b4020500 	strlt	r0, [r2], #-1280	; 0x500
     728:	03000087 	movweq	r0, #135	; 0x87
     72c:	3114010d 	tstcc	r4, sp, lsl #2
     730:	2f15852f 	svccs	0x0015852f
     734:	672f4d4b 	strvs	r4, [pc, -fp, asr #26]!
     738:	02675235 	rsbeq	r5, r7, #1342177283	; 0x50000003
     73c:	01010010 	tsteq	r1, r0, lsl r0
     740:	000000a3 	andeq	r0, r0, r3, lsr #1
     744:	00760002 	rsbseq	r0, r6, r2
     748:	01020000 	mrseq	r0, (UNDEF: 2)
     74c:	000d0efb 	strdeq	r0, [sp], -fp
     750:	01010101 	tsteq	r1, r1, lsl #2
     754:	01000000 	mrseq	r0, (UNDEF: 0)
     758:	63010000 	movwvs	r0, #4096	; 0x1000
     75c:	30343173 	eorscc	r3, r4, r3, ror r1
     760:	72732d65 	rsbsvc	r2, r3, #6464	; 0x1940
     764:	552f0063 	strpl	r0, [pc, #-99]!	; 709 <_start-0x78f7>
     768:	73726573 	cmnvc	r2, #482344960	; 0x1cc00000
     76c:	6972622f 	ldmdbvs	r2!, {r0, r1, r2, r3, r5, r9, sp, lr}^
     770:	756a6e61 	strbvc	r6, [sl, #-3681]!	; 0xe61
     774:	65442f6e 	strbvs	r2, [r4, #-3950]	; 0xf6e
     778:	6f746b73 	svcvs	0x00746b73
     77c:	63732f70 	cmnvs	r3, #112, 30	; 0x1c0
     780:	6c6f6f68 	stclvs	15, cr6, [pc], #-416	; 5e8 <_start-0x7a18>
     784:	6e69572f 	cdpvs	7, 6, cr5, cr9, cr15, {1}
     788:	31726574 	cmncc	r2, r4, ror r5
     78c:	2f303239 	svccs	0x00303239
     790:	34315343 	ldrtcc	r5, [r1], #-835	; 0x343
     794:	632f4530 	teqvs	pc, #48, 10	; 0xc000000
     798:	30343173 	eorscc	r3, r4, r3, ror r1
     79c:	30322d65 	eorscc	r2, r2, r5, ror #26
     7a0:	2f6e6977 	svccs	0x006e6977
     7a4:	7062696c 	rsbvc	r6, r2, ip, ror #18
     7a8:	74000069 	strvc	r0, [r0], #-105	; 0x69
     7ac:	72656d69 	rsbvc	r6, r5, #6720	; 0x1a40
     7b0:	0100632e 	tsteq	r0, lr, lsr #6
     7b4:	70720000 	rsbsvc	r0, r2, r0
     7b8:	00682e69 	rsbeq	r2, r8, r9, ror #28
     7bc:	00000002 	andeq	r0, r0, r2
     7c0:	28020500 	stmdacs	r2, {r8, sl}
     7c4:	16000088 	strne	r0, [r0], -r8, lsl #1
     7c8:	002d2f13 	eoreq	r2, sp, r3, lsl pc
     7cc:	06010402 	streq	r0, [r1], -r2, lsl #8
     7d0:	3168062e 	cmncc	r8, lr, lsr #12
     7d4:	324d4b2f 	subcc	r4, sp, #48128	; 0xbc00
     7d8:	4c4b3031 	mcrrmi	0, 3, r3, fp, cr1
     7dc:	2f2f6a2f 	svccs	0x002f6a2f
     7e0:	08022f84 	stmdaeq	r2, {r2, r7, r8, r9, sl, fp, sp}
     7e4:	7f010100 	svcvc	0x00010100
     7e8:	02000001 	andeq	r0, r0, #1
     7ec:	0000ca00 	andeq	ip, r0, r0, lsl #20
     7f0:	fb010200 	blx	40ffa <__bss_end__+0x371d2>
     7f4:	01000d0e 	tsteq	r0, lr, lsl #26
     7f8:	00010101 	andeq	r0, r1, r1, lsl #2
     7fc:	00010000 	andeq	r0, r1, r0
     800:	796d0100 	stmdbvc	sp!, {r8}^
     804:	6372732d 	cmnvs	r2, #-1275068416	; 0xb4000000
     808:	73552f00 	cmpvc	r5, #0, 30
     80c:	2f737265 	svccs	0x00737265
     810:	61697262 	cmnvs	r9, r2, ror #4
     814:	6e756a6e 	vsubvs.f32	s13, s10, s29
     818:	7365442f 	cmnvc	r5, #788529152	; 0x2f000000
     81c:	706f746b 	rsbvc	r7, pc, fp, ror #8
     820:	6863732f 	stmdavs	r3!, {r0, r1, r2, r3, r5, r8, r9, ip, sp, lr}^
     824:	2f6c6f6f 	svccs	0x006c6f6f
     828:	746e6957 	strbtvc	r6, [lr], #-2391	; 0x957
     82c:	39317265 	ldmdbcc	r1!, {r0, r2, r5, r6, r9, ip, sp, lr}
     830:	432f3032 	teqmi	pc, #50	; 0x32
     834:	30343153 	eorscc	r3, r4, r3, asr r1
     838:	73632f45 	cmnvc	r3, #276	; 0x114
     83c:	65303431 	ldrvs	r3, [r0, #-1073]!	; 0x431
     840:	7730322d 	ldrvc	r3, [r0, -sp, lsr #4]!
     844:	6c2f6e69 	stcvs	14, cr6, [pc], #-420	; 6a8 <_start-0x7958>
     848:	69706269 	ldmdbvs	r0!, {r0, r3, r5, r6, r9, sp, lr}^
     84c:	3173632f 	cmncc	r3, pc, lsr #6
     850:	2d653034 	stclcs	0, cr3, [r5, #-208]!	; 0xffffff30
     854:	00637273 	rsbeq	r7, r3, r3, ror r2
     858:	6573552f 	ldrbvs	r5, [r3, #-1327]!	; 0x52f
     85c:	622f7372 	eorvs	r7, pc, #-939524095	; 0xc8000001
     860:	6e616972 	mcrvs	9, 3, r6, cr1, cr2, {3}
     864:	2f6e756a 	svccs	0x006e756a
     868:	6b736544 	blvs	1cd9d80 <__bss_end__+0x1ccff58>
     86c:	2f706f74 	svccs	0x00706f74
     870:	6f686373 	svcvs	0x00686373
     874:	572f6c6f 	strpl	r6, [pc, -pc, ror #24]!
     878:	65746e69 	ldrbvs	r6, [r4, #-3689]!	; 0xe69
     87c:	32393172 	eorscc	r3, r9, #-2147483620	; 0x8000001c
     880:	53432f30 	movtpl	r2, #16176	; 0x3f30
     884:	45303431 	ldrmi	r3, [r0, #-1073]!	; 0x431
     888:	3173632f 	cmncc	r3, pc, lsr #6
     88c:	2d653034 	stclcs	0, cr3, [r5, #-208]!	; 0xffffff30
     890:	69773032 	ldmdbvs	r7!, {r1, r4, r5, ip, sp}^
     894:	696c2f6e 	stmdbvs	ip!, {r1, r2, r3, r5, r6, r8, r9, sl, fp, sp}^
     898:	00697062 	rsbeq	r7, r9, r2, rrx
     89c:	69706700 	ldmdbvs	r0!, {r8, r9, sl, sp, lr}^
     8a0:	00632e6f 	rsbeq	r2, r3, pc, ror #28
     8a4:	67000001 	strvs	r0, [r0, -r1]
     8a8:	2e6f6970 	mcrcs	9, 3, r6, cr15, cr0, {3}
     8ac:	00020068 	andeq	r0, r2, r8, rrx
     8b0:	69707200 	ldmdbvs	r0!, {r9, ip, sp, lr}^
     8b4:	0300682e 	movweq	r6, #2094	; 0x82e
     8b8:	00000000 	andeq	r0, r0, r0
     8bc:	88b00205 	ldmhi	r0!, {r0, r2, r9}
     8c0:	3e030000 	cdpcc	0, 0, cr0, cr3, cr0, {0}
     8c4:	69504e01 	ldmdbvs	r0, {r0, r9, sl, fp, lr}^
     8c8:	67672108 	strbvs	r2, [r7, -r8, lsl #2]!
     8cc:	67676767 	strbvs	r6, [r7, -r7, ror #14]!
     8d0:	22084b32 	andcs	r4, r8, #51200	; 0xc800
     8d4:	135131dc 	cmpne	r1, #220, 2	; 0x37
     8d8:	be30504e 	cdplt	0, 3, cr5, cr0, cr14, {2}
     8dc:	4d135031 	ldcmi	0, cr5, [r3, #-196]	; 0xffffff3c
     8e0:	4cc0304f 	stclmi	0, cr3, [r0], {79}	; 0x4f
     8e4:	21086950 	tstcs	r8, r0, asr r9
     8e8:	67676767 	strbvs	r6, [r7, -r7, ror #14]!
     8ec:	4b326767 	blmi	c9a690 <__bss_end__+0xc90868>
     8f0:	4ca42108 	stfmis	f2, [r4], #32
     8f4:	69842f50 	stmibvs	r4, {r4, r6, r8, r9, sl, fp, sp}
     8f8:	03827503 	orreq	r7, r2, #12582912	; 0xc00000
     8fc:	304d2e0c 	subcc	r2, sp, ip, lsl #28
     900:	4d4c4b4e 	vstrmi	d20, [ip, #-312]	; 0xfffffec8
     904:	08696b6a 	stmdaeq	r9!, {r1, r3, r5, r6, r8, r9, fp, sp, lr}^
     908:	67676721 	strbvs	r6, [r7, -r1, lsr #14]!
     90c:	32676767 	rsbcc	r6, r7, #27000832	; 0x19c0000
     910:	c022084b 	eorgt	r0, r2, fp, asr #16
     914:	4e135130 	mrcmi	1, 0, r5, cr3, cr0, {1}
     918:	18033050 	stmdane	r3, {r4, r6, ip, sp}
     91c:	4c9f31ba 	ldfmis	f3, [pc], {186}	; 0xba
     920:	4e4d522f 	cdpmi	2, 4, cr5, cr13, cr15, {1}
     924:	4b674b2f 	blmi	19d35e8 <__bss_end__+0x19c97c0>
     928:	4c676768 	stclmi	7, cr6, [r7], #-416	; 0xfffffe60
     92c:	4b2f672f 	blmi	bda5f0 <__bss_end__+0xbd07c8>
     930:	2f4e4c6e 	svccs	0x004e4c6e
     934:	684b674b 	stmdavs	fp, {r0, r1, r3, r6, r8, r9, sl, sp, lr}^
     938:	2f4c6767 	svccs	0x004c6767
     93c:	6d4b2f67 	stclvs	15, cr2, [fp, #-412]	; 0xfffffe64
     940:	4b2f4e4b 	blmi	bd4274 <__bss_end__+0xbca44c>
     944:	04020067 	streq	r0, [r2], #-103	; 0x67
     948:	06660601 	strbteq	r0, [r6], -r1, lsl #12
     94c:	002f9f68 	eoreq	r9, pc, r8, ror #30
     950:	06010402 	streq	r0, [r1], -r2, lsl #8
     954:	2f68064a 	svccs	0x0068064a
     958:	034a7303 	movteq	r7, #41731	; 0xa303
     95c:	4c4d2e0e 	mcrrmi	14, 0, r2, sp, cr14
     960:	bc4b2f4e 	mcrrlt	15, 4, r2, fp, cr14
     964:	000602bc 			; <UNDEFINED> instruction: 0x000602bc
     968:	03490101 	movteq	r0, #37121	; 0x9101
     96c:	00020000 	andeq	r0, r2, r0
     970:	000001bd 			; <UNDEFINED> instruction: 0x000001bd
     974:	0efb0102 	cdpeq	1, 15, cr0, cr11, cr2, {0}
     978:	0101000d 	tsteq	r1, sp
     97c:	00000101 	andeq	r0, r0, r1, lsl #2
     980:	00000100 	andeq	r0, r0, r0, lsl #2
     984:	2d796d01 	ldclcs	13, cr6, [r9, #-4]!
     988:	00637273 	rsbeq	r7, r3, r3, ror r2
     98c:	6573552f 	ldrbvs	r5, [r3, #-1327]!	; 0x52f
     990:	622f7372 	eorvs	r7, pc, #-939524095	; 0xc8000001
     994:	6e616972 	mcrvs	9, 3, r6, cr1, cr2, {3}
     998:	2f6e756a 	svccs	0x006e756a
     99c:	6b736544 	blvs	1cd9eb4 <__bss_end__+0x1cd008c>
     9a0:	2f706f74 	svccs	0x00706f74
     9a4:	6f686373 	svcvs	0x00686373
     9a8:	572f6c6f 	strpl	r6, [pc, -pc, ror #24]!
     9ac:	65746e69 	ldrbvs	r6, [r4, #-3689]!	; 0xe69
     9b0:	32393172 	eorscc	r3, r9, #-2147483620	; 0x8000001c
     9b4:	53432f30 	movtpl	r2, #16176	; 0x3f30
     9b8:	45303431 	ldrmi	r3, [r0, #-1073]!	; 0x431
     9bc:	3173632f 	cmncc	r3, pc, lsr #6
     9c0:	2d653034 	stclcs	0, cr3, [r5, #-208]!	; 0xffffff30
     9c4:	69773032 	ldmdbvs	r7!, {r1, r4, r5, ip, sp}^
     9c8:	696c2f6e 	stmdbvs	ip!, {r1, r2, r3, r5, r6, r8, r9, sl, fp, sp}^
     9cc:	2f697062 	svccs	0x00697062
     9d0:	34317363 	ldrtcc	r7, [r1], #-867	; 0x363
     9d4:	732d6530 	teqvc	sp, #48, 10	; 0xc000000
     9d8:	2f006372 	svccs	0x00006372
     9dc:	2f727375 	svccs	0x00727375
     9e0:	61636f6c 	cmnvs	r3, ip, ror #30
     9e4:	65432f6c 	strbvs	r2, [r3, #-3948]	; 0xf6c
     9e8:	72616c6c 	rsbvc	r6, r1, #108, 24	; 0x6c00
     9ec:	6d72612f 	ldfvse	f6, [r2, #-188]!	; 0xffffff44
     9f0:	6e6f6e2d 	cdpvs	14, 6, cr6, cr15, cr13, {1}
     9f4:	61652d65 	cmnvs	r5, r5, ror #26
     9f8:	342f6962 	strtcc	r6, [pc], #-2402	; a00 <_start-0x7600>
     9fc:	332e382e 	teqcc	lr, #3014656	; 0x2e0000
     a00:	3173632d 	cmncc	r3, sp, lsr #6
     a04:	2f653037 	svccs	0x00653037
     a08:	2f62696c 	svccs	0x0062696c
     a0c:	2f636367 	svccs	0x00636367
     a10:	2d6d7261 	sfmcs	f7, 2, [sp, #-388]!	; 0xfffffe7c
     a14:	656e6f6e 	strbvs	r6, [lr, #-3950]!	; 0xf6e
     a18:	6261652d 	rsbvs	r6, r1, #188743680	; 0xb400000
     a1c:	2e342f69 	cdpcs	15, 3, cr2, cr4, cr9, {3}
     a20:	2f332e38 	svccs	0x00332e38
     a24:	6c636e69 	stclvs	14, cr6, [r3], #-420	; 0xfffffe5c
     a28:	00656475 	rsbeq	r6, r5, r5, ror r4
     a2c:	6573552f 	ldrbvs	r5, [r3, #-1327]!	; 0x52f
     a30:	622f7372 	eorvs	r7, pc, #-939524095	; 0xc8000001
     a34:	6e616972 	mcrvs	9, 3, r6, cr1, cr2, {3}
     a38:	2f6e756a 	svccs	0x006e756a
     a3c:	6b736544 	blvs	1cd9f54 <__bss_end__+0x1cd012c>
     a40:	2f706f74 	svccs	0x00706f74
     a44:	6f686373 	svcvs	0x00686373
     a48:	572f6c6f 	strpl	r6, [pc, -pc, ror #24]!
     a4c:	65746e69 	ldrbvs	r6, [r4, #-3689]!	; 0xe69
     a50:	32393172 	eorscc	r3, r9, #-2147483620	; 0x8000001c
     a54:	53432f30 	movtpl	r2, #16176	; 0x3f30
     a58:	45303431 	ldrmi	r3, [r0, #-1073]!	; 0x431
     a5c:	3173632f 	cmncc	r3, pc, lsr #6
     a60:	2d653034 	stclcs	0, cr3, [r5, #-208]!	; 0xffffff30
     a64:	69773032 	ldmdbvs	r7!, {r1, r4, r5, ip, sp}^
     a68:	696c2f6e 	stmdbvs	ip!, {r1, r2, r3, r5, r6, r8, r9, sl, fp, sp}^
     a6c:	00697062 	rsbeq	r7, r9, r2, rrx
     a70:	6573552f 	ldrbvs	r5, [r3, #-1327]!	; 0x52f
     a74:	622f7372 	eorvs	r7, pc, #-939524095	; 0xc8000001
     a78:	6e616972 	mcrvs	9, 3, r6, cr1, cr2, {3}
     a7c:	2f6e756a 	svccs	0x006e756a
     a80:	6b736544 	blvs	1cd9f98 <__bss_end__+0x1cd0170>
     a84:	2f706f74 	svccs	0x00706f74
     a88:	6f686373 	svcvs	0x00686373
     a8c:	572f6c6f 	strpl	r6, [pc, -pc, ror #24]!
     a90:	65746e69 	ldrbvs	r6, [r4, #-3689]!	; 0xe69
     a94:	32393172 	eorscc	r3, r9, #-2147483620	; 0x8000001c
     a98:	53432f30 	movtpl	r2, #16176	; 0x3f30
     a9c:	45303431 	ldrmi	r3, [r0, #-1073]!	; 0x431
     aa0:	3173632f 	cmncc	r3, pc, lsr #6
     aa4:	2d653034 	stclcs	0, cr3, [r5, #-208]!	; 0xffffff30
     aa8:	69773032 	ldmdbvs	r7!, {r1, r4, r5, ip, sp}^
     aac:	696c2f6e 	stmdbvs	ip!, {r1, r2, r3, r5, r6, r8, r9, sl, fp, sp}^
     ab0:	2f697062 	svccs	0x00697062
     ab4:	6362696c 	cmnvs	r2, #108, 18	; 0x1b0000
     ab8:	77730000 	ldrbvc	r0, [r3, -r0]!
     abc:	7261752d 	rsbvc	r7, r1, #188743680	; 0xb400000
     ac0:	00632e74 	rsbeq	r2, r3, r4, ror lr
     ac4:	63000001 	movwvs	r0, #1
     ac8:	656c6379 	strbvs	r6, [ip, #-889]!	; 0x379
     acc:	6974752d 	ldmdbvs	r4!, {r0, r2, r3, r5, r8, sl, ip, sp, lr}^
     ad0:	00682e6c 	rsbeq	r2, r8, ip, ror #28
     ad4:	73000002 	movwvc	r0, #2
     ad8:	6e696474 	mcrvs	4, 3, r6, cr9, cr4, {3}
     adc:	63672d74 	cmnvs	r7, #116, 26	; 0x1d00
     ae0:	00682e63 	rsbeq	r2, r8, r3, ror #28
     ae4:	73000003 	movwvc	r0, #3
     ae8:	61752d77 	cmnvs	r5, r7, ror sp
     aec:	682e7472 	stmdavs	lr!, {r1, r4, r5, r6, sl, ip, sp, lr}
     af0:	00000200 	andeq	r0, r0, r0, lsl #4
     af4:	61647473 	smcvs	18243	; 0x4743
     af8:	682e6772 	stmdavs	lr!, {r1, r4, r5, r6, r8, r9, sl, sp, lr}
     afc:	00000300 	andeq	r0, r0, r0, lsl #6
     b00:	6f697067 	svcvs	0x00697067
     b04:	0200682e 	andeq	r6, r0, #3014656	; 0x2e0000
     b08:	70720000 	rsbsvc	r0, r2, r0
     b0c:	00682e69 	rsbeq	r2, r8, r9, ror #28
     b10:	76000004 	strvc	r0, [r0], -r4
     b14:	72702d61 	rsbsvc	r2, r0, #6208	; 0x1840
     b18:	6b746e69 	blvs	1d1c4c4 <__bss_end__+0x1d1269c>
     b1c:	0500682e 	streq	r6, [r0, #-2094]	; 0x82e
     b20:	623c0000 	eorsvs	r0, ip, #0
     b24:	746c6975 	strbtvc	r6, [ip], #-2421	; 0x975
     b28:	3e6e692d 	cdpcc	9, 6, cr6, cr14, cr13, {1}
     b2c:	00000000 	andeq	r0, r0, r0
     b30:	02050000 	andeq	r0, r5, #0
     b34:	00008e50 	andeq	r8, r0, r0, asr lr
     b38:	302f4c1a 	eorcc	r4, pc, sl, lsl ip	; <UNPREDICTABLE>
     b3c:	0b030204 	bleq	c1354 <__bss_end__+0xb752c>
     b40:	6673032e 	ldrbtvs	r0, [r3], -lr, lsr #6
     b44:	04880104 	streq	r0, [r8], #260	; 0x104
     b48:	73033502 	movwvc	r3, #13570	; 0x3502
     b4c:	8a010466 	bhi	41cec <__bss_end__+0x37ec4>
     b50:	03330204 	teqeq	r3, #4, 4	; 0x40000000
     b54:	01046673 	tsteq	r4, r3, ror r6
     b58:	04820a03 	streq	r0, [r2], #2563	; 0xa03
     b5c:	73033102 	movwvc	r3, #12546	; 0x3102
     b60:	03010466 	movweq	r0, #5222	; 0x1466
     b64:	0204820c 	andeq	r8, r4, #12, 4	; 0xc0000000
     b68:	6673032f 	ldrbtvs	r0, [r3], -pc, lsr #6
     b6c:	0e030104 	adfeqs	f0, f3, f4
     b70:	2d020482 	cfstrscs	mvf0, [r2, #-520]	; 0xfffffdf8
     b74:	04667303 	strbteq	r7, [r6], #-771	; 0x303
     b78:	82100301 	andshi	r0, r0, #67108864	; 0x4000000
     b7c:	032b0204 	teqeq	fp, #4, 4	; 0x40000000
     b80:	01046673 	tsteq	r4, r3, ror r6
     b84:	04821203 	streq	r1, [r2], #515	; 0x203
     b88:	73032902 	movwvc	r2, #14594	; 0x3902
     b8c:	03010466 	movweq	r0, #5222	; 0x1466
     b90:	02048214 	andeq	r8, r4, #20, 4	; 0x40000001
     b94:	032e7903 	teqeq	lr, #49152	; 0xc000
     b98:	01046673 	tsteq	r4, r3, ror r6
     b9c:	04821603 	streq	r1, [r2], #1539	; 0x603
     ba0:	2e770302 	cdpcs	3, 7, cr0, cr7, cr2, {0}
     ba4:	04667303 	strbteq	r7, [r6], #-771	; 0x303
     ba8:	82180301 	andshi	r0, r8, #67108864	; 0x4000000
     bac:	4b2e1003 	blmi	b84bc0 <__bss_end__+0xb7ad98>
     bb0:	2e70034d 	cdpcs	3, 7, cr0, cr0, cr13, {2}
     bb4:	4883844c 	stmmi	r3, {r2, r3, r6, sl, pc}
     bb8:	4e2e0d03 	cdpmi	13, 2, cr0, cr14, cr3, {0}
     bbc:	02043331 	andeq	r3, r4, #-1006632960	; 0xc4000000
     bc0:	042e4803 	strteq	r4, [lr], #-2051	; 0x803
     bc4:	823a0301 	eorshi	r0, sl, #67108864	; 0x4000000
     bc8:	0302042f 	movweq	r0, #9263	; 0x242f
     bcc:	01046645 	tsteq	r4, r5, asr #12
     bd0:	2f823d03 	svccs	0x00823d03
     bd4:	42030204 	andmi	r0, r3, #4, 4	; 0x40000000
     bd8:	03010482 	movweq	r0, #5250	; 0x1482
     bdc:	2f8200c0 	svccs	0x008200c0
     be0:	bf030204 	svclt	0x00030204
     be4:	0104827f 	tsteq	r4, pc, ror r2
     be8:	8200c303 	andhi	ip, r0, #201326592	; 0xc000000
     bec:	0302042f 	movweq	r0, #9263	; 0x242f
     bf0:	04827fbc 	streq	r7, [r2], #4028	; 0xfbc
     bf4:	00c60301 	sbceq	r0, r6, r1, lsl #6
     bf8:	02042f82 	andeq	r2, r4, #520	; 0x208
     bfc:	827fb903 	rsbshi	fp, pc, #49152	; 0xc000
     c00:	c9030104 	stmdbgt	r3, {r2, r8}
     c04:	042f8200 	strteq	r8, [pc], #-512	; c0c <_start-0x73f4>
     c08:	7fb60302 	svcvc	0x00b60302
     c0c:	03010482 	movweq	r0, #5250	; 0x1482
     c10:	2f8200cc 	svccs	0x008200cc
     c14:	b3030204 	movwlt	r0, #12804	; 0x3204
     c18:	0104827f 	tsteq	r4, pc, ror r2
     c1c:	8200d003 	andhi	sp, r0, #3
     c20:	4c824c03 	stcmi	12, cr4, [r2], {3}
     c24:	03488384 	movteq	r8, #33668	; 0x8384
     c28:	034e2e36 	movteq	r2, #60982	; 0xee36
     c2c:	29034a54 	stmdbcs	r3, {r2, r4, r6, r9, fp, lr}
     c30:	bb34324a 	bllt	d0d560 <__bss_end__+0xd03738>
     c34:	01040200 	mrseq	r0, R12_usr
     c38:	08064a06 	stmdaeq	r6, {r1, r2, r9, fp, lr}
     c3c:	bb4b4e21 	bllt	12d44c8 <__bss_end__+0x12ca6a0>
     c40:	0402002c 	streq	r0, [r2], #-44	; 0x2c
     c44:	062e0601 	strteq	r0, [lr], -r1, lsl #12
     c48:	a0dc4c6d 	sbcsge	r4, ip, sp, ror #24
     c4c:	01040200 	mrseq	r0, R12_usr
     c50:	08064a06 	stmdaeq	r6, {r1, r2, r9, fp, lr}
     c54:	02004d21 	andeq	r4, r0, #2112	; 0x840
     c58:	004b0204 	subeq	r0, fp, r4, lsl #4
     c5c:	81020402 	tsthi	r2, r2, lsl #8
     c60:	01040200 	mrseq	r0, R12_usr
     c64:	4d062e06 	stcmi	14, cr2, [r6, #-24]	; 0xffffffe8
     c68:	4bd8dd4c 	blmi	ff6381a0 <__bss_end__+0xff62e378>
     c6c:	2f6a4b4b 	svccs	0x006a4b4b
     c70:	01040200 	mrseq	r0, R12_usr
     c74:	00828206 	addeq	r8, r2, r6, lsl #4
     c78:	9e040402 	cdpls	4, 0, cr0, cr4, cr2, {0}
     c7c:	01040200 	mrseq	r0, R12_usr
     c80:	2308064a 	movwcs	r0, #34378	; 0x864a
     c84:	4b2ff588 	blmi	bfe2ac <__bss_end__+0xbf4484>
     c88:	6740084b 	strbvs	r0, [r0, -fp, asr #16]
     c8c:	02040200 	andeq	r0, r4, #0, 4
     c90:	0402002f 	streq	r0, [r2], #-47	; 0x2f
     c94:	02004902 	andeq	r4, r0, #32768	; 0x8000
     c98:	2e060104 	adfcss	f0, f6, f4
     c9c:	86346806 	ldrthi	r6, [r4], -r6, lsl #16
     ca0:	0200a04b 	andeq	sl, r0, #75	; 0x4b
     ca4:	66060104 	strvs	r0, [r6], -r4, lsl #2
     ca8:	68210806 	stmdavs	r1!, {r1, r2, fp}
     cac:	674b3e08 	strbvs	r3, [fp, -r8, lsl #28]
     cb0:	0a02d84b 	beq	b6de4 <__bss_end__+0xacfbc>
     cb4:	8a010100 	bhi	410bc <__bss_end__+0x37294>
     cb8:	02000000 	andeq	r0, r0, #0
     cbc:	00007200 	andeq	r7, r0, r0, lsl #4
     cc0:	fb010200 	blx	414ca <__bss_end__+0x376a2>
     cc4:	01000d0e 	tsteq	r0, lr, lsl #26
     cc8:	00010101 	andeq	r0, r1, r1, lsl #2
     ccc:	00010000 	andeq	r0, r1, r0
     cd0:	696c0100 	stmdbvs	ip!, {r8}^
     cd4:	2f006362 	svccs	0x00006362
     cd8:	72657355 	rsbvc	r7, r5, #1409286145	; 0x54000001
     cdc:	72622f73 	rsbvc	r2, r2, #460	; 0x1cc
     ce0:	6a6e6169 	bvs	1b9928c <__bss_end__+0x1b8f464>
     ce4:	442f6e75 	strtmi	r6, [pc], #-3701	; cec <_start-0x7314>
     ce8:	746b7365 	strbtvc	r7, [fp], #-869	; 0x365
     cec:	732f706f 	teqvc	pc, #111	; 0x6f
     cf0:	6f6f6863 	svcvs	0x006f6863
     cf4:	69572f6c 	ldmdbvs	r7, {r2, r3, r5, r6, r8, r9, sl, fp, sp}^
     cf8:	7265746e 	rsbvc	r7, r5, #1845493760	; 0x6e000000
     cfc:	30323931 	eorscc	r3, r2, r1, lsr r9
     d00:	3153432f 	cmpcc	r3, pc, lsr #6
     d04:	2f453034 	svccs	0x00453034
     d08:	34317363 	ldrtcc	r7, [r1], #-867	; 0x363
     d0c:	322d6530 	eorcc	r6, sp, #48, 10	; 0xc000000
     d10:	6e697730 	mcrvs	7, 3, r7, cr9, cr0, {1}
     d14:	62696c2f 	rsbvs	r6, r9, #12032	; 0x2f00
     d18:	00006970 	andeq	r6, r0, r0, ror r9
     d1c:	63747570 	cmnvs	r4, #112, 10	; 0x1c000000
     d20:	2e726168 	rpwcssz	f6, f2, #0.0
     d24:	00010063 	andeq	r0, r1, r3, rrx
     d28:	69707200 	ldmdbvs	r0!, {r9, ip, sp, lr}^
     d2c:	0200682e 	andeq	r6, r0, #3014656	; 0x2e0000
     d30:	00000000 	andeq	r0, r0, r0
     d34:	951c0205 	ldrls	r0, [ip, #-517]	; 0x205
     d38:	4a140000 	bmi	500d40 <__bss_end__+0x4f6f18>
     d3c:	13bc136b 			; <UNDEFINED> instruction: 0x13bc136b
     d40:	01000802 	tsteq	r0, r2, lsl #16
     d44:	00012801 	andeq	r2, r1, r1, lsl #16
     d48:	0d000200 	sfmeq	f0, 4, [r0, #-0]
     d4c:	02000001 	andeq	r0, r0, #1
     d50:	0d0efb01 	vstreq	d15, [lr, #-4]
     d54:	01010100 	mrseq	r0, (UNDEF: 17)
     d58:	00000001 	andeq	r0, r0, r1
     d5c:	01000001 	tsteq	r0, r1
     d60:	34317363 	ldrtcc	r7, [r1], #-867	; 0x363
     d64:	732d6530 	teqvc	sp, #48, 10	; 0xc000000
     d68:	2f006372 	svccs	0x00006372
     d6c:	2f727375 	svccs	0x00727375
     d70:	61636f6c 	cmnvs	r3, ip, ror #30
     d74:	65432f6c 	strbvs	r2, [r3, #-3948]	; 0xf6c
     d78:	72616c6c 	rsbvc	r6, r1, #108, 24	; 0x6c00
     d7c:	6d72612f 	ldfvse	f6, [r2, #-188]!	; 0xffffff44
     d80:	6e6f6e2d 	cdpvs	14, 6, cr6, cr15, cr13, {1}
     d84:	61652d65 	cmnvs	r5, r5, ror #26
     d88:	342f6962 	strtcc	r6, [pc], #-2402	; d90 <_start-0x7270>
     d8c:	332e382e 	teqcc	lr, #3014656	; 0x2e0000
     d90:	3173632d 	cmncc	r3, sp, lsr #6
     d94:	2f653037 	svccs	0x00653037
     d98:	2f62696c 	svccs	0x0062696c
     d9c:	2f636367 	svccs	0x00636367
     da0:	2d6d7261 	sfmcs	f7, 2, [sp, #-388]!	; 0xfffffe7c
     da4:	656e6f6e 	strbvs	r6, [lr, #-3950]!	; 0xf6e
     da8:	6261652d 	rsbvs	r6, r1, #188743680	; 0xb400000
     dac:	2e342f69 	cdpcs	15, 3, cr2, cr4, cr9, {3}
     db0:	2f332e38 	svccs	0x00332e38
     db4:	6c636e69 	stclvs	14, cr6, [r3], #-420	; 0xfffffe5c
     db8:	00656475 	rsbeq	r6, r5, r5, ror r4
     dbc:	7273752f 	rsbsvc	r7, r3, #197132288	; 0xbc00000
     dc0:	636f6c2f 	cmnvs	pc, #12032	; 0x2f00
     dc4:	432f6c61 	teqmi	pc, #24832	; 0x6100
     dc8:	616c6c65 	cmnvs	ip, r5, ror #24
     dcc:	72612f72 	rsbvc	r2, r1, #456	; 0x1c8
     dd0:	6f6e2d6d 	svcvs	0x006e2d6d
     dd4:	652d656e 	strvs	r6, [sp, #-1390]!	; 0x56e
     dd8:	2f696261 	svccs	0x00696261
     ddc:	2e382e34 	mrccs	14, 1, r2, cr8, cr4, {1}
     de0:	73632d33 	cmnvc	r3, #3264	; 0xcc0
     de4:	65303731 	ldrvs	r3, [r0, #-1841]!	; 0x731
     de8:	6d72612f 	ldfvse	f6, [r2, #-188]!	; 0xffffff44
     dec:	6e6f6e2d 	cdpvs	14, 6, cr6, cr15, cr13, {1}
     df0:	61652d65 	cmnvs	r5, r5, ror #26
     df4:	692f6962 	stmdbvs	pc!, {r1, r5, r6, r8, fp, sp, lr}	; <UNPREDICTABLE>
     df8:	756c636e 	strbvc	r6, [ip, #-878]!	; 0x36e
     dfc:	00006564 	andeq	r6, r0, r4, ror #10
     e00:	746e6f63 	strbtvc	r6, [lr], #-3939	; 0xf63
     e04:	2d6c6f72 	stclcs	15, cr6, [ip, #-456]!	; 0xfffffe38
     e08:	636f6c62 	cmnvs	pc, #25088	; 0x6200
     e0c:	00632e6b 	rsbeq	r2, r3, fp, ror #28
     e10:	73000001 	movwvc	r0, #1
     e14:	65646474 	strbvs	r6, [r4, #-1140]!	; 0x474
     e18:	00682e66 	rsbeq	r2, r8, r6, ror #28
     e1c:	73000002 	movwvc	r0, #2
     e20:	6e696474 	mcrvs	4, 3, r6, cr9, cr4, {3}
     e24:	63672d74 	cmnvs	r7, #116, 26	; 0x1d00
     e28:	00682e63 	rsbeq	r2, r8, r3, ror #28
     e2c:	73000002 	movwvc	r0, #2
     e30:	61752d77 	cmnvs	r5, r7, ror sp
     e34:	682e7472 	stmdavs	lr!, {r1, r4, r5, r6, sl, ip, sp, lr}
     e38:	00000100 	andeq	r0, r0, r0, lsl #2
     e3c:	746e6f63 	strbtvc	r6, [lr], #-3939	; 0xf63
     e40:	2d6c6f72 	stclcs	15, cr6, [ip, #-456]!	; 0xfffffe38
     e44:	636f6c62 	cmnvs	pc, #25088	; 0x6200
     e48:	00682e6b 	rsbeq	r2, r8, fp, ror #28
     e4c:	73000001 	movwvc	r0, #1
     e50:	6e697274 	mcrvs	2, 3, r7, cr9, cr4, {3}
     e54:	00682e67 	rsbeq	r2, r8, r7, ror #28
     e58:	00000003 	andeq	r0, r0, r3
     e5c:	58020500 	stmdapl	r2, {r8, sl}
     e60:	16000095 			; <UNDEFINED> instruction: 0x16000095
     e64:	4c688330 	stclmi	3, cr8, [r8], #-192	; 0xffffff40
     e68:	2f4b9f14 	svccs	0x004b9f14
     e6c:	01000402 	tsteq	r0, r2, lsl #8
     e70:	00010101 	andeq	r0, r1, r1, lsl #2
     e74:	ca000200 	bgt	167c <_start-0x6984>
     e78:	02000000 	andeq	r0, r0, #0
     e7c:	0d0efb01 	vstreq	d15, [lr, #-4]
     e80:	01010100 	mrseq	r0, (UNDEF: 17)
     e84:	00000001 	andeq	r0, r0, r1
     e88:	01000001 	tsteq	r0, r1
     e8c:	732d796d 	teqvc	sp, #1785856	; 0x1b4000
     e90:	2f006372 	svccs	0x00006372
     e94:	72657355 	rsbvc	r7, r5, #1409286145	; 0x54000001
     e98:	72622f73 	rsbvc	r2, r2, #460	; 0x1cc
     e9c:	6a6e6169 	bvs	1b99448 <__bss_end__+0x1b8f620>
     ea0:	442f6e75 	strtmi	r6, [pc], #-3701	; ea8 <_start-0x7158>
     ea4:	746b7365 	strbtvc	r7, [fp], #-869	; 0x365
     ea8:	732f706f 	teqvc	pc, #111	; 0x6f
     eac:	6f6f6863 	svcvs	0x006f6863
     eb0:	69572f6c 	ldmdbvs	r7, {r2, r3, r5, r6, r8, r9, sl, fp, sp}^
     eb4:	7265746e 	rsbvc	r7, r5, #1845493760	; 0x6e000000
     eb8:	30323931 	eorscc	r3, r2, r1, lsr r9
     ebc:	3153432f 	cmpcc	r3, pc, lsr #6
     ec0:	2f453034 	svccs	0x00453034
     ec4:	34317363 	ldrtcc	r7, [r1], #-867	; 0x363
     ec8:	322d6530 	eorcc	r6, sp, #48, 10	; 0xc000000
     ecc:	6e697730 	mcrvs	7, 3, r7, cr9, cr0, {1}
     ed0:	62696c2f 	rsbvs	r6, r9, #12032	; 0x2f00
     ed4:	632f6970 	teqvs	pc, #112, 18	; 0x1c0000
     ed8:	30343173 	eorscc	r3, r4, r3, ror r1
     edc:	72732d65 	rsbsvc	r2, r3, #6464	; 0x1940
     ee0:	552f0063 	strpl	r0, [pc, #-99]!	; e85 <_start-0x717b>
     ee4:	73726573 	cmnvc	r2, #482344960	; 0x1cc00000
     ee8:	6972622f 	ldmdbvs	r2!, {r0, r1, r2, r3, r5, r9, sp, lr}^
     eec:	756a6e61 	strbvc	r6, [sl, #-3681]!	; 0xe61
     ef0:	65442f6e 	strbvs	r2, [r4, #-3950]	; 0xf6e
     ef4:	6f746b73 	svcvs	0x00746b73
     ef8:	63732f70 	cmnvs	r3, #112, 30	; 0x1c0
     efc:	6c6f6f68 	stclvs	15, cr6, [pc], #-416	; d64 <_start-0x729c>
     f00:	6e69572f 	cdpvs	7, 6, cr5, cr9, cr15, {1}
     f04:	31726574 	cmncc	r2, r4, ror r5
     f08:	2f303239 	svccs	0x00303239
     f0c:	34315343 	ldrtcc	r5, [r1], #-835	; 0x343
     f10:	632f4530 	teqvs	pc, #48, 10	; 0xc000000
     f14:	30343173 	eorscc	r3, r4, r3, ror r1
     f18:	30322d65 	eorscc	r2, r2, r5, ror #26
     f1c:	2f6e6977 	svccs	0x006e6977
     f20:	7062696c 	rsbvc	r6, r2, ip, ror #18
     f24:	75000069 	strvc	r0, [r0, #-105]	; 0x69
     f28:	2e747261 	cdpcs	2, 7, cr7, cr4, cr1, {3}
     f2c:	00010063 	andeq	r0, r1, r3, rrx
     f30:	69706700 	ldmdbvs	r0!, {r8, r9, sl, sp, lr}^
     f34:	00682e6f 	rsbeq	r2, r8, pc, ror #28
     f38:	72000002 	andvc	r0, r0, #2
     f3c:	682e6970 	stmdavs	lr!, {r4, r5, r6, r8, fp, sp, lr}
     f40:	00000300 	andeq	r0, r0, r0, lsl #6
     f44:	02050000 	andeq	r0, r5, #0
     f48:	000095a8 	andeq	r9, r0, r8, lsr #11
     f4c:	30013603 	andcc	r3, r1, r3, lsl #12
     f50:	306d6733 	rsbcc	r6, sp, r3, lsr r7
     f54:	676730d8 			; <UNDEFINED> instruction: 0x676730d8
     f58:	68676767 	stmdavs	r7!, {r0, r1, r2, r5, r6, r8, r9, sl, sp, lr}^
     f5c:	6a672f86 	bvs	19ccd7c <__bss_end__+0x19c2f54>
     f60:	69676730 	stmdbvs	r7!, {r4, r5, r8, r9, sl, sp, lr}^
     f64:	4c6a672f 	stclmi	7, cr6, [sl], #-188	; 0xffffff44
     f68:	2f2fc167 	svccs	0x002fc167
     f6c:	49682f30 	stmdbmi	r8!, {r4, r5, r8, r9, sl, fp, sp}^
     f70:	00020230 	andeq	r0, r2, r0, lsr r2
     f74:	00ec0101 	rsceq	r0, ip, r1, lsl #2
     f78:	00020000 	andeq	r0, r2, r0
     f7c:	000000d0 	ldrdeq	r0, [r0], -r0	; <UNPREDICTABLE>
     f80:	0efb0102 	cdpeq	1, 15, cr0, cr11, cr2, {0}
     f84:	0101000d 	tsteq	r1, sp
     f88:	00000101 	andeq	r0, r0, r1, lsl #2
     f8c:	00000100 	andeq	r0, r0, r0, lsl #2
     f90:	62696c01 	rsbvs	r6, r9, #256	; 0x100
     f94:	752f0063 	strvc	r0, [pc, #-99]!	; f39 <_start-0x70c7>
     f98:	6c2f7273 	sfmvs	f7, 4, [pc], #-460	; dd4 <_start-0x722c>
     f9c:	6c61636f 	stclvs	3, cr6, [r1], #-444	; 0xfffffe44
     fa0:	6c65432f 	stclvs	3, cr4, [r5], #-188	; 0xffffff44
     fa4:	2f72616c 	svccs	0x0072616c
     fa8:	2d6d7261 	sfmcs	f7, 2, [sp, #-388]!	; 0xfffffe7c
     fac:	656e6f6e 	strbvs	r6, [lr, #-3950]!	; 0xf6e
     fb0:	6261652d 	rsbvs	r6, r1, #188743680	; 0xb400000
     fb4:	2e342f69 	cdpcs	15, 3, cr2, cr4, cr9, {3}
     fb8:	2d332e38 	ldccs	14, cr2, [r3, #-224]!	; 0xffffff20
     fbc:	37317363 	ldrcc	r7, [r1, -r3, ror #6]!
     fc0:	6c2f6530 	cfstr32vs	mvfx6, [pc], #-192	; f08 <_start-0x70f8>
     fc4:	672f6269 	strvs	r6, [pc, -r9, ror #4]!
     fc8:	612f6363 	teqvs	pc, r3, ror #6
     fcc:	6e2d6d72 	mcrvs	13, 1, r6, cr13, cr2, {3}
     fd0:	2d656e6f 	stclcs	14, cr6, [r5, #-444]!	; 0xfffffe44
     fd4:	69626165 	stmdbvs	r2!, {r0, r2, r5, r6, r8, sp, lr}^
     fd8:	382e342f 	stmdacc	lr!, {r0, r1, r2, r3, r5, sl, ip, sp}
     fdc:	692f332e 	stmdbvs	pc!, {r1, r2, r3, r5, r8, r9, ip, sp}	; <UNPREDICTABLE>
     fe0:	756c636e 	strbvc	r6, [ip, #-878]!	; 0x36e
     fe4:	2f006564 	svccs	0x00006564
     fe8:	2f727375 	svccs	0x00727375
     fec:	61636f6c 	cmnvs	r3, ip, ror #30
     ff0:	65432f6c 	strbvs	r2, [r3, #-3948]	; 0xf6c
     ff4:	72616c6c 	rsbvc	r6, r1, #108, 24	; 0x6c00
     ff8:	6d72612f 	ldfvse	f6, [r2, #-188]!	; 0xffffff44
     ffc:	6e6f6e2d 	cdpvs	14, 6, cr6, cr15, cr13, {1}
    1000:	61652d65 	cmnvs	r5, r5, ror #26
    1004:	342f6962 	strtcc	r6, [pc], #-2402	; 100c <_start-0x6ff4>
    1008:	332e382e 	teqcc	lr, #3014656	; 0x2e0000
    100c:	3173632d 	cmncc	r3, sp, lsr #6
    1010:	2f653037 	svccs	0x00653037
    1014:	2d6d7261 	sfmcs	f7, 2, [sp, #-388]!	; 0xfffffe7c
    1018:	656e6f6e 	strbvs	r6, [lr, #-3950]!	; 0xf6e
    101c:	6261652d 	rsbvs	r6, r1, #188743680	; 0xb400000
    1020:	6e692f69 	cdpvs	15, 6, cr2, cr9, cr9, {3}
    1024:	64756c63 	ldrbtvs	r6, [r5], #-3171	; 0xc63
    1028:	6d000065 	stcvs	0, cr0, [r0, #-404]	; 0xfffffe6c
    102c:	65736d65 	ldrbvs	r6, [r3, #-3429]!	; 0xd65
    1030:	00632e74 	rsbeq	r2, r3, r4, ror lr
    1034:	73000001 	movwvc	r0, #1
    1038:	65646474 	strbvs	r6, [r4, #-1140]!	; 0x474
    103c:	00682e66 	rsbeq	r2, r8, r6, ror #28
    1040:	73000002 	movwvc	r0, #2
    1044:	6e697274 	mcrvs	2, 3, r7, cr9, cr4, {3}
    1048:	00682e67 	rsbeq	r2, r8, r7, ror #28
    104c:	00000003 	andeq	r0, r0, r3
    1050:	fc020500 	stc2	5, cr0, [r2], {-0}
    1054:	14000096 	strne	r0, [r0], #-150	; 0x96
    1058:	002f4c13 	eoreq	r4, pc, r3, lsl ip	; <UNPREDICTABLE>
    105c:	49010402 	stmdbmi	r1, {r1, sl}
    1060:	0002024d 	andeq	r0, r2, sp, asr #4
    1064:	Address 0x0000000000001064 is out of bounds.


Disassembly of section .debug_str:

00000000 <.debug_str>:
   0:	6f697067 	svcvs	0x00697067
   4:	726c635f 	rsbvc	r6, ip, #2080374785	; 0x7c000001
   8:	70670030 	rsbvc	r0, r7, r0, lsr r0
   c:	735f6f69 	cmpvc	pc, #420	; 0x1a4
  10:	00307465 	eorseq	r7, r0, r5, ror #8
  14:	73726966 	cmnvc	r2, #1671168	; 0x198000
  18:	6f630074 	svcvs	0x00630074
  1c:	00746e75 	rsbseq	r6, r4, r5, ror lr
  20:	6f697067 	svcvs	0x00697067
  24:	6573665f 	ldrbvs	r6, [r3, #-1631]!	; 0x65f
  28:	7400306c 	strvc	r3, [r0], #-108	; 0x6c
  2c:	5f747365 	svcpl	0x00747365
  30:	006e6567 	rsbeq	r6, lr, r7, ror #10
  34:	74736574 	ldrbtvc	r6, [r3], #-1396	; 0x574
  38:	6e65672d 	cdpvs	7, 6, cr6, cr5, cr13, {1}
  3c:	4700632e 	strmi	r6, [r0, -lr, lsr #6]
  40:	524c4350 	subpl	r4, ip, #80, 6	; 0x40000001
  44:	552f0031 	strpl	r0, [pc, #-49]!	; 1b <_start-0x7fe5>
  48:	73726573 	cmnvc	r2, #482344960	; 0x1cc00000
  4c:	6972622f 	ldmdbvs	r2!, {r0, r1, r2, r3, r5, r9, sp, lr}^
  50:	756a6e61 	strbvc	r6, [sl, #-3681]!	; 0xe61
  54:	65442f6e 	strbvs	r2, [r4, #-3950]	; 0xf6e
  58:	6f746b73 	svcvs	0x00746b73
  5c:	63732f70 	cmnvs	r3, #112, 30	; 0x1c0
  60:	6c6f6f68 	stclvs	15, cr6, [pc], #-416	; fffffec8 <__bss_end__+0xffff60a0>
  64:	7270532f 	rsbsvc	r5, r0, #-1140850688	; 0xbc000000
  68:	31676e69 	cmncc	r7, r9, ror #28
  6c:	2f303239 	svccs	0x00303239
  70:	34325343 	ldrtcc	r5, [r2], #-835	; 0x343
  74:	2f584c30 	svccs	0x00584c30
  78:	34327363 	ldrtcc	r7, [r2], #-867	; 0x363
  7c:	2d786c30 	ldclcs	12, cr6, [r8, #-192]!	; 0xffffff40
  80:	70733032 	rsbsvc	r3, r3, r2, lsr r0
  84:	616c2f72 	smcvs	49906	; 0xc2f2
  88:	332f7362 	teqcc	pc, #-2013265919	; 0x88000001
  8c:	676f6c2d 	strbvs	r6, [pc, -sp, lsr #24]!
  90:	612d6369 	teqvs	sp, r9, ror #6
  94:	796c616e 	stmdbvc	ip!, {r1, r2, r3, r5, r6, r8, sp, lr}^
  98:	2f72657a 	svccs	0x0072657a
  9c:	65646f63 	strbvs	r6, [r4, #-3939]!	; 0xf63
  a0:	7365742f 	cmnvc	r5, #788529152	; 0x2f000000
  a4:	65672d74 	strbvs	r2, [r7, #-3444]!	; 0xd74
  a8:	6f6e006e 	svcvs	0x006e006e
  ac:	69616d74 	stmdbvs	r1!, {r2, r4, r5, r6, r8, sl, fp, sp, lr}^
  b0:	5047006e 	subpl	r0, r7, lr, rrx
  b4:	3156454c 	cmpcc	r6, ip, asr #10
  b8:	73616600 	cmnvc	r1, #0, 12
  bc:	70675f74 	rsbvc	r5, r7, r4, ror pc
  c0:	735f6f69 	cmpvc	pc, #420	; 0x1a4
  c4:	6f5f7465 	svcvs	0x005f7465
  c8:	6e75006e 	cdpvs	0, 7, cr0, cr5, cr14, {3}
  cc:	6e676973 	mcrvs	9, 3, r6, cr7, cr3, {3}
  d0:	63206465 	teqvs	r0, #1694498816	; 0x65000000
  d4:	00726168 	rsbseq	r6, r2, r8, ror #2
  d8:	61656c63 	cmnvs	r5, r3, ror #24
  dc:	65725f6e 	ldrbvs	r5, [r2, #-3950]!	; 0xf6e
  e0:	746f6f62 	strbtvc	r6, [pc], #-3938	; e8 <_start-0x7f18>
  e4:	43504700 	cmpmi	r0, #0, 14
  e8:	0030524c 	eorseq	r5, r0, ip, asr #4
  ec:	726f6873 	rsbvc	r6, pc, #7536640	; 0x730000
  f0:	6e752074 	mrcvs	0, 3, r2, cr5, cr4, {3}
  f4:	6e676973 	mcrvs	9, 3, r6, cr7, cr3, {3}
  f8:	69206465 	stmdbvs	r0!, {r0, r2, r5, r6, sl, sp, lr}
  fc:	7000746e 	andvc	r7, r0, lr, ror #8
 100:	32337475 	eorscc	r7, r3, #1962934272	; 0x75000000
 104:	53504700 	cmppl	r0, #0, 14
 108:	00305445 	eorseq	r5, r0, r5, asr #8
 10c:	45535047 	ldrbmi	r5, [r3, #-71]	; 0x47
 110:	67003154 	smlsdvs	r0, r4, r1, r3
 114:	5f6f6970 	svcpl	0x006f6970
 118:	5f746573 	svcpl	0x00746573
 11c:	7074756f 	rsbsvc	r7, r4, pc, ror #10
 120:	47007475 	smlsdxmi	r0, r5, r4, r7
 124:	45534650 	ldrbmi	r4, [r3, #-1616]	; 0x650
 128:	6c00314c 	stfvss	f3, [r0], {76}	; 0x4c
 12c:	20676e6f 	rsbcs	r6, r7, pc, ror #28
 130:	676e6f6c 	strbvs	r6, [lr, -ip, ror #30]!
 134:	736e7520 	cmnvc	lr, #32, 10	; 0x8000000
 138:	656e6769 	strbvs	r6, [lr, #-1897]!	; 0x769
 13c:	6e692064 	cdpvs	0, 6, cr2, cr9, cr4, {3}
 140:	61660074 	smcvs	24580	; 0x6004
 144:	675f7473 			; <UNDEFINED> instruction: 0x675f7473
 148:	5f6f6970 	svcpl	0x006f6970
 14c:	74697277 	strbtvc	r7, [r9], #-631	; 0x277
 150:	69730065 	ldmdbvs	r3!, {r0, r2, r5, r6}^
 154:	7974657a 	ldmdbvc	r4!, {r1, r3, r4, r5, r6, r8, sl, sp, lr}^
 158:	6c006570 	cfstr32vs	mvfx6, [r0], {112}	; 0x70
 15c:	20676e6f 	rsbcs	r6, r7, pc, ror #28
 160:	676e6f6c 	strbvs	r6, [lr, -ip, ror #30]!
 164:	746e6920 	strbtvc	r6, [lr], #-2336	; 0x920
 168:	73616600 	cmnvc	r1, #0, 12
 16c:	70675f74 	rsbvc	r5, r7, r4, ror pc
 170:	735f6f69 	cmpvc	pc, #420	; 0x1a4
 174:	6f5f7465 	svcvs	0x005f7465
 178:	5f006666 	svcpl	0x00006666
 17c:	0074756f 	rsbseq	r7, r4, pc, ror #10
 180:	20554e47 	subscs	r4, r5, r7, asr #28
 184:	2e342043 	cdpcs	0, 3, cr2, cr4, cr3, {2}
 188:	20332e38 	eorscs	r2, r3, r8, lsr lr
 18c:	70636d2d 	rsbvc	r6, r3, sp, lsr #26
 190:	72613d75 	rsbvc	r3, r1, #7488	; 0x1d40
 194:	3731316d 	ldrcc	r3, [r1, -sp, ror #2]!
 198:	667a6a36 			; <UNDEFINED> instruction: 0x667a6a36
 19c:	2d20732d 	stccs	3, cr7, [r0, #-180]!	; 0xffffff4c
 1a0:	6e75746d 	cdpvs	4, 7, cr7, cr5, cr13, {3}
 1a4:	72613d65 	rsbvc	r3, r1, #6464	; 0x1940
 1a8:	3731316d 	ldrcc	r3, [r1, -sp, ror #2]!
 1ac:	667a6a36 			; <UNDEFINED> instruction: 0x667a6a36
 1b0:	2d20732d 	stccs	3, cr7, [r0, #-180]!	; 0xffffff4c
 1b4:	62646767 	rsbvs	r6, r4, #27000832	; 0x19c0000
 1b8:	334f2d20 	movtcc	r2, #64800	; 0xfd20
 1bc:	74732d20 	ldrbtvc	r2, [r3], #-3360	; 0xd20
 1c0:	6e673d64 	cdpvs	13, 6, cr3, cr7, cr4, {3}
 1c4:	20393975 	eorscs	r3, r9, r5, ror r9
 1c8:	7266662d 	rsbvc	r6, r6, #47185920	; 0x2d00000
 1cc:	74736565 	ldrbtvc	r6, [r3], #-1381	; 0x565
 1d0:	69646e61 	stmdbvs	r4!, {r0, r5, r6, r9, sl, fp, sp, lr}^
 1d4:	6200676e 	andvs	r6, r0, #28835840	; 0x1b80000
 1d8:	616d7469 	cmnvs	sp, r9, ror #8
 1dc:	73006b73 	movwvc	r6, #2931	; 0xb73
 1e0:	74726f68 	ldrbtvc	r6, [r2], #-3944	; 0xf68
 1e4:	746e6920 	strbtvc	r6, [lr], #-2336	; 0x920
 1e8:	616e6500 	cmnvs	lr, r0, lsl #10
 1ec:	5f656c62 	svcpl	0x00656c62
 1f0:	68636163 	stmdavs	r3!, {r0, r1, r5, r6, r8, sp, lr}^
 1f4:	61730065 	cmnvs	r3, r5, rrx
 1f8:	656c706d 	strbvs	r7, [ip, #-109]!	; 0x6d
 1fc:	79636e00 	stmdbvc	r3!, {r9, sl, fp, sp, lr}^
 200:	00656c63 	rsbeq	r6, r5, r3, ror #24
 204:	6f697067 	svcvs	0x00697067
 208:	6765725f 			; <UNDEFINED> instruction: 0x6765725f
 20c:	46504700 	ldrbmi	r4, [r0], -r0, lsl #14
 210:	304c4553 	subcc	r4, ip, r3, asr r5
 214:	4c504700 	mrrcmi	7, 0, r4, r0, cr0
 218:	00305645 	eorseq	r5, r0, r5, asr #12
 21c:	53465047 	movtpl	r5, #24647	; 0x6047
 220:	00324c45 	eorseq	r4, r2, r5, asr #24
 224:	53465047 	movtpl	r5, #24647	; 0x6047
 228:	00334c45 	eorseq	r4, r3, r5, asr #24
 22c:	53465047 	movtpl	r5, #24647	; 0x6047
 230:	00344c45 	eorseq	r4, r4, r5, asr #24
 234:	53465047 	movtpl	r5, #24647	; 0x6047
 238:	00354c45 	eorseq	r4, r5, r5, asr #24
 23c:	6e675f5f 	mcrvs	15, 3, r5, cr7, cr15, {2}
 240:	765f6375 			; <UNDEFINED> instruction: 0x765f6375
 244:	696c5f61 	stmdbvs	ip!, {r0, r5, r6, r8, r9, sl, fp, ip, lr}^
 248:	6c007473 	cfstrsvs	mvf7, [r0], {115}	; 0x73
 24c:	2f636269 	svccs	0x00636269
 250:	6e697270 	mcrvs	2, 3, r7, cr9, cr0, {3}
 254:	632e6b74 	teqvs	lr, #116, 22	; 0x1d000
 258:	554e4700 	strbpl	r4, [lr, #-1792]	; 0x700
 25c:	34204320 	strtcc	r4, [r0], #-800	; 0x320
 260:	332e382e 	teqcc	lr, #3014656	; 0x2e0000
 264:	636d2d20 	cmnvs	sp, #32, 26	; 0x800
 268:	613d7570 	teqvs	sp, r0, ror r5
 26c:	31316d72 	teqcc	r1, r2, ror sp
 270:	7a6a3637 	bvc	1a8db54 <__bss_end__+0x1a83d2c>
 274:	20732d66 	rsbscs	r2, r3, r6, ror #26
 278:	75746d2d 	ldrbvc	r6, [r4, #-3373]!	; 0xd2d
 27c:	613d656e 	teqvs	sp, lr, ror #10
 280:	31316d72 	teqcc	r1, r2, ror sp
 284:	7a6a3637 	bvc	1a8db68 <__bss_end__+0x1a83d40>
 288:	20732d66 	rsbscs	r2, r3, r6, ror #26
 28c:	6467672d 	strbtvs	r6, [r7], #-1837	; 0x72d
 290:	4f2d2062 	svcmi	0x002d2062
 294:	732d2067 	teqvc	sp, #103	; 0x67
 298:	673d6474 			; <UNDEFINED> instruction: 0x673d6474
 29c:	3939756e 	ldmdbcc	r9!, {r1, r2, r3, r5, r6, r8, sl, ip, sp, lr}
 2a0:	66662d20 	strbtvs	r2, [r6], -r0, lsr #26
 2a4:	73656572 	cmnvc	r5, #478150656	; 0x1c800000
 2a8:	646e6174 	strbtvs	r6, [lr], #-372	; 0x174
 2ac:	00676e69 	rsbeq	r6, r7, r9, ror #28
 2b0:	705f6176 	subsvc	r6, pc, r6, ror r1	; <UNPREDICTABLE>
 2b4:	746e6972 	strbtvc	r6, [lr], #-2418	; 0x972
 2b8:	5f5f006b 	svcpl	0x005f006b
 2bc:	6c5f6176 	ldfvse	f6, [pc], {118}	; 0x76
 2c0:	00747369 	rsbseq	r7, r4, r9, ror #6
 2c4:	6573552f 	ldrbvs	r5, [r3, #-1327]!	; 0x52f
 2c8:	622f7372 	eorvs	r7, pc, #-939524095	; 0xc8000001
 2cc:	6e616972 	mcrvs	9, 3, r6, cr1, cr2, {3}
 2d0:	2f6e756a 	svccs	0x006e756a
 2d4:	6b736544 	blvs	1cd97ec <__bss_end__+0x1ccf9c4>
 2d8:	2f706f74 	svccs	0x00706f74
 2dc:	6f686373 	svcvs	0x00686373
 2e0:	572f6c6f 	strpl	r6, [pc, -pc, ror #24]!
 2e4:	65746e69 	ldrbvs	r6, [r4, #-3689]!	; 0xe69
 2e8:	32393172 	eorscc	r3, r9, #-2147483620	; 0x8000001c
 2ec:	53432f30 	movtpl	r2, #16176	; 0x3f30
 2f0:	45303431 	ldrmi	r3, [r0, #-1073]!	; 0x431
 2f4:	3173632f 	cmncc	r3, pc, lsr #6
 2f8:	2d653034 	stclcs	0, cr3, [r5, #-208]!	; 0xffffff30
 2fc:	69773032 	ldmdbvs	r7!, {r1, r4, r5, ip, sp}^
 300:	696c2f6e 	stmdbvs	ip!, {r1, r2, r3, r5, r6, r8, r9, sl, fp, sp}^
 304:	00697062 	rsbeq	r7, r9, r2, rrx
 308:	73677261 	cmnvc	r7, #268435462	; 0x10000006
 30c:	615f5f00 	cmpvs	pc, r0, lsl #30
 310:	696c0070 	stmdbvs	ip!, {r4, r5, r6}^
 314:	702f6362 	eorvc	r6, pc, r2, ror #6
 318:	2e6b7475 	mcrcs	4, 3, r7, cr11, cr5, {3}
 31c:	6e690063 	cdpvs	0, 6, cr0, cr9, cr3, {3}
 320:	6e726574 	mrcvs	5, 3, r6, cr2, cr4, {3}
 324:	705f6c61 	subsvc	r6, pc, r1, ror #24
 328:	006b7475 	rsbeq	r7, fp, r5, ror r4
 32c:	5f697072 	svcpl	0x00697072
 330:	63747570 	cmnvs	r4, #112, 10	; 0x1c000000
 334:	00726168 	rsbseq	r6, r2, r8, ror #2
 338:	5f67656e 	svcpl	0x0067656e
 33c:	65720070 	ldrbvs	r0, [r2, #-112]!	; 0x70
 340:	73726576 	cmnvc	r2, #494927872	; 0x1d800000
 344:	73690065 	cmnvc	r9, #101	; 0x65
 348:	69676964 	stmdbvs	r7!, {r2, r5, r6, r8, fp, sp, lr}^
 34c:	5f5f0074 	svcpl	0x005f0074
 350:	434e5546 	movtmi	r5, #58694	; 0xe546
 354:	4e4f4954 	mcrmi	9, 2, r4, cr15, cr4, {2}
 358:	70005f5f 	andvc	r5, r0, pc, asr pc
 35c:	5f737475 	svcpl	0x00737475
 360:	62007066 	andvs	r7, r0, #102	; 0x66
 364:	00657361 	rsbeq	r7, r5, r1, ror #6
 368:	6e676973 	mcrvs	9, 3, r6, cr7, cr3, {3}
 36c:	705f6465 	subsvc	r6, pc, r5, ror #8
 370:	62696c00 	rsbvs	r6, r9, #0, 24
 374:	61762f63 	cmnvs	r6, r3, ror #30
 378:	6972702d 	ldmdbvs	r2!, {r0, r2, r3, r5, ip, sp, lr}^
 37c:	2e6b746e 	cdpcs	4, 6, cr7, cr11, cr14, {3}
 380:	70720063 	rsbsvc	r0, r2, r3, rrx
 384:	65735f69 	ldrbvs	r5, [r3, #-3945]!	; 0xf69
 388:	756f5f74 	strbvc	r5, [pc, #-3956]!	; fffff41c <__bss_end__+0xffff55f4>
 38c:	74757074 	ldrbtvc	r7, [r5], #-116	; 0x74
 390:	64697700 	strbtvs	r7, [r9], #-1792	; 0x700
 394:	70006874 	andvc	r6, r0, r4, ror r8
 398:	5f637475 	svcpl	0x00637475
 39c:	72007066 	andvc	r7, r0, #102	; 0x66
 3a0:	725f6970 	subsvc	r6, pc, #112, 18	; 0x1c0000
 3a4:	74657365 	strbtvc	r7, [r5], #-869	; 0x365
 3a8:	7475705f 	ldrbtvc	r7, [r5], #-95	; 0x5f
 3ac:	6d650063 	stclvs	0, cr0, [r5, #-396]!	; 0xfffffe74
 3b0:	64007469 	strvs	r7, [r0], #-1129	; 0x469
 3b4:	62617369 	rsbvs	r7, r1, #-1543503871	; 0xa4000001
 3b8:	635f656c 	cmpvs	pc, #108, 10	; 0x1b000000
 3bc:	65686361 	strbvs	r6, [r8, #-865]!	; 0x361
 3c0:	31736300 	cmncc	r3, r0, lsl #6
 3c4:	2d653034 	stclcs	0, cr3, [r5, #-208]!	; 0xffffff30
 3c8:	2f637273 	svccs	0x00637273
 3cc:	68636163 	stmdavs	r3!, {r0, r1, r5, r6, r8, sp, lr}^
 3d0:	00632e65 	rsbeq	r2, r3, r5, ror #28
 3d4:	5f697072 	svcpl	0x00697072
 3d8:	6f626572 	svcvs	0x00626572
 3dc:	6300746f 	movwvs	r7, #1135	; 0x46f
 3e0:	30343173 	eorscc	r3, r4, r3, ror r1
 3e4:	72732d65 	rsbsvc	r2, r3, #6464	; 0x1940
 3e8:	6c632f63 	stclvs	15, cr2, [r3], #-396	; 0xfffffe74
 3ec:	2d6e6165 	stfcse	f6, [lr, #-404]!	; 0xfffffe6c
 3f0:	6f626572 	svcvs	0x00626572
 3f4:	632e746f 	teqvs	lr, #1862270976	; 0x6f000000
 3f8:	6c656400 	cfstrdvs	mvd6, [r5], #-0
 3fc:	6d5f7961 	ldclvs	9, cr7, [pc, #-388]	; 280 <_start-0x7d80>
 400:	6e690073 	mcrvs	0, 3, r0, cr9, cr3, {3}
 404:	6e726574 	mrcvs	5, 3, r6, cr2, cr4, {3}
 408:	735f6c61 	cmpvc	pc, #24832	; 0x6100
 40c:	75705f77 	ldrbvc	r5, [r0, #-3959]!	; 0xf77
 410:	61686374 	smcvs	34356	; 0x8634
 414:	5f5f0072 	svcpl	0x005f0072
 418:	5f737362 	svcpl	0x00737362
 41c:	72617473 	rsbvc	r7, r1, #1929379840	; 0x73000000
 420:	005f5f74 	subseq	r5, pc, r4, ror pc	; <UNPREDICTABLE>
 424:	5f737362 	svcpl	0x00737362
 428:	00646e65 	rsbeq	r6, r4, r5, ror #28
 42c:	6c637963 	stclvs	9, cr7, [r3], #-396	; 0xfffffe74
 430:	65705f65 	ldrbvs	r5, [r0, #-3941]!	; 0xf65
 434:	69625f72 	stmdbvs	r2!, {r1, r4, r5, r6, r8, r9, sl, fp, ip, lr}^
 438:	6f630074 	svcvs	0x00630074
 43c:	6c6f736e 	stclvs	3, cr7, [pc], #-440	; 28c <_start-0x7d74>
 440:	61755f65 	cmnvs	r5, r5, ror #30
 444:	73007472 	movwvc	r7, #1138	; 0x472
 448:	61755f77 	cmnvs	r5, r7, ror pc
 44c:	705f7472 	subsvc	r7, pc, r2, ror r4	; <UNPREDICTABLE>
 450:	746e6972 	strbtvc	r6, [lr], #-2418	; 0x972
 454:	5550006b 	ldrbpl	r0, [r0, #-107]	; 0x6b
 458:	455f4354 	ldrbmi	r4, [pc, #-852]	; 10c <_start-0x7ef4>
 45c:	555f5053 	ldrbpl	r5, [pc, #-83]	; 411 <_start-0x7bef>
 460:	00545241 	subseq	r5, r4, r1, asr #4
 464:	755f7773 	ldrbvc	r7, [pc, #-1907]	; fffffcf9 <__bss_end__+0xffff5ed1>
 468:	5f747261 	svcpl	0x00747261
 46c:	55500074 	ldrbpl	r0, [r0, #-116]	; 0x74
 470:	535f4354 	cmppl	pc, #84, 6	; 0x50000001
 474:	41555f57 	cmpmi	r5, r7, asr pc
 478:	62005452 	andvs	r5, r0, #1375731712	; 0x52000000
 47c:	00647561 	rsbeq	r7, r4, r1, ror #10
 480:	43545550 	cmpmi	r4, #80, 10	; 0x14000000
 484:	5f57485f 	svcpl	0x0057485f
 488:	54524155 	ldrbpl	r4, [r2], #-341	; 0x155
 48c:	73635f00 	cmnvc	r3, #0, 30
 490:	74726174 	ldrbtvc	r6, [r2], #-372	; 0x174
 494:	72617500 	rsbvc	r7, r1, #0, 10
 498:	65645f74 	strbvs	r5, [r4, #-3956]!	; 0xf74
 49c:	00745f76 	rsbseq	r5, r4, r6, ror pc
 4a0:	755f7773 	ldrbvc	r7, [pc, #-1907]	; fffffd35 <__bss_end__+0xffff5f0d>
 4a4:	5f747261 	svcpl	0x00747261
 4a8:	63747570 	cmnvs	r4, #112, 10	; 0x1c000000
 4ac:	6e697500 	cdpvs	5, 6, cr7, cr9, cr0, {0}
 4b0:	745f3874 	ldrbvc	r3, [pc], #-2164	; 4b8 <_start-0x7b48>
 4b4:	6e6f6300 	cdpvs	3, 6, cr6, cr15, cr0, {0}
 4b8:	6c6f7274 	sfmvs	f7, 2, [pc], #-464	; 2f0 <_start-0x7d10>
 4bc:	6b6c625f 	blvs	1b18e40 <__bss_end__+0x1b0f018>
 4c0:	7300745f 	movwvc	r7, #1119	; 0x45f
 4c4:	61755f77 	cmnvs	r5, r7, ror pc
 4c8:	63007472 	movwvs	r7, #1138	; 0x472
 4cc:	65675f62 	strbvs	r5, [r7, #-3938]!	; 0xf62
 4d0:	6c625f74 	stclvs	15, cr5, [r2], #-464	; 0xfffffe30
 4d4:	006b636f 	rsbeq	r6, fp, pc, ror #6
 4d8:	73625f5f 	cmnvc	r2, #380	; 0x17c
 4dc:	6e655f73 	mcrvs	15, 3, r5, cr5, cr3, {3}
 4e0:	005f5f64 	subseq	r5, pc, r4, ror #30
 4e4:	34317363 	ldrtcc	r7, [r1], #-867	; 0x363
 4e8:	732d6530 	teqvc	sp, #48, 10	; 0xc000000
 4ec:	632f6372 	teqvs	pc, #-939524095	; 0xc8000001
 4f0:	72617473 	rsbvc	r7, r1, #1929379840	; 0x73000000
 4f4:	00632e74 	rsbeq	r2, r3, r4, ror lr
 4f8:	736e6f63 	cmnvc	lr, #396	; 0x18c
 4fc:	5f656c6f 	svcpl	0x00656c6f
 500:	00766564 	rsbseq	r6, r6, r4, ror #10
 504:	746e6975 	strbtvc	r6, [lr], #-2421	; 0x975
 508:	745f3233 	ldrbvc	r3, [pc], #-563	; 510 <_start-0x7af0>
 50c:	67616d00 	strbvs	r6, [r1, -r0, lsl #26]!
 510:	61006369 	tstvs	r0, r9, ror #6
 514:	73755f74 	cmnvc	r5, #116, 30	; 0x1d0
 518:	6c5f7265 	lfmvs	f7, 2, [pc], {101}	; 0x65
 51c:	6c657665 	stclvs	6, cr7, [r5], #-404	; 0xfffffe6c
 520:	5f4d5000 	svcpl	0x004d5000
 524:	53534150 	cmppl	r3, #80, 2
 528:	44524f57 	ldrbmi	r4, [r2], #-3927	; 0xf57
 52c:	31736300 	cmncc	r3, r0, lsl #6
 530:	2d653034 	stclcs	0, cr3, [r5, #-208]!	; 0xffffff30
 534:	2f637273 	svccs	0x00637273
 538:	6f626572 	svcvs	0x00626572
 53c:	632e746f 	teqvs	lr, #1862270976	; 0x6f000000
 540:	5f4d5000 	svcpl	0x004d5000
 544:	43545352 	cmpmi	r4, #1207959553	; 0x48000001
 548:	4352575f 	cmpmi	r2, #24903680	; 0x17c0000
 54c:	465f4746 	ldrbmi	r4, [pc], -r6, asr #14
 550:	5f4c4c55 	svcpl	0x004c4c55
 554:	45534552 	ldrbmi	r4, [r3, #-1362]	; 0x552
 558:	4d500054 	ldclmi	0, cr0, [r0, #-336]	; 0xfffffeb0
 55c:	4f44575f 	svcmi	0x0044575f
 560:	65730047 	ldrbvs	r0, [r3, #-71]!	; 0x47
 564:	73755f74 	cmnvc	r5, #116, 30	; 0x1d0
 568:	6c5f7265 	lfmvs	f7, 2, [pc], {101}	; 0x65
 56c:	6c657665 	stclvs	6, cr7, [r5], #-404	; 0xfffffe6c
 570:	54555000 	ldrbpl	r5, [r5], #-0
 574:	50003233 	andpl	r3, r0, r3, lsr r2
 578:	53525f4d 	cmppl	r2, #308	; 0x134
 57c:	63004354 	movwvs	r4, #852	; 0x354
 580:	00727370 	rsbseq	r7, r2, r0, ror r3
 584:	656d6974 	strbvs	r6, [sp, #-2420]!	; 0x974
 588:	65675f72 	strbvs	r5, [r7, #-3954]!	; 0xf72
 58c:	73755f74 	cmnvc	r5, #116, 30	; 0x1d0
 590:	725f6365 	subsvc	r6, pc, #-1811939327	; 0x94000001
 594:	64007761 	strvs	r7, [r0], #-1889	; 0x761
 598:	79616c65 	stmdbvc	r1!, {r0, r2, r5, r6, sl, fp, sp, lr}^
 59c:	6365735f 	cmnvs	r5, #2080374785	; 0x7c000001
 5a0:	31736300 	cmncc	r3, r0, lsl #6
 5a4:	2d653034 	stclcs	0, cr3, [r5, #-208]!	; 0xffffff30
 5a8:	2f637273 	svccs	0x00637273
 5ac:	656d6974 	strbvs	r6, [sp, #-2420]!	; 0x974
 5b0:	00632e72 	rsbeq	r2, r3, r2, ror lr
 5b4:	33544547 	cmpcc	r4, #297795584	; 0x11c00000
 5b8:	69740032 	ldmdbvs	r4!, {r1, r4, r5}^
 5bc:	00736b63 	rsbseq	r6, r3, r3, ror #22
 5c0:	616c6564 	cmnvs	ip, r4, ror #10
 5c4:	79635f79 	stmdbvc	r3!, {r0, r3, r4, r5, r6, r8, r9, sl, fp, ip, lr}^
 5c8:	73656c63 	cmnvc	r5, #25344	; 0x6300
 5cc:	6c656400 	cfstrdvs	mvd6, [r5], #-0
 5d0:	755f7961 	ldrbvc	r7, [pc, #-2401]	; fffffc77 <__bss_end__+0xffff5e4f>
 5d4:	69740073 	ldmdbvs	r4!, {r0, r1, r4, r5, r6}^
 5d8:	5f72656d 	svcpl	0x0072656d
 5dc:	5f746567 	svcpl	0x00746567
 5e0:	63657375 	cmnvs	r5, #-738197503	; 0xd4000001
 5e4:	69706700 	ldmdbvs	r0!, {r8, r9, sl, sp, lr}^
 5e8:	76655f6f 	strbtvc	r5, [r5], -pc, ror #30
 5ec:	5f746e65 	svcpl	0x00746e65
 5f0:	65746564 	ldrbvs	r6, [r4, #-1380]!	; 0x564
 5f4:	64657463 	strbtvs	r7, [r5], #-1123	; 0x463
 5f8:	414e4500 	cmpmi	lr, r0, lsl #10
 5fc:	5f454c42 	svcpl	0x00454c42
 600:	53515249 	cmppl	r1, #-1879048188	; 0x90000004
 604:	6900325f 	stmdbvs	r0, {r0, r1, r2, r3, r4, r6, r9, ip, sp}
 608:	70675f73 	rsbvc	r5, r7, r3, ror pc
 60c:	695f6f69 	ldmdbvs	pc, {r0, r3, r5, r6, r8, r9, sl, fp, sp, lr}^	; <UNPREDICTABLE>
 610:	4700746e 	strmi	r7, [r0, -lr, ror #8]
 614:	5f4f4950 	svcpl	0x004f4950
 618:	434e5546 	movtmi	r5, #58694	; 0xe546
 61c:	504e495f 	subpl	r4, lr, pc, asr r9
 620:	6d005455 	cfstrsvs	mvf5, [r0, #-340]	; 0xfffffeac
 624:	72732d79 	rsbsvc	r2, r3, #7744	; 0x1e40
 628:	70672f63 	rsbvc	r2, r7, r3, ror #30
 62c:	632e6f69 	teqvs	lr, #420	; 0x1a4
 630:	746e6900 	strbtvc	r6, [lr], #-2304	; 0x900
 634:	73616d5f 	cmnvc	r1, #6080	; 0x17c0
 638:	6572006b 	ldrbvs	r0, [r2, #-107]!	; 0x6b
 63c:	74735f67 	ldrbtvc	r5, [r3], #-3943	; 0xf67
 640:	64007461 	strvs	r7, [r0], #-1121	; 0x461
 644:	625f7665 	subsvs	r7, pc, #105906176	; 0x6500000
 648:	69727261 	ldmdbvs	r2!, {r0, r5, r6, r9, ip, sp, lr}^
 64c:	67007265 	strvs	r7, [r0, -r5, ror #4]
 650:	5f6f6970 	svcpl	0x006f6970
 654:	64616572 	strbtvs	r6, [r1], #-1394	; 0x572
 658:	69706700 	ldmdbvs	r0!, {r8, r9, sl, sp, lr}^
 65c:	6e695f6f 	cdpvs	15, 6, cr5, cr9, cr15, {3}
 660:	69725f74 	ldmdbvs	r2!, {r2, r4, r5, r6, r8, r9, sl, fp, ip, lr}^
 664:	676e6973 			; <UNDEFINED> instruction: 0x676e6973
 668:	6764655f 			; <UNDEFINED> instruction: 0x6764655f
 66c:	70670065 	rsbvc	r0, r7, r5, rrx
 670:	735f6f69 	cmpvc	pc, #420	; 0x1a4
 674:	665f7465 	ldrbvs	r7, [pc], -r5, ror #8
 678:	74636e75 	strbtvc	r6, [r3], #-3701	; 0xe75
 67c:	006e6f69 	rsbeq	r6, lr, r9, ror #30
 680:	45525047 	ldrbmi	r5, [r2, #-71]	; 0x47
 684:	4700304e 	strmi	r3, [r0, -lr, asr #32]
 688:	4e455250 	mcrmi	2, 2, r5, cr5, cr0, {2}
 68c:	70670031 	rsbvc	r0, r7, r1, lsr r0
 690:	655f6f69 	ldrbvs	r6, [pc, #-3945]	; fffff72f <__bss_end__+0xffff5907>
 694:	746e6576 	strbtvc	r6, [lr], #-1398	; 0x576
 698:	656c635f 	strbvs	r6, [ip, #-863]!	; 0x35f
 69c:	49007261 	stmdbmi	r0, {r0, r5, r6, r9, ip, sp, lr}
 6a0:	505f5152 	subspl	r5, pc, r2, asr r1	; <UNPREDICTABLE>
 6a4:	49444e45 	stmdbmi	r4, {r0, r2, r6, r9, sl, fp, lr}^
 6a8:	315f474e 	cmpcc	pc, lr, asr #14
 6ac:	51524900 	cmppl	r2, r0, lsl #18
 6b0:	4e45505f 	mcrmi	0, 2, r5, cr5, cr15, {2}
 6b4:	474e4944 	strbmi	r4, [lr, -r4, asr #18]
 6b8:	6600325f 			; <UNDEFINED> instruction: 0x6600325f
 6bc:	00636e75 	rsbeq	r6, r3, r5, ror lr
 6c0:	6f697067 	svcvs	0x00697067
 6c4:	7465735f 	strbtvc	r7, [r5], #-863	; 0x35f
 6c8:	706e695f 	rsbvc	r6, lr, pc, asr r9
 6cc:	67007475 	smlsdxvs	r0, r5, r4, r7
 6d0:	5f6f6970 	svcpl	0x006f6970
 6d4:	67676f74 			; <UNDEFINED> instruction: 0x67676f74
 6d8:	4700656c 	strmi	r6, [r0, -ip, ror #10]
 6dc:	53444550 	movtpl	r4, #17744	; 0x4550
 6e0:	50470030 	subpl	r0, r7, r0, lsr r0
 6e4:	31534445 	cmpcc	r3, r5, asr #8
 6e8:	46504700 	ldrbmi	r4, [r0], -r0, lsl #14
 6ec:	00304e45 	eorseq	r4, r0, r5, asr #28
 6f0:	45465047 	strbmi	r5, [r6, #-71]	; 0x47
 6f4:	4700314e 	strmi	r3, [r0, -lr, asr #2]
 6f8:	5f4f4950 	svcpl	0x004f4950
 6fc:	434e5546 	movtmi	r5, #58694	; 0xe546
 700:	54554f5f 	ldrbpl	r4, [r5], #-3935	; 0xf5f
 704:	00545550 	subseq	r5, r4, r0, asr r5
 708:	33746567 	cmncc	r4, #432013312	; 0x19c00000
 70c:	70670032 	rsbvc	r0, r7, r2, lsr r0
 710:	695f6f69 	ldmdbvs	pc, {r0, r3, r5, r6, r8, r9, sl, fp, sp, lr}^	; <UNPREDICTABLE>
 714:	665f746e 	ldrbvs	r7, [pc], -lr, ror #8
 718:	696c6c61 	stmdbvs	ip!, {r0, r5, r6, sl, fp, sp, lr}^
 71c:	655f676e 	ldrbvs	r6, [pc, #-1902]	; ffffffb6 <__bss_end__+0xffff618e>
 720:	00656764 	rsbeq	r6, r5, r4, ror #14
 724:	6f697067 	svcvs	0x00697067
 728:	6e75665f 	mrcvs	6, 3, r6, cr5, cr15, {2}
 72c:	00745f63 	rsbseq	r5, r4, r3, ror #30
 730:	4f495047 	svcmi	0x00495047
 734:	4e55465f 	mrcmi	6, 2, r4, cr5, cr15, {2}
 738:	4c415f43 	mcrrmi	15, 4, r5, r1, cr3
 73c:	47003054 	smlsdmi	r0, r4, r0, r3
 740:	5f4f4950 	svcpl	0x004f4950
 744:	434e5546 	movtmi	r5, #58694	; 0xe546
 748:	544c415f 	strbpl	r4, [ip], #-351	; 0x15f
 74c:	50470031 	subpl	r0, r7, r1, lsr r0
 750:	465f4f49 	ldrbmi	r4, [pc], -r9, asr #30
 754:	5f434e55 	svcpl	0x00434e55
 758:	32544c41 	subscc	r4, r4, #16640	; 0x4100
 75c:	49504700 	ldmdbmi	r0, {r8, r9, sl, lr}^
 760:	55465f4f 	strbpl	r5, [r6, #-3919]	; 0xf4f
 764:	415f434e 	cmpmi	pc, lr, asr #6
 768:	0033544c 	eorseq	r5, r3, ip, asr #8
 76c:	4f495047 	svcmi	0x00495047
 770:	4e55465f 	mrcmi	6, 2, r4, cr5, cr15, {2}
 774:	4c415f43 	mcrrmi	15, 4, r5, r1, cr3
 778:	47003454 	smlsdmi	r0, r4, r4, r3
 77c:	5f4f4950 	svcpl	0x004f4950
 780:	434e5546 	movtmi	r5, #58694	; 0xe546
 784:	544c415f 	strbpl	r4, [ip], #-351	; 0x15f
 788:	65720035 	ldrbvs	r0, [r2, #-53]!	; 0x35
 78c:	65735f67 	ldrbvs	r5, [r3, #-3943]!	; 0xf67
 790:	7463656c 	strbtvc	r6, [r3], #-1388	; 0x56c
 794:	63796300 	cmnvs	r9, #0, 6
 798:	7265705f 	rsbvc	r7, r5, #95	; 0x5f
 79c:	7469625f 	strbtvc	r6, [r9], #-607	; 0x25f
 7a0:	69727700 	ldmdbvs	r2!, {r8, r9, sl, ip, sp, lr}^
 7a4:	635f6574 	cmpvs	pc, #116, 10	; 0x1d000000
 7a8:	755f6379 	ldrbvc	r6, [pc, #-889]	; 437 <_start-0x7bc9>
 7ac:	6c69746e 	cfstrdvs	mvd7, [r9], #-440	; 0xfffffe48
 7b0:	5f777300 	svcpl	0x00777300
 7b4:	74726175 	ldrbtvc	r6, [r2], #-373	; 0x175
 7b8:	7465675f 	strbtvc	r6, [r5], #-1887	; 0x75f
 7bc:	69745f63 	ldmdbvs	r4!, {r0, r1, r5, r6, r8, r9, sl, fp, ip, lr}^
 7c0:	756f656d 	strbvc	r6, [pc, #-1389]!	; 25b <_start-0x7da5>
 7c4:	77730074 			; <UNDEFINED> instruction: 0x77730074
 7c8:	7261755f 	rsbvc	r7, r1, #398458880	; 0x17c00000
 7cc:	65675f74 	strbvs	r5, [r7, #-3956]!	; 0xf74
 7d0:	755f7374 	ldrbvc	r7, [pc, #-884]	; 464 <_start-0x7b9c>
 7d4:	6c69746e 	cfstrdvs	mvd7, [r9], #-440	; 0xfffffe48
 7d8:	5f777300 	svcpl	0x00777300
 7dc:	74726175 	ldrbtvc	r6, [r2], #-373	; 0x175
 7e0:	7465675f 	strbtvc	r6, [r5], #-1887	; 0x75f
 7e4:	65640063 	strbvs	r0, [r4, #-99]!	; 0x63
 7e8:	65766972 	ldrbvs	r6, [r6, #-2418]!	; 0x972
 7ec:	65640064 	strbvs	r0, [r4, #-100]!	; 0x64
 7f0:	5f79616c 	svcpl	0x0079616c
 7f4:	6379636e 	cmnvs	r9, #-1207959551	; 0xb8000001
 7f8:	0073656c 	rsbseq	r6, r3, ip, ror #10
 7fc:	755f7773 	ldrbvc	r7, [pc, #-1907]	; 91 <_start-0x7f6f>
 800:	5f747261 	svcpl	0x00747261
 804:	74696e69 	strbtvc	r6, [r9], #-3689	; 0xe69
 808:	6c65685f 	stclvs	8, cr6, [r5], #-380	; 0xfffffe84
 80c:	00726570 	rsbseq	r6, r2, r0, ror r5
 810:	656d6974 	strbvs	r6, [sp, #-2420]!	; 0x974
 814:	5f74756f 	svcpl	0x0074756f
 818:	63657375 	cmnvs	r5, #-738197503	; 0xd4000001
 81c:	5f777300 	svcpl	0x00777300
 820:	74726175 	ldrbtvc	r6, [r2], #-373	; 0x175
 824:	7475705f 	ldrbtvc	r7, [r5], #-95	; 0x5f
 828:	796d006b 	stmdbvc	sp!, {r0, r1, r3, r5, r6}^
 82c:	6372732d 	cmnvs	r2, #-1275068416	; 0xb4000000
 830:	2d77732f 	ldclcs	3, cr7, [r7, #-188]!	; 0xffffff44
 834:	74726175 	ldrbtvc	r6, [r2], #-373	; 0x175
 838:	6300632e 	movwvs	r6, #814	; 0x32e
 83c:	5f726168 	svcpl	0x00726168
 840:	73006e69 	movwvc	r6, #3689	; 0xe69
 844:	61755f77 	cmnvs	r5, r7, ror pc
 848:	675f7472 			; <UNDEFINED> instruction: 0x675f7472
 84c:	5f737465 	svcpl	0x00737465
 850:	656d6974 	strbvs	r6, [sp, #-2420]!	; 0x974
 854:	0074756f 	rsbseq	r7, r4, pc, ror #10
 858:	7479626e 	ldrbtvc	r6, [r9], #-622	; 0x26e
 85c:	75007365 	strvc	r7, [r0, #-869]	; 0x365
 860:	5f636573 	svcpl	0x00636573
 864:	656d6974 	strbvs	r6, [sp, #-2420]!	; 0x974
 868:	0074756f 	rsbseq	r7, r4, pc, ror #10
 86c:	755f7773 	ldrbvc	r7, [pc, #-1907]	; 101 <_start-0x7eff>
 870:	5f747261 	svcpl	0x00747261
 874:	73746567 	cmnvc	r4, #432013312	; 0x19c00000
 878:	746e755f 	strbtvc	r7, [lr], #-1375	; 0x55f
 87c:	625f6c69 	subsvs	r6, pc, #26880	; 0x6900
 880:	77006b6c 	strvc	r6, [r0, -ip, ror #22]
 884:	5f746961 	svcpl	0x00746961
 888:	69746e75 	ldmdbvs	r4!, {r0, r2, r4, r5, r6, r9, sl, fp, sp, lr}^
 88c:	73755f6c 	cmnvc	r5, #108, 30	; 0x1b0
 890:	69006365 	stmdbvs	r0, {r0, r2, r5, r6, r8, r9, sp, lr}
 894:	7265746e 	rsbvc	r7, r5, #1845493760	; 0x6e000000
 898:	5f6c616e 	svcpl	0x006c616e
 89c:	63747570 	cmnvs	r4, #112, 10	; 0x1c000000
 8a0:	00726168 	rsbseq	r6, r2, r8, ror #2
 8a4:	6362696c 	cmnvs	r2, #108, 18	; 0x1b0000
 8a8:	7475702f 	ldrbtvc	r7, [r5], #-47	; 0x2f
 8ac:	72616863 	rsbvc	r6, r1, #6488064	; 0x630000
 8b0:	7200632e 	andvc	r6, r0, #-1207959552	; 0xb8000000
 8b4:	735f6970 	cmpvc	pc, #112, 18	; 0x1c0000
 8b8:	705f7465 	subsvc	r7, pc, r5, ror #8
 8bc:	00637475 	rsbeq	r7, r3, r5, ror r4
 8c0:	657a6973 	ldrbvs	r6, [sl, #-2419]!	; 0x973
 8c4:	6d00745f 	cfstrsvs	mvf7, [r0, #-380]	; 0xfffffe84
 8c8:	65736d65 	ldrbvs	r6, [r3, #-3429]!	; 0xd65
 8cc:	62630074 	rsbvs	r0, r3, #116	; 0x74
 8d0:	77656e5f 			; <UNDEFINED> instruction: 0x77656e5f
 8d4:	31736300 	cmncc	r3, r0, lsl #6
 8d8:	2d653034 	stclcs	0, cr3, [r5, #-208]!	; 0xffffff30
 8dc:	2f637273 	svccs	0x00637273
 8e0:	746e6f63 	strbtvc	r6, [lr], #-3939	; 0xf63
 8e4:	2d6c6f72 	stclcs	15, cr6, [ip, #-456]!	; 0xfffffe38
 8e8:	636f6c62 	cmnvs	pc, #25088	; 0x6200
 8ec:	00632e6b 	rsbeq	r2, r3, fp, ror #28
 8f0:	5f585541 	svcpl	0x00585541
 8f4:	4d5f554d 	cfldr64mi	mvdx5, [pc, #-308]	; 7c8 <_start-0x7838>
 8f8:	525f5243 	subspl	r5, pc, #805306372	; 0x30000004
 8fc:	41004745 	tstmi	r0, r5, asr #14
 900:	4d5f5855 	ldclmi	8, cr5, [pc, #-340]	; 7b4 <_start-0x784c>
 904:	4f495f55 	svcmi	0x00495f55
 908:	4745525f 	smlsldmi	r5, r5, pc, r2	; <UNPREDICTABLE>
 90c:	58554100 	ldmdapl	r5, {r8, lr}^
 910:	5f554d5f 	svcpl	0x00554d5f
 914:	5f52534d 	svcpl	0x0052534d
 918:	00474552 	subeq	r4, r7, r2, asr r5
 91c:	74726175 	ldrbtvc	r6, [r2], #-373	; 0x175
 920:	6e61635f 	mcrvs	3, 3, r6, cr1, cr15, {2}
 924:	7465675f 	strbtvc	r6, [r5], #-1887	; 0x75f
 928:	55410063 	strbpl	r0, [r1, #-99]	; 0x63
 92c:	554d5f58 	strbpl	r5, [sp, #-3928]	; 0xf58
 930:	544e435f 	strbpl	r4, [lr], #-863	; 0x35f
 934:	45525f4c 	ldrbmi	r5, [r2, #-3916]	; 0xf4c
 938:	61750047 	cmnvs	r5, r7, asr #32
 93c:	685f7472 	ldmdavs	pc, {r1, r4, r5, r6, sl, ip, sp, lr}^	; <UNPREDICTABLE>
 940:	645f7361 	ldrbvs	r7, [pc], #-865	; 948 <_start-0x76b8>
 944:	00617461 	rsbeq	r7, r1, r1, ror #8
 948:	74726175 	ldrbtvc	r6, [r2], #-373	; 0x175
 94c:	696e695f 	stmdbvs	lr!, {r0, r1, r2, r3, r4, r6, r8, fp, sp, lr}^
 950:	55410074 	strbpl	r0, [r1, #-116]	; 0x74
 954:	554d5f58 	strbpl	r5, [sp, #-3928]	; 0xf58
 958:	5245495f 	subpl	r4, r5, #1556480	; 0x17c000
 95c:	4745525f 	smlsldmi	r5, r5, pc, r2	; <UNPREDICTABLE>
 960:	58554100 	ldmdapl	r5, {r8, lr}^
 964:	5f554d5f 	svcpl	0x00554d5f
 968:	5f524949 	svcpl	0x00524949
 96c:	00474552 	subeq	r4, r7, r2, asr r5
 970:	74726175 	ldrbtvc	r6, [r2], #-373	; 0x175
 974:	6e61635f 	mcrvs	3, 3, r6, cr1, cr15, {2}
 978:	7475705f 	ldrbtvc	r7, [r5], #-95	; 0x5f
 97c:	55410063 	strbpl	r0, [r1, #-99]	; 0x63
 980:	4e455f58 	mcrmi	15, 2, r5, cr5, cr8, {2}
 984:	454c4241 	strbmi	r4, [ip, #-577]	; 0x241
 988:	55410053 	strbpl	r0, [r1, #-83]	; 0x53
 98c:	52495f58 	subpl	r5, r9, #88, 30	; 0x160
 990:	55410051 	strbpl	r0, [r1, #-81]	; 0x51
 994:	554d5f58 	strbpl	r5, [sp, #-3928]	; 0xf58
 998:	5541425f 	strbpl	r4, [r1, #-607]	; 0x25f
 99c:	45525f44 	ldrbmi	r5, [r2, #-3908]	; 0xf44
 9a0:	55410047 	strbpl	r0, [r1, #-71]	; 0x47
 9a4:	554d5f58 	strbpl	r5, [sp, #-3928]	; 0xf58
 9a8:	4154535f 	cmpmi	r4, pc, asr r3
 9ac:	45525f54 	ldrbmi	r5, [r2, #-3924]	; 0xf54
 9b0:	55410047 	strbpl	r0, [r1, #-71]	; 0x47
 9b4:	554d5f58 	strbpl	r5, [sp, #-3928]	; 0xf58
 9b8:	5243535f 	subpl	r5, r3, #2080374785	; 0x7c000001
 9bc:	48435441 	stmdami	r3, {r0, r6, sl, ip, lr}^
 9c0:	2d796d00 	ldclcs	13, cr6, [r9, #-0]
 9c4:	2f637273 	svccs	0x00637273
 9c8:	74726175 	ldrbtvc	r6, [r2], #-373	; 0x175
 9cc:	4100632e 	tstmi	r0, lr, lsr #6
 9d0:	4d5f5855 	ldclmi	8, cr5, [pc, #-340]	; 884 <_start-0x777c>
 9d4:	434c5f55 	movtmi	r5, #53077	; 0xcf55
 9d8:	45525f52 	ldrbmi	r5, [r2, #-3922]	; 0xf52
 9dc:	55410047 	strbpl	r0, [r1, #-71]	; 0x47
 9e0:	554d5f58 	strbpl	r5, [sp, #-3928]	; 0xf58
 9e4:	52534c5f 	subspl	r4, r3, #24320	; 0x5f00
 9e8:	4745525f 	smlsldmi	r5, r5, pc, r2	; <UNPREDICTABLE>
 9ec:	72617500 	rsbvc	r7, r1, #0, 10
 9f0:	65675f74 	strbvs	r5, [r7, #-3956]!	; 0xf74
 9f4:	615f6374 	cmpvs	pc, r4, ror r3	; <UNPREDICTABLE>
 9f8:	636e7973 	cmnvs	lr, #1884160	; 0x1cc000
 9fc:	62696c00 	rsbvs	r6, r9, #0, 24
 a00:	656d2f63 	strbvs	r2, [sp, #-3939]!	; 0xf63
 a04:	7465736d 	strbtvc	r7, [r5], #-877	; 0x36d
 a08:	Address 0x0000000000000a08 is out of bounds.


Disassembly of section .debug_frame:

00000000 <.debug_frame>:
   0:	0000000c 	andeq	r0, r0, ip
   4:	ffffffff 			; <UNDEFINED> instruction: 0xffffffff
   8:	7c020001 	stcvc	0, cr0, [r2], {1}
   c:	000d0c0e 	andeq	r0, sp, lr, lsl #24
  10:	00000024 	andeq	r0, r0, r4, lsr #32
  14:	00000000 	andeq	r0, r0, r0
  18:	00008010 	andeq	r8, r0, r0, lsl r0
  1c:	000000cc 	andeq	r0, r0, ip, asr #1
  20:	84240e42 	strthi	r0, [r4], #-3650	; 0xe42
  24:	86088509 	strhi	r8, [r8], -r9, lsl #10
  28:	88068707 	stmdahi	r6, {r0, r1, r2, r8, r9, sl, pc}
  2c:	8a048905 	bhi	122448 <__bss_end__+0x118620>
  30:	8e028b03 	vmlahi.f64	d8, d2, d3
  34:	300e4401 	andcc	r4, lr, r1, lsl #8
  38:	00000014 	andeq	r0, r0, r4, lsl r0
  3c:	00000000 	andeq	r0, r0, r0
  40:	000080dc 	ldrdeq	r8, [r0], -ip
  44:	00000030 	andeq	r0, r0, r0, lsr r0
  48:	83080e42 	movwhi	r0, #36418	; 0x8e42
  4c:	00018e02 	andeq	r8, r1, r2, lsl #28
  50:	0000000c 	andeq	r0, r0, ip
  54:	ffffffff 			; <UNDEFINED> instruction: 0xffffffff
  58:	7c020001 	stcvc	0, cr0, [r2], {1}
  5c:	000d0c0e 	andeq	r0, sp, lr, lsl #24
  60:	00000024 	andeq	r0, r0, r4, lsr #32
  64:	00000050 	andeq	r0, r0, r0, asr r0
  68:	0000810c 	andeq	r8, r0, ip, lsl #2
  6c:	00000058 	andeq	r0, r0, r8, asr r0
  70:	80100e42 	andshi	r0, r0, r2, asr #28
  74:	82038104 	andhi	r8, r3, #4, 2
  78:	42018302 	andmi	r8, r1, #134217728	; 0x8000000
  7c:	07841c0e 	streq	r1, [r4, lr, lsl #24]
  80:	058e0685 	streq	r0, [lr, #1669]	; 0x685
  84:	00280e42 	eoreq	r0, r8, r2, asr #28
  88:	0000000c 	andeq	r0, r0, ip
  8c:	ffffffff 			; <UNDEFINED> instruction: 0xffffffff
  90:	7c020001 	stcvc	0, cr0, [r2], {1}
  94:	000d0c0e 	andeq	r0, sp, lr, lsl #24
  98:	00000018 	andeq	r0, r0, r8, lsl r0
  9c:	00000088 	andeq	r0, r0, r8, lsl #1
  a0:	00008164 	andeq	r8, r0, r4, ror #2
  a4:	00000034 	andeq	r0, r0, r4, lsr r0
  a8:	83100e42 	tsthi	r0, #1056	; 0x420
  ac:	85038404 	strhi	r8, [r3, #-1028]	; 0x404
  b0:	00018e02 	andeq	r8, r1, r2, lsl #28
  b4:	0000000c 	andeq	r0, r0, ip
  b8:	ffffffff 			; <UNDEFINED> instruction: 0xffffffff
  bc:	7c020001 	stcvc	0, cr0, [r2], {1}
  c0:	000d0c0e 	andeq	r0, sp, lr, lsl #24
  c4:	0000000c 	andeq	r0, r0, ip
  c8:	000000b4 	strheq	r0, [r0], -r4
  cc:	00008198 	muleq	r0, r8, r1
  d0:	00000014 	andeq	r0, r0, r4, lsl r0
  d4:	0000000c 	andeq	r0, r0, ip
  d8:	000000b4 	strheq	r0, [r0], -r4
  dc:	000081ac 	andeq	r8, r0, ip, lsr #3
  e0:	0000002c 	andeq	r0, r0, ip, lsr #32
  e4:	0000000c 	andeq	r0, r0, ip
  e8:	000000b4 	strheq	r0, [r0], -r4
  ec:	000081d8 	ldrdeq	r8, [r0], -r8	; <UNPREDICTABLE>
  f0:	00000040 	andeq	r0, r0, r0, asr #32
  f4:	00000020 	andeq	r0, r0, r0, lsr #32
  f8:	000000b4 	strheq	r0, [r0], -r4
  fc:	00008218 	andeq	r8, r0, r8, lsl r2
 100:	000001a8 	andeq	r0, r0, r8, lsr #3
 104:	84180e42 	ldrhi	r0, [r8], #-3650	; 0xe42
 108:	86058506 	strhi	r8, [r5], -r6, lsl #10
 10c:	88038704 	stmdahi	r3, {r2, r8, r9, sl, pc}
 110:	42018e02 	andmi	r8, r1, #2, 28
 114:	0000600e 	andeq	r6, r0, lr
 118:	00000014 	andeq	r0, r0, r4, lsl r0
 11c:	000000b4 	strheq	r0, [r0], -r4
 120:	000083c0 	andeq	r8, r0, r0, asr #7
 124:	00000068 	andeq	r0, r0, r8, rrx
 128:	8e040e42 	cdphi	14, 0, cr0, cr4, cr2, {2}
 12c:	100e4201 	andne	r4, lr, r1, lsl #4
 130:	00000028 	andeq	r0, r0, r8, lsr #32
 134:	000000b4 	strheq	r0, [r0], -r4
 138:	00008428 	andeq	r8, r0, r8, lsr #8
 13c:	00000294 	muleq	r0, r4, r2
 140:	84240e42 	strthi	r0, [r4], #-3650	; 0xe42
 144:	86088509 	strhi	r8, [r8], -r9, lsl #10
 148:	88068707 	stmdahi	r6, {r0, r1, r2, r8, r9, sl, pc}
 14c:	8a048905 	bhi	122568 <__bss_end__+0x118740>
 150:	8e028b03 	vmlahi.f64	d8, d2, d3
 154:	b00e4201 	andlt	r4, lr, r1, lsl #4
 158:	00000001 	andeq	r0, r0, r1
 15c:	0000000c 	andeq	r0, r0, ip
 160:	ffffffff 			; <UNDEFINED> instruction: 0xffffffff
 164:	7c020001 	stcvc	0, cr0, [r2], {1}
 168:	000d0c0e 	andeq	r0, sp, lr, lsl #24
 16c:	0000000c 	andeq	r0, r0, ip
 170:	0000015c 	andeq	r0, r0, ip, asr r1
 174:	000086bc 			; <UNDEFINED> instruction: 0x000086bc
 178:	00000010 	andeq	r0, r0, r0, lsl r0
 17c:	0000000c 	andeq	r0, r0, ip
 180:	0000015c 	andeq	r0, r0, ip, asr r1
 184:	000086cc 	andeq	r8, r0, ip, asr #13
 188:	00000010 	andeq	r0, r0, r0, lsl r0
 18c:	0000000c 	andeq	r0, r0, ip
 190:	ffffffff 			; <UNDEFINED> instruction: 0xffffffff
 194:	7c020001 	stcvc	0, cr0, [r2], {1}
 198:	000d0c0e 	andeq	r0, sp, lr, lsl #24
 19c:	00000014 	andeq	r0, r0, r4, lsl r0
 1a0:	0000018c 	andeq	r0, r0, ip, lsl #3
 1a4:	000086dc 	ldrdeq	r8, [r0], -ip
 1a8:	00000028 	andeq	r0, r0, r8, lsr #32
 1ac:	83080e42 	movwhi	r0, #36418	; 0x8e42
 1b0:	00018e02 	andeq	r8, r1, r2, lsl #28
 1b4:	0000000c 	andeq	r0, r0, ip
 1b8:	ffffffff 			; <UNDEFINED> instruction: 0xffffffff
 1bc:	7c020001 	stcvc	0, cr0, [r2], {1}
 1c0:	000d0c0e 	andeq	r0, sp, lr, lsl #24
 1c4:	00000014 	andeq	r0, r0, r4, lsl r0
 1c8:	000001b4 			; <UNDEFINED> instruction: 0x000001b4
 1cc:	00008704 	andeq	r8, r0, r4, lsl #14
 1d0:	00000020 	andeq	r0, r0, r0, lsr #32
 1d4:	84080e42 	strhi	r0, [r8], #-3650	; 0xe42
 1d8:	00018e02 	andeq	r8, r1, r2, lsl #28
 1dc:	00000014 	andeq	r0, r0, r4, lsl r0
 1e0:	000001b4 			; <UNDEFINED> instruction: 0x000001b4
 1e4:	00008724 	andeq	r8, r0, r4, lsr #14
 1e8:	00000090 	muleq	r0, r0, r0
 1ec:	83080e42 	movwhi	r0, #36418	; 0x8e42
 1f0:	00018e02 	andeq	r8, r1, r2, lsl #28
 1f4:	0000000c 	andeq	r0, r0, ip
 1f8:	ffffffff 			; <UNDEFINED> instruction: 0xffffffff
 1fc:	7c020001 	stcvc	0, cr0, [r2], {1}
 200:	000d0c0e 	andeq	r0, sp, lr, lsl #24
 204:	0000000c 	andeq	r0, r0, ip
 208:	000001f4 	strdeq	r0, [r0], -r4
 20c:	000087b4 			; <UNDEFINED> instruction: 0x000087b4
 210:	00000018 	andeq	r0, r0, r8, lsl r0
 214:	0000000c 	andeq	r0, r0, ip
 218:	000001f4 	strdeq	r0, [r0], -r4
 21c:	000087cc 	andeq	r8, r0, ip, asr #15
 220:	00000014 	andeq	r0, r0, r4, lsl r0
 224:	00000014 	andeq	r0, r0, r4, lsl r0
 228:	000001f4 	strdeq	r0, [r0], -r4
 22c:	000087e0 	andeq	r8, r0, r0, ror #15
 230:	00000048 	andeq	r0, r0, r8, asr #32
 234:	83080e42 	movwhi	r0, #36418	; 0x8e42
 238:	00018e02 	andeq	r8, r1, r2, lsl #28
 23c:	0000000c 	andeq	r0, r0, ip
 240:	ffffffff 			; <UNDEFINED> instruction: 0xffffffff
 244:	7c020001 	stcvc	0, cr0, [r2], {1}
 248:	000d0c0e 	andeq	r0, sp, lr, lsl #24
 24c:	0000000c 	andeq	r0, r0, ip
 250:	0000023c 	andeq	r0, r0, ip, lsr r2
 254:	00008828 	andeq	r8, r0, r8, lsr #16
 258:	0000001c 	andeq	r0, r0, ip, lsl r0
 25c:	00000014 	andeq	r0, r0, r4, lsl r0
 260:	0000023c 	andeq	r0, r0, ip, lsr r2
 264:	00008844 	andeq	r8, r0, r4, asr #16
 268:	00000014 	andeq	r0, r0, r4, lsl r0
 26c:	83080e42 	movwhi	r0, #36418	; 0x8e42
 270:	00018e02 	andeq	r8, r1, r2, lsl #28
 274:	00000014 	andeq	r0, r0, r4, lsl r0
 278:	0000023c 	andeq	r0, r0, ip, lsr r2
 27c:	00008858 	andeq	r8, r0, r8, asr r8
 280:	0000000c 	andeq	r0, r0, ip
 284:	83080e42 	movwhi	r0, #36418	; 0x8e42
 288:	00018e02 	andeq	r8, r1, r2, lsl #28
 28c:	00000018 	andeq	r0, r0, r8, lsl r0
 290:	0000023c 	andeq	r0, r0, ip, lsr r2
 294:	00008864 	andeq	r8, r0, r4, ror #16
 298:	00000024 	andeq	r0, r0, r4, lsr #32
 29c:	83100e42 	tsthi	r0, #1056	; 0x420
 2a0:	85038404 	strhi	r8, [r3, #-1028]	; 0x404
 2a4:	00018e02 	andeq	r8, r1, r2, lsl #28
 2a8:	00000014 	andeq	r0, r0, r4, lsl r0
 2ac:	0000023c 	andeq	r0, r0, ip, lsr r2
 2b0:	00008888 	andeq	r8, r0, r8, lsl #17
 2b4:	00000014 	andeq	r0, r0, r4, lsl r0
 2b8:	83080e42 	movwhi	r0, #36418	; 0x8e42
 2bc:	00018e02 	andeq	r8, r1, r2, lsl #28
 2c0:	00000014 	andeq	r0, r0, r4, lsl r0
 2c4:	0000023c 	andeq	r0, r0, ip, lsr r2
 2c8:	0000889c 	muleq	r0, ip, r8
 2cc:	00000014 	andeq	r0, r0, r4, lsl r0
 2d0:	83080e42 	movwhi	r0, #36418	; 0x8e42
 2d4:	00018e02 	andeq	r8, r1, r2, lsl #28
 2d8:	0000000c 	andeq	r0, r0, ip
 2dc:	ffffffff 			; <UNDEFINED> instruction: 0xffffffff
 2e0:	7c020001 	stcvc	0, cr0, [r2], {1}
 2e4:	000d0c0e 	andeq	r0, sp, lr, lsl #24
 2e8:	00000018 	andeq	r0, r0, r8, lsl r0
 2ec:	000002d8 	ldrdeq	r0, [r0], -r8
 2f0:	000088b0 			; <UNDEFINED> instruction: 0x000088b0
 2f4:	000000d4 	ldrdeq	r0, [r0], -r4
 2f8:	83100e42 	tsthi	r0, #1056	; 0x420
 2fc:	85038404 	strhi	r8, [r3, #-1028]	; 0x404
 300:	00018e02 	andeq	r8, r1, r2, lsl #28
 304:	00000014 	andeq	r0, r0, r4, lsl r0
 308:	000002d8 	ldrdeq	r0, [r0], -r8
 30c:	00008984 	andeq	r8, r0, r4, lsl #19
 310:	00000038 	andeq	r0, r0, r8, lsr r0
 314:	83080e42 	movwhi	r0, #36418	; 0x8e42
 318:	00018e02 	andeq	r8, r1, r2, lsl #28
 31c:	00000014 	andeq	r0, r0, r4, lsl r0
 320:	000002d8 	ldrdeq	r0, [r0], -r8
 324:	000089bc 			; <UNDEFINED> instruction: 0x000089bc
 328:	00000038 	andeq	r0, r0, r8, lsr r0
 32c:	83080e42 	movwhi	r0, #36418	; 0x8e42
 330:	00018e02 	andeq	r8, r1, r2, lsl #28
 334:	00000018 	andeq	r0, r0, r8, lsl r0
 338:	000002d8 	ldrdeq	r0, [r0], -r8
 33c:	000089f4 	strdeq	r8, [r0], -r4
 340:	000000cc 	andeq	r0, r0, ip, asr #1
 344:	83100e42 	tsthi	r0, #1056	; 0x420
 348:	85038404 	strhi	r8, [r3, #-1028]	; 0x404
 34c:	00018e02 	andeq	r8, r1, r2, lsl #28
 350:	00000014 	andeq	r0, r0, r4, lsl r0
 354:	000002d8 	ldrdeq	r0, [r0], -r8
 358:	00008ac0 	andeq	r8, r0, r0, asr #21
 35c:	0000004c 	andeq	r0, r0, ip, asr #32
 360:	84080e42 	strhi	r0, [r8], #-3650	; 0xe42
 364:	00018e02 	andeq	r8, r1, r2, lsl #28
 368:	00000014 	andeq	r0, r0, r4, lsl r0
 36c:	000002d8 	ldrdeq	r0, [r0], -r8
 370:	00008b0c 	andeq	r8, r0, ip, lsl #22
 374:	00000024 	andeq	r0, r0, r4, lsr #32
 378:	83080e42 	movwhi	r0, #36418	; 0x8e42
 37c:	00018e02 	andeq	r8, r1, r2, lsl #28
 380:	00000018 	andeq	r0, r0, r8, lsl r0
 384:	000002d8 	ldrdeq	r0, [r0], -r8
 388:	00008b30 	andeq	r8, r0, r0, lsr fp
 38c:	000000d8 	ldrdeq	r0, [r0], -r8
 390:	84100e42 	ldrhi	r0, [r0], #-3650	; 0xe42
 394:	86038504 	strhi	r8, [r3], -r4, lsl #10
 398:	00018e02 	andeq	r8, r1, r2, lsl #28
 39c:	00000014 	andeq	r0, r0, r4, lsl r0
 3a0:	000002d8 	ldrdeq	r0, [r0], -r8
 3a4:	00008c08 	andeq	r8, r0, r8, lsl #24
 3a8:	00000038 	andeq	r0, r0, r8, lsr r0
 3ac:	83080e42 	movwhi	r0, #36418	; 0x8e42
 3b0:	00018e02 	andeq	r8, r1, r2, lsl #28
 3b4:	00000014 	andeq	r0, r0, r4, lsl r0
 3b8:	000002d8 	ldrdeq	r0, [r0], -r8
 3bc:	00008c40 	andeq	r8, r0, r0, asr #24
 3c0:	0000002c 	andeq	r0, r0, ip, lsr #32
 3c4:	83080e42 	movwhi	r0, #36418	; 0x8e42
 3c8:	00018e02 	andeq	r8, r1, r2, lsl #28
 3cc:	00000018 	andeq	r0, r0, r8, lsl r0
 3d0:	000002d8 	ldrdeq	r0, [r0], -r8
 3d4:	00008c6c 	andeq	r8, r0, ip, ror #24
 3d8:	00000084 	andeq	r0, r0, r4, lsl #1
 3dc:	83100e42 	tsthi	r0, #1056	; 0x420
 3e0:	85038404 	strhi	r8, [r3, #-1028]	; 0x404
 3e4:	00018e02 	andeq	r8, r1, r2, lsl #28
 3e8:	00000018 	andeq	r0, r0, r8, lsl r0
 3ec:	000002d8 	ldrdeq	r0, [r0], -r8
 3f0:	00008cf0 	strdeq	r8, [r0], -r0
 3f4:	00000084 	andeq	r0, r0, r4, lsl #1
 3f8:	83100e42 	tsthi	r0, #1056	; 0x420
 3fc:	85038404 	strhi	r8, [r3, #-1028]	; 0x404
 400:	00018e02 	andeq	r8, r1, r2, lsl #28
 404:	00000014 	andeq	r0, r0, r4, lsl r0
 408:	000002d8 	ldrdeq	r0, [r0], -r8
 40c:	00008d74 	andeq	r8, r0, r4, ror sp
 410:	00000084 	andeq	r0, r0, r4, lsl #1
 414:	84080e42 	strhi	r0, [r8], #-3650	; 0xe42
 418:	00018e02 	andeq	r8, r1, r2, lsl #28
 41c:	00000014 	andeq	r0, r0, r4, lsl r0
 420:	000002d8 	ldrdeq	r0, [r0], -r8
 424:	00008df8 	strdeq	r8, [r0], -r8	; <UNPREDICTABLE>
 428:	00000058 	andeq	r0, r0, r8, asr r0
 42c:	84080e42 	strhi	r0, [r8], #-3650	; 0xe42
 430:	00018e02 	andeq	r8, r1, r2, lsl #28
 434:	0000000c 	andeq	r0, r0, ip
 438:	ffffffff 			; <UNDEFINED> instruction: 0xffffffff
 43c:	7c020001 	stcvc	0, cr0, [r2], {1}
 440:	000d0c0e 	andeq	r0, sp, lr, lsl #24
 444:	0000001c 	andeq	r0, r0, ip, lsl r0
 448:	00000434 	andeq	r0, r0, r4, lsr r4
 44c:	00008e50 	andeq	r8, r0, r0, asr lr
 450:	00000154 	andeq	r0, r0, r4, asr r1
 454:	84180e42 	ldrhi	r0, [r8], #-3650	; 0xe42
 458:	86058506 	strhi	r8, [r5], -r6, lsl #10
 45c:	88038704 	stmdahi	r3, {r2, r8, r9, sl, pc}
 460:	00018e02 	andeq	r8, r1, r2, lsl #28
 464:	00000020 	andeq	r0, r0, r0, lsr #32
 468:	00000434 	andeq	r0, r0, r4, lsr r4
 46c:	00008fa4 	andeq	r8, r0, r4, lsr #31
 470:	000001c8 	andeq	r0, r0, r8, asr #3
 474:	83200e42 	teqhi	r0, #1056	; 0x420
 478:	85078408 	strhi	r8, [r7, #-1032]	; 0x408
 47c:	87058606 	strhi	r8, [r5, -r6, lsl #12]
 480:	89038804 	stmdbhi	r3, {r2, fp, pc}
 484:	00018e02 	andeq	r8, r1, r2, lsl #28
 488:	00000024 	andeq	r0, r0, r4, lsr #32
 48c:	00000434 	andeq	r0, r0, r4, lsr r4
 490:	0000916c 	andeq	r9, r0, ip, ror #2
 494:	000000a4 	andeq	r0, r0, r4, lsr #1
 498:	84200e42 	strthi	r0, [r0], #-3650	; 0xe42
 49c:	86078508 	strhi	r8, [r7], -r8, lsl #10
 4a0:	88058706 	stmdahi	r5, {r1, r2, r8, r9, sl, pc}
 4a4:	8a038904 	bhi	e28bc <__bss_end__+0xd8a94>
 4a8:	42018e02 	andmi	r8, r1, #2, 28
 4ac:	0000280e 	andeq	r2, r0, lr, lsl #16
 4b0:	00000020 	andeq	r0, r0, r0, lsr #32
 4b4:	00000434 	andeq	r0, r0, r4, lsr r4
 4b8:	00009210 	andeq	r9, r0, r0, lsl r2
 4bc:	00000090 	muleq	r0, r0, r0
 4c0:	84180e42 	ldrhi	r0, [r8], #-3650	; 0xe42
 4c4:	86058506 	strhi	r8, [r5], -r6, lsl #10
 4c8:	88038704 	stmdahi	r3, {r2, r8, r9, sl, pc}
 4cc:	42018e02 	andmi	r8, r1, #2, 28
 4d0:	0000200e 	andeq	r2, r0, lr
 4d4:	00000020 	andeq	r0, r0, r0, lsr #32
 4d8:	00000434 	andeq	r0, r0, r4, lsr r4
 4dc:	000092a0 	andeq	r9, r0, r0, lsr #5
 4e0:	000000d4 	ldrdeq	r0, [r0], -r4
 4e4:	84180e42 	ldrhi	r0, [r8], #-3650	; 0xe42
 4e8:	86058506 	strhi	r8, [r5], -r6, lsl #10
 4ec:	88038704 	stmdahi	r3, {r2, r8, r9, sl, pc}
 4f0:	42018e02 	andmi	r8, r1, #2, 28
 4f4:	0000200e 	andeq	r2, r0, lr
 4f8:	00000014 	andeq	r0, r0, r4, lsl r0
 4fc:	00000434 	andeq	r0, r0, r4, lsr r4
 500:	00009374 	andeq	r9, r0, r4, ror r3
 504:	0000003c 	andeq	r0, r0, ip, lsr r0
 508:	83080e42 	movwhi	r0, #36418	; 0x8e42
 50c:	00018e02 	andeq	r8, r1, r2, lsl #28
 510:	00000018 	andeq	r0, r0, r8, lsl r0
 514:	00000434 	andeq	r0, r0, r4, lsr r4
 518:	000093b0 			; <UNDEFINED> instruction: 0x000093b0
 51c:	0000002c 	andeq	r0, r0, ip, lsr #32
 520:	83100e42 	tsthi	r0, #1056	; 0x420
 524:	85038404 	strhi	r8, [r3, #-1028]	; 0x404
 528:	00018e02 	andeq	r8, r1, r2, lsl #28
 52c:	00000024 	andeq	r0, r0, r4, lsr #32
 530:	00000434 	andeq	r0, r0, r4, lsr r4
 534:	000093dc 	ldrdeq	r9, [r0], -ip
 538:	00000090 	muleq	r0, r0, r0
 53c:	810c0e42 	tsthi	ip, r2, asr #28
 540:	83028203 	movwhi	r8, #8707	; 0x2203
 544:	180e4201 	stmdane	lr, {r0, r9, lr}
 548:	05850684 	streq	r0, [r5, #1668]	; 0x684
 54c:	0e42048e 	cdpeq	4, 4, cr0, cr2, cr14, {4}
 550:	000003f0 	strdeq	r0, [r0], -r0	; <UNPREDICTABLE>
 554:	00000014 	andeq	r0, r0, r4, lsl r0
 558:	00000434 	andeq	r0, r0, r4, lsr r4
 55c:	0000946c 	andeq	r9, r0, ip, ror #8
 560:	0000004c 	andeq	r0, r0, ip, asr #32
 564:	8e040e42 	cdphi	14, 0, cr0, cr4, cr2, {2}
 568:	100e4201 	andne	r4, lr, r1, lsl #4
 56c:	0000000c 	andeq	r0, r0, ip
 570:	ffffffff 			; <UNDEFINED> instruction: 0xffffffff
 574:	7c020001 	stcvc	0, cr0, [r2], {1}
 578:	000d0c0e 	andeq	r0, sp, lr, lsl #24
 57c:	00000014 	andeq	r0, r0, r4, lsl r0
 580:	0000056c 	andeq	r0, r0, ip, ror #10
 584:	0000951c 	andeq	r9, r0, ip, lsl r5
 588:	00000014 	andeq	r0, r0, r4, lsl r0
 58c:	84080e42 	strhi	r0, [r8], #-3650	; 0xe42
 590:	00018e02 	andeq	r8, r1, r2, lsl #28
 594:	0000000c 	andeq	r0, r0, ip
 598:	0000056c 	andeq	r0, r0, ip, ror #10
 59c:	00009530 	andeq	r9, r0, r0, lsr r5
 5a0:	00000018 	andeq	r0, r0, r8, lsl r0
 5a4:	0000000c 	andeq	r0, r0, ip
 5a8:	0000056c 	andeq	r0, r0, ip, ror #10
 5ac:	00009548 	andeq	r9, r0, r8, asr #10
 5b0:	00000010 	andeq	r0, r0, r0, lsl r0
 5b4:	0000000c 	andeq	r0, r0, ip
 5b8:	ffffffff 			; <UNDEFINED> instruction: 0xffffffff
 5bc:	7c020001 	stcvc	0, cr0, [r2], {1}
 5c0:	000d0c0e 	andeq	r0, sp, lr, lsl #24
 5c4:	00000014 	andeq	r0, r0, r4, lsl r0
 5c8:	000005b4 			; <UNDEFINED> instruction: 0x000005b4
 5cc:	00009558 	andeq	r9, r0, r8, asr r5
 5d0:	00000028 	andeq	r0, r0, r8, lsr #32
 5d4:	83080e42 	movwhi	r0, #36418	; 0x8e42
 5d8:	00018e02 	andeq	r8, r1, r2, lsl #28
 5dc:	0000000c 	andeq	r0, r0, ip
 5e0:	000005b4 			; <UNDEFINED> instruction: 0x000005b4
 5e4:	00009580 	andeq	r9, r0, r0, lsl #11
 5e8:	00000028 	andeq	r0, r0, r8, lsr #32
 5ec:	0000000c 	andeq	r0, r0, ip
 5f0:	ffffffff 			; <UNDEFINED> instruction: 0xffffffff
 5f4:	7c020001 	stcvc	0, cr0, [r2], {1}
 5f8:	000d0c0e 	andeq	r0, sp, lr, lsl #24
 5fc:	00000018 	andeq	r0, r0, r8, lsl r0
 600:	000005ec 	andeq	r0, r0, ip, ror #11
 604:	000095a8 	andeq	r9, r0, r8, lsr #11
 608:	0000009c 	muleq	r0, ip, r0
 60c:	83100e42 	tsthi	r0, #1056	; 0x420
 610:	85038404 	strhi	r8, [r3, #-1028]	; 0x404
 614:	00018e02 	andeq	r8, r1, r2, lsl #28
 618:	00000014 	andeq	r0, r0, r4, lsl r0
 61c:	000005ec 	andeq	r0, r0, ip, ror #11
 620:	00009644 	andeq	r9, r0, r4, asr #12
 624:	0000001c 	andeq	r0, r0, ip, lsl r0
 628:	83080e42 	movwhi	r0, #36418	; 0x8e42
 62c:	00018e02 	andeq	r8, r1, r2, lsl #28
 630:	00000014 	andeq	r0, r0, r4, lsl r0
 634:	000005ec 	andeq	r0, r0, ip, ror #11
 638:	00009660 	andeq	r9, r0, r0, ror #12
 63c:	00000028 	andeq	r0, r0, r8, lsr #32
 640:	83080e42 	movwhi	r0, #36418	; 0x8e42
 644:	00018e02 	andeq	r8, r1, r2, lsl #28
 648:	00000014 	andeq	r0, r0, r4, lsl r0
 64c:	000005ec 	andeq	r0, r0, ip, ror #11
 650:	00009688 	andeq	r9, r0, r8, lsl #13
 654:	0000001c 	andeq	r0, r0, ip, lsl r0
 658:	83080e42 	movwhi	r0, #36418	; 0x8e42
 65c:	00018e02 	andeq	r8, r1, r2, lsl #28
 660:	00000014 	andeq	r0, r0, r4, lsl r0
 664:	000005ec 	andeq	r0, r0, ip, ror #11
 668:	000096a4 	andeq	r9, r0, r4, lsr #13
 66c:	0000002c 	andeq	r0, r0, ip, lsr #32
 670:	84080e42 	strhi	r0, [r8], #-3650	; 0xe42
 674:	00018e02 	andeq	r8, r1, r2, lsl #28
 678:	00000014 	andeq	r0, r0, r4, lsl r0
 67c:	000005ec 	andeq	r0, r0, ip, ror #11
 680:	000096d0 	ldrdeq	r9, [r0], -r0
 684:	0000000c 	andeq	r0, r0, ip
 688:	83080e42 	movwhi	r0, #36418	; 0x8e42
 68c:	00018e02 	andeq	r8, r1, r2, lsl #28
 690:	00000014 	andeq	r0, r0, r4, lsl r0
 694:	000005ec 	andeq	r0, r0, ip, ror #11
 698:	000096dc 	ldrdeq	r9, [r0], -ip
 69c:	00000020 	andeq	r0, r0, r0, lsr #32
 6a0:	83080e42 	movwhi	r0, #36418	; 0x8e42
 6a4:	00018e02 	andeq	r8, r1, r2, lsl #28
 6a8:	0000000c 	andeq	r0, r0, ip
 6ac:	ffffffff 			; <UNDEFINED> instruction: 0xffffffff
 6b0:	7c020001 	stcvc	0, cr0, [r2], {1}
 6b4:	000d0c0e 	andeq	r0, sp, lr, lsl #24
 6b8:	0000000c 	andeq	r0, r0, ip
 6bc:	000006a8 	andeq	r0, r0, r8, lsr #13
 6c0:	000096fc 	strdeq	r9, [r0], -ip
 6c4:	00000020 	andeq	r0, r0, r0, lsr #32
