
hello.elf:     file format elf32-littlearm


Disassembly of section .text:

00008000 <_start>:
    8000:	e3a0d302 	mov	sp, #134217728	; 0x8000000
    8004:	e3a0b000 	mov	fp, #0
    8008:	eb0001be 	bl	8708 <_cstart>
    800c:	eb0001ec 	bl	87c4 <rpi_reboot>

00008010 <hello>:
    8010:	e92d4008 	push	{r3, lr}
    8014:	e59f0004 	ldr	r0, [pc, #4]	; 8020 <hello+0x10>
    8018:	eb00003c 	bl	8110 <printk>
    801c:	e8bd8008 	pop	{r3, pc}
    8020:	00009764 	andeq	r9, r0, r4, ror #14

00008024 <foo>:
    8024:	e92d4008 	push	{r3, lr}
    8028:	e1a01000 	mov	r1, r0
    802c:	e59f0004 	ldr	r0, [pc, #4]	; 8038 <foo+0x14>
    8030:	eb000036 	bl	8110 <printk>
    8034:	eb0001a1 	bl	86c0 <clean_reboot>
    8038:	00009774 	andeq	r9, r0, r4, ror r7

0000803c <notmain>:
    803c:	e92d4070 	push	{r4, r5, r6, lr}
    8040:	e59f309c 	ldr	r3, [pc, #156]	; 80e4 <notmain+0xa8>
    8044:	e59f209c 	ldr	r2, [pc, #156]	; 80e8 <notmain+0xac>
    8048:	e5832000 	str	r2, [r3]
    804c:	e59f2098 	ldr	r2, [pc, #152]	; 80ec <notmain+0xb0>
    8050:	e5832004 	str	r2, [r3, #4]
    8054:	e59f2094 	ldr	r2, [pc, #148]	; 80f0 <notmain+0xb4>
    8058:	e0632002 	rsb	r2, r3, r2
    805c:	e1a02122 	lsr	r2, r2, #2
    8060:	e3c224ff 	bic	r2, r2, #-16777216	; 0xff000000
    8064:	e38224eb 	orr	r2, r2, #-352321536	; 0xeb000000
    8068:	e5832008 	str	r2, [r3, #8]
    806c:	e59f2080 	ldr	r2, [pc, #128]	; 80f4 <notmain+0xb8>
    8070:	e583200c 	str	r2, [r3, #12]
    8074:	e59f207c 	ldr	r2, [pc, #124]	; 80f8 <notmain+0xbc>
    8078:	e5832010 	str	r2, [r3, #16]
    807c:	e59f0078 	ldr	r0, [pc, #120]	; 80fc <notmain+0xc0>
    8080:	eb000022 	bl	8110 <printk>
    8084:	e3a04000 	mov	r4, #0
    8088:	e59f6070 	ldr	r6, [pc, #112]	; 8100 <notmain+0xc4>
    808c:	e59f5050 	ldr	r5, [pc, #80]	; 80e4 <notmain+0xa8>
    8090:	ea000004 	b	80a8 <notmain+0x6c>
    8094:	e1a00006 	mov	r0, r6
    8098:	e1a01004 	mov	r1, r4
    809c:	e7952104 	ldr	r2, [r5, r4, lsl #2]
    80a0:	eb00001a 	bl	8110 <printk>
    80a4:	e2844001 	add	r4, r4, #1
    80a8:	e3540004 	cmp	r4, #4
    80ac:	9afffff8 	bls	8094 <notmain+0x58>
    80b0:	e59f502c 	ldr	r5, [pc, #44]	; 80e4 <notmain+0xa8>
    80b4:	e59f0048 	ldr	r0, [pc, #72]	; 8104 <notmain+0xc8>
    80b8:	e1a01005 	mov	r1, r5
    80bc:	eb000013 	bl	8110 <printk>
    80c0:	e59f4040 	ldr	r4, [pc, #64]	; 8108 <notmain+0xcc>
    80c4:	e1a00004 	mov	r0, r4
    80c8:	eb000010 	bl	8110 <printk>
    80cc:	e12fff35 	blx	r5
    80d0:	e1a00004 	mov	r0, r4
    80d4:	eb00000d 	bl	8110 <printk>
    80d8:	e59f002c 	ldr	r0, [pc, #44]	; 810c <notmain+0xd0>
    80dc:	eb00000b 	bl	8110 <printk>
    80e0:	eb000176 	bl	86c0 <clean_reboot>
    80e4:	00009a20 	andeq	r9, r0, r0, lsr #20
    80e8:	e52de004 	push	{lr}		; (str lr, [sp, #-4]!)
    80ec:	e59f0004 	ldr	r0, [pc, #4]	; 80f8 <notmain+0xbc>
    80f0:	00008100 	andeq	r8, r0, r0, lsl #2
    80f4:	e49df004 	pop	{pc}		; (ldr pc, [sp], #4)
    80f8:	00009764 	andeq	r9, r0, r4, ror #14
    80fc:	00009788 	andeq	r9, r0, r8, lsl #15
    8100:	00009798 	muleq	r0, r8, r7
    8104:	000097a8 	andeq	r9, r0, r8, lsr #15
    8108:	000097bc 			; <UNDEFINED> instruction: 0x000097bc
    810c:	000097e4 	andeq	r9, r0, r4, ror #15

00008110 <printk>:
    8110:	e92d000f 	push	{r0, r1, r2, r3}
    8114:	e92d4030 	push	{r4, r5, lr}
    8118:	e24dd00c 	sub	sp, sp, #12
    811c:	e28d301c 	add	r3, sp, #28
    8120:	e58d3004 	str	r3, [sp, #4]
    8124:	e59f4034 	ldr	r4, [pc, #52]	; 8160 <printk+0x50>
    8128:	e1a00004 	mov	r0, r4
    812c:	e3a01b01 	mov	r1, #1024	; 0x400
    8130:	e59d2018 	ldr	r2, [sp, #24]
    8134:	eb0000bc 	bl	842c <va_printk>
    8138:	e1a05000 	mov	r5, r0
    813c:	e59f3020 	ldr	r3, [pc, #32]	; 8164 <printk+0x54>
    8140:	e5933000 	ldr	r3, [r3]
    8144:	e1a00004 	mov	r0, r4
    8148:	e12fff33 	blx	r3
    814c:	e1a00005 	mov	r0, r5
    8150:	e28dd00c 	add	sp, sp, #12
    8154:	e8bd4030 	pop	{r4, r5, lr}
    8158:	e28dd010 	add	sp, sp, #16
    815c:	e12fff1e 	bx	lr
    8160:	00009a60 	andeq	r9, r0, r0, ror #20
    8164:	000096c8 	andeq	r9, r0, r8, asr #13

00008168 <internal_putk>:
    8168:	e92d4038 	push	{r3, r4, r5, lr}
    816c:	e1a04000 	mov	r4, r0
    8170:	e59f5020 	ldr	r5, [pc, #32]	; 8198 <internal_putk+0x30>
    8174:	ea000002 	b	8184 <internal_putk+0x1c>
    8178:	e5953000 	ldr	r3, [r5]
    817c:	e12fff33 	blx	r3
    8180:	e2844001 	add	r4, r4, #1
    8184:	e5d40000 	ldrb	r0, [r4]
    8188:	e3500000 	cmp	r0, #0
    818c:	1afffff9 	bne	8178 <internal_putk+0x10>
    8190:	e3a00001 	mov	r0, #1
    8194:	e8bd8038 	pop	{r3, r4, r5, pc}
    8198:	0000972c 	andeq	r9, r0, ip, lsr #14

0000819c <isdigit>:
    819c:	e2400030 	sub	r0, r0, #48	; 0x30
    81a0:	e3500009 	cmp	r0, #9
    81a4:	83a00000 	movhi	r0, #0
    81a8:	93a00001 	movls	r0, #1
    81ac:	e12fff1e 	bx	lr

000081b0 <pad>:
    81b0:	e0611000 	rsb	r1, r1, r0
    81b4:	e3a03020 	mov	r3, #32
    81b8:	ea000002 	b	81c8 <pad+0x18>
    81bc:	e5c03000 	strb	r3, [r0]
    81c0:	e2811001 	add	r1, r1, #1
    81c4:	e2800001 	add	r0, r0, #1
    81c8:	e1510002 	cmp	r1, r2
    81cc:	bafffffa 	blt	81bc <pad+0xc>
    81d0:	e3a03000 	mov	r3, #0
    81d4:	e5c03000 	strb	r3, [r0]
    81d8:	e12fff1e 	bx	lr

000081dc <reverse>:
    81dc:	e063c002 	rsb	ip, r3, r2
    81e0:	e28cc001 	add	ip, ip, #1
    81e4:	e15c0001 	cmp	ip, r1
    81e8:	c061100c 	rsbgt	r1, r1, ip
    81ec:	c0833001 	addgt	r3, r3, r1
    81f0:	e2422001 	sub	r2, r2, #1
    81f4:	e1a01000 	mov	r1, r0
    81f8:	ea000002 	b	8208 <reverse+0x2c>
    81fc:	e452c001 	ldrb	ip, [r2], #-1
    8200:	e5c1c000 	strb	ip, [r1]
    8204:	e2811001 	add	r1, r1, #1
    8208:	e1520003 	cmp	r2, r3
    820c:	2afffffa 	bcs	81fc <reverse+0x20>
    8210:	e3a03000 	mov	r3, #0
    8214:	e5c13000 	strb	r3, [r1]
    8218:	e12fff1e 	bx	lr

0000821c <emit>:
    821c:	e92d41f0 	push	{r4, r5, r6, r7, r8, lr}
    8220:	e24dd048 	sub	sp, sp, #72	; 0x48
    8224:	e1a05001 	mov	r5, r1
    8228:	e1a04002 	mov	r4, r2
    822c:	e59d2060 	ldr	r2, [sp, #96]	; 0x60
    8230:	e1520004 	cmp	r2, r4
    8234:	c2442001 	subgt	r2, r4, #1
    8238:	e1a0c003 	mov	ip, r3
    823c:	e2400002 	sub	r0, r0, #2
    8240:	e350000e 	cmp	r0, #14
    8244:	979ff100 	ldrls	pc, [pc, r0, lsl #2]
    8248:	ea000042 	b	8358 <emit+0x13c>
    824c:	00008330 	andeq	r8, r0, r0, lsr r3
    8250:	00008358 	andeq	r8, r0, r8, asr r3
    8254:	00008358 	andeq	r8, r0, r8, asr r3
    8258:	00008358 	andeq	r8, r0, r8, asr r3
    825c:	00008358 	andeq	r8, r0, r8, asr r3
    8260:	00008358 	andeq	r8, r0, r8, asr r3
    8264:	00008324 	andeq	r8, r0, r4, lsr #6
    8268:	00008358 	andeq	r8, r0, r8, asr r3
    826c:	00008288 	andeq	r8, r0, r8, lsl #5
    8270:	00008358 	andeq	r8, r0, r8, asr r3
    8274:	00008358 	andeq	r8, r0, r8, asr r3
    8278:	00008358 	andeq	r8, r0, r8, asr r3
    827c:	00008358 	andeq	r8, r0, r8, asr r3
    8280:	00008358 	andeq	r8, r0, r8, asr r3
    8284:	000082fc 	strdeq	r8, [r0], -ip
    8288:	e59d1064 	ldr	r1, [sp, #100]	; 0x64
    828c:	e2911000 	adds	r1, r1, #0
    8290:	13a01001 	movne	r1, #1
    8294:	e0111fa3 	ands	r1, r1, r3, lsr #31
    8298:	1263c000 	rsbne	ip, r3, #0
    829c:	13a08001 	movne	r8, #1
    82a0:	03a08000 	moveq	r8, #0
    82a4:	e28d1008 	add	r1, sp, #8
    82a8:	e59f70f4 	ldr	r7, [pc, #244]	; 83a4 <emit+0x188>
    82ac:	e59f60f4 	ldr	r6, [pc, #244]	; 83a8 <emit+0x18c>
    82b0:	ea000000 	b	82b8 <emit+0x9c>
    82b4:	e1a01003 	mov	r1, r3
    82b8:	e2813001 	add	r3, r1, #1
    82bc:	e08e0c97 	umull	r0, lr, r7, ip
    82c0:	e1a0e1ae 	lsr	lr, lr, #3
    82c4:	e1a0000e 	mov	r0, lr
    82c8:	e08ee10e 	add	lr, lr, lr, lsl #2
    82cc:	e1a0e08e 	lsl	lr, lr, #1
    82d0:	e06ee00c 	rsb	lr, lr, ip
    82d4:	e7d6c00e 	ldrb	ip, [r6, lr]
    82d8:	e5c1c000 	strb	ip, [r1]
    82dc:	e1a0c000 	mov	ip, r0
    82e0:	e3500000 	cmp	r0, #0
    82e4:	1afffff2 	bne	82b4 <emit+0x98>
    82e8:	e3580000 	cmp	r8, #0
    82ec:	12813002 	addne	r3, r1, #2
    82f0:	13a0002d 	movne	r0, #45	; 0x2d
    82f4:	15c10001 	strbne	r0, [r1, #1]
    82f8:	ea00001f 	b	837c <emit+0x160>
    82fc:	e28de008 	add	lr, sp, #8
    8300:	e59f00a4 	ldr	r0, [pc, #164]	; 83ac <emit+0x190>
    8304:	e28e3001 	add	r3, lr, #1
    8308:	e20c100f 	and	r1, ip, #15
    830c:	e7d01001 	ldrb	r1, [r0, r1]
    8310:	e5ce1000 	strb	r1, [lr]
    8314:	e1a0e003 	mov	lr, r3
    8318:	e1b0c22c 	lsrs	ip, ip, #4
    831c:	1afffff8 	bne	8304 <emit+0xe8>
    8320:	ea000015 	b	837c <emit+0x160>
    8324:	e5cd3008 	strb	r3, [sp, #8]
    8328:	e28d3009 	add	r3, sp, #9
    832c:	ea000012 	b	837c <emit+0x160>
    8330:	e28de008 	add	lr, sp, #8
    8334:	e59f0074 	ldr	r0, [pc, #116]	; 83b0 <emit+0x194>
    8338:	e28e3001 	add	r3, lr, #1
    833c:	e20c1001 	and	r1, ip, #1
    8340:	e7d01001 	ldrb	r1, [r0, r1]
    8344:	e5ce1000 	strb	r1, [lr]
    8348:	e1a0e003 	mov	lr, r3
    834c:	e1b0c0ac 	lsrs	ip, ip, #1
    8350:	1afffff8 	bne	8338 <emit+0x11c>
    8354:	ea000008 	b	837c <emit+0x160>
    8358:	eb000459 	bl	94c4 <rpi_reset_putc>
    835c:	e59f3050 	ldr	r3, [pc, #80]	; 83b4 <emit+0x198>
    8360:	e58d3000 	str	r3, [sp]
    8364:	e59f004c 	ldr	r0, [pc, #76]	; 83b8 <emit+0x19c>
    8368:	e59f104c 	ldr	r1, [pc, #76]	; 83bc <emit+0x1a0>
    836c:	e59f204c 	ldr	r2, [pc, #76]	; 83c0 <emit+0x1a4>
    8370:	e3a03075 	mov	r3, #117	; 0x75
    8374:	ebffff65 	bl	8110 <printk>
    8378:	eb0000d0 	bl	86c0 <clean_reboot>
    837c:	e1a00003 	mov	r0, r3
    8380:	e28d1008 	add	r1, sp, #8
    8384:	ebffff89 	bl	81b0 <pad>
    8388:	e1a02000 	mov	r2, r0
    838c:	e1a00005 	mov	r0, r5
    8390:	e1a01004 	mov	r1, r4
    8394:	e28d3008 	add	r3, sp, #8
    8398:	ebffff8f 	bl	81dc <reverse>
    839c:	e28dd048 	add	sp, sp, #72	; 0x48
    83a0:	e8bd81f0 	pop	{r4, r5, r6, r7, r8, pc}
    83a4:	cccccccd 	stclgt	12, cr12, [ip], {205}	; 0xcd
    83a8:	00009840 	andeq	r9, r0, r0, asr #16
    83ac:	0000984c 	andeq	r9, r0, ip, asr #16
    83b0:	00009860 	andeq	r9, r0, r0, ror #16
    83b4:	0000983c 	andeq	r9, r0, ip, lsr r8
    83b8:	00009814 	andeq	r9, r0, r4, lsl r8
    83bc:	00009828 	andeq	r9, r0, r8, lsr #16
    83c0:	000097f0 	strdeq	r9, [r0], -r0

000083c4 <rpi_set_output>:
    83c4:	e52de004 	push	{lr}		; (str lr, [sp, #-4]!)
    83c8:	e24dd00c 	sub	sp, sp, #12
    83cc:	e3500000 	cmp	r0, #0
    83d0:	1a000008 	bne	83f8 <rpi_set_output+0x34>
    83d4:	eb00043a 	bl	94c4 <rpi_reset_putc>
    83d8:	e59f3034 	ldr	r3, [pc, #52]	; 8414 <rpi_set_output+0x50>
    83dc:	e58d3000 	str	r3, [sp]
    83e0:	e59f0030 	ldr	r0, [pc, #48]	; 8418 <rpi_set_output+0x54>
    83e4:	e59f1030 	ldr	r1, [pc, #48]	; 841c <rpi_set_output+0x58>
    83e8:	e59f2030 	ldr	r2, [pc, #48]	; 8420 <rpi_set_output+0x5c>
    83ec:	e3a03020 	mov	r3, #32
    83f0:	ebffff46 	bl	8110 <printk>
    83f4:	eb0000b1 	bl	86c0 <clean_reboot>
    83f8:	e59f3024 	ldr	r3, [pc, #36]	; 8424 <rpi_set_output+0x60>
    83fc:	e5830000 	str	r0, [r3]
    8400:	e3510000 	cmp	r1, #0
    8404:	159f301c 	ldrne	r3, [pc, #28]	; 8428 <rpi_set_output+0x64>
    8408:	15831000 	strne	r1, [r3]
    840c:	e28dd00c 	add	sp, sp, #12
    8410:	e49df004 	pop	{pc}		; (ldr pc, [sp], #4)
    8414:	00009864 	andeq	r9, r0, r4, ror #16
    8418:	00009814 	andeq	r9, r0, r4, lsl r8
    841c:	00009828 	andeq	r9, r0, r8, lsr #16
    8420:	000097f8 	strdeq	r9, [r0], -r8
    8424:	0000972c 	andeq	r9, r0, ip, lsr #14
    8428:	000096c8 	andeq	r9, r0, r8, asr #13

0000842c <va_printk>:
    842c:	e92d4ff0 	push	{r4, r5, r6, r7, r8, r9, sl, fp, lr}
    8430:	e24dd08c 	sub	sp, sp, #140	; 0x8c
    8434:	e1a0a000 	mov	sl, r0
    8438:	e1a09003 	mov	r9, r3
    843c:	e2411001 	sub	r1, r1, #1
    8440:	e0808001 	add	r8, r0, r1
    8444:	e3a03000 	mov	r3, #0
    8448:	e5c03000 	strb	r3, [r0]
    844c:	e1a04000 	mov	r4, r0
    8450:	e1a0b003 	mov	fp, r3
    8454:	ea000088 	b	867c <va_printk+0x250>
    8458:	e3530025 	cmp	r3, #37	; 0x25
    845c:	12822001 	addne	r2, r2, #1
    8460:	15c43000 	strbne	r3, [r4]
    8464:	12844001 	addne	r4, r4, #1
    8468:	1a000083 	bne	867c <va_printk+0x250>
    846c:	e5d21001 	ldrb	r1, [r2, #1]
    8470:	e3510025 	cmp	r1, #37	; 0x25
    8474:	05c43000 	strbeq	r3, [r4]
    8478:	02822002 	addeq	r2, r2, #2
    847c:	02844001 	addeq	r4, r4, #1
    8480:	0a00007d 	beq	867c <va_printk+0x250>
    8484:	e2826001 	add	r6, r2, #1
    8488:	e1a0700b 	mov	r7, fp
    848c:	ea000004 	b	84a4 <va_printk+0x78>
    8490:	e0877107 	add	r7, r7, r7, lsl #2
    8494:	e1a07087 	lsl	r7, r7, #1
    8498:	e0877005 	add	r7, r7, r5
    849c:	e2477030 	sub	r7, r7, #48	; 0x30
    84a0:	e2866001 	add	r6, r6, #1
    84a4:	e5d65000 	ldrb	r5, [r6]
    84a8:	e1a00005 	mov	r0, r5
    84ac:	ebffff3a 	bl	819c <isdigit>
    84b0:	e3500000 	cmp	r0, #0
    84b4:	1afffff5 	bne	8490 <va_printk+0x64>
    84b8:	e357001f 	cmp	r7, #31
    84bc:	9a000008 	bls	84e4 <va_printk+0xb8>
    84c0:	eb0003ff 	bl	94c4 <rpi_reset_putc>
    84c4:	e59f31dc 	ldr	r3, [pc, #476]	; 86a8 <va_printk+0x27c>
    84c8:	e58d3000 	str	r3, [sp]
    84cc:	e59f01d8 	ldr	r0, [pc, #472]	; 86ac <va_printk+0x280>
    84d0:	e59f11d8 	ldr	r1, [pc, #472]	; 86b0 <va_printk+0x284>
    84d4:	e59f21d8 	ldr	r2, [pc, #472]	; 86b4 <va_printk+0x288>
    84d8:	e3a03092 	mov	r3, #146	; 0x92
    84dc:	ebffff0b 	bl	8110 <printk>
    84e0:	eb000076 	bl	86c0 <clean_reboot>
    84e4:	e2455062 	sub	r5, r5, #98	; 0x62
    84e8:	e3550016 	cmp	r5, #22
    84ec:	979ff105 	ldrls	pc, [pc, r5, lsl #2]
    84f0:	ea00004e 	b	8630 <va_printk+0x204>
    84f4:	000085dc 	ldrdeq	r8, [r0], -ip
    84f8:	0000860c 	andeq	r8, r0, ip, lsl #12
    84fc:	0000856c 	andeq	r8, r0, ip, ror #10
    8500:	00008630 	andeq	r8, r0, r0, lsr r6
    8504:	00008550 	andeq	r8, r0, r0, asr r5
    8508:	00008630 	andeq	r8, r0, r0, lsr r6
    850c:	00008630 	andeq	r8, r0, r0, lsr r6
    8510:	00008630 	andeq	r8, r0, r0, lsr r6
    8514:	00008630 	andeq	r8, r0, r0, lsr r6
    8518:	00008630 	andeq	r8, r0, r0, lsr r6
    851c:	00008630 	andeq	r8, r0, r0, lsr r6
    8520:	00008630 	andeq	r8, r0, r0, lsr r6
    8524:	00008630 	andeq	r8, r0, r0, lsr r6
    8528:	00008630 	andeq	r8, r0, r0, lsr r6
    852c:	000085b8 			; <UNDEFINED> instruction: 0x000085b8
    8530:	00008630 	andeq	r8, r0, r0, lsr r6
    8534:	00008630 	andeq	r8, r0, r0, lsr r6
    8538:	00008600 	andeq	r8, r0, r0, lsl #12
    853c:	00008630 	andeq	r8, r0, r0, lsr r6
    8540:	00008594 	muleq	r0, r4, r5
    8544:	00008630 	andeq	r8, r0, r0, lsr r6
    8548:	00008630 	andeq	r8, r0, r0, lsr r6
    854c:	000085b8 			; <UNDEFINED> instruction: 0x000085b8
    8550:	eb0003db 	bl	94c4 <rpi_reset_putc>
    8554:	e59f015c 	ldr	r0, [pc, #348]	; 86b8 <va_printk+0x28c>
    8558:	e59f1150 	ldr	r1, [pc, #336]	; 86b0 <va_printk+0x284>
    855c:	e59f2150 	ldr	r2, [pc, #336]	; 86b4 <va_printk+0x288>
    8560:	e3a03098 	mov	r3, #152	; 0x98
    8564:	ebfffee9 	bl	8110 <printk>
    8568:	eb000054 	bl	86c0 <clean_reboot>
    856c:	e5993000 	ldr	r3, [r9]
    8570:	e2899004 	add	r9, r9, #4
    8574:	e58d7000 	str	r7, [sp]
    8578:	e3a02001 	mov	r2, #1
    857c:	e58d2004 	str	r2, [sp, #4]
    8580:	e3a0000a 	mov	r0, #10
    8584:	e28d1008 	add	r1, sp, #8
    8588:	e3a02080 	mov	r2, #128	; 0x80
    858c:	ebffff22 	bl	821c <emit>
    8590:	ea00002f 	b	8654 <va_printk+0x228>
    8594:	e5993000 	ldr	r3, [r9]
    8598:	e2899004 	add	r9, r9, #4
    859c:	e58d7000 	str	r7, [sp]
    85a0:	e58db004 	str	fp, [sp, #4]
    85a4:	e3a0000a 	mov	r0, #10
    85a8:	e28d1008 	add	r1, sp, #8
    85ac:	e3a02080 	mov	r2, #128	; 0x80
    85b0:	ebffff19 	bl	821c <emit>
    85b4:	ea000026 	b	8654 <va_printk+0x228>
    85b8:	e5993000 	ldr	r3, [r9]
    85bc:	e2899004 	add	r9, r9, #4
    85c0:	e58d7000 	str	r7, [sp]
    85c4:	e58db004 	str	fp, [sp, #4]
    85c8:	e3a00010 	mov	r0, #16
    85cc:	e28d1008 	add	r1, sp, #8
    85d0:	e3a02080 	mov	r2, #128	; 0x80
    85d4:	ebffff10 	bl	821c <emit>
    85d8:	ea00001d 	b	8654 <va_printk+0x228>
    85dc:	e5993000 	ldr	r3, [r9]
    85e0:	e2899004 	add	r9, r9, #4
    85e4:	e58d7000 	str	r7, [sp]
    85e8:	e58db004 	str	fp, [sp, #4]
    85ec:	e3a00002 	mov	r0, #2
    85f0:	e28d1008 	add	r1, sp, #8
    85f4:	e3a02080 	mov	r2, #128	; 0x80
    85f8:	ebffff07 	bl	821c <emit>
    85fc:	ea000014 	b	8654 <va_printk+0x228>
    8600:	e5990000 	ldr	r0, [r9]
    8604:	e2899004 	add	r9, r9, #4
    8608:	ea000011 	b	8654 <va_printk+0x228>
    860c:	e5993000 	ldr	r3, [r9]
    8610:	e2899004 	add	r9, r9, #4
    8614:	e58d7000 	str	r7, [sp]
    8618:	e58db004 	str	fp, [sp, #4]
    861c:	e3a00008 	mov	r0, #8
    8620:	e08d1000 	add	r1, sp, r0
    8624:	e3a02080 	mov	r2, #128	; 0x80
    8628:	ebfffefb 	bl	821c <emit>
    862c:	ea000008 	b	8654 <va_printk+0x228>
    8630:	eb0003a3 	bl	94c4 <rpi_reset_putc>
    8634:	e5d63000 	ldrb	r3, [r6]
    8638:	e58d3000 	str	r3, [sp]
    863c:	e59f0078 	ldr	r0, [pc, #120]	; 86bc <va_printk+0x290>
    8640:	e59f1068 	ldr	r1, [pc, #104]	; 86b0 <va_printk+0x284>
    8644:	e59f2068 	ldr	r2, [pc, #104]	; 86b4 <va_printk+0x288>
    8648:	e3a030b9 	mov	r3, #185	; 0xb9
    864c:	ebfffeaf 	bl	8110 <printk>
    8650:	eb00001a 	bl	86c0 <clean_reboot>
    8654:	e2862001 	add	r2, r6, #1
    8658:	ea000002 	b	8668 <va_printk+0x23c>
    865c:	e2800001 	add	r0, r0, #1
    8660:	e5c43000 	strb	r3, [r4]
    8664:	e2844001 	add	r4, r4, #1
    8668:	e1540008 	cmp	r4, r8
    866c:	2a000002 	bcs	867c <va_printk+0x250>
    8670:	e5d03000 	ldrb	r3, [r0]
    8674:	e3530000 	cmp	r3, #0
    8678:	1afffff7 	bne	865c <va_printk+0x230>
    867c:	e5d23000 	ldrb	r3, [r2]
    8680:	e3530000 	cmp	r3, #0
    8684:	0a000001 	beq	8690 <va_printk+0x264>
    8688:	e1540008 	cmp	r4, r8
    868c:	3affff71 	bcc	8458 <va_printk+0x2c>
    8690:	e2840001 	add	r0, r4, #1
    8694:	e3a03000 	mov	r3, #0
    8698:	e5c43000 	strb	r3, [r4]
    869c:	e06a0000 	rsb	r0, sl, r0
    86a0:	e28dd08c 	add	sp, sp, #140	; 0x8c
    86a4:	e8bd8ff0 	pop	{r4, r5, r6, r7, r8, r9, sl, fp, pc}
    86a8:	0000986c 	andeq	r9, r0, ip, ror #16
    86ac:	00009814 	andeq	r9, r0, r4, lsl r8
    86b0:	00009828 	andeq	r9, r0, r8, lsr #16
    86b4:	00009808 	andeq	r9, r0, r8, lsl #16
    86b8:	00009878 	andeq	r9, r0, r8, ror r8
    86bc:	000098a0 	andeq	r9, r0, r0, lsr #17

000086c0 <clean_reboot>:
    86c0:	e92d4008 	push	{r3, lr}
    86c4:	e59f3014 	ldr	r3, [pc, #20]	; 86e0 <clean_reboot+0x20>
    86c8:	e5933000 	ldr	r3, [r3]
    86cc:	e59f0010 	ldr	r0, [pc, #16]	; 86e4 <clean_reboot+0x24>
    86d0:	e12fff33 	blx	r3
    86d4:	e3a00064 	mov	r0, #100	; 0x64
    86d8:	eb000063 	bl	886c <delay_ms>
    86dc:	eb000038 	bl	87c4 <rpi_reboot>
    86e0:	000096c8 	andeq	r9, r0, r8, asr #13
    86e4:	000098d8 	ldrdeq	r9, [r0], -r8

000086e8 <internal_sw_putchar>:
    86e8:	e92d4010 	push	{r4, lr}
    86ec:	e1a04000 	mov	r4, r0
    86f0:	e59f000c 	ldr	r0, [pc, #12]	; 8704 <internal_sw_putchar+0x1c>
    86f4:	e6ef1074 	uxtb	r1, r4
    86f8:	eb000065 	bl	8894 <sw_uart_putc>
    86fc:	e1a00004 	mov	r0, r4
    8700:	e8bd8010 	pop	{r4, pc}
    8704:	00009e60 	andeq	r9, r0, r0, ror #28

00008708 <_cstart>:
    8708:	e92d4008 	push	{r3, lr}
    870c:	e59f3068 	ldr	r3, [pc, #104]	; 877c <_cstart+0x74>
    8710:	e59f2068 	ldr	r2, [pc, #104]	; 8780 <_cstart+0x78>
    8714:	e3a01000 	mov	r1, #0
    8718:	ea000001 	b	8724 <_cstart+0x1c>
    871c:	e5831000 	str	r1, [r3]
    8720:	e2833004 	add	r3, r3, #4
    8724:	e1530002 	cmp	r3, r2
    8728:	3afffffb 	bcc	871c <_cstart+0x14>
    872c:	eb000378 	bl	9514 <cb_get_block>
    8730:	e3500000 	cmp	r0, #0
    8734:	0a00000e 	beq	8774 <_cstart+0x6c>
    8738:	e5d02004 	ldrb	r2, [r0, #4]
    873c:	e3520002 	cmp	r2, #2
    8740:	1a00000b 	bne	8774 <_cstart+0x6c>
    8744:	e59f1038 	ldr	r1, [pc, #56]	; 8784 <_cstart+0x7c>
    8748:	e59f2038 	ldr	r2, [pc, #56]	; 8788 <_cstart+0x80>
    874c:	e5821000 	str	r1, [r2]
    8750:	e59fc034 	ldr	ip, [pc, #52]	; 878c <_cstart+0x84>
    8754:	e2803008 	add	r3, r0, #8
    8758:	e8930007 	ldm	r3, {r0, r1, r2}
    875c:	e88c0007 	stm	ip, {r0, r1, r2}
    8760:	e1a0000c 	mov	r0, ip
    8764:	e59f1024 	ldr	r1, [pc, #36]	; 8790 <_cstart+0x88>
    8768:	eb0001ac 	bl	8e20 <sw_uart_printk>
    876c:	e59f0020 	ldr	r0, [pc, #32]	; 8794 <_cstart+0x8c>
    8770:	ebfffe66 	bl	8110 <printk>
    8774:	ebfffe30 	bl	803c <notmain>
    8778:	eb000011 	bl	87c4 <rpi_reboot>
    877c:	00009a20 	andeq	r9, r0, r0, lsr #20
    8780:	00009e70 	andeq	r9, r0, r0, ror lr
    8784:	000086e8 	andeq	r8, r0, r8, ror #13
    8788:	0000972c 	andeq	r9, r0, ip, lsr #14
    878c:	00009e60 	andeq	r9, r0, r0, ror #28
    8790:	000098e4 	andeq	r9, r0, r4, ror #17
    8794:	000097e4 	andeq	r9, r0, r4, ror #15

00008798 <at_user_level>:
    8798:	e10f0000 	mrs	r0, CPSR
    879c:	e200001f 	and	r0, r0, #31
    87a0:	e3500010 	cmp	r0, #16
    87a4:	13a00000 	movne	r0, #0
    87a8:	03a00001 	moveq	r0, #1
    87ac:	e12fff1e 	bx	lr

000087b0 <set_user_level>:
    87b0:	e10f3000 	mrs	r3, CPSR
    87b4:	e3c3301f 	bic	r3, r3, #31
    87b8:	e3833010 	orr	r3, r3, #16
    87bc:	e129f003 	msr	CPSR_fc, r3
    87c0:	e12fff1e 	bx	lr

000087c4 <rpi_reboot>:
    87c4:	e92d4008 	push	{r3, lr}
    87c8:	ebfffff2 	bl	8798 <at_user_level>
    87cc:	e3500000 	cmp	r0, #0
    87d0:	0a000000 	beq	87d8 <rpi_reboot+0x14>
    87d4:	ebfffff5 	bl	87b0 <set_user_level>
    87d8:	e3a0001e 	mov	r0, #30
    87dc:	eb000022 	bl	886c <delay_ms>
    87e0:	e59f0014 	ldr	r0, [pc, #20]	; 87fc <rpi_reboot+0x38>
    87e4:	e59f1014 	ldr	r1, [pc, #20]	; 8800 <rpi_reboot+0x3c>
    87e8:	eb0001c5 	bl	8f04 <PUT32>
    87ec:	e59f0010 	ldr	r0, [pc, #16]	; 8804 <rpi_reboot+0x40>
    87f0:	e59f1010 	ldr	r1, [pc, #16]	; 8808 <rpi_reboot+0x44>
    87f4:	eb0001c2 	bl	8f04 <PUT32>
    87f8:	eafffffe 	b	87f8 <rpi_reboot+0x34>
    87fc:	20100024 	andscs	r0, r0, r4, lsr #32
    8800:	5a000001 	bpl	880c <delay_cycles>
    8804:	2010001c 	andscs	r0, r0, ip, lsl r0
    8808:	5a000020 	bpl	8890 <delay_sec+0x10>

0000880c <delay_cycles>:
    880c:	ea000001 	b	8818 <delay_cycles+0xc>
    8810:	e2811000 	add	r1, r1, #0
    8814:	e1a00003 	mov	r0, r3
    8818:	e2403001 	sub	r3, r0, #1
    881c:	e3500000 	cmp	r0, #0
    8820:	1afffffa 	bne	8810 <delay_cycles+0x4>
    8824:	e12fff1e 	bx	lr

00008828 <timer_get_usec_raw>:
    8828:	e92d4008 	push	{r3, lr}
    882c:	e59f0004 	ldr	r0, [pc, #4]	; 8838 <timer_get_usec_raw+0x10>
    8830:	eb0001bf 	bl	8f34 <GET32>
    8834:	e8bd8008 	pop	{r3, pc}
    8838:	20003004 	andcs	r3, r0, r4

0000883c <timer_get_usec>:
    883c:	e92d4008 	push	{r3, lr}
    8840:	ebfffff8 	bl	8828 <timer_get_usec_raw>
    8844:	e8bd8008 	pop	{r3, pc}

00008848 <delay_us>:
    8848:	e92d4038 	push	{r3, r4, r5, lr}
    884c:	e1a05000 	mov	r5, r0
    8850:	ebfffff9 	bl	883c <timer_get_usec>
    8854:	e1a04000 	mov	r4, r0
    8858:	ebfffff7 	bl	883c <timer_get_usec>
    885c:	e0640000 	rsb	r0, r4, r0
    8860:	e1500005 	cmp	r0, r5
    8864:	3afffffb 	bcc	8858 <delay_us+0x10>
    8868:	e8bd8038 	pop	{r3, r4, r5, pc}

0000886c <delay_ms>:
    886c:	e92d4008 	push	{r3, lr}
    8870:	e3a03ffa 	mov	r3, #1000	; 0x3e8
    8874:	e0000093 	mul	r0, r3, r0
    8878:	ebfffff2 	bl	8848 <delay_us>
    887c:	e8bd8008 	pop	{r3, pc}

00008880 <delay_sec>:
    8880:	e92d4008 	push	{r3, lr}
    8884:	e3a03ffa 	mov	r3, #1000	; 0x3e8
    8888:	e0000093 	mul	r0, r3, r0
    888c:	ebfffff6 	bl	886c <delay_ms>
    8890:	e8bd8008 	pop	{r3, pc}

00008894 <sw_uart_putc>:
    8894:	e92d41f0 	push	{r4, r5, r6, r7, r8, lr}
    8898:	e1a07001 	mov	r7, r1
    889c:	e5d06000 	ldrb	r6, [r0]
    88a0:	e5905008 	ldr	r5, [r0, #8]
    88a4:	ee1f4f3c 	mrc	15, 0, r4, cr15, cr12, {1}
    88a8:	e1a00006 	mov	r0, r6
    88ac:	e3a01000 	mov	r1, #0
    88b0:	eb00023b 	bl	91a4 <gpio_write>
    88b4:	ee1f3f3c 	mrc	15, 0, r3, cr15, cr12, {1}
    88b8:	e0643003 	rsb	r3, r4, r3
    88bc:	e1550003 	cmp	r5, r3
    88c0:	8afffffb 	bhi	88b4 <sw_uart_putc+0x20>
    88c4:	e1a08085 	lsl	r8, r5, #1
    88c8:	e1a00006 	mov	r0, r6
    88cc:	e2071001 	and	r1, r7, #1
    88d0:	eb000233 	bl	91a4 <gpio_write>
    88d4:	ee1f3f3c 	mrc	15, 0, r3, cr15, cr12, {1}
    88d8:	e0643003 	rsb	r3, r4, r3
    88dc:	e1580003 	cmp	r8, r3
    88e0:	8afffffb 	bhi	88d4 <sw_uart_putc+0x40>
    88e4:	e0888005 	add	r8, r8, r5
    88e8:	e1a00006 	mov	r0, r6
    88ec:	e2071002 	and	r1, r7, #2
    88f0:	eb00022b 	bl	91a4 <gpio_write>
    88f4:	ee1f3f3c 	mrc	15, 0, r3, cr15, cr12, {1}
    88f8:	e0643003 	rsb	r3, r4, r3
    88fc:	e1580003 	cmp	r8, r3
    8900:	8afffffb 	bhi	88f4 <sw_uart_putc+0x60>
    8904:	e0888005 	add	r8, r8, r5
    8908:	e1a00006 	mov	r0, r6
    890c:	e2071004 	and	r1, r7, #4
    8910:	eb000223 	bl	91a4 <gpio_write>
    8914:	ee1f3f3c 	mrc	15, 0, r3, cr15, cr12, {1}
    8918:	e0643003 	rsb	r3, r4, r3
    891c:	e1580003 	cmp	r8, r3
    8920:	8afffffb 	bhi	8914 <sw_uart_putc+0x80>
    8924:	e0888005 	add	r8, r8, r5
    8928:	e1a00006 	mov	r0, r6
    892c:	e2071008 	and	r1, r7, #8
    8930:	eb00021b 	bl	91a4 <gpio_write>
    8934:	ee1f3f3c 	mrc	15, 0, r3, cr15, cr12, {1}
    8938:	e0643003 	rsb	r3, r4, r3
    893c:	e1580003 	cmp	r8, r3
    8940:	8afffffb 	bhi	8934 <sw_uart_putc+0xa0>
    8944:	e0888005 	add	r8, r8, r5
    8948:	e1a00006 	mov	r0, r6
    894c:	e2071010 	and	r1, r7, #16
    8950:	eb000213 	bl	91a4 <gpio_write>
    8954:	ee1f3f3c 	mrc	15, 0, r3, cr15, cr12, {1}
    8958:	e0643003 	rsb	r3, r4, r3
    895c:	e1580003 	cmp	r8, r3
    8960:	8afffffb 	bhi	8954 <sw_uart_putc+0xc0>
    8964:	e0888005 	add	r8, r8, r5
    8968:	e1a00006 	mov	r0, r6
    896c:	e2071020 	and	r1, r7, #32
    8970:	eb00020b 	bl	91a4 <gpio_write>
    8974:	ee1f3f3c 	mrc	15, 0, r3, cr15, cr12, {1}
    8978:	e0643003 	rsb	r3, r4, r3
    897c:	e1580003 	cmp	r8, r3
    8980:	8afffffb 	bhi	8974 <sw_uart_putc+0xe0>
    8984:	e0888005 	add	r8, r8, r5
    8988:	e1a00006 	mov	r0, r6
    898c:	e2071040 	and	r1, r7, #64	; 0x40
    8990:	eb000203 	bl	91a4 <gpio_write>
    8994:	ee1f3f3c 	mrc	15, 0, r3, cr15, cr12, {1}
    8998:	e0643003 	rsb	r3, r4, r3
    899c:	e1580003 	cmp	r8, r3
    89a0:	8afffffb 	bhi	8994 <sw_uart_putc+0x100>
    89a4:	e0888005 	add	r8, r8, r5
    89a8:	e1a00006 	mov	r0, r6
    89ac:	e2071080 	and	r1, r7, #128	; 0x80
    89b0:	eb0001fb 	bl	91a4 <gpio_write>
    89b4:	ee1f3f3c 	mrc	15, 0, r3, cr15, cr12, {1}
    89b8:	e0643003 	rsb	r3, r4, r3
    89bc:	e1580003 	cmp	r8, r3
    89c0:	8afffffb 	bhi	89b4 <sw_uart_putc+0x120>
    89c4:	e0885005 	add	r5, r8, r5
    89c8:	e1a00006 	mov	r0, r6
    89cc:	e3a01001 	mov	r1, #1
    89d0:	eb0001f3 	bl	91a4 <gpio_write>
    89d4:	ee1f3f3c 	mrc	15, 0, r3, cr15, cr12, {1}
    89d8:	e0643003 	rsb	r3, r4, r3
    89dc:	e1550003 	cmp	r5, r3
    89e0:	8afffffb 	bhi	89d4 <sw_uart_putc+0x140>
    89e4:	e8bd81f0 	pop	{r4, r5, r6, r7, r8, pc}

000089e8 <sw_uart_getc_timeout>:
    89e8:	e92d43f8 	push	{r3, r4, r5, r6, r7, r8, r9, lr}
    89ec:	e1a09000 	mov	r9, r0
    89f0:	e5d07001 	ldrb	r7, [r0, #1]
    89f4:	e1a05007 	mov	r5, r7
    89f8:	e1a06001 	mov	r6, r1
    89fc:	ebffff89 	bl	8828 <timer_get_usec_raw>
    8a00:	e1a04000 	mov	r4, r0
    8a04:	e1a00005 	mov	r0, r5
    8a08:	eb0001d2 	bl	9158 <gpio_read>
    8a0c:	e3500000 	cmp	r0, #0
    8a10:	0a000005 	beq	8a2c <sw_uart_getc_timeout+0x44>
    8a14:	ebffff83 	bl	8828 <timer_get_usec_raw>
    8a18:	e0640000 	rsb	r0, r4, r0
    8a1c:	e1560000 	cmp	r6, r0
    8a20:	2afffff7 	bcs	8a04 <sw_uart_getc_timeout+0x1c>
    8a24:	e3a03000 	mov	r3, #0
    8a28:	ea000000 	b	8a30 <sw_uart_getc_timeout+0x48>
    8a2c:	e3a03001 	mov	r3, #1
    8a30:	e3530000 	cmp	r3, #0
    8a34:	0a000059 	beq	8ba0 <sw_uart_getc_timeout+0x1b8>
    8a38:	ee1f8f3c 	mrc	15, 0, r8, cr15, cr12, {1}
    8a3c:	e5994008 	ldr	r4, [r9, #8]
    8a40:	e08420a4 	add	r2, r4, r4, lsr #1
    8a44:	ee1f3f3c 	mrc	15, 0, r3, cr15, cr12, {1}
    8a48:	e0683003 	rsb	r3, r8, r3
    8a4c:	e1520003 	cmp	r2, r3
    8a50:	8afffffb 	bhi	8a44 <sw_uart_getc_timeout+0x5c>
    8a54:	e0888004 	add	r8, r8, r4
    8a58:	e1a00007 	mov	r0, r7
    8a5c:	eb0001bd 	bl	9158 <gpio_read>
    8a60:	e1a09750 	asr	r9, r0, r7
    8a64:	ee1f3f3c 	mrc	15, 0, r3, cr15, cr12, {1}
    8a68:	e0683003 	rsb	r3, r8, r3
    8a6c:	e1540003 	cmp	r4, r3
    8a70:	8afffffb 	bhi	8a64 <sw_uart_getc_timeout+0x7c>
    8a74:	e0888004 	add	r8, r8, r4
    8a78:	e1a00007 	mov	r0, r7
    8a7c:	eb0001b5 	bl	9158 <gpio_read>
    8a80:	e1a00750 	asr	r0, r0, r7
    8a84:	e1899080 	orr	r9, r9, r0, lsl #1
    8a88:	ee1f3f3c 	mrc	15, 0, r3, cr15, cr12, {1}
    8a8c:	e0683003 	rsb	r3, r8, r3
    8a90:	e1540003 	cmp	r4, r3
    8a94:	8afffffb 	bhi	8a88 <sw_uart_getc_timeout+0xa0>
    8a98:	e0888004 	add	r8, r8, r4
    8a9c:	e1a00007 	mov	r0, r7
    8aa0:	eb0001ac 	bl	9158 <gpio_read>
    8aa4:	e1a00750 	asr	r0, r0, r7
    8aa8:	e1899100 	orr	r9, r9, r0, lsl #2
    8aac:	ee1f3f3c 	mrc	15, 0, r3, cr15, cr12, {1}
    8ab0:	e0683003 	rsb	r3, r8, r3
    8ab4:	e1540003 	cmp	r4, r3
    8ab8:	8afffffb 	bhi	8aac <sw_uart_getc_timeout+0xc4>
    8abc:	e0888004 	add	r8, r8, r4
    8ac0:	e1a00007 	mov	r0, r7
    8ac4:	eb0001a3 	bl	9158 <gpio_read>
    8ac8:	e1a00750 	asr	r0, r0, r7
    8acc:	e1899180 	orr	r9, r9, r0, lsl #3
    8ad0:	ee1f3f3c 	mrc	15, 0, r3, cr15, cr12, {1}
    8ad4:	e0683003 	rsb	r3, r8, r3
    8ad8:	e1540003 	cmp	r4, r3
    8adc:	8afffffb 	bhi	8ad0 <sw_uart_getc_timeout+0xe8>
    8ae0:	e0888004 	add	r8, r8, r4
    8ae4:	e1a00007 	mov	r0, r7
    8ae8:	eb00019a 	bl	9158 <gpio_read>
    8aec:	e1a00750 	asr	r0, r0, r7
    8af0:	e1899200 	orr	r9, r9, r0, lsl #4
    8af4:	ee1f3f3c 	mrc	15, 0, r3, cr15, cr12, {1}
    8af8:	e0683003 	rsb	r3, r8, r3
    8afc:	e1540003 	cmp	r4, r3
    8b00:	8afffffb 	bhi	8af4 <sw_uart_getc_timeout+0x10c>
    8b04:	e0888004 	add	r8, r8, r4
    8b08:	e1a00007 	mov	r0, r7
    8b0c:	eb000191 	bl	9158 <gpio_read>
    8b10:	e1a00750 	asr	r0, r0, r7
    8b14:	e1899280 	orr	r9, r9, r0, lsl #5
    8b18:	ee1f3f3c 	mrc	15, 0, r3, cr15, cr12, {1}
    8b1c:	e0683003 	rsb	r3, r8, r3
    8b20:	e1540003 	cmp	r4, r3
    8b24:	8afffffb 	bhi	8b18 <sw_uart_getc_timeout+0x130>
    8b28:	e0888004 	add	r8, r8, r4
    8b2c:	e1a00007 	mov	r0, r7
    8b30:	eb000188 	bl	9158 <gpio_read>
    8b34:	e1a00750 	asr	r0, r0, r7
    8b38:	e1899300 	orr	r9, r9, r0, lsl #6
    8b3c:	ee1f3f3c 	mrc	15, 0, r3, cr15, cr12, {1}
    8b40:	e0683003 	rsb	r3, r8, r3
    8b44:	e1540003 	cmp	r4, r3
    8b48:	8afffffb 	bhi	8b3c <sw_uart_getc_timeout+0x154>
    8b4c:	e1a00007 	mov	r0, r7
    8b50:	eb000180 	bl	9158 <gpio_read>
    8b54:	e1a00750 	asr	r0, r0, r7
    8b58:	e1899380 	orr	r9, r9, r0, lsl #7
    8b5c:	ebffff31 	bl	8828 <timer_get_usec_raw>
    8b60:	e1a04000 	mov	r4, r0
    8b64:	e1a00005 	mov	r0, r5
    8b68:	eb00017a 	bl	9158 <gpio_read>
    8b6c:	e3500000 	cmp	r0, #0
    8b70:	0a000005 	beq	8b8c <sw_uart_getc_timeout+0x1a4>
    8b74:	ebffff2b 	bl	8828 <timer_get_usec_raw>
    8b78:	e0640000 	rsb	r0, r4, r0
    8b7c:	e1560000 	cmp	r6, r0
    8b80:	2afffff7 	bcs	8b64 <sw_uart_getc_timeout+0x17c>
    8b84:	e3a03000 	mov	r3, #0
    8b88:	ea000000 	b	8b90 <sw_uart_getc_timeout+0x1a8>
    8b8c:	e3a03001 	mov	r3, #1
    8b90:	e3530000 	cmp	r3, #0
    8b94:	0a000003 	beq	8ba8 <sw_uart_getc_timeout+0x1c0>
    8b98:	e1a00009 	mov	r0, r9
    8b9c:	e8bd83f8 	pop	{r3, r4, r5, r6, r7, r8, r9, pc}
    8ba0:	e3e00000 	mvn	r0, #0
    8ba4:	e8bd83f8 	pop	{r3, r4, r5, r6, r7, r8, r9, pc}
    8ba8:	e3e00000 	mvn	r0, #0
    8bac:	e8bd83f8 	pop	{r3, r4, r5, r6, r7, r8, r9, pc}

00008bb0 <sw_uart_gets_until>:
    8bb0:	e92d47f0 	push	{r4, r5, r6, r7, r8, r9, sl, lr}
    8bb4:	e24dd008 	sub	sp, sp, #8
    8bb8:	e1a08000 	mov	r8, r0
    8bbc:	e1a06001 	mov	r6, r1
    8bc0:	e1a09003 	mov	r9, r3
    8bc4:	e59da028 	ldr	sl, [sp, #40]	; 0x28
    8bc8:	e3520000 	cmp	r2, #0
    8bcc:	1a000008 	bne	8bf4 <sw_uart_gets_until+0x44>
    8bd0:	eb00023b 	bl	94c4 <rpi_reset_putc>
    8bd4:	e59f3068 	ldr	r3, [pc, #104]	; 8c44 <sw_uart_gets_until+0x94>
    8bd8:	e58d3000 	str	r3, [sp]
    8bdc:	e59f0064 	ldr	r0, [pc, #100]	; 8c48 <sw_uart_gets_until+0x98>
    8be0:	e59f1064 	ldr	r1, [pc, #100]	; 8c4c <sw_uart_gets_until+0x9c>
    8be4:	e59f2064 	ldr	r2, [pc, #100]	; 8c50 <sw_uart_gets_until+0xa0>
    8be8:	e3a0306d 	mov	r3, #109	; 0x6d
    8bec:	ebfffd47 	bl	8110 <printk>
    8bf0:	ebfffeb2 	bl	86c0 <clean_reboot>
    8bf4:	e3a04000 	mov	r4, #0
    8bf8:	e5c14000 	strb	r4, [r1]
    8bfc:	e2427001 	sub	r7, r2, #1
    8c00:	ea000007 	b	8c24 <sw_uart_gets_until+0x74>
    8c04:	e1a00008 	mov	r0, r8
    8c08:	e1a0100a 	mov	r1, sl
    8c0c:	ebffff75 	bl	89e8 <sw_uart_getc_timeout>
    8c10:	e6ef0070 	uxtb	r0, r0
    8c14:	e1500009 	cmp	r0, r9
    8c18:	0a000004 	beq	8c30 <sw_uart_gets_until+0x80>
    8c1c:	e7c60005 	strb	r0, [r6, r5]
    8c20:	e2844001 	add	r4, r4, #1
    8c24:	e1a05004 	mov	r5, r4
    8c28:	e1540007 	cmp	r4, r7
    8c2c:	3afffff4 	bcc	8c04 <sw_uart_gets_until+0x54>
    8c30:	e3a03000 	mov	r3, #0
    8c34:	e7c63005 	strb	r3, [r6, r5]
    8c38:	e1a00004 	mov	r0, r4
    8c3c:	e28dd008 	add	sp, sp, #8
    8c40:	e8bd87f0 	pop	{r4, r5, r6, r7, r8, r9, sl, pc}
    8c44:	00009994 	muleq	r0, r4, r9
    8c48:	00009814 	andeq	r9, r0, r4, lsl r8
    8c4c:	00009980 	andeq	r9, r0, r0, lsl #19
    8c50:	00009908 	andeq	r9, r0, r8, lsl #18

00008c54 <sw_uart_gets_timeout>:
    8c54:	e92d41f0 	push	{r4, r5, r6, r7, r8, lr}
    8c58:	e24dd008 	sub	sp, sp, #8
    8c5c:	e1a07000 	mov	r7, r0
    8c60:	e1a05001 	mov	r5, r1
    8c64:	e1a08003 	mov	r8, r3
    8c68:	e3520000 	cmp	r2, #0
    8c6c:	1a000008 	bne	8c94 <sw_uart_gets_timeout+0x40>
    8c70:	eb000213 	bl	94c4 <rpi_reset_putc>
    8c74:	e59f3058 	ldr	r3, [pc, #88]	; 8cd4 <sw_uart_gets_timeout+0x80>
    8c78:	e58d3000 	str	r3, [sp]
    8c7c:	e59f0054 	ldr	r0, [pc, #84]	; 8cd8 <sw_uart_gets_timeout+0x84>
    8c80:	e59f1054 	ldr	r1, [pc, #84]	; 8cdc <sw_uart_gets_timeout+0x88>
    8c84:	e59f2054 	ldr	r2, [pc, #84]	; 8ce0 <sw_uart_gets_timeout+0x8c>
    8c88:	e3a03083 	mov	r3, #131	; 0x83
    8c8c:	ebfffd1f 	bl	8110 <printk>
    8c90:	ebfffe8a 	bl	86c0 <clean_reboot>
    8c94:	e3a04000 	mov	r4, #0
    8c98:	e5c14000 	strb	r4, [r1]
    8c9c:	e2426001 	sub	r6, r2, #1
    8ca0:	ea000004 	b	8cb8 <sw_uart_gets_timeout+0x64>
    8ca4:	e1a00007 	mov	r0, r7
    8ca8:	e1a01008 	mov	r1, r8
    8cac:	ebffff4d 	bl	89e8 <sw_uart_getc_timeout>
    8cb0:	e7c50004 	strb	r0, [r5, r4]
    8cb4:	e2844001 	add	r4, r4, #1
    8cb8:	e1540006 	cmp	r4, r6
    8cbc:	3afffff8 	bcc	8ca4 <sw_uart_gets_timeout+0x50>
    8cc0:	e3a03000 	mov	r3, #0
    8cc4:	e7c53004 	strb	r3, [r5, r4]
    8cc8:	e1a00004 	mov	r0, r4
    8ccc:	e28dd008 	add	sp, sp, #8
    8cd0:	e8bd81f0 	pop	{r4, r5, r6, r7, r8, pc}
    8cd4:	00009994 	muleq	r0, r4, r9
    8cd8:	00009814 	andeq	r9, r0, r4, lsl r8
    8cdc:	00009980 	andeq	r9, r0, r0, lsl #19
    8ce0:	0000991c 	andeq	r9, r0, ip, lsl r9

00008ce4 <sw_uart_init_helper>:
    8ce4:	e92d41f0 	push	{r4, r5, r6, r7, r8, lr}
    8ce8:	e24dd008 	sub	sp, sp, #8
    8cec:	e1a04000 	mov	r4, r0
    8cf0:	e1a06001 	mov	r6, r1
    8cf4:	e1a08002 	mov	r8, r2
    8cf8:	e1a05003 	mov	r5, r3
    8cfc:	e59d7020 	ldr	r7, [sp, #32]
    8d00:	e1a00001 	mov	r0, r1
    8d04:	eb00008f 	bl	8f48 <gpio_set_output>
    8d08:	e1a00008 	mov	r0, r8
    8d0c:	eb0000de 	bl	908c <gpio_set_input>
    8d10:	e3a03001 	mov	r3, #1
    8d14:	ee0f3f1c 	mcr	15, 0, r3, cr15, cr12, {0}
    8d18:	e1a00006 	mov	r0, r6
    8d1c:	e3a01001 	mov	r1, #1
    8d20:	eb00011f 	bl	91a4 <gpio_write>
    8d24:	e0020795 	mul	r2, r5, r7
    8d28:	e59f3074 	ldr	r3, [pc, #116]	; 8da4 <sw_uart_init_helper+0xc0>
    8d2c:	e0653003 	rsb	r3, r5, r3
    8d30:	e1530002 	cmp	r3, r2
    8d34:	8a000005 	bhi	8d50 <sw_uart_init_helper+0x6c>
    8d38:	e59f3064 	ldr	r3, [pc, #100]	; 8da4 <sw_uart_init_helper+0xc0>
    8d3c:	e0853003 	add	r3, r5, r3
    8d40:	e1530002 	cmp	r3, r2
    8d44:	2a000003 	bcs	8d58 <sw_uart_init_helper+0x74>
    8d48:	e3a03000 	mov	r3, #0
    8d4c:	ea000002 	b	8d5c <sw_uart_init_helper+0x78>
    8d50:	e3a03000 	mov	r3, #0
    8d54:	ea000000 	b	8d5c <sw_uart_init_helper+0x78>
    8d58:	e3a03001 	mov	r3, #1
    8d5c:	e3530000 	cmp	r3, #0
    8d60:	1a000008 	bne	8d88 <sw_uart_init_helper+0xa4>
    8d64:	eb0001d6 	bl	94c4 <rpi_reset_putc>
    8d68:	e59f3038 	ldr	r3, [pc, #56]	; 8da8 <sw_uart_init_helper+0xc4>
    8d6c:	e58d3000 	str	r3, [sp]
    8d70:	e59f0034 	ldr	r0, [pc, #52]	; 8dac <sw_uart_init_helper+0xc8>
    8d74:	e59f1034 	ldr	r1, [pc, #52]	; 8db0 <sw_uart_init_helper+0xcc>
    8d78:	e59f2034 	ldr	r2, [pc, #52]	; 8db4 <sw_uart_init_helper+0xd0>
    8d7c:	e3a0309d 	mov	r3, #157	; 0x9d
    8d80:	ebfffce2 	bl	8110 <printk>
    8d84:	ebfffe4d 	bl	86c0 <clean_reboot>
    8d88:	e5c46000 	strb	r6, [r4]
    8d8c:	e5c48001 	strb	r8, [r4, #1]
    8d90:	e5845004 	str	r5, [r4, #4]
    8d94:	e5847008 	str	r7, [r4, #8]
    8d98:	e1a00004 	mov	r0, r4
    8d9c:	e28dd008 	add	sp, sp, #8
    8da0:	e8bd81f0 	pop	{r4, r5, r6, r7, r8, pc}
    8da4:	29b92700 	ldmibcs	r9!, {r8, r9, sl, sp}
    8da8:	000099a0 	andeq	r9, r0, r0, lsr #19
    8dac:	00009814 	andeq	r9, r0, r4, lsl r8
    8db0:	00009980 	andeq	r9, r0, r0, lsl #19
    8db4:	00009934 	andeq	r9, r0, r4, lsr r9

00008db8 <sw_uart_getc>:
    8db8:	e92d4008 	push	{r3, lr}
    8dbc:	e3e01000 	mvn	r1, #0
    8dc0:	ebffff08 	bl	89e8 <sw_uart_getc_timeout>
    8dc4:	e3500000 	cmp	r0, #0
    8dc8:	a8bd8008 	popge	{r3, pc}
    8dcc:	eb0001bc 	bl	94c4 <rpi_reset_putc>
    8dd0:	e59f0010 	ldr	r0, [pc, #16]	; 8de8 <sw_uart_getc+0x30>
    8dd4:	e59f1010 	ldr	r1, [pc, #16]	; 8dec <sw_uart_getc+0x34>
    8dd8:	e59f2010 	ldr	r2, [pc, #16]	; 8df0 <sw_uart_getc+0x38>
    8ddc:	e3a030ac 	mov	r3, #172	; 0xac
    8de0:	ebfffcca 	bl	8110 <printk>
    8de4:	ebfffe35 	bl	86c0 <clean_reboot>
    8de8:	000099d4 	ldrdeq	r9, [r0], -r4
    8dec:	00009980 	andeq	r9, r0, r0, lsl #19
    8df0:	00009948 	andeq	r9, r0, r8, asr #18

00008df4 <sw_uart_putk>:
    8df4:	e92d4038 	push	{r3, r4, r5, lr}
    8df8:	e1a05000 	mov	r5, r0
    8dfc:	e1a04001 	mov	r4, r1
    8e00:	ea000002 	b	8e10 <sw_uart_putk+0x1c>
    8e04:	e1a00005 	mov	r0, r5
    8e08:	ebfffea1 	bl	8894 <sw_uart_putc>
    8e0c:	e2844001 	add	r4, r4, #1
    8e10:	e5d41000 	ldrb	r1, [r4]
    8e14:	e3510000 	cmp	r1, #0
    8e18:	1afffff9 	bne	8e04 <sw_uart_putk+0x10>
    8e1c:	e8bd8038 	pop	{r3, r4, r5, pc}

00008e20 <sw_uart_printk>:
    8e20:	e92d000e 	push	{r1, r2, r3}
    8e24:	e92d4030 	push	{r4, r5, lr}
    8e28:	e24ddf76 	sub	sp, sp, #472	; 0x1d8
    8e2c:	e1a05000 	mov	r5, r0
    8e30:	e28d3f7a 	add	r3, sp, #488	; 0x1e8
    8e34:	e58d3008 	str	r3, [sp, #8]
    8e38:	e28d000c 	add	r0, sp, #12
    8e3c:	e3a01f73 	mov	r1, #460	; 0x1cc
    8e40:	e59d21e4 	ldr	r2, [sp, #484]	; 0x1e4
    8e44:	ebfffd78 	bl	842c <va_printk>
    8e48:	e1a04000 	mov	r4, r0
    8e4c:	e59f3048 	ldr	r3, [pc, #72]	; 8e9c <sw_uart_printk+0x7c>
    8e50:	e1500003 	cmp	r0, r3
    8e54:	9a000008 	bls	8e7c <sw_uart_printk+0x5c>
    8e58:	eb000199 	bl	94c4 <rpi_reset_putc>
    8e5c:	e59f303c 	ldr	r3, [pc, #60]	; 8ea0 <sw_uart_printk+0x80>
    8e60:	e58d3000 	str	r3, [sp]
    8e64:	e59f0038 	ldr	r0, [pc, #56]	; 8ea4 <sw_uart_printk+0x84>
    8e68:	e59f1038 	ldr	r1, [pc, #56]	; 8ea8 <sw_uart_printk+0x88>
    8e6c:	e59f2038 	ldr	r2, [pc, #56]	; 8eac <sw_uart_printk+0x8c>
    8e70:	e3a030c0 	mov	r3, #192	; 0xc0
    8e74:	ebfffca5 	bl	8110 <printk>
    8e78:	ebfffe10 	bl	86c0 <clean_reboot>
    8e7c:	e1a00005 	mov	r0, r5
    8e80:	e28d100c 	add	r1, sp, #12
    8e84:	ebffffda 	bl	8df4 <sw_uart_putk>
    8e88:	e1a00004 	mov	r0, r4
    8e8c:	e28ddf76 	add	sp, sp, #472	; 0x1d8
    8e90:	e8bd4030 	pop	{r4, r5, lr}
    8e94:	e28dd00c 	add	sp, sp, #12
    8e98:	e12fff1e 	bx	lr
    8e9c:	000001ca 	andeq	r0, r0, sl, asr #3
    8ea0:	00009a0c 	andeq	r9, r0, ip, lsl #20
    8ea4:	00009814 	andeq	r9, r0, r4, lsl r8
    8ea8:	00009980 	andeq	r9, r0, r0, lsl #19
    8eac:	00009958 	andeq	r9, r0, r8, asr r9

00008eb0 <sw_uart_gets_until_blk>:
    8eb0:	e52de004 	push	{lr}		; (str lr, [sp, #-4]!)
    8eb4:	e24dd00c 	sub	sp, sp, #12
    8eb8:	e3e0c000 	mvn	ip, #0
    8ebc:	e58dc000 	str	ip, [sp]
    8ec0:	ebffff3a 	bl	8bb0 <sw_uart_gets_until>
    8ec4:	e3500000 	cmp	r0, #0
    8ec8:	aa000006 	bge	8ee8 <sw_uart_gets_until_blk+0x38>
    8ecc:	eb00017c 	bl	94c4 <rpi_reset_putc>
    8ed0:	e59f0018 	ldr	r0, [pc, #24]	; 8ef0 <sw_uart_gets_until_blk+0x40>
    8ed4:	e59f1018 	ldr	r1, [pc, #24]	; 8ef4 <sw_uart_gets_until_blk+0x44>
    8ed8:	e59f2018 	ldr	r2, [pc, #24]	; 8ef8 <sw_uart_gets_until_blk+0x48>
    8edc:	e3a030c8 	mov	r3, #200	; 0xc8
    8ee0:	ebfffc8a 	bl	8110 <printk>
    8ee4:	ebfffdf5 	bl	86c0 <clean_reboot>
    8ee8:	e28dd00c 	add	sp, sp, #12
    8eec:	e49df004 	pop	{pc}		; (ldr pc, [sp], #4)
    8ef0:	000099d4 	ldrdeq	r9, [r0], -r4
    8ef4:	00009980 	andeq	r9, r0, r0, lsl #19
    8ef8:	00009968 	andeq	r9, r0, r8, ror #18

00008efc <put32>:
    8efc:	e5801000 	str	r1, [r0]
    8f00:	e12fff1e 	bx	lr

00008f04 <PUT32>:
    8f04:	e5801000 	str	r1, [r0]
    8f08:	e12fff1e 	bx	lr

00008f0c <put16>:
    8f0c:	e1c010b0 	strh	r1, [r0]
    8f10:	e12fff1e 	bx	lr

00008f14 <PUT16>:
    8f14:	e1c010b0 	strh	r1, [r0]
    8f18:	e12fff1e 	bx	lr

00008f1c <put8>:
    8f1c:	e5c01000 	strb	r1, [r0]
    8f20:	e12fff1e 	bx	lr

00008f24 <PUT8>:
    8f24:	e5c01000 	strb	r1, [r0]
    8f28:	e12fff1e 	bx	lr

00008f2c <get32>:
    8f2c:	e5900000 	ldr	r0, [r0]
    8f30:	e12fff1e 	bx	lr

00008f34 <GET32>:
    8f34:	e5900000 	ldr	r0, [r0]
    8f38:	e12fff1e 	bx	lr

00008f3c <GETPC>:
    8f3c:	e1a0000e 	mov	r0, lr
    8f40:	e12fff1e 	bx	lr

00008f44 <dummy>:
    8f44:	e12fff1e 	bx	lr

00008f48 <gpio_set_output>:
    8f48:	e92d4038 	push	{r3, r4, r5, lr}
    8f4c:	e1a04000 	mov	r4, r0
    8f50:	e350001f 	cmp	r0, #31
    8f54:	88bd8038 	pophi	{r3, r4, r5, pc}
    8f58:	e59f30b4 	ldr	r3, [pc, #180]	; 9014 <gpio_set_output+0xcc>
    8f5c:	e0832093 	umull	r2, r3, r3, r0
    8f60:	e1a031a3 	lsr	r3, r3, #3
    8f64:	e3530005 	cmp	r3, #5
    8f68:	979ff103 	ldrls	pc, [pc, r3, lsl #2]
    8f6c:	ea000017 	b	8fd0 <gpio_set_output+0x88>
    8f70:	00008f88 	andeq	r8, r0, r8, lsl #31
    8f74:	00008f94 	muleq	r0, r4, pc	; <UNPREDICTABLE>
    8f78:	00008fa0 	andeq	r8, r0, r0, lsr #31
    8f7c:	00008fac 	andeq	r8, r0, ip, lsr #31
    8f80:	00008fb8 			; <UNDEFINED> instruction: 0x00008fb8
    8f84:	00008fc4 	andeq	r8, r0, r4, asr #31
    8f88:	e59f3088 	ldr	r3, [pc, #136]	; 9018 <gpio_set_output+0xd0>
    8f8c:	e5935000 	ldr	r5, [r3]
    8f90:	ea00000f 	b	8fd4 <gpio_set_output+0x8c>
    8f94:	e59f307c 	ldr	r3, [pc, #124]	; 9018 <gpio_set_output+0xd0>
    8f98:	e5935004 	ldr	r5, [r3, #4]
    8f9c:	ea00000c 	b	8fd4 <gpio_set_output+0x8c>
    8fa0:	e59f3070 	ldr	r3, [pc, #112]	; 9018 <gpio_set_output+0xd0>
    8fa4:	e5935008 	ldr	r5, [r3, #8]
    8fa8:	ea000009 	b	8fd4 <gpio_set_output+0x8c>
    8fac:	e59f3064 	ldr	r3, [pc, #100]	; 9018 <gpio_set_output+0xd0>
    8fb0:	e593500c 	ldr	r5, [r3, #12]
    8fb4:	ea000006 	b	8fd4 <gpio_set_output+0x8c>
    8fb8:	e59f3058 	ldr	r3, [pc, #88]	; 9018 <gpio_set_output+0xd0>
    8fbc:	e5935010 	ldr	r5, [r3, #16]
    8fc0:	ea000003 	b	8fd4 <gpio_set_output+0x8c>
    8fc4:	e59f304c 	ldr	r3, [pc, #76]	; 9018 <gpio_set_output+0xd0>
    8fc8:	e5935014 	ldr	r5, [r3, #20]
    8fcc:	ea000000 	b	8fd4 <gpio_set_output+0x8c>
    8fd0:	e3a05000 	mov	r5, #0
    8fd4:	e1a00005 	mov	r0, r5
    8fd8:	ebffffd3 	bl	8f2c <get32>
    8fdc:	e59f1030 	ldr	r1, [pc, #48]	; 9014 <gpio_set_output+0xcc>
    8fe0:	e0813491 	umull	r3, r1, r1, r4
    8fe4:	e1a011a1 	lsr	r1, r1, #3
    8fe8:	e0811101 	add	r1, r1, r1, lsl #2
    8fec:	e1a01081 	lsl	r1, r1, #1
    8ff0:	e0611004 	rsb	r1, r1, r4
    8ff4:	e0811081 	add	r1, r1, r1, lsl #1
    8ff8:	e3a03007 	mov	r3, #7
    8ffc:	e1c03113 	bic	r3, r0, r3, lsl r1
    9000:	e1a00005 	mov	r0, r5
    9004:	e3a02001 	mov	r2, #1
    9008:	e1831112 	orr	r1, r3, r2, lsl r1
    900c:	ebffffba 	bl	8efc <put32>
    9010:	e8bd8038 	pop	{r3, r4, r5, pc}
    9014:	cccccccd 	stclgt	12, cr12, [ip], {205}	; 0xcd
    9018:	000096cc 	andeq	r9, r0, ip, asr #13

0000901c <gpio_set_on>:
    901c:	e92d4008 	push	{r3, lr}
    9020:	e350001f 	cmp	r0, #31
    9024:	88bd8008 	pophi	{r3, pc}
    9028:	959f3020 	ldrls	r3, [pc, #32]	; 9050 <gpio_set_on+0x34>
    902c:	95932018 	ldrls	r2, [r3, #24]
    9030:	859f3018 	ldrhi	r3, [pc, #24]	; 9050 <gpio_set_on+0x34>
    9034:	8593201c 	ldrhi	r2, [r3, #28]
    9038:	e200301f 	and	r3, r0, #31
    903c:	e1a00002 	mov	r0, r2
    9040:	e3a01001 	mov	r1, #1
    9044:	e1a01311 	lsl	r1, r1, r3
    9048:	ebffffab 	bl	8efc <put32>
    904c:	e8bd8008 	pop	{r3, pc}
    9050:	000096cc 	andeq	r9, r0, ip, asr #13

00009054 <gpio_set_off>:
    9054:	e92d4008 	push	{r3, lr}
    9058:	e350001f 	cmp	r0, #31
    905c:	88bd8008 	pophi	{r3, pc}
    9060:	959f3020 	ldrls	r3, [pc, #32]	; 9088 <gpio_set_off+0x34>
    9064:	95932020 	ldrls	r2, [r3, #32]
    9068:	859f3018 	ldrhi	r3, [pc, #24]	; 9088 <gpio_set_off+0x34>
    906c:	85932024 	ldrhi	r2, [r3, #36]	; 0x24
    9070:	e200301f 	and	r3, r0, #31
    9074:	e1a00002 	mov	r0, r2
    9078:	e3a01001 	mov	r1, #1
    907c:	e1a01311 	lsl	r1, r1, r3
    9080:	ebffff9d 	bl	8efc <put32>
    9084:	e8bd8008 	pop	{r3, pc}
    9088:	000096cc 	andeq	r9, r0, ip, asr #13

0000908c <gpio_set_input>:
    908c:	e92d4038 	push	{r3, r4, r5, lr}
    9090:	e1a04000 	mov	r4, r0
    9094:	e350001f 	cmp	r0, #31
    9098:	88bd8038 	pophi	{r3, r4, r5, pc}
    909c:	e59f30ac 	ldr	r3, [pc, #172]	; 9150 <gpio_set_input+0xc4>
    90a0:	e0832093 	umull	r2, r3, r3, r0
    90a4:	e1a031a3 	lsr	r3, r3, #3
    90a8:	e3530005 	cmp	r3, #5
    90ac:	979ff103 	ldrls	pc, [pc, r3, lsl #2]
    90b0:	ea000017 	b	9114 <gpio_set_input+0x88>
    90b4:	000090cc 	andeq	r9, r0, ip, asr #1
    90b8:	000090d8 	ldrdeq	r9, [r0], -r8
    90bc:	000090e4 	andeq	r9, r0, r4, ror #1
    90c0:	000090f0 	strdeq	r9, [r0], -r0
    90c4:	000090fc 	strdeq	r9, [r0], -ip
    90c8:	00009108 	andeq	r9, r0, r8, lsl #2
    90cc:	e59f3080 	ldr	r3, [pc, #128]	; 9154 <gpio_set_input+0xc8>
    90d0:	e5935000 	ldr	r5, [r3]
    90d4:	ea00000f 	b	9118 <gpio_set_input+0x8c>
    90d8:	e59f3074 	ldr	r3, [pc, #116]	; 9154 <gpio_set_input+0xc8>
    90dc:	e5935004 	ldr	r5, [r3, #4]
    90e0:	ea00000c 	b	9118 <gpio_set_input+0x8c>
    90e4:	e59f3068 	ldr	r3, [pc, #104]	; 9154 <gpio_set_input+0xc8>
    90e8:	e5935008 	ldr	r5, [r3, #8]
    90ec:	ea000009 	b	9118 <gpio_set_input+0x8c>
    90f0:	e59f305c 	ldr	r3, [pc, #92]	; 9154 <gpio_set_input+0xc8>
    90f4:	e593500c 	ldr	r5, [r3, #12]
    90f8:	ea000006 	b	9118 <gpio_set_input+0x8c>
    90fc:	e59f3050 	ldr	r3, [pc, #80]	; 9154 <gpio_set_input+0xc8>
    9100:	e5935010 	ldr	r5, [r3, #16]
    9104:	ea000003 	b	9118 <gpio_set_input+0x8c>
    9108:	e59f3044 	ldr	r3, [pc, #68]	; 9154 <gpio_set_input+0xc8>
    910c:	e5935014 	ldr	r5, [r3, #20]
    9110:	ea000000 	b	9118 <gpio_set_input+0x8c>
    9114:	e3a05000 	mov	r5, #0
    9118:	e1a00005 	mov	r0, r5
    911c:	ebffff82 	bl	8f2c <get32>
    9120:	e59f1028 	ldr	r1, [pc, #40]	; 9150 <gpio_set_input+0xc4>
    9124:	e0813491 	umull	r3, r1, r1, r4
    9128:	e1a011a1 	lsr	r1, r1, #3
    912c:	e0811101 	add	r1, r1, r1, lsl #2
    9130:	e1a01081 	lsl	r1, r1, #1
    9134:	e0611004 	rsb	r1, r1, r4
    9138:	e0811081 	add	r1, r1, r1, lsl #1
    913c:	e3a03007 	mov	r3, #7
    9140:	e1c01113 	bic	r1, r0, r3, lsl r1
    9144:	e1a00005 	mov	r0, r5
    9148:	ebffff6b 	bl	8efc <put32>
    914c:	e8bd8038 	pop	{r3, r4, r5, pc}
    9150:	cccccccd 	stclgt	12, cr12, [ip], {205}	; 0xcd
    9154:	000096cc 	andeq	r9, r0, ip, asr #13

00009158 <gpio_read>:
    9158:	e92d4010 	push	{r4, lr}
    915c:	e1a04000 	mov	r4, r0
    9160:	e350001f 	cmp	r0, #31
    9164:	8a00000b 	bhi	9198 <gpio_read+0x40>
    9168:	8a000003 	bhi	917c <gpio_read+0x24>
    916c:	e59f302c 	ldr	r3, [pc, #44]	; 91a0 <gpio_read+0x48>
    9170:	e5930028 	ldr	r0, [r3, #40]	; 0x28
    9174:	ebffff6c 	bl	8f2c <get32>
    9178:	ea000002 	b	9188 <gpio_read+0x30>
    917c:	e59f301c 	ldr	r3, [pc, #28]	; 91a0 <gpio_read+0x48>
    9180:	e593002c 	ldr	r0, [r3, #44]	; 0x2c
    9184:	ebffff68 	bl	8f2c <get32>
    9188:	e204401f 	and	r4, r4, #31
    918c:	e3a03001 	mov	r3, #1
    9190:	e0000413 	and	r0, r0, r3, lsl r4
    9194:	e8bd8010 	pop	{r4, pc}
    9198:	e3e00000 	mvn	r0, #0
    919c:	e8bd8010 	pop	{r4, pc}
    91a0:	000096cc 	andeq	r9, r0, ip, asr #13

000091a4 <gpio_write>:
    91a4:	e92d4008 	push	{r3, lr}
    91a8:	e350001f 	cmp	r0, #31
    91ac:	88bd8008 	pophi	{r3, pc}
    91b0:	e3510000 	cmp	r1, #0
    91b4:	0a000001 	beq	91c0 <gpio_write+0x1c>
    91b8:	ebffff97 	bl	901c <gpio_set_on>
    91bc:	e8bd8008 	pop	{r3, pc}
    91c0:	ebffffa3 	bl	9054 <gpio_set_off>
    91c4:	e8bd8008 	pop	{r3, pc}

000091c8 <gpio_set_function>:
    91c8:	e92d4070 	push	{r4, r5, r6, lr}
    91cc:	e1a04000 	mov	r4, r0
    91d0:	e1a05001 	mov	r5, r1
    91d4:	e3510007 	cmp	r1, #7
    91d8:	9350001f 	cmpls	r0, #31
    91dc:	88bd8070 	pophi	{r4, r5, r6, pc}
    91e0:	e59f30b0 	ldr	r3, [pc, #176]	; 9298 <gpio_set_function+0xd0>
    91e4:	e0832093 	umull	r2, r3, r3, r0
    91e8:	e1a031a3 	lsr	r3, r3, #3
    91ec:	e3530005 	cmp	r3, #5
    91f0:	979ff103 	ldrls	pc, [pc, r3, lsl #2]
    91f4:	ea000017 	b	9258 <gpio_set_function+0x90>
    91f8:	00009210 	andeq	r9, r0, r0, lsl r2
    91fc:	0000921c 	andeq	r9, r0, ip, lsl r2
    9200:	00009228 	andeq	r9, r0, r8, lsr #4
    9204:	00009234 	andeq	r9, r0, r4, lsr r2
    9208:	00009240 	andeq	r9, r0, r0, asr #4
    920c:	0000924c 	andeq	r9, r0, ip, asr #4
    9210:	e59f3084 	ldr	r3, [pc, #132]	; 929c <gpio_set_function+0xd4>
    9214:	e5936000 	ldr	r6, [r3]
    9218:	ea00000f 	b	925c <gpio_set_function+0x94>
    921c:	e59f3078 	ldr	r3, [pc, #120]	; 929c <gpio_set_function+0xd4>
    9220:	e5936004 	ldr	r6, [r3, #4]
    9224:	ea00000c 	b	925c <gpio_set_function+0x94>
    9228:	e59f306c 	ldr	r3, [pc, #108]	; 929c <gpio_set_function+0xd4>
    922c:	e5936008 	ldr	r6, [r3, #8]
    9230:	ea000009 	b	925c <gpio_set_function+0x94>
    9234:	e59f3060 	ldr	r3, [pc, #96]	; 929c <gpio_set_function+0xd4>
    9238:	e593600c 	ldr	r6, [r3, #12]
    923c:	ea000006 	b	925c <gpio_set_function+0x94>
    9240:	e59f3054 	ldr	r3, [pc, #84]	; 929c <gpio_set_function+0xd4>
    9244:	e5936010 	ldr	r6, [r3, #16]
    9248:	ea000003 	b	925c <gpio_set_function+0x94>
    924c:	e59f3048 	ldr	r3, [pc, #72]	; 929c <gpio_set_function+0xd4>
    9250:	e5936014 	ldr	r6, [r3, #20]
    9254:	ea000000 	b	925c <gpio_set_function+0x94>
    9258:	e3a06000 	mov	r6, #0
    925c:	e1a00006 	mov	r0, r6
    9260:	ebffff31 	bl	8f2c <get32>
    9264:	e59f302c 	ldr	r3, [pc, #44]	; 9298 <gpio_set_function+0xd0>
    9268:	e0832493 	umull	r2, r3, r3, r4
    926c:	e1a031a3 	lsr	r3, r3, #3
    9270:	e0833103 	add	r3, r3, r3, lsl #2
    9274:	e1a03083 	lsl	r3, r3, #1
    9278:	e0633004 	rsb	r3, r3, r4
    927c:	e0833083 	add	r3, r3, r3, lsl #1
    9280:	e3a01007 	mov	r1, #7
    9284:	e1c01311 	bic	r1, r0, r1, lsl r3
    9288:	e1a00006 	mov	r0, r6
    928c:	e1811315 	orr	r1, r1, r5, lsl r3
    9290:	ebffff19 	bl	8efc <put32>
    9294:	e8bd8070 	pop	{r4, r5, r6, pc}
    9298:	cccccccd 	stclgt	12, cr12, [ip], {205}	; 0xcd
    929c:	000096cc 	andeq	r9, r0, ip, asr #13

000092a0 <is_gpio_int>:
    92a0:	e92d4008 	push	{r3, lr}
    92a4:	e59f301c 	ldr	r3, [pc, #28]	; 92c8 <is_gpio_int+0x28>
    92a8:	e5930030 	ldr	r0, [r3, #48]	; 0x30
    92ac:	ebffff1e 	bl	8f2c <get32>
    92b0:	e3500000 	cmp	r0, #0
    92b4:	0a000001 	beq	92c0 <is_gpio_int+0x20>
    92b8:	e3a00001 	mov	r0, #1
    92bc:	e8bd8008 	pop	{r3, pc}
    92c0:	e3a00000 	mov	r0, #0
    92c4:	e8bd8008 	pop	{r3, pc}
    92c8:	000096cc 	andeq	r9, r0, ip, asr #13

000092cc <gpio_int_rising_edge>:
    92cc:	e92d4038 	push	{r3, r4, r5, lr}
    92d0:	e1a04000 	mov	r4, r0
    92d4:	e350001f 	cmp	r0, #31
    92d8:	88bd8038 	pophi	{r3, r4, r5, pc}
    92dc:	eb0000eb 	bl	9690 <dev_barrier>
    92e0:	e354001f 	cmp	r4, #31
    92e4:	8a000007 	bhi	9308 <gpio_int_rising_edge+0x3c>
    92e8:	e59f505c 	ldr	r5, [pc, #92]	; 934c <gpio_int_rising_edge+0x80>
    92ec:	e5950034 	ldr	r0, [r5, #52]	; 0x34
    92f0:	ebffff0d 	bl	8f2c <get32>
    92f4:	e3a01001 	mov	r1, #1
    92f8:	e1801411 	orr	r1, r0, r1, lsl r4
    92fc:	e5950034 	ldr	r0, [r5, #52]	; 0x34
    9300:	ebfffefd 	bl	8efc <put32>
    9304:	ea000007 	b	9328 <gpio_int_rising_edge+0x5c>
    9308:	e59f503c 	ldr	r5, [pc, #60]	; 934c <gpio_int_rising_edge+0x80>
    930c:	e5950038 	ldr	r0, [r5, #56]	; 0x38
    9310:	ebffff05 	bl	8f2c <get32>
    9314:	e204401f 	and	r4, r4, #31
    9318:	e3a01001 	mov	r1, #1
    931c:	e1801411 	orr	r1, r0, r1, lsl r4
    9320:	e5950038 	ldr	r0, [r5, #56]	; 0x38
    9324:	ebfffef4 	bl	8efc <put32>
    9328:	eb0000d8 	bl	9690 <dev_barrier>
    932c:	e59f4018 	ldr	r4, [pc, #24]	; 934c <gpio_int_rising_edge+0x80>
    9330:	e594003c 	ldr	r0, [r4, #60]	; 0x3c
    9334:	ebfffefc 	bl	8f2c <get32>
    9338:	e3801802 	orr	r1, r0, #131072	; 0x20000
    933c:	e594003c 	ldr	r0, [r4, #60]	; 0x3c
    9340:	ebfffeed 	bl	8efc <put32>
    9344:	eb0000d1 	bl	9690 <dev_barrier>
    9348:	e8bd8038 	pop	{r3, r4, r5, pc}
    934c:	000096cc 	andeq	r9, r0, ip, asr #13

00009350 <gpio_int_falling_edge>:
    9350:	e92d4038 	push	{r3, r4, r5, lr}
    9354:	e1a04000 	mov	r4, r0
    9358:	e350001f 	cmp	r0, #31
    935c:	88bd8038 	pophi	{r3, r4, r5, pc}
    9360:	eb0000ca 	bl	9690 <dev_barrier>
    9364:	e354001f 	cmp	r4, #31
    9368:	8a000007 	bhi	938c <gpio_int_falling_edge+0x3c>
    936c:	e59f505c 	ldr	r5, [pc, #92]	; 93d0 <gpio_int_falling_edge+0x80>
    9370:	e5950040 	ldr	r0, [r5, #64]	; 0x40
    9374:	ebfffeec 	bl	8f2c <get32>
    9378:	e3a01001 	mov	r1, #1
    937c:	e1801411 	orr	r1, r0, r1, lsl r4
    9380:	e5950040 	ldr	r0, [r5, #64]	; 0x40
    9384:	ebfffedc 	bl	8efc <put32>
    9388:	ea000007 	b	93ac <gpio_int_falling_edge+0x5c>
    938c:	e59f503c 	ldr	r5, [pc, #60]	; 93d0 <gpio_int_falling_edge+0x80>
    9390:	e5950044 	ldr	r0, [r5, #68]	; 0x44
    9394:	ebfffee4 	bl	8f2c <get32>
    9398:	e204401f 	and	r4, r4, #31
    939c:	e3a01001 	mov	r1, #1
    93a0:	e1801411 	orr	r1, r0, r1, lsl r4
    93a4:	e5950044 	ldr	r0, [r5, #68]	; 0x44
    93a8:	ebfffed3 	bl	8efc <put32>
    93ac:	eb0000b7 	bl	9690 <dev_barrier>
    93b0:	e59f4018 	ldr	r4, [pc, #24]	; 93d0 <gpio_int_falling_edge+0x80>
    93b4:	e594003c 	ldr	r0, [r4, #60]	; 0x3c
    93b8:	ebfffedb 	bl	8f2c <get32>
    93bc:	e3801601 	orr	r1, r0, #1048576	; 0x100000
    93c0:	e594003c 	ldr	r0, [r4, #60]	; 0x3c
    93c4:	ebfffecc 	bl	8efc <put32>
    93c8:	eb0000b0 	bl	9690 <dev_barrier>
    93cc:	e8bd8038 	pop	{r3, r4, r5, pc}
    93d0:	000096cc 	andeq	r9, r0, ip, asr #13

000093d4 <gpio_event_detected>:
    93d4:	e92d4010 	push	{r4, lr}
    93d8:	e1a04000 	mov	r4, r0
    93dc:	e350001f 	cmp	r0, #31
    93e0:	8a000019 	bhi	944c <gpio_event_detected+0x78>
    93e4:	eb0000a9 	bl	9690 <dev_barrier>
    93e8:	e354001f 	cmp	r4, #31
    93ec:	8a000008 	bhi	9414 <gpio_event_detected+0x40>
    93f0:	e59f305c 	ldr	r3, [pc, #92]	; 9454 <gpio_event_detected+0x80>
    93f4:	e5930048 	ldr	r0, [r3, #72]	; 0x48
    93f8:	ebfffecb 	bl	8f2c <get32>
    93fc:	e3a03001 	mov	r3, #1
    9400:	e0103413 	ands	r3, r0, r3, lsl r4
    9404:	0a00000d 	beq	9440 <gpio_event_detected+0x6c>
    9408:	eb0000a0 	bl	9690 <dev_barrier>
    940c:	e3a00001 	mov	r0, #1
    9410:	e8bd8010 	pop	{r4, pc}
    9414:	e59f3038 	ldr	r3, [pc, #56]	; 9454 <gpio_event_detected+0x80>
    9418:	e593004c 	ldr	r0, [r3, #76]	; 0x4c
    941c:	ebfffec2 	bl	8f2c <get32>
    9420:	e3a03001 	mov	r3, #1
    9424:	e0004413 	and	r4, r0, r3, lsl r4
    9428:	eb000098 	bl	9690 <dev_barrier>
    942c:	e3540000 	cmp	r4, #0
    9430:	0a000002 	beq	9440 <gpio_event_detected+0x6c>
    9434:	eb000095 	bl	9690 <dev_barrier>
    9438:	e3a00001 	mov	r0, #1
    943c:	e8bd8010 	pop	{r4, pc}
    9440:	eb000092 	bl	9690 <dev_barrier>
    9444:	e3a00000 	mov	r0, #0
    9448:	e8bd8010 	pop	{r4, pc}
    944c:	e3e00000 	mvn	r0, #0
    9450:	e8bd8010 	pop	{r4, pc}
    9454:	000096cc 	andeq	r9, r0, ip, asr #13

00009458 <gpio_event_clear>:
    9458:	e92d4010 	push	{r4, lr}
    945c:	e1a04000 	mov	r4, r0
    9460:	e350001f 	cmp	r0, #31
    9464:	88bd8010 	pophi	{r4, pc}
    9468:	eb000088 	bl	9690 <dev_barrier>
    946c:	e354001f 	cmp	r4, #31
    9470:	8a000005 	bhi	948c <gpio_event_clear+0x34>
    9474:	e59f3030 	ldr	r3, [pc, #48]	; 94ac <gpio_event_clear+0x54>
    9478:	e5930048 	ldr	r0, [r3, #72]	; 0x48
    947c:	e3a01001 	mov	r1, #1
    9480:	e1a01411 	lsl	r1, r1, r4
    9484:	ebfffe9c 	bl	8efc <put32>
    9488:	ea000005 	b	94a4 <gpio_event_clear+0x4c>
    948c:	e204401f 	and	r4, r4, #31
    9490:	e59f3014 	ldr	r3, [pc, #20]	; 94ac <gpio_event_clear+0x54>
    9494:	e593004c 	ldr	r0, [r3, #76]	; 0x4c
    9498:	e3a01001 	mov	r1, #1
    949c:	e1a01411 	lsl	r1, r1, r4
    94a0:	ebfffe95 	bl	8efc <put32>
    94a4:	eb000079 	bl	9690 <dev_barrier>
    94a8:	e8bd8010 	pop	{r4, pc}
    94ac:	000096cc 	andeq	r9, r0, ip, asr #13

000094b0 <internal_putchar>:
    94b0:	e92d4010 	push	{r4, lr}
    94b4:	e1a04000 	mov	r4, r0
    94b8:	eb00005e 	bl	9638 <uart_putc>
    94bc:	e1a00004 	mov	r0, r4
    94c0:	e8bd8010 	pop	{r4, pc}

000094c4 <rpi_reset_putc>:
    94c4:	e59f2008 	ldr	r2, [pc, #8]	; 94d4 <rpi_reset_putc+0x10>
    94c8:	e59f3008 	ldr	r3, [pc, #8]	; 94d8 <rpi_reset_putc+0x14>
    94cc:	e5832000 	str	r2, [r3]
    94d0:	e12fff1e 	bx	lr
    94d4:	000094b0 			; <UNDEFINED> instruction: 0x000094b0
    94d8:	0000972c 	andeq	r9, r0, ip, lsr #14

000094dc <rpi_set_putc>:
    94dc:	e59f3004 	ldr	r3, [pc, #4]	; 94e8 <rpi_set_putc+0xc>
    94e0:	e5830000 	str	r0, [r3]
    94e4:	e12fff1e 	bx	lr
    94e8:	0000972c 	andeq	r9, r0, ip, lsr #14

000094ec <cb_new>:
    94ec:	e92d4008 	push	{r3, lr}
    94f0:	e3a00409 	mov	r0, #150994944	; 0x9000000
    94f4:	e3a01000 	mov	r1, #0
    94f8:	e3a02004 	mov	r2, #4
    94fc:	eb000069 	bl	96a8 <memset>
    9500:	e3a00409 	mov	r0, #150994944	; 0x9000000
    9504:	e59f3004 	ldr	r3, [pc, #4]	; 9510 <cb_new+0x24>
    9508:	e5803000 	str	r3, [r0]
    950c:	e8bd8008 	pop	{r3, pc}
    9510:	12345678 	eorsne	r5, r4, #120, 12	; 0x7800000

00009514 <cb_get_block>:
    9514:	e3a03409 	mov	r3, #150994944	; 0x9000000
    9518:	e5932000 	ldr	r2, [r3]
    951c:	e59f3014 	ldr	r3, [pc, #20]	; 9538 <cb_get_block+0x24>
    9520:	e1520003 	cmp	r2, r3
    9524:	0a000001 	beq	9530 <cb_get_block+0x1c>
    9528:	e3a00000 	mov	r0, #0
    952c:	e12fff1e 	bx	lr
    9530:	e3a00409 	mov	r0, #150994944	; 0x9000000
    9534:	e12fff1e 	bx	lr
    9538:	12345678 	eorsne	r5, r4, #120, 12	; 0x7800000

0000953c <uart_init>:
    953c:	e92d4038 	push	{r3, r4, r5, lr}
    9540:	eb000052 	bl	9690 <dev_barrier>
    9544:	e3a0000e 	mov	r0, #14
    9548:	e3a01002 	mov	r1, #2
    954c:	ebffff1d 	bl	91c8 <gpio_set_function>
    9550:	e3a0000f 	mov	r0, #15
    9554:	e3a01002 	mov	r1, #2
    9558:	ebffff1a 	bl	91c8 <gpio_set_function>
    955c:	eb00004b 	bl	9690 <dev_barrier>
    9560:	e59f4068 	ldr	r4, [pc, #104]	; 95d0 <uart_init+0x94>
    9564:	e5945000 	ldr	r5, [r4]
    9568:	e1a00005 	mov	r0, r5
    956c:	ebfffe6e 	bl	8f2c <get32>
    9570:	e3801001 	orr	r1, r0, #1
    9574:	e1a00005 	mov	r0, r5
    9578:	ebfffe5f 	bl	8efc <put32>
    957c:	eb000043 	bl	9690 <dev_barrier>
    9580:	e5940004 	ldr	r0, [r4, #4]
    9584:	e3a01000 	mov	r1, #0
    9588:	ebfffe5b 	bl	8efc <put32>
    958c:	e5940008 	ldr	r0, [r4, #8]
    9590:	e3a01000 	mov	r1, #0
    9594:	ebfffe58 	bl	8efc <put32>
    9598:	e594000c 	ldr	r0, [r4, #12]
    959c:	e3a01006 	mov	r1, #6
    95a0:	ebfffe55 	bl	8efc <put32>
    95a4:	e5940010 	ldr	r0, [r4, #16]
    95a8:	e3a01003 	mov	r1, #3
    95ac:	ebfffe52 	bl	8efc <put32>
    95b0:	e5940014 	ldr	r0, [r4, #20]
    95b4:	e59f1018 	ldr	r1, [pc, #24]	; 95d4 <uart_init+0x98>
    95b8:	ebfffe4f 	bl	8efc <put32>
    95bc:	e5940004 	ldr	r0, [r4, #4]
    95c0:	e3a01003 	mov	r1, #3
    95c4:	ebfffe4c 	bl	8efc <put32>
    95c8:	eb000030 	bl	9690 <dev_barrier>
    95cc:	e8bd8038 	pop	{r3, r4, r5, pc}
    95d0:	00009730 	andeq	r9, r0, r0, lsr r7
    95d4:	0000010e 	andeq	r0, r0, lr, lsl #2

000095d8 <uart_can_getc>:
    95d8:	e92d4008 	push	{r3, lr}
    95dc:	e59f300c 	ldr	r3, [pc, #12]	; 95f0 <uart_can_getc+0x18>
    95e0:	e5930018 	ldr	r0, [r3, #24]
    95e4:	ebfffe50 	bl	8f2c <get32>
    95e8:	e2000001 	and	r0, r0, #1
    95ec:	e8bd8008 	pop	{r3, pc}
    95f0:	00009730 	andeq	r9, r0, r0, lsr r7

000095f4 <uart_getc>:
    95f4:	e92d4008 	push	{r3, lr}
    95f8:	ebfffff6 	bl	95d8 <uart_can_getc>
    95fc:	e3500000 	cmp	r0, #0
    9600:	0afffffc 	beq	95f8 <uart_getc+0x4>
    9604:	e59f300c 	ldr	r3, [pc, #12]	; 9618 <uart_getc+0x24>
    9608:	e593001c 	ldr	r0, [r3, #28]
    960c:	ebfffe46 	bl	8f2c <get32>
    9610:	e6ef0070 	uxtb	r0, r0
    9614:	e8bd8008 	pop	{r3, pc}
    9618:	00009730 	andeq	r9, r0, r0, lsr r7

0000961c <uart_can_putc>:
    961c:	e92d4008 	push	{r3, lr}
    9620:	e59f300c 	ldr	r3, [pc, #12]	; 9634 <uart_can_putc+0x18>
    9624:	e5930018 	ldr	r0, [r3, #24]
    9628:	ebfffe3f 	bl	8f2c <get32>
    962c:	e2000020 	and	r0, r0, #32
    9630:	e8bd8008 	pop	{r3, pc}
    9634:	00009730 	andeq	r9, r0, r0, lsr r7

00009638 <uart_putc>:
    9638:	e92d4010 	push	{r4, lr}
    963c:	e1a04000 	mov	r4, r0
    9640:	ebfffff5 	bl	961c <uart_can_putc>
    9644:	e3500000 	cmp	r0, #0
    9648:	0afffffc 	beq	9640 <uart_putc+0x8>
    964c:	e59f300c 	ldr	r3, [pc, #12]	; 9660 <uart_putc+0x28>
    9650:	e593001c 	ldr	r0, [r3, #28]
    9654:	e1a01004 	mov	r1, r4
    9658:	ebfffe27 	bl	8efc <put32>
    965c:	e8bd8010 	pop	{r4, pc}
    9660:	00009730 	andeq	r9, r0, r0, lsr r7

00009664 <uart_has_data>:
    9664:	e92d4008 	push	{r3, lr}
    9668:	ebffffda 	bl	95d8 <uart_can_getc>
    966c:	e8bd8008 	pop	{r3, pc}

00009670 <uart_getc_async>:
    9670:	e92d4008 	push	{r3, lr}
    9674:	ebfffffa 	bl	9664 <uart_has_data>
    9678:	e3500000 	cmp	r0, #0
    967c:	0a000001 	beq	9688 <uart_getc_async+0x18>
    9680:	ebffffdb 	bl	95f4 <uart_getc>
    9684:	e8bd8008 	pop	{r3, pc}
    9688:	e3e00000 	mvn	r0, #0
    968c:	e8bd8008 	pop	{r3, pc}

00009690 <dev_barrier>:
    9690:	ea000002 	b	96a0 <dsb>

00009694 <dmb>:
    9694:	e3a00000 	mov	r0, #0
    9698:	ee070fba 	mcr	15, 0, r0, cr7, cr10, {5}
    969c:	e12fff1e 	bx	lr

000096a0 <dsb>:
    96a0:	ee070f9a 	mcr	15, 0, r0, cr7, cr10, {4}
    96a4:	e12fff1e 	bx	lr

000096a8 <memset>:
    96a8:	e0802002 	add	r2, r0, r2
    96ac:	e1a03000 	mov	r3, r0
    96b0:	ea000001 	b	96bc <memset+0x14>
    96b4:	e5c31000 	strb	r1, [r3]
    96b8:	e2833001 	add	r3, r3, #1
    96bc:	e1530002 	cmp	r3, r2
    96c0:	3afffffb 	bcc	96b4 <memset+0xc>
    96c4:	e12fff1e 	bx	lr

Disassembly of section .data:

000096c8 <putk>:
    96c8:	00008168 	andeq	r8, r0, r8, ror #2

000096cc <GPFSEL0>:
    96cc:	20200000 	eorcs	r0, r0, r0

000096d0 <GPFSEL1>:
    96d0:	20200004 	eorcs	r0, r0, r4

000096d4 <GPFSEL2>:
    96d4:	20200008 	eorcs	r0, r0, r8

000096d8 <GPFSEL3>:
    96d8:	2020000c 	eorcs	r0, r0, ip

000096dc <GPFSEL4>:
    96dc:	20200010 	eorcs	r0, r0, r0, lsl r0

000096e0 <GPFSEL5>:
    96e0:	20200014 	eorcs	r0, r0, r4, lsl r0

000096e4 <GPSET0>:
    96e4:	2020001c 	eorcs	r0, r0, ip, lsl r0

000096e8 <GPSET1>:
    96e8:	20200020 	eorcs	r0, r0, r0, lsr #32

000096ec <GPCLR0>:
    96ec:	20200028 	eorcs	r0, r0, r8, lsr #32

000096f0 <GPCLR1>:
    96f0:	2020002c 	eorcs	r0, r0, ip, lsr #32

000096f4 <GPLEV0>:
    96f4:	20200034 	eorcs	r0, r0, r4, lsr r0

000096f8 <GPLEV1>:
    96f8:	20200038 	eorcs	r0, r0, r8, lsr r0

000096fc <IRQ_PENDING_2>:
    96fc:	2000b208 	andcs	fp, r0, r8, lsl #4

00009700 <GPREN0>:
    9700:	2020004c 	eorcs	r0, r0, ip, asr #32

00009704 <GPREN1>:
    9704:	20200050 	eorcs	r0, r0, r0, asr r0

00009708 <ENABLE_IRQS_2>:
    9708:	2000b214 	andcs	fp, r0, r4, lsl r2

0000970c <GPFEN0>:
    970c:	20200058 	eorcs	r0, r0, r8, asr r0

00009710 <GPFEN1>:
    9710:	2020005c 	eorcs	r0, r0, ip, asr r0

00009714 <GPEDS0>:
    9714:	20200040 	eorcs	r0, r0, r0, asr #32

00009718 <GPEDS1>:
    9718:	20200044 	eorcs	r0, r0, r4, asr #32

0000971c <IRQ_PENDING_1>:
    971c:	2000b204 	andcs	fp, r0, r4, lsl #4

00009720 <gpio_clr0>:
    9720:	20200028 	eorcs	r0, r0, r8, lsr #32

00009724 <gpio_set0>:
    9724:	2020001c 	eorcs	r0, r0, ip, lsl r0

00009728 <gpio_fsel0>:
    9728:	20200000 	eorcs	r0, r0, r0

0000972c <rpi_putchar>:
    972c:	000094b0 			; <UNDEFINED> instruction: 0x000094b0

00009730 <AUX_ENABLES>:
    9730:	20215004 	eorcs	r5, r1, r4

00009734 <AUX_MU_CNTL_REG>:
    9734:	20215060 	eorcs	r5, r1, r0, rrx

00009738 <AUX_MU_IER_REG>:
    9738:	20215044 	eorcs	r5, r1, r4, asr #32

0000973c <AUX_MU_IIR_REG>:
    973c:	20215048 	eorcs	r5, r1, r8, asr #32

00009740 <AUX_MU_LCR_REG>:
    9740:	2021504c 	eorcs	r5, r1, ip, asr #32

00009744 <AUX_MU_BAUD_REG>:
    9744:	20215068 	eorcs	r5, r1, r8, rrx

00009748 <AUX_MU_LSR_REG>:
    9748:	20215054 	eorcs	r5, r1, r4, asr r0

0000974c <AUX_MU_IO_REG>:
    974c:	20215040 	eorcs	r5, r1, r0, asr #32

00009750 <AUX_MU_STAT_REG>:
    9750:	20215064 	eorcs	r5, r1, r4, rrx

00009754 <AUX_MU_SCRATCH>:
    9754:	2021505c 	eorcs	r5, r1, ip, asr r0

00009758 <AUX_MU_MSR_REG>:
    9758:	20215058 	eorcs	r5, r1, r8, asr r0

0000975c <AUX_MU_MCR_REG>:
    975c:	20215050 	eorcs	r5, r1, r0, asr r0

00009760 <AUX_IRQ>:
    9760:	20215000 	eorcs	r5, r1, r0

Disassembly of section .rodata:

00009764 <__FUNCTION__.4263-0x8c>:
    9764:	6c6c6568 	cfstr64vs	mvdx6, [ip], #-416	; 0xfffffe60
    9768:	6f77206f 	svcvs	0x0077206f
    976c:	0a646c72 	beq	192493c <__bss_end__+0x191aacc>
    9770:	00000000 	andeq	r0, r0, r0
    9774:	206f6f66 	rsbcs	r6, pc, r6, ror #30
    9778:	20736177 	rsbscs	r6, r3, r7, ror r1
    977c:	73736170 	cmnvc	r3, #112, 2
    9780:	25206465 	strcs	r6, [r0, #-1125]!	; 0x465
    9784:	00000a64 	andeq	r0, r0, r4, ror #20
    9788:	74696d65 	strbtvc	r6, [r9], #-3429	; 0xd65
    978c:	20646574 	rsbcs	r6, r4, r4, ror r5
    9790:	65646f63 	strbvs	r6, [r4, #-3939]!	; 0xf63
    9794:	00000a3a 	andeq	r0, r0, sl, lsr sl
    9798:	65646f63 	strbvs	r6, [r4, #-3939]!	; 0xf63
    979c:	5d64255b 	cfstr64pl	mvdx2, [r4, #-364]!	; 0xfffffe94
    97a0:	2578303d 	ldrbcs	r3, [r8, #-61]!	; 0x3d
    97a4:	00000a78 	andeq	r0, r0, r8, ror sl
    97a8:	756f6261 	strbvc	r6, [pc, #-609]!	; 954f <uart_init+0x13>
    97ac:	6f742074 	svcvs	0x00742074
    97b0:	6c616320 	stclvs	3, cr6, [r1], #-128	; 0xffffff80
    97b4:	25203a6c 	strcs	r3, [r0, #-2668]!	; 0xa6c
    97b8:	00000a78 	andeq	r0, r0, r8, ror sl
    97bc:	2d2d2d2d 	stccs	13, cr2, [sp, #-180]!	; 0xffffff4c
    97c0:	2d2d2d2d 	stccs	13, cr2, [sp, #-180]!	; 0xffffff4c
    97c4:	2d2d2d2d 	stccs	13, cr2, [sp, #-180]!	; 0xffffff4c
    97c8:	2d2d2d2d 	stccs	13, cr2, [sp, #-180]!	; 0xffffff4c
    97cc:	2d2d2d2d 	stccs	13, cr2, [sp, #-180]!	; 0xffffff4c
    97d0:	2d2d2d2d 	stccs	13, cr2, [sp, #-180]!	; 0xffffff4c
    97d4:	2d2d2d2d 	stccs	13, cr2, [sp, #-180]!	; 0xffffff4c
    97d8:	2d2d2d2d 	stccs	13, cr2, [sp, #-180]!	; 0xffffff4c
    97dc:	2d2d2d2d 	stccs	13, cr2, [sp, #-180]!	; 0xffffff4c
    97e0:	000a2d2d 	andeq	r2, sl, sp, lsr #26
    97e4:	63637573 	cmnvs	r3, #482344960	; 0x1cc00000
    97e8:	21737365 	cmncs	r3, r5, ror #6
    97ec:	0000000a 	andeq	r0, r0, sl

000097f0 <__FUNCTION__.4263>:
    97f0:	74696d65 	strbtvc	r6, [r9], #-3429	; 0xd65
    97f4:	00000000 	andeq	r0, r0, r0

000097f8 <__FUNCTION__.4211>:
    97f8:	5f697072 	svcpl	0x00697072
    97fc:	5f746573 	svcpl	0x00746573
    9800:	7074756f 	rsbsvc	r7, r4, pc, ror #10
    9804:	00007475 	andeq	r7, r0, r5, ror r4

00009808 <__FUNCTION__.4285>:
    9808:	705f6176 	subsvc	r6, pc, r6, ror r1	; <UNPREDICTABLE>
    980c:	746e6972 	strbtvc	r6, [lr], #-2418	; 0x972
    9810:	0000006b 	andeq	r0, r0, fp, rrx
    9814:	494e4150 	stmdbmi	lr, {r4, r6, r8, lr}^
    9818:	73253a43 	teqvc	r5, #274432	; 0x43000
    981c:	3a73253a 	bcc	1cd2d0c <__bss_end__+0x1cc8e9c>
    9820:	253a6425 	ldrcs	r6, [sl, #-1061]!	; 0x425
    9824:	00000a73 	andeq	r0, r0, r3, ror sl
    9828:	6362696c 	cmnvs	r2, #108, 18	; 0x1b0000
    982c:	2d61762f 	stclcs	6, cr7, [r1, #-188]!	; 0xffffff44
    9830:	6e697270 	mcrvs	2, 3, r7, cr9, cr0, {3}
    9834:	632e6b74 	teqvs	lr, #116, 22	; 0x1d000
    9838:	00000000 	andeq	r0, r0, r0
    983c:	00000030 	andeq	r0, r0, r0, lsr r0
    9840:	33323130 	teqcc	r2, #48, 2
    9844:	37363534 			; <UNDEFINED> instruction: 0x37363534
    9848:	00003938 	andeq	r3, r0, r8, lsr r9
    984c:	33323130 	teqcc	r2, #48, 2
    9850:	37363534 			; <UNDEFINED> instruction: 0x37363534
    9854:	62613938 	rsbvs	r3, r1, #56, 18	; 0xe0000
    9858:	66656463 	strbtvs	r6, [r5], -r3, ror #8
    985c:	00000000 	andeq	r0, r0, r0
    9860:	00003130 	andeq	r3, r0, r0, lsr r1
    9864:	63747570 	cmnvs	r4, #112, 10	; 0x1c000000
    9868:	0070665f 	rsbseq	r6, r0, pc, asr r6
    986c:	74646977 	strbtvc	r6, [r4], #-2423	; 0x977
    9870:	203c2068 	eorscs	r2, ip, r8, rrx
    9874:	00003233 	andeq	r3, r0, r3, lsr r2
    9878:	494e4150 	stmdbmi	lr, {r4, r6, r8, lr}^
    987c:	73253a43 	teqvc	r5, #274432	; 0x43000
    9880:	3a73253a 	bcc	1cd2d70 <__bss_end__+0x1cc8f00>
    9884:	663a6425 	ldrtvs	r6, [sl], -r5, lsr #8
    9888:	74616f6c 	strbtvc	r6, [r1], #-3948	; 0xf6c
    988c:	746f6e20 	strbtvc	r6, [pc], #-3616	; 9894 <__FUNCTION__.4285+0x8c>
    9890:	616e6520 	cmnvs	lr, r0, lsr #10
    9894:	64656c62 	strbtvs	r6, [r5], #-3170	; 0xc62
    9898:	0a212121 	beq	851d24 <__bss_end__+0x847eb4>
    989c:	00000000 	andeq	r0, r0, r0
    98a0:	494e4150 	stmdbmi	lr, {r4, r6, r8, lr}^
    98a4:	73253a43 	teqvc	r5, #274432	; 0x43000
    98a8:	3a73253a 	bcc	1cd2d98 <__bss_end__+0x1cc8f28>
    98ac:	703a6425 	eorsvc	r6, sl, r5, lsr #8
    98b0:	746e6972 	strbtvc	r6, [lr], #-2418	; 0x972
    98b4:	6e203a6b 	vnmulvs.f32	s6, s0, s23
    98b8:	6820746f 	stmdavs	r0!, {r0, r1, r2, r3, r5, r6, sl, ip, sp, lr}
    98bc:	6c646e61 	stclvs	14, cr6, [r4], #-388	; 0xfffffe7c
    98c0:	20676e69 	rsbcs	r6, r7, r9, ror #28
    98c4:	63657073 	cmnvs	r5, #115	; 0x73
    98c8:	65696669 	strbvs	r6, [r9, #-1641]!	; 0x669
    98cc:	25272072 	strcs	r2, [r7, #-114]!	; 0x72
    98d0:	0a0a2763 	beq	293664 <__bss_end__+0x2897f4>
    98d4:	00000000 	andeq	r0, r0, r0
    98d8:	454e4f44 	strbmi	r4, [lr, #-3908]	; 0xf44
    98dc:	0a212121 	beq	851d68 <__bss_end__+0x847ef8>
    98e0:	00000000 	andeq	r0, r0, r0
    98e4:	756f6261 	strbvc	r6, [pc, #-609]!	; 968b <uart_getc_async+0x1b>
    98e8:	6f742074 	svcvs	0x00742074
    98ec:	69727020 	ldmdbvs	r2!, {r5, ip, sp, lr}^
    98f0:	6f20746e 	svcvs	0x0020746e
    98f4:	6572206e 	ldrbvs	r2, [r2, #-110]!	; 0x6e
    98f8:	616c7567 	cmnvs	ip, r7, ror #10
    98fc:	72702072 	rsbsvc	r2, r0, #114	; 0x72
    9900:	66746e69 	ldrbtvs	r6, [r4], -r9, ror #28
    9904:	0000000a 	andeq	r0, r0, sl

00009908 <__FUNCTION__.4312>:
    9908:	755f7773 	ldrbvc	r7, [pc, #-1907]	; 919d <gpio_read+0x45>
    990c:	5f747261 	svcpl	0x00747261
    9910:	73746567 	cmnvc	r4, #432013312	; 0x19c00000
    9914:	746e755f 	strbtvc	r7, [lr], #-1375	; 0x55f
    9918:	00006c69 	andeq	r6, r0, r9, ror #24

0000991c <__FUNCTION__.4324>:
    991c:	755f7773 	ldrbvc	r7, [pc, #-1907]	; 91b1 <gpio_write+0xd>
    9920:	5f747261 	svcpl	0x00747261
    9924:	73746567 	cmnvc	r4, #432013312	; 0x19c00000
    9928:	6d69745f 	cfstrdvs	mvd7, [r9, #-380]!	; 0xfffffe84
    992c:	74756f65 	ldrbtvc	r6, [r5], #-3941	; 0xf65
    9930:	00000000 	andeq	r0, r0, r0

00009934 <__FUNCTION__.4338>:
    9934:	755f7773 	ldrbvc	r7, [pc, #-1907]	; 91c9 <gpio_set_function+0x1>
    9938:	5f747261 	svcpl	0x00747261
    993c:	74696e69 	strbtvc	r6, [r9], #-3689	; 0xe69
    9940:	6c65685f 	stclvs	8, cr6, [r5], #-380	; 0xfffffe84
    9944:	00726570 	rsbseq	r6, r2, r0, ror r5

00009948 <__FUNCTION__.4344>:
    9948:	755f7773 	ldrbvc	r7, [pc, #-1907]	; 91dd <gpio_set_function+0x15>
    994c:	5f747261 	svcpl	0x00747261
    9950:	63746567 	cmnvs	r4, #432013312	; 0x19c00000
    9954:	00000000 	andeq	r0, r0, r0

00009958 <__FUNCTION__.4366>:
    9958:	755f7773 	ldrbvc	r7, [pc, #-1907]	; 91ed <gpio_set_function+0x25>
    995c:	5f747261 	svcpl	0x00747261
    9960:	6e697270 	mcrvs	2, 3, r7, cr9, cr0, {3}
    9964:	00006b74 	andeq	r6, r0, r4, ror fp

00009968 <__FUNCTION__.4374>:
    9968:	755f7773 	ldrbvc	r7, [pc, #-1907]	; 91fd <gpio_set_function+0x35>
    996c:	5f747261 	svcpl	0x00747261
    9970:	73746567 	cmnvc	r4, #432013312	; 0x19c00000
    9974:	746e755f 	strbtvc	r7, [lr], #-1375	; 0x55f
    9978:	625f6c69 	subsvs	r6, pc, #26880	; 0x6900
    997c:	00006b6c 	andeq	r6, r0, ip, ror #22
    9980:	732d796d 	teqvc	sp, #1785856	; 0x1b4000
    9984:	732f6372 	teqvc	pc, #-939524095	; 0xc8000001
    9988:	61752d77 	cmnvs	r5, r7, ror sp
    998c:	632e7472 	teqvs	lr, #1912602624	; 0x72000000
    9990:	00000000 	andeq	r0, r0, r0
    9994:	7479626e 	ldrbtvc	r6, [r9], #-622	; 0x26e
    9998:	303e7365 	eorscc	r7, lr, r5, ror #6
    999c:	00000000 	andeq	r0, r0, r0
    99a0:	7a686d28 	bvc	1a24e48 <__bss_end__+0x1a1afd8>
    99a4:	62202d20 	eorvs	r2, r0, #32, 26	; 0x800
    99a8:	29647561 	stmdbcs	r4!, {r0, r5, r6, r8, sl, ip, sp, lr}^
    99ac:	203d3c20 	eorscs	r3, sp, r0, lsr #24
    99b0:	69726564 	ldmdbvs	r2!, {r2, r5, r6, r8, sl, sp, lr}^
    99b4:	20646576 	rsbcs	r6, r4, r6, ror r5
    99b8:	64202626 	strtvs	r2, [r0], #-1574	; 0x626
    99bc:	76697265 	strbtvc	r7, [r9], -r5, ror #4
    99c0:	3c206465 	cfstrscc	mvf6, [r0], #-404	; 0xfffffe6c
    99c4:	6d28203d 	stcvs	0, cr2, [r8, #-244]!	; 0xffffff0c
    99c8:	2b207a68 	blcs	828370 <__bss_end__+0x81e500>
    99cc:	75616220 	strbvc	r6, [r1, #-544]!	; 0x220
    99d0:	00002964 	andeq	r2, r0, r4, ror #18
    99d4:	494e4150 	stmdbmi	lr, {r4, r6, r8, lr}^
    99d8:	73253a43 	teqvc	r5, #274432	; 0x43000
    99dc:	3a73253a 	bcc	1cd2ecc <__bss_end__+0x1cc905c>
    99e0:	693a6425 	ldmdbvs	sl!, {r0, r2, r5, sl, sp, lr}
    99e4:	736f706d 	cmnvc	pc, #109	; 0x6d
    99e8:	6c626973 	stclvs	9, cr6, [r2], #-460	; 0xfffffe34
    99ec:	68203a65 	stmdavs	r0!, {r0, r2, r5, r6, r9, fp, ip, sp}
    99f0:	20657661 	rsbcs	r7, r5, r1, ror #12
    99f4:	69206e61 	stmdbvs	r0!, {r0, r5, r6, r9, sl, fp, sp, lr}
    99f8:	6e69666e 	cdpvs	6, 6, cr6, cr9, cr14, {3}
    99fc:	20657469 	rsbcs	r7, r5, r9, ror #8
    9a00:	656d6974 	strbvs	r6, [sp, #-2420]!	; 0x974
    9a04:	2174756f 	cmncs	r4, pc, ror #10
    9a08:	00000a0a 	andeq	r0, r0, sl, lsl #20
    9a0c:	3c207a73 	stccc	10, cr7, [r0], #-460	; 0xfffffe34
    9a10:	7a697320 	bvc	1a66698 <__bss_end__+0x1a5c828>
    9a14:	20666f65 	rsbcs	r6, r6, r5, ror #30
    9a18:	2d667562 	cfstr64cs	mvdx7, [r6, #-392]!	; 0xfffffe78
    9a1c:	00000031 	andeq	r0, r0, r1, lsr r0

Disassembly of section .bss:

00009a20 <__bss_start__>:
	...

00009a60 <buf.4211>:
	...

00009e60 <console_uart>:
	...

Disassembly of section .ARM.attributes:

00000000 <.ARM.attributes>:
   0:	00002a41 	andeq	r2, r0, r1, asr #20
   4:	61656100 	cmnvs	r5, r0, lsl #2
   8:	01006962 	tsteq	r0, r2, ror #18
   c:	00000020 	andeq	r0, r0, r0, lsr #32
  10:	4b5a3605 	blmi	168d82c <__bss_end__+0x16839bc>
  14:	08070600 	stmdaeq	r7, {r9, sl}
  18:	12010901 	andne	r0, r1, #16384	; 0x4000
  1c:	15011404 	strne	r1, [r1, #-1028]	; 0x404
  20:	18031701 	stmdane	r3, {r0, r8, r9, sl, ip}
  24:	22011a01 	andcs	r1, r1, #4096	; 0x1000
  28:	Address 0x0000000000000028 is out of bounds.


Disassembly of section .comment:

00000000 <.comment>:
   0:	3a434347 	bcc	10d0d24 <__bss_end__+0x10c6eb4>
   4:	4e472820 	cdpmi	8, 4, cr2, cr7, cr0, {1}
   8:	34202955 	strtcc	r2, [r0], #-2389	; 0x955
   c:	332e382e 	teqcc	lr, #3014656	; 0x2e0000
	...

Disassembly of section .debug_info:

00000000 <.debug_info>:
       0:	00000476 	andeq	r0, r0, r6, ror r4
       4:	00000004 	andeq	r0, r0, r4
       8:	01040000 	mrseq	r0, (UNDEF: 4)
       c:	000001cc 	andeq	r0, r0, ip, asr #3
      10:	00005d01 	andeq	r5, r0, r1, lsl #26
      14:	00013800 	andeq	r3, r1, r0, lsl #16
      18:	00801000 	addeq	r1, r0, r0
      1c:	00010000 	andeq	r0, r1, r0
      20:	00000000 	andeq	r0, r0, r0
      24:	05040200 	streq	r0, [r4, #-512]	; 0x200
      28:	00746e69 	rsbseq	r6, r4, r9, ror #28
      2c:	19070403 	stmdbne	r7, {r0, r1, sl}
      30:	03000000 	movweq	r0, #0
      34:	019f0601 	orrseq	r0, pc, r1, lsl #12
      38:	02030000 	andeq	r0, r3, #0
      3c:	0001ab05 	andeq	sl, r1, r5, lsl #22
      40:	01bd0400 			; <UNDEFINED> instruction: 0x01bd0400
      44:	28030000 	stmdacs	r3, {}	; <UNPREDICTABLE>
      48:	0000004c 	andeq	r0, r0, ip, asr #32
      4c:	32050403 	andcc	r0, r5, #50331648	; 0x3000000
      50:	03000000 	movweq	r0, #0
      54:	002d0508 	eoreq	r0, sp, r8, lsl #10
      58:	42040000 	andmi	r0, r4, #0
      5c:	03000002 	movweq	r0, #2
      60:	0000652e 	andeq	r6, r0, lr, lsr #10
      64:	08010300 	stmdaeq	r1, {r8, r9}
      68:	0000019d 	muleq	r0, sp, r1
      6c:	8d070203 	sfmhi	f0, 4, [r7, #-12]
      70:	04000000 	streq	r0, [r0], #-0
      74:	000001bc 			; <UNDEFINED> instruction: 0x000001bc
      78:	007e3403 	rsbseq	r3, lr, r3, lsl #8
      7c:	04030000 	streq	r0, [r3], #-0
      80:	00001407 	andeq	r1, r0, r7, lsl #8
      84:	07080300 	streq	r0, [r8, -r0, lsl #6]
      88:	0000000f 	andeq	r0, r0, pc
      8c:	cf070403 	svcgt	0x00070403
      90:	05000000 	streq	r0, [r0, #-0]
      94:	00009904 	andeq	r9, r0, r4, lsl #18
      98:	01030600 	tsteq	r3, r0, lsl #12
      9c:	0001a608 	andeq	sl, r1, r8, lsl #12
      a0:	a7040500 	strge	r0, [r4, -r0, lsl #10]
      a4:	07000000 	streq	r0, [r0, -r0]
      a8:	0000009a 	muleq	r0, sl, r0
      ac:	00007308 	andeq	r7, r0, r8, lsl #6
      b0:	0000bc00 	andeq	fp, r0, r0, lsl #24
      b4:	008c0900 	addeq	r0, ip, r0, lsl #18
      b8:	000f0000 	andeq	r0, pc, r0
      bc:	0702010a 	streq	r0, [r2, -sl, lsl #2]
      c0:	00000137 	andeq	r0, r0, r7, lsr r1
      c4:	0000d80b 	andeq	sp, r0, fp, lsl #16
      c8:	df0b0000 	svcle	0x000b0000
      cc:	01000000 	mrseq	r0, (UNDEF: 0)
      d0:	0000e60b 	andeq	lr, r0, fp, lsl #12
      d4:	ed0b0200 	sfm	f0, 4, [fp, #-0]
      d8:	03000000 	movweq	r0, #0
      dc:	0000f40b 	andeq	pc, r0, fp, lsl #8
      e0:	fb0b0400 	blx	2c10ea <__bss_end__+0x2b727a>
      e4:	05000000 	streq	r0, [r0, #-0]
      e8:	0001020b 	andeq	r0, r1, fp, lsl #4
      ec:	090b0600 	stmdbeq	fp, {r9, sl}
      f0:	07000001 	streq	r0, [r0, -r1]
      f4:	0001100b 	andeq	r1, r1, fp
      f8:	170b0800 	strne	r0, [fp, -r0, lsl #16]
      fc:	09000001 	stmdbeq	r0, {r0}
     100:	0000650b 	andeq	r6, r0, fp, lsl #10
     104:	6d0b0a00 	vstrvs	s0, [fp, #-0]
     108:	0b000000 	bleq	110 <_start-0x7ef0>
     10c:	0000750b 	andeq	r7, r0, fp, lsl #10
     110:	7d0b0c00 	stcvc	12, cr0, [fp, #-0]
     114:	0d000000 	stceq	0, cr0, [r0, #-0]
     118:	0000850b 	andeq	r8, r0, fp, lsl #10
     11c:	7e0b0e00 	cdpvc	14, 0, cr0, cr11, cr0, {0}
     120:	0f000002 	svceq	0x00000002
     124:	00022a0b 	andeq	r2, r2, fp, lsl #20
     128:	4a0b0d00 	bmi	2c3530 <__bss_end__+0x2b96c0>
     12c:	0e000002 	cdpeq	0, 0, cr0, cr0, cr2, {0}
     130:	0000a00b 	andeq	sl, r0, fp
     134:	0a000f00 	beq	3d3c <_start-0x42c4>
     138:	9a200201 	bls	800944 <__bss_end__+0x7f6ad4>
     13c:	0b000001 	bleq	148 <_start-0x7eb8>
     140:	000001b5 			; <UNDEFINED> instruction: 0x000001b5
     144:	023b0b00 	eorseq	r0, fp, #0, 22
     148:	0b010000 	bleq	40150 <__bss_end__+0x362e0>
     14c:	000000b4 	strheq	r0, [r0], -r4
     150:	00a70b02 	adceq	r0, r7, r2, lsl #22
     154:	0b030000 	bleq	c015c <__bss_end__+0xb62ec>
     158:	000001c5 	andeq	r0, r0, r5, asr #3
     15c:	00260b04 	eoreq	r0, r6, r4, lsl #22
     160:	0b050000 	bleq	140168 <__bss_end__+0x1362f8>
     164:	0000025f 	andeq	r0, r0, pc, asr r2
     168:	02510b06 	subseq	r0, r1, #6144	; 0x1800
     16c:	0b070000 	bleq	1c0174 <__bss_end__+0x1b6304>
     170:	00000008 	andeq	r0, r0, r8
     174:	012a0b08 	teqeq	sl, r8, lsl #22
     178:	0b090000 	bleq	240180 <__bss_end__+0x236310>
     17c:	00000258 	andeq	r0, r0, r8, asr r2
     180:	01310b0a 	teqeq	r1, sl, lsl #22
     184:	0b0b0000 	bleq	2c018c <__bss_end__+0x2b631c>
     188:	0000026e 	andeq	r0, r0, lr, ror #4
     18c:	011e0b0c 	tsteq	lr, ip, lsl #22
     190:	0b0d0000 	bleq	340198 <__bss_end__+0x336328>
     194:	0000003b 	andeq	r0, r0, fp, lsr r0
     198:	750c000e 	strvc	r0, [ip, #-14]
     19c:	02000002 	andeq	r0, r0, #2
     1a0:	00730174 	rsbseq	r0, r3, r4, ror r1
     1a4:	c4030000 	strgt	r0, [r3], #-0
     1a8:	0d000001 	stceq	0, cr0, [r0, #-4]
     1ac:	00676572 	rsbeq	r6, r7, r2, ror r5
     1b0:	5a017402 	bpl	5d1c0 <__bss_end__+0x53350>
     1b4:	0e000000 	cdpeq	0, 0, cr0, cr0, cr0, {0}
     1b8:	00000047 	andeq	r0, r0, r7, asr #32
     1bc:	73017602 	movwvc	r7, #5634	; 0x1602
     1c0:	00000000 	andeq	r0, r0, r0
     1c4:	00004c0c 	andeq	r4, r0, ip, lsl #24
     1c8:	012a0200 	teqeq	sl, r0, lsl #4
     1cc:	00000073 	andeq	r0, r0, r3, ror r0
     1d0:	00020403 	andeq	r0, r2, r3, lsl #8
     1d4:	64720d00 	ldrbtvs	r0, [r2], #-3328	; 0xd00
     1d8:	012a0200 	teqeq	sl, r0, lsl #4
     1dc:	0000005a 	andeq	r0, r0, sl, asr r0
     1e0:	006e720d 	rsbeq	r7, lr, sp, lsl #4
     1e4:	5a012a02 	bpl	4a9f4 <__bss_end__+0x40b84>
     1e8:	0f000000 	svceq	0x00000000
     1ec:	00000231 	andeq	r0, r0, r1, lsr r2
     1f0:	73012a02 	movwvc	r2, #6658	; 0x1a02
     1f4:	0e000000 	cdpeq	0, 0, cr0, cr0, cr0, {0}
     1f8:	00000047 	andeq	r0, r0, r7, asr #32
     1fc:	73012c02 	movwvc	r2, #7170	; 0x1c02
     200:	00000000 	andeq	r0, r0, r0
     204:	0000bb10 	andeq	fp, r0, r0, lsl fp
     208:	73d70200 	bicsvc	r0, r7, #0, 4
     20c:	03000000 	movweq	r0, #0
     210:	00000268 	andeq	r0, r0, r8, ror #4
     214:	02004c11 	andeq	r4, r0, #4352	; 0x1100
     218:	000073d7 	ldrdeq	r7, [r0], -r7	; <UNPREDICTABLE>
     21c:	72731100 	rsbsvc	r1, r3, #0, 2
     220:	d7020063 	strle	r0, [r2, -r3, rrx]
     224:	00000041 	andeq	r0, r0, r1, asr #32
     228:	00012512 	andeq	r2, r1, r2, lsl r5
     22c:	41d70200 	bicsmi	r0, r7, r0, lsl #4
     230:	13000000 	movwne	r0, #0
     234:	00000047 	andeq	r0, r0, r7, asr #32
     238:	0073d802 	rsbseq	sp, r3, r2, lsl #16
     23c:	70140000 	andsvc	r0, r4, r0
     240:	f6020063 			; <UNDEFINED> instruction: 0xf6020063
     244:	00000025 	andeq	r0, r0, r5, lsr #32
     248:	00022313 	andeq	r2, r2, r3, lsl r3
     24c:	25f70200 	ldrbcs	r0, [r7, #512]!	; 0x200
     250:	13000000 	movwne	r0, #0
     254:	000000ae 	andeq	r0, r0, lr, lsr #1
     258:	002cf802 	eoreq	pc, ip, r2, lsl #16
     25c:	75140000 	ldrvc	r0, [r4, #-0]
     260:	73fb0200 	mvnsvc	r0, #0, 4
     264:	00000000 	andeq	r0, r0, r0
     268:	0002660c 	andeq	r6, r2, ip, lsl #12
     26c:	01800200 	orreq	r0, r0, r0, lsl #4
     270:	00000073 	andeq	r0, r0, r3, ror r0
     274:	00029203 	andeq	r9, r2, r3, lsl #4
     278:	65720d00 	ldrbvs	r0, [r2, #-3328]!	; 0xd00
     27c:	80020067 	andhi	r0, r2, r7, rrx
     280:	00005a01 	andeq	r5, r0, r1, lsl #20
     284:	00470e00 	subeq	r0, r7, r0, lsl #28
     288:	82020000 	andhi	r0, r2, #0
     28c:	00007301 	andeq	r7, r0, r1, lsl #6
     290:	97150000 	ldrls	r0, [r5, -r0]
     294:	01000001 	tsteq	r0, r1
     298:	00801004 	addeq	r1, r0, r4
     29c:	00001400 	andeq	r1, r0, r0, lsl #8
     2a0:	bb9c0100 	bllt	fe7006a8 <__bss_end__+0xfe6f6838>
     2a4:	16000002 	strne	r0, [r0], -r2
     2a8:	0000801c 	andeq	r8, r0, ip, lsl r0
     2ac:	0000045c 	andeq	r0, r0, ip, asr r4
     2b0:	05500117 	ldrbeq	r0, [r0, #-279]	; 0x117
     2b4:	00976403 	addseq	r6, r7, r3, lsl #8
     2b8:	18000000 	stmdane	r0, {}	; <UNPREDICTABLE>
     2bc:	006f6f66 	rsbeq	r6, pc, r6, ror #30
     2c0:	80240a01 	eorhi	r0, r4, r1, lsl #20
     2c4:	00180000 	andseq	r0, r8, r0
     2c8:	9c010000 	stcls	0, cr0, [r1], {-0}
     2cc:	00000305 	andeq	r0, r0, r5, lsl #6
     2d0:	01007819 	tsteq	r0, r9, lsl r8
     2d4:	0000250a 	andeq	r2, r0, sl, lsl #10
     2d8:	00000000 	andeq	r0, r0, r0
     2dc:	80341a00 	eorshi	r1, r4, r0, lsl #20
     2e0:	045c0000 	ldrbeq	r0, [ip], #-0
     2e4:	02fb0000 	rscseq	r0, fp, #0
     2e8:	01170000 	tsteq	r7, r0
     2ec:	01f30351 	mvnseq	r0, r1, asr r3
     2f0:	50011750 	andpl	r1, r1, r0, asr r7
     2f4:	97740305 	ldrbls	r0, [r4, -r5, lsl #6]!
     2f8:	1b000000 	blne	300 <_start-0x7d00>
     2fc:	00008038 	andeq	r8, r0, r8, lsr r0
     300:	00000472 	andeq	r0, r0, r2, ror r4
     304:	00001500 	andeq	r1, r0, r0, lsl #10
     308:	0f010000 	svceq	0x00010000
     30c:	0000803c 	andeq	r8, r0, ip, lsr r0
     310:	000000d4 	ldrdeq	r0, [r0], -r4
     314:	045c9c01 	ldrbeq	r9, [ip], #-3073	; 0xc01
     318:	421c0000 	andsmi	r0, ip, #0
     31c:	01000000 	mrseq	r0, (UNDEF: 0)
     320:	0000ac14 	andeq	sl, r0, r4, lsl ip
     324:	20030500 	andcs	r0, r3, r0, lsl #10
     328:	1d00009a 	stcne	0, cr0, [r0, #-616]	; 0xfffffd98
     32c:	1501006e 	strne	r0, [r1, #-110]	; 0x6e
     330:	0000002c 	andeq	r0, r0, ip, lsr #32
     334:	0000002c 	andeq	r0, r0, ip, lsr #32
     338:	0070661e 	rsbseq	r6, r0, lr, lsl r6
     33c:	00932301 	addseq	r2, r3, r1, lsl #6
     340:	03060000 	movweq	r0, #24576	; 0x6000
     344:	00009a20 	andeq	r9, r0, r0, lsr #20
     348:	02041f9f 	andeq	r1, r4, #636	; 0x27c
     34c:	80540000 	subshi	r0, r4, r0
     350:	00140000 	andseq	r0, r4, r0
     354:	19010000 	stmdbne	r1, {}	; <UNPREDICTABLE>
     358:	000003a6 	andeq	r0, r0, r6, lsr #7
     35c:	00022820 	andeq	r2, r2, r0, lsr #16
     360:	021d2100 	andseq	r2, sp, #0, 2
     364:	00640000 	rsbeq	r0, r4, r0
     368:	14220000 	strtne	r0, [r2], #-0
     36c:	01000002 	tsteq	r0, r2
     370:	00805423 	addeq	r5, r0, r3, lsr #8
     374:	00001400 	andeq	r1, r0, r0, lsl #8
     378:	02332400 	eorseq	r2, r3, #0, 8
     37c:	25000000 	strcs	r0, [r0, #-0]
     380:	0000023e 	andeq	r0, r0, lr, lsr r2
     384:	00000096 	muleq	r0, r6, r0
     388:	00024825 	andeq	r4, r2, r5, lsr #16
     38c:	0000c800 	andeq	ip, r0, r0, lsl #16
     390:	02532500 	subseq	r2, r3, #0, 10
     394:	00db0000 	sbcseq	r0, fp, r0
     398:	5e260000 	cdppl	0, 2, cr0, cr6, cr0, {0}
     39c:	80000002 	andhi	r0, r0, r2
     3a0:	7ed88080 	cdpvc	0, 13, cr8, cr8, cr0, {4}
     3a4:	84270000 	strthi	r0, [r7], #-0
     3a8:	2c000080 	stccs	0, cr0, [r0], {128}	; 0x80
     3ac:	d7000000 	strle	r0, [r0, -r0]
     3b0:	1d000003 	stcne	0, cr0, [r0, #-12]
     3b4:	20010069 	andcs	r0, r1, r9, rrx
     3b8:	00000025 	andeq	r0, r0, r5, lsr #32
     3bc:	000000ee 	andeq	r0, r0, lr, ror #1
     3c0:	0080a416 	addeq	sl, r0, r6, lsl r4
     3c4:	00045c00 	andeq	r5, r4, r0, lsl #24
     3c8:	51011700 	tstpl	r1, r0, lsl #14
     3cc:	17007402 	strne	r7, [r0, -r2, lsl #8]
     3d0:	76025001 	strvc	r5, [r2], -r1
     3d4:	1a000000 	bne	3dc <_start-0x7c24>
     3d8:	00008084 	andeq	r8, r0, r4, lsl #1
     3dc:	0000045c 	andeq	r0, r0, ip, asr r4
     3e0:	000003ee 	andeq	r0, r0, lr, ror #7
     3e4:	05500117 	ldrbeq	r0, [r0, #-279]	; 0x117
     3e8:	00978803 	addseq	r8, r7, r3, lsl #16
     3ec:	c01a0000 	andsgt	r0, sl, r0
     3f0:	5c000080 	stcpl	0, cr0, [r0], {128}	; 0x80
     3f4:	0b000004 	bleq	40c <_start-0x7bf4>
     3f8:	17000004 	strne	r0, [r0, -r4]
     3fc:	75025101 	strvc	r5, [r2, #-257]	; 0x101
     400:	50011700 	andpl	r1, r1, r0, lsl #14
     404:	97a80305 	strls	r0, [r8, r5, lsl #6]!
     408:	1a000000 	bne	410 <_start-0x7bf0>
     40c:	000080cc 	andeq	r8, r0, ip, asr #1
     410:	0000045c 	andeq	r0, r0, ip, asr r4
     414:	0000041f 	andeq	r0, r0, pc, lsl r4
     418:	02500117 	subseq	r0, r0, #-1073741819	; 0xc0000005
     41c:	28000074 	stmdacs	r0, {r2, r4, r5, r6}
     420:	000080d0 	ldrdeq	r8, [r0], -r0
     424:	1a007502 	bne	1d834 <__bss_end__+0x139c4>
     428:	000080d8 	ldrdeq	r8, [r0], -r8	; <UNPREDICTABLE>
     42c:	0000045c 	andeq	r0, r0, ip, asr r4
     430:	0000043b 	andeq	r0, r0, fp, lsr r4
     434:	02500117 	subseq	r0, r0, #-1073741819	; 0xc0000005
     438:	1a000074 	bne	610 <_start-0x79f0>
     43c:	000080e0 	andeq	r8, r0, r0, ror #1
     440:	0000045c 	andeq	r0, r0, ip, asr r4
     444:	00000452 	andeq	r0, r0, r2, asr r4
     448:	05500117 	ldrbeq	r0, [r0, #-279]	; 0x117
     44c:	0097e403 	addseq	lr, r7, r3, lsl #8
     450:	e41b0000 	ldr	r0, [fp], #-0
     454:	72000080 	andvc	r0, r0, #128	; 0x80
     458:	00000004 	andeq	r0, r0, r4
     45c:	0002a629 	andeq	sl, r2, r9, lsr #12
     460:	25290400 	strcs	r0, [r9, #-1024]!	; 0x400
     464:	72000000 	andvc	r0, r0, #0
     468:	2a000004 	bcs	480 <_start-0x7b80>
     46c:	000000a1 	andeq	r0, r0, r1, lsr #1
     470:	c22c002b 	eorgt	r0, ip, #43	; 0x2b
     474:	04000000 	streq	r0, [r0], #-0
     478:	01910066 	orrseq	r0, r1, r6, rrx
     47c:	00040000 	andeq	r0, r4, r0
     480:	0000022d 	andeq	r0, r0, sp, lsr #4
     484:	01cc0104 	biceq	r0, ip, r4, lsl #2
     488:	95010000 	strls	r0, [r1, #-0]
     48c:	b7000002 	strlt	r0, [r0, -r2]
     490:	10000002 	andne	r0, r0, r2
     494:	58000081 	stmdapl	r0, {r0, r7}
     498:	36000000 	strcc	r0, [r0], -r0
     49c:	02000001 	andeq	r0, r0, #1
     4a0:	00000286 	andeq	r0, r0, r6, lsl #5
     4a4:	00302802 	eorseq	r2, r0, r2, lsl #16
     4a8:	ad030000 	stcge	0, cr0, [r3, #-0]
     4ac:	04000002 	streq	r0, [r0], #-2
     4b0:	00470003 	subeq	r0, r7, r3
     4b4:	00040000 	andeq	r0, r4, r0
     4b8:	47000003 	strmi	r0, [r0, -r3]
     4bc:	00000000 	andeq	r0, r0, r0
     4c0:	02040500 	andeq	r0, r4, #0, 10
     4c4:	000002af 	andeq	r0, r0, pc, lsr #5
     4c8:	00256202 	eoreq	r6, r5, r2, lsl #4
     4cc:	04060000 	streq	r0, [r6], #-0
     4d0:	746e6905 	strbtvc	r6, [lr], #-2309	; 0x905
     4d4:	07040700 	streq	r0, [r4, -r0, lsl #14]
     4d8:	00000019 	andeq	r0, r0, r9, lsl r0
     4dc:	9f060107 	svcls	0x00060107
     4e0:	07000001 	streq	r0, [r0, -r1]
     4e4:	01ab0502 			; <UNDEFINED> instruction: 0x01ab0502
     4e8:	04070000 	streq	r0, [r7], #-0
     4ec:	00003205 	andeq	r3, r0, r5, lsl #4
     4f0:	05080700 	streq	r0, [r8, #-1792]	; 0x700
     4f4:	0000002d 	andeq	r0, r0, sp, lsr #32
     4f8:	9d080107 	stflss	f0, [r8, #-28]	; 0xffffffe4
     4fc:	07000001 	streq	r0, [r0, -r1]
     500:	008d0702 	addeq	r0, sp, r2, lsl #14
     504:	04070000 	streq	r0, [r7], #-0
     508:	00001407 	andeq	r1, r0, r7, lsl #8
     50c:	07080700 	streq	r0, [r8, -r0, lsl #14]
     510:	0000000f 	andeq	r0, r0, pc
     514:	cf070407 	svcgt	0x00070407
     518:	08000000 	stmdaeq	r0, {}	; <UNPREDICTABLE>
     51c:	0000a704 	andeq	sl, r0, r4, lsl #14
     520:	08010700 	stmdaeq	r1, {r8, r9, sl}
     524:	000001a6 	andeq	r0, r0, r6, lsr #3
     528:	00b40408 	adcseq	r0, r4, r8, lsl #8
     52c:	a7090000 	strge	r0, [r9, -r0]
     530:	0a000000 	beq	538 <_start-0x7ac8>
     534:	000002a6 	andeq	r0, r0, r6, lsr #5
     538:	00540601 	subseq	r0, r4, r1, lsl #12
     53c:	81100000 	tsthi	r0, r0
     540:	00580000 	subseq	r0, r8, r0
     544:	9c010000 	stcls	0, cr0, [r1], {-0}
     548:	00000143 	andeq	r0, r0, r3, asr #2
     54c:	746d660b 	strbtvc	r6, [sp], #-1547	; 0x60b
     550:	ae060100 	adfges	f0, f6, f0
     554:	02000000 	andeq	r0, r0, #0
     558:	0d0c7091 	stceq	0, cr7, [ip, #-580]	; 0xfffffdbc
     55c:	00667562 	rsbeq	r7, r6, r2, ror #10
     560:	01430801 	cmpeq	r3, r1, lsl #16
     564:	03050000 	movweq	r0, #20480	; 0x5000
     568:	00009a60 	andeq	r9, r0, r0, ror #20
     56c:	0002fb0e 	andeq	pc, r2, lr, lsl #22
     570:	49090100 	stmdbmi	r9, {r8}
     574:	02000000 	andeq	r0, r0, #0
     578:	730f5c91 	movwvc	r5, #64657	; 0xfc91
     57c:	0c01007a 	stceq	0, cr0, [r1], {122}	; 0x7a
     580:	00000054 	andeq	r0, r0, r4, asr r0
     584:	0000010d 	andeq	r0, r0, sp, lsl #2
     588:	00813810 	addeq	r3, r1, r0, lsl r8
     58c:	00017400 	andeq	r7, r1, r0, lsl #8
     590:	00013600 	andeq	r3, r1, r0, lsl #12
     594:	53011100 	movwpl	r1, #4352	; 0x1100
     598:	114c9102 	cmpne	ip, r2, lsl #2
     59c:	91035201 	tstls	r3, r1, lsl #4
     5a0:	01110648 	tsteq	r1, r8, asr #12
     5a4:	000a0351 	andeq	r0, sl, r1, asr r3
     5a8:	50011104 	andpl	r1, r1, r4, lsl #2
     5ac:	00007402 	andeq	r7, r0, r2, lsl #8
     5b0:	00814c12 	addeq	r4, r1, r2, lsl ip
     5b4:	50011100 	andpl	r1, r1, r0, lsl #2
     5b8:	00007402 	andeq	r7, r0, r2, lsl #8
     5bc:	00a71300 	adceq	r1, r7, r0, lsl #6
     5c0:	01540000 	cmpeq	r4, r0
     5c4:	9a140000 	bls	5005cc <__bss_end__+0x4f675c>
     5c8:	ff000000 			; <UNDEFINED> instruction: 0xff000000
     5cc:	54150003 	ldrpl	r0, [r5], #-3
     5d0:	63000000 	movwvs	r0, #0
     5d4:	16000001 	strne	r0, [r0], -r1
     5d8:	000000ae 	andeq	r0, r0, lr, lsr #1
     5dc:	031a1700 	tsteq	sl, #0, 14
     5e0:	22040000 	andcs	r0, r4, #0
     5e4:	0000016e 	andeq	r0, r0, lr, ror #2
     5e8:	01540408 	cmpeq	r4, r8, lsl #8
     5ec:	a3180000 	tstge	r8, #0
     5f0:	05000002 	streq	r0, [r0, #-2]
     5f4:	00005402 	andeq	r5, r0, r2, lsl #8
     5f8:	00a11600 	adceq	r1, r1, r0, lsl #12
     5fc:	54160000 	ldrpl	r0, [r6], #-0
     600:	16000000 	strne	r0, [r0], -r0
     604:	000000ae 	andeq	r0, r0, lr, lsr #1
     608:	00004916 	andeq	r4, r0, r6, lsl r9
     60c:	ee000000 	cdp	0, 0, cr0, cr0, cr0, {0}
     610:	04000000 	streq	r0, [r0], #-0
     614:	00035e00 	andeq	r5, r3, r0, lsl #28
     618:	cc010400 	cfstrsgt	mvf0, [r1], {-0}
     61c:	01000001 	tsteq	r0, r1
     620:	00000305 	andeq	r0, r0, r5, lsl #6
     624:	000002b7 			; <UNDEFINED> instruction: 0x000002b7
     628:	00008168 	andeq	r8, r0, r8, ror #2
     62c:	00000034 	andeq	r0, r0, r4, lsr r0
     630:	0000023c 	andeq	r0, r0, ip, lsr r2
     634:	69050402 	stmdbvs	r5, {r1, sl}
     638:	0300746e 	movweq	r7, #1134	; 0x46e
     63c:	00190704 	andseq	r0, r9, r4, lsl #14
     640:	01030000 	mrseq	r0, (UNDEF: 3)
     644:	00019f06 	andeq	r9, r1, r6, lsl #30
     648:	05020300 	streq	r0, [r2, #-768]	; 0x300
     64c:	000001ab 	andeq	r0, r0, fp, lsr #3
     650:	32050403 	andcc	r0, r5, #50331648	; 0x3000000
     654:	03000000 	movweq	r0, #0
     658:	002d0508 	eoreq	r0, sp, r8, lsl #10
     65c:	01030000 	mrseq	r0, (UNDEF: 3)
     660:	00019d08 	andeq	r9, r1, r8, lsl #26
     664:	07020300 	streq	r0, [r2, -r0, lsl #6]
     668:	0000008d 	andeq	r0, r0, sp, lsl #1
     66c:	14070403 	strne	r0, [r7], #-1027	; 0x403
     670:	03000000 	movweq	r0, #0
     674:	000f0708 	andeq	r0, pc, r8, lsl #14
     678:	04030000 	streq	r0, [r3], #-0
     67c:	0000cf07 	andeq	ip, r0, r7, lsl #30
     680:	08010300 	stmdaeq	r1, {r8, r9}
     684:	000001a6 	andeq	r0, r0, r6, lsr #3
     688:	007f0404 	rsbseq	r0, pc, r4, lsl #8
     68c:	72050000 	andvc	r0, r5, #0
     690:	06000000 	streq	r0, [r0], -r0
     694:	00000311 	andeq	r0, r0, r1, lsl r3
     698:	00250401 	eoreq	r0, r5, r1, lsl #8
     69c:	81680000 	cmnhi	r8, r0
     6a0:	00340000 	eorseq	r0, r4, r0
     6a4:	9c010000 	stcls	0, cr0, [r1], {-0}
     6a8:	000000ab 	andeq	r0, r0, fp, lsr #1
     6ac:	01007007 	tsteq	r0, r7
     6b0:	00007904 	andeq	r7, r0, r4, lsl #18
     6b4:	00013600 	andeq	r3, r1, r0, lsl #12
     6b8:	25080000 	strcs	r0, [r8, #-0]
     6bc:	ba000000 	blt	6c4 <_start-0x793c>
     6c0:	09000000 	stmdbeq	r0, {}	; <UNPREDICTABLE>
     6c4:	00000025 	andeq	r0, r0, r5, lsr #32
     6c8:	031f0a00 	tsteq	pc, #0, 20
     6cc:	1d020000 	stcne	0, cr0, [r2, #-0]
     6d0:	000000c5 	andeq	r0, r0, r5, asr #1
     6d4:	00ab0404 	adceq	r0, fp, r4, lsl #8
     6d8:	25080000 	strcs	r0, [r8, #-0]
     6dc:	da000000 	ble	6e4 <_start-0x791c>
     6e0:	09000000 	stmdbeq	r0, {}	; <UNPREDICTABLE>
     6e4:	00000079 	andeq	r0, r0, r9, ror r0
     6e8:	031a0b00 	tsteq	sl, #0, 22
     6ec:	0c010000 	stceq	0, cr0, [r1], {-0}
     6f0:	000000eb 	andeq	r0, r0, fp, ror #1
     6f4:	96c80305 	strbls	r0, [r8], r5, lsl #6
     6f8:	04040000 	streq	r0, [r4], #-0
     6fc:	000000cb 	andeq	r0, r0, fp, asr #1
     700:	0006a100 	andeq	sl, r6, r0, lsl #2
     704:	f7000400 			; <UNDEFINED> instruction: 0xf7000400
     708:	04000003 	streq	r0, [r0], #-3
     70c:	0001cc01 	andeq	ip, r1, r1, lsl #24
     710:	03640100 	cmneq	r4, #0, 2
     714:	02b70000 	adcseq	r0, r7, #0
     718:	819c0000 	orrshi	r0, ip, r0
     71c:	05240000 	streq	r0, [r4, #-0]!
     720:	02d60000 	sbcseq	r0, r6, #0
     724:	04020000 	streq	r0, [r2], #-0
     728:	746e6905 	strbtvc	r6, [lr], #-2309	; 0x905
     72c:	07040300 	streq	r0, [r4, -r0, lsl #6]
     730:	00000019 	andeq	r0, r0, r9, lsl r0
     734:	9f060103 	svcls	0x00060103
     738:	03000001 	movweq	r0, #1
     73c:	01ab0502 			; <UNDEFINED> instruction: 0x01ab0502
     740:	04030000 	streq	r0, [r3], #-0
     744:	00003205 	andeq	r3, r0, r5, lsl #4
     748:	05080300 	streq	r0, [r8, #-768]	; 0x300
     74c:	0000002d 	andeq	r0, r0, sp, lsr #32
     750:	9d080103 	stflss	f0, [r8, #-12]
     754:	03000001 	movweq	r0, #1
     758:	008d0702 	addeq	r0, sp, r2, lsl #14
     75c:	04030000 	streq	r0, [r3], #-0
     760:	00001407 	andeq	r1, r0, r7, lsl #8
     764:	07080300 	streq	r0, [r8, -r0, lsl #6]
     768:	0000000f 	andeq	r0, r0, pc
     76c:	cf070403 	svcgt	0x00070403
     770:	04000000 	streq	r0, [r0], #-0
     774:	7a040504 	bvc	101b8c <__bss_end__+0xf7d1c>
     778:	03000000 	movweq	r0, #0
     77c:	01a60801 			; <UNDEFINED> instruction: 0x01a60801
     780:	04050000 	streq	r0, [r5], #-0
     784:	00000087 	andeq	r0, r0, r7, lsl #1
     788:	00007a06 	andeq	r7, r0, r6, lsl #20
     78c:	02860700 	addeq	r0, r6, #0, 14
     790:	28020000 	stmdacs	r2, {}	; <UNPREDICTABLE>
     794:	00000097 	muleq	r0, r7, r0
     798:	0002ad08 	andeq	sl, r2, r8, lsl #26
     79c:	00040400 	andeq	r0, r4, r0, lsl #8
     7a0:	000000ae 	andeq	r0, r0, lr, lsr #1
     7a4:	00030009 	andeq	r0, r3, r9
     7a8:	00007200 	andeq	r7, r0, r0, lsl #4
     7ac:	07000000 	streq	r0, [r0, -r0]
     7b0:	000002af 	andeq	r0, r0, pc, lsr #5
     7b4:	008c6202 	addeq	r6, ip, r2, lsl #4
     7b8:	390a0000 	stmdbcc	sl, {}	; <UNPREDICTABLE>
     7bc:	01000003 	tsteq	r0, r3
     7c0:	00002527 	andeq	r2, r0, r7, lsr #10
     7c4:	00819c00 	addeq	r9, r1, r0, lsl #24
     7c8:	00001400 	andeq	r1, r0, r0, lsl #8
     7cc:	e09c0100 	adds	r0, ip, r0, lsl #2
     7d0:	0b000000 	bleq	7d8 <_start-0x7828>
     7d4:	27010063 	strcs	r0, [r1, -r3, rrx]
     7d8:	00000025 	andeq	r0, r0, r5, lsr #32
     7dc:	00000154 	andeq	r0, r0, r4, asr r1
     7e0:	61700c00 	cmnvs	r0, r0, lsl #24
     7e4:	2e010064 	cdpcs	0, 0, cr0, cr1, cr4, {3}
     7e8:	00000074 	andeq	r0, r0, r4, ror r0
     7ec:	000081b0 			; <UNDEFINED> instruction: 0x000081b0
     7f0:	0000002c 	andeq	r0, r0, ip, lsr #32
     7f4:	01309c01 	teqeq	r0, r1, lsl #24
     7f8:	700b0000 	andvc	r0, fp, r0
     7fc:	742e0100 	strtvc	r0, [lr], #-256	; 0x100
     800:	82000000 	andhi	r0, r0, #0
     804:	0d000001 	stceq	0, cr0, [r0, #-4]
     808:	00000356 	andeq	r0, r0, r6, asr r3
     80c:	00742e01 	rsbseq	r2, r4, r1, lsl #28
     810:	01ad0000 			; <UNDEFINED> instruction: 0x01ad0000
     814:	840e0000 	strhi	r0, [lr], #-0
     818:	01000003 	tsteq	r0, r3
     81c:	0000252e 	andeq	r2, r0, lr, lsr #10
     820:	0f520100 	svceq	0x00520100
     824:	006e656c 	rsbeq	r6, lr, ip, ror #10
     828:	00252f01 	eoreq	r2, r5, r1, lsl #30
     82c:	51010000 	mrspl	r0, (UNDEF: 1)
     830:	03310a00 	teqeq	r1, #0, 20
     834:	37010000 	strcc	r0, [r1, -r0]
     838:	00000074 	andeq	r0, r0, r4, ror r0
     83c:	000081dc 	ldrdeq	r8, [r0], -ip
     840:	00000040 	andeq	r0, r0, r0, asr #32
     844:	019c9c01 	orrseq	r9, ip, r1, lsl #24
     848:	640b0000 	strvs	r0, [fp], #-0
     84c:	01007473 	tsteq	r0, r3, ror r4
     850:	00007437 	andeq	r7, r0, r7, lsr r4
     854:	0001ce00 	andeq	ip, r1, r0, lsl #28
     858:	006e0b00 	rsbeq	r0, lr, r0, lsl #22
     85c:	00253701 	eoreq	r3, r5, r1, lsl #14
     860:	02060000 	andeq	r0, r6, #0
     864:	700b0000 	andvc	r0, fp, r0
     868:	74370100 	ldrtvc	r0, [r7], #-256	; 0x100
     86c:	27000000 	strcs	r0, [r0, -r0]
     870:	0d000002 	stceq	0, cr0, [r0, #-8]
     874:	00000461 	andeq	r0, r0, r1, ror #8
     878:	00743701 	rsbseq	r3, r4, r1, lsl #14
     87c:	025d0000 	subseq	r0, sp, #0
     880:	6c100000 	ldcvs	0, cr0, [r0], {-0}
     884:	01006e65 	tsteq	r0, r5, ror #28
     888:	00002539 	andeq	r2, r0, r9, lsr r5
     88c:	00027b00 	andeq	r7, r2, r0, lsl #22
     890:	00730f00 	rsbseq	r0, r3, r0, lsl #30
     894:	00743d01 	rsbseq	r3, r4, r1, lsl #26
     898:	50010000 	andpl	r0, r1, r0
     89c:	03a10a00 			; <UNDEFINED> instruction: 0x03a10a00
     8a0:	47010000 	strmi	r0, [r1, -r0]
     8a4:	00000074 	andeq	r0, r0, r4, ror r0
     8a8:	0000821c 	andeq	r8, r0, ip, lsl r2
     8ac:	000001a8 	andeq	r0, r0, r8, lsr #3
     8b0:	02df9c01 	sbcseq	r9, pc, #256	; 0x100
     8b4:	560d0000 	strpl	r0, [sp], -r0
     8b8:	01000003 	tsteq	r0, r3
     8bc:	00002c47 	andeq	r2, r0, r7, asr #24
     8c0:	0002a200 	andeq	sl, r2, r0, lsl #4
     8c4:	73640b00 	cmnvc	r4, #0, 22
     8c8:	47010074 	smlsdxmi	r1, r4, r0, r0
     8cc:	00000074 	andeq	r0, r0, r4, ror r0
     8d0:	000002d0 	ldrdeq	r0, [r0], -r0	; <UNPREDICTABLE>
     8d4:	01006e0b 	tsteq	r0, fp, lsl #28
     8d8:	00002547 	andeq	r2, r0, r7, asr #10
     8dc:	00033e00 	andeq	r3, r3, r0, lsl #28
     8e0:	61760b00 	cmnvs	r6, r0, lsl #22
     8e4:	4701006c 	strmi	r0, [r1, -ip, rrx]
     8e8:	00000025 	andeq	r0, r0, r5, lsr #32
     8ec:	0000036a 	andeq	r0, r0, sl, ror #6
     8f0:	0003840d 	andeq	r8, r3, sp, lsl #8
     8f4:	25470100 	strbcs	r0, [r7, #-256]	; 0x100
     8f8:	e9000000 	stmdb	r0, {}	; <UNPREDICTABLE>
     8fc:	0e000003 	cdpeq	0, 0, cr0, cr0, cr3, {0}
     900:	0000035b 	andeq	r0, r0, fp, asr r3
     904:	00254701 	eoreq	r4, r5, r1, lsl #14
     908:	91020000 	mrsls	r0, (UNDEF: 2)
     90c:	75620f04 	strbvc	r0, [r2, #-3844]!	; 0xf04
     910:	4c010066 	stcmi	0, cr0, [r1], {102}	; 0x66
     914:	000002df 	ldrdeq	r0, [r0], -pc	; <UNPREDICTABLE>
     918:	7fa89103 	svcvc	0x00a89103
     91c:	01007010 	tsteq	r0, r0, lsl r0
     920:	0000744c 	andeq	r7, r0, ip, asr #8
     924:	00041300 	andeq	r1, r4, r0, lsl #6
     928:	00751000 	rsbseq	r1, r5, r0
     92c:	002c4d01 	eoreq	r4, ip, r1, lsl #26
     930:	04cf0000 	strbeq	r0, [pc], #0	; 938 <_start-0x76c8>
     934:	41110000 	tstmi	r1, r0
     938:	ff000003 			; <UNDEFINED> instruction: 0xff000003
     93c:	05000002 	streq	r0, [r0, #-2]
     940:	0097f003 	addseq	pc, r7, r3
     944:	82881200 	addhi	r1, r8, #0, 4
     948:	00740000 	rsbseq	r0, r4, r0
     94c:	02610000 	rsbeq	r0, r1, #0
     950:	2b130000 	blcs	4c0958 <__bss_end__+0x4b6ae8>
     954:	01000003 	tsteq	r0, r3
     958:	00002c52 	andeq	r2, r0, r2, asr ip
     95c:	0005d400 	andeq	sp, r5, r0, lsl #8
     960:	5c140000 	ldcpl	0, cr0, [r4], {-0}
     964:	80000083 	andhi	r0, r0, r3, lsl #1
     968:	15000006 	strne	r0, [r0, #-6]
     96c:	00008378 	andeq	r8, r0, r8, ror r3
     970:	00000687 	andeq	r0, r0, r7, lsl #13
     974:	000002a3 	andeq	r0, r0, r3, lsr #5
     978:	02530116 	subseq	r0, r3, #-2147483643	; 0x80000005
     97c:	01167508 	tsteq	r6, r8, lsl #10
     980:	f0030552 			; <UNDEFINED> instruction: 0xf0030552
     984:	16000097 			; <UNDEFINED> instruction: 0x16000097
     988:	03055101 	movweq	r5, #20737	; 0x5101
     98c:	00009828 	andeq	r9, r0, r8, lsr #16
     990:	05500116 	ldrbeq	r0, [r0, #-278]	; 0x116
     994:	00981403 	addseq	r1, r8, r3, lsl #8
     998:	7d021600 	stcvc	6, cr1, [r2, #-0]
     99c:	3c030500 	cfstr32cc	mvfx0, [r3], {-0}
     9a0:	00000098 	muleq	r0, r8, r0
     9a4:	00837c14 	addeq	r7, r3, r4, lsl ip
     9a8:	00069d00 	andeq	r9, r6, r0, lsl #26
     9ac:	83881500 	orrhi	r1, r8, #0, 10
     9b0:	00e00000 	rsceq	r0, r0, r0
     9b4:	02c10000 	sbceq	r0, r1, #0
     9b8:	01160000 	tsteq	r6, r0
     9bc:	a0910351 	addsge	r0, r1, r1, asr r3
     9c0:	9c17007f 	ldcls	0, cr0, [r7], {127}	; 0x7f
     9c4:	30000083 	andcc	r0, r0, r3, lsl #1
     9c8:	16000001 	strne	r0, [r0], -r1
     9cc:	91035301 	tstls	r3, r1, lsl #6
     9d0:	01167fa0 	tsteq	r6, r0, lsr #31
     9d4:	00740251 	rsbseq	r0, r4, r1, asr r2
     9d8:	02500116 	subseq	r0, r0, #-2147483643	; 0x80000005
     9dc:	00000075 	andeq	r0, r0, r5, ror r0
     9e0:	00007a18 	andeq	r7, r0, r8, lsl sl
     9e4:	0002ef00 	andeq	lr, r2, r0, lsl #30
     9e8:	006b1900 	rsbeq	r1, fp, r0, lsl #18
     9ec:	003f0000 	eorseq	r0, pc, r0
     9f0:	00007a18 	andeq	r7, r0, r8, lsl sl
     9f4:	0002ff00 	andeq	pc, r2, r0, lsl #30
     9f8:	006b1900 	rsbeq	r1, fp, r0, lsl #18
     9fc:	00040000 	andeq	r0, r4, r0
     a00:	0002ef06 	andeq	lr, r2, r6, lsl #30
     a04:	03751a00 	cmneq	r5, #0, 20
     a08:	1f010000 	svcne	0x00010000
     a0c:	000083c4 	andeq	r8, r0, r4, asr #7
     a10:	00000068 	andeq	r0, r0, r8, rrx
     a14:	03929c01 	orrseq	r9, r2, #256	; 0x100
     a18:	8a0d0000 	bhi	340a20 <__bss_end__+0x336bb0>
     a1c:	01000003 	tsteq	r0, r3
     a20:	0003a11f 	andeq	sl, r3, pc, lsl r1
     a24:	00060000 	andeq	r0, r6, r0
     a28:	034e0d00 	movteq	r0, #60672	; 0xed00
     a2c:	1f010000 	svcne	0x00010000
     a30:	000003b6 			; <UNDEFINED> instruction: 0x000003b6
     a34:	0000062c 	andeq	r0, r0, ip, lsr #12
     a38:	00034111 	andeq	r4, r3, r1, lsl r1
     a3c:	0003cc00 	andeq	ip, r3, r0, lsl #24
     a40:	f8030500 			; <UNDEFINED> instruction: 0xf8030500
     a44:	14000097 	strne	r0, [r0], #-151	; 0x97
     a48:	000083d8 	ldrdeq	r8, [r0], -r8	; <UNPREDICTABLE>
     a4c:	00000680 	andeq	r0, r0, r0, lsl #13
     a50:	0083f415 	addeq	pc, r3, r5, lsl r4	; <UNPREDICTABLE>
     a54:	00068700 	andeq	r8, r6, r0, lsl #14
     a58:	00038800 	andeq	r8, r3, r0, lsl #16
     a5c:	53011600 	movwpl	r1, #5632	; 0x1600
     a60:	16200802 	strtne	r0, [r0], -r2, lsl #16
     a64:	03055201 	movweq	r5, #20993	; 0x5201
     a68:	000097f8 	strdeq	r9, [r0], -r8
     a6c:	05510116 	ldrbeq	r0, [r1, #-278]	; 0x116
     a70:	00982803 	addseq	r2, r8, r3, lsl #16
     a74:	50011600 	andpl	r1, r1, r0, lsl #12
     a78:	98140305 	ldmdals	r4, {r0, r2, r8, r9}
     a7c:	02160000 	andseq	r0, r6, #0
     a80:	0305007d 	movweq	r0, #20605	; 0x507d
     a84:	00009864 	andeq	r9, r0, r4, ror #16
     a88:	83f81400 	mvnshi	r1, #0, 8
     a8c:	069d0000 	ldreq	r0, [sp], r0
     a90:	1b000000 	blne	a98 <_start-0x7568>
     a94:	00000025 	andeq	r0, r0, r5, lsr #32
     a98:	000003a1 	andeq	r0, r0, r1, lsr #7
     a9c:	0000251c 	andeq	r2, r0, ip, lsl r5
     aa0:	04050000 	streq	r0, [r5], #-0
     aa4:	00000392 	muleq	r0, r2, r3
     aa8:	0000251b 	andeq	r2, r0, fp, lsl r5
     aac:	0003b600 	andeq	fp, r3, r0, lsl #12
     ab0:	00811c00 	addeq	r1, r1, r0, lsl #24
     ab4:	05000000 	streq	r0, [r0, #-0]
     ab8:	0003a704 	andeq	sl, r3, r4, lsl #14
     abc:	007a1800 	rsbseq	r1, sl, r0, lsl #16
     ac0:	03cc0000 	biceq	r0, ip, #0
     ac4:	6b190000 	blvs	640acc <__bss_end__+0x636c5c>
     ac8:	0e000000 	cdpeq	0, 0, cr0, cr0, cr0, {0}
     acc:	03bc0600 			; <UNDEFINED> instruction: 0x03bc0600
     ad0:	a31d0000 	tstge	sp, #0
     ad4:	01000002 	tsteq	r0, r2
     ad8:	0000257d 	andeq	r2, r0, sp, ror r5
     adc:	00842c00 	addeq	r2, r4, r0, lsl #24
     ae0:	00029400 	andeq	r9, r2, r0, lsl #8
     ae4:	459c0100 	ldrmi	r0, [ip, #256]	; 0x100
     ae8:	0b000006 	bleq	b08 <_start-0x74f8>
     aec:	00667562 	rsbeq	r7, r6, r2, ror #10
     af0:	00747d01 	rsbseq	r7, r4, r1, lsl #26
     af4:	06580000 	ldrbeq	r0, [r8], -r0
     af8:	6e0b0000 	cdpvs	0, 0, cr0, cr11, cr0, {0}
     afc:	257d0100 	ldrbcs	r0, [sp, #-256]!	; 0x100
     b00:	84000000 	strhi	r0, [r0], #-0
     b04:	0b000006 	bleq	b24 <_start-0x74dc>
     b08:	00746d66 	rsbseq	r6, r4, r6, ror #26
     b0c:	00817d01 	addeq	r7, r1, r1, lsl #26
     b10:	06b20000 	ldrteq	r0, [r2], r0
     b14:	fb0d0000 	blx	340b1e <__bss_end__+0x336cae>
     b18:	01000002 	tsteq	r0, r2
     b1c:	0000ae7d 	andeq	sl, r0, sp, ror lr
     b20:	0006e600 	andeq	lr, r6, r0, lsl #12
     b24:	00701000 	rsbseq	r1, r0, r0
     b28:	00747e01 	rsbseq	r7, r4, r1, lsl #28
     b2c:	06f90000 	ldrbteq	r0, [r9], r0
     b30:	65100000 	ldrvs	r0, [r0, #-0]
     b34:	747e0100 	ldrbtvc	r0, [lr], #-256	; 0x100
     b38:	77000000 	strvc	r0, [r0, -r0]
     b3c:	11000007 	tstne	r0, r7
     b40:	00000341 	andeq	r0, r0, r1, asr #6
     b44:	00000655 	andeq	r0, r0, r5, asr r6
     b48:	98080305 	stmdals	r8, {r0, r2, r8, r9}
     b4c:	001e0000 	andseq	r0, lr, r0
     b50:	10000000 	andne	r0, r0, r0
     b54:	8b010073 	blhi	40d28 <__bss_end__+0x36eb8>
     b58:	00000074 	andeq	r0, r0, r4, ror r0
     b5c:	0000079e 	muleq	r0, lr, r7
     b60:	6d756e0f 	ldclvs	14, cr6, [r5, #-60]!	; 0xffffffc4
     b64:	5a8b0100 	bpl	fe2c0f6c <__bss_end__+0xfe2b70fc>
     b68:	03000006 	movweq	r0, #6
     b6c:	137ed891 	cmnne	lr, #9502720	; 0x910000
     b70:	00000384 	andeq	r0, r0, r4, lsl #7
     b74:	002c8c01 	eoreq	r8, ip, r1, lsl #24
     b78:	07f30000 	ldrbeq	r0, [r3, r0]!
     b7c:	b0150000 	andslt	r0, r5, r0
     b80:	b9000084 	stmdblt	r0, {r2, r7}
     b84:	91000000 	mrsls	r0, (UNDEF: 0)
     b88:	16000004 	strne	r0, [r0], -r4
     b8c:	75025001 	strvc	r5, [r2, #-1]
     b90:	c4140000 	ldrgt	r0, [r4], #-0
     b94:	80000084 	andhi	r0, r0, r4, lsl #1
     b98:	15000006 	strne	r0, [r0, #-6]
     b9c:	000084e0 	andeq	r8, r0, r0, ror #9
     ba0:	00000687 	andeq	r0, r0, r7, lsl #13
     ba4:	000004d3 	ldrdeq	r0, [r0], -r3
     ba8:	02530116 	subseq	r0, r3, #-2147483643	; 0x80000005
     bac:	01169208 	tsteq	r6, r8, lsl #4
     bb0:	08030552 	stmdaeq	r3, {r1, r4, r6, r8, sl}
     bb4:	16000098 			; <UNDEFINED> instruction: 0x16000098
     bb8:	03055101 	movweq	r5, #20737	; 0x5101
     bbc:	00009828 	andeq	r9, r0, r8, lsr #16
     bc0:	05500116 	ldrbeq	r0, [r0, #-278]	; 0x116
     bc4:	00981403 	addseq	r1, r8, r3, lsl #8
     bc8:	7d021600 	stcvc	6, cr1, [r2, #-0]
     bcc:	6c030500 	cfstr32vs	mvfx0, [r3], {-0}
     bd0:	00000098 	muleq	r0, r8, r0
     bd4:	0084e414 	addeq	lr, r4, r4, lsl r4
     bd8:	00069d00 	andeq	r9, r6, r0, lsl #26
     bdc:	85541400 	ldrbhi	r1, [r4, #-1024]	; 0x400
     be0:	06800000 	streq	r0, [r0], r0
     be4:	68150000 	ldmdavs	r5, {}	; <UNPREDICTABLE>
     be8:	87000085 	strhi	r0, [r0, -r5, lsl #1]
     bec:	14000006 	strne	r0, [r0], #-6
     bf0:	16000005 	strne	r0, [r0], -r5
     bf4:	08025301 	stmdaeq	r2, {r0, r8, r9, ip, lr}
     bf8:	52011698 	andpl	r1, r1, #152, 12	; 0x9800000
     bfc:	98080305 	stmdals	r8, {r0, r2, r8, r9}
     c00:	01160000 	tsteq	r6, r0
     c04:	28030551 	stmdacs	r3, {r0, r4, r6, r8, sl}
     c08:	16000098 			; <UNDEFINED> instruction: 0x16000098
     c0c:	03055001 	movweq	r5, #20481	; 0x5001
     c10:	00009878 	andeq	r9, r0, r8, ror r8
     c14:	856c1400 	strbhi	r1, [ip, #-1024]!	; 0x400
     c18:	069d0000 	ldreq	r0, [sp], r0
     c1c:	90150000 	andsls	r0, r5, r0
     c20:	9c000085 	stcls	0, cr0, [r0], {133}	; 0x85
     c24:	4a000001 	bmi	c30 <_start-0x73d0>
     c28:	16000005 	strne	r0, [r0], -r5
     c2c:	08025201 	stmdaeq	r2, {r0, r9, ip, lr}
     c30:	51011680 	smlabbpl	r1, r0, r6, r1
     c34:	7ed09103 	atnvcs	f1, f3
     c38:	01500116 	cmpeq	r0, r6, lsl r1
     c3c:	7d02163a 	stcvc	6, cr1, [r2, #-232]	; 0xffffff18
     c40:	16310104 	ldrtne	r0, [r1], -r4, lsl #2
     c44:	02007d02 	andeq	r7, r0, #2, 26	; 0x80
     c48:	15000077 	strne	r0, [r0, #-119]	; 0x77
     c4c:	000085b4 			; <UNDEFINED> instruction: 0x000085b4
     c50:	0000019c 	muleq	r0, ip, r1
     c54:	00000578 	andeq	r0, r0, r8, ror r5
     c58:	02520116 	subseq	r0, r2, #-2147483643	; 0x80000005
     c5c:	01168008 	tsteq	r6, r8
     c60:	d0910351 	addsle	r0, r1, r1, asr r3
     c64:	5001167e 	andpl	r1, r1, lr, ror r6
     c68:	02163a01 	andseq	r3, r6, #4096	; 0x1000
     c6c:	7b02047d 	blvc	81e68 <__bss_end__+0x77ff8>
     c70:	7d021600 	stcvc	6, cr1, [r2, #-0]
     c74:	00770200 	rsbseq	r0, r7, r0, lsl #4
     c78:	85d81500 	ldrbhi	r1, [r8, #1280]	; 0x500
     c7c:	019c0000 	orrseq	r0, ip, r0
     c80:	05a60000 	streq	r0, [r6, #0]!
     c84:	01160000 	tsteq	r6, r0
     c88:	80080252 	andhi	r0, r8, r2, asr r2
     c8c:	03510116 	cmpeq	r1, #-2147483643	; 0x80000005
     c90:	167ed091 			; <UNDEFINED> instruction: 0x167ed091
     c94:	40015001 	andmi	r5, r1, r1
     c98:	047d0216 	ldrbteq	r0, [sp], #-534	; 0x216
     c9c:	16007b02 	strne	r7, [r0], -r2, lsl #22
     ca0:	02007d02 	andeq	r7, r0, #2, 26	; 0x80
     ca4:	15000077 	strne	r0, [r0, #-119]	; 0x77
     ca8:	000085fc 	strdeq	r8, [r0], -ip
     cac:	0000019c 	muleq	r0, ip, r1
     cb0:	000005d4 	ldrdeq	r0, [r0], -r4
     cb4:	02520116 	subseq	r0, r2, #-2147483643	; 0x80000005
     cb8:	01168008 	tsteq	r6, r8
     cbc:	d0910351 	addsle	r0, r1, r1, asr r3
     cc0:	5001167e 	andpl	r1, r1, lr, ror r6
     cc4:	02163201 	andseq	r3, r6, #268435456	; 0x10000000
     cc8:	7b02047d 	blvc	81ec4 <__bss_end__+0x78054>
     ccc:	7d021600 	stcvc	6, cr1, [r2, #-0]
     cd0:	00770200 	rsbseq	r0, r7, r0, lsl #4
     cd4:	862c1500 	strthi	r1, [ip], -r0, lsl #10
     cd8:	019c0000 	orrseq	r0, ip, r0
     cdc:	06020000 	streq	r0, [r2], -r0
     ce0:	01160000 	tsteq	r6, r0
     ce4:	80080252 	andhi	r0, r8, r2, asr r2
     ce8:	03510116 	cmpeq	r1, #-2147483643	; 0x80000005
     cec:	167ed091 			; <UNDEFINED> instruction: 0x167ed091
     cf0:	38015001 	stmdacc	r1, {r0, ip, lr}
     cf4:	047d0216 	ldrbteq	r0, [sp], #-534	; 0x216
     cf8:	16007b02 	strne	r7, [r0], -r2, lsl #22
     cfc:	02007d02 	andeq	r7, r0, #2, 26	; 0x80
     d00:	14000077 	strne	r0, [r0], #-119	; 0x77
     d04:	00008634 	andeq	r8, r0, r4, lsr r6
     d08:	00000680 	andeq	r0, r0, r0, lsl #13
     d0c:	00865015 	addeq	r5, r6, r5, lsl r0
     d10:	00068700 	andeq	r8, r6, r0, lsl #14
     d14:	00063a00 	andeq	r3, r6, r0, lsl #20
     d18:	53011600 	movwpl	r1, #5632	; 0x1600
     d1c:	16b90802 	ldrtne	r0, [r9], r2, lsl #16
     d20:	03055201 	movweq	r5, #20993	; 0x5201
     d24:	00009808 	andeq	r9, r0, r8, lsl #16
     d28:	05510116 	ldrbeq	r0, [r1, #-278]	; 0x116
     d2c:	00982803 	addseq	r2, r8, r3, lsl #16
     d30:	50011600 	andpl	r1, r1, r0, lsl #12
     d34:	98a00305 	stmials	r0!, {r0, r2, r8, r9}
     d38:	14000000 	strne	r0, [r0], #-0
     d3c:	00008654 	andeq	r8, r0, r4, asr r6
     d40:	0000069d 	muleq	r0, sp, r6
     d44:	7a180000 	bvc	600d4c <__bss_end__+0x5f6edc>
     d48:	55000000 	strpl	r0, [r0, #-0]
     d4c:	19000006 	stmdbne	r0, {r1, r2}
     d50:	0000006b 	andeq	r0, r0, fp, rrx
     d54:	45060009 	strmi	r0, [r6, #-9]
     d58:	18000006 	stmdane	r0, {r1, r2}
     d5c:	0000007a 	andeq	r0, r0, sl, ror r0
     d60:	0000066a 	andeq	r0, r0, sl, ror #12
     d64:	00006b19 	andeq	r6, r0, r9, lsl fp
     d68:	1f007f00 	svcne	0x00007f00
     d6c:	0000031f 	andeq	r0, r0, pc, lsl r3
     d70:	03a11d03 			; <UNDEFINED> instruction: 0x03a11d03
     d74:	1a1f0000 	bne	7c0d7c <__bss_end__+0x7b6f0c>
     d78:	03000003 	movweq	r0, #3
     d7c:	0003b622 	andeq	fp, r3, r2, lsr #12
     d80:	03922000 	orrseq	r2, r2, #0
     d84:	1e030000 	cdpne	0, 0, cr0, cr3, cr0, {0}
     d88:	0002a621 	andeq	sl, r2, r1, lsr #12
     d8c:	25290300 	strcs	r0, [r9, #-768]!	; 0x300
     d90:	9d000000 	stcls	0, cr0, [r0, #-0]
     d94:	1c000006 	stcne	0, cr0, [r0], {6}
     d98:	00000081 	andeq	r0, r0, r1, lsl #1
     d9c:	c2200022 	eorgt	r0, r0, #34	; 0x22
     da0:	03000000 	movweq	r0, #0
     da4:	00ff0066 	rscseq	r0, pc, r6, rrx
     da8:	00040000 	andeq	r0, r4, r0
     dac:	000005d3 	ldrdeq	r0, [r0], -r3
     db0:	01cc0104 	biceq	r0, ip, r4, lsl #2
     db4:	b1010000 	mrslt	r0, (UNDEF: 1)
     db8:	b7000003 	strlt	r0, [r0, -r3]
     dbc:	c0000002 	andgt	r0, r0, r2
     dc0:	28000086 	stmdacs	r0, {r1, r2, r7}
     dc4:	bc000000 	stclt	0, cr0, [r0], {-0}
     dc8:	02000004 	andeq	r0, r0, #4
     dcc:	6e690504 	cdpvs	5, 6, cr0, cr9, cr4, {0}
     dd0:	04030074 	streq	r0, [r3], #-116	; 0x74
     dd4:	00001907 	andeq	r1, r0, r7, lsl #18
     dd8:	06010300 	streq	r0, [r1], -r0, lsl #6
     ddc:	0000019f 	muleq	r0, pc, r1	; <UNPREDICTABLE>
     de0:	ab050203 	blge	1415f4 <__bss_end__+0x137784>
     de4:	03000001 	movweq	r0, #1
     de8:	00320504 	eorseq	r0, r2, r4, lsl #10
     dec:	08030000 	stmdaeq	r3, {}	; <UNPREDICTABLE>
     df0:	00002d05 	andeq	r2, r0, r5, lsl #26
     df4:	08010300 	stmdaeq	r1, {r8, r9}
     df8:	0000019d 	muleq	r0, sp, r1
     dfc:	8d070203 	sfmhi	f0, 4, [r7, #-12]
     e00:	03000000 	movweq	r0, #0
     e04:	00140704 	andseq	r0, r4, r4, lsl #14
     e08:	08030000 	stmdaeq	r3, {}	; <UNPREDICTABLE>
     e0c:	00000f07 	andeq	r0, r0, r7, lsl #30
     e10:	07040300 	streq	r0, [r4, -r0, lsl #6]
     e14:	000000cf 	andeq	r0, r0, pc, asr #1
     e18:	a6080103 	strge	r0, [r8], -r3, lsl #2
     e1c:	04000001 	streq	r0, [r0], #-1
     e20:	00007f04 	andeq	r7, r0, r4, lsl #30
     e24:	00720500 	rsbseq	r0, r2, r0, lsl #10
     e28:	c2060000 	andgt	r0, r6, #0
     e2c:	01000000 	mrseq	r0, (UNDEF: 0)
     e30:	0086c004 	addeq	ip, r6, r4
     e34:	00002800 	andeq	r2, r0, r0, lsl #16
     e38:	ca9c0100 	bgt	fe701240 <__bss_end__+0xfe6f73d0>
     e3c:	07000000 	streq	r0, [r0, -r0]
     e40:	000086d4 	ldrdeq	r8, [r0], -r4
     e44:	000000ac 	andeq	r0, r0, ip, lsr #1
     e48:	05500108 	ldrbeq	r0, [r0, #-264]	; 0x108
     e4c:	0098d803 	addseq	sp, r8, r3, lsl #16
     e50:	dc090000 	stcle	0, cr0, [r9], {-0}
     e54:	ea000086 	b	1074 <_start-0x6f8c>
     e58:	c0000000 	andgt	r0, r0, r0
     e5c:	08000000 	stmdaeq	r0, {}	; <UNPREDICTABLE>
     e60:	08025001 	stmdaeq	r2, {r0, ip, lr}
     e64:	e00a0064 	and	r0, sl, r4, rrx
     e68:	fb000086 	blx	108a <_start-0x6f76>
     e6c:	00000000 	andeq	r0, r0, r0
     e70:	0000250b 	andeq	r2, r0, fp, lsl #10
     e74:	0000d900 	andeq	sp, r0, r0, lsl #18
     e78:	00790c00 	rsbseq	r0, r9, r0, lsl #24
     e7c:	0d000000 	stceq	0, cr0, [r0, #-0]
     e80:	0000031a 	andeq	r0, r0, sl, lsl r3
     e84:	00e42202 	rsceq	r2, r4, r2, lsl #4
     e88:	04040000 	streq	r0, [r4], #-0
     e8c:	000000ca 	andeq	r0, r0, sl, asr #1
     e90:	0003cb0e 	andeq	ip, r3, lr, lsl #22
     e94:	fb500200 	blx	140169e <__bss_end__+0x13f782e>
     e98:	0c000000 	stceq	0, cr0, [r0], {-0}
     e9c:	0000002c 	andeq	r0, r0, ip, lsr #32
     ea0:	03a60f00 			; <UNDEFINED> instruction: 0x03a60f00
     ea4:	63020000 	movwvs	r0, #8192	; 0x2000
     ea8:	0002dd00 	andeq	sp, r2, r0, lsl #26
     eac:	9d000400 	cfstrsls	mvf0, [r0, #-0]
     eb0:	04000006 	streq	r0, [r0], #-6
     eb4:	0001cc01 	andeq	ip, r1, r1, lsl #24
     eb8:	04ae0100 	strteq	r0, [lr], #256	; 0x100
     ebc:	02b70000 	adcseq	r0, r7, #0
     ec0:	86e80000 	strbthi	r0, [r8], r0
     ec4:	00b00000 	adcseq	r0, r0, r0
     ec8:	05530000 	ldrbeq	r0, [r3, #-0]
     ecc:	04020000 	streq	r0, [r2], #-0
     ed0:	746e6905 	strbtvc	r6, [lr], #-2309	; 0x905
     ed4:	07040300 	streq	r0, [r4, -r0, lsl #6]
     ed8:	00000019 	andeq	r0, r0, r9, lsl r0
     edc:	9f060103 	svcls	0x00060103
     ee0:	03000001 	movweq	r0, #1
     ee4:	01ab0502 			; <UNDEFINED> instruction: 0x01ab0502
     ee8:	04030000 	streq	r0, [r3], #-0
     eec:	00003205 	andeq	r3, r0, r5, lsl #4
     ef0:	05080300 	streq	r0, [r8, #-768]	; 0x300
     ef4:	0000002d 	andeq	r0, r0, sp, lsr #32
     ef8:	00024204 	andeq	r4, r2, r4, lsl #4
     efc:	5a2e0200 	bpl	b81704 <__bss_end__+0xb77894>
     f00:	03000000 	movweq	r0, #0
     f04:	019d0801 	orrseq	r0, sp, r1, lsl #16
     f08:	02030000 	andeq	r0, r3, #0
     f0c:	00008d07 	andeq	r8, r0, r7, lsl #26
     f10:	01bc0400 			; <UNDEFINED> instruction: 0x01bc0400
     f14:	34020000 	strcc	r0, [r2], #-0
     f18:	00000073 	andeq	r0, r0, r3, ror r0
     f1c:	14070403 	strne	r0, [r7], #-1027	; 0x403
     f20:	03000000 	movweq	r0, #0
     f24:	000f0708 	andeq	r0, pc, r8, lsl #14
     f28:	04030000 	streq	r0, [r3], #-0
     f2c:	0000cf07 	andeq	ip, r0, r7, lsl #30
     f30:	08010300 	stmdaeq	r1, {r8, r9}
     f34:	000001a6 	andeq	r0, r0, r6, lsr #3
     f38:	00950405 	addseq	r0, r5, r5, lsl #8
     f3c:	88060000 	stmdahi	r6, {}	; <UNPREDICTABLE>
     f40:	07000000 	streq	r0, [r0, -r0]
     f44:	d10e030c 	tstle	lr, ip, lsl #6
     f48:	08000000 	stmdaeq	r0, {}	; <UNPREDICTABLE>
     f4c:	03007874 	movweq	r7, #2164	; 0x874
     f50:	00004f0f 	andeq	r4, r0, pc, lsl #30
     f54:	72080000 	andvc	r0, r8, #0
     f58:	0f030078 	svceq	0x00030078
     f5c:	0000004f 	andeq	r0, r0, pc, asr #32
     f60:	044d0901 	strbeq	r0, [sp], #-2305	; 0x901
     f64:	10030000 	andne	r0, r3, r0
     f68:	00000068 	andeq	r0, r0, r8, rrx
     f6c:	03fe0904 	mvnseq	r0, #4, 18	; 0x10000
     f70:	11030000 	mrsne	r0, (UNDEF: 3)
     f74:	00000068 	andeq	r0, r0, r8, rrx
     f78:	36040008 	strcc	r0, [r4], -r8
     f7c:	03000004 	movweq	r0, #4
     f80:	00009a12 	andeq	r9, r0, r2, lsl sl
     f84:	04010a00 	streq	r0, [r1], #-2560	; 0xa00
     f88:	0000f710 	andeq	pc, r0, r0, lsl r7	; <UNPREDICTABLE>
     f8c:	04520b00 	ldrbeq	r0, [r2], #-2816	; 0xb00
     f90:	0b010000 	bleq	40f98 <__bss_end__+0x37128>
     f94:	00000440 	andeq	r0, r0, r0, asr #8
     f98:	04280b02 	strteq	r0, [r8], #-2818	; 0xb02
     f9c:	00030000 	andeq	r0, r3, r0
     fa0:	00046704 	andeq	r6, r4, r4, lsl #14
     fa4:	dc100400 	cfldrsle	mvf0, [r0], {-0}
     fa8:	07000000 	streq	r0, [r0, -r0]
     fac:	2f140414 	svccs	0x00140414
     fb0:	09000001 	stmdbeq	r0, {r0}
     fb4:	000004ce 	andeq	r0, r0, lr, asr #9
     fb8:	002c1504 	eoreq	r1, ip, r4, lsl #10
     fbc:	09000000 	stmdbeq	r0, {}	; <UNPREDICTABLE>
     fc0:	000004c2 	andeq	r0, r0, r2, asr #9
     fc4:	00f71804 	rscseq	r1, r7, r4, lsl #16
     fc8:	09040000 	stmdbeq	r4, {}	; <UNPREDICTABLE>
     fcc:	0000048d 	andeq	r0, r0, sp, lsl #9
     fd0:	00d11b04 	sbcseq	r1, r1, r4, lsl #22
     fd4:	00080000 	andeq	r0, r8, r0
     fd8:	00047f04 	andeq	r7, r4, r4, lsl #30
     fdc:	02200400 	eoreq	r0, r0, #0, 8
     fe0:	0c000001 	stceq	0, cr0, [r0], {1}
     fe4:	000003d4 	ldrdeq	r0, [r0], -r4
     fe8:	00250601 	eoreq	r0, r5, r1, lsl #12
     fec:	86e80000 	strbthi	r0, [r8], r0
     ff0:	00200000 	eoreq	r0, r0, r0
     ff4:	9c010000 	stcls	0, cr0, [r1], {-0}
     ff8:	0000017a 	andeq	r0, r0, sl, ror r1
     ffc:	0100630d 	tsteq	r0, sp, lsl #6
    1000:	00002506 	andeq	r2, r0, r6, lsl #10
    1004:	00081d00 	andeq	r1, r8, r0, lsl #26
    1008:	86fc0e00 	ldrbthi	r0, [ip], r0, lsl #28
    100c:	027a0000 	rsbseq	r0, sl, #0
    1010:	010f0000 	mrseq	r0, CPSR
    1014:	00740251 	rsbseq	r0, r4, r1, asr r2
    1018:	0550010f 	ldrbeq	r0, [r0, #-271]	; 0x10f
    101c:	009e6003 	addseq	r6, lr, r3
    1020:	10000000 	andne	r0, r0, r0
    1024:	0000045f 	andeq	r0, r0, pc, asr r4
    1028:	87080b01 	strhi	r0, [r8, -r1, lsl #22]
    102c:	00900000 	addseq	r0, r0, r0
    1030:	9c010000 	stcls	0, cr0, [r1], {-0}
    1034:	00000227 	andeq	r0, r0, r7, lsr #4
    1038:	0003e811 	andeq	lr, r3, r1, lsl r8
    103c:	250c0100 	strcs	r0, [ip, #-256]	; 0x100
    1040:	11000000 	mrsne	r0, (UNDEF: 0)
    1044:	000004a2 	andeq	r0, r0, r2, lsr #9
    1048:	00250c01 	eoreq	r0, r5, r1, lsl #24
    104c:	00120000 	andseq	r0, r2, r0
    1050:	01000000 	mrseq	r0, (UNDEF: 0)
    1054:	7362130d 	cmnvc	r2, #872415232	; 0x34000000
    1058:	0f010073 	svceq	0x00010073
    105c:	00000227 	andeq	r0, r0, r7, lsr #4
    1060:	0000083b 	andeq	r0, r0, fp, lsr r8
    1064:	0003f614 	andeq	pc, r3, r4, lsl r6	; <UNPREDICTABLE>
    1068:	27100100 	ldrcs	r0, [r0, -r0, lsl #2]
    106c:	13000002 	movwne	r0, #2
    1070:	01006263 	tsteq	r0, r3, ror #4
    1074:	00022d17 	andeq	r2, r2, r7, lsl sp
    1078:	00085b00 	andeq	r5, r8, r0, lsl #22
    107c:	87301500 	ldrhi	r1, [r0, -r0, lsl #10]!
    1080:	02960000 	addseq	r0, r6, #0
    1084:	6c160000 	ldcvs	0, cr0, [r6], {-0}
    1088:	a1000087 	smlabbge	r0, r7, r0, r0
    108c:	fd000002 	stc2	0, cr0, [r0, #-8]
    1090:	0f000001 	svceq	0x00000001
    1094:	03055101 	movweq	r5, #20737	; 0x5101
    1098:	000098e4 	andeq	r9, r0, r4, ror #17
    109c:	0550010f 	ldrbeq	r0, [r0, #-271]	; 0x10f
    10a0:	009e6003 	addseq	r6, lr, r3
    10a4:	74160000 	ldrvc	r0, [r6], #-0
    10a8:	bc000087 	stclt	0, cr0, [r0], {135}	; 0x87
    10ac:	14000002 	strne	r0, [r0], #-2
    10b0:	0f000002 	svceq	0x00000002
    10b4:	03055001 	movweq	r5, #20481	; 0x5001
    10b8:	000097e4 	andeq	r9, r0, r4, ror #15
    10bc:	87781500 	ldrbhi	r1, [r8, -r0, lsl #10]!
    10c0:	02d20000 	sbcseq	r0, r2, #0
    10c4:	7c150000 	ldcvc	0, cr0, [r5], {-0}
    10c8:	d9000087 	stmdble	r0, {r0, r1, r2, r7}
    10cc:	00000002 	andeq	r0, r0, r2
    10d0:	00250405 	eoreq	r0, r5, r5, lsl #8
    10d4:	04050000 	streq	r0, [r5], #-0
    10d8:	0000012f 	andeq	r0, r0, pc, lsr #2
    10dc:	00040c17 	andeq	r0, r4, r7, lsl ip
    10e0:	d1050100 	mrsle	r0, (UNDEF: 21)
    10e4:	05000000 	streq	r0, [r0, #-0]
    10e8:	009e6003 	addseq	r6, lr, r3
    10ec:	00251800 	eoreq	r1, r5, r0, lsl #16
    10f0:	02530000 	subseq	r0, r3, #0
    10f4:	25190000 	ldrcs	r0, [r9, #-0]
    10f8:	00000000 	andeq	r0, r0, r0
    10fc:	00031f11 	andeq	r1, r3, r1, lsl pc
    1100:	5e1d0500 	cfmul32pl	mvfx0, mvfx13, mvfx0
    1104:	05000002 	streq	r0, [r0, #-2]
    1108:	00024404 	andeq	r4, r2, r4, lsl #8
    110c:	03e81100 	mvneq	r1, #0, 2
    1110:	0c010000 	stceq	0, cr0, [r1], {-0}
    1114:	00000025 	andeq	r0, r0, r5, lsr #32
    1118:	0004a211 	andeq	sl, r4, r1, lsl r2
    111c:	250c0100 	strcs	r0, [ip, #-256]	; 0x100
    1120:	1a000000 	bne	1128 <_start-0x6ed8>
    1124:	00000472 	andeq	r0, r0, r2, ror r4
    1128:	02904403 	addseq	r4, r0, #50331648	; 0x3000000
    112c:	90190000 	andsls	r0, r9, r0
    1130:	19000002 	stmdbne	r0, {r1}
    1134:	0000005a 	andeq	r0, r0, sl, asr r0
    1138:	d1040500 	tstle	r4, r0, lsl #10
    113c:	1b000000 	blne	1144 <_start-0x6ebc>
    1140:	00000495 	muleq	r0, r5, r4
    1144:	022d2a04 	eoreq	r2, sp, #4, 20	; 0x4000
    1148:	191c0000 	ldmdbne	ip, {}	; <UNPREDICTABLE>
    114c:	03000004 	movweq	r0, #4
    1150:	00002515 	andeq	r2, r0, r5, lsl r5
    1154:	0002bc00 	andeq	fp, r2, r0, lsl #24
    1158:	02901900 	addseq	r1, r0, #0, 18
    115c:	8f190000 	svchi	0x00190000
    1160:	1d000000 	stcne	0, cr0, [r0, #-0]
    1164:	02a61c00 	adceq	r1, r6, #0, 24
    1168:	29050000 	stmdbcs	r5, {}	; <UNPREDICTABLE>
    116c:	00000025 	andeq	r0, r0, r5, lsr #32
    1170:	000002d2 	ldrdeq	r0, [r0], -r2
    1174:	00008f19 	andeq	r8, r0, r9, lsl pc
    1178:	12001d00 	andne	r1, r0, #0, 26
    117c:	00000000 	andeq	r0, r0, r0
    1180:	a612d105 	ldrge	sp, [r2], -r5, lsl #2
    1184:	05000003 	streq	r0, [r0, #-3]
    1188:	01ad0063 			; <UNDEFINED> instruction: 0x01ad0063
    118c:	00040000 	andeq	r0, r4, r0
    1190:	00000834 	andeq	r0, r0, r4, lsr r8
    1194:	01cc0104 	biceq	r0, ip, r4, lsl #2
    1198:	ee010000 	cdp	0, 0, cr0, cr1, cr0, {0}
    119c:	b7000004 	strlt	r0, [r0, -r4]
    11a0:	18000002 	stmdane	r0, {r1}
    11a4:	00000000 	andeq	r0, r0, r0
    11a8:	78000000 	stmdavc	r0, {}	; <UNPREDICTABLE>
    11ac:	02000006 	andeq	r0, r0, #6
    11b0:	6e690504 	cdpvs	5, 6, cr0, cr9, cr4, {0}
    11b4:	04030074 	streq	r0, [r3], #-116	; 0x74
    11b8:	00001907 	andeq	r1, r0, r7, lsl #18
    11bc:	06010300 	streq	r0, [r1], -r0, lsl #6
    11c0:	0000019f 	muleq	r0, pc, r1	; <UNPREDICTABLE>
    11c4:	ab050203 	blge	1419d8 <__bss_end__+0x137b68>
    11c8:	03000001 	movweq	r0, #1
    11cc:	00320504 	eorseq	r0, r2, r4, lsl #10
    11d0:	08030000 	stmdaeq	r3, {}	; <UNPREDICTABLE>
    11d4:	00002d05 	andeq	r2, r0, r5, lsl #26
    11d8:	08010300 	stmdaeq	r1, {r8, r9}
    11dc:	0000019d 	muleq	r0, sp, r1
    11e0:	8d070203 	sfmhi	f0, 4, [r7, #-12]
    11e4:	03000000 	movweq	r0, #0
    11e8:	00140704 	andseq	r0, r4, r4, lsl #14
    11ec:	08030000 	stmdaeq	r3, {}	; <UNPREDICTABLE>
    11f0:	00000f07 	andeq	r0, r0, r7, lsl #30
    11f4:	07040300 	streq	r0, [r4, -r0, lsl #6]
    11f8:	000000cf 	andeq	r0, r0, pc, asr #1
    11fc:	a6080103 	strge	r0, [r8], -r3, lsl #2
    1200:	04000001 	streq	r0, [r0], #-1
    1204:	000004d4 	ldrdeq	r0, [r0], -r4
    1208:	00250e01 	eoreq	r0, r5, r1, lsl #28
    120c:	87980000 	ldrhi	r0, [r8, r0]
    1210:	00180000 	andseq	r0, r8, r0
    1214:	9c010000 	stcls	0, cr0, [r1], {-0}
    1218:	000000a2 	andeq	r0, r0, r2, lsr #1
    121c:	00054005 	andeq	r4, r5, r5
    1220:	2c0f0100 	stfcss	f0, [pc], {-0}
    1224:	7b000000 	blvc	122c <_start-0x6dd4>
    1228:	00000008 	andeq	r0, r0, r8
    122c:	00052306 	andeq	r2, r5, r6, lsl #6
    1230:	b0170100 	andslt	r0, r7, r0, lsl #2
    1234:	14000087 	strne	r0, [r0], #-135	; 0x87
    1238:	01000000 	mrseq	r0, (UNDEF: 0)
    123c:	0000c79c 	muleq	r0, ip, r7
    1240:	05400500 	strbeq	r0, [r0, #-1280]	; 0x500
    1244:	18010000 	stmdane	r1, {}	; <UNPREDICTABLE>
    1248:	0000002c 	andeq	r0, r0, ip, lsr #32
    124c:	0000089a 	muleq	r0, sl, r8
    1250:	03a60600 			; <UNDEFINED> instruction: 0x03a60600
    1254:	1f010000 	svcne	0x00010000
    1258:	000087c4 	andeq	r8, r0, r4, asr #15
    125c:	00000048 	andeq	r0, r0, r8, asr #32
    1260:	01779c01 	cmneq	r7, r1, lsl #24
    1264:	38070000 	stmdacc	r7, {}	; <UNPREDICTABLE>
    1268:	01000005 	tsteq	r0, r5
    126c:	0001772a 	andeq	r7, r1, sl, lsr #14
    1270:	10001c00 	andne	r1, r0, r0, lsl #24
    1274:	051b0720 	ldreq	r0, [fp, #-1824]	; 0x720
    1278:	2b010000 	blcs	41280 <__bss_end__+0x37410>
    127c:	00000177 	andeq	r0, r0, r7, ror r1
    1280:	20100024 	andscs	r0, r0, r4, lsr #32
    1284:	0004e207 	andeq	lr, r4, r7, lsl #4
    1288:	772c0100 	strvc	r0, [ip, -r0, lsl #2]!
    128c:	00000001 	andeq	r0, r0, r1
    1290:	085a0000 	ldmdaeq	sl, {}^	; <UNPREDICTABLE>
    1294:	00000502 	andeq	r0, r0, r2, lsl #10
    1298:	01772d01 	cmneq	r7, r1, lsl #26
    129c:	09200000 	stmdbeq	r0!, {}	; <UNPREDICTABLE>
    12a0:	000087cc 	andeq	r8, r0, ip, asr #15
    12a4:	00000079 	andeq	r0, r0, r9, ror r0
    12a8:	0087d809 	addeq	sp, r7, r9, lsl #16
    12ac:	0000a200 	andeq	sl, r0, r0, lsl #4
    12b0:	87e00a00 	strbhi	r0, [r0, r0, lsl #20]!
    12b4:	018d0000 	orreq	r0, sp, r0
    12b8:	013a0000 	teqeq	sl, r0
    12bc:	010b0000 	mrseq	r0, (UNDEF: 11)
    12c0:	004e0150 	subeq	r0, lr, r0, asr r1
    12c4:	0087ec0a 	addeq	lr, r7, sl, lsl #24
    12c8:	00019e00 	andeq	r9, r1, r0, lsl #28
    12cc:	00015a00 	andeq	r5, r1, r0, lsl #20
    12d0:	51010b00 	tstpl	r1, r0, lsl #22
    12d4:	00010c05 	andeq	r0, r1, r5, lsl #24
    12d8:	010b5a00 	tsteq	fp, r0, lsl #20
    12dc:	240c0550 	strcs	r0, [ip], #-1360	; 0x550
    12e0:	00201000 	eoreq	r1, r0, r0
    12e4:	0087f80c 	addeq	pc, r7, ip, lsl #16
    12e8:	00019e00 	andeq	r9, r1, r0, lsl #28
    12ec:	51010b00 	tstpl	r1, r0, lsl #22
    12f0:	00200c05 	eoreq	r0, r0, r5, lsl #24
    12f4:	010b5a00 	tsteq	fp, r0, lsl #20
    12f8:	1c0c0550 	cfstr32ne	mvfx0, [ip], {80}	; 0x50
    12fc:	00201000 	eoreq	r1, r0, r0
    1300:	00250d00 	eoreq	r0, r5, r0, lsl #26
    1304:	d7080000 	strle	r0, [r8, -r0]
    1308:	01000004 	tsteq	r0, r4
    130c:	0001880d 	andeq	r8, r1, sp, lsl #16
    1310:	2c0d1000 	stccs	0, cr1, [sp], {-0}
    1314:	0e000000 	cdpeq	0, 0, cr0, cr0, cr0, {0}
    1318:	000003cb 	andeq	r0, r0, fp, asr #7
    131c:	019e5002 	orrseq	r5, lr, r2
    1320:	2c0f0000 	stccs	0, cr0, [pc], {-0}
    1324:	00000000 	andeq	r0, r0, r0
    1328:	00053210 	andeq	r3, r5, r0, lsl r2
    132c:	0f9c0200 	svceq	0x009c0200
    1330:	0000002c 	andeq	r0, r0, ip, lsr #32
    1334:	00002c0f 	andeq	r2, r0, pc, lsl #24
    1338:	d8000000 	stmdale	r0, {}	; <UNPREDICTABLE>
    133c:	04000001 	streq	r0, [r0], #-1
    1340:	00092200 	andeq	r2, r9, r0, lsl #4
    1344:	cc010400 	cfstrsgt	mvf0, [r1], {-0}
    1348:	01000001 	tsteq	r0, r1
    134c:	00000562 	andeq	r0, r0, r2, ror #10
    1350:	000002b7 			; <UNDEFINED> instruction: 0x000002b7
    1354:	0000880c 	andeq	r8, r0, ip, lsl #16
    1358:	00000088 	andeq	r0, r0, r8, lsl #1
    135c:	00000715 	andeq	r0, r0, r5, lsl r7
    1360:	69050402 	stmdbvs	r5, {r1, sl}
    1364:	0300746e 	movweq	r7, #1134	; 0x46e
    1368:	00190704 	andseq	r0, r9, r4, lsl #14
    136c:	01030000 	mrseq	r0, (UNDEF: 3)
    1370:	00019f06 	andeq	r9, r1, r6, lsl #30
    1374:	05020300 	streq	r0, [r2, #-768]	; 0x300
    1378:	000001ab 	andeq	r0, r0, fp, lsr #3
    137c:	32050403 	andcc	r0, r5, #50331648	; 0x3000000
    1380:	03000000 	movweq	r0, #0
    1384:	002d0508 	eoreq	r0, sp, r8, lsl #10
    1388:	01030000 	mrseq	r0, (UNDEF: 3)
    138c:	00019d08 	andeq	r9, r1, r8, lsl #26
    1390:	07020300 	streq	r0, [r2, -r0, lsl #6]
    1394:	0000008d 	andeq	r0, r0, sp, lsl #1
    1398:	14070403 	strne	r0, [r7], #-1027	; 0x403
    139c:	03000000 	movweq	r0, #0
    13a0:	000f0708 	andeq	r0, pc, r8, lsl #14
    13a4:	04030000 	streq	r0, [r3], #-0
    13a8:	0000cf07 	andeq	ip, r0, r7, lsl #30
    13ac:	08010300 	stmdaeq	r1, {r8, r9}
    13b0:	000001a6 	andeq	r0, r0, r6, lsr #3
    13b4:	00058104 	andeq	r8, r5, r4, lsl #2
    13b8:	0c050100 	stfeqs	f0, [r5], {-0}
    13bc:	1c000088 	stcne	0, cr0, [r0], {136}	; 0x88
    13c0:	01000000 	mrseq	r0, (UNDEF: 0)
    13c4:	00009e9c 	muleq	r0, ip, lr
    13c8:	057b0500 	ldrbeq	r0, [fp, #-1280]!	; 0x500
    13cc:	05010000 	streq	r0, [r1, #-0]
    13d0:	0000002c 	andeq	r0, r0, ip, lsr #32
    13d4:	000008c4 	andeq	r0, r0, r4, asr #17
    13d8:	05450600 	strbeq	r0, [r5, #-1536]	; 0x600
    13dc:	0b010000 	bleq	413e4 <__bss_end__+0x37574>
    13e0:	0000002c 	andeq	r0, r0, ip, lsr #32
    13e4:	00008828 	andeq	r8, r0, r8, lsr #16
    13e8:	00000014 	andeq	r0, r0, r4, lsl r0
    13ec:	00cb9c01 	sbceq	r9, fp, r1, lsl #24
    13f0:	34070000 	strcc	r0, [r7], #-0
    13f4:	ca000088 	bgt	161c <_start-0x69e4>
    13f8:	08000001 	stmdaeq	r0, {r0}
    13fc:	0c055001 	stceq	0, cr5, [r5], {1}
    1400:	20003004 	andcs	r3, r0, r4
    1404:	97060000 	strls	r0, [r6, -r0]
    1408:	01000005 	tsteq	r0, r5
    140c:	00002c10 	andeq	r2, r0, r0, lsl ip
    1410:	00883c00 	addeq	r3, r8, r0, lsl #24
    1414:	00000c00 	andeq	r0, r0, r0, lsl #24
    1418:	f99c0100 			; <UNDEFINED> instruction: 0xf99c0100
    141c:	09000000 	stmdbeq	r0, {}	; <UNPREDICTABLE>
    1420:	14010075 	strne	r0, [r1], #-117	; 0x75
    1424:	0000002c 	andeq	r0, r0, ip, lsr #32
    1428:	440a5001 	strmi	r5, [sl], #-1
    142c:	9e000088 	cdpls	0, 0, cr0, cr0, cr8, {4}
    1430:	00000000 	andeq	r0, r0, r0
    1434:	00058e04 	andeq	r8, r5, r4, lsl #28
    1438:	48190100 	ldmdami	r9, {r8}
    143c:	24000088 	strcs	r0, [r0], #-136	; 0x88
    1440:	01000000 	mrseq	r0, (UNDEF: 0)
    1444:	0001579c 	muleq	r1, ip, r7
    1448:	73750b00 	cmnvc	r5, #0, 22
    144c:	2c190100 	ldfcss	f0, [r9], {-0}
    1450:	f8000000 			; <UNDEFINED> instruction: 0xf8000000
    1454:	09000008 	stmdbeq	r0, {r3}
    1458:	01006272 	tsteq	r0, r2, ror r2
    145c:	00002c1a 	andeq	r2, r0, sl, lsl ip
    1460:	0c540100 	ldfeqe	f0, [r4], {-0}
    1464:	00008858 	andeq	r8, r0, r8, asr r8
    1468:	00000010 	andeq	r0, r0, r0, lsl r0
    146c:	0000014d 	andeq	r0, r0, sp, asr #2
    1470:	0061720d 	rsbeq	r7, r1, sp, lsl #4
    1474:	002c1c01 	eoreq	r1, ip, r1, lsl #24
    1478:	09160000 	ldmdbeq	r6, {}	; <UNPREDICTABLE>
    147c:	5c0a0000 	stcpl	0, cr0, [sl], {-0}
    1480:	cb000088 	blgt	16a8 <_start-0x6958>
    1484:	00000000 	andeq	r0, r0, r0
    1488:	0088540a 	addeq	r5, r8, sl, lsl #8
    148c:	0000cb00 	andeq	ip, r0, r0, lsl #22
    1490:	cb040000 	blgt	101498 <__bss_end__+0xf7628>
    1494:	01000003 	tsteq	r0, r3
    1498:	00886c22 	addeq	r6, r8, r2, lsr #24
    149c:	00001400 	andeq	r1, r0, r0, lsl #8
    14a0:	909c0100 	addsls	r0, ip, r0, lsl #2
    14a4:	0b000001 	bleq	14b0 <_start-0x6b50>
    14a8:	0100736d 	tsteq	r0, sp, ror #6
    14ac:	00002c22 	andeq	r2, r0, r2, lsr #24
    14b0:	00092900 	andeq	r2, r9, r0, lsl #18
    14b4:	887c0700 	ldmdahi	ip!, {r8, r9, sl}^
    14b8:	00f90000 	rscseq	r0, r9, r0
    14bc:	01080000 	mrseq	r0, (UNDEF: 8)
    14c0:	01f30750 	mvnseq	r0, r0, asr r7
    14c4:	03e80a50 	mvneq	r0, #80, 20	; 0x50000
    14c8:	0400001e 	streq	r0, [r0], #-30
    14cc:	00000558 	andeq	r0, r0, r8, asr r5
    14d0:	88802501 	stmhi	r0, {r0, r8, sl, sp}
    14d4:	00140000 	andseq	r0, r4, r0
    14d8:	9c010000 	stcls	0, cr0, [r1], {-0}
    14dc:	000001ca 	andeq	r0, r0, sl, asr #3
    14e0:	6365730b 	cmnvs	r5, #738197504	; 0x2c000000
    14e4:	2c250100 	stfcss	f0, [r5], #-0
    14e8:	4a000000 	bmi	14f0 <_start-0x6b10>
    14ec:	07000009 	streq	r0, [r0, -r9]
    14f0:	00008890 	muleq	r0, r0, r8
    14f4:	00000157 	andeq	r0, r0, r7, asr r1
    14f8:	07500108 	ldrbeq	r0, [r0, -r8, lsl #2]
    14fc:	0a5001f3 	beq	1401cd0 <__bss_end__+0x13f7e60>
    1500:	001e03e8 	andseq	r0, lr, r8, ror #7
    1504:	05750e00 	ldrbeq	r0, [r5, #-3584]!	; 0xe00
    1508:	a8020000 	stmdage	r2, {}	; <UNPREDICTABLE>
    150c:	0000002c 	andeq	r0, r0, ip, lsr #32
    1510:	00002c0f 	andeq	r2, r0, pc, lsl #24
    1514:	f2000000 	vhadd.s8	d0, d0, d0
    1518:	04000011 	streq	r0, [r0], #-17
    151c:	000a0500 	andeq	r0, sl, r0, lsl #10
    1520:	cc010400 	cfstrsgt	mvf0, [r1], {-0}
    1524:	01000001 	tsteq	r0, r1
    1528:	00000645 	andeq	r0, r0, r5, asr #12
    152c:	000002b7 			; <UNDEFINED> instruction: 0x000002b7
    1530:	00008894 	muleq	r0, r4, r8
    1534:	00000668 	andeq	r0, r0, r8, ror #12
    1538:	000007bc 			; <UNDEFINED> instruction: 0x000007bc
    153c:	69050402 	stmdbvs	r5, {r1, sl}
    1540:	0300746e 	movweq	r7, #1134	; 0x46e
    1544:	00190704 	andseq	r0, r9, r4, lsl #14
    1548:	01030000 	mrseq	r0, (UNDEF: 3)
    154c:	00019f06 	andeq	r9, r1, r6, lsl #30
    1550:	05020300 	streq	r0, [r2, #-768]	; 0x300
    1554:	000001ab 	andeq	r0, r0, fp, lsr #3
    1558:	32050403 	andcc	r0, r5, #50331648	; 0x3000000
    155c:	03000000 	movweq	r0, #0
    1560:	002d0508 	eoreq	r0, sp, r8, lsl #10
    1564:	42040000 	andmi	r0, r4, #0
    1568:	03000002 	movweq	r0, #2
    156c:	00005a2e 	andeq	r5, r0, lr, lsr #20
    1570:	08010300 	stmdaeq	r1, {r8, r9}
    1574:	0000019d 	muleq	r0, sp, r1
    1578:	8d070203 	sfmhi	f0, 4, [r7, #-12]
    157c:	04000000 	streq	r0, [r0], #-0
    1580:	000001bc 			; <UNDEFINED> instruction: 0x000001bc
    1584:	00733403 	rsbseq	r3, r3, r3, lsl #8
    1588:	04030000 	streq	r0, [r3], #-0
    158c:	00001407 	andeq	r1, r0, r7, lsl #8
    1590:	07080300 	streq	r0, [r8, -r0, lsl #6]
    1594:	0000000f 	andeq	r0, r0, pc
    1598:	cf070403 	svcgt	0x00070403
    159c:	05000000 	streq	r0, [r0, #-0]
    15a0:	90040604 	andls	r0, r4, r4, lsl #12
    15a4:	03000000 	movweq	r0, #0
    15a8:	01a60801 			; <UNDEFINED> instruction: 0x01a60801
    15ac:	04060000 	streq	r0, [r6], #-0
    15b0:	0000009d 	muleq	r0, sp, r0
    15b4:	00009007 	andeq	r9, r0, r7
    15b8:	040c0800 	streq	r0, [ip], #-2048	; 0x800
    15bc:	0000d90e 	andeq	sp, r0, lr, lsl #18
    15c0:	78740900 	ldmdavc	r4!, {r8, fp}^
    15c4:	4f0f0400 	svcmi	0x000f0400
    15c8:	00000000 	andeq	r0, r0, r0
    15cc:	00787209 	rsbseq	r7, r8, r9, lsl #4
    15d0:	004f0f04 	subeq	r0, pc, r4, lsl #30
    15d4:	0a010000 	beq	415dc <__bss_end__+0x3776c>
    15d8:	0000044d 	andeq	r0, r0, sp, asr #8
    15dc:	00681004 	rsbeq	r1, r8, r4
    15e0:	0a040000 	beq	1015e8 <__bss_end__+0xf7778>
    15e4:	000003fe 	strdeq	r0, [r0], -lr
    15e8:	00681104 	rsbeq	r1, r8, r4, lsl #2
    15ec:	00080000 	andeq	r0, r8, r0
    15f0:	00043604 	andeq	r3, r4, r4, lsl #12
    15f4:	a2120400 	andsge	r0, r2, #0, 8
    15f8:	04000000 	streq	r0, [r0], #-0
    15fc:	00000286 	andeq	r0, r0, r6, lsl #5
    1600:	00ef2805 	rsceq	r2, pc, r5, lsl #16
    1604:	ad0b0000 	stcge	0, cr0, [fp, #-0]
    1608:	04000002 	streq	r0, [r0], #-2
    160c:	01060009 	tsteq	r6, r9
    1610:	000c0000 	andeq	r0, ip, r0
    1614:	88000003 	stmdahi	r0, {r0, r1}
    1618:	00000000 	andeq	r0, r0, r0
    161c:	02af0400 	adceq	r0, pc, #0, 8
    1620:	62050000 	andvs	r0, r5, #0
    1624:	000000e4 	andeq	r0, r0, r4, ror #1
    1628:	0005ff0d 	andeq	pc, r5, sp, lsl #30
    162c:	03090200 	movweq	r0, #37376	; 0x9200
    1630:	0000013f 	andeq	r0, r0, pc, lsr r1
    1634:	0004610e 	andeq	r6, r4, lr, lsl #2
    1638:	2c090200 	sfmcs	f0, 4, [r9], {-0}
    163c:	0f000000 	svceq	0x00000000
    1640:	0902006e 	stmdbeq	r2, {r1, r2, r3, r5, r6}
    1644:	0000002c 	andeq	r0, r0, ip, lsr #32
    1648:	06731110 			; <UNDEFINED> instruction: 0x06731110
    164c:	0c020000 	stceq	0, cr0, [r2], {-0}
    1650:	0000002c 	andeq	r0, r0, ip, lsr #32
    1654:	b20d0000 	andlt	r0, sp, #0
    1658:	02000005 	andeq	r0, r0, #5
    165c:	01760317 	cmneq	r6, r7, lsl r3
    1660:	700f0000 	andvc	r0, pc, r0
    1664:	02006e69 	andeq	r6, r0, #1680	; 0x690
    1668:	00002c17 	andeq	r2, r0, r7, lsl ip
    166c:	00760f00 	rsbseq	r0, r6, r0, lsl #30
    1670:	002c1702 	eoreq	r1, ip, r2, lsl #14
    1674:	610e0000 	mrsvs	r0, (UNDEF: 14)
    1678:	02000004 	andeq	r0, r0, #4
    167c:	00002c17 	andeq	r2, r0, r7, lsl ip
    1680:	06050e00 	streq	r0, [r5], -r0, lsl #28
    1684:	17020000 	strne	r0, [r2, -r0]
    1688:	0000002c 	andeq	r0, r0, ip, lsr #32
    168c:	04721200 	ldrbteq	r1, [r2], #-512	; 0x200
    1690:	09010000 	stmdbeq	r1, {}	; <UNPREDICTABLE>
    1694:	00008894 	muleq	r0, r4, r8
    1698:	00000154 	andeq	r0, r0, r4, asr r1
    169c:	07229c01 	streq	r9, [r2, -r1, lsl #24]!
    16a0:	14130000 	ldrne	r0, [r3], #-0
    16a4:	01000004 	tsteq	r0, r4
    16a8:	00072209 	andeq	r2, r7, r9, lsl #4
    16ac:	00096b00 	andeq	r6, r9, r0, lsl #22
    16b0:	00631400 	rsbeq	r1, r3, r0, lsl #8
    16b4:	005a0901 	subseq	r0, sl, r1, lsl #18
    16b8:	098c0000 	stmibeq	ip, {}	; <UNPREDICTABLE>
    16bc:	74150000 	ldrvc	r0, [r5], #-0
    16c0:	0b010078 	bleq	418a8 <__bss_end__+0x37a38>
    16c4:	00000025 	andeq	r0, r0, r5, lsr #32
    16c8:	08007606 	stmdaeq	r0, {r1, r2, r9, sl, ip, sp, lr}
    16cc:	169f1aff 			; <UNDEFINED> instruction: 0x169f1aff
    16d0:	0c01006e 	stceq	0, cr0, [r1], {110}	; 0x6e
    16d4:	00000068 	andeq	r0, r0, r8, rrx
    16d8:	000009ad 	andeq	r0, r0, sp, lsr #19
    16dc:	01007516 	tsteq	r0, r6, lsl r5
    16e0:	0000680d 	andeq	r6, r0, sp, lsl #16
    16e4:	0009c000 	andeq	ip, r9, r0
    16e8:	00731500 	rsbseq	r1, r3, r0, lsl #10
    16ec:	00680e01 	rsbeq	r0, r8, r1, lsl #28
    16f0:	54010000 	strpl	r0, [r1], #-0
    16f4:	0088a417 	addeq	sl, r8, r7, lsl r4
    16f8:	00000400 	andeq	r0, r0, r0, lsl #8
    16fc:	0001f800 	andeq	pc, r1, r0, lsl #16
    1700:	06731800 	ldrbteq	r1, [r3], -r0, lsl #16
    1704:	0e010000 	cdpeq	0, 0, cr0, cr1, cr0, {0}
    1708:	0000002c 	andeq	r0, r0, ip, lsr #32
    170c:	19005401 	stmdbne	r0, {r0, sl, ip, lr}
    1710:	0000013f 	andeq	r0, r0, pc, lsr r1
    1714:	000088a8 	andeq	r8, r0, r8, lsr #17
    1718:	0000001c 	andeq	r0, r0, ip, lsl r0
    171c:	02751101 	rsbseq	r1, r5, #1073741824	; 0x40000000
    1720:	6a1a0000 	bvs	681728 <__bss_end__+0x6778b8>
    1724:	e9000001 	stmdb	r0, {r0}
    1728:	1b000009 	blne	1754 <_start-0x68ac>
    172c:	0000015f 	andeq	r0, r0, pc, asr r1
    1730:	561c5401 	ldrpl	r5, [ip], -r1, lsl #8
    1734:	00000001 	andeq	r0, r0, r1
    1738:	00014b1b 	andeq	r4, r1, fp, lsl fp
    173c:	19560100 	ldmdbne	r6, {r8}^
    1740:	00000111 	andeq	r0, r0, r1, lsl r1
    1744:	000088b4 			; <UNDEFINED> instruction: 0x000088b4
    1748:	00000010 	andeq	r0, r0, r0, lsl r0
    174c:	025f1a02 	subseq	r1, pc, #8192	; 0x2000
    1750:	281a0000 	ldmdacs	sl, {}	; <UNPREDICTABLE>
    1754:	fc000001 	stc2	0, cr0, [r0], {1}
    1758:	1b000009 	blne	1784 <_start-0x687c>
    175c:	0000011d 	andeq	r0, r0, sp, lsl r1
    1760:	b41d5401 	ldrlt	r5, [sp], #-1025	; 0x401
    1764:	04000088 	streq	r0, [r0], #-136	; 0x88
    1768:	1e000000 	cdpne	0, 0, cr0, cr0, cr0, {0}
    176c:	00000132 	andeq	r0, r0, r2, lsr r1
    1770:	00000a0f 	andeq	r0, r0, pc, lsl #20
    1774:	b41f0000 	ldrlt	r0, [pc], #-0	; 177c <_start-0x6884>
    1778:	59000088 	stmdbpl	r0, {r3, r7}
    177c:	20000011 	andcs	r0, r0, r1, lsl r0
    1780:	30015101 	andcc	r5, r1, r1, lsl #2
    1784:	02500120 	subseq	r0, r0, #32, 2
    1788:	00000076 	andeq	r0, r0, r6, ror r0
    178c:	00013f19 	andeq	r3, r1, r9, lsl pc
    1790:	0088c800 	addeq	ip, r8, r0, lsl #16
    1794:	00001c00 	andeq	r1, r0, r0, lsl #24
    1798:	f8130100 			; <UNDEFINED> instruction: 0xf8130100
    179c:	1a000002 	bne	17ac <_start-0x6854>
    17a0:	0000016a 	andeq	r0, r0, sl, ror #2
    17a4:	00000a22 	andeq	r0, r0, r2, lsr #20
    17a8:	00015f1b 	andeq	r5, r1, fp, lsl pc
    17ac:	1a540100 	bne	1501bb4 <__bss_end__+0x14f7d44>
    17b0:	00000156 	andeq	r0, r0, r6, asr r1
    17b4:	00000a44 	andeq	r0, r0, r4, asr #20
    17b8:	00014b1b 	andeq	r4, r1, fp, lsl fp
    17bc:	19560100 	ldmdbne	r6, {r8}^
    17c0:	00000111 	andeq	r0, r0, r1, lsl r1
    17c4:	000088d4 	ldrdeq	r8, [r0], -r4
    17c8:	00000010 	andeq	r0, r0, r0, lsl r0
    17cc:	02df1a02 	sbcseq	r1, pc, #8192	; 0x2000
    17d0:	281a0000 	ldmdacs	sl, {}	; <UNPREDICTABLE>
    17d4:	75000001 	strvc	r0, [r0, #-1]
    17d8:	1b00000a 	blne	1808 <_start-0x67f8>
    17dc:	0000011d 	andeq	r0, r0, sp, lsl r1
    17e0:	d41d5401 	ldrle	r5, [sp], #-1025	; 0x401
    17e4:	04000088 	streq	r0, [r0], #-136	; 0x88
    17e8:	1e000000 	cdpne	0, 0, cr0, cr0, cr0, {0}
    17ec:	00000132 	andeq	r0, r0, r2, lsr r1
    17f0:	00000a97 	muleq	r0, r7, sl
    17f4:	d41f0000 	ldrle	r0, [pc], #-0	; 17fc <_start-0x6804>
    17f8:	59000088 	stmdbpl	r0, {r3, r7}
    17fc:	20000011 	andcs	r0, r0, r1, lsl r0
    1800:	77045101 	strvc	r5, [r4, -r1, lsl #2]
    1804:	201a3100 	andscs	r3, sl, r0, lsl #2
    1808:	76025001 	strvc	r5, [r2], -r1
    180c:	19000000 	stmdbne	r0, {}	; <UNPREDICTABLE>
    1810:	0000013f 	andeq	r0, r0, pc, lsr r1
    1814:	000088e8 	andeq	r8, r0, r8, ror #17
    1818:	0000001c 	andeq	r0, r0, ip, lsl r0
    181c:	03801501 	orreq	r1, r0, #4194304	; 0x400000
    1820:	6a1a0000 	bvs	681828 <__bss_end__+0x6779b8>
    1824:	aa000001 	bge	1830 <_start-0x67d0>
    1828:	1b00000a 	blne	1858 <_start-0x67a8>
    182c:	0000015f 	andeq	r0, r0, pc, asr r1
    1830:	561b5401 	ldrpl	r5, [fp], -r1, lsl #8
    1834:	08000001 	stmdaeq	r0, {r0}
    1838:	1a320077 	bne	c81a1c <__bss_end__+0xc77bac>
    183c:	9f1aff08 	svcls	0x001aff08
    1840:	00014b1b 	andeq	r4, r1, fp, lsl fp
    1844:	19560100 	ldmdbne	r6, {r8}^
    1848:	00000111 	andeq	r0, r0, r1, lsl r1
    184c:	000088f4 	strdeq	r8, [r0], -r4
    1850:	00000010 	andeq	r0, r0, r0, lsl r0
    1854:	03671a02 	cmneq	r7, #8192	; 0x2000
    1858:	281a0000 	ldmdacs	sl, {}	; <UNPREDICTABLE>
    185c:	cf000001 	svcgt	0x00000001
    1860:	1b00000a 	blne	1890 <_start-0x6770>
    1864:	0000011d 	andeq	r0, r0, sp, lsl r1
    1868:	f41d5401 			; <UNDEFINED> instruction: 0xf41d5401
    186c:	04000088 	streq	r0, [r0], #-136	; 0x88
    1870:	1e000000 	cdpne	0, 0, cr0, cr0, cr0, {0}
    1874:	00000132 	andeq	r0, r0, r2, lsr r1
    1878:	00000af4 	strdeq	r0, [r0], -r4
    187c:	f41f0000 			; <UNDEFINED> instruction: 0xf41f0000
    1880:	59000088 	stmdbpl	r0, {r3, r7}
    1884:	20000011 	andcs	r0, r0, r1, lsl r0
    1888:	77045101 	strvc	r5, [r4, -r1, lsl #2]
    188c:	201a3200 	andscs	r3, sl, r0, lsl #4
    1890:	76025001 	strvc	r5, [r2], -r1
    1894:	19000000 	stmdbne	r0, {}	; <UNPREDICTABLE>
    1898:	0000013f 	andeq	r0, r0, pc, lsr r1
    189c:	00008908 	andeq	r8, r0, r8, lsl #18
    18a0:	0000001c 	andeq	r0, r0, ip, lsl r0
    18a4:	04081701 	streq	r1, [r8], #-1793	; 0x701
    18a8:	6a1a0000 	bvs	6818b0 <__bss_end__+0x677a40>
    18ac:	07000001 	streq	r0, [r0, -r1]
    18b0:	1b00000b 	blne	18e4 <_start-0x671c>
    18b4:	0000015f 	andeq	r0, r0, pc, asr r1
    18b8:	561b5401 	ldrpl	r5, [fp], -r1, lsl #8
    18bc:	08000001 	stmdaeq	r0, {r0}
    18c0:	1a340077 	bne	d01aa4 <__bss_end__+0xcf7c34>
    18c4:	9f1aff08 	svcls	0x001aff08
    18c8:	00014b1b 	andeq	r4, r1, fp, lsl fp
    18cc:	19560100 	ldmdbne	r6, {r8}^
    18d0:	00000111 	andeq	r0, r0, r1, lsl r1
    18d4:	00008914 	andeq	r8, r0, r4, lsl r9
    18d8:	00000010 	andeq	r0, r0, r0, lsl r0
    18dc:	03ef1a02 	mvneq	r1, #8192	; 0x2000
    18e0:	281a0000 	ldmdacs	sl, {}	; <UNPREDICTABLE>
    18e4:	29000001 	stmdbcs	r0, {r0}
    18e8:	1b00000b 	blne	191c <_start-0x66e4>
    18ec:	0000011d 	andeq	r0, r0, sp, lsl r1
    18f0:	141d5401 	ldrne	r5, [sp], #-1025	; 0x401
    18f4:	04000089 	streq	r0, [r0], #-137	; 0x89
    18f8:	1e000000 	cdpne	0, 0, cr0, cr0, cr0, {0}
    18fc:	00000132 	andeq	r0, r0, r2, lsr r1
    1900:	00000b4b 	andeq	r0, r0, fp, asr #22
    1904:	141f0000 	ldrne	r0, [pc], #-0	; 190c <_start-0x66f4>
    1908:	59000089 	stmdbpl	r0, {r0, r3, r7}
    190c:	20000011 	andcs	r0, r0, r1, lsl r0
    1910:	77045101 	strvc	r5, [r4, -r1, lsl #2]
    1914:	201a3400 	andscs	r3, sl, r0, lsl #8
    1918:	76025001 	strvc	r5, [r2], -r1
    191c:	19000000 	stmdbne	r0, {}	; <UNPREDICTABLE>
    1920:	0000013f 	andeq	r0, r0, pc, lsr r1
    1924:	00008928 	andeq	r8, r0, r8, lsr #18
    1928:	0000001c 	andeq	r0, r0, ip, lsl r0
    192c:	04901901 	ldreq	r1, [r0], #2305	; 0x901
    1930:	6a1a0000 	bvs	681938 <__bss_end__+0x677ac8>
    1934:	5e000001 	cdppl	0, 0, cr0, cr0, cr1, {0}
    1938:	1b00000b 	blne	196c <_start-0x6694>
    193c:	0000015f 	andeq	r0, r0, pc, asr r1
    1940:	561b5401 	ldrpl	r5, [fp], -r1, lsl #8
    1944:	08000001 	stmdaeq	r0, {r0}
    1948:	1a380077 	bne	e01b2c <__bss_end__+0xdf7cbc>
    194c:	9f1aff08 	svcls	0x001aff08
    1950:	00014b1b 	andeq	r4, r1, fp, lsl fp
    1954:	19560100 	ldmdbne	r6, {r8}^
    1958:	00000111 	andeq	r0, r0, r1, lsl r1
    195c:	00008934 	andeq	r8, r0, r4, lsr r9
    1960:	00000010 	andeq	r0, r0, r0, lsl r0
    1964:	04771a02 	ldrbteq	r1, [r7], #-2562	; 0xa02
    1968:	281a0000 	ldmdacs	sl, {}	; <UNPREDICTABLE>
    196c:	83000001 	movwhi	r0, #1
    1970:	1b00000b 	blne	19a4 <_start-0x665c>
    1974:	0000011d 	andeq	r0, r0, sp, lsl r1
    1978:	341d5401 	ldrcc	r5, [sp], #-1025	; 0x401
    197c:	04000089 	streq	r0, [r0], #-137	; 0x89
    1980:	1e000000 	cdpne	0, 0, cr0, cr0, cr0, {0}
    1984:	00000132 	andeq	r0, r0, r2, lsr r1
    1988:	00000ba8 	andeq	r0, r0, r8, lsr #23
    198c:	341f0000 	ldrcc	r0, [pc], #-0	; 1994 <_start-0x666c>
    1990:	59000089 	stmdbpl	r0, {r0, r3, r7}
    1994:	20000011 	andcs	r0, r0, r1, lsl r0
    1998:	77045101 	strvc	r5, [r4, -r1, lsl #2]
    199c:	201a3800 	andscs	r3, sl, r0, lsl #16
    19a0:	76025001 	strvc	r5, [r2], -r1
    19a4:	19000000 	stmdbne	r0, {}	; <UNPREDICTABLE>
    19a8:	0000013f 	andeq	r0, r0, pc, lsr r1
    19ac:	00008948 	andeq	r8, r0, r8, asr #18
    19b0:	0000001c 	andeq	r0, r0, ip, lsl r0
    19b4:	05181b01 	ldreq	r1, [r8, #-2817]	; 0xb01
    19b8:	6a1a0000 	bvs	6819c0 <__bss_end__+0x677b50>
    19bc:	bb000001 	bllt	19c8 <_start-0x6638>
    19c0:	1b00000b 	blne	19f4 <_start-0x660c>
    19c4:	0000015f 	andeq	r0, r0, pc, asr r1
    19c8:	561b5401 	ldrpl	r5, [fp], -r1, lsl #8
    19cc:	08000001 	stmdaeq	r0, {r0}
    19d0:	1a400077 	bne	1001bb4 <__bss_end__+0xff7d44>
    19d4:	9f1aff08 	svcls	0x001aff08
    19d8:	00014b1b 	andeq	r4, r1, fp, lsl fp
    19dc:	19560100 	ldmdbne	r6, {r8}^
    19e0:	00000111 	andeq	r0, r0, r1, lsl r1
    19e4:	00008954 	andeq	r8, r0, r4, asr r9
    19e8:	00000010 	andeq	r0, r0, r0, lsl r0
    19ec:	04ff1a02 	ldrbteq	r1, [pc], #2562	; 19f4 <_start-0x660c>
    19f0:	281a0000 	ldmdacs	sl, {}	; <UNPREDICTABLE>
    19f4:	e2000001 	and	r0, r0, #1
    19f8:	1b00000b 	blne	1a2c <_start-0x65d4>
    19fc:	0000011d 	andeq	r0, r0, sp, lsl r1
    1a00:	541d5401 	ldrpl	r5, [sp], #-1025	; 0x401
    1a04:	04000089 	streq	r0, [r0], #-137	; 0x89
    1a08:	1e000000 	cdpne	0, 0, cr0, cr0, cr0, {0}
    1a0c:	00000132 	andeq	r0, r0, r2, lsr r1
    1a10:	00000c09 	andeq	r0, r0, r9, lsl #24
    1a14:	541f0000 	ldrpl	r0, [pc], #-0	; 1a1c <_start-0x65e4>
    1a18:	59000089 	stmdbpl	r0, {r0, r3, r7}
    1a1c:	20000011 	andcs	r0, r0, r1, lsl r0
    1a20:	77045101 	strvc	r5, [r4, -r1, lsl #2]
    1a24:	201a4000 	andscs	r4, sl, r0
    1a28:	76025001 	strvc	r5, [r2], -r1
    1a2c:	19000000 	stmdbne	r0, {}	; <UNPREDICTABLE>
    1a30:	0000013f 	andeq	r0, r0, pc, lsr r1
    1a34:	00008968 	andeq	r8, r0, r8, ror #18
    1a38:	0000001c 	andeq	r0, r0, ip, lsl r0
    1a3c:	05a21d01 	streq	r1, [r2, #3329]!	; 0xd01
    1a40:	6a1a0000 	bvs	681a48 <__bss_end__+0x677bd8>
    1a44:	1c000001 	stcne	0, cr0, [r0], {1}
    1a48:	1b00000c 	blne	1a80 <_start-0x6580>
    1a4c:	0000015f 	andeq	r0, r0, pc, asr r1
    1a50:	561b5401 	ldrpl	r5, [fp], -r1, lsl #8
    1a54:	09000001 	stmdbeq	r0, {r0}
    1a58:	20080077 	andcs	r0, r8, r7, ror r0
    1a5c:	1aff081a 	bne	fffc3acc <__bss_end__+0xfffb9c5c>
    1a60:	014b1b9f 			; <UNDEFINED> instruction: 0x014b1b9f
    1a64:	56010000 	strpl	r0, [r1], -r0
    1a68:	00011119 	andeq	r1, r1, r9, lsl r1
    1a6c:	00897400 	addeq	r7, r9, r0, lsl #8
    1a70:	00001000 	andeq	r1, r0, r0
    1a74:	881a0200 	ldmdahi	sl, {r9}
    1a78:	1a000005 	bne	1a94 <_start-0x656c>
    1a7c:	00000128 	andeq	r0, r0, r8, lsr #2
    1a80:	00000c46 	andeq	r0, r0, r6, asr #24
    1a84:	00011d1b 	andeq	r1, r1, fp, lsl sp
    1a88:	1d540100 	ldfnee	f0, [r4, #-0]
    1a8c:	00008974 	andeq	r8, r0, r4, ror r9
    1a90:	00000004 	andeq	r0, r0, r4
    1a94:	0001321e 	andeq	r3, r1, lr, lsl r2
    1a98:	000c7000 	andeq	r7, ip, r0
    1a9c:	1f000000 	svcne	0x00000000
    1aa0:	00008974 	andeq	r8, r0, r4, ror r9
    1aa4:	00001159 	andeq	r1, r0, r9, asr r1
    1aa8:	05510120 	ldrbeq	r0, [r1, #-288]	; 0x120
    1aac:	20080077 	andcs	r0, r8, r7, ror r0
    1ab0:	5001201a 	andpl	r2, r1, sl, lsl r0
    1ab4:	00007602 	andeq	r7, r0, r2, lsl #12
    1ab8:	013f1900 	teqeq	pc, r0, lsl #18
    1abc:	89880000 	stmibhi	r8, {}	; <UNPREDICTABLE>
    1ac0:	001c0000 	andseq	r0, ip, r0
    1ac4:	1f010000 	svcne	0x00010000
    1ac8:	0000062c 	andeq	r0, r0, ip, lsr #12
    1acc:	00016a1a 	andeq	r6, r1, sl, lsl sl
    1ad0:	000c8300 	andeq	r8, ip, r0, lsl #6
    1ad4:	015f1b00 	cmpeq	pc, r0, lsl #22
    1ad8:	54010000 	strpl	r0, [r1], #-0
    1adc:	0001561b 	andeq	r5, r1, fp, lsl r6
    1ae0:	00770900 	rsbseq	r0, r7, r0, lsl #18
    1ae4:	081a4008 	ldmdaeq	sl, {r3, lr}
    1ae8:	1b9f1aff 	blne	fe7c86ec <__bss_end__+0xfe7be87c>
    1aec:	0000014b 	andeq	r0, r0, fp, asr #2
    1af0:	11195601 	tstne	r9, r1, lsl #12
    1af4:	94000001 	strls	r0, [r0], #-1
    1af8:	10000089 	andne	r0, r0, r9, lsl #1
    1afc:	02000000 	andeq	r0, r0, #0
    1b00:	0006121a 	andeq	r1, r6, sl, lsl r2
    1b04:	01281a00 	teqeq	r8, r0, lsl #20
    1b08:	0ca50000 	stceq	0, cr0, [r5]
    1b0c:	1d1b0000 	ldcne	0, cr0, [fp, #-0]
    1b10:	01000001 	tsteq	r0, r1
    1b14:	89941d54 	ldmibhi	r4, {r2, r4, r6, r8, sl, fp, ip}
    1b18:	00040000 	andeq	r0, r4, r0
    1b1c:	321e0000 	andscc	r0, lr, #0
    1b20:	c7000001 	strgt	r0, [r0, -r1]
    1b24:	0000000c 	andeq	r0, r0, ip
    1b28:	89941f00 	ldmibhi	r4, {r8, r9, sl, fp, ip}
    1b2c:	11590000 	cmpne	r9, r0
    1b30:	01200000 	teqeq	r0, r0
    1b34:	00770551 	rsbseq	r0, r7, r1, asr r5
    1b38:	201a4008 	andscs	r4, sl, r8
    1b3c:	76025001 	strvc	r5, [r2], -r1
    1b40:	19000000 	stmdbne	r0, {}	; <UNPREDICTABLE>
    1b44:	0000013f 	andeq	r0, r0, pc, lsr r1
    1b48:	000089a8 	andeq	r8, r0, r8, lsr #19
    1b4c:	0000001c 	andeq	r0, r0, ip, lsl r0
    1b50:	06ac2101 	strteq	r2, [ip], r1, lsl #2
    1b54:	6a1b0000 	bvs	6c1b5c <__bss_end__+0x6b7cec>
    1b58:	01000001 	tsteq	r0, r1
    1b5c:	015f1b58 	cmpeq	pc, r8, asr fp	; <UNPREDICTABLE>
    1b60:	54010000 	strpl	r0, [r1], #-0
    1b64:	0001561a 	andeq	r5, r1, sl, lsl r6
    1b68:	000cda00 	andeq	sp, ip, r0, lsl #20
    1b6c:	014b1b00 	cmpeq	fp, r0, lsl #22
    1b70:	56010000 	strpl	r0, [r1], -r0
    1b74:	00011119 	andeq	r1, r1, r9, lsl r1
    1b78:	0089b400 	addeq	fp, r9, r0, lsl #8
    1b7c:	00001000 	andeq	r1, r0, r0
    1b80:	921a0200 	andsls	r0, sl, #0, 4
    1b84:	1b000006 	blne	1ba4 <_start-0x645c>
    1b88:	00000128 	andeq	r0, r0, r8, lsr #2
    1b8c:	1d1b5801 	ldcne	8, cr5, [fp, #-4]
    1b90:	01000001 	tsteq	r0, r1
    1b94:	89b41d54 	ldmibhi	r4!, {r2, r4, r6, r8, sl, fp, ip}
    1b98:	00040000 	andeq	r0, r4, r0
    1b9c:	321e0000 	andscc	r0, lr, #0
    1ba0:	0d000001 	stceq	0, cr0, [r0, #-4]
    1ba4:	0000000d 	andeq	r0, r0, sp
    1ba8:	89b41f00 	ldmibhi	r4!, {r8, r9, sl, fp, ip}
    1bac:	11590000 	cmpne	r9, r0
    1bb0:	01200000 	teqeq	r0, r0
    1bb4:	00770551 	rsbseq	r0, r7, r1, asr r5
    1bb8:	201a8008 	andscs	r8, sl, r8
    1bbc:	76025001 	strvc	r5, [r2], -r1
    1bc0:	21000000 	mrscs	r0, (UNDEF: 0)
    1bc4:	0000013f 	andeq	r0, r0, pc, lsr r1
    1bc8:	000089c8 	andeq	r8, r0, r8, asr #19
    1bcc:	0000001c 	andeq	r0, r0, ip, lsl r0
    1bd0:	6a1b2301 	bvs	6ca7dc <__bss_end__+0x6c096c>
    1bd4:	01000001 	tsteq	r0, r1
    1bd8:	015f1b55 	cmpeq	pc, r5, asr fp	; <UNPREDICTABLE>
    1bdc:	54010000 	strpl	r0, [r1], #-0
    1be0:	0001561c 	andeq	r5, r1, ip, lsl r6
    1be4:	4b1b0100 	blmi	6c1fec <__bss_end__+0x6b817c>
    1be8:	01000001 	tsteq	r0, r1
    1bec:	01111956 	tsteq	r1, r6, asr r9
    1bf0:	89d40000 	ldmibhi	r4, {}^	; <UNPREDICTABLE>
    1bf4:	00100000 	andseq	r0, r0, r0
    1bf8:	1a020000 	bne	81c00 <__bss_end__+0x77d90>
    1bfc:	0000070b 	andeq	r0, r0, fp, lsl #14
    1c00:	0001281b 	andeq	r2, r1, fp, lsl r8
    1c04:	1b550100 	blne	154200c <__bss_end__+0x153819c>
    1c08:	0000011d 	andeq	r0, r0, sp, lsl r1
    1c0c:	d41d5401 	ldrle	r5, [sp], #-1025	; 0x401
    1c10:	04000089 	streq	r0, [r0], #-137	; 0x89
    1c14:	1e000000 	cdpne	0, 0, cr0, cr0, cr0, {0}
    1c18:	00000132 	andeq	r0, r0, r2, lsr r1
    1c1c:	00000d20 	andeq	r0, r0, r0, lsr #26
    1c20:	d41f0000 	ldrle	r0, [pc], #-0	; 1c28 <_start-0x63d8>
    1c24:	59000089 	stmdbpl	r0, {r0, r3, r7}
    1c28:	20000011 	andcs	r0, r0, r1, lsl r0
    1c2c:	31015101 	tstcc	r1, r1, lsl #2
    1c30:	02500120 	subseq	r0, r0, #32, 2
    1c34:	00000076 	andeq	r0, r0, r6, ror r0
    1c38:	d9040600 	stmdble	r4, {r9, sl}
    1c3c:	22000000 	andcs	r0, r0, #0
    1c40:	000006cd 	andeq	r0, r0, sp, asr #13
    1c44:	00252701 	eoreq	r2, r5, r1, lsl #14
    1c48:	62030000 	andvs	r0, r3, #0
    1c4c:	0f000007 	svceq	0x00000007
    1c50:	01007872 	tsteq	r0, r2, ror r8
    1c54:	00002527 	andeq	r2, r0, r7, lsr #10
    1c58:	00760f00 	rsbseq	r0, r6, r0, lsl #30
    1c5c:	00252701 	eoreq	r2, r5, r1, lsl #14
    1c60:	210e0000 	mrscs	r0, (UNDEF: 14)
    1c64:	01000006 	tsteq	r0, r6
    1c68:	00002c27 	andeq	r2, r0, r7, lsr #24
    1c6c:	04611100 	strbteq	r1, [r1], #-256	; 0x100
    1c70:	28010000 	stmdacs	r1, {}	; <UNPREDICTABLE>
    1c74:	0000002c 	andeq	r0, r0, ip, lsr #32
    1c78:	05c22300 	strbeq	r2, [r2, #768]	; 0x300
    1c7c:	34010000 	strcc	r0, [r1], #-0
    1c80:	00000025 	andeq	r0, r0, r5, lsr #32
    1c84:	000089e8 	andeq	r8, r0, r8, ror #19
    1c88:	000001c8 	andeq	r0, r0, r8, asr #3
    1c8c:	0b1e9c01 	bleq	7a8c98 <__bss_end__+0x79ee28>
    1c90:	14130000 	ldrne	r0, [r3], #-0
    1c94:	01000004 	tsteq	r0, r4
    1c98:	00072234 	andeq	r2, r7, r4, lsr r2
    1c9c:	000d3300 	andeq	r3, sp, r0, lsl #6
    1ca0:	06211300 	strteq	r1, [r1], -r0, lsl #6
    1ca4:	34010000 	strcc	r0, [r1], #-0
    1ca8:	00000025 	andeq	r0, r0, r5, lsr #32
    1cac:	00000d78 	andeq	r0, r0, r8, ror sp
    1cb0:	00787215 	rsbseq	r7, r8, r5, lsl r2
    1cb4:	00253501 	eoreq	r3, r5, r1, lsl #10
    1cb8:	55010000 	strpl	r0, [r1, #-0]
    1cbc:	01007316 	tsteq	r0, r6, lsl r3
    1cc0:	00002c3c 	andeq	r2, r0, ip, lsr ip
    1cc4:	000d9600 	andeq	r9, sp, r0, lsl #12
    1cc8:	00751600 	rsbseq	r1, r5, r0, lsl #12
    1ccc:	00683f01 	rsbeq	r3, r8, r1, lsl #30
    1cd0:	0da90000 	stceq	0, cr0, [r9]
    1cd4:	6e160000 	cdpvs	0, 1, cr0, cr6, cr0, {0}
    1cd8:	2c400100 	stfcse	f0, [r0], {-0}
    1cdc:	bc000000 	stclt	0, cr0, [r0], {-0}
    1ce0:	1600000d 	strne	r0, [r0], -sp
    1ce4:	41010063 	tstmi	r1, r3, rrx
    1ce8:	0000002c 	andeq	r0, r0, ip, lsr #32
    1cec:	00000dd3 	ldrdeq	r0, [r0], -r3
    1cf0:	00072819 	andeq	r2, r7, r9, lsl r8
    1cf4:	0089fc00 	addeq	pc, r9, r0, lsl #24
    1cf8:	00003400 	andeq	r3, r0, r0, lsl #8
    1cfc:	3c380100 	ldfccs	f0, [r8], #-0
    1d00:	1a000008 	bne	1d28 <_start-0x62d8>
    1d04:	0000074b 	andeq	r0, r0, fp, asr #14
    1d08:	00000dfd 	strdeq	r0, [r0], -sp
    1d0c:	0007421c 	andeq	r4, r7, ip, lsl r2
    1d10:	381b0000 	ldmdacc	fp, {}	; <UNPREDICTABLE>
    1d14:	01000007 	tsteq	r0, r7
    1d18:	89fc1d55 	ldmibhi	ip!, {r0, r2, r4, r6, r8, sl, fp, ip}^
    1d1c:	00340000 	eorseq	r0, r4, r0
    1d20:	561e0000 	ldrpl	r0, [lr], -r0
    1d24:	1b000007 	blne	1d48 <_start-0x62b8>
    1d28:	2400000e 	strcs	r0, [r0], #-14
    1d2c:	00008a00 	andeq	r8, r0, r0, lsl #20
    1d30:	0000116f 	andeq	r1, r0, pc, ror #2
    1d34:	008a0c25 	addeq	r0, sl, r5, lsr #24
    1d38:	00117a00 	andseq	r7, r1, r0, lsl #20
    1d3c:	00083100 	andeq	r3, r8, r0, lsl #2
    1d40:	50012000 	andpl	r2, r1, r0
    1d44:	00007502 	andeq	r7, r0, r2, lsl #10
    1d48:	008a1824 	addeq	r1, sl, r4, lsr #16
    1d4c:	00116f00 	andseq	r6, r1, r0, lsl #30
    1d50:	17000000 	strne	r0, [r0, -r0]
    1d54:	00008a38 	andeq	r8, r0, r8, lsr sl
    1d58:	00000004 	andeq	r0, r0, r4
    1d5c:	00000859 	andeq	r0, r0, r9, asr r8
    1d60:	00067326 	andeq	r7, r6, r6, lsr #6
    1d64:	2c3c0100 	ldfcss	f0, [ip], #-0
    1d68:	39000000 	stmdbcc	r0, {}	; <UNPREDICTABLE>
    1d6c:	0000000e 	andeq	r0, r0, lr
    1d70:	00011119 	andeq	r1, r1, r9, lsl r1
    1d74:	008a4400 	addeq	r4, sl, r0, lsl #8
    1d78:	00001000 	andeq	r1, r0, r0
    1d7c:	92440100 	subls	r0, r4, #0, 2
    1d80:	1a000008 	bne	1da8 <_start-0x6258>
    1d84:	00000128 	andeq	r0, r0, r8, lsr #2
    1d88:	00000e4c 	andeq	r0, r0, ip, asr #28
    1d8c:	00011d1a 	andeq	r1, r1, sl, lsl sp
    1d90:	000e7100 	andeq	r7, lr, r0, lsl #2
    1d94:	8a441d00 	bhi	110919c <__bss_end__+0x10ff32c>
    1d98:	00040000 	andeq	r0, r4, r0
    1d9c:	321e0000 	andscc	r0, lr, #0
    1da0:	84000001 	strhi	r0, [r0], #-1
    1da4:	0000000e 	andeq	r0, r0, lr
    1da8:	01111900 	tsteq	r1, r0, lsl #18
    1dac:	8a640000 	bhi	1901db4 <__bss_end__+0x18f7f44>
    1db0:	00100000 	andseq	r0, r0, r0
    1db4:	48010000 	stmdami	r1, {}	; <UNPREDICTABLE>
    1db8:	000008cb 	andeq	r0, r0, fp, asr #17
    1dbc:	0001281a 	andeq	r2, r1, sl, lsl r8
    1dc0:	000e9700 	andeq	r9, lr, r0, lsl #14
    1dc4:	011d1a00 	tsteq	sp, r0, lsl #20
    1dc8:	0eaa0000 	cdpeq	0, 10, cr0, cr10, cr0, {0}
    1dcc:	641d0000 	ldrvs	r0, [sp], #-0
    1dd0:	0400008a 	streq	r0, [r0], #-138	; 0x8a
    1dd4:	1e000000 	cdpne	0, 0, cr0, cr0, cr0, {0}
    1dd8:	00000132 	andeq	r0, r0, r2, lsr r1
    1ddc:	00000ebd 			; <UNDEFINED> instruction: 0x00000ebd
    1de0:	11190000 	tstne	r9, r0
    1de4:	88000001 	stmdahi	r0, {r0}
    1de8:	1000008a 	andne	r0, r0, sl, lsl #1
    1dec:	01000000 	mrseq	r0, (UNDEF: 0)
    1df0:	0009044b 	andeq	r0, r9, fp, asr #8
    1df4:	01281a00 	teqeq	r8, r0, lsl #20
    1df8:	0ed00000 	cdpeq	0, 13, cr0, cr0, cr0, {0}
    1dfc:	1d1a0000 	ldcne	0, cr0, [sl, #-0]
    1e00:	e3000001 	movw	r0, #1
    1e04:	1d00000e 	stcne	0, cr0, [r0, #-56]	; 0xffffffc8
    1e08:	00008a88 	andeq	r8, r0, r8, lsl #21
    1e0c:	00000004 	andeq	r0, r0, r4
    1e10:	0001321e 	andeq	r3, r1, lr, lsl r2
    1e14:	000ef600 	andeq	pc, lr, r0, lsl #12
    1e18:	19000000 	stmdbne	r0, {}	; <UNPREDICTABLE>
    1e1c:	00000111 	andeq	r0, r0, r1, lsl r1
    1e20:	00008aac 	andeq	r8, r0, ip, lsr #21
    1e24:	00000010 	andeq	r0, r0, r0, lsl r0
    1e28:	093d4e01 	ldmdbeq	sp!, {r0, r9, sl, fp, lr}
    1e2c:	281a0000 	ldmdacs	sl, {}	; <UNPREDICTABLE>
    1e30:	09000001 	stmdbeq	r0, {r0}
    1e34:	1a00000f 	bne	1e78 <_start-0x6188>
    1e38:	0000011d 	andeq	r0, r0, sp, lsl r1
    1e3c:	00000f1c 	andeq	r0, r0, ip, lsl pc
    1e40:	008aac1d 	addeq	sl, sl, sp, lsl ip
    1e44:	00000400 	andeq	r0, r0, r0, lsl #8
    1e48:	01321e00 	teqeq	r2, r0, lsl #28
    1e4c:	0f2f0000 	svceq	0x002f0000
    1e50:	00000000 	andeq	r0, r0, r0
    1e54:	00011119 	andeq	r1, r1, r9, lsl r1
    1e58:	008ad000 	addeq	sp, sl, r0
    1e5c:	00001000 	andeq	r1, r0, r0
    1e60:	76510100 	ldrbvc	r0, [r1], -r0, lsl #2
    1e64:	1a000009 	bne	1e90 <_start-0x6170>
    1e68:	00000128 	andeq	r0, r0, r8, lsr #2
    1e6c:	00000f42 	andeq	r0, r0, r2, asr #30
    1e70:	00011d1a 	andeq	r1, r1, sl, lsl sp
    1e74:	000f5500 	andeq	r5, pc, r0, lsl #10
    1e78:	8ad01d00 	bhi	ff409280 <__bss_end__+0xff3ff410>
    1e7c:	00040000 	andeq	r0, r4, r0
    1e80:	321e0000 	andscc	r0, lr, #0
    1e84:	68000001 	stmdavs	r0, {r0}
    1e88:	0000000f 	andeq	r0, r0, pc
    1e8c:	01111900 	tsteq	r1, r0, lsl #18
    1e90:	8af40000 	bhi	ffd01e98 <__bss_end__+0xffcf8028>
    1e94:	00100000 	andseq	r0, r0, r0
    1e98:	54010000 	strpl	r0, [r1], #-0
    1e9c:	000009af 	andeq	r0, r0, pc, lsr #19
    1ea0:	0001281a 	andeq	r2, r1, sl, lsl r8
    1ea4:	000f7b00 	andeq	r7, pc, r0, lsl #22
    1ea8:	011d1a00 	tsteq	sp, r0, lsl #20
    1eac:	0f8e0000 	svceq	0x008e0000
    1eb0:	f41d0000 			; <UNDEFINED> instruction: 0xf41d0000
    1eb4:	0400008a 	streq	r0, [r0], #-138	; 0x8a
    1eb8:	1e000000 	cdpne	0, 0, cr0, cr0, cr0, {0}
    1ebc:	00000132 	andeq	r0, r0, r2, lsr r1
    1ec0:	00000fa1 	andeq	r0, r0, r1, lsr #31
    1ec4:	11190000 	tstne	r9, r0
    1ec8:	18000001 	stmdane	r0, {r0}
    1ecc:	1000008b 	andne	r0, r0, fp, lsl #1
    1ed0:	01000000 	mrseq	r0, (UNDEF: 0)
    1ed4:	0009e857 	andeq	lr, r9, r7, asr r8
    1ed8:	01281a00 	teqeq	r8, r0, lsl #20
    1edc:	0fb40000 	svceq	0x00b40000
    1ee0:	1d1a0000 	ldcne	0, cr0, [sl, #-0]
    1ee4:	c7000001 	strgt	r0, [r0, -r1]
    1ee8:	1d00000f 	stcne	0, cr0, [r0, #-60]	; 0xffffffc4
    1eec:	00008b18 	andeq	r8, r0, r8, lsl fp
    1ef0:	00000004 	andeq	r0, r0, r4
    1ef4:	0001321e 	andeq	r3, r1, lr, lsl r2
    1ef8:	000fda00 	andeq	sp, pc, r0, lsl #20
    1efc:	19000000 	stmdbne	r0, {}	; <UNPREDICTABLE>
    1f00:	00000111 	andeq	r0, r0, r1, lsl r1
    1f04:	00008b3c 	andeq	r8, r0, ip, lsr fp
    1f08:	00000010 	andeq	r0, r0, r0, lsl r0
    1f0c:	0a1d5a01 	beq	758718 <__bss_end__+0x74e8a8>
    1f10:	281a0000 	ldmdacs	sl, {}	; <UNPREDICTABLE>
    1f14:	ed000001 	stc	0, cr0, [r0, #-4]
    1f18:	2700000f 	strcs	r0, [r0, -pc]
    1f1c:	0000011d 	andeq	r0, r0, sp, lsl r1
    1f20:	008b3c1d 	addeq	r3, fp, sp, lsl ip
    1f24:	00000400 	andeq	r0, r0, r0, lsl #8
    1f28:	01321e00 	teqeq	r2, r0, lsl #28
    1f2c:	10000000 	andne	r0, r0, r0
    1f30:	00000000 	andeq	r0, r0, r0
    1f34:	00072819 	andeq	r2, r7, r9, lsl r8
    1f38:	008b5c00 	addeq	r5, fp, r0, lsl #24
    1f3c:	00003400 	andeq	r3, r0, r0, lsl #8
    1f40:	81610100 	cmnhi	r1, r0, lsl #2
    1f44:	2700000a 	strcs	r0, [r0, -sl]
    1f48:	0000074b 	andeq	r0, r0, fp, asr #14
    1f4c:	0007421a 	andeq	r4, r7, sl, lsl r2
    1f50:	00101300 	andseq	r1, r0, r0, lsl #6
    1f54:	07381a00 	ldreq	r1, [r8, -r0, lsl #20]!
    1f58:	10330000 	eorsne	r0, r3, r0
    1f5c:	5c1d0000 	ldcpl	0, cr0, [sp], {-0}
    1f60:	3400008b 	strcc	r0, [r0], #-139	; 0x8b
    1f64:	1e000000 	cdpne	0, 0, cr0, cr0, cr0, {0}
    1f68:	00000756 	andeq	r0, r0, r6, asr r7
    1f6c:	00001051 	andeq	r1, r0, r1, asr r0
    1f70:	008b6024 	addeq	r6, fp, r4, lsr #32
    1f74:	00116f00 	andseq	r6, r1, r0, lsl #30
    1f78:	8b6c2500 	blhi	1b0b380 <__bss_end__+0x1b01510>
    1f7c:	117a0000 	cmnne	sl, r0
    1f80:	0a760000 	beq	1d81f88 <__bss_end__+0x1d78118>
    1f84:	01200000 	teqeq	r0, r0
    1f88:	00750250 	rsbseq	r0, r5, r0, asr r2
    1f8c:	8b782400 	blhi	1e0af94 <__bss_end__+0x1e01124>
    1f90:	116f0000 	cmnne	pc, r0
    1f94:	00000000 	andeq	r0, r0, r0
    1f98:	008a6025 	addeq	r6, sl, r5, lsr #32
    1f9c:	00117a00 	andseq	r7, r1, r0, lsl #20
    1fa0:	000a9500 	andeq	r9, sl, r0, lsl #10
    1fa4:	50012000 	andpl	r2, r1, r0
    1fa8:	00007502 	andeq	r7, r0, r2, lsl #10
    1fac:	008a8025 	addeq	r8, sl, r5, lsr #32
    1fb0:	00117a00 	andseq	r7, r1, r0, lsl #20
    1fb4:	000aa900 	andeq	sl, sl, r0, lsl #18
    1fb8:	50012000 	andpl	r2, r1, r0
    1fbc:	00007502 	andeq	r7, r0, r2, lsl #10
    1fc0:	008aa425 	addeq	sl, sl, r5, lsr #8
    1fc4:	00117a00 	andseq	r7, r1, r0, lsl #20
    1fc8:	000abd00 	andeq	fp, sl, r0, lsl #26
    1fcc:	50012000 	andpl	r2, r1, r0
    1fd0:	00007502 	andeq	r7, r0, r2, lsl #10
    1fd4:	008ac825 	addeq	ip, sl, r5, lsr #16
    1fd8:	00117a00 	andseq	r7, r1, r0, lsl #20
    1fdc:	000ad100 	andeq	sp, sl, r0, lsl #2
    1fe0:	50012000 	andpl	r2, r1, r0
    1fe4:	00007502 	andeq	r7, r0, r2, lsl #10
    1fe8:	008aec25 	addeq	lr, sl, r5, lsr #24
    1fec:	00117a00 	andseq	r7, r1, r0, lsl #20
    1ff0:	000ae500 	andeq	lr, sl, r0, lsl #10
    1ff4:	50012000 	andpl	r2, r1, r0
    1ff8:	00007502 	andeq	r7, r0, r2, lsl #10
    1ffc:	008b1025 	addeq	r1, fp, r5, lsr #32
    2000:	00117a00 	andseq	r7, r1, r0, lsl #20
    2004:	000af900 	andeq	pc, sl, r0, lsl #18
    2008:	50012000 	andpl	r2, r1, r0
    200c:	00007502 	andeq	r7, r0, r2, lsl #10
    2010:	008b3425 	addeq	r3, fp, r5, lsr #8
    2014:	00117a00 	andseq	r7, r1, r0, lsl #20
    2018:	000b0d00 	andeq	r0, fp, r0, lsl #26
    201c:	50012000 	andpl	r2, r1, r0
    2020:	00007502 	andeq	r7, r0, r2, lsl #10
    2024:	008b541f 	addeq	r5, fp, pc, lsl r4
    2028:	00117a00 	andseq	r7, r1, r0, lsl #20
    202c:	50012000 	andpl	r2, r1, r0
    2030:	00007502 	andeq	r7, r0, r2, lsl #10
    2034:	05d72300 	ldrbeq	r2, [r7, #768]	; 0x300
    2038:	6c010000 	stcvs	0, cr0, [r1], {-0}
    203c:	00000025 	andeq	r0, r0, r5, lsr #32
    2040:	00008bb0 			; <UNDEFINED> instruction: 0x00008bb0
    2044:	000000a4 	andeq	r0, r0, r4, lsr #1
    2048:	0c0c9c01 	stceq	12, cr9, [ip], {1}
    204c:	75140000 	ldrvc	r0, [r4, #-0]
    2050:	226c0100 	rsbcs	r0, ip, #0, 2
    2054:	6f000007 	svcvs	0x00000007
    2058:	14000010 	strne	r0, [r0], #-16
    205c:	00667562 	rsbeq	r7, r6, r2, ror #10
    2060:	0c0c6c01 	stceq	12, cr6, [ip], {1}
    2064:	10b10000 	adcsne	r0, r1, r0
    2068:	78130000 	ldmdavc	r3, {}	; <UNPREDICTABLE>
    206c:	01000006 	tsteq	r0, r6
    2070:	0000686c 	andeq	r6, r0, ip, ror #16
    2074:	0010f300 	andseq	pc, r0, r0, lsl #6
    2078:	6e651400 	cdpvs	4, 6, cr1, cr5, cr0, {0}
    207c:	6c010064 	stcvs	0, cr0, [r1], {100}	; 0x64
    2080:	0000004f 	andeq	r0, r0, pc, asr #32
    2084:	0000113a 	andeq	r1, r0, sl, lsr r1
    2088:	00068a28 	andeq	r8, r6, r8, lsr #20
    208c:	686c0100 	stmdavs	ip!, {r8}^
    2090:	02000000 	andeq	r0, r0, #0
    2094:	41290091 			; <UNDEFINED> instruction: 0x41290091
    2098:	22000003 	andcs	r0, r0, #3
    209c:	0500000c 	streq	r0, [r0, #-12]
    20a0:	00990803 	addseq	r0, r9, r3, lsl #16
    20a4:	00691600 	rsbeq	r1, r9, r0, lsl #12
    20a8:	00257001 	eoreq	r7, r5, r1
    20ac:	11740000 	cmnne	r4, r0
    20b0:	56260000 	strtpl	r0, [r6], -r0
    20b4:	01000006 	tsteq	r0, r6
    20b8:	00004f71 	andeq	r4, r0, r1, ror pc
    20bc:	00119e00 	andseq	r9, r1, r0, lsl #28
    20c0:	8bd42400 	blhi	ff50b0c8 <__bss_end__+0xff501258>
    20c4:	118f0000 	orrne	r0, pc, r0
    20c8:	f0250000 			; <UNDEFINED> instruction: 0xf0250000
    20cc:	9600008b 	strls	r0, [r0], -fp, lsl #1
    20d0:	ec000011 	stc	0, cr0, [r0], {17}
    20d4:	2000000b 	andcs	r0, r0, fp
    20d8:	08025301 	stmdaeq	r2, {r0, r8, r9, ip, lr}
    20dc:	5201206d 	andpl	r2, r1, #109	; 0x6d
    20e0:	99080305 	stmdbls	r8, {r0, r2, r8, r9}
    20e4:	01200000 	teqeq	r0, r0
    20e8:	80030551 	andhi	r0, r3, r1, asr r5
    20ec:	20000099 	mulcs	r0, r9, r0
    20f0:	03055001 	movweq	r5, #20481	; 0x5001
    20f4:	00009814 	andeq	r9, r0, r4, lsl r8
    20f8:	007d0220 	rsbseq	r0, sp, r0, lsr #4
    20fc:	99940305 	ldmibls	r4, {r0, r2, r8, r9}
    2100:	24000000 	strcs	r0, [r0], #-0
    2104:	00008bf4 	strdeq	r8, [r0], -r4
    2108:	000011ac 	andeq	r1, r0, ip, lsr #3
    210c:	008c101f 	addeq	r1, ip, pc, lsl r0
    2110:	00076200 	andeq	r6, r7, r0, lsl #4
    2114:	51012000 	mrspl	r2, (UNDEF: 1)
    2118:	20007a02 	andcs	r7, r0, r2, lsl #20
    211c:	78025001 	stmdavc	r2, {r0, ip, lr}
    2120:	06000000 	streq	r0, [r0], -r0
    2124:	00004f04 	andeq	r4, r0, r4, lsl #30
    2128:	00902a00 	addseq	r2, r0, r0, lsl #20
    212c:	0c220000 	stceq	0, cr0, [r2], #-0
    2130:	812b0000 	teqhi	fp, r0
    2134:	12000000 	andne	r0, r0, #0
    2138:	0c120700 	ldceq	7, cr0, [r2], {-0}
    213c:	5e230000 	cdppl	0, 2, cr0, cr3, cr0, {0}
    2140:	01000006 	tsteq	r0, r6
    2144:	00002580 	andeq	r2, r0, r0, lsl #11
    2148:	008c5400 	addeq	r5, ip, r0, lsl #8
    214c:	00009000 	andeq	r9, r0, r0
    2150:	f89c0100 			; <UNDEFINED> instruction: 0xf89c0100
    2154:	1400000c 	strne	r0, [r0], #-12
    2158:	80010075 	andhi	r0, r1, r5, ror r0
    215c:	00000722 	andeq	r0, r0, r2, lsr #14
    2160:	000011b1 			; <UNDEFINED> instruction: 0x000011b1
    2164:	66756214 			; <UNDEFINED> instruction: 0x66756214
    2168:	0c800100 	stfeqs	f0, [r0], {0}
    216c:	f300000c 	vhadd.u8	d0, d0, d12
    2170:	13000011 	movwne	r0, #17
    2174:	00000678 	andeq	r0, r0, r8, ror r6
    2178:	00688101 	rsbeq	r8, r8, r1, lsl #2
    217c:	12350000 	eorsne	r0, r5, #0
    2180:	8a130000 	bhi	4c2188 <__bss_end__+0x4b8318>
    2184:	01000006 	tsteq	r0, r6
    2188:	00006881 	andeq	r6, r0, r1, lsl #17
    218c:	00127c00 	andseq	r7, r2, r0, lsl #24
    2190:	03412900 	movteq	r2, #6400	; 0x1900
    2194:	0d080000 	stceq	0, cr0, [r8, #-0]
    2198:	03050000 	movweq	r0, #20480	; 0x5000
    219c:	0000991c 	andeq	r9, r0, ip, lsl r9
    21a0:	01006916 	tsteq	r0, r6, lsl r9
    21a4:	00002586 	andeq	r2, r0, r6, lsl #11
    21a8:	0012be00 	andseq	fp, r2, r0, lsl #28
    21ac:	8c742400 	cfldrdhi	mvd2, [r4], #-0
    21b0:	118f0000 	orrne	r0, pc, r0
    21b4:	90250000 	eorls	r0, r5, r0
    21b8:	9600008c 	strls	r0, [r0], -ip, lsl #1
    21bc:	d8000011 	stmdale	r0, {r0, r4}
    21c0:	2000000c 	andcs	r0, r0, ip
    21c4:	08025301 	stmdaeq	r2, {r0, r8, r9, ip, lr}
    21c8:	52012083 	andpl	r2, r1, #131	; 0x83
    21cc:	991c0305 	ldmdbls	ip, {r0, r2, r8, r9}
    21d0:	01200000 	teqeq	r0, r0
    21d4:	80030551 	andhi	r0, r3, r1, asr r5
    21d8:	20000099 	mulcs	r0, r9, r0
    21dc:	03055001 	movweq	r5, #20481	; 0x5001
    21e0:	00009814 	andeq	r9, r0, r4, lsl r8
    21e4:	007d0220 	rsbseq	r0, sp, r0, lsr #4
    21e8:	99940305 	ldmibls	r4, {r0, r2, r8, r9}
    21ec:	24000000 	strcs	r0, [r0], #-0
    21f0:	00008c94 	muleq	r0, r4, ip
    21f4:	000011ac 	andeq	r1, r0, ip, lsr #3
    21f8:	008cb01f 	addeq	fp, ip, pc, lsl r0
    21fc:	00076200 	andeq	r6, r7, r0, lsl #4
    2200:	51012000 	mrspl	r2, (UNDEF: 1)
    2204:	20007802 	andcs	r7, r0, r2, lsl #16
    2208:	77025001 	strvc	r5, [r2, -r1]
    220c:	2a000000 	bcs	2214 <_start-0x5dec>
    2210:	00000090 	muleq	r0, r0, r0
    2214:	00000d08 	andeq	r0, r0, r8, lsl #26
    2218:	0000812b 	andeq	r8, r0, fp, lsr #2
    221c:	07001400 	streq	r1, [r0, -r0, lsl #8]
    2220:	00000cf8 	strdeq	r0, [r0], -r8
    2224:	00060d23 	andeq	r0, r6, r3, lsr #26
    2228:	d9930100 	ldmible	r3, {r8}
    222c:	e4000000 	str	r0, [r0], #-0
    2230:	d400008c 	strle	r0, [r0], #-140	; 0x8c
    2234:	01000000 	mrseq	r0, (UNDEF: 0)
    2238:	000e329c 	muleq	lr, ip, r2
    223c:	78741400 	ldmdavc	r4!, {sl, ip}^
    2240:	4f930100 	svcmi	0x00930100
    2244:	e8000000 	stmda	r0, {}	; <UNPREDICTABLE>
    2248:	14000012 	strne	r0, [r0], #-18
    224c:	01007872 	tsteq	r0, r2, ror r8
    2250:	00004f93 	muleq	r0, r3, pc	; <UNPREDICTABLE>
    2254:	00130900 	andseq	r0, r3, r0, lsl #18
    2258:	044d1300 	strbeq	r1, [sp], #-768	; 0x300
    225c:	93010000 	movwls	r0, #4096	; 0x1000
    2260:	00000068 	andeq	r0, r0, r8, rrx
    2264:	0000132a 	andeq	r1, r0, sl, lsr #6
    2268:	0005a628 	andeq	sl, r5, r8, lsr #12
    226c:	68930100 	ldmvs	r3, {r8}
    2270:	02000000 	andeq	r0, r0, #0
    2274:	6d2c0091 	stcvs	0, cr0, [ip, #-580]!	; 0xfffffdbc
    2278:	01007a68 	tsteq	r0, r8, ror #20
    227c:	00002c9b 	muleq	r0, fp, ip
    2280:	b9270000 	stmdblt	r7!, {}	; <UNPREDICTABLE>
    2284:	05f72629 	ldrbeq	r2, [r7, #1577]!	; 0x629
    2288:	9c010000 	stcls	0, cr0, [r1], {-0}
    228c:	0000002c 	andeq	r0, r0, ip, lsr #32
    2290:	00001354 	andeq	r1, r0, r4, asr r3
    2294:	00034129 	andeq	r4, r3, r9, lsr #2
    2298:	000e4200 	andeq	r4, lr, r0, lsl #4
    229c:	34030500 	strcc	r0, [r3], #-1280	; 0x500
    22a0:	17000099 			; <UNDEFINED> instruction: 0x17000099
    22a4:	00008d10 	andeq	r8, r0, r0, lsl sp
    22a8:	00000008 	andeq	r0, r0, r8
    22ac:	00000da5 	andeq	r0, r0, r5, lsr #27
    22b0:	006e692d 	rsbeq	r6, lr, sp, lsr #18
    22b4:	002c9701 	eoreq	r9, ip, r1, lsl #14
    22b8:	00010000 	andeq	r0, r1, r0
    22bc:	008d0825 	addeq	r0, sp, r5, lsr #16
    22c0:	0011b300 	andseq	fp, r1, r0, lsl #6
    22c4:	000db900 	andeq	fp, sp, r0, lsl #18
    22c8:	50012000 	andpl	r2, r1, r0
    22cc:	00007602 	andeq	r7, r0, r2, lsl #12
    22d0:	008d1025 	addeq	r1, sp, r5, lsr #32
    22d4:	0011c400 	andseq	ip, r1, r0, lsl #8
    22d8:	000dcd00 	andeq	ip, sp, r0, lsl #26
    22dc:	50012000 	andpl	r2, r1, r0
    22e0:	00007802 	andeq	r7, r0, r2, lsl #16
    22e4:	008d2425 	addeq	r2, sp, r5, lsr #8
    22e8:	00115900 	andseq	r5, r1, r0, lsl #18
    22ec:	000de600 	andeq	lr, sp, r0, lsl #12
    22f0:	51012000 	mrspl	r2, (UNDEF: 1)
    22f4:	01203101 	teqeq	r0, r1, lsl #2
    22f8:	00760250 	rsbseq	r0, r6, r0, asr r2
    22fc:	8d682400 	cfstrdhi	mvd2, [r8, #-0]
    2300:	118f0000 	orrne	r0, pc, r0
    2304:	84250000 	strthi	r0, [r5], #-0
    2308:	9600008d 	strls	r0, [r0], -sp, lsl #1
    230c:	28000011 	stmdacs	r0, {r0, r4}
    2310:	2000000e 	andcs	r0, r0, lr
    2314:	08025301 	stmdaeq	r2, {r0, r8, r9, ip, lr}
    2318:	5201209d 	andpl	r2, r1, #157	; 0x9d
    231c:	99340305 	ldmdbls	r4!, {r0, r2, r8, r9}
    2320:	01200000 	teqeq	r0, r0
    2324:	80030551 	andhi	r0, r3, r1, asr r5
    2328:	20000099 	mulcs	r0, r9, r0
    232c:	03055001 	movweq	r5, #20481	; 0x5001
    2330:	00009814 	andeq	r9, r0, r4, lsl r8
    2334:	007d0220 	rsbseq	r0, sp, r0, lsr #4
    2338:	99a00305 	stmibls	r0!, {r0, r2, r8, r9}
    233c:	24000000 	strcs	r0, [r0], #-0
    2340:	00008d88 	andeq	r8, r0, r8, lsl #27
    2344:	000011ac 	andeq	r1, r0, ip, lsr #3
    2348:	00902a00 	addseq	r2, r0, r0, lsl #20
    234c:	0e420000 	cdpeq	0, 4, cr0, cr2, cr0, {0}
    2350:	812b0000 	teqhi	fp, r0
    2354:	13000000 	movwne	r0, #0
    2358:	0e320700 	cdpeq	7, 3, cr0, cr2, cr0, {0}
    235c:	ea230000 	b	8c2364 <__bss_end__+0x8b84f4>
    2360:	01000005 	tsteq	r0, r5
    2364:	000025a9 	andeq	r2, r0, r9, lsr #11
    2368:	008db800 	addeq	fp, sp, r0, lsl #16
    236c:	00003c00 	andeq	r3, r0, r0, lsl #24
    2370:	ea9c0100 	b	fe702778 <__bss_end__+0xfe6f8908>
    2374:	1300000e 	movwne	r0, #14
    2378:	00000414 	andeq	r0, r0, r4, lsl r4
    237c:	0722a901 	streq	sl, [r2, -r1, lsl #18]!
    2380:	13820000 	orrne	r0, r2, #0
    2384:	72160000 	andsvc	r0, r6, #0
    2388:	01007365 	tsteq	r0, r5, ror #6
    238c:	000025aa 	andeq	r2, r0, sl, lsr #11
    2390:	0013a300 	andseq	sl, r3, r0, lsl #6
    2394:	03412900 	movteq	r2, #6400	; 0x1900
    2398:	0efa0000 	cdpeq	0, 15, cr0, cr10, cr0, {0}
    239c:	03050000 	movweq	r0, #20480	; 0x5000
    23a0:	00009948 	andeq	r9, r0, r8, asr #18
    23a4:	008dc425 	addeq	ip, sp, r5, lsr #8
    23a8:	00076200 	andeq	r6, r7, r0, lsl #4
    23ac:	000ea800 	andeq	sl, lr, r0, lsl #16
    23b0:	51012000 	mrspl	r2, (UNDEF: 1)
    23b4:	20ff0902 	rscscs	r0, pc, r2, lsl #18
    23b8:	f3035001 	vhadd.u8	d5, d3, d1
    23bc:	24005001 	strcs	r5, [r0], #-1
    23c0:	00008dd0 	ldrdeq	r8, [r0], -r0
    23c4:	0000118f 	andeq	r1, r0, pc, lsl #3
    23c8:	008de425 	addeq	lr, sp, r5, lsr #8
    23cc:	00119600 	andseq	r9, r1, r0, lsl #12
    23d0:	000ee000 	andeq	lr, lr, r0
    23d4:	53012000 	movwpl	r2, #4096	; 0x1000
    23d8:	20ac0802 	adccs	r0, ip, r2, lsl #16
    23dc:	03055201 	movweq	r5, #20993	; 0x5201
    23e0:	00009948 	andeq	r9, r0, r8, asr #18
    23e4:	05510120 	ldrbeq	r0, [r1, #-288]	; 0x120
    23e8:	00998003 	addseq	r8, r9, r3
    23ec:	50012000 	andpl	r2, r1, r0
    23f0:	99d40305 	ldmibls	r4, {r0, r2, r8, r9}^
    23f4:	24000000 	strcs	r0, [r0], #-0
    23f8:	00008de8 	andeq	r8, r0, r8, ror #27
    23fc:	000011ac 	andeq	r1, r0, ip, lsr #3
    2400:	00902a00 	addseq	r2, r0, r0, lsl #20
    2404:	0efa0000 	cdpeq	0, 15, cr0, cr10, cr0, {0}
    2408:	812b0000 	teqhi	fp, r0
    240c:	0c000000 	stceq	0, cr0, [r0], {-0}
    2410:	0eea0700 	cdpeq	7, 14, cr0, cr10, cr0, {0}
    2414:	2e120000 	cdpcs	0, 1, cr0, cr2, cr0, {0}
    2418:	01000006 	tsteq	r0, r6
    241c:	008df4b0 			; <UNDEFINED> instruction: 0x008df4b0
    2420:	00002c00 	andeq	r2, r0, r0, lsl #24
    2424:	439c0100 	orrsmi	r0, ip, #0, 2
    2428:	1300000f 	movwne	r0, #15
    242c:	00000414 	andeq	r0, r0, r4, lsl r4
    2430:	0722b001 	streq	fp, [r2, -r1]!
    2434:	13b60000 			; <UNDEFINED> instruction: 0x13b60000
    2438:	6d140000 	ldcvs	0, cr0, [r4, #-0]
    243c:	01006773 	tsteq	r0, r3, ror r7
    2440:	000097b0 			; <UNDEFINED> instruction: 0x000097b0
    2444:	0013d400 	andseq	sp, r3, r0, lsl #8
    2448:	8e0c1f00 	cdphi	15, 0, cr1, cr12, cr0, {0}
    244c:	01760000 	cmneq	r6, r0
    2450:	01200000 	teqeq	r0, r0
    2454:	00750250 	rsbseq	r0, r5, r0, asr r2
    2458:	19230000 	stmdbne	r3!, {}	; <UNPREDICTABLE>
    245c:	01000004 	tsteq	r0, r4
    2460:	000025b9 			; <UNDEFINED> instruction: 0x000025b9
    2464:	008e2000 	addeq	r2, lr, r0
    2468:	00009000 	andeq	r9, r0, r0
    246c:	419c0100 	orrsmi	r0, ip, r0, lsl #2
    2470:	13000010 	movwne	r0, #16
    2474:	00000414 	andeq	r0, r0, r4, lsl r4
    2478:	0722b901 	streq	fp, [r2, -r1, lsl #18]!
    247c:	13f20000 	mvnsne	r0, #0
    2480:	662e0000 	strtvs	r0, [lr], -r0
    2484:	0100746d 	tsteq	r0, sp, ror #8
    2488:	000097b9 			; <UNDEFINED> instruction: 0x000097b9
    248c:	74910200 	ldrvc	r0, [r1], #512	; 0x200
    2490:	7562152f 	strbvc	r1, [r2, #-1327]!	; 0x52f
    2494:	ba010066 	blt	42634 <__bss_end__+0x387c4>
    2498:	00001041 	andeq	r1, r0, r1, asr #32
    249c:	7c9c9103 	ldfvcd	f1, [ip], {3}
    24a0:	0002fb18 	andeq	pc, r2, r8, lsl fp	; <UNPREDICTABLE>
    24a4:	06bc0100 	ldrteq	r0, [ip], r0, lsl #2
    24a8:	03000001 	movweq	r0, #1
    24ac:	167c9891 			; <UNDEFINED> instruction: 0x167c9891
    24b0:	01007a73 	tsteq	r0, r3, ror sl
    24b4:	000025be 			; <UNDEFINED> instruction: 0x000025be
    24b8:	00141e00 	andseq	r1, r4, r0, lsl #28
    24bc:	03412900 	movteq	r2, #6400	; 0x1900
    24c0:	10620000 	rsbne	r0, r2, r0
    24c4:	03050000 	movweq	r0, #20480	; 0x5000
    24c8:	00009958 	andeq	r9, r0, r8, asr r9
    24cc:	008e4825 	addeq	r4, lr, r5, lsr #16
    24d0:	0011d500 	andseq	sp, r1, r0, lsl #10
    24d4:	000fde00 	andeq	sp, pc, r0, lsl #28
    24d8:	53012000 	movwpl	r2, #4096	; 0x1000
    24dc:	20589102 	subscs	r9, r8, r2, lsl #2
    24e0:	91035201 	tstls	r3, r1, lsl #4
    24e4:	01200654 	teqeq	r0, r4, asr r6
    24e8:	cc0a0351 	stcgt	3, cr0, [sl], {81}	; 0x51
    24ec:	50012001 	andpl	r2, r1, r1
    24f0:	7bfc9103 	blvc	fff26904 <__bss_end__+0xfff1ca94>
    24f4:	8e5c2400 	cdphi	4, 5, cr2, cr12, cr0, {0}
    24f8:	118f0000 	orrne	r0, pc, r0
    24fc:	78250000 	stmdavc	r5!, {}	; <UNPREDICTABLE>
    2500:	9600008e 	strls	r0, [r0], -lr, lsl #1
    2504:	20000011 	andcs	r0, r0, r1, lsl r0
    2508:	20000010 	andcs	r0, r0, r0, lsl r0
    250c:	08025301 	stmdaeq	r2, {r0, r8, r9, ip, lr}
    2510:	520120c0 	andpl	r2, r1, #192	; 0xc0
    2514:	99580305 	ldmdbls	r8, {r0, r2, r8, r9}^
    2518:	01200000 	teqeq	r0, r0
    251c:	80030551 	andhi	r0, r3, r1, asr r5
    2520:	20000099 	mulcs	r0, r9, r0
    2524:	03055001 	movweq	r5, #20481	; 0x5001
    2528:	00009814 	andeq	r9, r0, r4, lsl r8
    252c:	007d0220 	rsbseq	r0, sp, r0, lsr #4
    2530:	9a0c0305 	bls	30314c <__bss_end__+0x2f92dc>
    2534:	24000000 	strcs	r0, [r0], #-0
    2538:	00008e7c 	andeq	r8, r0, ip, ror lr
    253c:	000011ac 	andeq	r1, r0, ip, lsr #3
    2540:	008e881f 	addeq	r8, lr, pc, lsl r8
    2544:	000eff00 	andeq	pc, lr, r0, lsl #30
    2548:	51012000 	mrspl	r2, (UNDEF: 1)
    254c:	7bfc9103 	blvc	fff26960 <__bss_end__+0xfff1caf0>
    2550:	02500120 	subseq	r0, r0, #32, 2
    2554:	00000075 	andeq	r0, r0, r5, ror r0
    2558:	0000902a 	andeq	r9, r0, sl, lsr #32
    255c:	00105200 	andseq	r5, r0, r0, lsl #4
    2560:	00813000 	addeq	r3, r1, r0
    2564:	01cb0000 	biceq	r0, fp, r0
    2568:	00902a00 	addseq	r2, r0, r0, lsl #20
    256c:	10620000 	rsbne	r0, r2, r0
    2570:	812b0000 	teqhi	fp, r0
    2574:	0e000000 	cdpeq	0, 0, cr0, cr0, cr0, {0}
    2578:	10520700 	subsne	r0, r2, r0, lsl #14
    257c:	a6230000 	strtge	r0, [r3], -r0
    2580:	01000006 	tsteq	r0, r6
    2584:	000025c5 	andeq	r2, r0, r5, asr #11
    2588:	008eb000 	addeq	fp, lr, r0
    258c:	00004c00 	andeq	r4, r0, r0, lsl #24
    2590:	449c0100 	ldrmi	r0, [ip], #256	; 0x100
    2594:	14000011 	strne	r0, [r0], #-17
    2598:	c5010075 	strgt	r0, [r1, #-117]	; 0x75
    259c:	00000722 	andeq	r0, r0, r2, lsr #14
    25a0:	0000145d 	andeq	r1, r0, sp, asr r4
    25a4:	66756214 			; <UNDEFINED> instruction: 0x66756214
    25a8:	0cc50100 	stfeqe	f0, [r5], {0}
    25ac:	7e00000c 	cdpvc	0, 0, cr0, cr0, cr12, {0}
    25b0:	13000014 	movwne	r0, #20
    25b4:	00000678 	andeq	r0, r0, r8, ror r6
    25b8:	0068c501 	rsbeq	ip, r8, r1, lsl #10
    25bc:	149f0000 	ldrne	r0, [pc], #0	; 25c4 <_start-0x5a3c>
    25c0:	65140000 	ldrvs	r0, [r4, #-0]
    25c4:	0100646e 	tsteq	r0, lr, ror #8
    25c8:	00004fc5 	andeq	r4, r0, r5, asr #31
    25cc:	0014c000 	andseq	ip, r4, r0
    25d0:	65721600 	ldrbvs	r1, [r2, #-1536]!	; 0x600
    25d4:	c6010073 			; <UNDEFINED> instruction: 0xc6010073
    25d8:	00000025 	andeq	r0, r0, r5, lsr #32
    25dc:	000014e1 	andeq	r1, r0, r1, ror #9
    25e0:	00034129 	andeq	r4, r3, r9, lsr #2
    25e4:	00115400 	andseq	r5, r1, r0, lsl #8
    25e8:	68030500 	stmdavs	r3, {r8, sl}
    25ec:	25000099 	strcs	r0, [r0, #-153]	; 0x99
    25f0:	00008ec4 	andeq	r8, r0, r4, asr #29
    25f4:	00000b1e 	andeq	r0, r0, lr, lsl fp
    25f8:	00001102 	andeq	r1, r0, r2, lsl #2
    25fc:	03520120 	cmpeq	r2, #32, 2
    2600:	205201f3 	ldrshcs	r0, [r2], #-19	; 0xffffffed
    2604:	f3035101 	vrhadd.u8	d5, d3, d1
    2608:	01205101 	teqeq	r0, r1, lsl #2
    260c:	01f30350 	mvnseq	r0, r0, asr r3
    2610:	7d022050 	stcvc	0, cr2, [r2, #-320]	; 0xfffffec0
    2614:	ff090200 			; <UNDEFINED> instruction: 0xff090200
    2618:	8ed02400 	cdphi	4, 13, cr2, cr0, cr0, {0}
    261c:	118f0000 	orrne	r0, pc, r0
    2620:	e4250000 	strt	r0, [r5], #-0
    2624:	9600008e 	strls	r0, [r0], -lr, lsl #1
    2628:	3a000011 	bcc	2674 <_start-0x598c>
    262c:	20000011 	andcs	r0, r0, r1, lsl r0
    2630:	08025301 	stmdaeq	r2, {r0, r8, r9, ip, lr}
    2634:	520120c8 	andpl	r2, r1, #200	; 0xc8
    2638:	99680305 	stmdbls	r8!, {r0, r2, r8, r9}^
    263c:	01200000 	teqeq	r0, r0
    2640:	80030551 	andhi	r0, r3, r1, asr r5
    2644:	20000099 	mulcs	r0, r9, r0
    2648:	03055001 	movweq	r5, #20481	; 0x5001
    264c:	000099d4 	ldrdeq	r9, [r0], -r4
    2650:	8ee82400 	cdphi	4, 14, cr2, cr8, cr0, {0}
    2654:	11ac0000 			; <UNDEFINED> instruction: 0x11ac0000
    2658:	2a000000 	bcs	2660 <_start-0x59a0>
    265c:	00000090 	muleq	r0, r0, r0
    2660:	00001154 	andeq	r1, r0, r4, asr r1
    2664:	0000812b 	andeq	r8, r0, fp, lsr #2
    2668:	07001600 	streq	r1, [r0, -r0, lsl #12]
    266c:	00001144 	andeq	r1, r0, r4, asr #2
    2670:	00067f31 	andeq	r7, r6, r1, lsr pc
    2674:	6f210600 	svcvs	0x00210600
    2678:	32000011 	andcc	r0, r0, #17
    267c:	0000002c 	andeq	r0, r0, ip, lsr #32
    2680:	00002c32 	andeq	r2, r0, r2, lsr ip
    2684:	45330000 	ldrmi	r0, [r3, #-0]!
    2688:	07000005 	streq	r0, [r0, -r5]
    268c:	00002c57 	andeq	r2, r0, r7, asr ip
    2690:	063b3400 	ldrteq	r3, [fp], -r0, lsl #8
    2694:	24060000 	strcs	r0, [r6], #-0
    2698:	00000025 	andeq	r0, r0, r5, lsr #32
    269c:	0000118f 	andeq	r1, r0, pc, lsl #3
    26a0:	00002c32 	andeq	r2, r0, r2, lsr ip
    26a4:	92350000 	eorsls	r0, r5, #0
    26a8:	07000003 	streq	r0, [r0, -r3]
    26ac:	02a6341e 	adceq	r3, r6, #503316480	; 0x1e000000
    26b0:	29070000 	stmdbcs	r7, {}	; <UNPREDICTABLE>
    26b4:	00000025 	andeq	r0, r0, r5, lsr #32
    26b8:	000011ac 	andeq	r1, r0, ip, lsr #3
    26bc:	00009732 	andeq	r9, r0, r2, lsr r7
    26c0:	35002f00 	strcc	r2, [r0, #-3840]	; 0xf00
    26c4:	000000c2 	andeq	r0, r0, r2, asr #1
    26c8:	bd316607 	ldclt	6, cr6, [r1, #-28]!	; 0xffffffe4
    26cc:	06000006 	streq	r0, [r0], -r6
    26d0:	0011c41d 	andseq	ip, r1, sp, lsl r4
    26d4:	002c3200 	eoreq	r3, ip, r0, lsl #4
    26d8:	31000000 	mrscc	r0, (UNDEF: 0)
    26dc:	00000697 	muleq	r0, r7, r6
    26e0:	11d51c06 	bicsne	r1, r5, r6, lsl #24
    26e4:	2c320000 	ldccs	0, cr0, [r2], #-0
    26e8:	00000000 	andeq	r0, r0, r0
    26ec:	0002a336 	andeq	sl, r2, r6, lsr r3
    26f0:	25020800 	strcs	r0, [r2, #-2048]	; 0x800
    26f4:	32000000 	andcc	r0, r0, #0
    26f8:	0000008a 	andeq	r0, r0, sl, lsl #1
    26fc:	00002532 	andeq	r2, r0, r2, lsr r5
    2700:	00973200 	addseq	r3, r7, r0, lsl #4
    2704:	06320000 	ldrteq	r0, [r2], -r0
    2708:	00000001 	andeq	r0, r0, r1
    270c:	00082100 	andeq	r2, r8, r0, lsl #2
    2710:	d7000400 	strle	r0, [r0, -r0, lsl #8]
    2714:	0400000c 	streq	r0, [r0], #-12
    2718:	0001cc01 	andeq	ip, r1, r1, lsl #24
    271c:	073d0100 	ldreq	r0, [sp, -r0, lsl #2]!
    2720:	02b70000 	adcseq	r0, r7, #0
    2724:	8f480000 	svchi	0x00480000
    2728:	05680000 	strbeq	r0, [r8, #-0]!
    272c:	0b090000 	bleq	242734 <__bss_end__+0x2388c4>
    2730:	08020000 	stmdaeq	r2, {}	; <UNPREDICTABLE>
    2734:	00000f07 	andeq	r0, r0, r7, lsl #30
    2738:	07040200 	streq	r0, [r4, -r0, lsl #4]
    273c:	00000019 	andeq	r0, r0, r9, lsl r0
    2740:	9f060102 	svcls	0x00060102
    2744:	02000001 	andeq	r0, r0, #1
    2748:	01ab0502 			; <UNDEFINED> instruction: 0x01ab0502
    274c:	04020000 	streq	r0, [r2], #-0
    2750:	00003205 	andeq	r3, r0, r5, lsl #4
    2754:	05080200 	streq	r0, [r8, #-512]	; 0x200
    2758:	0000002d 	andeq	r0, r0, sp, lsr #32
    275c:	9d080102 	stflss	f0, [r8, #-8]
    2760:	02000001 	andeq	r0, r0, #1
    2764:	008d0702 	addeq	r0, sp, r2, lsl #14
    2768:	04020000 	streq	r0, [r2], #-0
    276c:	00001407 	andeq	r1, r0, r7, lsl #8
    2770:	05040300 	streq	r0, [r4, #-768]	; 0x300
    2774:	00746e69 	rsbseq	r6, r4, r9, ror #28
    2778:	cf070402 	svcgt	0x00070402
    277c:	02000000 	andeq	r0, r0, #0
    2780:	01a60801 			; <UNDEFINED> instruction: 0x01a60801
    2784:	01040000 	mrseq	r0, (UNDEF: 4)
    2788:	00b20c02 	adcseq	r0, r2, r2, lsl #24
    278c:	20050000 	andcs	r0, r5, r0
    2790:	00000007 	andeq	r0, r0, r7
    2794:	00086905 	andeq	r6, r8, r5, lsl #18
    2798:	a2050100 	andge	r0, r5, #0, 2
    279c:	04000008 	streq	r0, [r0], #-8
    27a0:	0008b105 	andeq	fp, r8, r5, lsl #2
    27a4:	c0050500 	andgt	r0, r5, r0, lsl #10
    27a8:	06000008 	streq	r0, [r0], -r8
    27ac:	0008cf05 	andeq	ip, r8, r5, lsl #30
    27b0:	de050700 	cdple	7, 0, cr0, cr5, cr0, {0}
    27b4:	03000008 	movweq	r0, #8
    27b8:	0008ed05 	andeq	lr, r8, r5, lsl #26
    27bc:	06000200 	streq	r0, [r0], -r0, lsl #4
    27c0:	00000896 	muleq	r0, r6, r8
    27c4:	00791502 	rsbseq	r1, r9, r2, lsl #10
    27c8:	bd070000 	stclt	0, cr0, [r7, #-0]
    27cc:	01000006 	tsteq	r0, r6
    27d0:	008f483f 	addeq	r4, pc, pc, lsr r8	; <UNPREDICTABLE>
    27d4:	0000d400 	andeq	sp, r0, r0, lsl #8
    27d8:	339c0100 	orrscc	r0, ip, #0, 2
    27dc:	08000001 	stmdaeq	r0, {r0}
    27e0:	006e6970 	rsbeq	r6, lr, r0, ror r9
    27e4:	002c3f01 	eoreq	r3, ip, r1, lsl #30
    27e8:	14ff0000 	ldrbtne	r0, [pc], #0	; 27f0 <_start-0x5810>
    27ec:	79090000 	stmdbvc	r9, {}	; <UNPREDICTABLE>
    27f0:	01000007 	tsteq	r0, r7
    27f4:	00013347 	andeq	r3, r1, r7, asr #6
    27f8:	00151d00 	andseq	r1, r5, r0, lsl #26
    27fc:	08fc0900 	ldmeq	ip!, {r8, fp}^
    2800:	49010000 	stmdbmi	r1, {}	; <UNPREDICTABLE>
    2804:	0000002c 	andeq	r0, r0, ip, lsr #32
    2808:	00001572 	andeq	r1, r0, r2, ror r5
    280c:	00082a09 	andeq	r2, r8, r9, lsl #20
    2810:	2c570100 	ldfcse	f0, [r7], {-0}
    2814:	3e000000 	cdpcc	0, 0, cr0, cr0, cr0, {0}
    2818:	0a000017 	beq	287c <_start-0x5784>
    281c:	00008fdc 	ldrdeq	r8, [r0], -ip
    2820:	000007e0 	andeq	r0, r0, r0, ror #15
    2824:	00000122 	andeq	r0, r0, r2, lsr #2
    2828:	0250010b 	subseq	r0, r0, #-1073741822	; 0xc0000002
    282c:	0c000075 	stceq	0, cr0, [r0], {117}	; 0x75
    2830:	00009010 	andeq	r9, r0, r0, lsl r0
    2834:	00000801 	andeq	r0, r0, r1, lsl #16
    2838:	0250010b 	subseq	r0, r0, #-1073741822	; 0xc0000002
    283c:	00000075 	andeq	r0, r0, r5, ror r0
    2840:	0139040d 	teqeq	r9, sp, lsl #8
    2844:	2c0e0000 	stccs	0, cr0, [lr], {-0}
    2848:	07000000 	streq	r0, [r0, -r0]
    284c:	0000084f 	andeq	r0, r0, pc, asr #16
    2850:	901c6001 	andsls	r6, ip, r1
    2854:	00380000 	eorseq	r0, r8, r0
    2858:	9c010000 	stcls	0, cr0, [r1], {-0}
    285c:	00000196 	muleq	r0, r6, r1
    2860:	6e697008 	cdpvs	0, 6, cr7, cr9, cr8, {0}
    2864:	2c600100 	stfcse	f0, [r0], #-0
    2868:	6e000000 	cdpvs	0, 0, cr0, cr0, cr0, {0}
    286c:	09000017 	stmdbeq	r0, {r0, r1, r2, r4}
    2870:	00000779 	andeq	r0, r0, r9, ror r7
    2874:	01336701 	teqeq	r3, r1, lsl #14
    2878:	178f0000 	strne	r0, [pc, r0]
    287c:	2a090000 	bcs	242884 <__bss_end__+0x238a14>
    2880:	01000008 	tsteq	r0, r8
    2884:	00002c68 	andeq	r2, r0, r8, ror #24
    2888:	0017c500 	andseq	ip, r7, r0, lsl #10
    288c:	904c0c00 	subls	r0, ip, r0, lsl #24
    2890:	08010000 	stmdaeq	r1, {}	; <UNPREDICTABLE>
    2894:	010b0000 	mrseq	r0, (UNDEF: 11)
    2898:	f3310751 	vaba.u<illegal width 64>	q0, <illegal reg q0.5>, <illegal reg q0.5>
    289c:	1a4f5001 	bne	13d68a8 <__bss_end__+0x13cca38>
    28a0:	07000024 	streq	r0, [r0, -r4, lsr #32]
    28a4:	00000730 	andeq	r0, r0, r0, lsr r7
    28a8:	90547b01 	subsls	r7, r4, r1, lsl #22
    28ac:	00380000 	eorseq	r0, r8, r0
    28b0:	9c010000 	stcls	0, cr0, [r1], {-0}
    28b4:	000001ee 	andeq	r0, r0, lr, ror #3
    28b8:	6e697008 	cdpvs	0, 6, cr7, cr9, cr8, {0}
    28bc:	2c7b0100 	ldfcse	f0, [fp], #-0
    28c0:	05000000 	streq	r0, [r0, #-0]
    28c4:	09000018 	stmdbeq	r0, {r3, r4}
    28c8:	00000779 	andeq	r0, r0, r9, ror r7
    28cc:	01338101 	teqeq	r3, r1, lsl #2
    28d0:	18260000 	stmdane	r6!, {}	; <UNPREDICTABLE>
    28d4:	2a090000 	bcs	2428dc <__bss_end__+0x238a6c>
    28d8:	01000008 	tsteq	r0, r8
    28dc:	00002c82 	andeq	r2, r0, r2, lsl #25
    28e0:	00185c00 	andseq	r5, r8, r0, lsl #24
    28e4:	90840c00 	addls	r0, r4, r0, lsl #24
    28e8:	08010000 	stmdaeq	r1, {}	; <UNPREDICTABLE>
    28ec:	010b0000 	mrseq	r0, (UNDEF: 11)
    28f0:	f3310751 	vaba.u<illegal width 64>	q0, <illegal reg q0.5>, <illegal reg q0.5>
    28f4:	1a4f5001 	bne	13d6900 <__bss_end__+0x13cca90>
    28f8:	07000024 	streq	r0, [r0, -r4, lsr #32]
    28fc:	00000697 	muleq	r0, r7, r6
    2900:	908c9501 	addls	r9, ip, r1, lsl #10
    2904:	00cc0000 	sbceq	r0, ip, r0
    2908:	9c010000 	stcls	0, cr0, [r1], {-0}
    290c:	00000264 	andeq	r0, r0, r4, ror #4
    2910:	6e697008 	cdpvs	0, 6, cr7, cr9, cr8, {0}
    2914:	2c950100 	ldfcss	f0, [r5], {0}
    2918:	9c000000 	stcls	0, cr0, [r0], {-0}
    291c:	09000018 	stmdbeq	r0, {r3, r4}
    2920:	00000779 	andeq	r0, r0, r9, ror r7
    2924:	01339b01 	teqeq	r3, r1, lsl #22
    2928:	18ba0000 	ldmne	sl!, {}	; <UNPREDICTABLE>
    292c:	fc090000 	stc2	0, cr0, [r9], {-0}
    2930:	01000008 	tsteq	r0, r8
    2934:	00002c9d 	muleq	r0, sp, ip
    2938:	00190f00 	andseq	r0, r9, r0, lsl #30
    293c:	082a0900 	stmdaeq	sl!, {r8, fp}
    2940:	ab010000 	blge	42948 <__bss_end__+0x38ad8>
    2944:	0000002c 	andeq	r0, r0, ip, lsr #32
    2948:	00001adb 	ldrdeq	r1, [r0], -fp
    294c:	0091200a 	addseq	r2, r1, sl
    2950:	0007e000 	andeq	lr, r7, r0
    2954:	00025300 	andeq	r5, r2, r0, lsl #6
    2958:	50010b00 	andpl	r0, r1, r0, lsl #22
    295c:	00007502 	andeq	r7, r0, r2, lsl #10
    2960:	00914c0c 	addseq	r4, r1, ip, lsl #24
    2964:	00080100 	andeq	r0, r8, r0, lsl #2
    2968:	50010b00 	andpl	r0, r1, r0, lsl #22
    296c:	00007502 	andeq	r7, r0, r2, lsl #10
    2970:	063b0f00 	ldrteq	r0, [fp], -r0, lsl #30
    2974:	b3010000 	movwlt	r0, #4096	; 0x1000
    2978:	00000064 	andeq	r0, r0, r4, rrx
    297c:	00009158 	andeq	r9, r0, r8, asr r1
    2980:	0000004c 	andeq	r0, r0, ip, asr #32
    2984:	02ac9c01 	adceq	r9, ip, #256	; 0x100
    2988:	70080000 	andvc	r0, r8, r0
    298c:	01006e69 	tsteq	r0, r9, ror #28
    2990:	00002cb3 			; <UNDEFINED> instruction: 0x00002cb3
    2994:	001af900 	andseq	pc, sl, r0, lsl #18
    2998:	00761000 	rsbseq	r1, r6, r0
    299c:	002cb901 	eoreq	fp, ip, r1, lsl #18
    29a0:	1b510000 	blne	14429a8 <__bss_end__+0x1438b38>
    29a4:	78110000 	ldmdavc	r1, {}	; <UNPREDICTABLE>
    29a8:	e0000091 	mul	r0, r1, r0
    29ac:	11000007 	tstne	r0, r7
    29b0:	00009188 	andeq	r9, r0, r8, lsl #3
    29b4:	000007e0 	andeq	r0, r0, r0, ror #15
    29b8:	067f0700 	ldrbteq	r0, [pc], -r0, lsl #14
    29bc:	c5010000 	strgt	r0, [r1, #-0]
    29c0:	000091a4 	andeq	r9, r0, r4, lsr #3
    29c4:	00000024 	andeq	r0, r0, r4, lsr #32
    29c8:	02fc9c01 	rscseq	r9, ip, #256	; 0x100
    29cc:	70080000 	andvc	r0, r8, r0
    29d0:	01006e69 	tsteq	r0, r9, ror #28
    29d4:	00002cc5 	andeq	r2, r0, r5, asr #25
    29d8:	001b8700 	andseq	r8, fp, r0, lsl #14
    29dc:	00760800 	rsbseq	r0, r6, r0, lsl #16
    29e0:	002cc501 	eoreq	ip, ip, r1, lsl #10
    29e4:	1bc10000 	blne	ff0429ec <__bss_end__+0xff038b7c>
    29e8:	bc0a0000 	stclt	0, cr0, [sl], {-0}
    29ec:	3e000091 	mcrcc	0, 0, r0, cr0, cr1, {4}
    29f0:	f2000001 	vhadd.s8	d0, d0, d1
    29f4:	0b000002 	bleq	2a04 <_start-0x55fc>
    29f8:	f3035001 	vhadd.u8	d5, d3, d1
    29fc:	11005001 	tstne	r0, r1
    2a00:	000091c4 	andeq	r9, r0, r4, asr #3
    2a04:	00000196 	muleq	r0, r6, r1
    2a08:	07dd0700 	ldrbeq	r0, [sp, r0, lsl #14]
    2a0c:	d1010000 	mrsle	r0, (UNDEF: 1)
    2a10:	000091c8 	andeq	r9, r0, r8, asr #3
    2a14:	000000d8 	ldrdeq	r0, [r0], -r8
    2a18:	03819c01 	orreq	r9, r1, #256	; 0x100
    2a1c:	70080000 	andvc	r0, r8, r0
    2a20:	01006e69 	tsteq	r0, r9, ror #28
    2a24:	00002cd1 	ldrdeq	r2, [r0], -r1
    2a28:	001bfb00 	andseq	pc, fp, r0, lsl #22
    2a2c:	083c1200 	ldmdaeq	ip!, {r9, ip}
    2a30:	d1010000 	mrsle	r0, (UNDEF: 1)
    2a34:	000000b2 	strheq	r0, [r0], -r2
    2a38:	00001c19 	andeq	r1, r0, r9, lsl ip
    2a3c:	00077909 	andeq	r7, r7, r9, lsl #18
    2a40:	33d90100 	bicscc	r0, r9, #0, 2
    2a44:	3a000001 	bcc	2a50 <_start-0x55b0>
    2a48:	0900001c 	stmdbeq	r0, {r2, r3, r4}
    2a4c:	000008fc 	strdeq	r0, [r0], -ip
    2a50:	002cda01 	eoreq	sp, ip, r1, lsl #20
    2a54:	1c8f0000 	stcne	0, cr0, [pc], {0}
    2a58:	2a090000 	bcs	242a60 <__bss_end__+0x238bf0>
    2a5c:	01000008 	tsteq	r0, r8
    2a60:	00002ce8 	andeq	r2, r0, r8, ror #25
    2a64:	001e5b00 	andseq	r5, lr, r0, lsl #22
    2a68:	92640a00 	rsbls	r0, r4, #0, 20
    2a6c:	07e00000 	strbeq	r0, [r0, r0]!
    2a70:	03700000 	cmneq	r0, #0
    2a74:	010b0000 	mrseq	r0, (UNDEF: 11)
    2a78:	00760250 	rsbseq	r0, r6, r0, asr r2
    2a7c:	92940c00 	addsls	r0, r4, #0, 24
    2a80:	08010000 	stmdaeq	r1, {}	; <UNPREDICTABLE>
    2a84:	010b0000 	mrseq	r0, (UNDEF: 11)
    2a88:	00760250 	rsbseq	r0, r6, r0, asr r2
    2a8c:	14130000 	ldrne	r0, [r3], #-0
    2a90:	01000007 	tsteq	r0, r7
    2a94:	00640105 	rsbeq	r0, r4, r5, lsl #2
    2a98:	92a00000 	adcls	r0, r0, #0
    2a9c:	002c0000 	eoreq	r0, ip, r0
    2aa0:	9c010000 	stcls	0, cr0, [r1], {-0}
    2aa4:	000003b5 			; <UNDEFINED> instruction: 0x000003b5
    2aa8:	00071714 	andeq	r1, r7, r4, lsl r7
    2aac:	01050100 	mrseq	r0, (UNDEF: 21)
    2ab0:	0000002c 	andeq	r0, r0, ip, lsr #32
    2ab4:	00001e8c 	andeq	r1, r0, ip, lsl #29
    2ab8:	0092b011 	addseq	fp, r2, r1, lsl r0
    2abc:	0007e000 	andeq	lr, r7, r0
    2ac0:	c8150000 	ldmdagt	r5, {}	; <UNPREDICTABLE>
    2ac4:	01000007 	tsteq	r0, r7
    2ac8:	92cc0114 	sbcls	r0, ip, #20, 2
    2acc:	00840000 	addeq	r0, r4, r0
    2ad0:	9c010000 	stcls	0, cr0, [r1], {-0}
    2ad4:	00000479 	andeq	r0, r0, r9, ror r4
    2ad8:	6e697016 	mcrvs	0, 3, r7, cr9, cr6, {0}
    2adc:	01140100 	tsteq	r4, r0, lsl #2
    2ae0:	0000002c 	andeq	r0, r0, ip, lsr #32
    2ae4:	00001ead 	andeq	r1, r0, sp, lsr #29
    2ae8:	00074b17 	andeq	r4, r7, r7, lsl fp
    2aec:	01260100 	teqeq	r6, r0, lsl #2
    2af0:	0000002c 	andeq	r0, r0, ip, lsr #32
    2af4:	00001ed9 	ldrdeq	r1, [r0], -r9
    2af8:	0092e818 	addseq	lr, r2, r8, lsl r8
    2afc:	00001c00 	andeq	r1, r0, r0, lsl #24
    2b00:	00041b00 	andeq	r1, r4, r0, lsl #22
    2b04:	082a1700 	stmdaeq	sl!, {r8, r9, sl, ip}
    2b08:	1d010000 	stcne	0, cr0, [r1, #-0]
    2b0c:	00002c01 	andeq	r2, r0, r1, lsl #24
    2b10:	001ef700 	andseq	pc, lr, r0, lsl #14
    2b14:	92f41100 	rscsls	r1, r4, #0, 2
    2b18:	07e00000 	strbeq	r0, [r0, r0]!
    2b1c:	04110000 	ldreq	r0, [r1], #-0
    2b20:	01000093 	swpeq	r0, r3, [r0]	; <UNPREDICTABLE>
    2b24:	00000008 	andeq	r0, r0, r8
    2b28:	00930818 	addseq	r0, r3, r8, lsl r8
    2b2c:	00002000 	andeq	r2, r0, r0
    2b30:	00044b00 	andeq	r4, r4, r0, lsl #22
    2b34:	082a1700 	stmdaeq	sl!, {r8, r9, sl, ip}
    2b38:	21010000 	mrscs	r0, (UNDEF: 1)
    2b3c:	00002c01 	andeq	r2, r0, r1, lsl #24
    2b40:	001f1500 	andseq	r1, pc, r0, lsl #10
    2b44:	93141100 	tstls	r4, #0, 2
    2b48:	07e00000 	strbeq	r0, [r0, r0]!
    2b4c:	28110000 	ldmdacs	r1, {}	; <UNPREDICTABLE>
    2b50:	01000093 	swpeq	r0, r3, [r0]	; <UNPREDICTABLE>
    2b54:	00000008 	andeq	r0, r0, r8
    2b58:	0092e011 	addseq	lr, r2, r1, lsl r0
    2b5c:	00081d00 	andeq	r1, r8, r0, lsl #26
    2b60:	932c1100 	teqls	ip, #0, 2
    2b64:	081d0000 	ldmdaeq	sp, {}	; <UNPREDICTABLE>
    2b68:	38110000 	ldmdacc	r1, {}	; <UNPREDICTABLE>
    2b6c:	e0000093 	mul	r0, r3, r0
    2b70:	11000007 	tstne	r0, r7
    2b74:	00009344 	andeq	r9, r0, r4, asr #6
    2b78:	00000801 	andeq	r0, r0, r1, lsl #16
    2b7c:	00934811 	addseq	r4, r3, r1, lsl r8
    2b80:	00081d00 	andeq	r1, r8, r0, lsl #26
    2b84:	80150000 	andshi	r0, r5, r0
    2b88:	01000008 	tsteq	r0, r8
    2b8c:	93500131 	cmpls	r0, #1073741836	; 0x4000000c
    2b90:	00840000 	addeq	r0, r4, r0
    2b94:	9c010000 	stcls	0, cr0, [r1], {-0}
    2b98:	0000053d 	andeq	r0, r0, sp, lsr r5
    2b9c:	6e697016 	mcrvs	0, 3, r7, cr9, cr6, {0}
    2ba0:	01310100 	teqeq	r1, r0, lsl #2
    2ba4:	0000002c 	andeq	r0, r0, ip, lsr #32
    2ba8:	00001f33 	andeq	r1, r0, r3, lsr pc
    2bac:	00074b17 	andeq	r4, r7, r7, lsl fp
    2bb0:	01420100 	mrseq	r0, (UNDEF: 82)
    2bb4:	0000002c 	andeq	r0, r0, ip, lsr #32
    2bb8:	00001f5f 	andeq	r1, r0, pc, asr pc
    2bbc:	00936c18 	addseq	r6, r3, r8, lsl ip
    2bc0:	00001c00 	andeq	r1, r0, r0, lsl #24
    2bc4:	0004df00 	andeq	sp, r4, r0, lsl #30
    2bc8:	082a1700 	stmdaeq	sl!, {r8, r9, sl, ip}
    2bcc:	39010000 	stmdbcc	r1, {}	; <UNPREDICTABLE>
    2bd0:	00002c01 	andeq	r2, r0, r1, lsl #24
    2bd4:	001f7d00 	andseq	r7, pc, r0, lsl #26
    2bd8:	93781100 	cmnls	r8, #0, 2
    2bdc:	07e00000 	strbeq	r0, [r0, r0]!
    2be0:	88110000 	ldmdahi	r1, {}	; <UNPREDICTABLE>
    2be4:	01000093 	swpeq	r0, r3, [r0]	; <UNPREDICTABLE>
    2be8:	00000008 	andeq	r0, r0, r8
    2bec:	00938c18 	addseq	r8, r3, r8, lsl ip
    2bf0:	00002000 	andeq	r2, r0, r0
    2bf4:	00050f00 	andeq	r0, r5, r0, lsl #30
    2bf8:	082a1700 	stmdaeq	sl!, {r8, r9, sl, ip}
    2bfc:	3d010000 	stccc	0, cr0, [r1, #-0]
    2c00:	00002c01 	andeq	r2, r0, r1, lsl #24
    2c04:	001f9b00 	andseq	r9, pc, r0, lsl #22
    2c08:	93981100 	orrsls	r1, r8, #0, 2
    2c0c:	07e00000 	strbeq	r0, [r0, r0]!
    2c10:	ac110000 	ldcge	0, cr0, [r1], {-0}
    2c14:	01000093 	swpeq	r0, r3, [r0]	; <UNPREDICTABLE>
    2c18:	00000008 	andeq	r0, r0, r8
    2c1c:	00936411 	addseq	r6, r3, r1, lsl r4
    2c20:	00081d00 	andeq	r1, r8, r0, lsl #26
    2c24:	93b01100 	movsls	r1, #0, 2
    2c28:	081d0000 	ldmdaeq	sp, {}	; <UNPREDICTABLE>
    2c2c:	bc110000 	ldclt	0, cr0, [r1], {-0}
    2c30:	e0000093 	mul	r0, r3, r0
    2c34:	11000007 	tstne	r0, r7
    2c38:	000093c8 	andeq	r9, r0, r8, asr #7
    2c3c:	00000801 	andeq	r0, r0, r1, lsl #16
    2c40:	0093cc11 	addseq	ip, r3, r1, lsl ip
    2c44:	00081d00 	andeq	r1, r8, r0, lsl #26
    2c48:	dd130000 	ldcle	0, cr0, [r3, #-0]
    2c4c:	01000006 	tsteq	r0, r6
    2c50:	0064014c 	rsbeq	r0, r4, ip, asr #2
    2c54:	93d40000 	bicsls	r0, r4, #0
    2c58:	00840000 	addeq	r0, r4, r0
    2c5c:	9c010000 	stcls	0, cr0, [r1], {-0}
    2c60:	000005e3 	andeq	r0, r0, r3, ror #11
    2c64:	6e697016 	mcrvs	0, 3, r7, cr9, cr6, {0}
    2c68:	014c0100 	mrseq	r0, (UNDEF: 92)
    2c6c:	0000002c 	andeq	r0, r0, ip, lsr #32
    2c70:	00001fb9 			; <UNDEFINED> instruction: 0x00001fb9
    2c74:	0093f018 	addseq	pc, r3, r8, lsl r0	; <UNPREDICTABLE>
    2c78:	00002400 	andeq	r2, r0, r0, lsl #8
    2c7c:	00059700 	andeq	r9, r5, r0, lsl #14
    2c80:	07621700 	strbeq	r1, [r2, -r0, lsl #14]!
    2c84:	53010000 	movwpl	r0, #4096	; 0x1000
    2c88:	00002c01 	andeq	r2, r0, r1, lsl #24
    2c8c:	001ffb00 	andseq	pc, pc, r0, lsl #22
    2c90:	93fc1100 	mvnsls	r1, #0, 2
    2c94:	07e00000 	strbeq	r0, [r0, r0]!
    2c98:	0c110000 	ldceq	0, cr0, [r1], {-0}
    2c9c:	1d000094 	stcne	0, cr0, [r0, #-592]	; 0xfffffdb0
    2ca0:	00000008 	andeq	r0, r0, r8
    2ca4:	00941418 	addseq	r1, r4, r8, lsl r4
    2ca8:	00002c00 	andeq	r2, r0, r0, lsl #24
    2cac:	0005d000 	andeq	sp, r5, r0
    2cb0:	07621700 	strbeq	r1, [r2, -r0, lsl #14]!
    2cb4:	56010000 	strpl	r0, [r1], -r0
    2cb8:	00002c01 	andeq	r2, r0, r1, lsl #24
    2cbc:	00201500 	eoreq	r1, r0, r0, lsl #10
    2cc0:	94201100 	strtls	r1, [r0], #-256	; 0x100
    2cc4:	07e00000 	strbeq	r0, [r0, r0]!
    2cc8:	2c110000 	ldccs	0, cr0, [r1], {-0}
    2ccc:	1d000094 	stcne	0, cr0, [r0, #-592]	; 0xfffffdb0
    2cd0:	11000008 	tstne	r0, r8
    2cd4:	00009438 	andeq	r9, r0, r8, lsr r4
    2cd8:	0000081d 	andeq	r0, r0, sp, lsl r8
    2cdc:	93e81100 	mvnls	r1, #0, 2
    2ce0:	081d0000 	ldmdaeq	sp, {}	; <UNPREDICTABLE>
    2ce4:	44110000 	ldrmi	r0, [r1], #-0
    2ce8:	1d000094 	stcne	0, cr0, [r0, #-592]	; 0xfffffdb0
    2cec:	00000008 	andeq	r0, r0, r8
    2cf0:	0007fd15 	andeq	pc, r7, r5, lsl sp	; <UNPREDICTABLE>
    2cf4:	015f0100 	cmpeq	pc, r0, lsl #2
    2cf8:	00009458 	andeq	r9, r0, r8, asr r4
    2cfc:	00000058 	andeq	r0, r0, r8, asr r0
    2d00:	06489c01 	strbeq	r9, [r8], -r1, lsl #24
    2d04:	70160000 	andsvc	r0, r6, r0
    2d08:	01006e69 	tsteq	r0, r9, ror #28
    2d0c:	002c015f 	eoreq	r0, ip, pc, asr r1
    2d10:	20280000 	eorcs	r0, r8, r0
    2d14:	6c110000 	ldcvs	0, cr0, [r1], {-0}
    2d18:	1d000094 	stcne	0, cr0, [r0, #-592]	; 0xfffffdb0
    2d1c:	0a000008 	beq	2d44 <_start-0x52bc>
    2d20:	00009488 	andeq	r9, r0, r8, lsl #9
    2d24:	00000801 	andeq	r0, r0, r1, lsl #16
    2d28:	00000628 	andeq	r0, r0, r8, lsr #12
    2d2c:	0451010b 	ldrbeq	r0, [r1], #-267	; 0x10b
    2d30:	24007431 	strcs	r7, [r0], #-1073	; 0x431
    2d34:	94a40a00 	strtls	r0, [r4], #2560	; 0xa00
    2d38:	08010000 	stmdaeq	r1, {}	; <UNPREDICTABLE>
    2d3c:	063e0000 	ldrteq	r0, [lr], -r0
    2d40:	010b0000 	mrseq	r0, (UNDEF: 11)
    2d44:	74310451 	ldrtvc	r0, [r1], #-1105	; 0x451
    2d48:	11002400 	tstne	r0, r0, lsl #8
    2d4c:	000094a8 	andeq	r9, r0, r8, lsr #9
    2d50:	0000081d 	andeq	r0, r0, sp, lsl r8
    2d54:	07b61900 	ldreq	r1, [r6, r0, lsl #18]!
    2d58:	28010000 	stmdacs	r1, {}	; <UNPREDICTABLE>
    2d5c:	00000133 	andeq	r0, r0, r3, lsr r1
    2d60:	97280305 	strls	r0, [r8, -r5, lsl #6]!
    2d64:	32190000 	andscc	r0, r9, #0
    2d68:	01000008 	tsteq	r0, r8
    2d6c:	00013329 	andeq	r3, r1, r9, lsr #6
    2d70:	24030500 	strcs	r0, [r3], #-1280	; 0x500
    2d74:	19000097 	stmdbne	r0, {r0, r1, r2, r4, r7}
    2d78:	00000907 	andeq	r0, r0, r7, lsl #18
    2d7c:	01332a01 	teqeq	r3, r1, lsl #20
    2d80:	03050000 	movweq	r0, #20480	; 0x5000
    2d84:	00009720 	andeq	r9, r0, r0, lsr #14
    2d88:	00078219 	andeq	r8, r7, r9, lsl r2
    2d8c:	332c0100 	teqcc	ip, #0, 2
    2d90:	05000001 	streq	r0, [r0, #-1]
    2d94:	0096cc03 	addseq	ip, r6, r3, lsl #24
    2d98:	078a1900 	streq	r1, [sl, r0, lsl #18]
    2d9c:	2d010000 	stccs	0, cr0, [r1, #-0]
    2da0:	00000133 	andeq	r0, r0, r3, lsr r1
    2da4:	96d00305 	ldrbls	r0, [r0], r5, lsl #6
    2da8:	f7190000 			; <UNDEFINED> instruction: 0xf7190000
    2dac:	01000006 	tsteq	r0, r6
    2db0:	0001332e 	andeq	r3, r1, lr, lsr #6
    2db4:	d4030500 	strle	r0, [r3], #-1280	; 0x500
    2db8:	19000096 	stmdbne	r0, {r1, r2, r4, r7}
    2dbc:	00000792 	muleq	r0, r2, r7
    2dc0:	01332f01 	teqeq	r3, r1, lsl #30
    2dc4:	03050000 	movweq	r0, #20480	; 0x5000
    2dc8:	000096d8 	ldrdeq	r9, [r0], -r8
    2dcc:	00079a19 	andeq	r9, r7, r9, lsl sl
    2dd0:	33300100 	teqcc	r0, #0, 2
    2dd4:	05000001 	streq	r0, [r0, #-1]
    2dd8:	0096dc03 	addseq	sp, r6, r3, lsl #24
    2ddc:	07a21900 	streq	r1, [r2, r0, lsl #18]!
    2de0:	31010000 	mrscc	r0, (UNDEF: 1)
    2de4:	00000133 	andeq	r0, r0, r3, lsr r1
    2de8:	96e00305 	strbtls	r0, [r0], r5, lsl #6
    2dec:	54190000 	ldrpl	r0, [r9], #-0
    2df0:	01000007 	tsteq	r0, r7
    2df4:	00013333 	andeq	r3, r1, r3, lsr r3
    2df8:	e4030500 	str	r0, [r3], #-1280	; 0x500
    2dfc:	19000096 	stmdbne	r0, {r1, r2, r4, r7}
    2e00:	0000075b 	andeq	r0, r0, fp, asr r7
    2e04:	01333401 	teqeq	r3, r1, lsl #8
    2e08:	03050000 	movweq	r0, #20480	; 0x5000
    2e0c:	000096e8 	andeq	r9, r0, r8, ror #13
    2e10:	0006ff19 	andeq	pc, r6, r9, lsl pc	; <UNPREDICTABLE>
    2e14:	33360100 	teqcc	r6, #0, 2
    2e18:	05000001 	streq	r0, [r0, #-1]
    2e1c:	0096ec03 	addseq	lr, r6, r3, lsl #24
    2e20:	07c11900 	strbeq	r1, [r1, r0, lsl #18]
    2e24:	37010000 	strcc	r0, [r1, -r0]
    2e28:	00000133 	andeq	r0, r0, r3, lsr r1
    2e2c:	96f00305 	ldrbtls	r0, [r0], r5, lsl #6
    2e30:	6b190000 	blvs	642e38 <__bss_end__+0x638fc8>
    2e34:	01000007 	tsteq	r0, r7
    2e38:	00013339 	andeq	r3, r1, r9, lsr r3
    2e3c:	f4030500 	vst3.8	{d0,d2,d4}, [r3], r0
    2e40:	19000096 	stmdbne	r0, {r1, r2, r4, r7}
    2e44:	00000772 	andeq	r0, r0, r2, ror r7
    2e48:	01333a01 	teqeq	r3, r1, lsl #20
    2e4c:	03050000 	movweq	r0, #20480	; 0x5000
    2e50:	000096f8 	strdeq	r9, [r0], -r8
    2e54:	00080e19 	andeq	r0, r8, r9, lsl lr
    2e58:	33f00100 	mvnscc	r0, #0, 2
    2e5c:	05000001 	streq	r0, [r0, #-1]
    2e60:	00971c03 	addseq	r1, r7, r3, lsl #24
    2e64:	081c1900 	ldmdaeq	ip, {r8, fp, ip}
    2e68:	f1010000 	setend	le
    2e6c:	00000133 	andeq	r0, r0, r3, lsr r1
    2e70:	96fc0305 	ldrbtls	r0, [ip], r5, lsl #6
    2e74:	41190000 	tstmi	r9, r0
    2e78:	01000008 	tsteq	r0, r8
    2e7c:	000133f3 	strdeq	r3, [r1], -r3	; <UNPREDICTABLE>
    2e80:	14030500 	strne	r0, [r3], #-1280	; 0x500
    2e84:	19000097 	stmdbne	r0, {r0, r1, r2, r4, r7}
    2e88:	00000848 	andeq	r0, r0, r8, asr #16
    2e8c:	0133f401 	teqeq	r3, r1, lsl #8
    2e90:	03050000 	movweq	r0, #20480	; 0x5000
    2e94:	00009718 	andeq	r9, r0, r8, lsl r7
    2e98:	0007ef19 	andeq	lr, r7, r9, lsl pc
    2e9c:	33f60100 	mvnscc	r0, #0, 2
    2ea0:	05000001 	streq	r0, [r0, #-1]
    2ea4:	00970003 	addseq	r0, r7, r3
    2ea8:	07f61900 	ldrbeq	r1, [r6, r0, lsl #18]!
    2eac:	f7010000 			; <UNDEFINED> instruction: 0xf7010000
    2eb0:	00000133 	andeq	r0, r0, r3, lsr r1
    2eb4:	97040305 	strls	r0, [r4, -r5, lsl #6]
    2eb8:	5b190000 	blpl	642ec0 <__bss_end__+0x639050>
    2ebc:	01000008 	tsteq	r0, r8
    2ec0:	000133f9 	strdeq	r3, [r1], -r9
    2ec4:	0c030500 	cfstr32eq	mvfx0, [r3], {-0}
    2ec8:	19000097 	stmdbne	r0, {r0, r1, r2, r4, r7}
    2ecc:	00000862 	andeq	r0, r0, r2, ror #16
    2ed0:	0133fa01 	teqeq	r3, r1, lsl #20
    2ed4:	03050000 	movweq	r0, #20480	; 0x5000
    2ed8:	00009710 	andeq	r9, r0, r0, lsl r7
    2edc:	00070619 	andeq	r0, r7, r9, lsl r6
    2ee0:	33fc0100 	mvnscc	r0, #0, 2
    2ee4:	05000001 	streq	r0, [r0, #-1]
    2ee8:	00970803 	addseq	r0, r7, r3, lsl #16
    2eec:	087a1a00 	ldmdaeq	sl!, {r9, fp, ip}^
    2ef0:	20010000 	andcs	r0, r1, r0
    2ef4:	0000002c 	andeq	r0, r0, ip, lsr #32
    2ef8:	000007f5 	strdeq	r0, [r0], -r5
    2efc:	0007f51b 	andeq	pc, r7, fp, lsl r5	; <UNPREDICTABLE>
    2f00:	040d0000 	streq	r0, [sp], #-0
    2f04:	000007fb 	strdeq	r0, [r0], -fp
    2f08:	0008001c 	andeq	r0, r8, ip, lsl r0
    2f0c:	f11e1d00 			; <UNDEFINED> instruction: 0xf11e1d00
    2f10:	01000006 	tsteq	r0, r6
    2f14:	0008171e 	andeq	r1, r8, lr, lsl r7
    2f18:	08171b00 	ldmdaeq	r7, {r8, r9, fp, ip}
    2f1c:	2c1b0000 	ldccs	0, cr0, [fp], {-0}
    2f20:	00000000 	andeq	r0, r0, r0
    2f24:	0800040d 	stmdaeq	r0, {r0, r2, r3, sl}
    2f28:	aa1f0000 	bge	7c2f30 <__bss_end__+0x7b90c0>
    2f2c:	03000007 	movweq	r0, #7
    2f30:	0113008a 	tsteq	r3, sl, lsl #1
    2f34:	00040000 	andeq	r0, r4, r0
    2f38:	00000ea0 	andeq	r0, r0, r0, lsr #29
    2f3c:	01cc0104 	biceq	r0, ip, r4, lsl #2
    2f40:	22010000 	andcs	r0, r1, #0
    2f44:	b7000009 	strlt	r0, [r0, -r9]
    2f48:	b0000002 	andlt	r0, r0, r2
    2f4c:	3c000094 	stccc	0, cr0, [r0], {148}	; 0x94
    2f50:	85000000 	strhi	r0, [r0, #-0]
    2f54:	0200000c 	andeq	r0, r0, #12
    2f58:	6e690504 	cdpvs	5, 6, cr0, cr9, cr4, {0}
    2f5c:	04030074 	streq	r0, [r3], #-116	; 0x74
    2f60:	00001907 	andeq	r1, r0, r7, lsl #18
    2f64:	06010300 	streq	r0, [r1], -r0, lsl #6
    2f68:	0000019f 	muleq	r0, pc, r1	; <UNPREDICTABLE>
    2f6c:	ab050203 	blge	143780 <__bss_end__+0x139910>
    2f70:	03000001 	movweq	r0, #1
    2f74:	00320504 	eorseq	r0, r2, r4, lsl #10
    2f78:	08030000 	stmdaeq	r3, {}	; <UNPREDICTABLE>
    2f7c:	00002d05 	andeq	r2, r0, r5, lsl #26
    2f80:	08010300 	stmdaeq	r1, {r8, r9}
    2f84:	0000019d 	muleq	r0, sp, r1
    2f88:	8d070203 	sfmhi	f0, 4, [r7, #-12]
    2f8c:	03000000 	movweq	r0, #0
    2f90:	00140704 	andseq	r0, r4, r4, lsl #14
    2f94:	08030000 	stmdaeq	r3, {}	; <UNPREDICTABLE>
    2f98:	00000f07 	andeq	r0, r0, r7, lsl #30
    2f9c:	07040300 	streq	r0, [r4, -r0, lsl #6]
    2fa0:	000000cf 	andeq	r0, r0, pc, asr #1
    2fa4:	a6080103 	strge	r0, [r8], -r3, lsl #2
    2fa8:	04000001 	streq	r0, [r0], #-1
    2fac:	00000911 	andeq	r0, r0, r1, lsl r9
    2fb0:	00250301 	eoreq	r0, r5, r1, lsl #6
    2fb4:	94b00000 	ldrtls	r0, [r0], #0
    2fb8:	00140000 	andseq	r0, r4, r0
    2fbc:	9c010000 	stcls	0, cr0, [r1], {-0}
    2fc0:	000000b0 	strheq	r0, [r0], -r0	; <UNPREDICTABLE>
    2fc4:	01006305 	tsteq	r0, r5, lsl #6
    2fc8:	00002503 	andeq	r2, r0, r3, lsl #10
    2fcc:	00205400 	eoreq	r5, r0, r0, lsl #8
    2fd0:	94bc0600 	ldrtls	r0, [ip], #1536	; 0x600
    2fd4:	01090000 	mrseq	r0, (UNDEF: 9)
    2fd8:	01070000 	mrseq	r0, (UNDEF: 7)
    2fdc:	00740250 	rsbseq	r0, r4, r0, asr r2
    2fe0:	92080000 	andls	r0, r8, #0
    2fe4:	01000003 	tsteq	r0, r3
    2fe8:	0094c408 	addseq	ip, r4, r8, lsl #8
    2fec:	00001800 	andeq	r1, r0, r0, lsl #16
    2ff0:	099c0100 	ldmibeq	ip, {r8}
    2ff4:	00000931 	andeq	r0, r0, r1, lsr r9
    2ff8:	94dc0b01 	ldrbls	r0, [ip], #2817	; 0xb01
    2ffc:	00100000 	andseq	r0, r0, r0
    3000:	9c010000 	stcls	0, cr0, [r1], {-0}
    3004:	000000e3 	andeq	r0, r0, r3, ror #1
    3008:	0070660a 	rsbseq	r6, r0, sl, lsl #12
    300c:	00f20b01 	rscseq	r0, r2, r1, lsl #22
    3010:	50010000 	andpl	r0, r1, r0
    3014:	00250b00 	eoreq	r0, r5, r0, lsl #22
    3018:	00f20000 	rscseq	r0, r2, r0
    301c:	250c0000 	strcs	r0, [ip, #-0]
    3020:	00000000 	andeq	r0, r0, r0
    3024:	00e3040d 	rsceq	r0, r3, sp, lsl #8
    3028:	1f0e0000 	svcne	0x000e0000
    302c:	01000003 	tsteq	r0, r3
    3030:	0000f206 	andeq	pc, r0, r6, lsl #4
    3034:	2c030500 	cfstr32cs	mvfx0, [r3], {-0}
    3038:	0f000097 	svceq	0x00000097
    303c:	00000475 	andeq	r0, r0, r5, ror r4
    3040:	2c0c3c02 	stccs	12, cr3, [ip], {2}
    3044:	00000000 	andeq	r0, r0, r0
    3048:	0001c300 	andeq	ip, r1, r0, lsl #6
    304c:	88000400 	stmdahi	r0, {sl}
    3050:	0400000f 	streq	r0, [r0], #-15
    3054:	0001cc01 	andeq	ip, r1, r1, lsl #24
    3058:	09530100 	ldmdbeq	r3, {r8}^
    305c:	02b70000 	adcseq	r0, r7, #0
    3060:	94ec0000 	strbtls	r0, [ip], #0
    3064:	00500000 	subseq	r0, r0, r0
    3068:	0d130000 	ldceq	0, cr0, [r3, #-0]
    306c:	04020000 	streq	r0, [r2], #-0
    3070:	746e6905 	strbtvc	r6, [lr], #-2309	; 0x905
    3074:	093e0300 	ldmdbeq	lr!, {r8, r9}
    3078:	d4020000 	strle	r0, [r2], #-0
    307c:	00000037 	andeq	r0, r0, r7, lsr r0
    3080:	19070404 	stmdbne	r7, {r2, sl}
    3084:	04000000 	streq	r0, [r0], #-0
    3088:	019f0601 	orrseq	r0, pc, r1, lsl #12
    308c:	02040000 	andeq	r0, r4, #0
    3090:	0001ab05 	andeq	sl, r1, r5, lsl #22
    3094:	05040400 	streq	r0, [r4, #-1024]	; 0x400
    3098:	00000032 	andeq	r0, r0, r2, lsr r0
    309c:	2d050804 	stccs	8, cr0, [r5, #-16]
    30a0:	03000000 	movweq	r0, #0
    30a4:	00000242 	andeq	r0, r0, r2, asr #4
    30a8:	00652e03 	rsbeq	r2, r5, r3, lsl #28
    30ac:	01040000 	mrseq	r0, (UNDEF: 4)
    30b0:	00019d08 	andeq	r9, r1, r8, lsl #26
    30b4:	07020400 	streq	r0, [r2, -r0, lsl #8]
    30b8:	0000008d 	andeq	r0, r0, sp, lsl #1
    30bc:	0001bc03 	andeq	fp, r1, r3, lsl #24
    30c0:	7e340300 	cdpvc	3, 3, cr0, cr4, cr0, {0}
    30c4:	04000000 	streq	r0, [r0], #-0
    30c8:	00140704 	andseq	r0, r4, r4, lsl #14
    30cc:	08040000 	stmdaeq	r4, {}	; <UNPREDICTABLE>
    30d0:	00000f07 	andeq	r0, r0, r7, lsl #30
    30d4:	07040400 	streq	r0, [r4, -r0, lsl #8]
    30d8:	000000cf 	andeq	r0, r0, pc, asr #1
    30dc:	01040405 	tsteq	r4, r5, lsl #8
    30e0:	0001a608 	andeq	sl, r1, r8, lsl #12
    30e4:	040c0600 	streq	r0, [ip], #-1536	; 0x600
    30e8:	0000d30e 	andeq	sp, r0, lr, lsl #6
    30ec:	78740700 	ldmdavc	r4!, {r8, r9, sl}^
    30f0:	5a0f0400 	bpl	3c40f8 <__bss_end__+0x3ba288>
    30f4:	00000000 	andeq	r0, r0, r0
    30f8:	00787207 	rsbseq	r7, r8, r7, lsl #4
    30fc:	005a0f04 	subseq	r0, sl, r4, lsl #30
    3100:	08010000 	stmdaeq	r1, {}	; <UNPREDICTABLE>
    3104:	0000044d 	andeq	r0, r0, sp, asr #8
    3108:	00731004 	rsbseq	r1, r3, r4
    310c:	08040000 	stmdaeq	r4, {}	; <UNPREDICTABLE>
    3110:	000003fe 	strdeq	r0, [r0], -lr
    3114:	00731104 	rsbseq	r1, r3, r4, lsl #2
    3118:	00080000 	andeq	r0, r8, r0
    311c:	00043603 	andeq	r3, r4, r3, lsl #12
    3120:	9c120400 	cfldrsls	mvf0, [r2], {-0}
    3124:	09000000 	stmdbeq	r0, {}	; <UNPREDICTABLE>
    3128:	f9100501 			; <UNDEFINED> instruction: 0xf9100501
    312c:	0a000000 	beq	3134 <_start-0x4ecc>
    3130:	00000452 	andeq	r0, r0, r2, asr r4
    3134:	04400a01 	strbeq	r0, [r0], #-2561	; 0xa01
    3138:	0a020000 	beq	83140 <__bss_end__+0x792d0>
    313c:	00000428 	andeq	r0, r0, r8, lsr #8
    3140:	67030003 	strvs	r0, [r3, -r3]
    3144:	05000004 	streq	r0, [r0, #-4]
    3148:	0000de10 	andeq	sp, r0, r0, lsl lr
    314c:	05140600 	ldreq	r0, [r4, #-1536]	; 0x600
    3150:	00013114 	andeq	r3, r1, r4, lsl r1
    3154:	04ce0800 	strbeq	r0, [lr], #2048	; 0x800
    3158:	15050000 	strne	r0, [r5, #-0]
    315c:	00000037 	andeq	r0, r0, r7, lsr r0
    3160:	04c20800 	strbeq	r0, [r2], #2048	; 0x800
    3164:	18050000 	stmdane	r5, {}	; <UNPREDICTABLE>
    3168:	000000f9 	strdeq	r0, [r0], -r9
    316c:	048d0804 	streq	r0, [sp], #2052	; 0x804
    3170:	1b050000 	blne	143178 <__bss_end__+0x139308>
    3174:	000000d3 	ldrdeq	r0, [r0], -r3
    3178:	7f030008 	svcvc	0x00030008
    317c:	05000004 	streq	r0, [r0, #-4]
    3180:	00010420 	andeq	r0, r1, r0, lsr #8
    3184:	094c0b00 	stmdbeq	ip, {r8, r9, fp}^
    3188:	05010000 	streq	r0, [r1, #-0]
    318c:	0000017e 	andeq	r0, r0, lr, ror r1
    3190:	000094ec 	andeq	r9, r0, ip, ror #9
    3194:	00000028 	andeq	r0, r0, r8, lsr #32
    3198:	017e9c01 	cmneq	lr, r1, lsl #24
    319c:	630c0000 	movwvs	r0, #49152	; 0xc000
    31a0:	7e060100 	adfvcs	f0, f6, f0
    31a4:	00000001 	andeq	r0, r0, r1
    31a8:	0d090000 	stceq	0, cr0, [r9, #-0]
    31ac:	00009500 	andeq	r9, r0, r0, lsl #10
    31b0:	000001ab 	andeq	r0, r0, fp, lsr #3
    31b4:	0152010e 	cmpeq	r2, lr, lsl #2
    31b8:	51010e34 	tstpl	r1, r4, lsr lr
    31bc:	010e3001 	tsteq	lr, r1
    31c0:	47420350 	smlsldmi	r0, r2, r0, r3
    31c4:	0f000024 	svceq	0x00000024
    31c8:	00013104 	andeq	r3, r1, r4, lsl #2
    31cc:	04950b00 	ldreq	r0, [r5], #2816	; 0xb00
    31d0:	0c010000 	stceq	0, cr0, [r1], {-0}
    31d4:	0000017e 	andeq	r0, r0, lr, ror r1
    31d8:	00009514 	andeq	r9, r0, r4, lsl r5
    31dc:	00000028 	andeq	r0, r0, r8, lsr #32
    31e0:	01ab9c01 			; <UNDEFINED> instruction: 0x01ab9c01
    31e4:	630c0000 	movwvs	r0, #49152	; 0xc000
    31e8:	7e0d0100 	adfvce	f0, f5, f0
    31ec:	00000001 	andeq	r0, r0, r1
    31f0:	00090000 	andeq	r0, r9, r0
    31f4:	00094510 	andeq	r4, r9, r0, lsl r5
    31f8:	931b0600 	tstls	fp, #0, 12
    31fc:	11000000 	mrsne	r0, (UNDEF: 0)
    3200:	00000093 	muleq	r0, r3, r0
    3204:	00002511 	andeq	r2, r0, r1, lsl r5
    3208:	002c1100 	eoreq	r1, ip, r0, lsl #2
    320c:	00000000 	andeq	r0, r0, r0
    3210:	000003ff 	strdeq	r0, [r0], -pc	; <UNPREDICTABLE>
    3214:	106c0004 	rsbne	r0, ip, r4
    3218:	01040000 	mrseq	r0, (UNDEF: 4)
    321c:	000001cc 	andeq	r0, r0, ip, asr #3
    3220:	000a3f01 	andeq	r3, sl, r1, lsl #30
    3224:	0002b700 	andeq	fp, r2, r0, lsl #14
    3228:	00953c00 	addseq	r3, r5, r0, lsl #24
    322c:	00015400 	andeq	r5, r1, r0, lsl #8
    3230:	000e3f00 	andeq	r3, lr, r0, lsl #30
    3234:	05040200 	streq	r0, [r4, #-512]	; 0x200
    3238:	00746e69 	rsbseq	r6, r4, r9, ror #28
    323c:	19070403 	stmdbne	r7, {r0, r1, sl}
    3240:	03000000 	movweq	r0, #0
    3244:	019f0601 	orrseq	r0, pc, r1, lsl #12
    3248:	02030000 	andeq	r0, r3, #0
    324c:	0001ab05 	andeq	sl, r1, r5, lsl #22
    3250:	05040300 	streq	r0, [r4, #-768]	; 0x300
    3254:	00000032 	andeq	r0, r0, r2, lsr r0
    3258:	2d050803 	stccs	8, cr0, [r5, #-12]
    325c:	03000000 	movweq	r0, #0
    3260:	019d0801 	orrseq	r0, sp, r1, lsl #16
    3264:	02030000 	andeq	r0, r3, #0
    3268:	00008d07 	andeq	r8, r0, r7, lsl #26
    326c:	07040300 	streq	r0, [r4, -r0, lsl #6]
    3270:	00000014 	andeq	r0, r0, r4, lsl r0
    3274:	0f070803 	svceq	0x00070803
    3278:	03000000 	movweq	r0, #0
    327c:	00cf0704 	sbceq	r0, pc, r4, lsl #14
    3280:	01030000 	mrseq	r0, (UNDEF: 3)
    3284:	0001a608 	andeq	sl, r1, r8, lsl #12
    3288:	02010400 	andeq	r0, r1, #0, 8
    328c:	0000b20c 	andeq	fp, r0, ip, lsl #4
    3290:	07200500 	streq	r0, [r0, -r0, lsl #10]!
    3294:	05000000 	streq	r0, [r0, #-0]
    3298:	00000869 	andeq	r0, r0, r9, ror #16
    329c:	08a20501 	stmiaeq	r2!, {r0, r8, sl}
    32a0:	05040000 	streq	r0, [r4, #-0]
    32a4:	000008b1 			; <UNDEFINED> instruction: 0x000008b1
    32a8:	08c00505 	stmiaeq	r0, {r0, r2, r8, sl}^
    32ac:	05060000 	streq	r0, [r6, #-0]
    32b0:	000008cf 	andeq	r0, r0, pc, asr #17
    32b4:	08de0507 	ldmeq	lr, {r0, r1, r2, r8, sl}^
    32b8:	05030000 	streq	r0, [r3, #-0]
    32bc:	000008ed 	andeq	r0, r0, sp, ror #17
    32c0:	96060002 	strls	r0, [r6], -r2
    32c4:	02000008 	andeq	r0, r0, #8
    32c8:	00007915 	andeq	r7, r0, r5, lsl r9
    32cc:	09c60700 	stmibeq	r6, {r8, r9, sl}^
    32d0:	37010000 	strcc	r0, [r1, -r0]
    32d4:	0000953c 	andeq	r9, r0, ip, lsr r5
    32d8:	0000009c 	muleq	r0, ip, r0
    32dc:	01c39c01 	biceq	r9, r3, r1, lsl #24
    32e0:	44080000 	strmi	r0, [r8], #-0
    32e4:	a8000095 	stmdage	r0, {r0, r2, r4, r7}
    32e8:	09000003 	stmdbeq	r0, {r0, r1}
    32ec:	00009550 	andeq	r9, r0, r0, asr r5
    32f0:	000003af 	andeq	r0, r0, pc, lsr #7
    32f4:	000000f3 	strdeq	r0, [r0], -r3
    32f8:	0151010a 	cmpeq	r1, sl, lsl #2
    32fc:	50010a32 	andpl	r0, r1, r2, lsr sl
    3300:	09003e01 	stmdbeq	r0, {r0, r9, sl, fp, ip, sp}
    3304:	0000955c 	andeq	r9, r0, ip, asr r5
    3308:	000003af 	andeq	r0, r0, pc, lsr #7
    330c:	0000010b 	andeq	r0, r0, fp, lsl #2
    3310:	0151010a 	cmpeq	r1, sl, lsl #2
    3314:	50010a32 	andpl	r0, r1, r2, lsr sl
    3318:	08003f01 	stmdaeq	r0, {r0, r8, r9, sl, fp, ip, sp}
    331c:	00009560 	andeq	r9, r0, r0, ror #10
    3320:	000003a8 	andeq	r0, r0, r8, lsr #7
    3324:	00957009 	addseq	r7, r5, r9
    3328:	0003c500 	andeq	ip, r3, r0, lsl #10
    332c:	00012800 	andeq	r2, r1, r0, lsl #16
    3330:	50010a00 	andpl	r0, r1, r0, lsl #20
    3334:	00007502 	andeq	r7, r0, r2, lsl #10
    3338:	00957c09 	addseq	r7, r5, r9, lsl #24
    333c:	0003e600 	andeq	lr, r3, r0, lsl #12
    3340:	00013c00 	andeq	r3, r1, r0, lsl #24
    3344:	50010a00 	andpl	r0, r1, r0, lsl #20
    3348:	00007502 	andeq	r7, r0, r2, lsl #10
    334c:	00958008 	addseq	r8, r5, r8
    3350:	0003a800 	andeq	sl, r3, r0, lsl #16
    3354:	958c0900 	strls	r0, [ip, #2304]	; 0x900
    3358:	03e60000 	mvneq	r0, #0
    335c:	01580000 	cmpeq	r8, r0
    3360:	010a0000 	mrseq	r0, (UNDEF: 10)
    3364:	00300151 	eorseq	r0, r0, r1, asr r1
    3368:	00959809 	addseq	r9, r5, r9, lsl #16
    336c:	0003e600 	andeq	lr, r3, r0, lsl #12
    3370:	00016b00 	andeq	r6, r1, r0, lsl #22
    3374:	51010a00 	tstpl	r1, r0, lsl #20
    3378:	09003001 	stmdbeq	r0, {r0, ip, sp}
    337c:	000095a4 	andeq	r9, r0, r4, lsr #11
    3380:	000003e6 	andeq	r0, r0, r6, ror #7
    3384:	0000017e 	andeq	r0, r0, lr, ror r1
    3388:	0151010a 	cmpeq	r1, sl, lsl #2
    338c:	b0090036 	andlt	r0, r9, r6, lsr r0
    3390:	e6000095 			; <UNDEFINED> instruction: 0xe6000095
    3394:	91000003 	tstls	r0, r3
    3398:	0a000001 	beq	33a4 <_start-0x4c5c>
    339c:	33015101 	movwcc	r5, #4353	; 0x1101
    33a0:	95bc0900 	ldrls	r0, [ip, #2304]!	; 0x900
    33a4:	03e60000 	mvneq	r0, #0
    33a8:	01a60000 			; <UNDEFINED> instruction: 0x01a60000
    33ac:	010a0000 	mrseq	r0, (UNDEF: 10)
    33b0:	0e0a0351 	mcreq	3, 0, r0, cr10, cr1, {2}
    33b4:	c8090001 	stmdagt	r9, {r0}
    33b8:	e6000095 			; <UNDEFINED> instruction: 0xe6000095
    33bc:	b9000003 	stmdblt	r0, {r0, r1}
    33c0:	0a000001 	beq	33cc <_start-0x4c34>
    33c4:	33015101 	movwcc	r5, #4353	; 0x1101
    33c8:	95cc0800 	strbls	r0, [ip, #2048]	; 0x800
    33cc:	03a80000 			; <UNDEFINED> instruction: 0x03a80000
    33d0:	0b000000 	bleq	33d8 <_start-0x4c28>
    33d4:	0000099a 	muleq	r0, sl, r9
    33d8:	00255701 	eoreq	r5, r5, r1, lsl #14
    33dc:	95d80000 	ldrbls	r0, [r8]
    33e0:	001c0000 	andseq	r0, ip, r0
    33e4:	9c010000 	stcls	0, cr0, [r1], {-0}
    33e8:	000001e6 	andeq	r0, r0, r6, ror #3
    33ec:	0095e808 	addseq	lr, r5, r8, lsl #16
    33f0:	0003c500 	andeq	ip, r3, r0, lsl #10
    33f4:	ed0b0000 	stc	0, cr0, [fp, #-0]
    33f8:	01000005 	tsteq	r0, r5
    33fc:	0000255d 	andeq	r2, r0, sp, asr r5
    3400:	0095f400 	addseq	pc, r5, r0, lsl #8
    3404:	00002800 	andeq	r2, r0, r0, lsl #16
    3408:	129c0100 	addsne	r0, ip, #0, 2
    340c:	08000002 	stmdaeq	r0, {r1}
    3410:	000095fc 	strdeq	r9, [r0], -ip
    3414:	000001c3 	andeq	r0, r0, r3, asr #3
    3418:	00961008 	addseq	r1, r6, r8
    341c:	0003c500 	andeq	ip, r3, r0, lsl #10
    3420:	ee0b0000 	cdp	0, 0, cr0, cr11, cr0, {0}
    3424:	01000009 	tsteq	r0, r9
    3428:	00002564 	andeq	r2, r0, r4, ror #10
    342c:	00961c00 	addseq	r1, r6, r0, lsl #24
    3430:	00001c00 	andeq	r1, r0, r0, lsl #24
    3434:	359c0100 	ldrcc	r0, [ip, #256]	; 0x100
    3438:	08000002 	stmdaeq	r0, {r1}
    343c:	0000962c 	andeq	r9, r0, ip, lsr #12
    3440:	000003c5 	andeq	r0, r0, r5, asr #7
    3444:	04750700 	ldrbteq	r0, [r5], #-1792	; 0x700
    3448:	6a010000 	bvs	43450 <__bss_end__+0x395e0>
    344c:	00009638 	andeq	r9, r0, r8, lsr r6
    3450:	0000002c 	andeq	r0, r0, ip, lsr #32
    3454:	02719c01 	rsbseq	r9, r1, #256	; 0x100
    3458:	630c0000 	movwvs	r0, #49152	; 0xc000
    345c:	2c6a0100 	stfcse	f0, [sl], #-0
    3460:	72000000 	andvc	r0, r0, #0
    3464:	08000020 	stmdaeq	r0, {r5}
    3468:	00009644 	andeq	r9, r0, r4, asr #12
    346c:	00000212 	andeq	r0, r0, r2, lsl r2
    3470:	00965c0d 	addseq	r5, r6, sp, lsl #24
    3474:	0003e600 	andeq	lr, r3, r0, lsl #12
    3478:	51010a00 	tstpl	r1, r0, lsl #20
    347c:	00007402 	andeq	r7, r0, r2, lsl #8
    3480:	09b80b00 	ldmibeq	r8!, {r8, r9, fp}
    3484:	74010000 	strvc	r0, [r1], #-0
    3488:	00000025 	andeq	r0, r0, r5, lsr #32
    348c:	00009664 	andeq	r9, r0, r4, ror #12
    3490:	0000000c 	andeq	r0, r0, ip
    3494:	02949c01 	addseq	r9, r4, #256	; 0x100
    3498:	6c080000 	stcvs	0, cr0, [r8], {-0}
    349c:	c3000096 	movwgt	r0, #150	; 0x96
    34a0:	00000001 	andeq	r0, r0, r1
    34a4:	000a6b0b 	andeq	r6, sl, fp, lsl #22
    34a8:	25780100 	ldrbcs	r0, [r8, #-256]!	; 0x100
    34ac:	70000000 	andvc	r0, r0, r0
    34b0:	20000096 	mulcs	r0, r6, r0
    34b4:	01000000 	mrseq	r0, (UNDEF: 0)
    34b8:	0002c09c 	muleq	r2, ip, r0
    34bc:	96780800 	ldrbtls	r0, [r8], -r0, lsl #16
    34c0:	02710000 	rsbseq	r0, r1, #0
    34c4:	84080000 	strhi	r0, [r8], #-0
    34c8:	e6000096 			; <UNDEFINED> instruction: 0xe6000096
    34cc:	00000001 	andeq	r0, r0, r1
    34d0:	000a080e 	andeq	r0, sl, lr, lsl #16
    34d4:	d1160100 	tstle	r6, r0, lsl #2
    34d8:	05000002 	streq	r0, [r0, #-2]
    34dc:	00976003 	addseq	r6, r7, r3
    34e0:	d7040f00 	strle	r0, [r4, -r0, lsl #30]
    34e4:	10000002 	andne	r0, r0, r2
    34e8:	0000002c 	andeq	r0, r0, ip, lsr #32
    34ec:	0009fc0e 	andeq	pc, r9, lr, lsl #24
    34f0:	d1170100 	tstle	r7, r0, lsl #2
    34f4:	05000002 	streq	r0, [r0, #-2]
    34f8:	00973003 	addseq	r3, r7, r3
    34fc:	097d0e00 	ldmdbeq	sp!, {r9, sl, fp}^
    3500:	1a010000 	bne	43508 <__bss_end__+0x39698>
    3504:	000002d1 	ldrdeq	r0, [r0], -r1
    3508:	974c0305 	strbls	r0, [ip, -r5, lsl #6]
    350c:	d00e0000 	andle	r0, lr, r0
    3510:	01000009 	tsteq	r0, r9
    3514:	0002d11b 	andeq	sp, r2, fp, lsl r1
    3518:	38030500 	stmdacc	r3, {r8, sl}
    351c:	0e000097 	mcreq	0, 0, r0, cr0, cr7, {4}
    3520:	000009df 	ldrdeq	r0, [r0], -pc	; <UNPREDICTABLE>
    3524:	02d11c01 	sbcseq	r1, r1, #256	; 0x100
    3528:	03050000 	movweq	r0, #20480	; 0x5000
    352c:	0000973c 	andeq	r9, r0, ip, lsr r7
    3530:	000a4d0e 	andeq	r4, sl, lr, lsl #26
    3534:	d11d0100 	tstle	sp, r0, lsl #2
    3538:	05000002 	streq	r0, [r0, #-2]
    353c:	00974003 	addseq	r4, r7, r3
    3540:	096e0e00 	stmdbeq	lr!, {r9, sl, fp}^
    3544:	1e010000 	cdpne	0, 0, cr0, cr1, cr0, {0}
    3548:	000002d1 	ldrdeq	r0, [r0], -r1
    354c:	975c0305 	ldrbls	r0, [ip, -r5, lsl #6]
    3550:	5c0e0000 	stcpl	0, cr0, [lr], {-0}
    3554:	0100000a 	tsteq	r0, sl
    3558:	0002d11f 	andeq	sp, r2, pc, lsl r1
    355c:	48030500 	stmdami	r3, {r8, sl}
    3560:	0e000097 	mcreq	0, 0, r0, cr0, cr7, {4}
    3564:	0000098b 	andeq	r0, r0, fp, lsl #19
    3568:	02d12001 	sbcseq	r2, r1, #1
    356c:	03050000 	movweq	r0, #20480	; 0x5000
    3570:	00009758 	andeq	r9, r0, r8, asr r7
    3574:	000a300e 	andeq	r3, sl, lr
    3578:	d1210100 	teqle	r1, r0, lsl #2
    357c:	05000002 	streq	r0, [r0, #-2]
    3580:	00975403 	addseq	r5, r7, r3, lsl #8
    3584:	09a80e00 	stmibeq	r8!, {r9, sl, fp}
    3588:	22010000 	andcs	r0, r1, #0
    358c:	000002d1 	ldrdeq	r0, [r0], -r1
    3590:	97340305 	ldrls	r0, [r4, -r5, lsl #6]!
    3594:	200e0000 	andcs	r0, lr, r0
    3598:	0100000a 	tsteq	r0, sl
    359c:	0002d123 	andeq	sp, r2, r3, lsr #2
    35a0:	50030500 	andpl	r0, r3, r0, lsl #10
    35a4:	0e000097 	mcreq	0, 0, r0, cr0, cr7, {4}
    35a8:	00000a10 	andeq	r0, r0, r0, lsl sl
    35ac:	02d12401 	sbcseq	r2, r1, #16777216	; 0x1000000
    35b0:	03050000 	movweq	r0, #20480	; 0x5000
    35b4:	00009744 	andeq	r9, r0, r4, asr #14
    35b8:	0007aa11 	andeq	sl, r7, r1, lsl sl
    35bc:	128a0300 	addne	r0, sl, #0, 6
    35c0:	000007dd 	ldrdeq	r0, [r0], -sp
    35c4:	03c51902 	biceq	r1, r5, #32768	; 0x8000
    35c8:	2c130000 	ldccs	0, cr0, [r3], {-0}
    35cc:	13000000 	movwne	r0, #0
    35d0:	000000b2 	strheq	r0, [r0], -r2
    35d4:	087a1400 	ldmdaeq	sl!, {sl, ip}^
    35d8:	a9030000 	stmdbge	r3, {}	; <UNPREDICTABLE>
    35dc:	0000002c 	andeq	r0, r0, ip, lsr #32
    35e0:	000003da 	ldrdeq	r0, [r0], -sl
    35e4:	0003da13 	andeq	sp, r3, r3, lsl sl
    35e8:	040f0000 	streq	r0, [pc], #-0	; 35f0 <_start-0x4a10>
    35ec:	000003e0 	andeq	r0, r0, r0, ror #7
    35f0:	0003e515 	andeq	lr, r3, r5, lsl r5
    35f4:	f1121600 			; <UNDEFINED> instruction: 0xf1121600
    35f8:	03000006 	movweq	r0, #6
    35fc:	0003fc9d 	muleq	r3, sp, ip
    3600:	03fc1300 	mvnseq	r1, #0, 6
    3604:	2c130000 	ldccs	0, cr0, [r3], {-0}
    3608:	00000000 	andeq	r0, r0, r0
    360c:	03e5040f 	mvneq	r0, #251658240	; 0xf000000
    3610:	db000000 	blle	3618 <_start-0x49e8>
    3614:	04000000 	streq	r0, [r0], #-0
    3618:	00119a00 	andseq	r9, r1, r0, lsl #20
    361c:	cc010400 	cfstrsgt	mvf0, [r1], {-0}
    3620:	01000001 	tsteq	r0, r1
    3624:	00000a7b 	andeq	r0, r0, fp, ror sl
    3628:	000002b7 			; <UNDEFINED> instruction: 0x000002b7
    362c:	000096a8 	andeq	r9, r0, r8, lsr #13
    3630:	00000020 	andeq	r0, r0, r0, lsr #32
    3634:	00000f44 	andeq	r0, r0, r4, asr #30
    3638:	9f060102 	svcls	0x00060102
    363c:	02000001 	andeq	r0, r0, #1
    3640:	019d0801 	orrseq	r0, sp, r1, lsl #16
    3644:	02020000 	andeq	r0, r2, #0
    3648:	0001ab05 	andeq	sl, r1, r5, lsl #22
    364c:	07020200 	streq	r0, [r2, -r0, lsl #4]
    3650:	0000008d 	andeq	r0, r0, sp, lsl #1
    3654:	69050403 	stmdbvs	r5, {r0, r1, sl}
    3658:	0200746e 	andeq	r7, r0, #1845493760	; 0x6e000000
    365c:	00190704 	andseq	r0, r9, r4, lsl #14
    3660:	08020000 	stmdaeq	r2, {}	; <UNPREDICTABLE>
    3664:	00002d05 	andeq	r2, r0, r5, lsl #26
    3668:	07080200 	streq	r0, [r8, -r0, lsl #4]
    366c:	0000000f 	andeq	r0, r0, pc
    3670:	32050402 	andcc	r0, r5, #33554432	; 0x2000000
    3674:	02000000 	andeq	r0, r0, #0
    3678:	00cf0704 	sbceq	r0, pc, r4, lsl #14
    367c:	04040000 	streq	r0, [r4], #-0
    3680:	14070402 	strne	r0, [r7], #-1026	; 0x402
    3684:	05000000 	streq	r0, [r0, #-0]
    3688:	00007a04 	andeq	r7, r0, r4, lsl #20
    368c:	08010200 	stmdaeq	r1, {r9}
    3690:	000001a6 	andeq	r0, r0, r6, lsr #3
    3694:	00093e06 	andeq	r3, r9, r6, lsl #28
    3698:	48d40200 	ldmmi	r4, {r9}^
    369c:	07000000 	streq	r0, [r0, -r0]
    36a0:	00000945 	andeq	r0, r0, r5, asr #18
    36a4:	006b1b03 	rsbeq	r1, fp, r3, lsl #22
    36a8:	96a80000 	strtls	r0, [r8], r0
    36ac:	00200000 	eoreq	r0, r0, r0
    36b0:	9c010000 	stcls	0, cr0, [r1], {-0}
    36b4:	00705f08 	rsbseq	r5, r0, r8, lsl #30
    36b8:	006b0301 	rsbeq	r0, fp, r1, lsl #6
    36bc:	50010000 	andpl	r0, r1, r0
    36c0:	01006308 	tsteq	r0, r8, lsl #6
    36c4:	00004103 	andeq	r4, r0, r3, lsl #2
    36c8:	09510100 	ldmdbeq	r1, {r8}^
    36cc:	0301006e 	movweq	r0, #4206	; 0x106e
    36d0:	00000081 	andeq	r0, r0, r1, lsl #1
    36d4:	00002090 	muleq	r0, r0, r0
    36d8:	0100700a 	tsteq	r0, sl
    36dc:	00007404 	andeq	r7, r0, r4, lsl #8
    36e0:	0020b100 	eoreq	fp, r0, r0, lsl #2
    36e4:	00650b00 	rsbeq	r0, r5, r0, lsl #22
    36e8:	00740401 	rsbseq	r0, r4, r1, lsl #8
    36ec:	52010000 	andpl	r0, r1, #0
	...

Disassembly of section .debug_abbrev:

00000000 <.debug_abbrev>:
       0:	25011101 	strcs	r1, [r1, #-257]	; 0x101
       4:	030b130e 	movweq	r1, #45838	; 0xb30e
       8:	110e1b0e 	tstne	lr, lr, lsl #22
       c:	10061201 	andne	r1, r6, r1, lsl #4
      10:	02000017 	andeq	r0, r0, #23
      14:	0b0b0024 	bleq	2c00ac <__bss_end__+0x2b623c>
      18:	08030b3e 	stmdaeq	r3, {r1, r2, r3, r4, r5, r8, r9, fp}
      1c:	24030000 	strcs	r0, [r3], #-0
      20:	3e0b0b00 	vmlacc.f64	d0, d11, d0
      24:	000e030b 	andeq	r0, lr, fp, lsl #6
      28:	00160400 	andseq	r0, r6, r0, lsl #8
      2c:	0b3a0e03 	bleq	e83840 <__bss_end__+0xe799d0>
      30:	13490b3b 	movtne	r0, #39739	; 0x9b3b
      34:	0f050000 	svceq	0x00050000
      38:	490b0b00 	stmdbmi	fp, {r8, r9, fp}
      3c:	06000013 			; <UNDEFINED> instruction: 0x06000013
      40:	19270015 	stmdbne	r7!, {r0, r2, r4}
      44:	26070000 	strcs	r0, [r7], -r0
      48:	00134900 	andseq	r4, r3, r0, lsl #18
      4c:	01010800 	tsteq	r1, r0, lsl #16
      50:	13011349 	movwne	r1, #4937	; 0x1349
      54:	21090000 	mrscs	r0, (UNDEF: 9)
      58:	2f134900 	svccs	0x00134900
      5c:	0a00000b 	beq	90 <_start-0x7f70>
      60:	0b0b0104 	bleq	2c0478 <__bss_end__+0x2b6608>
      64:	0b3b0b3a 	bleq	ec2d54 <__bss_end__+0xeb8ee4>
      68:	00001301 	andeq	r1, r0, r1, lsl #6
      6c:	0300280b 	movweq	r2, #2059	; 0x80b
      70:	000d1c0e 	andeq	r1, sp, lr, lsl #24
      74:	012e0c00 	teqeq	lr, r0, lsl #24
      78:	0b3a0e03 	bleq	e8388c <__bss_end__+0xe79a1c>
      7c:	1927053b 	stmdbne	r7!, {r0, r1, r3, r4, r5, r8, sl}
      80:	0b201349 	bleq	804dac <__bss_end__+0x7faf3c>
      84:	00001301 	andeq	r1, r0, r1, lsl #6
      88:	0300050d 	movweq	r0, #1293	; 0x50d
      8c:	3b0b3a08 	blcc	2ce8b4 <__bss_end__+0x2c4a44>
      90:	00134905 	andseq	r4, r3, r5, lsl #18
      94:	00340e00 	eorseq	r0, r4, r0, lsl #28
      98:	0b3a0e03 	bleq	e838ac <__bss_end__+0xe79a3c>
      9c:	1349053b 	movtne	r0, #38203	; 0x953b
      a0:	050f0000 	streq	r0, [pc, #-0]	; a8 <_start-0x7f58>
      a4:	3a0e0300 	bcc	380cac <__bss_end__+0x376e3c>
      a8:	49053b0b 	stmdbmi	r5, {r0, r1, r3, r8, r9, fp, ip, sp}
      ac:	10000013 	andne	r0, r0, r3, lsl r0
      b0:	0e03012e 	adfeqsp	f0, f3, #0.5
      b4:	0b3b0b3a 	bleq	ec2da4 <__bss_end__+0xeb8f34>
      b8:	13491927 	movtne	r1, #39207	; 0x9927
      bc:	13010b20 	movwne	r0, #6944	; 0x1b20
      c0:	05110000 	ldreq	r0, [r1, #-0]
      c4:	3a080300 	bcc	200ccc <__bss_end__+0x1f6e5c>
      c8:	490b3b0b 	stmdbmi	fp, {r0, r1, r3, r8, r9, fp, ip, sp}
      cc:	12000013 	andne	r0, r0, #19
      d0:	0e030005 	cdpeq	0, 0, cr0, cr3, cr5, {0}
      d4:	0b3b0b3a 	bleq	ec2dc4 <__bss_end__+0xeb8f54>
      d8:	00001349 	andeq	r1, r0, r9, asr #6
      dc:	03003413 	movweq	r3, #1043	; 0x413
      e0:	3b0b3a0e 	blcc	2ce920 <__bss_end__+0x2c4ab0>
      e4:	0013490b 	andseq	r4, r3, fp, lsl #18
      e8:	00341400 	eorseq	r1, r4, r0, lsl #8
      ec:	0b3a0803 	bleq	e82100 <__bss_end__+0xe78290>
      f0:	13490b3b 	movtne	r0, #39739	; 0x9b3b
      f4:	2e150000 	cdpcs	0, 1, cr0, cr5, cr0, {0}
      f8:	03193f01 	tsteq	r9, #1, 30
      fc:	3b0b3a0e 	blcc	2ce93c <__bss_end__+0x2c4acc>
     100:	1119270b 	tstne	r9, fp, lsl #14
     104:	40061201 	andmi	r1, r6, r1, lsl #4
     108:	19429718 	stmdbne	r2, {r3, r4, r8, r9, sl, ip, pc}^
     10c:	00001301 	andeq	r1, r0, r1, lsl #6
     110:	01828916 	orreq	r8, r2, r6, lsl r9
     114:	31011101 	tstcc	r1, r1, lsl #2
     118:	17000013 	smladne	r0, r3, r0, r0
     11c:	0001828a 	andeq	r8, r1, sl, lsl #5
     120:	42911802 	addsmi	r1, r1, #131072	; 0x20000
     124:	18000018 	stmdane	r0, {r3, r4}
     128:	193f012e 	ldmdbne	pc!, {r1, r2, r3, r5, r8}	; <UNPREDICTABLE>
     12c:	0b3a0803 	bleq	e82140 <__bss_end__+0xe782d0>
     130:	19270b3b 	stmdbne	r7!, {r0, r1, r3, r4, r5, r8, r9, fp}
     134:	06120111 			; <UNDEFINED> instruction: 0x06120111
     138:	42971840 	addsmi	r1, r7, #64, 16	; 0x400000
     13c:	00130119 	andseq	r0, r3, r9, lsl r1
     140:	00051900 	andeq	r1, r5, r0, lsl #18
     144:	0b3a0803 	bleq	e82158 <__bss_end__+0xe782e8>
     148:	13490b3b 	movtne	r0, #39739	; 0x9b3b
     14c:	00001702 	andeq	r1, r0, r2, lsl #14
     150:	0182891a 	orreq	r8, r2, sl, lsl r9
     154:	31011101 	tstcc	r1, r1, lsl #2
     158:	00130113 	andseq	r0, r3, r3, lsl r1
     15c:	82891b00 	addhi	r1, r9, #0, 22
     160:	01110001 	tsteq	r1, r1
     164:	00001331 	andeq	r1, r0, r1, lsr r3
     168:	0300341c 	movweq	r3, #1052	; 0x41c
     16c:	3b0b3a0e 	blcc	2ce9ac <__bss_end__+0x2c4b3c>
     170:	0213490b 	andseq	r4, r3, #180224	; 0x2c000
     174:	1d000018 	stcne	0, cr0, [r0, #-96]	; 0xffffffa0
     178:	08030034 	stmdaeq	r3, {r2, r4, r5}
     17c:	0b3b0b3a 	bleq	ec2e6c <__bss_end__+0xeb8ffc>
     180:	17021349 	strne	r1, [r2, -r9, asr #6]
     184:	341e0000 	ldrcc	r0, [lr], #-0
     188:	3a080300 	bcc	200d90 <__bss_end__+0x1f6f20>
     18c:	490b3b0b 	stmdbmi	fp, {r0, r1, r3, r8, r9, fp, ip, sp}
     190:	00180213 	andseq	r0, r8, r3, lsl r2
     194:	011d1f00 	tsteq	sp, r0, lsl #30
     198:	01111331 	tsteq	r1, r1, lsr r3
     19c:	0b580612 	bleq	16019ec <__bss_end__+0x15f7b7c>
     1a0:	13010b59 	movwne	r0, #7001	; 0x1b59
     1a4:	05200000 	streq	r0, [r0, #-0]!
     1a8:	00133100 	andseq	r3, r3, r0, lsl #2
     1ac:	00052100 	andeq	r2, r5, r0, lsl #2
     1b0:	17021331 	smladxne	r2, r1, r3, r1
     1b4:	05220000 	streq	r0, [r2, #-0]!
     1b8:	1c133100 	ldfnes	f3, [r3], {-0}
     1bc:	2300000b 	movwcs	r0, #11
     1c0:	0111010b 	tsteq	r1, fp, lsl #2
     1c4:	00000612 	andeq	r0, r0, r2, lsl r6
     1c8:	31003424 	tstcc	r0, r4, lsr #8
     1cc:	000b1c13 	andeq	r1, fp, r3, lsl ip
     1d0:	00342500 	eorseq	r2, r4, r0, lsl #10
     1d4:	17021331 	smladxne	r2, r1, r3, r1
     1d8:	34260000 	strtcc	r0, [r6], #-0
     1dc:	1c133100 	ldfnes	f3, [r3], {-0}
     1e0:	2700000d 	strcs	r0, [r0, -sp]
     1e4:	0111010b 	tsteq	r1, fp, lsl #2
     1e8:	13010612 	movwne	r0, #5650	; 0x1612
     1ec:	89280000 	stmdbhi	r8!, {}	; <UNPREDICTABLE>
     1f0:	11000182 	smlabbne	r0, r2, r1, r0
     1f4:	18429301 	stmdane	r2, {r0, r8, r9, ip, pc}^
     1f8:	2e290000 	cdpcs	0, 2, cr0, cr9, cr0, {0}
     1fc:	03193f01 	tsteq	r9, #1, 30
     200:	3b0b3a0e 	blcc	2cea40 <__bss_end__+0x2c4bd0>
     204:	4919270b 	ldmdbmi	r9, {r0, r1, r3, r8, r9, sl, sp}
     208:	01193c13 	tsteq	r9, r3, lsl ip
     20c:	2a000013 	bcs	260 <_start-0x7da0>
     210:	13490005 	movtne	r0, #36869	; 0x9005
     214:	182b0000 	stmdane	fp!, {}	; <UNPREDICTABLE>
     218:	2c000000 	stccs	0, cr0, [r0], {-0}
     21c:	193f002e 	ldmdbne	pc!, {r1, r2, r3, r5}	; <UNPREDICTABLE>
     220:	0b3a0e03 	bleq	e83a34 <__bss_end__+0xe79bc4>
     224:	19270b3b 	stmdbne	r7!, {r0, r1, r3, r4, r5, r8, r9, fp}
     228:	0000193c 	andeq	r1, r0, ip, lsr r9
     22c:	01110100 	tsteq	r1, r0, lsl #2
     230:	0b130e25 	bleq	4c3acc <__bss_end__+0x4b9c5c>
     234:	0e1b0e03 	cdpeq	14, 1, cr0, cr11, cr3, {0}
     238:	06120111 			; <UNDEFINED> instruction: 0x06120111
     23c:	00001710 	andeq	r1, r0, r0, lsl r7
     240:	03001602 	movweq	r1, #1538	; 0x602
     244:	3b0b3a0e 	blcc	2cea84 <__bss_end__+0x2c4c14>
     248:	0013490b 	andseq	r4, r3, fp, lsl #18
     24c:	01130300 	tsteq	r3, r0, lsl #6
     250:	0b0b0e03 	bleq	2c3a64 <__bss_end__+0x2b9bf4>
     254:	0b3b0b3a 	bleq	ec2f44 <__bss_end__+0xeb90d4>
     258:	00001301 	andeq	r1, r0, r1, lsl #6
     25c:	03000d04 	movweq	r0, #3332	; 0xd04
     260:	3813490e 	ldmdacc	r3, {r1, r2, r3, r8, fp, lr}
     264:	0019340b 	andseq	r3, r9, fp, lsl #8
     268:	000f0500 	andeq	r0, pc, r0, lsl #10
     26c:	00000b0b 	andeq	r0, r0, fp, lsl #22
     270:	0b002406 	bleq	9290 <gpio_set_function+0xc8>
     274:	030b3e0b 	movweq	r3, #48651	; 0xbe0b
     278:	07000008 	streq	r0, [r0, -r8]
     27c:	0b0b0024 	bleq	2c0314 <__bss_end__+0x2b64a4>
     280:	0e030b3e 	vmoveq.16	d3[0], r0
     284:	0f080000 	svceq	0x00080000
     288:	490b0b00 	stmdbmi	fp, {r8, r9, fp}
     28c:	09000013 	stmdbeq	r0, {r0, r1, r4}
     290:	13490026 	movtne	r0, #36902	; 0x9026
     294:	2e0a0000 	cdpcs	0, 0, cr0, cr10, cr0, {0}
     298:	03193f01 	tsteq	r9, #1, 30
     29c:	3b0b3a0e 	blcc	2ceadc <__bss_end__+0x2c4c6c>
     2a0:	4919270b 	ldmdbmi	r9, {r0, r1, r3, r8, r9, sl, sp}
     2a4:	12011113 	andne	r1, r1, #-1073741820	; 0xc0000004
     2a8:	97184006 	ldrls	r4, [r8, -r6]
     2ac:	13011942 	movwne	r1, #6466	; 0x1942
     2b0:	050b0000 	streq	r0, [fp, #-0]
     2b4:	3a080300 	bcc	200ebc <__bss_end__+0x1f704c>
     2b8:	490b3b0b 	stmdbmi	fp, {r0, r1, r3, r8, r9, fp, ip, sp}
     2bc:	00180213 	andseq	r0, r8, r3, lsl r2
     2c0:	00180c00 	andseq	r0, r8, r0, lsl #24
     2c4:	340d0000 	strcc	r0, [sp], #-0
     2c8:	3a080300 	bcc	200ed0 <__bss_end__+0x1f7060>
     2cc:	490b3b0b 	stmdbmi	fp, {r0, r1, r3, r8, r9, fp, ip, sp}
     2d0:	00180213 	andseq	r0, r8, r3, lsl r2
     2d4:	00340e00 	eorseq	r0, r4, r0, lsl #28
     2d8:	0b3a0e03 	bleq	e83aec <__bss_end__+0xe79c7c>
     2dc:	13490b3b 	movtne	r0, #39739	; 0x9b3b
     2e0:	00001802 	andeq	r1, r0, r2, lsl #16
     2e4:	0300340f 	movweq	r3, #1039	; 0x40f
     2e8:	3b0b3a08 	blcc	2ceb10 <__bss_end__+0x2c4ca0>
     2ec:	0213490b 	andseq	r4, r3, #180224	; 0x2c000
     2f0:	10000017 	andne	r0, r0, r7, lsl r0
     2f4:	01018289 	smlabbeq	r1, r9, r2, r8
     2f8:	13310111 	teqne	r1, #1073741828	; 0x40000004
     2fc:	00001301 	andeq	r1, r0, r1, lsl #6
     300:	01828a11 	orreq	r8, r2, r1, lsl sl
     304:	91180200 	tstls	r8, r0, lsl #4
     308:	00001842 	andeq	r1, r0, r2, asr #16
     30c:	01828912 	orreq	r8, r2, r2, lsl r9
     310:	00011101 	andeq	r1, r1, r1, lsl #2
     314:	01011300 	mrseq	r1, SP_irq
     318:	13011349 	movwne	r1, #4937	; 0x1349
     31c:	21140000 	tstcs	r4, r0
     320:	2f134900 	svccs	0x00134900
     324:	15000005 	strne	r0, [r0, #-5]
     328:	19270115 	stmdbne	r7!, {r0, r2, r4, r8}
     32c:	13011349 	movwne	r1, #4937	; 0x1349
     330:	05160000 	ldreq	r0, [r6, #-0]
     334:	00134900 	andseq	r4, r3, r0, lsl #18
     338:	00341700 	eorseq	r1, r4, r0, lsl #14
     33c:	0b3a0e03 	bleq	e83b50 <__bss_end__+0xe79ce0>
     340:	13490b3b 	movtne	r0, #39739	; 0x9b3b
     344:	193c193f 	ldmdbne	ip!, {r0, r1, r2, r3, r4, r5, r8, fp, ip}
     348:	2e180000 	cdpcs	0, 1, cr0, cr8, cr0, {0}
     34c:	03193f01 	tsteq	r9, #1, 30
     350:	3b0b3a0e 	blcc	2ceb90 <__bss_end__+0x2c4d20>
     354:	4919270b 	ldmdbmi	r9, {r0, r1, r3, r8, r9, sl, sp}
     358:	00193c13 	andseq	r3, r9, r3, lsl ip
     35c:	11010000 	mrsne	r0, (UNDEF: 1)
     360:	130e2501 	movwne	r2, #58625	; 0xe501
     364:	1b0e030b 	blne	380f98 <__bss_end__+0x377128>
     368:	1201110e 	andne	r1, r1, #-2147483645	; 0x80000003
     36c:	00171006 	andseq	r1, r7, r6
     370:	00240200 	eoreq	r0, r4, r0, lsl #4
     374:	0b3e0b0b 	bleq	f82fa8 <__bss_end__+0xf79138>
     378:	00000803 	andeq	r0, r0, r3, lsl #16
     37c:	0b002403 	bleq	9390 <gpio_int_falling_edge+0x40>
     380:	030b3e0b 	movweq	r3, #48651	; 0xbe0b
     384:	0400000e 	streq	r0, [r0], #-14
     388:	0b0b000f 	bleq	2c03cc <__bss_end__+0x2b655c>
     38c:	00001349 	andeq	r1, r0, r9, asr #6
     390:	49002605 	stmdbmi	r0, {r0, r2, r9, sl, sp}
     394:	06000013 			; <UNDEFINED> instruction: 0x06000013
     398:	193f012e 	ldmdbne	pc!, {r1, r2, r3, r5, r8}	; <UNPREDICTABLE>
     39c:	0b3a0e03 	bleq	e83bb0 <__bss_end__+0xe79d40>
     3a0:	19270b3b 	stmdbne	r7!, {r0, r1, r3, r4, r5, r8, r9, fp}
     3a4:	01111349 	tsteq	r1, r9, asr #6
     3a8:	18400612 	stmdane	r0, {r1, r4, r9, sl}^
     3ac:	01194296 			; <UNDEFINED> instruction: 0x01194296
     3b0:	07000013 	smladeq	r0, r3, r0, r0
     3b4:	08030005 	stmdaeq	r3, {r0, r2}
     3b8:	0b3b0b3a 	bleq	ec30a8 <__bss_end__+0xeb9238>
     3bc:	17021349 	strne	r1, [r2, -r9, asr #6]
     3c0:	15080000 	strne	r0, [r8, #-0]
     3c4:	49192701 	ldmdbmi	r9, {r0, r8, r9, sl, sp}
     3c8:	00130113 	andseq	r0, r3, r3, lsl r1
     3cc:	00050900 	andeq	r0, r5, r0, lsl #18
     3d0:	00001349 	andeq	r1, r0, r9, asr #6
     3d4:	0300340a 	movweq	r3, #1034	; 0x40a
     3d8:	3b0b3a0e 	blcc	2cec18 <__bss_end__+0x2c4da8>
     3dc:	3f13490b 	svccc	0x0013490b
     3e0:	00193c19 	andseq	r3, r9, r9, lsl ip
     3e4:	00340b00 	eorseq	r0, r4, r0, lsl #22
     3e8:	0b3a0e03 	bleq	e83bfc <__bss_end__+0xe79d8c>
     3ec:	13490b3b 	movtne	r0, #39739	; 0x9b3b
     3f0:	1802193f 	stmdane	r2, {r0, r1, r2, r3, r4, r5, r8, fp, ip}
     3f4:	01000000 	mrseq	r0, (UNDEF: 0)
     3f8:	0e250111 	mcreq	1, 1, r0, cr5, cr1, {0}
     3fc:	0e030b13 	vmoveq.32	d3[0], r0
     400:	01110e1b 	tsteq	r1, fp, lsl lr
     404:	17100612 			; <UNDEFINED> instruction: 0x17100612
     408:	24020000 	strcs	r0, [r2], #-0
     40c:	3e0b0b00 	vmlacc.f64	d0, d11, d0
     410:	0008030b 	andeq	r0, r8, fp, lsl #6
     414:	00240300 	eoreq	r0, r4, r0, lsl #6
     418:	0b3e0b0b 	bleq	f8304c <__bss_end__+0xf791dc>
     41c:	00000e03 	andeq	r0, r0, r3, lsl #28
     420:	0b000f04 	bleq	4038 <_start-0x3fc8>
     424:	0500000b 	streq	r0, [r0, #-11]
     428:	0b0b000f 	bleq	2c046c <__bss_end__+0x2b65fc>
     42c:	00001349 	andeq	r1, r0, r9, asr #6
     430:	49002606 	stmdbmi	r0, {r1, r2, r9, sl, sp}
     434:	07000013 	smladeq	r0, r3, r0, r0
     438:	0e030016 	mcreq	0, 0, r0, cr3, cr6, {0}
     43c:	0b3b0b3a 	bleq	ec312c <__bss_end__+0xeb92bc>
     440:	00001349 	andeq	r1, r0, r9, asr #6
     444:	03011308 	movweq	r1, #4872	; 0x1308
     448:	3a0b0b0e 	bcc	2c3088 <__bss_end__+0x2b9218>
     44c:	010b3b0b 	tsteq	fp, fp, lsl #22
     450:	09000013 	stmdbeq	r0, {r0, r1, r4}
     454:	0e03000d 	cdpeq	0, 0, cr0, cr3, cr13, {0}
     458:	0b381349 	bleq	e05184 <__bss_end__+0xdfb314>
     45c:	00001934 	andeq	r1, r0, r4, lsr r9
     460:	03012e0a 	movweq	r2, #7690	; 0x1e0a
     464:	3b0b3a0e 	blcc	2ceca4 <__bss_end__+0x2c4e34>
     468:	4919270b 	ldmdbmi	r9, {r0, r1, r3, r8, r9, sl, sp}
     46c:	12011113 	andne	r1, r1, #-1073741820	; 0xc0000004
     470:	97184006 	ldrls	r4, [r8, -r6]
     474:	13011942 	movwne	r1, #6466	; 0x1942
     478:	050b0000 	streq	r0, [fp, #-0]
     47c:	3a080300 	bcc	201084 <__bss_end__+0x1f7214>
     480:	490b3b0b 	stmdbmi	fp, {r0, r1, r3, r8, r9, fp, ip, sp}
     484:	00170213 	andseq	r0, r7, r3, lsl r2
     488:	012e0c00 	teqeq	lr, r0, lsl #24
     48c:	0b3a0803 	bleq	e824a0 <__bss_end__+0xe78630>
     490:	19270b3b 	stmdbne	r7!, {r0, r1, r3, r4, r5, r8, r9, fp}
     494:	01111349 	tsteq	r1, r9, asr #6
     498:	18400612 	stmdane	r0, {r1, r4, r9, sl}^
     49c:	01194297 			; <UNDEFINED> instruction: 0x01194297
     4a0:	0d000013 	stceq	0, cr0, [r0, #-76]	; 0xffffffb4
     4a4:	0e030005 	cdpeq	0, 0, cr0, cr3, cr5, {0}
     4a8:	0b3b0b3a 	bleq	ec3198 <__bss_end__+0xeb9328>
     4ac:	17021349 	strne	r1, [r2, -r9, asr #6]
     4b0:	050e0000 	streq	r0, [lr, #-0]
     4b4:	3a0e0300 	bcc	3810bc <__bss_end__+0x37724c>
     4b8:	490b3b0b 	stmdbmi	fp, {r0, r1, r3, r8, r9, fp, ip, sp}
     4bc:	00180213 	andseq	r0, r8, r3, lsl r2
     4c0:	00340f00 	eorseq	r0, r4, r0, lsl #30
     4c4:	0b3a0803 	bleq	e824d8 <__bss_end__+0xe78668>
     4c8:	13490b3b 	movtne	r0, #39739	; 0x9b3b
     4cc:	00001802 	andeq	r1, r0, r2, lsl #16
     4d0:	03003410 	movweq	r3, #1040	; 0x410
     4d4:	3b0b3a08 	blcc	2cecfc <__bss_end__+0x2c4e8c>
     4d8:	0213490b 	andseq	r4, r3, #180224	; 0x2c000
     4dc:	11000017 	tstne	r0, r7, lsl r0
     4e0:	0e030034 	mcreq	0, 0, r0, cr3, cr4, {1}
     4e4:	19341349 	ldmdbne	r4!, {r0, r3, r6, r8, r9, ip}
     4e8:	00001802 	andeq	r1, r0, r2, lsl #16
     4ec:	11010b12 	tstne	r1, r2, lsl fp
     4f0:	01061201 	tsteq	r6, r1, lsl #4
     4f4:	13000013 	movwne	r0, #19
     4f8:	0e030034 	mcreq	0, 0, r0, cr3, cr4, {1}
     4fc:	0b3b0b3a 	bleq	ec31ec <__bss_end__+0xeb937c>
     500:	17021349 	strne	r1, [r2, -r9, asr #6]
     504:	89140000 	ldmdbhi	r4, {}	; <UNPREDICTABLE>
     508:	11000182 	smlabbne	r0, r2, r1, r0
     50c:	00133101 	andseq	r3, r3, r1, lsl #2
     510:	82891500 	addhi	r1, r9, #0, 10
     514:	01110101 	tsteq	r1, r1, lsl #2
     518:	13011331 	movwne	r1, #4913	; 0x1331
     51c:	8a160000 	bhi	580524 <__bss_end__+0x5766b4>
     520:	02000182 	andeq	r0, r0, #-2147483616	; 0x80000020
     524:	18429118 	stmdane	r2, {r3, r4, r8, ip, pc}^
     528:	89170000 	ldmdbhi	r7, {}	; <UNPREDICTABLE>
     52c:	11010182 	smlabbne	r1, r2, r1, r0
     530:	00133101 	andseq	r3, r3, r1, lsl #2
     534:	01011800 	tsteq	r1, r0, lsl #16
     538:	13011349 	movwne	r1, #4937	; 0x1349
     53c:	21190000 	tstcs	r9, r0
     540:	2f134900 	svccs	0x00134900
     544:	1a00000b 	bne	578 <_start-0x7a88>
     548:	193f012e 	ldmdbne	pc!, {r1, r2, r3, r5, r8}	; <UNPREDICTABLE>
     54c:	0b3a0e03 	bleq	e83d60 <__bss_end__+0xe79ef0>
     550:	19270b3b 	stmdbne	r7!, {r0, r1, r3, r4, r5, r8, r9, fp}
     554:	06120111 			; <UNDEFINED> instruction: 0x06120111
     558:	42971840 	addsmi	r1, r7, #64, 16	; 0x400000
     55c:	00130119 	andseq	r0, r3, r9, lsl r1
     560:	01151b00 	tsteq	r5, r0, lsl #22
     564:	13491927 	movtne	r1, #39207	; 0x9927
     568:	00001301 	andeq	r1, r0, r1, lsl #6
     56c:	4900051c 	stmdbmi	r0, {r2, r3, r4, r8, sl}
     570:	1d000013 	stcne	0, cr0, [r0, #-76]	; 0xffffffb4
     574:	193f012e 	ldmdbne	pc!, {r1, r2, r3, r5, r8}	; <UNPREDICTABLE>
     578:	0b3a0e03 	bleq	e83d8c <__bss_end__+0xe79f1c>
     57c:	19270b3b 	stmdbne	r7!, {r0, r1, r3, r4, r5, r8, r9, fp}
     580:	01111349 	tsteq	r1, r9, asr #6
     584:	18400612 	stmdane	r0, {r1, r4, r9, sl}^
     588:	01194297 			; <UNDEFINED> instruction: 0x01194297
     58c:	1e000013 	mcrne	0, 0, r0, cr0, cr3, {0}
     590:	1755010b 	ldrbne	r0, [r5, -fp, lsl #2]
     594:	341f0000 	ldrcc	r0, [pc], #-0	; 59c <_start-0x7a64>
     598:	3a0e0300 	bcc	3811a0 <__bss_end__+0x377330>
     59c:	490b3b0b 	stmdbmi	fp, {r0, r1, r3, r8, r9, fp, ip, sp}
     5a0:	3c193f13 	ldccc	15, cr3, [r9], {19}
     5a4:	20000019 	andcs	r0, r0, r9, lsl r0
     5a8:	193f002e 	ldmdbne	pc!, {r1, r2, r3, r5}	; <UNPREDICTABLE>
     5ac:	0b3a0e03 	bleq	e83dc0 <__bss_end__+0xe79f50>
     5b0:	19270b3b 	stmdbne	r7!, {r0, r1, r3, r4, r5, r8, r9, fp}
     5b4:	0000193c 	andeq	r1, r0, ip, lsr r9
     5b8:	3f012e21 	svccc	0x00012e21
     5bc:	3a0e0319 	bcc	381228 <__bss_end__+0x3773b8>
     5c0:	270b3b0b 	strcs	r3, [fp, -fp, lsl #22]
     5c4:	3c134919 	ldccc	9, cr4, [r3], {25}
     5c8:	00130119 	andseq	r0, r3, r9, lsl r1
     5cc:	00182200 	andseq	r2, r8, r0, lsl #4
     5d0:	01000000 	mrseq	r0, (UNDEF: 0)
     5d4:	0e250111 	mcreq	1, 1, r0, cr5, cr1, {0}
     5d8:	0e030b13 	vmoveq.32	d3[0], r0
     5dc:	01110e1b 	tsteq	r1, fp, lsl lr
     5e0:	17100612 			; <UNDEFINED> instruction: 0x17100612
     5e4:	24020000 	strcs	r0, [r2], #-0
     5e8:	3e0b0b00 	vmlacc.f64	d0, d11, d0
     5ec:	0008030b 	andeq	r0, r8, fp, lsl #6
     5f0:	00240300 	eoreq	r0, r4, r0, lsl #6
     5f4:	0b3e0b0b 	bleq	f83228 <__bss_end__+0xf793b8>
     5f8:	00000e03 	andeq	r0, r0, r3, lsl #28
     5fc:	0b000f04 	bleq	4214 <_start-0x3dec>
     600:	0013490b 	andseq	r4, r3, fp, lsl #18
     604:	00260500 	eoreq	r0, r6, r0, lsl #10
     608:	00001349 	andeq	r1, r0, r9, asr #6
     60c:	3f012e06 	svccc	0x00012e06
     610:	3a0e0319 	bcc	38127c <__bss_end__+0x37740c>
     614:	270b3b0b 	strcs	r3, [fp, -fp, lsl #22]
     618:	12011119 	andne	r1, r1, #1073741830	; 0x40000006
     61c:	97184006 	ldrls	r4, [r8, -r6]
     620:	13011942 	movwne	r1, #6466	; 0x1942
     624:	89070000 	stmdbhi	r7, {}	; <UNPREDICTABLE>
     628:	11010182 	smlabbne	r1, r2, r1, r0
     62c:	00130101 	andseq	r0, r3, r1, lsl #2
     630:	828a0800 	addhi	r0, sl, #0, 16
     634:	18020001 	stmdane	r2, {r0}
     638:	00184291 	mulseq	r8, r1, r2
     63c:	82890900 	addhi	r0, r9, #0, 18
     640:	01110101 	tsteq	r1, r1, lsl #2
     644:	13011331 	movwne	r1, #4913	; 0x1331
     648:	890a0000 	stmdbhi	sl, {}	; <UNPREDICTABLE>
     64c:	11000182 	smlabbne	r0, r2, r1, r0
     650:	00133101 	andseq	r3, r3, r1, lsl #2
     654:	01150b00 	tsteq	r5, r0, lsl #22
     658:	13491927 	movtne	r1, #39207	; 0x9927
     65c:	00001301 	andeq	r1, r0, r1, lsl #6
     660:	4900050c 	stmdbmi	r0, {r2, r3, r8, sl}
     664:	0d000013 	stceq	0, cr0, [r0, #-76]	; 0xffffffb4
     668:	0e030034 	mcreq	0, 0, r0, cr3, cr4, {1}
     66c:	0b3b0b3a 	bleq	ec335c <__bss_end__+0xeb94ec>
     670:	193f1349 	ldmdbne	pc!, {r0, r3, r6, r8, r9, ip}	; <UNPREDICTABLE>
     674:	0000193c 	andeq	r1, r0, ip, lsr r9
     678:	3f012e0e 	svccc	0x00012e0e
     67c:	3a0e0319 	bcc	3812e8 <__bss_end__+0x377478>
     680:	270b3b0b 	strcs	r3, [fp, -fp, lsl #22]
     684:	01193c19 	tsteq	r9, r9, lsl ip
     688:	0f000013 	svceq	0x00000013
     68c:	193f002e 	ldmdbne	pc!, {r1, r2, r3, r5}	; <UNPREDICTABLE>
     690:	0b3a0e03 	bleq	e83ea4 <__bss_end__+0xe7a034>
     694:	19270b3b 	stmdbne	r7!, {r0, r1, r3, r4, r5, r8, r9, fp}
     698:	0000193c 	andeq	r1, r0, ip, lsr r9
     69c:	01110100 	tsteq	r1, r0, lsl #2
     6a0:	0b130e25 	bleq	4c3f3c <__bss_end__+0x4ba0cc>
     6a4:	0e1b0e03 	cdpeq	14, 1, cr0, cr11, cr3, {0}
     6a8:	06120111 			; <UNDEFINED> instruction: 0x06120111
     6ac:	00001710 	andeq	r1, r0, r0, lsl r7
     6b0:	0b002402 	bleq	96c0 <memset+0x18>
     6b4:	030b3e0b 	movweq	r3, #48651	; 0xbe0b
     6b8:	03000008 	movweq	r0, #8
     6bc:	0b0b0024 	bleq	2c0754 <__bss_end__+0x2b68e4>
     6c0:	0e030b3e 	vmoveq.16	d3[0], r0
     6c4:	16040000 	strne	r0, [r4], -r0
     6c8:	3a0e0300 	bcc	3812d0 <__bss_end__+0x377460>
     6cc:	490b3b0b 	stmdbmi	fp, {r0, r1, r3, r8, r9, fp, ip, sp}
     6d0:	05000013 	streq	r0, [r0, #-19]
     6d4:	0b0b000f 	bleq	2c0718 <__bss_end__+0x2b68a8>
     6d8:	00001349 	andeq	r1, r0, r9, asr #6
     6dc:	49002606 	stmdbmi	r0, {r1, r2, r9, sl, sp}
     6e0:	07000013 	smladeq	r0, r3, r0, r0
     6e4:	0b0b0113 	bleq	2c0b38 <__bss_end__+0x2b6cc8>
     6e8:	0b3b0b3a 	bleq	ec33d8 <__bss_end__+0xeb9568>
     6ec:	00001301 	andeq	r1, r0, r1, lsl #6
     6f0:	03000d08 	movweq	r0, #3336	; 0xd08
     6f4:	3b0b3a08 	blcc	2cef1c <__bss_end__+0x2c50ac>
     6f8:	3813490b 	ldmdacc	r3, {r0, r1, r3, r8, fp, lr}
     6fc:	0900000b 	stmdbeq	r0, {r0, r1, r3}
     700:	0e03000d 	cdpeq	0, 0, cr0, cr3, cr13, {0}
     704:	0b3b0b3a 	bleq	ec33f4 <__bss_end__+0xeb9584>
     708:	0b381349 	bleq	e05434 <__bss_end__+0xdfb5c4>
     70c:	040a0000 	streq	r0, [sl], #-0
     710:	3a0b0b01 	bcc	2c331c <__bss_end__+0x2b94ac>
     714:	010b3b0b 	tsteq	fp, fp, lsl #22
     718:	0b000013 	bleq	76c <_start-0x7894>
     71c:	0e030028 	cdpeq	0, 0, cr0, cr3, cr8, {1}
     720:	00000d1c 	andeq	r0, r0, ip, lsl sp
     724:	03012e0c 	movweq	r2, #7692	; 0x1e0c
     728:	3b0b3a0e 	blcc	2cef68 <__bss_end__+0x2c50f8>
     72c:	4919270b 	ldmdbmi	r9, {r0, r1, r3, r8, r9, sl, sp}
     730:	12011113 	andne	r1, r1, #-1073741820	; 0xc0000004
     734:	97184006 	ldrls	r4, [r8, -r6]
     738:	13011942 	movwne	r1, #6466	; 0x1942
     73c:	050d0000 	streq	r0, [sp, #-0]
     740:	3a080300 	bcc	201348 <__bss_end__+0x1f74d8>
     744:	490b3b0b 	stmdbmi	fp, {r0, r1, r3, r8, r9, fp, ip, sp}
     748:	00170213 	andseq	r0, r7, r3, lsl r2
     74c:	82890e00 	addhi	r0, r9, #0, 28
     750:	01110101 	tsteq	r1, r1, lsl #2
     754:	00001331 	andeq	r1, r0, r1, lsr r3
     758:	01828a0f 	orreq	r8, r2, pc, lsl #20
     75c:	91180200 	tstls	r8, r0, lsl #4
     760:	00001842 	andeq	r1, r0, r2, asr #16
     764:	3f012e10 	svccc	0x00012e10
     768:	3a0e0319 	bcc	3813d4 <__bss_end__+0x377564>
     76c:	110b3b0b 	tstne	fp, fp, lsl #22
     770:	40061201 	andmi	r1, r6, r1, lsl #4
     774:	19429718 	stmdbne	r2, {r3, r4, r8, r9, sl, ip, pc}^
     778:	00001301 	andeq	r1, r0, r1, lsl #6
     77c:	03003411 	movweq	r3, #1041	; 0x411
     780:	3b0b3a0e 	blcc	2cefc0 <__bss_end__+0x2c5150>
     784:	3f13490b 	svccc	0x0013490b
     788:	00193c19 	andseq	r3, r9, r9, lsl ip
     78c:	002e1200 	eoreq	r1, lr, r0, lsl #4
     790:	0e03193f 	mcreq	9, 0, r1, cr3, cr15, {1}
     794:	0b3b0b3a 	bleq	ec3484 <__bss_end__+0xeb9614>
     798:	193c1927 	ldmdbne	ip!, {r0, r1, r2, r5, r8, fp, ip}
     79c:	34130000 	ldrcc	r0, [r3], #-0
     7a0:	3a080300 	bcc	2013a8 <__bss_end__+0x1f7538>
     7a4:	490b3b0b 	stmdbmi	fp, {r0, r1, r3, r8, r9, fp, ip, sp}
     7a8:	00170213 	andseq	r0, r7, r3, lsl r2
     7ac:	00341400 	eorseq	r1, r4, r0, lsl #8
     7b0:	0b3a0e03 	bleq	e83fc4 <__bss_end__+0xe7a154>
     7b4:	13490b3b 	movtne	r0, #39739	; 0x9b3b
     7b8:	89150000 	ldmdbhi	r5, {}	; <UNPREDICTABLE>
     7bc:	11000182 	smlabbne	r0, r2, r1, r0
     7c0:	00133101 	andseq	r3, r3, r1, lsl #2
     7c4:	82891600 	addhi	r1, r9, #0, 12
     7c8:	01110101 	tsteq	r1, r1, lsl #2
     7cc:	13011331 	movwne	r1, #4913	; 0x1331
     7d0:	34170000 	ldrcc	r0, [r7], #-0
     7d4:	3a0e0300 	bcc	3813dc <__bss_end__+0x37756c>
     7d8:	490b3b0b 	stmdbmi	fp, {r0, r1, r3, r8, r9, fp, ip, sp}
     7dc:	00180213 	andseq	r0, r8, r3, lsl r2
     7e0:	01151800 	tsteq	r5, r0, lsl #16
     7e4:	13491927 	movtne	r1, #39207	; 0x9927
     7e8:	00001301 	andeq	r1, r0, r1, lsl #6
     7ec:	49000519 	stmdbmi	r0, {r0, r3, r4, r8, sl}
     7f0:	1a000013 	bne	844 <_start-0x77bc>
     7f4:	193f012e 	ldmdbne	pc!, {r1, r2, r3, r5, r8}	; <UNPREDICTABLE>
     7f8:	0b3a0e03 	bleq	e8400c <__bss_end__+0xe7a19c>
     7fc:	19270b3b 	stmdbne	r7!, {r0, r1, r3, r4, r5, r8, r9, fp}
     800:	1301193c 	movwne	r1, #6460	; 0x193c
     804:	2e1b0000 	cdpcs	0, 1, cr0, cr11, cr0, {0}
     808:	03193f00 	tsteq	r9, #0, 30
     80c:	3b0b3a0e 	blcc	2cf04c <__bss_end__+0x2c51dc>
     810:	4919270b 	ldmdbmi	r9, {r0, r1, r3, r8, r9, sl, sp}
     814:	00193c13 	andseq	r3, r9, r3, lsl ip
     818:	012e1c00 	teqeq	lr, r0, lsl #24
     81c:	0e03193f 	mcreq	9, 0, r1, cr3, cr15, {1}
     820:	0b3b0b3a 	bleq	ec3510 <__bss_end__+0xeb96a0>
     824:	13491927 	movtne	r1, #39207	; 0x9927
     828:	1301193c 	movwne	r1, #6460	; 0x193c
     82c:	181d0000 	ldmdane	sp, {}	; <UNPREDICTABLE>
     830:	00000000 	andeq	r0, r0, r0
     834:	25011101 	strcs	r1, [r1, #-257]	; 0x101
     838:	030b130e 	movweq	r1, #45838	; 0xb30e
     83c:	550e1b0e 	strpl	r1, [lr, #-2830]	; 0xb0e
     840:	10011117 	andne	r1, r1, r7, lsl r1
     844:	02000017 	andeq	r0, r0, #23
     848:	0b0b0024 	bleq	2c08e0 <__bss_end__+0x2b6a70>
     84c:	08030b3e 	stmdaeq	r3, {r1, r2, r3, r4, r5, r8, r9, fp}
     850:	24030000 	strcs	r0, [r3], #-0
     854:	3e0b0b00 	vmlacc.f64	d0, d11, d0
     858:	000e030b 	andeq	r0, lr, fp, lsl #6
     85c:	012e0400 	teqeq	lr, r0, lsl #8
     860:	0e03193f 	mcreq	9, 0, r1, cr3, cr15, {1}
     864:	0b3b0b3a 	bleq	ec3554 <__bss_end__+0xeb96e4>
     868:	13491927 	movtne	r1, #39207	; 0x9927
     86c:	06120111 			; <UNDEFINED> instruction: 0x06120111
     870:	42971840 	addsmi	r1, r7, #64, 16	; 0x400000
     874:	00130119 	andseq	r0, r3, r9, lsl r1
     878:	00340500 	eorseq	r0, r4, r0, lsl #10
     87c:	0b3a0e03 	bleq	e84090 <__bss_end__+0xe7a220>
     880:	13490b3b 	movtne	r0, #39739	; 0x9b3b
     884:	00001702 	andeq	r1, r0, r2, lsl #14
     888:	3f012e06 	svccc	0x00012e06
     88c:	3a0e0319 	bcc	3814f8 <__bss_end__+0x377688>
     890:	270b3b0b 	strcs	r3, [fp, -fp, lsl #22]
     894:	12011119 	andne	r1, r1, #1073741830	; 0x40000006
     898:	97184006 	ldrls	r4, [r8, -r6]
     89c:	13011942 	movwne	r1, #6466	; 0x1942
     8a0:	34070000 	strcc	r0, [r7], #-0
     8a4:	3a0e0300 	bcc	3814ac <__bss_end__+0x37763c>
     8a8:	490b3b0b 	stmdbmi	fp, {r0, r1, r3, r8, r9, fp, ip, sp}
     8ac:	00061c13 	andeq	r1, r6, r3, lsl ip
     8b0:	00340800 	eorseq	r0, r4, r0, lsl #16
     8b4:	0b3a0e03 	bleq	e840c8 <__bss_end__+0xe7a258>
     8b8:	13490b3b 	movtne	r0, #39739	; 0x9b3b
     8bc:	00000b1c 	andeq	r0, r0, ip, lsl fp
     8c0:	01828909 	orreq	r8, r2, r9, lsl #18
     8c4:	31011100 	mrscc	r1, (UNDEF: 17)
     8c8:	0a000013 	beq	91c <_start-0x76e4>
     8cc:	01018289 	smlabbeq	r1, r9, r2, r8
     8d0:	13310111 	teqne	r1, #1073741828	; 0x40000004
     8d4:	00001301 	andeq	r1, r0, r1, lsl #6
     8d8:	01828a0b 	orreq	r8, r2, fp, lsl #20
     8dc:	91180200 	tstls	r8, r0, lsl #4
     8e0:	00001842 	andeq	r1, r0, r2, asr #16
     8e4:	0182890c 	orreq	r8, r2, ip, lsl #18
     8e8:	31011101 	tstcc	r1, r1, lsl #2
     8ec:	0d000013 	stceq	0, cr0, [r0, #-76]	; 0xffffffb4
     8f0:	13490026 	movtne	r0, #36902	; 0x9026
     8f4:	2e0e0000 	cdpcs	0, 0, cr0, cr14, cr0, {0}
     8f8:	03193f01 	tsteq	r9, #1, 30
     8fc:	3b0b3a0e 	blcc	2cf13c <__bss_end__+0x2c52cc>
     900:	3c19270b 	ldccc	7, cr2, [r9], {11}
     904:	00130119 	andseq	r0, r3, r9, lsl r1
     908:	00050f00 	andeq	r0, r5, r0, lsl #30
     90c:	00001349 	andeq	r1, r0, r9, asr #6
     910:	3f012e10 	svccc	0x00012e10
     914:	3a0e0319 	bcc	381580 <__bss_end__+0x377710>
     918:	270b3b0b 	strcs	r3, [fp, -fp, lsl #22]
     91c:	00193c19 	andseq	r3, r9, r9, lsl ip
     920:	11010000 	mrsne	r0, (UNDEF: 1)
     924:	130e2501 	movwne	r2, #58625	; 0xe501
     928:	1b0e030b 	blne	38155c <__bss_end__+0x3776ec>
     92c:	1201110e 	andne	r1, r1, #-2147483645	; 0x80000003
     930:	00171006 	andseq	r1, r7, r6
     934:	00240200 	eoreq	r0, r4, r0, lsl #4
     938:	0b3e0b0b 	bleq	f8356c <__bss_end__+0xf796fc>
     93c:	00000803 	andeq	r0, r0, r3, lsl #16
     940:	0b002403 	bleq	9954 <__FUNCTION__.4344+0xc>
     944:	030b3e0b 	movweq	r3, #48651	; 0xbe0b
     948:	0400000e 	streq	r0, [r0], #-14
     94c:	193f012e 	ldmdbne	pc!, {r1, r2, r3, r5, r8}	; <UNPREDICTABLE>
     950:	0b3a0e03 	bleq	e84164 <__bss_end__+0xe7a2f4>
     954:	19270b3b 	stmdbne	r7!, {r0, r1, r3, r4, r5, r8, r9, fp}
     958:	06120111 			; <UNDEFINED> instruction: 0x06120111
     95c:	42971840 	addsmi	r1, r7, #64, 16	; 0x400000
     960:	00130119 	andseq	r0, r3, r9, lsl r1
     964:	00050500 	andeq	r0, r5, r0, lsl #10
     968:	0b3a0e03 	bleq	e8417c <__bss_end__+0xe7a30c>
     96c:	13490b3b 	movtne	r0, #39739	; 0x9b3b
     970:	00001702 	andeq	r1, r0, r2, lsl #14
     974:	3f012e06 	svccc	0x00012e06
     978:	3a0e0319 	bcc	3815e4 <__bss_end__+0x377774>
     97c:	270b3b0b 	strcs	r3, [fp, -fp, lsl #22]
     980:	11134919 	tstne	r3, r9, lsl r9
     984:	40061201 	andmi	r1, r6, r1, lsl #4
     988:	19429718 	stmdbne	r2, {r3, r4, r8, r9, sl, ip, pc}^
     98c:	00001301 	andeq	r1, r0, r1, lsl #6
     990:	01828907 	orreq	r8, r2, r7, lsl #18
     994:	31011101 	tstcc	r1, r1, lsl #2
     998:	08000013 	stmdaeq	r0, {r0, r1, r4}
     99c:	0001828a 	andeq	r8, r1, sl, lsl #5
     9a0:	42911802 	addsmi	r1, r1, #131072	; 0x20000
     9a4:	09000018 	stmdbeq	r0, {r3, r4}
     9a8:	08030034 	stmdaeq	r3, {r2, r4, r5}
     9ac:	0b3b0b3a 	bleq	ec369c <__bss_end__+0xeb982c>
     9b0:	18021349 	stmdane	r2, {r0, r3, r6, r8, r9, ip}
     9b4:	890a0000 	stmdbhi	sl, {}	; <UNPREDICTABLE>
     9b8:	11000182 	smlabbne	r0, r2, r1, r0
     9bc:	00133101 	andseq	r3, r3, r1, lsl #2
     9c0:	00050b00 	andeq	r0, r5, r0, lsl #22
     9c4:	0b3a0803 	bleq	e829d8 <__bss_end__+0xe78b68>
     9c8:	13490b3b 	movtne	r0, #39739	; 0x9b3b
     9cc:	00001702 	andeq	r1, r0, r2, lsl #14
     9d0:	11010b0c 	tstne	r1, ip, lsl #22
     9d4:	01061201 	tsteq	r6, r1, lsl #4
     9d8:	0d000013 	stceq	0, cr0, [r0, #-76]	; 0xffffffb4
     9dc:	08030034 	stmdaeq	r3, {r2, r4, r5}
     9e0:	0b3b0b3a 	bleq	ec36d0 <__bss_end__+0xeb9860>
     9e4:	17021349 	strne	r1, [r2, -r9, asr #6]
     9e8:	2e0e0000 	cdpcs	0, 0, cr0, cr14, cr0, {0}
     9ec:	03193f01 	tsteq	r9, #1, 30
     9f0:	3b0b3a0e 	blcc	2cf230 <__bss_end__+0x2c53c0>
     9f4:	4919270b 	ldmdbmi	r9, {r0, r1, r3, r8, r9, sl, sp}
     9f8:	00193c13 	andseq	r3, r9, r3, lsl ip
     9fc:	00050f00 	andeq	r0, r5, r0, lsl #30
     a00:	00001349 	andeq	r1, r0, r9, asr #6
     a04:	01110100 	tsteq	r1, r0, lsl #2
     a08:	0b130e25 	bleq	4c42a4 <__bss_end__+0x4ba434>
     a0c:	0e1b0e03 	cdpeq	14, 1, cr0, cr11, cr3, {0}
     a10:	06120111 			; <UNDEFINED> instruction: 0x06120111
     a14:	00001710 	andeq	r1, r0, r0, lsl r7
     a18:	0b002402 	bleq	9a28 <__bss_start__+0x8>
     a1c:	030b3e0b 	movweq	r3, #48651	; 0xbe0b
     a20:	03000008 	movweq	r0, #8
     a24:	0b0b0024 	bleq	2c0abc <__bss_end__+0x2b6c4c>
     a28:	0e030b3e 	vmoveq.16	d3[0], r0
     a2c:	16040000 	strne	r0, [r4], -r0
     a30:	3a0e0300 	bcc	381638 <__bss_end__+0x3777c8>
     a34:	490b3b0b 	stmdbmi	fp, {r0, r1, r3, r8, r9, fp, ip, sp}
     a38:	05000013 	streq	r0, [r0, #-19]
     a3c:	0b0b000f 	bleq	2c0a80 <__bss_end__+0x2b6c10>
     a40:	0f060000 	svceq	0x00060000
     a44:	490b0b00 	stmdbmi	fp, {r8, r9, fp}
     a48:	07000013 	smladeq	r0, r3, r0, r0
     a4c:	13490026 	movtne	r0, #36902	; 0x9026
     a50:	13080000 	movwne	r0, #32768	; 0x8000
     a54:	3a0b0b01 	bcc	2c3660 <__bss_end__+0x2b97f0>
     a58:	010b3b0b 	tsteq	fp, fp, lsl #22
     a5c:	09000013 	stmdbeq	r0, {r0, r1, r4}
     a60:	0803000d 	stmdaeq	r3, {r0, r2, r3}
     a64:	0b3b0b3a 	bleq	ec3754 <__bss_end__+0xeb98e4>
     a68:	0b381349 	bleq	e05794 <__bss_end__+0xdfb924>
     a6c:	0d0a0000 	stceq	0, cr0, [sl, #-0]
     a70:	3a0e0300 	bcc	381678 <__bss_end__+0x377808>
     a74:	490b3b0b 	stmdbmi	fp, {r0, r1, r3, r8, r9, fp, ip, sp}
     a78:	000b3813 	andeq	r3, fp, r3, lsl r8
     a7c:	01130b00 	tsteq	r3, r0, lsl #22
     a80:	0b0b0e03 	bleq	2c4294 <__bss_end__+0x2ba424>
     a84:	0b3b0b3a 	bleq	ec3774 <__bss_end__+0xeb9904>
     a88:	00001301 	andeq	r1, r0, r1, lsl #6
     a8c:	03000d0c 	movweq	r0, #3340	; 0xd0c
     a90:	3813490e 	ldmdacc	r3, {r1, r2, r3, r8, fp, lr}
     a94:	0019340b 	andseq	r3, r9, fp, lsl #8
     a98:	012e0d00 	teqeq	lr, r0, lsl #26
     a9c:	0b3a0e03 	bleq	e842b0 <__bss_end__+0xe7a440>
     aa0:	19270b3b 	stmdbne	r7!, {r0, r1, r3, r4, r5, r8, r9, fp}
     aa4:	13010b20 	movwne	r0, #6944	; 0x1b20
     aa8:	050e0000 	streq	r0, [lr, #-0]
     aac:	3a0e0300 	bcc	3816b4 <__bss_end__+0x377844>
     ab0:	490b3b0b 	stmdbmi	fp, {r0, r1, r3, r8, r9, fp, ip, sp}
     ab4:	0f000013 	svceq	0x00000013
     ab8:	08030005 	stmdaeq	r3, {r0, r2}
     abc:	0b3b0b3a 	bleq	ec37ac <__bss_end__+0xeb993c>
     ac0:	00001349 	andeq	r1, r0, r9, asr #6
     ac4:	00010b10 	andeq	r0, r1, r0, lsl fp
     ac8:	00341100 	eorseq	r1, r4, r0, lsl #2
     acc:	0b3a0e03 	bleq	e842e0 <__bss_end__+0xe7a470>
     ad0:	13490b3b 	movtne	r0, #39739	; 0x9b3b
     ad4:	2e120000 	cdpcs	0, 1, cr0, cr2, cr0, {0}
     ad8:	03193f01 	tsteq	r9, #1, 30
     adc:	3b0b3a0e 	blcc	2cf31c <__bss_end__+0x2c54ac>
     ae0:	1119270b 	tstne	r9, fp, lsl #14
     ae4:	40061201 	andmi	r1, r6, r1, lsl #4
     ae8:	19429718 	stmdbne	r2, {r3, r4, r8, r9, sl, ip, pc}^
     aec:	00001301 	andeq	r1, r0, r1, lsl #6
     af0:	03000513 	movweq	r0, #1299	; 0x513
     af4:	3b0b3a0e 	blcc	2cf334 <__bss_end__+0x2c54c4>
     af8:	0213490b 	andseq	r4, r3, #180224	; 0x2c000
     afc:	14000017 	strne	r0, [r0], #-23
     b00:	08030005 	stmdaeq	r3, {r0, r2}
     b04:	0b3b0b3a 	bleq	ec37f4 <__bss_end__+0xeb9984>
     b08:	17021349 	strne	r1, [r2, -r9, asr #6]
     b0c:	34150000 	ldrcc	r0, [r5], #-0
     b10:	3a080300 	bcc	201718 <__bss_end__+0x1f78a8>
     b14:	490b3b0b 	stmdbmi	fp, {r0, r1, r3, r8, r9, fp, ip, sp}
     b18:	00180213 	andseq	r0, r8, r3, lsl r2
     b1c:	00341600 	eorseq	r1, r4, r0, lsl #12
     b20:	0b3a0803 	bleq	e82b34 <__bss_end__+0xe78cc4>
     b24:	13490b3b 	movtne	r0, #39739	; 0x9b3b
     b28:	00001702 	andeq	r1, r0, r2, lsl #14
     b2c:	11010b17 	tstne	r1, r7, lsl fp
     b30:	01061201 	tsteq	r6, r1, lsl #4
     b34:	18000013 	stmdane	r0, {r0, r1, r4}
     b38:	0e030034 	mcreq	0, 0, r0, cr3, cr4, {1}
     b3c:	0b3b0b3a 	bleq	ec382c <__bss_end__+0xeb99bc>
     b40:	18021349 	stmdane	r2, {r0, r3, r6, r8, r9, ip}
     b44:	1d190000 	ldcne	0, cr0, [r9, #-0]
     b48:	11133101 	tstne	r3, r1, lsl #2
     b4c:	58061201 	stmdapl	r6, {r0, r9, ip}
     b50:	010b590b 	tsteq	fp, fp, lsl #18
     b54:	1a000013 	bne	ba8 <_start-0x7458>
     b58:	13310005 	teqne	r1, #5
     b5c:	00001702 	andeq	r1, r0, r2, lsl #14
     b60:	3100051b 	tstcc	r0, fp, lsl r5
     b64:	00180213 	andseq	r0, r8, r3, lsl r2
     b68:	00051c00 	andeq	r1, r5, r0, lsl #24
     b6c:	0b1c1331 	bleq	705838 <__bss_end__+0x6fb9c8>
     b70:	0b1d0000 	bleq	740b78 <__bss_end__+0x736d08>
     b74:	12011101 	andne	r1, r1, #1073741824	; 0x40000000
     b78:	1e000006 	cdpne	0, 0, cr0, cr0, cr6, {0}
     b7c:	13310034 	teqne	r1, #52	; 0x34
     b80:	00001702 	andeq	r1, r0, r2, lsl #14
     b84:	0182891f 	orreq	r8, r2, pc, lsl r9
     b88:	31011101 	tstcc	r1, r1, lsl #2
     b8c:	20000013 	andcs	r0, r0, r3, lsl r0
     b90:	0001828a 	andeq	r8, r1, sl, lsl #5
     b94:	42911802 	addsmi	r1, r1, #131072	; 0x20000
     b98:	21000018 	tstcs	r0, r8, lsl r0
     b9c:	1331011d 	teqne	r1, #1073741831	; 0x40000007
     ba0:	06120111 			; <UNDEFINED> instruction: 0x06120111
     ba4:	0b590b58 	bleq	164390c <__bss_end__+0x1639a9c>
     ba8:	2e220000 	cdpcs	0, 2, cr0, cr2, cr0, {0}
     bac:	3a0e0301 	bcc	3817b8 <__bss_end__+0x377948>
     bb0:	270b3b0b 	strcs	r3, [fp, -fp, lsl #22]
     bb4:	20134919 	andscs	r4, r3, r9, lsl r9
     bb8:	0013010b 	andseq	r0, r3, fp, lsl #2
     bbc:	012e2300 	teqeq	lr, r0, lsl #6
     bc0:	0e03193f 	mcreq	9, 0, r1, cr3, cr15, {1}
     bc4:	0b3b0b3a 	bleq	ec38b4 <__bss_end__+0xeb9a44>
     bc8:	13491927 	movtne	r1, #39207	; 0x9927
     bcc:	06120111 			; <UNDEFINED> instruction: 0x06120111
     bd0:	42971840 	addsmi	r1, r7, #64, 16	; 0x400000
     bd4:	00130119 	andseq	r0, r3, r9, lsl r1
     bd8:	82892400 	addhi	r2, r9, #0, 8
     bdc:	01110001 	tsteq	r1, r1
     be0:	00001331 	andeq	r1, r0, r1, lsr r3
     be4:	01828925 	orreq	r8, r2, r5, lsr #18
     be8:	31011101 	tstcc	r1, r1, lsl #2
     bec:	00130113 	andseq	r0, r3, r3, lsl r1
     bf0:	00342600 	eorseq	r2, r4, r0, lsl #12
     bf4:	0b3a0e03 	bleq	e84408 <__bss_end__+0xe7a598>
     bf8:	13490b3b 	movtne	r0, #39739	; 0x9b3b
     bfc:	00001702 	andeq	r1, r0, r2, lsl #14
     c00:	31000527 	tstcc	r0, r7, lsr #10
     c04:	28000013 	stmdacs	r0, {r0, r1, r4}
     c08:	0e030005 	cdpeq	0, 0, cr0, cr3, cr5, {0}
     c0c:	0b3b0b3a 	bleq	ec38fc <__bss_end__+0xeb9a8c>
     c10:	18021349 	stmdane	r2, {r0, r3, r6, r8, r9, ip}
     c14:	34290000 	strtcc	r0, [r9], #-0
     c18:	490e0300 	stmdbmi	lr, {r8, r9}
     c1c:	02193413 	andseq	r3, r9, #318767104	; 0x13000000
     c20:	2a000018 	bcs	c88 <_start-0x7378>
     c24:	13490101 	movtne	r0, #37121	; 0x9101
     c28:	00001301 	andeq	r1, r0, r1, lsl #6
     c2c:	4900212b 	stmdbmi	r0, {r0, r1, r3, r5, r8, sp}
     c30:	000b2f13 	andeq	r2, fp, r3, lsl pc
     c34:	00342c00 	eorseq	r2, r4, r0, lsl #24
     c38:	0b3a0803 	bleq	e82c4c <__bss_end__+0xe78ddc>
     c3c:	13490b3b 	movtne	r0, #39739	; 0x9b3b
     c40:	0000061c 	andeq	r0, r0, ip, lsl r6
     c44:	0300342d 	movweq	r3, #1069	; 0x42d
     c48:	3b0b3a08 	blcc	2cf470 <__bss_end__+0x2c5600>
     c4c:	1c13490b 	ldcne	9, cr4, [r3], {11}
     c50:	2e00000b 	cdpcs	0, 0, cr0, cr0, cr11, {0}
     c54:	08030005 	stmdaeq	r3, {r0, r2}
     c58:	0b3b0b3a 	bleq	ec3948 <__bss_end__+0xeb9ad8>
     c5c:	18021349 	stmdane	r2, {r0, r3, r6, r8, r9, ip}
     c60:	182f0000 	stmdane	pc!, {}	; <UNPREDICTABLE>
     c64:	30000000 	andcc	r0, r0, r0
     c68:	13490021 	movtne	r0, #36897	; 0x9021
     c6c:	0000052f 	andeq	r0, r0, pc, lsr #10
     c70:	3f012e31 	svccc	0x00012e31
     c74:	3a0e0319 	bcc	3818e0 <__bss_end__+0x377a70>
     c78:	270b3b0b 	strcs	r3, [fp, -fp, lsl #22]
     c7c:	01193c19 	tsteq	r9, r9, lsl ip
     c80:	32000013 	andcc	r0, r0, #19
     c84:	13490005 	movtne	r0, #36869	; 0x9005
     c88:	2e330000 	cdpcs	0, 3, cr0, cr3, cr0, {0}
     c8c:	03193f00 	tsteq	r9, #0, 30
     c90:	3b0b3a0e 	blcc	2cf4d0 <__bss_end__+0x2c5660>
     c94:	4919270b 	ldmdbmi	r9, {r0, r1, r3, r8, r9, sl, sp}
     c98:	00193c13 	andseq	r3, r9, r3, lsl ip
     c9c:	012e3400 	teqeq	lr, r0, lsl #8
     ca0:	0e03193f 	mcreq	9, 0, r1, cr3, cr15, {1}
     ca4:	0b3b0b3a 	bleq	ec3994 <__bss_end__+0xeb9b24>
     ca8:	13491927 	movtne	r1, #39207	; 0x9927
     cac:	1301193c 	movwne	r1, #6460	; 0x193c
     cb0:	2e350000 	cdpcs	0, 3, cr0, cr5, cr0, {0}
     cb4:	03193f00 	tsteq	r9, #0, 30
     cb8:	3b0b3a0e 	blcc	2cf4f8 <__bss_end__+0x2c5688>
     cbc:	3c19270b 	ldccc	7, cr2, [r9], {11}
     cc0:	36000019 			; <UNDEFINED> instruction: 0x36000019
     cc4:	193f012e 	ldmdbne	pc!, {r1, r2, r3, r5, r8}	; <UNPREDICTABLE>
     cc8:	0b3a0e03 	bleq	e844dc <__bss_end__+0xe7a66c>
     ccc:	19270b3b 	stmdbne	r7!, {r0, r1, r3, r4, r5, r8, r9, fp}
     cd0:	193c1349 	ldmdbne	ip!, {r0, r3, r6, r8, r9, ip}
     cd4:	01000000 	mrseq	r0, (UNDEF: 0)
     cd8:	0e250111 	mcreq	1, 1, r0, cr5, cr1, {0}
     cdc:	0e030b13 	vmoveq.32	d3[0], r0
     ce0:	01110e1b 	tsteq	r1, fp, lsl lr
     ce4:	17100612 			; <UNDEFINED> instruction: 0x17100612
     ce8:	24020000 	strcs	r0, [r2], #-0
     cec:	3e0b0b00 	vmlacc.f64	d0, d11, d0
     cf0:	000e030b 	andeq	r0, lr, fp, lsl #6
     cf4:	00240300 	eoreq	r0, r4, r0, lsl #6
     cf8:	0b3e0b0b 	bleq	f8392c <__bss_end__+0xf79abc>
     cfc:	00000803 	andeq	r0, r0, r3, lsl #16
     d00:	0b010404 	bleq	41d18 <__bss_end__+0x37ea8>
     d04:	3b0b3a0b 	blcc	2cf538 <__bss_end__+0x2c56c8>
     d08:	0013010b 	andseq	r0, r3, fp, lsl #2
     d0c:	00280500 	eoreq	r0, r8, r0, lsl #10
     d10:	0d1c0e03 	ldceq	14, cr0, [ip, #-12]
     d14:	16060000 	strne	r0, [r6], -r0
     d18:	3a0e0300 	bcc	381920 <__bss_end__+0x377ab0>
     d1c:	490b3b0b 	stmdbmi	fp, {r0, r1, r3, r8, r9, fp, ip, sp}
     d20:	07000013 	smladeq	r0, r3, r0, r0
     d24:	193f012e 	ldmdbne	pc!, {r1, r2, r3, r5, r8}	; <UNPREDICTABLE>
     d28:	0b3a0e03 	bleq	e8453c <__bss_end__+0xe7a6cc>
     d2c:	19270b3b 	stmdbne	r7!, {r0, r1, r3, r4, r5, r8, r9, fp}
     d30:	06120111 			; <UNDEFINED> instruction: 0x06120111
     d34:	42971840 	addsmi	r1, r7, #64, 16	; 0x400000
     d38:	00130119 	andseq	r0, r3, r9, lsl r1
     d3c:	00050800 	andeq	r0, r5, r0, lsl #16
     d40:	0b3a0803 	bleq	e82d54 <__bss_end__+0xe78ee4>
     d44:	13490b3b 	movtne	r0, #39739	; 0x9b3b
     d48:	00001702 	andeq	r1, r0, r2, lsl #14
     d4c:	03003409 	movweq	r3, #1033	; 0x409
     d50:	3b0b3a0e 	blcc	2cf590 <__bss_end__+0x2c5720>
     d54:	0213490b 	andseq	r4, r3, #180224	; 0x2c000
     d58:	0a000017 	beq	dbc <_start-0x7244>
     d5c:	01018289 	smlabbeq	r1, r9, r2, r8
     d60:	13310111 	teqne	r1, #1073741828	; 0x40000004
     d64:	00001301 	andeq	r1, r0, r1, lsl #6
     d68:	01828a0b 	orreq	r8, r2, fp, lsl #20
     d6c:	91180200 	tstls	r8, r0, lsl #4
     d70:	00001842 	andeq	r1, r0, r2, asr #16
     d74:	0182890c 	orreq	r8, r2, ip, lsl #18
     d78:	31011101 	tstcc	r1, r1, lsl #2
     d7c:	0d000013 	stceq	0, cr0, [r0, #-76]	; 0xffffffb4
     d80:	0b0b000f 	bleq	2c0dc4 <__bss_end__+0x2b6f54>
     d84:	00001349 	andeq	r1, r0, r9, asr #6
     d88:	4900350e 	stmdbmi	r0, {r1, r2, r3, r8, sl, ip, sp}
     d8c:	0f000013 	svceq	0x00000013
     d90:	193f012e 	ldmdbne	pc!, {r1, r2, r3, r5, r8}	; <UNPREDICTABLE>
     d94:	0b3a0e03 	bleq	e845a8 <__bss_end__+0xe7a738>
     d98:	19270b3b 	stmdbne	r7!, {r0, r1, r3, r4, r5, r8, r9, fp}
     d9c:	01111349 	tsteq	r1, r9, asr #6
     da0:	18400612 	stmdane	r0, {r1, r4, r9, sl}^
     da4:	01194297 			; <UNDEFINED> instruction: 0x01194297
     da8:	10000013 	andne	r0, r0, r3, lsl r0
     dac:	08030034 	stmdaeq	r3, {r2, r4, r5}
     db0:	0b3b0b3a 	bleq	ec3aa0 <__bss_end__+0xeb9c30>
     db4:	17021349 	strne	r1, [r2, -r9, asr #6]
     db8:	89110000 	ldmdbhi	r1, {}	; <UNPREDICTABLE>
     dbc:	11000182 	smlabbne	r0, r2, r1, r0
     dc0:	00133101 	andseq	r3, r3, r1, lsl #2
     dc4:	00051200 	andeq	r1, r5, r0, lsl #4
     dc8:	0b3a0e03 	bleq	e845dc <__bss_end__+0xe7a76c>
     dcc:	13490b3b 	movtne	r0, #39739	; 0x9b3b
     dd0:	00001702 	andeq	r1, r0, r2, lsl #14
     dd4:	3f012e13 	svccc	0x00012e13
     dd8:	3a0e0319 	bcc	381a44 <__bss_end__+0x377bd4>
     ddc:	27053b0b 	strcs	r3, [r5, -fp, lsl #22]
     de0:	11134919 	tstne	r3, r9, lsl r9
     de4:	40061201 	andmi	r1, r6, r1, lsl #4
     de8:	19429718 	stmdbne	r2, {r3, r4, r8, r9, sl, ip, pc}^
     dec:	00001301 	andeq	r1, r0, r1, lsl #6
     df0:	03000514 	movweq	r0, #1300	; 0x514
     df4:	3b0b3a0e 	blcc	2cf634 <__bss_end__+0x2c57c4>
     df8:	02134905 	andseq	r4, r3, #81920	; 0x14000
     dfc:	15000017 	strne	r0, [r0, #-23]
     e00:	193f012e 	ldmdbne	pc!, {r1, r2, r3, r5, r8}	; <UNPREDICTABLE>
     e04:	0b3a0e03 	bleq	e84618 <__bss_end__+0xe7a7a8>
     e08:	1927053b 	stmdbne	r7!, {r0, r1, r3, r4, r5, r8, sl}
     e0c:	06120111 			; <UNDEFINED> instruction: 0x06120111
     e10:	42971840 	addsmi	r1, r7, #64, 16	; 0x400000
     e14:	00130119 	andseq	r0, r3, r9, lsl r1
     e18:	00051600 	andeq	r1, r5, r0, lsl #12
     e1c:	0b3a0803 	bleq	e82e30 <__bss_end__+0xe78fc0>
     e20:	1349053b 	movtne	r0, #38203	; 0x953b
     e24:	00001702 	andeq	r1, r0, r2, lsl #14
     e28:	03003417 	movweq	r3, #1047	; 0x417
     e2c:	3b0b3a0e 	blcc	2cf66c <__bss_end__+0x2c57fc>
     e30:	02134905 	andseq	r4, r3, #81920	; 0x14000
     e34:	18000017 	stmdane	r0, {r0, r1, r2, r4}
     e38:	0111010b 	tsteq	r1, fp, lsl #2
     e3c:	13010612 	movwne	r0, #5650	; 0x1612
     e40:	34190000 	ldrcc	r0, [r9], #-0
     e44:	3a0e0300 	bcc	381a4c <__bss_end__+0x377bdc>
     e48:	490b3b0b 	stmdbmi	fp, {r0, r1, r3, r8, r9, fp, ip, sp}
     e4c:	02193f13 	andseq	r3, r9, #19, 30	; 0x4c
     e50:	1a000018 	bne	eb8 <_start-0x7148>
     e54:	193f012e 	ldmdbne	pc!, {r1, r2, r3, r5, r8}	; <UNPREDICTABLE>
     e58:	0b3a0e03 	bleq	e8466c <__bss_end__+0xe7a7fc>
     e5c:	19270b3b 	stmdbne	r7!, {r0, r1, r3, r4, r5, r8, r9, fp}
     e60:	193c1349 	ldmdbne	ip!, {r0, r3, r6, r8, r9, ip}
     e64:	00001301 	andeq	r1, r0, r1, lsl #6
     e68:	4900051b 	stmdbmi	r0, {r0, r1, r3, r4, r8, sl}
     e6c:	1c000013 	stcne	0, cr0, [r0], {19}
     e70:	13490026 	movtne	r0, #36902	; 0x9026
     e74:	351d0000 	ldrcc	r0, [sp, #-0]
     e78:	1e000000 	cdpne	0, 0, cr0, cr0, cr0, {0}
     e7c:	193f012e 	ldmdbne	pc!, {r1, r2, r3, r5, r8}	; <UNPREDICTABLE>
     e80:	0b3a0e03 	bleq	e84694 <__bss_end__+0xe7a824>
     e84:	19270b3b 	stmdbne	r7!, {r0, r1, r3, r4, r5, r8, r9, fp}
     e88:	1301193c 	movwne	r1, #6460	; 0x193c
     e8c:	2e1f0000 	cdpcs	0, 1, cr0, cr15, cr0, {0}
     e90:	03193f00 	tsteq	r9, #0, 30
     e94:	3b0b3a0e 	blcc	2cf6d4 <__bss_end__+0x2c5864>
     e98:	3c19270b 	ldccc	7, cr2, [r9], {11}
     e9c:	00000019 	andeq	r0, r0, r9, lsl r0
     ea0:	25011101 	strcs	r1, [r1, #-257]	; 0x101
     ea4:	030b130e 	movweq	r1, #45838	; 0xb30e
     ea8:	110e1b0e 	tstne	lr, lr, lsl #22
     eac:	10061201 	andne	r1, r6, r1, lsl #4
     eb0:	02000017 	andeq	r0, r0, #23
     eb4:	0b0b0024 	bleq	2c0f4c <__bss_end__+0x2b70dc>
     eb8:	08030b3e 	stmdaeq	r3, {r1, r2, r3, r4, r5, r8, r9, fp}
     ebc:	24030000 	strcs	r0, [r3], #-0
     ec0:	3e0b0b00 	vmlacc.f64	d0, d11, d0
     ec4:	000e030b 	andeq	r0, lr, fp, lsl #6
     ec8:	012e0400 	teqeq	lr, r0, lsl #8
     ecc:	0b3a0e03 	bleq	e846e0 <__bss_end__+0xe7a870>
     ed0:	19270b3b 	stmdbne	r7!, {r0, r1, r3, r4, r5, r8, r9, fp}
     ed4:	01111349 	tsteq	r1, r9, asr #6
     ed8:	18400612 	stmdane	r0, {r1, r4, r9, sl}^
     edc:	01194297 			; <UNDEFINED> instruction: 0x01194297
     ee0:	05000013 	streq	r0, [r0, #-19]
     ee4:	08030005 	stmdaeq	r3, {r0, r2}
     ee8:	0b3b0b3a 	bleq	ec3bd8 <__bss_end__+0xeb9d68>
     eec:	17021349 	strne	r1, [r2, -r9, asr #6]
     ef0:	89060000 	stmdbhi	r6, {}	; <UNPREDICTABLE>
     ef4:	11010182 	smlabbne	r1, r2, r1, r0
     ef8:	00133101 	andseq	r3, r3, r1, lsl #2
     efc:	828a0700 	addhi	r0, sl, #0, 14
     f00:	18020001 	stmdane	r2, {r0}
     f04:	00184291 	mulseq	r8, r1, r2
     f08:	002e0800 	eoreq	r0, lr, r0, lsl #16
     f0c:	0e03193f 	mcreq	9, 0, r1, cr3, cr15, {1}
     f10:	0b3b0b3a 	bleq	ec3c00 <__bss_end__+0xeb9d90>
     f14:	01111927 	tsteq	r1, r7, lsr #18
     f18:	18400612 	stmdane	r0, {r1, r4, r9, sl}^
     f1c:	00194297 	mulseq	r9, r7, r2
     f20:	012e0900 	teqeq	lr, r0, lsl #18
     f24:	0e03193f 	mcreq	9, 0, r1, cr3, cr15, {1}
     f28:	0b3b0b3a 	bleq	ec3c18 <__bss_end__+0xeb9da8>
     f2c:	01111927 	tsteq	r1, r7, lsr #18
     f30:	18400612 	stmdane	r0, {r1, r4, r9, sl}^
     f34:	01194297 			; <UNDEFINED> instruction: 0x01194297
     f38:	0a000013 	beq	f8c <_start-0x7074>
     f3c:	08030005 	stmdaeq	r3, {r0, r2}
     f40:	0b3b0b3a 	bleq	ec3c30 <__bss_end__+0xeb9dc0>
     f44:	18021349 	stmdane	r2, {r0, r3, r6, r8, r9, ip}
     f48:	150b0000 	strne	r0, [fp, #-0]
     f4c:	49192701 	ldmdbmi	r9, {r0, r8, r9, sl, sp}
     f50:	00130113 	andseq	r0, r3, r3, lsl r1
     f54:	00050c00 	andeq	r0, r5, r0, lsl #24
     f58:	00001349 	andeq	r1, r0, r9, asr #6
     f5c:	0b000f0d 	bleq	4b98 <_start-0x3468>
     f60:	0013490b 	andseq	r4, r3, fp, lsl #18
     f64:	00340e00 	eorseq	r0, r4, r0, lsl #28
     f68:	0b3a0e03 	bleq	e8477c <__bss_end__+0xe7a90c>
     f6c:	13490b3b 	movtne	r0, #39739	; 0x9b3b
     f70:	1802193f 	stmdane	r2, {r0, r1, r2, r3, r4, r5, r8, fp, ip}
     f74:	2e0f0000 	cdpcs	0, 0, cr0, cr15, cr0, {0}
     f78:	03193f01 	tsteq	r9, #1, 30
     f7c:	3b0b3a0e 	blcc	2cf7bc <__bss_end__+0x2c594c>
     f80:	3c19270b 	ldccc	7, cr2, [r9], {11}
     f84:	00000019 	andeq	r0, r0, r9, lsl r0
     f88:	25011101 	strcs	r1, [r1, #-257]	; 0x101
     f8c:	030b130e 	movweq	r1, #45838	; 0xb30e
     f90:	110e1b0e 	tstne	lr, lr, lsl #22
     f94:	10061201 	andne	r1, r6, r1, lsl #4
     f98:	02000017 	andeq	r0, r0, #23
     f9c:	0b0b0024 	bleq	2c1034 <__bss_end__+0x2b71c4>
     fa0:	08030b3e 	stmdaeq	r3, {r1, r2, r3, r4, r5, r8, r9, fp}
     fa4:	16030000 	strne	r0, [r3], -r0
     fa8:	3a0e0300 	bcc	381bb0 <__bss_end__+0x377d40>
     fac:	490b3b0b 	stmdbmi	fp, {r0, r1, r3, r8, r9, fp, ip, sp}
     fb0:	04000013 	streq	r0, [r0], #-19
     fb4:	0b0b0024 	bleq	2c104c <__bss_end__+0x2b71dc>
     fb8:	0e030b3e 	vmoveq.16	d3[0], r0
     fbc:	0f050000 	svceq	0x00050000
     fc0:	000b0b00 	andeq	r0, fp, r0, lsl #22
     fc4:	01130600 	tsteq	r3, r0, lsl #12
     fc8:	0b3a0b0b 	bleq	e83bfc <__bss_end__+0xe79d8c>
     fcc:	13010b3b 	movwne	r0, #6971	; 0x1b3b
     fd0:	0d070000 	stceq	0, cr0, [r7, #-0]
     fd4:	3a080300 	bcc	201bdc <__bss_end__+0x1f7d6c>
     fd8:	490b3b0b 	stmdbmi	fp, {r0, r1, r3, r8, r9, fp, ip, sp}
     fdc:	000b3813 	andeq	r3, fp, r3, lsl r8
     fe0:	000d0800 	andeq	r0, sp, r0, lsl #16
     fe4:	0b3a0e03 	bleq	e847f8 <__bss_end__+0xe7a988>
     fe8:	13490b3b 	movtne	r0, #39739	; 0x9b3b
     fec:	00000b38 	andeq	r0, r0, r8, lsr fp
     ff0:	0b010409 	bleq	4201c <__bss_end__+0x381ac>
     ff4:	3b0b3a0b 	blcc	2cf828 <__bss_end__+0x2c59b8>
     ff8:	0013010b 	andseq	r0, r3, fp, lsl #2
     ffc:	00280a00 	eoreq	r0, r8, r0, lsl #20
    1000:	0d1c0e03 	ldceq	14, cr0, [ip, #-12]
    1004:	2e0b0000 	cdpcs	0, 0, cr0, cr11, cr0, {0}
    1008:	03193f01 	tsteq	r9, #1, 30
    100c:	3b0b3a0e 	blcc	2cf84c <__bss_end__+0x2c59dc>
    1010:	4919270b 	ldmdbmi	r9, {r0, r1, r3, r8, r9, sl, sp}
    1014:	12011113 	andne	r1, r1, #-1073741820	; 0xc0000004
    1018:	97184006 	ldrls	r4, [r8, -r6]
    101c:	13011942 	movwne	r1, #6466	; 0x1942
    1020:	340c0000 	strcc	r0, [ip], #-0
    1024:	3a080300 	bcc	201c2c <__bss_end__+0x1f7dbc>
    1028:	490b3b0b 	stmdbmi	fp, {r0, r1, r3, r8, r9, fp, ip, sp}
    102c:	00061c13 	andeq	r1, r6, r3, lsl ip
    1030:	82890d00 	addhi	r0, r9, #0, 26
    1034:	01110101 	tsteq	r1, r1, lsl #2
    1038:	00001331 	andeq	r1, r0, r1, lsr r3
    103c:	01828a0e 	orreq	r8, r2, lr, lsl #20
    1040:	91180200 	tstls	r8, r0, lsl #4
    1044:	00001842 	andeq	r1, r0, r2, asr #16
    1048:	0b000f0f 	bleq	4c8c <_start-0x3374>
    104c:	0013490b 	andseq	r4, r3, fp, lsl #18
    1050:	012e1000 	teqeq	lr, r0
    1054:	0e03193f 	mcreq	9, 0, r1, cr3, cr15, {1}
    1058:	0b3b0b3a 	bleq	ec3d48 <__bss_end__+0xeb9ed8>
    105c:	13491927 	movtne	r1, #39207	; 0x9927
    1060:	0000193c 	andeq	r1, r0, ip, lsr r9
    1064:	49000511 	stmdbmi	r0, {r0, r4, r8, sl}
    1068:	00000013 	andeq	r0, r0, r3, lsl r0
    106c:	25011101 	strcs	r1, [r1, #-257]	; 0x101
    1070:	030b130e 	movweq	r1, #45838	; 0xb30e
    1074:	110e1b0e 	tstne	lr, lr, lsl #22
    1078:	10061201 	andne	r1, r6, r1, lsl #4
    107c:	02000017 	andeq	r0, r0, #23
    1080:	0b0b0024 	bleq	2c1118 <__bss_end__+0x2b72a8>
    1084:	08030b3e 	stmdaeq	r3, {r1, r2, r3, r4, r5, r8, r9, fp}
    1088:	24030000 	strcs	r0, [r3], #-0
    108c:	3e0b0b00 	vmlacc.f64	d0, d11, d0
    1090:	000e030b 	andeq	r0, lr, fp, lsl #6
    1094:	01040400 	tsteq	r4, r0, lsl #8
    1098:	0b3a0b0b 	bleq	e83ccc <__bss_end__+0xe79e5c>
    109c:	13010b3b 	movwne	r0, #6971	; 0x1b3b
    10a0:	28050000 	stmdacs	r5, {}	; <UNPREDICTABLE>
    10a4:	1c0e0300 	stcne	3, cr0, [lr], {-0}
    10a8:	0600000d 	streq	r0, [r0], -sp
    10ac:	0e030016 	mcreq	0, 0, r0, cr3, cr6, {0}
    10b0:	0b3b0b3a 	bleq	ec3da0 <__bss_end__+0xeb9f30>
    10b4:	00001349 	andeq	r1, r0, r9, asr #6
    10b8:	3f012e07 	svccc	0x00012e07
    10bc:	3a0e0319 	bcc	381d28 <__bss_end__+0x377eb8>
    10c0:	270b3b0b 	strcs	r3, [fp, -fp, lsl #22]
    10c4:	12011119 	andne	r1, r1, #1073741830	; 0x40000006
    10c8:	97184006 	ldrls	r4, [r8, -r6]
    10cc:	13011942 	movwne	r1, #6466	; 0x1942
    10d0:	89080000 	stmdbhi	r8, {}	; <UNPREDICTABLE>
    10d4:	11000182 	smlabbne	r0, r2, r1, r0
    10d8:	00133101 	andseq	r3, r3, r1, lsl #2
    10dc:	82890900 	addhi	r0, r9, #0, 18
    10e0:	01110101 	tsteq	r1, r1, lsl #2
    10e4:	13011331 	movwne	r1, #4913	; 0x1331
    10e8:	8a0a0000 	bhi	2810f0 <__bss_end__+0x277280>
    10ec:	02000182 	andeq	r0, r0, #-2147483616	; 0x80000020
    10f0:	18429118 	stmdane	r2, {r3, r4, r8, ip, pc}^
    10f4:	2e0b0000 	cdpcs	0, 0, cr0, cr11, cr0, {0}
    10f8:	03193f01 	tsteq	r9, #1, 30
    10fc:	3b0b3a0e 	blcc	2cf93c <__bss_end__+0x2c5acc>
    1100:	4919270b 	ldmdbmi	r9, {r0, r1, r3, r8, r9, sl, sp}
    1104:	12011113 	andne	r1, r1, #-1073741820	; 0xc0000004
    1108:	97184006 	ldrls	r4, [r8, -r6]
    110c:	13011942 	movwne	r1, #6466	; 0x1942
    1110:	050c0000 	streq	r0, [ip, #-0]
    1114:	3a080300 	bcc	201d1c <__bss_end__+0x1f7eac>
    1118:	490b3b0b 	stmdbmi	fp, {r0, r1, r3, r8, r9, fp, ip, sp}
    111c:	00170213 	andseq	r0, r7, r3, lsl r2
    1120:	82890d00 	addhi	r0, r9, #0, 26
    1124:	01110101 	tsteq	r1, r1, lsl #2
    1128:	00001331 	andeq	r1, r0, r1, lsr r3
    112c:	0300340e 	movweq	r3, #1038	; 0x40e
    1130:	3b0b3a0e 	blcc	2cf970 <__bss_end__+0x2c5b00>
    1134:	3f13490b 	svccc	0x0013490b
    1138:	00180219 	andseq	r0, r8, r9, lsl r2
    113c:	000f0f00 	andeq	r0, pc, r0, lsl #30
    1140:	13490b0b 	movtne	r0, #39691	; 0x9b0b
    1144:	35100000 	ldrcc	r0, [r0, #-0]
    1148:	00134900 	andseq	r4, r3, r0, lsl #18
    114c:	002e1100 	eoreq	r1, lr, r0, lsl #2
    1150:	0e03193f 	mcreq	9, 0, r1, cr3, cr15, {1}
    1154:	0b3b0b3a 	bleq	ec3e44 <__bss_end__+0xeb9fd4>
    1158:	193c1927 	ldmdbne	ip!, {r0, r1, r2, r5, r8, fp, ip}
    115c:	2e120000 	cdpcs	0, 1, cr0, cr2, cr0, {0}
    1160:	03193f01 	tsteq	r9, #1, 30
    1164:	3b0b3a0e 	blcc	2cf9a4 <__bss_end__+0x2c5b34>
    1168:	3c19270b 	ldccc	7, cr2, [r9], {11}
    116c:	00130119 	andseq	r0, r3, r9, lsl r1
    1170:	00051300 	andeq	r1, r5, r0, lsl #6
    1174:	00001349 	andeq	r1, r0, r9, asr #6
    1178:	3f012e14 	svccc	0x00012e14
    117c:	3a0e0319 	bcc	381de8 <__bss_end__+0x377f78>
    1180:	270b3b0b 	strcs	r3, [fp, -fp, lsl #22]
    1184:	3c134919 	ldccc	9, cr4, [r3], {25}
    1188:	00130119 	andseq	r0, r3, r9, lsl r1
    118c:	00261500 	eoreq	r1, r6, r0, lsl #10
    1190:	00001349 	andeq	r1, r0, r9, asr #6
    1194:	00003516 	andeq	r3, r0, r6, lsl r5
    1198:	11010000 	mrsne	r0, (UNDEF: 1)
    119c:	130e2501 	movwne	r2, #58625	; 0xe501
    11a0:	1b0e030b 	blne	381dd4 <__bss_end__+0x377f64>
    11a4:	1201110e 	andne	r1, r1, #-2147483645	; 0x80000003
    11a8:	00171006 	andseq	r1, r7, r6
    11ac:	00240200 	eoreq	r0, r4, r0, lsl #4
    11b0:	0b3e0b0b 	bleq	f83de4 <__bss_end__+0xf79f74>
    11b4:	00000e03 	andeq	r0, r0, r3, lsl #28
    11b8:	0b002403 	bleq	a1cc <__bss_end__+0x35c>
    11bc:	030b3e0b 	movweq	r3, #48651	; 0xbe0b
    11c0:	04000008 	streq	r0, [r0], #-8
    11c4:	0b0b000f 	bleq	2c1208 <__bss_end__+0x2b7398>
    11c8:	0f050000 	svceq	0x00050000
    11cc:	490b0b00 	stmdbmi	fp, {r8, r9, fp}
    11d0:	06000013 			; <UNDEFINED> instruction: 0x06000013
    11d4:	0e030016 	mcreq	0, 0, r0, cr3, cr6, {0}
    11d8:	0b3b0b3a 	bleq	ec3ec8 <__bss_end__+0xeba058>
    11dc:	00001349 	andeq	r1, r0, r9, asr #6
    11e0:	3f012e07 	svccc	0x00012e07
    11e4:	3a0e0319 	bcc	381e50 <__bss_end__+0x377fe0>
    11e8:	270b3b0b 	strcs	r3, [fp, -fp, lsl #22]
    11ec:	11134919 	tstne	r3, r9, lsl r9
    11f0:	40061201 	andmi	r1, r6, r1, lsl #4
    11f4:	19429718 	stmdbne	r2, {r3, r4, r8, r9, sl, ip, pc}^
    11f8:	05080000 	streq	r0, [r8, #-0]
    11fc:	3a080300 	bcc	201e04 <__bss_end__+0x1f7f94>
    1200:	490b3b0b 	stmdbmi	fp, {r0, r1, r3, r8, r9, fp, ip, sp}
    1204:	00180213 	andseq	r0, r8, r3, lsl r2
    1208:	00050900 	andeq	r0, r5, r0, lsl #18
    120c:	0b3a0803 	bleq	e83220 <__bss_end__+0xe793b0>
    1210:	13490b3b 	movtne	r0, #39739	; 0x9b3b
    1214:	00001702 	andeq	r1, r0, r2, lsl #14
    1218:	0300340a 	movweq	r3, #1034	; 0x40a
    121c:	3b0b3a08 	blcc	2cfa44 <__bss_end__+0x2c5bd4>
    1220:	0213490b 	andseq	r4, r3, #180224	; 0x2c000
    1224:	0b000017 	bleq	1288 <_start-0x6d78>
    1228:	08030034 	stmdaeq	r3, {r2, r4, r5}
    122c:	0b3b0b3a 	bleq	ec3f1c <__bss_end__+0xeba0ac>
    1230:	18021349 	stmdane	r2, {r0, r3, r6, r8, r9, ip}
    1234:	Address 0x0000000000001234 is out of bounds.


Disassembly of section .debug_loc:

00000000 <.debug_loc>:
       0:	00000014 	andeq	r0, r0, r4, lsl r0
       4:	00000020 	andeq	r0, r0, r0, lsr #32
       8:	20500001 	subscs	r0, r0, r1
       c:	23000000 	movwcs	r0, #0
      10:	01000000 	mrseq	r0, (UNDEF: 0)
      14:	00235100 	eoreq	r5, r3, r0, lsl #2
      18:	002c0000 	eoreq	r0, ip, r0
      1c:	00040000 	andeq	r0, r4, r0
      20:	9f5001f3 	svcls	0x005001f3
	...
      2c:	00000030 	andeq	r0, r0, r0, lsr r0
      30:	0000003c 	andeq	r0, r0, ip, lsr r0
      34:	9f310002 	svcls	0x00310002
      38:	0000003c 	andeq	r0, r0, ip, lsr r0
      3c:	0000005c 	andeq	r0, r0, ip, asr r0
      40:	9f320002 	svcls	0x00320002
      44:	0000005c 	andeq	r0, r0, ip, asr r0
      48:	00000064 	andeq	r0, r0, r4, rrx
      4c:	9f340002 	svcls	0x00340002
      50:	00000064 	andeq	r0, r0, r4, rrx
      54:	00000100 	andeq	r0, r0, r0, lsl #2
      58:	9f350002 	svcls	0x00350002
	...
      64:	00000044 	andeq	r0, r0, r4, asr #32
      68:	00000073 	andeq	r0, r0, r3, ror r0
      6c:	08730003 	ldmdaeq	r3!, {r0, r1}^
      70:	0000739f 	muleq	r0, pc, r3	; <UNPREDICTABLE>
      74:	00008000 	andeq	r8, r0, r0
      78:	03000600 	movweq	r0, #1536	; 0x600
      7c:	00009a28 	andeq	r9, r0, r8, lsr #20
      80:	0000809f 	muleq	r0, pc, r0	; <UNPREDICTABLE>
      84:	00010000 	andeq	r0, r1, r0
      88:	75000300 	strvc	r0, [r0, #-768]	; 0x300
      8c:	00009f08 	andeq	r9, r0, r8, lsl #30
      90:	00000000 	andeq	r0, r0, r0
      94:	00480000 	subeq	r0, r8, r0
      98:	00730000 	rsbseq	r0, r3, r0
      9c:	00030000 	andeq	r0, r3, r0
      a0:	739f1073 	orrsvc	r1, pc, #115	; 0x73
      a4:	80000000 	andhi	r0, r0, r0
      a8:	06000000 	streq	r0, [r0], -r0
      ac:	9a300300 	bls	c00cb4 <__bss_end__+0xbf6e44>
      b0:	809f0000 	addshi	r0, pc, r0
      b4:	00000000 	andeq	r0, r0, r0
      b8:	03000001 	movweq	r0, #1
      bc:	9f107500 	svcls	0x00107500
	...
      c8:	0000004c 	andeq	r0, r0, ip, asr #32
      cc:	00000050 	andeq	r0, r0, r0, asr r0
      d0:	00520001 	subseq	r0, r2, r1
      d4:	00000000 	andeq	r0, r0, r0
      d8:	4c000000 	stcmi	0, cr0, [r0], {-0}
      dc:	58000000 	stmdapl	r0, {}	; <UNPREDICTABLE>
      e0:	01000000 	mrseq	r0, (UNDEF: 0)
      e4:	00005200 	andeq	r5, r0, r0, lsl #4
      e8:	00000000 	andeq	r0, r0, r0
      ec:	00740000 	rsbseq	r0, r4, r0
      f0:	00840000 	addeq	r0, r4, r0
      f4:	00020000 	andeq	r0, r2, r0
      f8:	00849f30 	addeq	r9, r4, r0, lsr pc
      fc:	00b40000 	adcseq	r0, r4, r0
     100:	00010000 	andeq	r0, r1, r0
     104:	00000054 	andeq	r0, r0, r4, asr r0
     108:	00000000 	andeq	r0, r0, r0
     10c:	00002c00 	andeq	r2, r0, r0, lsl #24
     110:	00003800 	andeq	r3, r0, r0, lsl #16
     114:	50000100 	andpl	r0, r0, r0, lsl #2
     118:	00000038 	andeq	r0, r0, r8, lsr r0
     11c:	00000048 	andeq	r0, r0, r8, asr #32
     120:	48550001 	ldmdami	r5, {r0}^
     124:	58000000 	stmdapl	r0, {}	; <UNPREDICTABLE>
     128:	01000000 	mrseq	r0, (UNDEF: 0)
     12c:	00005000 	andeq	r5, r0, r0
	...
     138:	00100000 	andseq	r0, r0, r0
     13c:	00010000 	andeq	r0, r1, r0
     140:	00001050 	andeq	r1, r0, r0, asr r0
     144:	00003400 	andeq	r3, r0, r0, lsl #8
     148:	54000100 	strpl	r0, [r0], #-256	; 0x100
	...
     158:	00000004 	andeq	r0, r0, r4
     15c:	04500001 	ldrbeq	r0, [r0], #-1
     160:	0c000000 	stceq	0, cr0, [r0], {-0}
     164:	03000000 	movweq	r0, #0
     168:	9f307000 	svcls	0x00307000
     16c:	0000000c 	andeq	r0, r0, ip
     170:	00000014 	andeq	r0, r0, r4, lsl r0
     174:	01f30004 	mvnseq	r0, r4
     178:	00009f50 	andeq	r9, r0, r0, asr pc
     17c:	00000000 	andeq	r0, r0, r0
     180:	00140000 	andseq	r0, r4, r0
     184:	00200000 	eoreq	r0, r0, r0
     188:	00010000 	andeq	r0, r1, r0
     18c:	00002050 	andeq	r2, r0, r0, asr r0
     190:	00002c00 	andeq	r2, r0, r0, lsl #24
     194:	70000300 	andvc	r0, r0, r0, lsl #6
     198:	002c9f01 	eoreq	r9, ip, r1, lsl #30
     19c:	00400000 	subeq	r0, r0, r0
     1a0:	00010000 	andeq	r0, r1, r0
     1a4:	00000050 	andeq	r0, r0, r0, asr r0
     1a8:	00000000 	andeq	r0, r0, r0
     1ac:	00001400 	andeq	r1, r0, r0, lsl #8
     1b0:	00001800 	andeq	r1, r0, r0, lsl #16
     1b4:	51000100 	mrspl	r0, (UNDEF: 16)
     1b8:	00000018 	andeq	r0, r0, r8, lsl r0
     1bc:	00000040 	andeq	r0, r0, r0, asr #32
     1c0:	01f30004 	mvnseq	r0, r4
     1c4:	00009f51 	andeq	r9, r0, r1, asr pc
     1c8:	00000000 	andeq	r0, r0, r0
     1cc:	00400000 	subeq	r0, r0, r0
     1d0:	00600000 	rsbeq	r0, r0, r0
     1d4:	00010000 	andeq	r0, r1, r0
     1d8:	00006050 	andeq	r6, r0, r0, asr r0
     1dc:	00006c00 	andeq	r6, r0, r0, lsl #24
     1e0:	71000300 	mrsvc	r0, LR_irq
     1e4:	006c9f01 	rsbeq	r9, ip, r1, lsl #30
     1e8:	00740000 	rsbseq	r0, r4, r0
     1ec:	00010000 	andeq	r0, r1, r0
     1f0:	00007451 	andeq	r7, r0, r1, asr r4
     1f4:	00008000 	andeq	r8, r0, r0
     1f8:	71000300 	mrsvc	r0, LR_irq
     1fc:	00009f01 	andeq	r9, r0, r1, lsl #30
     200:	00000000 	andeq	r0, r0, r0
     204:	00400000 	subeq	r0, r0, r0
     208:	00500000 	subseq	r0, r0, r0
     20c:	00010000 	andeq	r0, r1, r0
     210:	00005051 	andeq	r5, r0, r1, asr r0
     214:	00008000 	andeq	r8, r0, r0
     218:	f3000400 	vshl.u8	d0, d0, d0
     21c:	009f5101 	addseq	r5, pc, r1, lsl #2
     220:	00000000 	andeq	r0, r0, r0
     224:	40000000 	andmi	r0, r0, r0
     228:	58000000 	stmdapl	r0, {}	; <UNPREDICTABLE>
     22c:	01000000 	mrseq	r0, (UNDEF: 0)
     230:	00585200 	subseq	r5, r8, r0, lsl #4
     234:	00640000 	rsbeq	r0, r4, r0
     238:	00010000 	andeq	r0, r1, r0
     23c:	00006452 	andeq	r6, r0, r2, asr r4
     240:	00006800 	andeq	r6, r0, r0, lsl #16
     244:	72000300 	andvc	r0, r0, #0, 6
     248:	00689f01 	rsbeq	r9, r8, r1, lsl #30
     24c:	00800000 	addeq	r0, r0, r0
     250:	00010000 	andeq	r0, r1, r0
     254:	00000052 	andeq	r0, r0, r2, asr r0
     258:	00000000 	andeq	r0, r0, r0
     25c:	00004000 	andeq	r4, r0, r0
     260:	00005400 	andeq	r5, r0, r0, lsl #8
     264:	53000100 	movwpl	r0, #256	; 0x100
     268:	00000054 	andeq	r0, r0, r4, asr r0
     26c:	00000078 	andeq	r0, r0, r8, ror r0
     270:	00530001 	subseq	r0, r3, r1
     274:	00000000 	andeq	r0, r0, r0
     278:	48000000 	stmdami	r0, {}	; <UNPREDICTABLE>
     27c:	60000000 	andvs	r0, r0, r0
     280:	01000000 	mrseq	r0, (UNDEF: 0)
     284:	00605c00 	rsbeq	r5, r0, r0, lsl #24
     288:	00800000 	addeq	r0, r0, r0
     28c:	000a0000 	andeq	r0, sl, r0
     290:	f35201f3 	vbsl	q8, q9, <illegal reg q9.5>
     294:	231c5301 	tstcs	ip, #67108864	; 0x4000000
     298:	00009f01 	andeq	r9, r0, r1, lsl #30
     29c:	00000000 	andeq	r0, r0, r0
     2a0:	00800000 	addeq	r0, r0, r0
     2a4:	00a40000 	adceq	r0, r4, r0
     2a8:	00010000 	andeq	r0, r1, r0
     2ac:	0000a450 	andeq	sl, r0, r0, asr r4
     2b0:	00011800 	andeq	r1, r1, r0, lsl #16
     2b4:	70000300 	andvc	r0, r0, r0, lsl #6
     2b8:	01189f02 	tsteq	r8, r2, lsl #30
     2bc:	02280000 	eoreq	r0, r8, #0
     2c0:	00040000 	andeq	r0, r4, r0
     2c4:	9f5001f3 	svcls	0x005001f3
	...
     2d0:	00000080 	andeq	r0, r0, r0, lsl #1
     2d4:	000000f0 	strdeq	r0, [r0], -r0	; <UNPREDICTABLE>
     2d8:	f0510001 			; <UNDEFINED> instruction: 0xf0510001
     2dc:	60000000 	andvs	r0, r0, r0
     2e0:	01000001 	tsteq	r0, r1
     2e4:	01605500 	cmneq	r0, r0, lsl #10
     2e8:	01680000 	cmneq	r8, r0
     2ec:	00010000 	andeq	r0, r1, r0
     2f0:	00016851 	andeq	r6, r1, r1, asr r8
     2f4:	00018800 	andeq	r8, r1, r0, lsl #16
     2f8:	55000100 	strpl	r0, [r0, #-256]	; 0x100
     2fc:	00000188 	andeq	r0, r0, r8, lsl #3
     300:	0000019c 	muleq	r0, ip, r1
     304:	9c510001 	mrrcls	0, 0, r0, r1, cr1
     308:	bc000001 	stclt	0, cr0, [r0], {1}
     30c:	01000001 	tsteq	r0, r1
     310:	01bc5500 			; <UNDEFINED> instruction: 0x01bc5500
     314:	01bf0000 			; <UNDEFINED> instruction: 0x01bf0000
     318:	00010000 	andeq	r0, r1, r0
     31c:	0001bf51 	andeq	fp, r1, r1, asr pc
     320:	00020800 	andeq	r0, r2, r0, lsl #16
     324:	55000100 	strpl	r0, [r0, #-256]	; 0x100
     328:	00000208 	andeq	r0, r0, r8, lsl #4
     32c:	00000228 	andeq	r0, r0, r8, lsr #4
     330:	01f30004 	mvnseq	r0, r4
     334:	00009f51 	andeq	r9, r0, r1, asr pc
     338:	00000000 	andeq	r0, r0, r0
     33c:	00800000 	addeq	r0, r0, r0
     340:	00940000 	addseq	r0, r4, r0
     344:	00010000 	andeq	r0, r1, r0
     348:	00009452 	andeq	r9, r0, r2, asr r4
     34c:	00020800 	andeq	r0, r2, r0, lsl #16
     350:	54000100 	strpl	r0, [r0], #-256	; 0x100
     354:	00000208 	andeq	r0, r0, r8, lsl #4
     358:	00000228 	andeq	r0, r0, r8, lsr #4
     35c:	01f30004 	mvnseq	r0, r4
     360:	00009f52 	andeq	r9, r0, r2, asr pc
     364:	00000000 	andeq	r0, r0, r0
     368:	00800000 	addeq	r0, r0, r0
     36c:	01000000 	mrseq	r0, (UNDEF: 0)
     370:	00010000 	andeq	r0, r1, r0
     374:	00010453 	andeq	r0, r1, r3, asr r4
     378:	00010800 	andeq	r0, r1, r0, lsl #16
     37c:	53000100 	movwpl	r0, #256	; 0x100
     380:	00000160 	andeq	r0, r0, r0, ror #2
     384:	00000168 	andeq	r0, r0, r8, ror #2
     388:	68530001 	ldmdavs	r3, {r0}^
     38c:	88000001 	stmdahi	r0, {r0}
     390:	04000001 	streq	r0, [r0], #-1
     394:	5301f300 	movwpl	pc, #4864	; 0x1300	; <UNPREDICTABLE>
     398:	0001889f 	muleq	r1, pc, r8	; <UNPREDICTABLE>
     39c:	00019000 	andeq	r9, r1, r0
     3a0:	53000100 	movwpl	r0, #256	; 0x100
     3a4:	00000190 	muleq	r0, r0, r1
     3a8:	00000194 	muleq	r0, r4, r1
     3ac:	945c0001 	ldrbls	r0, [ip], #-1
     3b0:	9c000001 	stcls	0, cr0, [r0], {1}
     3b4:	01000001 	tsteq	r0, r1
     3b8:	019c5300 	orrseq	r5, ip, r0, lsl #6
     3bc:	01bc0000 			; <UNDEFINED> instruction: 0x01bc0000
     3c0:	00040000 	andeq	r0, r4, r0
     3c4:	9f5301f3 	svcls	0x005301f3
     3c8:	000001bc 			; <UNDEFINED> instruction: 0x000001bc
     3cc:	000001bf 			; <UNDEFINED> instruction: 0x000001bf
     3d0:	bf530001 	svclt	0x00530001
     3d4:	e0000001 	and	r0, r0, r1
     3d8:	04000001 	streq	r0, [r0], #-1
     3dc:	5301f300 	movwpl	pc, #4864	; 0x1300	; <UNPREDICTABLE>
     3e0:	0000009f 	muleq	r0, pc, r0	; <UNPREDICTABLE>
     3e4:	00000000 	andeq	r0, r0, r0
     3e8:	00008000 	andeq	r8, r0, r0
     3ec:	00009c00 	andeq	r9, r0, r0, lsl #24
     3f0:	91000200 	mrsls	r0, R8_usr
     3f4:	00009c00 	andeq	r9, r0, r0, lsl #24
     3f8:	0001bf00 	andeq	fp, r1, r0, lsl #30
     3fc:	52000100 	andpl	r0, r0, #0, 2
     400:	000001e0 	andeq	r0, r0, r0, ror #3
     404:	000001eb 	andeq	r0, r0, fp, ror #3
     408:	00520001 	subseq	r0, r2, r1
     40c:	00000000 	andeq	r0, r0, r0
     410:	9c000000 	stcls	0, cr0, [r0], {-0}
     414:	0c000000 	stceq	0, cr0, [r0], {-0}
     418:	04000001 	streq	r0, [r0], #-1
     41c:	7fa09100 	svcvc	0x00a09100
     420:	00010c9f 	muleq	r1, pc, ip	; <UNPREDICTABLE>
     424:	00011800 	andeq	r1, r1, r0, lsl #16
     428:	51000100 	mrspl	r0, (UNDEF: 16)
     42c:	00000118 	andeq	r0, r0, r8, lsl r1
     430:	0000011c 	andeq	r0, r0, ip, lsl r1
     434:	1c530001 	mrrcne	0, 0, r0, r3, cr1
     438:	20000001 	andcs	r0, r0, r1
     43c:	01000001 	tsteq	r0, r1
     440:	01205100 	teqeq	r0, r0, lsl #2
     444:	01600000 	cmneq	r0, r0
     448:	00010000 	andeq	r0, r1, r0
     44c:	00016053 	andeq	r6, r1, r3, asr r0
     450:	00016400 	andeq	r6, r1, r0, lsl #8
     454:	91000400 	tstls	r0, r0, lsl #8
     458:	649f7fa0 	ldrvs	r7, [pc], #4000	; 460 <_start-0x7ba0>
     45c:	6c000001 	stcvs	0, cr0, [r0], {1}
     460:	01000001 	tsteq	r0, r1
     464:	016c5e00 	cmneq	ip, r0, lsl #28
     468:	01880000 	orreq	r0, r8, r0
     46c:	00010000 	andeq	r0, r1, r0
     470:	00018853 	andeq	r8, r1, r3, asr r8
     474:	00019000 	andeq	r9, r1, r0
     478:	91000400 	tstls	r0, r0, lsl #8
     47c:	909f7fa1 	addsls	r7, pc, r1, lsr #31
     480:	94000001 	strls	r0, [r0], #-1
     484:	01000001 	tsteq	r0, r1
     488:	01945300 	orrseq	r5, r4, r0, lsl #6
     48c:	01980000 	orrseq	r0, r8, r0
     490:	00040000 	andeq	r0, r4, r0
     494:	9f7fa091 	svcls	0x007fa091
     498:	00000198 	muleq	r0, r8, r1
     49c:	000001a0 	andeq	r0, r0, r0, lsr #3
     4a0:	a05e0001 	subsge	r0, lr, r1
     4a4:	bc000001 	stclt	0, cr0, [r0], {1}
     4a8:	01000001 	tsteq	r0, r1
     4ac:	01bc5300 			; <UNDEFINED> instruction: 0x01bc5300
     4b0:	01e00000 	mvneq	r0, r0
     4b4:	00040000 	andeq	r0, r4, r0
     4b8:	9f7fa091 	svcls	0x007fa091
     4bc:	000001e0 	andeq	r0, r0, r0, ror #3
     4c0:	000001eb 	andeq	r0, r0, fp, ror #3
     4c4:	00530001 	subseq	r0, r3, r1
     4c8:	00000000 	andeq	r0, r0, r0
     4cc:	a0000000 	andge	r0, r0, r0
     4d0:	ec000000 	stc	0, cr0, [r0], {-0}
     4d4:	01000000 	mrseq	r0, (UNDEF: 0)
     4d8:	00ec5c00 	rsceq	r5, ip, r0, lsl #24
     4dc:	01000000 	mrseq	r0, (UNDEF: 0)
     4e0:	00010000 	andeq	r0, r1, r0
     4e4:	00010053 	andeq	r0, r1, r3, asr r0
     4e8:	00010400 	andeq	r0, r1, r0, lsl #8
     4ec:	5c000100 	stfpls	f0, [r0], {-0}
     4f0:	00000104 	andeq	r0, r0, r4, lsl #2
     4f4:	00000108 	andeq	r0, r0, r8, lsl #2
     4f8:	08530001 	ldmdaeq	r3, {r0}^
     4fc:	18000001 	stmdane	r0, {r0}
     500:	01000001 	tsteq	r0, r1
     504:	01185c00 	tsteq	r8, r0, lsl #24
     508:	011c0000 	tsteq	ip, r0
     50c:	00010000 	andeq	r0, r1, r0
     510:	00011c50 	andeq	r1, r1, r0, asr ip
     514:	00013c00 	andeq	r3, r1, r0, lsl #24
     518:	5c000100 	stfpls	f0, [r0], {-0}
     51c:	00000144 	andeq	r0, r0, r4, asr #2
     520:	00000158 	andeq	r0, r0, r8, asr r1
     524:	58500001 	ldmdapl	r0, {r0}^
     528:	60000001 	andvs	r0, r0, r1
     52c:	01000001 	tsteq	r0, r1
     530:	01605c00 	cmneq	r0, r0, lsl #24
     534:	01680000 	cmneq	r8, r0
     538:	00010000 	andeq	r0, r1, r0
     53c:	00016853 	andeq	r6, r1, r3, asr r8
     540:	00017800 	andeq	r7, r1, r0, lsl #16
     544:	5c000100 	stfpls	f0, [r0], {-0}
     548:	00000178 	andeq	r0, r0, r8, ror r1
     54c:	00000180 	andeq	r0, r0, r0, lsl #3
     550:	007c0005 	rsbseq	r0, ip, r5
     554:	809f2534 	addshi	r2, pc, r4, lsr r5	; <UNPREDICTABLE>
     558:	88000001 	stmdahi	r0, {r0}
     55c:	01000001 	tsteq	r0, r1
     560:	01885c00 	orreq	r5, r8, r0, lsl #24
     564:	01900000 	orrseq	r0, r0, r0
     568:	00010000 	andeq	r0, r1, r0
     56c:	00019053 	andeq	r9, r1, r3, asr r0
     570:	00019400 	andeq	r9, r1, r0, lsl #8
     574:	5c000100 	stfpls	f0, [r0], {-0}
     578:	00000194 	muleq	r0, r4, r1
     57c:	0000019c 	muleq	r0, ip, r1
     580:	9c530001 	mrrcls	0, 0, r0, r3, cr1
     584:	ac000001 	stcge	0, cr0, [r0], {1}
     588:	01000001 	tsteq	r0, r1
     58c:	01ac5c00 			; <UNDEFINED> instruction: 0x01ac5c00
     590:	01b40000 			; <UNDEFINED> instruction: 0x01b40000
     594:	00050000 	andeq	r0, r5, r0
     598:	2531007c 	ldrcs	r0, [r1, #-124]!	; 0x7c
     59c:	0001b49f 	muleq	r1, pc, r4	; <UNPREDICTABLE>
     5a0:	0001bc00 	andeq	fp, r1, r0, lsl #24
     5a4:	5c000100 	stfpls	f0, [r0], {-0}
     5a8:	000001bc 			; <UNDEFINED> instruction: 0x000001bc
     5ac:	000001bf 			; <UNDEFINED> instruction: 0x000001bf
     5b0:	bf530001 	svclt	0x00530001
     5b4:	e0000001 	and	r0, r0, r1
     5b8:	04000001 	streq	r0, [r0], #-1
     5bc:	5301f300 	movwpl	pc, #4864	; 0x1300	; <UNPREDICTABLE>
     5c0:	0001e09f 	muleq	r1, pc, r0	; <UNPREDICTABLE>
     5c4:	0001eb00 	andeq	lr, r1, r0, lsl #22
     5c8:	5c000100 	stfpls	f0, [r0], {-0}
	...
     5d4:	000000ec 	andeq	r0, r0, ip, ror #1
     5d8:	000000fc 	strdeq	r0, [r0], -ip
     5dc:	9f300002 	svcls	0x00300002
     5e0:	000000fc 	strdeq	r0, [r0], -ip
     5e4:	00000104 	andeq	r0, r0, r4, lsl #2
     5e8:	9f310002 	svcls	0x00310002
     5ec:	00000104 	andeq	r0, r0, r4, lsl #2
     5f0:	00000108 	andeq	r0, r0, r8, lsl #2
     5f4:	9f300002 	svcls	0x00300002
	...
     600:	00000228 	andeq	r0, r0, r8, lsr #4
     604:	0000023b 	andeq	r0, r0, fp, lsr r2
     608:	3b500001 	blcc	1400614 <__bss_end__+0x13f67a4>
     60c:	5c000002 	stcpl	0, cr0, [r0], {2}
     610:	04000002 	streq	r0, [r0], #-2
     614:	5001f300 	andpl	pc, r1, r0, lsl #6
     618:	00025c9f 	muleq	r2, pc, ip	; <UNPREDICTABLE>
     61c:	00029000 	andeq	r9, r2, r0
     620:	50000100 	andpl	r0, r0, r0, lsl #2
	...
     62c:	00000228 	andeq	r0, r0, r8, lsr #4
     630:	0000023b 	andeq	r0, r0, fp, lsr r2
     634:	3b510001 	blcc	1440640 <__bss_end__+0x14367d0>
     638:	5c000002 	stcpl	0, cr0, [r0], {2}
     63c:	04000002 	streq	r0, [r0], #-2
     640:	5101f300 	mrspl	pc, SP_irq	; <UNPREDICTABLE>
     644:	00025c9f 	muleq	r2, pc, ip	; <UNPREDICTABLE>
     648:	00029000 	andeq	r9, r2, r0
     64c:	51000100 	mrspl	r0, (UNDEF: 16)
	...
     658:	00000290 	muleq	r0, r0, r2
     65c:	000002bc 			; <UNDEFINED> instruction: 0x000002bc
     660:	bc500001 	mrrclt	0, 0, r0, r0, cr1	; <UNPREDICTABLE>
     664:	0c000002 	stceq	0, cr0, [r0], {2}
     668:	01000005 	tsteq	r0, r5
     66c:	050c5a00 	streq	r5, [ip, #-2560]	; 0xa00
     670:	05240000 	streq	r0, [r4, #-0]!
     674:	00040000 	andeq	r0, r4, r0
     678:	9f5001f3 	svcls	0x005001f3
	...
     684:	00000290 	muleq	r0, r0, r2
     688:	000002a4 	andeq	r0, r0, r4, lsr #5
     68c:	a4510001 	ldrbge	r0, [r1], #-1
     690:	bc000002 	stclt	0, cr0, [r0], {2}
     694:	03000002 	movweq	r0, #2
     698:	9f017100 	svcls	0x00017100
     69c:	000002bc 			; <UNDEFINED> instruction: 0x000002bc
     6a0:	00000524 	andeq	r0, r0, r4, lsr #10
     6a4:	01f30004 	mvnseq	r0, r4
     6a8:	00009f51 	andeq	r9, r0, r1, asr pc
     6ac:	00000000 	andeq	r0, r0, r0
     6b0:	02900000 	addseq	r0, r0, #0
     6b4:	02c40000 	sbceq	r0, r4, #0
     6b8:	00010000 	andeq	r0, r1, r0
     6bc:	0002c452 	andeq	ip, r2, r2, asr r4
     6c0:	0002ec00 	andeq	lr, r2, r0, lsl #24
     6c4:	52000100 	andpl	r0, r0, #0, 2
     6c8:	000002ec 	andeq	r0, r0, ip, ror #5
     6cc:	000004bc 			; <UNDEFINED> instruction: 0x000004bc
     6d0:	bc560001 	mrrclt	0, 0, r0, r6, cr1
     6d4:	24000004 	strcs	r0, [r0], #-4
     6d8:	01000005 	tsteq	r0, r5
     6dc:	00005200 	andeq	r5, r0, r0, lsl #4
     6e0:	00000000 	andeq	r0, r0, r0
     6e4:	02900000 	addseq	r0, r0, #0
     6e8:	02ac0000 	adceq	r0, ip, #0
     6ec:	00010000 	andeq	r0, r1, r0
     6f0:	00000053 	andeq	r0, r0, r3, asr r0
     6f4:	00000000 	andeq	r0, r0, r0
     6f8:	0002a000 	andeq	sl, r2, r0
     6fc:	0002bc00 	andeq	fp, r2, r0, lsl #24
     700:	50000100 	andpl	r0, r0, r0, lsl #2
     704:	000002bc 			; <UNDEFINED> instruction: 0x000002bc
     708:	000002c0 	andeq	r0, r0, r0, asr #5
     70c:	c0540001 	subsgt	r0, r4, r1
     710:	cc000002 	stcgt	0, cr0, [r0], {2}
     714:	03000002 	movweq	r0, #2
     718:	9f017400 	svcls	0x00017400
     71c:	000002cc 	andeq	r0, r0, ip, asr #5
     720:	000002d8 	ldrdeq	r0, [r0], -r8
     724:	d8540001 	ldmdale	r4, {r0}^
     728:	e4000002 	str	r0, [r0], #-2
     72c:	03000002 	movweq	r0, #2
     730:	9f017400 	svcls	0x00017400
     734:	000002e4 	andeq	r0, r0, r4, ror #5
     738:	000004c0 	andeq	r0, r0, r0, asr #9
     73c:	c0540001 	subsgt	r0, r4, r1
     740:	cc000004 	stcgt	0, cr0, [r0], {4}
     744:	03000004 	movweq	r0, #4
     748:	9f017400 	svcls	0x00017400
     74c:	000004cc 	andeq	r0, r0, ip, asr #9
     750:	000004f8 	strdeq	r0, [r0], -r8
     754:	f8540001 			; <UNDEFINED> instruction: 0xf8540001
     758:	04000004 	streq	r0, [r0], #-4
     75c:	01000005 	tsteq	r0, r5
     760:	05045000 	streq	r5, [r4, #-0]
     764:	050c0000 	streq	r0, [ip, #-0]
     768:	00030000 	andeq	r0, r3, r0
     76c:	009f0174 	addseq	r0, pc, r4, ror r1	; <UNPREDICTABLE>
     770:	00000000 	andeq	r0, r0, r0
     774:	a8000000 	stmdage	r0, {}	; <UNPREDICTABLE>
     778:	0c000002 	stceq	0, cr0, [r0], {2}
     77c:	01000005 	tsteq	r0, r5
     780:	050c5800 	streq	r5, [ip, #-2048]	; 0x800
     784:	05240000 	streq	r0, [r4, #-0]!
     788:	000a0000 	andeq	r0, sl, r0
     78c:	f35101f3 	vbsl	q8, <illegal reg q8.5>, <illegal reg q9.5>
     790:	31225001 	teqcc	r2, r1
     794:	00009f1c 	andeq	r9, r0, ip, lsl pc
     798:	00000000 	andeq	r0, r0, r0
     79c:	03f40000 	mvnseq	r0, #0
     7a0:	03f80000 	mvnseq	r0, #0
     7a4:	00010000 	andeq	r0, r1, r0
     7a8:	00041850 	andeq	r1, r4, r0, asr r8
     7ac:	00041c00 	andeq	r1, r4, r0, lsl #24
     7b0:	50000100 	andpl	r0, r0, r0, lsl #2
     7b4:	0000043c 	andeq	r0, r0, ip, lsr r4
     7b8:	00000440 	andeq	r0, r0, r0, asr #8
     7bc:	60500001 	subsvs	r0, r0, r1
     7c0:	64000004 	strvs	r0, [r0], #-4
     7c4:	01000004 	tsteq	r0, r4
     7c8:	046c5000 	strbteq	r5, [ip], #-0
     7cc:	04700000 	ldrbteq	r0, [r0], #-0
     7d0:	00010000 	andeq	r0, r1, r0
     7d4:	00049050 	andeq	r9, r4, r0, asr r0
     7d8:	00049400 	andeq	r9, r4, r0, lsl #8
     7dc:	50000100 	andpl	r0, r0, r0, lsl #2
     7e0:	000004b8 			; <UNDEFINED> instruction: 0x000004b8
     7e4:	000004e0 	andeq	r0, r0, r0, ror #9
     7e8:	00500001 	subseq	r0, r0, r1
     7ec:	00000000 	andeq	r0, r0, r0
     7f0:	ec000000 	stc	0, cr0, [r0], {-0}
     7f4:	f4000002 	vst4.8	{d0-d3}, [r0], r2
     7f8:	02000002 	andeq	r0, r0, #2
     7fc:	f49f3000 			; <UNDEFINED> instruction: 0xf49f3000
     800:	f8000002 			; <UNDEFINED> instruction: 0xf8000002
     804:	01000002 	tsteq	r0, r2
     808:	03045700 	movweq	r5, #18176	; 0x4700
     80c:	04e00000 	strbteq	r0, [r0], #0
     810:	00010000 	andeq	r0, r1, r0
     814:	00000057 	andeq	r0, r0, r7, asr r0
	...
     820:	00000c00 	andeq	r0, r0, r0, lsl #24
     824:	50000100 	andpl	r0, r0, r0, lsl #2
     828:	0000000c 	andeq	r0, r0, ip
     82c:	00000020 	andeq	r0, r0, r0, lsr #32
     830:	00540001 	subseq	r0, r4, r1
     834:	00000000 	andeq	r0, r0, r0
     838:	34000000 	strcc	r0, [r0], #-0
     83c:	3c000000 	stccc	0, cr0, [r0], {-0}
     840:	03000000 	movweq	r0, #0
     844:	9f047300 	svcls	0x00047300
     848:	0000003c 	andeq	r0, r0, ip, lsr r0
     84c:	00000047 	andeq	r0, r0, r7, asr #32
     850:	00530001 	subseq	r0, r3, r1
     854:	00000000 	andeq	r0, r0, r0
     858:	48000000 	stmdami	r0, {}	; <UNPREDICTABLE>
     85c:	74000000 	strvc	r0, [r0], #-0
     860:	01000000 	mrseq	r0, (UNDEF: 0)
     864:	00745000 	rsbseq	r5, r4, r0
     868:	00830000 	addeq	r0, r3, r0
     86c:	00030000 	andeq	r0, r3, r0
     870:	009f7873 	addseq	r7, pc, r3, ror r8	; <UNPREDICTABLE>
     874:	00000000 	andeq	r0, r0, r0
     878:	98000000 	stmdals	r0, {}	; <UNPREDICTABLE>
     87c:	9c000087 	stcls	0, cr0, [r0], {135}	; 0x87
     880:	02000087 	andeq	r0, r0, #135	; 0x87
     884:	9c9f3000 	ldcls	0, cr3, [pc], {0}
     888:	a0000087 	andge	r0, r0, r7, lsl #1
     88c:	01000087 	smlabbeq	r0, r7, r0, r0
     890:	00005000 	andeq	r5, r0, r0
     894:	00000000 	andeq	r0, r0, r0
     898:	87b00000 	ldrhi	r0, [r0, r0]!
     89c:	87b40000 	ldrhi	r0, [r4, r0]!
     8a0:	00020000 	andeq	r0, r2, r0
     8a4:	87b49f30 			; <UNDEFINED> instruction: 0x87b49f30
     8a8:	87b80000 	ldrhi	r0, [r8, r0]!
     8ac:	00010000 	andeq	r0, r1, r0
     8b0:	0087bc53 	addeq	fp, r7, r3, asr ip
     8b4:	0087c400 	addeq	ip, r7, r0, lsl #8
     8b8:	53000100 	movwpl	r0, #256	; 0x100
	...
     8c8:	00000004 	andeq	r0, r0, r4
     8cc:	04500001 	ldrbeq	r0, [r0], #-1
     8d0:	0c000000 	stceq	0, cr0, [r0], {-0}
     8d4:	01000000 	mrseq	r0, (UNDEF: 0)
     8d8:	000c5300 	andeq	r5, ip, r0, lsl #6
     8dc:	00100000 	andseq	r0, r0, r0
     8e0:	00010000 	andeq	r0, r1, r0
     8e4:	00001050 	andeq	r1, r0, r0, asr r0
     8e8:	00001c00 	andeq	r1, r0, r0, lsl #24
     8ec:	53000100 	movwpl	r0, #256	; 0x100
	...
     8f8:	0000003c 	andeq	r0, r0, ip, lsr r0
     8fc:	00000047 	andeq	r0, r0, r7, asr #32
     900:	47500001 	ldrbmi	r0, [r0, -r1]
     904:	60000000 	andvs	r0, r0, r0
     908:	01000000 	mrseq	r0, (UNDEF: 0)
     90c:	00005500 	andeq	r5, r0, r0, lsl #10
     910:	00000000 	andeq	r0, r0, r0
     914:	00500000 	subseq	r0, r0, r0
     918:	00540000 	subseq	r0, r4, r0
     91c:	00010000 	andeq	r0, r1, r0
     920:	00000050 	andeq	r0, r0, r0, asr r0
     924:	00000000 	andeq	r0, r0, r0
     928:	00006000 	andeq	r6, r0, r0
     92c:	00006c00 	andeq	r6, r0, r0, lsl #24
     930:	50000100 	andpl	r0, r0, r0, lsl #2
     934:	0000006c 	andeq	r0, r0, ip, rrx
     938:	00000074 	andeq	r0, r0, r4, ror r0
     93c:	01f30004 	mvnseq	r0, r4
     940:	00009f50 	andeq	r9, r0, r0, asr pc
     944:	00000000 	andeq	r0, r0, r0
     948:	00740000 	rsbseq	r0, r4, r0
     94c:	00800000 	addeq	r0, r0, r0
     950:	00010000 	andeq	r0, r1, r0
     954:	00008050 	andeq	r8, r0, r0, asr r0
     958:	00008800 	andeq	r8, r0, r0, lsl #16
     95c:	f3000400 	vshl.u8	d0, d0, d0
     960:	009f5001 	addseq	r5, pc, r1
	...
     96c:	18000000 	stmdane	r0, {}	; <UNPREDICTABLE>
     970:	01000000 	mrseq	r0, (UNDEF: 0)
     974:	00185000 	andseq	r5, r8, r0
     978:	01540000 	cmpeq	r4, r0
     97c:	00040000 	andeq	r0, r4, r0
     980:	9f5001f3 	svcls	0x005001f3
	...
     990:	0000001c 	andeq	r0, r0, ip, lsl r0
     994:	1c510001 	mrrcne	0, 0, r0, r1, cr1
     998:	54000000 	strpl	r0, [r0], #-0
     99c:	04000001 	streq	r0, [r0], #-1
     9a0:	5101f300 	mrspl	pc, SP_irq	; <UNPREDICTABLE>
     9a4:	0000009f 	muleq	r0, pc, r0	; <UNPREDICTABLE>
     9a8:	00000000 	andeq	r0, r0, r0
     9ac:	00001000 	andeq	r1, r0, r0
     9b0:	00013400 	andeq	r3, r1, r0, lsl #8
     9b4:	55000100 	strpl	r0, [r0, #-256]	; 0x100
	...
     9c0:	00000010 	andeq	r0, r0, r0, lsl r0
     9c4:	00000034 	andeq	r0, r0, r4, lsr r0
     9c8:	34550001 	ldrbcc	r0, [r5], #-1
     9cc:	34000000 	strcc	r0, [r0], #-0
     9d0:	01000001 	tsteq	r0, r1
     9d4:	01345800 	teqeq	r4, r0, lsl #16
     9d8:	01540000 	cmpeq	r4, r0
     9dc:	00010000 	andeq	r0, r1, r0
     9e0:	00000055 	andeq	r0, r0, r5, asr r0
     9e4:	00000000 	andeq	r0, r0, r0
     9e8:	00001400 	andeq	r1, r0, r0, lsl #8
     9ec:	00013400 	andeq	r3, r1, r0, lsl #8
     9f0:	55000100 	strpl	r0, [r0, #-256]	; 0x100
	...
     9fc:	00000020 	andeq	r0, r0, r0, lsr #32
     a00:	00000134 	andeq	r0, r0, r4, lsr r1
     a04:	00550001 	subseq	r0, r5, r1
     a08:	00000000 	andeq	r0, r0, r0
     a0c:	24000000 	strcs	r0, [r0], #-0
     a10:	28000000 	stmdacs	r0, {}	; <UNPREDICTABLE>
     a14:	01000000 	mrseq	r0, (UNDEF: 0)
     a18:	00005300 	andeq	r5, r0, r0, lsl #6
     a1c:	00000000 	andeq	r0, r0, r0
     a20:	00340000 	eorseq	r0, r4, r0
     a24:	00540000 	subseq	r0, r4, r0
     a28:	00010000 	andeq	r0, r1, r0
     a2c:	00005458 	andeq	r5, r0, r8, asr r4
     a30:	00013400 	andeq	r3, r1, r0, lsl #8
     a34:	75000500 	strvc	r0, [r0, #-1280]	; 0x500
     a38:	9f243100 	svcls	0x00243100
	...
     a44:	00000034 	andeq	r0, r0, r4, lsr r0
     a48:	0000003c 	andeq	r0, r0, ip, lsr r0
     a4c:	00770005 	rsbseq	r0, r7, r5
     a50:	3c9f1a31 	vldmiacc	pc, {s2-s50}
     a54:	3f000000 	svccc	0x00000000
     a58:	01000000 	mrseq	r0, (UNDEF: 0)
     a5c:	003f5100 	eorseq	r5, pc, r0, lsl #2
     a60:	01540000 	cmpeq	r4, r0
     a64:	00050000 	andeq	r0, r5, r0
     a68:	1a310077 	bne	c40c4c <__bss_end__+0xc36ddc>
     a6c:	0000009f 	muleq	r0, pc, r0	; <UNPREDICTABLE>
     a70:	00000000 	andeq	r0, r0, r0
     a74:	00004000 	andeq	r4, r0, r0
     a78:	00005400 	andeq	r5, r0, r0, lsl #8
     a7c:	58000100 	stmdapl	r0, {r8}
     a80:	00000054 	andeq	r0, r0, r4, asr r0
     a84:	00000134 	andeq	r0, r0, r4, lsr r1
     a88:	00750005 	rsbseq	r0, r5, r5
     a8c:	009f2431 	addseq	r2, pc, r1, lsr r4	; <UNPREDICTABLE>
     a90:	00000000 	andeq	r0, r0, r0
     a94:	44000000 	strmi	r0, [r0], #-0
     a98:	48000000 	stmdami	r0, {}	; <UNPREDICTABLE>
     a9c:	01000000 	mrseq	r0, (UNDEF: 0)
     aa0:	00005300 	andeq	r5, r0, r0, lsl #6
     aa4:	00000000 	andeq	r0, r0, r0
     aa8:	00540000 	subseq	r0, r4, r0
     aac:	00740000 	rsbseq	r0, r4, r0
     ab0:	00010000 	andeq	r0, r1, r0
     ab4:	00007458 	andeq	r7, r0, r8, asr r4
     ab8:	00013400 	andeq	r3, r1, r0, lsl #8
     abc:	75000800 	strvc	r0, [r0, #-2048]	; 0x800
     ac0:	75243100 	strvc	r3, [r4, #-256]!	; 0x100
     ac4:	009f2200 	addseq	r2, pc, r0, lsl #4
     ac8:	00000000 	andeq	r0, r0, r0
     acc:	60000000 	andvs	r0, r0, r0
     ad0:	74000000 	strvc	r0, [r0], #-0
     ad4:	01000000 	mrseq	r0, (UNDEF: 0)
     ad8:	00745800 	rsbseq	r5, r4, r0, lsl #16
     adc:	01340000 	teqeq	r4, r0
     ae0:	00080000 	andeq	r0, r8, r0
     ae4:	24310075 	ldrtcs	r0, [r1], #-117	; 0x75
     ae8:	9f220075 	svcls	0x00220075
	...
     af4:	00000064 	andeq	r0, r0, r4, rrx
     af8:	00000068 	andeq	r0, r0, r8, rrx
     afc:	00530001 	subseq	r0, r3, r1
     b00:	00000000 	andeq	r0, r0, r0
     b04:	74000000 	strvc	r0, [r0], #-0
     b08:	94000000 	strls	r0, [r0], #-0
     b0c:	01000000 	mrseq	r0, (UNDEF: 0)
     b10:	00945800 	addseq	r5, r4, r0, lsl #16
     b14:	01340000 	teqeq	r4, r0
     b18:	00050000 	andeq	r0, r5, r0
     b1c:	24320075 	ldrtcs	r0, [r2], #-117	; 0x75
     b20:	0000009f 	muleq	r0, pc, r0	; <UNPREDICTABLE>
     b24:	00000000 	andeq	r0, r0, r0
     b28:	00008000 	andeq	r8, r0, r0
     b2c:	00009400 	andeq	r9, r0, r0, lsl #8
     b30:	58000100 	stmdapl	r0, {r8}
     b34:	00000094 	muleq	r0, r4, r0
     b38:	00000134 	andeq	r0, r0, r4, lsr r1
     b3c:	00750005 	rsbseq	r0, r5, r5
     b40:	009f2432 	addseq	r2, pc, r2, lsr r4	; <UNPREDICTABLE>
     b44:	00000000 	andeq	r0, r0, r0
     b48:	84000000 	strhi	r0, [r0], #-0
     b4c:	88000000 	stmdahi	r0, {}	; <UNPREDICTABLE>
     b50:	01000000 	mrseq	r0, (UNDEF: 0)
     b54:	00005300 	andeq	r5, r0, r0, lsl #6
     b58:	00000000 	andeq	r0, r0, r0
     b5c:	00940000 	addseq	r0, r4, r0
     b60:	00b40000 	adcseq	r0, r4, r0
     b64:	00010000 	andeq	r0, r1, r0
     b68:	0000b458 	andeq	fp, r0, r8, asr r4
     b6c:	00013400 	andeq	r3, r1, r0, lsl #8
     b70:	75000800 	strvc	r0, [r0, #-2048]	; 0x800
     b74:	75243200 	strvc	r3, [r4, #-512]!	; 0x200
     b78:	009f2200 	addseq	r2, pc, r0, lsl #4
     b7c:	00000000 	andeq	r0, r0, r0
     b80:	a0000000 	andge	r0, r0, r0
     b84:	b4000000 	strlt	r0, [r0], #-0
     b88:	01000000 	mrseq	r0, (UNDEF: 0)
     b8c:	00b45800 	adcseq	r5, r4, r0, lsl #16
     b90:	01340000 	teqeq	r4, r0
     b94:	00080000 	andeq	r0, r8, r0
     b98:	24320075 	ldrtcs	r0, [r2], #-117	; 0x75
     b9c:	9f220075 	svcls	0x00220075
	...
     ba8:	000000a4 	andeq	r0, r0, r4, lsr #1
     bac:	000000a8 	andeq	r0, r0, r8, lsr #1
     bb0:	00530001 	subseq	r0, r3, r1
     bb4:	00000000 	andeq	r0, r0, r0
     bb8:	b4000000 	strlt	r0, [r0], #-0
     bbc:	d4000000 	strle	r0, [r0], #-0
     bc0:	01000000 	mrseq	r0, (UNDEF: 0)
     bc4:	00d45800 	sbcseq	r5, r4, r0, lsl #16
     bc8:	01340000 	teqeq	r4, r0
     bcc:	000a0000 	andeq	r0, sl, r0
     bd0:	24320075 	ldrtcs	r0, [r2], #-117	; 0x75
     bd4:	24310075 	ldrtcs	r0, [r1], #-117	; 0x75
     bd8:	00009f22 	andeq	r9, r0, r2, lsr #30
     bdc:	00000000 	andeq	r0, r0, r0
     be0:	00c00000 	sbceq	r0, r0, r0
     be4:	00d40000 	sbcseq	r0, r4, r0
     be8:	00010000 	andeq	r0, r1, r0
     bec:	0000d458 	andeq	sp, r0, r8, asr r4
     bf0:	00013400 	andeq	r3, r1, r0, lsl #8
     bf4:	75000a00 	strvc	r0, [r0, #-2560]	; 0xa00
     bf8:	75243200 	strvc	r3, [r4, #-512]!	; 0x200
     bfc:	22243100 	eorcs	r3, r4, #0, 2
     c00:	0000009f 	muleq	r0, pc, r0	; <UNPREDICTABLE>
     c04:	00000000 	andeq	r0, r0, r0
     c08:	0000c400 	andeq	ip, r0, r0, lsl #8
     c0c:	0000c800 	andeq	ip, r0, r0, lsl #16
     c10:	53000100 	movwpl	r0, #256	; 0x100
	...
     c1c:	000000d4 	ldrdeq	r0, [r0], -r4
     c20:	000000f4 	strdeq	r0, [r0], -r4
     c24:	f4580001 			; <UNDEFINED> instruction: 0xf4580001
     c28:	34000000 	strcc	r0, [r0], #-0
     c2c:	0d000001 	stceq	0, cr0, [r0, #-4]
     c30:	32007500 	andcc	r7, r0, #0, 10
     c34:	31007524 	tstcc	r0, r4, lsr #10
     c38:	00752224 	rsbseq	r2, r5, r4, lsr #4
     c3c:	00009f22 	andeq	r9, r0, r2, lsr #30
     c40:	00000000 	andeq	r0, r0, r0
     c44:	00e00000 	rsceq	r0, r0, r0
     c48:	00f40000 	rscseq	r0, r4, r0
     c4c:	00010000 	andeq	r0, r1, r0
     c50:	0000f458 	andeq	pc, r0, r8, asr r4	; <UNPREDICTABLE>
     c54:	00013400 	andeq	r3, r1, r0, lsl #8
     c58:	75000d00 	strvc	r0, [r0, #-3328]	; 0xd00
     c5c:	75243200 	strvc	r3, [r4, #-512]!	; 0x200
     c60:	22243100 	eorcs	r3, r4, #0, 2
     c64:	9f220075 	svcls	0x00220075
	...
     c70:	000000e4 	andeq	r0, r0, r4, ror #1
     c74:	000000e8 	andeq	r0, r0, r8, ror #1
     c78:	00530001 	subseq	r0, r3, r1
     c7c:	00000000 	andeq	r0, r0, r0
     c80:	f4000000 	vst4.8	{d0-d3}, [r0], r0
     c84:	14000000 	strne	r0, [r0], #-0
     c88:	01000001 	tsteq	r0, r1
     c8c:	01145800 	tsteq	r4, r0, lsl #16
     c90:	01340000 	teqeq	r4, r0
     c94:	00050000 	andeq	r0, r5, r0
     c98:	24330075 	ldrtcs	r0, [r3], #-117	; 0x75
     c9c:	0000009f 	muleq	r0, pc, r0	; <UNPREDICTABLE>
     ca0:	00000000 	andeq	r0, r0, r0
     ca4:	00010000 	andeq	r0, r1, r0
     ca8:	00011400 	andeq	r1, r1, r0, lsl #8
     cac:	58000100 	stmdapl	r0, {r8}
     cb0:	00000114 	andeq	r0, r0, r4, lsl r1
     cb4:	00000134 	andeq	r0, r0, r4, lsr r1
     cb8:	00750005 	rsbseq	r0, r5, r5
     cbc:	009f2433 	addseq	r2, pc, r3, lsr r4	; <UNPREDICTABLE>
     cc0:	00000000 	andeq	r0, r0, r0
     cc4:	04000000 	streq	r0, [r0], #-0
     cc8:	08000001 	stmdaeq	r0, {r0}
     ccc:	01000001 	tsteq	r0, r1
     cd0:	00005300 	andeq	r5, r0, r0, lsl #6
     cd4:	00000000 	andeq	r0, r0, r0
     cd8:	01140000 	tsteq	r4, r0
     cdc:	011c0000 	tsteq	ip, r0
     ce0:	00060000 	andeq	r0, r6, r0
     ce4:	80080077 	andhi	r0, r8, r7, ror r0
     ce8:	011c9f1a 	tsteq	ip, sl, lsl pc
     cec:	011f0000 	tsteq	pc, r0
     cf0:	00010000 	andeq	r0, r1, r0
     cf4:	00011f51 	andeq	r1, r1, r1, asr pc
     cf8:	00015400 	andeq	r5, r1, r0, lsl #8
     cfc:	77000600 	strvc	r0, [r0, -r0, lsl #12]
     d00:	1a800800 	bne	fe002d08 <__bss_end__+0xfdff8e98>
     d04:	0000009f 	muleq	r0, pc, r0	; <UNPREDICTABLE>
     d08:	00000000 	andeq	r0, r0, r0
     d0c:	00012400 	andeq	r2, r1, r0, lsl #8
     d10:	00012800 	andeq	r2, r1, r0, lsl #16
     d14:	53000100 	movwpl	r0, #256	; 0x100
	...
     d20:	00000144 	andeq	r0, r0, r4, asr #2
     d24:	00000148 	andeq	r0, r0, r8, asr #2
     d28:	00530001 	subseq	r0, r3, r1
     d2c:	00000000 	andeq	r0, r0, r0
     d30:	54000000 	strpl	r0, [r0], #-0
     d34:	6b000001 	blvs	d40 <_start-0x72c0>
     d38:	01000001 	tsteq	r0, r1
     d3c:	016b5000 	cmneq	fp, r0
     d40:	01d00000 	bicseq	r0, r0, r0
     d44:	00010000 	andeq	r0, r1, r0
     d48:	0001d059 	andeq	sp, r1, r9, asr r0
     d4c:	00030c00 	andeq	r0, r3, r0, lsl #24
     d50:	f3000400 	vshl.u8	d0, d0, d0
     d54:	0c9f5001 	ldceq	0, cr5, [pc], {1}
     d58:	14000003 	strne	r0, [r0], #-3
     d5c:	01000003 	tsteq	r0, r3
     d60:	03145900 	tsteq	r4, #0, 18
     d64:	031c0000 	tsteq	ip, #0
     d68:	00040000 	andeq	r0, r4, r0
     d6c:	9f5001f3 	svcls	0x005001f3
	...
     d78:	00000154 	andeq	r0, r0, r4, asr r1
     d7c:	0000016b 	andeq	r0, r0, fp, ror #2
     d80:	6b510001 	blvs	1440d8c <__bss_end__+0x1436f1c>
     d84:	1c000001 	stcne	0, cr0, [r0], {1}
     d88:	01000003 	tsteq	r0, r3
     d8c:	00005600 	andeq	r5, r0, r0, lsl #12
     d90:	00000000 	andeq	r0, r0, r0
     d94:	01a80000 			; <UNDEFINED> instruction: 0x01a80000
     d98:	02980000 	addseq	r0, r8, #0
     d9c:	00010000 	andeq	r0, r1, r0
     da0:	00000058 	andeq	r0, r0, r8, asr r0
     da4:	00000000 	andeq	r0, r0, r0
     da8:	0001ac00 	andeq	sl, r1, r0, lsl #24
     dac:	0002d000 	andeq	sp, r2, r0
     db0:	54000100 	strpl	r0, [r0], #-256	; 0x100
	...
     dbc:	000001ac 	andeq	r0, r0, ip, lsr #3
     dc0:	000002d0 	ldrdeq	r0, [r0], -r0	; <UNPREDICTABLE>
     dc4:	00740005 	rsbseq	r0, r4, r5
     dc8:	009f2531 	addseq	r2, pc, r1, lsr r5	; <UNPREDICTABLE>
     dcc:	00000000 	andeq	r0, r0, r0
     dd0:	ac000000 	stcge	0, cr0, [r0], {-0}
     dd4:	d0000001 	andle	r0, r0, r1
     dd8:	02000001 	andeq	r0, r0, #1
     ddc:	d09f3000 	addsle	r3, pc, r0
     de0:	0c000001 	stceq	0, cr0, [r0], {1}
     de4:	01000003 	tsteq	r0, r3
     de8:	03145900 	tsteq	r4, #0, 18
     dec:	031c0000 	tsteq	ip, #0
     df0:	00010000 	andeq	r0, r1, r0
     df4:	00000059 	andeq	r0, r0, r9, asr r0
     df8:	00000000 	andeq	r0, r0, r0
     dfc:	00016800 	andeq	r6, r1, r0, lsl #16
     e00:	00016b00 	andeq	r6, r1, r0, lsl #22
     e04:	51000100 	mrspl	r0, (UNDEF: 16)
     e08:	0000016b 	andeq	r0, r0, fp, ror #2
     e0c:	0000031c 	andeq	r0, r0, ip, lsl r3
     e10:	00560001 	subseq	r0, r6, r1
     e14:	00000000 	andeq	r0, r0, r0
     e18:	70000000 	andvc	r0, r0, r0
     e1c:	ac000001 	stcge	0, cr0, [r0], {1}
     e20:	01000001 	tsteq	r0, r1
     e24:	030c5400 	movweq	r5, #50176	; 0xc400
     e28:	03140000 	tsteq	r4, #0
     e2c:	00010000 	andeq	r0, r1, r0
     e30:	00000054 	andeq	r0, r0, r4, asr r0
     e34:	00000000 	andeq	r0, r0, r0
     e38:	0001a800 	andeq	sl, r1, r0, lsl #16
     e3c:	0001c400 	andeq	ip, r1, r0, lsl #8
     e40:	58000100 	stmdapl	r0, {r8}
	...
     e4c:	000001b0 			; <UNDEFINED> instruction: 0x000001b0
     e50:	000001cb 	andeq	r0, r0, fp, asr #3
     e54:	cb520001 	blgt	1480e60 <__bss_end__+0x1476ff0>
     e58:	d0000001 	andle	r0, r0, r1
     e5c:	08000002 	stmdaeq	r0, {r1}
     e60:	31007400 	tstcc	r0, r0, lsl #8
     e64:	22007425 	andcs	r7, r0, #620756992	; 0x25000000
     e68:	0000009f 	muleq	r0, pc, r0	; <UNPREDICTABLE>
     e6c:	00000000 	andeq	r0, r0, r0
     e70:	0001b000 	andeq	fp, r1, r0
     e74:	0001c400 	andeq	ip, r1, r0, lsl #8
     e78:	58000100 	stmdapl	r0, {r8}
	...
     e84:	000001b4 			; <UNDEFINED> instruction: 0x000001b4
     e88:	000001b8 			; <UNDEFINED> instruction: 0x000001b8
     e8c:	00530001 	subseq	r0, r3, r1
     e90:	00000000 	andeq	r0, r0, r0
     e94:	d0000000 	andle	r0, r0, r0
     e98:	d0000001 	andle	r0, r0, r1
     e9c:	01000002 	tsteq	r0, r2
     ea0:	00005400 	andeq	r5, r0, r0, lsl #8
     ea4:	00000000 	andeq	r0, r0, r0
     ea8:	01d00000 	bicseq	r0, r0, r0
     eac:	01e40000 	mvneq	r0, r0
     eb0:	00010000 	andeq	r0, r1, r0
     eb4:	00000058 	andeq	r0, r0, r8, asr r0
     eb8:	00000000 	andeq	r0, r0, r0
     ebc:	0001d400 	andeq	sp, r1, r0, lsl #8
     ec0:	0001d800 	andeq	sp, r1, r0, lsl #16
     ec4:	53000100 	movwpl	r0, #256	; 0x100
	...
     ed0:	000001f4 	strdeq	r0, [r0], -r4
     ed4:	000002d0 	ldrdeq	r0, [r0], -r0	; <UNPREDICTABLE>
     ed8:	00540001 	subseq	r0, r4, r1
     edc:	00000000 	andeq	r0, r0, r0
     ee0:	f4000000 	vst4.8	{d0-d3}, [r0], r0
     ee4:	08000001 	stmdaeq	r0, {r0}
     ee8:	01000002 	tsteq	r0, r2
     eec:	00005800 	andeq	r5, r0, r0, lsl #16
     ef0:	00000000 	andeq	r0, r0, r0
     ef4:	01f80000 	mvnseq	r0, r0
     ef8:	01fc0000 	mvnseq	r0, r0
     efc:	00010000 	andeq	r0, r1, r0
     f00:	00000053 	andeq	r0, r0, r3, asr r0
     f04:	00000000 	andeq	r0, r0, r0
     f08:	00021800 	andeq	r1, r2, r0, lsl #16
     f0c:	0002d000 	andeq	sp, r2, r0
     f10:	54000100 	strpl	r0, [r0], #-256	; 0x100
	...
     f1c:	00000218 	andeq	r0, r0, r8, lsl r2
     f20:	0000022c 	andeq	r0, r0, ip, lsr #4
     f24:	00580001 	subseq	r0, r8, r1
     f28:	00000000 	andeq	r0, r0, r0
     f2c:	1c000000 	stcne	0, cr0, [r0], {-0}
     f30:	20000002 	andcs	r0, r0, r2
     f34:	01000002 	tsteq	r0, r2
     f38:	00005300 	andeq	r5, r0, r0, lsl #6
     f3c:	00000000 	andeq	r0, r0, r0
     f40:	023c0000 	eorseq	r0, ip, #0
     f44:	02d00000 	sbcseq	r0, r0, #0
     f48:	00010000 	andeq	r0, r1, r0
     f4c:	00000054 	andeq	r0, r0, r4, asr r0
     f50:	00000000 	andeq	r0, r0, r0
     f54:	00023c00 	andeq	r3, r2, r0, lsl #24
     f58:	00025000 	andeq	r5, r2, r0
     f5c:	58000100 	stmdapl	r0, {r8}
	...
     f68:	00000240 	andeq	r0, r0, r0, asr #4
     f6c:	00000244 	andeq	r0, r0, r4, asr #4
     f70:	00530001 	subseq	r0, r3, r1
     f74:	00000000 	andeq	r0, r0, r0
     f78:	60000000 	andvs	r0, r0, r0
     f7c:	d0000002 	andle	r0, r0, r2
     f80:	01000002 	tsteq	r0, r2
     f84:	00005400 	andeq	r5, r0, r0, lsl #8
     f88:	00000000 	andeq	r0, r0, r0
     f8c:	02600000 	rsbeq	r0, r0, #0
     f90:	02740000 	rsbseq	r0, r4, #0
     f94:	00010000 	andeq	r0, r1, r0
     f98:	00000058 	andeq	r0, r0, r8, asr r0
     f9c:	00000000 	andeq	r0, r0, r0
     fa0:	00026400 	andeq	r6, r2, r0, lsl #8
     fa4:	00026800 	andeq	r6, r2, r0, lsl #16
     fa8:	53000100 	movwpl	r0, #256	; 0x100
	...
     fb4:	00000284 	andeq	r0, r0, r4, lsl #5
     fb8:	000002d0 	ldrdeq	r0, [r0], -r0	; <UNPREDICTABLE>
     fbc:	00540001 	subseq	r0, r4, r1
     fc0:	00000000 	andeq	r0, r0, r0
     fc4:	84000000 	strhi	r0, [r0], #-0
     fc8:	98000002 	stmdals	r0, {r1}
     fcc:	01000002 	tsteq	r0, r2
     fd0:	00005800 	andeq	r5, r0, r0, lsl #16
     fd4:	00000000 	andeq	r0, r0, r0
     fd8:	02880000 	addeq	r0, r8, #0
     fdc:	028c0000 	addeq	r0, ip, #0
     fe0:	00010000 	andeq	r0, r1, r0
     fe4:	00000053 	andeq	r0, r0, r3, asr r0
     fe8:	00000000 	andeq	r0, r0, r0
     fec:	0002a800 	andeq	sl, r2, r0, lsl #16
     ff0:	0002d000 	andeq	sp, r2, r0
     ff4:	54000100 	strpl	r0, [r0], #-256	; 0x100
	...
    1000:	000002ac 	andeq	r0, r0, ip, lsr #5
    1004:	000002b0 			; <UNDEFINED> instruction: 0x000002b0
    1008:	00530001 	subseq	r0, r3, r1
    100c:	00000000 	andeq	r0, r0, r0
    1010:	c8000000 	stmdagt	r0, {}	; <UNPREDICTABLE>
    1014:	0c000002 	stceq	0, cr0, [r0], {2}
    1018:	02000003 	andeq	r0, r0, #3
    101c:	149f3000 	ldrne	r3, [pc], #0	; 1024 <_start-0x6fdc>
    1020:	1c000003 	stcne	0, cr0, [r0], {3}
    1024:	02000003 	andeq	r0, r0, #3
    1028:	009f3000 	addseq	r3, pc, r0
    102c:	00000000 	andeq	r0, r0, r0
    1030:	c8000000 	stmdagt	r0, {}	; <UNPREDICTABLE>
    1034:	0c000002 	stceq	0, cr0, [r0], {2}
    1038:	01000003 	tsteq	r0, r3
    103c:	03145500 	tsteq	r4, #0, 10
    1040:	031c0000 	tsteq	ip, #0
    1044:	00010000 	andeq	r0, r1, r0
    1048:	00000055 	andeq	r0, r0, r5, asr r0
    104c:	00000000 	andeq	r0, r0, r0
    1050:	0002d000 	andeq	sp, r2, r0
    1054:	00030c00 	andeq	r0, r3, r0, lsl #24
    1058:	54000100 	strpl	r0, [r0], #-256	; 0x100
    105c:	00000314 	andeq	r0, r0, r4, lsl r3
    1060:	0000031c 	andeq	r0, r0, ip, lsl r3
    1064:	00540001 	subseq	r0, r4, r1
    1068:	00000000 	andeq	r0, r0, r0
    106c:	1c000000 	stcne	0, cr0, [r0], {-0}
    1070:	3f000003 	svccc	0x00000003
    1074:	01000003 	tsteq	r0, r3
    1078:	033f5000 	teqeq	pc, #0
    107c:	03600000 	cmneq	r0, #0
    1080:	00010000 	andeq	r0, r1, r0
    1084:	00036058 	andeq	r6, r3, r8, asr r0
    1088:	00037000 	andeq	r7, r3, r0
    108c:	50000100 	andpl	r0, r0, r0, lsl #2
    1090:	00000370 	andeq	r0, r0, r0, ror r3
    1094:	000003b0 			; <UNDEFINED> instruction: 0x000003b0
    1098:	b0580001 	subslt	r0, r8, r1
    109c:	c0000003 	andgt	r0, r0, r3
    10a0:	04000003 	streq	r0, [r0], #-3
    10a4:	5001f300 	andpl	pc, r1, r0, lsl #6
    10a8:	0000009f 	muleq	r0, pc, r0	; <UNPREDICTABLE>
    10ac:	00000000 	andeq	r0, r0, r0
    10b0:	00031c00 	andeq	r1, r3, r0, lsl #24
    10b4:	00033f00 	andeq	r3, r3, r0, lsl #30
    10b8:	51000100 	mrspl	r0, (UNDEF: 16)
    10bc:	0000033f 	andeq	r0, r0, pc, lsr r3
    10c0:	00000360 	andeq	r0, r0, r0, ror #6
    10c4:	60560001 	subsvs	r0, r6, r1
    10c8:	70000003 	andvc	r0, r0, r3
    10cc:	01000003 	tsteq	r0, r3
    10d0:	03705100 	cmneq	r0, #0, 2
    10d4:	03b00000 	movseq	r0, #0
    10d8:	00010000 	andeq	r0, r1, r0
    10dc:	0003b056 	andeq	fp, r3, r6, asr r0
    10e0:	0003c000 	andeq	ip, r3, r0
    10e4:	f3000400 	vshl.u8	d0, d0, d0
    10e8:	009f5101 	addseq	r5, pc, r1, lsl #2
    10ec:	00000000 	andeq	r0, r0, r0
    10f0:	1c000000 	stcne	0, cr0, [r0], {-0}
    10f4:	3f000003 	svccc	0x00000003
    10f8:	01000003 	tsteq	r0, r3
    10fc:	033f5200 	teqeq	pc, #0, 4
    1100:	03600000 	cmneq	r0, #0
    1104:	00040000 	andeq	r0, r4, r0
    1108:	9f5201f3 	svcls	0x005201f3
    110c:	00000360 	andeq	r0, r0, r0, ror #6
    1110:	00000370 	andeq	r0, r0, r0, ror r3
    1114:	70520001 	subsvc	r0, r2, r1
    1118:	b0000003 	andlt	r0, r0, r3
    111c:	03000003 	movweq	r0, #3
    1120:	9f017700 	svcls	0x00017700
    1124:	000003b0 			; <UNDEFINED> instruction: 0x000003b0
    1128:	000003c0 	andeq	r0, r0, r0, asr #7
    112c:	01f30004 	mvnseq	r0, r4
    1130:	00009f52 	andeq	r9, r0, r2, asr pc
    1134:	00000000 	andeq	r0, r0, r0
    1138:	031c0000 	tsteq	ip, #0
    113c:	033f0000 	teqeq	pc, #0
    1140:	00010000 	andeq	r0, r1, r0
    1144:	00033f53 	andeq	r3, r3, r3, asr pc
    1148:	00036000 	andeq	r6, r3, r0
    114c:	f3000400 	vshl.u8	d0, d0, d0
    1150:	609f5301 	addsvs	r5, pc, r1, lsl #6
    1154:	70000003 	andvc	r0, r0, r3
    1158:	01000003 	tsteq	r0, r3
    115c:	03705300 	cmneq	r0, #0, 6
    1160:	03c00000 	biceq	r0, r0, #0
    1164:	00040000 	andeq	r0, r4, r0
    1168:	9f5301f3 	svcls	0x005301f3
	...
    1174:	00000368 	andeq	r0, r0, r8, ror #6
    1178:	00000370 	andeq	r0, r0, r0, ror r3
    117c:	9f300002 	svcls	0x00300002
    1180:	00000370 	andeq	r0, r0, r0, ror r3
    1184:	000003b0 			; <UNDEFINED> instruction: 0x000003b0
    1188:	b0540001 	subslt	r0, r4, r1
    118c:	c0000003 	andgt	r0, r0, r3
    1190:	01000003 	tsteq	r0, r3
    1194:	00005000 	andeq	r5, r0, r0
    1198:	00000000 	andeq	r0, r0, r0
    119c:	03800000 	orreq	r0, r0, #0
    11a0:	03900000 	orrseq	r0, r0, #0
    11a4:	00010000 	andeq	r0, r1, r0
    11a8:	00000050 	andeq	r0, r0, r0, asr r0
    11ac:	00000000 	andeq	r0, r0, r0
    11b0:	0003c000 	andeq	ip, r3, r0
    11b4:	0003df00 	andeq	sp, r3, r0, lsl #30
    11b8:	50000100 	andpl	r0, r0, r0, lsl #2
    11bc:	000003df 	ldrdeq	r0, [r0], -pc	; <UNPREDICTABLE>
    11c0:	00000400 	andeq	r0, r0, r0, lsl #8
    11c4:	00570001 	subseq	r0, r7, r1
    11c8:	10000004 	andne	r0, r0, r4
    11cc:	01000004 	tsteq	r0, r4
    11d0:	04105000 	ldreq	r5, [r0], #-0
    11d4:	04400000 	strbeq	r0, [r0], #-0
    11d8:	00010000 	andeq	r0, r1, r0
    11dc:	00044057 	andeq	r4, r4, r7, asr r0
    11e0:	00045000 	andeq	r5, r4, r0
    11e4:	f3000400 	vshl.u8	d0, d0, d0
    11e8:	009f5001 	addseq	r5, pc, r1
    11ec:	00000000 	andeq	r0, r0, r0
    11f0:	c0000000 	andgt	r0, r0, r0
    11f4:	df000003 	svcle	0x00000003
    11f8:	01000003 	tsteq	r0, r3
    11fc:	03df5100 	bicseq	r5, pc, #0, 2
    1200:	04000000 	streq	r0, [r0], #-0
    1204:	00010000 	andeq	r0, r1, r0
    1208:	00040055 	andeq	r0, r4, r5, asr r0
    120c:	00041000 	andeq	r1, r4, r0
    1210:	51000100 	mrspl	r0, (UNDEF: 16)
    1214:	00000410 	andeq	r0, r0, r0, lsl r4
    1218:	00000440 	andeq	r0, r0, r0, asr #8
    121c:	40550001 	subsmi	r0, r5, r1
    1220:	50000004 	andpl	r0, r0, r4
    1224:	04000004 	streq	r0, [r0], #-4
    1228:	5101f300 	mrspl	pc, SP_irq	; <UNPREDICTABLE>
    122c:	0000009f 	muleq	r0, pc, r0	; <UNPREDICTABLE>
    1230:	00000000 	andeq	r0, r0, r0
    1234:	0003c000 	andeq	ip, r3, r0
    1238:	0003df00 	andeq	sp, r3, r0, lsl #30
    123c:	52000100 	andpl	r0, r0, #0, 2
    1240:	000003df 	ldrdeq	r0, [r0], -pc	; <UNPREDICTABLE>
    1244:	00000400 	andeq	r0, r0, r0, lsl #8
    1248:	01f30004 	mvnseq	r0, r4
    124c:	04009f52 	streq	r9, [r0], #-3922	; 0xf52
    1250:	04100000 	ldreq	r0, [r0], #-0
    1254:	00010000 	andeq	r0, r1, r0
    1258:	00041052 	andeq	r1, r4, r2, asr r0
    125c:	00044000 	andeq	r4, r4, r0
    1260:	76000300 	strvc	r0, [r0], -r0, lsl #6
    1264:	04409f01 	strbeq	r9, [r0], #-3841	; 0xf01
    1268:	04500000 	ldrbeq	r0, [r0], #-0
    126c:	00040000 	andeq	r0, r4, r0
    1270:	9f5201f3 	svcls	0x005201f3
	...
    127c:	000003c0 	andeq	r0, r0, r0, asr #7
    1280:	000003df 	ldrdeq	r0, [r0], -pc	; <UNPREDICTABLE>
    1284:	df530001 	svcle	0x00530001
    1288:	00000003 	andeq	r0, r0, r3
    128c:	01000004 	tsteq	r0, r4
    1290:	04005800 	streq	r5, [r0], #-2048	; 0x800
    1294:	04100000 	ldreq	r0, [r0], #-0
    1298:	00010000 	andeq	r0, r1, r0
    129c:	00041053 	andeq	r1, r4, r3, asr r0
    12a0:	00044000 	andeq	r4, r4, r0
    12a4:	58000100 	stmdapl	r0, {r8}
    12a8:	00000440 	andeq	r0, r0, r0, asr #8
    12ac:	00000450 	andeq	r0, r0, r0, asr r4
    12b0:	01f30004 	mvnseq	r0, r4
    12b4:	00009f53 	andeq	r9, r0, r3, asr pc
    12b8:	00000000 	andeq	r0, r0, r0
    12bc:	04080000 	streq	r0, [r8], #-0
    12c0:	04100000 	ldreq	r0, [r0], #-0
    12c4:	00020000 	andeq	r0, r2, r0
    12c8:	04109f30 	ldreq	r9, [r0], #-3888	; 0xf30
    12cc:	04400000 	strbeq	r0, [r0], #-0
    12d0:	00010000 	andeq	r0, r1, r0
    12d4:	00044054 	andeq	r4, r4, r4, asr r0
    12d8:	00045000 	andeq	r5, r4, r0
    12dc:	50000100 	andpl	r0, r0, r0, lsl #2
	...
    12e8:	00000450 	andeq	r0, r0, r0, asr r4
    12ec:	00000473 	andeq	r0, r0, r3, ror r4
    12f0:	73510001 	cmpvc	r1, #1
    12f4:	24000004 	strcs	r0, [r0], #-4
    12f8:	04000005 	streq	r0, [r0], #-5
    12fc:	5101f300 	mrspl	pc, SP_irq	; <UNPREDICTABLE>
    1300:	0000009f 	muleq	r0, pc, r0	; <UNPREDICTABLE>
    1304:	00000000 	andeq	r0, r0, r0
    1308:	00045000 	andeq	r5, r4, r0
    130c:	00047300 	andeq	r7, r4, r0, lsl #6
    1310:	52000100 	andpl	r0, r0, #0, 2
    1314:	00000473 	andeq	r0, r0, r3, ror r4
    1318:	00000524 	andeq	r0, r0, r4, lsr #10
    131c:	01f30004 	mvnseq	r0, r4
    1320:	00009f52 	andeq	r9, r0, r2, asr pc
    1324:	00000000 	andeq	r0, r0, r0
    1328:	04500000 	ldrbeq	r0, [r0], #-0
    132c:	04730000 	ldrbteq	r0, [r3], #-0
    1330:	00010000 	andeq	r0, r1, r0
    1334:	00047353 	andeq	r7, r4, r3, asr r3
    1338:	00051000 	andeq	r1, r5, r0
    133c:	55000100 	strpl	r0, [r0, #-256]	; 0x100
    1340:	00000510 	andeq	r0, r0, r0, lsl r5
    1344:	00000524 	andeq	r0, r0, r4, lsr #10
    1348:	04700002 	ldrbteq	r0, [r0], #-2
	...
    1354:	00000494 	muleq	r0, r4, r4
    1358:	000004d3 	ldrdeq	r0, [r0], -r3
    135c:	d3520001 	cmple	r2, #1
    1360:	f4000004 	vst4.8	{d0-d3}, [r0], r4
    1364:	06000004 	streq	r0, [r0], -r4
    1368:	77007500 	strvc	r7, [r0, -r0, lsl #10]
    136c:	f49f1e00 			; <UNDEFINED> instruction: 0xf49f1e00
    1370:	24000004 	strcs	r0, [r0], #-4
    1374:	01000005 	tsteq	r0, r5
    1378:	00005200 	andeq	r5, r0, r0, lsl #4
    137c:	00000000 	andeq	r0, r0, r0
    1380:	05240000 	streq	r0, [r4, #-0]!
    1384:	052f0000 	streq	r0, [pc, #-0]!	; 138c <_start-0x6c74>
    1388:	00010000 	andeq	r0, r1, r0
    138c:	00052f50 	andeq	r2, r5, r0, asr pc
    1390:	00056000 	andeq	r6, r5, r0
    1394:	f3000400 	vshl.u8	d0, d0, d0
    1398:	009f5001 	addseq	r5, pc, r1
    139c:	00000000 	andeq	r0, r0, r0
    13a0:	30000000 	andcc	r0, r0, r0
    13a4:	3b000005 	blcc	13c0 <_start-0x6c40>
    13a8:	01000005 	tsteq	r0, r5
    13ac:	00005000 	andeq	r5, r0, r0
    13b0:	00000000 	andeq	r0, r0, r0
    13b4:	05600000 	strbeq	r0, [r0, #-0]!
    13b8:	05700000 	ldrbeq	r0, [r0, #-0]!
    13bc:	00010000 	andeq	r0, r1, r0
    13c0:	00057050 	andeq	r7, r5, r0, asr r0
    13c4:	00058c00 	andeq	r8, r5, r0, lsl #24
    13c8:	55000100 	strpl	r0, [r0, #-256]	; 0x100
	...
    13d4:	00000560 	andeq	r0, r0, r0, ror #10
    13d8:	00000570 	andeq	r0, r0, r0, ror r5
    13dc:	70510001 	subsvc	r0, r1, r1
    13e0:	8c000005 	stchi	0, cr0, [r0], {5}
    13e4:	01000005 	tsteq	r0, r5
    13e8:	00005400 	andeq	r5, r0, r0, lsl #8
    13ec:	00000000 	andeq	r0, r0, r0
    13f0:	058c0000 	streq	r0, [ip]
    13f4:	05a80000 	streq	r0, [r8, #0]!
    13f8:	00010000 	andeq	r0, r1, r0
    13fc:	0005a850 	andeq	sl, r5, r0, asr r8
    1400:	00060000 	andeq	r0, r6, r0
    1404:	55000100 	strpl	r0, [r0, #-256]	; 0x100
    1408:	00000600 	andeq	r0, r0, r0, lsl #12
    140c:	0000061c 	andeq	r0, r0, ip, lsl r6
    1410:	01f30004 	mvnseq	r0, r4
    1414:	00009f50 	andeq	r9, r0, r0, asr pc
    1418:	00000000 	andeq	r0, r0, r0
    141c:	05b80000 	ldreq	r0, [r8, #0]!
    1420:	05c70000 	strbeq	r0, [r7]
    1424:	00010000 	andeq	r0, r1, r0
    1428:	0005c750 	andeq	ip, r5, r0, asr r7
    142c:	0005e800 	andeq	lr, r5, r0, lsl #16
    1430:	54000100 	strpl	r0, [r0], #-256	; 0x100
    1434:	000005e8 	andeq	r0, r0, r8, ror #11
    1438:	000005ec 	andeq	r0, r0, ip, ror #11
    143c:	ec500001 	mrrc	0, 0, r0, r0, cr1	; <UNPREDICTABLE>
    1440:	00000005 	andeq	r0, r0, r5
    1444:	01000006 	tsteq	r0, r6
    1448:	06005400 	streq	r5, [r0], -r0, lsl #8
    144c:	061c0000 	ldreq	r0, [ip], -r0
    1450:	00010000 	andeq	r0, r1, r0
    1454:	00000050 	andeq	r0, r0, r0, asr r0
    1458:	00000000 	andeq	r0, r0, r0
    145c:	00061c00 	andeq	r1, r6, r0, lsl #24
    1460:	00062f00 	andeq	r2, r6, r0, lsl #30
    1464:	50000100 	andpl	r0, r0, r0, lsl #2
    1468:	0000062f 	andeq	r0, r0, pc, lsr #12
    146c:	00000668 	andeq	r0, r0, r8, ror #12
    1470:	01f30004 	mvnseq	r0, r4
    1474:	00009f50 	andeq	r9, r0, r0, asr pc
    1478:	00000000 	andeq	r0, r0, r0
    147c:	061c0000 	ldreq	r0, [ip], -r0
    1480:	062f0000 	strteq	r0, [pc], -r0
    1484:	00010000 	andeq	r0, r1, r0
    1488:	00062f51 	andeq	r2, r6, r1, asr pc
    148c:	00066800 	andeq	r6, r6, r0, lsl #16
    1490:	f3000400 	vshl.u8	d0, d0, d0
    1494:	009f5101 	addseq	r5, pc, r1, lsl #2
    1498:	00000000 	andeq	r0, r0, r0
    149c:	1c000000 	stcne	0, cr0, [r0], {-0}
    14a0:	2f000006 	svccs	0x00000006
    14a4:	01000006 	tsteq	r0, r6
    14a8:	062f5200 	strteq	r5, [pc], -r0, lsl #4
    14ac:	06680000 	strbteq	r0, [r8], -r0
    14b0:	00040000 	andeq	r0, r4, r0
    14b4:	9f5201f3 	svcls	0x005201f3
	...
    14c0:	0000061c 	andeq	r0, r0, ip, lsl r6
    14c4:	0000062f 	andeq	r0, r0, pc, lsr #12
    14c8:	2f530001 	svccs	0x00530001
    14cc:	68000006 	stmdavs	r0, {r1, r2}
    14d0:	04000006 	streq	r0, [r0], #-6
    14d4:	5301f300 	movwpl	pc, #4864	; 0x1300	; <UNPREDICTABLE>
    14d8:	0000009f 	muleq	r0, pc, r0	; <UNPREDICTABLE>
    14dc:	00000000 	andeq	r0, r0, r0
    14e0:	00063000 	andeq	r3, r6, r0
    14e4:	00063b00 	andeq	r3, r6, r0, lsl #22
    14e8:	50000100 	andpl	r0, r0, r0, lsl #2
    14ec:	00000654 	andeq	r0, r0, r4, asr r6
    14f0:	00000668 	andeq	r0, r0, r8, ror #12
    14f4:	00500001 	subseq	r0, r0, r1
	...
    1500:	90000000 	andls	r0, r0, r0
    1504:	01000000 	mrseq	r0, (UNDEF: 0)
    1508:	00905000 	addseq	r5, r0, r0
    150c:	00d40000 	sbcseq	r0, r4, r0
    1510:	00010000 	andeq	r0, r1, r0
    1514:	00000054 	andeq	r0, r0, r4, asr r0
    1518:	00000000 	andeq	r0, r0, r0
    151c:	00004800 	andeq	r4, r0, r0, lsl #16
    1520:	00004c00 	andeq	r4, r0, r0, lsl #24
    1524:	55000100 	strpl	r0, [r0, #-256]	; 0x100
    1528:	00000054 	andeq	r0, r0, r4, asr r0
    152c:	00000058 	andeq	r0, r0, r8, asr r0
    1530:	60550001 	subsvs	r0, r5, r1
    1534:	64000000 	strvs	r0, [r0], #-0
    1538:	01000000 	mrseq	r0, (UNDEF: 0)
    153c:	006c5500 	rsbeq	r5, ip, r0, lsl #10
    1540:	00700000 	rsbseq	r0, r0, r0
    1544:	00010000 	andeq	r0, r1, r0
    1548:	00007855 	andeq	r7, r0, r5, asr r8
    154c:	00007c00 	andeq	r7, r0, r0, lsl #24
    1550:	55000100 	strpl	r0, [r0, #-256]	; 0x100
    1554:	00000084 	andeq	r0, r0, r4, lsl #1
    1558:	00000088 	andeq	r0, r0, r8, lsl #1
    155c:	8c550001 	mrrchi	0, 0, r0, r5, cr1
    1560:	d4000000 	strle	r0, [r0], #-0
    1564:	01000000 	mrseq	r0, (UNDEF: 0)
    1568:	00005500 	andeq	r5, r0, r0, lsl #10
    156c:	00000000 	andeq	r0, r0, r0
    1570:	001c0000 	andseq	r0, ip, r0
    1574:	00440000 	subeq	r0, r4, r0
    1578:	00010000 	andeq	r0, r1, r0
    157c:	00004453 	andeq	r4, r0, r3, asr r4
    1580:	00004c00 	andeq	r4, r0, r0, lsl #24
    1584:	70001c00 	andvc	r1, r0, r0, lsl #24
    1588:	f72cf700 			; <UNDEFINED> instruction: 0xf72cf700
    158c:	0825f425 	stmdaeq	r5!, {r0, r2, r5, sl, ip, sp, lr, pc}
    1590:	cccccccd 	stclgt	12, cr12, [ip], {205}	; 0xcd
    1594:	00000000 	andeq	r0, r0, r0
    1598:	f720081e 			; <UNDEFINED> instruction: 0xf720081e
    159c:	2cf72525 	cfldr64cs	mvdx2, [r7], #148	; 0x94
    15a0:	4c9f2533 	cfldr32mi	mvfx2, [pc], {51}	; 0x33
    15a4:	50000000 	andpl	r0, r0, r0
    15a8:	01000000 	mrseq	r0, (UNDEF: 0)
    15ac:	00505300 	subseq	r5, r0, r0, lsl #6
    15b0:	00580000 	subseq	r0, r8, r0
    15b4:	001c0000 	andseq	r0, ip, r0
    15b8:	2cf70070 	ldclcs	0, cr0, [r7], #448	; 0x1c0
    15bc:	25f425f7 	ldrbcs	r2, [r4, #1527]!	; 0x5f7
    15c0:	cccccd08 	stclgt	13, cr12, [ip], {8}
    15c4:	000000cc 	andeq	r0, r0, ip, asr #1
    15c8:	20081e00 	andcs	r1, r8, r0, lsl #28
    15cc:	f72525f7 			; <UNDEFINED> instruction: 0xf72525f7
    15d0:	9f25332c 	svcls	0x0025332c
    15d4:	00000058 	andeq	r0, r0, r8, asr r0
    15d8:	0000005c 	andeq	r0, r0, ip, asr r0
    15dc:	5c530001 	mrrcpl	0, 0, r0, r3, cr1
    15e0:	64000000 	strvs	r0, [r0], #-0
    15e4:	1c000000 	stcne	0, cr0, [r0], {-0}
    15e8:	f7007000 			; <UNDEFINED> instruction: 0xf7007000
    15ec:	f425f72c 	vld1.8	{d15}, [r5 :128], ip
    15f0:	cccd0825 	stclgt	8, cr0, [sp], {37}	; 0x25
    15f4:	0000cccc 	andeq	ip, r0, ip, asr #25
    15f8:	081e0000 	ldmdaeq	lr, {}	; <UNPREDICTABLE>
    15fc:	2525f720 	strcs	pc, [r5, #-1824]!	; 0x720
    1600:	25332cf7 	ldrcs	r2, [r3, #-3319]!	; 0xcf7
    1604:	0000649f 	muleq	r0, pc, r4	; <UNPREDICTABLE>
    1608:	00006800 	andeq	r6, r0, r0, lsl #16
    160c:	53000100 	movwpl	r0, #256	; 0x100
    1610:	00000068 	andeq	r0, r0, r8, rrx
    1614:	00000070 	andeq	r0, r0, r0, ror r0
    1618:	0070001c 	rsbseq	r0, r0, ip, lsl r0
    161c:	25f72cf7 	ldrbcs	r2, [r7, #3319]!	; 0xcf7
    1620:	cd0825f4 	cfstr32gt	mvfx2, [r8, #-976]	; 0xfffffc30
    1624:	00cccccc 	sbceq	ip, ip, ip, asr #25
    1628:	1e000000 	cdpne	0, 0, cr0, cr0, cr0, {0}
    162c:	25f72008 	ldrbcs	r2, [r7, #8]!
    1630:	332cf725 	msrcc	CPSR_fs, #9699328	; 0x940000
    1634:	00709f25 	rsbseq	r9, r0, r5, lsr #30
    1638:	00740000 	rsbseq	r0, r4, r0
    163c:	00010000 	andeq	r0, r1, r0
    1640:	00007453 	andeq	r7, r0, r3, asr r4
    1644:	00007c00 	andeq	r7, r0, r0, lsl #24
    1648:	70001c00 	andvc	r1, r0, r0, lsl #24
    164c:	f72cf700 			; <UNDEFINED> instruction: 0xf72cf700
    1650:	0825f425 	stmdaeq	r5!, {r0, r2, r5, sl, ip, sp, lr, pc}
    1654:	cccccccd 	stclgt	12, cr12, [ip], {205}	; 0xcd
    1658:	00000000 	andeq	r0, r0, r0
    165c:	f720081e 			; <UNDEFINED> instruction: 0xf720081e
    1660:	2cf72525 	cfldr64cs	mvdx2, [r7], #148	; 0x94
    1664:	7c9f2533 	cfldr32vc	mvfx2, [pc], {51}	; 0x33
    1668:	80000000 	andhi	r0, r0, r0
    166c:	01000000 	mrseq	r0, (UNDEF: 0)
    1670:	00805300 	addeq	r5, r0, r0, lsl #6
    1674:	00880000 	addeq	r0, r8, r0
    1678:	001c0000 	andseq	r0, ip, r0
    167c:	2cf70070 	ldclcs	0, cr0, [r7], #448	; 0x1c0
    1680:	25f425f7 	ldrbcs	r2, [r4, #1527]!	; 0x5f7
    1684:	cccccd08 	stclgt	13, cr12, [ip], {8}
    1688:	000000cc 	andeq	r0, r0, ip, asr #1
    168c:	20081e00 	andcs	r1, r8, r0, lsl #28
    1690:	f72525f7 			; <UNDEFINED> instruction: 0xf72525f7
    1694:	9f25332c 	svcls	0x0025332c
    1698:	00000088 	andeq	r0, r0, r8, lsl #1
    169c:	0000008c 	andeq	r0, r0, ip, lsl #1
    16a0:	8c530001 	mrrchi	0, 0, r0, r3, cr1
    16a4:	90000000 	andls	r0, r0, r0
    16a8:	1c000000 	stcne	0, cr0, [r0], {-0}
    16ac:	f7007000 			; <UNDEFINED> instruction: 0xf7007000
    16b0:	f425f72c 	vld1.8	{d15}, [r5 :128], ip
    16b4:	cccd0825 	stclgt	8, cr0, [sp], {37}	; 0x25
    16b8:	0000cccc 	andeq	ip, r0, ip, asr #25
    16bc:	081e0000 	ldmdaeq	lr, {}	; <UNPREDICTABLE>
    16c0:	2525f720 	strcs	pc, [r5, #-1824]!	; 0x720
    16c4:	25332cf7 	ldrcs	r2, [r3, #-3319]!	; 0xcf7
    16c8:	0000909f 	muleq	r0, pc, r0	; <UNPREDICTABLE>
    16cc:	00009800 	andeq	r9, r0, r0, lsl #16
    16d0:	74001c00 	strvc	r1, [r0], #-3072	; 0xc00
    16d4:	f72cf700 			; <UNDEFINED> instruction: 0xf72cf700
    16d8:	0825f425 	stmdaeq	r5!, {r0, r2, r5, sl, ip, sp, lr, pc}
    16dc:	cccccccd 	stclgt	12, cr12, [ip], {205}	; 0xcd
    16e0:	00000000 	andeq	r0, r0, r0
    16e4:	f720081e 			; <UNDEFINED> instruction: 0xf720081e
    16e8:	2cf72525 	cfldr64cs	mvdx2, [r7], #148	; 0x94
    16ec:	989f2533 	ldmls	pc, {r0, r1, r4, r5, r8, sl, sp}	; <UNPREDICTABLE>
    16f0:	9c000000 	stcls	0, cr0, [r0], {-0}
    16f4:	17000000 	strne	r0, [r0, -r0]
    16f8:	f7007400 			; <UNDEFINED> instruction: 0xf7007400
    16fc:	7125f72c 	msrvc	SP_abt, ip
    1700:	f72cf700 			; <UNDEFINED> instruction: 0xf72cf700
    1704:	20081e25 	andcs	r1, r8, r5, lsr #28
    1708:	f72525f7 			; <UNDEFINED> instruction: 0xf72525f7
    170c:	9f25332c 	svcls	0x0025332c
    1710:	0000009c 	muleq	r0, ip, r0
    1714:	000000d4 	ldrdeq	r0, [r0], -r4
    1718:	0074001c 	rsbseq	r0, r4, ip, lsl r0
    171c:	25f72cf7 	ldrbcs	r2, [r7, #3319]!	; 0xcf7
    1720:	cd0825f4 	cfstr32gt	mvfx2, [r8, #-976]	; 0xfffffc30
    1724:	00cccccc 	sbceq	ip, ip, ip, asr #25
    1728:	1e000000 	cdpne	0, 0, cr0, cr0, cr0, {0}
    172c:	25f72008 	ldrbcs	r2, [r7, #8]!
    1730:	332cf725 	msrcc	CPSR_fs, #9699328	; 0x940000
    1734:	00009f25 	andeq	r9, r0, r5, lsr #30
    1738:	00000000 	andeq	r0, r0, r0
    173c:	00940000 	addseq	r0, r4, r0
    1740:	00b80000 	adcseq	r0, r8, r0
    1744:	00010000 	andeq	r0, r1, r0
    1748:	0000b850 	andeq	fp, r0, r0, asr r8
    174c:	0000c400 	andeq	ip, r0, r0, lsl #8
    1750:	31000800 	tstcc	r0, r0, lsl #16
    1754:	73240071 	teqvc	r4, #113	; 0x71
    1758:	c49f2100 	ldrgt	r2, [pc], #256	; 1760 <_start-0x68a0>
    175c:	c7000000 	strgt	r0, [r0, -r0]
    1760:	01000000 	mrseq	r0, (UNDEF: 0)
    1764:	00005100 	andeq	r5, r0, r0, lsl #2
    1768:	00000000 	andeq	r0, r0, r0
    176c:	00d40000 	sbcseq	r0, r4, r0
    1770:	00f80000 	rscseq	r0, r8, r0
    1774:	00010000 	andeq	r0, r1, r0
    1778:	0000f850 	andeq	pc, r0, r0, asr r8	; <UNPREDICTABLE>
    177c:	00010c00 	andeq	r0, r1, r0, lsl #24
    1780:	f3000400 	vshl.u8	d0, d0, d0
    1784:	009f5001 	addseq	r5, pc, r1
    1788:	00000000 	andeq	r0, r0, r0
    178c:	e0000000 	and	r0, r0, r0
    1790:	e8000000 	stmda	r0, {}	; <UNPREDICTABLE>
    1794:	02000000 	andeq	r0, r0, #0
    1798:	e89f3000 	ldm	pc, {ip, sp}	; <UNPREDICTABLE>
    179c:	e8000000 	stmda	r0, {}	; <UNPREDICTABLE>
    17a0:	01000000 	mrseq	r0, (UNDEF: 0)
    17a4:	00e85200 	rsceq	r5, r8, r0, lsl #4
    17a8:	00f00000 	rscseq	r0, r0, r0
    17ac:	00020000 	andeq	r0, r2, r0
    17b0:	00f09f30 	rscseq	r9, r0, r0, lsr pc
    17b4:	01030000 	mrseq	r0, (UNDEF: 3)
    17b8:	00010000 	andeq	r0, r1, r0
    17bc:	00000052 	andeq	r0, r0, r2, asr r0
    17c0:	00000000 	andeq	r0, r0, r0
    17c4:	0000e000 	andeq	lr, r0, r0
    17c8:	0000f400 	andeq	pc, r0, r0, lsl #8
    17cc:	30000200 	andcc	r0, r0, r0, lsl #4
    17d0:	0000f49f 	muleq	r0, pc, r4	; <UNPREDICTABLE>
    17d4:	00010000 	andeq	r0, r1, r0
    17d8:	31000500 	tstcc	r0, r0, lsl #10
    17dc:	9f240073 	svcls	0x00240073
    17e0:	00000100 	andeq	r0, r0, r0, lsl #2
    17e4:	00000103 	andeq	r0, r0, r3, lsl #2
    17e8:	03510001 	cmpeq	r1, #1
    17ec:	0c000001 	stceq	0, cr0, [r0], {1}
    17f0:	08000001 	stmdaeq	r0, {r0}
    17f4:	01f33100 	mvnseq	r3, r0, lsl #2
    17f8:	241a4f50 	ldrcs	r4, [sl], #-3920	; 0xf50
    17fc:	0000009f 	muleq	r0, pc, r0	; <UNPREDICTABLE>
    1800:	00000000 	andeq	r0, r0, r0
    1804:	00010c00 	andeq	r0, r1, r0, lsl #24
    1808:	00013000 	andeq	r3, r1, r0
    180c:	50000100 	andpl	r0, r0, r0, lsl #2
    1810:	00000130 	andeq	r0, r0, r0, lsr r1
    1814:	00000144 	andeq	r0, r0, r4, asr #2
    1818:	01f30004 	mvnseq	r0, r4
    181c:	00009f50 	andeq	r9, r0, r0, asr pc
    1820:	00000000 	andeq	r0, r0, r0
    1824:	01180000 	tsteq	r8, r0
    1828:	01200000 	teqeq	r0, r0
    182c:	00020000 	andeq	r0, r2, r0
    1830:	01209f30 	teqeq	r0, r0, lsr pc
    1834:	01200000 	teqeq	r0, r0
    1838:	00010000 	andeq	r0, r1, r0
    183c:	00012052 	andeq	r2, r1, r2, asr r0
    1840:	00012800 	andeq	r2, r1, r0, lsl #16
    1844:	30000200 	andcc	r0, r0, r0, lsl #4
    1848:	0001289f 	muleq	r1, pc, r8	; <UNPREDICTABLE>
    184c:	00013b00 	andeq	r3, r1, r0, lsl #22
    1850:	52000100 	andpl	r0, r0, #0, 2
	...
    185c:	00000118 	andeq	r0, r0, r8, lsl r1
    1860:	0000012c 	andeq	r0, r0, ip, lsr #2
    1864:	9f300002 	svcls	0x00300002
    1868:	0000012c 	andeq	r0, r0, ip, lsr #2
    186c:	00000138 	andeq	r0, r0, r8, lsr r1
    1870:	73310005 	teqvc	r1, #5
    1874:	389f2400 	ldmcc	pc, {sl, sp}	; <UNPREDICTABLE>
    1878:	3b000001 	blcc	1884 <_start-0x677c>
    187c:	01000001 	tsteq	r0, r1
    1880:	013b5100 	teqeq	fp, r0, lsl #2
    1884:	01440000 	mrseq	r0, (UNDEF: 68)
    1888:	00080000 	andeq	r0, r8, r0
    188c:	5001f331 	andpl	pc, r1, r1, lsr r3	; <UNPREDICTABLE>
    1890:	9f241a4f 	svcls	0x00241a4f
	...
    189c:	00000144 	andeq	r0, r0, r4, asr #2
    18a0:	000001d4 	ldrdeq	r0, [r0], -r4
    18a4:	d4500001 	ldrble	r0, [r0], #-1
    18a8:	10000001 	andne	r0, r0, r1
    18ac:	01000002 	tsteq	r0, r2
    18b0:	00005400 	andeq	r5, r0, r0, lsl #8
    18b4:	00000000 	andeq	r0, r0, r0
    18b8:	018c0000 	orreq	r0, ip, r0
    18bc:	01900000 	orrseq	r0, r0, r0
    18c0:	00010000 	andeq	r0, r1, r0
    18c4:	00019855 	andeq	r9, r1, r5, asr r8
    18c8:	00019c00 	andeq	r9, r1, r0, lsl #24
    18cc:	55000100 	strpl	r0, [r0, #-256]	; 0x100
    18d0:	000001a4 	andeq	r0, r0, r4, lsr #3
    18d4:	000001a8 	andeq	r0, r0, r8, lsr #3
    18d8:	b0550001 	subslt	r0, r5, r1
    18dc:	b4000001 	strlt	r0, [r0], #-1
    18e0:	01000001 	tsteq	r0, r1
    18e4:	01bc5500 			; <UNDEFINED> instruction: 0x01bc5500
    18e8:	01c00000 	biceq	r0, r0, r0
    18ec:	00010000 	andeq	r0, r1, r0
    18f0:	0001c855 	andeq	ip, r1, r5, asr r8
    18f4:	0001cc00 	andeq	ip, r1, r0, lsl #24
    18f8:	55000100 	strpl	r0, [r0, #-256]	; 0x100
    18fc:	000001d0 	ldrdeq	r0, [r0], -r0	; <UNPREDICTABLE>
    1900:	00000210 	andeq	r0, r0, r0, lsl r2
    1904:	00550001 	subseq	r0, r5, r1
    1908:	00000000 	andeq	r0, r0, r0
    190c:	60000000 	andvs	r0, r0, r0
    1910:	88000001 	stmdahi	r0, {r0}
    1914:	01000001 	tsteq	r0, r1
    1918:	01885300 	orreq	r5, r8, r0, lsl #6
    191c:	01900000 	orrseq	r0, r0, r0
    1920:	001c0000 	andseq	r0, ip, r0
    1924:	2cf70070 	ldclcs	0, cr0, [r7], #448	; 0x1c0
    1928:	25f425f7 	ldrbcs	r2, [r4, #1527]!	; 0x5f7
    192c:	cccccd08 	stclgt	13, cr12, [ip], {8}
    1930:	000000cc 	andeq	r0, r0, ip, asr #1
    1934:	20081e00 	andcs	r1, r8, r0, lsl #28
    1938:	f72525f7 			; <UNDEFINED> instruction: 0xf72525f7
    193c:	9f25332c 	svcls	0x0025332c
    1940:	00000190 	muleq	r0, r0, r1
    1944:	00000194 	muleq	r0, r4, r1
    1948:	94530001 	ldrbls	r0, [r3], #-1
    194c:	9c000001 	stcls	0, cr0, [r0], {1}
    1950:	1c000001 	stcne	0, cr0, [r0], {1}
    1954:	f7007000 			; <UNDEFINED> instruction: 0xf7007000
    1958:	f425f72c 	vld1.8	{d15}, [r5 :128], ip
    195c:	cccd0825 	stclgt	8, cr0, [sp], {37}	; 0x25
    1960:	0000cccc 	andeq	ip, r0, ip, asr #25
    1964:	081e0000 	ldmdaeq	lr, {}	; <UNPREDICTABLE>
    1968:	2525f720 	strcs	pc, [r5, #-1824]!	; 0x720
    196c:	25332cf7 	ldrcs	r2, [r3, #-3319]!	; 0xcf7
    1970:	00019c9f 	muleq	r1, pc, ip	; <UNPREDICTABLE>
    1974:	0001a000 	andeq	sl, r1, r0
    1978:	53000100 	movwpl	r0, #256	; 0x100
    197c:	000001a0 	andeq	r0, r0, r0, lsr #3
    1980:	000001a8 	andeq	r0, r0, r8, lsr #3
    1984:	0070001c 	rsbseq	r0, r0, ip, lsl r0
    1988:	25f72cf7 	ldrbcs	r2, [r7, #3319]!	; 0xcf7
    198c:	cd0825f4 	cfstr32gt	mvfx2, [r8, #-976]	; 0xfffffc30
    1990:	00cccccc 	sbceq	ip, ip, ip, asr #25
    1994:	1e000000 	cdpne	0, 0, cr0, cr0, cr0, {0}
    1998:	25f72008 	ldrbcs	r2, [r7, #8]!
    199c:	332cf725 	msrcc	CPSR_fs, #9699328	; 0x940000
    19a0:	01a89f25 			; <UNDEFINED> instruction: 0x01a89f25
    19a4:	01ac0000 			; <UNDEFINED> instruction: 0x01ac0000
    19a8:	00010000 	andeq	r0, r1, r0
    19ac:	0001ac53 	andeq	sl, r1, r3, asr ip
    19b0:	0001b400 	andeq	fp, r1, r0, lsl #8
    19b4:	70001c00 	andvc	r1, r0, r0, lsl #24
    19b8:	f72cf700 			; <UNDEFINED> instruction: 0xf72cf700
    19bc:	0825f425 	stmdaeq	r5!, {r0, r2, r5, sl, ip, sp, lr, pc}
    19c0:	cccccccd 	stclgt	12, cr12, [ip], {205}	; 0xcd
    19c4:	00000000 	andeq	r0, r0, r0
    19c8:	f720081e 			; <UNDEFINED> instruction: 0xf720081e
    19cc:	2cf72525 	cfldr64cs	mvdx2, [r7], #148	; 0x94
    19d0:	b49f2533 	ldrlt	r2, [pc], #1331	; 19d8 <_start-0x6628>
    19d4:	b8000001 	stmdalt	r0, {r0}
    19d8:	01000001 	tsteq	r0, r1
    19dc:	01b85300 			; <UNDEFINED> instruction: 0x01b85300
    19e0:	01c00000 	biceq	r0, r0, r0
    19e4:	001c0000 	andseq	r0, ip, r0
    19e8:	2cf70070 	ldclcs	0, cr0, [r7], #448	; 0x1c0
    19ec:	25f425f7 	ldrbcs	r2, [r4, #1527]!	; 0x5f7
    19f0:	cccccd08 	stclgt	13, cr12, [ip], {8}
    19f4:	000000cc 	andeq	r0, r0, ip, asr #1
    19f8:	20081e00 	andcs	r1, r8, r0, lsl #28
    19fc:	f72525f7 			; <UNDEFINED> instruction: 0xf72525f7
    1a00:	9f25332c 	svcls	0x0025332c
    1a04:	000001c0 	andeq	r0, r0, r0, asr #3
    1a08:	000001c4 	andeq	r0, r0, r4, asr #3
    1a0c:	c4530001 	ldrbgt	r0, [r3], #-1
    1a10:	cc000001 	stcgt	0, cr0, [r0], {1}
    1a14:	1c000001 	stcne	0, cr0, [r0], {1}
    1a18:	f7007000 			; <UNDEFINED> instruction: 0xf7007000
    1a1c:	f425f72c 	vld1.8	{d15}, [r5 :128], ip
    1a20:	cccd0825 	stclgt	8, cr0, [sp], {37}	; 0x25
    1a24:	0000cccc 	andeq	ip, r0, ip, asr #25
    1a28:	081e0000 	ldmdaeq	lr, {}	; <UNPREDICTABLE>
    1a2c:	2525f720 	strcs	pc, [r5, #-1824]!	; 0x720
    1a30:	25332cf7 	ldrcs	r2, [r3, #-3319]!	; 0xcf7
    1a34:	0001cc9f 	muleq	r1, pc, ip	; <UNPREDICTABLE>
    1a38:	0001d000 	andeq	sp, r1, r0
    1a3c:	53000100 	movwpl	r0, #256	; 0x100
    1a40:	000001d0 	ldrdeq	r0, [r0], -r0	; <UNPREDICTABLE>
    1a44:	000001d4 	ldrdeq	r0, [r0], -r4
    1a48:	0070001c 	rsbseq	r0, r0, ip, lsl r0
    1a4c:	25f72cf7 	ldrbcs	r2, [r7, #3319]!	; 0xcf7
    1a50:	cd0825f4 	cfstr32gt	mvfx2, [r8, #-976]	; 0xfffffc30
    1a54:	00cccccc 	sbceq	ip, ip, ip, asr #25
    1a58:	1e000000 	cdpne	0, 0, cr0, cr0, cr0, {0}
    1a5c:	25f72008 	ldrbcs	r2, [r7, #8]!
    1a60:	332cf725 	msrcc	CPSR_fs, #9699328	; 0x940000
    1a64:	01d49f25 	bicseq	r9, r4, r5, lsr #30
    1a68:	01dc0000 	bicseq	r0, ip, r0
    1a6c:	001c0000 	andseq	r0, ip, r0
    1a70:	2cf70074 	ldclcs	0, cr0, [r7], #464	; 0x1d0
    1a74:	25f425f7 	ldrbcs	r2, [r4, #1527]!	; 0x5f7
    1a78:	cccccd08 	stclgt	13, cr12, [ip], {8}
    1a7c:	000000cc 	andeq	r0, r0, ip, asr #1
    1a80:	20081e00 	andcs	r1, r8, r0, lsl #28
    1a84:	f72525f7 			; <UNDEFINED> instruction: 0xf72525f7
    1a88:	9f25332c 	svcls	0x0025332c
    1a8c:	000001dc 	ldrdeq	r0, [r0], -ip
    1a90:	000001e0 	andeq	r0, r0, r0, ror #3
    1a94:	00740017 	rsbseq	r0, r4, r7, lsl r0
    1a98:	25f72cf7 	ldrbcs	r2, [r7, #3319]!	; 0xcf7
    1a9c:	2cf70071 	ldclcs	0, cr0, [r7], #452	; 0x1c4
    1aa0:	081e25f7 	ldmdaeq	lr, {r0, r1, r2, r4, r5, r6, r7, r8, sl, sp}
    1aa4:	2525f720 	strcs	pc, [r5, #-1824]!	; 0x720
    1aa8:	25332cf7 	ldrcs	r2, [r3, #-3319]!	; 0xcf7
    1aac:	0001e09f 	muleq	r1, pc, r0	; <UNPREDICTABLE>
    1ab0:	00021000 	andeq	r1, r2, r0
    1ab4:	74001c00 	strvc	r1, [r0], #-3072	; 0xc00
    1ab8:	f72cf700 			; <UNDEFINED> instruction: 0xf72cf700
    1abc:	0825f425 	stmdaeq	r5!, {r0, r2, r5, sl, ip, sp, lr, pc}
    1ac0:	cccccccd 	stclgt	12, cr12, [ip], {205}	; 0xcd
    1ac4:	00000000 	andeq	r0, r0, r0
    1ac8:	f720081e 			; <UNDEFINED> instruction: 0xf720081e
    1acc:	2cf72525 	cfldr64cs	mvdx2, [r7], #148	; 0x94
    1ad0:	009f2533 	addseq	r2, pc, r3, lsr r5	; <UNPREDICTABLE>
    1ad4:	00000000 	andeq	r0, r0, r0
    1ad8:	d8000000 	stmdale	r0, {}	; <UNPREDICTABLE>
    1adc:	fc000001 	stc2	0, cr0, [r0], {1}
    1ae0:	01000001 	tsteq	r0, r1
    1ae4:	01fc5000 	mvnseq	r5, r0
    1ae8:	02030000 	andeq	r0, r3, #0
    1aec:	00010000 	andeq	r0, r1, r0
    1af0:	00000051 	andeq	r0, r0, r1, asr r0
    1af4:	00000000 	andeq	r0, r0, r0
    1af8:	00021000 	andeq	r1, r2, r0
    1afc:	00022c00 	andeq	r2, r2, r0, lsl #24
    1b00:	50000100 	andpl	r0, r0, r0, lsl #2
    1b04:	0000022c 	andeq	r0, r0, ip, lsr #4
    1b08:	00000234 	andeq	r0, r0, r4, lsr r2
    1b0c:	34540001 	ldrbcc	r0, [r4], #-1
    1b10:	3c000002 	stccc	0, cr0, [r0], {2}
    1b14:	01000002 	tsteq	r0, r2
    1b18:	023c5000 	eorseq	r5, ip, #0
    1b1c:	02440000 	subeq	r0, r4, #0
    1b20:	00010000 	andeq	r0, r1, r0
    1b24:	00024454 	andeq	r4, r2, r4, asr r4
    1b28:	00025000 	andeq	r5, r2, r0
    1b2c:	f3000400 	vshl.u8	d0, d0, d0
    1b30:	509f5001 	addspl	r5, pc, r1
    1b34:	54000002 	strpl	r0, [r0], #-2
    1b38:	01000002 	tsteq	r0, r2
    1b3c:	02545000 	subseq	r5, r4, #0
    1b40:	025c0000 	subseq	r0, ip, #0
    1b44:	00010000 	andeq	r0, r1, r0
    1b48:	00000054 	andeq	r0, r0, r4, asr r0
    1b4c:	00000000 	andeq	r0, r0, r0
    1b50:	00022000 	andeq	r2, r2, r0
    1b54:	00023000 	andeq	r3, r2, r0
    1b58:	30000200 	andcc	r0, r0, r0, lsl #4
    1b5c:	0002309f 	muleq	r2, pc, r0	; <UNPREDICTABLE>
    1b60:	00023400 	andeq	r3, r2, r0, lsl #8
    1b64:	50000100 	andpl	r0, r0, r0, lsl #2
    1b68:	00000234 	andeq	r0, r0, r4, lsr r2
    1b6c:	00000240 	andeq	r0, r0, r0, asr #4
    1b70:	9f300002 	svcls	0x00300002
    1b74:	00000240 	andeq	r0, r0, r0, asr #4
    1b78:	0000024c 	andeq	r0, r0, ip, asr #4
    1b7c:	00500001 	subseq	r0, r0, r1
    1b80:	00000000 	andeq	r0, r0, r0
    1b84:	5c000000 	stcpl	0, cr0, [r0], {-0}
    1b88:	73000002 	movwvc	r0, #2
    1b8c:	01000002 	tsteq	r0, r2
    1b90:	02735000 	rsbseq	r5, r3, #0
    1b94:	02780000 	rsbseq	r0, r8, #0
    1b98:	00040000 	andeq	r0, r4, r0
    1b9c:	9f5001f3 	svcls	0x005001f3
    1ba0:	00000278 	andeq	r0, r0, r8, ror r2
    1ba4:	0000027b 	andeq	r0, r0, fp, ror r2
    1ba8:	7b500001 	blvc	1401bb4 <__bss_end__+0x13f7d44>
    1bac:	80000002 	andhi	r0, r0, r2
    1bb0:	04000002 	streq	r0, [r0], #-2
    1bb4:	5001f300 	andpl	pc, r1, r0, lsl #6
    1bb8:	0000009f 	muleq	r0, pc, r0	; <UNPREDICTABLE>
    1bbc:	00000000 	andeq	r0, r0, r0
    1bc0:	00025c00 	andeq	r5, r2, r0, lsl #24
    1bc4:	00027300 	andeq	r7, r2, r0, lsl #6
    1bc8:	51000100 	mrspl	r0, (UNDEF: 16)
    1bcc:	00000273 	andeq	r0, r0, r3, ror r2
    1bd0:	00000278 	andeq	r0, r0, r8, ror r2
    1bd4:	01f30004 	mvnseq	r0, r4
    1bd8:	02789f51 	rsbseq	r9, r8, #324	; 0x144
    1bdc:	027b0000 	rsbseq	r0, fp, #0
    1be0:	00010000 	andeq	r0, r1, r0
    1be4:	00027b51 	andeq	r7, r2, r1, asr fp
    1be8:	00028000 	andeq	r8, r2, r0
    1bec:	f3000400 	vshl.u8	d0, d0, d0
    1bf0:	009f5101 	addseq	r5, pc, r1, lsl #2
    1bf4:	00000000 	andeq	r0, r0, r0
    1bf8:	80000000 	andhi	r0, r0, r0
    1bfc:	18000002 	stmdane	r0, {r1}
    1c00:	01000003 	tsteq	r0, r3
    1c04:	03185000 	tsteq	r8, #0
    1c08:	03580000 	cmpeq	r8, #0
    1c0c:	00010000 	andeq	r0, r1, r0
    1c10:	00000054 	andeq	r0, r0, r4, asr r0
    1c14:	00000000 	andeq	r0, r0, r0
    1c18:	00028000 	andeq	r8, r2, r0
    1c1c:	00031b00 	andeq	r1, r3, r0, lsl #22
    1c20:	51000100 	mrspl	r0, (UNDEF: 16)
    1c24:	0000031b 	andeq	r0, r0, fp, lsl r3
    1c28:	00000358 	andeq	r0, r0, r8, asr r3
    1c2c:	01f30004 	mvnseq	r0, r4
    1c30:	00009f51 	andeq	r9, r0, r1, asr pc
    1c34:	00000000 	andeq	r0, r0, r0
    1c38:	02d00000 	sbcseq	r0, r0, #0
    1c3c:	02d40000 	sbcseq	r0, r4, #0
    1c40:	00010000 	andeq	r0, r1, r0
    1c44:	0002dc56 	andeq	sp, r2, r6, asr ip
    1c48:	0002e000 	andeq	lr, r2, r0
    1c4c:	56000100 	strpl	r0, [r0], -r0, lsl #2
    1c50:	000002e8 	andeq	r0, r0, r8, ror #5
    1c54:	000002ec 	andeq	r0, r0, ip, ror #5
    1c58:	f4560001 			; <UNDEFINED> instruction: 0xf4560001
    1c5c:	f8000002 			; <UNDEFINED> instruction: 0xf8000002
    1c60:	01000002 	tsteq	r0, r2
    1c64:	03005600 	movweq	r5, #1536	; 0x600
    1c68:	03040000 	movweq	r0, #16384	; 0x4000
    1c6c:	00010000 	andeq	r0, r1, r0
    1c70:	00030c56 	andeq	r0, r3, r6, asr ip
    1c74:	00031000 	andeq	r1, r3, r0
    1c78:	56000100 	strpl	r0, [r0], -r0, lsl #2
    1c7c:	00000314 	andeq	r0, r0, r4, lsl r3
    1c80:	00000358 	andeq	r0, r0, r8, asr r3
    1c84:	00560001 	subseq	r0, r6, r1
    1c88:	00000000 	andeq	r0, r0, r0
    1c8c:	a4000000 	strge	r0, [r0], #-0
    1c90:	cc000002 	stcgt	0, cr0, [r0], {2}
    1c94:	01000002 	tsteq	r0, r2
    1c98:	02cc5300 	sbceq	r5, ip, #0, 6
    1c9c:	02d40000 	sbcseq	r0, r4, #0
    1ca0:	001c0000 	andseq	r0, ip, r0
    1ca4:	2cf70070 	ldclcs	0, cr0, [r7], #448	; 0x1c0
    1ca8:	25f425f7 	ldrbcs	r2, [r4, #1527]!	; 0x5f7
    1cac:	cccccd08 	stclgt	13, cr12, [ip], {8}
    1cb0:	000000cc 	andeq	r0, r0, ip, asr #1
    1cb4:	20081e00 	andcs	r1, r8, r0, lsl #28
    1cb8:	f72525f7 			; <UNDEFINED> instruction: 0xf72525f7
    1cbc:	9f25332c 	svcls	0x0025332c
    1cc0:	000002d4 	ldrdeq	r0, [r0], -r4
    1cc4:	000002d8 	ldrdeq	r0, [r0], -r8
    1cc8:	d8530001 	ldmdale	r3, {r0}^
    1ccc:	e0000002 	and	r0, r0, r2
    1cd0:	1c000002 	stcne	0, cr0, [r0], {2}
    1cd4:	f7007000 			; <UNDEFINED> instruction: 0xf7007000
    1cd8:	f425f72c 	vld1.8	{d15}, [r5 :128], ip
    1cdc:	cccd0825 	stclgt	8, cr0, [sp], {37}	; 0x25
    1ce0:	0000cccc 	andeq	ip, r0, ip, asr #25
    1ce4:	081e0000 	ldmdaeq	lr, {}	; <UNPREDICTABLE>
    1ce8:	2525f720 	strcs	pc, [r5, #-1824]!	; 0x720
    1cec:	25332cf7 	ldrcs	r2, [r3, #-3319]!	; 0xcf7
    1cf0:	0002e09f 	muleq	r2, pc, r0	; <UNPREDICTABLE>
    1cf4:	0002e400 	andeq	lr, r2, r0, lsl #8
    1cf8:	53000100 	movwpl	r0, #256	; 0x100
    1cfc:	000002e4 	andeq	r0, r0, r4, ror #5
    1d00:	000002ec 	andeq	r0, r0, ip, ror #5
    1d04:	0070001c 	rsbseq	r0, r0, ip, lsl r0
    1d08:	25f72cf7 	ldrbcs	r2, [r7, #3319]!	; 0xcf7
    1d0c:	cd0825f4 	cfstr32gt	mvfx2, [r8, #-976]	; 0xfffffc30
    1d10:	00cccccc 	sbceq	ip, ip, ip, asr #25
    1d14:	1e000000 	cdpne	0, 0, cr0, cr0, cr0, {0}
    1d18:	25f72008 	ldrbcs	r2, [r7, #8]!
    1d1c:	332cf725 	msrcc	CPSR_fs, #9699328	; 0x940000
    1d20:	02ec9f25 	rsceq	r9, ip, #37, 30	; 0x94
    1d24:	02f00000 	rscseq	r0, r0, #0
    1d28:	00010000 	andeq	r0, r1, r0
    1d2c:	0002f053 	andeq	pc, r2, r3, asr r0	; <UNPREDICTABLE>
    1d30:	0002f800 	andeq	pc, r2, r0, lsl #16
    1d34:	70001c00 	andvc	r1, r0, r0, lsl #24
    1d38:	f72cf700 			; <UNDEFINED> instruction: 0xf72cf700
    1d3c:	0825f425 	stmdaeq	r5!, {r0, r2, r5, sl, ip, sp, lr, pc}
    1d40:	cccccccd 	stclgt	12, cr12, [ip], {205}	; 0xcd
    1d44:	00000000 	andeq	r0, r0, r0
    1d48:	f720081e 			; <UNDEFINED> instruction: 0xf720081e
    1d4c:	2cf72525 	cfldr64cs	mvdx2, [r7], #148	; 0x94
    1d50:	f89f2533 			; <UNDEFINED> instruction: 0xf89f2533
    1d54:	fc000002 	stc2	0, cr0, [r0], {2}
    1d58:	01000002 	tsteq	r0, r2
    1d5c:	02fc5300 	rscseq	r5, ip, #0, 6
    1d60:	03040000 	movweq	r0, #16384	; 0x4000
    1d64:	001c0000 	andseq	r0, ip, r0
    1d68:	2cf70070 	ldclcs	0, cr0, [r7], #448	; 0x1c0
    1d6c:	25f425f7 	ldrbcs	r2, [r4, #1527]!	; 0x5f7
    1d70:	cccccd08 	stclgt	13, cr12, [ip], {8}
    1d74:	000000cc 	andeq	r0, r0, ip, asr #1
    1d78:	20081e00 	andcs	r1, r8, r0, lsl #28
    1d7c:	f72525f7 			; <UNDEFINED> instruction: 0xf72525f7
    1d80:	9f25332c 	svcls	0x0025332c
    1d84:	00000304 	andeq	r0, r0, r4, lsl #6
    1d88:	00000308 	andeq	r0, r0, r8, lsl #6
    1d8c:	08530001 	ldmdaeq	r3, {r0}^
    1d90:	10000003 	andne	r0, r0, r3
    1d94:	1c000003 	stcne	0, cr0, [r0], {3}
    1d98:	f7007000 			; <UNDEFINED> instruction: 0xf7007000
    1d9c:	f425f72c 	vld1.8	{d15}, [r5 :128], ip
    1da0:	cccd0825 	stclgt	8, cr0, [sp], {37}	; 0x25
    1da4:	0000cccc 	andeq	ip, r0, ip, asr #25
    1da8:	081e0000 	ldmdaeq	lr, {}	; <UNPREDICTABLE>
    1dac:	2525f720 	strcs	pc, [r5, #-1824]!	; 0x720
    1db0:	25332cf7 	ldrcs	r2, [r3, #-3319]!	; 0xcf7
    1db4:	0003109f 	muleq	r3, pc, r0	; <UNPREDICTABLE>
    1db8:	00031400 	andeq	r1, r3, r0, lsl #8
    1dbc:	53000100 	movwpl	r0, #256	; 0x100
    1dc0:	00000314 	andeq	r0, r0, r4, lsl r3
    1dc4:	00000318 	andeq	r0, r0, r8, lsl r3
    1dc8:	0070001c 	rsbseq	r0, r0, ip, lsl r0
    1dcc:	25f72cf7 	ldrbcs	r2, [r7, #3319]!	; 0xcf7
    1dd0:	cd0825f4 	cfstr32gt	mvfx2, [r8, #-976]	; 0xfffffc30
    1dd4:	00cccccc 	sbceq	ip, ip, ip, asr #25
    1dd8:	1e000000 	cdpne	0, 0, cr0, cr0, cr0, {0}
    1ddc:	25f72008 	ldrbcs	r2, [r7, #8]!
    1de0:	332cf725 	msrcc	CPSR_fs, #9699328	; 0x940000
    1de4:	03189f25 	tsteq	r8, #37, 30	; 0x94
    1de8:	03200000 	teqeq	r0, #0
    1dec:	001c0000 	andseq	r0, ip, r0
    1df0:	2cf70074 	ldclcs	0, cr0, [r7], #464	; 0x1d0
    1df4:	25f425f7 	ldrbcs	r2, [r4, #1527]!	; 0x5f7
    1df8:	cccccd08 	stclgt	13, cr12, [ip], {8}
    1dfc:	000000cc 	andeq	r0, r0, ip, asr #1
    1e00:	20081e00 	andcs	r1, r8, r0, lsl #28
    1e04:	f72525f7 			; <UNDEFINED> instruction: 0xf72525f7
    1e08:	9f25332c 	svcls	0x0025332c
    1e0c:	00000320 	andeq	r0, r0, r0, lsr #6
    1e10:	00000324 	andeq	r0, r0, r4, lsr #6
    1e14:	00740017 	rsbseq	r0, r4, r7, lsl r0
    1e18:	25f72cf7 	ldrbcs	r2, [r7, #3319]!	; 0xcf7
    1e1c:	2cf70073 	ldclcs	0, cr0, [r7], #460	; 0x1cc
    1e20:	081e25f7 	ldmdaeq	lr, {r0, r1, r2, r4, r5, r6, r7, r8, sl, sp}
    1e24:	2525f720 	strcs	pc, [r5, #-1824]!	; 0x720
    1e28:	25332cf7 	ldrcs	r2, [r3, #-3319]!	; 0xcf7
    1e2c:	0003249f 	muleq	r3, pc, r4	; <UNPREDICTABLE>
    1e30:	00035800 	andeq	r5, r3, r0, lsl #16
    1e34:	74001c00 	strvc	r1, [r0], #-3072	; 0xc00
    1e38:	f72cf700 			; <UNDEFINED> instruction: 0xf72cf700
    1e3c:	0825f425 	stmdaeq	r5!, {r0, r2, r5, sl, ip, sp, lr, pc}
    1e40:	cccccccd 	stclgt	12, cr12, [ip], {205}	; 0xcd
    1e44:	00000000 	andeq	r0, r0, r0
    1e48:	f720081e 			; <UNDEFINED> instruction: 0xf720081e
    1e4c:	2cf72525 	cfldr64cs	mvdx2, [r7], #148	; 0x94
    1e50:	009f2533 	addseq	r2, pc, r3, lsr r5	; <UNPREDICTABLE>
    1e54:	00000000 	andeq	r0, r0, r0
    1e58:	1c000000 	stcne	0, cr0, [r0], {-0}
    1e5c:	40000003 	andmi	r0, r0, r3
    1e60:	01000003 	tsteq	r0, r3
    1e64:	03405000 	movteq	r5, #0
    1e68:	03480000 	movteq	r0, #32768	; 0x8000
    1e6c:	00090000 	andeq	r0, r9, r0
    1e70:	00730075 	rsbseq	r0, r3, r5, ror r0
    1e74:	21007124 	tstcs	r0, r4, lsr #2
    1e78:	0003489f 	muleq	r3, pc, r8	; <UNPREDICTABLE>
    1e7c:	00034b00 	andeq	r4, r3, r0, lsl #22
    1e80:	51000100 	mrspl	r0, (UNDEF: 16)
	...
    1e8c:	00000358 	andeq	r0, r0, r8, asr r3
    1e90:	00000364 	andeq	r0, r0, r4, ror #6
    1e94:	64500001 	ldrbvs	r0, [r0], #-1
    1e98:	84000003 	strhi	r0, [r0], #-3
    1e9c:	04000003 	streq	r0, [r0], #-3
    1ea0:	5001f300 	andpl	pc, r1, r0, lsl #6
    1ea4:	0000009f 	muleq	r0, pc, r0	; <UNPREDICTABLE>
    1ea8:	00000000 	andeq	r0, r0, r0
    1eac:	00038400 	andeq	r8, r3, r0, lsl #8
    1eb0:	00039700 	andeq	r9, r3, r0, lsl #14
    1eb4:	50000100 	andpl	r0, r0, r0, lsl #2
    1eb8:	00000397 	muleq	r0, r7, r3
    1ebc:	000003d0 	ldrdeq	r0, [r0], -r0	; <UNPREDICTABLE>
    1ec0:	d0540001 	subsle	r0, r4, r1
    1ec4:	08000003 	stmdaeq	r0, {r0, r1}
    1ec8:	04000004 	streq	r0, [r0], #-4
    1ecc:	5001f300 	andpl	pc, r1, r0, lsl #6
    1ed0:	0000009f 	muleq	r0, pc, r0	; <UNPREDICTABLE>
    1ed4:	00000000 	andeq	r0, r0, r0
    1ed8:	0003f000 	andeq	pc, r3, r0
    1edc:	0003f400 	andeq	pc, r3, r0, lsl #8
    1ee0:	50000100 	andpl	r0, r0, r0, lsl #2
    1ee4:	000003f4 	strdeq	r0, [r0], -r4
    1ee8:	000003fb 	strdeq	r0, [r0], -fp
    1eec:	00510001 	subseq	r0, r1, r1
    1ef0:	00000000 	andeq	r0, r0, r0
    1ef4:	ac000000 	stcge	0, cr0, [r0], {-0}
    1ef8:	b4000003 	strlt	r0, [r0], #-3
    1efc:	01000003 	tsteq	r0, r3
    1f00:	03b45000 			; <UNDEFINED> instruction: 0x03b45000
    1f04:	03bb0000 			; <UNDEFINED> instruction: 0x03bb0000
    1f08:	00010000 	andeq	r0, r1, r0
    1f0c:	00000051 	andeq	r0, r0, r1, asr r0
    1f10:	00000000 	andeq	r0, r0, r0
    1f14:	0003cc00 	andeq	ip, r3, r0, lsl #24
    1f18:	0003d800 	andeq	sp, r3, r0, lsl #16
    1f1c:	50000100 	andpl	r0, r0, r0, lsl #2
    1f20:	000003d8 	ldrdeq	r0, [r0], -r8
    1f24:	000003df 	ldrdeq	r0, [r0], -pc	; <UNPREDICTABLE>
    1f28:	00510001 	subseq	r0, r1, r1
    1f2c:	00000000 	andeq	r0, r0, r0
    1f30:	08000000 	stmdaeq	r0, {}	; <UNPREDICTABLE>
    1f34:	1b000004 	blne	1f4c <_start-0x60b4>
    1f38:	01000004 	tsteq	r0, r4
    1f3c:	041b5000 	ldreq	r5, [fp], #-0
    1f40:	04540000 	ldrbeq	r0, [r4], #-0
    1f44:	00010000 	andeq	r0, r1, r0
    1f48:	00045454 	andeq	r5, r4, r4, asr r4
    1f4c:	00048c00 	andeq	r8, r4, r0, lsl #24
    1f50:	f3000400 	vshl.u8	d0, d0, d0
    1f54:	009f5001 	addseq	r5, pc, r1
    1f58:	00000000 	andeq	r0, r0, r0
    1f5c:	74000000 	strvc	r0, [r0], #-0
    1f60:	78000004 	stmdavc	r0, {r2}
    1f64:	01000004 	tsteq	r0, r4
    1f68:	04785000 	ldrbteq	r5, [r8], #-0
    1f6c:	047f0000 	ldrbteq	r0, [pc], #-0	; 1f74 <_start-0x608c>
    1f70:	00010000 	andeq	r0, r1, r0
    1f74:	00000051 	andeq	r0, r0, r1, asr r0
    1f78:	00000000 	andeq	r0, r0, r0
    1f7c:	00043000 	andeq	r3, r4, r0
    1f80:	00043800 	andeq	r3, r4, r0, lsl #16
    1f84:	50000100 	andpl	r0, r0, r0, lsl #2
    1f88:	00000438 	andeq	r0, r0, r8, lsr r4
    1f8c:	0000043f 	andeq	r0, r0, pc, lsr r4
    1f90:	00510001 	subseq	r0, r1, r1
    1f94:	00000000 	andeq	r0, r0, r0
    1f98:	50000000 	andpl	r0, r0, r0
    1f9c:	5c000004 	stcpl	0, cr0, [r0], {4}
    1fa0:	01000004 	tsteq	r0, r4
    1fa4:	045c5000 	ldrbeq	r5, [ip], #-0
    1fa8:	04630000 	strbteq	r0, [r3], #-0
    1fac:	00010000 	andeq	r0, r1, r0
    1fb0:	00000051 	andeq	r0, r0, r1, asr r0
    1fb4:	00000000 	andeq	r0, r0, r0
    1fb8:	00048c00 	andeq	r8, r4, r0, lsl #24
    1fbc:	00049f00 	andeq	r9, r4, r0, lsl #30
    1fc0:	50000100 	andpl	r0, r0, r0, lsl #2
    1fc4:	0000049f 	muleq	r0, pc, r4	; <UNPREDICTABLE>
    1fc8:	000004e0 	andeq	r0, r0, r0, ror #9
    1fcc:	e0540001 	subs	r0, r4, r1
    1fd0:	04000004 	streq	r0, [r0], #-4
    1fd4:	04000005 	streq	r0, [r0], #-5
    1fd8:	5001f300 	andpl	pc, r1, r0, lsl #6
    1fdc:	0005049f 	muleq	r5, pc, r4	; <UNPREDICTABLE>
    1fe0:	00050800 	andeq	r0, r5, r0, lsl #16
    1fe4:	50000100 	andpl	r0, r0, r0, lsl #2
    1fe8:	00000508 	andeq	r0, r0, r8, lsl #10
    1fec:	00000510 	andeq	r0, r0, r0, lsl r5
    1ff0:	00540001 	subseq	r0, r4, r1
    1ff4:	00000000 	andeq	r0, r0, r0
    1ff8:	b4000000 	strlt	r0, [r0], #-0
    1ffc:	c3000004 	movwgt	r0, #4
    2000:	08000004 	stmdaeq	r0, {r2}
    2004:	00743100 	rsbseq	r3, r4, r0, lsl #2
    2008:	1a007024 	bne	1e0a0 <__bss_end__+0x14230>
    200c:	0000009f 	muleq	r0, pc, r0	; <UNPREDICTABLE>
    2010:	00000000 	andeq	r0, r0, r0
    2014:	0004e000 	andeq	lr, r4, r0
    2018:	0004f800 	andeq	pc, r4, r0, lsl #16
    201c:	54000100 	strpl	r0, [r0], #-256	; 0x100
	...
    2028:	00000510 	andeq	r0, r0, r0, lsl r5
    202c:	00000523 	andeq	r0, r0, r3, lsr #10
    2030:	23500001 	cmpcs	r0, #1
    2034:	48000005 	stmdami	r0, {r0, r2}
    2038:	01000005 	tsteq	r0, r5
    203c:	05485400 	strbeq	r5, [r8, #-1024]	; 0x400
    2040:	05680000 	strbeq	r0, [r8, #-0]!
    2044:	00040000 	andeq	r0, r4, r0
    2048:	9f5001f3 	svcls	0x005001f3
	...
    2058:	0000000b 	andeq	r0, r0, fp
    205c:	0b500001 	bleq	1402068 <__bss_end__+0x13f81f8>
    2060:	14000000 	strne	r0, [r0], #-0
    2064:	01000000 	mrseq	r0, (UNDEF: 0)
    2068:	00005400 	andeq	r5, r0, r0, lsl #8
    206c:	00000000 	andeq	r0, r0, r0
    2070:	00fc0000 	rscseq	r0, ip, r0
    2074:	01040000 	mrseq	r0, (UNDEF: 4)
    2078:	00010000 	andeq	r0, r1, r0
    207c:	00010450 	andeq	r0, r1, r0, asr r4
    2080:	00012800 	andeq	r2, r1, r0, lsl #16
    2084:	54000100 	strpl	r0, [r0], #-256	; 0x100
	...
    2094:	00000004 	andeq	r0, r0, r4
    2098:	04520001 	ldrbeq	r0, [r2], #-1
    209c:	20000000 	andcs	r0, r0, r0
    20a0:	04000000 	streq	r0, [r0], #-0
    20a4:	5201f300 	andpl	pc, r1, #0, 6
    20a8:	0000009f 	muleq	r0, pc, r0	; <UNPREDICTABLE>
	...
    20b4:	00000c00 	andeq	r0, r0, r0, lsl #24
    20b8:	50000100 	andpl	r0, r0, r0, lsl #2
    20bc:	0000000c 	andeq	r0, r0, ip
    20c0:	00000014 	andeq	r0, r0, r4, lsl r0
    20c4:	01730003 	cmneq	r3, r3
    20c8:	0000149f 	muleq	r0, pc, r4	; <UNPREDICTABLE>
    20cc:	00002000 	andeq	r2, r0, r0
    20d0:	53000100 	movwpl	r0, #256	; 0x100
	...

Disassembly of section .debug_aranges:

00000000 <.debug_aranges>:
   0:	0000001c 	andeq	r0, r0, ip, lsl r0
   4:	00000002 	andeq	r0, r0, r2
   8:	00040000 	andeq	r0, r4, r0
   c:	00000000 	andeq	r0, r0, r0
  10:	00008010 	andeq	r8, r0, r0, lsl r0
  14:	00000100 	andeq	r0, r0, r0, lsl #2
	...
  20:	0000001c 	andeq	r0, r0, ip, lsl r0
  24:	047a0002 	ldrbteq	r0, [sl], #-2
  28:	00040000 	andeq	r0, r4, r0
  2c:	00000000 	andeq	r0, r0, r0
  30:	00008110 	andeq	r8, r0, r0, lsl r1
  34:	00000058 	andeq	r0, r0, r8, asr r0
	...
  40:	0000001c 	andeq	r0, r0, ip, lsl r0
  44:	060f0002 	streq	r0, [pc], -r2
  48:	00040000 	andeq	r0, r4, r0
  4c:	00000000 	andeq	r0, r0, r0
  50:	00008168 	andeq	r8, r0, r8, ror #2
  54:	00000034 	andeq	r0, r0, r4, lsr r0
	...
  60:	0000001c 	andeq	r0, r0, ip, lsl r0
  64:	07010002 	streq	r0, [r1, -r2]
  68:	00040000 	andeq	r0, r4, r0
  6c:	00000000 	andeq	r0, r0, r0
  70:	0000819c 	muleq	r0, ip, r1
  74:	00000524 	andeq	r0, r0, r4, lsr #10
	...
  80:	0000001c 	andeq	r0, r0, ip, lsl r0
  84:	0da60002 	stceq	0, cr0, [r6, #8]!
  88:	00040000 	andeq	r0, r4, r0
  8c:	00000000 	andeq	r0, r0, r0
  90:	000086c0 	andeq	r8, r0, r0, asr #13
  94:	00000028 	andeq	r0, r0, r8, lsr #32
	...
  a0:	0000001c 	andeq	r0, r0, ip, lsl r0
  a4:	0ea90002 	cdpeq	0, 10, cr0, cr9, cr2, {0}
  a8:	00040000 	andeq	r0, r4, r0
  ac:	00000000 	andeq	r0, r0, r0
  b0:	000086e8 	andeq	r8, r0, r8, ror #13
  b4:	000000b0 	strheq	r0, [r0], -r0	; <UNPREDICTABLE>
	...
  c0:	0000001c 	andeq	r0, r0, ip, lsl r0
  c4:	118a0002 	orrne	r0, sl, r2
  c8:	00040000 	andeq	r0, r4, r0
  cc:	00000000 	andeq	r0, r0, r0
  d0:	00008798 	muleq	r0, r8, r7
  d4:	00000074 	andeq	r0, r0, r4, ror r0
	...
  e0:	0000001c 	andeq	r0, r0, ip, lsl r0
  e4:	133b0002 	teqne	fp, #2
  e8:	00040000 	andeq	r0, r4, r0
  ec:	00000000 	andeq	r0, r0, r0
  f0:	0000880c 	andeq	r8, r0, ip, lsl #16
  f4:	00000088 	andeq	r0, r0, r8, lsl #1
	...
 100:	0000001c 	andeq	r0, r0, ip, lsl r0
 104:	15170002 	ldrne	r0, [r7, #-2]
 108:	00040000 	andeq	r0, r4, r0
 10c:	00000000 	andeq	r0, r0, r0
 110:	00008894 	muleq	r0, r4, r8
 114:	00000668 	andeq	r0, r0, r8, ror #12
	...
 120:	0000001c 	andeq	r0, r0, ip, lsl r0
 124:	270d0002 	strcs	r0, [sp, -r2]
 128:	00040000 	andeq	r0, r4, r0
 12c:	00000000 	andeq	r0, r0, r0
 130:	00008f48 	andeq	r8, r0, r8, asr #30
 134:	00000568 	andeq	r0, r0, r8, ror #10
	...
 140:	0000001c 	andeq	r0, r0, ip, lsl r0
 144:	2f320002 	svccs	0x00320002
 148:	00040000 	andeq	r0, r4, r0
 14c:	00000000 	andeq	r0, r0, r0
 150:	000094b0 			; <UNDEFINED> instruction: 0x000094b0
 154:	0000003c 	andeq	r0, r0, ip, lsr r0
	...
 160:	0000001c 	andeq	r0, r0, ip, lsl r0
 164:	30490002 	subcc	r0, r9, r2
 168:	00040000 	andeq	r0, r4, r0
 16c:	00000000 	andeq	r0, r0, r0
 170:	000094ec 	andeq	r9, r0, ip, ror #9
 174:	00000050 	andeq	r0, r0, r0, asr r0
	...
 180:	0000001c 	andeq	r0, r0, ip, lsl r0
 184:	32100002 	andscc	r0, r0, #2
 188:	00040000 	andeq	r0, r4, r0
 18c:	00000000 	andeq	r0, r0, r0
 190:	0000953c 	andeq	r9, r0, ip, lsr r5
 194:	00000154 	andeq	r0, r0, r4, asr r1
	...
 1a0:	0000001c 	andeq	r0, r0, ip, lsl r0
 1a4:	36130002 	ldrcc	r0, [r3], -r2
 1a8:	00040000 	andeq	r0, r4, r0
 1ac:	00000000 	andeq	r0, r0, r0
 1b0:	000096a8 	andeq	r9, r0, r8, lsr #13
 1b4:	00000020 	andeq	r0, r0, r0, lsr #32
	...

Disassembly of section .debug_line:

00000000 <.debug_line>:
       0:	00000132 	andeq	r0, r0, r2, lsr r1
       4:	00ea0002 	rsceq	r0, sl, r2
       8:	01020000 	mrseq	r0, (UNDEF: 2)
       c:	000d0efb 	strdeq	r0, [sp], -fp
      10:	01010101 	tsteq	r1, r1, lsl #2
      14:	01000000 	mrseq	r0, (UNDEF: 0)
      18:	2e010000 	cdpcs	0, 0, cr0, cr1, cr0, {0}
      1c:	6e752f2e 	cdpvs	15, 7, cr2, cr5, cr14, {1}
      20:	732d7869 	teqvc	sp, #6881280	; 0x690000
      24:	00656469 	rsbeq	r6, r5, r9, ror #8
      28:	7273752f 	rsbsvc	r7, r3, #197132288	; 0xbc00000
      2c:	636f6c2f 	cmnvs	pc, #12032	; 0x2f00
      30:	432f6c61 	teqmi	pc, #24832	; 0x6100
      34:	616c6c65 	cmnvs	ip, r5, ror #24
      38:	72612f72 	rsbvc	r2, r1, #456	; 0x1c8
      3c:	6f6e2d6d 	svcvs	0x006e2d6d
      40:	652d656e 	strvs	r6, [sp, #-1390]!	; 0x56e
      44:	2f696261 	svccs	0x00696261
      48:	2e382e34 	mrccs	14, 1, r2, cr8, cr4, {1}
      4c:	73632d33 	cmnvc	r3, #3264	; 0xcc0
      50:	65303731 	ldrvs	r3, [r0, #-1841]!	; 0x731
      54:	62696c2f 	rsbvs	r6, r9, #12032	; 0x2f00
      58:	6363672f 	cmnvs	r3, #12320768	; 0xbc0000
      5c:	6d72612f 	ldfvse	f6, [r2, #-188]!	; 0xffffff44
      60:	6e6f6e2d 	cdpvs	14, 6, cr6, cr15, cr13, {1}
      64:	61652d65 	cmnvs	r5, r5, ror #26
      68:	342f6962 	strtcc	r6, [pc], #-2402	; 70 <_start-0x7f90>
      6c:	332e382e 	teqcc	lr, #3014656	; 0x2e0000
      70:	636e692f 	cmnvs	lr, #770048	; 0xbc000
      74:	6564756c 	strbvs	r7, [r4, #-1388]!	; 0x56c
      78:	73552f00 	cmpvc	r5, #0, 30
      7c:	2f737265 	svccs	0x00737265
      80:	61697262 	cmnvs	r9, r2, ror #4
      84:	6e756a6e 	vsubvs.f32	s13, s10, s29
      88:	7365442f 	cmnvc	r5, #788529152	; 0x2f000000
      8c:	706f746b 	rsbvc	r7, pc, fp, ror #8
      90:	6863732f 	stmdavs	r3!, {r0, r1, r2, r3, r5, r8, r9, ip, sp, lr}^
      94:	2f6c6f6f 	svccs	0x006c6f6f
      98:	746e6957 	strbtvc	r6, [lr], #-2391	; 0x957
      9c:	39317265 	ldmdbcc	r1!, {r0, r2, r5, r6, r9, ip, sp, lr}
      a0:	432f3032 	teqmi	pc, #50	; 0x32
      a4:	30343153 	eorscc	r3, r4, r3, asr r1
      a8:	73632f45 	cmnvc	r3, #276	; 0x114
      ac:	65303431 	ldrvs	r3, [r0, #-1073]!	; 0x431
      b0:	7730322d 	ldrvc	r3, [r0, -sp, lsr #4]!
      b4:	6c2f6e69 	stcvs	14, cr6, [pc], #-420	; ffffff18 <__bss_end__+0xffff60a8>
      b8:	69706269 	ldmdbvs	r0!, {r0, r3, r5, r6, r9, sp, lr}^
      bc:	65680000 	strbvs	r0, [r8, #-0]!
      c0:	2e6f6c6c 	cdpcs	12, 6, cr6, cr15, cr12, {3}
      c4:	00000063 	andeq	r0, r0, r3, rrx
      c8:	6d726100 	ldfvse	f6, [r2, #-0]
      cc:	692d3676 	pushvs	{r1, r2, r4, r5, r6, r9, sl, ip, sp}
      d0:	7374736e 	cmnvc	r4, #-1207959551	; 0xb8000001
      d4:	0100682e 	tsteq	r0, lr, lsr #16
      d8:	74730000 	ldrbtvc	r0, [r3], #-0
      dc:	746e6964 	strbtvc	r6, [lr], #-2404	; 0x964
      e0:	6363672d 	cmnvs	r3, #11796480	; 0xb40000
      e4:	0200682e 	andeq	r6, r0, #3014656	; 0x2e0000
      e8:	70720000 	rsbsvc	r0, r2, r0
      ec:	00682e69 	rsbeq	r2, r8, r9, ror #28
      f0:	00000003 	andeq	r0, r0, r3
      f4:	10020500 	andne	r0, r2, r0, lsl #10
      f8:	15000080 	strne	r0, [r0, #-128]	; 0x80
      fc:	4b4b872f 	blmi	12e1dc0 <__bss_end__+0x12d7f50>
     100:	0467364d 	strbteq	r3, [r7], #-1613	; 0x64d
     104:	01de0302 	bicseq	r0, lr, r2, lsl #6
     108:	2f302f4a 	svccs	0x00302f4a
     10c:	03010430 	movweq	r0, #5168	; 0x1430
     110:	312e7e9d 			; <UNDEFINED> instruction: 0x312e7e9d
     114:	2f4b4c4b 	svccs	0x004b4c4b
     118:	04020049 	streq	r0, [r2], #-73	; 0x49
     11c:	02002f02 	andeq	r2, r0, #2, 30
     120:	00810204 	addeq	r0, r1, r4, lsl #4
     124:	06010402 	streq	r0, [r1], -r2, lsl #8
     128:	2f4d062e 	svccs	0x004d062e
     12c:	4b2f6767 	blmi	bd9ed0 <__bss_end__+0xbd0060>
     130:	0018024b 	andseq	r0, r8, fp, asr #4
     134:	01020101 	tsteq	r2, r1, lsl #2
     138:	00020000 	andeq	r0, r2, r0
     13c:	000000eb 	andeq	r0, r0, fp, ror #1
     140:	0efb0102 	cdpeq	1, 15, cr0, cr11, cr2, {0}
     144:	0101000d 	tsteq	r1, sp
     148:	00000101 	andeq	r0, r0, r1, lsl #2
     14c:	00000100 	andeq	r0, r0, r0, lsl #2
     150:	62696c01 	rsbvs	r6, r9, #256	; 0x100
     154:	752f0063 	strvc	r0, [pc, #-99]!	; f9 <_start-0x7f07>
     158:	6c2f7273 	sfmvs	f7, 4, [pc], #-460	; ffffff94 <__bss_end__+0xffff6124>
     15c:	6c61636f 	stclvs	3, cr6, [r1], #-444	; 0xfffffe44
     160:	6c65432f 	stclvs	3, cr4, [r5], #-188	; 0xffffff44
     164:	2f72616c 	svccs	0x0072616c
     168:	2d6d7261 	sfmcs	f7, 2, [sp, #-388]!	; 0xfffffe7c
     16c:	656e6f6e 	strbvs	r6, [lr, #-3950]!	; 0xf6e
     170:	6261652d 	rsbvs	r6, r1, #188743680	; 0xb400000
     174:	2e342f69 	cdpcs	15, 3, cr2, cr4, cr9, {3}
     178:	2d332e38 	ldccs	14, cr2, [r3, #-224]!	; 0xffffff20
     17c:	37317363 	ldrcc	r7, [r1, -r3, ror #6]!
     180:	6c2f6530 	cfstr32vs	mvfx6, [pc], #-192	; c8 <_start-0x7f38>
     184:	672f6269 	strvs	r6, [pc, -r9, ror #4]!
     188:	612f6363 	teqvs	pc, r3, ror #6
     18c:	6e2d6d72 	mcrvs	13, 1, r6, cr13, cr2, {3}
     190:	2d656e6f 	stclcs	14, cr6, [r5, #-444]!	; 0xfffffe44
     194:	69626165 	stmdbvs	r2!, {r0, r2, r5, r6, r8, sp, lr}^
     198:	382e342f 	stmdacc	lr!, {r0, r1, r2, r3, r5, sl, ip, sp}
     19c:	692f332e 	stmdbvs	pc!, {r1, r2, r3, r5, r8, r9, ip, sp}	; <UNPREDICTABLE>
     1a0:	756c636e 	strbvc	r6, [ip, #-878]!	; 0x36e
     1a4:	2f006564 	svccs	0x00006564
     1a8:	72657355 	rsbvc	r7, r5, #1409286145	; 0x54000001
     1ac:	72622f73 	rsbvc	r2, r2, #460	; 0x1cc
     1b0:	6a6e6169 	bvs	1b9875c <__bss_end__+0x1b8e8ec>
     1b4:	442f6e75 	strtmi	r6, [pc], #-3701	; 1bc <_start-0x7e44>
     1b8:	746b7365 	strbtvc	r7, [fp], #-869	; 0x365
     1bc:	732f706f 	teqvc	pc, #111	; 0x6f
     1c0:	6f6f6863 	svcvs	0x006f6863
     1c4:	69572f6c 	ldmdbvs	r7, {r2, r3, r5, r6, r8, r9, sl, fp, sp}^
     1c8:	7265746e 	rsbvc	r7, r5, #1845493760	; 0x6e000000
     1cc:	30323931 	eorscc	r3, r2, r1, lsr r9
     1d0:	3153432f 	cmpcc	r3, pc, lsr #6
     1d4:	2f453034 	svccs	0x00453034
     1d8:	34317363 	ldrtcc	r7, [r1], #-867	; 0x363
     1dc:	322d6530 	eorcc	r6, sp, #48, 10	; 0xc000000
     1e0:	6e697730 	mcrvs	7, 3, r7, cr9, cr0, {1}
     1e4:	62696c2f 	rsbvs	r6, r9, #12032	; 0x2f00
     1e8:	00006970 	andeq	r6, r0, r0, ror r9
     1ec:	6e697270 	mcrvs	2, 3, r7, cr9, cr0, {3}
     1f0:	632e6b74 	teqvs	lr, #116, 22	; 0x1d000
     1f4:	00000100 	andeq	r0, r0, r0, lsl #2
     1f8:	61647473 	smcvs	18243	; 0x4743
     1fc:	682e6772 	stmdavs	lr!, {r1, r4, r5, r6, r8, r9, sl, sp, lr}
     200:	00000200 	andeq	r0, r0, r0, lsl #4
     204:	6975623c 	ldmdbvs	r5!, {r2, r3, r4, r5, r9, sp, lr}^
     208:	692d746c 	pushvs	{r2, r3, r5, r6, sl, ip, sp, lr}
     20c:	00003e6e 	andeq	r3, r0, lr, ror #28
     210:	70720000 	rsbsvc	r0, r2, r0
     214:	00682e69 	rsbeq	r2, r8, r9, ror #28
     218:	76000003 	strvc	r0, [r0], -r3
     21c:	72702d61 	rsbsvc	r2, r0, #6208	; 0x1840
     220:	6b746e69 	blvs	1d1bbcc <__bss_end__+0x1d11d5c>
     224:	0100682e 	tsteq	r0, lr, lsr #16
     228:	00000000 	andeq	r0, r0, r0
     22c:	81100205 	tsthi	r0, r5, lsl #4
     230:	6b170000 	blvs	5c0238 <__bss_end__+0x5b63c8>
     234:	0289bf4b 	addeq	fp, r9, #300	; 0x12c
     238:	0101000e 	tsteq	r1, lr
     23c:	00000096 	muleq	r0, r6, r0
     240:	006f0002 	rsbeq	r0, pc, r2
     244:	01020000 	mrseq	r0, (UNDEF: 2)
     248:	000d0efb 	strdeq	r0, [sp], -fp
     24c:	01010101 	tsteq	r1, r1, lsl #2
     250:	01000000 	mrseq	r0, (UNDEF: 0)
     254:	6c010000 	stcvs	0, cr0, [r1], {-0}
     258:	00636269 	rsbeq	r6, r3, r9, ror #4
     25c:	6573552f 	ldrbvs	r5, [r3, #-1327]!	; 0x52f
     260:	622f7372 	eorvs	r7, pc, #-939524095	; 0xc8000001
     264:	6e616972 	mcrvs	9, 3, r6, cr1, cr2, {3}
     268:	2f6e756a 	svccs	0x006e756a
     26c:	6b736544 	blvs	1cd9784 <__bss_end__+0x1ccf914>
     270:	2f706f74 	svccs	0x00706f74
     274:	6f686373 	svcvs	0x00686373
     278:	572f6c6f 	strpl	r6, [pc, -pc, ror #24]!
     27c:	65746e69 	ldrbvs	r6, [r4, #-3689]!	; 0xe69
     280:	32393172 	eorscc	r3, r9, #-2147483620	; 0x8000001c
     284:	53432f30 	movtpl	r2, #16176	; 0x3f30
     288:	45303431 	ldrmi	r3, [r0, #-1073]!	; 0x431
     28c:	3173632f 	cmncc	r3, pc, lsr #6
     290:	2d653034 	stclcs	0, cr3, [r5, #-208]!	; 0xffffff30
     294:	69773032 	ldmdbvs	r7!, {r1, r4, r5, ip, sp}^
     298:	696c2f6e 	stmdbvs	ip!, {r1, r2, r3, r5, r6, r8, r9, sl, fp, sp}^
     29c:	00697062 	rsbeq	r7, r9, r2, rrx
     2a0:	74757000 	ldrbtvc	r7, [r5], #-0
     2a4:	00632e6b 	rsbeq	r2, r3, fp, ror #28
     2a8:	72000001 	andvc	r0, r0, #1
     2ac:	682e6970 	stmdavs	lr!, {r4, r5, r6, r8, fp, sp, lr}
     2b0:	00000200 	andeq	r0, r0, r0, lsl #4
     2b4:	02050000 	andeq	r0, r5, #0
     2b8:	00008168 	andeq	r8, r0, r8, ror #2
     2bc:	002d4c15 	eoreq	r4, sp, r5, lsl ip
     2c0:	2f020402 	svccs	0x00020402
     2c4:	02040200 	andeq	r0, r4, #0, 4
     2c8:	04020049 	streq	r0, [r2], #-73	; 0x49
     2cc:	062e0601 	strteq	r0, [lr], -r1, lsl #12
     2d0:	0006026b 	andeq	r0, r6, fp, ror #4
     2d4:	01e20101 	mvneq	r0, r1, lsl #2
     2d8:	00020000 	andeq	r0, r2, r0
     2dc:	000000df 	ldrdeq	r0, [r0], -pc	; <UNPREDICTABLE>
     2e0:	0efb0102 	cdpeq	1, 15, cr0, cr11, cr2, {0}
     2e4:	0101000d 	tsteq	r1, sp
     2e8:	00000101 	andeq	r0, r0, r1, lsl #2
     2ec:	00000100 	andeq	r0, r0, r0, lsl #2
     2f0:	62696c01 	rsbvs	r6, r9, #256	; 0x100
     2f4:	752f0063 	strvc	r0, [pc, #-99]!	; 299 <_start-0x7d67>
     2f8:	6c2f7273 	sfmvs	f7, 4, [pc], #-460	; 134 <_start-0x7ecc>
     2fc:	6c61636f 	stclvs	3, cr6, [r1], #-444	; 0xfffffe44
     300:	6c65432f 	stclvs	3, cr4, [r5], #-188	; 0xffffff44
     304:	2f72616c 	svccs	0x0072616c
     308:	2d6d7261 	sfmcs	f7, 2, [sp, #-388]!	; 0xfffffe7c
     30c:	656e6f6e 	strbvs	r6, [lr, #-3950]!	; 0xf6e
     310:	6261652d 	rsbvs	r6, r1, #188743680	; 0xb400000
     314:	2e342f69 	cdpcs	15, 3, cr2, cr4, cr9, {3}
     318:	2d332e38 	ldccs	14, cr2, [r3, #-224]!	; 0xffffff20
     31c:	37317363 	ldrcc	r7, [r1, -r3, ror #6]!
     320:	6c2f6530 	cfstr32vs	mvfx6, [pc], #-192	; 268 <_start-0x7d98>
     324:	672f6269 	strvs	r6, [pc, -r9, ror #4]!
     328:	612f6363 	teqvs	pc, r3, ror #6
     32c:	6e2d6d72 	mcrvs	13, 1, r6, cr13, cr2, {3}
     330:	2d656e6f 	stclcs	14, cr6, [r5, #-444]!	; 0xfffffe44
     334:	69626165 	stmdbvs	r2!, {r0, r2, r5, r6, r8, sp, lr}^
     338:	382e342f 	stmdacc	lr!, {r0, r1, r2, r3, r5, sl, ip, sp}
     33c:	692f332e 	stmdbvs	pc!, {r1, r2, r3, r5, r8, r9, ip, sp}	; <UNPREDICTABLE>
     340:	756c636e 	strbvc	r6, [ip, #-878]!	; 0x36e
     344:	2f006564 	svccs	0x00006564
     348:	72657355 	rsbvc	r7, r5, #1409286145	; 0x54000001
     34c:	72622f73 	rsbvc	r2, r2, #460	; 0x1cc
     350:	6a6e6169 	bvs	1b988fc <__bss_end__+0x1b8ea8c>
     354:	442f6e75 	strtmi	r6, [pc], #-3701	; 35c <_start-0x7ca4>
     358:	746b7365 	strbtvc	r7, [fp], #-869	; 0x365
     35c:	732f706f 	teqvc	pc, #111	; 0x6f
     360:	6f6f6863 	svcvs	0x006f6863
     364:	69572f6c 	ldmdbvs	r7, {r2, r3, r5, r6, r8, r9, sl, fp, sp}^
     368:	7265746e 	rsbvc	r7, r5, #1845493760	; 0x6e000000
     36c:	30323931 	eorscc	r3, r2, r1, lsr r9
     370:	3153432f 	cmpcc	r3, pc, lsr #6
     374:	2f453034 	svccs	0x00453034
     378:	34317363 	ldrtcc	r7, [r1], #-867	; 0x363
     37c:	322d6530 	eorcc	r6, sp, #48, 10	; 0xc000000
     380:	6e697730 	mcrvs	7, 3, r7, cr9, cr0, {1}
     384:	62696c2f 	rsbvs	r6, r9, #12032	; 0x2f00
     388:	00006970 	andeq	r6, r0, r0, ror r9
     38c:	702d6176 	eorvc	r6, sp, r6, ror r1
     390:	746e6972 	strbtvc	r6, [lr], #-2418	; 0x972
     394:	00632e6b 	rsbeq	r2, r3, fp, ror #28
     398:	73000001 	movwvc	r0, #1
     39c:	72616474 	rsbvc	r6, r1, #116, 8	; 0x74000000
     3a0:	00682e67 	rsbeq	r2, r8, r7, ror #28
     3a4:	72000002 	andvc	r0, r0, #2
     3a8:	682e6970 	stmdavs	lr!, {r4, r5, r6, r8, fp, sp, lr}
     3ac:	00000300 	andeq	r0, r0, r0, lsl #6
     3b0:	6975623c 	ldmdbvs	r5!, {r2, r3, r4, r5, r9, sp, lr}^
     3b4:	692d746c 	pushvs	{r2, r3, r5, r6, sl, ip, sp, lr}
     3b8:	00003e6e 	andeq	r3, r0, lr, ror #28
     3bc:	00000000 	andeq	r0, r0, r0
     3c0:	819c0205 	orrshi	r0, ip, r5, lsl #4
     3c4:	26030000 	strcs	r0, [r3], -r0
     3c8:	13a50101 			; <UNDEFINED> instruction: 0x13a50101
     3cc:	02002d31 	andeq	r2, r0, #3136	; 0xc40
     3d0:	002f0204 	eoreq	r0, pc, r4, lsl #4
     3d4:	2d020402 	cfstrscs	mvf0, [r2, #-8]
     3d8:	02040200 	andeq	r0, r4, #0, 4
     3dc:	0402002f 	streq	r0, [r2], #-47	; 0x2f
     3e0:	4c4c2d01 	mcrrmi	13, 0, r2, ip, cr1
     3e4:	2f4b1430 	svccs	0x004b1430
     3e8:	0402004f 	streq	r0, [r2], #-79	; 0x4f
     3ec:	02006702 	andeq	r6, r0, #524288	; 0x80000
     3f0:	4c650104 	stfmie	f0, [r5], #-16
     3f4:	2fa0304d 	svccs	0x00a0304d
     3f8:	26023031 			; <UNDEFINED> instruction: 0x26023031
     3fc:	2c2d8416 	cfstrscs	mvf8, [sp], #-88	; 0xffffffa8
     400:	01040200 	mrseq	r0, R12_usr
     404:	04020030 	streq	r0, [r2], #-48	; 0x30
     408:	66063301 	strvs	r3, [r6], -r1, lsl #6
     40c:	01040200 	mrseq	r0, R12_usr
     410:	0402002e 	streq	r0, [r2], #-46	; 0x2e
     414:	21080601 	tstcs	r8, r1, lsl #12
     418:	73032f67 	movwvc	r2, #16231	; 0x3f67
     41c:	2e130382 	cdpcs	3, 1, cr0, cr3, cr2, {4}
     420:	01040200 	mrseq	r0, R12_usr
     424:	02002e06 	andeq	r2, r0, #6, 28	; 0x60
     428:	9f060104 	svcls	0x00060104
     42c:	67034b6a 	strvs	r4, [r3, -sl, ror #22]
     430:	2e21032e 	cdpcs	3, 2, cr0, cr1, cr14, {1}
     434:	01040200 	mrseq	r0, R12_usr
     438:	02002e06 	andeq	r2, r0, #6, 28	; 0x60
     43c:	9f060104 	svcls	0x00060104
     440:	01040200 	mrseq	r0, R12_usr
     444:	f323086a 	vsub.i32	q0, <illegal reg q1.5>, q13
     448:	087fa603 	ldmdaeq	pc!, {r0, r1, r9, sl, sp, pc}^	; <UNPREDICTABLE>
     44c:	02004b3c 	andeq	r4, r0, #60, 22	; 0xf000
     450:	4a060104 	bmi	180868 <__bss_end__+0x1769f8>
     454:	4b210806 	blmi	842474 <__bss_end__+0x838604>
     458:	d9034b2f 	stmdble	r3, {r0, r1, r2, r3, r5, r8, r9, fp, lr}
     45c:	4c83f200 	sfmmi	f7, 1, [r3], {0}
     460:	2e0e0348 	cdpcs	3, 0, cr0, cr14, cr8, {2}
     464:	2f2e7503 	svccs	0x002e7503
     468:	2f4b842f 	svccs	0x004b842f
     46c:	30314d2d 	eorscc	r4, r1, sp, lsr #26
     470:	0200832f 	andeq	r8, r0, #-1140850688	; 0xbc000000
     474:	a22c0104 	eorge	r0, ip, #4, 2
     478:	01040200 	mrseq	r0, R12_usr
     47c:	08064a06 	stmdaeq	r6, {r1, r2, r9, fp, lr}
     480:	16360222 	ldrtne	r0, [r6], -r2, lsr #4
     484:	08d60e03 	ldmeq	r6, {r0, r1, r9, sl, fp}^
     488:	31f33021 	mvnscc	r3, r1, lsr #32
     48c:	30f330f3 	ldrshtcc	r3, [r3], #3
     490:	30f3304b 	rscscc	r3, r3, fp, asr #32
     494:	2f312308 	svccs	0x00312308
     498:	01040200 	mrseq	r0, R12_usr
     49c:	04020065 	streq	r0, [r2], #-101	; 0x65
     4a0:	004a0602 	subeq	r0, sl, r2, lsl #12
     4a4:	06010402 	streq	r0, [r1], -r2, lsl #8
     4a8:	00664203 	rsbeq	r4, r6, r3, lsl #4
     4ac:	06020402 	streq	r0, [r2], -r2, lsl #8
     4b0:	c2030666 	andgt	r0, r3, #106954752	; 0x6600000
     4b4:	02684a00 	rsbeq	r4, r8, #0, 20
     4b8:	01010012 	tsteq	r1, r2, lsl r0
     4bc:	00000093 	muleq	r0, r3, r0
     4c0:	007d0002 	rsbseq	r0, sp, r2
     4c4:	01020000 	mrseq	r0, (UNDEF: 2)
     4c8:	000d0efb 	strdeq	r0, [sp], -fp
     4cc:	01010101 	tsteq	r1, r1, lsl #2
     4d0:	01000000 	mrseq	r0, (UNDEF: 0)
     4d4:	63010000 	movwvs	r0, #4096	; 0x1000
     4d8:	30343173 	eorscc	r3, r4, r3, ror r1
     4dc:	72732d65 	rsbsvc	r2, r3, #6464	; 0x1940
     4e0:	552f0063 	strpl	r0, [pc, #-99]!	; 485 <_start-0x7b7b>
     4e4:	73726573 	cmnvc	r2, #482344960	; 0x1cc00000
     4e8:	6972622f 	ldmdbvs	r2!, {r0, r1, r2, r3, r5, r9, sp, lr}^
     4ec:	756a6e61 	strbvc	r6, [sl, #-3681]!	; 0xe61
     4f0:	65442f6e 	strbvs	r2, [r4, #-3950]	; 0xf6e
     4f4:	6f746b73 	svcvs	0x00746b73
     4f8:	63732f70 	cmnvs	r3, #112, 30	; 0x1c0
     4fc:	6c6f6f68 	stclvs	15, cr6, [pc], #-416	; 364 <_start-0x7c9c>
     500:	6e69572f 	cdpvs	7, 6, cr5, cr9, cr15, {1}
     504:	31726574 	cmncc	r2, r4, ror r5
     508:	2f303239 	svccs	0x00303239
     50c:	34315343 	ldrtcc	r5, [r1], #-835	; 0x343
     510:	632f4530 	teqvs	pc, #48, 10	; 0xc000000
     514:	30343173 	eorscc	r3, r4, r3, ror r1
     518:	30322d65 	eorscc	r2, r2, r5, ror #26
     51c:	2f6e6977 	svccs	0x006e6977
     520:	7062696c 	rsbvc	r6, r2, ip, ror #18
     524:	63000069 	movwvs	r0, #105	; 0x69
     528:	6e61656c 	cdpvs	5, 6, cr6, cr1, cr12, {3}
     52c:	6265722d 	rsbvs	r7, r5, #-805306366	; 0xd0000002
     530:	2e746f6f 	cdpcs	15, 7, cr6, cr4, cr15, {3}
     534:	00010063 	andeq	r0, r1, r3, rrx
     538:	69707200 	ldmdbvs	r0!, {r9, ip, sp, lr}^
     53c:	0200682e 	andeq	r6, r0, #3014656	; 0x2e0000
     540:	00000000 	andeq	r0, r0, r0
     544:	86c00205 	strbhi	r0, [r0], r5, lsl #4
     548:	2f150000 	svccs	0x00150000
     54c:	06024b83 	streq	r4, [r2], -r3, lsl #23
     550:	21010100 	mrscs	r0, (UNDEF: 17)
     554:	02000001 	andeq	r0, r0, #1
     558:	0000f800 	andeq	pc, r0, r0, lsl #16
     55c:	fb010200 	blx	40d66 <__bss_end__+0x36ef6>
     560:	01000d0e 	tsteq	r0, lr, lsl #26
     564:	00010101 	andeq	r0, r1, r1, lsl #2
     568:	00010000 	andeq	r0, r1, r0
     56c:	73630100 	cmnvc	r3, #0, 2
     570:	65303431 	ldrvs	r3, [r0, #-1073]!	; 0x431
     574:	6372732d 	cmnvs	r2, #-1275068416	; 0xb4000000
     578:	73752f00 	cmnvc	r5, #0, 30
     57c:	6f6c2f72 	svcvs	0x006c2f72
     580:	2f6c6163 	svccs	0x006c6163
     584:	6c6c6543 	cfstr64vs	mvdx6, [ip], #-268	; 0xfffffef4
     588:	612f7261 	teqvs	pc, r1, ror #4
     58c:	6e2d6d72 	mcrvs	13, 1, r6, cr13, cr2, {3}
     590:	2d656e6f 	stclcs	14, cr6, [r5, #-444]!	; 0xfffffe44
     594:	69626165 	stmdbvs	r2!, {r0, r2, r5, r6, r8, sp, lr}^
     598:	382e342f 	stmdacc	lr!, {r0, r1, r2, r3, r5, sl, ip, sp}
     59c:	632d332e 	teqvs	sp, #-1207959552	; 0xb8000000
     5a0:	30373173 	eorscc	r3, r7, r3, ror r1
     5a4:	696c2f65 	stmdbvs	ip!, {r0, r2, r5, r6, r8, r9, sl, fp, sp}^
     5a8:	63672f62 	cmnvs	r7, #392	; 0x188
     5ac:	72612f63 	rsbvc	r2, r1, #396	; 0x18c
     5b0:	6f6e2d6d 	svcvs	0x006e2d6d
     5b4:	652d656e 	strvs	r6, [sp, #-1390]!	; 0x56e
     5b8:	2f696261 	svccs	0x00696261
     5bc:	2e382e34 	mrccs	14, 1, r2, cr8, cr4, {1}
     5c0:	6e692f33 	mcrvs	15, 3, r2, cr9, cr3, {1}
     5c4:	64756c63 	ldrbtvs	r6, [r5], #-3171	; 0xc63
     5c8:	552f0065 	strpl	r0, [pc, #-101]!	; 56b <_start-0x7a95>
     5cc:	73726573 	cmnvc	r2, #482344960	; 0x1cc00000
     5d0:	6972622f 	ldmdbvs	r2!, {r0, r1, r2, r3, r5, r9, sp, lr}^
     5d4:	756a6e61 	strbvc	r6, [sl, #-3681]!	; 0xe61
     5d8:	65442f6e 	strbvs	r2, [r4, #-3950]	; 0xf6e
     5dc:	6f746b73 	svcvs	0x00746b73
     5e0:	63732f70 	cmnvs	r3, #112, 30	; 0x1c0
     5e4:	6c6f6f68 	stclvs	15, cr6, [pc], #-416	; 44c <_start-0x7bb4>
     5e8:	6e69572f 	cdpvs	7, 6, cr5, cr9, cr15, {1}
     5ec:	31726574 	cmncc	r2, r4, ror r5
     5f0:	2f303239 	svccs	0x00303239
     5f4:	34315343 	ldrtcc	r5, [r1], #-835	; 0x343
     5f8:	632f4530 	teqvs	pc, #48, 10	; 0xc000000
     5fc:	30343173 	eorscc	r3, r4, r3, ror r1
     600:	30322d65 	eorscc	r2, r2, r5, ror #26
     604:	2f6e6977 	svccs	0x006e6977
     608:	7062696c 	rsbvc	r6, r2, ip, ror #18
     60c:	63000069 	movwvs	r0, #105	; 0x69
     610:	72617473 	rsbvc	r7, r1, #1929379840	; 0x73000000
     614:	00632e74 	rsbeq	r2, r3, r4, ror lr
     618:	73000001 	movwvc	r0, #1
     61c:	6e696474 	mcrvs	4, 3, r6, cr9, cr4, {3}
     620:	63672d74 	cmnvs	r7, #116, 26	; 0x1d00
     624:	00682e63 	rsbeq	r2, r8, r3, ror #28
     628:	73000002 	movwvc	r0, #2
     62c:	61752d77 	cmnvs	r5, r7, ror sp
     630:	682e7472 	stmdavs	lr!, {r1, r4, r5, r6, sl, ip, sp, lr}
     634:	00000100 	andeq	r0, r0, r0, lsl #2
     638:	746e6f63 	strbtvc	r6, [lr], #-3939	; 0xf63
     63c:	2d6c6f72 	stclcs	15, cr6, [ip, #-456]!	; 0xfffffe38
     640:	636f6c62 	cmnvs	pc, #25088	; 0x6200
     644:	00682e6b 	rsbeq	r2, r8, fp, ror #28
     648:	72000001 	andvc	r0, r0, #1
     64c:	682e6970 	stmdavs	lr!, {r4, r5, r6, r8, fp, sp, lr}
     650:	00000300 	andeq	r0, r0, r0, lsl #6
     654:	02050000 	andeq	r0, r5, #0
     658:	000086e8 	andeq	r8, r0, r8, ror #13
     65c:	68684b17 	stmdavs	r8!, {r0, r1, r2, r4, r8, r9, fp, lr}^
     660:	2d2f3132 	stfcss	f3, [pc, #-200]!	; 5a0 <_start-0x7a60>
     664:	0402002f 	streq	r0, [r2], #-47	; 0x2f
     668:	2f4f4901 	svccs	0x004f4901
     66c:	8367674b 	cmnhi	r7, #19660800	; 0x12c0000
     670:	022f4e67 	eoreq	r4, pc, #1648	; 0x670
     674:	01010010 	tsteq	r1, r0, lsl r0
     678:	00000099 	muleq	r0, r9, r0
     67c:	00770002 	rsbseq	r0, r7, r2
     680:	01020000 	mrseq	r0, (UNDEF: 2)
     684:	000d0efb 	strdeq	r0, [sp], -fp
     688:	01010101 	tsteq	r1, r1, lsl #2
     68c:	01000000 	mrseq	r0, (UNDEF: 0)
     690:	63010000 	movwvs	r0, #4096	; 0x1000
     694:	30343173 	eorscc	r3, r4, r3, ror r1
     698:	72732d65 	rsbsvc	r2, r3, #6464	; 0x1940
     69c:	552f0063 	strpl	r0, [pc, #-99]!	; 641 <_start-0x79bf>
     6a0:	73726573 	cmnvc	r2, #482344960	; 0x1cc00000
     6a4:	6972622f 	ldmdbvs	r2!, {r0, r1, r2, r3, r5, r9, sp, lr}^
     6a8:	756a6e61 	strbvc	r6, [sl, #-3681]!	; 0xe61
     6ac:	65442f6e 	strbvs	r2, [r4, #-3950]	; 0xf6e
     6b0:	6f746b73 	svcvs	0x00746b73
     6b4:	63732f70 	cmnvs	r3, #112, 30	; 0x1c0
     6b8:	6c6f6f68 	stclvs	15, cr6, [pc], #-416	; 520 <_start-0x7ae0>
     6bc:	6e69572f 	cdpvs	7, 6, cr5, cr9, cr15, {1}
     6c0:	31726574 	cmncc	r2, r4, ror r5
     6c4:	2f303239 	svccs	0x00303239
     6c8:	34315343 	ldrtcc	r5, [r1], #-835	; 0x343
     6cc:	632f4530 	teqvs	pc, #48, 10	; 0xc000000
     6d0:	30343173 	eorscc	r3, r4, r3, ror r1
     6d4:	30322d65 	eorscc	r2, r2, r5, ror #26
     6d8:	2f6e6977 	svccs	0x006e6977
     6dc:	7062696c 	rsbvc	r6, r2, ip, ror #18
     6e0:	72000069 	andvc	r0, r0, #105	; 0x69
     6e4:	6f6f6265 	svcvs	0x006f6265
     6e8:	00632e74 	rsbeq	r2, r3, r4, ror lr
     6ec:	72000001 	andvc	r0, r0, #1
     6f0:	682e6970 	stmdavs	lr!, {r4, r5, r6, r8, fp, sp, lr}
     6f4:	00000200 	andeq	r0, r0, r0, lsl #4
     6f8:	02050000 	andeq	r0, r5, #0
     6fc:	00008798 	muleq	r0, r8, r7
     700:	14010d03 	strne	r0, [r1], #-3331	; 0xd03
     704:	15852f31 	strne	r2, [r5, #3889]	; 0xf31
     708:	2f4d4b2f 	svccs	0x004d4b2f
     70c:	67523567 	ldrbvs	r3, [r2, -r7, ror #10]
     710:	01001002 	tsteq	r0, r2
     714:	0000a301 	andeq	sl, r0, r1, lsl #6
     718:	76000200 	strvc	r0, [r0], -r0, lsl #4
     71c:	02000000 	andeq	r0, r0, #0
     720:	0d0efb01 	vstreq	d15, [lr, #-4]
     724:	01010100 	mrseq	r0, (UNDEF: 17)
     728:	00000001 	andeq	r0, r0, r1
     72c:	01000001 	tsteq	r0, r1
     730:	34317363 	ldrtcc	r7, [r1], #-867	; 0x363
     734:	732d6530 	teqvc	sp, #48, 10	; 0xc000000
     738:	2f006372 	svccs	0x00006372
     73c:	72657355 	rsbvc	r7, r5, #1409286145	; 0x54000001
     740:	72622f73 	rsbvc	r2, r2, #460	; 0x1cc
     744:	6a6e6169 	bvs	1b98cf0 <__bss_end__+0x1b8ee80>
     748:	442f6e75 	strtmi	r6, [pc], #-3701	; 750 <_start-0x78b0>
     74c:	746b7365 	strbtvc	r7, [fp], #-869	; 0x365
     750:	732f706f 	teqvc	pc, #111	; 0x6f
     754:	6f6f6863 	svcvs	0x006f6863
     758:	69572f6c 	ldmdbvs	r7, {r2, r3, r5, r6, r8, r9, sl, fp, sp}^
     75c:	7265746e 	rsbvc	r7, r5, #1845493760	; 0x6e000000
     760:	30323931 	eorscc	r3, r2, r1, lsr r9
     764:	3153432f 	cmpcc	r3, pc, lsr #6
     768:	2f453034 	svccs	0x00453034
     76c:	34317363 	ldrtcc	r7, [r1], #-867	; 0x363
     770:	322d6530 	eorcc	r6, sp, #48, 10	; 0xc000000
     774:	6e697730 	mcrvs	7, 3, r7, cr9, cr0, {1}
     778:	62696c2f 	rsbvs	r6, r9, #12032	; 0x2f00
     77c:	00006970 	andeq	r6, r0, r0, ror r9
     780:	656d6974 	strbvs	r6, [sp, #-2420]!	; 0x974
     784:	00632e72 	rsbeq	r2, r3, r2, ror lr
     788:	72000001 	andvc	r0, r0, #1
     78c:	682e6970 	stmdavs	lr!, {r4, r5, r6, r8, fp, sp, lr}
     790:	00000200 	andeq	r0, r0, r0, lsl #4
     794:	02050000 	andeq	r0, r5, #0
     798:	0000880c 	andeq	r8, r0, ip, lsl #16
     79c:	2d2f1316 	stccs	3, cr1, [pc, #-88]!	; 74c <_start-0x78b4>
     7a0:	01040200 	mrseq	r0, R12_usr
     7a4:	68062e06 	stmdavs	r6, {r1, r2, r9, sl, fp, sp}
     7a8:	4d4b2f31 	stclmi	15, cr2, [fp, #-196]	; 0xffffff3c
     7ac:	4b303132 	blmi	c0cc7c <__bss_end__+0xc02e0c>
     7b0:	2f6a2f4c 	svccs	0x006a2f4c
     7b4:	022f842f 	eoreq	r8, pc, #788529152	; 0x2f000000
     7b8:	01010008 	tsteq	r1, r8
     7bc:	00000349 	andeq	r0, r0, r9, asr #6
     7c0:	01bd0002 			; <UNDEFINED> instruction: 0x01bd0002
     7c4:	01020000 	mrseq	r0, (UNDEF: 2)
     7c8:	000d0efb 	strdeq	r0, [sp], -fp
     7cc:	01010101 	tsteq	r1, r1, lsl #2
     7d0:	01000000 	mrseq	r0, (UNDEF: 0)
     7d4:	6d010000 	stcvs	0, cr0, [r1, #-0]
     7d8:	72732d79 	rsbsvc	r2, r3, #7744	; 0x1e40
     7dc:	552f0063 	strpl	r0, [pc, #-99]!	; 781 <_start-0x787f>
     7e0:	73726573 	cmnvc	r2, #482344960	; 0x1cc00000
     7e4:	6972622f 	ldmdbvs	r2!, {r0, r1, r2, r3, r5, r9, sp, lr}^
     7e8:	756a6e61 	strbvc	r6, [sl, #-3681]!	; 0xe61
     7ec:	65442f6e 	strbvs	r2, [r4, #-3950]	; 0xf6e
     7f0:	6f746b73 	svcvs	0x00746b73
     7f4:	63732f70 	cmnvs	r3, #112, 30	; 0x1c0
     7f8:	6c6f6f68 	stclvs	15, cr6, [pc], #-416	; 660 <_start-0x79a0>
     7fc:	6e69572f 	cdpvs	7, 6, cr5, cr9, cr15, {1}
     800:	31726574 	cmncc	r2, r4, ror r5
     804:	2f303239 	svccs	0x00303239
     808:	34315343 	ldrtcc	r5, [r1], #-835	; 0x343
     80c:	632f4530 	teqvs	pc, #48, 10	; 0xc000000
     810:	30343173 	eorscc	r3, r4, r3, ror r1
     814:	30322d65 	eorscc	r2, r2, r5, ror #26
     818:	2f6e6977 	svccs	0x006e6977
     81c:	7062696c 	rsbvc	r6, r2, ip, ror #18
     820:	73632f69 	cmnvc	r3, #420	; 0x1a4
     824:	65303431 	ldrvs	r3, [r0, #-1073]!	; 0x431
     828:	6372732d 	cmnvs	r2, #-1275068416	; 0xb4000000
     82c:	73752f00 	cmnvc	r5, #0, 30
     830:	6f6c2f72 	svcvs	0x006c2f72
     834:	2f6c6163 	svccs	0x006c6163
     838:	6c6c6543 	cfstr64vs	mvdx6, [ip], #-268	; 0xfffffef4
     83c:	612f7261 	teqvs	pc, r1, ror #4
     840:	6e2d6d72 	mcrvs	13, 1, r6, cr13, cr2, {3}
     844:	2d656e6f 	stclcs	14, cr6, [r5, #-444]!	; 0xfffffe44
     848:	69626165 	stmdbvs	r2!, {r0, r2, r5, r6, r8, sp, lr}^
     84c:	382e342f 	stmdacc	lr!, {r0, r1, r2, r3, r5, sl, ip, sp}
     850:	632d332e 	teqvs	sp, #-1207959552	; 0xb8000000
     854:	30373173 	eorscc	r3, r7, r3, ror r1
     858:	696c2f65 	stmdbvs	ip!, {r0, r2, r5, r6, r8, r9, sl, fp, sp}^
     85c:	63672f62 	cmnvs	r7, #392	; 0x188
     860:	72612f63 	rsbvc	r2, r1, #396	; 0x18c
     864:	6f6e2d6d 	svcvs	0x006e2d6d
     868:	652d656e 	strvs	r6, [sp, #-1390]!	; 0x56e
     86c:	2f696261 	svccs	0x00696261
     870:	2e382e34 	mrccs	14, 1, r2, cr8, cr4, {1}
     874:	6e692f33 	mcrvs	15, 3, r2, cr9, cr3, {1}
     878:	64756c63 	ldrbtvs	r6, [r5], #-3171	; 0xc63
     87c:	552f0065 	strpl	r0, [pc, #-101]!	; 81f <_start-0x77e1>
     880:	73726573 	cmnvc	r2, #482344960	; 0x1cc00000
     884:	6972622f 	ldmdbvs	r2!, {r0, r1, r2, r3, r5, r9, sp, lr}^
     888:	756a6e61 	strbvc	r6, [sl, #-3681]!	; 0xe61
     88c:	65442f6e 	strbvs	r2, [r4, #-3950]	; 0xf6e
     890:	6f746b73 	svcvs	0x00746b73
     894:	63732f70 	cmnvs	r3, #112, 30	; 0x1c0
     898:	6c6f6f68 	stclvs	15, cr6, [pc], #-416	; 700 <_start-0x7900>
     89c:	6e69572f 	cdpvs	7, 6, cr5, cr9, cr15, {1}
     8a0:	31726574 	cmncc	r2, r4, ror r5
     8a4:	2f303239 	svccs	0x00303239
     8a8:	34315343 	ldrtcc	r5, [r1], #-835	; 0x343
     8ac:	632f4530 	teqvs	pc, #48, 10	; 0xc000000
     8b0:	30343173 	eorscc	r3, r4, r3, ror r1
     8b4:	30322d65 	eorscc	r2, r2, r5, ror #26
     8b8:	2f6e6977 	svccs	0x006e6977
     8bc:	7062696c 	rsbvc	r6, r2, ip, ror #18
     8c0:	552f0069 	strpl	r0, [pc, #-105]!	; 85f <_start-0x77a1>
     8c4:	73726573 	cmnvc	r2, #482344960	; 0x1cc00000
     8c8:	6972622f 	ldmdbvs	r2!, {r0, r1, r2, r3, r5, r9, sp, lr}^
     8cc:	756a6e61 	strbvc	r6, [sl, #-3681]!	; 0xe61
     8d0:	65442f6e 	strbvs	r2, [r4, #-3950]	; 0xf6e
     8d4:	6f746b73 	svcvs	0x00746b73
     8d8:	63732f70 	cmnvs	r3, #112, 30	; 0x1c0
     8dc:	6c6f6f68 	stclvs	15, cr6, [pc], #-416	; 744 <_start-0x78bc>
     8e0:	6e69572f 	cdpvs	7, 6, cr5, cr9, cr15, {1}
     8e4:	31726574 	cmncc	r2, r4, ror r5
     8e8:	2f303239 	svccs	0x00303239
     8ec:	34315343 	ldrtcc	r5, [r1], #-835	; 0x343
     8f0:	632f4530 	teqvs	pc, #48, 10	; 0xc000000
     8f4:	30343173 	eorscc	r3, r4, r3, ror r1
     8f8:	30322d65 	eorscc	r2, r2, r5, ror #26
     8fc:	2f6e6977 	svccs	0x006e6977
     900:	7062696c 	rsbvc	r6, r2, ip, ror #18
     904:	696c2f69 	stmdbvs	ip!, {r0, r3, r5, r6, r8, r9, sl, fp, sp}^
     908:	00006362 	andeq	r6, r0, r2, ror #6
     90c:	752d7773 	strvc	r7, [sp, #-1907]!	; 0x773
     910:	2e747261 	cdpcs	2, 7, cr7, cr4, cr1, {3}
     914:	00010063 	andeq	r0, r1, r3, rrx
     918:	63796300 	cmnvs	r9, #0, 6
     91c:	752d656c 	strvc	r6, [sp, #-1388]!	; 0x56c
     920:	2e6c6974 	mcrcs	9, 3, r6, cr12, cr4, {3}
     924:	00020068 	andeq	r0, r2, r8, rrx
     928:	64747300 	ldrbtvs	r7, [r4], #-768	; 0x300
     92c:	2d746e69 	ldclcs	14, cr6, [r4, #-420]!	; 0xfffffe5c
     930:	2e636367 	cdpcs	3, 6, cr6, cr3, cr7, {3}
     934:	00030068 	andeq	r0, r3, r8, rrx
     938:	2d777300 	ldclcs	3, cr7, [r7, #-0]
     93c:	74726175 	ldrbtvc	r6, [r2], #-373	; 0x175
     940:	0200682e 	andeq	r6, r0, #3014656	; 0x2e0000
     944:	74730000 	ldrbtvc	r0, [r3], #-0
     948:	67726164 	ldrbvs	r6, [r2, -r4, ror #2]!
     94c:	0300682e 	movweq	r6, #2094	; 0x82e
     950:	70670000 	rsbvc	r0, r7, r0
     954:	682e6f69 	stmdavs	lr!, {r0, r3, r5, r6, r8, r9, sl, fp, sp, lr}
     958:	00000200 	andeq	r0, r0, r0, lsl #4
     95c:	2e697072 	mcrcs	0, 3, r7, cr9, cr2, {3}
     960:	00040068 	andeq	r0, r4, r8, rrx
     964:	2d617600 	stclcs	6, cr7, [r1, #-0]
     968:	6e697270 	mcrvs	2, 3, r7, cr9, cr0, {3}
     96c:	682e6b74 	stmdavs	lr!, {r2, r4, r5, r6, r8, r9, fp, sp, lr}
     970:	00000500 	andeq	r0, r0, r0, lsl #10
     974:	6975623c 	ldmdbvs	r5!, {r2, r3, r4, r5, r9, sp, lr}^
     978:	692d746c 	pushvs	{r2, r3, r5, r6, sl, ip, sp, lr}
     97c:	00003e6e 	andeq	r3, r0, lr, ror #28
     980:	00000000 	andeq	r0, r0, r0
     984:	88940205 	ldmhi	r4, {r0, r2, r9}
     988:	4c1a0000 	ldcmi	0, cr0, [sl], {-0}
     98c:	0204302f 	andeq	r3, r4, #47	; 0x2f
     990:	032e0b03 	teqeq	lr, #3072	; 0xc00
     994:	01046673 	tsteq	r4, r3, ror r6
     998:	35020488 	strcc	r0, [r2, #-1160]	; 0x488
     99c:	04667303 	strbteq	r7, [r6], #-771	; 0x303
     9a0:	02048a01 	andeq	r8, r4, #4096	; 0x1000
     9a4:	66730333 			; <UNDEFINED> instruction: 0x66730333
     9a8:	0a030104 	beq	c0dc0 <__bss_end__+0xb6f50>
     9ac:	31020482 	smlabbcc	r2, r2, r4, r0
     9b0:	04667303 	strbteq	r7, [r6], #-771	; 0x303
     9b4:	820c0301 	andhi	r0, ip, #67108864	; 0x4000000
     9b8:	032f0204 	teqeq	pc, #4, 4	; 0x40000000
     9bc:	01046673 	tsteq	r4, r3, ror r6
     9c0:	04820e03 	streq	r0, [r2], #3587	; 0xe03
     9c4:	73032d02 	movwvc	r2, #15618	; 0x3d02
     9c8:	03010466 	movweq	r0, #5222	; 0x1466
     9cc:	02048210 	andeq	r8, r4, #16, 4
     9d0:	6673032b 	ldrbtvs	r0, [r3], -fp, lsr #6
     9d4:	12030104 	andne	r0, r3, #4, 2
     9d8:	29020482 	stmdbcs	r2, {r1, r7, sl}
     9dc:	04667303 	strbteq	r7, [r6], #-771	; 0x303
     9e0:	82140301 	andshi	r0, r4, #67108864	; 0x4000000
     9e4:	79030204 	stmdbvc	r3, {r2, r9}
     9e8:	6673032e 	ldrbtvs	r0, [r3], -lr, lsr #6
     9ec:	16030104 	strne	r0, [r3], -r4, lsl #2
     9f0:	03020482 	movweq	r0, #9346	; 0x2482
     9f4:	73032e77 	movwvc	r2, #15991	; 0x3e77
     9f8:	03010466 	movweq	r0, #5222	; 0x1466
     9fc:	10038218 	andne	r8, r3, r8, lsl r2
     a00:	034d4b2e 	movteq	r4, #56110	; 0xdb2e
     a04:	844c2e70 	strbhi	r2, [ip], #-3696	; 0xe70
     a08:	0d034883 	stceq	8, cr4, [r3, #-524]	; 0xfffffdf4
     a0c:	33314e2e 	teqcc	r1, #736	; 0x2e0
     a10:	48030204 	stmdami	r3, {r2, r9}
     a14:	0301042e 	movweq	r0, #5166	; 0x142e
     a18:	042f823a 	strteq	r8, [pc], #-570	; a20 <_start-0x75e0>
     a1c:	66450302 	strbvs	r0, [r5], -r2, lsl #6
     a20:	3d030104 	stfccs	f0, [r3, #-16]
     a24:	02042f82 	andeq	r2, r4, #520	; 0x208
     a28:	04824203 	streq	r4, [r2], #515	; 0x203
     a2c:	00c00301 	sbceq	r0, r0, r1, lsl #6
     a30:	02042f82 	andeq	r2, r4, #520	; 0x208
     a34:	827fbf03 	rsbshi	fp, pc, #3, 30
     a38:	c3030104 	movwgt	r0, #12548	; 0x3104
     a3c:	042f8200 	strteq	r8, [pc], #-512	; a44 <_start-0x75bc>
     a40:	7fbc0302 	svcvc	0x00bc0302
     a44:	03010482 	movweq	r0, #5250	; 0x1482
     a48:	2f8200c6 	svccs	0x008200c6
     a4c:	b9030204 	stmdblt	r3, {r2, r9}
     a50:	0104827f 	tsteq	r4, pc, ror r2
     a54:	8200c903 	andhi	ip, r0, #49152	; 0xc000
     a58:	0302042f 	movweq	r0, #9263	; 0x242f
     a5c:	04827fb6 	streq	r7, [r2], #4022	; 0xfb6
     a60:	00cc0301 	sbceq	r0, ip, r1, lsl #6
     a64:	02042f82 	andeq	r2, r4, #520	; 0x208
     a68:	827fb303 	rsbshi	fp, pc, #201326592	; 0xc000000
     a6c:	d0030104 	andle	r0, r3, r4, lsl #2
     a70:	4c038200 	sfmmi	f0, 1, [r3], {-0}
     a74:	83844c82 	orrhi	r4, r4, #33280	; 0x8200
     a78:	2e360348 	cdpcs	3, 3, cr0, cr6, cr8, {2}
     a7c:	4a54034e 	bmi	15017bc <__bss_end__+0x14f794c>
     a80:	324a2903 	subcc	r2, sl, #49152	; 0xc000
     a84:	0200bb34 	andeq	fp, r0, #52, 22	; 0xd000
     a88:	4a060104 	bmi	180ea0 <__bss_end__+0x177030>
     a8c:	4e210806 	cdpmi	8, 2, cr0, cr1, cr6, {0}
     a90:	002cbb4b 	eoreq	fp, ip, fp, asr #22
     a94:	06010402 	streq	r0, [r1], -r2, lsl #8
     a98:	4c6d062e 	stclmi	6, cr0, [sp], #-184	; 0xffffff48
     a9c:	0200a0dc 	andeq	sl, r0, #220	; 0xdc
     aa0:	4a060104 	bmi	180eb8 <__bss_end__+0x177048>
     aa4:	4d210806 	stcmi	8, cr0, [r1, #-24]!	; 0xffffffe8
     aa8:	02040200 	andeq	r0, r4, #0, 4
     aac:	0402004b 	streq	r0, [r2], #-75	; 0x4b
     ab0:	02008102 	andeq	r8, r0, #-2147483648	; 0x80000000
     ab4:	2e060104 	adfcss	f0, f6, f4
     ab8:	dd4c4d06 	stclle	13, cr4, [ip, #-24]	; 0xffffffe8
     abc:	4b4b4bd8 	blmi	12d3a24 <__bss_end__+0x12c9bb4>
     ac0:	02002f6a 	andeq	r2, r0, #424	; 0x1a8
     ac4:	82060104 	andhi	r0, r6, #4, 2
     ac8:	04020082 	streq	r0, [r2], #-130	; 0x82
     acc:	02009e04 	andeq	r9, r0, #4, 28	; 0x40
     ad0:	064a0104 	strbeq	r0, [sl], -r4, lsl #2
     ad4:	f5882308 			; <UNDEFINED> instruction: 0xf5882308
     ad8:	084b4b2f 	stmdaeq	fp, {r0, r1, r2, r3, r5, r8, r9, fp, lr}^
     adc:	02006740 	andeq	r6, r0, #64, 14	; 0x1000000
     ae0:	002f0204 	eoreq	r0, pc, r4, lsl #4
     ae4:	49020402 	stmdbmi	r2, {r1, sl}
     ae8:	01040200 	mrseq	r0, R12_usr
     aec:	68062e06 	stmdavs	r6, {r1, r2, r9, sl, fp, sp}
     af0:	a04b8634 	subge	r8, fp, r4, lsr r6
     af4:	01040200 	mrseq	r0, R12_usr
     af8:	08066606 	stmdaeq	r6, {r1, r2, r9, sl, sp, lr}
     afc:	3e086821 	cdpcc	8, 0, cr6, cr8, cr1, {1}
     b00:	d84b674b 	stmdale	fp, {r0, r1, r3, r6, r8, r9, sl, sp, lr}^
     b04:	01000a02 	tsteq	r0, r2, lsl #20
     b08:	00017801 	andeq	r7, r1, r1, lsl #16
     b0c:	ca000200 	bgt	1314 <_start-0x6cec>
     b10:	02000000 	andeq	r0, r0, #0
     b14:	0d0efb01 	vstreq	d15, [lr, #-4]
     b18:	01010100 	mrseq	r0, (UNDEF: 17)
     b1c:	00000001 	andeq	r0, r0, r1
     b20:	01000001 	tsteq	r0, r1
     b24:	732d796d 	teqvc	sp, #1785856	; 0x1b4000
     b28:	2f006372 	svccs	0x00006372
     b2c:	72657355 	rsbvc	r7, r5, #1409286145	; 0x54000001
     b30:	72622f73 	rsbvc	r2, r2, #460	; 0x1cc
     b34:	6a6e6169 	bvs	1b990e0 <__bss_end__+0x1b8f270>
     b38:	442f6e75 	strtmi	r6, [pc], #-3701	; b40 <_start-0x74c0>
     b3c:	746b7365 	strbtvc	r7, [fp], #-869	; 0x365
     b40:	732f706f 	teqvc	pc, #111	; 0x6f
     b44:	6f6f6863 	svcvs	0x006f6863
     b48:	69572f6c 	ldmdbvs	r7, {r2, r3, r5, r6, r8, r9, sl, fp, sp}^
     b4c:	7265746e 	rsbvc	r7, r5, #1845493760	; 0x6e000000
     b50:	30323931 	eorscc	r3, r2, r1, lsr r9
     b54:	3153432f 	cmpcc	r3, pc, lsr #6
     b58:	2f453034 	svccs	0x00453034
     b5c:	34317363 	ldrtcc	r7, [r1], #-867	; 0x363
     b60:	322d6530 	eorcc	r6, sp, #48, 10	; 0xc000000
     b64:	6e697730 	mcrvs	7, 3, r7, cr9, cr0, {1}
     b68:	62696c2f 	rsbvs	r6, r9, #12032	; 0x2f00
     b6c:	632f6970 	teqvs	pc, #112, 18	; 0x1c0000
     b70:	30343173 	eorscc	r3, r4, r3, ror r1
     b74:	72732d65 	rsbsvc	r2, r3, #6464	; 0x1940
     b78:	552f0063 	strpl	r0, [pc, #-99]!	; b1d <_start-0x74e3>
     b7c:	73726573 	cmnvc	r2, #482344960	; 0x1cc00000
     b80:	6972622f 	ldmdbvs	r2!, {r0, r1, r2, r3, r5, r9, sp, lr}^
     b84:	756a6e61 	strbvc	r6, [sl, #-3681]!	; 0xe61
     b88:	65442f6e 	strbvs	r2, [r4, #-3950]	; 0xf6e
     b8c:	6f746b73 	svcvs	0x00746b73
     b90:	63732f70 	cmnvs	r3, #112, 30	; 0x1c0
     b94:	6c6f6f68 	stclvs	15, cr6, [pc], #-416	; 9fc <_start-0x7604>
     b98:	6e69572f 	cdpvs	7, 6, cr5, cr9, cr15, {1}
     b9c:	31726574 	cmncc	r2, r4, ror r5
     ba0:	2f303239 	svccs	0x00303239
     ba4:	34315343 	ldrtcc	r5, [r1], #-835	; 0x343
     ba8:	632f4530 	teqvs	pc, #48, 10	; 0xc000000
     bac:	30343173 	eorscc	r3, r4, r3, ror r1
     bb0:	30322d65 	eorscc	r2, r2, r5, ror #26
     bb4:	2f6e6977 	svccs	0x006e6977
     bb8:	7062696c 	rsbvc	r6, r2, ip, ror #18
     bbc:	67000069 	strvs	r0, [r0, -r9, rrx]
     bc0:	2e6f6970 	mcrcs	9, 3, r6, cr15, cr0, {3}
     bc4:	00010063 	andeq	r0, r1, r3, rrx
     bc8:	69706700 	ldmdbvs	r0!, {r8, r9, sl, sp, lr}^
     bcc:	00682e6f 	rsbeq	r2, r8, pc, ror #28
     bd0:	72000002 	andvc	r0, r0, #2
     bd4:	682e6970 	stmdavs	lr!, {r4, r5, r6, r8, fp, sp, lr}
     bd8:	00000300 	andeq	r0, r0, r0, lsl #6
     bdc:	02050000 	andeq	r0, r5, #0
     be0:	00008f48 	andeq	r8, r0, r8, asr #30
     be4:	4e013e03 	cdpmi	14, 0, cr3, cr1, cr3, {0}
     be8:	21086950 	tstcs	r8, r0, asr r9
     bec:	67676767 	strbvs	r6, [r7, -r7, ror #14]!
     bf0:	4b326767 	blmi	c9a994 <__bss_end__+0xc90b24>
     bf4:	31dc2208 	bicscc	r2, ip, r8, lsl #4
     bf8:	504e1351 	subpl	r1, lr, r1, asr r3
     bfc:	5031be30 	eorspl	fp, r1, r0, lsr lr
     c00:	304f4d13 	subcc	r4, pc, r3, lsl sp	; <UNPREDICTABLE>
     c04:	69504cc0 	ldmdbvs	r0, {r6, r7, sl, fp, lr}^
     c08:	67672108 	strbvs	r2, [r7, -r8, lsl #2]!
     c0c:	67676767 	strbvs	r6, [r7, -r7, ror #14]!
     c10:	21084b32 	tstcs	r8, r2, lsr fp
     c14:	2f504ca4 	svccs	0x00504ca4
     c18:	75036984 	strvc	r6, [r3, #-2436]	; 0x984
     c1c:	2e0c0382 	cdpcs	3, 0, cr0, cr12, cr2, {4}
     c20:	4b4e304d 	blmi	138cd5c <__bss_end__+0x1382eec>
     c24:	6b6a4d4c 	blvs	1a9415c <__bss_end__+0x1a8a2ec>
     c28:	67210869 	strvs	r0, [r1, -r9, ror #16]!
     c2c:	67676767 	strbvs	r6, [r7, -r7, ror #14]!
     c30:	084b3267 	stmdaeq	fp, {r0, r1, r2, r5, r6, r9, ip, sp}^
     c34:	ba1a0322 	blt	6818c4 <__bss_end__+0x677a54>
     c38:	2f4c9f31 	svccs	0x004c9f31
     c3c:	2f4e4d52 	svccs	0x004e4d52
     c40:	684b674b 	stmdavs	fp, {r0, r1, r3, r6, r8, r9, sl, sp, lr}^
     c44:	2f4c6767 	svccs	0x004c6767
     c48:	6e4b2f67 	cdpvs	15, 4, cr2, cr11, cr7, {3}
     c4c:	4b2f4e4c 	blmi	bd4584 <__bss_end__+0xbca714>
     c50:	67684b67 	strbvs	r4, [r8, -r7, ror #22]!
     c54:	672f4c67 	strvs	r4, [pc, -r7, ror #24]!
     c58:	4b6d4b2f 	blmi	1b5391c <__bss_end__+0x1b49aac>
     c5c:	674b2f4e 	strbvs	r2, [fp, -lr, asr #30]
     c60:	01040200 	mrseq	r0, R12_usr
     c64:	68066606 	stmdavs	r6, {r1, r2, r9, sl, sp, lr}
     c68:	02002f9f 	andeq	r2, r0, #636	; 0x27c
     c6c:	4a060104 	bmi	181084 <__bss_end__+0x177214>
     c70:	032f6806 	teqeq	pc, #393216	; 0x60000
     c74:	0e034a73 	mcreq	10, 0, r4, cr3, cr3, {3}
     c78:	4e4c4d2e 	cdpmi	13, 4, cr4, cr12, cr14, {1}
     c7c:	bcbc4b2f 	fldmiaxlt	ip!, {d4-d26}	;@ Deprecated
     c80:	01000602 	tsteq	r0, r2, lsl #12
     c84:	00008a01 	andeq	r8, r0, r1, lsl #20
     c88:	72000200 	andvc	r0, r0, #0, 4
     c8c:	02000000 	andeq	r0, r0, #0
     c90:	0d0efb01 	vstreq	d15, [lr, #-4]
     c94:	01010100 	mrseq	r0, (UNDEF: 17)
     c98:	00000001 	andeq	r0, r0, r1
     c9c:	01000001 	tsteq	r0, r1
     ca0:	6362696c 	cmnvs	r2, #108, 18	; 0x1b0000
     ca4:	73552f00 	cmpvc	r5, #0, 30
     ca8:	2f737265 	svccs	0x00737265
     cac:	61697262 	cmnvs	r9, r2, ror #4
     cb0:	6e756a6e 	vsubvs.f32	s13, s10, s29
     cb4:	7365442f 	cmnvc	r5, #788529152	; 0x2f000000
     cb8:	706f746b 	rsbvc	r7, pc, fp, ror #8
     cbc:	6863732f 	stmdavs	r3!, {r0, r1, r2, r3, r5, r8, r9, ip, sp, lr}^
     cc0:	2f6c6f6f 	svccs	0x006c6f6f
     cc4:	746e6957 	strbtvc	r6, [lr], #-2391	; 0x957
     cc8:	39317265 	ldmdbcc	r1!, {r0, r2, r5, r6, r9, ip, sp, lr}
     ccc:	432f3032 	teqmi	pc, #50	; 0x32
     cd0:	30343153 	eorscc	r3, r4, r3, asr r1
     cd4:	73632f45 	cmnvc	r3, #276	; 0x114
     cd8:	65303431 	ldrvs	r3, [r0, #-1073]!	; 0x431
     cdc:	7730322d 	ldrvc	r3, [r0, -sp, lsr #4]!
     ce0:	6c2f6e69 	stcvs	14, cr6, [pc], #-420	; b44 <_start-0x74bc>
     ce4:	69706269 	ldmdbvs	r0!, {r0, r3, r5, r6, r9, sp, lr}^
     ce8:	75700000 	ldrbvc	r0, [r0, #-0]!
     cec:	61686374 	smcvs	34356	; 0x8634
     cf0:	00632e72 	rsbeq	r2, r3, r2, ror lr
     cf4:	72000001 	andvc	r0, r0, #1
     cf8:	682e6970 	stmdavs	lr!, {r4, r5, r6, r8, fp, sp, lr}
     cfc:	00000200 	andeq	r0, r0, r0, lsl #4
     d00:	02050000 	andeq	r0, r5, #0
     d04:	000094b0 			; <UNDEFINED> instruction: 0x000094b0
     d08:	136b4a14 	cmnne	fp, #20, 20	; 0x14000
     d0c:	080213bc 	stmdaeq	r2, {r2, r3, r4, r5, r7, r8, r9, ip}
     d10:	28010100 	stmdacs	r1, {r8}
     d14:	02000001 	andeq	r0, r0, #1
     d18:	00010d00 	andeq	r0, r1, r0, lsl #26
     d1c:	fb010200 	blx	41526 <__bss_end__+0x376b6>
     d20:	01000d0e 	tsteq	r0, lr, lsl #26
     d24:	00010101 	andeq	r0, r1, r1, lsl #2
     d28:	00010000 	andeq	r0, r1, r0
     d2c:	73630100 	cmnvc	r3, #0, 2
     d30:	65303431 	ldrvs	r3, [r0, #-1073]!	; 0x431
     d34:	6372732d 	cmnvs	r2, #-1275068416	; 0xb4000000
     d38:	73752f00 	cmnvc	r5, #0, 30
     d3c:	6f6c2f72 	svcvs	0x006c2f72
     d40:	2f6c6163 	svccs	0x006c6163
     d44:	6c6c6543 	cfstr64vs	mvdx6, [ip], #-268	; 0xfffffef4
     d48:	612f7261 	teqvs	pc, r1, ror #4
     d4c:	6e2d6d72 	mcrvs	13, 1, r6, cr13, cr2, {3}
     d50:	2d656e6f 	stclcs	14, cr6, [r5, #-444]!	; 0xfffffe44
     d54:	69626165 	stmdbvs	r2!, {r0, r2, r5, r6, r8, sp, lr}^
     d58:	382e342f 	stmdacc	lr!, {r0, r1, r2, r3, r5, sl, ip, sp}
     d5c:	632d332e 	teqvs	sp, #-1207959552	; 0xb8000000
     d60:	30373173 	eorscc	r3, r7, r3, ror r1
     d64:	696c2f65 	stmdbvs	ip!, {r0, r2, r5, r6, r8, r9, sl, fp, sp}^
     d68:	63672f62 	cmnvs	r7, #392	; 0x188
     d6c:	72612f63 	rsbvc	r2, r1, #396	; 0x18c
     d70:	6f6e2d6d 	svcvs	0x006e2d6d
     d74:	652d656e 	strvs	r6, [sp, #-1390]!	; 0x56e
     d78:	2f696261 	svccs	0x00696261
     d7c:	2e382e34 	mrccs	14, 1, r2, cr8, cr4, {1}
     d80:	6e692f33 	mcrvs	15, 3, r2, cr9, cr3, {1}
     d84:	64756c63 	ldrbtvs	r6, [r5], #-3171	; 0xc63
     d88:	752f0065 	strvc	r0, [pc, #-101]!	; d2b <_start-0x72d5>
     d8c:	6c2f7273 	sfmvs	f7, 4, [pc], #-460	; bc8 <_start-0x7438>
     d90:	6c61636f 	stclvs	3, cr6, [r1], #-444	; 0xfffffe44
     d94:	6c65432f 	stclvs	3, cr4, [r5], #-188	; 0xffffff44
     d98:	2f72616c 	svccs	0x0072616c
     d9c:	2d6d7261 	sfmcs	f7, 2, [sp, #-388]!	; 0xfffffe7c
     da0:	656e6f6e 	strbvs	r6, [lr, #-3950]!	; 0xf6e
     da4:	6261652d 	rsbvs	r6, r1, #188743680	; 0xb400000
     da8:	2e342f69 	cdpcs	15, 3, cr2, cr4, cr9, {3}
     dac:	2d332e38 	ldccs	14, cr2, [r3, #-224]!	; 0xffffff20
     db0:	37317363 	ldrcc	r7, [r1, -r3, ror #6]!
     db4:	612f6530 	teqvs	pc, r0, lsr r5	; <UNPREDICTABLE>
     db8:	6e2d6d72 	mcrvs	13, 1, r6, cr13, cr2, {3}
     dbc:	2d656e6f 	stclcs	14, cr6, [r5, #-444]!	; 0xfffffe44
     dc0:	69626165 	stmdbvs	r2!, {r0, r2, r5, r6, r8, sp, lr}^
     dc4:	636e692f 	cmnvs	lr, #770048	; 0xbc000
     dc8:	6564756c 	strbvs	r7, [r4, #-1388]!	; 0x56c
     dcc:	6f630000 	svcvs	0x00630000
     dd0:	6f72746e 	svcvs	0x0072746e
     dd4:	6c622d6c 	stclvs	13, cr2, [r2], #-432	; 0xfffffe50
     dd8:	2e6b636f 	cdpcs	3, 6, cr6, cr11, cr15, {3}
     ddc:	00010063 	andeq	r0, r1, r3, rrx
     de0:	64747300 	ldrbtvs	r7, [r4], #-768	; 0x300
     de4:	2e666564 	cdpcs	5, 6, cr6, cr6, cr4, {3}
     de8:	00020068 	andeq	r0, r2, r8, rrx
     dec:	64747300 	ldrbtvs	r7, [r4], #-768	; 0x300
     df0:	2d746e69 	ldclcs	14, cr6, [r4, #-420]!	; 0xfffffe5c
     df4:	2e636367 	cdpcs	3, 6, cr6, cr3, cr7, {3}
     df8:	00020068 	andeq	r0, r2, r8, rrx
     dfc:	2d777300 	ldclcs	3, cr7, [r7, #-0]
     e00:	74726175 	ldrbtvc	r6, [r2], #-373	; 0x175
     e04:	0100682e 	tsteq	r0, lr, lsr #16
     e08:	6f630000 	svcvs	0x00630000
     e0c:	6f72746e 	svcvs	0x0072746e
     e10:	6c622d6c 	stclvs	13, cr2, [r2], #-432	; 0xfffffe50
     e14:	2e6b636f 	cdpcs	3, 6, cr6, cr11, cr15, {3}
     e18:	00010068 	andeq	r0, r1, r8, rrx
     e1c:	72747300 	rsbsvc	r7, r4, #0, 6
     e20:	2e676e69 	cdpcs	14, 6, cr6, cr7, cr9, {3}
     e24:	00030068 	andeq	r0, r3, r8, rrx
     e28:	05000000 	streq	r0, [r0, #-0]
     e2c:	0094ec02 	addseq	lr, r4, r2, lsl #24
     e30:	83301600 	teqhi	r0, #0, 12
     e34:	9f144c68 	svcls	0x00144c68
     e38:	04022f4b 	streq	r2, [r2], #-3915	; 0xf4b
     e3c:	01010100 	mrseq	r0, (UNDEF: 17)
     e40:	02000001 	andeq	r0, r0, #1
     e44:	0000ca00 	andeq	ip, r0, r0, lsl #20
     e48:	fb010200 	blx	41652 <__bss_end__+0x377e2>
     e4c:	01000d0e 	tsteq	r0, lr, lsl #26
     e50:	00010101 	andeq	r0, r1, r1, lsl #2
     e54:	00010000 	andeq	r0, r1, r0
     e58:	796d0100 	stmdbvc	sp!, {r8}^
     e5c:	6372732d 	cmnvs	r2, #-1275068416	; 0xb4000000
     e60:	73552f00 	cmpvc	r5, #0, 30
     e64:	2f737265 	svccs	0x00737265
     e68:	61697262 	cmnvs	r9, r2, ror #4
     e6c:	6e756a6e 	vsubvs.f32	s13, s10, s29
     e70:	7365442f 	cmnvc	r5, #788529152	; 0x2f000000
     e74:	706f746b 	rsbvc	r7, pc, fp, ror #8
     e78:	6863732f 	stmdavs	r3!, {r0, r1, r2, r3, r5, r8, r9, ip, sp, lr}^
     e7c:	2f6c6f6f 	svccs	0x006c6f6f
     e80:	746e6957 	strbtvc	r6, [lr], #-2391	; 0x957
     e84:	39317265 	ldmdbcc	r1!, {r0, r2, r5, r6, r9, ip, sp, lr}
     e88:	432f3032 	teqmi	pc, #50	; 0x32
     e8c:	30343153 	eorscc	r3, r4, r3, asr r1
     e90:	73632f45 	cmnvc	r3, #276	; 0x114
     e94:	65303431 	ldrvs	r3, [r0, #-1073]!	; 0x431
     e98:	7730322d 	ldrvc	r3, [r0, -sp, lsr #4]!
     e9c:	6c2f6e69 	stcvs	14, cr6, [pc], #-420	; d00 <_start-0x7300>
     ea0:	69706269 	ldmdbvs	r0!, {r0, r3, r5, r6, r9, sp, lr}^
     ea4:	3173632f 	cmncc	r3, pc, lsr #6
     ea8:	2d653034 	stclcs	0, cr3, [r5, #-208]!	; 0xffffff30
     eac:	00637273 	rsbeq	r7, r3, r3, ror r2
     eb0:	6573552f 	ldrbvs	r5, [r3, #-1327]!	; 0x52f
     eb4:	622f7372 	eorvs	r7, pc, #-939524095	; 0xc8000001
     eb8:	6e616972 	mcrvs	9, 3, r6, cr1, cr2, {3}
     ebc:	2f6e756a 	svccs	0x006e756a
     ec0:	6b736544 	blvs	1cda3d8 <__bss_end__+0x1cd0568>
     ec4:	2f706f74 	svccs	0x00706f74
     ec8:	6f686373 	svcvs	0x00686373
     ecc:	572f6c6f 	strpl	r6, [pc, -pc, ror #24]!
     ed0:	65746e69 	ldrbvs	r6, [r4, #-3689]!	; 0xe69
     ed4:	32393172 	eorscc	r3, r9, #-2147483620	; 0x8000001c
     ed8:	53432f30 	movtpl	r2, #16176	; 0x3f30
     edc:	45303431 	ldrmi	r3, [r0, #-1073]!	; 0x431
     ee0:	3173632f 	cmncc	r3, pc, lsr #6
     ee4:	2d653034 	stclcs	0, cr3, [r5, #-208]!	; 0xffffff30
     ee8:	69773032 	ldmdbvs	r7!, {r1, r4, r5, ip, sp}^
     eec:	696c2f6e 	stmdbvs	ip!, {r1, r2, r3, r5, r6, r8, r9, sl, fp, sp}^
     ef0:	00697062 	rsbeq	r7, r9, r2, rrx
     ef4:	72617500 	rsbvc	r7, r1, #0, 10
     ef8:	00632e74 	rsbeq	r2, r3, r4, ror lr
     efc:	67000001 	strvs	r0, [r0, -r1]
     f00:	2e6f6970 	mcrcs	9, 3, r6, cr15, cr0, {3}
     f04:	00020068 	andeq	r0, r2, r8, rrx
     f08:	69707200 	ldmdbvs	r0!, {r9, ip, sp, lr}^
     f0c:	0300682e 	movweq	r6, #2094	; 0x82e
     f10:	00000000 	andeq	r0, r0, r0
     f14:	953c0205 	ldrls	r0, [ip, #-517]!	; 0x205
     f18:	36030000 	strcc	r0, [r3], -r0
     f1c:	67333001 	ldrvs	r3, [r3, -r1]!
     f20:	30d8306d 	sbcscc	r3, r8, sp, rrx
     f24:	67676767 	strbvs	r6, [r7, -r7, ror #14]!
     f28:	2f866867 	svccs	0x00866867
     f2c:	67306a67 	ldrvs	r6, [r0, -r7, ror #20]!
     f30:	672f6967 	strvs	r6, [pc, -r7, ror #18]!
     f34:	c1674c6a 	cmngt	r7, sl, ror #24
     f38:	2f302f2f 	svccs	0x00302f2f
     f3c:	02304968 	eorseq	r4, r0, #104, 18	; 0x1a0000
     f40:	01010002 	tsteq	r1, r2
     f44:	000000ec 	andeq	r0, r0, ip, ror #1
     f48:	00d00002 	sbcseq	r0, r0, r2
     f4c:	01020000 	mrseq	r0, (UNDEF: 2)
     f50:	000d0efb 	strdeq	r0, [sp], -fp
     f54:	01010101 	tsteq	r1, r1, lsl #2
     f58:	01000000 	mrseq	r0, (UNDEF: 0)
     f5c:	6c010000 	stcvs	0, cr0, [r1], {-0}
     f60:	00636269 	rsbeq	r6, r3, r9, ror #4
     f64:	7273752f 	rsbsvc	r7, r3, #197132288	; 0xbc00000
     f68:	636f6c2f 	cmnvs	pc, #12032	; 0x2f00
     f6c:	432f6c61 	teqmi	pc, #24832	; 0x6100
     f70:	616c6c65 	cmnvs	ip, r5, ror #24
     f74:	72612f72 	rsbvc	r2, r1, #456	; 0x1c8
     f78:	6f6e2d6d 	svcvs	0x006e2d6d
     f7c:	652d656e 	strvs	r6, [sp, #-1390]!	; 0x56e
     f80:	2f696261 	svccs	0x00696261
     f84:	2e382e34 	mrccs	14, 1, r2, cr8, cr4, {1}
     f88:	73632d33 	cmnvc	r3, #3264	; 0xcc0
     f8c:	65303731 	ldrvs	r3, [r0, #-1841]!	; 0x731
     f90:	62696c2f 	rsbvs	r6, r9, #12032	; 0x2f00
     f94:	6363672f 	cmnvs	r3, #12320768	; 0xbc0000
     f98:	6d72612f 	ldfvse	f6, [r2, #-188]!	; 0xffffff44
     f9c:	6e6f6e2d 	cdpvs	14, 6, cr6, cr15, cr13, {1}
     fa0:	61652d65 	cmnvs	r5, r5, ror #26
     fa4:	342f6962 	strtcc	r6, [pc], #-2402	; fac <_start-0x7054>
     fa8:	332e382e 	teqcc	lr, #3014656	; 0x2e0000
     fac:	636e692f 	cmnvs	lr, #770048	; 0xbc000
     fb0:	6564756c 	strbvs	r7, [r4, #-1388]!	; 0x56c
     fb4:	73752f00 	cmnvc	r5, #0, 30
     fb8:	6f6c2f72 	svcvs	0x006c2f72
     fbc:	2f6c6163 	svccs	0x006c6163
     fc0:	6c6c6543 	cfstr64vs	mvdx6, [ip], #-268	; 0xfffffef4
     fc4:	612f7261 	teqvs	pc, r1, ror #4
     fc8:	6e2d6d72 	mcrvs	13, 1, r6, cr13, cr2, {3}
     fcc:	2d656e6f 	stclcs	14, cr6, [r5, #-444]!	; 0xfffffe44
     fd0:	69626165 	stmdbvs	r2!, {r0, r2, r5, r6, r8, sp, lr}^
     fd4:	382e342f 	stmdacc	lr!, {r0, r1, r2, r3, r5, sl, ip, sp}
     fd8:	632d332e 	teqvs	sp, #-1207959552	; 0xb8000000
     fdc:	30373173 	eorscc	r3, r7, r3, ror r1
     fe0:	72612f65 	rsbvc	r2, r1, #404	; 0x194
     fe4:	6f6e2d6d 	svcvs	0x006e2d6d
     fe8:	652d656e 	strvs	r6, [sp, #-1390]!	; 0x56e
     fec:	2f696261 	svccs	0x00696261
     ff0:	6c636e69 	stclvs	14, cr6, [r3], #-420	; 0xfffffe5c
     ff4:	00656475 	rsbeq	r6, r5, r5, ror r4
     ff8:	6d656d00 	stclvs	13, cr6, [r5, #-0]
     ffc:	2e746573 	mrccs	5, 3, r6, cr4, cr3, {3}
    1000:	00010063 	andeq	r0, r1, r3, rrx
    1004:	64747300 	ldrbtvs	r7, [r4], #-768	; 0x300
    1008:	2e666564 	cdpcs	5, 6, cr6, cr6, cr4, {3}
    100c:	00020068 	andeq	r0, r2, r8, rrx
    1010:	72747300 	rsbsvc	r7, r4, #0, 6
    1014:	2e676e69 	cdpcs	14, 6, cr6, cr7, cr9, {3}
    1018:	00030068 	andeq	r0, r3, r8, rrx
    101c:	05000000 	streq	r0, [r0, #-0]
    1020:	0096a802 	addseq	sl, r6, r2, lsl #16
    1024:	4c131400 	cfldrsmi	mvf1, [r3], {-0}
    1028:	0402002f 	streq	r0, [r2], #-47	; 0x2f
    102c:	024d4901 	subeq	r4, sp, #16384	; 0x4000
    1030:	01010002 	tsteq	r1, r2

Disassembly of section .debug_str:

00000000 <.debug_str>:
   0:	6d746f6e 	ldclvs	15, cr6, [r4, #-440]!	; 0xfffffe48
   4:	006e6961 	rsbeq	r6, lr, r1, ror #18
   8:	5f6d7261 	svcpl	0x006d7261
   c:	6c004948 	stcvs	9, cr4, [r0], {72}	; 0x48
  10:	20676e6f 	rsbcs	r6, r7, pc, ror #28
  14:	676e6f6c 	strbvs	r6, [lr, -ip, ror #30]!
  18:	736e7520 	cmnvc	lr, #32, 10	; 0x8000000
  1c:	656e6769 	strbvs	r6, [lr, #-1897]!	; 0x769
  20:	6e692064 	cdpvs	0, 6, cr2, cr9, cr4, {3}
  24:	72610074 	rsbvc	r0, r1, #116	; 0x74
  28:	4c505f6d 	mrrcmi	15, 6, r5, r0, cr13
  2c:	6e6f6c00 	cdpvs	12, 6, cr6, cr15, cr0, {0}
  30:	6f6c2067 	svcvs	0x006c2067
  34:	6920676e 	stmdbvs	r0!, {r1, r2, r3, r5, r6, r8, r9, sl, sp, lr}
  38:	6100746e 	tstvs	r0, lr, ror #8
  3c:	415f6d72 	cmpmi	pc, r2, ror sp	; <UNPREDICTABLE>
  40:	6f63004c 	svcvs	0x0063004c
  44:	69006564 	stmdbvs	r0, {r2, r5, r6, r8, sl, sp, lr}
  48:	0074736e 	rsbseq	r7, r4, lr, ror #6
  4c:	5f6d7261 	svcpl	0x006d7261
  50:	5f72646c 	svcpl	0x0072646c
  54:	64726f77 	ldrbtvs	r6, [r2], #-3959	; 0xf77
  58:	6d6d695f 	stclvs	9, cr6, [sp, #-380]!	; 0xfffffe84
  5c:	6c656800 	stclvs	8, cr6, [r5], #-0
  60:	632e6f6c 	teqvs	lr, #108, 30	; 0x1b0
  64:	6d726100 	ldfvse	f6, [r2, #-0]
  68:	3031725f 	eorscc	r7, r1, pc, asr r2
  6c:	6d726100 	ldfvse	f6, [r2, #-0]
  70:	3131725f 	teqcc	r1, pc, asr r2
  74:	6d726100 	ldfvse	f6, [r2, #-0]
  78:	3231725f 	eorscc	r7, r1, #-268435451	; 0xf0000005
  7c:	6d726100 	ldfvse	f6, [r2, #-0]
  80:	3331725f 	teqcc	r1, #-268435451	; 0xf0000005
  84:	6d726100 	ldfvse	f6, [r2, #-0]
  88:	3431725f 	ldrtcc	r7, [r1], #-607	; 0x25f
  8c:	6f687300 	svcvs	0x00687300
  90:	75207472 	strvc	r7, [r0, #-1138]!	; 0x472
  94:	6769736e 	strbvs	r7, [r9, -lr, ror #6]!
  98:	2064656e 	rsbcs	r6, r4, lr, ror #10
  9c:	00746e69 	rsbseq	r6, r4, r9, ror #28
  a0:	5f6d7261 	svcpl	0x006d7261
  a4:	61006370 	tstvs	r0, r0, ror r3
  a8:	435f6d72 	cmpmi	pc, #7296	; 0x1c80
  ac:	6d690043 	stclvs	0, cr0, [r9, #-268]!	; 0xfffffef4
  b0:	0034326d 	eorseq	r3, r4, sp, ror #4
  b4:	5f6d7261 	svcpl	0x006d7261
  b8:	61005343 	tstvs	r0, r3, asr #6
  bc:	625f6d72 	subsvs	r6, pc, #7296	; 0x1c80
  c0:	6c630033 	stclvs	0, cr0, [r3], #-204	; 0xffffff34
  c4:	5f6e6165 	svcpl	0x006e6165
  c8:	6f626572 	svcvs	0x00626572
  cc:	7300746f 	movwvc	r7, #1135	; 0x46f
  d0:	74657a69 	strbtvc	r7, [r5], #-2665	; 0xa69
  d4:	00657079 	rsbeq	r7, r5, r9, ror r0
  d8:	5f6d7261 	svcpl	0x006d7261
  dc:	61003072 	tstvs	r0, r2, ror r0
  e0:	725f6d72 	subsvc	r6, pc, #7296	; 0x1c80
  e4:	72610031 	rsbvc	r0, r1, #49	; 0x31
  e8:	32725f6d 	rsbscc	r5, r2, #436	; 0x1b4
  ec:	6d726100 	ldfvse	f6, [r2, #-0]
  f0:	0033725f 	eorseq	r7, r3, pc, asr r2
  f4:	5f6d7261 	svcpl	0x006d7261
  f8:	61003472 	tstvs	r0, r2, ror r4
  fc:	725f6d72 	subsvc	r6, pc, #7296	; 0x1c80
 100:	72610035 	rsbvc	r0, r1, #53	; 0x35
 104:	36725f6d 	ldrbtcc	r5, [r2], -sp, ror #30
 108:	6d726100 	ldfvse	f6, [r2, #-0]
 10c:	0037725f 	eorseq	r7, r7, pc, asr r2
 110:	5f6d7261 	svcpl	0x006d7261
 114:	61003872 	tstvs	r0, r2, ror r8
 118:	725f6d72 	subsvc	r6, pc, #7296	; 0x1c80
 11c:	72610039 	rsbvc	r0, r1, #57	; 0x39
 120:	454c5f6d 	strbmi	r5, [ip, #-3949]	; 0xf6d
 124:	73656400 	cmnvc	r5, #0, 8
 128:	72610074 	rsbvc	r0, r1, #116	; 0x74
 12c:	534c5f6d 	movtpl	r5, #53101	; 0xcf6d
 130:	6d726100 	ldfvse	f6, [r2, #-0]
 134:	00544c5f 	subseq	r4, r4, pc, asr ip
 138:	6573552f 	ldrbvs	r5, [r3, #-1327]!	; 0x52f
 13c:	622f7372 	eorvs	r7, pc, #-939524095	; 0xc8000001
 140:	6e616972 	mcrvs	9, 3, r6, cr1, cr2, {3}
 144:	2f6e756a 	svccs	0x006e756a
 148:	6b736544 	blvs	1cd9660 <__bss_end__+0x1ccf7f0>
 14c:	2f706f74 	svccs	0x00706f74
 150:	6f686373 	svcvs	0x00686373
 154:	532f6c6f 	teqpl	pc, #28416	; 0x6f00
 158:	6e697270 	mcrvs	2, 3, r7, cr9, cr0, {3}
 15c:	32393167 	eorscc	r3, r9, #-1073741799	; 0xc0000019
 160:	53432f30 	movtpl	r2, #16176	; 0x3f30
 164:	4c303432 	cfldrsmi	mvf3, [r0], #-200	; 0xffffff38
 168:	73632f58 	cmnvc	r3, #88, 30	; 0x160
 16c:	6c303432 	cfldrsvs	mvf3, [r0], #-200	; 0xffffff38
 170:	30322d78 	eorscc	r2, r2, r8, ror sp
 174:	2f727073 	svccs	0x00727073
 178:	7362616c 	cmnvc	r2, #108, 2
 17c:	642d322f 	strtvs	r3, [sp], #-559	; 0x22f
 180:	6d616e79 	stclvs	14, cr6, [r1, #-484]!	; 0xfffffe1c
 184:	632d6369 	teqvs	sp, #-1543503871	; 0xa4000001
 188:	2d65646f 	cfstrdcs	mvd6, [r5, #-444]!	; 0xfffffe44
 18c:	2f6e6567 	svccs	0x006e6567
 190:	65646f63 	strbvs	r6, [r4, #-3939]!	; 0xf63
 194:	682d312f 	stmdavs	sp!, {r0, r1, r2, r3, r5, r8, ip, sp}
 198:	6f6c6c65 	svcvs	0x006c6c65
 19c:	736e7500 	cmnvc	lr, #0, 10
 1a0:	656e6769 	strbvs	r6, [lr, #-1897]!	; 0x769
 1a4:	68632064 	stmdavs	r3!, {r2, r5, r6, sp}^
 1a8:	73007261 	movwvc	r7, #609	; 0x261
 1ac:	74726f68 	ldrbtvc	r6, [r2], #-3944	; 0xf68
 1b0:	746e6920 	strbtvc	r6, [lr], #-2336	; 0x920
 1b4:	6d726100 	ldfvse	f6, [r2, #-0]
 1b8:	0051455f 	subseq	r4, r1, pc, asr r5
 1bc:	746e6975 	strbtvc	r6, [lr], #-2421	; 0x975
 1c0:	745f3233 	ldrbvc	r3, [pc], #-563	; 1c8 <_start-0x7e38>
 1c4:	6d726100 	ldfvse	f6, [r2, #-0]
 1c8:	00494d5f 	subeq	r4, r9, pc, asr sp
 1cc:	20554e47 	subscs	r4, r5, r7, asr #28
 1d0:	2e342043 	cdpcs	0, 3, cr2, cr4, cr3, {2}
 1d4:	20332e38 	eorscs	r2, r3, r8, lsr lr
 1d8:	70636d2d 	rsbvc	r6, r3, sp, lsr #26
 1dc:	72613d75 	rsbvc	r3, r1, #7488	; 0x1d40
 1e0:	3731316d 	ldrcc	r3, [r1, -sp, ror #2]!
 1e4:	667a6a36 			; <UNDEFINED> instruction: 0x667a6a36
 1e8:	2d20732d 	stccs	3, cr7, [r0, #-180]!	; 0xffffff4c
 1ec:	6e75746d 	cdpvs	4, 7, cr7, cr5, cr13, {3}
 1f0:	72613d65 	rsbvc	r3, r1, #6464	; 0x1940
 1f4:	3731316d 	ldrcc	r3, [r1, -sp, ror #2]!
 1f8:	667a6a36 			; <UNDEFINED> instruction: 0x667a6a36
 1fc:	2d20732d 	stccs	3, cr7, [r0, #-180]!	; 0xffffff4c
 200:	62646767 	rsbvs	r6, r4, #27000832	; 0x19c0000
 204:	674f2d20 	strbvs	r2, [pc, -r0, lsr #26]
 208:	74732d20 	ldrbtvc	r2, [r3], #-3360	; 0xd20
 20c:	6e673d64 	cdpvs	13, 6, cr3, cr7, cr4, {3}
 210:	20393975 	eorscs	r3, r9, r5, ror r9
 214:	7266662d 	rsbvc	r6, r6, #47185920	; 0x2d00000
 218:	74736565 	ldrbtvc	r6, [r3], #-1381	; 0x565
 21c:	69646e61 	stmdbvs	r4!, {r0, r5, r6, r9, sl, fp, sp, lr}^
 220:	6f00676e 	svcvs	0x0000676e
 224:	65736666 	ldrbvs	r6, [r3, #-1638]!	; 0x666
 228:	72610074 	rsbvc	r0, r1, #116	; 0x74
 22c:	70735f6d 	rsbsvc	r5, r3, sp, ror #30
 230:	66666f00 	strbtvs	r6, [r6], -r0, lsl #30
 234:	5f746573 	svcpl	0x00746573
 238:	61003231 	tstvs	r0, r1, lsr r2
 23c:	4e5f6d72 	mrcmi	13, 2, r6, cr15, cr2, {3}
 240:	69750045 	ldmdbvs	r5!, {r0, r2, r6}^
 244:	5f38746e 	svcpl	0x0038746e
 248:	72610074 	rsbvc	r0, r1, #116	; 0x74
 24c:	726c5f6d 	rsbvc	r5, ip, #436	; 0x1b4
 250:	6d726100 	ldfvse	f6, [r2, #-0]
 254:	0043565f 	subeq	r5, r3, pc, asr r6
 258:	5f6d7261 	svcpl	0x006d7261
 25c:	61004547 	tstvs	r0, r7, asr #10
 260:	565f6d72 			; <UNDEFINED> instruction: 0x565f6d72
 264:	72610053 	rsbvc	r0, r1, #83	; 0x53
 268:	6f705f6d 	svcvs	0x00705f6d
 26c:	72610070 	rsbvc	r0, r1, #112	; 0x70
 270:	54475f6d 	strbpl	r5, [r7], #-3949	; 0xf6d
 274:	6d726100 	ldfvse	f6, [r2, #-0]
 278:	7375705f 	cmnvc	r5, #95	; 0x5f
 27c:	72610068 	rsbvc	r0, r1, #104	; 0x68
 280:	31725f6d 	cmncc	r2, sp, ror #30
 284:	5f5f0035 	svcpl	0x005f0035
 288:	63756e67 	cmnvs	r5, #1648	; 0x670
 28c:	5f61765f 	svcpl	0x0061765f
 290:	7473696c 	ldrbtvc	r6, [r3], #-2412	; 0x96c
 294:	62696c00 	rsbvs	r6, r9, #0, 24
 298:	72702f63 	rsbsvc	r2, r0, #396	; 0x18c
 29c:	6b746e69 	blvs	1d1bc48 <__bss_end__+0x1d11dd8>
 2a0:	7600632e 	strvc	r6, [r0], -lr, lsr #6
 2a4:	72705f61 	rsbsvc	r5, r0, #388	; 0x184
 2a8:	6b746e69 	blvs	1d1bc54 <__bss_end__+0x1d11de4>
 2ac:	765f5f00 	ldrbvc	r5, [pc], -r0, lsl #30
 2b0:	696c5f61 	stmdbvs	ip!, {r0, r5, r6, r8, r9, sl, fp, ip, lr}^
 2b4:	2f007473 	svccs	0x00007473
 2b8:	72657355 	rsbvc	r7, r5, #1409286145	; 0x54000001
 2bc:	72622f73 	rsbvc	r2, r2, #460	; 0x1cc
 2c0:	6a6e6169 	bvs	1b9886c <__bss_end__+0x1b8e9fc>
 2c4:	442f6e75 	strtmi	r6, [pc], #-3701	; 2cc <_start-0x7d34>
 2c8:	746b7365 	strbtvc	r7, [fp], #-869	; 0x365
 2cc:	732f706f 	teqvc	pc, #111	; 0x6f
 2d0:	6f6f6863 	svcvs	0x006f6863
 2d4:	69572f6c 	ldmdbvs	r7, {r2, r3, r5, r6, r8, r9, sl, fp, sp}^
 2d8:	7265746e 	rsbvc	r7, r5, #1845493760	; 0x6e000000
 2dc:	30323931 	eorscc	r3, r2, r1, lsr r9
 2e0:	3153432f 	cmpcc	r3, pc, lsr #6
 2e4:	2f453034 	svccs	0x00453034
 2e8:	34317363 	ldrtcc	r7, [r1], #-867	; 0x363
 2ec:	322d6530 	eorcc	r6, sp, #48, 10	; 0xc000000
 2f0:	6e697730 	mcrvs	7, 3, r7, cr9, cr0, {1}
 2f4:	62696c2f 	rsbvs	r6, r9, #12032	; 0x2f00
 2f8:	61006970 	tstvs	r0, r0, ror r9
 2fc:	00736772 	rsbseq	r6, r3, r2, ror r7
 300:	70615f5f 	rsbvc	r5, r1, pc, asr pc
 304:	62696c00 	rsbvs	r6, r9, #0, 24
 308:	75702f63 	ldrbvc	r2, [r0, #-3939]!	; 0xf63
 30c:	632e6b74 	teqvs	lr, #116, 22	; 0x1d000
 310:	746e6900 	strbtvc	r6, [lr], #-2304	; 0x900
 314:	616e7265 	cmnvs	lr, r5, ror #4
 318:	75705f6c 	ldrbvc	r5, [r0, #-3948]!	; 0xf6c
 31c:	72006b74 	andvc	r6, r0, #116, 22	; 0x1d000
 320:	705f6970 	subsvc	r6, pc, r0, ror r9	; <UNPREDICTABLE>
 324:	68637475 	stmdavs	r3!, {r0, r2, r4, r5, r6, sl, ip, sp, lr}^
 328:	6e007261 	cdpvs	2, 0, cr7, cr0, cr1, {3}
 32c:	705f6765 	subsvc	r6, pc, r5, ror #14
 330:	76657200 	strbtvc	r7, [r5], -r0, lsl #4
 334:	65737265 	ldrbvs	r7, [r3, #-613]!	; 0x265
 338:	64736900 	ldrbtvs	r6, [r3], #-2304	; 0x900
 33c:	74696769 	strbtvc	r6, [r9], #-1897	; 0x769
 340:	465f5f00 	ldrbmi	r5, [pc], -r0, lsl #30
 344:	54434e55 	strbpl	r4, [r3], #-3669	; 0xe55
 348:	5f4e4f49 	svcpl	0x004e4f49
 34c:	7570005f 	ldrbvc	r0, [r0, #-95]!	; 0x5f
 350:	665f7374 			; <UNDEFINED> instruction: 0x665f7374
 354:	61620070 	smcvs	8192	; 0x2000
 358:	73006573 	movwvc	r6, #1395	; 0x573
 35c:	656e6769 	strbvs	r6, [lr, #-1897]!	; 0x769
 360:	00705f64 	rsbseq	r5, r0, r4, ror #30
 364:	6362696c 	cmnvs	r2, #108, 18	; 0x1b0000
 368:	2d61762f 	stclcs	6, cr7, [r1, #-188]!	; 0xffffff44
 36c:	6e697270 	mcrvs	2, 3, r7, cr9, cr0, {3}
 370:	632e6b74 	teqvs	lr, #116, 22	; 0x1d000
 374:	69707200 	ldmdbvs	r0!, {r9, ip, sp, lr}^
 378:	7465735f 	strbtvc	r7, [r5], #-863	; 0x35f
 37c:	74756f5f 	ldrbtvc	r6, [r5], #-3935	; 0xf5f
 380:	00747570 	rsbseq	r7, r4, r0, ror r5
 384:	74646977 	strbtvc	r6, [r4], #-2423	; 0x977
 388:	75700068 	ldrbvc	r0, [r0, #-104]!	; 0x68
 38c:	665f6374 			; <UNDEFINED> instruction: 0x665f6374
 390:	70720070 	rsbsvc	r0, r2, r0, ror r0
 394:	65725f69 	ldrbvs	r5, [r2, #-3945]!	; 0xf69
 398:	5f746573 	svcpl	0x00746573
 39c:	63747570 	cmnvs	r4, #112, 10	; 0x1c000000
 3a0:	696d6500 	stmdbvs	sp!, {r8, sl, sp, lr}^
 3a4:	70720074 	rsbsvc	r0, r2, r4, ror r0
 3a8:	65725f69 	ldrbvs	r5, [r2, #-3945]!	; 0xf69
 3ac:	746f6f62 	strbtvc	r6, [pc], #-3938	; 3b4 <_start-0x7c4c>
 3b0:	31736300 	cmncc	r3, r0, lsl #6
 3b4:	2d653034 	stclcs	0, cr3, [r5, #-208]!	; 0xffffff30
 3b8:	2f637273 	svccs	0x00637273
 3bc:	61656c63 	cmnvs	r5, r3, ror #24
 3c0:	65722d6e 	ldrbvs	r2, [r2, #-3438]!	; 0xd6e
 3c4:	746f6f62 	strbtvc	r6, [pc], #-3938	; 3cc <_start-0x7c34>
 3c8:	6400632e 	strvs	r6, [r0], #-814	; 0x32e
 3cc:	79616c65 	stmdbvc	r1!, {r0, r2, r5, r6, sl, fp, sp, lr}^
 3d0:	00736d5f 	rsbseq	r6, r3, pc, asr sp
 3d4:	65746e69 	ldrbvs	r6, [r4, #-3689]!	; 0xe69
 3d8:	6c616e72 	stclvs	14, cr6, [r1], #-456	; 0xfffffe38
 3dc:	5f77735f 	svcpl	0x0077735f
 3e0:	63747570 	cmnvs	r4, #112, 10	; 0x1c000000
 3e4:	00726168 	rsbseq	r6, r2, r8, ror #2
 3e8:	73625f5f 	cmnvc	r2, #380	; 0x17c
 3ec:	74735f73 	ldrbtvc	r5, [r3], #-3955	; 0xf73
 3f0:	5f747261 	svcpl	0x00747261
 3f4:	7362005f 	cmnvc	r2, #95	; 0x5f
 3f8:	6e655f73 	mcrvs	15, 3, r5, cr5, cr3, {3}
 3fc:	79630064 	stmdbvc	r3!, {r2, r5, r6}^
 400:	5f656c63 	svcpl	0x00656c63
 404:	5f726570 	svcpl	0x00726570
 408:	00746962 	rsbseq	r6, r4, r2, ror #18
 40c:	736e6f63 	cmnvc	lr, #396	; 0x18c
 410:	5f656c6f 	svcpl	0x00656c6f
 414:	74726175 	ldrbtvc	r6, [r2], #-373	; 0x175
 418:	5f777300 	svcpl	0x00777300
 41c:	74726175 	ldrbtvc	r6, [r2], #-373	; 0x175
 420:	6972705f 	ldmdbvs	r2!, {r0, r1, r2, r3, r4, r6, ip, sp, lr}^
 424:	006b746e 	rsbeq	r7, fp, lr, ror #8
 428:	43545550 	cmpmi	r4, #80, 10	; 0x14000000
 42c:	5053455f 	subspl	r4, r3, pc, asr r5
 430:	5241555f 	subpl	r5, r1, #398458880	; 0x17c00000
 434:	77730054 			; <UNDEFINED> instruction: 0x77730054
 438:	7261755f 	rsbvc	r7, r1, #398458880	; 0x17c00000
 43c:	00745f74 	rsbseq	r5, r4, r4, ror pc
 440:	43545550 	cmpmi	r4, #80, 10	; 0x14000000
 444:	5f57535f 	svcpl	0x0057535f
 448:	54524155 	ldrbpl	r4, [r2], #-341	; 0x155
 44c:	75616200 	strbvc	r6, [r1, #-512]!	; 0x200
 450:	55500064 	ldrbpl	r0, [r0, #-100]	; 0x64
 454:	485f4354 	ldmdami	pc, {r2, r4, r6, r8, r9, lr}^	; <UNPREDICTABLE>
 458:	41555f57 	cmpmi	r5, r7, asr pc
 45c:	5f005452 	svcpl	0x00005452
 460:	61747363 	cmnvs	r4, r3, ror #6
 464:	75007472 	strvc	r7, [r0, #-1138]	; 0x472
 468:	5f747261 	svcpl	0x00747261
 46c:	5f766564 	svcpl	0x00766564
 470:	77730074 			; <UNDEFINED> instruction: 0x77730074
 474:	7261755f 	rsbvc	r7, r1, #398458880	; 0x17c00000
 478:	75705f74 	ldrbvc	r5, [r0, #-3956]!	; 0xf74
 47c:	63006374 	movwvs	r6, #884	; 0x374
 480:	72746e6f 	rsbsvc	r6, r4, #1776	; 0x6f0
 484:	625f6c6f 	subsvs	r6, pc, #28416	; 0x6f00
 488:	745f6b6c 	ldrbvc	r6, [pc], #-2924	; 490 <_start-0x7b70>
 48c:	5f777300 	svcpl	0x00777300
 490:	74726175 	ldrbtvc	r6, [r2], #-373	; 0x175
 494:	5f626300 	svcpl	0x00626300
 498:	5f746567 	svcpl	0x00746567
 49c:	636f6c62 	cmnvs	pc, #25088	; 0x6200
 4a0:	5f5f006b 	svcpl	0x005f006b
 4a4:	5f737362 	svcpl	0x00737362
 4a8:	5f646e65 	svcpl	0x00646e65
 4ac:	7363005f 	cmnvc	r3, #95	; 0x5f
 4b0:	65303431 	ldrvs	r3, [r0, #-1073]!	; 0x431
 4b4:	6372732d 	cmnvs	r2, #-1275068416	; 0xb4000000
 4b8:	7473632f 	ldrbtvc	r6, [r3], #-815	; 0x32f
 4bc:	2e747261 	cdpcs	2, 7, cr7, cr4, cr1, {3}
 4c0:	6f630063 	svcvs	0x00630063
 4c4:	6c6f736e 	stclvs	3, cr7, [pc], #-440	; 314 <_start-0x7cec>
 4c8:	65645f65 	strbvs	r5, [r4, #-3941]!	; 0xf65
 4cc:	616d0076 	smcvs	53254	; 0xd006
 4d0:	00636967 	rsbeq	r6, r3, r7, ror #18
 4d4:	755f7461 	ldrbvc	r7, [pc, #-1121]	; 7b <_start-0x7f85>
 4d8:	5f726573 	svcpl	0x00726573
 4dc:	6576656c 	ldrbvs	r6, [r6, #-1388]!	; 0x56c
 4e0:	4d50006c 	ldclmi	0, cr0, [r0, #-432]	; 0xfffffe50
 4e4:	5341505f 	movtpl	r5, #4191	; 0x105f
 4e8:	524f5753 	subpl	r5, pc, #21757952	; 0x14c0000
 4ec:	73630044 	cmnvc	r3, #68	; 0x44
 4f0:	65303431 	ldrvs	r3, [r0, #-1073]!	; 0x431
 4f4:	6372732d 	cmnvs	r2, #-1275068416	; 0xb4000000
 4f8:	6265722f 	rsbvs	r7, r5, #-268435454	; 0xf0000002
 4fc:	2e746f6f 	cdpcs	15, 7, cr6, cr4, cr15, {3}
 500:	4d500063 	ldclmi	0, cr0, [r0, #-396]	; 0xfffffe74
 504:	5453525f 	ldrbpl	r5, [r3], #-607	; 0x25f
 508:	52575f43 	subspl	r5, r7, #268	; 0x10c
 50c:	5f474643 	svcpl	0x00474643
 510:	4c4c5546 	cfstr64mi	mvdx5, [ip], {70}	; 0x46
 514:	5345525f 	movtpl	r5, #21087	; 0x525f
 518:	50005445 	andpl	r5, r0, r5, asr #8
 51c:	44575f4d 	ldrbmi	r5, [r7], #-3917	; 0xf4d
 520:	7300474f 	movwvc	r4, #1871	; 0x74f
 524:	755f7465 	ldrbvc	r7, [pc, #-1125]	; c7 <_start-0x7f39>
 528:	5f726573 	svcpl	0x00726573
 52c:	6576656c 	ldrbvs	r6, [r6, #-1388]!	; 0x56c
 530:	5550006c 	ldrbpl	r0, [r0, #-108]	; 0x6c
 534:	00323354 	eorseq	r3, r2, r4, asr r3
 538:	525f4d50 	subspl	r4, pc, #80, 26	; 0x1400
 53c:	00435453 	subeq	r5, r3, r3, asr r4
 540:	72737063 	rsbsvc	r7, r3, #99	; 0x63
 544:	6d697400 	cfstrdvs	mvd7, [r9, #-0]
 548:	675f7265 	ldrbvs	r7, [pc, -r5, ror #4]
 54c:	755f7465 	ldrbvc	r7, [pc, #-1125]	; ef <_start-0x7f11>
 550:	5f636573 	svcpl	0x00636573
 554:	00776172 	rsbseq	r6, r7, r2, ror r1
 558:	616c6564 	cmnvs	ip, r4, ror #10
 55c:	65735f79 	ldrbvs	r5, [r3, #-3961]!	; 0xf79
 560:	73630063 	cmnvc	r3, #99	; 0x63
 564:	65303431 	ldrvs	r3, [r0, #-1073]!	; 0x431
 568:	6372732d 	cmnvs	r2, #-1275068416	; 0xb4000000
 56c:	6d69742f 	cfstrdvs	mvd7, [r9, #-188]!	; 0xffffff44
 570:	632e7265 	teqvs	lr, #1342177286	; 0x50000006
 574:	54454700 	strbpl	r4, [r5], #-1792	; 0x700
 578:	74003233 	strvc	r3, [r0], #-563	; 0x233
 57c:	736b6369 	cmnvc	fp, #-1543503871	; 0xa4000001
 580:	6c656400 	cfstrdvs	mvd6, [r5], #-0
 584:	635f7961 	cmpvs	pc, #1589248	; 0x184000
 588:	656c6379 	strbvs	r6, [ip, #-889]!	; 0x379
 58c:	65640073 	strbvs	r0, [r4, #-115]!	; 0x73
 590:	5f79616c 	svcpl	0x0079616c
 594:	74007375 	strvc	r7, [r0], #-885	; 0x375
 598:	72656d69 	rsbvc	r6, r5, #6720	; 0x1a40
 59c:	7465675f 	strbtvc	r6, [r5], #-1887	; 0x75f
 5a0:	6573755f 	ldrbvs	r7, [r3, #-1375]!	; 0x55f
 5a4:	79630063 	stmdbvc	r3!, {r0, r1, r5, r6}^
 5a8:	65705f63 	ldrbvs	r5, [r0, #-3939]!	; 0xf63
 5ac:	69625f72 	stmdbvs	r2!, {r1, r4, r5, r6, r8, r9, sl, fp, ip, lr}^
 5b0:	72770074 	rsbsvc	r0, r7, #116	; 0x74
 5b4:	5f657469 	svcpl	0x00657469
 5b8:	5f637963 	svcpl	0x00637963
 5bc:	69746e75 	ldmdbvs	r4!, {r0, r2, r4, r5, r6, r9, sl, fp, sp, lr}^
 5c0:	7773006c 	ldrbvc	r0, [r3, -ip, rrx]!
 5c4:	7261755f 	rsbvc	r7, r1, #398458880	; 0x17c00000
 5c8:	65675f74 	strbvs	r5, [r7, #-3956]!	; 0xf74
 5cc:	745f6374 	ldrbvc	r6, [pc], #-884	; 5d4 <_start-0x7a2c>
 5d0:	6f656d69 	svcvs	0x00656d69
 5d4:	73007475 	movwvc	r7, #1141	; 0x475
 5d8:	61755f77 	cmnvs	r5, r7, ror pc
 5dc:	675f7472 			; <UNDEFINED> instruction: 0x675f7472
 5e0:	5f737465 	svcpl	0x00737465
 5e4:	69746e75 	ldmdbvs	r4!, {r0, r2, r4, r5, r6, r9, sl, fp, sp, lr}^
 5e8:	7773006c 	ldrbvc	r0, [r3, -ip, rrx]!
 5ec:	7261755f 	rsbvc	r7, r1, #398458880	; 0x17c00000
 5f0:	65675f74 	strbvs	r5, [r7, #-3956]!	; 0xf74
 5f4:	64006374 	strvs	r6, [r0], #-884	; 0x374
 5f8:	76697265 	strbtvc	r7, [r9], -r5, ror #4
 5fc:	64006465 	strvs	r6, [r0], #-1125	; 0x465
 600:	79616c65 	stmdbvc	r1!, {r0, r2, r5, r6, sl, fp, sp, lr}^
 604:	79636e5f 	stmdbvc	r3!, {r0, r1, r2, r3, r4, r6, r9, sl, fp, sp, lr}^
 608:	73656c63 	cmnvc	r5, #25344	; 0x6300
 60c:	5f777300 	svcpl	0x00777300
 610:	74726175 	ldrbtvc	r6, [r2], #-373	; 0x175
 614:	696e695f 	stmdbvs	lr!, {r0, r1, r2, r3, r4, r6, r8, fp, sp, lr}^
 618:	65685f74 	strbvs	r5, [r8, #-3956]!	; 0xf74
 61c:	7265706c 	rsbvc	r7, r5, #108	; 0x6c
 620:	6d697400 	cfstrdvs	mvd7, [r9, #-0]
 624:	74756f65 	ldrbtvc	r6, [r5], #-3941	; 0xf65
 628:	6573755f 	ldrbvs	r7, [r3, #-1375]!	; 0x55f
 62c:	77730063 	ldrbvc	r0, [r3, -r3, rrx]!
 630:	7261755f 	rsbvc	r7, r1, #398458880	; 0x17c00000
 634:	75705f74 	ldrbvc	r5, [r0, #-3956]!	; 0xf74
 638:	67006b74 	smlsdxvs	r0, r4, fp, r6
 63c:	5f6f6970 	svcpl	0x006f6970
 640:	64616572 	strbtvs	r6, [r1], #-1394	; 0x572
 644:	2d796d00 	ldclcs	13, cr6, [r9, #-0]
 648:	2f637273 	svccs	0x00637273
 64c:	752d7773 	strvc	r7, [sp, #-1907]!	; 0x773
 650:	2e747261 	cdpcs	2, 7, cr7, cr4, cr1, {3}
 654:	68630063 	stmdavs	r3!, {r0, r1, r5, r6}^
 658:	695f7261 	ldmdbvs	pc, {r0, r5, r6, r9, ip, sp, lr}^	; <UNPREDICTABLE>
 65c:	7773006e 	ldrbvc	r0, [r3, -lr, rrx]!
 660:	7261755f 	rsbvc	r7, r1, #398458880	; 0x17c00000
 664:	65675f74 	strbvs	r5, [r7, #-3956]!	; 0xf74
 668:	745f7374 	ldrbvc	r7, [pc], #-884	; 670 <_start-0x7990>
 66c:	6f656d69 	svcvs	0x00656d69
 670:	5f007475 	svcpl	0x00007475
 674:	0074756f 	rsbseq	r7, r4, pc, ror #10
 678:	7479626e 	ldrbtvc	r6, [r9], #-622	; 0x26e
 67c:	67007365 	strvs	r7, [r0, -r5, ror #6]
 680:	5f6f6970 	svcpl	0x006f6970
 684:	74697277 	strbtvc	r7, [r9], #-631	; 0x277
 688:	73750065 	cmnvc	r5, #101	; 0x65
 68c:	745f6365 	ldrbvc	r6, [pc], #-869	; 694 <_start-0x796c>
 690:	6f656d69 	svcvs	0x00656d69
 694:	67007475 	smlsdxvs	r0, r5, r4, r7
 698:	5f6f6970 	svcpl	0x006f6970
 69c:	5f746573 	svcpl	0x00746573
 6a0:	75706e69 	ldrbvc	r6, [r0, #-3689]!	; 0xe69
 6a4:	77730074 			; <UNDEFINED> instruction: 0x77730074
 6a8:	7261755f 	rsbvc	r7, r1, #398458880	; 0x17c00000
 6ac:	65675f74 	strbvs	r5, [r7, #-3956]!	; 0xf74
 6b0:	755f7374 	ldrbvc	r7, [pc, #-884]	; 344 <_start-0x7cbc>
 6b4:	6c69746e 	cfstrdvs	mvd7, [r9], #-440	; 0xfffffe48
 6b8:	6b6c625f 	blvs	1b1903c <__bss_end__+0x1b0f1cc>
 6bc:	69706700 	ldmdbvs	r0!, {r8, r9, sl, sp, lr}^
 6c0:	65735f6f 	ldrbvs	r5, [r3, #-3951]!	; 0xf6f
 6c4:	756f5f74 	strbvc	r5, [pc, #-3956]!	; fffff758 <__bss_end__+0xffff58e8>
 6c8:	74757074 	ldrbtvc	r7, [r5], #-116	; 0x74
 6cc:	69617700 	stmdbvs	r1!, {r8, r9, sl, ip, sp, lr}^
 6d0:	6e755f74 	mrcvs	15, 3, r5, cr5, cr4, {3}
 6d4:	5f6c6974 	svcpl	0x006c6974
 6d8:	63657375 	cmnvs	r5, #-738197503	; 0xd4000001
 6dc:	69706700 	ldmdbvs	r0!, {r8, r9, sl, sp, lr}^
 6e0:	76655f6f 	strbtvc	r5, [r5], -pc, ror #30
 6e4:	5f746e65 	svcpl	0x00746e65
 6e8:	65746564 	ldrbvs	r6, [r4, #-1380]!	; 0x564
 6ec:	64657463 	strbtvs	r7, [r5], #-1123	; 0x463
 6f0:	74757000 	ldrbtvc	r7, [r5], #-0
 6f4:	47003233 	smladxmi	r0, r3, r2, r3
 6f8:	45534650 	ldrbmi	r4, [r3, #-1616]	; 0x650
 6fc:	4700324c 	strmi	r3, [r0, -ip, asr #4]
 700:	524c4350 	subpl	r4, ip, #80, 6	; 0x40000001
 704:	4e450030 	mcrmi	0, 2, r0, cr5, cr0, {1}
 708:	454c4241 	strbmi	r4, [ip, #-577]	; 0x241
 70c:	5152495f 	cmppl	r2, pc, asr r9
 710:	00325f53 	eorseq	r5, r2, r3, asr pc
 714:	675f7369 	ldrbvs	r7, [pc, -r9, ror #6]
 718:	5f6f6970 	svcpl	0x006f6970
 71c:	00746e69 	rsbseq	r6, r4, r9, ror #28
 720:	4f495047 	svcmi	0x00495047
 724:	4e55465f 	mrcmi	6, 2, r4, cr5, cr15, {2}
 728:	4e495f43 	cdpmi	15, 4, cr5, cr9, cr3, {2}
 72c:	00545550 	subseq	r5, r4, r0, asr r5
 730:	6f697067 	svcvs	0x00697067
 734:	7465735f 	strbtvc	r7, [r5], #-863	; 0x35f
 738:	66666f5f 	uqsaxvs	r6, r6, pc	; <UNPREDICTABLE>
 73c:	2d796d00 	ldclcs	13, cr6, [r9, #-0]
 740:	2f637273 	svccs	0x00637273
 744:	6f697067 	svcvs	0x00697067
 748:	6900632e 	stmdbvs	r0, {r1, r2, r3, r5, r8, r9, sp, lr}
 74c:	6d5f746e 	cfldrdvs	mvd7, [pc, #-440]	; 59c <_start-0x7a64>
 750:	006b7361 	rsbeq	r7, fp, r1, ror #6
 754:	45535047 	ldrbmi	r5, [r3, #-71]	; 0x47
 758:	47003054 	smlsdmi	r0, r4, r0, r3
 75c:	54455350 	strbpl	r5, [r5], #-848	; 0x350
 760:	65720031 	ldrbvs	r0, [r2, #-49]!	; 0x31
 764:	74735f67 	ldrbtvc	r5, [r3], #-3943	; 0xf67
 768:	47007461 	strmi	r7, [r0, -r1, ror #8]
 76c:	56454c50 			; <UNDEFINED> instruction: 0x56454c50
 770:	50470030 	subpl	r0, r7, r0, lsr r0
 774:	3156454c 	cmpcc	r6, ip, asr #10
 778:	69706700 	ldmdbvs	r0!, {r8, r9, sl, sp, lr}^
 77c:	65725f6f 	ldrbvs	r5, [r2, #-3951]!	; 0xf6f
 780:	50470067 	subpl	r0, r7, r7, rrx
 784:	4c455346 	mcrrmi	3, 4, r5, r5, cr6
 788:	50470030 	subpl	r0, r7, r0, lsr r0
 78c:	4c455346 	mcrrmi	3, 4, r5, r5, cr6
 790:	50470031 	subpl	r0, r7, r1, lsr r0
 794:	4c455346 	mcrrmi	3, 4, r5, r5, cr6
 798:	50470033 	subpl	r0, r7, r3, lsr r0
 79c:	4c455346 	mcrrmi	3, 4, r5, r5, cr6
 7a0:	50470034 	subpl	r0, r7, r4, lsr r0
 7a4:	4c455346 	mcrrmi	3, 4, r5, r5, cr6
 7a8:	65640035 	strbvs	r0, [r4, #-53]!	; 0x35
 7ac:	61625f76 	smcvs	9718	; 0x25f6
 7b0:	65697272 	strbvs	r7, [r9, #-626]!	; 0x272
 7b4:	70670072 	rsbvc	r0, r7, r2, ror r0
 7b8:	665f6f69 	ldrbvs	r6, [pc], -r9, ror #30
 7bc:	306c6573 	rsbcc	r6, ip, r3, ror r5
 7c0:	43504700 	cmpmi	r0, #0, 14
 7c4:	0031524c 	eorseq	r5, r1, ip, asr #4
 7c8:	6f697067 	svcvs	0x00697067
 7cc:	746e695f 	strbtvc	r6, [lr], #-2399	; 0x95f
 7d0:	7369725f 	cmnvc	r9, #-268435451	; 0xf0000005
 7d4:	5f676e69 	svcpl	0x00676e69
 7d8:	65676465 	strbvs	r6, [r7, #-1125]!	; 0x465
 7dc:	69706700 	ldmdbvs	r0!, {r8, r9, sl, sp, lr}^
 7e0:	65735f6f 	ldrbvs	r5, [r3, #-3951]!	; 0xf6f
 7e4:	75665f74 	strbvc	r5, [r6, #-3956]!	; 0xf74
 7e8:	6974636e 	ldmdbvs	r4!, {r1, r2, r3, r5, r6, r8, r9, sp, lr}^
 7ec:	47006e6f 	strmi	r6, [r0, -pc, ror #28]
 7f0:	4e455250 	mcrmi	2, 2, r5, cr5, cr0, {2}
 7f4:	50470030 	subpl	r0, r7, r0, lsr r0
 7f8:	314e4552 	cmpcc	lr, r2, asr r5
 7fc:	69706700 	ldmdbvs	r0!, {r8, r9, sl, sp, lr}^
 800:	76655f6f 	strbtvc	r5, [r5], -pc, ror #30
 804:	5f746e65 	svcpl	0x00746e65
 808:	61656c63 	cmnvs	r5, r3, ror #24
 80c:	52490072 	subpl	r0, r9, #114	; 0x72
 810:	45505f51 	ldrbmi	r5, [r0, #-3921]	; 0xf51
 814:	4e49444e 	cdpmi	4, 4, cr4, cr9, cr14, {2}
 818:	00315f47 	eorseq	r5, r1, r7, asr #30
 81c:	5f515249 	svcpl	0x00515249
 820:	444e4550 	strbmi	r4, [lr], #-1360	; 0x550
 824:	5f474e49 	svcpl	0x00474e49
 828:	69620032 	stmdbvs	r2!, {r1, r4, r5}^
 82c:	73616d74 	cmnvc	r1, #116, 26	; 0x1d00
 830:	7067006b 	rsbvc	r0, r7, fp, rrx
 834:	735f6f69 	cmpvc	pc, #420	; 0x1a4
 838:	00307465 	eorseq	r7, r0, r5, ror #8
 83c:	636e7566 	cmnvs	lr, #427819008	; 0x19800000
 840:	45504700 	ldrbmi	r4, [r0, #-1792]	; 0x700
 844:	00305344 	eorseq	r5, r0, r4, asr #6
 848:	44455047 	strbmi	r5, [r5], #-71	; 0x47
 84c:	67003153 	smlsdvs	r0, r3, r1, r3
 850:	5f6f6970 	svcpl	0x006f6970
 854:	5f746573 	svcpl	0x00746573
 858:	47006e6f 	strmi	r6, [r0, -pc, ror #28]
 85c:	4e454650 	mcrmi	6, 2, r4, cr5, cr0, {2}
 860:	50470030 	subpl	r0, r7, r0, lsr r0
 864:	314e4546 	cmpcc	lr, r6, asr #10
 868:	49504700 	ldmdbmi	r0, {r8, r9, sl, lr}^
 86c:	55465f4f 	strbpl	r5, [r6, #-3919]	; 0xf4f
 870:	4f5f434e 	svcmi	0x005f434e
 874:	55505455 	ldrbpl	r5, [r0, #-1109]	; 0x455
 878:	65670054 	strbvs	r0, [r7, #-84]!	; 0x54
 87c:	00323374 	eorseq	r3, r2, r4, ror r3
 880:	6f697067 	svcvs	0x00697067
 884:	746e695f 	strbtvc	r6, [lr], #-2399	; 0x95f
 888:	6c61665f 	stclvs	6, cr6, [r1], #-380	; 0xfffffe84
 88c:	676e696c 	strbvs	r6, [lr, -ip, ror #18]!
 890:	6764655f 			; <UNDEFINED> instruction: 0x6764655f
 894:	70670065 	rsbvc	r0, r7, r5, rrx
 898:	665f6f69 	ldrbvs	r6, [pc], -r9, ror #30
 89c:	5f636e75 	svcpl	0x00636e75
 8a0:	50470074 	subpl	r0, r7, r4, ror r0
 8a4:	465f4f49 	ldrbmi	r4, [pc], -r9, asr #30
 8a8:	5f434e55 	svcpl	0x00434e55
 8ac:	30544c41 	subscc	r4, r4, r1, asr #24
 8b0:	49504700 	ldmdbmi	r0, {r8, r9, sl, lr}^
 8b4:	55465f4f 	strbpl	r5, [r6, #-3919]	; 0xf4f
 8b8:	415f434e 	cmpmi	pc, lr, asr #6
 8bc:	0031544c 	eorseq	r5, r1, ip, asr #8
 8c0:	4f495047 	svcmi	0x00495047
 8c4:	4e55465f 	mrcmi	6, 2, r4, cr5, cr15, {2}
 8c8:	4c415f43 	mcrrmi	15, 4, r5, r1, cr3
 8cc:	47003254 	smlsdmi	r0, r4, r2, r3
 8d0:	5f4f4950 	svcpl	0x004f4950
 8d4:	434e5546 	movtmi	r5, #58694	; 0xe546
 8d8:	544c415f 	strbpl	r4, [ip], #-351	; 0x15f
 8dc:	50470033 	subpl	r0, r7, r3, lsr r0
 8e0:	465f4f49 	ldrbmi	r4, [pc], -r9, asr #30
 8e4:	5f434e55 	svcpl	0x00434e55
 8e8:	34544c41 	ldrbcc	r4, [r4], #-3137	; 0xc41
 8ec:	49504700 	ldmdbmi	r0, {r8, r9, sl, lr}^
 8f0:	55465f4f 	strbpl	r5, [r6, #-3919]	; 0xf4f
 8f4:	415f434e 	cmpmi	pc, lr, asr #6
 8f8:	0035544c 	eorseq	r5, r5, ip, asr #8
 8fc:	5f676572 	svcpl	0x00676572
 900:	656c6573 	strbvs	r6, [ip, #-1395]!	; 0x573
 904:	67007463 	strvs	r7, [r0, -r3, ror #8]
 908:	5f6f6970 	svcpl	0x006f6970
 90c:	30726c63 	rsbscc	r6, r2, r3, ror #24
 910:	746e6900 	strbtvc	r6, [lr], #-2304	; 0x900
 914:	616e7265 	cmnvs	lr, r5, ror #4
 918:	75705f6c 	ldrbvc	r5, [r0, #-3948]!	; 0xf6c
 91c:	61686374 	smcvs	34356	; 0x8634
 920:	696c0072 	stmdbvs	ip!, {r1, r4, r5, r6}^
 924:	702f6362 	eorvc	r6, pc, r2, ror #6
 928:	68637475 	stmdavs	r3!, {r0, r2, r4, r5, r6, sl, ip, sp, lr}^
 92c:	632e7261 	teqvs	lr, #268435462	; 0x10000006
 930:	69707200 	ldmdbvs	r0!, {r9, ip, sp, lr}^
 934:	7465735f 	strbtvc	r7, [r5], #-863	; 0x35f
 938:	7475705f 	ldrbtvc	r7, [r5], #-95	; 0x5f
 93c:	69730063 	ldmdbvs	r3!, {r0, r1, r5, r6}^
 940:	745f657a 	ldrbvc	r6, [pc], #-1402	; 948 <_start-0x76b8>
 944:	6d656d00 	stclvs	13, cr6, [r5, #-0]
 948:	00746573 	rsbseq	r6, r4, r3, ror r5
 94c:	6e5f6263 	cdpvs	2, 5, cr6, cr15, cr3, {3}
 950:	63007765 	movwvs	r7, #1893	; 0x765
 954:	30343173 	eorscc	r3, r4, r3, ror r1
 958:	72732d65 	rsbsvc	r2, r3, #6464	; 0x1940
 95c:	6f632f63 	svcvs	0x00632f63
 960:	6f72746e 	svcvs	0x0072746e
 964:	6c622d6c 	stclvs	13, cr2, [r2], #-432	; 0xfffffe50
 968:	2e6b636f 	cdpcs	3, 6, cr6, cr11, cr15, {3}
 96c:	55410063 	strbpl	r0, [r1, #-99]	; 0x63
 970:	554d5f58 	strbpl	r5, [sp, #-3928]	; 0xf58
 974:	52434d5f 	subpl	r4, r3, #6080	; 0x17c0
 978:	4745525f 	smlsldmi	r5, r5, pc, r2	; <UNPREDICTABLE>
 97c:	58554100 	ldmdapl	r5, {r8, lr}^
 980:	5f554d5f 	svcpl	0x00554d5f
 984:	525f4f49 	subspl	r4, pc, #292	; 0x124
 988:	41004745 	tstmi	r0, r5, asr #14
 98c:	4d5f5855 	ldclmi	8, cr5, [pc, #-340]	; 840 <_start-0x77c0>
 990:	534d5f55 	movtpl	r5, #57173	; 0xdf55
 994:	45525f52 	ldrbmi	r5, [r2, #-3922]	; 0xf52
 998:	61750047 	cmnvs	r5, r7, asr #32
 99c:	635f7472 	cmpvs	pc, #1912602624	; 0x72000000
 9a0:	675f6e61 	ldrbvs	r6, [pc, -r1, ror #28]
 9a4:	00637465 	rsbeq	r7, r3, r5, ror #8
 9a8:	5f585541 	svcpl	0x00585541
 9ac:	435f554d 	cmpmi	pc, #322961408	; 0x13400000
 9b0:	5f4c544e 	svcpl	0x004c544e
 9b4:	00474552 	subeq	r4, r7, r2, asr r5
 9b8:	74726175 	ldrbtvc	r6, [r2], #-373	; 0x175
 9bc:	7361685f 	cmnvc	r1, #6225920	; 0x5f0000
 9c0:	7461645f 	strbtvc	r6, [r1], #-1119	; 0x45f
 9c4:	61750061 	cmnvs	r5, r1, rrx
 9c8:	695f7472 	ldmdbvs	pc, {r1, r4, r5, r6, sl, ip, sp, lr}^	; <UNPREDICTABLE>
 9cc:	0074696e 	rsbseq	r6, r4, lr, ror #18
 9d0:	5f585541 	svcpl	0x00585541
 9d4:	495f554d 	ldmdbmi	pc, {r0, r2, r3, r6, r8, sl, ip, lr}^	; <UNPREDICTABLE>
 9d8:	525f5245 	subspl	r5, pc, #1342177284	; 0x50000004
 9dc:	41004745 	tstmi	r0, r5, asr #14
 9e0:	4d5f5855 	ldclmi	8, cr5, [pc, #-340]	; 894 <_start-0x776c>
 9e4:	49495f55 	stmdbmi	r9, {r0, r2, r4, r6, r8, r9, sl, fp, ip, lr}^
 9e8:	45525f52 	ldrbmi	r5, [r2, #-3922]	; 0xf52
 9ec:	61750047 	cmnvs	r5, r7, asr #32
 9f0:	635f7472 	cmpvs	pc, #1912602624	; 0x72000000
 9f4:	705f6e61 	subsvc	r6, pc, r1, ror #28
 9f8:	00637475 	rsbeq	r7, r3, r5, ror r4
 9fc:	5f585541 	svcpl	0x00585541
 a00:	42414e45 	submi	r4, r1, #1104	; 0x450
 a04:	0053454c 	subseq	r4, r3, ip, asr #10
 a08:	5f585541 	svcpl	0x00585541
 a0c:	00515249 	subseq	r5, r1, r9, asr #4
 a10:	5f585541 	svcpl	0x00585541
 a14:	425f554d 	subsmi	r5, pc, #322961408	; 0x13400000
 a18:	5f445541 	svcpl	0x00445541
 a1c:	00474552 	subeq	r4, r7, r2, asr r5
 a20:	5f585541 	svcpl	0x00585541
 a24:	535f554d 	cmppl	pc, #322961408	; 0x13400000
 a28:	5f544154 	svcpl	0x00544154
 a2c:	00474552 	subeq	r4, r7, r2, asr r5
 a30:	5f585541 	svcpl	0x00585541
 a34:	535f554d 	cmppl	pc, #322961408	; 0x13400000
 a38:	54415243 	strbpl	r5, [r1], #-579	; 0x243
 a3c:	6d004843 	stcvs	8, cr4, [r0, #-268]	; 0xfffffef4
 a40:	72732d79 	rsbsvc	r2, r3, #7744	; 0x1e40
 a44:	61752f63 	cmnvs	r5, r3, ror #30
 a48:	632e7472 	teqvs	lr, #1912602624	; 0x72000000
 a4c:	58554100 	ldmdapl	r5, {r8, lr}^
 a50:	5f554d5f 	svcpl	0x00554d5f
 a54:	5f52434c 	svcpl	0x0052434c
 a58:	00474552 	subeq	r4, r7, r2, asr r5
 a5c:	5f585541 	svcpl	0x00585541
 a60:	4c5f554d 	cfldr64mi	mvdx5, [pc], {77}	; 0x4d
 a64:	525f5253 	subspl	r5, pc, #805306373	; 0x30000005
 a68:	75004745 	strvc	r4, [r0, #-1861]	; 0x745
 a6c:	5f747261 	svcpl	0x00747261
 a70:	63746567 	cmnvs	r4, #432013312	; 0x19c00000
 a74:	7973615f 	ldmdbvc	r3!, {r0, r1, r2, r3, r4, r6, r8, sp, lr}^
 a78:	6c00636e 	stcvs	3, cr6, [r0], {110}	; 0x6e
 a7c:	2f636269 	svccs	0x00636269
 a80:	736d656d 	cmnvc	sp, #457179136	; 0x1b400000
 a84:	632e7465 	teqvs	lr, #1694498816	; 0x65000000
	...

Disassembly of section .debug_frame:

00000000 <.debug_frame>:
   0:	0000000c 	andeq	r0, r0, ip
   4:	ffffffff 			; <UNDEFINED> instruction: 0xffffffff
   8:	7c020001 	stcvc	0, cr0, [r2], {1}
   c:	000d0c0e 	andeq	r0, sp, lr, lsl #24
  10:	00000014 	andeq	r0, r0, r4, lsl r0
  14:	00000000 	andeq	r0, r0, r0
  18:	00008010 	andeq	r8, r0, r0, lsl r0
  1c:	00000014 	andeq	r0, r0, r4, lsl r0
  20:	83080e42 	movwhi	r0, #36418	; 0x8e42
  24:	00018e02 	andeq	r8, r1, r2, lsl #28
  28:	00000014 	andeq	r0, r0, r4, lsl r0
  2c:	00000000 	andeq	r0, r0, r0
  30:	00008024 	andeq	r8, r0, r4, lsr #32
  34:	00000018 	andeq	r0, r0, r8, lsl r0
  38:	83080e42 	movwhi	r0, #36418	; 0x8e42
  3c:	00018e02 	andeq	r8, r1, r2, lsl #28
  40:	00000018 	andeq	r0, r0, r8, lsl r0
  44:	00000000 	andeq	r0, r0, r0
  48:	0000803c 	andeq	r8, r0, ip, lsr r0
  4c:	000000d4 	ldrdeq	r0, [r0], -r4
  50:	84100e42 	ldrhi	r0, [r0], #-3650	; 0xe42
  54:	86038504 	strhi	r8, [r3], -r4, lsl #10
  58:	00018e02 	andeq	r8, r1, r2, lsl #28
  5c:	0000000c 	andeq	r0, r0, ip
  60:	ffffffff 			; <UNDEFINED> instruction: 0xffffffff
  64:	7c020001 	stcvc	0, cr0, [r2], {1}
  68:	000d0c0e 	andeq	r0, sp, lr, lsl #24
  6c:	00000024 	andeq	r0, r0, r4, lsr #32
  70:	0000005c 	andeq	r0, r0, ip, asr r0
  74:	00008110 	andeq	r8, r0, r0, lsl r1
  78:	00000058 	andeq	r0, r0, r8, asr r0
  7c:	80100e42 	andshi	r0, r0, r2, asr #28
  80:	82038104 	andhi	r8, r3, #4, 2
  84:	42018302 	andmi	r8, r1, #134217728	; 0x8000000
  88:	07841c0e 	streq	r1, [r4, lr, lsl #24]
  8c:	058e0685 	streq	r0, [lr, #1669]	; 0x685
  90:	00280e42 	eoreq	r0, r8, r2, asr #28
  94:	0000000c 	andeq	r0, r0, ip
  98:	ffffffff 			; <UNDEFINED> instruction: 0xffffffff
  9c:	7c020001 	stcvc	0, cr0, [r2], {1}
  a0:	000d0c0e 	andeq	r0, sp, lr, lsl #24
  a4:	00000018 	andeq	r0, r0, r8, lsl r0
  a8:	00000094 	muleq	r0, r4, r0
  ac:	00008168 	andeq	r8, r0, r8, ror #2
  b0:	00000034 	andeq	r0, r0, r4, lsr r0
  b4:	83100e42 	tsthi	r0, #1056	; 0x420
  b8:	85038404 	strhi	r8, [r3, #-1028]	; 0x404
  bc:	00018e02 	andeq	r8, r1, r2, lsl #28
  c0:	0000000c 	andeq	r0, r0, ip
  c4:	ffffffff 			; <UNDEFINED> instruction: 0xffffffff
  c8:	7c020001 	stcvc	0, cr0, [r2], {1}
  cc:	000d0c0e 	andeq	r0, sp, lr, lsl #24
  d0:	0000000c 	andeq	r0, r0, ip
  d4:	000000c0 	andeq	r0, r0, r0, asr #1
  d8:	0000819c 	muleq	r0, ip, r1
  dc:	00000014 	andeq	r0, r0, r4, lsl r0
  e0:	0000000c 	andeq	r0, r0, ip
  e4:	000000c0 	andeq	r0, r0, r0, asr #1
  e8:	000081b0 			; <UNDEFINED> instruction: 0x000081b0
  ec:	0000002c 	andeq	r0, r0, ip, lsr #32
  f0:	0000000c 	andeq	r0, r0, ip
  f4:	000000c0 	andeq	r0, r0, r0, asr #1
  f8:	000081dc 	ldrdeq	r8, [r0], -ip
  fc:	00000040 	andeq	r0, r0, r0, asr #32
 100:	00000020 	andeq	r0, r0, r0, lsr #32
 104:	000000c0 	andeq	r0, r0, r0, asr #1
 108:	0000821c 	andeq	r8, r0, ip, lsl r2
 10c:	000001a8 	andeq	r0, r0, r8, lsr #3
 110:	84180e42 	ldrhi	r0, [r8], #-3650	; 0xe42
 114:	86058506 	strhi	r8, [r5], -r6, lsl #10
 118:	88038704 	stmdahi	r3, {r2, r8, r9, sl, pc}
 11c:	42018e02 	andmi	r8, r1, #2, 28
 120:	0000600e 	andeq	r6, r0, lr
 124:	00000014 	andeq	r0, r0, r4, lsl r0
 128:	000000c0 	andeq	r0, r0, r0, asr #1
 12c:	000083c4 	andeq	r8, r0, r4, asr #7
 130:	00000068 	andeq	r0, r0, r8, rrx
 134:	8e040e42 	cdphi	14, 0, cr0, cr4, cr2, {2}
 138:	100e4201 	andne	r4, lr, r1, lsl #4
 13c:	00000028 	andeq	r0, r0, r8, lsr #32
 140:	000000c0 	andeq	r0, r0, r0, asr #1
 144:	0000842c 	andeq	r8, r0, ip, lsr #8
 148:	00000294 	muleq	r0, r4, r2
 14c:	84240e42 	strthi	r0, [r4], #-3650	; 0xe42
 150:	86088509 	strhi	r8, [r8], -r9, lsl #10
 154:	88068707 	stmdahi	r6, {r0, r1, r2, r8, r9, sl, pc}
 158:	8a048905 	bhi	122574 <__bss_end__+0x118704>
 15c:	8e028b03 	vmlahi.f64	d8, d2, d3
 160:	b00e4201 	andlt	r4, lr, r1, lsl #4
 164:	00000001 	andeq	r0, r0, r1
 168:	0000000c 	andeq	r0, r0, ip
 16c:	ffffffff 			; <UNDEFINED> instruction: 0xffffffff
 170:	7c020001 	stcvc	0, cr0, [r2], {1}
 174:	000d0c0e 	andeq	r0, sp, lr, lsl #24
 178:	00000014 	andeq	r0, r0, r4, lsl r0
 17c:	00000168 	andeq	r0, r0, r8, ror #2
 180:	000086c0 	andeq	r8, r0, r0, asr #13
 184:	00000028 	andeq	r0, r0, r8, lsr #32
 188:	83080e42 	movwhi	r0, #36418	; 0x8e42
 18c:	00018e02 	andeq	r8, r1, r2, lsl #28
 190:	0000000c 	andeq	r0, r0, ip
 194:	ffffffff 			; <UNDEFINED> instruction: 0xffffffff
 198:	7c020001 	stcvc	0, cr0, [r2], {1}
 19c:	000d0c0e 	andeq	r0, sp, lr, lsl #24
 1a0:	00000014 	andeq	r0, r0, r4, lsl r0
 1a4:	00000190 	muleq	r0, r0, r1
 1a8:	000086e8 	andeq	r8, r0, r8, ror #13
 1ac:	00000020 	andeq	r0, r0, r0, lsr #32
 1b0:	84080e42 	strhi	r0, [r8], #-3650	; 0xe42
 1b4:	00018e02 	andeq	r8, r1, r2, lsl #28
 1b8:	00000014 	andeq	r0, r0, r4, lsl r0
 1bc:	00000190 	muleq	r0, r0, r1
 1c0:	00008708 	andeq	r8, r0, r8, lsl #14
 1c4:	00000090 	muleq	r0, r0, r0
 1c8:	83080e42 	movwhi	r0, #36418	; 0x8e42
 1cc:	00018e02 	andeq	r8, r1, r2, lsl #28
 1d0:	0000000c 	andeq	r0, r0, ip
 1d4:	ffffffff 			; <UNDEFINED> instruction: 0xffffffff
 1d8:	7c020001 	stcvc	0, cr0, [r2], {1}
 1dc:	000d0c0e 	andeq	r0, sp, lr, lsl #24
 1e0:	0000000c 	andeq	r0, r0, ip
 1e4:	000001d0 	ldrdeq	r0, [r0], -r0	; <UNPREDICTABLE>
 1e8:	00008798 	muleq	r0, r8, r7
 1ec:	00000018 	andeq	r0, r0, r8, lsl r0
 1f0:	0000000c 	andeq	r0, r0, ip
 1f4:	000001d0 	ldrdeq	r0, [r0], -r0	; <UNPREDICTABLE>
 1f8:	000087b0 			; <UNDEFINED> instruction: 0x000087b0
 1fc:	00000014 	andeq	r0, r0, r4, lsl r0
 200:	00000014 	andeq	r0, r0, r4, lsl r0
 204:	000001d0 	ldrdeq	r0, [r0], -r0	; <UNPREDICTABLE>
 208:	000087c4 	andeq	r8, r0, r4, asr #15
 20c:	00000048 	andeq	r0, r0, r8, asr #32
 210:	83080e42 	movwhi	r0, #36418	; 0x8e42
 214:	00018e02 	andeq	r8, r1, r2, lsl #28
 218:	0000000c 	andeq	r0, r0, ip
 21c:	ffffffff 			; <UNDEFINED> instruction: 0xffffffff
 220:	7c020001 	stcvc	0, cr0, [r2], {1}
 224:	000d0c0e 	andeq	r0, sp, lr, lsl #24
 228:	0000000c 	andeq	r0, r0, ip
 22c:	00000218 	andeq	r0, r0, r8, lsl r2
 230:	0000880c 	andeq	r8, r0, ip, lsl #16
 234:	0000001c 	andeq	r0, r0, ip, lsl r0
 238:	00000014 	andeq	r0, r0, r4, lsl r0
 23c:	00000218 	andeq	r0, r0, r8, lsl r2
 240:	00008828 	andeq	r8, r0, r8, lsr #16
 244:	00000014 	andeq	r0, r0, r4, lsl r0
 248:	83080e42 	movwhi	r0, #36418	; 0x8e42
 24c:	00018e02 	andeq	r8, r1, r2, lsl #28
 250:	00000014 	andeq	r0, r0, r4, lsl r0
 254:	00000218 	andeq	r0, r0, r8, lsl r2
 258:	0000883c 	andeq	r8, r0, ip, lsr r8
 25c:	0000000c 	andeq	r0, r0, ip
 260:	83080e42 	movwhi	r0, #36418	; 0x8e42
 264:	00018e02 	andeq	r8, r1, r2, lsl #28
 268:	00000018 	andeq	r0, r0, r8, lsl r0
 26c:	00000218 	andeq	r0, r0, r8, lsl r2
 270:	00008848 	andeq	r8, r0, r8, asr #16
 274:	00000024 	andeq	r0, r0, r4, lsr #32
 278:	83100e42 	tsthi	r0, #1056	; 0x420
 27c:	85038404 	strhi	r8, [r3, #-1028]	; 0x404
 280:	00018e02 	andeq	r8, r1, r2, lsl #28
 284:	00000014 	andeq	r0, r0, r4, lsl r0
 288:	00000218 	andeq	r0, r0, r8, lsl r2
 28c:	0000886c 	andeq	r8, r0, ip, ror #16
 290:	00000014 	andeq	r0, r0, r4, lsl r0
 294:	83080e42 	movwhi	r0, #36418	; 0x8e42
 298:	00018e02 	andeq	r8, r1, r2, lsl #28
 29c:	00000014 	andeq	r0, r0, r4, lsl r0
 2a0:	00000218 	andeq	r0, r0, r8, lsl r2
 2a4:	00008880 	andeq	r8, r0, r0, lsl #17
 2a8:	00000014 	andeq	r0, r0, r4, lsl r0
 2ac:	83080e42 	movwhi	r0, #36418	; 0x8e42
 2b0:	00018e02 	andeq	r8, r1, r2, lsl #28
 2b4:	0000000c 	andeq	r0, r0, ip
 2b8:	ffffffff 			; <UNDEFINED> instruction: 0xffffffff
 2bc:	7c020001 	stcvc	0, cr0, [r2], {1}
 2c0:	000d0c0e 	andeq	r0, sp, lr, lsl #24
 2c4:	0000001c 	andeq	r0, r0, ip, lsl r0
 2c8:	000002b4 			; <UNDEFINED> instruction: 0x000002b4
 2cc:	00008894 	muleq	r0, r4, r8
 2d0:	00000154 	andeq	r0, r0, r4, asr r1
 2d4:	84180e42 	ldrhi	r0, [r8], #-3650	; 0xe42
 2d8:	86058506 	strhi	r8, [r5], -r6, lsl #10
 2dc:	88038704 	stmdahi	r3, {r2, r8, r9, sl, pc}
 2e0:	00018e02 	andeq	r8, r1, r2, lsl #28
 2e4:	00000020 	andeq	r0, r0, r0, lsr #32
 2e8:	000002b4 			; <UNDEFINED> instruction: 0x000002b4
 2ec:	000089e8 	andeq	r8, r0, r8, ror #19
 2f0:	000001c8 	andeq	r0, r0, r8, asr #3
 2f4:	83200e42 	teqhi	r0, #1056	; 0x420
 2f8:	85078408 	strhi	r8, [r7, #-1032]	; 0x408
 2fc:	87058606 	strhi	r8, [r5, -r6, lsl #12]
 300:	89038804 	stmdbhi	r3, {r2, fp, pc}
 304:	00018e02 	andeq	r8, r1, r2, lsl #28
 308:	00000024 	andeq	r0, r0, r4, lsr #32
 30c:	000002b4 			; <UNDEFINED> instruction: 0x000002b4
 310:	00008bb0 			; <UNDEFINED> instruction: 0x00008bb0
 314:	000000a4 	andeq	r0, r0, r4, lsr #1
 318:	84200e42 	strthi	r0, [r0], #-3650	; 0xe42
 31c:	86078508 	strhi	r8, [r7], -r8, lsl #10
 320:	88058706 	stmdahi	r5, {r1, r2, r8, r9, sl, pc}
 324:	8a038904 	bhi	e273c <__bss_end__+0xd88cc>
 328:	42018e02 	andmi	r8, r1, #2, 28
 32c:	0000280e 	andeq	r2, r0, lr, lsl #16
 330:	00000020 	andeq	r0, r0, r0, lsr #32
 334:	000002b4 			; <UNDEFINED> instruction: 0x000002b4
 338:	00008c54 	andeq	r8, r0, r4, asr ip
 33c:	00000090 	muleq	r0, r0, r0
 340:	84180e42 	ldrhi	r0, [r8], #-3650	; 0xe42
 344:	86058506 	strhi	r8, [r5], -r6, lsl #10
 348:	88038704 	stmdahi	r3, {r2, r8, r9, sl, pc}
 34c:	42018e02 	andmi	r8, r1, #2, 28
 350:	0000200e 	andeq	r2, r0, lr
 354:	00000020 	andeq	r0, r0, r0, lsr #32
 358:	000002b4 			; <UNDEFINED> instruction: 0x000002b4
 35c:	00008ce4 	andeq	r8, r0, r4, ror #25
 360:	000000d4 	ldrdeq	r0, [r0], -r4
 364:	84180e42 	ldrhi	r0, [r8], #-3650	; 0xe42
 368:	86058506 	strhi	r8, [r5], -r6, lsl #10
 36c:	88038704 	stmdahi	r3, {r2, r8, r9, sl, pc}
 370:	42018e02 	andmi	r8, r1, #2, 28
 374:	0000200e 	andeq	r2, r0, lr
 378:	00000014 	andeq	r0, r0, r4, lsl r0
 37c:	000002b4 			; <UNDEFINED> instruction: 0x000002b4
 380:	00008db8 			; <UNDEFINED> instruction: 0x00008db8
 384:	0000003c 	andeq	r0, r0, ip, lsr r0
 388:	83080e42 	movwhi	r0, #36418	; 0x8e42
 38c:	00018e02 	andeq	r8, r1, r2, lsl #28
 390:	00000018 	andeq	r0, r0, r8, lsl r0
 394:	000002b4 			; <UNDEFINED> instruction: 0x000002b4
 398:	00008df4 	strdeq	r8, [r0], -r4
 39c:	0000002c 	andeq	r0, r0, ip, lsr #32
 3a0:	83100e42 	tsthi	r0, #1056	; 0x420
 3a4:	85038404 	strhi	r8, [r3, #-1028]	; 0x404
 3a8:	00018e02 	andeq	r8, r1, r2, lsl #28
 3ac:	00000024 	andeq	r0, r0, r4, lsr #32
 3b0:	000002b4 			; <UNDEFINED> instruction: 0x000002b4
 3b4:	00008e20 	andeq	r8, r0, r0, lsr #28
 3b8:	00000090 	muleq	r0, r0, r0
 3bc:	810c0e42 	tsthi	ip, r2, asr #28
 3c0:	83028203 	movwhi	r8, #8707	; 0x2203
 3c4:	180e4201 	stmdane	lr, {r0, r9, lr}
 3c8:	05850684 	streq	r0, [r5, #1668]	; 0x684
 3cc:	0e42048e 	cdpeq	4, 4, cr0, cr2, cr14, {4}
 3d0:	000003f0 	strdeq	r0, [r0], -r0	; <UNPREDICTABLE>
 3d4:	00000014 	andeq	r0, r0, r4, lsl r0
 3d8:	000002b4 			; <UNDEFINED> instruction: 0x000002b4
 3dc:	00008eb0 			; <UNDEFINED> instruction: 0x00008eb0
 3e0:	0000004c 	andeq	r0, r0, ip, asr #32
 3e4:	8e040e42 	cdphi	14, 0, cr0, cr4, cr2, {2}
 3e8:	100e4201 	andne	r4, lr, r1, lsl #4
 3ec:	0000000c 	andeq	r0, r0, ip
 3f0:	ffffffff 			; <UNDEFINED> instruction: 0xffffffff
 3f4:	7c020001 	stcvc	0, cr0, [r2], {1}
 3f8:	000d0c0e 	andeq	r0, sp, lr, lsl #24
 3fc:	00000018 	andeq	r0, r0, r8, lsl r0
 400:	000003ec 	andeq	r0, r0, ip, ror #7
 404:	00008f48 	andeq	r8, r0, r8, asr #30
 408:	000000d4 	ldrdeq	r0, [r0], -r4
 40c:	83100e42 	tsthi	r0, #1056	; 0x420
 410:	85038404 	strhi	r8, [r3, #-1028]	; 0x404
 414:	00018e02 	andeq	r8, r1, r2, lsl #28
 418:	00000014 	andeq	r0, r0, r4, lsl r0
 41c:	000003ec 	andeq	r0, r0, ip, ror #7
 420:	0000901c 	andeq	r9, r0, ip, lsl r0
 424:	00000038 	andeq	r0, r0, r8, lsr r0
 428:	83080e42 	movwhi	r0, #36418	; 0x8e42
 42c:	00018e02 	andeq	r8, r1, r2, lsl #28
 430:	00000014 	andeq	r0, r0, r4, lsl r0
 434:	000003ec 	andeq	r0, r0, ip, ror #7
 438:	00009054 	andeq	r9, r0, r4, asr r0
 43c:	00000038 	andeq	r0, r0, r8, lsr r0
 440:	83080e42 	movwhi	r0, #36418	; 0x8e42
 444:	00018e02 	andeq	r8, r1, r2, lsl #28
 448:	00000018 	andeq	r0, r0, r8, lsl r0
 44c:	000003ec 	andeq	r0, r0, ip, ror #7
 450:	0000908c 	andeq	r9, r0, ip, lsl #1
 454:	000000cc 	andeq	r0, r0, ip, asr #1
 458:	83100e42 	tsthi	r0, #1056	; 0x420
 45c:	85038404 	strhi	r8, [r3, #-1028]	; 0x404
 460:	00018e02 	andeq	r8, r1, r2, lsl #28
 464:	00000014 	andeq	r0, r0, r4, lsl r0
 468:	000003ec 	andeq	r0, r0, ip, ror #7
 46c:	00009158 	andeq	r9, r0, r8, asr r1
 470:	0000004c 	andeq	r0, r0, ip, asr #32
 474:	84080e42 	strhi	r0, [r8], #-3650	; 0xe42
 478:	00018e02 	andeq	r8, r1, r2, lsl #28
 47c:	00000014 	andeq	r0, r0, r4, lsl r0
 480:	000003ec 	andeq	r0, r0, ip, ror #7
 484:	000091a4 	andeq	r9, r0, r4, lsr #3
 488:	00000024 	andeq	r0, r0, r4, lsr #32
 48c:	83080e42 	movwhi	r0, #36418	; 0x8e42
 490:	00018e02 	andeq	r8, r1, r2, lsl #28
 494:	00000018 	andeq	r0, r0, r8, lsl r0
 498:	000003ec 	andeq	r0, r0, ip, ror #7
 49c:	000091c8 	andeq	r9, r0, r8, asr #3
 4a0:	000000d8 	ldrdeq	r0, [r0], -r8
 4a4:	84100e42 	ldrhi	r0, [r0], #-3650	; 0xe42
 4a8:	86038504 	strhi	r8, [r3], -r4, lsl #10
 4ac:	00018e02 	andeq	r8, r1, r2, lsl #28
 4b0:	00000014 	andeq	r0, r0, r4, lsl r0
 4b4:	000003ec 	andeq	r0, r0, ip, ror #7
 4b8:	000092a0 	andeq	r9, r0, r0, lsr #5
 4bc:	0000002c 	andeq	r0, r0, ip, lsr #32
 4c0:	83080e42 	movwhi	r0, #36418	; 0x8e42
 4c4:	00018e02 	andeq	r8, r1, r2, lsl #28
 4c8:	00000018 	andeq	r0, r0, r8, lsl r0
 4cc:	000003ec 	andeq	r0, r0, ip, ror #7
 4d0:	000092cc 	andeq	r9, r0, ip, asr #5
 4d4:	00000084 	andeq	r0, r0, r4, lsl #1
 4d8:	83100e42 	tsthi	r0, #1056	; 0x420
 4dc:	85038404 	strhi	r8, [r3, #-1028]	; 0x404
 4e0:	00018e02 	andeq	r8, r1, r2, lsl #28
 4e4:	00000018 	andeq	r0, r0, r8, lsl r0
 4e8:	000003ec 	andeq	r0, r0, ip, ror #7
 4ec:	00009350 	andeq	r9, r0, r0, asr r3
 4f0:	00000084 	andeq	r0, r0, r4, lsl #1
 4f4:	83100e42 	tsthi	r0, #1056	; 0x420
 4f8:	85038404 	strhi	r8, [r3, #-1028]	; 0x404
 4fc:	00018e02 	andeq	r8, r1, r2, lsl #28
 500:	00000014 	andeq	r0, r0, r4, lsl r0
 504:	000003ec 	andeq	r0, r0, ip, ror #7
 508:	000093d4 	ldrdeq	r9, [r0], -r4
 50c:	00000084 	andeq	r0, r0, r4, lsl #1
 510:	84080e42 	strhi	r0, [r8], #-3650	; 0xe42
 514:	00018e02 	andeq	r8, r1, r2, lsl #28
 518:	00000014 	andeq	r0, r0, r4, lsl r0
 51c:	000003ec 	andeq	r0, r0, ip, ror #7
 520:	00009458 	andeq	r9, r0, r8, asr r4
 524:	00000058 	andeq	r0, r0, r8, asr r0
 528:	84080e42 	strhi	r0, [r8], #-3650	; 0xe42
 52c:	00018e02 	andeq	r8, r1, r2, lsl #28
 530:	0000000c 	andeq	r0, r0, ip
 534:	ffffffff 			; <UNDEFINED> instruction: 0xffffffff
 538:	7c020001 	stcvc	0, cr0, [r2], {1}
 53c:	000d0c0e 	andeq	r0, sp, lr, lsl #24
 540:	00000014 	andeq	r0, r0, r4, lsl r0
 544:	00000530 	andeq	r0, r0, r0, lsr r5
 548:	000094b0 			; <UNDEFINED> instruction: 0x000094b0
 54c:	00000014 	andeq	r0, r0, r4, lsl r0
 550:	84080e42 	strhi	r0, [r8], #-3650	; 0xe42
 554:	00018e02 	andeq	r8, r1, r2, lsl #28
 558:	0000000c 	andeq	r0, r0, ip
 55c:	00000530 	andeq	r0, r0, r0, lsr r5
 560:	000094c4 	andeq	r9, r0, r4, asr #9
 564:	00000018 	andeq	r0, r0, r8, lsl r0
 568:	0000000c 	andeq	r0, r0, ip
 56c:	00000530 	andeq	r0, r0, r0, lsr r5
 570:	000094dc 	ldrdeq	r9, [r0], -ip
 574:	00000010 	andeq	r0, r0, r0, lsl r0
 578:	0000000c 	andeq	r0, r0, ip
 57c:	ffffffff 			; <UNDEFINED> instruction: 0xffffffff
 580:	7c020001 	stcvc	0, cr0, [r2], {1}
 584:	000d0c0e 	andeq	r0, sp, lr, lsl #24
 588:	00000014 	andeq	r0, r0, r4, lsl r0
 58c:	00000578 	andeq	r0, r0, r8, ror r5
 590:	000094ec 	andeq	r9, r0, ip, ror #9
 594:	00000028 	andeq	r0, r0, r8, lsr #32
 598:	83080e42 	movwhi	r0, #36418	; 0x8e42
 59c:	00018e02 	andeq	r8, r1, r2, lsl #28
 5a0:	0000000c 	andeq	r0, r0, ip
 5a4:	00000578 	andeq	r0, r0, r8, ror r5
 5a8:	00009514 	andeq	r9, r0, r4, lsl r5
 5ac:	00000028 	andeq	r0, r0, r8, lsr #32
 5b0:	0000000c 	andeq	r0, r0, ip
 5b4:	ffffffff 			; <UNDEFINED> instruction: 0xffffffff
 5b8:	7c020001 	stcvc	0, cr0, [r2], {1}
 5bc:	000d0c0e 	andeq	r0, sp, lr, lsl #24
 5c0:	00000018 	andeq	r0, r0, r8, lsl r0
 5c4:	000005b0 			; <UNDEFINED> instruction: 0x000005b0
 5c8:	0000953c 	andeq	r9, r0, ip, lsr r5
 5cc:	0000009c 	muleq	r0, ip, r0
 5d0:	83100e42 	tsthi	r0, #1056	; 0x420
 5d4:	85038404 	strhi	r8, [r3, #-1028]	; 0x404
 5d8:	00018e02 	andeq	r8, r1, r2, lsl #28
 5dc:	00000014 	andeq	r0, r0, r4, lsl r0
 5e0:	000005b0 			; <UNDEFINED> instruction: 0x000005b0
 5e4:	000095d8 	ldrdeq	r9, [r0], -r8
 5e8:	0000001c 	andeq	r0, r0, ip, lsl r0
 5ec:	83080e42 	movwhi	r0, #36418	; 0x8e42
 5f0:	00018e02 	andeq	r8, r1, r2, lsl #28
 5f4:	00000014 	andeq	r0, r0, r4, lsl r0
 5f8:	000005b0 			; <UNDEFINED> instruction: 0x000005b0
 5fc:	000095f4 	strdeq	r9, [r0], -r4
 600:	00000028 	andeq	r0, r0, r8, lsr #32
 604:	83080e42 	movwhi	r0, #36418	; 0x8e42
 608:	00018e02 	andeq	r8, r1, r2, lsl #28
 60c:	00000014 	andeq	r0, r0, r4, lsl r0
 610:	000005b0 			; <UNDEFINED> instruction: 0x000005b0
 614:	0000961c 	andeq	r9, r0, ip, lsl r6
 618:	0000001c 	andeq	r0, r0, ip, lsl r0
 61c:	83080e42 	movwhi	r0, #36418	; 0x8e42
 620:	00018e02 	andeq	r8, r1, r2, lsl #28
 624:	00000014 	andeq	r0, r0, r4, lsl r0
 628:	000005b0 			; <UNDEFINED> instruction: 0x000005b0
 62c:	00009638 	andeq	r9, r0, r8, lsr r6
 630:	0000002c 	andeq	r0, r0, ip, lsr #32
 634:	84080e42 	strhi	r0, [r8], #-3650	; 0xe42
 638:	00018e02 	andeq	r8, r1, r2, lsl #28
 63c:	00000014 	andeq	r0, r0, r4, lsl r0
 640:	000005b0 			; <UNDEFINED> instruction: 0x000005b0
 644:	00009664 	andeq	r9, r0, r4, ror #12
 648:	0000000c 	andeq	r0, r0, ip
 64c:	83080e42 	movwhi	r0, #36418	; 0x8e42
 650:	00018e02 	andeq	r8, r1, r2, lsl #28
 654:	00000014 	andeq	r0, r0, r4, lsl r0
 658:	000005b0 			; <UNDEFINED> instruction: 0x000005b0
 65c:	00009670 	andeq	r9, r0, r0, ror r6
 660:	00000020 	andeq	r0, r0, r0, lsr #32
 664:	83080e42 	movwhi	r0, #36418	; 0x8e42
 668:	00018e02 	andeq	r8, r1, r2, lsl #28
 66c:	0000000c 	andeq	r0, r0, ip
 670:	ffffffff 			; <UNDEFINED> instruction: 0xffffffff
 674:	7c020001 	stcvc	0, cr0, [r2], {1}
 678:	000d0c0e 	andeq	r0, sp, lr, lsl #24
 67c:	0000000c 	andeq	r0, r0, ip
 680:	0000066c 	andeq	r0, r0, ip, ror #12
 684:	000096a8 	andeq	r9, r0, r8, lsr #13
 688:	00000020 	andeq	r0, r0, r0, lsr #32

Disassembly of section .debug_ranges:

00000000 <.debug_ranges>:
   0:	000002b4 			; <UNDEFINED> instruction: 0x000002b4
   4:	000002b8 			; <UNDEFINED> instruction: 0x000002b8
   8:	000002e8 	andeq	r0, r0, r8, ror #5
   c:	000004e0 	andeq	r0, r0, r0, ror #9
	...
  18:	00008798 	muleq	r0, r8, r7
  1c:	0000880c 	andeq	r8, r0, ip, lsl #16
	...
