
hello.elf:     file format elf32-littlearm


Disassembly of section .text:

00008000 <_start>:
    8000:	e3a0d302 	mov	sp, #134217728	; 0x8000000
    8004:	e3a0b000 	mov	fp, #0
    8008:	eb0001bb 	bl	86fc <_cstart>
    800c:	eb0001e9 	bl	87b8 <rpi_reboot>

00008010 <hello>:
    8010:	e92d4008 	push	{r3, lr}
    8014:	e59f0004 	ldr	r0, [pc, #4]	; 8020 <hello+0x10>
    8018:	eb000039 	bl	8104 <printk>
    801c:	e8bd8008 	pop	{r3, pc}
    8020:	00009758 	andeq	r9, r0, r8, asr r7

00008024 <foo>:
    8024:	e92d4008 	push	{r3, lr}
    8028:	e1a01000 	mov	r1, r0
    802c:	e59f0004 	ldr	r0, [pc, #4]	; 8038 <foo+0x14>
    8030:	eb000033 	bl	8104 <printk>
    8034:	eb00019e 	bl	86b4 <clean_reboot>
    8038:	00009768 	andeq	r9, r0, r8, ror #14

0000803c <notmain>:
    803c:	e92d4070 	push	{r4, r5, r6, lr}
    8040:	e59f3094 	ldr	r3, [pc, #148]	; 80dc <notmain+0xa0>
    8044:	e59f2094 	ldr	r2, [pc, #148]	; 80e0 <notmain+0xa4>
    8048:	e5832000 	str	r2, [r3]
    804c:	e2822a0b 	add	r2, r2, #45056	; 0xb000
    8050:	e5832004 	str	r2, [r3, #4]
    8054:	e59f2088 	ldr	r2, [pc, #136]	; 80e4 <notmain+0xa8>
    8058:	e5832008 	str	r2, [r3, #8]
    805c:	e59f2084 	ldr	r2, [pc, #132]	; 80e8 <notmain+0xac>
    8060:	e583200c 	str	r2, [r3, #12]
    8064:	e2822903 	add	r2, r2, #49152	; 0xc000
    8068:	e5832010 	str	r2, [r3, #16]
    806c:	e59f2078 	ldr	r2, [pc, #120]	; 80ec <notmain+0xb0>
    8070:	e5832014 	str	r2, [r3, #20]
    8074:	e59f0074 	ldr	r0, [pc, #116]	; 80f0 <notmain+0xb4>
    8078:	eb000021 	bl	8104 <printk>
    807c:	e3a04000 	mov	r4, #0
    8080:	e59f606c 	ldr	r6, [pc, #108]	; 80f4 <notmain+0xb8>
    8084:	e59f5050 	ldr	r5, [pc, #80]	; 80dc <notmain+0xa0>
    8088:	ea000004 	b	80a0 <notmain+0x64>
    808c:	e1a00006 	mov	r0, r6
    8090:	e1a01004 	mov	r1, r4
    8094:	e7952104 	ldr	r2, [r5, r4, lsl #2]
    8098:	eb000019 	bl	8104 <printk>
    809c:	e2844001 	add	r4, r4, #1
    80a0:	e3540004 	cmp	r4, #4
    80a4:	9afffff8 	bls	808c <notmain+0x50>
    80a8:	e59f502c 	ldr	r5, [pc, #44]	; 80dc <notmain+0xa0>
    80ac:	e59f0044 	ldr	r0, [pc, #68]	; 80f8 <notmain+0xbc>
    80b0:	e1a01005 	mov	r1, r5
    80b4:	eb000012 	bl	8104 <printk>
    80b8:	e59f403c 	ldr	r4, [pc, #60]	; 80fc <notmain+0xc0>
    80bc:	e1a00004 	mov	r0, r4
    80c0:	eb00000f 	bl	8104 <printk>
    80c4:	e12fff35 	blx	r5
    80c8:	e1a00004 	mov	r0, r4
    80cc:	eb00000c 	bl	8104 <printk>
    80d0:	e59f0028 	ldr	r0, [pc, #40]	; 8100 <notmain+0xc4>
    80d4:	eb00000a 	bl	8104 <printk>
    80d8:	eb000175 	bl	86b4 <clean_reboot>
    80dc:	00009a14 	andeq	r9, r0, r4, lsl sl
    80e0:	e52d3004 	push	{r3}		; (str r3, [sp, #-4]!)
    80e4:	e59f0004 	ldr	r0, [pc, #4]	; 80f0 <notmain+0xb4>
    80e8:	e49d3004 	pop	{r3}		; (ldr r3, [sp], #4)
    80ec:	00009758 	andeq	r9, r0, r8, asr r7
    80f0:	0000977c 	andeq	r9, r0, ip, ror r7
    80f4:	0000978c 	andeq	r9, r0, ip, lsl #15
    80f8:	0000979c 	muleq	r0, ip, r7
    80fc:	000097b0 			; <UNDEFINED> instruction: 0x000097b0
    8100:	000097d8 	ldrdeq	r9, [r0], -r8

00008104 <printk>:
    8104:	e92d000f 	push	{r0, r1, r2, r3}
    8108:	e92d4030 	push	{r4, r5, lr}
    810c:	e24dd00c 	sub	sp, sp, #12
    8110:	e28d301c 	add	r3, sp, #28
    8114:	e58d3004 	str	r3, [sp, #4]
    8118:	e59f4034 	ldr	r4, [pc, #52]	; 8154 <printk+0x50>
    811c:	e1a00004 	mov	r0, r4
    8120:	e3a01b01 	mov	r1, #1024	; 0x400
    8124:	e59d2018 	ldr	r2, [sp, #24]
    8128:	eb0000bc 	bl	8420 <va_printk>
    812c:	e1a05000 	mov	r5, r0
    8130:	e59f3020 	ldr	r3, [pc, #32]	; 8158 <printk+0x54>
    8134:	e5933000 	ldr	r3, [r3]
    8138:	e1a00004 	mov	r0, r4
    813c:	e12fff33 	blx	r3
    8140:	e1a00005 	mov	r0, r5
    8144:	e28dd00c 	add	sp, sp, #12
    8148:	e8bd4030 	pop	{r4, r5, lr}
    814c:	e28dd010 	add	sp, sp, #16
    8150:	e12fff1e 	bx	lr
    8154:	00009a54 	andeq	r9, r0, r4, asr sl
    8158:	000096bc 			; <UNDEFINED> instruction: 0x000096bc

0000815c <internal_putk>:
    815c:	e92d4038 	push	{r3, r4, r5, lr}
    8160:	e1a04000 	mov	r4, r0
    8164:	e59f5020 	ldr	r5, [pc, #32]	; 818c <internal_putk+0x30>
    8168:	ea000002 	b	8178 <internal_putk+0x1c>
    816c:	e5953000 	ldr	r3, [r5]
    8170:	e12fff33 	blx	r3
    8174:	e2844001 	add	r4, r4, #1
    8178:	e5d40000 	ldrb	r0, [r4]
    817c:	e3500000 	cmp	r0, #0
    8180:	1afffff9 	bne	816c <internal_putk+0x10>
    8184:	e3a00001 	mov	r0, #1
    8188:	e8bd8038 	pop	{r3, r4, r5, pc}
    818c:	00009720 	andeq	r9, r0, r0, lsr #14

00008190 <isdigit>:
    8190:	e2400030 	sub	r0, r0, #48	; 0x30
    8194:	e3500009 	cmp	r0, #9
    8198:	83a00000 	movhi	r0, #0
    819c:	93a00001 	movls	r0, #1
    81a0:	e12fff1e 	bx	lr

000081a4 <pad>:
    81a4:	e0611000 	rsb	r1, r1, r0
    81a8:	e3a03020 	mov	r3, #32
    81ac:	ea000002 	b	81bc <pad+0x18>
    81b0:	e5c03000 	strb	r3, [r0]
    81b4:	e2811001 	add	r1, r1, #1
    81b8:	e2800001 	add	r0, r0, #1
    81bc:	e1510002 	cmp	r1, r2
    81c0:	bafffffa 	blt	81b0 <pad+0xc>
    81c4:	e3a03000 	mov	r3, #0
    81c8:	e5c03000 	strb	r3, [r0]
    81cc:	e12fff1e 	bx	lr

000081d0 <reverse>:
    81d0:	e063c002 	rsb	ip, r3, r2
    81d4:	e28cc001 	add	ip, ip, #1
    81d8:	e15c0001 	cmp	ip, r1
    81dc:	c061100c 	rsbgt	r1, r1, ip
    81e0:	c0833001 	addgt	r3, r3, r1
    81e4:	e2422001 	sub	r2, r2, #1
    81e8:	e1a01000 	mov	r1, r0
    81ec:	ea000002 	b	81fc <reverse+0x2c>
    81f0:	e452c001 	ldrb	ip, [r2], #-1
    81f4:	e5c1c000 	strb	ip, [r1]
    81f8:	e2811001 	add	r1, r1, #1
    81fc:	e1520003 	cmp	r2, r3
    8200:	2afffffa 	bcs	81f0 <reverse+0x20>
    8204:	e3a03000 	mov	r3, #0
    8208:	e5c13000 	strb	r3, [r1]
    820c:	e12fff1e 	bx	lr

00008210 <emit>:
    8210:	e92d41f0 	push	{r4, r5, r6, r7, r8, lr}
    8214:	e24dd048 	sub	sp, sp, #72	; 0x48
    8218:	e1a05001 	mov	r5, r1
    821c:	e1a04002 	mov	r4, r2
    8220:	e59d2060 	ldr	r2, [sp, #96]	; 0x60
    8224:	e1520004 	cmp	r2, r4
    8228:	c2442001 	subgt	r2, r4, #1
    822c:	e1a0c003 	mov	ip, r3
    8230:	e2400002 	sub	r0, r0, #2
    8234:	e350000e 	cmp	r0, #14
    8238:	979ff100 	ldrls	pc, [pc, r0, lsl #2]
    823c:	ea000042 	b	834c <emit+0x13c>
    8240:	00008324 	andeq	r8, r0, r4, lsr #6
    8244:	0000834c 	andeq	r8, r0, ip, asr #6
    8248:	0000834c 	andeq	r8, r0, ip, asr #6
    824c:	0000834c 	andeq	r8, r0, ip, asr #6
    8250:	0000834c 	andeq	r8, r0, ip, asr #6
    8254:	0000834c 	andeq	r8, r0, ip, asr #6
    8258:	00008318 	andeq	r8, r0, r8, lsl r3
    825c:	0000834c 	andeq	r8, r0, ip, asr #6
    8260:	0000827c 	andeq	r8, r0, ip, ror r2
    8264:	0000834c 	andeq	r8, r0, ip, asr #6
    8268:	0000834c 	andeq	r8, r0, ip, asr #6
    826c:	0000834c 	andeq	r8, r0, ip, asr #6
    8270:	0000834c 	andeq	r8, r0, ip, asr #6
    8274:	0000834c 	andeq	r8, r0, ip, asr #6
    8278:	000082f0 	strdeq	r8, [r0], -r0
    827c:	e59d1064 	ldr	r1, [sp, #100]	; 0x64
    8280:	e2911000 	adds	r1, r1, #0
    8284:	13a01001 	movne	r1, #1
    8288:	e0111fa3 	ands	r1, r1, r3, lsr #31
    828c:	1263c000 	rsbne	ip, r3, #0
    8290:	13a08001 	movne	r8, #1
    8294:	03a08000 	moveq	r8, #0
    8298:	e28d1008 	add	r1, sp, #8
    829c:	e59f70f4 	ldr	r7, [pc, #244]	; 8398 <emit+0x188>
    82a0:	e59f60f4 	ldr	r6, [pc, #244]	; 839c <emit+0x18c>
    82a4:	ea000000 	b	82ac <emit+0x9c>
    82a8:	e1a01003 	mov	r1, r3
    82ac:	e2813001 	add	r3, r1, #1
    82b0:	e08e0c97 	umull	r0, lr, r7, ip
    82b4:	e1a0e1ae 	lsr	lr, lr, #3
    82b8:	e1a0000e 	mov	r0, lr
    82bc:	e08ee10e 	add	lr, lr, lr, lsl #2
    82c0:	e1a0e08e 	lsl	lr, lr, #1
    82c4:	e06ee00c 	rsb	lr, lr, ip
    82c8:	e7d6c00e 	ldrb	ip, [r6, lr]
    82cc:	e5c1c000 	strb	ip, [r1]
    82d0:	e1a0c000 	mov	ip, r0
    82d4:	e3500000 	cmp	r0, #0
    82d8:	1afffff2 	bne	82a8 <emit+0x98>
    82dc:	e3580000 	cmp	r8, #0
    82e0:	12813002 	addne	r3, r1, #2
    82e4:	13a0002d 	movne	r0, #45	; 0x2d
    82e8:	15c10001 	strbne	r0, [r1, #1]
    82ec:	ea00001f 	b	8370 <emit+0x160>
    82f0:	e28de008 	add	lr, sp, #8
    82f4:	e59f00a4 	ldr	r0, [pc, #164]	; 83a0 <emit+0x190>
    82f8:	e28e3001 	add	r3, lr, #1
    82fc:	e20c100f 	and	r1, ip, #15
    8300:	e7d01001 	ldrb	r1, [r0, r1]
    8304:	e5ce1000 	strb	r1, [lr]
    8308:	e1a0e003 	mov	lr, r3
    830c:	e1b0c22c 	lsrs	ip, ip, #4
    8310:	1afffff8 	bne	82f8 <emit+0xe8>
    8314:	ea000015 	b	8370 <emit+0x160>
    8318:	e5cd3008 	strb	r3, [sp, #8]
    831c:	e28d3009 	add	r3, sp, #9
    8320:	ea000012 	b	8370 <emit+0x160>
    8324:	e28de008 	add	lr, sp, #8
    8328:	e59f0074 	ldr	r0, [pc, #116]	; 83a4 <emit+0x194>
    832c:	e28e3001 	add	r3, lr, #1
    8330:	e20c1001 	and	r1, ip, #1
    8334:	e7d01001 	ldrb	r1, [r0, r1]
    8338:	e5ce1000 	strb	r1, [lr]
    833c:	e1a0e003 	mov	lr, r3
    8340:	e1b0c0ac 	lsrs	ip, ip, #1
    8344:	1afffff8 	bne	832c <emit+0x11c>
    8348:	ea000008 	b	8370 <emit+0x160>
    834c:	eb000459 	bl	94b8 <rpi_reset_putc>
    8350:	e59f3050 	ldr	r3, [pc, #80]	; 83a8 <emit+0x198>
    8354:	e58d3000 	str	r3, [sp]
    8358:	e59f004c 	ldr	r0, [pc, #76]	; 83ac <emit+0x19c>
    835c:	e59f104c 	ldr	r1, [pc, #76]	; 83b0 <emit+0x1a0>
    8360:	e59f204c 	ldr	r2, [pc, #76]	; 83b4 <emit+0x1a4>
    8364:	e3a03075 	mov	r3, #117	; 0x75
    8368:	ebffff65 	bl	8104 <printk>
    836c:	eb0000d0 	bl	86b4 <clean_reboot>
    8370:	e1a00003 	mov	r0, r3
    8374:	e28d1008 	add	r1, sp, #8
    8378:	ebffff89 	bl	81a4 <pad>
    837c:	e1a02000 	mov	r2, r0
    8380:	e1a00005 	mov	r0, r5
    8384:	e1a01004 	mov	r1, r4
    8388:	e28d3008 	add	r3, sp, #8
    838c:	ebffff8f 	bl	81d0 <reverse>
    8390:	e28dd048 	add	sp, sp, #72	; 0x48
    8394:	e8bd81f0 	pop	{r4, r5, r6, r7, r8, pc}
    8398:	cccccccd 	stclgt	12, cr12, [ip], {205}	; 0xcd
    839c:	00009834 	andeq	r9, r0, r4, lsr r8
    83a0:	00009840 	andeq	r9, r0, r0, asr #16
    83a4:	00009854 	andeq	r9, r0, r4, asr r8
    83a8:	00009830 	andeq	r9, r0, r0, lsr r8
    83ac:	00009808 	andeq	r9, r0, r8, lsl #16
    83b0:	0000981c 	andeq	r9, r0, ip, lsl r8
    83b4:	000097e4 	andeq	r9, r0, r4, ror #15

000083b8 <rpi_set_output>:
    83b8:	e52de004 	push	{lr}		; (str lr, [sp, #-4]!)
    83bc:	e24dd00c 	sub	sp, sp, #12
    83c0:	e3500000 	cmp	r0, #0
    83c4:	1a000008 	bne	83ec <rpi_set_output+0x34>
    83c8:	eb00043a 	bl	94b8 <rpi_reset_putc>
    83cc:	e59f3034 	ldr	r3, [pc, #52]	; 8408 <rpi_set_output+0x50>
    83d0:	e58d3000 	str	r3, [sp]
    83d4:	e59f0030 	ldr	r0, [pc, #48]	; 840c <rpi_set_output+0x54>
    83d8:	e59f1030 	ldr	r1, [pc, #48]	; 8410 <rpi_set_output+0x58>
    83dc:	e59f2030 	ldr	r2, [pc, #48]	; 8414 <rpi_set_output+0x5c>
    83e0:	e3a03020 	mov	r3, #32
    83e4:	ebffff46 	bl	8104 <printk>
    83e8:	eb0000b1 	bl	86b4 <clean_reboot>
    83ec:	e59f3024 	ldr	r3, [pc, #36]	; 8418 <rpi_set_output+0x60>
    83f0:	e5830000 	str	r0, [r3]
    83f4:	e3510000 	cmp	r1, #0
    83f8:	159f301c 	ldrne	r3, [pc, #28]	; 841c <rpi_set_output+0x64>
    83fc:	15831000 	strne	r1, [r3]
    8400:	e28dd00c 	add	sp, sp, #12
    8404:	e49df004 	pop	{pc}		; (ldr pc, [sp], #4)
    8408:	00009858 	andeq	r9, r0, r8, asr r8
    840c:	00009808 	andeq	r9, r0, r8, lsl #16
    8410:	0000981c 	andeq	r9, r0, ip, lsl r8
    8414:	000097ec 	andeq	r9, r0, ip, ror #15
    8418:	00009720 	andeq	r9, r0, r0, lsr #14
    841c:	000096bc 			; <UNDEFINED> instruction: 0x000096bc

00008420 <va_printk>:
    8420:	e92d4ff0 	push	{r4, r5, r6, r7, r8, r9, sl, fp, lr}
    8424:	e24dd08c 	sub	sp, sp, #140	; 0x8c
    8428:	e1a0a000 	mov	sl, r0
    842c:	e1a09003 	mov	r9, r3
    8430:	e2411001 	sub	r1, r1, #1
    8434:	e0808001 	add	r8, r0, r1
    8438:	e3a03000 	mov	r3, #0
    843c:	e5c03000 	strb	r3, [r0]
    8440:	e1a04000 	mov	r4, r0
    8444:	e1a0b003 	mov	fp, r3
    8448:	ea000088 	b	8670 <va_printk+0x250>
    844c:	e3530025 	cmp	r3, #37	; 0x25
    8450:	12822001 	addne	r2, r2, #1
    8454:	15c43000 	strbne	r3, [r4]
    8458:	12844001 	addne	r4, r4, #1
    845c:	1a000083 	bne	8670 <va_printk+0x250>
    8460:	e5d21001 	ldrb	r1, [r2, #1]
    8464:	e3510025 	cmp	r1, #37	; 0x25
    8468:	05c43000 	strbeq	r3, [r4]
    846c:	02822002 	addeq	r2, r2, #2
    8470:	02844001 	addeq	r4, r4, #1
    8474:	0a00007d 	beq	8670 <va_printk+0x250>
    8478:	e2826001 	add	r6, r2, #1
    847c:	e1a0700b 	mov	r7, fp
    8480:	ea000004 	b	8498 <va_printk+0x78>
    8484:	e0877107 	add	r7, r7, r7, lsl #2
    8488:	e1a07087 	lsl	r7, r7, #1
    848c:	e0877005 	add	r7, r7, r5
    8490:	e2477030 	sub	r7, r7, #48	; 0x30
    8494:	e2866001 	add	r6, r6, #1
    8498:	e5d65000 	ldrb	r5, [r6]
    849c:	e1a00005 	mov	r0, r5
    84a0:	ebffff3a 	bl	8190 <isdigit>
    84a4:	e3500000 	cmp	r0, #0
    84a8:	1afffff5 	bne	8484 <va_printk+0x64>
    84ac:	e357001f 	cmp	r7, #31
    84b0:	9a000008 	bls	84d8 <va_printk+0xb8>
    84b4:	eb0003ff 	bl	94b8 <rpi_reset_putc>
    84b8:	e59f31dc 	ldr	r3, [pc, #476]	; 869c <va_printk+0x27c>
    84bc:	e58d3000 	str	r3, [sp]
    84c0:	e59f01d8 	ldr	r0, [pc, #472]	; 86a0 <va_printk+0x280>
    84c4:	e59f11d8 	ldr	r1, [pc, #472]	; 86a4 <va_printk+0x284>
    84c8:	e59f21d8 	ldr	r2, [pc, #472]	; 86a8 <va_printk+0x288>
    84cc:	e3a03092 	mov	r3, #146	; 0x92
    84d0:	ebffff0b 	bl	8104 <printk>
    84d4:	eb000076 	bl	86b4 <clean_reboot>
    84d8:	e2455062 	sub	r5, r5, #98	; 0x62
    84dc:	e3550016 	cmp	r5, #22
    84e0:	979ff105 	ldrls	pc, [pc, r5, lsl #2]
    84e4:	ea00004e 	b	8624 <va_printk+0x204>
    84e8:	000085d0 	ldrdeq	r8, [r0], -r0
    84ec:	00008600 	andeq	r8, r0, r0, lsl #12
    84f0:	00008560 	andeq	r8, r0, r0, ror #10
    84f4:	00008624 	andeq	r8, r0, r4, lsr #12
    84f8:	00008544 	andeq	r8, r0, r4, asr #10
    84fc:	00008624 	andeq	r8, r0, r4, lsr #12
    8500:	00008624 	andeq	r8, r0, r4, lsr #12
    8504:	00008624 	andeq	r8, r0, r4, lsr #12
    8508:	00008624 	andeq	r8, r0, r4, lsr #12
    850c:	00008624 	andeq	r8, r0, r4, lsr #12
    8510:	00008624 	andeq	r8, r0, r4, lsr #12
    8514:	00008624 	andeq	r8, r0, r4, lsr #12
    8518:	00008624 	andeq	r8, r0, r4, lsr #12
    851c:	00008624 	andeq	r8, r0, r4, lsr #12
    8520:	000085ac 	andeq	r8, r0, ip, lsr #11
    8524:	00008624 	andeq	r8, r0, r4, lsr #12
    8528:	00008624 	andeq	r8, r0, r4, lsr #12
    852c:	000085f4 	strdeq	r8, [r0], -r4
    8530:	00008624 	andeq	r8, r0, r4, lsr #12
    8534:	00008588 	andeq	r8, r0, r8, lsl #11
    8538:	00008624 	andeq	r8, r0, r4, lsr #12
    853c:	00008624 	andeq	r8, r0, r4, lsr #12
    8540:	000085ac 	andeq	r8, r0, ip, lsr #11
    8544:	eb0003db 	bl	94b8 <rpi_reset_putc>
    8548:	e59f015c 	ldr	r0, [pc, #348]	; 86ac <va_printk+0x28c>
    854c:	e59f1150 	ldr	r1, [pc, #336]	; 86a4 <va_printk+0x284>
    8550:	e59f2150 	ldr	r2, [pc, #336]	; 86a8 <va_printk+0x288>
    8554:	e3a03098 	mov	r3, #152	; 0x98
    8558:	ebfffee9 	bl	8104 <printk>
    855c:	eb000054 	bl	86b4 <clean_reboot>
    8560:	e5993000 	ldr	r3, [r9]
    8564:	e2899004 	add	r9, r9, #4
    8568:	e58d7000 	str	r7, [sp]
    856c:	e3a02001 	mov	r2, #1
    8570:	e58d2004 	str	r2, [sp, #4]
    8574:	e3a0000a 	mov	r0, #10
    8578:	e28d1008 	add	r1, sp, #8
    857c:	e3a02080 	mov	r2, #128	; 0x80
    8580:	ebffff22 	bl	8210 <emit>
    8584:	ea00002f 	b	8648 <va_printk+0x228>
    8588:	e5993000 	ldr	r3, [r9]
    858c:	e2899004 	add	r9, r9, #4
    8590:	e58d7000 	str	r7, [sp]
    8594:	e58db004 	str	fp, [sp, #4]
    8598:	e3a0000a 	mov	r0, #10
    859c:	e28d1008 	add	r1, sp, #8
    85a0:	e3a02080 	mov	r2, #128	; 0x80
    85a4:	ebffff19 	bl	8210 <emit>
    85a8:	ea000026 	b	8648 <va_printk+0x228>
    85ac:	e5993000 	ldr	r3, [r9]
    85b0:	e2899004 	add	r9, r9, #4
    85b4:	e58d7000 	str	r7, [sp]
    85b8:	e58db004 	str	fp, [sp, #4]
    85bc:	e3a00010 	mov	r0, #16
    85c0:	e28d1008 	add	r1, sp, #8
    85c4:	e3a02080 	mov	r2, #128	; 0x80
    85c8:	ebffff10 	bl	8210 <emit>
    85cc:	ea00001d 	b	8648 <va_printk+0x228>
    85d0:	e5993000 	ldr	r3, [r9]
    85d4:	e2899004 	add	r9, r9, #4
    85d8:	e58d7000 	str	r7, [sp]
    85dc:	e58db004 	str	fp, [sp, #4]
    85e0:	e3a00002 	mov	r0, #2
    85e4:	e28d1008 	add	r1, sp, #8
    85e8:	e3a02080 	mov	r2, #128	; 0x80
    85ec:	ebffff07 	bl	8210 <emit>
    85f0:	ea000014 	b	8648 <va_printk+0x228>
    85f4:	e5990000 	ldr	r0, [r9]
    85f8:	e2899004 	add	r9, r9, #4
    85fc:	ea000011 	b	8648 <va_printk+0x228>
    8600:	e5993000 	ldr	r3, [r9]
    8604:	e2899004 	add	r9, r9, #4
    8608:	e58d7000 	str	r7, [sp]
    860c:	e58db004 	str	fp, [sp, #4]
    8610:	e3a00008 	mov	r0, #8
    8614:	e08d1000 	add	r1, sp, r0
    8618:	e3a02080 	mov	r2, #128	; 0x80
    861c:	ebfffefb 	bl	8210 <emit>
    8620:	ea000008 	b	8648 <va_printk+0x228>
    8624:	eb0003a3 	bl	94b8 <rpi_reset_putc>
    8628:	e5d63000 	ldrb	r3, [r6]
    862c:	e58d3000 	str	r3, [sp]
    8630:	e59f0078 	ldr	r0, [pc, #120]	; 86b0 <va_printk+0x290>
    8634:	e59f1068 	ldr	r1, [pc, #104]	; 86a4 <va_printk+0x284>
    8638:	e59f2068 	ldr	r2, [pc, #104]	; 86a8 <va_printk+0x288>
    863c:	e3a030b9 	mov	r3, #185	; 0xb9
    8640:	ebfffeaf 	bl	8104 <printk>
    8644:	eb00001a 	bl	86b4 <clean_reboot>
    8648:	e2862001 	add	r2, r6, #1
    864c:	ea000002 	b	865c <va_printk+0x23c>
    8650:	e2800001 	add	r0, r0, #1
    8654:	e5c43000 	strb	r3, [r4]
    8658:	e2844001 	add	r4, r4, #1
    865c:	e1540008 	cmp	r4, r8
    8660:	2a000002 	bcs	8670 <va_printk+0x250>
    8664:	e5d03000 	ldrb	r3, [r0]
    8668:	e3530000 	cmp	r3, #0
    866c:	1afffff7 	bne	8650 <va_printk+0x230>
    8670:	e5d23000 	ldrb	r3, [r2]
    8674:	e3530000 	cmp	r3, #0
    8678:	0a000001 	beq	8684 <va_printk+0x264>
    867c:	e1540008 	cmp	r4, r8
    8680:	3affff71 	bcc	844c <va_printk+0x2c>
    8684:	e2840001 	add	r0, r4, #1
    8688:	e3a03000 	mov	r3, #0
    868c:	e5c43000 	strb	r3, [r4]
    8690:	e06a0000 	rsb	r0, sl, r0
    8694:	e28dd08c 	add	sp, sp, #140	; 0x8c
    8698:	e8bd8ff0 	pop	{r4, r5, r6, r7, r8, r9, sl, fp, pc}
    869c:	00009860 	andeq	r9, r0, r0, ror #16
    86a0:	00009808 	andeq	r9, r0, r8, lsl #16
    86a4:	0000981c 	andeq	r9, r0, ip, lsl r8
    86a8:	000097fc 	strdeq	r9, [r0], -ip
    86ac:	0000986c 	andeq	r9, r0, ip, ror #16
    86b0:	00009894 	muleq	r0, r4, r8

000086b4 <clean_reboot>:
    86b4:	e92d4008 	push	{r3, lr}
    86b8:	e59f3014 	ldr	r3, [pc, #20]	; 86d4 <clean_reboot+0x20>
    86bc:	e5933000 	ldr	r3, [r3]
    86c0:	e59f0010 	ldr	r0, [pc, #16]	; 86d8 <clean_reboot+0x24>
    86c4:	e12fff33 	blx	r3
    86c8:	e3a00064 	mov	r0, #100	; 0x64
    86cc:	eb000063 	bl	8860 <delay_ms>
    86d0:	eb000038 	bl	87b8 <rpi_reboot>
    86d4:	000096bc 			; <UNDEFINED> instruction: 0x000096bc
    86d8:	000098cc 	andeq	r9, r0, ip, asr #17

000086dc <internal_sw_putchar>:
    86dc:	e92d4010 	push	{r4, lr}
    86e0:	e1a04000 	mov	r4, r0
    86e4:	e59f000c 	ldr	r0, [pc, #12]	; 86f8 <internal_sw_putchar+0x1c>
    86e8:	e6ef1074 	uxtb	r1, r4
    86ec:	eb000065 	bl	8888 <sw_uart_putc>
    86f0:	e1a00004 	mov	r0, r4
    86f4:	e8bd8010 	pop	{r4, pc}
    86f8:	00009e54 	andeq	r9, r0, r4, asr lr

000086fc <_cstart>:
    86fc:	e92d4008 	push	{r3, lr}
    8700:	e59f3068 	ldr	r3, [pc, #104]	; 8770 <_cstart+0x74>
    8704:	e59f2068 	ldr	r2, [pc, #104]	; 8774 <_cstart+0x78>
    8708:	e3a01000 	mov	r1, #0
    870c:	ea000001 	b	8718 <_cstart+0x1c>
    8710:	e5831000 	str	r1, [r3]
    8714:	e2833004 	add	r3, r3, #4
    8718:	e1530002 	cmp	r3, r2
    871c:	3afffffb 	bcc	8710 <_cstart+0x14>
    8720:	eb000378 	bl	9508 <cb_get_block>
    8724:	e3500000 	cmp	r0, #0
    8728:	0a00000e 	beq	8768 <_cstart+0x6c>
    872c:	e5d02004 	ldrb	r2, [r0, #4]
    8730:	e3520002 	cmp	r2, #2
    8734:	1a00000b 	bne	8768 <_cstart+0x6c>
    8738:	e59f1038 	ldr	r1, [pc, #56]	; 8778 <_cstart+0x7c>
    873c:	e59f2038 	ldr	r2, [pc, #56]	; 877c <_cstart+0x80>
    8740:	e5821000 	str	r1, [r2]
    8744:	e59fc034 	ldr	ip, [pc, #52]	; 8780 <_cstart+0x84>
    8748:	e2803008 	add	r3, r0, #8
    874c:	e8930007 	ldm	r3, {r0, r1, r2}
    8750:	e88c0007 	stm	ip, {r0, r1, r2}
    8754:	e1a0000c 	mov	r0, ip
    8758:	e59f1024 	ldr	r1, [pc, #36]	; 8784 <_cstart+0x88>
    875c:	eb0001ac 	bl	8e14 <sw_uart_printk>
    8760:	e59f0020 	ldr	r0, [pc, #32]	; 8788 <_cstart+0x8c>
    8764:	ebfffe66 	bl	8104 <printk>
    8768:	ebfffe33 	bl	803c <notmain>
    876c:	eb000011 	bl	87b8 <rpi_reboot>
    8770:	00009a14 	andeq	r9, r0, r4, lsl sl
    8774:	00009e60 	andeq	r9, r0, r0, ror #28
    8778:	000086dc 	ldrdeq	r8, [r0], -ip
    877c:	00009720 	andeq	r9, r0, r0, lsr #14
    8780:	00009e54 	andeq	r9, r0, r4, asr lr
    8784:	000098d8 	ldrdeq	r9, [r0], -r8
    8788:	000097d8 	ldrdeq	r9, [r0], -r8

0000878c <at_user_level>:
    878c:	e10f0000 	mrs	r0, CPSR
    8790:	e200001f 	and	r0, r0, #31
    8794:	e3500010 	cmp	r0, #16
    8798:	13a00000 	movne	r0, #0
    879c:	03a00001 	moveq	r0, #1
    87a0:	e12fff1e 	bx	lr

000087a4 <set_user_level>:
    87a4:	e10f3000 	mrs	r3, CPSR
    87a8:	e3c3301f 	bic	r3, r3, #31
    87ac:	e3833010 	orr	r3, r3, #16
    87b0:	e129f003 	msr	CPSR_fc, r3
    87b4:	e12fff1e 	bx	lr

000087b8 <rpi_reboot>:
    87b8:	e92d4008 	push	{r3, lr}
    87bc:	ebfffff2 	bl	878c <at_user_level>
    87c0:	e3500000 	cmp	r0, #0
    87c4:	0a000000 	beq	87cc <rpi_reboot+0x14>
    87c8:	ebfffff5 	bl	87a4 <set_user_level>
    87cc:	e3a0001e 	mov	r0, #30
    87d0:	eb000022 	bl	8860 <delay_ms>
    87d4:	e59f0014 	ldr	r0, [pc, #20]	; 87f0 <rpi_reboot+0x38>
    87d8:	e59f1014 	ldr	r1, [pc, #20]	; 87f4 <rpi_reboot+0x3c>
    87dc:	eb0001c5 	bl	8ef8 <PUT32>
    87e0:	e59f0010 	ldr	r0, [pc, #16]	; 87f8 <rpi_reboot+0x40>
    87e4:	e59f1010 	ldr	r1, [pc, #16]	; 87fc <rpi_reboot+0x44>
    87e8:	eb0001c2 	bl	8ef8 <PUT32>
    87ec:	eafffffe 	b	87ec <rpi_reboot+0x34>
    87f0:	20100024 	andscs	r0, r0, r4, lsr #32
    87f4:	5a000001 	bpl	8800 <delay_cycles>
    87f8:	2010001c 	andscs	r0, r0, ip, lsl r0
    87fc:	5a000020 	bpl	8884 <delay_sec+0x10>

00008800 <delay_cycles>:
    8800:	ea000001 	b	880c <delay_cycles+0xc>
    8804:	e2811000 	add	r1, r1, #0
    8808:	e1a00003 	mov	r0, r3
    880c:	e2403001 	sub	r3, r0, #1
    8810:	e3500000 	cmp	r0, #0
    8814:	1afffffa 	bne	8804 <delay_cycles+0x4>
    8818:	e12fff1e 	bx	lr

0000881c <timer_get_usec_raw>:
    881c:	e92d4008 	push	{r3, lr}
    8820:	e59f0004 	ldr	r0, [pc, #4]	; 882c <timer_get_usec_raw+0x10>
    8824:	eb0001bf 	bl	8f28 <GET32>
    8828:	e8bd8008 	pop	{r3, pc}
    882c:	20003004 	andcs	r3, r0, r4

00008830 <timer_get_usec>:
    8830:	e92d4008 	push	{r3, lr}
    8834:	ebfffff8 	bl	881c <timer_get_usec_raw>
    8838:	e8bd8008 	pop	{r3, pc}

0000883c <delay_us>:
    883c:	e92d4038 	push	{r3, r4, r5, lr}
    8840:	e1a05000 	mov	r5, r0
    8844:	ebfffff9 	bl	8830 <timer_get_usec>
    8848:	e1a04000 	mov	r4, r0
    884c:	ebfffff7 	bl	8830 <timer_get_usec>
    8850:	e0640000 	rsb	r0, r4, r0
    8854:	e1500005 	cmp	r0, r5
    8858:	3afffffb 	bcc	884c <delay_us+0x10>
    885c:	e8bd8038 	pop	{r3, r4, r5, pc}

00008860 <delay_ms>:
    8860:	e92d4008 	push	{r3, lr}
    8864:	e3a03ffa 	mov	r3, #1000	; 0x3e8
    8868:	e0000093 	mul	r0, r3, r0
    886c:	ebfffff2 	bl	883c <delay_us>
    8870:	e8bd8008 	pop	{r3, pc}

00008874 <delay_sec>:
    8874:	e92d4008 	push	{r3, lr}
    8878:	e3a03ffa 	mov	r3, #1000	; 0x3e8
    887c:	e0000093 	mul	r0, r3, r0
    8880:	ebfffff6 	bl	8860 <delay_ms>
    8884:	e8bd8008 	pop	{r3, pc}

00008888 <sw_uart_putc>:
    8888:	e92d41f0 	push	{r4, r5, r6, r7, r8, lr}
    888c:	e1a07001 	mov	r7, r1
    8890:	e5d06000 	ldrb	r6, [r0]
    8894:	e5905008 	ldr	r5, [r0, #8]
    8898:	ee1f4f3c 	mrc	15, 0, r4, cr15, cr12, {1}
    889c:	e1a00006 	mov	r0, r6
    88a0:	e3a01000 	mov	r1, #0
    88a4:	eb00023b 	bl	9198 <gpio_write>
    88a8:	ee1f3f3c 	mrc	15, 0, r3, cr15, cr12, {1}
    88ac:	e0643003 	rsb	r3, r4, r3
    88b0:	e1550003 	cmp	r5, r3
    88b4:	8afffffb 	bhi	88a8 <sw_uart_putc+0x20>
    88b8:	e1a08085 	lsl	r8, r5, #1
    88bc:	e1a00006 	mov	r0, r6
    88c0:	e2071001 	and	r1, r7, #1
    88c4:	eb000233 	bl	9198 <gpio_write>
    88c8:	ee1f3f3c 	mrc	15, 0, r3, cr15, cr12, {1}
    88cc:	e0643003 	rsb	r3, r4, r3
    88d0:	e1580003 	cmp	r8, r3
    88d4:	8afffffb 	bhi	88c8 <sw_uart_putc+0x40>
    88d8:	e0888005 	add	r8, r8, r5
    88dc:	e1a00006 	mov	r0, r6
    88e0:	e2071002 	and	r1, r7, #2
    88e4:	eb00022b 	bl	9198 <gpio_write>
    88e8:	ee1f3f3c 	mrc	15, 0, r3, cr15, cr12, {1}
    88ec:	e0643003 	rsb	r3, r4, r3
    88f0:	e1580003 	cmp	r8, r3
    88f4:	8afffffb 	bhi	88e8 <sw_uart_putc+0x60>
    88f8:	e0888005 	add	r8, r8, r5
    88fc:	e1a00006 	mov	r0, r6
    8900:	e2071004 	and	r1, r7, #4
    8904:	eb000223 	bl	9198 <gpio_write>
    8908:	ee1f3f3c 	mrc	15, 0, r3, cr15, cr12, {1}
    890c:	e0643003 	rsb	r3, r4, r3
    8910:	e1580003 	cmp	r8, r3
    8914:	8afffffb 	bhi	8908 <sw_uart_putc+0x80>
    8918:	e0888005 	add	r8, r8, r5
    891c:	e1a00006 	mov	r0, r6
    8920:	e2071008 	and	r1, r7, #8
    8924:	eb00021b 	bl	9198 <gpio_write>
    8928:	ee1f3f3c 	mrc	15, 0, r3, cr15, cr12, {1}
    892c:	e0643003 	rsb	r3, r4, r3
    8930:	e1580003 	cmp	r8, r3
    8934:	8afffffb 	bhi	8928 <sw_uart_putc+0xa0>
    8938:	e0888005 	add	r8, r8, r5
    893c:	e1a00006 	mov	r0, r6
    8940:	e2071010 	and	r1, r7, #16
    8944:	eb000213 	bl	9198 <gpio_write>
    8948:	ee1f3f3c 	mrc	15, 0, r3, cr15, cr12, {1}
    894c:	e0643003 	rsb	r3, r4, r3
    8950:	e1580003 	cmp	r8, r3
    8954:	8afffffb 	bhi	8948 <sw_uart_putc+0xc0>
    8958:	e0888005 	add	r8, r8, r5
    895c:	e1a00006 	mov	r0, r6
    8960:	e2071020 	and	r1, r7, #32
    8964:	eb00020b 	bl	9198 <gpio_write>
    8968:	ee1f3f3c 	mrc	15, 0, r3, cr15, cr12, {1}
    896c:	e0643003 	rsb	r3, r4, r3
    8970:	e1580003 	cmp	r8, r3
    8974:	8afffffb 	bhi	8968 <sw_uart_putc+0xe0>
    8978:	e0888005 	add	r8, r8, r5
    897c:	e1a00006 	mov	r0, r6
    8980:	e2071040 	and	r1, r7, #64	; 0x40
    8984:	eb000203 	bl	9198 <gpio_write>
    8988:	ee1f3f3c 	mrc	15, 0, r3, cr15, cr12, {1}
    898c:	e0643003 	rsb	r3, r4, r3
    8990:	e1580003 	cmp	r8, r3
    8994:	8afffffb 	bhi	8988 <sw_uart_putc+0x100>
    8998:	e0888005 	add	r8, r8, r5
    899c:	e1a00006 	mov	r0, r6
    89a0:	e2071080 	and	r1, r7, #128	; 0x80
    89a4:	eb0001fb 	bl	9198 <gpio_write>
    89a8:	ee1f3f3c 	mrc	15, 0, r3, cr15, cr12, {1}
    89ac:	e0643003 	rsb	r3, r4, r3
    89b0:	e1580003 	cmp	r8, r3
    89b4:	8afffffb 	bhi	89a8 <sw_uart_putc+0x120>
    89b8:	e0885005 	add	r5, r8, r5
    89bc:	e1a00006 	mov	r0, r6
    89c0:	e3a01001 	mov	r1, #1
    89c4:	eb0001f3 	bl	9198 <gpio_write>
    89c8:	ee1f3f3c 	mrc	15, 0, r3, cr15, cr12, {1}
    89cc:	e0643003 	rsb	r3, r4, r3
    89d0:	e1550003 	cmp	r5, r3
    89d4:	8afffffb 	bhi	89c8 <sw_uart_putc+0x140>
    89d8:	e8bd81f0 	pop	{r4, r5, r6, r7, r8, pc}

000089dc <sw_uart_getc_timeout>:
    89dc:	e92d43f8 	push	{r3, r4, r5, r6, r7, r8, r9, lr}
    89e0:	e1a09000 	mov	r9, r0
    89e4:	e5d07001 	ldrb	r7, [r0, #1]
    89e8:	e1a05007 	mov	r5, r7
    89ec:	e1a06001 	mov	r6, r1
    89f0:	ebffff89 	bl	881c <timer_get_usec_raw>
    89f4:	e1a04000 	mov	r4, r0
    89f8:	e1a00005 	mov	r0, r5
    89fc:	eb0001d2 	bl	914c <gpio_read>
    8a00:	e3500000 	cmp	r0, #0
    8a04:	0a000005 	beq	8a20 <sw_uart_getc_timeout+0x44>
    8a08:	ebffff83 	bl	881c <timer_get_usec_raw>
    8a0c:	e0640000 	rsb	r0, r4, r0
    8a10:	e1560000 	cmp	r6, r0
    8a14:	2afffff7 	bcs	89f8 <sw_uart_getc_timeout+0x1c>
    8a18:	e3a03000 	mov	r3, #0
    8a1c:	ea000000 	b	8a24 <sw_uart_getc_timeout+0x48>
    8a20:	e3a03001 	mov	r3, #1
    8a24:	e3530000 	cmp	r3, #0
    8a28:	0a000059 	beq	8b94 <sw_uart_getc_timeout+0x1b8>
    8a2c:	ee1f8f3c 	mrc	15, 0, r8, cr15, cr12, {1}
    8a30:	e5994008 	ldr	r4, [r9, #8]
    8a34:	e08420a4 	add	r2, r4, r4, lsr #1
    8a38:	ee1f3f3c 	mrc	15, 0, r3, cr15, cr12, {1}
    8a3c:	e0683003 	rsb	r3, r8, r3
    8a40:	e1520003 	cmp	r2, r3
    8a44:	8afffffb 	bhi	8a38 <sw_uart_getc_timeout+0x5c>
    8a48:	e0888004 	add	r8, r8, r4
    8a4c:	e1a00007 	mov	r0, r7
    8a50:	eb0001bd 	bl	914c <gpio_read>
    8a54:	e1a09750 	asr	r9, r0, r7
    8a58:	ee1f3f3c 	mrc	15, 0, r3, cr15, cr12, {1}
    8a5c:	e0683003 	rsb	r3, r8, r3
    8a60:	e1540003 	cmp	r4, r3
    8a64:	8afffffb 	bhi	8a58 <sw_uart_getc_timeout+0x7c>
    8a68:	e0888004 	add	r8, r8, r4
    8a6c:	e1a00007 	mov	r0, r7
    8a70:	eb0001b5 	bl	914c <gpio_read>
    8a74:	e1a00750 	asr	r0, r0, r7
    8a78:	e1899080 	orr	r9, r9, r0, lsl #1
    8a7c:	ee1f3f3c 	mrc	15, 0, r3, cr15, cr12, {1}
    8a80:	e0683003 	rsb	r3, r8, r3
    8a84:	e1540003 	cmp	r4, r3
    8a88:	8afffffb 	bhi	8a7c <sw_uart_getc_timeout+0xa0>
    8a8c:	e0888004 	add	r8, r8, r4
    8a90:	e1a00007 	mov	r0, r7
    8a94:	eb0001ac 	bl	914c <gpio_read>
    8a98:	e1a00750 	asr	r0, r0, r7
    8a9c:	e1899100 	orr	r9, r9, r0, lsl #2
    8aa0:	ee1f3f3c 	mrc	15, 0, r3, cr15, cr12, {1}
    8aa4:	e0683003 	rsb	r3, r8, r3
    8aa8:	e1540003 	cmp	r4, r3
    8aac:	8afffffb 	bhi	8aa0 <sw_uart_getc_timeout+0xc4>
    8ab0:	e0888004 	add	r8, r8, r4
    8ab4:	e1a00007 	mov	r0, r7
    8ab8:	eb0001a3 	bl	914c <gpio_read>
    8abc:	e1a00750 	asr	r0, r0, r7
    8ac0:	e1899180 	orr	r9, r9, r0, lsl #3
    8ac4:	ee1f3f3c 	mrc	15, 0, r3, cr15, cr12, {1}
    8ac8:	e0683003 	rsb	r3, r8, r3
    8acc:	e1540003 	cmp	r4, r3
    8ad0:	8afffffb 	bhi	8ac4 <sw_uart_getc_timeout+0xe8>
    8ad4:	e0888004 	add	r8, r8, r4
    8ad8:	e1a00007 	mov	r0, r7
    8adc:	eb00019a 	bl	914c <gpio_read>
    8ae0:	e1a00750 	asr	r0, r0, r7
    8ae4:	e1899200 	orr	r9, r9, r0, lsl #4
    8ae8:	ee1f3f3c 	mrc	15, 0, r3, cr15, cr12, {1}
    8aec:	e0683003 	rsb	r3, r8, r3
    8af0:	e1540003 	cmp	r4, r3
    8af4:	8afffffb 	bhi	8ae8 <sw_uart_getc_timeout+0x10c>
    8af8:	e0888004 	add	r8, r8, r4
    8afc:	e1a00007 	mov	r0, r7
    8b00:	eb000191 	bl	914c <gpio_read>
    8b04:	e1a00750 	asr	r0, r0, r7
    8b08:	e1899280 	orr	r9, r9, r0, lsl #5
    8b0c:	ee1f3f3c 	mrc	15, 0, r3, cr15, cr12, {1}
    8b10:	e0683003 	rsb	r3, r8, r3
    8b14:	e1540003 	cmp	r4, r3
    8b18:	8afffffb 	bhi	8b0c <sw_uart_getc_timeout+0x130>
    8b1c:	e0888004 	add	r8, r8, r4
    8b20:	e1a00007 	mov	r0, r7
    8b24:	eb000188 	bl	914c <gpio_read>
    8b28:	e1a00750 	asr	r0, r0, r7
    8b2c:	e1899300 	orr	r9, r9, r0, lsl #6
    8b30:	ee1f3f3c 	mrc	15, 0, r3, cr15, cr12, {1}
    8b34:	e0683003 	rsb	r3, r8, r3
    8b38:	e1540003 	cmp	r4, r3
    8b3c:	8afffffb 	bhi	8b30 <sw_uart_getc_timeout+0x154>
    8b40:	e1a00007 	mov	r0, r7
    8b44:	eb000180 	bl	914c <gpio_read>
    8b48:	e1a00750 	asr	r0, r0, r7
    8b4c:	e1899380 	orr	r9, r9, r0, lsl #7
    8b50:	ebffff31 	bl	881c <timer_get_usec_raw>
    8b54:	e1a04000 	mov	r4, r0
    8b58:	e1a00005 	mov	r0, r5
    8b5c:	eb00017a 	bl	914c <gpio_read>
    8b60:	e3500000 	cmp	r0, #0
    8b64:	0a000005 	beq	8b80 <sw_uart_getc_timeout+0x1a4>
    8b68:	ebffff2b 	bl	881c <timer_get_usec_raw>
    8b6c:	e0640000 	rsb	r0, r4, r0
    8b70:	e1560000 	cmp	r6, r0
    8b74:	2afffff7 	bcs	8b58 <sw_uart_getc_timeout+0x17c>
    8b78:	e3a03000 	mov	r3, #0
    8b7c:	ea000000 	b	8b84 <sw_uart_getc_timeout+0x1a8>
    8b80:	e3a03001 	mov	r3, #1
    8b84:	e3530000 	cmp	r3, #0
    8b88:	0a000003 	beq	8b9c <sw_uart_getc_timeout+0x1c0>
    8b8c:	e1a00009 	mov	r0, r9
    8b90:	e8bd83f8 	pop	{r3, r4, r5, r6, r7, r8, r9, pc}
    8b94:	e3e00000 	mvn	r0, #0
    8b98:	e8bd83f8 	pop	{r3, r4, r5, r6, r7, r8, r9, pc}
    8b9c:	e3e00000 	mvn	r0, #0
    8ba0:	e8bd83f8 	pop	{r3, r4, r5, r6, r7, r8, r9, pc}

00008ba4 <sw_uart_gets_until>:
    8ba4:	e92d47f0 	push	{r4, r5, r6, r7, r8, r9, sl, lr}
    8ba8:	e24dd008 	sub	sp, sp, #8
    8bac:	e1a08000 	mov	r8, r0
    8bb0:	e1a06001 	mov	r6, r1
    8bb4:	e1a09003 	mov	r9, r3
    8bb8:	e59da028 	ldr	sl, [sp, #40]	; 0x28
    8bbc:	e3520000 	cmp	r2, #0
    8bc0:	1a000008 	bne	8be8 <sw_uart_gets_until+0x44>
    8bc4:	eb00023b 	bl	94b8 <rpi_reset_putc>
    8bc8:	e59f3068 	ldr	r3, [pc, #104]	; 8c38 <sw_uart_gets_until+0x94>
    8bcc:	e58d3000 	str	r3, [sp]
    8bd0:	e59f0064 	ldr	r0, [pc, #100]	; 8c3c <sw_uart_gets_until+0x98>
    8bd4:	e59f1064 	ldr	r1, [pc, #100]	; 8c40 <sw_uart_gets_until+0x9c>
    8bd8:	e59f2064 	ldr	r2, [pc, #100]	; 8c44 <sw_uart_gets_until+0xa0>
    8bdc:	e3a0306d 	mov	r3, #109	; 0x6d
    8be0:	ebfffd47 	bl	8104 <printk>
    8be4:	ebfffeb2 	bl	86b4 <clean_reboot>
    8be8:	e3a04000 	mov	r4, #0
    8bec:	e5c14000 	strb	r4, [r1]
    8bf0:	e2427001 	sub	r7, r2, #1
    8bf4:	ea000007 	b	8c18 <sw_uart_gets_until+0x74>
    8bf8:	e1a00008 	mov	r0, r8
    8bfc:	e1a0100a 	mov	r1, sl
    8c00:	ebffff75 	bl	89dc <sw_uart_getc_timeout>
    8c04:	e6ef0070 	uxtb	r0, r0
    8c08:	e1500009 	cmp	r0, r9
    8c0c:	0a000004 	beq	8c24 <sw_uart_gets_until+0x80>
    8c10:	e7c60005 	strb	r0, [r6, r5]
    8c14:	e2844001 	add	r4, r4, #1
    8c18:	e1a05004 	mov	r5, r4
    8c1c:	e1540007 	cmp	r4, r7
    8c20:	3afffff4 	bcc	8bf8 <sw_uart_gets_until+0x54>
    8c24:	e3a03000 	mov	r3, #0
    8c28:	e7c63005 	strb	r3, [r6, r5]
    8c2c:	e1a00004 	mov	r0, r4
    8c30:	e28dd008 	add	sp, sp, #8
    8c34:	e8bd87f0 	pop	{r4, r5, r6, r7, r8, r9, sl, pc}
    8c38:	00009988 	andeq	r9, r0, r8, lsl #19
    8c3c:	00009808 	andeq	r9, r0, r8, lsl #16
    8c40:	00009974 	andeq	r9, r0, r4, ror r9
    8c44:	000098fc 	strdeq	r9, [r0], -ip

00008c48 <sw_uart_gets_timeout>:
    8c48:	e92d41f0 	push	{r4, r5, r6, r7, r8, lr}
    8c4c:	e24dd008 	sub	sp, sp, #8
    8c50:	e1a07000 	mov	r7, r0
    8c54:	e1a05001 	mov	r5, r1
    8c58:	e1a08003 	mov	r8, r3
    8c5c:	e3520000 	cmp	r2, #0
    8c60:	1a000008 	bne	8c88 <sw_uart_gets_timeout+0x40>
    8c64:	eb000213 	bl	94b8 <rpi_reset_putc>
    8c68:	e59f3058 	ldr	r3, [pc, #88]	; 8cc8 <sw_uart_gets_timeout+0x80>
    8c6c:	e58d3000 	str	r3, [sp]
    8c70:	e59f0054 	ldr	r0, [pc, #84]	; 8ccc <sw_uart_gets_timeout+0x84>
    8c74:	e59f1054 	ldr	r1, [pc, #84]	; 8cd0 <sw_uart_gets_timeout+0x88>
    8c78:	e59f2054 	ldr	r2, [pc, #84]	; 8cd4 <sw_uart_gets_timeout+0x8c>
    8c7c:	e3a03083 	mov	r3, #131	; 0x83
    8c80:	ebfffd1f 	bl	8104 <printk>
    8c84:	ebfffe8a 	bl	86b4 <clean_reboot>
    8c88:	e3a04000 	mov	r4, #0
    8c8c:	e5c14000 	strb	r4, [r1]
    8c90:	e2426001 	sub	r6, r2, #1
    8c94:	ea000004 	b	8cac <sw_uart_gets_timeout+0x64>
    8c98:	e1a00007 	mov	r0, r7
    8c9c:	e1a01008 	mov	r1, r8
    8ca0:	ebffff4d 	bl	89dc <sw_uart_getc_timeout>
    8ca4:	e7c50004 	strb	r0, [r5, r4]
    8ca8:	e2844001 	add	r4, r4, #1
    8cac:	e1540006 	cmp	r4, r6
    8cb0:	3afffff8 	bcc	8c98 <sw_uart_gets_timeout+0x50>
    8cb4:	e3a03000 	mov	r3, #0
    8cb8:	e7c53004 	strb	r3, [r5, r4]
    8cbc:	e1a00004 	mov	r0, r4
    8cc0:	e28dd008 	add	sp, sp, #8
    8cc4:	e8bd81f0 	pop	{r4, r5, r6, r7, r8, pc}
    8cc8:	00009988 	andeq	r9, r0, r8, lsl #19
    8ccc:	00009808 	andeq	r9, r0, r8, lsl #16
    8cd0:	00009974 	andeq	r9, r0, r4, ror r9
    8cd4:	00009910 	andeq	r9, r0, r0, lsl r9

00008cd8 <sw_uart_init_helper>:
    8cd8:	e92d41f0 	push	{r4, r5, r6, r7, r8, lr}
    8cdc:	e24dd008 	sub	sp, sp, #8
    8ce0:	e1a04000 	mov	r4, r0
    8ce4:	e1a06001 	mov	r6, r1
    8ce8:	e1a08002 	mov	r8, r2
    8cec:	e1a05003 	mov	r5, r3
    8cf0:	e59d7020 	ldr	r7, [sp, #32]
    8cf4:	e1a00001 	mov	r0, r1
    8cf8:	eb00008f 	bl	8f3c <gpio_set_output>
    8cfc:	e1a00008 	mov	r0, r8
    8d00:	eb0000de 	bl	9080 <gpio_set_input>
    8d04:	e3a03001 	mov	r3, #1
    8d08:	ee0f3f1c 	mcr	15, 0, r3, cr15, cr12, {0}
    8d0c:	e1a00006 	mov	r0, r6
    8d10:	e3a01001 	mov	r1, #1
    8d14:	eb00011f 	bl	9198 <gpio_write>
    8d18:	e0020795 	mul	r2, r5, r7
    8d1c:	e59f3074 	ldr	r3, [pc, #116]	; 8d98 <sw_uart_init_helper+0xc0>
    8d20:	e0653003 	rsb	r3, r5, r3
    8d24:	e1530002 	cmp	r3, r2
    8d28:	8a000005 	bhi	8d44 <sw_uart_init_helper+0x6c>
    8d2c:	e59f3064 	ldr	r3, [pc, #100]	; 8d98 <sw_uart_init_helper+0xc0>
    8d30:	e0853003 	add	r3, r5, r3
    8d34:	e1530002 	cmp	r3, r2
    8d38:	2a000003 	bcs	8d4c <sw_uart_init_helper+0x74>
    8d3c:	e3a03000 	mov	r3, #0
    8d40:	ea000002 	b	8d50 <sw_uart_init_helper+0x78>
    8d44:	e3a03000 	mov	r3, #0
    8d48:	ea000000 	b	8d50 <sw_uart_init_helper+0x78>
    8d4c:	e3a03001 	mov	r3, #1
    8d50:	e3530000 	cmp	r3, #0
    8d54:	1a000008 	bne	8d7c <sw_uart_init_helper+0xa4>
    8d58:	eb0001d6 	bl	94b8 <rpi_reset_putc>
    8d5c:	e59f3038 	ldr	r3, [pc, #56]	; 8d9c <sw_uart_init_helper+0xc4>
    8d60:	e58d3000 	str	r3, [sp]
    8d64:	e59f0034 	ldr	r0, [pc, #52]	; 8da0 <sw_uart_init_helper+0xc8>
    8d68:	e59f1034 	ldr	r1, [pc, #52]	; 8da4 <sw_uart_init_helper+0xcc>
    8d6c:	e59f2034 	ldr	r2, [pc, #52]	; 8da8 <sw_uart_init_helper+0xd0>
    8d70:	e3a0309d 	mov	r3, #157	; 0x9d
    8d74:	ebfffce2 	bl	8104 <printk>
    8d78:	ebfffe4d 	bl	86b4 <clean_reboot>
    8d7c:	e5c46000 	strb	r6, [r4]
    8d80:	e5c48001 	strb	r8, [r4, #1]
    8d84:	e5845004 	str	r5, [r4, #4]
    8d88:	e5847008 	str	r7, [r4, #8]
    8d8c:	e1a00004 	mov	r0, r4
    8d90:	e28dd008 	add	sp, sp, #8
    8d94:	e8bd81f0 	pop	{r4, r5, r6, r7, r8, pc}
    8d98:	29b92700 	ldmibcs	r9!, {r8, r9, sl, sp}
    8d9c:	00009994 	muleq	r0, r4, r9
    8da0:	00009808 	andeq	r9, r0, r8, lsl #16
    8da4:	00009974 	andeq	r9, r0, r4, ror r9
    8da8:	00009928 	andeq	r9, r0, r8, lsr #18

00008dac <sw_uart_getc>:
    8dac:	e92d4008 	push	{r3, lr}
    8db0:	e3e01000 	mvn	r1, #0
    8db4:	ebffff08 	bl	89dc <sw_uart_getc_timeout>
    8db8:	e3500000 	cmp	r0, #0
    8dbc:	a8bd8008 	popge	{r3, pc}
    8dc0:	eb0001bc 	bl	94b8 <rpi_reset_putc>
    8dc4:	e59f0010 	ldr	r0, [pc, #16]	; 8ddc <sw_uart_getc+0x30>
    8dc8:	e59f1010 	ldr	r1, [pc, #16]	; 8de0 <sw_uart_getc+0x34>
    8dcc:	e59f2010 	ldr	r2, [pc, #16]	; 8de4 <sw_uart_getc+0x38>
    8dd0:	e3a030ac 	mov	r3, #172	; 0xac
    8dd4:	ebfffcca 	bl	8104 <printk>
    8dd8:	ebfffe35 	bl	86b4 <clean_reboot>
    8ddc:	000099c8 	andeq	r9, r0, r8, asr #19
    8de0:	00009974 	andeq	r9, r0, r4, ror r9
    8de4:	0000993c 	andeq	r9, r0, ip, lsr r9

00008de8 <sw_uart_putk>:
    8de8:	e92d4038 	push	{r3, r4, r5, lr}
    8dec:	e1a05000 	mov	r5, r0
    8df0:	e1a04001 	mov	r4, r1
    8df4:	ea000002 	b	8e04 <sw_uart_putk+0x1c>
    8df8:	e1a00005 	mov	r0, r5
    8dfc:	ebfffea1 	bl	8888 <sw_uart_putc>
    8e00:	e2844001 	add	r4, r4, #1
    8e04:	e5d41000 	ldrb	r1, [r4]
    8e08:	e3510000 	cmp	r1, #0
    8e0c:	1afffff9 	bne	8df8 <sw_uart_putk+0x10>
    8e10:	e8bd8038 	pop	{r3, r4, r5, pc}

00008e14 <sw_uart_printk>:
    8e14:	e92d000e 	push	{r1, r2, r3}
    8e18:	e92d4030 	push	{r4, r5, lr}
    8e1c:	e24ddf76 	sub	sp, sp, #472	; 0x1d8
    8e20:	e1a05000 	mov	r5, r0
    8e24:	e28d3f7a 	add	r3, sp, #488	; 0x1e8
    8e28:	e58d3008 	str	r3, [sp, #8]
    8e2c:	e28d000c 	add	r0, sp, #12
    8e30:	e3a01f73 	mov	r1, #460	; 0x1cc
    8e34:	e59d21e4 	ldr	r2, [sp, #484]	; 0x1e4
    8e38:	ebfffd78 	bl	8420 <va_printk>
    8e3c:	e1a04000 	mov	r4, r0
    8e40:	e59f3048 	ldr	r3, [pc, #72]	; 8e90 <sw_uart_printk+0x7c>
    8e44:	e1500003 	cmp	r0, r3
    8e48:	9a000008 	bls	8e70 <sw_uart_printk+0x5c>
    8e4c:	eb000199 	bl	94b8 <rpi_reset_putc>
    8e50:	e59f303c 	ldr	r3, [pc, #60]	; 8e94 <sw_uart_printk+0x80>
    8e54:	e58d3000 	str	r3, [sp]
    8e58:	e59f0038 	ldr	r0, [pc, #56]	; 8e98 <sw_uart_printk+0x84>
    8e5c:	e59f1038 	ldr	r1, [pc, #56]	; 8e9c <sw_uart_printk+0x88>
    8e60:	e59f2038 	ldr	r2, [pc, #56]	; 8ea0 <sw_uart_printk+0x8c>
    8e64:	e3a030c0 	mov	r3, #192	; 0xc0
    8e68:	ebfffca5 	bl	8104 <printk>
    8e6c:	ebfffe10 	bl	86b4 <clean_reboot>
    8e70:	e1a00005 	mov	r0, r5
    8e74:	e28d100c 	add	r1, sp, #12
    8e78:	ebffffda 	bl	8de8 <sw_uart_putk>
    8e7c:	e1a00004 	mov	r0, r4
    8e80:	e28ddf76 	add	sp, sp, #472	; 0x1d8
    8e84:	e8bd4030 	pop	{r4, r5, lr}
    8e88:	e28dd00c 	add	sp, sp, #12
    8e8c:	e12fff1e 	bx	lr
    8e90:	000001ca 	andeq	r0, r0, sl, asr #3
    8e94:	00009a00 	andeq	r9, r0, r0, lsl #20
    8e98:	00009808 	andeq	r9, r0, r8, lsl #16
    8e9c:	00009974 	andeq	r9, r0, r4, ror r9
    8ea0:	0000994c 	andeq	r9, r0, ip, asr #18

00008ea4 <sw_uart_gets_until_blk>:
    8ea4:	e52de004 	push	{lr}		; (str lr, [sp, #-4]!)
    8ea8:	e24dd00c 	sub	sp, sp, #12
    8eac:	e3e0c000 	mvn	ip, #0
    8eb0:	e58dc000 	str	ip, [sp]
    8eb4:	ebffff3a 	bl	8ba4 <sw_uart_gets_until>
    8eb8:	e3500000 	cmp	r0, #0
    8ebc:	aa000006 	bge	8edc <sw_uart_gets_until_blk+0x38>
    8ec0:	eb00017c 	bl	94b8 <rpi_reset_putc>
    8ec4:	e59f0018 	ldr	r0, [pc, #24]	; 8ee4 <sw_uart_gets_until_blk+0x40>
    8ec8:	e59f1018 	ldr	r1, [pc, #24]	; 8ee8 <sw_uart_gets_until_blk+0x44>
    8ecc:	e59f2018 	ldr	r2, [pc, #24]	; 8eec <sw_uart_gets_until_blk+0x48>
    8ed0:	e3a030c8 	mov	r3, #200	; 0xc8
    8ed4:	ebfffc8a 	bl	8104 <printk>
    8ed8:	ebfffdf5 	bl	86b4 <clean_reboot>
    8edc:	e28dd00c 	add	sp, sp, #12
    8ee0:	e49df004 	pop	{pc}		; (ldr pc, [sp], #4)
    8ee4:	000099c8 	andeq	r9, r0, r8, asr #19
    8ee8:	00009974 	andeq	r9, r0, r4, ror r9
    8eec:	0000995c 	andeq	r9, r0, ip, asr r9

00008ef0 <put32>:
    8ef0:	e5801000 	str	r1, [r0]
    8ef4:	e12fff1e 	bx	lr

00008ef8 <PUT32>:
    8ef8:	e5801000 	str	r1, [r0]
    8efc:	e12fff1e 	bx	lr

00008f00 <put16>:
    8f00:	e1c010b0 	strh	r1, [r0]
    8f04:	e12fff1e 	bx	lr

00008f08 <PUT16>:
    8f08:	e1c010b0 	strh	r1, [r0]
    8f0c:	e12fff1e 	bx	lr

00008f10 <put8>:
    8f10:	e5c01000 	strb	r1, [r0]
    8f14:	e12fff1e 	bx	lr

00008f18 <PUT8>:
    8f18:	e5c01000 	strb	r1, [r0]
    8f1c:	e12fff1e 	bx	lr

00008f20 <get32>:
    8f20:	e5900000 	ldr	r0, [r0]
    8f24:	e12fff1e 	bx	lr

00008f28 <GET32>:
    8f28:	e5900000 	ldr	r0, [r0]
    8f2c:	e12fff1e 	bx	lr

00008f30 <GETPC>:
    8f30:	e1a0000e 	mov	r0, lr
    8f34:	e12fff1e 	bx	lr

00008f38 <dummy>:
    8f38:	e12fff1e 	bx	lr

00008f3c <gpio_set_output>:
    8f3c:	e92d4038 	push	{r3, r4, r5, lr}
    8f40:	e1a04000 	mov	r4, r0
    8f44:	e350001f 	cmp	r0, #31
    8f48:	88bd8038 	pophi	{r3, r4, r5, pc}
    8f4c:	e59f30b4 	ldr	r3, [pc, #180]	; 9008 <gpio_set_output+0xcc>
    8f50:	e0832093 	umull	r2, r3, r3, r0
    8f54:	e1a031a3 	lsr	r3, r3, #3
    8f58:	e3530005 	cmp	r3, #5
    8f5c:	979ff103 	ldrls	pc, [pc, r3, lsl #2]
    8f60:	ea000017 	b	8fc4 <gpio_set_output+0x88>
    8f64:	00008f7c 	andeq	r8, r0, ip, ror pc
    8f68:	00008f88 	andeq	r8, r0, r8, lsl #31
    8f6c:	00008f94 	muleq	r0, r4, pc	; <UNPREDICTABLE>
    8f70:	00008fa0 	andeq	r8, r0, r0, lsr #31
    8f74:	00008fac 	andeq	r8, r0, ip, lsr #31
    8f78:	00008fb8 			; <UNDEFINED> instruction: 0x00008fb8
    8f7c:	e59f3088 	ldr	r3, [pc, #136]	; 900c <gpio_set_output+0xd0>
    8f80:	e5935000 	ldr	r5, [r3]
    8f84:	ea00000f 	b	8fc8 <gpio_set_output+0x8c>
    8f88:	e59f307c 	ldr	r3, [pc, #124]	; 900c <gpio_set_output+0xd0>
    8f8c:	e5935004 	ldr	r5, [r3, #4]
    8f90:	ea00000c 	b	8fc8 <gpio_set_output+0x8c>
    8f94:	e59f3070 	ldr	r3, [pc, #112]	; 900c <gpio_set_output+0xd0>
    8f98:	e5935008 	ldr	r5, [r3, #8]
    8f9c:	ea000009 	b	8fc8 <gpio_set_output+0x8c>
    8fa0:	e59f3064 	ldr	r3, [pc, #100]	; 900c <gpio_set_output+0xd0>
    8fa4:	e593500c 	ldr	r5, [r3, #12]
    8fa8:	ea000006 	b	8fc8 <gpio_set_output+0x8c>
    8fac:	e59f3058 	ldr	r3, [pc, #88]	; 900c <gpio_set_output+0xd0>
    8fb0:	e5935010 	ldr	r5, [r3, #16]
    8fb4:	ea000003 	b	8fc8 <gpio_set_output+0x8c>
    8fb8:	e59f304c 	ldr	r3, [pc, #76]	; 900c <gpio_set_output+0xd0>
    8fbc:	e5935014 	ldr	r5, [r3, #20]
    8fc0:	ea000000 	b	8fc8 <gpio_set_output+0x8c>
    8fc4:	e3a05000 	mov	r5, #0
    8fc8:	e1a00005 	mov	r0, r5
    8fcc:	ebffffd3 	bl	8f20 <get32>
    8fd0:	e59f1030 	ldr	r1, [pc, #48]	; 9008 <gpio_set_output+0xcc>
    8fd4:	e0813491 	umull	r3, r1, r1, r4
    8fd8:	e1a011a1 	lsr	r1, r1, #3
    8fdc:	e0811101 	add	r1, r1, r1, lsl #2
    8fe0:	e1a01081 	lsl	r1, r1, #1
    8fe4:	e0611004 	rsb	r1, r1, r4
    8fe8:	e0811081 	add	r1, r1, r1, lsl #1
    8fec:	e3a03007 	mov	r3, #7
    8ff0:	e1c03113 	bic	r3, r0, r3, lsl r1
    8ff4:	e1a00005 	mov	r0, r5
    8ff8:	e3a02001 	mov	r2, #1
    8ffc:	e1831112 	orr	r1, r3, r2, lsl r1
    9000:	ebffffba 	bl	8ef0 <put32>
    9004:	e8bd8038 	pop	{r3, r4, r5, pc}
    9008:	cccccccd 	stclgt	12, cr12, [ip], {205}	; 0xcd
    900c:	000096c0 	andeq	r9, r0, r0, asr #13

00009010 <gpio_set_on>:
    9010:	e92d4008 	push	{r3, lr}
    9014:	e350001f 	cmp	r0, #31
    9018:	88bd8008 	pophi	{r3, pc}
    901c:	959f3020 	ldrls	r3, [pc, #32]	; 9044 <gpio_set_on+0x34>
    9020:	95932018 	ldrls	r2, [r3, #24]
    9024:	859f3018 	ldrhi	r3, [pc, #24]	; 9044 <gpio_set_on+0x34>
    9028:	8593201c 	ldrhi	r2, [r3, #28]
    902c:	e200301f 	and	r3, r0, #31
    9030:	e1a00002 	mov	r0, r2
    9034:	e3a01001 	mov	r1, #1
    9038:	e1a01311 	lsl	r1, r1, r3
    903c:	ebffffab 	bl	8ef0 <put32>
    9040:	e8bd8008 	pop	{r3, pc}
    9044:	000096c0 	andeq	r9, r0, r0, asr #13

00009048 <gpio_set_off>:
    9048:	e92d4008 	push	{r3, lr}
    904c:	e350001f 	cmp	r0, #31
    9050:	88bd8008 	pophi	{r3, pc}
    9054:	959f3020 	ldrls	r3, [pc, #32]	; 907c <gpio_set_off+0x34>
    9058:	95932020 	ldrls	r2, [r3, #32]
    905c:	859f3018 	ldrhi	r3, [pc, #24]	; 907c <gpio_set_off+0x34>
    9060:	85932024 	ldrhi	r2, [r3, #36]	; 0x24
    9064:	e200301f 	and	r3, r0, #31
    9068:	e1a00002 	mov	r0, r2
    906c:	e3a01001 	mov	r1, #1
    9070:	e1a01311 	lsl	r1, r1, r3
    9074:	ebffff9d 	bl	8ef0 <put32>
    9078:	e8bd8008 	pop	{r3, pc}
    907c:	000096c0 	andeq	r9, r0, r0, asr #13

00009080 <gpio_set_input>:
    9080:	e92d4038 	push	{r3, r4, r5, lr}
    9084:	e1a04000 	mov	r4, r0
    9088:	e350001f 	cmp	r0, #31
    908c:	88bd8038 	pophi	{r3, r4, r5, pc}
    9090:	e59f30ac 	ldr	r3, [pc, #172]	; 9144 <gpio_set_input+0xc4>
    9094:	e0832093 	umull	r2, r3, r3, r0
    9098:	e1a031a3 	lsr	r3, r3, #3
    909c:	e3530005 	cmp	r3, #5
    90a0:	979ff103 	ldrls	pc, [pc, r3, lsl #2]
    90a4:	ea000017 	b	9108 <gpio_set_input+0x88>
    90a8:	000090c0 	andeq	r9, r0, r0, asr #1
    90ac:	000090cc 	andeq	r9, r0, ip, asr #1
    90b0:	000090d8 	ldrdeq	r9, [r0], -r8
    90b4:	000090e4 	andeq	r9, r0, r4, ror #1
    90b8:	000090f0 	strdeq	r9, [r0], -r0
    90bc:	000090fc 	strdeq	r9, [r0], -ip
    90c0:	e59f3080 	ldr	r3, [pc, #128]	; 9148 <gpio_set_input+0xc8>
    90c4:	e5935000 	ldr	r5, [r3]
    90c8:	ea00000f 	b	910c <gpio_set_input+0x8c>
    90cc:	e59f3074 	ldr	r3, [pc, #116]	; 9148 <gpio_set_input+0xc8>
    90d0:	e5935004 	ldr	r5, [r3, #4]
    90d4:	ea00000c 	b	910c <gpio_set_input+0x8c>
    90d8:	e59f3068 	ldr	r3, [pc, #104]	; 9148 <gpio_set_input+0xc8>
    90dc:	e5935008 	ldr	r5, [r3, #8]
    90e0:	ea000009 	b	910c <gpio_set_input+0x8c>
    90e4:	e59f305c 	ldr	r3, [pc, #92]	; 9148 <gpio_set_input+0xc8>
    90e8:	e593500c 	ldr	r5, [r3, #12]
    90ec:	ea000006 	b	910c <gpio_set_input+0x8c>
    90f0:	e59f3050 	ldr	r3, [pc, #80]	; 9148 <gpio_set_input+0xc8>
    90f4:	e5935010 	ldr	r5, [r3, #16]
    90f8:	ea000003 	b	910c <gpio_set_input+0x8c>
    90fc:	e59f3044 	ldr	r3, [pc, #68]	; 9148 <gpio_set_input+0xc8>
    9100:	e5935014 	ldr	r5, [r3, #20]
    9104:	ea000000 	b	910c <gpio_set_input+0x8c>
    9108:	e3a05000 	mov	r5, #0
    910c:	e1a00005 	mov	r0, r5
    9110:	ebffff82 	bl	8f20 <get32>
    9114:	e59f1028 	ldr	r1, [pc, #40]	; 9144 <gpio_set_input+0xc4>
    9118:	e0813491 	umull	r3, r1, r1, r4
    911c:	e1a011a1 	lsr	r1, r1, #3
    9120:	e0811101 	add	r1, r1, r1, lsl #2
    9124:	e1a01081 	lsl	r1, r1, #1
    9128:	e0611004 	rsb	r1, r1, r4
    912c:	e0811081 	add	r1, r1, r1, lsl #1
    9130:	e3a03007 	mov	r3, #7
    9134:	e1c01113 	bic	r1, r0, r3, lsl r1
    9138:	e1a00005 	mov	r0, r5
    913c:	ebffff6b 	bl	8ef0 <put32>
    9140:	e8bd8038 	pop	{r3, r4, r5, pc}
    9144:	cccccccd 	stclgt	12, cr12, [ip], {205}	; 0xcd
    9148:	000096c0 	andeq	r9, r0, r0, asr #13

0000914c <gpio_read>:
    914c:	e92d4010 	push	{r4, lr}
    9150:	e1a04000 	mov	r4, r0
    9154:	e350001f 	cmp	r0, #31
    9158:	8a00000b 	bhi	918c <gpio_read+0x40>
    915c:	8a000003 	bhi	9170 <gpio_read+0x24>
    9160:	e59f302c 	ldr	r3, [pc, #44]	; 9194 <gpio_read+0x48>
    9164:	e5930028 	ldr	r0, [r3, #40]	; 0x28
    9168:	ebffff6c 	bl	8f20 <get32>
    916c:	ea000002 	b	917c <gpio_read+0x30>
    9170:	e59f301c 	ldr	r3, [pc, #28]	; 9194 <gpio_read+0x48>
    9174:	e593002c 	ldr	r0, [r3, #44]	; 0x2c
    9178:	ebffff68 	bl	8f20 <get32>
    917c:	e204401f 	and	r4, r4, #31
    9180:	e3a03001 	mov	r3, #1
    9184:	e0000413 	and	r0, r0, r3, lsl r4
    9188:	e8bd8010 	pop	{r4, pc}
    918c:	e3e00000 	mvn	r0, #0
    9190:	e8bd8010 	pop	{r4, pc}
    9194:	000096c0 	andeq	r9, r0, r0, asr #13

00009198 <gpio_write>:
    9198:	e92d4008 	push	{r3, lr}
    919c:	e350001f 	cmp	r0, #31
    91a0:	88bd8008 	pophi	{r3, pc}
    91a4:	e3510000 	cmp	r1, #0
    91a8:	0a000001 	beq	91b4 <gpio_write+0x1c>
    91ac:	ebffff97 	bl	9010 <gpio_set_on>
    91b0:	e8bd8008 	pop	{r3, pc}
    91b4:	ebffffa3 	bl	9048 <gpio_set_off>
    91b8:	e8bd8008 	pop	{r3, pc}

000091bc <gpio_set_function>:
    91bc:	e92d4070 	push	{r4, r5, r6, lr}
    91c0:	e1a04000 	mov	r4, r0
    91c4:	e1a05001 	mov	r5, r1
    91c8:	e3510007 	cmp	r1, #7
    91cc:	9350001f 	cmpls	r0, #31
    91d0:	88bd8070 	pophi	{r4, r5, r6, pc}
    91d4:	e59f30b0 	ldr	r3, [pc, #176]	; 928c <gpio_set_function+0xd0>
    91d8:	e0832093 	umull	r2, r3, r3, r0
    91dc:	e1a031a3 	lsr	r3, r3, #3
    91e0:	e3530005 	cmp	r3, #5
    91e4:	979ff103 	ldrls	pc, [pc, r3, lsl #2]
    91e8:	ea000017 	b	924c <gpio_set_function+0x90>
    91ec:	00009204 	andeq	r9, r0, r4, lsl #4
    91f0:	00009210 	andeq	r9, r0, r0, lsl r2
    91f4:	0000921c 	andeq	r9, r0, ip, lsl r2
    91f8:	00009228 	andeq	r9, r0, r8, lsr #4
    91fc:	00009234 	andeq	r9, r0, r4, lsr r2
    9200:	00009240 	andeq	r9, r0, r0, asr #4
    9204:	e59f3084 	ldr	r3, [pc, #132]	; 9290 <gpio_set_function+0xd4>
    9208:	e5936000 	ldr	r6, [r3]
    920c:	ea00000f 	b	9250 <gpio_set_function+0x94>
    9210:	e59f3078 	ldr	r3, [pc, #120]	; 9290 <gpio_set_function+0xd4>
    9214:	e5936004 	ldr	r6, [r3, #4]
    9218:	ea00000c 	b	9250 <gpio_set_function+0x94>
    921c:	e59f306c 	ldr	r3, [pc, #108]	; 9290 <gpio_set_function+0xd4>
    9220:	e5936008 	ldr	r6, [r3, #8]
    9224:	ea000009 	b	9250 <gpio_set_function+0x94>
    9228:	e59f3060 	ldr	r3, [pc, #96]	; 9290 <gpio_set_function+0xd4>
    922c:	e593600c 	ldr	r6, [r3, #12]
    9230:	ea000006 	b	9250 <gpio_set_function+0x94>
    9234:	e59f3054 	ldr	r3, [pc, #84]	; 9290 <gpio_set_function+0xd4>
    9238:	e5936010 	ldr	r6, [r3, #16]
    923c:	ea000003 	b	9250 <gpio_set_function+0x94>
    9240:	e59f3048 	ldr	r3, [pc, #72]	; 9290 <gpio_set_function+0xd4>
    9244:	e5936014 	ldr	r6, [r3, #20]
    9248:	ea000000 	b	9250 <gpio_set_function+0x94>
    924c:	e3a06000 	mov	r6, #0
    9250:	e1a00006 	mov	r0, r6
    9254:	ebffff31 	bl	8f20 <get32>
    9258:	e59f302c 	ldr	r3, [pc, #44]	; 928c <gpio_set_function+0xd0>
    925c:	e0832493 	umull	r2, r3, r3, r4
    9260:	e1a031a3 	lsr	r3, r3, #3
    9264:	e0833103 	add	r3, r3, r3, lsl #2
    9268:	e1a03083 	lsl	r3, r3, #1
    926c:	e0633004 	rsb	r3, r3, r4
    9270:	e0833083 	add	r3, r3, r3, lsl #1
    9274:	e3a01007 	mov	r1, #7
    9278:	e1c01311 	bic	r1, r0, r1, lsl r3
    927c:	e1a00006 	mov	r0, r6
    9280:	e1811315 	orr	r1, r1, r5, lsl r3
    9284:	ebffff19 	bl	8ef0 <put32>
    9288:	e8bd8070 	pop	{r4, r5, r6, pc}
    928c:	cccccccd 	stclgt	12, cr12, [ip], {205}	; 0xcd
    9290:	000096c0 	andeq	r9, r0, r0, asr #13

00009294 <is_gpio_int>:
    9294:	e92d4008 	push	{r3, lr}
    9298:	e59f301c 	ldr	r3, [pc, #28]	; 92bc <is_gpio_int+0x28>
    929c:	e5930030 	ldr	r0, [r3, #48]	; 0x30
    92a0:	ebffff1e 	bl	8f20 <get32>
    92a4:	e3500000 	cmp	r0, #0
    92a8:	0a000001 	beq	92b4 <is_gpio_int+0x20>
    92ac:	e3a00001 	mov	r0, #1
    92b0:	e8bd8008 	pop	{r3, pc}
    92b4:	e3a00000 	mov	r0, #0
    92b8:	e8bd8008 	pop	{r3, pc}
    92bc:	000096c0 	andeq	r9, r0, r0, asr #13

000092c0 <gpio_int_rising_edge>:
    92c0:	e92d4038 	push	{r3, r4, r5, lr}
    92c4:	e1a04000 	mov	r4, r0
    92c8:	e350001f 	cmp	r0, #31
    92cc:	88bd8038 	pophi	{r3, r4, r5, pc}
    92d0:	eb0000eb 	bl	9684 <dev_barrier>
    92d4:	e354001f 	cmp	r4, #31
    92d8:	8a000007 	bhi	92fc <gpio_int_rising_edge+0x3c>
    92dc:	e59f505c 	ldr	r5, [pc, #92]	; 9340 <gpio_int_rising_edge+0x80>
    92e0:	e5950034 	ldr	r0, [r5, #52]	; 0x34
    92e4:	ebffff0d 	bl	8f20 <get32>
    92e8:	e3a01001 	mov	r1, #1
    92ec:	e1801411 	orr	r1, r0, r1, lsl r4
    92f0:	e5950034 	ldr	r0, [r5, #52]	; 0x34
    92f4:	ebfffefd 	bl	8ef0 <put32>
    92f8:	ea000007 	b	931c <gpio_int_rising_edge+0x5c>
    92fc:	e59f503c 	ldr	r5, [pc, #60]	; 9340 <gpio_int_rising_edge+0x80>
    9300:	e5950038 	ldr	r0, [r5, #56]	; 0x38
    9304:	ebffff05 	bl	8f20 <get32>
    9308:	e204401f 	and	r4, r4, #31
    930c:	e3a01001 	mov	r1, #1
    9310:	e1801411 	orr	r1, r0, r1, lsl r4
    9314:	e5950038 	ldr	r0, [r5, #56]	; 0x38
    9318:	ebfffef4 	bl	8ef0 <put32>
    931c:	eb0000d8 	bl	9684 <dev_barrier>
    9320:	e59f4018 	ldr	r4, [pc, #24]	; 9340 <gpio_int_rising_edge+0x80>
    9324:	e594003c 	ldr	r0, [r4, #60]	; 0x3c
    9328:	ebfffefc 	bl	8f20 <get32>
    932c:	e3801802 	orr	r1, r0, #131072	; 0x20000
    9330:	e594003c 	ldr	r0, [r4, #60]	; 0x3c
    9334:	ebfffeed 	bl	8ef0 <put32>
    9338:	eb0000d1 	bl	9684 <dev_barrier>
    933c:	e8bd8038 	pop	{r3, r4, r5, pc}
    9340:	000096c0 	andeq	r9, r0, r0, asr #13

00009344 <gpio_int_falling_edge>:
    9344:	e92d4038 	push	{r3, r4, r5, lr}
    9348:	e1a04000 	mov	r4, r0
    934c:	e350001f 	cmp	r0, #31
    9350:	88bd8038 	pophi	{r3, r4, r5, pc}
    9354:	eb0000ca 	bl	9684 <dev_barrier>
    9358:	e354001f 	cmp	r4, #31
    935c:	8a000007 	bhi	9380 <gpio_int_falling_edge+0x3c>
    9360:	e59f505c 	ldr	r5, [pc, #92]	; 93c4 <gpio_int_falling_edge+0x80>
    9364:	e5950040 	ldr	r0, [r5, #64]	; 0x40
    9368:	ebfffeec 	bl	8f20 <get32>
    936c:	e3a01001 	mov	r1, #1
    9370:	e1801411 	orr	r1, r0, r1, lsl r4
    9374:	e5950040 	ldr	r0, [r5, #64]	; 0x40
    9378:	ebfffedc 	bl	8ef0 <put32>
    937c:	ea000007 	b	93a0 <gpio_int_falling_edge+0x5c>
    9380:	e59f503c 	ldr	r5, [pc, #60]	; 93c4 <gpio_int_falling_edge+0x80>
    9384:	e5950044 	ldr	r0, [r5, #68]	; 0x44
    9388:	ebfffee4 	bl	8f20 <get32>
    938c:	e204401f 	and	r4, r4, #31
    9390:	e3a01001 	mov	r1, #1
    9394:	e1801411 	orr	r1, r0, r1, lsl r4
    9398:	e5950044 	ldr	r0, [r5, #68]	; 0x44
    939c:	ebfffed3 	bl	8ef0 <put32>
    93a0:	eb0000b7 	bl	9684 <dev_barrier>
    93a4:	e59f4018 	ldr	r4, [pc, #24]	; 93c4 <gpio_int_falling_edge+0x80>
    93a8:	e594003c 	ldr	r0, [r4, #60]	; 0x3c
    93ac:	ebfffedb 	bl	8f20 <get32>
    93b0:	e3801601 	orr	r1, r0, #1048576	; 0x100000
    93b4:	e594003c 	ldr	r0, [r4, #60]	; 0x3c
    93b8:	ebfffecc 	bl	8ef0 <put32>
    93bc:	eb0000b0 	bl	9684 <dev_barrier>
    93c0:	e8bd8038 	pop	{r3, r4, r5, pc}
    93c4:	000096c0 	andeq	r9, r0, r0, asr #13

000093c8 <gpio_event_detected>:
    93c8:	e92d4010 	push	{r4, lr}
    93cc:	e1a04000 	mov	r4, r0
    93d0:	e350001f 	cmp	r0, #31
    93d4:	8a000019 	bhi	9440 <gpio_event_detected+0x78>
    93d8:	eb0000a9 	bl	9684 <dev_barrier>
    93dc:	e354001f 	cmp	r4, #31
    93e0:	8a000008 	bhi	9408 <gpio_event_detected+0x40>
    93e4:	e59f305c 	ldr	r3, [pc, #92]	; 9448 <gpio_event_detected+0x80>
    93e8:	e5930048 	ldr	r0, [r3, #72]	; 0x48
    93ec:	ebfffecb 	bl	8f20 <get32>
    93f0:	e3a03001 	mov	r3, #1
    93f4:	e0103413 	ands	r3, r0, r3, lsl r4
    93f8:	0a00000d 	beq	9434 <gpio_event_detected+0x6c>
    93fc:	eb0000a0 	bl	9684 <dev_barrier>
    9400:	e3a00001 	mov	r0, #1
    9404:	e8bd8010 	pop	{r4, pc}
    9408:	e59f3038 	ldr	r3, [pc, #56]	; 9448 <gpio_event_detected+0x80>
    940c:	e593004c 	ldr	r0, [r3, #76]	; 0x4c
    9410:	ebfffec2 	bl	8f20 <get32>
    9414:	e3a03001 	mov	r3, #1
    9418:	e0004413 	and	r4, r0, r3, lsl r4
    941c:	eb000098 	bl	9684 <dev_barrier>
    9420:	e3540000 	cmp	r4, #0
    9424:	0a000002 	beq	9434 <gpio_event_detected+0x6c>
    9428:	eb000095 	bl	9684 <dev_barrier>
    942c:	e3a00001 	mov	r0, #1
    9430:	e8bd8010 	pop	{r4, pc}
    9434:	eb000092 	bl	9684 <dev_barrier>
    9438:	e3a00000 	mov	r0, #0
    943c:	e8bd8010 	pop	{r4, pc}
    9440:	e3e00000 	mvn	r0, #0
    9444:	e8bd8010 	pop	{r4, pc}
    9448:	000096c0 	andeq	r9, r0, r0, asr #13

0000944c <gpio_event_clear>:
    944c:	e92d4010 	push	{r4, lr}
    9450:	e1a04000 	mov	r4, r0
    9454:	e350001f 	cmp	r0, #31
    9458:	88bd8010 	pophi	{r4, pc}
    945c:	eb000088 	bl	9684 <dev_barrier>
    9460:	e354001f 	cmp	r4, #31
    9464:	8a000005 	bhi	9480 <gpio_event_clear+0x34>
    9468:	e59f3030 	ldr	r3, [pc, #48]	; 94a0 <gpio_event_clear+0x54>
    946c:	e5930048 	ldr	r0, [r3, #72]	; 0x48
    9470:	e3a01001 	mov	r1, #1
    9474:	e1a01411 	lsl	r1, r1, r4
    9478:	ebfffe9c 	bl	8ef0 <put32>
    947c:	ea000005 	b	9498 <gpio_event_clear+0x4c>
    9480:	e204401f 	and	r4, r4, #31
    9484:	e59f3014 	ldr	r3, [pc, #20]	; 94a0 <gpio_event_clear+0x54>
    9488:	e593004c 	ldr	r0, [r3, #76]	; 0x4c
    948c:	e3a01001 	mov	r1, #1
    9490:	e1a01411 	lsl	r1, r1, r4
    9494:	ebfffe95 	bl	8ef0 <put32>
    9498:	eb000079 	bl	9684 <dev_barrier>
    949c:	e8bd8010 	pop	{r4, pc}
    94a0:	000096c0 	andeq	r9, r0, r0, asr #13

000094a4 <internal_putchar>:
    94a4:	e92d4010 	push	{r4, lr}
    94a8:	e1a04000 	mov	r4, r0
    94ac:	eb00005e 	bl	962c <uart_putc>
    94b0:	e1a00004 	mov	r0, r4
    94b4:	e8bd8010 	pop	{r4, pc}

000094b8 <rpi_reset_putc>:
    94b8:	e59f2008 	ldr	r2, [pc, #8]	; 94c8 <rpi_reset_putc+0x10>
    94bc:	e59f3008 	ldr	r3, [pc, #8]	; 94cc <rpi_reset_putc+0x14>
    94c0:	e5832000 	str	r2, [r3]
    94c4:	e12fff1e 	bx	lr
    94c8:	000094a4 	andeq	r9, r0, r4, lsr #9
    94cc:	00009720 	andeq	r9, r0, r0, lsr #14

000094d0 <rpi_set_putc>:
    94d0:	e59f3004 	ldr	r3, [pc, #4]	; 94dc <rpi_set_putc+0xc>
    94d4:	e5830000 	str	r0, [r3]
    94d8:	e12fff1e 	bx	lr
    94dc:	00009720 	andeq	r9, r0, r0, lsr #14

000094e0 <cb_new>:
    94e0:	e92d4008 	push	{r3, lr}
    94e4:	e3a00409 	mov	r0, #150994944	; 0x9000000
    94e8:	e3a01000 	mov	r1, #0
    94ec:	e3a02004 	mov	r2, #4
    94f0:	eb000069 	bl	969c <memset>
    94f4:	e3a00409 	mov	r0, #150994944	; 0x9000000
    94f8:	e59f3004 	ldr	r3, [pc, #4]	; 9504 <cb_new+0x24>
    94fc:	e5803000 	str	r3, [r0]
    9500:	e8bd8008 	pop	{r3, pc}
    9504:	12345678 	eorsne	r5, r4, #120, 12	; 0x7800000

00009508 <cb_get_block>:
    9508:	e3a03409 	mov	r3, #150994944	; 0x9000000
    950c:	e5932000 	ldr	r2, [r3]
    9510:	e59f3014 	ldr	r3, [pc, #20]	; 952c <cb_get_block+0x24>
    9514:	e1520003 	cmp	r2, r3
    9518:	0a000001 	beq	9524 <cb_get_block+0x1c>
    951c:	e3a00000 	mov	r0, #0
    9520:	e12fff1e 	bx	lr
    9524:	e3a00409 	mov	r0, #150994944	; 0x9000000
    9528:	e12fff1e 	bx	lr
    952c:	12345678 	eorsne	r5, r4, #120, 12	; 0x7800000

00009530 <uart_init>:
    9530:	e92d4038 	push	{r3, r4, r5, lr}
    9534:	eb000052 	bl	9684 <dev_barrier>
    9538:	e3a0000e 	mov	r0, #14
    953c:	e3a01002 	mov	r1, #2
    9540:	ebffff1d 	bl	91bc <gpio_set_function>
    9544:	e3a0000f 	mov	r0, #15
    9548:	e3a01002 	mov	r1, #2
    954c:	ebffff1a 	bl	91bc <gpio_set_function>
    9550:	eb00004b 	bl	9684 <dev_barrier>
    9554:	e59f4068 	ldr	r4, [pc, #104]	; 95c4 <uart_init+0x94>
    9558:	e5945000 	ldr	r5, [r4]
    955c:	e1a00005 	mov	r0, r5
    9560:	ebfffe6e 	bl	8f20 <get32>
    9564:	e3801001 	orr	r1, r0, #1
    9568:	e1a00005 	mov	r0, r5
    956c:	ebfffe5f 	bl	8ef0 <put32>
    9570:	eb000043 	bl	9684 <dev_barrier>
    9574:	e5940004 	ldr	r0, [r4, #4]
    9578:	e3a01000 	mov	r1, #0
    957c:	ebfffe5b 	bl	8ef0 <put32>
    9580:	e5940008 	ldr	r0, [r4, #8]
    9584:	e3a01000 	mov	r1, #0
    9588:	ebfffe58 	bl	8ef0 <put32>
    958c:	e594000c 	ldr	r0, [r4, #12]
    9590:	e3a01006 	mov	r1, #6
    9594:	ebfffe55 	bl	8ef0 <put32>
    9598:	e5940010 	ldr	r0, [r4, #16]
    959c:	e3a01003 	mov	r1, #3
    95a0:	ebfffe52 	bl	8ef0 <put32>
    95a4:	e5940014 	ldr	r0, [r4, #20]
    95a8:	e59f1018 	ldr	r1, [pc, #24]	; 95c8 <uart_init+0x98>
    95ac:	ebfffe4f 	bl	8ef0 <put32>
    95b0:	e5940004 	ldr	r0, [r4, #4]
    95b4:	e3a01003 	mov	r1, #3
    95b8:	ebfffe4c 	bl	8ef0 <put32>
    95bc:	eb000030 	bl	9684 <dev_barrier>
    95c0:	e8bd8038 	pop	{r3, r4, r5, pc}
    95c4:	00009724 	andeq	r9, r0, r4, lsr #14
    95c8:	0000010e 	andeq	r0, r0, lr, lsl #2

000095cc <uart_can_getc>:
    95cc:	e92d4008 	push	{r3, lr}
    95d0:	e59f300c 	ldr	r3, [pc, #12]	; 95e4 <uart_can_getc+0x18>
    95d4:	e5930018 	ldr	r0, [r3, #24]
    95d8:	ebfffe50 	bl	8f20 <get32>
    95dc:	e2000001 	and	r0, r0, #1
    95e0:	e8bd8008 	pop	{r3, pc}
    95e4:	00009724 	andeq	r9, r0, r4, lsr #14

000095e8 <uart_getc>:
    95e8:	e92d4008 	push	{r3, lr}
    95ec:	ebfffff6 	bl	95cc <uart_can_getc>
    95f0:	e3500000 	cmp	r0, #0
    95f4:	0afffffc 	beq	95ec <uart_getc+0x4>
    95f8:	e59f300c 	ldr	r3, [pc, #12]	; 960c <uart_getc+0x24>
    95fc:	e593001c 	ldr	r0, [r3, #28]
    9600:	ebfffe46 	bl	8f20 <get32>
    9604:	e6ef0070 	uxtb	r0, r0
    9608:	e8bd8008 	pop	{r3, pc}
    960c:	00009724 	andeq	r9, r0, r4, lsr #14

00009610 <uart_can_putc>:
    9610:	e92d4008 	push	{r3, lr}
    9614:	e59f300c 	ldr	r3, [pc, #12]	; 9628 <uart_can_putc+0x18>
    9618:	e5930018 	ldr	r0, [r3, #24]
    961c:	ebfffe3f 	bl	8f20 <get32>
    9620:	e2000020 	and	r0, r0, #32
    9624:	e8bd8008 	pop	{r3, pc}
    9628:	00009724 	andeq	r9, r0, r4, lsr #14

0000962c <uart_putc>:
    962c:	e92d4010 	push	{r4, lr}
    9630:	e1a04000 	mov	r4, r0
    9634:	ebfffff5 	bl	9610 <uart_can_putc>
    9638:	e3500000 	cmp	r0, #0
    963c:	0afffffc 	beq	9634 <uart_putc+0x8>
    9640:	e59f300c 	ldr	r3, [pc, #12]	; 9654 <uart_putc+0x28>
    9644:	e593001c 	ldr	r0, [r3, #28]
    9648:	e1a01004 	mov	r1, r4
    964c:	ebfffe27 	bl	8ef0 <put32>
    9650:	e8bd8010 	pop	{r4, pc}
    9654:	00009724 	andeq	r9, r0, r4, lsr #14

00009658 <uart_has_data>:
    9658:	e92d4008 	push	{r3, lr}
    965c:	ebffffda 	bl	95cc <uart_can_getc>
    9660:	e8bd8008 	pop	{r3, pc}

00009664 <uart_getc_async>:
    9664:	e92d4008 	push	{r3, lr}
    9668:	ebfffffa 	bl	9658 <uart_has_data>
    966c:	e3500000 	cmp	r0, #0
    9670:	0a000001 	beq	967c <uart_getc_async+0x18>
    9674:	ebffffdb 	bl	95e8 <uart_getc>
    9678:	e8bd8008 	pop	{r3, pc}
    967c:	e3e00000 	mvn	r0, #0
    9680:	e8bd8008 	pop	{r3, pc}

00009684 <dev_barrier>:
    9684:	ea000002 	b	9694 <dsb>

00009688 <dmb>:
    9688:	e3a00000 	mov	r0, #0
    968c:	ee070fba 	mcr	15, 0, r0, cr7, cr10, {5}
    9690:	e12fff1e 	bx	lr

00009694 <dsb>:
    9694:	ee070f9a 	mcr	15, 0, r0, cr7, cr10, {4}
    9698:	e12fff1e 	bx	lr

0000969c <memset>:
    969c:	e0802002 	add	r2, r0, r2
    96a0:	e1a03000 	mov	r3, r0
    96a4:	ea000001 	b	96b0 <memset+0x14>
    96a8:	e5c31000 	strb	r1, [r3]
    96ac:	e2833001 	add	r3, r3, #1
    96b0:	e1530002 	cmp	r3, r2
    96b4:	3afffffb 	bcc	96a8 <memset+0xc>
    96b8:	e12fff1e 	bx	lr

Disassembly of section .data:

000096bc <putk>:
    96bc:	0000815c 	andeq	r8, r0, ip, asr r1

000096c0 <GPFSEL0>:
    96c0:	20200000 	eorcs	r0, r0, r0

000096c4 <GPFSEL1>:
    96c4:	20200004 	eorcs	r0, r0, r4

000096c8 <GPFSEL2>:
    96c8:	20200008 	eorcs	r0, r0, r8

000096cc <GPFSEL3>:
    96cc:	2020000c 	eorcs	r0, r0, ip

000096d0 <GPFSEL4>:
    96d0:	20200010 	eorcs	r0, r0, r0, lsl r0

000096d4 <GPFSEL5>:
    96d4:	20200014 	eorcs	r0, r0, r4, lsl r0

000096d8 <GPSET0>:
    96d8:	2020001c 	eorcs	r0, r0, ip, lsl r0

000096dc <GPSET1>:
    96dc:	20200020 	eorcs	r0, r0, r0, lsr #32

000096e0 <GPCLR0>:
    96e0:	20200028 	eorcs	r0, r0, r8, lsr #32

000096e4 <GPCLR1>:
    96e4:	2020002c 	eorcs	r0, r0, ip, lsr #32

000096e8 <GPLEV0>:
    96e8:	20200034 	eorcs	r0, r0, r4, lsr r0

000096ec <GPLEV1>:
    96ec:	20200038 	eorcs	r0, r0, r8, lsr r0

000096f0 <IRQ_PENDING_2>:
    96f0:	2000b208 	andcs	fp, r0, r8, lsl #4

000096f4 <GPREN0>:
    96f4:	2020004c 	eorcs	r0, r0, ip, asr #32

000096f8 <GPREN1>:
    96f8:	20200050 	eorcs	r0, r0, r0, asr r0

000096fc <ENABLE_IRQS_2>:
    96fc:	2000b214 	andcs	fp, r0, r4, lsl r2

00009700 <GPFEN0>:
    9700:	20200058 	eorcs	r0, r0, r8, asr r0

00009704 <GPFEN1>:
    9704:	2020005c 	eorcs	r0, r0, ip, asr r0

00009708 <GPEDS0>:
    9708:	20200040 	eorcs	r0, r0, r0, asr #32

0000970c <GPEDS1>:
    970c:	20200044 	eorcs	r0, r0, r4, asr #32

00009710 <IRQ_PENDING_1>:
    9710:	2000b204 	andcs	fp, r0, r4, lsl #4

00009714 <gpio_clr0>:
    9714:	20200028 	eorcs	r0, r0, r8, lsr #32

00009718 <gpio_set0>:
    9718:	2020001c 	eorcs	r0, r0, ip, lsl r0

0000971c <gpio_fsel0>:
    971c:	20200000 	eorcs	r0, r0, r0

00009720 <rpi_putchar>:
    9720:	000094a4 	andeq	r9, r0, r4, lsr #9

00009724 <AUX_ENABLES>:
    9724:	20215004 	eorcs	r5, r1, r4

00009728 <AUX_MU_CNTL_REG>:
    9728:	20215060 	eorcs	r5, r1, r0, rrx

0000972c <AUX_MU_IER_REG>:
    972c:	20215044 	eorcs	r5, r1, r4, asr #32

00009730 <AUX_MU_IIR_REG>:
    9730:	20215048 	eorcs	r5, r1, r8, asr #32

00009734 <AUX_MU_LCR_REG>:
    9734:	2021504c 	eorcs	r5, r1, ip, asr #32

00009738 <AUX_MU_BAUD_REG>:
    9738:	20215068 	eorcs	r5, r1, r8, rrx

0000973c <AUX_MU_LSR_REG>:
    973c:	20215054 	eorcs	r5, r1, r4, asr r0

00009740 <AUX_MU_IO_REG>:
    9740:	20215040 	eorcs	r5, r1, r0, asr #32

00009744 <AUX_MU_STAT_REG>:
    9744:	20215064 	eorcs	r5, r1, r4, rrx

00009748 <AUX_MU_SCRATCH>:
    9748:	2021505c 	eorcs	r5, r1, ip, asr r0

0000974c <AUX_MU_MSR_REG>:
    974c:	20215058 	eorcs	r5, r1, r8, asr r0

00009750 <AUX_MU_MCR_REG>:
    9750:	20215050 	eorcs	r5, r1, r0, asr r0

00009754 <AUX_IRQ>:
    9754:	20215000 	eorcs	r5, r1, r0

Disassembly of section .rodata:

00009758 <__FUNCTION__.4263-0x8c>:
    9758:	6c6c6568 	cfstr64vs	mvdx6, [ip], #-416	; 0xfffffe60
    975c:	6f77206f 	svcvs	0x0077206f
    9760:	0a646c72 	beq	1924930 <__bss_end__+0x191aad0>
    9764:	00000000 	andeq	r0, r0, r0
    9768:	206f6f66 	rsbcs	r6, pc, r6, ror #30
    976c:	20736177 	rsbscs	r6, r3, r7, ror r1
    9770:	73736170 	cmnvc	r3, #112, 2
    9774:	25206465 	strcs	r6, [r0, #-1125]!	; 0x465
    9778:	00000a64 	andeq	r0, r0, r4, ror #20
    977c:	74696d65 	strbtvc	r6, [r9], #-3429	; 0xd65
    9780:	20646574 	rsbcs	r6, r4, r4, ror r5
    9784:	65646f63 	strbvs	r6, [r4, #-3939]!	; 0xf63
    9788:	00000a3a 	andeq	r0, r0, sl, lsr sl
    978c:	65646f63 	strbvs	r6, [r4, #-3939]!	; 0xf63
    9790:	5d64255b 	cfstr64pl	mvdx2, [r4, #-364]!	; 0xfffffe94
    9794:	2578303d 	ldrbcs	r3, [r8, #-61]!	; 0x3d
    9798:	00000a78 	andeq	r0, r0, r8, ror sl
    979c:	756f6261 	strbvc	r6, [pc, #-609]!	; 9543 <uart_init+0x13>
    97a0:	6f742074 	svcvs	0x00742074
    97a4:	6c616320 	stclvs	3, cr6, [r1], #-128	; 0xffffff80
    97a8:	25203a6c 	strcs	r3, [r0, #-2668]!	; 0xa6c
    97ac:	00000a78 	andeq	r0, r0, r8, ror sl
    97b0:	2d2d2d2d 	stccs	13, cr2, [sp, #-180]!	; 0xffffff4c
    97b4:	2d2d2d2d 	stccs	13, cr2, [sp, #-180]!	; 0xffffff4c
    97b8:	2d2d2d2d 	stccs	13, cr2, [sp, #-180]!	; 0xffffff4c
    97bc:	2d2d2d2d 	stccs	13, cr2, [sp, #-180]!	; 0xffffff4c
    97c0:	2d2d2d2d 	stccs	13, cr2, [sp, #-180]!	; 0xffffff4c
    97c4:	2d2d2d2d 	stccs	13, cr2, [sp, #-180]!	; 0xffffff4c
    97c8:	2d2d2d2d 	stccs	13, cr2, [sp, #-180]!	; 0xffffff4c
    97cc:	2d2d2d2d 	stccs	13, cr2, [sp, #-180]!	; 0xffffff4c
    97d0:	2d2d2d2d 	stccs	13, cr2, [sp, #-180]!	; 0xffffff4c
    97d4:	000a2d2d 	andeq	r2, sl, sp, lsr #26
    97d8:	63637573 	cmnvs	r3, #482344960	; 0x1cc00000
    97dc:	21737365 	cmncs	r3, r5, ror #6
    97e0:	0000000a 	andeq	r0, r0, sl

000097e4 <__FUNCTION__.4263>:
    97e4:	74696d65 	strbtvc	r6, [r9], #-3429	; 0xd65
    97e8:	00000000 	andeq	r0, r0, r0

000097ec <__FUNCTION__.4211>:
    97ec:	5f697072 	svcpl	0x00697072
    97f0:	5f746573 	svcpl	0x00746573
    97f4:	7074756f 	rsbsvc	r7, r4, pc, ror #10
    97f8:	00007475 	andeq	r7, r0, r5, ror r4

000097fc <__FUNCTION__.4285>:
    97fc:	705f6176 	subsvc	r6, pc, r6, ror r1	; <UNPREDICTABLE>
    9800:	746e6972 	strbtvc	r6, [lr], #-2418	; 0x972
    9804:	0000006b 	andeq	r0, r0, fp, rrx
    9808:	494e4150 	stmdbmi	lr, {r4, r6, r8, lr}^
    980c:	73253a43 	teqvc	r5, #274432	; 0x43000
    9810:	3a73253a 	bcc	1cd2d00 <__bss_end__+0x1cc8ea0>
    9814:	253a6425 	ldrcs	r6, [sl, #-1061]!	; 0x425
    9818:	00000a73 	andeq	r0, r0, r3, ror sl
    981c:	6362696c 	cmnvs	r2, #108, 18	; 0x1b0000
    9820:	2d61762f 	stclcs	6, cr7, [r1, #-188]!	; 0xffffff44
    9824:	6e697270 	mcrvs	2, 3, r7, cr9, cr0, {3}
    9828:	632e6b74 	teqvs	lr, #116, 22	; 0x1d000
    982c:	00000000 	andeq	r0, r0, r0
    9830:	00000030 	andeq	r0, r0, r0, lsr r0
    9834:	33323130 	teqcc	r2, #48, 2
    9838:	37363534 			; <UNDEFINED> instruction: 0x37363534
    983c:	00003938 	andeq	r3, r0, r8, lsr r9
    9840:	33323130 	teqcc	r2, #48, 2
    9844:	37363534 			; <UNDEFINED> instruction: 0x37363534
    9848:	62613938 	rsbvs	r3, r1, #56, 18	; 0xe0000
    984c:	66656463 	strbtvs	r6, [r5], -r3, ror #8
    9850:	00000000 	andeq	r0, r0, r0
    9854:	00003130 	andeq	r3, r0, r0, lsr r1
    9858:	63747570 	cmnvs	r4, #112, 10	; 0x1c000000
    985c:	0070665f 	rsbseq	r6, r0, pc, asr r6
    9860:	74646977 	strbtvc	r6, [r4], #-2423	; 0x977
    9864:	203c2068 	eorscs	r2, ip, r8, rrx
    9868:	00003233 	andeq	r3, r0, r3, lsr r2
    986c:	494e4150 	stmdbmi	lr, {r4, r6, r8, lr}^
    9870:	73253a43 	teqvc	r5, #274432	; 0x43000
    9874:	3a73253a 	bcc	1cd2d64 <__bss_end__+0x1cc8f04>
    9878:	663a6425 	ldrtvs	r6, [sl], -r5, lsr #8
    987c:	74616f6c 	strbtvc	r6, [r1], #-3948	; 0xf6c
    9880:	746f6e20 	strbtvc	r6, [pc], #-3616	; 9888 <__FUNCTION__.4285+0x8c>
    9884:	616e6520 	cmnvs	lr, r0, lsr #10
    9888:	64656c62 	strbtvs	r6, [r5], #-3170	; 0xc62
    988c:	0a212121 	beq	851d18 <__bss_end__+0x847eb8>
    9890:	00000000 	andeq	r0, r0, r0
    9894:	494e4150 	stmdbmi	lr, {r4, r6, r8, lr}^
    9898:	73253a43 	teqvc	r5, #274432	; 0x43000
    989c:	3a73253a 	bcc	1cd2d8c <__bss_end__+0x1cc8f2c>
    98a0:	703a6425 	eorsvc	r6, sl, r5, lsr #8
    98a4:	746e6972 	strbtvc	r6, [lr], #-2418	; 0x972
    98a8:	6e203a6b 	vnmulvs.f32	s6, s0, s23
    98ac:	6820746f 	stmdavs	r0!, {r0, r1, r2, r3, r5, r6, sl, ip, sp, lr}
    98b0:	6c646e61 	stclvs	14, cr6, [r4], #-388	; 0xfffffe7c
    98b4:	20676e69 	rsbcs	r6, r7, r9, ror #28
    98b8:	63657073 	cmnvs	r5, #115	; 0x73
    98bc:	65696669 	strbvs	r6, [r9, #-1641]!	; 0x669
    98c0:	25272072 	strcs	r2, [r7, #-114]!	; 0x72
    98c4:	0a0a2763 	beq	293658 <__bss_end__+0x2897f8>
    98c8:	00000000 	andeq	r0, r0, r0
    98cc:	454e4f44 	strbmi	r4, [lr, #-3908]	; 0xf44
    98d0:	0a212121 	beq	851d5c <__bss_end__+0x847efc>
    98d4:	00000000 	andeq	r0, r0, r0
    98d8:	756f6261 	strbvc	r6, [pc, #-609]!	; 967f <uart_getc_async+0x1b>
    98dc:	6f742074 	svcvs	0x00742074
    98e0:	69727020 	ldmdbvs	r2!, {r5, ip, sp, lr}^
    98e4:	6f20746e 	svcvs	0x0020746e
    98e8:	6572206e 	ldrbvs	r2, [r2, #-110]!	; 0x6e
    98ec:	616c7567 	cmnvs	ip, r7, ror #10
    98f0:	72702072 	rsbsvc	r2, r0, #114	; 0x72
    98f4:	66746e69 	ldrbtvs	r6, [r4], -r9, ror #28
    98f8:	0000000a 	andeq	r0, r0, sl

000098fc <__FUNCTION__.4312>:
    98fc:	755f7773 	ldrbvc	r7, [pc, #-1907]	; 9191 <gpio_read+0x45>
    9900:	5f747261 	svcpl	0x00747261
    9904:	73746567 	cmnvc	r4, #432013312	; 0x19c00000
    9908:	746e755f 	strbtvc	r7, [lr], #-1375	; 0x55f
    990c:	00006c69 	andeq	r6, r0, r9, ror #24

00009910 <__FUNCTION__.4324>:
    9910:	755f7773 	ldrbvc	r7, [pc, #-1907]	; 91a5 <gpio_write+0xd>
    9914:	5f747261 	svcpl	0x00747261
    9918:	73746567 	cmnvc	r4, #432013312	; 0x19c00000
    991c:	6d69745f 	cfstrdvs	mvd7, [r9, #-380]!	; 0xfffffe84
    9920:	74756f65 	ldrbtvc	r6, [r5], #-3941	; 0xf65
    9924:	00000000 	andeq	r0, r0, r0

00009928 <__FUNCTION__.4338>:
    9928:	755f7773 	ldrbvc	r7, [pc, #-1907]	; 91bd <gpio_set_function+0x1>
    992c:	5f747261 	svcpl	0x00747261
    9930:	74696e69 	strbtvc	r6, [r9], #-3689	; 0xe69
    9934:	6c65685f 	stclvs	8, cr6, [r5], #-380	; 0xfffffe84
    9938:	00726570 	rsbseq	r6, r2, r0, ror r5

0000993c <__FUNCTION__.4344>:
    993c:	755f7773 	ldrbvc	r7, [pc, #-1907]	; 91d1 <gpio_set_function+0x15>
    9940:	5f747261 	svcpl	0x00747261
    9944:	63746567 	cmnvs	r4, #432013312	; 0x19c00000
    9948:	00000000 	andeq	r0, r0, r0

0000994c <__FUNCTION__.4366>:
    994c:	755f7773 	ldrbvc	r7, [pc, #-1907]	; 91e1 <gpio_set_function+0x25>
    9950:	5f747261 	svcpl	0x00747261
    9954:	6e697270 	mcrvs	2, 3, r7, cr9, cr0, {3}
    9958:	00006b74 	andeq	r6, r0, r4, ror fp

0000995c <__FUNCTION__.4374>:
    995c:	755f7773 	ldrbvc	r7, [pc, #-1907]	; 91f1 <gpio_set_function+0x35>
    9960:	5f747261 	svcpl	0x00747261
    9964:	73746567 	cmnvc	r4, #432013312	; 0x19c00000
    9968:	746e755f 	strbtvc	r7, [lr], #-1375	; 0x55f
    996c:	625f6c69 	subsvs	r6, pc, #26880	; 0x6900
    9970:	00006b6c 	andeq	r6, r0, ip, ror #22
    9974:	732d796d 	teqvc	sp, #1785856	; 0x1b4000
    9978:	732f6372 	teqvc	pc, #-939524095	; 0xc8000001
    997c:	61752d77 	cmnvs	r5, r7, ror sp
    9980:	632e7472 	teqvs	lr, #1912602624	; 0x72000000
    9984:	00000000 	andeq	r0, r0, r0
    9988:	7479626e 	ldrbtvc	r6, [r9], #-622	; 0x26e
    998c:	303e7365 	eorscc	r7, lr, r5, ror #6
    9990:	00000000 	andeq	r0, r0, r0
    9994:	7a686d28 	bvc	1a24e3c <__bss_end__+0x1a1afdc>
    9998:	62202d20 	eorvs	r2, r0, #32, 26	; 0x800
    999c:	29647561 	stmdbcs	r4!, {r0, r5, r6, r8, sl, ip, sp, lr}^
    99a0:	203d3c20 	eorscs	r3, sp, r0, lsr #24
    99a4:	69726564 	ldmdbvs	r2!, {r2, r5, r6, r8, sl, sp, lr}^
    99a8:	20646576 	rsbcs	r6, r4, r6, ror r5
    99ac:	64202626 	strtvs	r2, [r0], #-1574	; 0x626
    99b0:	76697265 	strbtvc	r7, [r9], -r5, ror #4
    99b4:	3c206465 	cfstrscc	mvf6, [r0], #-404	; 0xfffffe6c
    99b8:	6d28203d 	stcvs	0, cr2, [r8, #-244]!	; 0xffffff0c
    99bc:	2b207a68 	blcs	828364 <__bss_end__+0x81e504>
    99c0:	75616220 	strbvc	r6, [r1, #-544]!	; 0x220
    99c4:	00002964 	andeq	r2, r0, r4, ror #18
    99c8:	494e4150 	stmdbmi	lr, {r4, r6, r8, lr}^
    99cc:	73253a43 	teqvc	r5, #274432	; 0x43000
    99d0:	3a73253a 	bcc	1cd2ec0 <__bss_end__+0x1cc9060>
    99d4:	693a6425 	ldmdbvs	sl!, {r0, r2, r5, sl, sp, lr}
    99d8:	736f706d 	cmnvc	pc, #109	; 0x6d
    99dc:	6c626973 	stclvs	9, cr6, [r2], #-460	; 0xfffffe34
    99e0:	68203a65 	stmdavs	r0!, {r0, r2, r5, r6, r9, fp, ip, sp}
    99e4:	20657661 	rsbcs	r7, r5, r1, ror #12
    99e8:	69206e61 	stmdbvs	r0!, {r0, r5, r6, r9, sl, fp, sp, lr}
    99ec:	6e69666e 	cdpvs	6, 6, cr6, cr9, cr14, {3}
    99f0:	20657469 	rsbcs	r7, r5, r9, ror #8
    99f4:	656d6974 	strbvs	r6, [sp, #-2420]!	; 0x974
    99f8:	2174756f 	cmncs	r4, pc, ror #10
    99fc:	00000a0a 	andeq	r0, r0, sl, lsl #20
    9a00:	3c207a73 	stccc	10, cr7, [r0], #-460	; 0xfffffe34
    9a04:	7a697320 	bvc	1a6668c <__bss_end__+0x1a5c82c>
    9a08:	20666f65 	rsbcs	r6, r6, r5, ror #30
    9a0c:	2d667562 	cfstr64cs	mvdx7, [r6, #-392]!	; 0xfffffe78
    9a10:	00000031 	andeq	r0, r0, r1, lsr r0

Disassembly of section .bss:

00009a14 <__bss_start__>:
	...

00009a54 <buf.4211>:
	...

00009e54 <console_uart>:
	...

Disassembly of section .ARM.attributes:

00000000 <.ARM.attributes>:
   0:	00002a41 	andeq	r2, r0, r1, asr #20
   4:	61656100 	cmnvs	r5, r0, lsl #2
   8:	01006962 	tsteq	r0, r2, ror #18
   c:	00000020 	andeq	r0, r0, r0, lsr #32
  10:	4b5a3605 	blmi	168d82c <__bss_end__+0x16839cc>
  14:	08070600 	stmdaeq	r7, {r9, sl}
  18:	12010901 	andne	r0, r1, #16384	; 0x4000
  1c:	15011404 	strne	r1, [r1, #-1028]	; 0x404
  20:	18031701 	stmdane	r3, {r0, r8, r9, sl, ip}
  24:	22011a01 	andcs	r1, r1, #4096	; 0x1000
  28:	Address 0x0000000000000028 is out of bounds.


Disassembly of section .comment:

00000000 <.comment>:
   0:	3a434347 	bcc	10d0d24 <__bss_end__+0x10c6ec4>
   4:	4e472820 	cdpmi	8, 4, cr2, cr7, cr0, {1}
   8:	34202955 	strtcc	r2, [r0], #-2389	; 0x955
   c:	332e382e 	teqcc	lr, #3014656	; 0x2e0000
	...

Disassembly of section .debug_info:

00000000 <.debug_info>:
       0:	00000419 	andeq	r0, r0, r9, lsl r4
       4:	00000004 	andeq	r0, r0, r4
       8:	01040000 	mrseq	r0, (UNDEF: 4)
       c:	000001cc 	andeq	r0, r0, ip, asr #3
      10:	00005d01 	andeq	r5, r0, r1, lsl #26
      14:	00013800 	andeq	r3, r1, r0, lsl #16
      18:	00801000 	addeq	r1, r0, r0
      1c:	0000f400 	andeq	pc, r0, r0, lsl #8
      20:	00000000 	andeq	r0, r0, r0
      24:	05040200 	streq	r0, [r4, #-512]	; 0x200
      28:	00746e69 	rsbseq	r6, r4, r9, ror #28
      2c:	19070403 	stmdbne	r7, {r0, r1, sl}
      30:	03000000 	movweq	r0, #0
      34:	019f0601 	orrseq	r0, pc, r1, lsl #12
      38:	02030000 	andeq	r0, r3, #0
      3c:	0001ab05 	andeq	sl, r1, r5, lsl #22
      40:	01bd0400 			; <UNDEFINED> instruction: 0x01bd0400
      44:	28020000 	stmdacs	r2, {}	; <UNPREDICTABLE>
      48:	0000004c 	andeq	r0, r0, ip, asr #32
      4c:	32050403 	andcc	r0, r5, #50331648	; 0x3000000
      50:	03000000 	movweq	r0, #0
      54:	002d0508 	eoreq	r0, sp, r8, lsl #10
      58:	42040000 	andmi	r0, r4, #0
      5c:	02000002 	andeq	r0, r0, #2
      60:	0000652e 	andeq	r6, r0, lr, lsr #10
      64:	08010300 	stmdaeq	r1, {r8, r9}
      68:	0000019d 	muleq	r0, sp, r1
      6c:	8d070203 	sfmhi	f0, 4, [r7, #-12]
      70:	04000000 	streq	r0, [r0], #-0
      74:	000001bc 			; <UNDEFINED> instruction: 0x000001bc
      78:	007e3402 	rsbseq	r3, lr, r2, lsl #8
      7c:	04030000 	streq	r0, [r3], #-0
      80:	00001407 	andeq	r1, r0, r7, lsl #8
      84:	07080300 	streq	r0, [r8, -r0, lsl #6]
      88:	0000000f 	andeq	r0, r0, pc
      8c:	cf070403 	svcgt	0x00070403
      90:	05000000 	streq	r0, [r0, #-0]
      94:	00009904 	andeq	r9, r0, r4, lsl #18
      98:	01030600 	tsteq	r3, r0, lsl #12
      9c:	0001a608 	andeq	sl, r1, r8, lsl #12
      a0:	a7040500 	strge	r0, [r4, -r0, lsl #10]
      a4:	07000000 	streq	r0, [r0, -r0]
      a8:	0000009a 	muleq	r0, sl, r0
      ac:	00007308 	andeq	r7, r0, r8, lsl #6
      b0:	0000bc00 	andeq	fp, r0, r0, lsl #24
      b4:	008c0900 	addeq	r0, ip, r0, lsl #18
      b8:	000f0000 	andeq	r0, pc, r0
      bc:	0703010a 	streq	r0, [r3, -sl, lsl #2]
      c0:	00000137 	andeq	r0, r0, r7, lsr r1
      c4:	0000d80b 	andeq	sp, r0, fp, lsl #16
      c8:	df0b0000 	svcle	0x000b0000
      cc:	01000000 	mrseq	r0, (UNDEF: 0)
      d0:	0000e60b 	andeq	lr, r0, fp, lsl #12
      d4:	ed0b0200 	sfm	f0, 4, [fp, #-0]
      d8:	03000000 	movweq	r0, #0
      dc:	0000f40b 	andeq	pc, r0, fp, lsl #8
      e0:	fb0b0400 	blx	2c10ea <__bss_end__+0x2b728a>
      e4:	05000000 	streq	r0, [r0, #-0]
      e8:	0001020b 	andeq	r0, r1, fp, lsl #4
      ec:	090b0600 	stmdbeq	fp, {r9, sl}
      f0:	07000001 	streq	r0, [r0, -r1]
      f4:	0001100b 	andeq	r1, r1, fp
      f8:	170b0800 	strne	r0, [fp, -r0, lsl #16]
      fc:	09000001 	stmdbeq	r0, {r0}
     100:	0000650b 	andeq	r6, r0, fp, lsl #10
     104:	6d0b0a00 	vstrvs	s0, [fp, #-0]
     108:	0b000000 	bleq	110 <_start-0x7ef0>
     10c:	0000750b 	andeq	r7, r0, fp, lsl #10
     110:	7d0b0c00 	stcvc	12, cr0, [fp, #-0]
     114:	0d000000 	stceq	0, cr0, [r0, #-0]
     118:	0000850b 	andeq	r8, r0, fp, lsl #10
     11c:	7e0b0e00 	cdpvc	14, 0, cr0, cr11, cr0, {0}
     120:	0f000002 	svceq	0x00000002
     124:	00022a0b 	andeq	r2, r2, fp, lsl #20
     128:	4a0b0d00 	bmi	2c3530 <__bss_end__+0x2b96d0>
     12c:	0e000002 	cdpeq	0, 0, cr0, cr0, cr2, {0}
     130:	0000a00b 	andeq	sl, r0, fp
     134:	0a000f00 	beq	3d3c <_start-0x42c4>
     138:	9a200301 	bls	800d44 <__bss_end__+0x7f6ee4>
     13c:	0b000001 	bleq	148 <_start-0x7eb8>
     140:	000001b5 			; <UNDEFINED> instruction: 0x000001b5
     144:	023b0b00 	eorseq	r0, fp, #0, 22
     148:	0b010000 	bleq	40150 <__bss_end__+0x362f0>
     14c:	000000b4 	strheq	r0, [r0], -r4
     150:	00a70b02 	adceq	r0, r7, r2, lsl #22
     154:	0b030000 	bleq	c015c <__bss_end__+0xb62fc>
     158:	000001c5 	andeq	r0, r0, r5, asr #3
     15c:	00260b04 	eoreq	r0, r6, r4, lsl #22
     160:	0b050000 	bleq	140168 <__bss_end__+0x136308>
     164:	0000025f 	andeq	r0, r0, pc, asr r2
     168:	02510b06 	subseq	r0, r1, #6144	; 0x1800
     16c:	0b070000 	bleq	1c0174 <__bss_end__+0x1b6314>
     170:	00000008 	andeq	r0, r0, r8
     174:	012a0b08 	teqeq	sl, r8, lsl #22
     178:	0b090000 	bleq	240180 <__bss_end__+0x236320>
     17c:	00000258 	andeq	r0, r0, r8, asr r2
     180:	01310b0a 	teqeq	r1, sl, lsl #22
     184:	0b0b0000 	bleq	2c018c <__bss_end__+0x2b632c>
     188:	0000026e 	andeq	r0, r0, lr, ror #4
     18c:	011e0b0c 	tsteq	lr, ip, lsl #22
     190:	0b0d0000 	bleq	340198 <__bss_end__+0x336338>
     194:	0000003b 	andeq	r0, r0, fp, lsr r0
     198:	750c000e 	strvc	r0, [ip, #-14]
     19c:	03000002 	movweq	r0, #2
     1a0:	00730174 	rsbseq	r0, r3, r4, ror r1
     1a4:	c4030000 	strgt	r0, [r3], #-0
     1a8:	0d000001 	stceq	0, cr0, [r0, #-4]
     1ac:	00676572 	rsbeq	r6, r7, r2, ror r5
     1b0:	5a017403 	bpl	5d1c4 <__bss_end__+0x53364>
     1b4:	0e000000 	cdpeq	0, 0, cr0, cr0, cr0, {0}
     1b8:	00000047 	andeq	r0, r0, r7, asr #32
     1bc:	73017603 	movwvc	r7, #5635	; 0x1603
     1c0:	00000000 	andeq	r0, r0, r0
     1c4:	00004c0c 	andeq	r4, r0, ip, lsl #24
     1c8:	012a0300 	teqeq	sl, r0, lsl #6
     1cc:	00000073 	andeq	r0, r0, r3, ror r0
     1d0:	00020403 	andeq	r0, r2, r3, lsl #8
     1d4:	64720d00 	ldrbtvs	r0, [r2], #-3328	; 0xd00
     1d8:	012a0300 	teqeq	sl, r0, lsl #6
     1dc:	0000005a 	andeq	r0, r0, sl, asr r0
     1e0:	006e720d 	rsbeq	r7, lr, sp, lsl #4
     1e4:	5a012a03 	bpl	4a9f8 <__bss_end__+0x40b98>
     1e8:	0f000000 	svceq	0x00000000
     1ec:	00000231 	andeq	r0, r0, r1, lsr r2
     1f0:	73012a03 	movwvc	r2, #6659	; 0x1a03
     1f4:	0e000000 	cdpeq	0, 0, cr0, cr0, cr0, {0}
     1f8:	00000047 	andeq	r0, r0, r7, asr #32
     1fc:	73012c03 	movwvc	r2, #7171	; 0x1c03
     200:	00000000 	andeq	r0, r0, r0
     204:	0000bb10 	andeq	fp, r0, r0, lsl fp
     208:	73d70300 	bicsvc	r0, r7, #0, 6
     20c:	03000000 	movweq	r0, #0
     210:	00000268 	andeq	r0, r0, r8, ror #4
     214:	03004c11 	movweq	r4, #3089	; 0xc11
     218:	000073d7 	ldrdeq	r7, [r0], -r7	; <UNPREDICTABLE>
     21c:	72731100 	rsbsvc	r1, r3, #0, 2
     220:	d7030063 	strle	r0, [r3, -r3, rrx]
     224:	00000041 	andeq	r0, r0, r1, asr #32
     228:	00012512 	andeq	r2, r1, r2, lsl r5
     22c:	41d70300 	bicsmi	r0, r7, r0, lsl #6
     230:	13000000 	movwne	r0, #0
     234:	00000047 	andeq	r0, r0, r7, asr #32
     238:	0073d803 	rsbseq	sp, r3, r3, lsl #16
     23c:	70140000 	andsvc	r0, r4, r0
     240:	f6030063 			; <UNDEFINED> instruction: 0xf6030063
     244:	00000025 	andeq	r0, r0, r5, lsr #32
     248:	00022313 	andeq	r2, r2, r3, lsl r3
     24c:	25f70300 	ldrbcs	r0, [r7, #768]!	; 0x300
     250:	13000000 	movwne	r0, #0
     254:	000000ae 	andeq	r0, r0, lr, lsr #1
     258:	002cf803 	eoreq	pc, ip, r3, lsl #16
     25c:	75140000 	ldrvc	r0, [r4, #-0]
     260:	73fb0300 	mvnsvc	r0, #0, 6
     264:	00000000 	andeq	r0, r0, r0
     268:	0002660c 	andeq	r6, r2, ip, lsl #12
     26c:	01840300 	orreq	r0, r4, r0, lsl #6
     270:	00000073 	andeq	r0, r0, r3, ror r0
     274:	00029203 	andeq	r9, r2, r3, lsl #4
     278:	65720d00 	ldrbvs	r0, [r2, #-3328]!	; 0xd00
     27c:	84030067 	strhi	r0, [r3], #-103	; 0x67
     280:	00005a01 	andeq	r5, r0, r1, lsl #20
     284:	00470e00 	subeq	r0, r7, r0, lsl #28
     288:	86030000 	strhi	r0, [r3], -r0
     28c:	00007301 	andeq	r7, r0, r1, lsl #6
     290:	97150000 	ldrls	r0, [r5, -r0]
     294:	01000001 	tsteq	r0, r1
     298:	00801004 	addeq	r1, r0, r4
     29c:	00001400 	andeq	r1, r0, r0, lsl #8
     2a0:	bb9c0100 	bllt	fe7006a8 <__bss_end__+0xfe6f6848>
     2a4:	16000002 	strne	r0, [r0], -r2
     2a8:	0000801c 	andeq	r8, r0, ip, lsl r0
     2ac:	000003ff 	strdeq	r0, [r0], -pc	; <UNPREDICTABLE>
     2b0:	05500117 	ldrbeq	r0, [r0, #-279]	; 0x117
     2b4:	00975803 	addseq	r5, r7, r3, lsl #16
     2b8:	18000000 	stmdane	r0, {}	; <UNPREDICTABLE>
     2bc:	006f6f66 	rsbeq	r6, pc, r6, ror #30
     2c0:	80240a01 	eorhi	r0, r4, r1, lsl #20
     2c4:	00180000 	andseq	r0, r8, r0
     2c8:	9c010000 	stcls	0, cr0, [r1], {-0}
     2cc:	00000305 	andeq	r0, r0, r5, lsl #6
     2d0:	01007819 	tsteq	r0, r9, lsl r8
     2d4:	0000250a 	andeq	r2, r0, sl, lsl #10
     2d8:	00000000 	andeq	r0, r0, r0
     2dc:	80341a00 	eorshi	r1, r4, r0, lsl #20
     2e0:	03ff0000 	mvnseq	r0, #0
     2e4:	02fb0000 	rscseq	r0, fp, #0
     2e8:	01170000 	tsteq	r7, r0
     2ec:	01f30351 	mvnseq	r0, r1, asr r3
     2f0:	50011750 	andpl	r1, r1, r0, asr r7
     2f4:	97680305 	strbls	r0, [r8, -r5, lsl #6]!
     2f8:	1b000000 	blne	300 <_start-0x7d00>
     2fc:	00008038 	andeq	r8, r0, r8, lsr r0
     300:	00000415 	andeq	r0, r0, r5, lsl r4
     304:	00001500 	andeq	r1, r0, r0, lsl #10
     308:	0f010000 	svceq	0x00010000
     30c:	0000803c 	andeq	r8, r0, ip, lsr r0
     310:	000000c8 	andeq	r0, r0, r8, asr #1
     314:	03ff9c01 	mvnseq	r9, #256	; 0x100
     318:	421c0000 	andsmi	r0, ip, #0
     31c:	01000000 	mrseq	r0, (UNDEF: 0)
     320:	0000ac14 	andeq	sl, r0, r4, lsl ip
     324:	14030500 	strne	r0, [r3], #-1280	; 0x500
     328:	1d00009a 	stcne	0, cr0, [r0, #-616]	; 0xfffffd98
     32c:	1501006e 	strne	r0, [r1, #-110]	; 0x6e
     330:	0000002c 	andeq	r0, r0, ip, lsr #32
     334:	0000002c 	andeq	r0, r0, ip, lsr #32
     338:	0070661e 	rsbseq	r6, r0, lr, lsl r6
     33c:	00932201 	addseq	r2, r3, r1, lsl #4
     340:	03060000 	movweq	r0, #24576	; 0x6000
     344:	00009a14 	andeq	r9, r0, r4, lsl sl
     348:	807c1f9f 			; <UNDEFINED> instruction: 0x807c1f9f
     34c:	002c0000 	eoreq	r0, ip, r0
     350:	037a0000 	cmneq	sl, #0
     354:	691d0000 	ldmdbvs	sp, {}	; <UNPREDICTABLE>
     358:	251f0100 	ldrcs	r0, [pc, #-256]	; 260 <_start-0x7da0>
     35c:	70000000 	andvc	r0, r0, r0
     360:	16000000 	strne	r0, [r0], -r0
     364:	0000809c 	muleq	r0, ip, r0
     368:	000003ff 	strdeq	r0, [r0], -pc	; <UNPREDICTABLE>
     36c:	02510117 	subseq	r0, r1, #-1073741819	; 0xc0000005
     370:	01170074 	tsteq	r7, r4, ror r0
     374:	00760250 	rsbseq	r0, r6, r0, asr r2
     378:	7c1a0000 	ldcvc	0, cr0, [sl], {-0}
     37c:	ff000080 			; <UNDEFINED> instruction: 0xff000080
     380:	91000003 	tstls	r0, r3
     384:	17000003 	strne	r0, [r0, -r3]
     388:	03055001 	movweq	r5, #20481	; 0x5001
     38c:	0000977c 	andeq	r9, r0, ip, ror r7
     390:	80b81a00 	adcshi	r1, r8, r0, lsl #20
     394:	03ff0000 	mvnseq	r0, #0
     398:	03ae0000 			; <UNDEFINED> instruction: 0x03ae0000
     39c:	01170000 	tsteq	r7, r0
     3a0:	00750251 	rsbseq	r0, r5, r1, asr r2
     3a4:	05500117 	ldrbeq	r0, [r0, #-279]	; 0x117
     3a8:	00979c03 	addseq	r9, r7, r3, lsl #24
     3ac:	c41a0000 	ldrgt	r0, [sl], #-0
     3b0:	ff000080 			; <UNDEFINED> instruction: 0xff000080
     3b4:	c2000003 	andgt	r0, r0, #3
     3b8:	17000003 	strne	r0, [r0, -r3]
     3bc:	74025001 	strvc	r5, [r2], #-1
     3c0:	c8200000 	stmdagt	r0!, {}	; <UNPREDICTABLE>
     3c4:	02000080 	andeq	r0, r0, #128	; 0x80
     3c8:	d01a0075 	andsle	r0, sl, r5, ror r0
     3cc:	ff000080 			; <UNDEFINED> instruction: 0xff000080
     3d0:	de000003 	cdple	0, 0, cr0, cr0, cr3, {0}
     3d4:	17000003 	strne	r0, [r0, -r3]
     3d8:	74025001 	strvc	r5, [r2], #-1
     3dc:	d81a0000 	ldmdale	sl, {}	; <UNPREDICTABLE>
     3e0:	ff000080 			; <UNDEFINED> instruction: 0xff000080
     3e4:	f5000003 			; <UNDEFINED> instruction: 0xf5000003
     3e8:	17000003 	strne	r0, [r0, -r3]
     3ec:	03055001 	movweq	r5, #20481	; 0x5001
     3f0:	000097d8 	ldrdeq	r9, [r0], -r8
     3f4:	80dc1b00 	sbcshi	r1, ip, r0, lsl #22
     3f8:	04150000 	ldreq	r0, [r5], #-0
     3fc:	21000000 	mrscs	r0, (UNDEF: 0)
     400:	000002a6 	andeq	r0, r0, r6, lsr #5
     404:	00252904 	eoreq	r2, r5, r4, lsl #18
     408:	04150000 	ldreq	r0, [r5], #-0
     40c:	a1220000 	teqge	r2, r0
     410:	23000000 	movwcs	r0, #0
     414:	00c22400 	sbceq	r2, r2, r0, lsl #8
     418:	66040000 	strvs	r0, [r4], -r0
     41c:	00019100 	andeq	r9, r1, r0, lsl #2
     420:	df000400 	svcle	0x00000400
     424:	04000001 	streq	r0, [r0], #-1
     428:	0001cc01 	andeq	ip, r1, r1, lsl #24
     42c:	02950100 	addseq	r0, r5, #0, 2
     430:	02b70000 	adcseq	r0, r7, #0
     434:	81040000 	mrshi	r0, (UNDEF: 4)
     438:	00580000 	subseq	r0, r8, r0
     43c:	01280000 	teqeq	r8, r0
     440:	86020000 	strhi	r0, [r2], -r0
     444:	02000002 	andeq	r0, r0, #2
     448:	00003028 	andeq	r3, r0, r8, lsr #32
     44c:	02ad0300 	adceq	r0, sp, #0, 6
     450:	03040000 	movweq	r0, #16384	; 0x4000
     454:	00004700 	andeq	r4, r0, r0, lsl #14
     458:	03000400 	movweq	r0, #1024	; 0x400
     45c:	00470000 	subeq	r0, r7, r0
     460:	00000000 	andeq	r0, r0, r0
     464:	af020405 	svcge	0x00020405
     468:	02000002 	andeq	r0, r0, #2
     46c:	00002562 	andeq	r2, r0, r2, ror #10
     470:	05040600 	streq	r0, [r4, #-1536]	; 0x600
     474:	00746e69 	rsbseq	r6, r4, r9, ror #28
     478:	19070407 	stmdbne	r7, {r0, r1, r2, sl}
     47c:	07000000 	streq	r0, [r0, -r0]
     480:	019f0601 	orrseq	r0, pc, r1, lsl #12
     484:	02070000 	andeq	r0, r7, #0
     488:	0001ab05 	andeq	sl, r1, r5, lsl #22
     48c:	05040700 	streq	r0, [r4, #-1792]	; 0x700
     490:	00000032 	andeq	r0, r0, r2, lsr r0
     494:	2d050807 	stccs	8, cr0, [r5, #-28]	; 0xffffffe4
     498:	07000000 	streq	r0, [r0, -r0]
     49c:	019d0801 	orrseq	r0, sp, r1, lsl #16
     4a0:	02070000 	andeq	r0, r7, #0
     4a4:	00008d07 	andeq	r8, r0, r7, lsl #26
     4a8:	07040700 	streq	r0, [r4, -r0, lsl #14]
     4ac:	00000014 	andeq	r0, r0, r4, lsl r0
     4b0:	0f070807 	svceq	0x00070807
     4b4:	07000000 	streq	r0, [r0, -r0]
     4b8:	00cf0704 	sbceq	r0, pc, r4, lsl #14
     4bc:	04080000 	streq	r0, [r8], #-0
     4c0:	000000a7 	andeq	r0, r0, r7, lsr #1
     4c4:	a6080107 	strge	r0, [r8], -r7, lsl #2
     4c8:	08000001 	stmdaeq	r0, {r0}
     4cc:	0000b404 	andeq	fp, r0, r4, lsl #8
     4d0:	00a70900 	adceq	r0, r7, r0, lsl #18
     4d4:	a60a0000 	strge	r0, [sl], -r0
     4d8:	01000002 	tsteq	r0, r2
     4dc:	00005406 	andeq	r5, r0, r6, lsl #8
     4e0:	00810400 	addeq	r0, r1, r0, lsl #8
     4e4:	00005800 	andeq	r5, r0, r0, lsl #16
     4e8:	439c0100 	orrsmi	r0, ip, #0, 2
     4ec:	0b000001 	bleq	4f8 <_start-0x7b08>
     4f0:	00746d66 	rsbseq	r6, r4, r6, ror #26
     4f4:	00ae0601 	adceq	r0, lr, r1, lsl #12
     4f8:	91020000 	mrsls	r0, (UNDEF: 2)
     4fc:	620d0c70 	andvs	r0, sp, #112, 24	; 0x7000
     500:	01006675 	tsteq	r0, r5, ror r6
     504:	00014308 	andeq	r4, r1, r8, lsl #6
     508:	54030500 	strpl	r0, [r3], #-1280	; 0x500
     50c:	0e00009a 	mcreq	0, 0, r0, cr0, cr10, {4}
     510:	000002fb 	strdeq	r0, [r0], -fp
     514:	00490901 	subeq	r0, r9, r1, lsl #18
     518:	91020000 	mrsls	r0, (UNDEF: 2)
     51c:	7a730f5c 	bvc	1cc4294 <__bss_end__+0x1cba434>
     520:	540c0100 	strpl	r0, [ip], #-256	; 0x100
     524:	8f000000 	svchi	0x00000000
     528:	10000000 	andne	r0, r0, r0
     52c:	0000812c 	andeq	r8, r0, ip, lsr #2
     530:	00000174 	andeq	r0, r0, r4, ror r1
     534:	00000136 	andeq	r0, r0, r6, lsr r1
     538:	02530111 	subseq	r0, r3, #1073741828	; 0x40000004
     53c:	01114c91 			; <UNDEFINED> instruction: 0x01114c91
     540:	48910352 	ldmmi	r1, {r1, r4, r6, r8, r9}
     544:	51011106 	tstpl	r1, r6, lsl #2
     548:	04000a03 	streq	r0, [r0], #-2563	; 0xa03
     54c:	02500111 	subseq	r0, r0, #1073741828	; 0x40000004
     550:	12000074 	andne	r0, r0, #116	; 0x74
     554:	00008140 	andeq	r8, r0, r0, asr #2
     558:	02500111 	subseq	r0, r0, #1073741828	; 0x40000004
     55c:	00000074 	andeq	r0, r0, r4, ror r0
     560:	0000a713 	andeq	sl, r0, r3, lsl r7
     564:	00015400 	andeq	r5, r1, r0, lsl #8
     568:	009a1400 	addseq	r1, sl, r0, lsl #8
     56c:	03ff0000 	mvnseq	r0, #0
     570:	00541500 	subseq	r1, r4, r0, lsl #10
     574:	01630000 	cmneq	r3, r0
     578:	ae160000 	cdpge	0, 1, cr0, cr6, cr0, {0}
     57c:	00000000 	andeq	r0, r0, r0
     580:	00031a17 	andeq	r1, r3, r7, lsl sl
     584:	6e220400 	cdpvs	4, 2, cr0, cr2, cr0, {0}
     588:	08000001 	stmdaeq	r0, {r0}
     58c:	00015404 	andeq	r5, r1, r4, lsl #8
     590:	02a31800 	adceq	r1, r3, #0, 16
     594:	02050000 	andeq	r0, r5, #0
     598:	00000054 	andeq	r0, r0, r4, asr r0
     59c:	0000a116 	andeq	sl, r0, r6, lsl r1
     5a0:	00541600 	subseq	r1, r4, r0, lsl #12
     5a4:	ae160000 	cdpge	0, 1, cr0, cr6, cr0, {0}
     5a8:	16000000 	strne	r0, [r0], -r0
     5ac:	00000049 	andeq	r0, r0, r9, asr #32
     5b0:	00ee0000 	rsceq	r0, lr, r0
     5b4:	00040000 	andeq	r0, r4, r0
     5b8:	00000310 	andeq	r0, r0, r0, lsl r3
     5bc:	01cc0104 	biceq	r0, ip, r4, lsl #2
     5c0:	05010000 	streq	r0, [r1, #-0]
     5c4:	b7000003 	strlt	r0, [r0, -r3]
     5c8:	5c000002 	stcpl	0, cr0, [r0], {2}
     5cc:	34000081 	strcc	r0, [r0], #-129	; 0x81
     5d0:	2e000000 	cdpcs	0, 0, cr0, cr0, cr0, {0}
     5d4:	02000002 	andeq	r0, r0, #2
     5d8:	6e690504 	cdpvs	5, 6, cr0, cr9, cr4, {0}
     5dc:	04030074 	streq	r0, [r3], #-116	; 0x74
     5e0:	00001907 	andeq	r1, r0, r7, lsl #18
     5e4:	06010300 	streq	r0, [r1], -r0, lsl #6
     5e8:	0000019f 	muleq	r0, pc, r1	; <UNPREDICTABLE>
     5ec:	ab050203 	blge	140e00 <__bss_end__+0x136fa0>
     5f0:	03000001 	movweq	r0, #1
     5f4:	00320504 	eorseq	r0, r2, r4, lsl #10
     5f8:	08030000 	stmdaeq	r3, {}	; <UNPREDICTABLE>
     5fc:	00002d05 	andeq	r2, r0, r5, lsl #26
     600:	08010300 	stmdaeq	r1, {r8, r9}
     604:	0000019d 	muleq	r0, sp, r1
     608:	8d070203 	sfmhi	f0, 4, [r7, #-12]
     60c:	03000000 	movweq	r0, #0
     610:	00140704 	andseq	r0, r4, r4, lsl #14
     614:	08030000 	stmdaeq	r3, {}	; <UNPREDICTABLE>
     618:	00000f07 	andeq	r0, r0, r7, lsl #30
     61c:	07040300 	streq	r0, [r4, -r0, lsl #6]
     620:	000000cf 	andeq	r0, r0, pc, asr #1
     624:	a6080103 	strge	r0, [r8], -r3, lsl #2
     628:	04000001 	streq	r0, [r0], #-1
     62c:	00007f04 	andeq	r7, r0, r4, lsl #30
     630:	00720500 	rsbseq	r0, r2, r0, lsl #10
     634:	11060000 	mrsne	r0, (UNDEF: 6)
     638:	01000003 	tsteq	r0, r3
     63c:	00002504 	andeq	r2, r0, r4, lsl #10
     640:	00815c00 	addeq	r5, r1, r0, lsl #24
     644:	00003400 	andeq	r3, r0, r0, lsl #8
     648:	ab9c0100 	blge	fe700a50 <__bss_end__+0xfe6f6bf0>
     64c:	07000000 	streq	r0, [r0, -r0]
     650:	04010070 	streq	r0, [r1], #-112	; 0x70
     654:	00000079 	andeq	r0, r0, r9, ror r0
     658:	000000b8 	strheq	r0, [r0], -r8
     65c:	00250800 	eoreq	r0, r5, r0, lsl #16
     660:	00ba0000 	adcseq	r0, sl, r0
     664:	25090000 	strcs	r0, [r9, #-0]
     668:	00000000 	andeq	r0, r0, r0
     66c:	00031f0a 	andeq	r1, r3, sl, lsl #30
     670:	c51d0200 	ldrgt	r0, [sp, #-512]	; 0x200
     674:	04000000 	streq	r0, [r0], #-0
     678:	0000ab04 	andeq	sl, r0, r4, lsl #22
     67c:	00250800 	eoreq	r0, r5, r0, lsl #16
     680:	00da0000 	sbcseq	r0, sl, r0
     684:	79090000 	stmdbvc	r9, {}	; <UNPREDICTABLE>
     688:	00000000 	andeq	r0, r0, r0
     68c:	00031a0b 	andeq	r1, r3, fp, lsl #20
     690:	eb0c0100 	bl	300a98 <__bss_end__+0x2f6c38>
     694:	05000000 	streq	r0, [r0, #-0]
     698:	0096bc03 	addseq	fp, r6, r3, lsl #24
     69c:	cb040400 	blgt	1016a4 <__bss_end__+0xf7844>
     6a0:	00000000 	andeq	r0, r0, r0
     6a4:	000006a1 	andeq	r0, r0, r1, lsr #13
     6a8:	03a90004 			; <UNDEFINED> instruction: 0x03a90004
     6ac:	01040000 	mrseq	r0, (UNDEF: 4)
     6b0:	000001cc 	andeq	r0, r0, ip, asr #3
     6b4:	00036401 	andeq	r6, r3, r1, lsl #8
     6b8:	0002b700 	andeq	fp, r2, r0, lsl #14
     6bc:	00819000 	addeq	r9, r1, r0
     6c0:	00052400 	andeq	r2, r5, r0, lsl #8
     6c4:	0002c800 	andeq	ip, r2, r0, lsl #16
     6c8:	05040200 	streq	r0, [r4, #-512]	; 0x200
     6cc:	00746e69 	rsbseq	r6, r4, r9, ror #28
     6d0:	19070403 	stmdbne	r7, {r0, r1, sl}
     6d4:	03000000 	movweq	r0, #0
     6d8:	019f0601 	orrseq	r0, pc, r1, lsl #12
     6dc:	02030000 	andeq	r0, r3, #0
     6e0:	0001ab05 	andeq	sl, r1, r5, lsl #22
     6e4:	05040300 	streq	r0, [r4, #-768]	; 0x300
     6e8:	00000032 	andeq	r0, r0, r2, lsr r0
     6ec:	2d050803 	stccs	8, cr0, [r5, #-12]
     6f0:	03000000 	movweq	r0, #0
     6f4:	019d0801 	orrseq	r0, sp, r1, lsl #16
     6f8:	02030000 	andeq	r0, r3, #0
     6fc:	00008d07 	andeq	r8, r0, r7, lsl #26
     700:	07040300 	streq	r0, [r4, -r0, lsl #6]
     704:	00000014 	andeq	r0, r0, r4, lsl r0
     708:	0f070803 	svceq	0x00070803
     70c:	03000000 	movweq	r0, #0
     710:	00cf0704 	sbceq	r0, pc, r4, lsl #14
     714:	04040000 	streq	r0, [r4], #-0
     718:	007a0405 	rsbseq	r0, sl, r5, lsl #8
     71c:	01030000 	mrseq	r0, (UNDEF: 3)
     720:	0001a608 	andeq	sl, r1, r8, lsl #12
     724:	87040500 	strhi	r0, [r4, -r0, lsl #10]
     728:	06000000 	streq	r0, [r0], -r0
     72c:	0000007a 	andeq	r0, r0, sl, ror r0
     730:	00028607 	andeq	r8, r2, r7, lsl #12
     734:	97280200 	strls	r0, [r8, -r0, lsl #4]!
     738:	08000000 	stmdaeq	r0, {}	; <UNPREDICTABLE>
     73c:	000002ad 	andeq	r0, r0, sp, lsr #5
     740:	ae000404 	cdpge	4, 0, cr0, cr0, cr4, {0}
     744:	09000000 	stmdbeq	r0, {}	; <UNPREDICTABLE>
     748:	00000300 	andeq	r0, r0, r0, lsl #6
     74c:	00000072 	andeq	r0, r0, r2, ror r0
     750:	af070000 	svcge	0x00070000
     754:	02000002 	andeq	r0, r0, #2
     758:	00008c62 	andeq	r8, r0, r2, ror #24
     75c:	03390a00 	teqeq	r9, #0, 20
     760:	27010000 	strcs	r0, [r1, -r0]
     764:	00000025 	andeq	r0, r0, r5, lsr #32
     768:	00008190 	muleq	r0, r0, r1
     76c:	00000014 	andeq	r0, r0, r4, lsl r0
     770:	00e09c01 	rsceq	r9, r0, r1, lsl #24
     774:	630b0000 	movwvs	r0, #45056	; 0xb000
     778:	25270100 	strcs	r0, [r7, #-256]!	; 0x100
     77c:	d6000000 	strle	r0, [r0], -r0
     780:	00000000 	andeq	r0, r0, r0
     784:	6461700c 	strbtvs	r7, [r1], #-12
     788:	742e0100 	strtvc	r0, [lr], #-256	; 0x100
     78c:	a4000000 	strge	r0, [r0], #-0
     790:	2c000081 	stccs	0, cr0, [r0], {129}	; 0x81
     794:	01000000 	mrseq	r0, (UNDEF: 0)
     798:	0001309c 	muleq	r1, ip, r0
     79c:	00700b00 	rsbseq	r0, r0, r0, lsl #22
     7a0:	00742e01 	rsbseq	r2, r4, r1, lsl #28
     7a4:	01040000 	mrseq	r0, (UNDEF: 4)
     7a8:	560d0000 	strpl	r0, [sp], -r0
     7ac:	01000003 	tsteq	r0, r3
     7b0:	0000742e 	andeq	r7, r0, lr, lsr #8
     7b4:	00012f00 	andeq	r2, r1, r0, lsl #30
     7b8:	03840e00 	orreq	r0, r4, #0, 28
     7bc:	2e010000 	cdpcs	0, 0, cr0, cr1, cr0, {0}
     7c0:	00000025 	andeq	r0, r0, r5, lsr #32
     7c4:	6c0f5201 	sfmvs	f5, 4, [pc], {1}
     7c8:	01006e65 	tsteq	r0, r5, ror #28
     7cc:	0000252f 	andeq	r2, r0, pc, lsr #10
     7d0:	00510100 	subseq	r0, r1, r0, lsl #2
     7d4:	0003310a 	andeq	r3, r3, sl, lsl #2
     7d8:	74370100 	ldrtvc	r0, [r7], #-256	; 0x100
     7dc:	d0000000 	andle	r0, r0, r0
     7e0:	40000081 	andmi	r0, r0, r1, lsl #1
     7e4:	01000000 	mrseq	r0, (UNDEF: 0)
     7e8:	00019c9c 	muleq	r1, ip, ip
     7ec:	73640b00 	cmnvc	r4, #0, 22
     7f0:	37010074 	smlsdxcc	r1, r4, r0, r0
     7f4:	00000074 	andeq	r0, r0, r4, ror r0
     7f8:	00000150 	andeq	r0, r0, r0, asr r1
     7fc:	01006e0b 	tsteq	r0, fp, lsl #28
     800:	00002537 	andeq	r2, r0, r7, lsr r5
     804:	00018800 	andeq	r8, r1, r0, lsl #16
     808:	00700b00 	rsbseq	r0, r0, r0, lsl #22
     80c:	00743701 	rsbseq	r3, r4, r1, lsl #14
     810:	01a90000 			; <UNDEFINED> instruction: 0x01a90000
     814:	610d0000 	mrsvs	r0, (UNDEF: 13)
     818:	01000004 	tsteq	r0, r4
     81c:	00007437 	andeq	r7, r0, r7, lsr r4
     820:	0001df00 	andeq	sp, r1, r0, lsl #30
     824:	656c1000 	strbvs	r1, [ip, #-0]!
     828:	3901006e 	stmdbcc	r1, {r1, r2, r3, r5, r6}
     82c:	00000025 	andeq	r0, r0, r5, lsr #32
     830:	000001fd 	strdeq	r0, [r0], -sp
     834:	0100730f 	tsteq	r0, pc, lsl #6
     838:	0000743d 	andeq	r7, r0, sp, lsr r4
     83c:	00500100 	subseq	r0, r0, r0, lsl #2
     840:	0003a10a 	andeq	sl, r3, sl, lsl #2
     844:	74470100 	strbvc	r0, [r7], #-256	; 0x100
     848:	10000000 	andne	r0, r0, r0
     84c:	a8000082 	stmdage	r0, {r1, r7}
     850:	01000001 	tsteq	r0, r1
     854:	0002df9c 	muleq	r2, ip, pc	; <UNPREDICTABLE>
     858:	03560d00 	cmpeq	r6, #0, 26
     85c:	47010000 	strmi	r0, [r1, -r0]
     860:	0000002c 	andeq	r0, r0, ip, lsr #32
     864:	00000224 	andeq	r0, r0, r4, lsr #4
     868:	7473640b 	ldrbtvc	r6, [r3], #-1035	; 0x40b
     86c:	74470100 	strbvc	r0, [r7], #-256	; 0x100
     870:	52000000 	andpl	r0, r0, #0
     874:	0b000002 	bleq	884 <_start-0x777c>
     878:	4701006e 	strmi	r0, [r1, -lr, rrx]
     87c:	00000025 	andeq	r0, r0, r5, lsr #32
     880:	000002c0 	andeq	r0, r0, r0, asr #5
     884:	6c61760b 	stclvs	6, cr7, [r1], #-44	; 0xffffffd4
     888:	25470100 	strbcs	r0, [r7, #-256]	; 0x100
     88c:	ec000000 	stc	0, cr0, [r0], {-0}
     890:	0d000002 	stceq	0, cr0, [r0, #-8]
     894:	00000384 	andeq	r0, r0, r4, lsl #7
     898:	00254701 	eoreq	r4, r5, r1, lsl #14
     89c:	036b0000 	cmneq	fp, #0
     8a0:	5b0e0000 	blpl	3808a8 <__bss_end__+0x376a48>
     8a4:	01000003 	tsteq	r0, r3
     8a8:	00002547 	andeq	r2, r0, r7, asr #10
     8ac:	04910200 	ldreq	r0, [r1], #512	; 0x200
     8b0:	6675620f 	ldrbtvs	r6, [r5], -pc, lsl #4
     8b4:	df4c0100 	svcle	0x004c0100
     8b8:	03000002 	movweq	r0, #2
     8bc:	107fa891 			; <UNDEFINED> instruction: 0x107fa891
     8c0:	4c010070 	stcmi	0, cr0, [r1], {112}	; 0x70
     8c4:	00000074 	andeq	r0, r0, r4, ror r0
     8c8:	00000395 	muleq	r0, r5, r3
     8cc:	01007510 	tsteq	r0, r0, lsl r5
     8d0:	00002c4d 	andeq	r2, r0, sp, asr #24
     8d4:	00045100 	andeq	r5, r4, r0, lsl #2
     8d8:	03411100 	movteq	r1, #4352	; 0x1100
     8dc:	02ff0000 	rscseq	r0, pc, #0
     8e0:	03050000 	movweq	r0, #20480	; 0x5000
     8e4:	000097e4 	andeq	r9, r0, r4, ror #15
     8e8:	00827c12 	addeq	r7, r2, r2, lsl ip
     8ec:	00007400 	andeq	r7, r0, r0, lsl #8
     8f0:	00026100 	andeq	r6, r2, r0, lsl #2
     8f4:	032b1300 	teqeq	fp, #0, 6
     8f8:	52010000 	andpl	r0, r1, #0
     8fc:	0000002c 	andeq	r0, r0, ip, lsr #32
     900:	00000556 	andeq	r0, r0, r6, asr r5
     904:	83501400 	cmphi	r0, #0, 8
     908:	06800000 	streq	r0, [r0], r0
     90c:	6c150000 	ldcvs	0, cr0, [r5], {-0}
     910:	87000083 	strhi	r0, [r0, -r3, lsl #1]
     914:	a3000006 	movwge	r0, #6
     918:	16000002 	strne	r0, [r0], -r2
     91c:	08025301 	stmdaeq	r2, {r0, r8, r9, ip, lr}
     920:	52011675 	andpl	r1, r1, #122683392	; 0x7500000
     924:	97e40305 	strbls	r0, [r4, r5, lsl #6]!
     928:	01160000 	tsteq	r6, r0
     92c:	1c030551 	cfstr32ne	mvfx0, [r3], {81}	; 0x51
     930:	16000098 			; <UNDEFINED> instruction: 0x16000098
     934:	03055001 	movweq	r5, #20481	; 0x5001
     938:	00009808 	andeq	r9, r0, r8, lsl #16
     93c:	007d0216 	rsbseq	r0, sp, r6, lsl r2
     940:	98300305 	ldmdals	r0!, {r0, r2, r8, r9}
     944:	14000000 	strne	r0, [r0], #-0
     948:	00008370 	andeq	r8, r0, r0, ror r3
     94c:	0000069d 	muleq	r0, sp, r6
     950:	00837c15 	addeq	r7, r3, r5, lsl ip
     954:	0000e000 	andeq	lr, r0, r0
     958:	0002c100 	andeq	ip, r2, r0, lsl #2
     95c:	51011600 	tstpl	r1, r0, lsl #12
     960:	7fa09103 	svcvc	0x00a09103
     964:	83901700 	orrshi	r1, r0, #0, 14
     968:	01300000 	teqeq	r0, r0
     96c:	01160000 	tsteq	r6, r0
     970:	a0910353 	addsge	r0, r1, r3, asr r3
     974:	5101167f 	tstpl	r1, pc, ror r6
     978:	16007402 	strne	r7, [r0], -r2, lsl #8
     97c:	75025001 	strvc	r5, [r2, #-1]
     980:	18000000 	stmdane	r0, {}	; <UNPREDICTABLE>
     984:	0000007a 	andeq	r0, r0, sl, ror r0
     988:	000002ef 	andeq	r0, r0, pc, ror #5
     98c:	00006b19 	andeq	r6, r0, r9, lsl fp
     990:	18003f00 	stmdane	r0, {r8, r9, sl, fp, ip, sp}
     994:	0000007a 	andeq	r0, r0, sl, ror r0
     998:	000002ff 	strdeq	r0, [r0], -pc	; <UNPREDICTABLE>
     99c:	00006b19 	andeq	r6, r0, r9, lsl fp
     9a0:	06000400 	streq	r0, [r0], -r0, lsl #8
     9a4:	000002ef 	andeq	r0, r0, pc, ror #5
     9a8:	0003751a 	andeq	r7, r3, sl, lsl r5
     9ac:	b81f0100 	ldmdalt	pc, {r8}	; <UNPREDICTABLE>
     9b0:	68000083 	stmdavs	r0, {r0, r1, r7}
     9b4:	01000000 	mrseq	r0, (UNDEF: 0)
     9b8:	0003929c 	muleq	r3, ip, r2
     9bc:	038a0d00 	orreq	r0, sl, #0, 26
     9c0:	1f010000 	svcne	0x00010000
     9c4:	000003a1 	andeq	r0, r0, r1, lsr #7
     9c8:	00000582 	andeq	r0, r0, r2, lsl #11
     9cc:	00034e0d 	andeq	r4, r3, sp, lsl #28
     9d0:	b61f0100 	ldrlt	r0, [pc], -r0, lsl #2
     9d4:	ae000003 	cdpge	0, 0, cr0, cr0, cr3, {0}
     9d8:	11000005 	tstne	r0, r5
     9dc:	00000341 	andeq	r0, r0, r1, asr #6
     9e0:	000003cc 	andeq	r0, r0, ip, asr #7
     9e4:	97ec0305 	strbls	r0, [ip, r5, lsl #6]!
     9e8:	cc140000 	ldcgt	0, cr0, [r4], {-0}
     9ec:	80000083 	andhi	r0, r0, r3, lsl #1
     9f0:	15000006 	strne	r0, [r0, #-6]
     9f4:	000083e8 	andeq	r8, r0, r8, ror #7
     9f8:	00000687 	andeq	r0, r0, r7, lsl #13
     9fc:	00000388 	andeq	r0, r0, r8, lsl #7
     a00:	02530116 	subseq	r0, r3, #-2147483643	; 0x80000005
     a04:	01162008 	tsteq	r6, r8
     a08:	ec030552 	cfstr32	mvfx0, [r3], {82}	; 0x52
     a0c:	16000097 			; <UNDEFINED> instruction: 0x16000097
     a10:	03055101 	movweq	r5, #20737	; 0x5101
     a14:	0000981c 	andeq	r9, r0, ip, lsl r8
     a18:	05500116 	ldrbeq	r0, [r0, #-278]	; 0x116
     a1c:	00980803 	addseq	r0, r8, r3, lsl #16
     a20:	7d021600 	stcvc	6, cr1, [r2, #-0]
     a24:	58030500 	stmdapl	r3, {r8, sl}
     a28:	00000098 	muleq	r0, r8, r0
     a2c:	0083ec14 	addeq	lr, r3, r4, lsl ip
     a30:	00069d00 	andeq	r9, r6, r0, lsl #26
     a34:	251b0000 	ldrcs	r0, [fp, #-0]
     a38:	a1000000 	mrsge	r0, (UNDEF: 0)
     a3c:	1c000003 	stcne	0, cr0, [r0], {3}
     a40:	00000025 	andeq	r0, r0, r5, lsr #32
     a44:	92040500 	andls	r0, r4, #0, 10
     a48:	1b000003 	blne	a5c <_start-0x75a4>
     a4c:	00000025 	andeq	r0, r0, r5, lsr #32
     a50:	000003b6 			; <UNDEFINED> instruction: 0x000003b6
     a54:	0000811c 	andeq	r8, r0, ip, lsl r1
     a58:	04050000 	streq	r0, [r5], #-0
     a5c:	000003a7 	andeq	r0, r0, r7, lsr #7
     a60:	00007a18 	andeq	r7, r0, r8, lsl sl
     a64:	0003cc00 	andeq	ip, r3, r0, lsl #24
     a68:	006b1900 	rsbeq	r1, fp, r0, lsl #18
     a6c:	000e0000 	andeq	r0, lr, r0
     a70:	0003bc06 	andeq	fp, r3, r6, lsl #24
     a74:	02a31d00 	adceq	r1, r3, #0, 26
     a78:	7d010000 	stcvc	0, cr0, [r1, #-0]
     a7c:	00000025 	andeq	r0, r0, r5, lsr #32
     a80:	00008420 	andeq	r8, r0, r0, lsr #8
     a84:	00000294 	muleq	r0, r4, r2
     a88:	06459c01 	strbeq	r9, [r5], -r1, lsl #24
     a8c:	620b0000 	andvs	r0, fp, #0
     a90:	01006675 	tsteq	r0, r5, ror r6
     a94:	0000747d 	andeq	r7, r0, sp, ror r4
     a98:	0005da00 	andeq	sp, r5, r0, lsl #20
     a9c:	006e0b00 	rsbeq	r0, lr, r0, lsl #22
     aa0:	00257d01 	eoreq	r7, r5, r1, lsl #26
     aa4:	06060000 	streq	r0, [r6], -r0
     aa8:	660b0000 	strvs	r0, [fp], -r0
     aac:	0100746d 	tsteq	r0, sp, ror #8
     ab0:	0000817d 	andeq	r8, r0, sp, ror r1
     ab4:	00063400 	andeq	r3, r6, r0, lsl #8
     ab8:	02fb0d00 	rscseq	r0, fp, #0, 26
     abc:	7d010000 	stcvc	0, cr0, [r1, #-0]
     ac0:	000000ae 	andeq	r0, r0, lr, lsr #1
     ac4:	00000668 	andeq	r0, r0, r8, ror #12
     ac8:	01007010 	tsteq	r0, r0, lsl r0
     acc:	0000747e 	andeq	r7, r0, lr, ror r4
     ad0:	00067b00 	andeq	r7, r6, r0, lsl #22
     ad4:	00651000 	rsbeq	r1, r5, r0
     ad8:	00747e01 	rsbseq	r7, r4, r1, lsl #28
     adc:	06f90000 	ldrbteq	r0, [r9], r0
     ae0:	41110000 	tstmi	r1, r0
     ae4:	55000003 	strpl	r0, [r0, #-3]
     ae8:	05000006 	streq	r0, [r0, #-6]
     aec:	0097fc03 	addseq	pc, r7, r3, lsl #24
     af0:	00001e00 	andeq	r1, r0, r0, lsl #28
     af4:	73100000 	tstvc	r0, #0
     af8:	748b0100 	strvc	r0, [fp], #256	; 0x100
     afc:	20000000 	andcs	r0, r0, r0
     b00:	0f000007 	svceq	0x00000007
     b04:	006d756e 	rsbeq	r7, sp, lr, ror #10
     b08:	065a8b01 	ldrbeq	r8, [sl], -r1, lsl #22
     b0c:	91030000 	mrsls	r0, (UNDEF: 3)
     b10:	84137ed8 	ldrhi	r7, [r3], #-3800	; 0xed8
     b14:	01000003 	tsteq	r0, r3
     b18:	00002c8c 	andeq	r2, r0, ip, lsl #25
     b1c:	00077500 	andeq	r7, r7, r0, lsl #10
     b20:	84a41500 	strthi	r1, [r4], #1280	; 0x500
     b24:	00b90000 	adcseq	r0, r9, r0
     b28:	04910000 	ldreq	r0, [r1], #0
     b2c:	01160000 	tsteq	r6, r0
     b30:	00750250 	rsbseq	r0, r5, r0, asr r2
     b34:	84b81400 	ldrthi	r1, [r8], #1024	; 0x400
     b38:	06800000 	streq	r0, [r0], r0
     b3c:	d4150000 	ldrle	r0, [r5], #-0
     b40:	87000084 	strhi	r0, [r0, -r4, lsl #1]
     b44:	d3000006 	movwle	r0, #6
     b48:	16000004 	strne	r0, [r0], -r4
     b4c:	08025301 	stmdaeq	r2, {r0, r8, r9, ip, lr}
     b50:	52011692 	andpl	r1, r1, #153092096	; 0x9200000
     b54:	97fc0305 	ldrbls	r0, [ip, r5, lsl #6]!
     b58:	01160000 	tsteq	r6, r0
     b5c:	1c030551 	cfstr32ne	mvfx0, [r3], {81}	; 0x51
     b60:	16000098 			; <UNDEFINED> instruction: 0x16000098
     b64:	03055001 	movweq	r5, #20481	; 0x5001
     b68:	00009808 	andeq	r9, r0, r8, lsl #16
     b6c:	007d0216 	rsbseq	r0, sp, r6, lsl r2
     b70:	98600305 	stmdals	r0!, {r0, r2, r8, r9}^
     b74:	14000000 	strne	r0, [r0], #-0
     b78:	000084d8 	ldrdeq	r8, [r0], -r8	; <UNPREDICTABLE>
     b7c:	0000069d 	muleq	r0, sp, r6
     b80:	00854814 	addeq	r4, r5, r4, lsl r8
     b84:	00068000 	andeq	r8, r6, r0
     b88:	855c1500 	ldrbhi	r1, [ip, #-1280]	; 0x500
     b8c:	06870000 	streq	r0, [r7], r0
     b90:	05140000 	ldreq	r0, [r4, #-0]
     b94:	01160000 	tsteq	r6, r0
     b98:	98080253 	stmdals	r8, {r0, r1, r4, r6, r9}
     b9c:	05520116 	ldrbeq	r0, [r2, #-278]	; 0x116
     ba0:	0097fc03 	addseq	pc, r7, r3, lsl #24
     ba4:	51011600 	tstpl	r1, r0, lsl #12
     ba8:	981c0305 	ldmdals	ip, {r0, r2, r8, r9}
     bac:	01160000 	tsteq	r6, r0
     bb0:	6c030550 	cfstr32vs	mvfx0, [r3], {80}	; 0x50
     bb4:	00000098 	muleq	r0, r8, r0
     bb8:	00856014 	addeq	r6, r5, r4, lsl r0
     bbc:	00069d00 	andeq	r9, r6, r0, lsl #26
     bc0:	85841500 	strhi	r1, [r4, #1280]	; 0x500
     bc4:	019c0000 	orrseq	r0, ip, r0
     bc8:	054a0000 	strbeq	r0, [sl, #-0]
     bcc:	01160000 	tsteq	r6, r0
     bd0:	80080252 	andhi	r0, r8, r2, asr r2
     bd4:	03510116 	cmpeq	r1, #-2147483643	; 0x80000005
     bd8:	167ed091 			; <UNDEFINED> instruction: 0x167ed091
     bdc:	3a015001 	bcc	54be8 <__bss_end__+0x4ad88>
     be0:	047d0216 	ldrbteq	r0, [sp], #-534	; 0x216
     be4:	02163101 	andseq	r3, r6, #1073741824	; 0x40000000
     be8:	7702007d 	smlsdxvc	r2, sp, r0, r0
     bec:	a8150000 	ldmdage	r5, {}	; <UNPREDICTABLE>
     bf0:	9c000085 	stcls	0, cr0, [r0], {133}	; 0x85
     bf4:	78000001 	stmdavc	r0, {r0}
     bf8:	16000005 	strne	r0, [r0], -r5
     bfc:	08025201 	stmdaeq	r2, {r0, r9, ip, lr}
     c00:	51011680 	smlabbpl	r1, r0, r6, r1
     c04:	7ed09103 	atnvcs	f1, f3
     c08:	01500116 	cmpeq	r0, r6, lsl r1
     c0c:	7d02163a 	stcvc	6, cr1, [r2, #-232]	; 0xffffff18
     c10:	007b0204 	rsbseq	r0, fp, r4, lsl #4
     c14:	007d0216 	rsbseq	r0, sp, r6, lsl r2
     c18:	00007702 	andeq	r7, r0, r2, lsl #14
     c1c:	0085cc15 	addeq	ip, r5, r5, lsl ip
     c20:	00019c00 	andeq	r9, r1, r0, lsl #24
     c24:	0005a600 	andeq	sl, r5, r0, lsl #12
     c28:	52011600 	andpl	r1, r1, #0, 12
     c2c:	16800802 	strne	r0, [r0], r2, lsl #16
     c30:	91035101 	tstls	r3, r1, lsl #2
     c34:	01167ed0 			; <UNDEFINED> instruction: 0x01167ed0
     c38:	16400150 			; <UNDEFINED> instruction: 0x16400150
     c3c:	02047d02 	andeq	r7, r4, #2, 26	; 0x80
     c40:	0216007b 	andseq	r0, r6, #123	; 0x7b
     c44:	7702007d 	smlsdxvc	r2, sp, r0, r0
     c48:	f0150000 			; <UNDEFINED> instruction: 0xf0150000
     c4c:	9c000085 	stcls	0, cr0, [r0], {133}	; 0x85
     c50:	d4000001 	strle	r0, [r0], #-1
     c54:	16000005 	strne	r0, [r0], -r5
     c58:	08025201 	stmdaeq	r2, {r0, r9, ip, lr}
     c5c:	51011680 	smlabbpl	r1, r0, r6, r1
     c60:	7ed09103 	atnvcs	f1, f3
     c64:	01500116 	cmpeq	r0, r6, lsl r1
     c68:	7d021632 	stcvc	6, cr1, [r2, #-200]	; 0xffffff38
     c6c:	007b0204 	rsbseq	r0, fp, r4, lsl #4
     c70:	007d0216 	rsbseq	r0, sp, r6, lsl r2
     c74:	00007702 	andeq	r7, r0, r2, lsl #14
     c78:	00862015 	addeq	r2, r6, r5, lsl r0
     c7c:	00019c00 	andeq	r9, r1, r0, lsl #24
     c80:	00060200 	andeq	r0, r6, r0, lsl #4
     c84:	52011600 	andpl	r1, r1, #0, 12
     c88:	16800802 	strne	r0, [r0], r2, lsl #16
     c8c:	91035101 	tstls	r3, r1, lsl #2
     c90:	01167ed0 			; <UNDEFINED> instruction: 0x01167ed0
     c94:	16380150 			; <UNDEFINED> instruction: 0x16380150
     c98:	02047d02 	andeq	r7, r4, #2, 26	; 0x80
     c9c:	0216007b 	andseq	r0, r6, #123	; 0x7b
     ca0:	7702007d 	smlsdxvc	r2, sp, r0, r0
     ca4:	28140000 	ldmdacs	r4, {}	; <UNPREDICTABLE>
     ca8:	80000086 	andhi	r0, r0, r6, lsl #1
     cac:	15000006 	strne	r0, [r0, #-6]
     cb0:	00008644 	andeq	r8, r0, r4, asr #12
     cb4:	00000687 	andeq	r0, r0, r7, lsl #13
     cb8:	0000063a 	andeq	r0, r0, sl, lsr r6
     cbc:	02530116 	subseq	r0, r3, #-2147483643	; 0x80000005
     cc0:	0116b908 	tsteq	r6, r8, lsl #18
     cc4:	fc030552 	stc2	5, cr0, [r3], {82}	; 0x52
     cc8:	16000097 			; <UNDEFINED> instruction: 0x16000097
     ccc:	03055101 	movweq	r5, #20737	; 0x5101
     cd0:	0000981c 	andeq	r9, r0, ip, lsl r8
     cd4:	05500116 	ldrbeq	r0, [r0, #-278]	; 0x116
     cd8:	00989403 	addseq	r9, r8, r3, lsl #8
     cdc:	48140000 	ldmdami	r4, {}	; <UNPREDICTABLE>
     ce0:	9d000086 	stcls	0, cr0, [r0, #-536]	; 0xfffffde8
     ce4:	00000006 	andeq	r0, r0, r6
     ce8:	007a1800 	rsbseq	r1, sl, r0, lsl #16
     cec:	06550000 	ldrbeq	r0, [r5], -r0
     cf0:	6b190000 	blvs	640cf8 <__bss_end__+0x636e98>
     cf4:	09000000 	stmdbeq	r0, {}	; <UNPREDICTABLE>
     cf8:	06450600 	strbeq	r0, [r5], -r0, lsl #12
     cfc:	7a180000 	bvc	600d04 <__bss_end__+0x5f6ea4>
     d00:	6a000000 	bvs	d08 <_start-0x72f8>
     d04:	19000006 	stmdbne	r0, {r1, r2}
     d08:	0000006b 	andeq	r0, r0, fp, rrx
     d0c:	1f1f007f 	svcne	0x001f007f
     d10:	03000003 	movweq	r0, #3
     d14:	0003a11d 	andeq	sl, r3, sp, lsl r1
     d18:	031a1f00 	tsteq	sl, #0, 30
     d1c:	22030000 	andcs	r0, r3, #0
     d20:	000003b6 			; <UNDEFINED> instruction: 0x000003b6
     d24:	00039220 	andeq	r9, r3, r0, lsr #4
     d28:	211e0300 	tstcs	lr, r0, lsl #6
     d2c:	000002a6 	andeq	r0, r0, r6, lsr #5
     d30:	00252903 	eoreq	r2, r5, r3, lsl #18
     d34:	069d0000 	ldreq	r0, [sp], r0
     d38:	811c0000 	tsthi	ip, r0
     d3c:	22000000 	andcs	r0, r0, #0
     d40:	00c22000 	sbceq	r2, r2, r0
     d44:	66030000 	strvs	r0, [r3], -r0
     d48:	0000ff00 	andeq	pc, r0, r0, lsl #30
     d4c:	85000400 	strhi	r0, [r0, #-1024]	; 0x400
     d50:	04000005 	streq	r0, [r0], #-5
     d54:	0001cc01 	andeq	ip, r1, r1, lsl #24
     d58:	03b10100 			; <UNDEFINED> instruction: 0x03b10100
     d5c:	02b70000 	adcseq	r0, r7, #0
     d60:	86b40000 	ldrthi	r0, [r4], r0
     d64:	00280000 	eoreq	r0, r8, r0
     d68:	04ae0000 	strteq	r0, [lr], #0
     d6c:	04020000 	streq	r0, [r2], #-0
     d70:	746e6905 	strbtvc	r6, [lr], #-2309	; 0x905
     d74:	07040300 	streq	r0, [r4, -r0, lsl #6]
     d78:	00000019 	andeq	r0, r0, r9, lsl r0
     d7c:	9f060103 	svcls	0x00060103
     d80:	03000001 	movweq	r0, #1
     d84:	01ab0502 			; <UNDEFINED> instruction: 0x01ab0502
     d88:	04030000 	streq	r0, [r3], #-0
     d8c:	00003205 	andeq	r3, r0, r5, lsl #4
     d90:	05080300 	streq	r0, [r8, #-768]	; 0x300
     d94:	0000002d 	andeq	r0, r0, sp, lsr #32
     d98:	9d080103 	stflss	f0, [r8, #-12]
     d9c:	03000001 	movweq	r0, #1
     da0:	008d0702 	addeq	r0, sp, r2, lsl #14
     da4:	04030000 	streq	r0, [r3], #-0
     da8:	00001407 	andeq	r1, r0, r7, lsl #8
     dac:	07080300 	streq	r0, [r8, -r0, lsl #6]
     db0:	0000000f 	andeq	r0, r0, pc
     db4:	cf070403 	svcgt	0x00070403
     db8:	03000000 	movweq	r0, #0
     dbc:	01a60801 			; <UNDEFINED> instruction: 0x01a60801
     dc0:	04040000 	streq	r0, [r4], #-0
     dc4:	0000007f 	andeq	r0, r0, pc, ror r0
     dc8:	00007205 	andeq	r7, r0, r5, lsl #4
     dcc:	00c20600 	sbceq	r0, r2, r0, lsl #12
     dd0:	04010000 	streq	r0, [r1], #-0
     dd4:	000086b4 			; <UNDEFINED> instruction: 0x000086b4
     dd8:	00000028 	andeq	r0, r0, r8, lsr #32
     ddc:	00ca9c01 	sbceq	r9, sl, r1, lsl #24
     de0:	c8070000 	stmdagt	r7, {}	; <UNPREDICTABLE>
     de4:	ac000086 	stcge	0, cr0, [r0], {134}	; 0x86
     de8:	08000000 	stmdaeq	r0, {}	; <UNPREDICTABLE>
     dec:	03055001 	movweq	r5, #20481	; 0x5001
     df0:	000098cc 	andeq	r9, r0, ip, asr #17
     df4:	86d00900 	ldrbhi	r0, [r0], r0, lsl #18
     df8:	00ea0000 	rsceq	r0, sl, r0
     dfc:	00c00000 	sbceq	r0, r0, r0
     e00:	01080000 	mrseq	r0, (UNDEF: 8)
     e04:	64080250 	strvs	r0, [r8], #-592	; 0x250
     e08:	86d40a00 	ldrbhi	r0, [r4], r0, lsl #20
     e0c:	00fb0000 	rscseq	r0, fp, r0
     e10:	0b000000 	bleq	e18 <_start-0x71e8>
     e14:	00000025 	andeq	r0, r0, r5, lsr #32
     e18:	000000d9 	ldrdeq	r0, [r0], -r9
     e1c:	0000790c 	andeq	r7, r0, ip, lsl #18
     e20:	1a0d0000 	bne	340e28 <__bss_end__+0x336fc8>
     e24:	02000003 	andeq	r0, r0, #3
     e28:	0000e422 	andeq	lr, r0, r2, lsr #8
     e2c:	ca040400 	bgt	101e34 <__bss_end__+0xf7fd4>
     e30:	0e000000 	cdpeq	0, 0, cr0, cr0, cr0, {0}
     e34:	000003cb 	andeq	r0, r0, fp, asr #7
     e38:	00fb5002 	rscseq	r5, fp, r2
     e3c:	2c0c0000 	stccs	0, cr0, [ip], {-0}
     e40:	00000000 	andeq	r0, r0, r0
     e44:	0003a60f 	andeq	sl, r3, pc, lsl #12
     e48:	00630200 	rsbeq	r0, r3, r0, lsl #4
     e4c:	000002dd 	ldrdeq	r0, [r0], -sp
     e50:	064f0004 	strbeq	r0, [pc], -r4
     e54:	01040000 	mrseq	r0, (UNDEF: 4)
     e58:	000001cc 	andeq	r0, r0, ip, asr #3
     e5c:	0004ae01 	andeq	sl, r4, r1, lsl #28
     e60:	0002b700 	andeq	fp, r2, r0, lsl #14
     e64:	0086dc00 	addeq	sp, r6, r0, lsl #24
     e68:	0000b000 	andeq	fp, r0, r0
     e6c:	00054500 	andeq	r4, r5, r0, lsl #10
     e70:	05040200 	streq	r0, [r4, #-512]	; 0x200
     e74:	00746e69 	rsbseq	r6, r4, r9, ror #28
     e78:	19070403 	stmdbne	r7, {r0, r1, sl}
     e7c:	03000000 	movweq	r0, #0
     e80:	019f0601 	orrseq	r0, pc, r1, lsl #12
     e84:	02030000 	andeq	r0, r3, #0
     e88:	0001ab05 	andeq	sl, r1, r5, lsl #22
     e8c:	05040300 	streq	r0, [r4, #-768]	; 0x300
     e90:	00000032 	andeq	r0, r0, r2, lsr r0
     e94:	2d050803 	stccs	8, cr0, [r5, #-12]
     e98:	04000000 	streq	r0, [r0], #-0
     e9c:	00000242 	andeq	r0, r0, r2, asr #4
     ea0:	005a2e02 	subseq	r2, sl, r2, lsl #28
     ea4:	01030000 	mrseq	r0, (UNDEF: 3)
     ea8:	00019d08 	andeq	r9, r1, r8, lsl #26
     eac:	07020300 	streq	r0, [r2, -r0, lsl #6]
     eb0:	0000008d 	andeq	r0, r0, sp, lsl #1
     eb4:	0001bc04 	andeq	fp, r1, r4, lsl #24
     eb8:	73340200 	teqvc	r4, #0, 4
     ebc:	03000000 	movweq	r0, #0
     ec0:	00140704 	andseq	r0, r4, r4, lsl #14
     ec4:	08030000 	stmdaeq	r3, {}	; <UNPREDICTABLE>
     ec8:	00000f07 	andeq	r0, r0, r7, lsl #30
     ecc:	07040300 	streq	r0, [r4, -r0, lsl #6]
     ed0:	000000cf 	andeq	r0, r0, pc, asr #1
     ed4:	a6080103 	strge	r0, [r8], -r3, lsl #2
     ed8:	05000001 	streq	r0, [r0, #-1]
     edc:	00009504 	andeq	r9, r0, r4, lsl #10
     ee0:	00880600 	addeq	r0, r8, r0, lsl #12
     ee4:	0c070000 	stceq	0, cr0, [r7], {-0}
     ee8:	00d10e03 	sbcseq	r0, r1, r3, lsl #28
     eec:	74080000 	strvc	r0, [r8], #-0
     ef0:	0f030078 	svceq	0x00030078
     ef4:	0000004f 	andeq	r0, r0, pc, asr #32
     ef8:	78720800 	ldmdavc	r2!, {fp}^
     efc:	4f0f0300 	svcmi	0x000f0300
     f00:	01000000 	mrseq	r0, (UNDEF: 0)
     f04:	00044d09 	andeq	r4, r4, r9, lsl #26
     f08:	68100300 	ldmdavs	r0, {r8, r9}
     f0c:	04000000 	streq	r0, [r0], #-0
     f10:	0003fe09 	andeq	pc, r3, r9, lsl #28
     f14:	68110300 	ldmdavs	r1, {r8, r9}
     f18:	08000000 	stmdaeq	r0, {}	; <UNPREDICTABLE>
     f1c:	04360400 	ldrteq	r0, [r6], #-1024	; 0x400
     f20:	12030000 	andne	r0, r3, #0
     f24:	0000009a 	muleq	r0, sl, r0
     f28:	1004010a 	andne	r0, r4, sl, lsl #2
     f2c:	000000f7 	strdeq	r0, [r0], -r7
     f30:	0004520b 	andeq	r5, r4, fp, lsl #4
     f34:	400b0100 	andmi	r0, fp, r0, lsl #2
     f38:	02000004 	andeq	r0, r0, #4
     f3c:	0004280b 	andeq	r2, r4, fp, lsl #16
     f40:	04000300 	streq	r0, [r0], #-768	; 0x300
     f44:	00000467 	andeq	r0, r0, r7, ror #8
     f48:	00dc1004 	sbcseq	r1, ip, r4
     f4c:	14070000 	strne	r0, [r7], #-0
     f50:	012f1404 	teqeq	pc, r4, lsl #8
     f54:	ce090000 	cdpgt	0, 0, cr0, cr9, cr0, {0}
     f58:	04000004 	streq	r0, [r0], #-4
     f5c:	00002c15 	andeq	r2, r0, r5, lsl ip
     f60:	c2090000 	andgt	r0, r9, #0
     f64:	04000004 	streq	r0, [r0], #-4
     f68:	0000f718 	andeq	pc, r0, r8, lsl r7	; <UNPREDICTABLE>
     f6c:	8d090400 	cfstrshi	mvf0, [r9, #-0]
     f70:	04000004 	streq	r0, [r0], #-4
     f74:	0000d11b 	andeq	sp, r0, fp, lsl r1
     f78:	04000800 	streq	r0, [r0], #-2048	; 0x800
     f7c:	0000047f 	andeq	r0, r0, pc, ror r4
     f80:	01022004 	tsteq	r2, r4
     f84:	d40c0000 	strle	r0, [ip], #-0
     f88:	01000003 	tsteq	r0, r3
     f8c:	00002506 	andeq	r2, r0, r6, lsl #10
     f90:	0086dc00 	addeq	sp, r6, r0, lsl #24
     f94:	00002000 	andeq	r2, r0, r0
     f98:	7a9c0100 	bvc	fe7013a0 <__bss_end__+0xfe6f7540>
     f9c:	0d000001 	stceq	0, cr0, [r0, #-4]
     fa0:	06010063 	streq	r0, [r1], -r3, rrx
     fa4:	00000025 	andeq	r0, r0, r5, lsr #32
     fa8:	0000079f 	muleq	r0, pc, r7	; <UNPREDICTABLE>
     fac:	0086f00e 	addeq	pc, r6, lr
     fb0:	00027a00 	andeq	r7, r2, r0, lsl #20
     fb4:	51010f00 	tstpl	r1, r0, lsl #30
     fb8:	0f007402 	svceq	0x00007402
     fbc:	03055001 	movweq	r5, #20481	; 0x5001
     fc0:	00009e54 	andeq	r9, r0, r4, asr lr
     fc4:	5f100000 	svcpl	0x00100000
     fc8:	01000004 	tsteq	r0, r4
     fcc:	0086fc0b 	addeq	pc, r6, fp, lsl #24
     fd0:	00009000 	andeq	r9, r0, r0
     fd4:	279c0100 	ldrcs	r0, [ip, r0, lsl #2]
     fd8:	11000002 	tstne	r0, r2
     fdc:	000003e8 	andeq	r0, r0, r8, ror #7
     fe0:	00250c01 	eoreq	r0, r5, r1, lsl #24
     fe4:	a2110000 	andsge	r0, r1, #0
     fe8:	01000004 	tsteq	r0, r4
     fec:	0000250c 	andeq	r2, r0, ip, lsl #10
     ff0:	00001200 	andeq	r1, r0, r0, lsl #4
     ff4:	0d010000 	stceq	0, cr0, [r1, #-0]
     ff8:	73736213 	cmnvc	r3, #805306369	; 0x30000001
     ffc:	270f0100 	strcs	r0, [pc, -r0, lsl #2]
    1000:	bd000002 	stclt	0, cr0, [r0, #-8]
    1004:	14000007 	strne	r0, [r0], #-7
    1008:	000003f6 	strdeq	r0, [r0], -r6
    100c:	02271001 	eoreq	r1, r7, #1
    1010:	63130000 	tstvs	r3, #0
    1014:	17010062 	strne	r0, [r1, -r2, rrx]
    1018:	0000022d 	andeq	r0, r0, sp, lsr #4
    101c:	000007dd 	ldrdeq	r0, [r0], -sp
    1020:	00872415 	addeq	r2, r7, r5, lsl r4
    1024:	00029600 	andeq	r9, r2, r0, lsl #12
    1028:	87601600 	strbhi	r1, [r0, -r0, lsl #12]!
    102c:	02a10000 	adceq	r0, r1, #0
    1030:	01fd0000 	mvnseq	r0, r0
    1034:	010f0000 	mrseq	r0, CPSR
    1038:	d8030551 	stmdale	r3, {r0, r4, r6, r8, sl}
    103c:	0f000098 	svceq	0x00000098
    1040:	03055001 	movweq	r5, #20481	; 0x5001
    1044:	00009e54 	andeq	r9, r0, r4, asr lr
    1048:	87681600 	strbhi	r1, [r8, -r0, lsl #12]!
    104c:	02bc0000 	adcseq	r0, ip, #0
    1050:	02140000 	andseq	r0, r4, #0
    1054:	010f0000 	mrseq	r0, CPSR
    1058:	d8030550 	stmdale	r3, {r4, r6, r8, sl}
    105c:	00000097 	muleq	r0, r7, r0
    1060:	00876c15 	addeq	r6, r7, r5, lsl ip
    1064:	0002d200 	andeq	sp, r2, r0, lsl #4
    1068:	87701500 	ldrbhi	r1, [r0, -r0, lsl #10]!
    106c:	02d90000 	sbcseq	r0, r9, #0
    1070:	05000000 	streq	r0, [r0, #-0]
    1074:	00002504 	andeq	r2, r0, r4, lsl #10
    1078:	2f040500 	svccs	0x00040500
    107c:	17000001 	strne	r0, [r0, -r1]
    1080:	0000040c 	andeq	r0, r0, ip, lsl #8
    1084:	00d10501 	sbcseq	r0, r1, r1, lsl #10
    1088:	03050000 	movweq	r0, #20480	; 0x5000
    108c:	00009e54 	andeq	r9, r0, r4, asr lr
    1090:	00002518 	andeq	r2, r0, r8, lsl r5
    1094:	00025300 	andeq	r5, r2, r0, lsl #6
    1098:	00251900 	eoreq	r1, r5, r0, lsl #18
    109c:	11000000 	mrsne	r0, (UNDEF: 0)
    10a0:	0000031f 	andeq	r0, r0, pc, lsl r3
    10a4:	025e1d05 	subseq	r1, lr, #320	; 0x140
    10a8:	04050000 	streq	r0, [r5], #-0
    10ac:	00000244 	andeq	r0, r0, r4, asr #4
    10b0:	0003e811 	andeq	lr, r3, r1, lsl r8
    10b4:	250c0100 	strcs	r0, [ip, #-256]	; 0x100
    10b8:	11000000 	mrsne	r0, (UNDEF: 0)
    10bc:	000004a2 	andeq	r0, r0, r2, lsr #9
    10c0:	00250c01 	eoreq	r0, r5, r1, lsl #24
    10c4:	721a0000 	andsvc	r0, sl, #0
    10c8:	03000004 	movweq	r0, #4
    10cc:	00029044 	andeq	r9, r2, r4, asr #32
    10d0:	02901900 	addseq	r1, r0, #0, 18
    10d4:	5a190000 	bpl	6410dc <__bss_end__+0x63727c>
    10d8:	00000000 	andeq	r0, r0, r0
    10dc:	00d10405 	sbcseq	r0, r1, r5, lsl #8
    10e0:	951b0000 	ldrls	r0, [fp, #-0]
    10e4:	04000004 	streq	r0, [r0], #-4
    10e8:	00022d2a 	andeq	r2, r2, sl, lsr #26
    10ec:	04191c00 	ldreq	r1, [r9], #-3072	; 0xc00
    10f0:	15030000 	strne	r0, [r3, #-0]
    10f4:	00000025 	andeq	r0, r0, r5, lsr #32
    10f8:	000002bc 			; <UNDEFINED> instruction: 0x000002bc
    10fc:	00029019 	andeq	r9, r2, r9, lsl r0
    1100:	008f1900 	addeq	r1, pc, r0, lsl #18
    1104:	001d0000 	andseq	r0, sp, r0
    1108:	0002a61c 	andeq	sl, r2, ip, lsl r6
    110c:	25290500 	strcs	r0, [r9, #-1280]!	; 0x500
    1110:	d2000000 	andle	r0, r0, #0
    1114:	19000002 	stmdbne	r0, {r1}
    1118:	0000008f 	andeq	r0, r0, pc, lsl #1
    111c:	0012001d 	andseq	r0, r2, sp, lsl r0
    1120:	05000000 	streq	r0, [r0, #-0]
    1124:	03a612d1 			; <UNDEFINED> instruction: 0x03a612d1
    1128:	63050000 	movwvs	r0, #20480	; 0x5000
    112c:	0001ad00 	andeq	sl, r1, r0, lsl #26
    1130:	e6000400 	str	r0, [r0], -r0, lsl #8
    1134:	04000007 	streq	r0, [r0], #-7
    1138:	0001cc01 	andeq	ip, r1, r1, lsl #24
    113c:	04ee0100 	strbteq	r0, [lr], #256	; 0x100
    1140:	02b70000 	adcseq	r0, r7, #0
    1144:	00180000 	andseq	r0, r8, r0
    1148:	00000000 	andeq	r0, r0, r0
    114c:	066a0000 	strbteq	r0, [sl], -r0
    1150:	04020000 	streq	r0, [r2], #-0
    1154:	746e6905 	strbtvc	r6, [lr], #-2309	; 0x905
    1158:	07040300 	streq	r0, [r4, -r0, lsl #6]
    115c:	00000019 	andeq	r0, r0, r9, lsl r0
    1160:	9f060103 	svcls	0x00060103
    1164:	03000001 	movweq	r0, #1
    1168:	01ab0502 			; <UNDEFINED> instruction: 0x01ab0502
    116c:	04030000 	streq	r0, [r3], #-0
    1170:	00003205 	andeq	r3, r0, r5, lsl #4
    1174:	05080300 	streq	r0, [r8, #-768]	; 0x300
    1178:	0000002d 	andeq	r0, r0, sp, lsr #32
    117c:	9d080103 	stflss	f0, [r8, #-12]
    1180:	03000001 	movweq	r0, #1
    1184:	008d0702 	addeq	r0, sp, r2, lsl #14
    1188:	04030000 	streq	r0, [r3], #-0
    118c:	00001407 	andeq	r1, r0, r7, lsl #8
    1190:	07080300 	streq	r0, [r8, -r0, lsl #6]
    1194:	0000000f 	andeq	r0, r0, pc
    1198:	cf070403 	svcgt	0x00070403
    119c:	03000000 	movweq	r0, #0
    11a0:	01a60801 			; <UNDEFINED> instruction: 0x01a60801
    11a4:	d4040000 	strle	r0, [r4], #-0
    11a8:	01000004 	tsteq	r0, r4
    11ac:	0000250e 	andeq	r2, r0, lr, lsl #10
    11b0:	00878c00 	addeq	r8, r7, r0, lsl #24
    11b4:	00001800 	andeq	r1, r0, r0, lsl #16
    11b8:	a29c0100 	addsge	r0, ip, #0, 2
    11bc:	05000000 	streq	r0, [r0, #-0]
    11c0:	00000540 	andeq	r0, r0, r0, asr #10
    11c4:	002c0f01 	eoreq	r0, ip, r1, lsl #30
    11c8:	07fd0000 	ldrbeq	r0, [sp, r0]!
    11cc:	06000000 	streq	r0, [r0], -r0
    11d0:	00000523 	andeq	r0, r0, r3, lsr #10
    11d4:	87a41701 	strhi	r1, [r4, r1, lsl #14]!
    11d8:	00140000 	andseq	r0, r4, r0
    11dc:	9c010000 	stcls	0, cr0, [r1], {-0}
    11e0:	000000c7 	andeq	r0, r0, r7, asr #1
    11e4:	00054005 	andeq	r4, r5, r5
    11e8:	2c180100 	ldfcss	f0, [r8], {-0}
    11ec:	1c000000 	stcne	0, cr0, [r0], {-0}
    11f0:	00000008 	andeq	r0, r0, r8
    11f4:	0003a606 	andeq	sl, r3, r6, lsl #12
    11f8:	b81f0100 	ldmdalt	pc, {r8}	; <UNPREDICTABLE>
    11fc:	48000087 	stmdami	r0, {r0, r1, r2, r7}
    1200:	01000000 	mrseq	r0, (UNDEF: 0)
    1204:	0001779c 	muleq	r1, ip, r7
    1208:	05380700 	ldreq	r0, [r8, #-1792]!	; 0x700
    120c:	2a010000 	bcs	41214 <__bss_end__+0x373b4>
    1210:	00000177 	andeq	r0, r0, r7, ror r1
    1214:	2010001c 	andscs	r0, r0, ip, lsl r0
    1218:	00051b07 	andeq	r1, r5, r7, lsl #22
    121c:	772b0100 	strvc	r0, [fp, -r0, lsl #2]!
    1220:	24000001 	strcs	r0, [r0], #-1
    1224:	07201000 	streq	r1, [r0, -r0]!
    1228:	000004e2 	andeq	r0, r0, r2, ror #9
    122c:	01772c01 	cmneq	r7, r1, lsl #24
    1230:	00000000 	andeq	r0, r0, r0
    1234:	02085a00 	andeq	r5, r8, #0, 20
    1238:	01000005 	tsteq	r0, r5
    123c:	0001772d 	andeq	r7, r1, sp, lsr #14
    1240:	c0092000 	andgt	r2, r9, r0
    1244:	79000087 	stmdbvc	r0, {r0, r1, r2, r7}
    1248:	09000000 	stmdbeq	r0, {}	; <UNPREDICTABLE>
    124c:	000087cc 	andeq	r8, r0, ip, asr #15
    1250:	000000a2 	andeq	r0, r0, r2, lsr #1
    1254:	0087d40a 	addeq	sp, r7, sl, lsl #8
    1258:	00018d00 	andeq	r8, r1, r0, lsl #26
    125c:	00013a00 	andeq	r3, r1, r0, lsl #20
    1260:	50010b00 	andpl	r0, r1, r0, lsl #22
    1264:	0a004e01 	beq	14a70 <__bss_end__+0xac10>
    1268:	000087e0 	andeq	r8, r0, r0, ror #15
    126c:	0000019e 	muleq	r0, lr, r1
    1270:	0000015a 	andeq	r0, r0, sl, asr r1
    1274:	0551010b 	ldrbeq	r0, [r1, #-267]	; 0x10b
    1278:	0000010c 	andeq	r0, r0, ip, lsl #2
    127c:	50010b5a 	andpl	r0, r1, sl, asr fp
    1280:	00240c05 	eoreq	r0, r4, r5, lsl #24
    1284:	0c002010 	stceq	0, cr2, [r0], {16}
    1288:	000087ec 	andeq	r8, r0, ip, ror #15
    128c:	0000019e 	muleq	r0, lr, r1
    1290:	0551010b 	ldrbeq	r0, [r1, #-267]	; 0x10b
    1294:	0000200c 	andeq	r2, r0, ip
    1298:	50010b5a 	andpl	r0, r1, sl, asr fp
    129c:	001c0c05 	andseq	r0, ip, r5, lsl #24
    12a0:	00002010 	andeq	r2, r0, r0, lsl r0
    12a4:	0000250d 	andeq	r2, r0, sp, lsl #10
    12a8:	04d70800 	ldrbeq	r0, [r7], #2048	; 0x800
    12ac:	0d010000 	stceq	0, cr0, [r1, #-0]
    12b0:	00000188 	andeq	r0, r0, r8, lsl #3
    12b4:	002c0d10 	eoreq	r0, ip, r0, lsl sp
    12b8:	cb0e0000 	blgt	3812c0 <__bss_end__+0x377460>
    12bc:	02000003 	andeq	r0, r0, #3
    12c0:	00019e50 	andeq	r9, r1, r0, asr lr
    12c4:	002c0f00 	eoreq	r0, ip, r0, lsl #30
    12c8:	10000000 	andne	r0, r0, r0
    12cc:	00000532 	andeq	r0, r0, r2, lsr r5
    12d0:	2c0f9c02 	stccs	12, cr9, [pc], {2}
    12d4:	0f000000 	svceq	0x00000000
    12d8:	0000002c 	andeq	r0, r0, ip, lsr #32
    12dc:	01d80000 	bicseq	r0, r8, r0
    12e0:	00040000 	andeq	r0, r4, r0
    12e4:	000008d4 	ldrdeq	r0, [r0], -r4
    12e8:	01cc0104 	biceq	r0, ip, r4, lsl #2
    12ec:	62010000 	andvs	r0, r1, #0
    12f0:	b7000005 	strlt	r0, [r0, -r5]
    12f4:	00000002 	andeq	r0, r0, r2
    12f8:	88000088 	stmdahi	r0, {r3, r7}
    12fc:	07000000 	streq	r0, [r0, -r0]
    1300:	02000007 	andeq	r0, r0, #7
    1304:	6e690504 	cdpvs	5, 6, cr0, cr9, cr4, {0}
    1308:	04030074 	streq	r0, [r3], #-116	; 0x74
    130c:	00001907 	andeq	r1, r0, r7, lsl #18
    1310:	06010300 	streq	r0, [r1], -r0, lsl #6
    1314:	0000019f 	muleq	r0, pc, r1	; <UNPREDICTABLE>
    1318:	ab050203 	blge	141b2c <__bss_end__+0x137ccc>
    131c:	03000001 	movweq	r0, #1
    1320:	00320504 	eorseq	r0, r2, r4, lsl #10
    1324:	08030000 	stmdaeq	r3, {}	; <UNPREDICTABLE>
    1328:	00002d05 	andeq	r2, r0, r5, lsl #26
    132c:	08010300 	stmdaeq	r1, {r8, r9}
    1330:	0000019d 	muleq	r0, sp, r1
    1334:	8d070203 	sfmhi	f0, 4, [r7, #-12]
    1338:	03000000 	movweq	r0, #0
    133c:	00140704 	andseq	r0, r4, r4, lsl #14
    1340:	08030000 	stmdaeq	r3, {}	; <UNPREDICTABLE>
    1344:	00000f07 	andeq	r0, r0, r7, lsl #30
    1348:	07040300 	streq	r0, [r4, -r0, lsl #6]
    134c:	000000cf 	andeq	r0, r0, pc, asr #1
    1350:	a6080103 	strge	r0, [r8], -r3, lsl #2
    1354:	04000001 	streq	r0, [r0], #-1
    1358:	00000581 	andeq	r0, r0, r1, lsl #11
    135c:	88000501 	stmdahi	r0, {r0, r8, sl}
    1360:	001c0000 	andseq	r0, ip, r0
    1364:	9c010000 	stcls	0, cr0, [r1], {-0}
    1368:	0000009e 	muleq	r0, lr, r0
    136c:	00057b05 	andeq	r7, r5, r5, lsl #22
    1370:	2c050100 	stfcss	f0, [r5], {-0}
    1374:	46000000 	strmi	r0, [r0], -r0
    1378:	00000008 	andeq	r0, r0, r8
    137c:	00054506 	andeq	r4, r5, r6, lsl #10
    1380:	2c0b0100 	stfcss	f0, [fp], {-0}
    1384:	1c000000 	stcne	0, cr0, [r0], {-0}
    1388:	14000088 	strne	r0, [r0], #-136	; 0x88
    138c:	01000000 	mrseq	r0, (UNDEF: 0)
    1390:	0000cb9c 	muleq	r0, ip, fp
    1394:	88280700 	stmdahi	r8!, {r8, r9, sl}
    1398:	01ca0000 	biceq	r0, sl, r0
    139c:	01080000 	mrseq	r0, (UNDEF: 8)
    13a0:	040c0550 	streq	r0, [ip], #-1360	; 0x550
    13a4:	00200030 	eoreq	r0, r0, r0, lsr r0
    13a8:	05970600 	ldreq	r0, [r7, #1536]	; 0x600
    13ac:	10010000 	andne	r0, r1, r0
    13b0:	0000002c 	andeq	r0, r0, ip, lsr #32
    13b4:	00008830 	andeq	r8, r0, r0, lsr r8
    13b8:	0000000c 	andeq	r0, r0, ip
    13bc:	00f99c01 	rscseq	r9, r9, r1, lsl #24
    13c0:	75090000 	strvc	r0, [r9, #-0]
    13c4:	2c140100 	ldfcss	f0, [r4], {-0}
    13c8:	01000000 	mrseq	r0, (UNDEF: 0)
    13cc:	88380a50 	ldmdahi	r8!, {r4, r6, r9, fp}
    13d0:	009e0000 	addseq	r0, lr, r0
    13d4:	04000000 	streq	r0, [r0], #-0
    13d8:	0000058e 	andeq	r0, r0, lr, lsl #11
    13dc:	883c1901 	ldmdahi	ip!, {r0, r8, fp, ip}
    13e0:	00240000 	eoreq	r0, r4, r0
    13e4:	9c010000 	stcls	0, cr0, [r1], {-0}
    13e8:	00000157 	andeq	r0, r0, r7, asr r1
    13ec:	0073750b 	rsbseq	r7, r3, fp, lsl #10
    13f0:	002c1901 	eoreq	r1, ip, r1, lsl #18
    13f4:	087a0000 	ldmdaeq	sl!, {}^	; <UNPREDICTABLE>
    13f8:	72090000 	andvc	r0, r9, #0
    13fc:	1a010062 	bne	4158c <__bss_end__+0x3772c>
    1400:	0000002c 	andeq	r0, r0, ip, lsr #32
    1404:	4c0c5401 	cfstrsmi	mvf5, [ip], {1}
    1408:	10000088 	andne	r0, r0, r8, lsl #1
    140c:	4d000000 	stcmi	0, cr0, [r0, #-0]
    1410:	0d000001 	stceq	0, cr0, [r0, #-4]
    1414:	01006172 	tsteq	r0, r2, ror r1
    1418:	00002c1c 	andeq	r2, r0, ip, lsl ip
    141c:	00089800 	andeq	r9, r8, r0, lsl #16
    1420:	88500a00 	ldmdahi	r0, {r9, fp}^
    1424:	00cb0000 	sbceq	r0, fp, r0
    1428:	0a000000 	beq	1430 <_start-0x6bd0>
    142c:	00008848 	andeq	r8, r0, r8, asr #16
    1430:	000000cb 	andeq	r0, r0, fp, asr #1
    1434:	03cb0400 	biceq	r0, fp, #0, 8
    1438:	22010000 	andcs	r0, r1, #0
    143c:	00008860 	andeq	r8, r0, r0, ror #16
    1440:	00000014 	andeq	r0, r0, r4, lsl r0
    1444:	01909c01 	orrseq	r9, r0, r1, lsl #24
    1448:	6d0b0000 	stcvs	0, cr0, [fp, #-0]
    144c:	22010073 	andcs	r0, r1, #115	; 0x73
    1450:	0000002c 	andeq	r0, r0, ip, lsr #32
    1454:	000008ab 	andeq	r0, r0, fp, lsr #17
    1458:	00887007 	addeq	r7, r8, r7
    145c:	0000f900 	andeq	pc, r0, r0, lsl #18
    1460:	50010800 	andpl	r0, r1, r0, lsl #16
    1464:	5001f307 	andpl	pc, r1, r7, lsl #6
    1468:	1e03e80a 	cdpne	8, 0, cr14, cr3, cr10, {0}
    146c:	58040000 	stmdapl	r4, {}	; <UNPREDICTABLE>
    1470:	01000005 	tsteq	r0, r5
    1474:	00887425 	addeq	r7, r8, r5, lsr #8
    1478:	00001400 	andeq	r1, r0, r0, lsl #8
    147c:	ca9c0100 	bgt	fe701884 <__bss_end__+0xfe6f7a24>
    1480:	0b000001 	bleq	148c <_start-0x6b74>
    1484:	00636573 	rsbeq	r6, r3, r3, ror r5
    1488:	002c2501 	eoreq	r2, ip, r1, lsl #10
    148c:	08cc0000 	stmiaeq	ip, {}^	; <UNPREDICTABLE>
    1490:	84070000 	strhi	r0, [r7], #-0
    1494:	57000088 	strpl	r0, [r0, -r8, lsl #1]
    1498:	08000001 	stmdaeq	r0, {r0}
    149c:	f3075001 	vhadd.u8	d5, d7, d1
    14a0:	e80a5001 	stmda	sl, {r0, ip, lr}
    14a4:	00001e03 	andeq	r1, r0, r3, lsl #28
    14a8:	0005750e 	andeq	r7, r5, lr, lsl #10
    14ac:	2ca80200 	sfmcs	f0, 4, [r8]
    14b0:	0f000000 	svceq	0x00000000
    14b4:	0000002c 	andeq	r0, r0, ip, lsr #32
    14b8:	11f20000 	mvnsne	r0, r0
    14bc:	00040000 	andeq	r0, r4, r0
    14c0:	000009b7 			; <UNDEFINED> instruction: 0x000009b7
    14c4:	01cc0104 	biceq	r0, ip, r4, lsl #2
    14c8:	45010000 	strmi	r0, [r1, #-0]
    14cc:	b7000006 	strlt	r0, [r0, -r6]
    14d0:	88000002 	stmdahi	r0, {r1}
    14d4:	68000088 	stmdavs	r0, {r3, r7}
    14d8:	ae000006 	cdpge	0, 0, cr0, cr0, cr6, {0}
    14dc:	02000007 	andeq	r0, r0, #7
    14e0:	6e690504 	cdpvs	5, 6, cr0, cr9, cr4, {0}
    14e4:	04030074 	streq	r0, [r3], #-116	; 0x74
    14e8:	00001907 	andeq	r1, r0, r7, lsl #18
    14ec:	06010300 	streq	r0, [r1], -r0, lsl #6
    14f0:	0000019f 	muleq	r0, pc, r1	; <UNPREDICTABLE>
    14f4:	ab050203 	blge	141d08 <__bss_end__+0x137ea8>
    14f8:	03000001 	movweq	r0, #1
    14fc:	00320504 	eorseq	r0, r2, r4, lsl #10
    1500:	08030000 	stmdaeq	r3, {}	; <UNPREDICTABLE>
    1504:	00002d05 	andeq	r2, r0, r5, lsl #26
    1508:	02420400 	subeq	r0, r2, #0, 8
    150c:	2e030000 	cdpcs	0, 0, cr0, cr3, cr0, {0}
    1510:	0000005a 	andeq	r0, r0, sl, asr r0
    1514:	9d080103 	stflss	f0, [r8, #-12]
    1518:	03000001 	movweq	r0, #1
    151c:	008d0702 	addeq	r0, sp, r2, lsl #14
    1520:	bc040000 	stclt	0, cr0, [r4], {-0}
    1524:	03000001 	movweq	r0, #1
    1528:	00007334 	andeq	r7, r0, r4, lsr r3
    152c:	07040300 	streq	r0, [r4, -r0, lsl #6]
    1530:	00000014 	andeq	r0, r0, r4, lsl r0
    1534:	0f070803 	svceq	0x00070803
    1538:	03000000 	movweq	r0, #0
    153c:	00cf0704 	sbceq	r0, pc, r4, lsl #14
    1540:	04050000 	streq	r0, [r5], #-0
    1544:	00900406 	addseq	r0, r0, r6, lsl #8
    1548:	01030000 	mrseq	r0, (UNDEF: 3)
    154c:	0001a608 	andeq	sl, r1, r8, lsl #12
    1550:	9d040600 	stcls	6, cr0, [r4, #-0]
    1554:	07000000 	streq	r0, [r0, -r0]
    1558:	00000090 	muleq	r0, r0, r0
    155c:	0e040c08 	cdpeq	12, 0, cr0, cr4, cr8, {0}
    1560:	000000d9 	ldrdeq	r0, [r0], -r9
    1564:	00787409 	rsbseq	r7, r8, r9, lsl #8
    1568:	004f0f04 	subeq	r0, pc, r4, lsl #30
    156c:	09000000 	stmdbeq	r0, {}	; <UNPREDICTABLE>
    1570:	04007872 	streq	r7, [r0], #-2162	; 0x872
    1574:	00004f0f 	andeq	r4, r0, pc, lsl #30
    1578:	4d0a0100 	stfmis	f0, [sl, #-0]
    157c:	04000004 	streq	r0, [r0], #-4
    1580:	00006810 	andeq	r6, r0, r0, lsl r8
    1584:	fe0a0400 	cdp2	4, 0, cr0, cr10, cr0, {0}
    1588:	04000003 	streq	r0, [r0], #-3
    158c:	00006811 	andeq	r6, r0, r1, lsl r8
    1590:	04000800 	streq	r0, [r0], #-2048	; 0x800
    1594:	00000436 	andeq	r0, r0, r6, lsr r4
    1598:	00a21204 	adceq	r1, r2, r4, lsl #4
    159c:	86040000 	strhi	r0, [r4], -r0
    15a0:	05000002 	streq	r0, [r0, #-2]
    15a4:	0000ef28 	andeq	lr, r0, r8, lsr #30
    15a8:	02ad0b00 	adceq	r0, sp, #0, 22
    15ac:	09040000 	stmdbeq	r4, {}	; <UNPREDICTABLE>
    15b0:	00010600 	andeq	r0, r1, r0, lsl #12
    15b4:	03000c00 	movweq	r0, #3072	; 0xc00
    15b8:	00880000 	addeq	r0, r8, r0
    15bc:	00000000 	andeq	r0, r0, r0
    15c0:	0002af04 	andeq	sl, r2, r4, lsl #30
    15c4:	e4620500 	strbt	r0, [r2], #-1280	; 0x500
    15c8:	0d000000 	stceq	0, cr0, [r0, #-0]
    15cc:	000005ff 	strdeq	r0, [r0], -pc	; <UNPREDICTABLE>
    15d0:	3f030902 	svccc	0x00030902
    15d4:	0e000001 	cdpeq	0, 0, cr0, cr0, cr1, {0}
    15d8:	00000461 	andeq	r0, r0, r1, ror #8
    15dc:	002c0902 	eoreq	r0, ip, r2, lsl #18
    15e0:	6e0f0000 	cdpvs	0, 0, cr0, cr15, cr0, {0}
    15e4:	2c090200 	sfmcs	f0, 4, [r9], {-0}
    15e8:	10000000 	andne	r0, r0, r0
    15ec:	00067311 	andeq	r7, r6, r1, lsl r3
    15f0:	2c0c0200 	sfmcs	f0, 4, [ip], {-0}
    15f4:	00000000 	andeq	r0, r0, r0
    15f8:	05b20d00 	ldreq	r0, [r2, #3328]!	; 0xd00
    15fc:	17020000 	strne	r0, [r2, -r0]
    1600:	00017603 	andeq	r7, r1, r3, lsl #12
    1604:	69700f00 	ldmdbvs	r0!, {r8, r9, sl, fp}^
    1608:	1702006e 	strne	r0, [r2, -lr, rrx]
    160c:	0000002c 	andeq	r0, r0, ip, lsr #32
    1610:	0200760f 	andeq	r7, r0, #15728640	; 0xf00000
    1614:	00002c17 	andeq	r2, r0, r7, lsl ip
    1618:	04610e00 	strbteq	r0, [r1], #-3584	; 0xe00
    161c:	17020000 	strne	r0, [r2, -r0]
    1620:	0000002c 	andeq	r0, r0, ip, lsr #32
    1624:	0006050e 	andeq	r0, r6, lr, lsl #10
    1628:	2c170200 	lfmcs	f0, 4, [r7], {-0}
    162c:	00000000 	andeq	r0, r0, r0
    1630:	00047212 	andeq	r7, r4, r2, lsl r2
    1634:	88090100 	stmdahi	r9, {r8}
    1638:	54000088 	strpl	r0, [r0], #-136	; 0x88
    163c:	01000001 	tsteq	r0, r1
    1640:	0007229c 	muleq	r7, ip, r2
    1644:	04141300 	ldreq	r1, [r4], #-768	; 0x300
    1648:	09010000 	stmdbeq	r1, {}	; <UNPREDICTABLE>
    164c:	00000722 	andeq	r0, r0, r2, lsr #14
    1650:	000008ed 	andeq	r0, r0, sp, ror #17
    1654:	01006314 	tsteq	r0, r4, lsl r3
    1658:	00005a09 	andeq	r5, r0, r9, lsl #20
    165c:	00090e00 	andeq	r0, r9, r0, lsl #28
    1660:	78741500 	ldmdavc	r4!, {r8, sl, ip}^
    1664:	250b0100 	strcs	r0, [fp, #-256]	; 0x100
    1668:	06000000 	streq	r0, [r0], -r0
    166c:	ff080076 			; <UNDEFINED> instruction: 0xff080076
    1670:	6e169f1a 	mrcvs	15, 0, r9, cr6, cr10, {0}
    1674:	680c0100 	stmdavs	ip, {r8}
    1678:	2f000000 	svccs	0x00000000
    167c:	16000009 	strne	r0, [r0], -r9
    1680:	0d010075 	stceq	0, cr0, [r1, #-468]	; 0xfffffe2c
    1684:	00000068 	andeq	r0, r0, r8, rrx
    1688:	00000942 	andeq	r0, r0, r2, asr #18
    168c:	01007315 	tsteq	r0, r5, lsl r3
    1690:	0000680e 	andeq	r6, r0, lr, lsl #16
    1694:	17540100 	ldrbne	r0, [r4, -r0, lsl #2]
    1698:	00008898 	muleq	r0, r8, r8
    169c:	00000004 	andeq	r0, r0, r4
    16a0:	000001f8 	strdeq	r0, [r0], -r8
    16a4:	00067318 	andeq	r7, r6, r8, lsl r3
    16a8:	2c0e0100 	stfcss	f0, [lr], {-0}
    16ac:	01000000 	mrseq	r0, (UNDEF: 0)
    16b0:	3f190054 	svccc	0x00190054
    16b4:	9c000001 	stcls	0, cr0, [r0], {1}
    16b8:	1c000088 	stcne	0, cr0, [r0], {136}	; 0x88
    16bc:	01000000 	mrseq	r0, (UNDEF: 0)
    16c0:	00027511 	andeq	r7, r2, r1, lsl r5
    16c4:	016a1a00 	cmneq	sl, r0, lsl #20
    16c8:	096b0000 	stmdbeq	fp!, {}^	; <UNPREDICTABLE>
    16cc:	5f1b0000 	svcpl	0x001b0000
    16d0:	01000001 	tsteq	r0, r1
    16d4:	01561c54 	cmpeq	r6, r4, asr ip
    16d8:	1b000000 	blne	16e0 <_start-0x6920>
    16dc:	0000014b 	andeq	r0, r0, fp, asr #2
    16e0:	11195601 	tstne	r9, r1, lsl #12
    16e4:	a8000001 	stmdage	r0, {r0}
    16e8:	10000088 	andne	r0, r0, r8, lsl #1
    16ec:	02000000 	andeq	r0, r0, #0
    16f0:	00025f1a 	andeq	r5, r2, sl, lsl pc
    16f4:	01281a00 	teqeq	r8, r0, lsl #20
    16f8:	097e0000 	ldmdbeq	lr!, {}^	; <UNPREDICTABLE>
    16fc:	1d1b0000 	ldcne	0, cr0, [fp, #-0]
    1700:	01000001 	tsteq	r0, r1
    1704:	88a81d54 	stmiahi	r8!, {r2, r4, r6, r8, sl, fp, ip}
    1708:	00040000 	andeq	r0, r4, r0
    170c:	321e0000 	andscc	r0, lr, #0
    1710:	91000001 	tstls	r0, r1
    1714:	00000009 	andeq	r0, r0, r9
    1718:	88a81f00 	stmiahi	r8!, {r8, r9, sl, fp, ip}
    171c:	11590000 	cmpne	r9, r0
    1720:	01200000 	teqeq	r0, r0
    1724:	20300151 	eorscs	r0, r0, r1, asr r1
    1728:	76025001 	strvc	r5, [r2], -r1
    172c:	19000000 	stmdbne	r0, {}	; <UNPREDICTABLE>
    1730:	0000013f 	andeq	r0, r0, pc, lsr r1
    1734:	000088bc 			; <UNDEFINED> instruction: 0x000088bc
    1738:	0000001c 	andeq	r0, r0, ip, lsl r0
    173c:	02f81301 	rscseq	r1, r8, #67108864	; 0x4000000
    1740:	6a1a0000 	bvs	681748 <__bss_end__+0x6778e8>
    1744:	a4000001 	strge	r0, [r0], #-1
    1748:	1b000009 	blne	1774 <_start-0x688c>
    174c:	0000015f 	andeq	r0, r0, pc, asr r1
    1750:	561a5401 	ldrpl	r5, [sl], -r1, lsl #8
    1754:	c6000001 	strgt	r0, [r0], -r1
    1758:	1b000009 	blne	1784 <_start-0x687c>
    175c:	0000014b 	andeq	r0, r0, fp, asr #2
    1760:	11195601 	tstne	r9, r1, lsl #12
    1764:	c8000001 	stmdagt	r0, {r0}
    1768:	10000088 	andne	r0, r0, r8, lsl #1
    176c:	02000000 	andeq	r0, r0, #0
    1770:	0002df1a 	andeq	sp, r2, sl, lsl pc
    1774:	01281a00 	teqeq	r8, r0, lsl #20
    1778:	09f70000 	ldmibeq	r7!, {}^	; <UNPREDICTABLE>
    177c:	1d1b0000 	ldcne	0, cr0, [fp, #-0]
    1780:	01000001 	tsteq	r0, r1
    1784:	88c81d54 	stmiahi	r8, {r2, r4, r6, r8, sl, fp, ip}^
    1788:	00040000 	andeq	r0, r4, r0
    178c:	321e0000 	andscc	r0, lr, #0
    1790:	19000001 	stmdbne	r0, {r0}
    1794:	0000000a 	andeq	r0, r0, sl
    1798:	88c81f00 	stmiahi	r8, {r8, r9, sl, fp, ip}^
    179c:	11590000 	cmpne	r9, r0
    17a0:	01200000 	teqeq	r0, r0
    17a4:	00770451 	rsbseq	r0, r7, r1, asr r4
    17a8:	01201a31 	teqeq	r0, r1, lsr sl
    17ac:	00760250 	rsbseq	r0, r6, r0, asr r2
    17b0:	3f190000 	svccc	0x00190000
    17b4:	dc000001 	stcle	0, cr0, [r0], {1}
    17b8:	1c000088 	stcne	0, cr0, [r0], {136}	; 0x88
    17bc:	01000000 	mrseq	r0, (UNDEF: 0)
    17c0:	00038015 	andeq	r8, r3, r5, lsl r0
    17c4:	016a1a00 	cmneq	sl, r0, lsl #20
    17c8:	0a2c0000 	beq	b017d0 <__bss_end__+0xaf7970>
    17cc:	5f1b0000 	svcpl	0x001b0000
    17d0:	01000001 	tsteq	r0, r1
    17d4:	01561b54 	cmpeq	r6, r4, asr fp
    17d8:	77080000 	strvc	r0, [r8, -r0]
    17dc:	081a3200 	ldmdaeq	sl, {r9, ip, sp}
    17e0:	1b9f1aff 	blne	fe7c83e4 <__bss_end__+0xfe7be584>
    17e4:	0000014b 	andeq	r0, r0, fp, asr #2
    17e8:	11195601 	tstne	r9, r1, lsl #12
    17ec:	e8000001 	stmda	r0, {r0}
    17f0:	10000088 	andne	r0, r0, r8, lsl #1
    17f4:	02000000 	andeq	r0, r0, #0
    17f8:	0003671a 	andeq	r6, r3, sl, lsl r7
    17fc:	01281a00 	teqeq	r8, r0, lsl #20
    1800:	0a510000 	beq	1441808 <__bss_end__+0x14379a8>
    1804:	1d1b0000 	ldcne	0, cr0, [fp, #-0]
    1808:	01000001 	tsteq	r0, r1
    180c:	88e81d54 	stmiahi	r8!, {r2, r4, r6, r8, sl, fp, ip}^
    1810:	00040000 	andeq	r0, r4, r0
    1814:	321e0000 	andscc	r0, lr, #0
    1818:	76000001 	strvc	r0, [r0], -r1
    181c:	0000000a 	andeq	r0, r0, sl
    1820:	88e81f00 	stmiahi	r8!, {r8, r9, sl, fp, ip}^
    1824:	11590000 	cmpne	r9, r0
    1828:	01200000 	teqeq	r0, r0
    182c:	00770451 	rsbseq	r0, r7, r1, asr r4
    1830:	01201a32 	teqeq	r0, r2, lsr sl
    1834:	00760250 	rsbseq	r0, r6, r0, asr r2
    1838:	3f190000 	svccc	0x00190000
    183c:	fc000001 	stc2	0, cr0, [r0], {1}
    1840:	1c000088 	stcne	0, cr0, [r0], {136}	; 0x88
    1844:	01000000 	mrseq	r0, (UNDEF: 0)
    1848:	00040817 	andeq	r0, r4, r7, lsl r8
    184c:	016a1a00 	cmneq	sl, r0, lsl #20
    1850:	0a890000 	beq	fe241858 <__bss_end__+0xfe2379f8>
    1854:	5f1b0000 	svcpl	0x001b0000
    1858:	01000001 	tsteq	r0, r1
    185c:	01561b54 	cmpeq	r6, r4, asr fp
    1860:	77080000 	strvc	r0, [r8, -r0]
    1864:	081a3400 	ldmdaeq	sl, {sl, ip, sp}
    1868:	1b9f1aff 	blne	fe7c846c <__bss_end__+0xfe7be60c>
    186c:	0000014b 	andeq	r0, r0, fp, asr #2
    1870:	11195601 	tstne	r9, r1, lsl #12
    1874:	08000001 	stmdaeq	r0, {r0}
    1878:	10000089 	andne	r0, r0, r9, lsl #1
    187c:	02000000 	andeq	r0, r0, #0
    1880:	0003ef1a 	andeq	lr, r3, sl, lsl pc
    1884:	01281a00 	teqeq	r8, r0, lsl #20
    1888:	0aab0000 	beq	feac1890 <__bss_end__+0xfeab7a30>
    188c:	1d1b0000 	ldcne	0, cr0, [fp, #-0]
    1890:	01000001 	tsteq	r0, r1
    1894:	89081d54 	stmdbhi	r8, {r2, r4, r6, r8, sl, fp, ip}
    1898:	00040000 	andeq	r0, r4, r0
    189c:	321e0000 	andscc	r0, lr, #0
    18a0:	cd000001 	stcgt	0, cr0, [r0, #-4]
    18a4:	0000000a 	andeq	r0, r0, sl
    18a8:	89081f00 	stmdbhi	r8, {r8, r9, sl, fp, ip}
    18ac:	11590000 	cmpne	r9, r0
    18b0:	01200000 	teqeq	r0, r0
    18b4:	00770451 	rsbseq	r0, r7, r1, asr r4
    18b8:	01201a34 	teqeq	r0, r4, lsr sl
    18bc:	00760250 	rsbseq	r0, r6, r0, asr r2
    18c0:	3f190000 	svccc	0x00190000
    18c4:	1c000001 	stcne	0, cr0, [r0], {1}
    18c8:	1c000089 	stcne	0, cr0, [r0], {137}	; 0x89
    18cc:	01000000 	mrseq	r0, (UNDEF: 0)
    18d0:	00049019 	andeq	r9, r4, r9, lsl r0
    18d4:	016a1a00 	cmneq	sl, r0, lsl #20
    18d8:	0ae00000 	beq	ff8018e0 <__bss_end__+0xff7f7a80>
    18dc:	5f1b0000 	svcpl	0x001b0000
    18e0:	01000001 	tsteq	r0, r1
    18e4:	01561b54 	cmpeq	r6, r4, asr fp
    18e8:	77080000 	strvc	r0, [r8, -r0]
    18ec:	081a3800 	ldmdaeq	sl, {fp, ip, sp}
    18f0:	1b9f1aff 	blne	fe7c84f4 <__bss_end__+0xfe7be694>
    18f4:	0000014b 	andeq	r0, r0, fp, asr #2
    18f8:	11195601 	tstne	r9, r1, lsl #12
    18fc:	28000001 	stmdacs	r0, {r0}
    1900:	10000089 	andne	r0, r0, r9, lsl #1
    1904:	02000000 	andeq	r0, r0, #0
    1908:	0004771a 	andeq	r7, r4, sl, lsl r7
    190c:	01281a00 	teqeq	r8, r0, lsl #20
    1910:	0b050000 	bleq	141918 <__bss_end__+0x137ab8>
    1914:	1d1b0000 	ldcne	0, cr0, [fp, #-0]
    1918:	01000001 	tsteq	r0, r1
    191c:	89281d54 	stmdbhi	r8!, {r2, r4, r6, r8, sl, fp, ip}
    1920:	00040000 	andeq	r0, r4, r0
    1924:	321e0000 	andscc	r0, lr, #0
    1928:	2a000001 	bcs	1934 <_start-0x66cc>
    192c:	0000000b 	andeq	r0, r0, fp
    1930:	89281f00 	stmdbhi	r8!, {r8, r9, sl, fp, ip}
    1934:	11590000 	cmpne	r9, r0
    1938:	01200000 	teqeq	r0, r0
    193c:	00770451 	rsbseq	r0, r7, r1, asr r4
    1940:	01201a38 	teqeq	r0, r8, lsr sl
    1944:	00760250 	rsbseq	r0, r6, r0, asr r2
    1948:	3f190000 	svccc	0x00190000
    194c:	3c000001 	stccc	0, cr0, [r0], {1}
    1950:	1c000089 	stcne	0, cr0, [r0], {137}	; 0x89
    1954:	01000000 	mrseq	r0, (UNDEF: 0)
    1958:	0005181b 	andeq	r1, r5, fp, lsl r8
    195c:	016a1a00 	cmneq	sl, r0, lsl #20
    1960:	0b3d0000 	bleq	f41968 <__bss_end__+0xf37b08>
    1964:	5f1b0000 	svcpl	0x001b0000
    1968:	01000001 	tsteq	r0, r1
    196c:	01561b54 	cmpeq	r6, r4, asr fp
    1970:	77080000 	strvc	r0, [r8, -r0]
    1974:	081a4000 	ldmdaeq	sl, {lr}
    1978:	1b9f1aff 	blne	fe7c857c <__bss_end__+0xfe7be71c>
    197c:	0000014b 	andeq	r0, r0, fp, asr #2
    1980:	11195601 	tstne	r9, r1, lsl #12
    1984:	48000001 	stmdami	r0, {r0}
    1988:	10000089 	andne	r0, r0, r9, lsl #1
    198c:	02000000 	andeq	r0, r0, #0
    1990:	0004ff1a 	andeq	pc, r4, sl, lsl pc	; <UNPREDICTABLE>
    1994:	01281a00 	teqeq	r8, r0, lsl #20
    1998:	0b640000 	bleq	19019a0 <__bss_end__+0x18f7b40>
    199c:	1d1b0000 	ldcne	0, cr0, [fp, #-0]
    19a0:	01000001 	tsteq	r0, r1
    19a4:	89481d54 	stmdbhi	r8, {r2, r4, r6, r8, sl, fp, ip}^
    19a8:	00040000 	andeq	r0, r4, r0
    19ac:	321e0000 	andscc	r0, lr, #0
    19b0:	8b000001 	blhi	19bc <_start-0x6644>
    19b4:	0000000b 	andeq	r0, r0, fp
    19b8:	89481f00 	stmdbhi	r8, {r8, r9, sl, fp, ip}^
    19bc:	11590000 	cmpne	r9, r0
    19c0:	01200000 	teqeq	r0, r0
    19c4:	00770451 	rsbseq	r0, r7, r1, asr r4
    19c8:	01201a40 	teqeq	r0, r0, asr #20
    19cc:	00760250 	rsbseq	r0, r6, r0, asr r2
    19d0:	3f190000 	svccc	0x00190000
    19d4:	5c000001 	stcpl	0, cr0, [r0], {1}
    19d8:	1c000089 	stcne	0, cr0, [r0], {137}	; 0x89
    19dc:	01000000 	mrseq	r0, (UNDEF: 0)
    19e0:	0005a21d 	andeq	sl, r5, sp, lsl r2
    19e4:	016a1a00 	cmneq	sl, r0, lsl #20
    19e8:	0b9e0000 	bleq	fe7819f0 <__bss_end__+0xfe777b90>
    19ec:	5f1b0000 	svcpl	0x001b0000
    19f0:	01000001 	tsteq	r0, r1
    19f4:	01561b54 	cmpeq	r6, r4, asr fp
    19f8:	77090000 	strvc	r0, [r9, -r0]
    19fc:	1a200800 	bne	803a04 <__bss_end__+0x7f9ba4>
    1a00:	9f1aff08 	svcls	0x001aff08
    1a04:	00014b1b 	andeq	r4, r1, fp, lsl fp
    1a08:	19560100 	ldmdbne	r6, {r8}^
    1a0c:	00000111 	andeq	r0, r0, r1, lsl r1
    1a10:	00008968 	andeq	r8, r0, r8, ror #18
    1a14:	00000010 	andeq	r0, r0, r0, lsl r0
    1a18:	05881a02 	streq	r1, [r8, #2562]	; 0xa02
    1a1c:	281a0000 	ldmdacs	sl, {}	; <UNPREDICTABLE>
    1a20:	c8000001 	stmdagt	r0, {r0}
    1a24:	1b00000b 	blne	1a58 <_start-0x65a8>
    1a28:	0000011d 	andeq	r0, r0, sp, lsl r1
    1a2c:	681d5401 	ldmdavs	sp, {r0, sl, ip, lr}
    1a30:	04000089 	streq	r0, [r0], #-137	; 0x89
    1a34:	1e000000 	cdpne	0, 0, cr0, cr0, cr0, {0}
    1a38:	00000132 	andeq	r0, r0, r2, lsr r1
    1a3c:	00000bf2 	strdeq	r0, [r0], -r2
    1a40:	681f0000 	ldmdavs	pc, {}	; <UNPREDICTABLE>
    1a44:	59000089 	stmdbpl	r0, {r0, r3, r7}
    1a48:	20000011 	andcs	r0, r0, r1, lsl r0
    1a4c:	77055101 	strvc	r5, [r5, -r1, lsl #2]
    1a50:	1a200800 	bne	803a58 <__bss_end__+0x7f9bf8>
    1a54:	02500120 	subseq	r0, r0, #32, 2
    1a58:	00000076 	andeq	r0, r0, r6, ror r0
    1a5c:	00013f19 	andeq	r3, r1, r9, lsl pc
    1a60:	00897c00 	addeq	r7, r9, r0, lsl #24
    1a64:	00001c00 	andeq	r1, r0, r0, lsl #24
    1a68:	2c1f0100 	ldfcss	f0, [pc], {-0}
    1a6c:	1a000006 	bne	1a8c <_start-0x6574>
    1a70:	0000016a 	andeq	r0, r0, sl, ror #2
    1a74:	00000c05 	andeq	r0, r0, r5, lsl #24
    1a78:	00015f1b 	andeq	r5, r1, fp, lsl pc
    1a7c:	1b540100 	blne	1501e84 <__bss_end__+0x14f8024>
    1a80:	00000156 	andeq	r0, r0, r6, asr r1
    1a84:	08007709 	stmdaeq	r0, {r0, r3, r8, r9, sl, ip, sp, lr}
    1a88:	ff081a40 			; <UNDEFINED> instruction: 0xff081a40
    1a8c:	4b1b9f1a 	blmi	6e96fc <__bss_end__+0x6df89c>
    1a90:	01000001 	tsteq	r0, r1
    1a94:	01111956 	tsteq	r1, r6, asr r9
    1a98:	89880000 	stmibhi	r8, {}	; <UNPREDICTABLE>
    1a9c:	00100000 	andseq	r0, r0, r0
    1aa0:	1a020000 	bne	81aa8 <__bss_end__+0x77c48>
    1aa4:	00000612 	andeq	r0, r0, r2, lsl r6
    1aa8:	0001281a 	andeq	r2, r1, sl, lsl r8
    1aac:	000c2700 	andeq	r2, ip, r0, lsl #14
    1ab0:	011d1b00 	tsteq	sp, r0, lsl #22
    1ab4:	54010000 	strpl	r0, [r1], #-0
    1ab8:	0089881d 	addeq	r8, r9, sp, lsl r8
    1abc:	00000400 	andeq	r0, r0, r0, lsl #8
    1ac0:	01321e00 	teqeq	r2, r0, lsl #28
    1ac4:	0c490000 	mareq	acc0, r0, r9
    1ac8:	00000000 	andeq	r0, r0, r0
    1acc:	0089881f 	addeq	r8, r9, pc, lsl r8
    1ad0:	00115900 	andseq	r5, r1, r0, lsl #18
    1ad4:	51012000 	mrspl	r2, (UNDEF: 1)
    1ad8:	08007705 	stmdaeq	r0, {r0, r2, r8, r9, sl, ip, sp, lr}
    1adc:	01201a40 	teqeq	r0, r0, asr #20
    1ae0:	00760250 	rsbseq	r0, r6, r0, asr r2
    1ae4:	3f190000 	svccc	0x00190000
    1ae8:	9c000001 	stcls	0, cr0, [r0], {1}
    1aec:	1c000089 	stcne	0, cr0, [r0], {137}	; 0x89
    1af0:	01000000 	mrseq	r0, (UNDEF: 0)
    1af4:	0006ac21 	andeq	sl, r6, r1, lsr #24
    1af8:	016a1b00 	cmneq	sl, r0, lsl #22
    1afc:	58010000 	stmdapl	r1, {}	; <UNPREDICTABLE>
    1b00:	00015f1b 	andeq	r5, r1, fp, lsl pc
    1b04:	1a540100 	bne	1501f0c <__bss_end__+0x14f80ac>
    1b08:	00000156 	andeq	r0, r0, r6, asr r1
    1b0c:	00000c5c 	andeq	r0, r0, ip, asr ip
    1b10:	00014b1b 	andeq	r4, r1, fp, lsl fp
    1b14:	19560100 	ldmdbne	r6, {r8}^
    1b18:	00000111 	andeq	r0, r0, r1, lsl r1
    1b1c:	000089a8 	andeq	r8, r0, r8, lsr #19
    1b20:	00000010 	andeq	r0, r0, r0, lsl r0
    1b24:	06921a02 	ldreq	r1, [r2], r2, lsl #20
    1b28:	281b0000 	ldmdacs	fp, {}	; <UNPREDICTABLE>
    1b2c:	01000001 	tsteq	r0, r1
    1b30:	011d1b58 	tsteq	sp, r8, asr fp
    1b34:	54010000 	strpl	r0, [r1], #-0
    1b38:	0089a81d 	addeq	sl, r9, sp, lsl r8
    1b3c:	00000400 	andeq	r0, r0, r0, lsl #8
    1b40:	01321e00 	teqeq	r2, r0, lsl #28
    1b44:	0c8f0000 	stceq	0, cr0, [pc], {0}
    1b48:	00000000 	andeq	r0, r0, r0
    1b4c:	0089a81f 	addeq	sl, r9, pc, lsl r8
    1b50:	00115900 	andseq	r5, r1, r0, lsl #18
    1b54:	51012000 	mrspl	r2, (UNDEF: 1)
    1b58:	08007705 	stmdaeq	r0, {r0, r2, r8, r9, sl, ip, sp, lr}
    1b5c:	01201a80 	smlawbeq	r0, r0, sl, r1
    1b60:	00760250 	rsbseq	r0, r6, r0, asr r2
    1b64:	3f210000 	svccc	0x00210000
    1b68:	bc000001 	stclt	0, cr0, [r0], {1}
    1b6c:	1c000089 	stcne	0, cr0, [r0], {137}	; 0x89
    1b70:	01000000 	mrseq	r0, (UNDEF: 0)
    1b74:	016a1b23 	cmneq	sl, r3, lsr #22
    1b78:	55010000 	strpl	r0, [r1, #-0]
    1b7c:	00015f1b 	andeq	r5, r1, fp, lsl pc
    1b80:	1c540100 	ldfnee	f0, [r4], {-0}
    1b84:	00000156 	andeq	r0, r0, r6, asr r1
    1b88:	014b1b01 	cmpeq	fp, r1, lsl #22
    1b8c:	56010000 	strpl	r0, [r1], -r0
    1b90:	00011119 	andeq	r1, r1, r9, lsl r1
    1b94:	0089c800 	addeq	ip, r9, r0, lsl #16
    1b98:	00001000 	andeq	r1, r0, r0
    1b9c:	0b1a0200 	bleq	6823a4 <__bss_end__+0x678544>
    1ba0:	1b000007 	blne	1bc4 <_start-0x643c>
    1ba4:	00000128 	andeq	r0, r0, r8, lsr #2
    1ba8:	1d1b5501 	cfldr32ne	mvfx5, [fp, #-4]
    1bac:	01000001 	tsteq	r0, r1
    1bb0:	89c81d54 	stmibhi	r8, {r2, r4, r6, r8, sl, fp, ip}^
    1bb4:	00040000 	andeq	r0, r4, r0
    1bb8:	321e0000 	andscc	r0, lr, #0
    1bbc:	a2000001 	andge	r0, r0, #1
    1bc0:	0000000c 	andeq	r0, r0, ip
    1bc4:	89c81f00 	stmibhi	r8, {r8, r9, sl, fp, ip}^
    1bc8:	11590000 	cmpne	r9, r0
    1bcc:	01200000 	teqeq	r0, r0
    1bd0:	20310151 	eorscs	r0, r1, r1, asr r1
    1bd4:	76025001 	strvc	r5, [r2], -r1
    1bd8:	00000000 	andeq	r0, r0, r0
    1bdc:	00d90406 	sbcseq	r0, r9, r6, lsl #8
    1be0:	cd220000 	stcgt	0, cr0, [r2, #-0]
    1be4:	01000006 	tsteq	r0, r6
    1be8:	00002527 	andeq	r2, r0, r7, lsr #10
    1bec:	07620300 	strbeq	r0, [r2, -r0, lsl #6]!
    1bf0:	720f0000 	andvc	r0, pc, #0
    1bf4:	27010078 	smlsdxcs	r1, r8, r0, r0
    1bf8:	00000025 	andeq	r0, r0, r5, lsr #32
    1bfc:	0100760f 	tsteq	r0, pc, lsl #12
    1c00:	00002527 	andeq	r2, r0, r7, lsr #10
    1c04:	06210e00 	strteq	r0, [r1], -r0, lsl #28
    1c08:	27010000 	strcs	r0, [r1, -r0]
    1c0c:	0000002c 	andeq	r0, r0, ip, lsr #32
    1c10:	00046111 	andeq	r6, r4, r1, lsl r1
    1c14:	2c280100 	stfcss	f0, [r8], #-0
    1c18:	00000000 	andeq	r0, r0, r0
    1c1c:	0005c223 	andeq	ip, r5, r3, lsr #4
    1c20:	25340100 	ldrcs	r0, [r4, #-256]!	; 0x100
    1c24:	dc000000 	stcle	0, cr0, [r0], {-0}
    1c28:	c8000089 	stmdagt	r0, {r0, r3, r7}
    1c2c:	01000001 	tsteq	r0, r1
    1c30:	000b1e9c 	muleq	fp, ip, lr
    1c34:	04141300 	ldreq	r1, [r4], #-768	; 0x300
    1c38:	34010000 	strcc	r0, [r1], #-0
    1c3c:	00000722 	andeq	r0, r0, r2, lsr #14
    1c40:	00000cb5 			; <UNDEFINED> instruction: 0x00000cb5
    1c44:	00062113 	andeq	r2, r6, r3, lsl r1
    1c48:	25340100 	ldrcs	r0, [r4, #-256]!	; 0x100
    1c4c:	fa000000 	blx	1c54 <_start-0x63ac>
    1c50:	1500000c 	strne	r0, [r0, #-12]
    1c54:	01007872 	tsteq	r0, r2, ror r8
    1c58:	00002535 	andeq	r2, r0, r5, lsr r5
    1c5c:	16550100 	ldrbne	r0, [r5], -r0, lsl #2
    1c60:	3c010073 	stccc	0, cr0, [r1], {115}	; 0x73
    1c64:	0000002c 	andeq	r0, r0, ip, lsr #32
    1c68:	00000d18 	andeq	r0, r0, r8, lsl sp
    1c6c:	01007516 	tsteq	r0, r6, lsl r5
    1c70:	0000683f 	andeq	r6, r0, pc, lsr r8
    1c74:	000d2b00 	andeq	r2, sp, r0, lsl #22
    1c78:	006e1600 	rsbeq	r1, lr, r0, lsl #12
    1c7c:	002c4001 	eoreq	r4, ip, r1
    1c80:	0d3e0000 	ldceq	0, cr0, [lr, #-0]
    1c84:	63160000 	tstvs	r6, #0
    1c88:	2c410100 	stfcse	f0, [r1], {-0}
    1c8c:	55000000 	strpl	r0, [r0, #-0]
    1c90:	1900000d 	stmdbne	r0, {r0, r2, r3}
    1c94:	00000728 	andeq	r0, r0, r8, lsr #14
    1c98:	000089f0 	strdeq	r8, [r0], -r0
    1c9c:	00000034 	andeq	r0, r0, r4, lsr r0
    1ca0:	083c3801 	ldmdaeq	ip!, {r0, fp, ip, sp}
    1ca4:	4b1a0000 	blmi	681cac <__bss_end__+0x677e4c>
    1ca8:	7f000007 	svcvc	0x00000007
    1cac:	1c00000d 	stcne	0, cr0, [r0], {13}
    1cb0:	00000742 	andeq	r0, r0, r2, asr #14
    1cb4:	07381b00 	ldreq	r1, [r8, -r0, lsl #22]!
    1cb8:	55010000 	strpl	r0, [r1, #-0]
    1cbc:	0089f01d 	addeq	pc, r9, sp, lsl r0	; <UNPREDICTABLE>
    1cc0:	00003400 	andeq	r3, r0, r0, lsl #8
    1cc4:	07561e00 	ldrbeq	r1, [r6, -r0, lsl #28]
    1cc8:	0d9d0000 	ldceq	0, cr0, [sp]
    1ccc:	f4240000 	vld4.8	{d0-d3}, [r4], r0
    1cd0:	6f000089 	svcvs	0x00000089
    1cd4:	25000011 	strcs	r0, [r0, #-17]
    1cd8:	00008a00 	andeq	r8, r0, r0, lsl #20
    1cdc:	0000117a 	andeq	r1, r0, sl, ror r1
    1ce0:	00000831 	andeq	r0, r0, r1, lsr r8
    1ce4:	02500120 	subseq	r0, r0, #32, 2
    1ce8:	24000075 	strcs	r0, [r0], #-117	; 0x75
    1cec:	00008a0c 	andeq	r8, r0, ip, lsl #20
    1cf0:	0000116f 	andeq	r1, r0, pc, ror #2
    1cf4:	2c170000 	ldccs	0, cr0, [r7], {-0}
    1cf8:	0400008a 	streq	r0, [r0], #-138	; 0x8a
    1cfc:	59000000 	stmdbpl	r0, {}	; <UNPREDICTABLE>
    1d00:	26000008 	strcs	r0, [r0], -r8
    1d04:	00000673 	andeq	r0, r0, r3, ror r6
    1d08:	002c3c01 	eoreq	r3, ip, r1, lsl #24
    1d0c:	0dbb0000 	ldceq	0, cr0, [fp]
    1d10:	19000000 	stmdbne	r0, {}	; <UNPREDICTABLE>
    1d14:	00000111 	andeq	r0, r0, r1, lsl r1
    1d18:	00008a38 	andeq	r8, r0, r8, lsr sl
    1d1c:	00000010 	andeq	r0, r0, r0, lsl r0
    1d20:	08924401 	ldmeq	r2, {r0, sl, lr}
    1d24:	281a0000 	ldmdacs	sl, {}	; <UNPREDICTABLE>
    1d28:	ce000001 	cdpgt	0, 0, cr0, cr0, cr1, {0}
    1d2c:	1a00000d 	bne	1d68 <_start-0x6298>
    1d30:	0000011d 	andeq	r0, r0, sp, lsl r1
    1d34:	00000df3 	strdeq	r0, [r0], -r3
    1d38:	008a381d 	addeq	r3, sl, sp, lsl r8
    1d3c:	00000400 	andeq	r0, r0, r0, lsl #8
    1d40:	01321e00 	teqeq	r2, r0, lsl #28
    1d44:	0e060000 	cdpeq	0, 0, cr0, cr6, cr0, {0}
    1d48:	00000000 	andeq	r0, r0, r0
    1d4c:	00011119 	andeq	r1, r1, r9, lsl r1
    1d50:	008a5800 	addeq	r5, sl, r0, lsl #16
    1d54:	00001000 	andeq	r1, r0, r0
    1d58:	cb480100 	blgt	1202160 <__bss_end__+0x11f8300>
    1d5c:	1a000008 	bne	1d84 <_start-0x627c>
    1d60:	00000128 	andeq	r0, r0, r8, lsr #2
    1d64:	00000e19 	andeq	r0, r0, r9, lsl lr
    1d68:	00011d1a 	andeq	r1, r1, sl, lsl sp
    1d6c:	000e2c00 	andeq	r2, lr, r0, lsl #24
    1d70:	8a581d00 	bhi	1609178 <__bss_end__+0x15ff318>
    1d74:	00040000 	andeq	r0, r4, r0
    1d78:	321e0000 	andscc	r0, lr, #0
    1d7c:	3f000001 	svccc	0x00000001
    1d80:	0000000e 	andeq	r0, r0, lr
    1d84:	01111900 	tsteq	r1, r0, lsl #18
    1d88:	8a7c0000 	bhi	1f01d90 <__bss_end__+0x1ef7f30>
    1d8c:	00100000 	andseq	r0, r0, r0
    1d90:	4b010000 	blmi	41d98 <__bss_end__+0x37f38>
    1d94:	00000904 	andeq	r0, r0, r4, lsl #18
    1d98:	0001281a 	andeq	r2, r1, sl, lsl r8
    1d9c:	000e5200 	andeq	r5, lr, r0, lsl #4
    1da0:	011d1a00 	tsteq	sp, r0, lsl #20
    1da4:	0e650000 	cdpeq	0, 6, cr0, cr5, cr0, {0}
    1da8:	7c1d0000 	ldcvc	0, cr0, [sp], {-0}
    1dac:	0400008a 	streq	r0, [r0], #-138	; 0x8a
    1db0:	1e000000 	cdpne	0, 0, cr0, cr0, cr0, {0}
    1db4:	00000132 	andeq	r0, r0, r2, lsr r1
    1db8:	00000e78 	andeq	r0, r0, r8, ror lr
    1dbc:	11190000 	tstne	r9, r0
    1dc0:	a0000001 	andge	r0, r0, r1
    1dc4:	1000008a 	andne	r0, r0, sl, lsl #1
    1dc8:	01000000 	mrseq	r0, (UNDEF: 0)
    1dcc:	00093d4e 	andeq	r3, r9, lr, asr #26
    1dd0:	01281a00 	teqeq	r8, r0, lsl #20
    1dd4:	0e8b0000 	cdpeq	0, 8, cr0, cr11, cr0, {0}
    1dd8:	1d1a0000 	ldcne	0, cr0, [sl, #-0]
    1ddc:	9e000001 	cdpls	0, 0, cr0, cr0, cr1, {0}
    1de0:	1d00000e 	stcne	0, cr0, [r0, #-56]	; 0xffffffc8
    1de4:	00008aa0 	andeq	r8, r0, r0, lsr #21
    1de8:	00000004 	andeq	r0, r0, r4
    1dec:	0001321e 	andeq	r3, r1, lr, lsl r2
    1df0:	000eb100 	andeq	fp, lr, r0, lsl #2
    1df4:	19000000 	stmdbne	r0, {}	; <UNPREDICTABLE>
    1df8:	00000111 	andeq	r0, r0, r1, lsl r1
    1dfc:	00008ac4 	andeq	r8, r0, r4, asr #21
    1e00:	00000010 	andeq	r0, r0, r0, lsl r0
    1e04:	09765101 	ldmdbeq	r6!, {r0, r8, ip, lr}^
    1e08:	281a0000 	ldmdacs	sl, {}	; <UNPREDICTABLE>
    1e0c:	c4000001 	strgt	r0, [r0], #-1
    1e10:	1a00000e 	bne	1e50 <_start-0x61b0>
    1e14:	0000011d 	andeq	r0, r0, sp, lsl r1
    1e18:	00000ed7 	ldrdeq	r0, [r0], -r7
    1e1c:	008ac41d 	addeq	ip, sl, sp, lsl r4
    1e20:	00000400 	andeq	r0, r0, r0, lsl #8
    1e24:	01321e00 	teqeq	r2, r0, lsl #28
    1e28:	0eea0000 	cdpeq	0, 14, cr0, cr10, cr0, {0}
    1e2c:	00000000 	andeq	r0, r0, r0
    1e30:	00011119 	andeq	r1, r1, r9, lsl r1
    1e34:	008ae800 	addeq	lr, sl, r0, lsl #16
    1e38:	00001000 	andeq	r1, r0, r0
    1e3c:	af540100 	svcge	0x00540100
    1e40:	1a000009 	bne	1e6c <_start-0x6194>
    1e44:	00000128 	andeq	r0, r0, r8, lsr #2
    1e48:	00000efd 	strdeq	r0, [r0], -sp
    1e4c:	00011d1a 	andeq	r1, r1, sl, lsl sp
    1e50:	000f1000 	andeq	r1, pc, r0
    1e54:	8ae81d00 	bhi	ffa0925c <__bss_end__+0xff9ff3fc>
    1e58:	00040000 	andeq	r0, r4, r0
    1e5c:	321e0000 	andscc	r0, lr, #0
    1e60:	23000001 	movwcs	r0, #1
    1e64:	0000000f 	andeq	r0, r0, pc
    1e68:	01111900 	tsteq	r1, r0, lsl #18
    1e6c:	8b0c0000 	blhi	301e74 <__bss_end__+0x2f8014>
    1e70:	00100000 	andseq	r0, r0, r0
    1e74:	57010000 	strpl	r0, [r1, -r0]
    1e78:	000009e8 	andeq	r0, r0, r8, ror #19
    1e7c:	0001281a 	andeq	r2, r1, sl, lsl r8
    1e80:	000f3600 	andeq	r3, pc, r0, lsl #12
    1e84:	011d1a00 	tsteq	sp, r0, lsl #20
    1e88:	0f490000 	svceq	0x00490000
    1e8c:	0c1d0000 	ldceq	0, cr0, [sp], {-0}
    1e90:	0400008b 	streq	r0, [r0], #-139	; 0x8b
    1e94:	1e000000 	cdpne	0, 0, cr0, cr0, cr0, {0}
    1e98:	00000132 	andeq	r0, r0, r2, lsr r1
    1e9c:	00000f5c 	andeq	r0, r0, ip, asr pc
    1ea0:	11190000 	tstne	r9, r0
    1ea4:	30000001 	andcc	r0, r0, r1
    1ea8:	1000008b 	andne	r0, r0, fp, lsl #1
    1eac:	01000000 	mrseq	r0, (UNDEF: 0)
    1eb0:	000a1d5a 	andeq	r1, sl, sl, asr sp
    1eb4:	01281a00 	teqeq	r8, r0, lsl #20
    1eb8:	0f6f0000 	svceq	0x006f0000
    1ebc:	1d270000 	stcne	0, cr0, [r7, #-0]
    1ec0:	1d000001 	stcne	0, cr0, [r0, #-4]
    1ec4:	00008b30 	andeq	r8, r0, r0, lsr fp
    1ec8:	00000004 	andeq	r0, r0, r4
    1ecc:	0001321e 	andeq	r3, r1, lr, lsl r2
    1ed0:	000f8200 	andeq	r8, pc, r0, lsl #4
    1ed4:	19000000 	stmdbne	r0, {}	; <UNPREDICTABLE>
    1ed8:	00000728 	andeq	r0, r0, r8, lsr #14
    1edc:	00008b50 	andeq	r8, r0, r0, asr fp
    1ee0:	00000034 	andeq	r0, r0, r4, lsr r0
    1ee4:	0a816101 	beq	fe05a2f0 <__bss_end__+0xfe050490>
    1ee8:	4b270000 	blmi	9c1ef0 <__bss_end__+0x9b8090>
    1eec:	1a000007 	bne	1f10 <_start-0x60f0>
    1ef0:	00000742 	andeq	r0, r0, r2, asr #14
    1ef4:	00000f95 	muleq	r0, r5, pc	; <UNPREDICTABLE>
    1ef8:	0007381a 	andeq	r3, r7, sl, lsl r8
    1efc:	000fb500 	andeq	fp, pc, r0, lsl #10
    1f00:	8b501d00 	blhi	1409308 <__bss_end__+0x13ff4a8>
    1f04:	00340000 	eorseq	r0, r4, r0
    1f08:	561e0000 	ldrpl	r0, [lr], -r0
    1f0c:	d3000007 	movwle	r0, #7
    1f10:	2400000f 	strcs	r0, [r0], #-15
    1f14:	00008b54 	andeq	r8, r0, r4, asr fp
    1f18:	0000116f 	andeq	r1, r0, pc, ror #2
    1f1c:	008b6025 	addeq	r6, fp, r5, lsr #32
    1f20:	00117a00 	andseq	r7, r1, r0, lsl #20
    1f24:	000a7600 	andeq	r7, sl, r0, lsl #12
    1f28:	50012000 	andpl	r2, r1, r0
    1f2c:	00007502 	andeq	r7, r0, r2, lsl #10
    1f30:	008b6c24 	addeq	r6, fp, r4, lsr #24
    1f34:	00116f00 	andseq	r6, r1, r0, lsl #30
    1f38:	25000000 	strcs	r0, [r0, #-0]
    1f3c:	00008a54 	andeq	r8, r0, r4, asr sl
    1f40:	0000117a 	andeq	r1, r0, sl, ror r1
    1f44:	00000a95 	muleq	r0, r5, sl
    1f48:	02500120 	subseq	r0, r0, #32, 2
    1f4c:	25000075 	strcs	r0, [r0, #-117]	; 0x75
    1f50:	00008a74 	andeq	r8, r0, r4, ror sl
    1f54:	0000117a 	andeq	r1, r0, sl, ror r1
    1f58:	00000aa9 	andeq	r0, r0, r9, lsr #21
    1f5c:	02500120 	subseq	r0, r0, #32, 2
    1f60:	25000075 	strcs	r0, [r0, #-117]	; 0x75
    1f64:	00008a98 	muleq	r0, r8, sl
    1f68:	0000117a 	andeq	r1, r0, sl, ror r1
    1f6c:	00000abd 			; <UNDEFINED> instruction: 0x00000abd
    1f70:	02500120 	subseq	r0, r0, #32, 2
    1f74:	25000075 	strcs	r0, [r0, #-117]	; 0x75
    1f78:	00008abc 			; <UNDEFINED> instruction: 0x00008abc
    1f7c:	0000117a 	andeq	r1, r0, sl, ror r1
    1f80:	00000ad1 	ldrdeq	r0, [r0], -r1
    1f84:	02500120 	subseq	r0, r0, #32, 2
    1f88:	25000075 	strcs	r0, [r0, #-117]	; 0x75
    1f8c:	00008ae0 	andeq	r8, r0, r0, ror #21
    1f90:	0000117a 	andeq	r1, r0, sl, ror r1
    1f94:	00000ae5 	andeq	r0, r0, r5, ror #21
    1f98:	02500120 	subseq	r0, r0, #32, 2
    1f9c:	25000075 	strcs	r0, [r0, #-117]	; 0x75
    1fa0:	00008b04 	andeq	r8, r0, r4, lsl #22
    1fa4:	0000117a 	andeq	r1, r0, sl, ror r1
    1fa8:	00000af9 	strdeq	r0, [r0], -r9
    1fac:	02500120 	subseq	r0, r0, #32, 2
    1fb0:	25000075 	strcs	r0, [r0, #-117]	; 0x75
    1fb4:	00008b28 	andeq	r8, r0, r8, lsr #22
    1fb8:	0000117a 	andeq	r1, r0, sl, ror r1
    1fbc:	00000b0d 	andeq	r0, r0, sp, lsl #22
    1fc0:	02500120 	subseq	r0, r0, #32, 2
    1fc4:	1f000075 	svcne	0x00000075
    1fc8:	00008b48 	andeq	r8, r0, r8, asr #22
    1fcc:	0000117a 	andeq	r1, r0, sl, ror r1
    1fd0:	02500120 	subseq	r0, r0, #32, 2
    1fd4:	00000075 	andeq	r0, r0, r5, ror r0
    1fd8:	0005d723 	andeq	sp, r5, r3, lsr #14
    1fdc:	256c0100 	strbcs	r0, [ip, #-256]!	; 0x100
    1fe0:	a4000000 	strge	r0, [r0], #-0
    1fe4:	a400008b 	strge	r0, [r0], #-139	; 0x8b
    1fe8:	01000000 	mrseq	r0, (UNDEF: 0)
    1fec:	000c0c9c 	muleq	ip, ip, ip
    1ff0:	00751400 	rsbseq	r1, r5, r0, lsl #8
    1ff4:	07226c01 	streq	r6, [r2, -r1, lsl #24]!
    1ff8:	0ff10000 	svceq	0x00f10000
    1ffc:	62140000 	andsvs	r0, r4, #0
    2000:	01006675 	tsteq	r0, r5, ror r6
    2004:	000c0c6c 	andeq	r0, ip, ip, ror #24
    2008:	00103300 	andseq	r3, r0, r0, lsl #6
    200c:	06781300 	ldrbteq	r1, [r8], -r0, lsl #6
    2010:	6c010000 	stcvs	0, cr0, [r1], {-0}
    2014:	00000068 	andeq	r0, r0, r8, rrx
    2018:	00001075 	andeq	r1, r0, r5, ror r0
    201c:	646e6514 	strbtvs	r6, [lr], #-1300	; 0x514
    2020:	4f6c0100 	svcmi	0x006c0100
    2024:	bc000000 	stclt	0, cr0, [r0], {-0}
    2028:	28000010 	stmdacs	r0, {r4}
    202c:	0000068a 	andeq	r0, r0, sl, lsl #13
    2030:	00686c01 	rsbeq	r6, r8, r1, lsl #24
    2034:	91020000 	mrsls	r0, (UNDEF: 2)
    2038:	03412900 	movteq	r2, #6400	; 0x1900
    203c:	0c220000 	stceq	0, cr0, [r2], #-0
    2040:	03050000 	movweq	r0, #20480	; 0x5000
    2044:	000098fc 	strdeq	r9, [r0], -ip
    2048:	01006916 	tsteq	r0, r6, lsl r9
    204c:	00002570 	andeq	r2, r0, r0, ror r5
    2050:	0010f600 	andseq	pc, r0, r0, lsl #12
    2054:	06562600 	ldrbeq	r2, [r6], -r0, lsl #12
    2058:	71010000 	mrsvc	r0, (UNDEF: 1)
    205c:	0000004f 	andeq	r0, r0, pc, asr #32
    2060:	00001120 	andeq	r1, r0, r0, lsr #2
    2064:	008bc824 	addeq	ip, fp, r4, lsr #16
    2068:	00118f00 	andseq	r8, r1, r0, lsl #30
    206c:	8be42500 	blhi	ff90b474 <__bss_end__+0xff901614>
    2070:	11960000 	orrsne	r0, r6, r0
    2074:	0bec0000 	bleq	ffb0207c <__bss_end__+0xffaf821c>
    2078:	01200000 	teqeq	r0, r0
    207c:	6d080253 	sfmvs	f0, 4, [r8, #-332]	; 0xfffffeb4
    2080:	05520120 	ldrbeq	r0, [r2, #-288]	; 0x120
    2084:	0098fc03 	addseq	pc, r8, r3, lsl #24
    2088:	51012000 	mrspl	r2, (UNDEF: 1)
    208c:	99740305 	ldmdbls	r4!, {r0, r2, r8, r9}^
    2090:	01200000 	teqeq	r0, r0
    2094:	08030550 	stmdaeq	r3, {r4, r6, r8, sl}
    2098:	20000098 	mulcs	r0, r8, r0
    209c:	05007d02 	streq	r7, [r0, #-3330]	; 0xd02
    20a0:	00998803 	addseq	r8, r9, r3, lsl #16
    20a4:	e8240000 	stmda	r4!, {}	; <UNPREDICTABLE>
    20a8:	ac00008b 	stcge	0, cr0, [r0], {139}	; 0x8b
    20ac:	1f000011 	svcne	0x00000011
    20b0:	00008c04 	andeq	r8, r0, r4, lsl #24
    20b4:	00000762 	andeq	r0, r0, r2, ror #14
    20b8:	02510120 	subseq	r0, r1, #32, 2
    20bc:	0120007a 	teqeq	r0, sl, ror r0
    20c0:	00780250 	rsbseq	r0, r8, r0, asr r2
    20c4:	04060000 	streq	r0, [r6], #-0
    20c8:	0000004f 	andeq	r0, r0, pc, asr #32
    20cc:	0000902a 	andeq	r9, r0, sl, lsr #32
    20d0:	000c2200 	andeq	r2, ip, r0, lsl #4
    20d4:	00812b00 	addeq	r2, r1, r0, lsl #22
    20d8:	00120000 	andseq	r0, r2, r0
    20dc:	000c1207 	andeq	r1, ip, r7, lsl #4
    20e0:	065e2300 	ldrbeq	r2, [lr], -r0, lsl #6
    20e4:	80010000 	andhi	r0, r1, r0
    20e8:	00000025 	andeq	r0, r0, r5, lsr #32
    20ec:	00008c48 	andeq	r8, r0, r8, asr #24
    20f0:	00000090 	muleq	r0, r0, r0
    20f4:	0cf89c01 	ldcleq	12, cr9, [r8], #4
    20f8:	75140000 	ldrvc	r0, [r4, #-0]
    20fc:	22800100 	addcs	r0, r0, #0, 2
    2100:	33000007 	movwcc	r0, #7
    2104:	14000011 	strne	r0, [r0], #-17
    2108:	00667562 	rsbeq	r7, r6, r2, ror #10
    210c:	0c0c8001 	stceq	0, cr8, [ip], {1}
    2110:	11750000 	cmnne	r5, r0
    2114:	78130000 	ldmdavc	r3, {}	; <UNPREDICTABLE>
    2118:	01000006 	tsteq	r0, r6
    211c:	00006881 	andeq	r6, r0, r1, lsl #17
    2120:	0011b700 	andseq	fp, r1, r0, lsl #14
    2124:	068a1300 	streq	r1, [sl], r0, lsl #6
    2128:	81010000 	mrshi	r0, (UNDEF: 1)
    212c:	00000068 	andeq	r0, r0, r8, rrx
    2130:	000011fe 	strdeq	r1, [r0], -lr
    2134:	00034129 	andeq	r4, r3, r9, lsr #2
    2138:	000d0800 	andeq	r0, sp, r0, lsl #16
    213c:	10030500 	andne	r0, r3, r0, lsl #10
    2140:	16000099 			; <UNDEFINED> instruction: 0x16000099
    2144:	86010069 	strhi	r0, [r1], -r9, rrx
    2148:	00000025 	andeq	r0, r0, r5, lsr #32
    214c:	00001240 	andeq	r1, r0, r0, asr #4
    2150:	008c6824 	addeq	r6, ip, r4, lsr #16
    2154:	00118f00 	andseq	r8, r1, r0, lsl #30
    2158:	8c842500 	cfstr32hi	mvfx2, [r4], {0}
    215c:	11960000 	orrsne	r0, r6, r0
    2160:	0cd80000 	ldcleq	0, cr0, [r8], {0}
    2164:	01200000 	teqeq	r0, r0
    2168:	83080253 	movwhi	r0, #33363	; 0x8253
    216c:	05520120 	ldrbeq	r0, [r2, #-288]	; 0x120
    2170:	00991003 	addseq	r1, r9, r3
    2174:	51012000 	mrspl	r2, (UNDEF: 1)
    2178:	99740305 	ldmdbls	r4!, {r0, r2, r8, r9}^
    217c:	01200000 	teqeq	r0, r0
    2180:	08030550 	stmdaeq	r3, {r4, r6, r8, sl}
    2184:	20000098 	mulcs	r0, r8, r0
    2188:	05007d02 	streq	r7, [r0, #-3330]	; 0xd02
    218c:	00998803 	addseq	r8, r9, r3, lsl #16
    2190:	88240000 	stmdahi	r4!, {}	; <UNPREDICTABLE>
    2194:	ac00008c 	stcge	0, cr0, [r0], {140}	; 0x8c
    2198:	1f000011 	svcne	0x00000011
    219c:	00008ca4 	andeq	r8, r0, r4, lsr #25
    21a0:	00000762 	andeq	r0, r0, r2, ror #14
    21a4:	02510120 	subseq	r0, r1, #32, 2
    21a8:	01200078 	teqeq	r0, r8, ror r0
    21ac:	00770250 	rsbseq	r0, r7, r0, asr r2
    21b0:	902a0000 	eorls	r0, sl, r0
    21b4:	08000000 	stmdaeq	r0, {}	; <UNPREDICTABLE>
    21b8:	2b00000d 	blcs	21f4 <_start-0x5e0c>
    21bc:	00000081 	andeq	r0, r0, r1, lsl #1
    21c0:	f8070014 			; <UNDEFINED> instruction: 0xf8070014
    21c4:	2300000c 	movwcs	r0, #12
    21c8:	0000060d 	andeq	r0, r0, sp, lsl #12
    21cc:	00d99301 	sbcseq	r9, r9, r1, lsl #6
    21d0:	8cd80000 	ldclhi	0, cr0, [r8], {0}
    21d4:	00d40000 	sbcseq	r0, r4, r0
    21d8:	9c010000 	stcls	0, cr0, [r1], {-0}
    21dc:	00000e32 	andeq	r0, r0, r2, lsr lr
    21e0:	00787414 	rsbseq	r7, r8, r4, lsl r4
    21e4:	004f9301 	subeq	r9, pc, r1, lsl #6
    21e8:	126a0000 	rsbne	r0, sl, #0
    21ec:	72140000 	andsvc	r0, r4, #0
    21f0:	93010078 	movwls	r0, #4216	; 0x1078
    21f4:	0000004f 	andeq	r0, r0, pc, asr #32
    21f8:	0000128b 	andeq	r1, r0, fp, lsl #5
    21fc:	00044d13 	andeq	r4, r4, r3, lsl sp
    2200:	68930100 	ldmvs	r3, {r8}
    2204:	ac000000 	stcge	0, cr0, [r0], {-0}
    2208:	28000012 	stmdacs	r0, {r1, r4}
    220c:	000005a6 	andeq	r0, r0, r6, lsr #11
    2210:	00689301 	rsbeq	r9, r8, r1, lsl #6
    2214:	91020000 	mrsls	r0, (UNDEF: 2)
    2218:	686d2c00 	stmdavs	sp!, {sl, fp, sp}^
    221c:	9b01007a 	blls	4240c <__bss_end__+0x385ac>
    2220:	0000002c 	andeq	r0, r0, ip, lsr #32
    2224:	29b92700 	ldmibcs	r9!, {r8, r9, sl, sp}
    2228:	0005f726 	andeq	pc, r5, r6, lsr #14
    222c:	2c9c0100 	ldfcss	f0, [ip], {0}
    2230:	d6000000 	strle	r0, [r0], -r0
    2234:	29000012 	stmdbcs	r0, {r1, r4}
    2238:	00000341 	andeq	r0, r0, r1, asr #6
    223c:	00000e42 	andeq	r0, r0, r2, asr #28
    2240:	99280305 	stmdbls	r8!, {r0, r2, r8, r9}
    2244:	04170000 	ldreq	r0, [r7], #-0
    2248:	0800008d 	stmdaeq	r0, {r0, r2, r3, r7}
    224c:	a5000000 	strge	r0, [r0, #-0]
    2250:	2d00000d 	stccs	0, cr0, [r0, #-52]	; 0xffffffcc
    2254:	01006e69 	tsteq	r0, r9, ror #28
    2258:	00002c97 	muleq	r0, r7, ip
    225c:	25000100 	strcs	r0, [r0, #-256]	; 0x100
    2260:	00008cfc 	strdeq	r8, [r0], -ip
    2264:	000011b3 			; <UNDEFINED> instruction: 0x000011b3
    2268:	00000db9 			; <UNDEFINED> instruction: 0x00000db9
    226c:	02500120 	subseq	r0, r0, #32, 2
    2270:	25000076 	strcs	r0, [r0, #-118]	; 0x76
    2274:	00008d04 	andeq	r8, r0, r4, lsl #26
    2278:	000011c4 	andeq	r1, r0, r4, asr #3
    227c:	00000dcd 	andeq	r0, r0, sp, asr #27
    2280:	02500120 	subseq	r0, r0, #32, 2
    2284:	25000078 	strcs	r0, [r0, #-120]	; 0x78
    2288:	00008d18 	andeq	r8, r0, r8, lsl sp
    228c:	00001159 	andeq	r1, r0, r9, asr r1
    2290:	00000de6 	andeq	r0, r0, r6, ror #27
    2294:	01510120 	cmpeq	r1, r0, lsr #2
    2298:	50012031 	andpl	r2, r1, r1, lsr r0
    229c:	00007602 	andeq	r7, r0, r2, lsl #12
    22a0:	008d5c24 	addeq	r5, sp, r4, lsr #24
    22a4:	00118f00 	andseq	r8, r1, r0, lsl #30
    22a8:	8d782500 	cfldr64hi	mvdx2, [r8, #-0]
    22ac:	11960000 	orrsne	r0, r6, r0
    22b0:	0e280000 	cdpeq	0, 2, cr0, cr8, cr0, {0}
    22b4:	01200000 	teqeq	r0, r0
    22b8:	9d080253 	sfmls	f0, 4, [r8, #-332]	; 0xfffffeb4
    22bc:	05520120 	ldrbeq	r0, [r2, #-288]	; 0x120
    22c0:	00992803 	addseq	r2, r9, r3, lsl #16
    22c4:	51012000 	mrspl	r2, (UNDEF: 1)
    22c8:	99740305 	ldmdbls	r4!, {r0, r2, r8, r9}^
    22cc:	01200000 	teqeq	r0, r0
    22d0:	08030550 	stmdaeq	r3, {r4, r6, r8, sl}
    22d4:	20000098 	mulcs	r0, r8, r0
    22d8:	05007d02 	streq	r7, [r0, #-3330]	; 0xd02
    22dc:	00999403 	addseq	r9, r9, r3, lsl #8
    22e0:	7c240000 	stcvc	0, cr0, [r4], #-0
    22e4:	ac00008d 	stcge	0, cr0, [r0], {141}	; 0x8d
    22e8:	00000011 	andeq	r0, r0, r1, lsl r0
    22ec:	0000902a 	andeq	r9, r0, sl, lsr #32
    22f0:	000e4200 	andeq	r4, lr, r0, lsl #4
    22f4:	00812b00 	addeq	r2, r1, r0, lsl #22
    22f8:	00130000 	andseq	r0, r3, r0
    22fc:	000e3207 	andeq	r3, lr, r7, lsl #4
    2300:	05ea2300 	strbeq	r2, [sl, #768]!	; 0x300
    2304:	a9010000 	stmdbge	r1, {}	; <UNPREDICTABLE>
    2308:	00000025 	andeq	r0, r0, r5, lsr #32
    230c:	00008dac 	andeq	r8, r0, ip, lsr #27
    2310:	0000003c 	andeq	r0, r0, ip, lsr r0
    2314:	0eea9c01 	cdpeq	12, 14, cr9, cr10, cr1, {0}
    2318:	14130000 	ldrne	r0, [r3], #-0
    231c:	01000004 	tsteq	r0, r4
    2320:	000722a9 	andeq	r2, r7, r9, lsr #5
    2324:	00130400 	andseq	r0, r3, r0, lsl #8
    2328:	65721600 	ldrbvs	r1, [r2, #-1536]!	; 0x600
    232c:	aa010073 	bge	42500 <__bss_end__+0x386a0>
    2330:	00000025 	andeq	r0, r0, r5, lsr #32
    2334:	00001325 	andeq	r1, r0, r5, lsr #6
    2338:	00034129 	andeq	r4, r3, r9, lsr #2
    233c:	000efa00 	andeq	pc, lr, r0, lsl #20
    2340:	3c030500 	cfstr32cc	mvfx0, [r3], {-0}
    2344:	25000099 	strcs	r0, [r0, #-153]	; 0x99
    2348:	00008db8 			; <UNDEFINED> instruction: 0x00008db8
    234c:	00000762 	andeq	r0, r0, r2, ror #14
    2350:	00000ea8 	andeq	r0, r0, r8, lsr #29
    2354:	02510120 	subseq	r0, r1, #32, 2
    2358:	0120ff09 	msreq	LR_irq, r9
    235c:	01f30350 	mvnseq	r0, r0, asr r3
    2360:	c4240050 	strtgt	r0, [r4], #-80	; 0x50
    2364:	8f00008d 	svchi	0x0000008d
    2368:	25000011 	strcs	r0, [r0, #-17]
    236c:	00008dd8 	ldrdeq	r8, [r0], -r8	; <UNPREDICTABLE>
    2370:	00001196 	muleq	r0, r6, r1
    2374:	00000ee0 	andeq	r0, r0, r0, ror #29
    2378:	02530120 	subseq	r0, r3, #32, 2
    237c:	0120ac08 	teqeq	r0, r8, lsl #24
    2380:	3c030552 	cfstr32cc	mvfx0, [r3], {82}	; 0x52
    2384:	20000099 	mulcs	r0, r9, r0
    2388:	03055101 	movweq	r5, #20737	; 0x5101
    238c:	00009974 	andeq	r9, r0, r4, ror r9
    2390:	05500120 	ldrbeq	r0, [r0, #-288]	; 0x120
    2394:	0099c803 	addseq	ip, r9, r3, lsl #16
    2398:	dc240000 	stcle	0, cr0, [r4], #-0
    239c:	ac00008d 	stcge	0, cr0, [r0], {141}	; 0x8d
    23a0:	00000011 	andeq	r0, r0, r1, lsl r0
    23a4:	0000902a 	andeq	r9, r0, sl, lsr #32
    23a8:	000efa00 	andeq	pc, lr, r0, lsl #20
    23ac:	00812b00 	addeq	r2, r1, r0, lsl #22
    23b0:	000c0000 	andeq	r0, ip, r0
    23b4:	000eea07 	andeq	lr, lr, r7, lsl #20
    23b8:	062e1200 	strteq	r1, [lr], -r0, lsl #4
    23bc:	b0010000 	andlt	r0, r1, r0
    23c0:	00008de8 	andeq	r8, r0, r8, ror #27
    23c4:	0000002c 	andeq	r0, r0, ip, lsr #32
    23c8:	0f439c01 	svceq	0x00439c01
    23cc:	14130000 	ldrne	r0, [r3], #-0
    23d0:	01000004 	tsteq	r0, r4
    23d4:	000722b0 			; <UNDEFINED> instruction: 0x000722b0
    23d8:	00133800 	andseq	r3, r3, r0, lsl #16
    23dc:	736d1400 	cmnvc	sp, #0, 8
    23e0:	b0010067 	andlt	r0, r1, r7, rrx
    23e4:	00000097 	muleq	r0, r7, r0
    23e8:	00001356 	andeq	r1, r0, r6, asr r3
    23ec:	008e001f 	addeq	r0, lr, pc, lsl r0
    23f0:	00017600 	andeq	r7, r1, r0, lsl #12
    23f4:	50012000 	andpl	r2, r1, r0
    23f8:	00007502 	andeq	r7, r0, r2, lsl #10
    23fc:	04192300 	ldreq	r2, [r9], #-768	; 0x300
    2400:	b9010000 	stmdblt	r1, {}	; <UNPREDICTABLE>
    2404:	00000025 	andeq	r0, r0, r5, lsr #32
    2408:	00008e14 	andeq	r8, r0, r4, lsl lr
    240c:	00000090 	muleq	r0, r0, r0
    2410:	10419c01 	subne	r9, r1, r1, lsl #24
    2414:	14130000 	ldrne	r0, [r3], #-0
    2418:	01000004 	tsteq	r0, r4
    241c:	000722b9 			; <UNDEFINED> instruction: 0x000722b9
    2420:	00137400 	andseq	r7, r3, r0, lsl #8
    2424:	6d662e00 	stclvs	14, cr2, [r6, #-0]
    2428:	b9010074 	stmdblt	r1, {r2, r4, r5, r6}
    242c:	00000097 	muleq	r0, r7, r0
    2430:	2f749102 	svccs	0x00749102
    2434:	66756215 			; <UNDEFINED> instruction: 0x66756215
    2438:	41ba0100 			; <UNDEFINED> instruction: 0x41ba0100
    243c:	03000010 	movweq	r0, #16
    2440:	187c9c91 	ldmdane	ip!, {r0, r4, r7, sl, fp, ip, pc}^
    2444:	000002fb 	strdeq	r0, [r0], -fp
    2448:	0106bc01 	tsteq	r6, r1, lsl #24
    244c:	91030000 	mrsls	r0, (UNDEF: 3)
    2450:	73167c98 	tstvc	r6, #152, 24	; 0x9800
    2454:	be01007a 	mcrlt	0, 0, r0, cr1, cr10, {3}
    2458:	00000025 	andeq	r0, r0, r5, lsr #32
    245c:	000013a0 	andeq	r1, r0, r0, lsr #7
    2460:	00034129 	andeq	r4, r3, r9, lsr #2
    2464:	00106200 	andseq	r6, r0, r0, lsl #4
    2468:	4c030500 	cfstr32mi	mvfx0, [r3], {-0}
    246c:	25000099 	strcs	r0, [r0, #-153]	; 0x99
    2470:	00008e3c 	andeq	r8, r0, ip, lsr lr
    2474:	000011d5 	ldrdeq	r1, [r0], -r5
    2478:	00000fde 	ldrdeq	r0, [r0], -lr
    247c:	02530120 	subseq	r0, r3, #32, 2
    2480:	01205891 			; <UNDEFINED> instruction: 0x01205891
    2484:	54910352 	ldrpl	r0, [r1], #850	; 0x352
    2488:	51012006 	tstpl	r1, r6
    248c:	01cc0a03 	biceq	r0, ip, r3, lsl #20
    2490:	03500120 	cmpeq	r0, #32, 2
    2494:	007bfc91 			; <UNDEFINED> instruction: 0x007bfc91
    2498:	008e5024 	addeq	r5, lr, r4, lsr #32
    249c:	00118f00 	andseq	r8, r1, r0, lsl #30
    24a0:	8e6c2500 	cdphi	5, 6, cr2, cr12, cr0, {0}
    24a4:	11960000 	orrsne	r0, r6, r0
    24a8:	10200000 	eorne	r0, r0, r0
    24ac:	01200000 	teqeq	r0, r0
    24b0:	c0080253 	andgt	r0, r8, r3, asr r2
    24b4:	05520120 	ldrbeq	r0, [r2, #-288]	; 0x120
    24b8:	00994c03 	addseq	r4, r9, r3, lsl #24
    24bc:	51012000 	mrspl	r2, (UNDEF: 1)
    24c0:	99740305 	ldmdbls	r4!, {r0, r2, r8, r9}^
    24c4:	01200000 	teqeq	r0, r0
    24c8:	08030550 	stmdaeq	r3, {r4, r6, r8, sl}
    24cc:	20000098 	mulcs	r0, r8, r0
    24d0:	05007d02 	streq	r7, [r0, #-3330]	; 0xd02
    24d4:	009a0003 	addseq	r0, sl, r3
    24d8:	70240000 	eorvc	r0, r4, r0
    24dc:	ac00008e 	stcge	0, cr0, [r0], {142}	; 0x8e
    24e0:	1f000011 	svcne	0x00000011
    24e4:	00008e7c 	andeq	r8, r0, ip, ror lr
    24e8:	00000eff 	strdeq	r0, [r0], -pc	; <UNPREDICTABLE>
    24ec:	03510120 	cmpeq	r1, #32, 2
    24f0:	207bfc91 			; <UNDEFINED> instruction: 0x207bfc91
    24f4:	75025001 	strvc	r5, [r2, #-1]
    24f8:	2a000000 	bcs	2500 <_start-0x5b00>
    24fc:	00000090 	muleq	r0, r0, r0
    2500:	00001052 	andeq	r1, r0, r2, asr r0
    2504:	00008130 	andeq	r8, r0, r0, lsr r1
    2508:	0001cb00 	andeq	ip, r1, r0, lsl #22
    250c:	0000902a 	andeq	r9, r0, sl, lsr #32
    2510:	00106200 	andseq	r6, r0, r0, lsl #4
    2514:	00812b00 	addeq	r2, r1, r0, lsl #22
    2518:	000e0000 	andeq	r0, lr, r0
    251c:	00105207 	andseq	r5, r0, r7, lsl #4
    2520:	06a62300 	strteq	r2, [r6], r0, lsl #6
    2524:	c5010000 	strgt	r0, [r1, #-0]
    2528:	00000025 	andeq	r0, r0, r5, lsr #32
    252c:	00008ea4 	andeq	r8, r0, r4, lsr #29
    2530:	0000004c 	andeq	r0, r0, ip, asr #32
    2534:	11449c01 	cmpne	r4, r1, lsl #24
    2538:	75140000 	ldrvc	r0, [r4, #-0]
    253c:	22c50100 	sbccs	r0, r5, #0, 2
    2540:	df000007 	svcle	0x00000007
    2544:	14000013 	strne	r0, [r0], #-19
    2548:	00667562 	rsbeq	r7, r6, r2, ror #10
    254c:	0c0cc501 	cfstr32eq	mvfx12, [ip], {1}
    2550:	14000000 	strne	r0, [r0], #-0
    2554:	78130000 	ldmdavc	r3, {}	; <UNPREDICTABLE>
    2558:	01000006 	tsteq	r0, r6
    255c:	000068c5 	andeq	r6, r0, r5, asr #17
    2560:	00142100 	andseq	r2, r4, r0, lsl #2
    2564:	6e651400 	cdpvs	4, 6, cr1, cr5, cr0, {0}
    2568:	c5010064 	strgt	r0, [r1, #-100]	; 0x64
    256c:	0000004f 	andeq	r0, r0, pc, asr #32
    2570:	00001442 	andeq	r1, r0, r2, asr #8
    2574:	73657216 	cmnvc	r5, #1610612737	; 0x60000001
    2578:	25c60100 	strbcs	r0, [r6, #256]	; 0x100
    257c:	63000000 	movwvs	r0, #0
    2580:	29000014 	stmdbcs	r0, {r2, r4}
    2584:	00000341 	andeq	r0, r0, r1, asr #6
    2588:	00001154 	andeq	r1, r0, r4, asr r1
    258c:	995c0305 	ldmdbls	ip, {r0, r2, r8, r9}^
    2590:	b8250000 	stmdalt	r5!, {}	; <UNPREDICTABLE>
    2594:	1e00008e 	cdpne	0, 0, cr0, cr0, cr14, {4}
    2598:	0200000b 	andeq	r0, r0, #11
    259c:	20000011 	andcs	r0, r0, r1, lsl r0
    25a0:	f3035201 	vhsub.u8	d5, d3, d1
    25a4:	01205201 	teqeq	r0, r1, lsl #4
    25a8:	01f30351 	mvnseq	r0, r1, asr r3
    25ac:	50012051 	andpl	r2, r1, r1, asr r0
    25b0:	5001f303 	andpl	pc, r1, r3, lsl #6
    25b4:	007d0220 	rsbseq	r0, sp, r0, lsr #4
    25b8:	00ff0902 	rscseq	r0, pc, r2, lsl #18
    25bc:	008ec424 	addeq	ip, lr, r4, lsr #8
    25c0:	00118f00 	andseq	r8, r1, r0, lsl #30
    25c4:	8ed82500 	cdphi	5, 13, cr2, cr8, cr0, {0}
    25c8:	11960000 	orrsne	r0, r6, r0
    25cc:	113a0000 	teqne	sl, r0
    25d0:	01200000 	teqeq	r0, r0
    25d4:	c8080253 	stmdagt	r8, {r0, r1, r4, r6, r9}
    25d8:	05520120 	ldrbeq	r0, [r2, #-288]	; 0x120
    25dc:	00995c03 	addseq	r5, r9, r3, lsl #24
    25e0:	51012000 	mrspl	r2, (UNDEF: 1)
    25e4:	99740305 	ldmdbls	r4!, {r0, r2, r8, r9}^
    25e8:	01200000 	teqeq	r0, r0
    25ec:	c8030550 	stmdagt	r3, {r4, r6, r8, sl}
    25f0:	00000099 	muleq	r0, r9, r0
    25f4:	008edc24 	addeq	sp, lr, r4, lsr #24
    25f8:	0011ac00 	andseq	sl, r1, r0, lsl #24
    25fc:	902a0000 	eorls	r0, sl, r0
    2600:	54000000 	strpl	r0, [r0], #-0
    2604:	2b000011 	blcs	2650 <_start-0x59b0>
    2608:	00000081 	andeq	r0, r0, r1, lsl #1
    260c:	44070016 	strmi	r0, [r7], #-22
    2610:	31000011 	tstcc	r0, r1, lsl r0
    2614:	0000067f 	andeq	r0, r0, pc, ror r6
    2618:	116f2106 	cmnne	pc, r6, lsl #2
    261c:	2c320000 	ldccs	0, cr0, [r2], #-0
    2620:	32000000 	andcc	r0, r0, #0
    2624:	0000002c 	andeq	r0, r0, ip, lsr #32
    2628:	05453300 	strbeq	r3, [r5, #-768]	; 0x300
    262c:	57070000 	strpl	r0, [r7, -r0]
    2630:	0000002c 	andeq	r0, r0, ip, lsr #32
    2634:	00063b34 	andeq	r3, r6, r4, lsr fp
    2638:	25240600 	strcs	r0, [r4, #-1536]!	; 0x600
    263c:	8f000000 	svchi	0x00000000
    2640:	32000011 	andcc	r0, r0, #17
    2644:	0000002c 	andeq	r0, r0, ip, lsr #32
    2648:	03923500 	orrseq	r3, r2, #0, 10
    264c:	1e070000 	cdpne	0, 0, cr0, cr7, cr0, {0}
    2650:	0002a634 	andeq	sl, r2, r4, lsr r6
    2654:	25290700 	strcs	r0, [r9, #-1792]!	; 0x700
    2658:	ac000000 	stcge	0, cr0, [r0], {-0}
    265c:	32000011 	andcc	r0, r0, #17
    2660:	00000097 	muleq	r0, r7, r0
    2664:	c235002f 	eorsgt	r0, r5, #47	; 0x2f
    2668:	07000000 	streq	r0, [r0, -r0]
    266c:	06bd3166 	ldrteq	r3, [sp], r6, ror #2
    2670:	1d060000 	stcne	0, cr0, [r6, #-0]
    2674:	000011c4 	andeq	r1, r0, r4, asr #3
    2678:	00002c32 	andeq	r2, r0, r2, lsr ip
    267c:	97310000 	ldrls	r0, [r1, -r0]!
    2680:	06000006 	streq	r0, [r0], -r6
    2684:	0011d51c 	andseq	sp, r1, ip, lsl r5
    2688:	002c3200 	eoreq	r3, ip, r0, lsl #4
    268c:	36000000 	strcc	r0, [r0], -r0
    2690:	000002a3 	andeq	r0, r0, r3, lsr #5
    2694:	00250208 	eoreq	r0, r5, r8, lsl #4
    2698:	8a320000 	bhi	c826a0 <__bss_end__+0xc78840>
    269c:	32000000 	andcc	r0, r0, #0
    26a0:	00000025 	andeq	r0, r0, r5, lsr #32
    26a4:	00009732 	andeq	r9, r0, r2, lsr r7
    26a8:	01063200 	mrseq	r3, LR_usr
    26ac:	00000000 	andeq	r0, r0, r0
    26b0:	00000821 	andeq	r0, r0, r1, lsr #16
    26b4:	0c890004 	stceq	0, cr0, [r9], {4}
    26b8:	01040000 	mrseq	r0, (UNDEF: 4)
    26bc:	000001cc 	andeq	r0, r0, ip, asr #3
    26c0:	00073d01 	andeq	r3, r7, r1, lsl #26
    26c4:	0002b700 	andeq	fp, r2, r0, lsl #14
    26c8:	008f3c00 	addeq	r3, pc, r0, lsl #24
    26cc:	00056800 	andeq	r6, r5, r0, lsl #16
    26d0:	000afb00 	andeq	pc, sl, r0, lsl #22
    26d4:	07080200 	streq	r0, [r8, -r0, lsl #4]
    26d8:	0000000f 	andeq	r0, r0, pc
    26dc:	19070402 	stmdbne	r7, {r1, sl}
    26e0:	02000000 	andeq	r0, r0, #0
    26e4:	019f0601 	orrseq	r0, pc, r1, lsl #12
    26e8:	02020000 	andeq	r0, r2, #0
    26ec:	0001ab05 	andeq	sl, r1, r5, lsl #22
    26f0:	05040200 	streq	r0, [r4, #-512]	; 0x200
    26f4:	00000032 	andeq	r0, r0, r2, lsr r0
    26f8:	2d050802 	stccs	8, cr0, [r5, #-8]
    26fc:	02000000 	andeq	r0, r0, #0
    2700:	019d0801 	orrseq	r0, sp, r1, lsl #16
    2704:	02020000 	andeq	r0, r2, #0
    2708:	00008d07 	andeq	r8, r0, r7, lsl #26
    270c:	07040200 	streq	r0, [r4, -r0, lsl #4]
    2710:	00000014 	andeq	r0, r0, r4, lsl r0
    2714:	69050403 	stmdbvs	r5, {r0, r1, sl}
    2718:	0200746e 	andeq	r7, r0, #1845493760	; 0x6e000000
    271c:	00cf0704 	sbceq	r0, pc, r4, lsl #14
    2720:	01020000 	mrseq	r0, (UNDEF: 2)
    2724:	0001a608 	andeq	sl, r1, r8, lsl #12
    2728:	02010400 	andeq	r0, r1, #0, 8
    272c:	0000b20c 	andeq	fp, r0, ip, lsl #4
    2730:	07200500 	streq	r0, [r0, -r0, lsl #10]!
    2734:	05000000 	streq	r0, [r0, #-0]
    2738:	00000869 	andeq	r0, r0, r9, ror #16
    273c:	08a20501 	stmiaeq	r2!, {r0, r8, sl}
    2740:	05040000 	streq	r0, [r4, #-0]
    2744:	000008b1 			; <UNDEFINED> instruction: 0x000008b1
    2748:	08c00505 	stmiaeq	r0, {r0, r2, r8, sl}^
    274c:	05060000 	streq	r0, [r6, #-0]
    2750:	000008cf 	andeq	r0, r0, pc, asr #17
    2754:	08de0507 	ldmeq	lr, {r0, r1, r2, r8, sl}^
    2758:	05030000 	streq	r0, [r3, #-0]
    275c:	000008ed 	andeq	r0, r0, sp, ror #17
    2760:	96060002 	strls	r0, [r6], -r2
    2764:	02000008 	andeq	r0, r0, #8
    2768:	00007915 	andeq	r7, r0, r5, lsl r9
    276c:	06bd0700 	ldrteq	r0, [sp], r0, lsl #14
    2770:	3f010000 	svccc	0x00010000
    2774:	00008f3c 	andeq	r8, r0, ip, lsr pc
    2778:	000000d4 	ldrdeq	r0, [r0], -r4
    277c:	01339c01 	teqeq	r3, r1, lsl #24
    2780:	70080000 	andvc	r0, r8, r0
    2784:	01006e69 	tsteq	r0, r9, ror #28
    2788:	00002c3f 	andeq	r2, r0, pc, lsr ip
    278c:	00148100 	andseq	r8, r4, r0, lsl #2
    2790:	07790900 	ldrbeq	r0, [r9, -r0, lsl #18]!
    2794:	47010000 	strmi	r0, [r1, -r0]
    2798:	00000133 	andeq	r0, r0, r3, lsr r1
    279c:	0000149f 	muleq	r0, pc, r4	; <UNPREDICTABLE>
    27a0:	0008fc09 	andeq	pc, r8, r9, lsl #24
    27a4:	2c490100 	stfcse	f0, [r9], {-0}
    27a8:	f4000000 	vst4.8	{d0-d3}, [r0], r0
    27ac:	09000014 	stmdbeq	r0, {r2, r4}
    27b0:	0000082a 	andeq	r0, r0, sl, lsr #16
    27b4:	002c5701 	eoreq	r5, ip, r1, lsl #14
    27b8:	16c00000 	strbne	r0, [r0], r0
    27bc:	d00a0000 	andle	r0, sl, r0
    27c0:	e000008f 	and	r0, r0, pc, lsl #1
    27c4:	22000007 	andcs	r0, r0, #7
    27c8:	0b000001 	bleq	27d4 <_start-0x582c>
    27cc:	75025001 	strvc	r5, [r2, #-1]
    27d0:	040c0000 	streq	r0, [ip], #-0
    27d4:	01000090 	swpeq	r0, r0, [r0]	; <UNPREDICTABLE>
    27d8:	0b000008 	bleq	2800 <_start-0x5800>
    27dc:	75025001 	strvc	r5, [r2, #-1]
    27e0:	0d000000 	stceq	0, cr0, [r0, #-0]
    27e4:	00013904 	andeq	r3, r1, r4, lsl #18
    27e8:	002c0e00 	eoreq	r0, ip, r0, lsl #28
    27ec:	4f070000 	svcmi	0x00070000
    27f0:	01000008 	tsteq	r0, r8
    27f4:	00901060 	addseq	r1, r0, r0, rrx
    27f8:	00003800 	andeq	r3, r0, r0, lsl #16
    27fc:	969c0100 	ldrls	r0, [ip], r0, lsl #2
    2800:	08000001 	stmdaeq	r0, {r0}
    2804:	006e6970 	rsbeq	r6, lr, r0, ror r9
    2808:	002c6001 	eoreq	r6, ip, r1
    280c:	16f00000 	ldrbtne	r0, [r0], r0
    2810:	79090000 	stmdbvc	r9, {}	; <UNPREDICTABLE>
    2814:	01000007 	tsteq	r0, r7
    2818:	00013367 	andeq	r3, r1, r7, ror #6
    281c:	00171100 	andseq	r1, r7, r0, lsl #2
    2820:	082a0900 	stmdaeq	sl!, {r8, fp}
    2824:	68010000 	stmdavs	r1, {}	; <UNPREDICTABLE>
    2828:	0000002c 	andeq	r0, r0, ip, lsr #32
    282c:	00001747 	andeq	r1, r0, r7, asr #14
    2830:	0090400c 	addseq	r4, r0, ip
    2834:	00080100 	andeq	r0, r8, r0, lsl #2
    2838:	51010b00 	tstpl	r1, r0, lsl #22
    283c:	01f33107 	mvnseq	r3, r7, lsl #2
    2840:	241a4f50 	ldrcs	r4, [sl], #-3920	; 0xf50
    2844:	30070000 	andcc	r0, r7, r0
    2848:	01000007 	tsteq	r0, r7
    284c:	0090487b 	addseq	r4, r0, fp, ror r8
    2850:	00003800 	andeq	r3, r0, r0, lsl #16
    2854:	ee9c0100 	fmle	f0, f4, f0
    2858:	08000001 	stmdaeq	r0, {r0}
    285c:	006e6970 	rsbeq	r6, lr, r0, ror r9
    2860:	002c7b01 	eoreq	r7, ip, r1, lsl #22
    2864:	17870000 	strne	r0, [r7, r0]
    2868:	79090000 	stmdbvc	r9, {}	; <UNPREDICTABLE>
    286c:	01000007 	tsteq	r0, r7
    2870:	00013381 	andeq	r3, r1, r1, lsl #7
    2874:	0017a800 	andseq	sl, r7, r0, lsl #16
    2878:	082a0900 	stmdaeq	sl!, {r8, fp}
    287c:	82010000 	andhi	r0, r1, #0
    2880:	0000002c 	andeq	r0, r0, ip, lsr #32
    2884:	000017de 	ldrdeq	r1, [r0], -lr
    2888:	0090780c 	addseq	r7, r0, ip, lsl #16
    288c:	00080100 	andeq	r0, r8, r0, lsl #2
    2890:	51010b00 	tstpl	r1, r0, lsl #22
    2894:	01f33107 	mvnseq	r3, r7, lsl #2
    2898:	241a4f50 	ldrcs	r4, [sl], #-3920	; 0xf50
    289c:	97070000 	strls	r0, [r7, -r0]
    28a0:	01000006 	tsteq	r0, r6
    28a4:	00908095 	umullseq	r8, r0, r5, r0
    28a8:	0000cc00 	andeq	ip, r0, r0, lsl #24
    28ac:	649c0100 	ldrvs	r0, [ip], #256	; 0x100
    28b0:	08000002 	stmdaeq	r0, {r1}
    28b4:	006e6970 	rsbeq	r6, lr, r0, ror r9
    28b8:	002c9501 	eoreq	r9, ip, r1, lsl #10
    28bc:	181e0000 	ldmdane	lr, {}	; <UNPREDICTABLE>
    28c0:	79090000 	stmdbvc	r9, {}	; <UNPREDICTABLE>
    28c4:	01000007 	tsteq	r0, r7
    28c8:	0001339b 	muleq	r1, fp, r3
    28cc:	00183c00 	andseq	r3, r8, r0, lsl #24
    28d0:	08fc0900 	ldmeq	ip!, {r8, fp}^
    28d4:	9d010000 	stcls	0, cr0, [r1, #-0]
    28d8:	0000002c 	andeq	r0, r0, ip, lsr #32
    28dc:	00001891 	muleq	r0, r1, r8
    28e0:	00082a09 	andeq	r2, r8, r9, lsl #20
    28e4:	2cab0100 	stfcss	f0, [fp]
    28e8:	5d000000 	stcpl	0, cr0, [r0, #-0]
    28ec:	0a00001a 	beq	295c <_start-0x56a4>
    28f0:	00009114 	andeq	r9, r0, r4, lsl r1
    28f4:	000007e0 	andeq	r0, r0, r0, ror #15
    28f8:	00000253 	andeq	r0, r0, r3, asr r2
    28fc:	0250010b 	subseq	r0, r0, #-1073741822	; 0xc0000002
    2900:	0c000075 	stceq	0, cr0, [r0], {117}	; 0x75
    2904:	00009140 	andeq	r9, r0, r0, asr #2
    2908:	00000801 	andeq	r0, r0, r1, lsl #16
    290c:	0250010b 	subseq	r0, r0, #-1073741822	; 0xc0000002
    2910:	00000075 	andeq	r0, r0, r5, ror r0
    2914:	00063b0f 	andeq	r3, r6, pc, lsl #22
    2918:	64b30100 	ldrtvs	r0, [r3], #256	; 0x100
    291c:	4c000000 	stcmi	0, cr0, [r0], {-0}
    2920:	4c000091 	stcmi	0, cr0, [r0], {145}	; 0x91
    2924:	01000000 	mrseq	r0, (UNDEF: 0)
    2928:	0002ac9c 	muleq	r2, ip, ip
    292c:	69700800 	ldmdbvs	r0!, {fp}^
    2930:	b301006e 	movwlt	r0, #4206	; 0x106e
    2934:	0000002c 	andeq	r0, r0, ip, lsr #32
    2938:	00001a7b 	andeq	r1, r0, fp, ror sl
    293c:	01007610 	tsteq	r0, r0, lsl r6
    2940:	00002cb9 			; <UNDEFINED> instruction: 0x00002cb9
    2944:	001ad300 	andseq	sp, sl, r0, lsl #6
    2948:	916c1100 	cmnls	ip, r0, lsl #2
    294c:	07e00000 	strbeq	r0, [r0, r0]!
    2950:	7c110000 	ldcvc	0, cr0, [r1], {-0}
    2954:	e0000091 	mul	r0, r1, r0
    2958:	00000007 	andeq	r0, r0, r7
    295c:	00067f07 	andeq	r7, r6, r7, lsl #30
    2960:	98c50100 	stmials	r5, {r8}^
    2964:	24000091 	strcs	r0, [r0], #-145	; 0x91
    2968:	01000000 	mrseq	r0, (UNDEF: 0)
    296c:	0002fc9c 	muleq	r2, ip, ip
    2970:	69700800 	ldmdbvs	r0!, {fp}^
    2974:	c501006e 	strgt	r0, [r1, #-110]	; 0x6e
    2978:	0000002c 	andeq	r0, r0, ip, lsr #32
    297c:	00001b09 	andeq	r1, r0, r9, lsl #22
    2980:	01007608 	tsteq	r0, r8, lsl #12
    2984:	00002cc5 	andeq	r2, r0, r5, asr #25
    2988:	001b4300 	andseq	r4, fp, r0, lsl #6
    298c:	91b00a00 	lslsls	r0, r0, #20
    2990:	013e0000 	teqeq	lr, r0
    2994:	02f20000 	rscseq	r0, r2, #0
    2998:	010b0000 	mrseq	r0, (UNDEF: 11)
    299c:	01f30350 	mvnseq	r0, r0, asr r3
    29a0:	b8110050 	ldmdalt	r1, {r4, r6}
    29a4:	96000091 			; <UNDEFINED> instruction: 0x96000091
    29a8:	00000001 	andeq	r0, r0, r1
    29ac:	0007dd07 	andeq	sp, r7, r7, lsl #26
    29b0:	bcd10100 	ldflte	f0, [r1], {0}
    29b4:	d8000091 	stmdale	r0, {r0, r4, r7}
    29b8:	01000000 	mrseq	r0, (UNDEF: 0)
    29bc:	0003819c 	muleq	r3, ip, r1
    29c0:	69700800 	ldmdbvs	r0!, {fp}^
    29c4:	d101006e 	tstle	r1, lr, rrx
    29c8:	0000002c 	andeq	r0, r0, ip, lsr #32
    29cc:	00001b7d 	andeq	r1, r0, sp, ror fp
    29d0:	00083c12 	andeq	r3, r8, r2, lsl ip
    29d4:	b2d10100 	sbcslt	r0, r1, #0, 2
    29d8:	9b000000 	blls	29e0 <_start-0x5620>
    29dc:	0900001b 	stmdbeq	r0, {r0, r1, r3, r4}
    29e0:	00000779 	andeq	r0, r0, r9, ror r7
    29e4:	0133d901 	teqeq	r3, r1, lsl #18
    29e8:	1bbc0000 	blne	fef029f0 <__bss_end__+0xfeef8b90>
    29ec:	fc090000 	stc2	0, cr0, [r9], {-0}
    29f0:	01000008 	tsteq	r0, r8
    29f4:	00002cda 	ldrdeq	r2, [r0], -sl
    29f8:	001c1100 	andseq	r1, ip, r0, lsl #2
    29fc:	082a0900 	stmdaeq	sl!, {r8, fp}
    2a00:	e8010000 	stmda	r1, {}	; <UNPREDICTABLE>
    2a04:	0000002c 	andeq	r0, r0, ip, lsr #32
    2a08:	00001ddd 	ldrdeq	r1, [r0], -sp
    2a0c:	0092580a 	addseq	r5, r2, sl, lsl #16
    2a10:	0007e000 	andeq	lr, r7, r0
    2a14:	00037000 	andeq	r7, r3, r0
    2a18:	50010b00 	andpl	r0, r1, r0, lsl #22
    2a1c:	00007602 	andeq	r7, r0, r2, lsl #12
    2a20:	0092880c 	addseq	r8, r2, ip, lsl #16
    2a24:	00080100 	andeq	r0, r8, r0, lsl #2
    2a28:	50010b00 	andpl	r0, r1, r0, lsl #22
    2a2c:	00007602 	andeq	r7, r0, r2, lsl #12
    2a30:	07141300 	ldreq	r1, [r4, -r0, lsl #6]
    2a34:	05010000 	streq	r0, [r1, #-0]
    2a38:	00006401 	andeq	r6, r0, r1, lsl #8
    2a3c:	00929400 	addseq	r9, r2, r0, lsl #8
    2a40:	00002c00 	andeq	r2, r0, r0, lsl #24
    2a44:	b59c0100 	ldrlt	r0, [ip, #256]	; 0x100
    2a48:	14000003 	strne	r0, [r0], #-3
    2a4c:	00000717 	andeq	r0, r0, r7, lsl r7
    2a50:	2c010501 	cfstr32cs	mvfx0, [r1], {1}
    2a54:	0e000000 	cdpeq	0, 0, cr0, cr0, cr0, {0}
    2a58:	1100001e 	tstne	r0, lr, lsl r0
    2a5c:	000092a4 	andeq	r9, r0, r4, lsr #5
    2a60:	000007e0 	andeq	r0, r0, r0, ror #15
    2a64:	07c81500 	strbeq	r1, [r8, r0, lsl #10]
    2a68:	14010000 	strne	r0, [r1], #-0
    2a6c:	0092c001 	addseq	ip, r2, r1
    2a70:	00008400 	andeq	r8, r0, r0, lsl #8
    2a74:	799c0100 	ldmibvc	ip, {r8}
    2a78:	16000004 	strne	r0, [r0], -r4
    2a7c:	006e6970 	rsbeq	r6, lr, r0, ror r9
    2a80:	2c011401 	cfstrscs	mvf1, [r1], {1}
    2a84:	2f000000 	svccs	0x00000000
    2a88:	1700001e 	smladne	r0, lr, r0, r0
    2a8c:	0000074b 	andeq	r0, r0, fp, asr #14
    2a90:	2c012601 	stccs	6, cr2, [r1], {1}
    2a94:	5b000000 	blpl	2a9c <_start-0x5564>
    2a98:	1800001e 	stmdane	r0, {r1, r2, r3, r4}
    2a9c:	000092dc 	ldrdeq	r9, [r0], -ip
    2aa0:	0000001c 	andeq	r0, r0, ip, lsl r0
    2aa4:	0000041b 	andeq	r0, r0, fp, lsl r4
    2aa8:	00082a17 	andeq	r2, r8, r7, lsl sl
    2aac:	011d0100 	tsteq	sp, r0, lsl #2
    2ab0:	0000002c 	andeq	r0, r0, ip, lsr #32
    2ab4:	00001e79 	andeq	r1, r0, r9, ror lr
    2ab8:	0092e811 	addseq	lr, r2, r1, lsl r8
    2abc:	0007e000 	andeq	lr, r7, r0
    2ac0:	92f81100 	rscsls	r1, r8, #0, 2
    2ac4:	08010000 	stmdaeq	r1, {}	; <UNPREDICTABLE>
    2ac8:	18000000 	stmdane	r0, {}	; <UNPREDICTABLE>
    2acc:	000092fc 	strdeq	r9, [r0], -ip
    2ad0:	00000020 	andeq	r0, r0, r0, lsr #32
    2ad4:	0000044b 	andeq	r0, r0, fp, asr #8
    2ad8:	00082a17 	andeq	r2, r8, r7, lsl sl
    2adc:	01210100 	teqeq	r1, r0, lsl #2
    2ae0:	0000002c 	andeq	r0, r0, ip, lsr #32
    2ae4:	00001e97 	muleq	r0, r7, lr
    2ae8:	00930811 	addseq	r0, r3, r1, lsl r8
    2aec:	0007e000 	andeq	lr, r7, r0
    2af0:	931c1100 	tstls	ip, #0, 2
    2af4:	08010000 	stmdaeq	r1, {}	; <UNPREDICTABLE>
    2af8:	11000000 	mrsne	r0, (UNDEF: 0)
    2afc:	000092d4 	ldrdeq	r9, [r0], -r4
    2b00:	0000081d 	andeq	r0, r0, sp, lsl r8
    2b04:	00932011 	addseq	r2, r3, r1, lsl r0
    2b08:	00081d00 	andeq	r1, r8, r0, lsl #26
    2b0c:	932c1100 	teqls	ip, #0, 2
    2b10:	07e00000 	strbeq	r0, [r0, r0]!
    2b14:	38110000 	ldmdacc	r1, {}	; <UNPREDICTABLE>
    2b18:	01000093 	swpeq	r0, r3, [r0]	; <UNPREDICTABLE>
    2b1c:	11000008 	tstne	r0, r8
    2b20:	0000933c 	andeq	r9, r0, ip, lsr r3
    2b24:	0000081d 	andeq	r0, r0, sp, lsl r8
    2b28:	08801500 	stmeq	r0, {r8, sl, ip}
    2b2c:	31010000 	mrscc	r0, (UNDEF: 1)
    2b30:	00934401 	addseq	r4, r3, r1, lsl #8
    2b34:	00008400 	andeq	r8, r0, r0, lsl #8
    2b38:	3d9c0100 	ldfccs	f0, [ip]
    2b3c:	16000005 	strne	r0, [r0], -r5
    2b40:	006e6970 	rsbeq	r6, lr, r0, ror r9
    2b44:	2c013101 	stfcss	f3, [r1], {1}
    2b48:	b5000000 	strlt	r0, [r0, #-0]
    2b4c:	1700001e 	smladne	r0, lr, r0, r0
    2b50:	0000074b 	andeq	r0, r0, fp, asr #14
    2b54:	2c014201 	sfmcs	f4, 4, [r1], {1}
    2b58:	e1000000 	mrs	r0, (UNDEF: 0)
    2b5c:	1800001e 	stmdane	r0, {r1, r2, r3, r4}
    2b60:	00009360 	andeq	r9, r0, r0, ror #6
    2b64:	0000001c 	andeq	r0, r0, ip, lsl r0
    2b68:	000004df 	ldrdeq	r0, [r0], -pc	; <UNPREDICTABLE>
    2b6c:	00082a17 	andeq	r2, r8, r7, lsl sl
    2b70:	01390100 	teqeq	r9, r0, lsl #2
    2b74:	0000002c 	andeq	r0, r0, ip, lsr #32
    2b78:	00001eff 	strdeq	r1, [r0], -pc	; <UNPREDICTABLE>
    2b7c:	00936c11 	addseq	r6, r3, r1, lsl ip
    2b80:	0007e000 	andeq	lr, r7, r0
    2b84:	937c1100 	cmnls	ip, #0, 2
    2b88:	08010000 	stmdaeq	r1, {}	; <UNPREDICTABLE>
    2b8c:	18000000 	stmdane	r0, {}	; <UNPREDICTABLE>
    2b90:	00009380 	andeq	r9, r0, r0, lsl #7
    2b94:	00000020 	andeq	r0, r0, r0, lsr #32
    2b98:	0000050f 	andeq	r0, r0, pc, lsl #10
    2b9c:	00082a17 	andeq	r2, r8, r7, lsl sl
    2ba0:	013d0100 	teqeq	sp, r0, lsl #2
    2ba4:	0000002c 	andeq	r0, r0, ip, lsr #32
    2ba8:	00001f1d 	andeq	r1, r0, sp, lsl pc
    2bac:	00938c11 	addseq	r8, r3, r1, lsl ip
    2bb0:	0007e000 	andeq	lr, r7, r0
    2bb4:	93a01100 	movls	r1, #0, 2
    2bb8:	08010000 	stmdaeq	r1, {}	; <UNPREDICTABLE>
    2bbc:	11000000 	mrsne	r0, (UNDEF: 0)
    2bc0:	00009358 	andeq	r9, r0, r8, asr r3
    2bc4:	0000081d 	andeq	r0, r0, sp, lsl r8
    2bc8:	0093a411 	addseq	sl, r3, r1, lsl r4
    2bcc:	00081d00 	andeq	r1, r8, r0, lsl #26
    2bd0:	93b01100 	movsls	r1, #0, 2
    2bd4:	07e00000 	strbeq	r0, [r0, r0]!
    2bd8:	bc110000 	ldclt	0, cr0, [r1], {-0}
    2bdc:	01000093 	swpeq	r0, r3, [r0]	; <UNPREDICTABLE>
    2be0:	11000008 	tstne	r0, r8
    2be4:	000093c0 	andeq	r9, r0, r0, asr #7
    2be8:	0000081d 	andeq	r0, r0, sp, lsl r8
    2bec:	06dd1300 	ldrbeq	r1, [sp], r0, lsl #6
    2bf0:	4c010000 	stcmi	0, cr0, [r1], {-0}
    2bf4:	00006401 	andeq	r6, r0, r1, lsl #8
    2bf8:	0093c800 	addseq	ip, r3, r0, lsl #16
    2bfc:	00008400 	andeq	r8, r0, r0, lsl #8
    2c00:	e39c0100 	orrs	r0, ip, #0, 2
    2c04:	16000005 	strne	r0, [r0], -r5
    2c08:	006e6970 	rsbeq	r6, lr, r0, ror r9
    2c0c:	2c014c01 	stccs	12, cr4, [r1], {1}
    2c10:	3b000000 	blcc	2c18 <_start-0x53e8>
    2c14:	1800001f 	stmdane	r0, {r0, r1, r2, r3, r4}
    2c18:	000093e4 	andeq	r9, r0, r4, ror #7
    2c1c:	00000024 	andeq	r0, r0, r4, lsr #32
    2c20:	00000597 	muleq	r0, r7, r5
    2c24:	00076217 	andeq	r6, r7, r7, lsl r2
    2c28:	01530100 	cmpeq	r3, r0, lsl #2
    2c2c:	0000002c 	andeq	r0, r0, ip, lsr #32
    2c30:	00001f7d 	andeq	r1, r0, sp, ror pc
    2c34:	0093f011 	addseq	pc, r3, r1, lsl r0	; <UNPREDICTABLE>
    2c38:	0007e000 	andeq	lr, r7, r0
    2c3c:	94001100 	strls	r1, [r0], #-256	; 0x100
    2c40:	081d0000 	ldmdaeq	sp, {}	; <UNPREDICTABLE>
    2c44:	18000000 	stmdane	r0, {}	; <UNPREDICTABLE>
    2c48:	00009408 	andeq	r9, r0, r8, lsl #8
    2c4c:	0000002c 	andeq	r0, r0, ip, lsr #32
    2c50:	000005d0 	ldrdeq	r0, [r0], -r0	; <UNPREDICTABLE>
    2c54:	00076217 	andeq	r6, r7, r7, lsl r2
    2c58:	01560100 	cmpeq	r6, r0, lsl #2
    2c5c:	0000002c 	andeq	r0, r0, ip, lsr #32
    2c60:	00001f97 	muleq	r0, r7, pc	; <UNPREDICTABLE>
    2c64:	00941411 	addseq	r1, r4, r1, lsl r4
    2c68:	0007e000 	andeq	lr, r7, r0
    2c6c:	94201100 	strtls	r1, [r0], #-256	; 0x100
    2c70:	081d0000 	ldmdaeq	sp, {}	; <UNPREDICTABLE>
    2c74:	2c110000 	ldccs	0, cr0, [r1], {-0}
    2c78:	1d000094 	stcne	0, cr0, [r0, #-592]	; 0xfffffdb0
    2c7c:	00000008 	andeq	r0, r0, r8
    2c80:	0093dc11 	addseq	sp, r3, r1, lsl ip
    2c84:	00081d00 	andeq	r1, r8, r0, lsl #26
    2c88:	94381100 	ldrtls	r1, [r8], #-256	; 0x100
    2c8c:	081d0000 	ldmdaeq	sp, {}	; <UNPREDICTABLE>
    2c90:	15000000 	strne	r0, [r0, #-0]
    2c94:	000007fd 	strdeq	r0, [r0], -sp
    2c98:	4c015f01 	stcmi	15, cr5, [r1], {1}
    2c9c:	58000094 	stmdapl	r0, {r2, r4, r7}
    2ca0:	01000000 	mrseq	r0, (UNDEF: 0)
    2ca4:	0006489c 	muleq	r6, ip, r8
    2ca8:	69701600 	ldmdbvs	r0!, {r9, sl, ip}^
    2cac:	5f01006e 	svcpl	0x0001006e
    2cb0:	00002c01 	andeq	r2, r0, r1, lsl #24
    2cb4:	001faa00 	andseq	sl, pc, r0, lsl #20
    2cb8:	94601100 	strbtls	r1, [r0], #-256	; 0x100
    2cbc:	081d0000 	ldmdaeq	sp, {}	; <UNPREDICTABLE>
    2cc0:	7c0a0000 	stcvc	0, cr0, [sl], {-0}
    2cc4:	01000094 	swpeq	r0, r4, [r0]	; <UNPREDICTABLE>
    2cc8:	28000008 	stmdacs	r0, {r3}
    2ccc:	0b000006 	bleq	2cec <_start-0x5314>
    2cd0:	31045101 	tstcc	r4, r1, lsl #2
    2cd4:	00240074 	eoreq	r0, r4, r4, ror r0
    2cd8:	0094980a 	addseq	r9, r4, sl, lsl #16
    2cdc:	00080100 	andeq	r0, r8, r0, lsl #2
    2ce0:	00063e00 	andeq	r3, r6, r0, lsl #28
    2ce4:	51010b00 	tstpl	r1, r0, lsl #22
    2ce8:	00743104 	rsbseq	r3, r4, r4, lsl #2
    2cec:	9c110024 	ldcls	0, cr0, [r1], {36}	; 0x24
    2cf0:	1d000094 	stcne	0, cr0, [r0, #-592]	; 0xfffffdb0
    2cf4:	00000008 	andeq	r0, r0, r8
    2cf8:	0007b619 	andeq	fp, r7, r9, lsl r6
    2cfc:	33280100 	teqcc	r8, #0, 2
    2d00:	05000001 	streq	r0, [r0, #-1]
    2d04:	00971c03 	addseq	r1, r7, r3, lsl #24
    2d08:	08321900 	ldmdaeq	r2!, {r8, fp, ip}
    2d0c:	29010000 	stmdbcs	r1, {}	; <UNPREDICTABLE>
    2d10:	00000133 	andeq	r0, r0, r3, lsr r1
    2d14:	97180305 	ldrls	r0, [r8, -r5, lsl #6]
    2d18:	07190000 	ldreq	r0, [r9, -r0]
    2d1c:	01000009 	tsteq	r0, r9
    2d20:	0001332a 	andeq	r3, r1, sl, lsr #6
    2d24:	14030500 	strne	r0, [r3], #-1280	; 0x500
    2d28:	19000097 	stmdbne	r0, {r0, r1, r2, r4, r7}
    2d2c:	00000782 	andeq	r0, r0, r2, lsl #15
    2d30:	01332c01 	teqeq	r3, r1, lsl #24
    2d34:	03050000 	movweq	r0, #20480	; 0x5000
    2d38:	000096c0 	andeq	r9, r0, r0, asr #13
    2d3c:	00078a19 	andeq	r8, r7, r9, lsl sl
    2d40:	332d0100 	teqcc	sp, #0, 2
    2d44:	05000001 	streq	r0, [r0, #-1]
    2d48:	0096c403 	addseq	ip, r6, r3, lsl #8
    2d4c:	06f71900 	ldrbteq	r1, [r7], r0, lsl #18
    2d50:	2e010000 	cdpcs	0, 0, cr0, cr1, cr0, {0}
    2d54:	00000133 	andeq	r0, r0, r3, lsr r1
    2d58:	96c80305 	strbls	r0, [r8], r5, lsl #6
    2d5c:	92190000 	andsls	r0, r9, #0
    2d60:	01000007 	tsteq	r0, r7
    2d64:	0001332f 	andeq	r3, r1, pc, lsr #6
    2d68:	cc030500 	cfstr32gt	mvfx0, [r3], {-0}
    2d6c:	19000096 	stmdbne	r0, {r1, r2, r4, r7}
    2d70:	0000079a 	muleq	r0, sl, r7
    2d74:	01333001 	teqeq	r3, r1
    2d78:	03050000 	movweq	r0, #20480	; 0x5000
    2d7c:	000096d0 	ldrdeq	r9, [r0], -r0
    2d80:	0007a219 	andeq	sl, r7, r9, lsl r2
    2d84:	33310100 	teqcc	r1, #0, 2
    2d88:	05000001 	streq	r0, [r0, #-1]
    2d8c:	0096d403 	addseq	sp, r6, r3, lsl #8
    2d90:	07541900 	ldrbeq	r1, [r4, -r0, lsl #18]
    2d94:	33010000 	movwcc	r0, #4096	; 0x1000
    2d98:	00000133 	andeq	r0, r0, r3, lsr r1
    2d9c:	96d80305 	ldrbls	r0, [r8], r5, lsl #6
    2da0:	5b190000 	blpl	642da8 <__bss_end__+0x638f48>
    2da4:	01000007 	tsteq	r0, r7
    2da8:	00013334 	andeq	r3, r1, r4, lsr r3
    2dac:	dc030500 	cfstr32le	mvfx0, [r3], {-0}
    2db0:	19000096 	stmdbne	r0, {r1, r2, r4, r7}
    2db4:	000006ff 	strdeq	r0, [r0], -pc	; <UNPREDICTABLE>
    2db8:	01333601 	teqeq	r3, r1, lsl #12
    2dbc:	03050000 	movweq	r0, #20480	; 0x5000
    2dc0:	000096e0 	andeq	r9, r0, r0, ror #13
    2dc4:	0007c119 	andeq	ip, r7, r9, lsl r1
    2dc8:	33370100 	teqcc	r7, #0, 2
    2dcc:	05000001 	streq	r0, [r0, #-1]
    2dd0:	0096e403 	addseq	lr, r6, r3, lsl #8
    2dd4:	076b1900 	strbeq	r1, [fp, -r0, lsl #18]!
    2dd8:	39010000 	stmdbcc	r1, {}	; <UNPREDICTABLE>
    2ddc:	00000133 	andeq	r0, r0, r3, lsr r1
    2de0:	96e80305 	strbtls	r0, [r8], r5, lsl #6
    2de4:	72190000 	andsvc	r0, r9, #0
    2de8:	01000007 	tsteq	r0, r7
    2dec:	0001333a 	andeq	r3, r1, sl, lsr r3
    2df0:	ec030500 	cfstr32	mvfx0, [r3], {-0}
    2df4:	19000096 	stmdbne	r0, {r1, r2, r4, r7}
    2df8:	0000080e 	andeq	r0, r0, lr, lsl #16
    2dfc:	0133f001 	teqeq	r3, r1
    2e00:	03050000 	movweq	r0, #20480	; 0x5000
    2e04:	00009710 	andeq	r9, r0, r0, lsl r7
    2e08:	00081c19 	andeq	r1, r8, r9, lsl ip
    2e0c:	33f10100 	mvnscc	r0, #0, 2
    2e10:	05000001 	streq	r0, [r0, #-1]
    2e14:	0096f003 	addseq	pc, r6, r3
    2e18:	08411900 	stmdaeq	r1, {r8, fp, ip}^
    2e1c:	f3010000 	vhadd.u8	d0, d1, d0
    2e20:	00000133 	andeq	r0, r0, r3, lsr r1
    2e24:	97080305 	strls	r0, [r8, -r5, lsl #6]
    2e28:	48190000 	ldmdami	r9, {}	; <UNPREDICTABLE>
    2e2c:	01000008 	tsteq	r0, r8
    2e30:	000133f4 	strdeq	r3, [r1], -r4
    2e34:	0c030500 	cfstr32eq	mvfx0, [r3], {-0}
    2e38:	19000097 	stmdbne	r0, {r0, r1, r2, r4, r7}
    2e3c:	000007ef 	andeq	r0, r0, pc, ror #15
    2e40:	0133f601 	teqeq	r3, r1, lsl #12
    2e44:	03050000 	movweq	r0, #20480	; 0x5000
    2e48:	000096f4 	strdeq	r9, [r0], -r4
    2e4c:	0007f619 	andeq	pc, r7, r9, lsl r6	; <UNPREDICTABLE>
    2e50:	33f70100 	mvnscc	r0, #0, 2
    2e54:	05000001 	streq	r0, [r0, #-1]
    2e58:	0096f803 	addseq	pc, r6, r3, lsl #16
    2e5c:	085b1900 	ldmdaeq	fp, {r8, fp, ip}^
    2e60:	f9010000 			; <UNDEFINED> instruction: 0xf9010000
    2e64:	00000133 	andeq	r0, r0, r3, lsr r1
    2e68:	97000305 	strls	r0, [r0, -r5, lsl #6]
    2e6c:	62190000 	andsvs	r0, r9, #0
    2e70:	01000008 	tsteq	r0, r8
    2e74:	000133fa 	strdeq	r3, [r1], -sl
    2e78:	04030500 	streq	r0, [r3], #-1280	; 0x500
    2e7c:	19000097 	stmdbne	r0, {r0, r1, r2, r4, r7}
    2e80:	00000706 	andeq	r0, r0, r6, lsl #14
    2e84:	0133fc01 	teqeq	r3, r1, lsl #24
    2e88:	03050000 	movweq	r0, #20480	; 0x5000
    2e8c:	000096fc 	strdeq	r9, [r0], -ip
    2e90:	00087a1a 	andeq	r7, r8, sl, lsl sl
    2e94:	2c200100 	stfcss	f0, [r0], #-0
    2e98:	f5000000 			; <UNDEFINED> instruction: 0xf5000000
    2e9c:	1b000007 	blne	2ec0 <_start-0x5140>
    2ea0:	000007f5 	strdeq	r0, [r0], -r5
    2ea4:	fb040d00 	blx	1062ae <__bss_end__+0xfc44e>
    2ea8:	1c000007 	stcne	0, cr0, [r0], {7}
    2eac:	00000800 	andeq	r0, r0, r0, lsl #16
    2eb0:	06f11e1d 	usateq	r1, #17, sp, lsl #28
    2eb4:	1e010000 	cdpne	0, 0, cr0, cr1, cr0, {0}
    2eb8:	00000817 	andeq	r0, r0, r7, lsl r8
    2ebc:	0008171b 	andeq	r1, r8, fp, lsl r7
    2ec0:	002c1b00 	eoreq	r1, ip, r0, lsl #22
    2ec4:	0d000000 	stceq	0, cr0, [r0, #-0]
    2ec8:	00080004 	andeq	r0, r8, r4
    2ecc:	07aa1f00 	streq	r1, [sl, r0, lsl #30]!
    2ed0:	8a030000 	bhi	c2ed8 <__bss_end__+0xb9078>
    2ed4:	00011300 	andeq	r1, r1, r0, lsl #6
    2ed8:	52000400 	andpl	r0, r0, #0, 8
    2edc:	0400000e 	streq	r0, [r0], #-14
    2ee0:	0001cc01 	andeq	ip, r1, r1, lsl #24
    2ee4:	09220100 	stmdbeq	r2!, {r8}
    2ee8:	02b70000 	adcseq	r0, r7, #0
    2eec:	94a40000 	strtls	r0, [r4], #0
    2ef0:	003c0000 	eorseq	r0, ip, r0
    2ef4:	0c770000 	ldcleq	0, cr0, [r7], #-0
    2ef8:	04020000 	streq	r0, [r2], #-0
    2efc:	746e6905 	strbtvc	r6, [lr], #-2309	; 0x905
    2f00:	07040300 	streq	r0, [r4, -r0, lsl #6]
    2f04:	00000019 	andeq	r0, r0, r9, lsl r0
    2f08:	9f060103 	svcls	0x00060103
    2f0c:	03000001 	movweq	r0, #1
    2f10:	01ab0502 			; <UNDEFINED> instruction: 0x01ab0502
    2f14:	04030000 	streq	r0, [r3], #-0
    2f18:	00003205 	andeq	r3, r0, r5, lsl #4
    2f1c:	05080300 	streq	r0, [r8, #-768]	; 0x300
    2f20:	0000002d 	andeq	r0, r0, sp, lsr #32
    2f24:	9d080103 	stflss	f0, [r8, #-12]
    2f28:	03000001 	movweq	r0, #1
    2f2c:	008d0702 	addeq	r0, sp, r2, lsl #14
    2f30:	04030000 	streq	r0, [r3], #-0
    2f34:	00001407 	andeq	r1, r0, r7, lsl #8
    2f38:	07080300 	streq	r0, [r8, -r0, lsl #6]
    2f3c:	0000000f 	andeq	r0, r0, pc
    2f40:	cf070403 	svcgt	0x00070403
    2f44:	03000000 	movweq	r0, #0
    2f48:	01a60801 			; <UNDEFINED> instruction: 0x01a60801
    2f4c:	11040000 	mrsne	r0, (UNDEF: 4)
    2f50:	01000009 	tsteq	r0, r9
    2f54:	00002503 	andeq	r2, r0, r3, lsl #10
    2f58:	0094a400 	addseq	sl, r4, r0, lsl #8
    2f5c:	00001400 	andeq	r1, r0, r0, lsl #8
    2f60:	b09c0100 	addslt	r0, ip, r0, lsl #2
    2f64:	05000000 	streq	r0, [r0, #-0]
    2f68:	03010063 	movweq	r0, #4195	; 0x1063
    2f6c:	00000025 	andeq	r0, r0, r5, lsr #32
    2f70:	00001fd6 	ldrdeq	r1, [r0], -r6
    2f74:	0094b006 	addseq	fp, r4, r6
    2f78:	00010900 	andeq	r0, r1, r0, lsl #18
    2f7c:	50010700 	andpl	r0, r1, r0, lsl #14
    2f80:	00007402 	andeq	r7, r0, r2, lsl #8
    2f84:	03920800 	orrseq	r0, r2, #0, 16
    2f88:	08010000 	stmdaeq	r1, {}	; <UNPREDICTABLE>
    2f8c:	000094b8 			; <UNDEFINED> instruction: 0x000094b8
    2f90:	00000018 	andeq	r0, r0, r8, lsl r0
    2f94:	31099c01 	tstcc	r9, r1, lsl #24
    2f98:	01000009 	tsteq	r0, r9
    2f9c:	0094d00b 	addseq	sp, r4, fp
    2fa0:	00001000 	andeq	r1, r0, r0
    2fa4:	e39c0100 	orrs	r0, ip, #0, 2
    2fa8:	0a000000 	beq	2fb0 <_start-0x5050>
    2fac:	01007066 	tsteq	r0, r6, rrx
    2fb0:	0000f20b 	andeq	pc, r0, fp, lsl #4
    2fb4:	00500100 	subseq	r0, r0, r0, lsl #2
    2fb8:	0000250b 	andeq	r2, r0, fp, lsl #10
    2fbc:	0000f200 	andeq	pc, r0, r0, lsl #4
    2fc0:	00250c00 	eoreq	r0, r5, r0, lsl #24
    2fc4:	0d000000 	stceq	0, cr0, [r0, #-0]
    2fc8:	0000e304 	andeq	lr, r0, r4, lsl #6
    2fcc:	031f0e00 	tsteq	pc, #0, 28
    2fd0:	06010000 	streq	r0, [r1], -r0
    2fd4:	000000f2 	strdeq	r0, [r0], -r2
    2fd8:	97200305 	strls	r0, [r0, -r5, lsl #6]!
    2fdc:	750f0000 	strvc	r0, [pc, #-0]	; 2fe4 <_start-0x501c>
    2fe0:	02000004 	andeq	r0, r0, #4
    2fe4:	002c0c3c 	eoreq	r0, ip, ip, lsr ip
    2fe8:	00000000 	andeq	r0, r0, r0
    2fec:	000001c3 	andeq	r0, r0, r3, asr #3
    2ff0:	0f3a0004 	svceq	0x003a0004
    2ff4:	01040000 	mrseq	r0, (UNDEF: 4)
    2ff8:	000001cc 	andeq	r0, r0, ip, asr #3
    2ffc:	00095301 	andeq	r5, r9, r1, lsl #6
    3000:	0002b700 	andeq	fp, r2, r0, lsl #14
    3004:	0094e000 	addseq	lr, r4, r0
    3008:	00005000 	andeq	r5, r0, r0
    300c:	000d0500 	andeq	r0, sp, r0, lsl #10
    3010:	05040200 	streq	r0, [r4, #-512]	; 0x200
    3014:	00746e69 	rsbseq	r6, r4, r9, ror #28
    3018:	00093e03 	andeq	r3, r9, r3, lsl #28
    301c:	37d40200 	ldrbcc	r0, [r4, r0, lsl #4]
    3020:	04000000 	streq	r0, [r0], #-0
    3024:	00190704 	andseq	r0, r9, r4, lsl #14
    3028:	01040000 	mrseq	r0, (UNDEF: 4)
    302c:	00019f06 	andeq	r9, r1, r6, lsl #30
    3030:	05020400 	streq	r0, [r2, #-1024]	; 0x400
    3034:	000001ab 	andeq	r0, r0, fp, lsr #3
    3038:	32050404 	andcc	r0, r5, #4, 8	; 0x4000000
    303c:	04000000 	streq	r0, [r0], #-0
    3040:	002d0508 	eoreq	r0, sp, r8, lsl #10
    3044:	42030000 	andmi	r0, r3, #0
    3048:	03000002 	movweq	r0, #2
    304c:	0000652e 	andeq	r6, r0, lr, lsr #10
    3050:	08010400 	stmdaeq	r1, {sl}
    3054:	0000019d 	muleq	r0, sp, r1
    3058:	8d070204 	sfmhi	f0, 4, [r7, #-16]
    305c:	03000000 	movweq	r0, #0
    3060:	000001bc 			; <UNDEFINED> instruction: 0x000001bc
    3064:	007e3403 	rsbseq	r3, lr, r3, lsl #8
    3068:	04040000 	streq	r0, [r4], #-0
    306c:	00001407 	andeq	r1, r0, r7, lsl #8
    3070:	07080400 	streq	r0, [r8, -r0, lsl #8]
    3074:	0000000f 	andeq	r0, r0, pc
    3078:	cf070404 	svcgt	0x00070404
    307c:	05000000 	streq	r0, [r0, #-0]
    3080:	08010404 	stmdaeq	r1, {r2, sl}
    3084:	000001a6 	andeq	r0, r0, r6, lsr #3
    3088:	0e040c06 	cdpeq	12, 0, cr0, cr4, cr6, {0}
    308c:	000000d3 	ldrdeq	r0, [r0], -r3
    3090:	00787407 	rsbseq	r7, r8, r7, lsl #8
    3094:	005a0f04 	subseq	r0, sl, r4, lsl #30
    3098:	07000000 	streq	r0, [r0, -r0]
    309c:	04007872 	streq	r7, [r0], #-2162	; 0x872
    30a0:	00005a0f 	andeq	r5, r0, pc, lsl #20
    30a4:	4d080100 	stfmis	f0, [r8, #-0]
    30a8:	04000004 	streq	r0, [r0], #-4
    30ac:	00007310 	andeq	r7, r0, r0, lsl r3
    30b0:	fe080400 	cdp2	4, 0, cr0, cr8, cr0, {0}
    30b4:	04000003 	streq	r0, [r0], #-3
    30b8:	00007311 	andeq	r7, r0, r1, lsl r3
    30bc:	03000800 	movweq	r0, #2048	; 0x800
    30c0:	00000436 	andeq	r0, r0, r6, lsr r4
    30c4:	009c1204 	addseq	r1, ip, r4, lsl #4
    30c8:	01090000 	mrseq	r0, (UNDEF: 9)
    30cc:	00f91005 	rscseq	r1, r9, r5
    30d0:	520a0000 	andpl	r0, sl, #0
    30d4:	01000004 	tsteq	r0, r4
    30d8:	0004400a 	andeq	r4, r4, sl
    30dc:	280a0200 	stmdacs	sl, {r9}
    30e0:	03000004 	movweq	r0, #4
    30e4:	04670300 	strbteq	r0, [r7], #-768	; 0x300
    30e8:	10050000 	andne	r0, r5, r0
    30ec:	000000de 	ldrdeq	r0, [r0], -lr
    30f0:	14051406 	strne	r1, [r5], #-1030	; 0x406
    30f4:	00000131 	andeq	r0, r0, r1, lsr r1
    30f8:	0004ce08 	andeq	ip, r4, r8, lsl #28
    30fc:	37150500 	ldrcc	r0, [r5, -r0, lsl #10]
    3100:	00000000 	andeq	r0, r0, r0
    3104:	0004c208 	andeq	ip, r4, r8, lsl #4
    3108:	f9180500 			; <UNDEFINED> instruction: 0xf9180500
    310c:	04000000 	streq	r0, [r0], #-0
    3110:	00048d08 	andeq	r8, r4, r8, lsl #26
    3114:	d31b0500 	tstle	fp, #0, 10
    3118:	08000000 	stmdaeq	r0, {}	; <UNPREDICTABLE>
    311c:	047f0300 	ldrbteq	r0, [pc], #-768	; 3124 <_start-0x4edc>
    3120:	20050000 	andcs	r0, r5, r0
    3124:	00000104 	andeq	r0, r0, r4, lsl #2
    3128:	00094c0b 	andeq	r4, r9, fp, lsl #24
    312c:	7e050100 	adfvcs	f0, f5, f0
    3130:	e0000001 	and	r0, r0, r1
    3134:	28000094 	stmdacs	r0, {r2, r4, r7}
    3138:	01000000 	mrseq	r0, (UNDEF: 0)
    313c:	00017e9c 	muleq	r1, ip, lr
    3140:	00630c00 	rsbeq	r0, r3, r0, lsl #24
    3144:	017e0601 	cmneq	lr, r1, lsl #12
    3148:	00000000 	andeq	r0, r0, r0
    314c:	f40d0900 	vst2.8	{d0,d2}, [sp], r0
    3150:	ab000094 	blge	33a8 <_start-0x4c58>
    3154:	0e000001 	cdpeq	0, 0, cr0, cr0, cr1, {0}
    3158:	34015201 	strcc	r5, [r1], #-513	; 0x201
    315c:	0151010e 	cmpeq	r1, lr, lsl #2
    3160:	50010e30 	andpl	r0, r1, r0, lsr lr
    3164:	24474203 	strbcs	r4, [r7], #-515	; 0x203
    3168:	040f0000 	streq	r0, [pc], #-0	; 3170 <_start-0x4e90>
    316c:	00000131 	andeq	r0, r0, r1, lsr r1
    3170:	0004950b 	andeq	r9, r4, fp, lsl #10
    3174:	7e0c0100 	adfvce	f0, f4, f0
    3178:	08000001 	stmdaeq	r0, {r0}
    317c:	28000095 	stmdacs	r0, {r0, r2, r4, r7}
    3180:	01000000 	mrseq	r0, (UNDEF: 0)
    3184:	0001ab9c 	muleq	r1, ip, fp
    3188:	00630c00 	rsbeq	r0, r3, r0, lsl #24
    318c:	017e0d01 	cmneq	lr, r1, lsl #26
    3190:	00000000 	andeq	r0, r0, r0
    3194:	10000900 	andne	r0, r0, r0, lsl #18
    3198:	00000945 	andeq	r0, r0, r5, asr #18
    319c:	00931b06 	addseq	r1, r3, r6, lsl #22
    31a0:	93110000 	tstls	r1, #0
    31a4:	11000000 	mrsne	r0, (UNDEF: 0)
    31a8:	00000025 	andeq	r0, r0, r5, lsr #32
    31ac:	00002c11 	andeq	r2, r0, r1, lsl ip
    31b0:	ff000000 			; <UNDEFINED> instruction: 0xff000000
    31b4:	04000003 	streq	r0, [r0], #-3
    31b8:	00101e00 	andseq	r1, r0, r0, lsl #28
    31bc:	cc010400 	cfstrsgt	mvf0, [r1], {-0}
    31c0:	01000001 	tsteq	r0, r1
    31c4:	00000a3f 	andeq	r0, r0, pc, lsr sl
    31c8:	000002b7 			; <UNDEFINED> instruction: 0x000002b7
    31cc:	00009530 	andeq	r9, r0, r0, lsr r5
    31d0:	00000154 	andeq	r0, r0, r4, asr r1
    31d4:	00000e31 	andeq	r0, r0, r1, lsr lr
    31d8:	69050402 	stmdbvs	r5, {r1, sl}
    31dc:	0300746e 	movweq	r7, #1134	; 0x46e
    31e0:	00190704 	andseq	r0, r9, r4, lsl #14
    31e4:	01030000 	mrseq	r0, (UNDEF: 3)
    31e8:	00019f06 	andeq	r9, r1, r6, lsl #30
    31ec:	05020300 	streq	r0, [r2, #-768]	; 0x300
    31f0:	000001ab 	andeq	r0, r0, fp, lsr #3
    31f4:	32050403 	andcc	r0, r5, #50331648	; 0x3000000
    31f8:	03000000 	movweq	r0, #0
    31fc:	002d0508 	eoreq	r0, sp, r8, lsl #10
    3200:	01030000 	mrseq	r0, (UNDEF: 3)
    3204:	00019d08 	andeq	r9, r1, r8, lsl #26
    3208:	07020300 	streq	r0, [r2, -r0, lsl #6]
    320c:	0000008d 	andeq	r0, r0, sp, lsl #1
    3210:	14070403 	strne	r0, [r7], #-1027	; 0x403
    3214:	03000000 	movweq	r0, #0
    3218:	000f0708 	andeq	r0, pc, r8, lsl #14
    321c:	04030000 	streq	r0, [r3], #-0
    3220:	0000cf07 	andeq	ip, r0, r7, lsl #30
    3224:	08010300 	stmdaeq	r1, {r8, r9}
    3228:	000001a6 	andeq	r0, r0, r6, lsr #3
    322c:	0c020104 	stfeqs	f0, [r2], {4}
    3230:	000000b2 	strheq	r0, [r0], -r2
    3234:	00072005 	andeq	r2, r7, r5
    3238:	69050000 	stmdbvs	r5, {}	; <UNPREDICTABLE>
    323c:	01000008 	tsteq	r0, r8
    3240:	0008a205 	andeq	sl, r8, r5, lsl #4
    3244:	b1050400 	tstlt	r5, r0, lsl #8
    3248:	05000008 	streq	r0, [r0, #-8]
    324c:	0008c005 	andeq	ip, r8, r5
    3250:	cf050600 	svcgt	0x00050600
    3254:	07000008 	streq	r0, [r0, -r8]
    3258:	0008de05 	andeq	sp, r8, r5, lsl #28
    325c:	ed050300 	stc	3, cr0, [r5, #-0]
    3260:	02000008 	andeq	r0, r0, #8
    3264:	08960600 	ldmeq	r6, {r9, sl}
    3268:	15020000 	strne	r0, [r2, #-0]
    326c:	00000079 	andeq	r0, r0, r9, ror r0
    3270:	0009c607 	andeq	ip, r9, r7, lsl #12
    3274:	30370100 	eorscc	r0, r7, r0, lsl #2
    3278:	9c000095 	stcls	0, cr0, [r0], {149}	; 0x95
    327c:	01000000 	mrseq	r0, (UNDEF: 0)
    3280:	0001c39c 	muleq	r1, ip, r3
    3284:	95380800 	ldrls	r0, [r8, #-2048]!	; 0x800
    3288:	03a80000 			; <UNDEFINED> instruction: 0x03a80000
    328c:	44090000 	strmi	r0, [r9], #-0
    3290:	af000095 	svcge	0x00000095
    3294:	f3000003 	vhadd.u8	d0, d0, d3
    3298:	0a000000 	beq	32a0 <_start-0x4d60>
    329c:	32015101 	andcc	r5, r1, #1073741824	; 0x40000000
    32a0:	0150010a 	cmpeq	r0, sl, lsl #2
    32a4:	5009003e 	andpl	r0, r9, lr, lsr r0
    32a8:	af000095 	svcge	0x00000095
    32ac:	0b000003 	bleq	32c0 <_start-0x4d40>
    32b0:	0a000001 	beq	32bc <_start-0x4d44>
    32b4:	32015101 	andcc	r5, r1, #1073741824	; 0x40000000
    32b8:	0150010a 	cmpeq	r0, sl, lsl #2
    32bc:	5408003f 	strpl	r0, [r8], #-63	; 0x3f
    32c0:	a8000095 	stmdage	r0, {r0, r2, r4, r7}
    32c4:	09000003 	stmdbeq	r0, {r0, r1}
    32c8:	00009564 	andeq	r9, r0, r4, ror #10
    32cc:	000003c5 	andeq	r0, r0, r5, asr #7
    32d0:	00000128 	andeq	r0, r0, r8, lsr #2
    32d4:	0250010a 	subseq	r0, r0, #-2147483646	; 0x80000002
    32d8:	09000075 	stmdbeq	r0, {r0, r2, r4, r5, r6}
    32dc:	00009570 	andeq	r9, r0, r0, ror r5
    32e0:	000003e6 	andeq	r0, r0, r6, ror #7
    32e4:	0000013c 	andeq	r0, r0, ip, lsr r1
    32e8:	0250010a 	subseq	r0, r0, #-2147483646	; 0x80000002
    32ec:	08000075 	stmdaeq	r0, {r0, r2, r4, r5, r6}
    32f0:	00009574 	andeq	r9, r0, r4, ror r5
    32f4:	000003a8 	andeq	r0, r0, r8, lsr #7
    32f8:	00958009 	addseq	r8, r5, r9
    32fc:	0003e600 	andeq	lr, r3, r0, lsl #12
    3300:	00015800 	andeq	r5, r1, r0, lsl #16
    3304:	51010a00 	tstpl	r1, r0, lsl #20
    3308:	09003001 	stmdbeq	r0, {r0, ip, sp}
    330c:	0000958c 	andeq	r9, r0, ip, lsl #11
    3310:	000003e6 	andeq	r0, r0, r6, ror #7
    3314:	0000016b 	andeq	r0, r0, fp, ror #2
    3318:	0151010a 	cmpeq	r1, sl, lsl #2
    331c:	98090030 	stmdals	r9, {r4, r5}
    3320:	e6000095 			; <UNDEFINED> instruction: 0xe6000095
    3324:	7e000003 	cdpvc	0, 0, cr0, cr0, cr3, {0}
    3328:	0a000001 	beq	3334 <_start-0x4ccc>
    332c:	36015101 	strcc	r5, [r1], -r1, lsl #2
    3330:	95a40900 	strls	r0, [r4, #2304]!	; 0x900
    3334:	03e60000 	mvneq	r0, #0
    3338:	01910000 	orrseq	r0, r1, r0
    333c:	010a0000 	mrseq	r0, (UNDEF: 10)
    3340:	00330151 	eorseq	r0, r3, r1, asr r1
    3344:	0095b009 	addseq	fp, r5, r9
    3348:	0003e600 	andeq	lr, r3, r0, lsl #12
    334c:	0001a600 	andeq	sl, r1, r0, lsl #12
    3350:	51010a00 	tstpl	r1, r0, lsl #20
    3354:	010e0a03 	tsteq	lr, r3, lsl #20
    3358:	95bc0900 	ldrls	r0, [ip, #2304]!	; 0x900
    335c:	03e60000 	mvneq	r0, #0
    3360:	01b90000 			; <UNDEFINED> instruction: 0x01b90000
    3364:	010a0000 	mrseq	r0, (UNDEF: 10)
    3368:	00330151 	eorseq	r0, r3, r1, asr r1
    336c:	0095c008 	addseq	ip, r5, r8
    3370:	0003a800 	andeq	sl, r3, r0, lsl #16
    3374:	9a0b0000 	bls	2c337c <__bss_end__+0x2b951c>
    3378:	01000009 	tsteq	r0, r9
    337c:	00002557 	andeq	r2, r0, r7, asr r5
    3380:	0095cc00 	addseq	ip, r5, r0, lsl #24
    3384:	00001c00 	andeq	r1, r0, r0, lsl #24
    3388:	e69c0100 	ldr	r0, [ip], r0, lsl #2
    338c:	08000001 	stmdaeq	r0, {r0}
    3390:	000095dc 	ldrdeq	r9, [r0], -ip
    3394:	000003c5 	andeq	r0, r0, r5, asr #7
    3398:	05ed0b00 	strbeq	r0, [sp, #2816]!	; 0xb00
    339c:	5d010000 	stcpl	0, cr0, [r1, #-0]
    33a0:	00000025 	andeq	r0, r0, r5, lsr #32
    33a4:	000095e8 	andeq	r9, r0, r8, ror #11
    33a8:	00000028 	andeq	r0, r0, r8, lsr #32
    33ac:	02129c01 	andseq	r9, r2, #256	; 0x100
    33b0:	f0080000 			; <UNDEFINED> instruction: 0xf0080000
    33b4:	c3000095 	movwgt	r0, #149	; 0x95
    33b8:	08000001 	stmdaeq	r0, {r0}
    33bc:	00009604 	andeq	r9, r0, r4, lsl #12
    33c0:	000003c5 	andeq	r0, r0, r5, asr #7
    33c4:	09ee0b00 	stmibeq	lr!, {r8, r9, fp}^
    33c8:	64010000 	strvs	r0, [r1], #-0
    33cc:	00000025 	andeq	r0, r0, r5, lsr #32
    33d0:	00009610 	andeq	r9, r0, r0, lsl r6
    33d4:	0000001c 	andeq	r0, r0, ip, lsl r0
    33d8:	02359c01 	eorseq	r9, r5, #256	; 0x100
    33dc:	20080000 	andcs	r0, r8, r0
    33e0:	c5000096 	strgt	r0, [r0, #-150]	; 0x96
    33e4:	00000003 	andeq	r0, r0, r3
    33e8:	00047507 	andeq	r7, r4, r7, lsl #10
    33ec:	2c6a0100 	stfcse	f0, [sl], #-0
    33f0:	2c000096 	stccs	0, cr0, [r0], {150}	; 0x96
    33f4:	01000000 	mrseq	r0, (UNDEF: 0)
    33f8:	0002719c 	muleq	r2, ip, r1
    33fc:	00630c00 	rsbeq	r0, r3, r0, lsl #24
    3400:	002c6a01 	eoreq	r6, ip, r1, lsl #20
    3404:	1ff40000 	svcne	0x00f40000
    3408:	38080000 	stmdacc	r8, {}	; <UNPREDICTABLE>
    340c:	12000096 	andne	r0, r0, #150	; 0x96
    3410:	0d000002 	stceq	0, cr0, [r0, #-8]
    3414:	00009650 	andeq	r9, r0, r0, asr r6
    3418:	000003e6 	andeq	r0, r0, r6, ror #7
    341c:	0251010a 	subseq	r0, r1, #-2147483646	; 0x80000002
    3420:	00000074 	andeq	r0, r0, r4, ror r0
    3424:	0009b80b 	andeq	fp, r9, fp, lsl #16
    3428:	25740100 	ldrbcs	r0, [r4, #-256]!	; 0x100
    342c:	58000000 	stmdapl	r0, {}	; <UNPREDICTABLE>
    3430:	0c000096 	stceq	0, cr0, [r0], {150}	; 0x96
    3434:	01000000 	mrseq	r0, (UNDEF: 0)
    3438:	0002949c 	muleq	r2, ip, r4
    343c:	96600800 	strbtls	r0, [r0], -r0, lsl #16
    3440:	01c30000 	biceq	r0, r3, r0
    3444:	0b000000 	bleq	344c <_start-0x4bb4>
    3448:	00000a6b 	andeq	r0, r0, fp, ror #20
    344c:	00257801 	eoreq	r7, r5, r1, lsl #16
    3450:	96640000 	strbtls	r0, [r4], -r0
    3454:	00200000 	eoreq	r0, r0, r0
    3458:	9c010000 	stcls	0, cr0, [r1], {-0}
    345c:	000002c0 	andeq	r0, r0, r0, asr #5
    3460:	00966c08 	addseq	r6, r6, r8, lsl #24
    3464:	00027100 	andeq	r7, r2, r0, lsl #2
    3468:	96780800 	ldrbtls	r0, [r8], -r0, lsl #16
    346c:	01e60000 	mvneq	r0, r0
    3470:	0e000000 	cdpeq	0, 0, cr0, cr0, cr0, {0}
    3474:	00000a08 	andeq	r0, r0, r8, lsl #20
    3478:	02d11601 	sbcseq	r1, r1, #1048576	; 0x100000
    347c:	03050000 	movweq	r0, #20480	; 0x5000
    3480:	00009754 	andeq	r9, r0, r4, asr r7
    3484:	02d7040f 	sbcseq	r0, r7, #251658240	; 0xf000000
    3488:	2c100000 	ldccs	0, cr0, [r0], {-0}
    348c:	0e000000 	cdpeq	0, 0, cr0, cr0, cr0, {0}
    3490:	000009fc 	strdeq	r0, [r0], -ip
    3494:	02d11701 	sbcseq	r1, r1, #262144	; 0x40000
    3498:	03050000 	movweq	r0, #20480	; 0x5000
    349c:	00009724 	andeq	r9, r0, r4, lsr #14
    34a0:	00097d0e 	andeq	r7, r9, lr, lsl #26
    34a4:	d11a0100 	tstle	sl, r0, lsl #2
    34a8:	05000002 	streq	r0, [r0, #-2]
    34ac:	00974003 	addseq	r4, r7, r3
    34b0:	09d00e00 	ldmibeq	r0, {r9, sl, fp}^
    34b4:	1b010000 	blne	434bc <__bss_end__+0x3965c>
    34b8:	000002d1 	ldrdeq	r0, [r0], -r1
    34bc:	972c0305 	strls	r0, [ip, -r5, lsl #6]!
    34c0:	df0e0000 	svcle	0x000e0000
    34c4:	01000009 	tsteq	r0, r9
    34c8:	0002d11c 	andeq	sp, r2, ip, lsl r1
    34cc:	30030500 	andcc	r0, r3, r0, lsl #10
    34d0:	0e000097 	mcreq	0, 0, r0, cr0, cr7, {4}
    34d4:	00000a4d 	andeq	r0, r0, sp, asr #20
    34d8:	02d11d01 	sbcseq	r1, r1, #1, 26	; 0x40
    34dc:	03050000 	movweq	r0, #20480	; 0x5000
    34e0:	00009734 	andeq	r9, r0, r4, lsr r7
    34e4:	00096e0e 	andeq	r6, r9, lr, lsl #28
    34e8:	d11e0100 	tstle	lr, r0, lsl #2
    34ec:	05000002 	streq	r0, [r0, #-2]
    34f0:	00975003 	addseq	r5, r7, r3
    34f4:	0a5c0e00 	beq	1706cfc <__bss_end__+0x16fce9c>
    34f8:	1f010000 	svcne	0x00010000
    34fc:	000002d1 	ldrdeq	r0, [r0], -r1
    3500:	973c0305 	ldrls	r0, [ip, -r5, lsl #6]!
    3504:	8b0e0000 	blhi	38350c <__bss_end__+0x3796ac>
    3508:	01000009 	tsteq	r0, r9
    350c:	0002d120 	andeq	sp, r2, r0, lsr #2
    3510:	4c030500 	cfstr32mi	mvfx0, [r3], {-0}
    3514:	0e000097 	mcreq	0, 0, r0, cr0, cr7, {4}
    3518:	00000a30 	andeq	r0, r0, r0, lsr sl
    351c:	02d12101 	sbcseq	r2, r1, #1073741824	; 0x40000000
    3520:	03050000 	movweq	r0, #20480	; 0x5000
    3524:	00009748 	andeq	r9, r0, r8, asr #14
    3528:	0009a80e 	andeq	sl, r9, lr, lsl #16
    352c:	d1220100 	teqle	r2, r0, lsl #2
    3530:	05000002 	streq	r0, [r0, #-2]
    3534:	00972803 	addseq	r2, r7, r3, lsl #16
    3538:	0a200e00 	beq	806d40 <__bss_end__+0x7fcee0>
    353c:	23010000 	movwcs	r0, #4096	; 0x1000
    3540:	000002d1 	ldrdeq	r0, [r0], -r1
    3544:	97440305 	strbls	r0, [r4, -r5, lsl #6]
    3548:	100e0000 	andne	r0, lr, r0
    354c:	0100000a 	tsteq	r0, sl
    3550:	0002d124 	andeq	sp, r2, r4, lsr #2
    3554:	38030500 	stmdacc	r3, {r8, sl}
    3558:	11000097 	swpne	r0, r7, [r0]	; <UNPREDICTABLE>
    355c:	000007aa 	andeq	r0, r0, sl, lsr #15
    3560:	dd128a03 	vldrle	s16, [r2, #-12]
    3564:	02000007 	andeq	r0, r0, #7
    3568:	0003c519 	andeq	ip, r3, r9, lsl r5
    356c:	002c1300 	eoreq	r1, ip, r0, lsl #6
    3570:	b2130000 	andslt	r0, r3, #0
    3574:	00000000 	andeq	r0, r0, r0
    3578:	00087a14 	andeq	r7, r8, r4, lsl sl
    357c:	2ca90300 	stccs	3, cr0, [r9]
    3580:	da000000 	ble	3588 <_start-0x4a78>
    3584:	13000003 	movwne	r0, #3
    3588:	000003da 	ldrdeq	r0, [r0], -sl
    358c:	e0040f00 	and	r0, r4, r0, lsl #30
    3590:	15000003 	strne	r0, [r0, #-3]
    3594:	000003e5 	andeq	r0, r0, r5, ror #7
    3598:	06f11216 	usateq	r1, #17, r6, lsl #4
    359c:	9d030000 	stcls	0, cr0, [r3, #-0]
    35a0:	000003fc 	strdeq	r0, [r0], -ip
    35a4:	0003fc13 	andeq	pc, r3, r3, lsl ip	; <UNPREDICTABLE>
    35a8:	002c1300 	eoreq	r1, ip, r0, lsl #6
    35ac:	0f000000 	svceq	0x00000000
    35b0:	0003e504 	andeq	lr, r3, r4, lsl #10
    35b4:	00db0000 	sbcseq	r0, fp, r0
    35b8:	00040000 	andeq	r0, r4, r0
    35bc:	0000114c 	andeq	r1, r0, ip, asr #2
    35c0:	01cc0104 	biceq	r0, ip, r4, lsl #2
    35c4:	7b010000 	blvc	435cc <__bss_end__+0x3976c>
    35c8:	b700000a 	strlt	r0, [r0, -sl]
    35cc:	9c000002 	stcls	0, cr0, [r0], {2}
    35d0:	20000096 	mulcs	r0, r6, r0
    35d4:	36000000 	strcc	r0, [r0], -r0
    35d8:	0200000f 	andeq	r0, r0, #15
    35dc:	019f0601 	orrseq	r0, pc, r1, lsl #12
    35e0:	01020000 	mrseq	r0, (UNDEF: 2)
    35e4:	00019d08 	andeq	r9, r1, r8, lsl #26
    35e8:	05020200 	streq	r0, [r2, #-512]	; 0x200
    35ec:	000001ab 	andeq	r0, r0, fp, lsr #3
    35f0:	8d070202 	sfmhi	f0, 4, [r7, #-8]
    35f4:	03000000 	movweq	r0, #0
    35f8:	6e690504 	cdpvs	5, 6, cr0, cr9, cr4, {0}
    35fc:	04020074 	streq	r0, [r2], #-116	; 0x74
    3600:	00001907 	andeq	r1, r0, r7, lsl #18
    3604:	05080200 	streq	r0, [r8, #-512]	; 0x200
    3608:	0000002d 	andeq	r0, r0, sp, lsr #32
    360c:	0f070802 	svceq	0x00070802
    3610:	02000000 	andeq	r0, r0, #0
    3614:	00320504 	eorseq	r0, r2, r4, lsl #10
    3618:	04020000 	streq	r0, [r2], #-0
    361c:	0000cf07 	andeq	ip, r0, r7, lsl #30
    3620:	02040400 	andeq	r0, r4, #0, 8
    3624:	00140704 	andseq	r0, r4, r4, lsl #14
    3628:	04050000 	streq	r0, [r5], #-0
    362c:	0000007a 	andeq	r0, r0, sl, ror r0
    3630:	a6080102 	strge	r0, [r8], -r2, lsl #2
    3634:	06000001 	streq	r0, [r0], -r1
    3638:	0000093e 	andeq	r0, r0, lr, lsr r9
    363c:	0048d402 	subeq	sp, r8, r2, lsl #8
    3640:	45070000 	strmi	r0, [r7, #-0]
    3644:	03000009 	movweq	r0, #9
    3648:	00006b1b 	andeq	r6, r0, fp, lsl fp
    364c:	00969c00 	addseq	r9, r6, r0, lsl #24
    3650:	00002000 	andeq	r2, r0, r0
    3654:	089c0100 	ldmeq	ip, {r8}
    3658:	0100705f 	qaddeq	r7, pc, r0	; <UNPREDICTABLE>
    365c:	00006b03 	andeq	r6, r0, r3, lsl #22
    3660:	08500100 	ldmdaeq	r0, {r8}^
    3664:	03010063 	movweq	r0, #4195	; 0x1063
    3668:	00000041 	andeq	r0, r0, r1, asr #32
    366c:	6e095101 	adfvse	f5, f1, f1
    3670:	81030100 	mrshi	r0, (UNDEF: 19)
    3674:	12000000 	andne	r0, r0, #0
    3678:	0a000020 	beq	3700 <_start-0x4900>
    367c:	04010070 	streq	r0, [r1], #-112	; 0x70
    3680:	00000074 	andeq	r0, r0, r4, ror r0
    3684:	00002033 	andeq	r2, r0, r3, lsr r0
    3688:	0100650b 	tsteq	r0, fp, lsl #10
    368c:	00007404 	andeq	r7, r0, r4, lsl #8
    3690:	00520100 	subseq	r0, r2, r0, lsl #2
	...

Disassembly of section .debug_abbrev:

00000000 <.debug_abbrev>:
       0:	25011101 	strcs	r1, [r1, #-257]	; 0x101
       4:	030b130e 	movweq	r1, #45838	; 0xb30e
       8:	110e1b0e 	tstne	lr, lr, lsl #22
       c:	10061201 	andne	r1, r6, r1, lsl #4
      10:	02000017 	andeq	r0, r0, #23
      14:	0b0b0024 	bleq	2c00ac <__bss_end__+0x2b624c>
      18:	08030b3e 	stmdaeq	r3, {r1, r2, r3, r4, r5, r8, r9, fp}
      1c:	24030000 	strcs	r0, [r3], #-0
      20:	3e0b0b00 	vmlacc.f64	d0, d11, d0
      24:	000e030b 	andeq	r0, lr, fp, lsl #6
      28:	00160400 	andseq	r0, r6, r0, lsl #8
      2c:	0b3a0e03 	bleq	e83840 <__bss_end__+0xe799e0>
      30:	13490b3b 	movtne	r0, #39739	; 0x9b3b
      34:	0f050000 	svceq	0x00050000
      38:	490b0b00 	stmdbmi	fp, {r8, r9, fp}
      3c:	06000013 			; <UNDEFINED> instruction: 0x06000013
      40:	19270015 	stmdbne	r7!, {r0, r2, r4}
      44:	26070000 	strcs	r0, [r7], -r0
      48:	00134900 	andseq	r4, r3, r0, lsl #18
      4c:	01010800 	tsteq	r1, r0, lsl #16
      50:	13011349 	movwne	r1, #4937	; 0x1349
      54:	21090000 	mrscs	r0, (UNDEF: 9)
      58:	2f134900 	svccs	0x00134900
      5c:	0a00000b 	beq	90 <_start-0x7f70>
      60:	0b0b0104 	bleq	2c0478 <__bss_end__+0x2b6618>
      64:	0b3b0b3a 	bleq	ec2d54 <__bss_end__+0xeb8ef4>
      68:	00001301 	andeq	r1, r0, r1, lsl #6
      6c:	0300280b 	movweq	r2, #2059	; 0x80b
      70:	000d1c0e 	andeq	r1, sp, lr, lsl #24
      74:	012e0c00 	teqeq	lr, r0, lsl #24
      78:	0b3a0e03 	bleq	e8388c <__bss_end__+0xe79a2c>
      7c:	1927053b 	stmdbne	r7!, {r0, r1, r3, r4, r5, r8, sl}
      80:	0b201349 	bleq	804dac <__bss_end__+0x7faf4c>
      84:	00001301 	andeq	r1, r0, r1, lsl #6
      88:	0300050d 	movweq	r0, #1293	; 0x50d
      8c:	3b0b3a08 	blcc	2ce8b4 <__bss_end__+0x2c4a54>
      90:	00134905 	andseq	r4, r3, r5, lsl #18
      94:	00340e00 	eorseq	r0, r4, r0, lsl #28
      98:	0b3a0e03 	bleq	e838ac <__bss_end__+0xe79a4c>
      9c:	1349053b 	movtne	r0, #38203	; 0x953b
      a0:	050f0000 	streq	r0, [pc, #-0]	; a8 <_start-0x7f58>
      a4:	3a0e0300 	bcc	380cac <__bss_end__+0x376e4c>
      a8:	49053b0b 	stmdbmi	r5, {r0, r1, r3, r8, r9, fp, ip, sp}
      ac:	10000013 	andne	r0, r0, r3, lsl r0
      b0:	0e03012e 	adfeqsp	f0, f3, #0.5
      b4:	0b3b0b3a 	bleq	ec2da4 <__bss_end__+0xeb8f44>
      b8:	13491927 	movtne	r1, #39207	; 0x9927
      bc:	13010b20 	movwne	r0, #6944	; 0x1b20
      c0:	05110000 	ldreq	r0, [r1, #-0]
      c4:	3a080300 	bcc	200ccc <__bss_end__+0x1f6e6c>
      c8:	490b3b0b 	stmdbmi	fp, {r0, r1, r3, r8, r9, fp, ip, sp}
      cc:	12000013 	andne	r0, r0, #19
      d0:	0e030005 	cdpeq	0, 0, cr0, cr3, cr5, {0}
      d4:	0b3b0b3a 	bleq	ec2dc4 <__bss_end__+0xeb8f64>
      d8:	00001349 	andeq	r1, r0, r9, asr #6
      dc:	03003413 	movweq	r3, #1043	; 0x413
      e0:	3b0b3a0e 	blcc	2ce920 <__bss_end__+0x2c4ac0>
      e4:	0013490b 	andseq	r4, r3, fp, lsl #18
      e8:	00341400 	eorseq	r1, r4, r0, lsl #8
      ec:	0b3a0803 	bleq	e82100 <__bss_end__+0xe782a0>
      f0:	13490b3b 	movtne	r0, #39739	; 0x9b3b
      f4:	2e150000 	cdpcs	0, 1, cr0, cr5, cr0, {0}
      f8:	03193f01 	tsteq	r9, #1, 30
      fc:	3b0b3a0e 	blcc	2ce93c <__bss_end__+0x2c4adc>
     100:	1119270b 	tstne	r9, fp, lsl #14
     104:	40061201 	andmi	r1, r6, r1, lsl #4
     108:	19429718 	stmdbne	r2, {r3, r4, r8, r9, sl, ip, pc}^
     10c:	00001301 	andeq	r1, r0, r1, lsl #6
     110:	01828916 	orreq	r8, r2, r6, lsl r9
     114:	31011101 	tstcc	r1, r1, lsl #2
     118:	17000013 	smladne	r0, r3, r0, r0
     11c:	0001828a 	andeq	r8, r1, sl, lsl #5
     120:	42911802 	addsmi	r1, r1, #131072	; 0x20000
     124:	18000018 	stmdane	r0, {r3, r4}
     128:	193f012e 	ldmdbne	pc!, {r1, r2, r3, r5, r8}	; <UNPREDICTABLE>
     12c:	0b3a0803 	bleq	e82140 <__bss_end__+0xe782e0>
     130:	19270b3b 	stmdbne	r7!, {r0, r1, r3, r4, r5, r8, r9, fp}
     134:	06120111 			; <UNDEFINED> instruction: 0x06120111
     138:	42971840 	addsmi	r1, r7, #64, 16	; 0x400000
     13c:	00130119 	andseq	r0, r3, r9, lsl r1
     140:	00051900 	andeq	r1, r5, r0, lsl #18
     144:	0b3a0803 	bleq	e82158 <__bss_end__+0xe782f8>
     148:	13490b3b 	movtne	r0, #39739	; 0x9b3b
     14c:	00001702 	andeq	r1, r0, r2, lsl #14
     150:	0182891a 	orreq	r8, r2, sl, lsl r9
     154:	31011101 	tstcc	r1, r1, lsl #2
     158:	00130113 	andseq	r0, r3, r3, lsl r1
     15c:	82891b00 	addhi	r1, r9, #0, 22
     160:	01110001 	tsteq	r1, r1
     164:	00001331 	andeq	r1, r0, r1, lsr r3
     168:	0300341c 	movweq	r3, #1052	; 0x41c
     16c:	3b0b3a0e 	blcc	2ce9ac <__bss_end__+0x2c4b4c>
     170:	0213490b 	andseq	r4, r3, #180224	; 0x2c000
     174:	1d000018 	stcne	0, cr0, [r0, #-96]	; 0xffffffa0
     178:	08030034 	stmdaeq	r3, {r2, r4, r5}
     17c:	0b3b0b3a 	bleq	ec2e6c <__bss_end__+0xeb900c>
     180:	17021349 	strne	r1, [r2, -r9, asr #6]
     184:	341e0000 	ldrcc	r0, [lr], #-0
     188:	3a080300 	bcc	200d90 <__bss_end__+0x1f6f30>
     18c:	490b3b0b 	stmdbmi	fp, {r0, r1, r3, r8, r9, fp, ip, sp}
     190:	00180213 	andseq	r0, r8, r3, lsl r2
     194:	010b1f00 	tsteq	fp, r0, lsl #30
     198:	06120111 			; <UNDEFINED> instruction: 0x06120111
     19c:	00001301 	andeq	r1, r0, r1, lsl #6
     1a0:	01828920 	orreq	r8, r2, r0, lsr #18
     1a4:	93011100 	movwls	r1, #4352	; 0x1100
     1a8:	00001842 	andeq	r1, r0, r2, asr #16
     1ac:	3f012e21 	svccc	0x00012e21
     1b0:	3a0e0319 	bcc	380e1c <__bss_end__+0x376fbc>
     1b4:	270b3b0b 	strcs	r3, [fp, -fp, lsl #22]
     1b8:	3c134919 	ldccc	9, cr4, [r3], {25}
     1bc:	00130119 	andseq	r0, r3, r9, lsl r1
     1c0:	00052200 	andeq	r2, r5, r0, lsl #4
     1c4:	00001349 	andeq	r1, r0, r9, asr #6
     1c8:	00001823 	andeq	r1, r0, r3, lsr #16
     1cc:	002e2400 	eoreq	r2, lr, r0, lsl #8
     1d0:	0e03193f 	mcreq	9, 0, r1, cr3, cr15, {1}
     1d4:	0b3b0b3a 	bleq	ec2ec4 <__bss_end__+0xeb9064>
     1d8:	193c1927 	ldmdbne	ip!, {r0, r1, r2, r5, r8, fp, ip}
     1dc:	01000000 	mrseq	r0, (UNDEF: 0)
     1e0:	0e250111 	mcreq	1, 1, r0, cr5, cr1, {0}
     1e4:	0e030b13 	vmoveq.32	d3[0], r0
     1e8:	01110e1b 	tsteq	r1, fp, lsl lr
     1ec:	17100612 			; <UNDEFINED> instruction: 0x17100612
     1f0:	16020000 	strne	r0, [r2], -r0
     1f4:	3a0e0300 	bcc	380dfc <__bss_end__+0x376f9c>
     1f8:	490b3b0b 	stmdbmi	fp, {r0, r1, r3, r8, r9, fp, ip, sp}
     1fc:	03000013 	movweq	r0, #19
     200:	0e030113 	mcreq	1, 0, r0, cr3, cr3, {0}
     204:	0b3a0b0b 	bleq	e82e38 <__bss_end__+0xe78fd8>
     208:	13010b3b 	movwne	r0, #6971	; 0x1b3b
     20c:	0d040000 	stceq	0, cr0, [r4, #-0]
     210:	490e0300 	stmdbmi	lr, {r8, r9}
     214:	340b3813 	strcc	r3, [fp], #-2067	; 0x813
     218:	05000019 	streq	r0, [r0, #-25]
     21c:	0b0b000f 	bleq	2c0260 <__bss_end__+0x2b6400>
     220:	24060000 	strcs	r0, [r6], #-0
     224:	3e0b0b00 	vmlacc.f64	d0, d11, d0
     228:	0008030b 	andeq	r0, r8, fp, lsl #6
     22c:	00240700 	eoreq	r0, r4, r0, lsl #14
     230:	0b3e0b0b 	bleq	f82e64 <__bss_end__+0xf79004>
     234:	00000e03 	andeq	r0, r0, r3, lsl #28
     238:	0b000f08 	bleq	3e60 <_start-0x41a0>
     23c:	0013490b 	andseq	r4, r3, fp, lsl #18
     240:	00260900 	eoreq	r0, r6, r0, lsl #18
     244:	00001349 	andeq	r1, r0, r9, asr #6
     248:	3f012e0a 	svccc	0x00012e0a
     24c:	3a0e0319 	bcc	380eb8 <__bss_end__+0x377058>
     250:	270b3b0b 	strcs	r3, [fp, -fp, lsl #22]
     254:	11134919 	tstne	r3, r9, lsl r9
     258:	40061201 	andmi	r1, r6, r1, lsl #4
     25c:	19429718 	stmdbne	r2, {r3, r4, r8, r9, sl, ip, pc}^
     260:	00001301 	andeq	r1, r0, r1, lsl #6
     264:	0300050b 	movweq	r0, #1291	; 0x50b
     268:	3b0b3a08 	blcc	2cea90 <__bss_end__+0x2c4c30>
     26c:	0213490b 	andseq	r4, r3, #180224	; 0x2c000
     270:	0c000018 	stceq	0, cr0, [r0], {24}
     274:	00000018 	andeq	r0, r0, r8, lsl r0
     278:	0300340d 	movweq	r3, #1037	; 0x40d
     27c:	3b0b3a08 	blcc	2ceaa4 <__bss_end__+0x2c4c44>
     280:	0213490b 	andseq	r4, r3, #180224	; 0x2c000
     284:	0e000018 	mcreq	0, 0, r0, cr0, cr8, {0}
     288:	0e030034 	mcreq	0, 0, r0, cr3, cr4, {1}
     28c:	0b3b0b3a 	bleq	ec2f7c <__bss_end__+0xeb911c>
     290:	18021349 	stmdane	r2, {r0, r3, r6, r8, r9, ip}
     294:	340f0000 	strcc	r0, [pc], #-0	; 29c <_start-0x7d64>
     298:	3a080300 	bcc	200ea0 <__bss_end__+0x1f7040>
     29c:	490b3b0b 	stmdbmi	fp, {r0, r1, r3, r8, r9, fp, ip, sp}
     2a0:	00170213 	andseq	r0, r7, r3, lsl r2
     2a4:	82891000 	addhi	r1, r9, #0
     2a8:	01110101 	tsteq	r1, r1, lsl #2
     2ac:	13011331 	movwne	r1, #4913	; 0x1331
     2b0:	8a110000 	bhi	4402b8 <__bss_end__+0x436458>
     2b4:	02000182 	andeq	r0, r0, #-2147483616	; 0x80000020
     2b8:	18429118 	stmdane	r2, {r3, r4, r8, ip, pc}^
     2bc:	89120000 	ldmdbhi	r2, {}	; <UNPREDICTABLE>
     2c0:	11010182 	smlabbne	r1, r2, r1, r0
     2c4:	13000001 	movwne	r0, #1
     2c8:	13490101 	movtne	r0, #37121	; 0x9101
     2cc:	00001301 	andeq	r1, r0, r1, lsl #6
     2d0:	49002114 	stmdbmi	r0, {r2, r4, r8, sp}
     2d4:	00052f13 	andeq	r2, r5, r3, lsl pc
     2d8:	01151500 	tsteq	r5, r0, lsl #10
     2dc:	13491927 	movtne	r1, #39207	; 0x9927
     2e0:	00001301 	andeq	r1, r0, r1, lsl #6
     2e4:	49000516 	stmdbmi	r0, {r1, r2, r4, r8, sl}
     2e8:	17000013 	smladne	r0, r3, r0, r0
     2ec:	0e030034 	mcreq	0, 0, r0, cr3, cr4, {1}
     2f0:	0b3b0b3a 	bleq	ec2fe0 <__bss_end__+0xeb9180>
     2f4:	193f1349 	ldmdbne	pc!, {r0, r3, r6, r8, r9, ip}	; <UNPREDICTABLE>
     2f8:	0000193c 	andeq	r1, r0, ip, lsr r9
     2fc:	3f012e18 	svccc	0x00012e18
     300:	3a0e0319 	bcc	380f6c <__bss_end__+0x37710c>
     304:	270b3b0b 	strcs	r3, [fp, -fp, lsl #22]
     308:	3c134919 	ldccc	9, cr4, [r3], {25}
     30c:	00000019 	andeq	r0, r0, r9, lsl r0
     310:	25011101 	strcs	r1, [r1, #-257]	; 0x101
     314:	030b130e 	movweq	r1, #45838	; 0xb30e
     318:	110e1b0e 	tstne	lr, lr, lsl #22
     31c:	10061201 	andne	r1, r6, r1, lsl #4
     320:	02000017 	andeq	r0, r0, #23
     324:	0b0b0024 	bleq	2c03bc <__bss_end__+0x2b655c>
     328:	08030b3e 	stmdaeq	r3, {r1, r2, r3, r4, r5, r8, r9, fp}
     32c:	24030000 	strcs	r0, [r3], #-0
     330:	3e0b0b00 	vmlacc.f64	d0, d11, d0
     334:	000e030b 	andeq	r0, lr, fp, lsl #6
     338:	000f0400 	andeq	r0, pc, r0, lsl #8
     33c:	13490b0b 	movtne	r0, #39691	; 0x9b0b
     340:	26050000 	strcs	r0, [r5], -r0
     344:	00134900 	andseq	r4, r3, r0, lsl #18
     348:	012e0600 	teqeq	lr, r0, lsl #12
     34c:	0e03193f 	mcreq	9, 0, r1, cr3, cr15, {1}
     350:	0b3b0b3a 	bleq	ec3040 <__bss_end__+0xeb91e0>
     354:	13491927 	movtne	r1, #39207	; 0x9927
     358:	06120111 			; <UNDEFINED> instruction: 0x06120111
     35c:	42961840 	addsmi	r1, r6, #64, 16	; 0x400000
     360:	00130119 	andseq	r0, r3, r9, lsl r1
     364:	00050700 	andeq	r0, r5, r0, lsl #14
     368:	0b3a0803 	bleq	e8237c <__bss_end__+0xe7851c>
     36c:	13490b3b 	movtne	r0, #39739	; 0x9b3b
     370:	00001702 	andeq	r1, r0, r2, lsl #14
     374:	27011508 	strcs	r1, [r1, -r8, lsl #10]
     378:	01134919 	tsteq	r3, r9, lsl r9
     37c:	09000013 	stmdbeq	r0, {r0, r1, r4}
     380:	13490005 	movtne	r0, #36869	; 0x9005
     384:	340a0000 	strcc	r0, [sl], #-0
     388:	3a0e0300 	bcc	380f90 <__bss_end__+0x377130>
     38c:	490b3b0b 	stmdbmi	fp, {r0, r1, r3, r8, r9, fp, ip, sp}
     390:	3c193f13 	ldccc	15, cr3, [r9], {19}
     394:	0b000019 	bleq	400 <_start-0x7c00>
     398:	0e030034 	mcreq	0, 0, r0, cr3, cr4, {1}
     39c:	0b3b0b3a 	bleq	ec308c <__bss_end__+0xeb922c>
     3a0:	193f1349 	ldmdbne	pc!, {r0, r3, r6, r8, r9, ip}	; <UNPREDICTABLE>
     3a4:	00001802 	andeq	r1, r0, r2, lsl #16
     3a8:	01110100 	tsteq	r1, r0, lsl #2
     3ac:	0b130e25 	bleq	4c3c48 <__bss_end__+0x4b9de8>
     3b0:	0e1b0e03 	cdpeq	14, 1, cr0, cr11, cr3, {0}
     3b4:	06120111 			; <UNDEFINED> instruction: 0x06120111
     3b8:	00001710 	andeq	r1, r0, r0, lsl r7
     3bc:	0b002402 	bleq	93cc <gpio_event_detected+0x4>
     3c0:	030b3e0b 	movweq	r3, #48651	; 0xbe0b
     3c4:	03000008 	movweq	r0, #8
     3c8:	0b0b0024 	bleq	2c0460 <__bss_end__+0x2b6600>
     3cc:	0e030b3e 	vmoveq.16	d3[0], r0
     3d0:	0f040000 	svceq	0x00040000
     3d4:	000b0b00 	andeq	r0, fp, r0, lsl #22
     3d8:	000f0500 	andeq	r0, pc, r0, lsl #10
     3dc:	13490b0b 	movtne	r0, #39691	; 0x9b0b
     3e0:	26060000 	strcs	r0, [r6], -r0
     3e4:	00134900 	andseq	r4, r3, r0, lsl #18
     3e8:	00160700 	andseq	r0, r6, r0, lsl #14
     3ec:	0b3a0e03 	bleq	e83c00 <__bss_end__+0xe79da0>
     3f0:	13490b3b 	movtne	r0, #39739	; 0x9b3b
     3f4:	13080000 	movwne	r0, #32768	; 0x8000
     3f8:	0b0e0301 	bleq	381004 <__bss_end__+0x3771a4>
     3fc:	3b0b3a0b 	blcc	2cec30 <__bss_end__+0x2c4dd0>
     400:	0013010b 	andseq	r0, r3, fp, lsl #2
     404:	000d0900 	andeq	r0, sp, r0, lsl #18
     408:	13490e03 	movtne	r0, #40451	; 0x9e03
     40c:	19340b38 	ldmdbne	r4!, {r3, r4, r5, r8, r9, fp}
     410:	2e0a0000 	cdpcs	0, 0, cr0, cr10, cr0, {0}
     414:	3a0e0301 	bcc	381020 <__bss_end__+0x3771c0>
     418:	270b3b0b 	strcs	r3, [fp, -fp, lsl #22]
     41c:	11134919 	tstne	r3, r9, lsl r9
     420:	40061201 	andmi	r1, r6, r1, lsl #4
     424:	19429718 	stmdbne	r2, {r3, r4, r8, r9, sl, ip, pc}^
     428:	00001301 	andeq	r1, r0, r1, lsl #6
     42c:	0300050b 	movweq	r0, #1291	; 0x50b
     430:	3b0b3a08 	blcc	2cec58 <__bss_end__+0x2c4df8>
     434:	0213490b 	andseq	r4, r3, #180224	; 0x2c000
     438:	0c000017 	stceq	0, cr0, [r0], {23}
     43c:	0803012e 	stmdaeq	r3, {r1, r2, r3, r5, r8}
     440:	0b3b0b3a 	bleq	ec3130 <__bss_end__+0xeb92d0>
     444:	13491927 	movtne	r1, #39207	; 0x9927
     448:	06120111 			; <UNDEFINED> instruction: 0x06120111
     44c:	42971840 	addsmi	r1, r7, #64, 16	; 0x400000
     450:	00130119 	andseq	r0, r3, r9, lsl r1
     454:	00050d00 	andeq	r0, r5, r0, lsl #26
     458:	0b3a0e03 	bleq	e83c6c <__bss_end__+0xe79e0c>
     45c:	13490b3b 	movtne	r0, #39739	; 0x9b3b
     460:	00001702 	andeq	r1, r0, r2, lsl #14
     464:	0300050e 	movweq	r0, #1294	; 0x50e
     468:	3b0b3a0e 	blcc	2ceca8 <__bss_end__+0x2c4e48>
     46c:	0213490b 	andseq	r4, r3, #180224	; 0x2c000
     470:	0f000018 	svceq	0x00000018
     474:	08030034 	stmdaeq	r3, {r2, r4, r5}
     478:	0b3b0b3a 	bleq	ec3168 <__bss_end__+0xeb9308>
     47c:	18021349 	stmdane	r2, {r0, r3, r6, r8, r9, ip}
     480:	34100000 	ldrcc	r0, [r0], #-0
     484:	3a080300 	bcc	20108c <__bss_end__+0x1f722c>
     488:	490b3b0b 	stmdbmi	fp, {r0, r1, r3, r8, r9, fp, ip, sp}
     48c:	00170213 	andseq	r0, r7, r3, lsl r2
     490:	00341100 	eorseq	r1, r4, r0, lsl #2
     494:	13490e03 	movtne	r0, #40451	; 0x9e03
     498:	18021934 	stmdane	r2, {r2, r4, r5, r8, fp, ip}
     49c:	0b120000 	bleq	4804a4 <__bss_end__+0x476644>
     4a0:	12011101 	andne	r1, r1, #1073741824	; 0x40000000
     4a4:	00130106 	andseq	r0, r3, r6, lsl #2
     4a8:	00341300 	eorseq	r1, r4, r0, lsl #6
     4ac:	0b3a0e03 	bleq	e83cc0 <__bss_end__+0xe79e60>
     4b0:	13490b3b 	movtne	r0, #39739	; 0x9b3b
     4b4:	00001702 	andeq	r1, r0, r2, lsl #14
     4b8:	01828914 	orreq	r8, r2, r4, lsl r9
     4bc:	31011100 	mrscc	r1, (UNDEF: 17)
     4c0:	15000013 	strne	r0, [r0, #-19]
     4c4:	01018289 	smlabbeq	r1, r9, r2, r8
     4c8:	13310111 	teqne	r1, #1073741828	; 0x40000004
     4cc:	00001301 	andeq	r1, r0, r1, lsl #6
     4d0:	01828a16 	orreq	r8, r2, r6, lsl sl
     4d4:	91180200 	tstls	r8, r0, lsl #4
     4d8:	00001842 	andeq	r1, r0, r2, asr #16
     4dc:	01828917 	orreq	r8, r2, r7, lsl r9
     4e0:	31011101 	tstcc	r1, r1, lsl #2
     4e4:	18000013 	stmdane	r0, {r0, r1, r4}
     4e8:	13490101 	movtne	r0, #37121	; 0x9101
     4ec:	00001301 	andeq	r1, r0, r1, lsl #6
     4f0:	49002119 	stmdbmi	r0, {r0, r3, r4, r8, sp}
     4f4:	000b2f13 	andeq	r2, fp, r3, lsl pc
     4f8:	012e1a00 	teqeq	lr, r0, lsl #20
     4fc:	0e03193f 	mcreq	9, 0, r1, cr3, cr15, {1}
     500:	0b3b0b3a 	bleq	ec31f0 <__bss_end__+0xeb9390>
     504:	01111927 	tsteq	r1, r7, lsr #18
     508:	18400612 	stmdane	r0, {r1, r4, r9, sl}^
     50c:	01194297 			; <UNDEFINED> instruction: 0x01194297
     510:	1b000013 	blne	564 <_start-0x7a9c>
     514:	19270115 	stmdbne	r7!, {r0, r2, r4, r8}
     518:	13011349 	movwne	r1, #4937	; 0x1349
     51c:	051c0000 	ldreq	r0, [ip, #-0]
     520:	00134900 	andseq	r4, r3, r0, lsl #18
     524:	012e1d00 	teqeq	lr, r0, lsl #26
     528:	0e03193f 	mcreq	9, 0, r1, cr3, cr15, {1}
     52c:	0b3b0b3a 	bleq	ec321c <__bss_end__+0xeb93bc>
     530:	13491927 	movtne	r1, #39207	; 0x9927
     534:	06120111 			; <UNDEFINED> instruction: 0x06120111
     538:	42971840 	addsmi	r1, r7, #64, 16	; 0x400000
     53c:	00130119 	andseq	r0, r3, r9, lsl r1
     540:	010b1e00 	tsteq	fp, r0, lsl #28
     544:	00001755 	andeq	r1, r0, r5, asr r7
     548:	0300341f 	movweq	r3, #1055	; 0x41f
     54c:	3b0b3a0e 	blcc	2ced8c <__bss_end__+0x2c4f2c>
     550:	3f13490b 	svccc	0x0013490b
     554:	00193c19 	andseq	r3, r9, r9, lsl ip
     558:	002e2000 	eoreq	r2, lr, r0
     55c:	0e03193f 	mcreq	9, 0, r1, cr3, cr15, {1}
     560:	0b3b0b3a 	bleq	ec3250 <__bss_end__+0xeb93f0>
     564:	193c1927 	ldmdbne	ip!, {r0, r1, r2, r5, r8, fp, ip}
     568:	2e210000 	cdpcs	0, 2, cr0, cr1, cr0, {0}
     56c:	03193f01 	tsteq	r9, #1, 30
     570:	3b0b3a0e 	blcc	2cedb0 <__bss_end__+0x2c4f50>
     574:	4919270b 	ldmdbmi	r9, {r0, r1, r3, r8, r9, sl, sp}
     578:	01193c13 	tsteq	r9, r3, lsl ip
     57c:	22000013 	andcs	r0, r0, #19
     580:	00000018 	andeq	r0, r0, r8, lsl r0
     584:	01110100 	tsteq	r1, r0, lsl #2
     588:	0b130e25 	bleq	4c3e24 <__bss_end__+0x4b9fc4>
     58c:	0e1b0e03 	cdpeq	14, 1, cr0, cr11, cr3, {0}
     590:	06120111 			; <UNDEFINED> instruction: 0x06120111
     594:	00001710 	andeq	r1, r0, r0, lsl r7
     598:	0b002402 	bleq	95a8 <uart_init+0x78>
     59c:	030b3e0b 	movweq	r3, #48651	; 0xbe0b
     5a0:	03000008 	movweq	r0, #8
     5a4:	0b0b0024 	bleq	2c063c <__bss_end__+0x2b67dc>
     5a8:	0e030b3e 	vmoveq.16	d3[0], r0
     5ac:	0f040000 	svceq	0x00040000
     5b0:	490b0b00 	stmdbmi	fp, {r8, r9, fp}
     5b4:	05000013 	streq	r0, [r0, #-19]
     5b8:	13490026 	movtne	r0, #36902	; 0x9026
     5bc:	2e060000 	cdpcs	0, 0, cr0, cr6, cr0, {0}
     5c0:	03193f01 	tsteq	r9, #1, 30
     5c4:	3b0b3a0e 	blcc	2cee04 <__bss_end__+0x2c4fa4>
     5c8:	1119270b 	tstne	r9, fp, lsl #14
     5cc:	40061201 	andmi	r1, r6, r1, lsl #4
     5d0:	19429718 	stmdbne	r2, {r3, r4, r8, r9, sl, ip, pc}^
     5d4:	00001301 	andeq	r1, r0, r1, lsl #6
     5d8:	01828907 	orreq	r8, r2, r7, lsl #18
     5dc:	01011101 	tsteq	r1, r1, lsl #2
     5e0:	08000013 	stmdaeq	r0, {r0, r1, r4}
     5e4:	0001828a 	andeq	r8, r1, sl, lsl #5
     5e8:	42911802 	addsmi	r1, r1, #131072	; 0x20000
     5ec:	09000018 	stmdbeq	r0, {r3, r4}
     5f0:	01018289 	smlabbeq	r1, r9, r2, r8
     5f4:	13310111 	teqne	r1, #1073741828	; 0x40000004
     5f8:	00001301 	andeq	r1, r0, r1, lsl #6
     5fc:	0182890a 	orreq	r8, r2, sl, lsl #18
     600:	31011100 	mrscc	r1, (UNDEF: 17)
     604:	0b000013 	bleq	658 <_start-0x79a8>
     608:	19270115 	stmdbne	r7!, {r0, r2, r4, r8}
     60c:	13011349 	movwne	r1, #4937	; 0x1349
     610:	050c0000 	streq	r0, [ip, #-0]
     614:	00134900 	andseq	r4, r3, r0, lsl #18
     618:	00340d00 	eorseq	r0, r4, r0, lsl #26
     61c:	0b3a0e03 	bleq	e83e30 <__bss_end__+0xe79fd0>
     620:	13490b3b 	movtne	r0, #39739	; 0x9b3b
     624:	193c193f 	ldmdbne	ip!, {r0, r1, r2, r3, r4, r5, r8, fp, ip}
     628:	2e0e0000 	cdpcs	0, 0, cr0, cr14, cr0, {0}
     62c:	03193f01 	tsteq	r9, #1, 30
     630:	3b0b3a0e 	blcc	2cee70 <__bss_end__+0x2c5010>
     634:	3c19270b 	ldccc	7, cr2, [r9], {11}
     638:	00130119 	andseq	r0, r3, r9, lsl r1
     63c:	002e0f00 	eoreq	r0, lr, r0, lsl #30
     640:	0e03193f 	mcreq	9, 0, r1, cr3, cr15, {1}
     644:	0b3b0b3a 	bleq	ec3334 <__bss_end__+0xeb94d4>
     648:	193c1927 	ldmdbne	ip!, {r0, r1, r2, r5, r8, fp, ip}
     64c:	01000000 	mrseq	r0, (UNDEF: 0)
     650:	0e250111 	mcreq	1, 1, r0, cr5, cr1, {0}
     654:	0e030b13 	vmoveq.32	d3[0], r0
     658:	01110e1b 	tsteq	r1, fp, lsl lr
     65c:	17100612 			; <UNDEFINED> instruction: 0x17100612
     660:	24020000 	strcs	r0, [r2], #-0
     664:	3e0b0b00 	vmlacc.f64	d0, d11, d0
     668:	0008030b 	andeq	r0, r8, fp, lsl #6
     66c:	00240300 	eoreq	r0, r4, r0, lsl #6
     670:	0b3e0b0b 	bleq	f832a4 <__bss_end__+0xf79444>
     674:	00000e03 	andeq	r0, r0, r3, lsl #28
     678:	03001604 	movweq	r1, #1540	; 0x604
     67c:	3b0b3a0e 	blcc	2ceebc <__bss_end__+0x2c505c>
     680:	0013490b 	andseq	r4, r3, fp, lsl #18
     684:	000f0500 	andeq	r0, pc, r0, lsl #10
     688:	13490b0b 	movtne	r0, #39691	; 0x9b0b
     68c:	26060000 	strcs	r0, [r6], -r0
     690:	00134900 	andseq	r4, r3, r0, lsl #18
     694:	01130700 	tsteq	r3, r0, lsl #14
     698:	0b3a0b0b 	bleq	e832cc <__bss_end__+0xe7946c>
     69c:	13010b3b 	movwne	r0, #6971	; 0x1b3b
     6a0:	0d080000 	stceq	0, cr0, [r8, #-0]
     6a4:	3a080300 	bcc	2012ac <__bss_end__+0x1f744c>
     6a8:	490b3b0b 	stmdbmi	fp, {r0, r1, r3, r8, r9, fp, ip, sp}
     6ac:	000b3813 	andeq	r3, fp, r3, lsl r8
     6b0:	000d0900 	andeq	r0, sp, r0, lsl #18
     6b4:	0b3a0e03 	bleq	e83ec8 <__bss_end__+0xe7a068>
     6b8:	13490b3b 	movtne	r0, #39739	; 0x9b3b
     6bc:	00000b38 	andeq	r0, r0, r8, lsr fp
     6c0:	0b01040a 	bleq	416f0 <__bss_end__+0x37890>
     6c4:	3b0b3a0b 	blcc	2ceef8 <__bss_end__+0x2c5098>
     6c8:	0013010b 	andseq	r0, r3, fp, lsl #2
     6cc:	00280b00 	eoreq	r0, r8, r0, lsl #22
     6d0:	0d1c0e03 	ldceq	14, cr0, [ip, #-12]
     6d4:	2e0c0000 	cdpcs	0, 0, cr0, cr12, cr0, {0}
     6d8:	3a0e0301 	bcc	3812e4 <__bss_end__+0x377484>
     6dc:	270b3b0b 	strcs	r3, [fp, -fp, lsl #22]
     6e0:	11134919 	tstne	r3, r9, lsl r9
     6e4:	40061201 	andmi	r1, r6, r1, lsl #4
     6e8:	19429718 	stmdbne	r2, {r3, r4, r8, r9, sl, ip, pc}^
     6ec:	00001301 	andeq	r1, r0, r1, lsl #6
     6f0:	0300050d 	movweq	r0, #1293	; 0x50d
     6f4:	3b0b3a08 	blcc	2cef1c <__bss_end__+0x2c50bc>
     6f8:	0213490b 	andseq	r4, r3, #180224	; 0x2c000
     6fc:	0e000017 	mcreq	0, 0, r0, cr0, cr7, {0}
     700:	01018289 	smlabbeq	r1, r9, r2, r8
     704:	13310111 	teqne	r1, #1073741828	; 0x40000004
     708:	8a0f0000 	bhi	3c0710 <__bss_end__+0x3b68b0>
     70c:	02000182 	andeq	r0, r0, #-2147483616	; 0x80000020
     710:	18429118 	stmdane	r2, {r3, r4, r8, ip, pc}^
     714:	2e100000 	cdpcs	0, 1, cr0, cr0, cr0, {0}
     718:	03193f01 	tsteq	r9, #1, 30
     71c:	3b0b3a0e 	blcc	2cef5c <__bss_end__+0x2c50fc>
     720:	1201110b 	andne	r1, r1, #-1073741822	; 0xc0000002
     724:	97184006 	ldrls	r4, [r8, -r6]
     728:	13011942 	movwne	r1, #6466	; 0x1942
     72c:	34110000 	ldrcc	r0, [r1], #-0
     730:	3a0e0300 	bcc	381338 <__bss_end__+0x3774d8>
     734:	490b3b0b 	stmdbmi	fp, {r0, r1, r3, r8, r9, fp, ip, sp}
     738:	3c193f13 	ldccc	15, cr3, [r9], {19}
     73c:	12000019 	andne	r0, r0, #25
     740:	193f002e 	ldmdbne	pc!, {r1, r2, r3, r5}	; <UNPREDICTABLE>
     744:	0b3a0e03 	bleq	e83f58 <__bss_end__+0xe7a0f8>
     748:	19270b3b 	stmdbne	r7!, {r0, r1, r3, r4, r5, r8, r9, fp}
     74c:	0000193c 	andeq	r1, r0, ip, lsr r9
     750:	03003413 	movweq	r3, #1043	; 0x413
     754:	3b0b3a08 	blcc	2cef7c <__bss_end__+0x2c511c>
     758:	0213490b 	andseq	r4, r3, #180224	; 0x2c000
     75c:	14000017 	strne	r0, [r0], #-23
     760:	0e030034 	mcreq	0, 0, r0, cr3, cr4, {1}
     764:	0b3b0b3a 	bleq	ec3454 <__bss_end__+0xeb95f4>
     768:	00001349 	andeq	r1, r0, r9, asr #6
     76c:	01828915 	orreq	r8, r2, r5, lsl r9
     770:	31011100 	mrscc	r1, (UNDEF: 17)
     774:	16000013 			; <UNDEFINED> instruction: 0x16000013
     778:	01018289 	smlabbeq	r1, r9, r2, r8
     77c:	13310111 	teqne	r1, #1073741828	; 0x40000004
     780:	00001301 	andeq	r1, r0, r1, lsl #6
     784:	03003417 	movweq	r3, #1047	; 0x417
     788:	3b0b3a0e 	blcc	2cefc8 <__bss_end__+0x2c5168>
     78c:	0213490b 	andseq	r4, r3, #180224	; 0x2c000
     790:	18000018 	stmdane	r0, {r3, r4}
     794:	19270115 	stmdbne	r7!, {r0, r2, r4, r8}
     798:	13011349 	movwne	r1, #4937	; 0x1349
     79c:	05190000 	ldreq	r0, [r9, #-0]
     7a0:	00134900 	andseq	r4, r3, r0, lsl #18
     7a4:	012e1a00 	teqeq	lr, r0, lsl #20
     7a8:	0e03193f 	mcreq	9, 0, r1, cr3, cr15, {1}
     7ac:	0b3b0b3a 	bleq	ec349c <__bss_end__+0xeb963c>
     7b0:	193c1927 	ldmdbne	ip!, {r0, r1, r2, r5, r8, fp, ip}
     7b4:	00001301 	andeq	r1, r0, r1, lsl #6
     7b8:	3f002e1b 	svccc	0x00002e1b
     7bc:	3a0e0319 	bcc	381428 <__bss_end__+0x3775c8>
     7c0:	270b3b0b 	strcs	r3, [fp, -fp, lsl #22]
     7c4:	3c134919 	ldccc	9, cr4, [r3], {25}
     7c8:	1c000019 	stcne	0, cr0, [r0], {25}
     7cc:	193f012e 	ldmdbne	pc!, {r1, r2, r3, r5, r8}	; <UNPREDICTABLE>
     7d0:	0b3a0e03 	bleq	e83fe4 <__bss_end__+0xe7a184>
     7d4:	19270b3b 	stmdbne	r7!, {r0, r1, r3, r4, r5, r8, r9, fp}
     7d8:	193c1349 	ldmdbne	ip!, {r0, r3, r6, r8, r9, ip}
     7dc:	00001301 	andeq	r1, r0, r1, lsl #6
     7e0:	0000181d 	andeq	r1, r0, sp, lsl r8
     7e4:	11010000 	mrsne	r0, (UNDEF: 1)
     7e8:	130e2501 	movwne	r2, #58625	; 0xe501
     7ec:	1b0e030b 	blne	381420 <__bss_end__+0x3775c0>
     7f0:	1117550e 	tstne	r7, lr, lsl #10
     7f4:	00171001 	andseq	r1, r7, r1
     7f8:	00240200 	eoreq	r0, r4, r0, lsl #4
     7fc:	0b3e0b0b 	bleq	f83430 <__bss_end__+0xf795d0>
     800:	00000803 	andeq	r0, r0, r3, lsl #16
     804:	0b002403 	bleq	9818 <__FUNCTION__.4285+0x1c>
     808:	030b3e0b 	movweq	r3, #48651	; 0xbe0b
     80c:	0400000e 	streq	r0, [r0], #-14
     810:	193f012e 	ldmdbne	pc!, {r1, r2, r3, r5, r8}	; <UNPREDICTABLE>
     814:	0b3a0e03 	bleq	e84028 <__bss_end__+0xe7a1c8>
     818:	19270b3b 	stmdbne	r7!, {r0, r1, r3, r4, r5, r8, r9, fp}
     81c:	01111349 	tsteq	r1, r9, asr #6
     820:	18400612 	stmdane	r0, {r1, r4, r9, sl}^
     824:	01194297 			; <UNDEFINED> instruction: 0x01194297
     828:	05000013 	streq	r0, [r0, #-19]
     82c:	0e030034 	mcreq	0, 0, r0, cr3, cr4, {1}
     830:	0b3b0b3a 	bleq	ec3520 <__bss_end__+0xeb96c0>
     834:	17021349 	strne	r1, [r2, -r9, asr #6]
     838:	2e060000 	cdpcs	0, 0, cr0, cr6, cr0, {0}
     83c:	03193f01 	tsteq	r9, #1, 30
     840:	3b0b3a0e 	blcc	2cf080 <__bss_end__+0x2c5220>
     844:	1119270b 	tstne	r9, fp, lsl #14
     848:	40061201 	andmi	r1, r6, r1, lsl #4
     84c:	19429718 	stmdbne	r2, {r3, r4, r8, r9, sl, ip, pc}^
     850:	00001301 	andeq	r1, r0, r1, lsl #6
     854:	03003407 	movweq	r3, #1031	; 0x407
     858:	3b0b3a0e 	blcc	2cf098 <__bss_end__+0x2c5238>
     85c:	1c13490b 	ldcne	9, cr4, [r3], {11}
     860:	08000006 	stmdaeq	r0, {r1, r2}
     864:	0e030034 	mcreq	0, 0, r0, cr3, cr4, {1}
     868:	0b3b0b3a 	bleq	ec3558 <__bss_end__+0xeb96f8>
     86c:	0b1c1349 	bleq	705598 <__bss_end__+0x6fb738>
     870:	89090000 	stmdbhi	r9, {}	; <UNPREDICTABLE>
     874:	11000182 	smlabbne	r0, r2, r1, r0
     878:	00133101 	andseq	r3, r3, r1, lsl #2
     87c:	82890a00 	addhi	r0, r9, #0, 20
     880:	01110101 	tsteq	r1, r1, lsl #2
     884:	13011331 	movwne	r1, #4913	; 0x1331
     888:	8a0b0000 	bhi	2c0890 <__bss_end__+0x2b6a30>
     88c:	02000182 	andeq	r0, r0, #-2147483616	; 0x80000020
     890:	18429118 	stmdane	r2, {r3, r4, r8, ip, pc}^
     894:	890c0000 	stmdbhi	ip, {}	; <UNPREDICTABLE>
     898:	11010182 	smlabbne	r1, r2, r1, r0
     89c:	00133101 	andseq	r3, r3, r1, lsl #2
     8a0:	00260d00 	eoreq	r0, r6, r0, lsl #26
     8a4:	00001349 	andeq	r1, r0, r9, asr #6
     8a8:	3f012e0e 	svccc	0x00012e0e
     8ac:	3a0e0319 	bcc	381518 <__bss_end__+0x3776b8>
     8b0:	270b3b0b 	strcs	r3, [fp, -fp, lsl #22]
     8b4:	01193c19 	tsteq	r9, r9, lsl ip
     8b8:	0f000013 	svceq	0x00000013
     8bc:	13490005 	movtne	r0, #36869	; 0x9005
     8c0:	2e100000 	cdpcs	0, 1, cr0, cr0, cr0, {0}
     8c4:	03193f01 	tsteq	r9, #1, 30
     8c8:	3b0b3a0e 	blcc	2cf108 <__bss_end__+0x2c52a8>
     8cc:	3c19270b 	ldccc	7, cr2, [r9], {11}
     8d0:	00000019 	andeq	r0, r0, r9, lsl r0
     8d4:	25011101 	strcs	r1, [r1, #-257]	; 0x101
     8d8:	030b130e 	movweq	r1, #45838	; 0xb30e
     8dc:	110e1b0e 	tstne	lr, lr, lsl #22
     8e0:	10061201 	andne	r1, r6, r1, lsl #4
     8e4:	02000017 	andeq	r0, r0, #23
     8e8:	0b0b0024 	bleq	2c0980 <__bss_end__+0x2b6b20>
     8ec:	08030b3e 	stmdaeq	r3, {r1, r2, r3, r4, r5, r8, r9, fp}
     8f0:	24030000 	strcs	r0, [r3], #-0
     8f4:	3e0b0b00 	vmlacc.f64	d0, d11, d0
     8f8:	000e030b 	andeq	r0, lr, fp, lsl #6
     8fc:	012e0400 	teqeq	lr, r0, lsl #8
     900:	0e03193f 	mcreq	9, 0, r1, cr3, cr15, {1}
     904:	0b3b0b3a 	bleq	ec35f4 <__bss_end__+0xeb9794>
     908:	01111927 	tsteq	r1, r7, lsr #18
     90c:	18400612 	stmdane	r0, {r1, r4, r9, sl}^
     910:	01194297 			; <UNDEFINED> instruction: 0x01194297
     914:	05000013 	streq	r0, [r0, #-19]
     918:	0e030005 	cdpeq	0, 0, cr0, cr3, cr5, {0}
     91c:	0b3b0b3a 	bleq	ec360c <__bss_end__+0xeb97ac>
     920:	17021349 	strne	r1, [r2, -r9, asr #6]
     924:	2e060000 	cdpcs	0, 0, cr0, cr6, cr0, {0}
     928:	03193f01 	tsteq	r9, #1, 30
     92c:	3b0b3a0e 	blcc	2cf16c <__bss_end__+0x2c530c>
     930:	4919270b 	ldmdbmi	r9, {r0, r1, r3, r8, r9, sl, sp}
     934:	12011113 	andne	r1, r1, #-1073741820	; 0xc0000004
     938:	97184006 	ldrls	r4, [r8, -r6]
     93c:	13011942 	movwne	r1, #6466	; 0x1942
     940:	89070000 	stmdbhi	r7, {}	; <UNPREDICTABLE>
     944:	11010182 	smlabbne	r1, r2, r1, r0
     948:	00133101 	andseq	r3, r3, r1, lsl #2
     94c:	828a0800 	addhi	r0, sl, #0, 16
     950:	18020001 	stmdane	r2, {r0}
     954:	00184291 	mulseq	r8, r1, r2
     958:	00340900 	eorseq	r0, r4, r0, lsl #18
     95c:	0b3a0803 	bleq	e82970 <__bss_end__+0xe78b10>
     960:	13490b3b 	movtne	r0, #39739	; 0x9b3b
     964:	00001802 	andeq	r1, r0, r2, lsl #16
     968:	0182890a 	orreq	r8, r2, sl, lsl #18
     96c:	31011100 	mrscc	r1, (UNDEF: 17)
     970:	0b000013 	bleq	9c4 <_start-0x763c>
     974:	08030005 	stmdaeq	r3, {r0, r2}
     978:	0b3b0b3a 	bleq	ec3668 <__bss_end__+0xeb9808>
     97c:	17021349 	strne	r1, [r2, -r9, asr #6]
     980:	0b0c0000 	bleq	300988 <__bss_end__+0x2f6b28>
     984:	12011101 	andne	r1, r1, #1073741824	; 0x40000000
     988:	00130106 	andseq	r0, r3, r6, lsl #2
     98c:	00340d00 	eorseq	r0, r4, r0, lsl #26
     990:	0b3a0803 	bleq	e829a4 <__bss_end__+0xe78b44>
     994:	13490b3b 	movtne	r0, #39739	; 0x9b3b
     998:	00001702 	andeq	r1, r0, r2, lsl #14
     99c:	3f012e0e 	svccc	0x00012e0e
     9a0:	3a0e0319 	bcc	38160c <__bss_end__+0x3777ac>
     9a4:	270b3b0b 	strcs	r3, [fp, -fp, lsl #22]
     9a8:	3c134919 	ldccc	9, cr4, [r3], {25}
     9ac:	0f000019 	svceq	0x00000019
     9b0:	13490005 	movtne	r0, #36869	; 0x9005
     9b4:	01000000 	mrseq	r0, (UNDEF: 0)
     9b8:	0e250111 	mcreq	1, 1, r0, cr5, cr1, {0}
     9bc:	0e030b13 	vmoveq.32	d3[0], r0
     9c0:	01110e1b 	tsteq	r1, fp, lsl lr
     9c4:	17100612 			; <UNDEFINED> instruction: 0x17100612
     9c8:	24020000 	strcs	r0, [r2], #-0
     9cc:	3e0b0b00 	vmlacc.f64	d0, d11, d0
     9d0:	0008030b 	andeq	r0, r8, fp, lsl #6
     9d4:	00240300 	eoreq	r0, r4, r0, lsl #6
     9d8:	0b3e0b0b 	bleq	f8360c <__bss_end__+0xf797ac>
     9dc:	00000e03 	andeq	r0, r0, r3, lsl #28
     9e0:	03001604 	movweq	r1, #1540	; 0x604
     9e4:	3b0b3a0e 	blcc	2cf224 <__bss_end__+0x2c53c4>
     9e8:	0013490b 	andseq	r4, r3, fp, lsl #18
     9ec:	000f0500 	andeq	r0, pc, r0, lsl #10
     9f0:	00000b0b 	andeq	r0, r0, fp, lsl #22
     9f4:	0b000f06 	bleq	4614 <_start-0x39ec>
     9f8:	0013490b 	andseq	r4, r3, fp, lsl #18
     9fc:	00260700 	eoreq	r0, r6, r0, lsl #14
     a00:	00001349 	andeq	r1, r0, r9, asr #6
     a04:	0b011308 	bleq	4562c <__bss_end__+0x3b7cc>
     a08:	3b0b3a0b 	blcc	2cf23c <__bss_end__+0x2c53dc>
     a0c:	0013010b 	andseq	r0, r3, fp, lsl #2
     a10:	000d0900 	andeq	r0, sp, r0, lsl #18
     a14:	0b3a0803 	bleq	e82a28 <__bss_end__+0xe78bc8>
     a18:	13490b3b 	movtne	r0, #39739	; 0x9b3b
     a1c:	00000b38 	andeq	r0, r0, r8, lsr fp
     a20:	03000d0a 	movweq	r0, #3338	; 0xd0a
     a24:	3b0b3a0e 	blcc	2cf264 <__bss_end__+0x2c5404>
     a28:	3813490b 	ldmdacc	r3, {r0, r1, r3, r8, fp, lr}
     a2c:	0b00000b 	bleq	a60 <_start-0x75a0>
     a30:	0e030113 	mcreq	1, 0, r0, cr3, cr3, {0}
     a34:	0b3a0b0b 	bleq	e83668 <__bss_end__+0xe79808>
     a38:	13010b3b 	movwne	r0, #6971	; 0x1b3b
     a3c:	0d0c0000 	stceq	0, cr0, [ip, #-0]
     a40:	490e0300 	stmdbmi	lr, {r8, r9}
     a44:	340b3813 	strcc	r3, [fp], #-2067	; 0x813
     a48:	0d000019 	stceq	0, cr0, [r0, #-100]	; 0xffffff9c
     a4c:	0e03012e 	adfeqsp	f0, f3, #0.5
     a50:	0b3b0b3a 	bleq	ec3740 <__bss_end__+0xeb98e0>
     a54:	0b201927 	bleq	806ef8 <__bss_end__+0x7fd098>
     a58:	00001301 	andeq	r1, r0, r1, lsl #6
     a5c:	0300050e 	movweq	r0, #1294	; 0x50e
     a60:	3b0b3a0e 	blcc	2cf2a0 <__bss_end__+0x2c5440>
     a64:	0013490b 	andseq	r4, r3, fp, lsl #18
     a68:	00050f00 	andeq	r0, r5, r0, lsl #30
     a6c:	0b3a0803 	bleq	e82a80 <__bss_end__+0xe78c20>
     a70:	13490b3b 	movtne	r0, #39739	; 0x9b3b
     a74:	0b100000 	bleq	400a7c <__bss_end__+0x3f6c1c>
     a78:	11000001 	tstne	r0, r1
     a7c:	0e030034 	mcreq	0, 0, r0, cr3, cr4, {1}
     a80:	0b3b0b3a 	bleq	ec3770 <__bss_end__+0xeb9910>
     a84:	00001349 	andeq	r1, r0, r9, asr #6
     a88:	3f012e12 	svccc	0x00012e12
     a8c:	3a0e0319 	bcc	3816f8 <__bss_end__+0x377898>
     a90:	270b3b0b 	strcs	r3, [fp, -fp, lsl #22]
     a94:	12011119 	andne	r1, r1, #1073741830	; 0x40000006
     a98:	97184006 	ldrls	r4, [r8, -r6]
     a9c:	13011942 	movwne	r1, #6466	; 0x1942
     aa0:	05130000 	ldreq	r0, [r3, #-0]
     aa4:	3a0e0300 	bcc	3816ac <__bss_end__+0x37784c>
     aa8:	490b3b0b 	stmdbmi	fp, {r0, r1, r3, r8, r9, fp, ip, sp}
     aac:	00170213 	andseq	r0, r7, r3, lsl r2
     ab0:	00051400 	andeq	r1, r5, r0, lsl #8
     ab4:	0b3a0803 	bleq	e82ac8 <__bss_end__+0xe78c68>
     ab8:	13490b3b 	movtne	r0, #39739	; 0x9b3b
     abc:	00001702 	andeq	r1, r0, r2, lsl #14
     ac0:	03003415 	movweq	r3, #1045	; 0x415
     ac4:	3b0b3a08 	blcc	2cf2ec <__bss_end__+0x2c548c>
     ac8:	0213490b 	andseq	r4, r3, #180224	; 0x2c000
     acc:	16000018 			; <UNDEFINED> instruction: 0x16000018
     ad0:	08030034 	stmdaeq	r3, {r2, r4, r5}
     ad4:	0b3b0b3a 	bleq	ec37c4 <__bss_end__+0xeb9964>
     ad8:	17021349 	strne	r1, [r2, -r9, asr #6]
     adc:	0b170000 	bleq	5c0ae4 <__bss_end__+0x5b6c84>
     ae0:	12011101 	andne	r1, r1, #1073741824	; 0x40000000
     ae4:	00130106 	andseq	r0, r3, r6, lsl #2
     ae8:	00341800 	eorseq	r1, r4, r0, lsl #16
     aec:	0b3a0e03 	bleq	e84300 <__bss_end__+0xe7a4a0>
     af0:	13490b3b 	movtne	r0, #39739	; 0x9b3b
     af4:	00001802 	andeq	r1, r0, r2, lsl #16
     af8:	31011d19 	tstcc	r1, r9, lsl sp
     afc:	12011113 	andne	r1, r1, #-1073741820	; 0xc0000004
     b00:	590b5806 	stmdbpl	fp, {r1, r2, fp, ip, lr}
     b04:	0013010b 	andseq	r0, r3, fp, lsl #2
     b08:	00051a00 	andeq	r1, r5, r0, lsl #20
     b0c:	17021331 	smladxne	r2, r1, r3, r1
     b10:	051b0000 	ldreq	r0, [fp, #-0]
     b14:	02133100 	andseq	r3, r3, #0, 2
     b18:	1c000018 	stcne	0, cr0, [r0], {24}
     b1c:	13310005 	teqne	r1, #5
     b20:	00000b1c 	andeq	r0, r0, ip, lsl fp
     b24:	11010b1d 	tstne	r1, sp, lsl fp
     b28:	00061201 	andeq	r1, r6, r1, lsl #4
     b2c:	00341e00 	eorseq	r1, r4, r0, lsl #28
     b30:	17021331 	smladxne	r2, r1, r3, r1
     b34:	891f0000 	ldmdbhi	pc, {}	; <UNPREDICTABLE>
     b38:	11010182 	smlabbne	r1, r2, r1, r0
     b3c:	00133101 	andseq	r3, r3, r1, lsl #2
     b40:	828a2000 	addhi	r2, sl, #0
     b44:	18020001 	stmdane	r2, {r0}
     b48:	00184291 	mulseq	r8, r1, r2
     b4c:	011d2100 	tsteq	sp, r0, lsl #2
     b50:	01111331 	tsteq	r1, r1, lsr r3
     b54:	0b580612 	bleq	16023a4 <__bss_end__+0x15f8544>
     b58:	00000b59 	andeq	r0, r0, r9, asr fp
     b5c:	03012e22 	movweq	r2, #7714	; 0x1e22
     b60:	3b0b3a0e 	blcc	2cf3a0 <__bss_end__+0x2c5540>
     b64:	4919270b 	ldmdbmi	r9, {r0, r1, r3, r8, r9, sl, sp}
     b68:	010b2013 	tsteq	fp, r3, lsl r0
     b6c:	23000013 	movwcs	r0, #19
     b70:	193f012e 	ldmdbne	pc!, {r1, r2, r3, r5, r8}	; <UNPREDICTABLE>
     b74:	0b3a0e03 	bleq	e84388 <__bss_end__+0xe7a528>
     b78:	19270b3b 	stmdbne	r7!, {r0, r1, r3, r4, r5, r8, r9, fp}
     b7c:	01111349 	tsteq	r1, r9, asr #6
     b80:	18400612 	stmdane	r0, {r1, r4, r9, sl}^
     b84:	01194297 			; <UNDEFINED> instruction: 0x01194297
     b88:	24000013 	strcs	r0, [r0], #-19
     b8c:	00018289 	andeq	r8, r1, r9, lsl #5
     b90:	13310111 	teqne	r1, #1073741828	; 0x40000004
     b94:	89250000 	stmdbhi	r5!, {}	; <UNPREDICTABLE>
     b98:	11010182 	smlabbne	r1, r2, r1, r0
     b9c:	01133101 	tsteq	r3, r1, lsl #2
     ba0:	26000013 			; <UNDEFINED> instruction: 0x26000013
     ba4:	0e030034 	mcreq	0, 0, r0, cr3, cr4, {1}
     ba8:	0b3b0b3a 	bleq	ec3898 <__bss_end__+0xeb9a38>
     bac:	17021349 	strne	r1, [r2, -r9, asr #6]
     bb0:	05270000 	streq	r0, [r7, #-0]!
     bb4:	00133100 	andseq	r3, r3, r0, lsl #2
     bb8:	00052800 	andeq	r2, r5, r0, lsl #16
     bbc:	0b3a0e03 	bleq	e843d0 <__bss_end__+0xe7a570>
     bc0:	13490b3b 	movtne	r0, #39739	; 0x9b3b
     bc4:	00001802 	andeq	r1, r0, r2, lsl #16
     bc8:	03003429 	movweq	r3, #1065	; 0x429
     bcc:	3413490e 	ldrcc	r4, [r3], #-2318	; 0x90e
     bd0:	00180219 	andseq	r0, r8, r9, lsl r2
     bd4:	01012a00 	tsteq	r1, r0, lsl #20
     bd8:	13011349 	movwne	r1, #4937	; 0x1349
     bdc:	212b0000 	teqcs	fp, r0
     be0:	2f134900 	svccs	0x00134900
     be4:	2c00000b 	stccs	0, cr0, [r0], {11}
     be8:	08030034 	stmdaeq	r3, {r2, r4, r5}
     bec:	0b3b0b3a 	bleq	ec38dc <__bss_end__+0xeb9a7c>
     bf0:	061c1349 	ldreq	r1, [ip], -r9, asr #6
     bf4:	342d0000 	strtcc	r0, [sp], #-0
     bf8:	3a080300 	bcc	201800 <__bss_end__+0x1f79a0>
     bfc:	490b3b0b 	stmdbmi	fp, {r0, r1, r3, r8, r9, fp, ip, sp}
     c00:	000b1c13 	andeq	r1, fp, r3, lsl ip
     c04:	00052e00 	andeq	r2, r5, r0, lsl #28
     c08:	0b3a0803 	bleq	e82c1c <__bss_end__+0xe78dbc>
     c0c:	13490b3b 	movtne	r0, #39739	; 0x9b3b
     c10:	00001802 	andeq	r1, r0, r2, lsl #16
     c14:	0000182f 	andeq	r1, r0, pc, lsr #16
     c18:	00213000 	eoreq	r3, r1, r0
     c1c:	052f1349 	streq	r1, [pc, #-841]!	; 8db <_start-0x7725>
     c20:	2e310000 	cdpcs	0, 3, cr0, cr1, cr0, {0}
     c24:	03193f01 	tsteq	r9, #1, 30
     c28:	3b0b3a0e 	blcc	2cf468 <__bss_end__+0x2c5608>
     c2c:	3c19270b 	ldccc	7, cr2, [r9], {11}
     c30:	00130119 	andseq	r0, r3, r9, lsl r1
     c34:	00053200 	andeq	r3, r5, r0, lsl #4
     c38:	00001349 	andeq	r1, r0, r9, asr #6
     c3c:	3f002e33 	svccc	0x00002e33
     c40:	3a0e0319 	bcc	3818ac <__bss_end__+0x377a4c>
     c44:	270b3b0b 	strcs	r3, [fp, -fp, lsl #22]
     c48:	3c134919 	ldccc	9, cr4, [r3], {25}
     c4c:	34000019 	strcc	r0, [r0], #-25
     c50:	193f012e 	ldmdbne	pc!, {r1, r2, r3, r5, r8}	; <UNPREDICTABLE>
     c54:	0b3a0e03 	bleq	e84468 <__bss_end__+0xe7a608>
     c58:	19270b3b 	stmdbne	r7!, {r0, r1, r3, r4, r5, r8, r9, fp}
     c5c:	193c1349 	ldmdbne	ip!, {r0, r3, r6, r8, r9, ip}
     c60:	00001301 	andeq	r1, r0, r1, lsl #6
     c64:	3f002e35 	svccc	0x00002e35
     c68:	3a0e0319 	bcc	3818d4 <__bss_end__+0x377a74>
     c6c:	270b3b0b 	strcs	r3, [fp, -fp, lsl #22]
     c70:	00193c19 	andseq	r3, r9, r9, lsl ip
     c74:	012e3600 	teqeq	lr, r0, lsl #12
     c78:	0e03193f 	mcreq	9, 0, r1, cr3, cr15, {1}
     c7c:	0b3b0b3a 	bleq	ec396c <__bss_end__+0xeb9b0c>
     c80:	13491927 	movtne	r1, #39207	; 0x9927
     c84:	0000193c 	andeq	r1, r0, ip, lsr r9
     c88:	01110100 	tsteq	r1, r0, lsl #2
     c8c:	0b130e25 	bleq	4c4528 <__bss_end__+0x4ba6c8>
     c90:	0e1b0e03 	cdpeq	14, 1, cr0, cr11, cr3, {0}
     c94:	06120111 			; <UNDEFINED> instruction: 0x06120111
     c98:	00001710 	andeq	r1, r0, r0, lsl r7
     c9c:	0b002402 	bleq	9cac <buf.4211+0x258>
     ca0:	030b3e0b 	movweq	r3, #48651	; 0xbe0b
     ca4:	0300000e 	movweq	r0, #14
     ca8:	0b0b0024 	bleq	2c0d40 <__bss_end__+0x2b6ee0>
     cac:	08030b3e 	stmdaeq	r3, {r1, r2, r3, r4, r5, r8, r9, fp}
     cb0:	04040000 	streq	r0, [r4], #-0
     cb4:	3a0b0b01 	bcc	2c38c0 <__bss_end__+0x2b9a60>
     cb8:	010b3b0b 	tsteq	fp, fp, lsl #22
     cbc:	05000013 	streq	r0, [r0, #-19]
     cc0:	0e030028 	cdpeq	0, 0, cr0, cr3, cr8, {1}
     cc4:	00000d1c 	andeq	r0, r0, ip, lsl sp
     cc8:	03001606 	movweq	r1, #1542	; 0x606
     ccc:	3b0b3a0e 	blcc	2cf50c <__bss_end__+0x2c56ac>
     cd0:	0013490b 	andseq	r4, r3, fp, lsl #18
     cd4:	012e0700 	teqeq	lr, r0, lsl #14
     cd8:	0e03193f 	mcreq	9, 0, r1, cr3, cr15, {1}
     cdc:	0b3b0b3a 	bleq	ec39cc <__bss_end__+0xeb9b6c>
     ce0:	01111927 	tsteq	r1, r7, lsr #18
     ce4:	18400612 	stmdane	r0, {r1, r4, r9, sl}^
     ce8:	01194297 			; <UNDEFINED> instruction: 0x01194297
     cec:	08000013 	stmdaeq	r0, {r0, r1, r4}
     cf0:	08030005 	stmdaeq	r3, {r0, r2}
     cf4:	0b3b0b3a 	bleq	ec39e4 <__bss_end__+0xeb9b84>
     cf8:	17021349 	strne	r1, [r2, -r9, asr #6]
     cfc:	34090000 	strcc	r0, [r9], #-0
     d00:	3a0e0300 	bcc	381908 <__bss_end__+0x377aa8>
     d04:	490b3b0b 	stmdbmi	fp, {r0, r1, r3, r8, r9, fp, ip, sp}
     d08:	00170213 	andseq	r0, r7, r3, lsl r2
     d0c:	82890a00 	addhi	r0, r9, #0, 20
     d10:	01110101 	tsteq	r1, r1, lsl #2
     d14:	13011331 	movwne	r1, #4913	; 0x1331
     d18:	8a0b0000 	bhi	2c0d20 <__bss_end__+0x2b6ec0>
     d1c:	02000182 	andeq	r0, r0, #-2147483616	; 0x80000020
     d20:	18429118 	stmdane	r2, {r3, r4, r8, ip, pc}^
     d24:	890c0000 	stmdbhi	ip, {}	; <UNPREDICTABLE>
     d28:	11010182 	smlabbne	r1, r2, r1, r0
     d2c:	00133101 	andseq	r3, r3, r1, lsl #2
     d30:	000f0d00 	andeq	r0, pc, r0, lsl #26
     d34:	13490b0b 	movtne	r0, #39691	; 0x9b0b
     d38:	350e0000 	strcc	r0, [lr, #-0]
     d3c:	00134900 	andseq	r4, r3, r0, lsl #18
     d40:	012e0f00 	teqeq	lr, r0, lsl #30
     d44:	0e03193f 	mcreq	9, 0, r1, cr3, cr15, {1}
     d48:	0b3b0b3a 	bleq	ec3a38 <__bss_end__+0xeb9bd8>
     d4c:	13491927 	movtne	r1, #39207	; 0x9927
     d50:	06120111 			; <UNDEFINED> instruction: 0x06120111
     d54:	42971840 	addsmi	r1, r7, #64, 16	; 0x400000
     d58:	00130119 	andseq	r0, r3, r9, lsl r1
     d5c:	00341000 	eorseq	r1, r4, r0
     d60:	0b3a0803 	bleq	e82d74 <__bss_end__+0xe78f14>
     d64:	13490b3b 	movtne	r0, #39739	; 0x9b3b
     d68:	00001702 	andeq	r1, r0, r2, lsl #14
     d6c:	01828911 	orreq	r8, r2, r1, lsl r9
     d70:	31011100 	mrscc	r1, (UNDEF: 17)
     d74:	12000013 	andne	r0, r0, #19
     d78:	0e030005 	cdpeq	0, 0, cr0, cr3, cr5, {0}
     d7c:	0b3b0b3a 	bleq	ec3a6c <__bss_end__+0xeb9c0c>
     d80:	17021349 	strne	r1, [r2, -r9, asr #6]
     d84:	2e130000 	cdpcs	0, 1, cr0, cr3, cr0, {0}
     d88:	03193f01 	tsteq	r9, #1, 30
     d8c:	3b0b3a0e 	blcc	2cf5cc <__bss_end__+0x2c576c>
     d90:	49192705 	ldmdbmi	r9, {r0, r2, r8, r9, sl, sp}
     d94:	12011113 	andne	r1, r1, #-1073741820	; 0xc0000004
     d98:	97184006 	ldrls	r4, [r8, -r6]
     d9c:	13011942 	movwne	r1, #6466	; 0x1942
     da0:	05140000 	ldreq	r0, [r4, #-0]
     da4:	3a0e0300 	bcc	3819ac <__bss_end__+0x377b4c>
     da8:	49053b0b 	stmdbmi	r5, {r0, r1, r3, r8, r9, fp, ip, sp}
     dac:	00170213 	andseq	r0, r7, r3, lsl r2
     db0:	012e1500 	teqeq	lr, r0, lsl #10
     db4:	0e03193f 	mcreq	9, 0, r1, cr3, cr15, {1}
     db8:	053b0b3a 	ldreq	r0, [fp, #-2874]!	; 0xb3a
     dbc:	01111927 	tsteq	r1, r7, lsr #18
     dc0:	18400612 	stmdane	r0, {r1, r4, r9, sl}^
     dc4:	01194297 			; <UNDEFINED> instruction: 0x01194297
     dc8:	16000013 			; <UNDEFINED> instruction: 0x16000013
     dcc:	08030005 	stmdaeq	r3, {r0, r2}
     dd0:	053b0b3a 	ldreq	r0, [fp, #-2874]!	; 0xb3a
     dd4:	17021349 	strne	r1, [r2, -r9, asr #6]
     dd8:	34170000 	ldrcc	r0, [r7], #-0
     ddc:	3a0e0300 	bcc	3819e4 <__bss_end__+0x377b84>
     de0:	49053b0b 	stmdbmi	r5, {r0, r1, r3, r8, r9, fp, ip, sp}
     de4:	00170213 	andseq	r0, r7, r3, lsl r2
     de8:	010b1800 	tsteq	fp, r0, lsl #16
     dec:	06120111 			; <UNDEFINED> instruction: 0x06120111
     df0:	00001301 	andeq	r1, r0, r1, lsl #6
     df4:	03003419 	movweq	r3, #1049	; 0x419
     df8:	3b0b3a0e 	blcc	2cf638 <__bss_end__+0x2c57d8>
     dfc:	3f13490b 	svccc	0x0013490b
     e00:	00180219 	andseq	r0, r8, r9, lsl r2
     e04:	012e1a00 	teqeq	lr, r0, lsl #20
     e08:	0e03193f 	mcreq	9, 0, r1, cr3, cr15, {1}
     e0c:	0b3b0b3a 	bleq	ec3afc <__bss_end__+0xeb9c9c>
     e10:	13491927 	movtne	r1, #39207	; 0x9927
     e14:	1301193c 	movwne	r1, #6460	; 0x193c
     e18:	051b0000 	ldreq	r0, [fp, #-0]
     e1c:	00134900 	andseq	r4, r3, r0, lsl #18
     e20:	00261c00 	eoreq	r1, r6, r0, lsl #24
     e24:	00001349 	andeq	r1, r0, r9, asr #6
     e28:	0000351d 	andeq	r3, r0, sp, lsl r5
     e2c:	012e1e00 	teqeq	lr, r0, lsl #28
     e30:	0e03193f 	mcreq	9, 0, r1, cr3, cr15, {1}
     e34:	0b3b0b3a 	bleq	ec3b24 <__bss_end__+0xeb9cc4>
     e38:	193c1927 	ldmdbne	ip!, {r0, r1, r2, r5, r8, fp, ip}
     e3c:	00001301 	andeq	r1, r0, r1, lsl #6
     e40:	3f002e1f 	svccc	0x00002e1f
     e44:	3a0e0319 	bcc	381ab0 <__bss_end__+0x377c50>
     e48:	270b3b0b 	strcs	r3, [fp, -fp, lsl #22]
     e4c:	00193c19 	andseq	r3, r9, r9, lsl ip
     e50:	11010000 	mrsne	r0, (UNDEF: 1)
     e54:	130e2501 	movwne	r2, #58625	; 0xe501
     e58:	1b0e030b 	blne	381a8c <__bss_end__+0x377c2c>
     e5c:	1201110e 	andne	r1, r1, #-2147483645	; 0x80000003
     e60:	00171006 	andseq	r1, r7, r6
     e64:	00240200 	eoreq	r0, r4, r0, lsl #4
     e68:	0b3e0b0b 	bleq	f83a9c <__bss_end__+0xf79c3c>
     e6c:	00000803 	andeq	r0, r0, r3, lsl #16
     e70:	0b002403 	bleq	9e84 <__bss_end__+0x24>
     e74:	030b3e0b 	movweq	r3, #48651	; 0xbe0b
     e78:	0400000e 	streq	r0, [r0], #-14
     e7c:	0e03012e 	adfeqsp	f0, f3, #0.5
     e80:	0b3b0b3a 	bleq	ec3b70 <__bss_end__+0xeb9d10>
     e84:	13491927 	movtne	r1, #39207	; 0x9927
     e88:	06120111 			; <UNDEFINED> instruction: 0x06120111
     e8c:	42971840 	addsmi	r1, r7, #64, 16	; 0x400000
     e90:	00130119 	andseq	r0, r3, r9, lsl r1
     e94:	00050500 	andeq	r0, r5, r0, lsl #10
     e98:	0b3a0803 	bleq	e82eac <__bss_end__+0xe7904c>
     e9c:	13490b3b 	movtne	r0, #39739	; 0x9b3b
     ea0:	00001702 	andeq	r1, r0, r2, lsl #14
     ea4:	01828906 	orreq	r8, r2, r6, lsl #18
     ea8:	31011101 	tstcc	r1, r1, lsl #2
     eac:	07000013 	smladeq	r0, r3, r0, r0
     eb0:	0001828a 	andeq	r8, r1, sl, lsl #5
     eb4:	42911802 	addsmi	r1, r1, #131072	; 0x20000
     eb8:	08000018 	stmdaeq	r0, {r3, r4}
     ebc:	193f002e 	ldmdbne	pc!, {r1, r2, r3, r5}	; <UNPREDICTABLE>
     ec0:	0b3a0e03 	bleq	e846d4 <__bss_end__+0xe7a874>
     ec4:	19270b3b 	stmdbne	r7!, {r0, r1, r3, r4, r5, r8, r9, fp}
     ec8:	06120111 			; <UNDEFINED> instruction: 0x06120111
     ecc:	42971840 	addsmi	r1, r7, #64, 16	; 0x400000
     ed0:	09000019 	stmdbeq	r0, {r0, r3, r4}
     ed4:	193f012e 	ldmdbne	pc!, {r1, r2, r3, r5, r8}	; <UNPREDICTABLE>
     ed8:	0b3a0e03 	bleq	e846ec <__bss_end__+0xe7a88c>
     edc:	19270b3b 	stmdbne	r7!, {r0, r1, r3, r4, r5, r8, r9, fp}
     ee0:	06120111 			; <UNDEFINED> instruction: 0x06120111
     ee4:	42971840 	addsmi	r1, r7, #64, 16	; 0x400000
     ee8:	00130119 	andseq	r0, r3, r9, lsl r1
     eec:	00050a00 	andeq	r0, r5, r0, lsl #20
     ef0:	0b3a0803 	bleq	e82f04 <__bss_end__+0xe790a4>
     ef4:	13490b3b 	movtne	r0, #39739	; 0x9b3b
     ef8:	00001802 	andeq	r1, r0, r2, lsl #16
     efc:	2701150b 	strcs	r1, [r1, -fp, lsl #10]
     f00:	01134919 	tsteq	r3, r9, lsl r9
     f04:	0c000013 	stceq	0, cr0, [r0], {19}
     f08:	13490005 	movtne	r0, #36869	; 0x9005
     f0c:	0f0d0000 	svceq	0x000d0000
     f10:	490b0b00 	stmdbmi	fp, {r8, r9, fp}
     f14:	0e000013 	mcreq	0, 0, r0, cr0, cr3, {0}
     f18:	0e030034 	mcreq	0, 0, r0, cr3, cr4, {1}
     f1c:	0b3b0b3a 	bleq	ec3c0c <__bss_end__+0xeb9dac>
     f20:	193f1349 	ldmdbne	pc!, {r0, r3, r6, r8, r9, ip}	; <UNPREDICTABLE>
     f24:	00001802 	andeq	r1, r0, r2, lsl #16
     f28:	3f012e0f 	svccc	0x00012e0f
     f2c:	3a0e0319 	bcc	381b98 <__bss_end__+0x377d38>
     f30:	270b3b0b 	strcs	r3, [fp, -fp, lsl #22]
     f34:	00193c19 	andseq	r3, r9, r9, lsl ip
     f38:	11010000 	mrsne	r0, (UNDEF: 1)
     f3c:	130e2501 	movwne	r2, #58625	; 0xe501
     f40:	1b0e030b 	blne	381b74 <__bss_end__+0x377d14>
     f44:	1201110e 	andne	r1, r1, #-2147483645	; 0x80000003
     f48:	00171006 	andseq	r1, r7, r6
     f4c:	00240200 	eoreq	r0, r4, r0, lsl #4
     f50:	0b3e0b0b 	bleq	f83b84 <__bss_end__+0xf79d24>
     f54:	00000803 	andeq	r0, r0, r3, lsl #16
     f58:	03001603 	movweq	r1, #1539	; 0x603
     f5c:	3b0b3a0e 	blcc	2cf79c <__bss_end__+0x2c593c>
     f60:	0013490b 	andseq	r4, r3, fp, lsl #18
     f64:	00240400 	eoreq	r0, r4, r0, lsl #8
     f68:	0b3e0b0b 	bleq	f83b9c <__bss_end__+0xf79d3c>
     f6c:	00000e03 	andeq	r0, r0, r3, lsl #28
     f70:	0b000f05 	bleq	4b8c <_start-0x3474>
     f74:	0600000b 	streq	r0, [r0], -fp
     f78:	0b0b0113 	bleq	2c13cc <__bss_end__+0x2b756c>
     f7c:	0b3b0b3a 	bleq	ec3c6c <__bss_end__+0xeb9e0c>
     f80:	00001301 	andeq	r1, r0, r1, lsl #6
     f84:	03000d07 	movweq	r0, #3335	; 0xd07
     f88:	3b0b3a08 	blcc	2cf7b0 <__bss_end__+0x2c5950>
     f8c:	3813490b 	ldmdacc	r3, {r0, r1, r3, r8, fp, lr}
     f90:	0800000b 	stmdaeq	r0, {r0, r1, r3}
     f94:	0e03000d 	cdpeq	0, 0, cr0, cr3, cr13, {0}
     f98:	0b3b0b3a 	bleq	ec3c88 <__bss_end__+0xeb9e28>
     f9c:	0b381349 	bleq	e05cc8 <__bss_end__+0xdfbe68>
     fa0:	04090000 	streq	r0, [r9], #-0
     fa4:	3a0b0b01 	bcc	2c3bb0 <__bss_end__+0x2b9d50>
     fa8:	010b3b0b 	tsteq	fp, fp, lsl #22
     fac:	0a000013 	beq	1000 <_start-0x7000>
     fb0:	0e030028 	cdpeq	0, 0, cr0, cr3, cr8, {1}
     fb4:	00000d1c 	andeq	r0, r0, ip, lsl sp
     fb8:	3f012e0b 	svccc	0x00012e0b
     fbc:	3a0e0319 	bcc	381c28 <__bss_end__+0x377dc8>
     fc0:	270b3b0b 	strcs	r3, [fp, -fp, lsl #22]
     fc4:	11134919 	tstne	r3, r9, lsl r9
     fc8:	40061201 	andmi	r1, r6, r1, lsl #4
     fcc:	19429718 	stmdbne	r2, {r3, r4, r8, r9, sl, ip, pc}^
     fd0:	00001301 	andeq	r1, r0, r1, lsl #6
     fd4:	0300340c 	movweq	r3, #1036	; 0x40c
     fd8:	3b0b3a08 	blcc	2cf800 <__bss_end__+0x2c59a0>
     fdc:	1c13490b 	ldcne	9, cr4, [r3], {11}
     fe0:	0d000006 	stceq	0, cr0, [r0, #-24]	; 0xffffffe8
     fe4:	01018289 	smlabbeq	r1, r9, r2, r8
     fe8:	13310111 	teqne	r1, #1073741828	; 0x40000004
     fec:	8a0e0000 	bhi	380ff4 <__bss_end__+0x377194>
     ff0:	02000182 	andeq	r0, r0, #-2147483616	; 0x80000020
     ff4:	18429118 	stmdane	r2, {r3, r4, r8, ip, pc}^
     ff8:	0f0f0000 	svceq	0x000f0000
     ffc:	490b0b00 	stmdbmi	fp, {r8, r9, fp}
    1000:	10000013 	andne	r0, r0, r3, lsl r0
    1004:	193f012e 	ldmdbne	pc!, {r1, r2, r3, r5, r8}	; <UNPREDICTABLE>
    1008:	0b3a0e03 	bleq	e8481c <__bss_end__+0xe7a9bc>
    100c:	19270b3b 	stmdbne	r7!, {r0, r1, r3, r4, r5, r8, r9, fp}
    1010:	193c1349 	ldmdbne	ip!, {r0, r3, r6, r8, r9, ip}
    1014:	05110000 	ldreq	r0, [r1, #-0]
    1018:	00134900 	andseq	r4, r3, r0, lsl #18
    101c:	11010000 	mrsne	r0, (UNDEF: 1)
    1020:	130e2501 	movwne	r2, #58625	; 0xe501
    1024:	1b0e030b 	blne	381c58 <__bss_end__+0x377df8>
    1028:	1201110e 	andne	r1, r1, #-2147483645	; 0x80000003
    102c:	00171006 	andseq	r1, r7, r6
    1030:	00240200 	eoreq	r0, r4, r0, lsl #4
    1034:	0b3e0b0b 	bleq	f83c68 <__bss_end__+0xf79e08>
    1038:	00000803 	andeq	r0, r0, r3, lsl #16
    103c:	0b002403 	bleq	a050 <__bss_end__+0x1f0>
    1040:	030b3e0b 	movweq	r3, #48651	; 0xbe0b
    1044:	0400000e 	streq	r0, [r0], #-14
    1048:	0b0b0104 	bleq	2c1460 <__bss_end__+0x2b7600>
    104c:	0b3b0b3a 	bleq	ec3d3c <__bss_end__+0xeb9edc>
    1050:	00001301 	andeq	r1, r0, r1, lsl #6
    1054:	03002805 	movweq	r2, #2053	; 0x805
    1058:	000d1c0e 	andeq	r1, sp, lr, lsl #24
    105c:	00160600 	andseq	r0, r6, r0, lsl #12
    1060:	0b3a0e03 	bleq	e84874 <__bss_end__+0xe7aa14>
    1064:	13490b3b 	movtne	r0, #39739	; 0x9b3b
    1068:	2e070000 	cdpcs	0, 0, cr0, cr7, cr0, {0}
    106c:	03193f01 	tsteq	r9, #1, 30
    1070:	3b0b3a0e 	blcc	2cf8b0 <__bss_end__+0x2c5a50>
    1074:	1119270b 	tstne	r9, fp, lsl #14
    1078:	40061201 	andmi	r1, r6, r1, lsl #4
    107c:	19429718 	stmdbne	r2, {r3, r4, r8, r9, sl, ip, pc}^
    1080:	00001301 	andeq	r1, r0, r1, lsl #6
    1084:	01828908 	orreq	r8, r2, r8, lsl #18
    1088:	31011100 	mrscc	r1, (UNDEF: 17)
    108c:	09000013 	stmdbeq	r0, {r0, r1, r4}
    1090:	01018289 	smlabbeq	r1, r9, r2, r8
    1094:	13310111 	teqne	r1, #1073741828	; 0x40000004
    1098:	00001301 	andeq	r1, r0, r1, lsl #6
    109c:	01828a0a 	orreq	r8, r2, sl, lsl #20
    10a0:	91180200 	tstls	r8, r0, lsl #4
    10a4:	00001842 	andeq	r1, r0, r2, asr #16
    10a8:	3f012e0b 	svccc	0x00012e0b
    10ac:	3a0e0319 	bcc	381d18 <__bss_end__+0x377eb8>
    10b0:	270b3b0b 	strcs	r3, [fp, -fp, lsl #22]
    10b4:	11134919 	tstne	r3, r9, lsl r9
    10b8:	40061201 	andmi	r1, r6, r1, lsl #4
    10bc:	19429718 	stmdbne	r2, {r3, r4, r8, r9, sl, ip, pc}^
    10c0:	00001301 	andeq	r1, r0, r1, lsl #6
    10c4:	0300050c 	movweq	r0, #1292	; 0x50c
    10c8:	3b0b3a08 	blcc	2cf8f0 <__bss_end__+0x2c5a90>
    10cc:	0213490b 	andseq	r4, r3, #180224	; 0x2c000
    10d0:	0d000017 	stceq	0, cr0, [r0, #-92]	; 0xffffffa4
    10d4:	01018289 	smlabbeq	r1, r9, r2, r8
    10d8:	13310111 	teqne	r1, #1073741828	; 0x40000004
    10dc:	340e0000 	strcc	r0, [lr], #-0
    10e0:	3a0e0300 	bcc	381ce8 <__bss_end__+0x377e88>
    10e4:	490b3b0b 	stmdbmi	fp, {r0, r1, r3, r8, r9, fp, ip, sp}
    10e8:	02193f13 	andseq	r3, r9, #19, 30	; 0x4c
    10ec:	0f000018 	svceq	0x00000018
    10f0:	0b0b000f 	bleq	2c1134 <__bss_end__+0x2b72d4>
    10f4:	00001349 	andeq	r1, r0, r9, asr #6
    10f8:	49003510 	stmdbmi	r0, {r4, r8, sl, ip, sp}
    10fc:	11000013 	tstne	r0, r3, lsl r0
    1100:	193f002e 	ldmdbne	pc!, {r1, r2, r3, r5}	; <UNPREDICTABLE>
    1104:	0b3a0e03 	bleq	e84918 <__bss_end__+0xe7aab8>
    1108:	19270b3b 	stmdbne	r7!, {r0, r1, r3, r4, r5, r8, r9, fp}
    110c:	0000193c 	andeq	r1, r0, ip, lsr r9
    1110:	3f012e12 	svccc	0x00012e12
    1114:	3a0e0319 	bcc	381d80 <__bss_end__+0x377f20>
    1118:	270b3b0b 	strcs	r3, [fp, -fp, lsl #22]
    111c:	01193c19 	tsteq	r9, r9, lsl ip
    1120:	13000013 	movwne	r0, #19
    1124:	13490005 	movtne	r0, #36869	; 0x9005
    1128:	2e140000 	cdpcs	0, 1, cr0, cr4, cr0, {0}
    112c:	03193f01 	tsteq	r9, #1, 30
    1130:	3b0b3a0e 	blcc	2cf970 <__bss_end__+0x2c5b10>
    1134:	4919270b 	ldmdbmi	r9, {r0, r1, r3, r8, r9, sl, sp}
    1138:	01193c13 	tsteq	r9, r3, lsl ip
    113c:	15000013 	strne	r0, [r0, #-19]
    1140:	13490026 	movtne	r0, #36902	; 0x9026
    1144:	35160000 	ldrcc	r0, [r6, #-0]
    1148:	00000000 	andeq	r0, r0, r0
    114c:	25011101 	strcs	r1, [r1, #-257]	; 0x101
    1150:	030b130e 	movweq	r1, #45838	; 0xb30e
    1154:	110e1b0e 	tstne	lr, lr, lsl #22
    1158:	10061201 	andne	r1, r6, r1, lsl #4
    115c:	02000017 	andeq	r0, r0, #23
    1160:	0b0b0024 	bleq	2c11f8 <__bss_end__+0x2b7398>
    1164:	0e030b3e 	vmoveq.16	d3[0], r0
    1168:	24030000 	strcs	r0, [r3], #-0
    116c:	3e0b0b00 	vmlacc.f64	d0, d11, d0
    1170:	0008030b 	andeq	r0, r8, fp, lsl #6
    1174:	000f0400 	andeq	r0, pc, r0, lsl #8
    1178:	00000b0b 	andeq	r0, r0, fp, lsl #22
    117c:	0b000f05 	bleq	4d98 <_start-0x3268>
    1180:	0013490b 	andseq	r4, r3, fp, lsl #18
    1184:	00160600 	andseq	r0, r6, r0, lsl #12
    1188:	0b3a0e03 	bleq	e8499c <__bss_end__+0xe7ab3c>
    118c:	13490b3b 	movtne	r0, #39739	; 0x9b3b
    1190:	2e070000 	cdpcs	0, 0, cr0, cr7, cr0, {0}
    1194:	03193f01 	tsteq	r9, #1, 30
    1198:	3b0b3a0e 	blcc	2cf9d8 <__bss_end__+0x2c5b78>
    119c:	4919270b 	ldmdbmi	r9, {r0, r1, r3, r8, r9, sl, sp}
    11a0:	12011113 	andne	r1, r1, #-1073741820	; 0xc0000004
    11a4:	97184006 	ldrls	r4, [r8, -r6]
    11a8:	00001942 	andeq	r1, r0, r2, asr #18
    11ac:	03000508 	movweq	r0, #1288	; 0x508
    11b0:	3b0b3a08 	blcc	2cf9d8 <__bss_end__+0x2c5b78>
    11b4:	0213490b 	andseq	r4, r3, #180224	; 0x2c000
    11b8:	09000018 	stmdbeq	r0, {r3, r4}
    11bc:	08030005 	stmdaeq	r3, {r0, r2}
    11c0:	0b3b0b3a 	bleq	ec3eb0 <__bss_end__+0xeba050>
    11c4:	17021349 	strne	r1, [r2, -r9, asr #6]
    11c8:	340a0000 	strcc	r0, [sl], #-0
    11cc:	3a080300 	bcc	201dd4 <__bss_end__+0x1f7f74>
    11d0:	490b3b0b 	stmdbmi	fp, {r0, r1, r3, r8, r9, fp, ip, sp}
    11d4:	00170213 	andseq	r0, r7, r3, lsl r2
    11d8:	00340b00 	eorseq	r0, r4, r0, lsl #22
    11dc:	0b3a0803 	bleq	e831f0 <__bss_end__+0xe79390>
    11e0:	13490b3b 	movtne	r0, #39739	; 0x9b3b
    11e4:	00001802 	andeq	r1, r0, r2, lsl #16
	...

Disassembly of section .debug_loc:

00000000 <.debug_loc>:
       0:	00000014 	andeq	r0, r0, r4, lsl r0
       4:	00000020 	andeq	r0, r0, r0, lsr #32
       8:	20500001 	subscs	r0, r0, r1
       c:	23000000 	movwcs	r0, #0
      10:	01000000 	mrseq	r0, (UNDEF: 0)
      14:	00235100 	eoreq	r5, r3, r0, lsl #2
      18:	002c0000 	eoreq	r0, ip, r0
      1c:	00040000 	andeq	r0, r4, r0
      20:	9f5001f3 	svcls	0x005001f3
	...
      2c:	00000030 	andeq	r0, r0, r0, lsr r0
      30:	0000003c 	andeq	r0, r0, ip, lsr r0
      34:	9f310002 	svcls	0x00310002
      38:	0000003c 	andeq	r0, r0, ip, lsr r0
      3c:	00000044 	andeq	r0, r0, r4, asr #32
      40:	9f320002 	svcls	0x00320002
      44:	00000044 	andeq	r0, r0, r4, asr #32
      48:	0000004c 	andeq	r0, r0, ip, asr #32
      4c:	9f330002 	svcls	0x00330002
      50:	0000004c 	andeq	r0, r0, ip, asr #32
      54:	00000054 	andeq	r0, r0, r4, asr r0
      58:	9f340002 	svcls	0x00340002
      5c:	00000054 	andeq	r0, r0, r4, asr r0
      60:	000000f4 	strdeq	r0, [r0], -r4
      64:	9f350002 	svcls	0x00350002
	...
      70:	0000006c 	andeq	r0, r0, ip, rrx
      74:	0000007c 	andeq	r0, r0, ip, ror r0
      78:	9f300002 	svcls	0x00300002
      7c:	0000007c 	andeq	r0, r0, ip, ror r0
      80:	000000ac 	andeq	r0, r0, ip, lsr #1
      84:	00540001 	subseq	r0, r4, r1
      88:	00000000 	andeq	r0, r0, r0
      8c:	2c000000 	stccs	0, cr0, [r0], {-0}
      90:	38000000 	stmdacc	r0, {}	; <UNPREDICTABLE>
      94:	01000000 	mrseq	r0, (UNDEF: 0)
      98:	00385000 	eorseq	r5, r8, r0
      9c:	00480000 	subeq	r0, r8, r0
      a0:	00010000 	andeq	r0, r1, r0
      a4:	00004855 	andeq	r4, r0, r5, asr r8
      a8:	00005800 	andeq	r5, r0, r0, lsl #16
      ac:	50000100 	andpl	r0, r0, r0, lsl #2
	...
      bc:	00000010 	andeq	r0, r0, r0, lsl r0
      c0:	10500001 	subsne	r0, r0, r1
      c4:	34000000 	strcc	r0, [r0], #-0
      c8:	01000000 	mrseq	r0, (UNDEF: 0)
      cc:	00005400 	andeq	r5, r0, r0, lsl #8
	...
      d8:	00040000 	andeq	r0, r4, r0
      dc:	00010000 	andeq	r0, r1, r0
      e0:	00000450 	andeq	r0, r0, r0, asr r4
      e4:	00000c00 	andeq	r0, r0, r0, lsl #24
      e8:	70000300 	andvc	r0, r0, r0, lsl #6
      ec:	000c9f30 	andeq	r9, ip, r0, lsr pc
      f0:	00140000 	andseq	r0, r4, r0
      f4:	00040000 	andeq	r0, r4, r0
      f8:	9f5001f3 	svcls	0x005001f3
	...
     104:	00000014 	andeq	r0, r0, r4, lsl r0
     108:	00000020 	andeq	r0, r0, r0, lsr #32
     10c:	20500001 	subscs	r0, r0, r1
     110:	2c000000 	stccs	0, cr0, [r0], {-0}
     114:	03000000 	movweq	r0, #0
     118:	9f017000 	svcls	0x00017000
     11c:	0000002c 	andeq	r0, r0, ip, lsr #32
     120:	00000040 	andeq	r0, r0, r0, asr #32
     124:	00500001 	subseq	r0, r0, r1
     128:	00000000 	andeq	r0, r0, r0
     12c:	14000000 	strne	r0, [r0], #-0
     130:	18000000 	stmdane	r0, {}	; <UNPREDICTABLE>
     134:	01000000 	mrseq	r0, (UNDEF: 0)
     138:	00185100 	andseq	r5, r8, r0, lsl #2
     13c:	00400000 	subeq	r0, r0, r0
     140:	00040000 	andeq	r0, r4, r0
     144:	9f5101f3 	svcls	0x005101f3
	...
     150:	00000040 	andeq	r0, r0, r0, asr #32
     154:	00000060 	andeq	r0, r0, r0, rrx
     158:	60500001 	subsvs	r0, r0, r1
     15c:	6c000000 	stcvs	0, cr0, [r0], {-0}
     160:	03000000 	movweq	r0, #0
     164:	9f017100 	svcls	0x00017100
     168:	0000006c 	andeq	r0, r0, ip, rrx
     16c:	00000074 	andeq	r0, r0, r4, ror r0
     170:	74510001 	ldrbvc	r0, [r1], #-1
     174:	80000000 	andhi	r0, r0, r0
     178:	03000000 	movweq	r0, #0
     17c:	9f017100 	svcls	0x00017100
	...
     188:	00000040 	andeq	r0, r0, r0, asr #32
     18c:	00000050 	andeq	r0, r0, r0, asr r0
     190:	50510001 	subspl	r0, r1, r1
     194:	80000000 	andhi	r0, r0, r0
     198:	04000000 	streq	r0, [r0], #-0
     19c:	5101f300 	mrspl	pc, SP_irq	; <UNPREDICTABLE>
     1a0:	0000009f 	muleq	r0, pc, r0	; <UNPREDICTABLE>
     1a4:	00000000 	andeq	r0, r0, r0
     1a8:	00004000 	andeq	r4, r0, r0
     1ac:	00005800 	andeq	r5, r0, r0, lsl #16
     1b0:	52000100 	andpl	r0, r0, #0, 2
     1b4:	00000058 	andeq	r0, r0, r8, asr r0
     1b8:	00000064 	andeq	r0, r0, r4, rrx
     1bc:	64520001 	ldrbvs	r0, [r2], #-1
     1c0:	68000000 	stmdavs	r0, {}	; <UNPREDICTABLE>
     1c4:	03000000 	movweq	r0, #0
     1c8:	9f017200 	svcls	0x00017200
     1cc:	00000068 	andeq	r0, r0, r8, rrx
     1d0:	00000080 	andeq	r0, r0, r0, lsl #1
     1d4:	00520001 	subseq	r0, r2, r1
     1d8:	00000000 	andeq	r0, r0, r0
     1dc:	40000000 	andmi	r0, r0, r0
     1e0:	54000000 	strpl	r0, [r0], #-0
     1e4:	01000000 	mrseq	r0, (UNDEF: 0)
     1e8:	00545300 	subseq	r5, r4, r0, lsl #6
     1ec:	00780000 	rsbseq	r0, r8, r0
     1f0:	00010000 	andeq	r0, r1, r0
     1f4:	00000053 	andeq	r0, r0, r3, asr r0
     1f8:	00000000 	andeq	r0, r0, r0
     1fc:	00004800 	andeq	r4, r0, r0, lsl #16
     200:	00006000 	andeq	r6, r0, r0
     204:	5c000100 	stfpls	f0, [r0], {-0}
     208:	00000060 	andeq	r0, r0, r0, rrx
     20c:	00000080 	andeq	r0, r0, r0, lsl #1
     210:	01f3000a 	mvnseq	r0, sl
     214:	5301f352 	movwpl	pc, #4946	; 0x1352	; <UNPREDICTABLE>
     218:	9f01231c 	svcls	0x0001231c
	...
     224:	00000080 	andeq	r0, r0, r0, lsl #1
     228:	000000a4 	andeq	r0, r0, r4, lsr #1
     22c:	a4500001 	ldrbge	r0, [r0], #-1
     230:	18000000 	stmdane	r0, {}	; <UNPREDICTABLE>
     234:	03000001 	movweq	r0, #1
     238:	9f027000 	svcls	0x00027000
     23c:	00000118 	andeq	r0, r0, r8, lsl r1
     240:	00000228 	andeq	r0, r0, r8, lsr #4
     244:	01f30004 	mvnseq	r0, r4
     248:	00009f50 	andeq	r9, r0, r0, asr pc
     24c:	00000000 	andeq	r0, r0, r0
     250:	00800000 	addeq	r0, r0, r0
     254:	00f00000 	rscseq	r0, r0, r0
     258:	00010000 	andeq	r0, r1, r0
     25c:	0000f051 	andeq	pc, r0, r1, asr r0	; <UNPREDICTABLE>
     260:	00016000 	andeq	r6, r1, r0
     264:	55000100 	strpl	r0, [r0, #-256]	; 0x100
     268:	00000160 	andeq	r0, r0, r0, ror #2
     26c:	00000168 	andeq	r0, r0, r8, ror #2
     270:	68510001 	ldmdavs	r1, {r0}^
     274:	88000001 	stmdahi	r0, {r0}
     278:	01000001 	tsteq	r0, r1
     27c:	01885500 	orreq	r5, r8, r0, lsl #10
     280:	019c0000 	orrseq	r0, ip, r0
     284:	00010000 	andeq	r0, r1, r0
     288:	00019c51 	andeq	r9, r1, r1, asr ip
     28c:	0001bc00 	andeq	fp, r1, r0, lsl #24
     290:	55000100 	strpl	r0, [r0, #-256]	; 0x100
     294:	000001bc 			; <UNDEFINED> instruction: 0x000001bc
     298:	000001bf 			; <UNDEFINED> instruction: 0x000001bf
     29c:	bf510001 	svclt	0x00510001
     2a0:	08000001 	stmdaeq	r0, {r0}
     2a4:	01000002 	tsteq	r0, r2
     2a8:	02085500 	andeq	r5, r8, #0, 10
     2ac:	02280000 	eoreq	r0, r8, #0
     2b0:	00040000 	andeq	r0, r4, r0
     2b4:	9f5101f3 	svcls	0x005101f3
	...
     2c0:	00000080 	andeq	r0, r0, r0, lsl #1
     2c4:	00000094 	muleq	r0, r4, r0
     2c8:	94520001 	ldrbls	r0, [r2], #-1
     2cc:	08000000 	stmdaeq	r0, {}	; <UNPREDICTABLE>
     2d0:	01000002 	tsteq	r0, r2
     2d4:	02085400 	andeq	r5, r8, #0, 8
     2d8:	02280000 	eoreq	r0, r8, #0
     2dc:	00040000 	andeq	r0, r4, r0
     2e0:	9f5201f3 	svcls	0x005201f3
	...
     2ec:	00000080 	andeq	r0, r0, r0, lsl #1
     2f0:	00000100 	andeq	r0, r0, r0, lsl #2
     2f4:	04530001 	ldrbeq	r0, [r3], #-1
     2f8:	08000001 	stmdaeq	r0, {r0}
     2fc:	01000001 	tsteq	r0, r1
     300:	01605300 	cmneq	r0, r0, lsl #6
     304:	01680000 	cmneq	r8, r0
     308:	00010000 	andeq	r0, r1, r0
     30c:	00016853 	andeq	r6, r1, r3, asr r8
     310:	00018800 	andeq	r8, r1, r0, lsl #16
     314:	f3000400 	vshl.u8	d0, d0, d0
     318:	889f5301 	ldmhi	pc, {r0, r8, r9, ip, lr}	; <UNPREDICTABLE>
     31c:	90000001 	andls	r0, r0, r1
     320:	01000001 	tsteq	r0, r1
     324:	01905300 	orrseq	r5, r0, r0, lsl #6
     328:	01940000 	orrseq	r0, r4, r0
     32c:	00010000 	andeq	r0, r1, r0
     330:	0001945c 	andeq	r9, r1, ip, asr r4
     334:	00019c00 	andeq	r9, r1, r0, lsl #24
     338:	53000100 	movwpl	r0, #256	; 0x100
     33c:	0000019c 	muleq	r0, ip, r1
     340:	000001bc 			; <UNDEFINED> instruction: 0x000001bc
     344:	01f30004 	mvnseq	r0, r4
     348:	01bc9f53 			; <UNDEFINED> instruction: 0x01bc9f53
     34c:	01bf0000 			; <UNDEFINED> instruction: 0x01bf0000
     350:	00010000 	andeq	r0, r1, r0
     354:	0001bf53 	andeq	fp, r1, r3, asr pc
     358:	0001e000 	andeq	lr, r1, r0
     35c:	f3000400 	vshl.u8	d0, d0, d0
     360:	009f5301 	addseq	r5, pc, r1, lsl #6
     364:	00000000 	andeq	r0, r0, r0
     368:	80000000 	andhi	r0, r0, r0
     36c:	9c000000 	stcls	0, cr0, [r0], {-0}
     370:	02000000 	andeq	r0, r0, #0
     374:	9c009100 	stflsd	f1, [r0], {-0}
     378:	bf000000 	svclt	0x00000000
     37c:	01000001 	tsteq	r0, r1
     380:	01e05200 	mvneq	r5, r0, lsl #4
     384:	01eb0000 	mvneq	r0, r0
     388:	00010000 	andeq	r0, r1, r0
     38c:	00000052 	andeq	r0, r0, r2, asr r0
     390:	00000000 	andeq	r0, r0, r0
     394:	00009c00 	andeq	r9, r0, r0, lsl #24
     398:	00010c00 	andeq	r0, r1, r0, lsl #24
     39c:	91000400 	tstls	r0, r0, lsl #8
     3a0:	0c9f7fa0 	ldceq	15, cr7, [pc], {160}	; 0xa0
     3a4:	18000001 	stmdane	r0, {r0}
     3a8:	01000001 	tsteq	r0, r1
     3ac:	01185100 	tsteq	r8, r0, lsl #2
     3b0:	011c0000 	tsteq	ip, r0
     3b4:	00010000 	andeq	r0, r1, r0
     3b8:	00011c53 	andeq	r1, r1, r3, asr ip
     3bc:	00012000 	andeq	r2, r1, r0
     3c0:	51000100 	mrspl	r0, (UNDEF: 16)
     3c4:	00000120 	andeq	r0, r0, r0, lsr #2
     3c8:	00000160 	andeq	r0, r0, r0, ror #2
     3cc:	60530001 	subsvs	r0, r3, r1
     3d0:	64000001 	strvs	r0, [r0], #-1
     3d4:	04000001 	streq	r0, [r0], #-1
     3d8:	7fa09100 	svcvc	0x00a09100
     3dc:	0001649f 	muleq	r1, pc, r4	; <UNPREDICTABLE>
     3e0:	00016c00 	andeq	r6, r1, r0, lsl #24
     3e4:	5e000100 	adfpls	f0, f0, f0
     3e8:	0000016c 	andeq	r0, r0, ip, ror #2
     3ec:	00000188 	andeq	r0, r0, r8, lsl #3
     3f0:	88530001 	ldmdahi	r3, {r0}^
     3f4:	90000001 	andls	r0, r0, r1
     3f8:	04000001 	streq	r0, [r0], #-1
     3fc:	7fa19100 	svcvc	0x00a19100
     400:	0001909f 	muleq	r1, pc, r0	; <UNPREDICTABLE>
     404:	00019400 	andeq	r9, r1, r0, lsl #8
     408:	53000100 	movwpl	r0, #256	; 0x100
     40c:	00000194 	muleq	r0, r4, r1
     410:	00000198 	muleq	r0, r8, r1
     414:	a0910004 	addsge	r0, r1, r4
     418:	01989f7f 	orrseq	r9, r8, pc, ror pc
     41c:	01a00000 	moveq	r0, r0
     420:	00010000 	andeq	r0, r1, r0
     424:	0001a05e 	andeq	sl, r1, lr, asr r0
     428:	0001bc00 	andeq	fp, r1, r0, lsl #24
     42c:	53000100 	movwpl	r0, #256	; 0x100
     430:	000001bc 			; <UNDEFINED> instruction: 0x000001bc
     434:	000001e0 	andeq	r0, r0, r0, ror #3
     438:	a0910004 	addsge	r0, r1, r4
     43c:	01e09f7f 	mvneq	r9, pc, ror pc
     440:	01eb0000 	mvneq	r0, r0
     444:	00010000 	andeq	r0, r1, r0
     448:	00000053 	andeq	r0, r0, r3, asr r0
     44c:	00000000 	andeq	r0, r0, r0
     450:	0000a000 	andeq	sl, r0, r0
     454:	0000ec00 	andeq	lr, r0, r0, lsl #24
     458:	5c000100 	stfpls	f0, [r0], {-0}
     45c:	000000ec 	andeq	r0, r0, ip, ror #1
     460:	00000100 	andeq	r0, r0, r0, lsl #2
     464:	00530001 	subseq	r0, r3, r1
     468:	04000001 	streq	r0, [r0], #-1
     46c:	01000001 	tsteq	r0, r1
     470:	01045c00 	tsteq	r4, r0, lsl #24
     474:	01080000 	mrseq	r0, (UNDEF: 8)
     478:	00010000 	andeq	r0, r1, r0
     47c:	00010853 	andeq	r0, r1, r3, asr r8
     480:	00011800 	andeq	r1, r1, r0, lsl #16
     484:	5c000100 	stfpls	f0, [r0], {-0}
     488:	00000118 	andeq	r0, r0, r8, lsl r1
     48c:	0000011c 	andeq	r0, r0, ip, lsl r1
     490:	1c500001 	mrrcne	0, 0, r0, r0, cr1	; <UNPREDICTABLE>
     494:	3c000001 	stccc	0, cr0, [r0], {1}
     498:	01000001 	tsteq	r0, r1
     49c:	01445c00 	cmpeq	r4, r0, lsl #24
     4a0:	01580000 	cmpeq	r8, r0
     4a4:	00010000 	andeq	r0, r1, r0
     4a8:	00015850 	andeq	r5, r1, r0, asr r8
     4ac:	00016000 	andeq	r6, r1, r0
     4b0:	5c000100 	stfpls	f0, [r0], {-0}
     4b4:	00000160 	andeq	r0, r0, r0, ror #2
     4b8:	00000168 	andeq	r0, r0, r8, ror #2
     4bc:	68530001 	ldmdavs	r3, {r0}^
     4c0:	78000001 	stmdavc	r0, {r0}
     4c4:	01000001 	tsteq	r0, r1
     4c8:	01785c00 	cmneq	r8, r0, lsl #24
     4cc:	01800000 	orreq	r0, r0, r0
     4d0:	00050000 	andeq	r0, r5, r0
     4d4:	2534007c 	ldrcs	r0, [r4, #-124]!	; 0x7c
     4d8:	0001809f 	muleq	r1, pc, r0	; <UNPREDICTABLE>
     4dc:	00018800 	andeq	r8, r1, r0, lsl #16
     4e0:	5c000100 	stfpls	f0, [r0], {-0}
     4e4:	00000188 	andeq	r0, r0, r8, lsl #3
     4e8:	00000190 	muleq	r0, r0, r1
     4ec:	90530001 	subsls	r0, r3, r1
     4f0:	94000001 	strls	r0, [r0], #-1
     4f4:	01000001 	tsteq	r0, r1
     4f8:	01945c00 	orrseq	r5, r4, r0, lsl #24
     4fc:	019c0000 	orrseq	r0, ip, r0
     500:	00010000 	andeq	r0, r1, r0
     504:	00019c53 	andeq	r9, r1, r3, asr ip
     508:	0001ac00 	andeq	sl, r1, r0, lsl #24
     50c:	5c000100 	stfpls	f0, [r0], {-0}
     510:	000001ac 	andeq	r0, r0, ip, lsr #3
     514:	000001b4 			; <UNDEFINED> instruction: 0x000001b4
     518:	007c0005 	rsbseq	r0, ip, r5
     51c:	b49f2531 	ldrlt	r2, [pc], #1329	; 524 <_start-0x7adc>
     520:	bc000001 	stclt	0, cr0, [r0], {1}
     524:	01000001 	tsteq	r0, r1
     528:	01bc5c00 			; <UNDEFINED> instruction: 0x01bc5c00
     52c:	01bf0000 			; <UNDEFINED> instruction: 0x01bf0000
     530:	00010000 	andeq	r0, r1, r0
     534:	0001bf53 	andeq	fp, r1, r3, asr pc
     538:	0001e000 	andeq	lr, r1, r0
     53c:	f3000400 	vshl.u8	d0, d0, d0
     540:	e09f5301 	adds	r5, pc, r1, lsl #6
     544:	eb000001 	bl	550 <_start-0x7ab0>
     548:	01000001 	tsteq	r0, r1
     54c:	00005c00 	andeq	r5, r0, r0, lsl #24
     550:	00000000 	andeq	r0, r0, r0
     554:	00ec0000 	rsceq	r0, ip, r0
     558:	00fc0000 	rscseq	r0, ip, r0
     55c:	00020000 	andeq	r0, r2, r0
     560:	00fc9f30 	rscseq	r9, ip, r0, lsr pc
     564:	01040000 	mrseq	r0, (UNDEF: 4)
     568:	00020000 	andeq	r0, r2, r0
     56c:	01049f31 	tsteq	r4, r1, lsr pc
     570:	01080000 	mrseq	r0, (UNDEF: 8)
     574:	00020000 	andeq	r0, r2, r0
     578:	00009f30 	andeq	r9, r0, r0, lsr pc
     57c:	00000000 	andeq	r0, r0, r0
     580:	02280000 	eoreq	r0, r8, #0
     584:	023b0000 	eorseq	r0, fp, #0
     588:	00010000 	andeq	r0, r1, r0
     58c:	00023b50 	andeq	r3, r2, r0, asr fp
     590:	00025c00 	andeq	r5, r2, r0, lsl #24
     594:	f3000400 	vshl.u8	d0, d0, d0
     598:	5c9f5001 	ldcpl	0, cr5, [pc], {1}
     59c:	90000002 	andls	r0, r0, r2
     5a0:	01000002 	tsteq	r0, r2
     5a4:	00005000 	andeq	r5, r0, r0
     5a8:	00000000 	andeq	r0, r0, r0
     5ac:	02280000 	eoreq	r0, r8, #0
     5b0:	023b0000 	eorseq	r0, fp, #0
     5b4:	00010000 	andeq	r0, r1, r0
     5b8:	00023b51 	andeq	r3, r2, r1, asr fp
     5bc:	00025c00 	andeq	r5, r2, r0, lsl #24
     5c0:	f3000400 	vshl.u8	d0, d0, d0
     5c4:	5c9f5101 	ldfpls	f5, [pc], {1}
     5c8:	90000002 	andls	r0, r0, r2
     5cc:	01000002 	tsteq	r0, r2
     5d0:	00005100 	andeq	r5, r0, r0, lsl #2
     5d4:	00000000 	andeq	r0, r0, r0
     5d8:	02900000 	addseq	r0, r0, #0
     5dc:	02bc0000 	adcseq	r0, ip, #0
     5e0:	00010000 	andeq	r0, r1, r0
     5e4:	0002bc50 	andeq	fp, r2, r0, asr ip
     5e8:	00050c00 	andeq	r0, r5, r0, lsl #24
     5ec:	5a000100 	bpl	9f4 <_start-0x760c>
     5f0:	0000050c 	andeq	r0, r0, ip, lsl #10
     5f4:	00000524 	andeq	r0, r0, r4, lsr #10
     5f8:	01f30004 	mvnseq	r0, r4
     5fc:	00009f50 	andeq	r9, r0, r0, asr pc
     600:	00000000 	andeq	r0, r0, r0
     604:	02900000 	addseq	r0, r0, #0
     608:	02a40000 	adceq	r0, r4, #0
     60c:	00010000 	andeq	r0, r1, r0
     610:	0002a451 	andeq	sl, r2, r1, asr r4
     614:	0002bc00 	andeq	fp, r2, r0, lsl #24
     618:	71000300 	mrsvc	r0, LR_irq
     61c:	02bc9f01 	adcseq	r9, ip, #1, 30
     620:	05240000 	streq	r0, [r4, #-0]!
     624:	00040000 	andeq	r0, r4, r0
     628:	9f5101f3 	svcls	0x005101f3
	...
     634:	00000290 	muleq	r0, r0, r2
     638:	000002c4 	andeq	r0, r0, r4, asr #5
     63c:	c4520001 	ldrbgt	r0, [r2], #-1
     640:	ec000002 	stc	0, cr0, [r0], {2}
     644:	01000002 	tsteq	r0, r2
     648:	02ec5200 	rsceq	r5, ip, #0, 4
     64c:	04bc0000 	ldrteq	r0, [ip], #0
     650:	00010000 	andeq	r0, r1, r0
     654:	0004bc56 	andeq	fp, r4, r6, asr ip
     658:	00052400 	andeq	r2, r5, r0, lsl #8
     65c:	52000100 	andpl	r0, r0, #0, 2
	...
     668:	00000290 	muleq	r0, r0, r2
     66c:	000002ac 	andeq	r0, r0, ip, lsr #5
     670:	00530001 	subseq	r0, r3, r1
     674:	00000000 	andeq	r0, r0, r0
     678:	a0000000 	andge	r0, r0, r0
     67c:	bc000002 	stclt	0, cr0, [r0], {2}
     680:	01000002 	tsteq	r0, r2
     684:	02bc5000 	adcseq	r5, ip, #0
     688:	02c00000 	sbceq	r0, r0, #0
     68c:	00010000 	andeq	r0, r1, r0
     690:	0002c054 	andeq	ip, r2, r4, asr r0
     694:	0002cc00 	andeq	ip, r2, r0, lsl #24
     698:	74000300 	strvc	r0, [r0], #-768	; 0x300
     69c:	02cc9f01 	sbceq	r9, ip, #1, 30
     6a0:	02d80000 	sbcseq	r0, r8, #0
     6a4:	00010000 	andeq	r0, r1, r0
     6a8:	0002d854 	andeq	sp, r2, r4, asr r8
     6ac:	0002e400 	andeq	lr, r2, r0, lsl #8
     6b0:	74000300 	strvc	r0, [r0], #-768	; 0x300
     6b4:	02e49f01 	rsceq	r9, r4, #1, 30
     6b8:	04c00000 	strbeq	r0, [r0], #0
     6bc:	00010000 	andeq	r0, r1, r0
     6c0:	0004c054 	andeq	ip, r4, r4, asr r0
     6c4:	0004cc00 	andeq	ip, r4, r0, lsl #24
     6c8:	74000300 	strvc	r0, [r0], #-768	; 0x300
     6cc:	04cc9f01 	strbeq	r9, [ip], #3841	; 0xf01
     6d0:	04f80000 	ldrbteq	r0, [r8], #0
     6d4:	00010000 	andeq	r0, r1, r0
     6d8:	0004f854 	andeq	pc, r4, r4, asr r8	; <UNPREDICTABLE>
     6dc:	00050400 	andeq	r0, r5, r0, lsl #8
     6e0:	50000100 	andpl	r0, r0, r0, lsl #2
     6e4:	00000504 	andeq	r0, r0, r4, lsl #10
     6e8:	0000050c 	andeq	r0, r0, ip, lsl #10
     6ec:	01740003 	cmneq	r4, r3
     6f0:	0000009f 	muleq	r0, pc, r0	; <UNPREDICTABLE>
     6f4:	00000000 	andeq	r0, r0, r0
     6f8:	0002a800 	andeq	sl, r2, r0, lsl #16
     6fc:	00050c00 	andeq	r0, r5, r0, lsl #24
     700:	58000100 	stmdapl	r0, {r8}
     704:	0000050c 	andeq	r0, r0, ip, lsl #10
     708:	00000524 	andeq	r0, r0, r4, lsr #10
     70c:	01f3000a 	mvnseq	r0, sl
     710:	5001f351 	andpl	pc, r1, r1, asr r3	; <UNPREDICTABLE>
     714:	9f1c3122 	svcls	0x001c3122
	...
     720:	000003f4 	strdeq	r0, [r0], -r4
     724:	000003f8 	strdeq	r0, [r0], -r8
     728:	18500001 	ldmdane	r0, {r0}^
     72c:	1c000004 	stcne	0, cr0, [r0], {4}
     730:	01000004 	tsteq	r0, r4
     734:	043c5000 	ldrteq	r5, [ip], #-0
     738:	04400000 	strbeq	r0, [r0], #-0
     73c:	00010000 	andeq	r0, r1, r0
     740:	00046050 	andeq	r6, r4, r0, asr r0
     744:	00046400 	andeq	r6, r4, r0, lsl #8
     748:	50000100 	andpl	r0, r0, r0, lsl #2
     74c:	0000046c 	andeq	r0, r0, ip, ror #8
     750:	00000470 	andeq	r0, r0, r0, ror r4
     754:	90500001 	subsls	r0, r0, r1
     758:	94000004 	strls	r0, [r0], #-4
     75c:	01000004 	tsteq	r0, r4
     760:	04b85000 	ldrteq	r5, [r8], #0
     764:	04e00000 	strbteq	r0, [r0], #0
     768:	00010000 	andeq	r0, r1, r0
     76c:	00000050 	andeq	r0, r0, r0, asr r0
     770:	00000000 	andeq	r0, r0, r0
     774:	0002ec00 	andeq	lr, r2, r0, lsl #24
     778:	0002f400 	andeq	pc, r2, r0, lsl #8
     77c:	30000200 	andcc	r0, r0, r0, lsl #4
     780:	0002f49f 	muleq	r2, pc, r4	; <UNPREDICTABLE>
     784:	0002f800 	andeq	pc, r2, r0, lsl #16
     788:	57000100 	strpl	r0, [r0, -r0, lsl #2]
     78c:	00000304 	andeq	r0, r0, r4, lsl #6
     790:	000004e0 	andeq	r0, r0, r0, ror #9
     794:	00570001 	subseq	r0, r7, r1
	...
     7a0:	0c000000 	stceq	0, cr0, [r0], {-0}
     7a4:	01000000 	mrseq	r0, (UNDEF: 0)
     7a8:	000c5000 	andeq	r5, ip, r0
     7ac:	00200000 	eoreq	r0, r0, r0
     7b0:	00010000 	andeq	r0, r1, r0
     7b4:	00000054 	andeq	r0, r0, r4, asr r0
     7b8:	00000000 	andeq	r0, r0, r0
     7bc:	00003400 	andeq	r3, r0, r0, lsl #8
     7c0:	00003c00 	andeq	r3, r0, r0, lsl #24
     7c4:	73000300 	movwvc	r0, #768	; 0x300
     7c8:	003c9f04 	eorseq	r9, ip, r4, lsl #30
     7cc:	00470000 	subeq	r0, r7, r0
     7d0:	00010000 	andeq	r0, r1, r0
     7d4:	00000053 	andeq	r0, r0, r3, asr r0
     7d8:	00000000 	andeq	r0, r0, r0
     7dc:	00004800 	andeq	r4, r0, r0, lsl #16
     7e0:	00007400 	andeq	r7, r0, r0, lsl #8
     7e4:	50000100 	andpl	r0, r0, r0, lsl #2
     7e8:	00000074 	andeq	r0, r0, r4, ror r0
     7ec:	00000083 	andeq	r0, r0, r3, lsl #1
     7f0:	78730003 	ldmdavc	r3!, {r0, r1}^
     7f4:	0000009f 	muleq	r0, pc, r0	; <UNPREDICTABLE>
     7f8:	00000000 	andeq	r0, r0, r0
     7fc:	00878c00 	addeq	r8, r7, r0, lsl #24
     800:	00879000 	addeq	r9, r7, r0
     804:	30000200 	andcc	r0, r0, r0, lsl #4
     808:	0087909f 	umulleq	r9, r7, pc, r0	; <UNPREDICTABLE>
     80c:	00879400 	addeq	r9, r7, r0, lsl #8
     810:	50000100 	andpl	r0, r0, r0, lsl #2
	...
     81c:	000087a4 	andeq	r8, r0, r4, lsr #15
     820:	000087a8 	andeq	r8, r0, r8, lsr #15
     824:	9f300002 	svcls	0x00300002
     828:	000087a8 	andeq	r8, r0, r8, lsr #15
     82c:	000087ac 	andeq	r8, r0, ip, lsr #15
     830:	b0530001 	subslt	r0, r3, r1
     834:	b8000087 	stmdalt	r0, {r0, r1, r2, r7}
     838:	01000087 	smlabbeq	r0, r7, r0, r0
     83c:	00005300 	andeq	r5, r0, r0, lsl #6
	...
     848:	00040000 	andeq	r0, r4, r0
     84c:	00010000 	andeq	r0, r1, r0
     850:	00000450 	andeq	r0, r0, r0, asr r4
     854:	00000c00 	andeq	r0, r0, r0, lsl #24
     858:	53000100 	movwpl	r0, #256	; 0x100
     85c:	0000000c 	andeq	r0, r0, ip
     860:	00000010 	andeq	r0, r0, r0, lsl r0
     864:	10500001 	subsne	r0, r0, r1
     868:	1c000000 	stcne	0, cr0, [r0], {-0}
     86c:	01000000 	mrseq	r0, (UNDEF: 0)
     870:	00005300 	andeq	r5, r0, r0, lsl #6
     874:	00000000 	andeq	r0, r0, r0
     878:	003c0000 	eorseq	r0, ip, r0
     87c:	00470000 	subeq	r0, r7, r0
     880:	00010000 	andeq	r0, r1, r0
     884:	00004750 	andeq	r4, r0, r0, asr r7
     888:	00006000 	andeq	r6, r0, r0
     88c:	55000100 	strpl	r0, [r0, #-256]	; 0x100
	...
     898:	00000050 	andeq	r0, r0, r0, asr r0
     89c:	00000054 	andeq	r0, r0, r4, asr r0
     8a0:	00500001 	subseq	r0, r0, r1
     8a4:	00000000 	andeq	r0, r0, r0
     8a8:	60000000 	andvs	r0, r0, r0
     8ac:	6c000000 	stcvs	0, cr0, [r0], {-0}
     8b0:	01000000 	mrseq	r0, (UNDEF: 0)
     8b4:	006c5000 	rsbeq	r5, ip, r0
     8b8:	00740000 	rsbseq	r0, r4, r0
     8bc:	00040000 	andeq	r0, r4, r0
     8c0:	9f5001f3 	svcls	0x005001f3
	...
     8cc:	00000074 	andeq	r0, r0, r4, ror r0
     8d0:	00000080 	andeq	r0, r0, r0, lsl #1
     8d4:	80500001 	subshi	r0, r0, r1
     8d8:	88000000 	stmdahi	r0, {}	; <UNPREDICTABLE>
     8dc:	04000000 	streq	r0, [r0], #-0
     8e0:	5001f300 	andpl	pc, r1, r0, lsl #6
     8e4:	0000009f 	muleq	r0, pc, r0	; <UNPREDICTABLE>
	...
     8f0:	00001800 	andeq	r1, r0, r0, lsl #16
     8f4:	50000100 	andpl	r0, r0, r0, lsl #2
     8f8:	00000018 	andeq	r0, r0, r8, lsl r0
     8fc:	00000154 	andeq	r0, r0, r4, asr r1
     900:	01f30004 	mvnseq	r0, r4
     904:	00009f50 	andeq	r9, r0, r0, asr pc
	...
     910:	001c0000 	andseq	r0, ip, r0
     914:	00010000 	andeq	r0, r1, r0
     918:	00001c51 	andeq	r1, r0, r1, asr ip
     91c:	00015400 	andeq	r5, r1, r0, lsl #8
     920:	f3000400 	vshl.u8	d0, d0, d0
     924:	009f5101 	addseq	r5, pc, r1, lsl #2
     928:	00000000 	andeq	r0, r0, r0
     92c:	10000000 	andne	r0, r0, r0
     930:	34000000 	strcc	r0, [r0], #-0
     934:	01000001 	tsteq	r0, r1
     938:	00005500 	andeq	r5, r0, r0, lsl #10
     93c:	00000000 	andeq	r0, r0, r0
     940:	00100000 	andseq	r0, r0, r0
     944:	00340000 	eorseq	r0, r4, r0
     948:	00010000 	andeq	r0, r1, r0
     94c:	00003455 	andeq	r3, r0, r5, asr r4
     950:	00013400 	andeq	r3, r1, r0, lsl #8
     954:	58000100 	stmdapl	r0, {r8}
     958:	00000134 	andeq	r0, r0, r4, lsr r1
     95c:	00000154 	andeq	r0, r0, r4, asr r1
     960:	00550001 	subseq	r0, r5, r1
     964:	00000000 	andeq	r0, r0, r0
     968:	14000000 	strne	r0, [r0], #-0
     96c:	34000000 	strcc	r0, [r0], #-0
     970:	01000001 	tsteq	r0, r1
     974:	00005500 	andeq	r5, r0, r0, lsl #10
     978:	00000000 	andeq	r0, r0, r0
     97c:	00200000 	eoreq	r0, r0, r0
     980:	01340000 	teqeq	r4, r0
     984:	00010000 	andeq	r0, r1, r0
     988:	00000055 	andeq	r0, r0, r5, asr r0
     98c:	00000000 	andeq	r0, r0, r0
     990:	00002400 	andeq	r2, r0, r0, lsl #8
     994:	00002800 	andeq	r2, r0, r0, lsl #16
     998:	53000100 	movwpl	r0, #256	; 0x100
	...
     9a4:	00000034 	andeq	r0, r0, r4, lsr r0
     9a8:	00000054 	andeq	r0, r0, r4, asr r0
     9ac:	54580001 	ldrbpl	r0, [r8], #-1
     9b0:	34000000 	strcc	r0, [r0], #-0
     9b4:	05000001 	streq	r0, [r0, #-1]
     9b8:	31007500 	tstcc	r0, r0, lsl #10
     9bc:	00009f24 	andeq	r9, r0, r4, lsr #30
     9c0:	00000000 	andeq	r0, r0, r0
     9c4:	00340000 	eorseq	r0, r4, r0
     9c8:	003c0000 	eorseq	r0, ip, r0
     9cc:	00050000 	andeq	r0, r5, r0
     9d0:	1a310077 	bne	c40bb4 <__bss_end__+0xc36d54>
     9d4:	00003c9f 	muleq	r0, pc, ip	; <UNPREDICTABLE>
     9d8:	00003f00 	andeq	r3, r0, r0, lsl #30
     9dc:	51000100 	mrspl	r0, (UNDEF: 16)
     9e0:	0000003f 	andeq	r0, r0, pc, lsr r0
     9e4:	00000154 	andeq	r0, r0, r4, asr r1
     9e8:	00770005 	rsbseq	r0, r7, r5
     9ec:	009f1a31 	addseq	r1, pc, r1, lsr sl	; <UNPREDICTABLE>
     9f0:	00000000 	andeq	r0, r0, r0
     9f4:	40000000 	andmi	r0, r0, r0
     9f8:	54000000 	strpl	r0, [r0], #-0
     9fc:	01000000 	mrseq	r0, (UNDEF: 0)
     a00:	00545800 	subseq	r5, r4, r0, lsl #16
     a04:	01340000 	teqeq	r4, r0
     a08:	00050000 	andeq	r0, r5, r0
     a0c:	24310075 	ldrtcs	r0, [r1], #-117	; 0x75
     a10:	0000009f 	muleq	r0, pc, r0	; <UNPREDICTABLE>
     a14:	00000000 	andeq	r0, r0, r0
     a18:	00004400 	andeq	r4, r0, r0, lsl #8
     a1c:	00004800 	andeq	r4, r0, r0, lsl #16
     a20:	53000100 	movwpl	r0, #256	; 0x100
	...
     a2c:	00000054 	andeq	r0, r0, r4, asr r0
     a30:	00000074 	andeq	r0, r0, r4, ror r0
     a34:	74580001 	ldrbvc	r0, [r8], #-1
     a38:	34000000 	strcc	r0, [r0], #-0
     a3c:	08000001 	stmdaeq	r0, {r0}
     a40:	31007500 	tstcc	r0, r0, lsl #10
     a44:	22007524 	andcs	r7, r0, #36, 10	; 0x9000000
     a48:	0000009f 	muleq	r0, pc, r0	; <UNPREDICTABLE>
     a4c:	00000000 	andeq	r0, r0, r0
     a50:	00006000 	andeq	r6, r0, r0
     a54:	00007400 	andeq	r7, r0, r0, lsl #8
     a58:	58000100 	stmdapl	r0, {r8}
     a5c:	00000074 	andeq	r0, r0, r4, ror r0
     a60:	00000134 	andeq	r0, r0, r4, lsr r1
     a64:	00750008 	rsbseq	r0, r5, r8
     a68:	00752431 	rsbseq	r2, r5, r1, lsr r4
     a6c:	00009f22 	andeq	r9, r0, r2, lsr #30
     a70:	00000000 	andeq	r0, r0, r0
     a74:	00640000 	rsbeq	r0, r4, r0
     a78:	00680000 	rsbeq	r0, r8, r0
     a7c:	00010000 	andeq	r0, r1, r0
     a80:	00000053 	andeq	r0, r0, r3, asr r0
     a84:	00000000 	andeq	r0, r0, r0
     a88:	00007400 	andeq	r7, r0, r0, lsl #8
     a8c:	00009400 	andeq	r9, r0, r0, lsl #8
     a90:	58000100 	stmdapl	r0, {r8}
     a94:	00000094 	muleq	r0, r4, r0
     a98:	00000134 	andeq	r0, r0, r4, lsr r1
     a9c:	00750005 	rsbseq	r0, r5, r5
     aa0:	009f2432 	addseq	r2, pc, r2, lsr r4	; <UNPREDICTABLE>
     aa4:	00000000 	andeq	r0, r0, r0
     aa8:	80000000 	andhi	r0, r0, r0
     aac:	94000000 	strls	r0, [r0], #-0
     ab0:	01000000 	mrseq	r0, (UNDEF: 0)
     ab4:	00945800 	addseq	r5, r4, r0, lsl #16
     ab8:	01340000 	teqeq	r4, r0
     abc:	00050000 	andeq	r0, r5, r0
     ac0:	24320075 	ldrtcs	r0, [r2], #-117	; 0x75
     ac4:	0000009f 	muleq	r0, pc, r0	; <UNPREDICTABLE>
     ac8:	00000000 	andeq	r0, r0, r0
     acc:	00008400 	andeq	r8, r0, r0, lsl #8
     ad0:	00008800 	andeq	r8, r0, r0, lsl #16
     ad4:	53000100 	movwpl	r0, #256	; 0x100
	...
     ae0:	00000094 	muleq	r0, r4, r0
     ae4:	000000b4 	strheq	r0, [r0], -r4
     ae8:	b4580001 	ldrblt	r0, [r8], #-1
     aec:	34000000 	strcc	r0, [r0], #-0
     af0:	08000001 	stmdaeq	r0, {r0}
     af4:	32007500 	andcc	r7, r0, #0, 10
     af8:	22007524 	andcs	r7, r0, #36, 10	; 0x9000000
     afc:	0000009f 	muleq	r0, pc, r0	; <UNPREDICTABLE>
     b00:	00000000 	andeq	r0, r0, r0
     b04:	0000a000 	andeq	sl, r0, r0
     b08:	0000b400 	andeq	fp, r0, r0, lsl #8
     b0c:	58000100 	stmdapl	r0, {r8}
     b10:	000000b4 	strheq	r0, [r0], -r4
     b14:	00000134 	andeq	r0, r0, r4, lsr r1
     b18:	00750008 	rsbseq	r0, r5, r8
     b1c:	00752432 	rsbseq	r2, r5, r2, lsr r4
     b20:	00009f22 	andeq	r9, r0, r2, lsr #30
     b24:	00000000 	andeq	r0, r0, r0
     b28:	00a40000 	adceq	r0, r4, r0
     b2c:	00a80000 	adceq	r0, r8, r0
     b30:	00010000 	andeq	r0, r1, r0
     b34:	00000053 	andeq	r0, r0, r3, asr r0
     b38:	00000000 	andeq	r0, r0, r0
     b3c:	0000b400 	andeq	fp, r0, r0, lsl #8
     b40:	0000d400 	andeq	sp, r0, r0, lsl #8
     b44:	58000100 	stmdapl	r0, {r8}
     b48:	000000d4 	ldrdeq	r0, [r0], -r4
     b4c:	00000134 	andeq	r0, r0, r4, lsr r1
     b50:	0075000a 	rsbseq	r0, r5, sl
     b54:	00752432 	rsbseq	r2, r5, r2, lsr r4
     b58:	9f222431 	svcls	0x00222431
	...
     b64:	000000c0 	andeq	r0, r0, r0, asr #1
     b68:	000000d4 	ldrdeq	r0, [r0], -r4
     b6c:	d4580001 	ldrble	r0, [r8], #-1
     b70:	34000000 	strcc	r0, [r0], #-0
     b74:	0a000001 	beq	b80 <_start-0x7480>
     b78:	32007500 	andcc	r7, r0, #0, 10
     b7c:	31007524 	tstcc	r0, r4, lsr #10
     b80:	009f2224 	addseq	r2, pc, r4, lsr #4
     b84:	00000000 	andeq	r0, r0, r0
     b88:	c4000000 	strgt	r0, [r0], #-0
     b8c:	c8000000 	stmdagt	r0, {}	; <UNPREDICTABLE>
     b90:	01000000 	mrseq	r0, (UNDEF: 0)
     b94:	00005300 	andeq	r5, r0, r0, lsl #6
     b98:	00000000 	andeq	r0, r0, r0
     b9c:	00d40000 	sbcseq	r0, r4, r0
     ba0:	00f40000 	rscseq	r0, r4, r0
     ba4:	00010000 	andeq	r0, r1, r0
     ba8:	0000f458 	andeq	pc, r0, r8, asr r4	; <UNPREDICTABLE>
     bac:	00013400 	andeq	r3, r1, r0, lsl #8
     bb0:	75000d00 	strvc	r0, [r0, #-3328]	; 0xd00
     bb4:	75243200 	strvc	r3, [r4, #-512]!	; 0x200
     bb8:	22243100 	eorcs	r3, r4, #0, 2
     bbc:	9f220075 	svcls	0x00220075
	...
     bc8:	000000e0 	andeq	r0, r0, r0, ror #1
     bcc:	000000f4 	strdeq	r0, [r0], -r4
     bd0:	f4580001 			; <UNDEFINED> instruction: 0xf4580001
     bd4:	34000000 	strcc	r0, [r0], #-0
     bd8:	0d000001 	stceq	0, cr0, [r0, #-4]
     bdc:	32007500 	andcc	r7, r0, #0, 10
     be0:	31007524 	tstcc	r0, r4, lsr #10
     be4:	00752224 	rsbseq	r2, r5, r4, lsr #4
     be8:	00009f22 	andeq	r9, r0, r2, lsr #30
     bec:	00000000 	andeq	r0, r0, r0
     bf0:	00e40000 	rsceq	r0, r4, r0
     bf4:	00e80000 	rsceq	r0, r8, r0
     bf8:	00010000 	andeq	r0, r1, r0
     bfc:	00000053 	andeq	r0, r0, r3, asr r0
     c00:	00000000 	andeq	r0, r0, r0
     c04:	0000f400 	andeq	pc, r0, r0, lsl #8
     c08:	00011400 	andeq	r1, r1, r0, lsl #8
     c0c:	58000100 	stmdapl	r0, {r8}
     c10:	00000114 	andeq	r0, r0, r4, lsl r1
     c14:	00000134 	andeq	r0, r0, r4, lsr r1
     c18:	00750005 	rsbseq	r0, r5, r5
     c1c:	009f2433 	addseq	r2, pc, r3, lsr r4	; <UNPREDICTABLE>
	...
     c28:	14000001 	strne	r0, [r0], #-1
     c2c:	01000001 	tsteq	r0, r1
     c30:	01145800 	tsteq	r4, r0, lsl #16
     c34:	01340000 	teqeq	r4, r0
     c38:	00050000 	andeq	r0, r5, r0
     c3c:	24330075 	ldrtcs	r0, [r3], #-117	; 0x75
     c40:	0000009f 	muleq	r0, pc, r0	; <UNPREDICTABLE>
     c44:	00000000 	andeq	r0, r0, r0
     c48:	00010400 	andeq	r0, r1, r0, lsl #8
     c4c:	00010800 	andeq	r0, r1, r0, lsl #16
     c50:	53000100 	movwpl	r0, #256	; 0x100
	...
     c5c:	00000114 	andeq	r0, r0, r4, lsl r1
     c60:	0000011c 	andeq	r0, r0, ip, lsl r1
     c64:	00770006 	rsbseq	r0, r7, r6
     c68:	9f1a8008 	svcls	0x001a8008
     c6c:	0000011c 	andeq	r0, r0, ip, lsl r1
     c70:	0000011f 	andeq	r0, r0, pc, lsl r1
     c74:	1f510001 	svcne	0x00510001
     c78:	54000001 	strpl	r0, [r0], #-1
     c7c:	06000001 	streq	r0, [r0], -r1
     c80:	08007700 	stmdaeq	r0, {r8, r9, sl, ip, sp, lr}
     c84:	009f1a80 	addseq	r1, pc, r0, lsl #21
     c88:	00000000 	andeq	r0, r0, r0
     c8c:	24000000 	strcs	r0, [r0], #-0
     c90:	28000001 	stmdacs	r0, {r0}
     c94:	01000001 	tsteq	r0, r1
     c98:	00005300 	andeq	r5, r0, r0, lsl #6
     c9c:	00000000 	andeq	r0, r0, r0
     ca0:	01440000 	mrseq	r0, (UNDEF: 68)
     ca4:	01480000 	mrseq	r0, (UNDEF: 72)
     ca8:	00010000 	andeq	r0, r1, r0
     cac:	00000053 	andeq	r0, r0, r3, asr r0
     cb0:	00000000 	andeq	r0, r0, r0
     cb4:	00015400 	andeq	r5, r1, r0, lsl #8
     cb8:	00016b00 	andeq	r6, r1, r0, lsl #22
     cbc:	50000100 	andpl	r0, r0, r0, lsl #2
     cc0:	0000016b 	andeq	r0, r0, fp, ror #2
     cc4:	000001d0 	ldrdeq	r0, [r0], -r0	; <UNPREDICTABLE>
     cc8:	d0590001 	subsle	r0, r9, r1
     ccc:	0c000001 	stceq	0, cr0, [r0], {1}
     cd0:	04000003 	streq	r0, [r0], #-3
     cd4:	5001f300 	andpl	pc, r1, r0, lsl #6
     cd8:	00030c9f 	muleq	r3, pc, ip	; <UNPREDICTABLE>
     cdc:	00031400 	andeq	r1, r3, r0, lsl #8
     ce0:	59000100 	stmdbpl	r0, {r8}
     ce4:	00000314 	andeq	r0, r0, r4, lsl r3
     ce8:	0000031c 	andeq	r0, r0, ip, lsl r3
     cec:	01f30004 	mvnseq	r0, r4
     cf0:	00009f50 	andeq	r9, r0, r0, asr pc
     cf4:	00000000 	andeq	r0, r0, r0
     cf8:	01540000 	cmpeq	r4, r0
     cfc:	016b0000 	cmneq	fp, r0
     d00:	00010000 	andeq	r0, r1, r0
     d04:	00016b51 	andeq	r6, r1, r1, asr fp
     d08:	00031c00 	andeq	r1, r3, r0, lsl #24
     d0c:	56000100 	strpl	r0, [r0], -r0, lsl #2
	...
     d18:	000001a8 	andeq	r0, r0, r8, lsr #3
     d1c:	00000298 	muleq	r0, r8, r2
     d20:	00580001 	subseq	r0, r8, r1
     d24:	00000000 	andeq	r0, r0, r0
     d28:	ac000000 	stcge	0, cr0, [r0], {-0}
     d2c:	d0000001 	andle	r0, r0, r1
     d30:	01000002 	tsteq	r0, r2
     d34:	00005400 	andeq	r5, r0, r0, lsl #8
     d38:	00000000 	andeq	r0, r0, r0
     d3c:	01ac0000 			; <UNDEFINED> instruction: 0x01ac0000
     d40:	02d00000 	sbcseq	r0, r0, #0
     d44:	00050000 	andeq	r0, r5, r0
     d48:	25310074 	ldrcs	r0, [r1, #-116]!	; 0x74
     d4c:	0000009f 	muleq	r0, pc, r0	; <UNPREDICTABLE>
     d50:	00000000 	andeq	r0, r0, r0
     d54:	0001ac00 	andeq	sl, r1, r0, lsl #24
     d58:	0001d000 	andeq	sp, r1, r0
     d5c:	30000200 	andcc	r0, r0, r0, lsl #4
     d60:	0001d09f 	muleq	r1, pc, r0	; <UNPREDICTABLE>
     d64:	00030c00 	andeq	r0, r3, r0, lsl #24
     d68:	59000100 	stmdbpl	r0, {r8}
     d6c:	00000314 	andeq	r0, r0, r4, lsl r3
     d70:	0000031c 	andeq	r0, r0, ip, lsl r3
     d74:	00590001 	subseq	r0, r9, r1
     d78:	00000000 	andeq	r0, r0, r0
     d7c:	68000000 	stmdavs	r0, {}	; <UNPREDICTABLE>
     d80:	6b000001 	blvs	d8c <_start-0x7274>
     d84:	01000001 	tsteq	r0, r1
     d88:	016b5100 	cmneq	fp, r0, lsl #2
     d8c:	031c0000 	tsteq	ip, #0
     d90:	00010000 	andeq	r0, r1, r0
     d94:	00000056 	andeq	r0, r0, r6, asr r0
     d98:	00000000 	andeq	r0, r0, r0
     d9c:	00017000 	andeq	r7, r1, r0
     da0:	0001ac00 	andeq	sl, r1, r0, lsl #24
     da4:	54000100 	strpl	r0, [r0], #-256	; 0x100
     da8:	0000030c 	andeq	r0, r0, ip, lsl #6
     dac:	00000314 	andeq	r0, r0, r4, lsl r3
     db0:	00540001 	subseq	r0, r4, r1
     db4:	00000000 	andeq	r0, r0, r0
     db8:	a8000000 	stmdage	r0, {}	; <UNPREDICTABLE>
     dbc:	c4000001 	strgt	r0, [r0], #-1
     dc0:	01000001 	tsteq	r0, r1
     dc4:	00005800 	andeq	r5, r0, r0, lsl #16
     dc8:	00000000 	andeq	r0, r0, r0
     dcc:	01b00000 	movseq	r0, r0
     dd0:	01cb0000 	biceq	r0, fp, r0
     dd4:	00010000 	andeq	r0, r1, r0
     dd8:	0001cb52 	andeq	ip, r1, r2, asr fp
     ddc:	0002d000 	andeq	sp, r2, r0
     de0:	74000800 	strvc	r0, [r0], #-2048	; 0x800
     de4:	74253100 	strtvc	r3, [r5], #-256	; 0x100
     de8:	009f2200 	addseq	r2, pc, r0, lsl #4
     dec:	00000000 	andeq	r0, r0, r0
     df0:	b0000000 	andlt	r0, r0, r0
     df4:	c4000001 	strgt	r0, [r0], #-1
     df8:	01000001 	tsteq	r0, r1
     dfc:	00005800 	andeq	r5, r0, r0, lsl #16
     e00:	00000000 	andeq	r0, r0, r0
     e04:	01b40000 			; <UNDEFINED> instruction: 0x01b40000
     e08:	01b80000 			; <UNDEFINED> instruction: 0x01b80000
     e0c:	00010000 	andeq	r0, r1, r0
     e10:	00000053 	andeq	r0, r0, r3, asr r0
     e14:	00000000 	andeq	r0, r0, r0
     e18:	0001d000 	andeq	sp, r1, r0
     e1c:	0002d000 	andeq	sp, r2, r0
     e20:	54000100 	strpl	r0, [r0], #-256	; 0x100
	...
     e2c:	000001d0 	ldrdeq	r0, [r0], -r0	; <UNPREDICTABLE>
     e30:	000001e4 	andeq	r0, r0, r4, ror #3
     e34:	00580001 	subseq	r0, r8, r1
     e38:	00000000 	andeq	r0, r0, r0
     e3c:	d4000000 	strle	r0, [r0], #-0
     e40:	d8000001 	stmdale	r0, {r0}
     e44:	01000001 	tsteq	r0, r1
     e48:	00005300 	andeq	r5, r0, r0, lsl #6
     e4c:	00000000 	andeq	r0, r0, r0
     e50:	01f40000 	mvnseq	r0, r0
     e54:	02d00000 	sbcseq	r0, r0, #0
     e58:	00010000 	andeq	r0, r1, r0
     e5c:	00000054 	andeq	r0, r0, r4, asr r0
     e60:	00000000 	andeq	r0, r0, r0
     e64:	0001f400 	andeq	pc, r1, r0, lsl #8
     e68:	00020800 	andeq	r0, r2, r0, lsl #16
     e6c:	58000100 	stmdapl	r0, {r8}
	...
     e78:	000001f8 	strdeq	r0, [r0], -r8
     e7c:	000001fc 	strdeq	r0, [r0], -ip
     e80:	00530001 	subseq	r0, r3, r1
     e84:	00000000 	andeq	r0, r0, r0
     e88:	18000000 	stmdane	r0, {}	; <UNPREDICTABLE>
     e8c:	d0000002 	andle	r0, r0, r2
     e90:	01000002 	tsteq	r0, r2
     e94:	00005400 	andeq	r5, r0, r0, lsl #8
     e98:	00000000 	andeq	r0, r0, r0
     e9c:	02180000 	andseq	r0, r8, #0
     ea0:	022c0000 	eoreq	r0, ip, #0
     ea4:	00010000 	andeq	r0, r1, r0
     ea8:	00000058 	andeq	r0, r0, r8, asr r0
     eac:	00000000 	andeq	r0, r0, r0
     eb0:	00021c00 	andeq	r1, r2, r0, lsl #24
     eb4:	00022000 	andeq	r2, r2, r0
     eb8:	53000100 	movwpl	r0, #256	; 0x100
	...
     ec4:	0000023c 	andeq	r0, r0, ip, lsr r2
     ec8:	000002d0 	ldrdeq	r0, [r0], -r0	; <UNPREDICTABLE>
     ecc:	00540001 	subseq	r0, r4, r1
     ed0:	00000000 	andeq	r0, r0, r0
     ed4:	3c000000 	stccc	0, cr0, [r0], {-0}
     ed8:	50000002 	andpl	r0, r0, r2
     edc:	01000002 	tsteq	r0, r2
     ee0:	00005800 	andeq	r5, r0, r0, lsl #16
     ee4:	00000000 	andeq	r0, r0, r0
     ee8:	02400000 	subeq	r0, r0, #0
     eec:	02440000 	subeq	r0, r4, #0
     ef0:	00010000 	andeq	r0, r1, r0
     ef4:	00000053 	andeq	r0, r0, r3, asr r0
     ef8:	00000000 	andeq	r0, r0, r0
     efc:	00026000 	andeq	r6, r2, r0
     f00:	0002d000 	andeq	sp, r2, r0
     f04:	54000100 	strpl	r0, [r0], #-256	; 0x100
	...
     f10:	00000260 	andeq	r0, r0, r0, ror #4
     f14:	00000274 	andeq	r0, r0, r4, ror r2
     f18:	00580001 	subseq	r0, r8, r1
     f1c:	00000000 	andeq	r0, r0, r0
     f20:	64000000 	strvs	r0, [r0], #-0
     f24:	68000002 	stmdavs	r0, {r1}
     f28:	01000002 	tsteq	r0, r2
     f2c:	00005300 	andeq	r5, r0, r0, lsl #6
     f30:	00000000 	andeq	r0, r0, r0
     f34:	02840000 	addeq	r0, r4, #0
     f38:	02d00000 	sbcseq	r0, r0, #0
     f3c:	00010000 	andeq	r0, r1, r0
     f40:	00000054 	andeq	r0, r0, r4, asr r0
     f44:	00000000 	andeq	r0, r0, r0
     f48:	00028400 	andeq	r8, r2, r0, lsl #8
     f4c:	00029800 	andeq	r9, r2, r0, lsl #16
     f50:	58000100 	stmdapl	r0, {r8}
	...
     f5c:	00000288 	andeq	r0, r0, r8, lsl #5
     f60:	0000028c 	andeq	r0, r0, ip, lsl #5
     f64:	00530001 	subseq	r0, r3, r1
     f68:	00000000 	andeq	r0, r0, r0
     f6c:	a8000000 	stmdage	r0, {}	; <UNPREDICTABLE>
     f70:	d0000002 	andle	r0, r0, r2
     f74:	01000002 	tsteq	r0, r2
     f78:	00005400 	andeq	r5, r0, r0, lsl #8
     f7c:	00000000 	andeq	r0, r0, r0
     f80:	02ac0000 	adceq	r0, ip, #0
     f84:	02b00000 	adcseq	r0, r0, #0
     f88:	00010000 	andeq	r0, r1, r0
     f8c:	00000053 	andeq	r0, r0, r3, asr r0
     f90:	00000000 	andeq	r0, r0, r0
     f94:	0002c800 	andeq	ip, r2, r0, lsl #16
     f98:	00030c00 	andeq	r0, r3, r0, lsl #24
     f9c:	30000200 	andcc	r0, r0, r0, lsl #4
     fa0:	0003149f 	muleq	r3, pc, r4	; <UNPREDICTABLE>
     fa4:	00031c00 	andeq	r1, r3, r0, lsl #24
     fa8:	30000200 	andcc	r0, r0, r0, lsl #4
     fac:	0000009f 	muleq	r0, pc, r0	; <UNPREDICTABLE>
     fb0:	00000000 	andeq	r0, r0, r0
     fb4:	0002c800 	andeq	ip, r2, r0, lsl #16
     fb8:	00030c00 	andeq	r0, r3, r0, lsl #24
     fbc:	55000100 	strpl	r0, [r0, #-256]	; 0x100
     fc0:	00000314 	andeq	r0, r0, r4, lsl r3
     fc4:	0000031c 	andeq	r0, r0, ip, lsl r3
     fc8:	00550001 	subseq	r0, r5, r1
     fcc:	00000000 	andeq	r0, r0, r0
     fd0:	d0000000 	andle	r0, r0, r0
     fd4:	0c000002 	stceq	0, cr0, [r0], {2}
     fd8:	01000003 	tsteq	r0, r3
     fdc:	03145400 	tsteq	r4, #0, 8
     fe0:	031c0000 	tsteq	ip, #0
     fe4:	00010000 	andeq	r0, r1, r0
     fe8:	00000054 	andeq	r0, r0, r4, asr r0
     fec:	00000000 	andeq	r0, r0, r0
     ff0:	00031c00 	andeq	r1, r3, r0, lsl #24
     ff4:	00033f00 	andeq	r3, r3, r0, lsl #30
     ff8:	50000100 	andpl	r0, r0, r0, lsl #2
     ffc:	0000033f 	andeq	r0, r0, pc, lsr r3
    1000:	00000360 	andeq	r0, r0, r0, ror #6
    1004:	60580001 	subsvs	r0, r8, r1
    1008:	70000003 	andvc	r0, r0, r3
    100c:	01000003 	tsteq	r0, r3
    1010:	03705000 	cmneq	r0, #0
    1014:	03b00000 	movseq	r0, #0
    1018:	00010000 	andeq	r0, r1, r0
    101c:	0003b058 	andeq	fp, r3, r8, asr r0
    1020:	0003c000 	andeq	ip, r3, r0
    1024:	f3000400 	vshl.u8	d0, d0, d0
    1028:	009f5001 	addseq	r5, pc, r1
    102c:	00000000 	andeq	r0, r0, r0
    1030:	1c000000 	stcne	0, cr0, [r0], {-0}
    1034:	3f000003 	svccc	0x00000003
    1038:	01000003 	tsteq	r0, r3
    103c:	033f5100 	teqeq	pc, #0, 2
    1040:	03600000 	cmneq	r0, #0
    1044:	00010000 	andeq	r0, r1, r0
    1048:	00036056 	andeq	r6, r3, r6, asr r0
    104c:	00037000 	andeq	r7, r3, r0
    1050:	51000100 	mrspl	r0, (UNDEF: 16)
    1054:	00000370 	andeq	r0, r0, r0, ror r3
    1058:	000003b0 			; <UNDEFINED> instruction: 0x000003b0
    105c:	b0560001 	subslt	r0, r6, r1
    1060:	c0000003 	andgt	r0, r0, r3
    1064:	04000003 	streq	r0, [r0], #-3
    1068:	5101f300 	mrspl	pc, SP_irq	; <UNPREDICTABLE>
    106c:	0000009f 	muleq	r0, pc, r0	; <UNPREDICTABLE>
    1070:	00000000 	andeq	r0, r0, r0
    1074:	00031c00 	andeq	r1, r3, r0, lsl #24
    1078:	00033f00 	andeq	r3, r3, r0, lsl #30
    107c:	52000100 	andpl	r0, r0, #0, 2
    1080:	0000033f 	andeq	r0, r0, pc, lsr r3
    1084:	00000360 	andeq	r0, r0, r0, ror #6
    1088:	01f30004 	mvnseq	r0, r4
    108c:	03609f52 	cmneq	r0, #328	; 0x148
    1090:	03700000 	cmneq	r0, #0
    1094:	00010000 	andeq	r0, r1, r0
    1098:	00037052 	andeq	r7, r3, r2, asr r0
    109c:	0003b000 	andeq	fp, r3, r0
    10a0:	77000300 	strvc	r0, [r0, -r0, lsl #6]
    10a4:	03b09f01 	movseq	r9, #1, 30
    10a8:	03c00000 	biceq	r0, r0, #0
    10ac:	00040000 	andeq	r0, r4, r0
    10b0:	9f5201f3 	svcls	0x005201f3
	...
    10bc:	0000031c 	andeq	r0, r0, ip, lsl r3
    10c0:	0000033f 	andeq	r0, r0, pc, lsr r3
    10c4:	3f530001 	svccc	0x00530001
    10c8:	60000003 	andvs	r0, r0, r3
    10cc:	04000003 	streq	r0, [r0], #-3
    10d0:	5301f300 	movwpl	pc, #4864	; 0x1300	; <UNPREDICTABLE>
    10d4:	0003609f 	muleq	r3, pc, r0	; <UNPREDICTABLE>
    10d8:	00037000 	andeq	r7, r3, r0
    10dc:	53000100 	movwpl	r0, #256	; 0x100
    10e0:	00000370 	andeq	r0, r0, r0, ror r3
    10e4:	000003c0 	andeq	r0, r0, r0, asr #7
    10e8:	01f30004 	mvnseq	r0, r4
    10ec:	00009f53 	andeq	r9, r0, r3, asr pc
    10f0:	00000000 	andeq	r0, r0, r0
    10f4:	03680000 	cmneq	r8, #0
    10f8:	03700000 	cmneq	r0, #0
    10fc:	00020000 	andeq	r0, r2, r0
    1100:	03709f30 	cmneq	r0, #48, 30	; 0xc0
    1104:	03b00000 	movseq	r0, #0
    1108:	00010000 	andeq	r0, r1, r0
    110c:	0003b054 	andeq	fp, r3, r4, asr r0
    1110:	0003c000 	andeq	ip, r3, r0
    1114:	50000100 	andpl	r0, r0, r0, lsl #2
	...
    1120:	00000380 	andeq	r0, r0, r0, lsl #7
    1124:	00000390 	muleq	r0, r0, r3
    1128:	00500001 	subseq	r0, r0, r1
    112c:	00000000 	andeq	r0, r0, r0
    1130:	c0000000 	andgt	r0, r0, r0
    1134:	df000003 	svcle	0x00000003
    1138:	01000003 	tsteq	r0, r3
    113c:	03df5000 	bicseq	r5, pc, #0
    1140:	04000000 	streq	r0, [r0], #-0
    1144:	00010000 	andeq	r0, r1, r0
    1148:	00040057 	andeq	r0, r4, r7, asr r0
    114c:	00041000 	andeq	r1, r4, r0
    1150:	50000100 	andpl	r0, r0, r0, lsl #2
    1154:	00000410 	andeq	r0, r0, r0, lsl r4
    1158:	00000440 	andeq	r0, r0, r0, asr #8
    115c:	40570001 	subsmi	r0, r7, r1
    1160:	50000004 	andpl	r0, r0, r4
    1164:	04000004 	streq	r0, [r0], #-4
    1168:	5001f300 	andpl	pc, r1, r0, lsl #6
    116c:	0000009f 	muleq	r0, pc, r0	; <UNPREDICTABLE>
    1170:	00000000 	andeq	r0, r0, r0
    1174:	0003c000 	andeq	ip, r3, r0
    1178:	0003df00 	andeq	sp, r3, r0, lsl #30
    117c:	51000100 	mrspl	r0, (UNDEF: 16)
    1180:	000003df 	ldrdeq	r0, [r0], -pc	; <UNPREDICTABLE>
    1184:	00000400 	andeq	r0, r0, r0, lsl #8
    1188:	00550001 	subseq	r0, r5, r1
    118c:	10000004 	andne	r0, r0, r4
    1190:	01000004 	tsteq	r0, r4
    1194:	04105100 	ldreq	r5, [r0], #-256	; 0x100
    1198:	04400000 	strbeq	r0, [r0], #-0
    119c:	00010000 	andeq	r0, r1, r0
    11a0:	00044055 	andeq	r4, r4, r5, asr r0
    11a4:	00045000 	andeq	r5, r4, r0
    11a8:	f3000400 	vshl.u8	d0, d0, d0
    11ac:	009f5101 	addseq	r5, pc, r1, lsl #2
    11b0:	00000000 	andeq	r0, r0, r0
    11b4:	c0000000 	andgt	r0, r0, r0
    11b8:	df000003 	svcle	0x00000003
    11bc:	01000003 	tsteq	r0, r3
    11c0:	03df5200 	bicseq	r5, pc, #0, 4
    11c4:	04000000 	streq	r0, [r0], #-0
    11c8:	00040000 	andeq	r0, r4, r0
    11cc:	9f5201f3 	svcls	0x005201f3
    11d0:	00000400 	andeq	r0, r0, r0, lsl #8
    11d4:	00000410 	andeq	r0, r0, r0, lsl r4
    11d8:	10520001 	subsne	r0, r2, r1
    11dc:	40000004 	andmi	r0, r0, r4
    11e0:	03000004 	movweq	r0, #4
    11e4:	9f017600 	svcls	0x00017600
    11e8:	00000440 	andeq	r0, r0, r0, asr #8
    11ec:	00000450 	andeq	r0, r0, r0, asr r4
    11f0:	01f30004 	mvnseq	r0, r4
    11f4:	00009f52 	andeq	r9, r0, r2, asr pc
    11f8:	00000000 	andeq	r0, r0, r0
    11fc:	03c00000 	biceq	r0, r0, #0
    1200:	03df0000 	bicseq	r0, pc, #0
    1204:	00010000 	andeq	r0, r1, r0
    1208:	0003df53 	andeq	sp, r3, r3, asr pc
    120c:	00040000 	andeq	r0, r4, r0
    1210:	58000100 	stmdapl	r0, {r8}
    1214:	00000400 	andeq	r0, r0, r0, lsl #8
    1218:	00000410 	andeq	r0, r0, r0, lsl r4
    121c:	10530001 	subsne	r0, r3, r1
    1220:	40000004 	andmi	r0, r0, r4
    1224:	01000004 	tsteq	r0, r4
    1228:	04405800 	strbeq	r5, [r0], #-2048	; 0x800
    122c:	04500000 	ldrbeq	r0, [r0], #-0
    1230:	00040000 	andeq	r0, r4, r0
    1234:	9f5301f3 	svcls	0x005301f3
	...
    1240:	00000408 	andeq	r0, r0, r8, lsl #8
    1244:	00000410 	andeq	r0, r0, r0, lsl r4
    1248:	9f300002 	svcls	0x00300002
    124c:	00000410 	andeq	r0, r0, r0, lsl r4
    1250:	00000440 	andeq	r0, r0, r0, asr #8
    1254:	40540001 	subsmi	r0, r4, r1
    1258:	50000004 	andpl	r0, r0, r4
    125c:	01000004 	tsteq	r0, r4
    1260:	00005000 	andeq	r5, r0, r0
    1264:	00000000 	andeq	r0, r0, r0
    1268:	04500000 	ldrbeq	r0, [r0], #-0
    126c:	04730000 	ldrbteq	r0, [r3], #-0
    1270:	00010000 	andeq	r0, r1, r0
    1274:	00047351 	andeq	r7, r4, r1, asr r3
    1278:	00052400 	andeq	r2, r5, r0, lsl #8
    127c:	f3000400 	vshl.u8	d0, d0, d0
    1280:	009f5101 	addseq	r5, pc, r1, lsl #2
    1284:	00000000 	andeq	r0, r0, r0
    1288:	50000000 	andpl	r0, r0, r0
    128c:	73000004 	movwvc	r0, #4
    1290:	01000004 	tsteq	r0, r4
    1294:	04735200 	ldrbteq	r5, [r3], #-512	; 0x200
    1298:	05240000 	streq	r0, [r4, #-0]!
    129c:	00040000 	andeq	r0, r4, r0
    12a0:	9f5201f3 	svcls	0x005201f3
	...
    12ac:	00000450 	andeq	r0, r0, r0, asr r4
    12b0:	00000473 	andeq	r0, r0, r3, ror r4
    12b4:	73530001 	cmpvc	r3, #1
    12b8:	10000004 	andne	r0, r0, r4
    12bc:	01000005 	tsteq	r0, r5
    12c0:	05105500 	ldreq	r5, [r0, #-1280]	; 0x500
    12c4:	05240000 	streq	r0, [r4, #-0]!
    12c8:	00020000 	andeq	r0, r2, r0
    12cc:	00000470 	andeq	r0, r0, r0, ror r4
    12d0:	00000000 	andeq	r0, r0, r0
    12d4:	04940000 	ldreq	r0, [r4], #0
    12d8:	04d30000 	ldrbeq	r0, [r3], #0
    12dc:	00010000 	andeq	r0, r1, r0
    12e0:	0004d352 	andeq	sp, r4, r2, asr r3
    12e4:	0004f400 	andeq	pc, r4, r0, lsl #8
    12e8:	75000600 	strvc	r0, [r0, #-1536]	; 0x600
    12ec:	1e007700 	cdpne	7, 0, cr7, cr0, cr0, {0}
    12f0:	0004f49f 	muleq	r4, pc, r4	; <UNPREDICTABLE>
    12f4:	00052400 	andeq	r2, r5, r0, lsl #8
    12f8:	52000100 	andpl	r0, r0, #0, 2
	...
    1304:	00000524 	andeq	r0, r0, r4, lsr #10
    1308:	0000052f 	andeq	r0, r0, pc, lsr #10
    130c:	2f500001 	svccs	0x00500001
    1310:	60000005 	andvs	r0, r0, r5
    1314:	04000005 	streq	r0, [r0], #-5
    1318:	5001f300 	andpl	pc, r1, r0, lsl #6
    131c:	0000009f 	muleq	r0, pc, r0	; <UNPREDICTABLE>
    1320:	00000000 	andeq	r0, r0, r0
    1324:	00053000 	andeq	r3, r5, r0
    1328:	00053b00 	andeq	r3, r5, r0, lsl #22
    132c:	50000100 	andpl	r0, r0, r0, lsl #2
	...
    1338:	00000560 	andeq	r0, r0, r0, ror #10
    133c:	00000570 	andeq	r0, r0, r0, ror r5
    1340:	70500001 	subsvc	r0, r0, r1
    1344:	8c000005 	stchi	0, cr0, [r0], {5}
    1348:	01000005 	tsteq	r0, r5
    134c:	00005500 	andeq	r5, r0, r0, lsl #10
    1350:	00000000 	andeq	r0, r0, r0
    1354:	05600000 	strbeq	r0, [r0, #-0]!
    1358:	05700000 	ldrbeq	r0, [r0, #-0]!
    135c:	00010000 	andeq	r0, r1, r0
    1360:	00057051 	andeq	r7, r5, r1, asr r0
    1364:	00058c00 	andeq	r8, r5, r0, lsl #24
    1368:	54000100 	strpl	r0, [r0], #-256	; 0x100
	...
    1374:	0000058c 	andeq	r0, r0, ip, lsl #11
    1378:	000005a8 	andeq	r0, r0, r8, lsr #11
    137c:	a8500001 	ldmdage	r0, {r0}^
    1380:	00000005 	andeq	r0, r0, r5
    1384:	01000006 	tsteq	r0, r6
    1388:	06005500 	streq	r5, [r0], -r0, lsl #10
    138c:	061c0000 	ldreq	r0, [ip], -r0
    1390:	00040000 	andeq	r0, r4, r0
    1394:	9f5001f3 	svcls	0x005001f3
	...
    13a0:	000005b8 			; <UNDEFINED> instruction: 0x000005b8
    13a4:	000005c7 	andeq	r0, r0, r7, asr #11
    13a8:	c7500001 	ldrbgt	r0, [r0, -r1]
    13ac:	e8000005 	stmda	r0, {r0, r2}
    13b0:	01000005 	tsteq	r0, r5
    13b4:	05e85400 	strbeq	r5, [r8, #1024]!	; 0x400
    13b8:	05ec0000 	strbeq	r0, [ip, #0]!
    13bc:	00010000 	andeq	r0, r1, r0
    13c0:	0005ec50 	andeq	lr, r5, r0, asr ip
    13c4:	00060000 	andeq	r0, r6, r0
    13c8:	54000100 	strpl	r0, [r0], #-256	; 0x100
    13cc:	00000600 	andeq	r0, r0, r0, lsl #12
    13d0:	0000061c 	andeq	r0, r0, ip, lsl r6
    13d4:	00500001 	subseq	r0, r0, r1
    13d8:	00000000 	andeq	r0, r0, r0
    13dc:	1c000000 	stcne	0, cr0, [r0], {-0}
    13e0:	2f000006 	svccs	0x00000006
    13e4:	01000006 	tsteq	r0, r6
    13e8:	062f5000 	strteq	r5, [pc], -r0
    13ec:	06680000 	strbteq	r0, [r8], -r0
    13f0:	00040000 	andeq	r0, r4, r0
    13f4:	9f5001f3 	svcls	0x005001f3
	...
    1400:	0000061c 	andeq	r0, r0, ip, lsl r6
    1404:	0000062f 	andeq	r0, r0, pc, lsr #12
    1408:	2f510001 	svccs	0x00510001
    140c:	68000006 	stmdavs	r0, {r1, r2}
    1410:	04000006 	streq	r0, [r0], #-6
    1414:	5101f300 	mrspl	pc, SP_irq	; <UNPREDICTABLE>
    1418:	0000009f 	muleq	r0, pc, r0	; <UNPREDICTABLE>
    141c:	00000000 	andeq	r0, r0, r0
    1420:	00061c00 	andeq	r1, r6, r0, lsl #24
    1424:	00062f00 	andeq	r2, r6, r0, lsl #30
    1428:	52000100 	andpl	r0, r0, #0, 2
    142c:	0000062f 	andeq	r0, r0, pc, lsr #12
    1430:	00000668 	andeq	r0, r0, r8, ror #12
    1434:	01f30004 	mvnseq	r0, r4
    1438:	00009f52 	andeq	r9, r0, r2, asr pc
    143c:	00000000 	andeq	r0, r0, r0
    1440:	061c0000 	ldreq	r0, [ip], -r0
    1444:	062f0000 	strteq	r0, [pc], -r0
    1448:	00010000 	andeq	r0, r1, r0
    144c:	00062f53 	andeq	r2, r6, r3, asr pc
    1450:	00066800 	andeq	r6, r6, r0, lsl #16
    1454:	f3000400 	vshl.u8	d0, d0, d0
    1458:	009f5301 	addseq	r5, pc, r1, lsl #6
    145c:	00000000 	andeq	r0, r0, r0
    1460:	30000000 	andcc	r0, r0, r0
    1464:	3b000006 	blcc	1484 <_start-0x6b7c>
    1468:	01000006 	tsteq	r0, r6
    146c:	06545000 	ldrbeq	r5, [r4], -r0
    1470:	06680000 	strbteq	r0, [r8], -r0
    1474:	00010000 	andeq	r0, r1, r0
    1478:	00000050 	andeq	r0, r0, r0, asr r0
	...
    1484:	00009000 	andeq	r9, r0, r0
    1488:	50000100 	andpl	r0, r0, r0, lsl #2
    148c:	00000090 	muleq	r0, r0, r0
    1490:	000000d4 	ldrdeq	r0, [r0], -r4
    1494:	00540001 	subseq	r0, r4, r1
    1498:	00000000 	andeq	r0, r0, r0
    149c:	48000000 	stmdami	r0, {}	; <UNPREDICTABLE>
    14a0:	4c000000 	stcmi	0, cr0, [r0], {-0}
    14a4:	01000000 	mrseq	r0, (UNDEF: 0)
    14a8:	00545500 	subseq	r5, r4, r0, lsl #10
    14ac:	00580000 	subseq	r0, r8, r0
    14b0:	00010000 	andeq	r0, r1, r0
    14b4:	00006055 	andeq	r6, r0, r5, asr r0
    14b8:	00006400 	andeq	r6, r0, r0, lsl #8
    14bc:	55000100 	strpl	r0, [r0, #-256]	; 0x100
    14c0:	0000006c 	andeq	r0, r0, ip, rrx
    14c4:	00000070 	andeq	r0, r0, r0, ror r0
    14c8:	78550001 	ldmdavc	r5, {r0}^
    14cc:	7c000000 	stcvc	0, cr0, [r0], {-0}
    14d0:	01000000 	mrseq	r0, (UNDEF: 0)
    14d4:	00845500 	addeq	r5, r4, r0, lsl #10
    14d8:	00880000 	addeq	r0, r8, r0
    14dc:	00010000 	andeq	r0, r1, r0
    14e0:	00008c55 	andeq	r8, r0, r5, asr ip
    14e4:	0000d400 	andeq	sp, r0, r0, lsl #8
    14e8:	55000100 	strpl	r0, [r0, #-256]	; 0x100
	...
    14f4:	0000001c 	andeq	r0, r0, ip, lsl r0
    14f8:	00000044 	andeq	r0, r0, r4, asr #32
    14fc:	44530001 	ldrbmi	r0, [r3], #-1
    1500:	4c000000 	stcmi	0, cr0, [r0], {-0}
    1504:	1c000000 	stcne	0, cr0, [r0], {-0}
    1508:	f7007000 			; <UNDEFINED> instruction: 0xf7007000
    150c:	f425f72c 	vld1.8	{d15}, [r5 :128], ip
    1510:	cccd0825 	stclgt	8, cr0, [sp], {37}	; 0x25
    1514:	0000cccc 	andeq	ip, r0, ip, asr #25
    1518:	081e0000 	ldmdaeq	lr, {}	; <UNPREDICTABLE>
    151c:	2525f720 	strcs	pc, [r5, #-1824]!	; 0x720
    1520:	25332cf7 	ldrcs	r2, [r3, #-3319]!	; 0xcf7
    1524:	00004c9f 	muleq	r0, pc, ip	; <UNPREDICTABLE>
    1528:	00005000 	andeq	r5, r0, r0
    152c:	53000100 	movwpl	r0, #256	; 0x100
    1530:	00000050 	andeq	r0, r0, r0, asr r0
    1534:	00000058 	andeq	r0, r0, r8, asr r0
    1538:	0070001c 	rsbseq	r0, r0, ip, lsl r0
    153c:	25f72cf7 	ldrbcs	r2, [r7, #3319]!	; 0xcf7
    1540:	cd0825f4 	cfstr32gt	mvfx2, [r8, #-976]	; 0xfffffc30
    1544:	00cccccc 	sbceq	ip, ip, ip, asr #25
    1548:	1e000000 	cdpne	0, 0, cr0, cr0, cr0, {0}
    154c:	25f72008 	ldrbcs	r2, [r7, #8]!
    1550:	332cf725 	msrcc	CPSR_fs, #9699328	; 0x940000
    1554:	00589f25 	subseq	r9, r8, r5, lsr #30
    1558:	005c0000 	subseq	r0, ip, r0
    155c:	00010000 	andeq	r0, r1, r0
    1560:	00005c53 	andeq	r5, r0, r3, asr ip
    1564:	00006400 	andeq	r6, r0, r0, lsl #8
    1568:	70001c00 	andvc	r1, r0, r0, lsl #24
    156c:	f72cf700 			; <UNDEFINED> instruction: 0xf72cf700
    1570:	0825f425 	stmdaeq	r5!, {r0, r2, r5, sl, ip, sp, lr, pc}
    1574:	cccccccd 	stclgt	12, cr12, [ip], {205}	; 0xcd
    1578:	00000000 	andeq	r0, r0, r0
    157c:	f720081e 			; <UNDEFINED> instruction: 0xf720081e
    1580:	2cf72525 	cfldr64cs	mvdx2, [r7], #148	; 0x94
    1584:	649f2533 	ldrvs	r2, [pc], #1331	; 158c <_start-0x6a74>
    1588:	68000000 	stmdavs	r0, {}	; <UNPREDICTABLE>
    158c:	01000000 	mrseq	r0, (UNDEF: 0)
    1590:	00685300 	rsbeq	r5, r8, r0, lsl #6
    1594:	00700000 	rsbseq	r0, r0, r0
    1598:	001c0000 	andseq	r0, ip, r0
    159c:	2cf70070 	ldclcs	0, cr0, [r7], #448	; 0x1c0
    15a0:	25f425f7 	ldrbcs	r2, [r4, #1527]!	; 0x5f7
    15a4:	cccccd08 	stclgt	13, cr12, [ip], {8}
    15a8:	000000cc 	andeq	r0, r0, ip, asr #1
    15ac:	20081e00 	andcs	r1, r8, r0, lsl #28
    15b0:	f72525f7 			; <UNDEFINED> instruction: 0xf72525f7
    15b4:	9f25332c 	svcls	0x0025332c
    15b8:	00000070 	andeq	r0, r0, r0, ror r0
    15bc:	00000074 	andeq	r0, r0, r4, ror r0
    15c0:	74530001 	ldrbvc	r0, [r3], #-1
    15c4:	7c000000 	stcvc	0, cr0, [r0], {-0}
    15c8:	1c000000 	stcne	0, cr0, [r0], {-0}
    15cc:	f7007000 			; <UNDEFINED> instruction: 0xf7007000
    15d0:	f425f72c 	vld1.8	{d15}, [r5 :128], ip
    15d4:	cccd0825 	stclgt	8, cr0, [sp], {37}	; 0x25
    15d8:	0000cccc 	andeq	ip, r0, ip, asr #25
    15dc:	081e0000 	ldmdaeq	lr, {}	; <UNPREDICTABLE>
    15e0:	2525f720 	strcs	pc, [r5, #-1824]!	; 0x720
    15e4:	25332cf7 	ldrcs	r2, [r3, #-3319]!	; 0xcf7
    15e8:	00007c9f 	muleq	r0, pc, ip	; <UNPREDICTABLE>
    15ec:	00008000 	andeq	r8, r0, r0
    15f0:	53000100 	movwpl	r0, #256	; 0x100
    15f4:	00000080 	andeq	r0, r0, r0, lsl #1
    15f8:	00000088 	andeq	r0, r0, r8, lsl #1
    15fc:	0070001c 	rsbseq	r0, r0, ip, lsl r0
    1600:	25f72cf7 	ldrbcs	r2, [r7, #3319]!	; 0xcf7
    1604:	cd0825f4 	cfstr32gt	mvfx2, [r8, #-976]	; 0xfffffc30
    1608:	00cccccc 	sbceq	ip, ip, ip, asr #25
    160c:	1e000000 	cdpne	0, 0, cr0, cr0, cr0, {0}
    1610:	25f72008 	ldrbcs	r2, [r7, #8]!
    1614:	332cf725 	msrcc	CPSR_fs, #9699328	; 0x940000
    1618:	00889f25 	addeq	r9, r8, r5, lsr #30
    161c:	008c0000 	addeq	r0, ip, r0
    1620:	00010000 	andeq	r0, r1, r0
    1624:	00008c53 	andeq	r8, r0, r3, asr ip
    1628:	00009000 	andeq	r9, r0, r0
    162c:	70001c00 	andvc	r1, r0, r0, lsl #24
    1630:	f72cf700 			; <UNDEFINED> instruction: 0xf72cf700
    1634:	0825f425 	stmdaeq	r5!, {r0, r2, r5, sl, ip, sp, lr, pc}
    1638:	cccccccd 	stclgt	12, cr12, [ip], {205}	; 0xcd
    163c:	00000000 	andeq	r0, r0, r0
    1640:	f720081e 			; <UNDEFINED> instruction: 0xf720081e
    1644:	2cf72525 	cfldr64cs	mvdx2, [r7], #148	; 0x94
    1648:	909f2533 	addsls	r2, pc, r3, lsr r5	; <UNPREDICTABLE>
    164c:	98000000 	stmdals	r0, {}	; <UNPREDICTABLE>
    1650:	1c000000 	stcne	0, cr0, [r0], {-0}
    1654:	f7007400 			; <UNDEFINED> instruction: 0xf7007400
    1658:	f425f72c 	vld1.8	{d15}, [r5 :128], ip
    165c:	cccd0825 	stclgt	8, cr0, [sp], {37}	; 0x25
    1660:	0000cccc 	andeq	ip, r0, ip, asr #25
    1664:	081e0000 	ldmdaeq	lr, {}	; <UNPREDICTABLE>
    1668:	2525f720 	strcs	pc, [r5, #-1824]!	; 0x720
    166c:	25332cf7 	ldrcs	r2, [r3, #-3319]!	; 0xcf7
    1670:	0000989f 	muleq	r0, pc, r8	; <UNPREDICTABLE>
    1674:	00009c00 	andeq	r9, r0, r0, lsl #24
    1678:	74001700 	strvc	r1, [r0], #-1792	; 0x700
    167c:	f72cf700 			; <UNDEFINED> instruction: 0xf72cf700
    1680:	f7007125 			; <UNDEFINED> instruction: 0xf7007125
    1684:	1e25f72c 	cdpne	7, 2, cr15, cr5, cr12, {1}
    1688:	25f72008 	ldrbcs	r2, [r7, #8]!
    168c:	332cf725 	msrcc	CPSR_fs, #9699328	; 0x940000
    1690:	009c9f25 	addseq	r9, ip, r5, lsr #30
    1694:	00d40000 	sbcseq	r0, r4, r0
    1698:	001c0000 	andseq	r0, ip, r0
    169c:	2cf70074 	ldclcs	0, cr0, [r7], #464	; 0x1d0
    16a0:	25f425f7 	ldrbcs	r2, [r4, #1527]!	; 0x5f7
    16a4:	cccccd08 	stclgt	13, cr12, [ip], {8}
    16a8:	000000cc 	andeq	r0, r0, ip, asr #1
    16ac:	20081e00 	andcs	r1, r8, r0, lsl #28
    16b0:	f72525f7 			; <UNDEFINED> instruction: 0xf72525f7
    16b4:	9f25332c 	svcls	0x0025332c
	...
    16c0:	00000094 	muleq	r0, r4, r0
    16c4:	000000b8 	strheq	r0, [r0], -r8
    16c8:	b8500001 	ldmdalt	r0, {r0}^
    16cc:	c4000000 	strgt	r0, [r0], #-0
    16d0:	08000000 	stmdaeq	r0, {}	; <UNPREDICTABLE>
    16d4:	00713100 	rsbseq	r3, r1, r0, lsl #2
    16d8:	21007324 	tstcs	r0, r4, lsr #6
    16dc:	0000c49f 	muleq	r0, pc, r4	; <UNPREDICTABLE>
    16e0:	0000c700 	andeq	ip, r0, r0, lsl #14
    16e4:	51000100 	mrspl	r0, (UNDEF: 16)
	...
    16f0:	000000d4 	ldrdeq	r0, [r0], -r4
    16f4:	000000f8 	strdeq	r0, [r0], -r8
    16f8:	f8500001 			; <UNDEFINED> instruction: 0xf8500001
    16fc:	0c000000 	stceq	0, cr0, [r0], {-0}
    1700:	04000001 	streq	r0, [r0], #-1
    1704:	5001f300 	andpl	pc, r1, r0, lsl #6
    1708:	0000009f 	muleq	r0, pc, r0	; <UNPREDICTABLE>
    170c:	00000000 	andeq	r0, r0, r0
    1710:	0000e000 	andeq	lr, r0, r0
    1714:	0000e800 	andeq	lr, r0, r0, lsl #16
    1718:	30000200 	andcc	r0, r0, r0, lsl #4
    171c:	0000e89f 	muleq	r0, pc, r8	; <UNPREDICTABLE>
    1720:	0000e800 	andeq	lr, r0, r0, lsl #16
    1724:	52000100 	andpl	r0, r0, #0, 2
    1728:	000000e8 	andeq	r0, r0, r8, ror #1
    172c:	000000f0 	strdeq	r0, [r0], -r0	; <UNPREDICTABLE>
    1730:	9f300002 	svcls	0x00300002
    1734:	000000f0 	strdeq	r0, [r0], -r0	; <UNPREDICTABLE>
    1738:	00000103 	andeq	r0, r0, r3, lsl #2
    173c:	00520001 	subseq	r0, r2, r1
    1740:	00000000 	andeq	r0, r0, r0
    1744:	e0000000 	and	r0, r0, r0
    1748:	f4000000 	vst4.8	{d0-d3}, [r0], r0
    174c:	02000000 	andeq	r0, r0, #0
    1750:	f49f3000 			; <UNDEFINED> instruction: 0xf49f3000
    1754:	00000000 	andeq	r0, r0, r0
    1758:	05000001 	streq	r0, [r0, #-1]
    175c:	00733100 	rsbseq	r3, r3, r0, lsl #2
    1760:	01009f24 	tsteq	r0, r4, lsr #30
    1764:	01030000 	mrseq	r0, (UNDEF: 3)
    1768:	00010000 	andeq	r0, r1, r0
    176c:	00010351 	andeq	r0, r1, r1, asr r3
    1770:	00010c00 	andeq	r0, r1, r0, lsl #24
    1774:	31000800 	tstcc	r0, r0, lsl #16
    1778:	4f5001f3 	svcmi	0x005001f3
    177c:	009f241a 	addseq	r2, pc, sl, lsl r4	; <UNPREDICTABLE>
    1780:	00000000 	andeq	r0, r0, r0
    1784:	0c000000 	stceq	0, cr0, [r0], {-0}
    1788:	30000001 	andcc	r0, r0, r1
    178c:	01000001 	tsteq	r0, r1
    1790:	01305000 	teqeq	r0, r0
    1794:	01440000 	mrseq	r0, (UNDEF: 68)
    1798:	00040000 	andeq	r0, r4, r0
    179c:	9f5001f3 	svcls	0x005001f3
	...
    17a8:	00000118 	andeq	r0, r0, r8, lsl r1
    17ac:	00000120 	andeq	r0, r0, r0, lsr #2
    17b0:	9f300002 	svcls	0x00300002
    17b4:	00000120 	andeq	r0, r0, r0, lsr #2
    17b8:	00000120 	andeq	r0, r0, r0, lsr #2
    17bc:	20520001 	subscs	r0, r2, r1
    17c0:	28000001 	stmdacs	r0, {r0}
    17c4:	02000001 	andeq	r0, r0, #1
    17c8:	289f3000 	ldmcs	pc, {ip, sp}	; <UNPREDICTABLE>
    17cc:	3b000001 	blcc	17d8 <_start-0x6828>
    17d0:	01000001 	tsteq	r0, r1
    17d4:	00005200 	andeq	r5, r0, r0, lsl #4
    17d8:	00000000 	andeq	r0, r0, r0
    17dc:	01180000 	tsteq	r8, r0
    17e0:	012c0000 	teqeq	ip, r0
    17e4:	00020000 	andeq	r0, r2, r0
    17e8:	012c9f30 	teqeq	ip, r0, lsr pc
    17ec:	01380000 	teqeq	r8, r0
    17f0:	00050000 	andeq	r0, r5, r0
    17f4:	24007331 	strcs	r7, [r0], #-817	; 0x331
    17f8:	0001389f 	muleq	r1, pc, r8	; <UNPREDICTABLE>
    17fc:	00013b00 	andeq	r3, r1, r0, lsl #22
    1800:	51000100 	mrspl	r0, (UNDEF: 16)
    1804:	0000013b 	andeq	r0, r0, fp, lsr r1
    1808:	00000144 	andeq	r0, r0, r4, asr #2
    180c:	f3310008 	vhadd.u<illegal width 64>	d0, d1, d8
    1810:	1a4f5001 	bne	13d581c <__bss_end__+0x13cb9bc>
    1814:	00009f24 	andeq	r9, r0, r4, lsr #30
    1818:	00000000 	andeq	r0, r0, r0
    181c:	01440000 	mrseq	r0, (UNDEF: 68)
    1820:	01d40000 	bicseq	r0, r4, r0
    1824:	00010000 	andeq	r0, r1, r0
    1828:	0001d450 	andeq	sp, r1, r0, asr r4
    182c:	00021000 	andeq	r1, r2, r0
    1830:	54000100 	strpl	r0, [r0], #-256	; 0x100
	...
    183c:	0000018c 	andeq	r0, r0, ip, lsl #3
    1840:	00000190 	muleq	r0, r0, r1
    1844:	98550001 	ldmdals	r5, {r0}^
    1848:	9c000001 	stcls	0, cr0, [r0], {1}
    184c:	01000001 	tsteq	r0, r1
    1850:	01a45500 			; <UNDEFINED> instruction: 0x01a45500
    1854:	01a80000 			; <UNDEFINED> instruction: 0x01a80000
    1858:	00010000 	andeq	r0, r1, r0
    185c:	0001b055 	andeq	fp, r1, r5, asr r0
    1860:	0001b400 	andeq	fp, r1, r0, lsl #8
    1864:	55000100 	strpl	r0, [r0, #-256]	; 0x100
    1868:	000001bc 			; <UNDEFINED> instruction: 0x000001bc
    186c:	000001c0 	andeq	r0, r0, r0, asr #3
    1870:	c8550001 	ldmdagt	r5, {r0}^
    1874:	cc000001 	stcgt	0, cr0, [r0], {1}
    1878:	01000001 	tsteq	r0, r1
    187c:	01d05500 	bicseq	r5, r0, r0, lsl #10
    1880:	02100000 	andseq	r0, r0, #0
    1884:	00010000 	andeq	r0, r1, r0
    1888:	00000055 	andeq	r0, r0, r5, asr r0
    188c:	00000000 	andeq	r0, r0, r0
    1890:	00016000 	andeq	r6, r1, r0
    1894:	00018800 	andeq	r8, r1, r0, lsl #16
    1898:	53000100 	movwpl	r0, #256	; 0x100
    189c:	00000188 	andeq	r0, r0, r8, lsl #3
    18a0:	00000190 	muleq	r0, r0, r1
    18a4:	0070001c 	rsbseq	r0, r0, ip, lsl r0
    18a8:	25f72cf7 	ldrbcs	r2, [r7, #3319]!	; 0xcf7
    18ac:	cd0825f4 	cfstr32gt	mvfx2, [r8, #-976]	; 0xfffffc30
    18b0:	00cccccc 	sbceq	ip, ip, ip, asr #25
    18b4:	1e000000 	cdpne	0, 0, cr0, cr0, cr0, {0}
    18b8:	25f72008 	ldrbcs	r2, [r7, #8]!
    18bc:	332cf725 	msrcc	CPSR_fs, #9699328	; 0x940000
    18c0:	01909f25 	orrseq	r9, r0, r5, lsr #30
    18c4:	01940000 	orrseq	r0, r4, r0
    18c8:	00010000 	andeq	r0, r1, r0
    18cc:	00019453 	andeq	r9, r1, r3, asr r4
    18d0:	00019c00 	andeq	r9, r1, r0, lsl #24
    18d4:	70001c00 	andvc	r1, r0, r0, lsl #24
    18d8:	f72cf700 			; <UNDEFINED> instruction: 0xf72cf700
    18dc:	0825f425 	stmdaeq	r5!, {r0, r2, r5, sl, ip, sp, lr, pc}
    18e0:	cccccccd 	stclgt	12, cr12, [ip], {205}	; 0xcd
    18e4:	00000000 	andeq	r0, r0, r0
    18e8:	f720081e 			; <UNDEFINED> instruction: 0xf720081e
    18ec:	2cf72525 	cfldr64cs	mvdx2, [r7], #148	; 0x94
    18f0:	9c9f2533 	cfldr32ls	mvfx2, [pc], {51}	; 0x33
    18f4:	a0000001 	andge	r0, r0, r1
    18f8:	01000001 	tsteq	r0, r1
    18fc:	01a05300 	lsleq	r5, r0, #6
    1900:	01a80000 			; <UNDEFINED> instruction: 0x01a80000
    1904:	001c0000 	andseq	r0, ip, r0
    1908:	2cf70070 	ldclcs	0, cr0, [r7], #448	; 0x1c0
    190c:	25f425f7 	ldrbcs	r2, [r4, #1527]!	; 0x5f7
    1910:	cccccd08 	stclgt	13, cr12, [ip], {8}
    1914:	000000cc 	andeq	r0, r0, ip, asr #1
    1918:	20081e00 	andcs	r1, r8, r0, lsl #28
    191c:	f72525f7 			; <UNDEFINED> instruction: 0xf72525f7
    1920:	9f25332c 	svcls	0x0025332c
    1924:	000001a8 	andeq	r0, r0, r8, lsr #3
    1928:	000001ac 	andeq	r0, r0, ip, lsr #3
    192c:	ac530001 	mrrcge	0, 0, r0, r3, cr1
    1930:	b4000001 	strlt	r0, [r0], #-1
    1934:	1c000001 	stcne	0, cr0, [r0], {1}
    1938:	f7007000 			; <UNDEFINED> instruction: 0xf7007000
    193c:	f425f72c 	vld1.8	{d15}, [r5 :128], ip
    1940:	cccd0825 	stclgt	8, cr0, [sp], {37}	; 0x25
    1944:	0000cccc 	andeq	ip, r0, ip, asr #25
    1948:	081e0000 	ldmdaeq	lr, {}	; <UNPREDICTABLE>
    194c:	2525f720 	strcs	pc, [r5, #-1824]!	; 0x720
    1950:	25332cf7 	ldrcs	r2, [r3, #-3319]!	; 0xcf7
    1954:	0001b49f 	muleq	r1, pc, r4	; <UNPREDICTABLE>
    1958:	0001b800 	andeq	fp, r1, r0, lsl #16
    195c:	53000100 	movwpl	r0, #256	; 0x100
    1960:	000001b8 			; <UNDEFINED> instruction: 0x000001b8
    1964:	000001c0 	andeq	r0, r0, r0, asr #3
    1968:	0070001c 	rsbseq	r0, r0, ip, lsl r0
    196c:	25f72cf7 	ldrbcs	r2, [r7, #3319]!	; 0xcf7
    1970:	cd0825f4 	cfstr32gt	mvfx2, [r8, #-976]	; 0xfffffc30
    1974:	00cccccc 	sbceq	ip, ip, ip, asr #25
    1978:	1e000000 	cdpne	0, 0, cr0, cr0, cr0, {0}
    197c:	25f72008 	ldrbcs	r2, [r7, #8]!
    1980:	332cf725 	msrcc	CPSR_fs, #9699328	; 0x940000
    1984:	01c09f25 	biceq	r9, r0, r5, lsr #30
    1988:	01c40000 	biceq	r0, r4, r0
    198c:	00010000 	andeq	r0, r1, r0
    1990:	0001c453 	andeq	ip, r1, r3, asr r4
    1994:	0001cc00 	andeq	ip, r1, r0, lsl #24
    1998:	70001c00 	andvc	r1, r0, r0, lsl #24
    199c:	f72cf700 			; <UNDEFINED> instruction: 0xf72cf700
    19a0:	0825f425 	stmdaeq	r5!, {r0, r2, r5, sl, ip, sp, lr, pc}
    19a4:	cccccccd 	stclgt	12, cr12, [ip], {205}	; 0xcd
    19a8:	00000000 	andeq	r0, r0, r0
    19ac:	f720081e 			; <UNDEFINED> instruction: 0xf720081e
    19b0:	2cf72525 	cfldr64cs	mvdx2, [r7], #148	; 0x94
    19b4:	cc9f2533 	cfldr32gt	mvfx2, [pc], {51}	; 0x33
    19b8:	d0000001 	andle	r0, r0, r1
    19bc:	01000001 	tsteq	r0, r1
    19c0:	01d05300 	bicseq	r5, r0, r0, lsl #6
    19c4:	01d40000 	bicseq	r0, r4, r0
    19c8:	001c0000 	andseq	r0, ip, r0
    19cc:	2cf70070 	ldclcs	0, cr0, [r7], #448	; 0x1c0
    19d0:	25f425f7 	ldrbcs	r2, [r4, #1527]!	; 0x5f7
    19d4:	cccccd08 	stclgt	13, cr12, [ip], {8}
    19d8:	000000cc 	andeq	r0, r0, ip, asr #1
    19dc:	20081e00 	andcs	r1, r8, r0, lsl #28
    19e0:	f72525f7 			; <UNDEFINED> instruction: 0xf72525f7
    19e4:	9f25332c 	svcls	0x0025332c
    19e8:	000001d4 	ldrdeq	r0, [r0], -r4
    19ec:	000001dc 	ldrdeq	r0, [r0], -ip
    19f0:	0074001c 	rsbseq	r0, r4, ip, lsl r0
    19f4:	25f72cf7 	ldrbcs	r2, [r7, #3319]!	; 0xcf7
    19f8:	cd0825f4 	cfstr32gt	mvfx2, [r8, #-976]	; 0xfffffc30
    19fc:	00cccccc 	sbceq	ip, ip, ip, asr #25
    1a00:	1e000000 	cdpne	0, 0, cr0, cr0, cr0, {0}
    1a04:	25f72008 	ldrbcs	r2, [r7, #8]!
    1a08:	332cf725 	msrcc	CPSR_fs, #9699328	; 0x940000
    1a0c:	01dc9f25 	bicseq	r9, ip, r5, lsr #30
    1a10:	01e00000 	mvneq	r0, r0
    1a14:	00170000 	andseq	r0, r7, r0
    1a18:	2cf70074 	ldclcs	0, cr0, [r7], #464	; 0x1d0
    1a1c:	007125f7 	ldrshteq	r2, [r1], #-87	; 0xffffffa9
    1a20:	25f72cf7 	ldrbcs	r2, [r7, #3319]!	; 0xcf7
    1a24:	f720081e 			; <UNDEFINED> instruction: 0xf720081e
    1a28:	2cf72525 	cfldr64cs	mvdx2, [r7], #148	; 0x94
    1a2c:	e09f2533 	adds	r2, pc, r3, lsr r5	; <UNPREDICTABLE>
    1a30:	10000001 	andne	r0, r0, r1
    1a34:	1c000002 	stcne	0, cr0, [r0], {2}
    1a38:	f7007400 			; <UNDEFINED> instruction: 0xf7007400
    1a3c:	f425f72c 	vld1.8	{d15}, [r5 :128], ip
    1a40:	cccd0825 	stclgt	8, cr0, [sp], {37}	; 0x25
    1a44:	0000cccc 	andeq	ip, r0, ip, asr #25
    1a48:	081e0000 	ldmdaeq	lr, {}	; <UNPREDICTABLE>
    1a4c:	2525f720 	strcs	pc, [r5, #-1824]!	; 0x720
    1a50:	25332cf7 	ldrcs	r2, [r3, #-3319]!	; 0xcf7
    1a54:	0000009f 	muleq	r0, pc, r0	; <UNPREDICTABLE>
    1a58:	00000000 	andeq	r0, r0, r0
    1a5c:	0001d800 	andeq	sp, r1, r0, lsl #16
    1a60:	0001fc00 	andeq	pc, r1, r0, lsl #24
    1a64:	50000100 	andpl	r0, r0, r0, lsl #2
    1a68:	000001fc 	strdeq	r0, [r0], -ip
    1a6c:	00000203 	andeq	r0, r0, r3, lsl #4
    1a70:	00510001 	subseq	r0, r1, r1
    1a74:	00000000 	andeq	r0, r0, r0
    1a78:	10000000 	andne	r0, r0, r0
    1a7c:	2c000002 	stccs	0, cr0, [r0], {2}
    1a80:	01000002 	tsteq	r0, r2
    1a84:	022c5000 	eoreq	r5, ip, #0
    1a88:	02340000 	eorseq	r0, r4, #0
    1a8c:	00010000 	andeq	r0, r1, r0
    1a90:	00023454 	andeq	r3, r2, r4, asr r4
    1a94:	00023c00 	andeq	r3, r2, r0, lsl #24
    1a98:	50000100 	andpl	r0, r0, r0, lsl #2
    1a9c:	0000023c 	andeq	r0, r0, ip, lsr r2
    1aa0:	00000244 	andeq	r0, r0, r4, asr #4
    1aa4:	44540001 	ldrbmi	r0, [r4], #-1
    1aa8:	50000002 	andpl	r0, r0, r2
    1aac:	04000002 	streq	r0, [r0], #-2
    1ab0:	5001f300 	andpl	pc, r1, r0, lsl #6
    1ab4:	0002509f 	muleq	r2, pc, r0	; <UNPREDICTABLE>
    1ab8:	00025400 	andeq	r5, r2, r0, lsl #8
    1abc:	50000100 	andpl	r0, r0, r0, lsl #2
    1ac0:	00000254 	andeq	r0, r0, r4, asr r2
    1ac4:	0000025c 	andeq	r0, r0, ip, asr r2
    1ac8:	00540001 	subseq	r0, r4, r1
    1acc:	00000000 	andeq	r0, r0, r0
    1ad0:	20000000 	andcs	r0, r0, r0
    1ad4:	30000002 	andcc	r0, r0, r2
    1ad8:	02000002 	andeq	r0, r0, #2
    1adc:	309f3000 	addscc	r3, pc, r0
    1ae0:	34000002 	strcc	r0, [r0], #-2
    1ae4:	01000002 	tsteq	r0, r2
    1ae8:	02345000 	eorseq	r5, r4, #0
    1aec:	02400000 	subeq	r0, r0, #0
    1af0:	00020000 	andeq	r0, r2, r0
    1af4:	02409f30 	subeq	r9, r0, #48, 30	; 0xc0
    1af8:	024c0000 	subeq	r0, ip, #0
    1afc:	00010000 	andeq	r0, r1, r0
    1b00:	00000050 	andeq	r0, r0, r0, asr r0
    1b04:	00000000 	andeq	r0, r0, r0
    1b08:	00025c00 	andeq	r5, r2, r0, lsl #24
    1b0c:	00027300 	andeq	r7, r2, r0, lsl #6
    1b10:	50000100 	andpl	r0, r0, r0, lsl #2
    1b14:	00000273 	andeq	r0, r0, r3, ror r2
    1b18:	00000278 	andeq	r0, r0, r8, ror r2
    1b1c:	01f30004 	mvnseq	r0, r4
    1b20:	02789f50 	rsbseq	r9, r8, #80, 30	; 0x140
    1b24:	027b0000 	rsbseq	r0, fp, #0
    1b28:	00010000 	andeq	r0, r1, r0
    1b2c:	00027b50 	andeq	r7, r2, r0, asr fp
    1b30:	00028000 	andeq	r8, r2, r0
    1b34:	f3000400 	vshl.u8	d0, d0, d0
    1b38:	009f5001 	addseq	r5, pc, r1
    1b3c:	00000000 	andeq	r0, r0, r0
    1b40:	5c000000 	stcpl	0, cr0, [r0], {-0}
    1b44:	73000002 	movwvc	r0, #2
    1b48:	01000002 	tsteq	r0, r2
    1b4c:	02735100 	rsbseq	r5, r3, #0, 2
    1b50:	02780000 	rsbseq	r0, r8, #0
    1b54:	00040000 	andeq	r0, r4, r0
    1b58:	9f5101f3 	svcls	0x005101f3
    1b5c:	00000278 	andeq	r0, r0, r8, ror r2
    1b60:	0000027b 	andeq	r0, r0, fp, ror r2
    1b64:	7b510001 	blvc	1441b70 <__bss_end__+0x1437d10>
    1b68:	80000002 	andhi	r0, r0, r2
    1b6c:	04000002 	streq	r0, [r0], #-2
    1b70:	5101f300 	mrspl	pc, SP_irq	; <UNPREDICTABLE>
    1b74:	0000009f 	muleq	r0, pc, r0	; <UNPREDICTABLE>
    1b78:	00000000 	andeq	r0, r0, r0
    1b7c:	00028000 	andeq	r8, r2, r0
    1b80:	00031800 	andeq	r1, r3, r0, lsl #16
    1b84:	50000100 	andpl	r0, r0, r0, lsl #2
    1b88:	00000318 	andeq	r0, r0, r8, lsl r3
    1b8c:	00000358 	andeq	r0, r0, r8, asr r3
    1b90:	00540001 	subseq	r0, r4, r1
    1b94:	00000000 	andeq	r0, r0, r0
    1b98:	80000000 	andhi	r0, r0, r0
    1b9c:	1b000002 	blne	1bac <_start-0x6454>
    1ba0:	01000003 	tsteq	r0, r3
    1ba4:	031b5100 	tsteq	fp, #0, 2
    1ba8:	03580000 	cmpeq	r8, #0
    1bac:	00040000 	andeq	r0, r4, r0
    1bb0:	9f5101f3 	svcls	0x005101f3
	...
    1bbc:	000002d0 	ldrdeq	r0, [r0], -r0	; <UNPREDICTABLE>
    1bc0:	000002d4 	ldrdeq	r0, [r0], -r4
    1bc4:	dc560001 	mrrcle	0, 0, r0, r6, cr1
    1bc8:	e0000002 	and	r0, r0, r2
    1bcc:	01000002 	tsteq	r0, r2
    1bd0:	02e85600 	rsceq	r5, r8, #0, 12
    1bd4:	02ec0000 	rsceq	r0, ip, #0
    1bd8:	00010000 	andeq	r0, r1, r0
    1bdc:	0002f456 	andeq	pc, r2, r6, asr r4	; <UNPREDICTABLE>
    1be0:	0002f800 	andeq	pc, r2, r0, lsl #16
    1be4:	56000100 	strpl	r0, [r0], -r0, lsl #2
    1be8:	00000300 	andeq	r0, r0, r0, lsl #6
    1bec:	00000304 	andeq	r0, r0, r4, lsl #6
    1bf0:	0c560001 	mrrceq	0, 0, r0, r6, cr1
    1bf4:	10000003 	andne	r0, r0, r3
    1bf8:	01000003 	tsteq	r0, r3
    1bfc:	03145600 	tsteq	r4, #0, 12
    1c00:	03580000 	cmpeq	r8, #0
    1c04:	00010000 	andeq	r0, r1, r0
    1c08:	00000056 	andeq	r0, r0, r6, asr r0
    1c0c:	00000000 	andeq	r0, r0, r0
    1c10:	0002a400 	andeq	sl, r2, r0, lsl #8
    1c14:	0002cc00 	andeq	ip, r2, r0, lsl #24
    1c18:	53000100 	movwpl	r0, #256	; 0x100
    1c1c:	000002cc 	andeq	r0, r0, ip, asr #5
    1c20:	000002d4 	ldrdeq	r0, [r0], -r4
    1c24:	0070001c 	rsbseq	r0, r0, ip, lsl r0
    1c28:	25f72cf7 	ldrbcs	r2, [r7, #3319]!	; 0xcf7
    1c2c:	cd0825f4 	cfstr32gt	mvfx2, [r8, #-976]	; 0xfffffc30
    1c30:	00cccccc 	sbceq	ip, ip, ip, asr #25
    1c34:	1e000000 	cdpne	0, 0, cr0, cr0, cr0, {0}
    1c38:	25f72008 	ldrbcs	r2, [r7, #8]!
    1c3c:	332cf725 	msrcc	CPSR_fs, #9699328	; 0x940000
    1c40:	02d49f25 	sbcseq	r9, r4, #37, 30	; 0x94
    1c44:	02d80000 	sbcseq	r0, r8, #0
    1c48:	00010000 	andeq	r0, r1, r0
    1c4c:	0002d853 	andeq	sp, r2, r3, asr r8
    1c50:	0002e000 	andeq	lr, r2, r0
    1c54:	70001c00 	andvc	r1, r0, r0, lsl #24
    1c58:	f72cf700 			; <UNDEFINED> instruction: 0xf72cf700
    1c5c:	0825f425 	stmdaeq	r5!, {r0, r2, r5, sl, ip, sp, lr, pc}
    1c60:	cccccccd 	stclgt	12, cr12, [ip], {205}	; 0xcd
    1c64:	00000000 	andeq	r0, r0, r0
    1c68:	f720081e 			; <UNDEFINED> instruction: 0xf720081e
    1c6c:	2cf72525 	cfldr64cs	mvdx2, [r7], #148	; 0x94
    1c70:	e09f2533 	adds	r2, pc, r3, lsr r5	; <UNPREDICTABLE>
    1c74:	e4000002 	str	r0, [r0], #-2
    1c78:	01000002 	tsteq	r0, r2
    1c7c:	02e45300 	rsceq	r5, r4, #0, 6
    1c80:	02ec0000 	rsceq	r0, ip, #0
    1c84:	001c0000 	andseq	r0, ip, r0
    1c88:	2cf70070 	ldclcs	0, cr0, [r7], #448	; 0x1c0
    1c8c:	25f425f7 	ldrbcs	r2, [r4, #1527]!	; 0x5f7
    1c90:	cccccd08 	stclgt	13, cr12, [ip], {8}
    1c94:	000000cc 	andeq	r0, r0, ip, asr #1
    1c98:	20081e00 	andcs	r1, r8, r0, lsl #28
    1c9c:	f72525f7 			; <UNDEFINED> instruction: 0xf72525f7
    1ca0:	9f25332c 	svcls	0x0025332c
    1ca4:	000002ec 	andeq	r0, r0, ip, ror #5
    1ca8:	000002f0 	strdeq	r0, [r0], -r0	; <UNPREDICTABLE>
    1cac:	f0530001 			; <UNDEFINED> instruction: 0xf0530001
    1cb0:	f8000002 			; <UNDEFINED> instruction: 0xf8000002
    1cb4:	1c000002 	stcne	0, cr0, [r0], {2}
    1cb8:	f7007000 			; <UNDEFINED> instruction: 0xf7007000
    1cbc:	f425f72c 	vld1.8	{d15}, [r5 :128], ip
    1cc0:	cccd0825 	stclgt	8, cr0, [sp], {37}	; 0x25
    1cc4:	0000cccc 	andeq	ip, r0, ip, asr #25
    1cc8:	081e0000 	ldmdaeq	lr, {}	; <UNPREDICTABLE>
    1ccc:	2525f720 	strcs	pc, [r5, #-1824]!	; 0x720
    1cd0:	25332cf7 	ldrcs	r2, [r3, #-3319]!	; 0xcf7
    1cd4:	0002f89f 	muleq	r2, pc, r8	; <UNPREDICTABLE>
    1cd8:	0002fc00 	andeq	pc, r2, r0, lsl #24
    1cdc:	53000100 	movwpl	r0, #256	; 0x100
    1ce0:	000002fc 	strdeq	r0, [r0], -ip
    1ce4:	00000304 	andeq	r0, r0, r4, lsl #6
    1ce8:	0070001c 	rsbseq	r0, r0, ip, lsl r0
    1cec:	25f72cf7 	ldrbcs	r2, [r7, #3319]!	; 0xcf7
    1cf0:	cd0825f4 	cfstr32gt	mvfx2, [r8, #-976]	; 0xfffffc30
    1cf4:	00cccccc 	sbceq	ip, ip, ip, asr #25
    1cf8:	1e000000 	cdpne	0, 0, cr0, cr0, cr0, {0}
    1cfc:	25f72008 	ldrbcs	r2, [r7, #8]!
    1d00:	332cf725 	msrcc	CPSR_fs, #9699328	; 0x940000
    1d04:	03049f25 	movweq	r9, #20261	; 0x4f25
    1d08:	03080000 	movweq	r0, #32768	; 0x8000
    1d0c:	00010000 	andeq	r0, r1, r0
    1d10:	00030853 	andeq	r0, r3, r3, asr r8
    1d14:	00031000 	andeq	r1, r3, r0
    1d18:	70001c00 	andvc	r1, r0, r0, lsl #24
    1d1c:	f72cf700 			; <UNDEFINED> instruction: 0xf72cf700
    1d20:	0825f425 	stmdaeq	r5!, {r0, r2, r5, sl, ip, sp, lr, pc}
    1d24:	cccccccd 	stclgt	12, cr12, [ip], {205}	; 0xcd
    1d28:	00000000 	andeq	r0, r0, r0
    1d2c:	f720081e 			; <UNDEFINED> instruction: 0xf720081e
    1d30:	2cf72525 	cfldr64cs	mvdx2, [r7], #148	; 0x94
    1d34:	109f2533 	addsne	r2, pc, r3, lsr r5	; <UNPREDICTABLE>
    1d38:	14000003 	strne	r0, [r0], #-3
    1d3c:	01000003 	tsteq	r0, r3
    1d40:	03145300 	tsteq	r4, #0, 6
    1d44:	03180000 	tsteq	r8, #0
    1d48:	001c0000 	andseq	r0, ip, r0
    1d4c:	2cf70070 	ldclcs	0, cr0, [r7], #448	; 0x1c0
    1d50:	25f425f7 	ldrbcs	r2, [r4, #1527]!	; 0x5f7
    1d54:	cccccd08 	stclgt	13, cr12, [ip], {8}
    1d58:	000000cc 	andeq	r0, r0, ip, asr #1
    1d5c:	20081e00 	andcs	r1, r8, r0, lsl #28
    1d60:	f72525f7 			; <UNDEFINED> instruction: 0xf72525f7
    1d64:	9f25332c 	svcls	0x0025332c
    1d68:	00000318 	andeq	r0, r0, r8, lsl r3
    1d6c:	00000320 	andeq	r0, r0, r0, lsr #6
    1d70:	0074001c 	rsbseq	r0, r4, ip, lsl r0
    1d74:	25f72cf7 	ldrbcs	r2, [r7, #3319]!	; 0xcf7
    1d78:	cd0825f4 	cfstr32gt	mvfx2, [r8, #-976]	; 0xfffffc30
    1d7c:	00cccccc 	sbceq	ip, ip, ip, asr #25
    1d80:	1e000000 	cdpne	0, 0, cr0, cr0, cr0, {0}
    1d84:	25f72008 	ldrbcs	r2, [r7, #8]!
    1d88:	332cf725 	msrcc	CPSR_fs, #9699328	; 0x940000
    1d8c:	03209f25 	teqeq	r0, #37, 30	; 0x94
    1d90:	03240000 	teqeq	r4, #0
    1d94:	00170000 	andseq	r0, r7, r0
    1d98:	2cf70074 	ldclcs	0, cr0, [r7], #464	; 0x1d0
    1d9c:	007325f7 	ldrshteq	r2, [r3], #-87	; 0xffffffa9
    1da0:	25f72cf7 	ldrbcs	r2, [r7, #3319]!	; 0xcf7
    1da4:	f720081e 			; <UNDEFINED> instruction: 0xf720081e
    1da8:	2cf72525 	cfldr64cs	mvdx2, [r7], #148	; 0x94
    1dac:	249f2533 	ldrcs	r2, [pc], #1331	; 1db4 <_start-0x624c>
    1db0:	58000003 	stmdapl	r0, {r0, r1}
    1db4:	1c000003 	stcne	0, cr0, [r0], {3}
    1db8:	f7007400 			; <UNDEFINED> instruction: 0xf7007400
    1dbc:	f425f72c 	vld1.8	{d15}, [r5 :128], ip
    1dc0:	cccd0825 	stclgt	8, cr0, [sp], {37}	; 0x25
    1dc4:	0000cccc 	andeq	ip, r0, ip, asr #25
    1dc8:	081e0000 	ldmdaeq	lr, {}	; <UNPREDICTABLE>
    1dcc:	2525f720 	strcs	pc, [r5, #-1824]!	; 0x720
    1dd0:	25332cf7 	ldrcs	r2, [r3, #-3319]!	; 0xcf7
    1dd4:	0000009f 	muleq	r0, pc, r0	; <UNPREDICTABLE>
    1dd8:	00000000 	andeq	r0, r0, r0
    1ddc:	00031c00 	andeq	r1, r3, r0, lsl #24
    1de0:	00034000 	andeq	r4, r3, r0
    1de4:	50000100 	andpl	r0, r0, r0, lsl #2
    1de8:	00000340 	andeq	r0, r0, r0, asr #6
    1dec:	00000348 	andeq	r0, r0, r8, asr #6
    1df0:	00750009 	rsbseq	r0, r5, r9
    1df4:	71240073 	teqvc	r4, r3, ror r0
    1df8:	489f2100 	ldmmi	pc, {r8, sp}	; <UNPREDICTABLE>
    1dfc:	4b000003 	blmi	1e10 <_start-0x61f0>
    1e00:	01000003 	tsteq	r0, r3
    1e04:	00005100 	andeq	r5, r0, r0, lsl #2
    1e08:	00000000 	andeq	r0, r0, r0
    1e0c:	03580000 	cmpeq	r8, #0
    1e10:	03640000 	cmneq	r4, #0
    1e14:	00010000 	andeq	r0, r1, r0
    1e18:	00036450 	andeq	r6, r3, r0, asr r4
    1e1c:	00038400 	andeq	r8, r3, r0, lsl #8
    1e20:	f3000400 	vshl.u8	d0, d0, d0
    1e24:	009f5001 	addseq	r5, pc, r1
    1e28:	00000000 	andeq	r0, r0, r0
    1e2c:	84000000 	strhi	r0, [r0], #-0
    1e30:	97000003 	strls	r0, [r0, -r3]
    1e34:	01000003 	tsteq	r0, r3
    1e38:	03975000 	orrseq	r5, r7, #0
    1e3c:	03d00000 	bicseq	r0, r0, #0
    1e40:	00010000 	andeq	r0, r1, r0
    1e44:	0003d054 	andeq	sp, r3, r4, asr r0
    1e48:	00040800 	andeq	r0, r4, r0, lsl #16
    1e4c:	f3000400 	vshl.u8	d0, d0, d0
    1e50:	009f5001 	addseq	r5, pc, r1
    1e54:	00000000 	andeq	r0, r0, r0
    1e58:	f0000000 			; <UNDEFINED> instruction: 0xf0000000
    1e5c:	f4000003 	vst4.8	{d0-d3}, [r0], r3
    1e60:	01000003 	tsteq	r0, r3
    1e64:	03f45000 	mvnseq	r5, #0
    1e68:	03fb0000 	mvnseq	r0, #0
    1e6c:	00010000 	andeq	r0, r1, r0
    1e70:	00000051 	andeq	r0, r0, r1, asr r0
    1e74:	00000000 	andeq	r0, r0, r0
    1e78:	0003ac00 	andeq	sl, r3, r0, lsl #24
    1e7c:	0003b400 	andeq	fp, r3, r0, lsl #8
    1e80:	50000100 	andpl	r0, r0, r0, lsl #2
    1e84:	000003b4 			; <UNDEFINED> instruction: 0x000003b4
    1e88:	000003bb 			; <UNDEFINED> instruction: 0x000003bb
    1e8c:	00510001 	subseq	r0, r1, r1
    1e90:	00000000 	andeq	r0, r0, r0
    1e94:	cc000000 	stcgt	0, cr0, [r0], {-0}
    1e98:	d8000003 	stmdale	r0, {r0, r1}
    1e9c:	01000003 	tsteq	r0, r3
    1ea0:	03d85000 	bicseq	r5, r8, #0
    1ea4:	03df0000 	bicseq	r0, pc, #0
    1ea8:	00010000 	andeq	r0, r1, r0
    1eac:	00000051 	andeq	r0, r0, r1, asr r0
    1eb0:	00000000 	andeq	r0, r0, r0
    1eb4:	00040800 	andeq	r0, r4, r0, lsl #16
    1eb8:	00041b00 	andeq	r1, r4, r0, lsl #22
    1ebc:	50000100 	andpl	r0, r0, r0, lsl #2
    1ec0:	0000041b 	andeq	r0, r0, fp, lsl r4
    1ec4:	00000454 	andeq	r0, r0, r4, asr r4
    1ec8:	54540001 	ldrbpl	r0, [r4], #-1
    1ecc:	8c000004 	stchi	0, cr0, [r0], {4}
    1ed0:	04000004 	streq	r0, [r0], #-4
    1ed4:	5001f300 	andpl	pc, r1, r0, lsl #6
    1ed8:	0000009f 	muleq	r0, pc, r0	; <UNPREDICTABLE>
    1edc:	00000000 	andeq	r0, r0, r0
    1ee0:	00047400 	andeq	r7, r4, r0, lsl #8
    1ee4:	00047800 	andeq	r7, r4, r0, lsl #16
    1ee8:	50000100 	andpl	r0, r0, r0, lsl #2
    1eec:	00000478 	andeq	r0, r0, r8, ror r4
    1ef0:	0000047f 	andeq	r0, r0, pc, ror r4
    1ef4:	00510001 	subseq	r0, r1, r1
    1ef8:	00000000 	andeq	r0, r0, r0
    1efc:	30000000 	andcc	r0, r0, r0
    1f00:	38000004 	stmdacc	r0, {r2}
    1f04:	01000004 	tsteq	r0, r4
    1f08:	04385000 	ldrteq	r5, [r8], #-0
    1f0c:	043f0000 	ldrteq	r0, [pc], #-0	; 1f14 <_start-0x60ec>
    1f10:	00010000 	andeq	r0, r1, r0
    1f14:	00000051 	andeq	r0, r0, r1, asr r0
    1f18:	00000000 	andeq	r0, r0, r0
    1f1c:	00045000 	andeq	r5, r4, r0
    1f20:	00045c00 	andeq	r5, r4, r0, lsl #24
    1f24:	50000100 	andpl	r0, r0, r0, lsl #2
    1f28:	0000045c 	andeq	r0, r0, ip, asr r4
    1f2c:	00000463 	andeq	r0, r0, r3, ror #8
    1f30:	00510001 	subseq	r0, r1, r1
    1f34:	00000000 	andeq	r0, r0, r0
    1f38:	8c000000 	stchi	0, cr0, [r0], {-0}
    1f3c:	9f000004 	svcls	0x00000004
    1f40:	01000004 	tsteq	r0, r4
    1f44:	049f5000 	ldreq	r5, [pc], #0	; 1f4c <_start-0x60b4>
    1f48:	04e00000 	strbteq	r0, [r0], #0
    1f4c:	00010000 	andeq	r0, r1, r0
    1f50:	0004e054 	andeq	lr, r4, r4, asr r0
    1f54:	00050400 	andeq	r0, r5, r0, lsl #8
    1f58:	f3000400 	vshl.u8	d0, d0, d0
    1f5c:	049f5001 	ldreq	r5, [pc], #1	; 1f64 <_start-0x609c>
    1f60:	08000005 	stmdaeq	r0, {r0, r2}
    1f64:	01000005 	tsteq	r0, r5
    1f68:	05085000 	streq	r5, [r8, #-0]
    1f6c:	05100000 	ldreq	r0, [r0, #-0]
    1f70:	00010000 	andeq	r0, r1, r0
    1f74:	00000054 	andeq	r0, r0, r4, asr r0
    1f78:	00000000 	andeq	r0, r0, r0
    1f7c:	0004b400 	andeq	fp, r4, r0, lsl #8
    1f80:	0004c300 	andeq	ip, r4, r0, lsl #6
    1f84:	31000800 	tstcc	r0, r0, lsl #16
    1f88:	70240074 	eorvc	r0, r4, r4, ror r0
    1f8c:	009f1a00 	addseq	r1, pc, r0, lsl #20
    1f90:	00000000 	andeq	r0, r0, r0
    1f94:	e0000000 	and	r0, r0, r0
    1f98:	f8000004 			; <UNDEFINED> instruction: 0xf8000004
    1f9c:	01000004 	tsteq	r0, r4
    1fa0:	00005400 	andeq	r5, r0, r0, lsl #8
    1fa4:	00000000 	andeq	r0, r0, r0
    1fa8:	05100000 	ldreq	r0, [r0, #-0]
    1fac:	05230000 	streq	r0, [r3, #-0]!
    1fb0:	00010000 	andeq	r0, r1, r0
    1fb4:	00052350 	andeq	r2, r5, r0, asr r3
    1fb8:	00054800 	andeq	r4, r5, r0, lsl #16
    1fbc:	54000100 	strpl	r0, [r0], #-256	; 0x100
    1fc0:	00000548 	andeq	r0, r0, r8, asr #10
    1fc4:	00000568 	andeq	r0, r0, r8, ror #10
    1fc8:	01f30004 	mvnseq	r0, r4
    1fcc:	00009f50 	andeq	r9, r0, r0, asr pc
	...
    1fd8:	000b0000 	andeq	r0, fp, r0
    1fdc:	00010000 	andeq	r0, r1, r0
    1fe0:	00000b50 	andeq	r0, r0, r0, asr fp
    1fe4:	00001400 	andeq	r1, r0, r0, lsl #8
    1fe8:	54000100 	strpl	r0, [r0], #-256	; 0x100
	...
    1ff4:	000000fc 	strdeq	r0, [r0], -ip
    1ff8:	00000104 	andeq	r0, r0, r4, lsl #2
    1ffc:	04500001 	ldrbeq	r0, [r0], #-1
    2000:	28000001 	stmdacs	r0, {r0}
    2004:	01000001 	tsteq	r0, r1
    2008:	00005400 	andeq	r5, r0, r0, lsl #8
	...
    2014:	00040000 	andeq	r0, r4, r0
    2018:	00010000 	andeq	r0, r1, r0
    201c:	00000452 	andeq	r0, r0, r2, asr r4
    2020:	00002000 	andeq	r2, r0, r0
    2024:	f3000400 	vshl.u8	d0, d0, d0
    2028:	009f5201 	addseq	r5, pc, r1, lsl #4
	...
    2034:	0c000000 	stceq	0, cr0, [r0], {-0}
    2038:	01000000 	mrseq	r0, (UNDEF: 0)
    203c:	000c5000 	andeq	r5, ip, r0
    2040:	00140000 	andseq	r0, r4, r0
    2044:	00030000 	andeq	r0, r3, r0
    2048:	149f0173 	ldrne	r0, [pc], #371	; 2050 <_start-0x5fb0>
    204c:	20000000 	andcs	r0, r0, r0
    2050:	01000000 	mrseq	r0, (UNDEF: 0)
    2054:	00005300 	andeq	r5, r0, r0, lsl #6
    2058:	00000000 	andeq	r0, r0, r0
	...

Disassembly of section .debug_aranges:

00000000 <.debug_aranges>:
   0:	0000001c 	andeq	r0, r0, ip, lsl r0
   4:	00000002 	andeq	r0, r0, r2
   8:	00040000 	andeq	r0, r4, r0
   c:	00000000 	andeq	r0, r0, r0
  10:	00008010 	andeq	r8, r0, r0, lsl r0
  14:	000000f4 	strdeq	r0, [r0], -r4
	...
  20:	0000001c 	andeq	r0, r0, ip, lsl r0
  24:	041d0002 	ldreq	r0, [sp], #-2
  28:	00040000 	andeq	r0, r4, r0
  2c:	00000000 	andeq	r0, r0, r0
  30:	00008104 	andeq	r8, r0, r4, lsl #2
  34:	00000058 	andeq	r0, r0, r8, asr r0
	...
  40:	0000001c 	andeq	r0, r0, ip, lsl r0
  44:	05b20002 	ldreq	r0, [r2, #2]!
  48:	00040000 	andeq	r0, r4, r0
  4c:	00000000 	andeq	r0, r0, r0
  50:	0000815c 	andeq	r8, r0, ip, asr r1
  54:	00000034 	andeq	r0, r0, r4, lsr r0
	...
  60:	0000001c 	andeq	r0, r0, ip, lsl r0
  64:	06a40002 	strteq	r0, [r4], r2
  68:	00040000 	andeq	r0, r4, r0
  6c:	00000000 	andeq	r0, r0, r0
  70:	00008190 	muleq	r0, r0, r1
  74:	00000524 	andeq	r0, r0, r4, lsr #10
	...
  80:	0000001c 	andeq	r0, r0, ip, lsl r0
  84:	0d490002 	stcleq	0, cr0, [r9, #-8]
  88:	00040000 	andeq	r0, r4, r0
  8c:	00000000 	andeq	r0, r0, r0
  90:	000086b4 			; <UNDEFINED> instruction: 0x000086b4
  94:	00000028 	andeq	r0, r0, r8, lsr #32
	...
  a0:	0000001c 	andeq	r0, r0, ip, lsl r0
  a4:	0e4c0002 	cdpeq	0, 4, cr0, cr12, cr2, {0}
  a8:	00040000 	andeq	r0, r4, r0
  ac:	00000000 	andeq	r0, r0, r0
  b0:	000086dc 	ldrdeq	r8, [r0], -ip
  b4:	000000b0 	strheq	r0, [r0], -r0	; <UNPREDICTABLE>
	...
  c0:	0000001c 	andeq	r0, r0, ip, lsl r0
  c4:	112d0002 	teqne	sp, r2
  c8:	00040000 	andeq	r0, r4, r0
  cc:	00000000 	andeq	r0, r0, r0
  d0:	0000878c 	andeq	r8, r0, ip, lsl #15
  d4:	00000074 	andeq	r0, r0, r4, ror r0
	...
  e0:	0000001c 	andeq	r0, r0, ip, lsl r0
  e4:	12de0002 	sbcsne	r0, lr, #2
  e8:	00040000 	andeq	r0, r4, r0
  ec:	00000000 	andeq	r0, r0, r0
  f0:	00008800 	andeq	r8, r0, r0, lsl #16
  f4:	00000088 	andeq	r0, r0, r8, lsl #1
	...
 100:	0000001c 	andeq	r0, r0, ip, lsl r0
 104:	14ba0002 	ldrtne	r0, [sl], #2
 108:	00040000 	andeq	r0, r4, r0
 10c:	00000000 	andeq	r0, r0, r0
 110:	00008888 	andeq	r8, r0, r8, lsl #17
 114:	00000668 	andeq	r0, r0, r8, ror #12
	...
 120:	0000001c 	andeq	r0, r0, ip, lsl r0
 124:	26b00002 	ldrtcs	r0, [r0], r2
 128:	00040000 	andeq	r0, r4, r0
 12c:	00000000 	andeq	r0, r0, r0
 130:	00008f3c 	andeq	r8, r0, ip, lsr pc
 134:	00000568 	andeq	r0, r0, r8, ror #10
	...
 140:	0000001c 	andeq	r0, r0, ip, lsl r0
 144:	2ed50002 	cdpcs	0, 13, cr0, cr5, cr2, {0}
 148:	00040000 	andeq	r0, r4, r0
 14c:	00000000 	andeq	r0, r0, r0
 150:	000094a4 	andeq	r9, r0, r4, lsr #9
 154:	0000003c 	andeq	r0, r0, ip, lsr r0
	...
 160:	0000001c 	andeq	r0, r0, ip, lsl r0
 164:	2fec0002 	svccs	0x00ec0002
 168:	00040000 	andeq	r0, r4, r0
 16c:	00000000 	andeq	r0, r0, r0
 170:	000094e0 	andeq	r9, r0, r0, ror #9
 174:	00000050 	andeq	r0, r0, r0, asr r0
	...
 180:	0000001c 	andeq	r0, r0, ip, lsl r0
 184:	31b30002 			; <UNDEFINED> instruction: 0x31b30002
 188:	00040000 	andeq	r0, r4, r0
 18c:	00000000 	andeq	r0, r0, r0
 190:	00009530 	andeq	r9, r0, r0, lsr r5
 194:	00000154 	andeq	r0, r0, r4, asr r1
	...
 1a0:	0000001c 	andeq	r0, r0, ip, lsl r0
 1a4:	35b60002 	ldrcc	r0, [r6, #2]!
 1a8:	00040000 	andeq	r0, r4, r0
 1ac:	00000000 	andeq	r0, r0, r0
 1b0:	0000969c 	muleq	r0, ip, r6
 1b4:	00000020 	andeq	r0, r0, r0, lsr #32
	...

Disassembly of section .debug_line:

00000000 <.debug_line>:
       0:	00000124 	andeq	r0, r0, r4, lsr #2
       4:	00ea0002 	rsceq	r0, sl, r2
       8:	01020000 	mrseq	r0, (UNDEF: 2)
       c:	000d0efb 	strdeq	r0, [sp], -fp
      10:	01010101 	tsteq	r1, r1, lsl #2
      14:	01000000 	mrseq	r0, (UNDEF: 0)
      18:	2f010000 	svccs	0x00010000
      1c:	2f727375 	svccs	0x00727375
      20:	61636f6c 	cmnvs	r3, ip, ror #30
      24:	65432f6c 	strbvs	r2, [r3, #-3948]	; 0xf6c
      28:	72616c6c 	rsbvc	r6, r1, #108, 24	; 0x6c00
      2c:	6d72612f 	ldfvse	f6, [r2, #-188]!	; 0xffffff44
      30:	6e6f6e2d 	cdpvs	14, 6, cr6, cr15, cr13, {1}
      34:	61652d65 	cmnvs	r5, r5, ror #26
      38:	342f6962 	strtcc	r6, [pc], #-2402	; 40 <_start-0x7fc0>
      3c:	332e382e 	teqcc	lr, #3014656	; 0x2e0000
      40:	3173632d 	cmncc	r3, sp, lsr #6
      44:	2f653037 	svccs	0x00653037
      48:	2f62696c 	svccs	0x0062696c
      4c:	2f636367 	svccs	0x00636367
      50:	2d6d7261 	sfmcs	f7, 2, [sp, #-388]!	; 0xfffffe7c
      54:	656e6f6e 	strbvs	r6, [lr, #-3950]!	; 0xf6e
      58:	6261652d 	rsbvs	r6, r1, #188743680	; 0xb400000
      5c:	2e342f69 	cdpcs	15, 3, cr2, cr4, cr9, {3}
      60:	2f332e38 	svccs	0x00332e38
      64:	6c636e69 	stclvs	14, cr6, [r3], #-420	; 0xfffffe5c
      68:	00656475 	rsbeq	r6, r5, r5, ror r4
      6c:	752f2e2e 	strvc	r2, [pc, #-3630]!	; fffff246 <__bss_end__+0xffff53e6>
      70:	2d78696e 	ldclcs	9, cr6, [r8, #-440]!	; 0xfffffe48
      74:	65646973 	strbvs	r6, [r4, #-2419]!	; 0x973
      78:	73552f00 	cmpvc	r5, #0, 30
      7c:	2f737265 	svccs	0x00737265
      80:	61697262 	cmnvs	r9, r2, ror #4
      84:	6e756a6e 	vsubvs.f32	s13, s10, s29
      88:	7365442f 	cmnvc	r5, #788529152	; 0x2f000000
      8c:	706f746b 	rsbvc	r7, pc, fp, ror #8
      90:	6863732f 	stmdavs	r3!, {r0, r1, r2, r3, r5, r8, r9, ip, sp, lr}^
      94:	2f6c6f6f 	svccs	0x006c6f6f
      98:	746e6957 	strbtvc	r6, [lr], #-2391	; 0x957
      9c:	39317265 	ldmdbcc	r1!, {r0, r2, r5, r6, r9, ip, sp, lr}
      a0:	432f3032 	teqmi	pc, #50	; 0x32
      a4:	30343153 	eorscc	r3, r4, r3, asr r1
      a8:	73632f45 	cmnvc	r3, #276	; 0x114
      ac:	65303431 	ldrvs	r3, [r0, #-1073]!	; 0x431
      b0:	7730322d 	ldrvc	r3, [r0, -sp, lsr #4]!
      b4:	6c2f6e69 	stcvs	14, cr6, [pc], #-420	; ffffff18 <__bss_end__+0xffff60b8>
      b8:	69706269 	ldmdbvs	r0!, {r0, r3, r5, r6, r9, sp, lr}^
      bc:	65680000 	strbvs	r0, [r8, #-0]!
      c0:	2e6f6c6c 	cdpcs	12, 6, cr6, cr15, cr12, {3}
      c4:	00000063 	andeq	r0, r0, r3, rrx
      c8:	64747300 	ldrbtvs	r7, [r4], #-768	; 0x300
      cc:	2d746e69 	ldclcs	14, cr6, [r4, #-420]!	; 0xfffffe5c
      d0:	2e636367 	cdpcs	3, 6, cr6, cr3, cr7, {3}
      d4:	00010068 	andeq	r0, r1, r8, rrx
      d8:	6d726100 	ldfvse	f6, [r2, #-0]
      dc:	692d3676 	pushvs	{r1, r2, r4, r5, r6, r9, sl, ip, sp}
      e0:	7374736e 	cmnvc	r4, #-1207959551	; 0xb8000001
      e4:	0200682e 	andeq	r6, r0, #3014656	; 0x2e0000
      e8:	70720000 	rsbsvc	r0, r2, r0
      ec:	00682e69 	rsbeq	r2, r8, r9, ror #28
      f0:	00000003 	andeq	r0, r0, r3
      f4:	10020500 	andne	r0, r2, r0, lsl #10
      f8:	15000080 	strne	r0, [r0, #-128]	; 0x80
      fc:	4b4b872f 	blmi	12e1dc0 <__bss_end__+0x12d7f60>
     100:	4b67354d 	blmi	19cd63c <__bss_end__+0x19c37dc>
     104:	4c4b4b4c 	mcrrmi	11, 4, r4, fp, cr12
     108:	00492f4b 	subeq	r2, r9, fp, asr #30
     10c:	2f020402 	svccs	0x00020402
     110:	02040200 	andeq	r0, r4, #0, 4
     114:	04020081 	streq	r0, [r2], #-129	; 0x81
     118:	062e0601 	strteq	r0, [lr], -r1, lsl #12
     11c:	67672f4d 	strbvs	r2, [r7, -sp, asr #30]!
     120:	024b4b2f 	subeq	r4, fp, #48128	; 0xbc00
     124:	01010016 	tsteq	r1, r6, lsl r0
     128:	00000102 	andeq	r0, r0, r2, lsl #2
     12c:	00eb0002 	rsceq	r0, fp, r2
     130:	01020000 	mrseq	r0, (UNDEF: 2)
     134:	000d0efb 	strdeq	r0, [sp], -fp
     138:	01010101 	tsteq	r1, r1, lsl #2
     13c:	01000000 	mrseq	r0, (UNDEF: 0)
     140:	6c010000 	stcvs	0, cr0, [r1], {-0}
     144:	00636269 	rsbeq	r6, r3, r9, ror #4
     148:	7273752f 	rsbsvc	r7, r3, #197132288	; 0xbc00000
     14c:	636f6c2f 	cmnvs	pc, #12032	; 0x2f00
     150:	432f6c61 	teqmi	pc, #24832	; 0x6100
     154:	616c6c65 	cmnvs	ip, r5, ror #24
     158:	72612f72 	rsbvc	r2, r1, #456	; 0x1c8
     15c:	6f6e2d6d 	svcvs	0x006e2d6d
     160:	652d656e 	strvs	r6, [sp, #-1390]!	; 0x56e
     164:	2f696261 	svccs	0x00696261
     168:	2e382e34 	mrccs	14, 1, r2, cr8, cr4, {1}
     16c:	73632d33 	cmnvc	r3, #3264	; 0xcc0
     170:	65303731 	ldrvs	r3, [r0, #-1841]!	; 0x731
     174:	62696c2f 	rsbvs	r6, r9, #12032	; 0x2f00
     178:	6363672f 	cmnvs	r3, #12320768	; 0xbc0000
     17c:	6d72612f 	ldfvse	f6, [r2, #-188]!	; 0xffffff44
     180:	6e6f6e2d 	cdpvs	14, 6, cr6, cr15, cr13, {1}
     184:	61652d65 	cmnvs	r5, r5, ror #26
     188:	342f6962 	strtcc	r6, [pc], #-2402	; 190 <_start-0x7e70>
     18c:	332e382e 	teqcc	lr, #3014656	; 0x2e0000
     190:	636e692f 	cmnvs	lr, #770048	; 0xbc000
     194:	6564756c 	strbvs	r7, [r4, #-1388]!	; 0x56c
     198:	73552f00 	cmpvc	r5, #0, 30
     19c:	2f737265 	svccs	0x00737265
     1a0:	61697262 	cmnvs	r9, r2, ror #4
     1a4:	6e756a6e 	vsubvs.f32	s13, s10, s29
     1a8:	7365442f 	cmnvc	r5, #788529152	; 0x2f000000
     1ac:	706f746b 	rsbvc	r7, pc, fp, ror #8
     1b0:	6863732f 	stmdavs	r3!, {r0, r1, r2, r3, r5, r8, r9, ip, sp, lr}^
     1b4:	2f6c6f6f 	svccs	0x006c6f6f
     1b8:	746e6957 	strbtvc	r6, [lr], #-2391	; 0x957
     1bc:	39317265 	ldmdbcc	r1!, {r0, r2, r5, r6, r9, ip, sp, lr}
     1c0:	432f3032 	teqmi	pc, #50	; 0x32
     1c4:	30343153 	eorscc	r3, r4, r3, asr r1
     1c8:	73632f45 	cmnvc	r3, #276	; 0x114
     1cc:	65303431 	ldrvs	r3, [r0, #-1073]!	; 0x431
     1d0:	7730322d 	ldrvc	r3, [r0, -sp, lsr #4]!
     1d4:	6c2f6e69 	stcvs	14, cr6, [pc], #-420	; 38 <_start-0x7fc8>
     1d8:	69706269 	ldmdbvs	r0!, {r0, r3, r5, r6, r9, sp, lr}^
     1dc:	72700000 	rsbsvc	r0, r0, #0
     1e0:	6b746e69 	blvs	1d1bb8c <__bss_end__+0x1d11d2c>
     1e4:	0100632e 	tsteq	r0, lr, lsr #6
     1e8:	74730000 	ldrbtvc	r0, [r3], #-0
     1ec:	67726164 	ldrbvs	r6, [r2, -r4, ror #2]!
     1f0:	0200682e 	andeq	r6, r0, #3014656	; 0x2e0000
     1f4:	623c0000 	eorsvs	r0, ip, #0
     1f8:	746c6975 	strbtvc	r6, [ip], #-2421	; 0x975
     1fc:	3e6e692d 	cdpcc	9, 6, cr6, cr14, cr13, {1}
     200:	00000000 	andeq	r0, r0, r0
     204:	2e697072 	mcrcs	0, 3, r7, cr9, cr2, {3}
     208:	00030068 	andeq	r0, r3, r8, rrx
     20c:	2d617600 	stclcs	6, cr7, [r1, #-0]
     210:	6e697270 	mcrvs	2, 3, r7, cr9, cr0, {3}
     214:	682e6b74 	stmdavs	lr!, {r2, r4, r5, r6, r8, r9, fp, sp, lr}
     218:	00000100 	andeq	r0, r0, r0, lsl #2
     21c:	02050000 	andeq	r0, r5, #0
     220:	00008104 	andeq	r8, r0, r4, lsl #2
     224:	bf4b6b17 	svclt	0x004b6b17
     228:	000e0289 	andeq	r0, lr, r9, lsl #5
     22c:	00960101 	addseq	r0, r6, r1, lsl #2
     230:	00020000 	andeq	r0, r2, r0
     234:	0000006f 	andeq	r0, r0, pc, rrx
     238:	0efb0102 	cdpeq	1, 15, cr0, cr11, cr2, {0}
     23c:	0101000d 	tsteq	r1, sp
     240:	00000101 	andeq	r0, r0, r1, lsl #2
     244:	00000100 	andeq	r0, r0, r0, lsl #2
     248:	62696c01 	rsbvs	r6, r9, #256	; 0x100
     24c:	552f0063 	strpl	r0, [pc, #-99]!	; 1f1 <_start-0x7e0f>
     250:	73726573 	cmnvc	r2, #482344960	; 0x1cc00000
     254:	6972622f 	ldmdbvs	r2!, {r0, r1, r2, r3, r5, r9, sp, lr}^
     258:	756a6e61 	strbvc	r6, [sl, #-3681]!	; 0xe61
     25c:	65442f6e 	strbvs	r2, [r4, #-3950]	; 0xf6e
     260:	6f746b73 	svcvs	0x00746b73
     264:	63732f70 	cmnvs	r3, #112, 30	; 0x1c0
     268:	6c6f6f68 	stclvs	15, cr6, [pc], #-416	; d0 <_start-0x7f30>
     26c:	6e69572f 	cdpvs	7, 6, cr5, cr9, cr15, {1}
     270:	31726574 	cmncc	r2, r4, ror r5
     274:	2f303239 	svccs	0x00303239
     278:	34315343 	ldrtcc	r5, [r1], #-835	; 0x343
     27c:	632f4530 	teqvs	pc, #48, 10	; 0xc000000
     280:	30343173 	eorscc	r3, r4, r3, ror r1
     284:	30322d65 	eorscc	r2, r2, r5, ror #26
     288:	2f6e6977 	svccs	0x006e6977
     28c:	7062696c 	rsbvc	r6, r2, ip, ror #18
     290:	70000069 	andvc	r0, r0, r9, rrx
     294:	2e6b7475 	mcrcs	4, 3, r7, cr11, cr5, {3}
     298:	00010063 	andeq	r0, r1, r3, rrx
     29c:	69707200 	ldmdbvs	r0!, {r9, ip, sp, lr}^
     2a0:	0200682e 	andeq	r6, r0, #3014656	; 0x2e0000
     2a4:	00000000 	andeq	r0, r0, r0
     2a8:	815c0205 	cmphi	ip, r5, lsl #4
     2ac:	4c150000 	ldcmi	0, cr0, [r5], {-0}
     2b0:	0402002d 	streq	r0, [r2], #-45	; 0x2d
     2b4:	02002f02 	andeq	r2, r0, #2, 30
     2b8:	00490204 	subeq	r0, r9, r4, lsl #4
     2bc:	06010402 	streq	r0, [r1], -r2, lsl #8
     2c0:	026b062e 	rsbeq	r0, fp, #48234496	; 0x2e00000
     2c4:	01010006 	tsteq	r1, r6
     2c8:	000001e2 	andeq	r0, r0, r2, ror #3
     2cc:	00df0002 	sbcseq	r0, pc, r2
     2d0:	01020000 	mrseq	r0, (UNDEF: 2)
     2d4:	000d0efb 	strdeq	r0, [sp], -fp
     2d8:	01010101 	tsteq	r1, r1, lsl #2
     2dc:	01000000 	mrseq	r0, (UNDEF: 0)
     2e0:	6c010000 	stcvs	0, cr0, [r1], {-0}
     2e4:	00636269 	rsbeq	r6, r3, r9, ror #4
     2e8:	7273752f 	rsbsvc	r7, r3, #197132288	; 0xbc00000
     2ec:	636f6c2f 	cmnvs	pc, #12032	; 0x2f00
     2f0:	432f6c61 	teqmi	pc, #24832	; 0x6100
     2f4:	616c6c65 	cmnvs	ip, r5, ror #24
     2f8:	72612f72 	rsbvc	r2, r1, #456	; 0x1c8
     2fc:	6f6e2d6d 	svcvs	0x006e2d6d
     300:	652d656e 	strvs	r6, [sp, #-1390]!	; 0x56e
     304:	2f696261 	svccs	0x00696261
     308:	2e382e34 	mrccs	14, 1, r2, cr8, cr4, {1}
     30c:	73632d33 	cmnvc	r3, #3264	; 0xcc0
     310:	65303731 	ldrvs	r3, [r0, #-1841]!	; 0x731
     314:	62696c2f 	rsbvs	r6, r9, #12032	; 0x2f00
     318:	6363672f 	cmnvs	r3, #12320768	; 0xbc0000
     31c:	6d72612f 	ldfvse	f6, [r2, #-188]!	; 0xffffff44
     320:	6e6f6e2d 	cdpvs	14, 6, cr6, cr15, cr13, {1}
     324:	61652d65 	cmnvs	r5, r5, ror #26
     328:	342f6962 	strtcc	r6, [pc], #-2402	; 330 <_start-0x7cd0>
     32c:	332e382e 	teqcc	lr, #3014656	; 0x2e0000
     330:	636e692f 	cmnvs	lr, #770048	; 0xbc000
     334:	6564756c 	strbvs	r7, [r4, #-1388]!	; 0x56c
     338:	73552f00 	cmpvc	r5, #0, 30
     33c:	2f737265 	svccs	0x00737265
     340:	61697262 	cmnvs	r9, r2, ror #4
     344:	6e756a6e 	vsubvs.f32	s13, s10, s29
     348:	7365442f 	cmnvc	r5, #788529152	; 0x2f000000
     34c:	706f746b 	rsbvc	r7, pc, fp, ror #8
     350:	6863732f 	stmdavs	r3!, {r0, r1, r2, r3, r5, r8, r9, ip, sp, lr}^
     354:	2f6c6f6f 	svccs	0x006c6f6f
     358:	746e6957 	strbtvc	r6, [lr], #-2391	; 0x957
     35c:	39317265 	ldmdbcc	r1!, {r0, r2, r5, r6, r9, ip, sp, lr}
     360:	432f3032 	teqmi	pc, #50	; 0x32
     364:	30343153 	eorscc	r3, r4, r3, asr r1
     368:	73632f45 	cmnvc	r3, #276	; 0x114
     36c:	65303431 	ldrvs	r3, [r0, #-1073]!	; 0x431
     370:	7730322d 	ldrvc	r3, [r0, -sp, lsr #4]!
     374:	6c2f6e69 	stcvs	14, cr6, [pc], #-420	; 1d8 <_start-0x7e28>
     378:	69706269 	ldmdbvs	r0!, {r0, r3, r5, r6, r9, sp, lr}^
     37c:	61760000 	cmnvs	r6, r0
     380:	6972702d 	ldmdbvs	r2!, {r0, r2, r3, r5, ip, sp, lr}^
     384:	2e6b746e 	cdpcs	4, 6, cr7, cr11, cr14, {3}
     388:	00010063 	andeq	r0, r1, r3, rrx
     38c:	64747300 	ldrbtvs	r7, [r4], #-768	; 0x300
     390:	2e677261 	cdpcs	2, 6, cr7, cr7, cr1, {3}
     394:	00020068 	andeq	r0, r2, r8, rrx
     398:	69707200 	ldmdbvs	r0!, {r9, ip, sp, lr}^
     39c:	0300682e 	movweq	r6, #2094	; 0x82e
     3a0:	623c0000 	eorsvs	r0, ip, #0
     3a4:	746c6975 	strbtvc	r6, [ip], #-2421	; 0x975
     3a8:	3e6e692d 	cdpcc	9, 6, cr6, cr14, cr13, {1}
     3ac:	00000000 	andeq	r0, r0, r0
     3b0:	02050000 	andeq	r0, r5, #0
     3b4:	00008190 	muleq	r0, r0, r1
     3b8:	01012603 	tsteq	r1, r3, lsl #12
     3bc:	2d3113a5 	ldccs	3, cr1, [r1, #-660]!	; 0xfffffd6c
     3c0:	02040200 	andeq	r0, r4, #0, 4
     3c4:	0402002f 	streq	r0, [r2], #-47	; 0x2f
     3c8:	02002d02 	andeq	r2, r0, #2, 26	; 0x80
     3cc:	002f0204 	eoreq	r0, pc, r4, lsl #4
     3d0:	2d010402 	cfstrscs	mvf0, [r1, #-8]
     3d4:	14304c4c 	ldrtne	r4, [r0], #-3148	; 0xc4c
     3d8:	004f2f4b 	subeq	r2, pc, fp, asr #30
     3dc:	67020402 	strvs	r0, [r2, -r2, lsl #8]
     3e0:	01040200 	mrseq	r0, R12_usr
     3e4:	304d4c65 	subcc	r4, sp, r5, ror #24
     3e8:	30312fa0 	eorscc	r2, r1, r0, lsr #31
     3ec:	84162602 	ldrhi	r2, [r6], #-1538	; 0x602
     3f0:	02002c2d 	andeq	r2, r0, #11520	; 0x2d00
     3f4:	00300104 	eorseq	r0, r0, r4, lsl #2
     3f8:	33010402 	movwcc	r0, #5122	; 0x1402
     3fc:	02006606 	andeq	r6, r0, #6291456	; 0x600000
     400:	002e0104 	eoreq	r0, lr, r4, lsl #2
     404:	06010402 	streq	r0, [r1], -r2, lsl #8
     408:	2f672108 	svccs	0x00672108
     40c:	03827303 	orreq	r7, r2, #201326592	; 0xc000000
     410:	02002e13 	andeq	r2, r0, #304	; 0x130
     414:	2e060104 	adfcss	f0, f6, f4
     418:	01040200 	mrseq	r0, R12_usr
     41c:	4b6a9f06 	blmi	1aa803c <__bss_end__+0x1a9e1dc>
     420:	032e6703 	teqeq	lr, #786432	; 0xc0000
     424:	02002e21 	andeq	r2, r0, #528	; 0x210
     428:	2e060104 	adfcss	f0, f6, f4
     42c:	01040200 	mrseq	r0, R12_usr
     430:	02009f06 	andeq	r9, r0, #6, 30
     434:	086a0104 	stmdaeq	sl!, {r2, r8}^
     438:	a603f323 	strge	pc, [r3], -r3, lsr #6
     43c:	4b3c087f 	blmi	f02640 <__bss_end__+0xef87e0>
     440:	01040200 	mrseq	r0, R12_usr
     444:	08064a06 	stmdaeq	r6, {r1, r2, r9, fp, lr}
     448:	4b2f4b21 	blmi	bd30d4 <__bss_end__+0xbc9274>
     44c:	f200d903 	vmla.i8	d13, d0, d3
     450:	03484c83 	movteq	r4, #35971	; 0x8c83
     454:	75032e0e 	strvc	r2, [r3, #-3598]	; 0xe0e
     458:	842f2f2e 	strthi	r2, [pc], #-3886	; 460 <_start-0x7ba0>
     45c:	4d2d2f4b 	stcmi	15, cr2, [sp, #-300]!	; 0xfffffed4
     460:	832f3031 	teqhi	pc, #49	; 0x31
     464:	01040200 	mrseq	r0, R12_usr
     468:	0200a22c 	andeq	sl, r0, #44, 4	; 0xc0000002
     46c:	4a060104 	bmi	180884 <__bss_end__+0x176a24>
     470:	02220806 	eoreq	r0, r2, #393216	; 0x60000
     474:	0e031636 	mcreq	6, 0, r1, cr3, cr6, {1}
     478:	302108d6 	ldrdcc	r0, [r1], -r6	; <UNPREDICTABLE>
     47c:	30f331f3 	ldrshtcc	r3, [r3], #19
     480:	304b30f3 	strdcc	r3, [fp], #-3
     484:	230830f3 	movwcs	r3, #33011	; 0x80f3
     488:	02002f31 	andeq	r2, r0, #49, 30	; 0xc4
     48c:	00650104 	rsbeq	r0, r5, r4, lsl #2
     490:	06020402 	streq	r0, [r2], -r2, lsl #8
     494:	0402004a 	streq	r0, [r2], #-74	; 0x4a
     498:	42030601 	andmi	r0, r3, #1048576	; 0x100000
     49c:	04020066 	streq	r0, [r2], #-102	; 0x66
     4a0:	06660602 	strbteq	r0, [r6], -r2, lsl #12
     4a4:	4a00c203 	bmi	30cb8 <__bss_end__+0x26e58>
     4a8:	00120268 	andseq	r0, r2, r8, ror #4
     4ac:	00930101 	addseq	r0, r3, r1, lsl #2
     4b0:	00020000 	andeq	r0, r2, r0
     4b4:	0000007d 	andeq	r0, r0, sp, ror r0
     4b8:	0efb0102 	cdpeq	1, 15, cr0, cr11, cr2, {0}
     4bc:	0101000d 	tsteq	r1, sp
     4c0:	00000101 	andeq	r0, r0, r1, lsl #2
     4c4:	00000100 	andeq	r0, r0, r0, lsl #2
     4c8:	31736301 	cmncc	r3, r1, lsl #6
     4cc:	2d653034 	stclcs	0, cr3, [r5, #-208]!	; 0xffffff30
     4d0:	00637273 	rsbeq	r7, r3, r3, ror r2
     4d4:	6573552f 	ldrbvs	r5, [r3, #-1327]!	; 0x52f
     4d8:	622f7372 	eorvs	r7, pc, #-939524095	; 0xc8000001
     4dc:	6e616972 	mcrvs	9, 3, r6, cr1, cr2, {3}
     4e0:	2f6e756a 	svccs	0x006e756a
     4e4:	6b736544 	blvs	1cd99fc <__bss_end__+0x1ccfb9c>
     4e8:	2f706f74 	svccs	0x00706f74
     4ec:	6f686373 	svcvs	0x00686373
     4f0:	572f6c6f 	strpl	r6, [pc, -pc, ror #24]!
     4f4:	65746e69 	ldrbvs	r6, [r4, #-3689]!	; 0xe69
     4f8:	32393172 	eorscc	r3, r9, #-2147483620	; 0x8000001c
     4fc:	53432f30 	movtpl	r2, #16176	; 0x3f30
     500:	45303431 	ldrmi	r3, [r0, #-1073]!	; 0x431
     504:	3173632f 	cmncc	r3, pc, lsr #6
     508:	2d653034 	stclcs	0, cr3, [r5, #-208]!	; 0xffffff30
     50c:	69773032 	ldmdbvs	r7!, {r1, r4, r5, ip, sp}^
     510:	696c2f6e 	stmdbvs	ip!, {r1, r2, r3, r5, r6, r8, r9, sl, fp, sp}^
     514:	00697062 	rsbeq	r7, r9, r2, rrx
     518:	656c6300 	strbvs	r6, [ip, #-768]!	; 0x300
     51c:	722d6e61 	eorvc	r6, sp, #1552	; 0x610
     520:	6f6f6265 	svcvs	0x006f6265
     524:	00632e74 	rsbeq	r2, r3, r4, ror lr
     528:	72000001 	andvc	r0, r0, #1
     52c:	682e6970 	stmdavs	lr!, {r4, r5, r6, r8, fp, sp, lr}
     530:	00000200 	andeq	r0, r0, r0, lsl #4
     534:	02050000 	andeq	r0, r5, #0
     538:	000086b4 			; <UNDEFINED> instruction: 0x000086b4
     53c:	4b832f15 	blmi	fe0cc198 <__bss_end__+0xfe0c2338>
     540:	01000602 	tsteq	r0, r2, lsl #12
     544:	00012101 	andeq	r2, r1, r1, lsl #2
     548:	f8000200 			; <UNDEFINED> instruction: 0xf8000200
     54c:	02000000 	andeq	r0, r0, #0
     550:	0d0efb01 	vstreq	d15, [lr, #-4]
     554:	01010100 	mrseq	r0, (UNDEF: 17)
     558:	00000001 	andeq	r0, r0, r1
     55c:	01000001 	tsteq	r0, r1
     560:	34317363 	ldrtcc	r7, [r1], #-867	; 0x363
     564:	732d6530 	teqvc	sp, #48, 10	; 0xc000000
     568:	2f006372 	svccs	0x00006372
     56c:	2f727375 	svccs	0x00727375
     570:	61636f6c 	cmnvs	r3, ip, ror #30
     574:	65432f6c 	strbvs	r2, [r3, #-3948]	; 0xf6c
     578:	72616c6c 	rsbvc	r6, r1, #108, 24	; 0x6c00
     57c:	6d72612f 	ldfvse	f6, [r2, #-188]!	; 0xffffff44
     580:	6e6f6e2d 	cdpvs	14, 6, cr6, cr15, cr13, {1}
     584:	61652d65 	cmnvs	r5, r5, ror #26
     588:	342f6962 	strtcc	r6, [pc], #-2402	; 590 <_start-0x7a70>
     58c:	332e382e 	teqcc	lr, #3014656	; 0x2e0000
     590:	3173632d 	cmncc	r3, sp, lsr #6
     594:	2f653037 	svccs	0x00653037
     598:	2f62696c 	svccs	0x0062696c
     59c:	2f636367 	svccs	0x00636367
     5a0:	2d6d7261 	sfmcs	f7, 2, [sp, #-388]!	; 0xfffffe7c
     5a4:	656e6f6e 	strbvs	r6, [lr, #-3950]!	; 0xf6e
     5a8:	6261652d 	rsbvs	r6, r1, #188743680	; 0xb400000
     5ac:	2e342f69 	cdpcs	15, 3, cr2, cr4, cr9, {3}
     5b0:	2f332e38 	svccs	0x00332e38
     5b4:	6c636e69 	stclvs	14, cr6, [r3], #-420	; 0xfffffe5c
     5b8:	00656475 	rsbeq	r6, r5, r5, ror r4
     5bc:	6573552f 	ldrbvs	r5, [r3, #-1327]!	; 0x52f
     5c0:	622f7372 	eorvs	r7, pc, #-939524095	; 0xc8000001
     5c4:	6e616972 	mcrvs	9, 3, r6, cr1, cr2, {3}
     5c8:	2f6e756a 	svccs	0x006e756a
     5cc:	6b736544 	blvs	1cd9ae4 <__bss_end__+0x1ccfc84>
     5d0:	2f706f74 	svccs	0x00706f74
     5d4:	6f686373 	svcvs	0x00686373
     5d8:	572f6c6f 	strpl	r6, [pc, -pc, ror #24]!
     5dc:	65746e69 	ldrbvs	r6, [r4, #-3689]!	; 0xe69
     5e0:	32393172 	eorscc	r3, r9, #-2147483620	; 0x8000001c
     5e4:	53432f30 	movtpl	r2, #16176	; 0x3f30
     5e8:	45303431 	ldrmi	r3, [r0, #-1073]!	; 0x431
     5ec:	3173632f 	cmncc	r3, pc, lsr #6
     5f0:	2d653034 	stclcs	0, cr3, [r5, #-208]!	; 0xffffff30
     5f4:	69773032 	ldmdbvs	r7!, {r1, r4, r5, ip, sp}^
     5f8:	696c2f6e 	stmdbvs	ip!, {r1, r2, r3, r5, r6, r8, r9, sl, fp, sp}^
     5fc:	00697062 	rsbeq	r7, r9, r2, rrx
     600:	74736300 	ldrbtvc	r6, [r3], #-768	; 0x300
     604:	2e747261 	cdpcs	2, 7, cr7, cr4, cr1, {3}
     608:	00010063 	andeq	r0, r1, r3, rrx
     60c:	64747300 	ldrbtvs	r7, [r4], #-768	; 0x300
     610:	2d746e69 	ldclcs	14, cr6, [r4, #-420]!	; 0xfffffe5c
     614:	2e636367 	cdpcs	3, 6, cr6, cr3, cr7, {3}
     618:	00020068 	andeq	r0, r2, r8, rrx
     61c:	2d777300 	ldclcs	3, cr7, [r7, #-0]
     620:	74726175 	ldrbtvc	r6, [r2], #-373	; 0x175
     624:	0100682e 	tsteq	r0, lr, lsr #16
     628:	6f630000 	svcvs	0x00630000
     62c:	6f72746e 	svcvs	0x0072746e
     630:	6c622d6c 	stclvs	13, cr2, [r2], #-432	; 0xfffffe50
     634:	2e6b636f 	cdpcs	3, 6, cr6, cr11, cr15, {3}
     638:	00010068 	andeq	r0, r1, r8, rrx
     63c:	69707200 	ldmdbvs	r0!, {r9, ip, sp, lr}^
     640:	0300682e 	movweq	r6, #2094	; 0x82e
     644:	00000000 	andeq	r0, r0, r0
     648:	86dc0205 	ldrbhi	r0, [ip], r5, lsl #4
     64c:	4b170000 	blmi	5c0654 <__bss_end__+0x5b67f4>
     650:	31326868 	teqcc	r2, r8, ror #16
     654:	002f2d2f 	eoreq	r2, pc, pc, lsr #26
     658:	49010402 	stmdbmi	r1, {r1, sl}
     65c:	674b2f4f 	strbvs	r2, [fp, -pc, asr #30]
     660:	4e678367 	cdpmi	3, 6, cr8, cr7, cr7, {3}
     664:	0010022f 	andseq	r0, r0, pc, lsr #4
     668:	00990101 	addseq	r0, r9, r1, lsl #2
     66c:	00020000 	andeq	r0, r2, r0
     670:	00000077 	andeq	r0, r0, r7, ror r0
     674:	0efb0102 	cdpeq	1, 15, cr0, cr11, cr2, {0}
     678:	0101000d 	tsteq	r1, sp
     67c:	00000101 	andeq	r0, r0, r1, lsl #2
     680:	00000100 	andeq	r0, r0, r0, lsl #2
     684:	31736301 	cmncc	r3, r1, lsl #6
     688:	2d653034 	stclcs	0, cr3, [r5, #-208]!	; 0xffffff30
     68c:	00637273 	rsbeq	r7, r3, r3, ror r2
     690:	6573552f 	ldrbvs	r5, [r3, #-1327]!	; 0x52f
     694:	622f7372 	eorvs	r7, pc, #-939524095	; 0xc8000001
     698:	6e616972 	mcrvs	9, 3, r6, cr1, cr2, {3}
     69c:	2f6e756a 	svccs	0x006e756a
     6a0:	6b736544 	blvs	1cd9bb8 <__bss_end__+0x1ccfd58>
     6a4:	2f706f74 	svccs	0x00706f74
     6a8:	6f686373 	svcvs	0x00686373
     6ac:	572f6c6f 	strpl	r6, [pc, -pc, ror #24]!
     6b0:	65746e69 	ldrbvs	r6, [r4, #-3689]!	; 0xe69
     6b4:	32393172 	eorscc	r3, r9, #-2147483620	; 0x8000001c
     6b8:	53432f30 	movtpl	r2, #16176	; 0x3f30
     6bc:	45303431 	ldrmi	r3, [r0, #-1073]!	; 0x431
     6c0:	3173632f 	cmncc	r3, pc, lsr #6
     6c4:	2d653034 	stclcs	0, cr3, [r5, #-208]!	; 0xffffff30
     6c8:	69773032 	ldmdbvs	r7!, {r1, r4, r5, ip, sp}^
     6cc:	696c2f6e 	stmdbvs	ip!, {r1, r2, r3, r5, r6, r8, r9, sl, fp, sp}^
     6d0:	00697062 	rsbeq	r7, r9, r2, rrx
     6d4:	62657200 	rsbvs	r7, r5, #0, 4
     6d8:	2e746f6f 	cdpcs	15, 7, cr6, cr4, cr15, {3}
     6dc:	00010063 	andeq	r0, r1, r3, rrx
     6e0:	69707200 	ldmdbvs	r0!, {r9, ip, sp, lr}^
     6e4:	0200682e 	andeq	r6, r0, #3014656	; 0x2e0000
     6e8:	00000000 	andeq	r0, r0, r0
     6ec:	878c0205 	strhi	r0, [ip, r5, lsl #4]
     6f0:	0d030000 	stceq	0, cr0, [r3, #-0]
     6f4:	2f311401 	svccs	0x00311401
     6f8:	4b2f1585 	blmi	bc5d14 <__bss_end__+0xbbbeb4>
     6fc:	35672f4d 	strbcc	r2, [r7, #-3917]!	; 0xf4d
     700:	10026752 	andne	r6, r2, r2, asr r7
     704:	a3010100 	movwge	r0, #4352	; 0x1100
     708:	02000000 	andeq	r0, r0, #0
     70c:	00007600 	andeq	r7, r0, r0, lsl #12
     710:	fb010200 	blx	40f1a <__bss_end__+0x370ba>
     714:	01000d0e 	tsteq	r0, lr, lsl #26
     718:	00010101 	andeq	r0, r1, r1, lsl #2
     71c:	00010000 	andeq	r0, r1, r0
     720:	73630100 	cmnvc	r3, #0, 2
     724:	65303431 	ldrvs	r3, [r0, #-1073]!	; 0x431
     728:	6372732d 	cmnvs	r2, #-1275068416	; 0xb4000000
     72c:	73552f00 	cmpvc	r5, #0, 30
     730:	2f737265 	svccs	0x00737265
     734:	61697262 	cmnvs	r9, r2, ror #4
     738:	6e756a6e 	vsubvs.f32	s13, s10, s29
     73c:	7365442f 	cmnvc	r5, #788529152	; 0x2f000000
     740:	706f746b 	rsbvc	r7, pc, fp, ror #8
     744:	6863732f 	stmdavs	r3!, {r0, r1, r2, r3, r5, r8, r9, ip, sp, lr}^
     748:	2f6c6f6f 	svccs	0x006c6f6f
     74c:	746e6957 	strbtvc	r6, [lr], #-2391	; 0x957
     750:	39317265 	ldmdbcc	r1!, {r0, r2, r5, r6, r9, ip, sp, lr}
     754:	432f3032 	teqmi	pc, #50	; 0x32
     758:	30343153 	eorscc	r3, r4, r3, asr r1
     75c:	73632f45 	cmnvc	r3, #276	; 0x114
     760:	65303431 	ldrvs	r3, [r0, #-1073]!	; 0x431
     764:	7730322d 	ldrvc	r3, [r0, -sp, lsr #4]!
     768:	6c2f6e69 	stcvs	14, cr6, [pc], #-420	; 5cc <_start-0x7a34>
     76c:	69706269 	ldmdbvs	r0!, {r0, r3, r5, r6, r9, sp, lr}^
     770:	69740000 	ldmdbvs	r4!, {}^	; <UNPREDICTABLE>
     774:	2e72656d 	cdpcs	5, 7, cr6, cr2, cr13, {3}
     778:	00010063 	andeq	r0, r1, r3, rrx
     77c:	69707200 	ldmdbvs	r0!, {r9, ip, sp, lr}^
     780:	0200682e 	andeq	r6, r0, #3014656	; 0x2e0000
     784:	00000000 	andeq	r0, r0, r0
     788:	88000205 	stmdahi	r0, {r0, r2, r9}
     78c:	13160000 	tstne	r6, #0
     790:	02002d2f 	andeq	r2, r0, #3008	; 0xbc0
     794:	2e060104 	adfcss	f0, f6, f4
     798:	2f316806 	svccs	0x00316806
     79c:	31324d4b 	teqcc	r2, fp, asr #26
     7a0:	2f4c4b30 	svccs	0x004c4b30
     7a4:	842f2f6a 	strthi	r2, [pc], #-3946	; 7ac <_start-0x7854>
     7a8:	0008022f 	andeq	r0, r8, pc, lsr #4
     7ac:	03490101 	movteq	r0, #37121	; 0x9101
     7b0:	00020000 	andeq	r0, r2, r0
     7b4:	000001bd 			; <UNDEFINED> instruction: 0x000001bd
     7b8:	0efb0102 	cdpeq	1, 15, cr0, cr11, cr2, {0}
     7bc:	0101000d 	tsteq	r1, sp
     7c0:	00000101 	andeq	r0, r0, r1, lsl #2
     7c4:	00000100 	andeq	r0, r0, r0, lsl #2
     7c8:	2d796d01 	ldclcs	13, cr6, [r9, #-4]!
     7cc:	00637273 	rsbeq	r7, r3, r3, ror r2
     7d0:	6573552f 	ldrbvs	r5, [r3, #-1327]!	; 0x52f
     7d4:	622f7372 	eorvs	r7, pc, #-939524095	; 0xc8000001
     7d8:	6e616972 	mcrvs	9, 3, r6, cr1, cr2, {3}
     7dc:	2f6e756a 	svccs	0x006e756a
     7e0:	6b736544 	blvs	1cd9cf8 <__bss_end__+0x1ccfe98>
     7e4:	2f706f74 	svccs	0x00706f74
     7e8:	6f686373 	svcvs	0x00686373
     7ec:	572f6c6f 	strpl	r6, [pc, -pc, ror #24]!
     7f0:	65746e69 	ldrbvs	r6, [r4, #-3689]!	; 0xe69
     7f4:	32393172 	eorscc	r3, r9, #-2147483620	; 0x8000001c
     7f8:	53432f30 	movtpl	r2, #16176	; 0x3f30
     7fc:	45303431 	ldrmi	r3, [r0, #-1073]!	; 0x431
     800:	3173632f 	cmncc	r3, pc, lsr #6
     804:	2d653034 	stclcs	0, cr3, [r5, #-208]!	; 0xffffff30
     808:	69773032 	ldmdbvs	r7!, {r1, r4, r5, ip, sp}^
     80c:	696c2f6e 	stmdbvs	ip!, {r1, r2, r3, r5, r6, r8, r9, sl, fp, sp}^
     810:	2f697062 	svccs	0x00697062
     814:	34317363 	ldrtcc	r7, [r1], #-867	; 0x363
     818:	732d6530 	teqvc	sp, #48, 10	; 0xc000000
     81c:	2f006372 	svccs	0x00006372
     820:	2f727375 	svccs	0x00727375
     824:	61636f6c 	cmnvs	r3, ip, ror #30
     828:	65432f6c 	strbvs	r2, [r3, #-3948]	; 0xf6c
     82c:	72616c6c 	rsbvc	r6, r1, #108, 24	; 0x6c00
     830:	6d72612f 	ldfvse	f6, [r2, #-188]!	; 0xffffff44
     834:	6e6f6e2d 	cdpvs	14, 6, cr6, cr15, cr13, {1}
     838:	61652d65 	cmnvs	r5, r5, ror #26
     83c:	342f6962 	strtcc	r6, [pc], #-2402	; 844 <_start-0x77bc>
     840:	332e382e 	teqcc	lr, #3014656	; 0x2e0000
     844:	3173632d 	cmncc	r3, sp, lsr #6
     848:	2f653037 	svccs	0x00653037
     84c:	2f62696c 	svccs	0x0062696c
     850:	2f636367 	svccs	0x00636367
     854:	2d6d7261 	sfmcs	f7, 2, [sp, #-388]!	; 0xfffffe7c
     858:	656e6f6e 	strbvs	r6, [lr, #-3950]!	; 0xf6e
     85c:	6261652d 	rsbvs	r6, r1, #188743680	; 0xb400000
     860:	2e342f69 	cdpcs	15, 3, cr2, cr4, cr9, {3}
     864:	2f332e38 	svccs	0x00332e38
     868:	6c636e69 	stclvs	14, cr6, [r3], #-420	; 0xfffffe5c
     86c:	00656475 	rsbeq	r6, r5, r5, ror r4
     870:	6573552f 	ldrbvs	r5, [r3, #-1327]!	; 0x52f
     874:	622f7372 	eorvs	r7, pc, #-939524095	; 0xc8000001
     878:	6e616972 	mcrvs	9, 3, r6, cr1, cr2, {3}
     87c:	2f6e756a 	svccs	0x006e756a
     880:	6b736544 	blvs	1cd9d98 <__bss_end__+0x1ccff38>
     884:	2f706f74 	svccs	0x00706f74
     888:	6f686373 	svcvs	0x00686373
     88c:	572f6c6f 	strpl	r6, [pc, -pc, ror #24]!
     890:	65746e69 	ldrbvs	r6, [r4, #-3689]!	; 0xe69
     894:	32393172 	eorscc	r3, r9, #-2147483620	; 0x8000001c
     898:	53432f30 	movtpl	r2, #16176	; 0x3f30
     89c:	45303431 	ldrmi	r3, [r0, #-1073]!	; 0x431
     8a0:	3173632f 	cmncc	r3, pc, lsr #6
     8a4:	2d653034 	stclcs	0, cr3, [r5, #-208]!	; 0xffffff30
     8a8:	69773032 	ldmdbvs	r7!, {r1, r4, r5, ip, sp}^
     8ac:	696c2f6e 	stmdbvs	ip!, {r1, r2, r3, r5, r6, r8, r9, sl, fp, sp}^
     8b0:	00697062 	rsbeq	r7, r9, r2, rrx
     8b4:	6573552f 	ldrbvs	r5, [r3, #-1327]!	; 0x52f
     8b8:	622f7372 	eorvs	r7, pc, #-939524095	; 0xc8000001
     8bc:	6e616972 	mcrvs	9, 3, r6, cr1, cr2, {3}
     8c0:	2f6e756a 	svccs	0x006e756a
     8c4:	6b736544 	blvs	1cd9ddc <__bss_end__+0x1ccff7c>
     8c8:	2f706f74 	svccs	0x00706f74
     8cc:	6f686373 	svcvs	0x00686373
     8d0:	572f6c6f 	strpl	r6, [pc, -pc, ror #24]!
     8d4:	65746e69 	ldrbvs	r6, [r4, #-3689]!	; 0xe69
     8d8:	32393172 	eorscc	r3, r9, #-2147483620	; 0x8000001c
     8dc:	53432f30 	movtpl	r2, #16176	; 0x3f30
     8e0:	45303431 	ldrmi	r3, [r0, #-1073]!	; 0x431
     8e4:	3173632f 	cmncc	r3, pc, lsr #6
     8e8:	2d653034 	stclcs	0, cr3, [r5, #-208]!	; 0xffffff30
     8ec:	69773032 	ldmdbvs	r7!, {r1, r4, r5, ip, sp}^
     8f0:	696c2f6e 	stmdbvs	ip!, {r1, r2, r3, r5, r6, r8, r9, sl, fp, sp}^
     8f4:	2f697062 	svccs	0x00697062
     8f8:	6362696c 	cmnvs	r2, #108, 18	; 0x1b0000
     8fc:	77730000 	ldrbvc	r0, [r3, -r0]!
     900:	7261752d 	rsbvc	r7, r1, #188743680	; 0xb400000
     904:	00632e74 	rsbeq	r2, r3, r4, ror lr
     908:	63000001 	movwvs	r0, #1
     90c:	656c6379 	strbvs	r6, [ip, #-889]!	; 0x379
     910:	6974752d 	ldmdbvs	r4!, {r0, r2, r3, r5, r8, sl, ip, sp, lr}^
     914:	00682e6c 	rsbeq	r2, r8, ip, ror #28
     918:	73000002 	movwvc	r0, #2
     91c:	6e696474 	mcrvs	4, 3, r6, cr9, cr4, {3}
     920:	63672d74 	cmnvs	r7, #116, 26	; 0x1d00
     924:	00682e63 	rsbeq	r2, r8, r3, ror #28
     928:	73000003 	movwvc	r0, #3
     92c:	61752d77 	cmnvs	r5, r7, ror sp
     930:	682e7472 	stmdavs	lr!, {r1, r4, r5, r6, sl, ip, sp, lr}
     934:	00000200 	andeq	r0, r0, r0, lsl #4
     938:	61647473 	smcvs	18243	; 0x4743
     93c:	682e6772 	stmdavs	lr!, {r1, r4, r5, r6, r8, r9, sl, sp, lr}
     940:	00000300 	andeq	r0, r0, r0, lsl #6
     944:	6f697067 	svcvs	0x00697067
     948:	0200682e 	andeq	r6, r0, #3014656	; 0x2e0000
     94c:	70720000 	rsbsvc	r0, r2, r0
     950:	00682e69 	rsbeq	r2, r8, r9, ror #28
     954:	76000004 	strvc	r0, [r0], -r4
     958:	72702d61 	rsbsvc	r2, r0, #6208	; 0x1840
     95c:	6b746e69 	blvs	1d1c308 <__bss_end__+0x1d124a8>
     960:	0500682e 	streq	r6, [r0, #-2094]	; 0x82e
     964:	623c0000 	eorsvs	r0, ip, #0
     968:	746c6975 	strbtvc	r6, [ip], #-2421	; 0x975
     96c:	3e6e692d 	cdpcc	9, 6, cr6, cr14, cr13, {1}
     970:	00000000 	andeq	r0, r0, r0
     974:	02050000 	andeq	r0, r5, #0
     978:	00008888 	andeq	r8, r0, r8, lsl #17
     97c:	302f4c1a 	eorcc	r4, pc, sl, lsl ip	; <UNPREDICTABLE>
     980:	0b030204 	bleq	c1198 <__bss_end__+0xb7338>
     984:	6673032e 	ldrbtvs	r0, [r3], -lr, lsr #6
     988:	04880104 	streq	r0, [r8], #260	; 0x104
     98c:	73033502 	movwvc	r3, #13570	; 0x3502
     990:	8a010466 	bhi	41b30 <__bss_end__+0x37cd0>
     994:	03330204 	teqeq	r3, #4, 4	; 0x40000000
     998:	01046673 	tsteq	r4, r3, ror r6
     99c:	04820a03 	streq	r0, [r2], #2563	; 0xa03
     9a0:	73033102 	movwvc	r3, #12546	; 0x3102
     9a4:	03010466 	movweq	r0, #5222	; 0x1466
     9a8:	0204820c 	andeq	r8, r4, #12, 4	; 0xc0000000
     9ac:	6673032f 	ldrbtvs	r0, [r3], -pc, lsr #6
     9b0:	0e030104 	adfeqs	f0, f3, f4
     9b4:	2d020482 	cfstrscs	mvf0, [r2, #-520]	; 0xfffffdf8
     9b8:	04667303 	strbteq	r7, [r6], #-771	; 0x303
     9bc:	82100301 	andshi	r0, r0, #67108864	; 0x4000000
     9c0:	032b0204 	teqeq	fp, #4, 4	; 0x40000000
     9c4:	01046673 	tsteq	r4, r3, ror r6
     9c8:	04821203 	streq	r1, [r2], #515	; 0x203
     9cc:	73032902 	movwvc	r2, #14594	; 0x3902
     9d0:	03010466 	movweq	r0, #5222	; 0x1466
     9d4:	02048214 	andeq	r8, r4, #20, 4	; 0x40000001
     9d8:	032e7903 	teqeq	lr, #49152	; 0xc000
     9dc:	01046673 	tsteq	r4, r3, ror r6
     9e0:	04821603 	streq	r1, [r2], #1539	; 0x603
     9e4:	2e770302 	cdpcs	3, 7, cr0, cr7, cr2, {0}
     9e8:	04667303 	strbteq	r7, [r6], #-771	; 0x303
     9ec:	82180301 	andshi	r0, r8, #67108864	; 0x4000000
     9f0:	4b2e1003 	blmi	b84a04 <__bss_end__+0xb7aba4>
     9f4:	2e70034d 	cdpcs	3, 7, cr0, cr0, cr13, {2}
     9f8:	4883844c 	stmmi	r3, {r2, r3, r6, sl, pc}
     9fc:	4e2e0d03 	cdpmi	13, 2, cr0, cr14, cr3, {0}
     a00:	02043331 	andeq	r3, r4, #-1006632960	; 0xc4000000
     a04:	042e4803 	strteq	r4, [lr], #-2051	; 0x803
     a08:	823a0301 	eorshi	r0, sl, #67108864	; 0x4000000
     a0c:	0302042f 	movweq	r0, #9263	; 0x242f
     a10:	01046645 	tsteq	r4, r5, asr #12
     a14:	2f823d03 	svccs	0x00823d03
     a18:	42030204 	andmi	r0, r3, #4, 4	; 0x40000000
     a1c:	03010482 	movweq	r0, #5250	; 0x1482
     a20:	2f8200c0 	svccs	0x008200c0
     a24:	bf030204 	svclt	0x00030204
     a28:	0104827f 	tsteq	r4, pc, ror r2
     a2c:	8200c303 	andhi	ip, r0, #201326592	; 0xc000000
     a30:	0302042f 	movweq	r0, #9263	; 0x242f
     a34:	04827fbc 	streq	r7, [r2], #4028	; 0xfbc
     a38:	00c60301 	sbceq	r0, r6, r1, lsl #6
     a3c:	02042f82 	andeq	r2, r4, #520	; 0x208
     a40:	827fb903 	rsbshi	fp, pc, #49152	; 0xc000
     a44:	c9030104 	stmdbgt	r3, {r2, r8}
     a48:	042f8200 	strteq	r8, [pc], #-512	; a50 <_start-0x75b0>
     a4c:	7fb60302 	svcvc	0x00b60302
     a50:	03010482 	movweq	r0, #5250	; 0x1482
     a54:	2f8200cc 	svccs	0x008200cc
     a58:	b3030204 	movwlt	r0, #12804	; 0x3204
     a5c:	0104827f 	tsteq	r4, pc, ror r2
     a60:	8200d003 	andhi	sp, r0, #3
     a64:	4c824c03 	stcmi	12, cr4, [r2], {3}
     a68:	03488384 	movteq	r8, #33668	; 0x8384
     a6c:	034e2e36 	movteq	r2, #60982	; 0xee36
     a70:	29034a54 	stmdbcs	r3, {r2, r4, r6, r9, fp, lr}
     a74:	bb34324a 	bllt	d0d3a4 <__bss_end__+0xd03544>
     a78:	01040200 	mrseq	r0, R12_usr
     a7c:	08064a06 	stmdaeq	r6, {r1, r2, r9, fp, lr}
     a80:	bb4b4e21 	bllt	12d430c <__bss_end__+0x12ca4ac>
     a84:	0402002c 	streq	r0, [r2], #-44	; 0x2c
     a88:	062e0601 	strteq	r0, [lr], -r1, lsl #12
     a8c:	a0dc4c6d 	sbcsge	r4, ip, sp, ror #24
     a90:	01040200 	mrseq	r0, R12_usr
     a94:	08064a06 	stmdaeq	r6, {r1, r2, r9, fp, lr}
     a98:	02004d21 	andeq	r4, r0, #2112	; 0x840
     a9c:	004b0204 	subeq	r0, fp, r4, lsl #4
     aa0:	81020402 	tsthi	r2, r2, lsl #8
     aa4:	01040200 	mrseq	r0, R12_usr
     aa8:	4d062e06 	stcmi	14, cr2, [r6, #-24]	; 0xffffffe8
     aac:	4bd8dd4c 	blmi	ff637fe4 <__bss_end__+0xff62e184>
     ab0:	2f6a4b4b 	svccs	0x006a4b4b
     ab4:	01040200 	mrseq	r0, R12_usr
     ab8:	00828206 	addeq	r8, r2, r6, lsl #4
     abc:	9e040402 	cdpls	4, 0, cr0, cr4, cr2, {0}
     ac0:	01040200 	mrseq	r0, R12_usr
     ac4:	2308064a 	movwcs	r0, #34378	; 0x864a
     ac8:	4b2ff588 	blmi	bfe0f0 <__bss_end__+0xbf4290>
     acc:	6740084b 	strbvs	r0, [r0, -fp, asr #16]
     ad0:	02040200 	andeq	r0, r4, #0, 4
     ad4:	0402002f 	streq	r0, [r2], #-47	; 0x2f
     ad8:	02004902 	andeq	r4, r0, #32768	; 0x8000
     adc:	2e060104 	adfcss	f0, f6, f4
     ae0:	86346806 	ldrthi	r6, [r4], -r6, lsl #16
     ae4:	0200a04b 	andeq	sl, r0, #75	; 0x4b
     ae8:	66060104 	strvs	r0, [r6], -r4, lsl #2
     aec:	68210806 	stmdavs	r1!, {r1, r2, fp}
     af0:	674b3e08 	strbvs	r3, [fp, -r8, lsl #28]
     af4:	0a02d84b 	beq	b6c28 <__bss_end__+0xacdc8>
     af8:	78010100 	stmdavc	r1, {r8}
     afc:	02000001 	andeq	r0, r0, #1
     b00:	0000ca00 	andeq	ip, r0, r0, lsl #20
     b04:	fb010200 	blx	4130e <__bss_end__+0x374ae>
     b08:	01000d0e 	tsteq	r0, lr, lsl #26
     b0c:	00010101 	andeq	r0, r1, r1, lsl #2
     b10:	00010000 	andeq	r0, r1, r0
     b14:	796d0100 	stmdbvc	sp!, {r8}^
     b18:	6372732d 	cmnvs	r2, #-1275068416	; 0xb4000000
     b1c:	73552f00 	cmpvc	r5, #0, 30
     b20:	2f737265 	svccs	0x00737265
     b24:	61697262 	cmnvs	r9, r2, ror #4
     b28:	6e756a6e 	vsubvs.f32	s13, s10, s29
     b2c:	7365442f 	cmnvc	r5, #788529152	; 0x2f000000
     b30:	706f746b 	rsbvc	r7, pc, fp, ror #8
     b34:	6863732f 	stmdavs	r3!, {r0, r1, r2, r3, r5, r8, r9, ip, sp, lr}^
     b38:	2f6c6f6f 	svccs	0x006c6f6f
     b3c:	746e6957 	strbtvc	r6, [lr], #-2391	; 0x957
     b40:	39317265 	ldmdbcc	r1!, {r0, r2, r5, r6, r9, ip, sp, lr}
     b44:	432f3032 	teqmi	pc, #50	; 0x32
     b48:	30343153 	eorscc	r3, r4, r3, asr r1
     b4c:	73632f45 	cmnvc	r3, #276	; 0x114
     b50:	65303431 	ldrvs	r3, [r0, #-1073]!	; 0x431
     b54:	7730322d 	ldrvc	r3, [r0, -sp, lsr #4]!
     b58:	6c2f6e69 	stcvs	14, cr6, [pc], #-420	; 9bc <_start-0x7644>
     b5c:	69706269 	ldmdbvs	r0!, {r0, r3, r5, r6, r9, sp, lr}^
     b60:	3173632f 	cmncc	r3, pc, lsr #6
     b64:	2d653034 	stclcs	0, cr3, [r5, #-208]!	; 0xffffff30
     b68:	00637273 	rsbeq	r7, r3, r3, ror r2
     b6c:	6573552f 	ldrbvs	r5, [r3, #-1327]!	; 0x52f
     b70:	622f7372 	eorvs	r7, pc, #-939524095	; 0xc8000001
     b74:	6e616972 	mcrvs	9, 3, r6, cr1, cr2, {3}
     b78:	2f6e756a 	svccs	0x006e756a
     b7c:	6b736544 	blvs	1cda094 <__bss_end__+0x1cd0234>
     b80:	2f706f74 	svccs	0x00706f74
     b84:	6f686373 	svcvs	0x00686373
     b88:	572f6c6f 	strpl	r6, [pc, -pc, ror #24]!
     b8c:	65746e69 	ldrbvs	r6, [r4, #-3689]!	; 0xe69
     b90:	32393172 	eorscc	r3, r9, #-2147483620	; 0x8000001c
     b94:	53432f30 	movtpl	r2, #16176	; 0x3f30
     b98:	45303431 	ldrmi	r3, [r0, #-1073]!	; 0x431
     b9c:	3173632f 	cmncc	r3, pc, lsr #6
     ba0:	2d653034 	stclcs	0, cr3, [r5, #-208]!	; 0xffffff30
     ba4:	69773032 	ldmdbvs	r7!, {r1, r4, r5, ip, sp}^
     ba8:	696c2f6e 	stmdbvs	ip!, {r1, r2, r3, r5, r6, r8, r9, sl, fp, sp}^
     bac:	00697062 	rsbeq	r7, r9, r2, rrx
     bb0:	69706700 	ldmdbvs	r0!, {r8, r9, sl, sp, lr}^
     bb4:	00632e6f 	rsbeq	r2, r3, pc, ror #28
     bb8:	67000001 	strvs	r0, [r0, -r1]
     bbc:	2e6f6970 	mcrcs	9, 3, r6, cr15, cr0, {3}
     bc0:	00020068 	andeq	r0, r2, r8, rrx
     bc4:	69707200 	ldmdbvs	r0!, {r9, ip, sp, lr}^
     bc8:	0300682e 	movweq	r6, #2094	; 0x82e
     bcc:	00000000 	andeq	r0, r0, r0
     bd0:	8f3c0205 	svchi	0x003c0205
     bd4:	3e030000 	cdpcc	0, 0, cr0, cr3, cr0, {0}
     bd8:	69504e01 	ldmdbvs	r0, {r0, r9, sl, fp, lr}^
     bdc:	67672108 	strbvs	r2, [r7, -r8, lsl #2]!
     be0:	67676767 	strbvs	r6, [r7, -r7, ror #14]!
     be4:	22084b32 	andcs	r4, r8, #51200	; 0xc800
     be8:	135131dc 	cmpne	r1, #220, 2	; 0x37
     bec:	be30504e 	cdplt	0, 3, cr5, cr0, cr14, {2}
     bf0:	4d135031 	ldcmi	0, cr5, [r3, #-196]	; 0xffffff3c
     bf4:	4cc0304f 	stclmi	0, cr3, [r0], {79}	; 0x4f
     bf8:	21086950 	tstcs	r8, r0, asr r9
     bfc:	67676767 	strbvs	r6, [r7, -r7, ror #14]!
     c00:	4b326767 	blmi	c9a9a4 <__bss_end__+0xc90b44>
     c04:	4ca42108 	stfmis	f2, [r4], #32
     c08:	69842f50 	stmibvs	r4, {r4, r6, r8, r9, sl, fp, sp}
     c0c:	03827503 	orreq	r7, r2, #12582912	; 0xc00000
     c10:	304d2e0c 	subcc	r2, sp, ip, lsl #28
     c14:	4d4c4b4e 	vstrmi	d20, [ip, #-312]	; 0xfffffec8
     c18:	08696b6a 	stmdaeq	r9!, {r1, r3, r5, r6, r8, r9, fp, sp, lr}^
     c1c:	67676721 	strbvs	r6, [r7, -r1, lsr #14]!
     c20:	32676767 	rsbcc	r6, r7, #27000832	; 0x19c0000
     c24:	0322084b 	teqeq	r2, #4915200	; 0x4b0000
     c28:	9f31ba1a 	svcls	0x0031ba1a
     c2c:	4d522f4c 	ldclmi	15, cr2, [r2, #-304]	; 0xfffffed0
     c30:	674b2f4e 	strbvs	r2, [fp, -lr, asr #30]
     c34:	6767684b 	strbvs	r6, [r7, -fp, asr #16]!
     c38:	2f672f4c 	svccs	0x00672f4c
     c3c:	4e4c6e4b 	cdpmi	14, 4, cr6, cr12, cr11, {2}
     c40:	4b674b2f 	blmi	19d3904 <__bss_end__+0x19c9aa4>
     c44:	4c676768 	stclmi	7, cr6, [r7], #-416	; 0xfffffe60
     c48:	4b2f672f 	blmi	bda90c <__bss_end__+0xbd0aac>
     c4c:	2f4e4b6d 	svccs	0x004e4b6d
     c50:	0200674b 	andeq	r6, r0, #19660800	; 0x12c0000
     c54:	66060104 	strvs	r0, [r6], -r4, lsl #2
     c58:	2f9f6806 	svccs	0x009f6806
     c5c:	01040200 	mrseq	r0, R12_usr
     c60:	68064a06 	stmdavs	r6, {r1, r2, r9, fp, lr}
     c64:	4a73032f 	bmi	1cc1928 <__bss_end__+0x1cb7ac8>
     c68:	4d2e0e03 	stcmi	14, cr0, [lr, #-12]!
     c6c:	4b2f4e4c 	blmi	bd45a4 <__bss_end__+0xbca744>
     c70:	0602bcbc 			; <UNDEFINED> instruction: 0x0602bcbc
     c74:	8a010100 	bhi	4107c <__bss_end__+0x3721c>
     c78:	02000000 	andeq	r0, r0, #0
     c7c:	00007200 	andeq	r7, r0, r0, lsl #4
     c80:	fb010200 	blx	4148a <__bss_end__+0x3762a>
     c84:	01000d0e 	tsteq	r0, lr, lsl #26
     c88:	00010101 	andeq	r0, r1, r1, lsl #2
     c8c:	00010000 	andeq	r0, r1, r0
     c90:	696c0100 	stmdbvs	ip!, {r8}^
     c94:	2f006362 	svccs	0x00006362
     c98:	72657355 	rsbvc	r7, r5, #1409286145	; 0x54000001
     c9c:	72622f73 	rsbvc	r2, r2, #460	; 0x1cc
     ca0:	6a6e6169 	bvs	1b9924c <__bss_end__+0x1b8f3ec>
     ca4:	442f6e75 	strtmi	r6, [pc], #-3701	; cac <_start-0x7354>
     ca8:	746b7365 	strbtvc	r7, [fp], #-869	; 0x365
     cac:	732f706f 	teqvc	pc, #111	; 0x6f
     cb0:	6f6f6863 	svcvs	0x006f6863
     cb4:	69572f6c 	ldmdbvs	r7, {r2, r3, r5, r6, r8, r9, sl, fp, sp}^
     cb8:	7265746e 	rsbvc	r7, r5, #1845493760	; 0x6e000000
     cbc:	30323931 	eorscc	r3, r2, r1, lsr r9
     cc0:	3153432f 	cmpcc	r3, pc, lsr #6
     cc4:	2f453034 	svccs	0x00453034
     cc8:	34317363 	ldrtcc	r7, [r1], #-867	; 0x363
     ccc:	322d6530 	eorcc	r6, sp, #48, 10	; 0xc000000
     cd0:	6e697730 	mcrvs	7, 3, r7, cr9, cr0, {1}
     cd4:	62696c2f 	rsbvs	r6, r9, #12032	; 0x2f00
     cd8:	00006970 	andeq	r6, r0, r0, ror r9
     cdc:	63747570 	cmnvs	r4, #112, 10	; 0x1c000000
     ce0:	2e726168 	rpwcssz	f6, f2, #0.0
     ce4:	00010063 	andeq	r0, r1, r3, rrx
     ce8:	69707200 	ldmdbvs	r0!, {r9, ip, sp, lr}^
     cec:	0200682e 	andeq	r6, r0, #3014656	; 0x2e0000
     cf0:	00000000 	andeq	r0, r0, r0
     cf4:	94a40205 	strtls	r0, [r4], #517	; 0x205
     cf8:	4a140000 	bmi	500d00 <__bss_end__+0x4f6ea0>
     cfc:	13bc136b 			; <UNDEFINED> instruction: 0x13bc136b
     d00:	01000802 	tsteq	r0, r2, lsl #16
     d04:	00012801 	andeq	r2, r1, r1, lsl #16
     d08:	0d000200 	sfmeq	f0, 4, [r0, #-0]
     d0c:	02000001 	andeq	r0, r0, #1
     d10:	0d0efb01 	vstreq	d15, [lr, #-4]
     d14:	01010100 	mrseq	r0, (UNDEF: 17)
     d18:	00000001 	andeq	r0, r0, r1
     d1c:	01000001 	tsteq	r0, r1
     d20:	34317363 	ldrtcc	r7, [r1], #-867	; 0x363
     d24:	732d6530 	teqvc	sp, #48, 10	; 0xc000000
     d28:	2f006372 	svccs	0x00006372
     d2c:	2f727375 	svccs	0x00727375
     d30:	61636f6c 	cmnvs	r3, ip, ror #30
     d34:	65432f6c 	strbvs	r2, [r3, #-3948]	; 0xf6c
     d38:	72616c6c 	rsbvc	r6, r1, #108, 24	; 0x6c00
     d3c:	6d72612f 	ldfvse	f6, [r2, #-188]!	; 0xffffff44
     d40:	6e6f6e2d 	cdpvs	14, 6, cr6, cr15, cr13, {1}
     d44:	61652d65 	cmnvs	r5, r5, ror #26
     d48:	342f6962 	strtcc	r6, [pc], #-2402	; d50 <_start-0x72b0>
     d4c:	332e382e 	teqcc	lr, #3014656	; 0x2e0000
     d50:	3173632d 	cmncc	r3, sp, lsr #6
     d54:	2f653037 	svccs	0x00653037
     d58:	2f62696c 	svccs	0x0062696c
     d5c:	2f636367 	svccs	0x00636367
     d60:	2d6d7261 	sfmcs	f7, 2, [sp, #-388]!	; 0xfffffe7c
     d64:	656e6f6e 	strbvs	r6, [lr, #-3950]!	; 0xf6e
     d68:	6261652d 	rsbvs	r6, r1, #188743680	; 0xb400000
     d6c:	2e342f69 	cdpcs	15, 3, cr2, cr4, cr9, {3}
     d70:	2f332e38 	svccs	0x00332e38
     d74:	6c636e69 	stclvs	14, cr6, [r3], #-420	; 0xfffffe5c
     d78:	00656475 	rsbeq	r6, r5, r5, ror r4
     d7c:	7273752f 	rsbsvc	r7, r3, #197132288	; 0xbc00000
     d80:	636f6c2f 	cmnvs	pc, #12032	; 0x2f00
     d84:	432f6c61 	teqmi	pc, #24832	; 0x6100
     d88:	616c6c65 	cmnvs	ip, r5, ror #24
     d8c:	72612f72 	rsbvc	r2, r1, #456	; 0x1c8
     d90:	6f6e2d6d 	svcvs	0x006e2d6d
     d94:	652d656e 	strvs	r6, [sp, #-1390]!	; 0x56e
     d98:	2f696261 	svccs	0x00696261
     d9c:	2e382e34 	mrccs	14, 1, r2, cr8, cr4, {1}
     da0:	73632d33 	cmnvc	r3, #3264	; 0xcc0
     da4:	65303731 	ldrvs	r3, [r0, #-1841]!	; 0x731
     da8:	6d72612f 	ldfvse	f6, [r2, #-188]!	; 0xffffff44
     dac:	6e6f6e2d 	cdpvs	14, 6, cr6, cr15, cr13, {1}
     db0:	61652d65 	cmnvs	r5, r5, ror #26
     db4:	692f6962 	stmdbvs	pc!, {r1, r5, r6, r8, fp, sp, lr}	; <UNPREDICTABLE>
     db8:	756c636e 	strbvc	r6, [ip, #-878]!	; 0x36e
     dbc:	00006564 	andeq	r6, r0, r4, ror #10
     dc0:	746e6f63 	strbtvc	r6, [lr], #-3939	; 0xf63
     dc4:	2d6c6f72 	stclcs	15, cr6, [ip, #-456]!	; 0xfffffe38
     dc8:	636f6c62 	cmnvs	pc, #25088	; 0x6200
     dcc:	00632e6b 	rsbeq	r2, r3, fp, ror #28
     dd0:	73000001 	movwvc	r0, #1
     dd4:	65646474 	strbvs	r6, [r4, #-1140]!	; 0x474
     dd8:	00682e66 	rsbeq	r2, r8, r6, ror #28
     ddc:	73000002 	movwvc	r0, #2
     de0:	6e696474 	mcrvs	4, 3, r6, cr9, cr4, {3}
     de4:	63672d74 	cmnvs	r7, #116, 26	; 0x1d00
     de8:	00682e63 	rsbeq	r2, r8, r3, ror #28
     dec:	73000002 	movwvc	r0, #2
     df0:	61752d77 	cmnvs	r5, r7, ror sp
     df4:	682e7472 	stmdavs	lr!, {r1, r4, r5, r6, sl, ip, sp, lr}
     df8:	00000100 	andeq	r0, r0, r0, lsl #2
     dfc:	746e6f63 	strbtvc	r6, [lr], #-3939	; 0xf63
     e00:	2d6c6f72 	stclcs	15, cr6, [ip, #-456]!	; 0xfffffe38
     e04:	636f6c62 	cmnvs	pc, #25088	; 0x6200
     e08:	00682e6b 	rsbeq	r2, r8, fp, ror #28
     e0c:	73000001 	movwvc	r0, #1
     e10:	6e697274 	mcrvs	2, 3, r7, cr9, cr4, {3}
     e14:	00682e67 	rsbeq	r2, r8, r7, ror #28
     e18:	00000003 	andeq	r0, r0, r3
     e1c:	e0020500 	and	r0, r2, r0, lsl #10
     e20:	16000094 			; <UNDEFINED> instruction: 0x16000094
     e24:	4c688330 	stclmi	3, cr8, [r8], #-192	; 0xffffff40
     e28:	2f4b9f14 	svccs	0x004b9f14
     e2c:	01000402 	tsteq	r0, r2, lsl #8
     e30:	00010101 	andeq	r0, r1, r1, lsl #2
     e34:	ca000200 	bgt	163c <_start-0x69c4>
     e38:	02000000 	andeq	r0, r0, #0
     e3c:	0d0efb01 	vstreq	d15, [lr, #-4]
     e40:	01010100 	mrseq	r0, (UNDEF: 17)
     e44:	00000001 	andeq	r0, r0, r1
     e48:	01000001 	tsteq	r0, r1
     e4c:	732d796d 	teqvc	sp, #1785856	; 0x1b4000
     e50:	2f006372 	svccs	0x00006372
     e54:	72657355 	rsbvc	r7, r5, #1409286145	; 0x54000001
     e58:	72622f73 	rsbvc	r2, r2, #460	; 0x1cc
     e5c:	6a6e6169 	bvs	1b99408 <__bss_end__+0x1b8f5a8>
     e60:	442f6e75 	strtmi	r6, [pc], #-3701	; e68 <_start-0x7198>
     e64:	746b7365 	strbtvc	r7, [fp], #-869	; 0x365
     e68:	732f706f 	teqvc	pc, #111	; 0x6f
     e6c:	6f6f6863 	svcvs	0x006f6863
     e70:	69572f6c 	ldmdbvs	r7, {r2, r3, r5, r6, r8, r9, sl, fp, sp}^
     e74:	7265746e 	rsbvc	r7, r5, #1845493760	; 0x6e000000
     e78:	30323931 	eorscc	r3, r2, r1, lsr r9
     e7c:	3153432f 	cmpcc	r3, pc, lsr #6
     e80:	2f453034 	svccs	0x00453034
     e84:	34317363 	ldrtcc	r7, [r1], #-867	; 0x363
     e88:	322d6530 	eorcc	r6, sp, #48, 10	; 0xc000000
     e8c:	6e697730 	mcrvs	7, 3, r7, cr9, cr0, {1}
     e90:	62696c2f 	rsbvs	r6, r9, #12032	; 0x2f00
     e94:	632f6970 	teqvs	pc, #112, 18	; 0x1c0000
     e98:	30343173 	eorscc	r3, r4, r3, ror r1
     e9c:	72732d65 	rsbsvc	r2, r3, #6464	; 0x1940
     ea0:	552f0063 	strpl	r0, [pc, #-99]!	; e45 <_start-0x71bb>
     ea4:	73726573 	cmnvc	r2, #482344960	; 0x1cc00000
     ea8:	6972622f 	ldmdbvs	r2!, {r0, r1, r2, r3, r5, r9, sp, lr}^
     eac:	756a6e61 	strbvc	r6, [sl, #-3681]!	; 0xe61
     eb0:	65442f6e 	strbvs	r2, [r4, #-3950]	; 0xf6e
     eb4:	6f746b73 	svcvs	0x00746b73
     eb8:	63732f70 	cmnvs	r3, #112, 30	; 0x1c0
     ebc:	6c6f6f68 	stclvs	15, cr6, [pc], #-416	; d24 <_start-0x72dc>
     ec0:	6e69572f 	cdpvs	7, 6, cr5, cr9, cr15, {1}
     ec4:	31726574 	cmncc	r2, r4, ror r5
     ec8:	2f303239 	svccs	0x00303239
     ecc:	34315343 	ldrtcc	r5, [r1], #-835	; 0x343
     ed0:	632f4530 	teqvs	pc, #48, 10	; 0xc000000
     ed4:	30343173 	eorscc	r3, r4, r3, ror r1
     ed8:	30322d65 	eorscc	r2, r2, r5, ror #26
     edc:	2f6e6977 	svccs	0x006e6977
     ee0:	7062696c 	rsbvc	r6, r2, ip, ror #18
     ee4:	75000069 	strvc	r0, [r0, #-105]	; 0x69
     ee8:	2e747261 	cdpcs	2, 7, cr7, cr4, cr1, {3}
     eec:	00010063 	andeq	r0, r1, r3, rrx
     ef0:	69706700 	ldmdbvs	r0!, {r8, r9, sl, sp, lr}^
     ef4:	00682e6f 	rsbeq	r2, r8, pc, ror #28
     ef8:	72000002 	andvc	r0, r0, #2
     efc:	682e6970 	stmdavs	lr!, {r4, r5, r6, r8, fp, sp, lr}
     f00:	00000300 	andeq	r0, r0, r0, lsl #6
     f04:	02050000 	andeq	r0, r5, #0
     f08:	00009530 	andeq	r9, r0, r0, lsr r5
     f0c:	30013603 	andcc	r3, r1, r3, lsl #12
     f10:	306d6733 	rsbcc	r6, sp, r3, lsr r7
     f14:	676730d8 			; <UNDEFINED> instruction: 0x676730d8
     f18:	68676767 	stmdavs	r7!, {r0, r1, r2, r5, r6, r8, r9, sl, sp, lr}^
     f1c:	6a672f86 	bvs	19ccd3c <__bss_end__+0x19c2edc>
     f20:	69676730 	stmdbvs	r7!, {r4, r5, r8, r9, sl, sp, lr}^
     f24:	4c6a672f 	stclmi	7, cr6, [sl], #-188	; 0xffffff44
     f28:	2f2fc167 	svccs	0x002fc167
     f2c:	49682f30 	stmdbmi	r8!, {r4, r5, r8, r9, sl, fp, sp}^
     f30:	00020230 	andeq	r0, r2, r0, lsr r2
     f34:	00ec0101 	rsceq	r0, ip, r1, lsl #2
     f38:	00020000 	andeq	r0, r2, r0
     f3c:	000000d0 	ldrdeq	r0, [r0], -r0	; <UNPREDICTABLE>
     f40:	0efb0102 	cdpeq	1, 15, cr0, cr11, cr2, {0}
     f44:	0101000d 	tsteq	r1, sp
     f48:	00000101 	andeq	r0, r0, r1, lsl #2
     f4c:	00000100 	andeq	r0, r0, r0, lsl #2
     f50:	62696c01 	rsbvs	r6, r9, #256	; 0x100
     f54:	752f0063 	strvc	r0, [pc, #-99]!	; ef9 <_start-0x7107>
     f58:	6c2f7273 	sfmvs	f7, 4, [pc], #-460	; d94 <_start-0x726c>
     f5c:	6c61636f 	stclvs	3, cr6, [r1], #-444	; 0xfffffe44
     f60:	6c65432f 	stclvs	3, cr4, [r5], #-188	; 0xffffff44
     f64:	2f72616c 	svccs	0x0072616c
     f68:	2d6d7261 	sfmcs	f7, 2, [sp, #-388]!	; 0xfffffe7c
     f6c:	656e6f6e 	strbvs	r6, [lr, #-3950]!	; 0xf6e
     f70:	6261652d 	rsbvs	r6, r1, #188743680	; 0xb400000
     f74:	2e342f69 	cdpcs	15, 3, cr2, cr4, cr9, {3}
     f78:	2d332e38 	ldccs	14, cr2, [r3, #-224]!	; 0xffffff20
     f7c:	37317363 	ldrcc	r7, [r1, -r3, ror #6]!
     f80:	6c2f6530 	cfstr32vs	mvfx6, [pc], #-192	; ec8 <_start-0x7138>
     f84:	672f6269 	strvs	r6, [pc, -r9, ror #4]!
     f88:	612f6363 	teqvs	pc, r3, ror #6
     f8c:	6e2d6d72 	mcrvs	13, 1, r6, cr13, cr2, {3}
     f90:	2d656e6f 	stclcs	14, cr6, [r5, #-444]!	; 0xfffffe44
     f94:	69626165 	stmdbvs	r2!, {r0, r2, r5, r6, r8, sp, lr}^
     f98:	382e342f 	stmdacc	lr!, {r0, r1, r2, r3, r5, sl, ip, sp}
     f9c:	692f332e 	stmdbvs	pc!, {r1, r2, r3, r5, r8, r9, ip, sp}	; <UNPREDICTABLE>
     fa0:	756c636e 	strbvc	r6, [ip, #-878]!	; 0x36e
     fa4:	2f006564 	svccs	0x00006564
     fa8:	2f727375 	svccs	0x00727375
     fac:	61636f6c 	cmnvs	r3, ip, ror #30
     fb0:	65432f6c 	strbvs	r2, [r3, #-3948]	; 0xf6c
     fb4:	72616c6c 	rsbvc	r6, r1, #108, 24	; 0x6c00
     fb8:	6d72612f 	ldfvse	f6, [r2, #-188]!	; 0xffffff44
     fbc:	6e6f6e2d 	cdpvs	14, 6, cr6, cr15, cr13, {1}
     fc0:	61652d65 	cmnvs	r5, r5, ror #26
     fc4:	342f6962 	strtcc	r6, [pc], #-2402	; fcc <_start-0x7034>
     fc8:	332e382e 	teqcc	lr, #3014656	; 0x2e0000
     fcc:	3173632d 	cmncc	r3, sp, lsr #6
     fd0:	2f653037 	svccs	0x00653037
     fd4:	2d6d7261 	sfmcs	f7, 2, [sp, #-388]!	; 0xfffffe7c
     fd8:	656e6f6e 	strbvs	r6, [lr, #-3950]!	; 0xf6e
     fdc:	6261652d 	rsbvs	r6, r1, #188743680	; 0xb400000
     fe0:	6e692f69 	cdpvs	15, 6, cr2, cr9, cr9, {3}
     fe4:	64756c63 	ldrbtvs	r6, [r5], #-3171	; 0xc63
     fe8:	6d000065 	stcvs	0, cr0, [r0, #-404]	; 0xfffffe6c
     fec:	65736d65 	ldrbvs	r6, [r3, #-3429]!	; 0xd65
     ff0:	00632e74 	rsbeq	r2, r3, r4, ror lr
     ff4:	73000001 	movwvc	r0, #1
     ff8:	65646474 	strbvs	r6, [r4, #-1140]!	; 0x474
     ffc:	00682e66 	rsbeq	r2, r8, r6, ror #28
    1000:	73000002 	movwvc	r0, #2
    1004:	6e697274 	mcrvs	2, 3, r7, cr9, cr4, {3}
    1008:	00682e67 	rsbeq	r2, r8, r7, ror #28
    100c:	00000003 	andeq	r0, r0, r3
    1010:	9c020500 	cfstr32ls	mvfx0, [r2], {-0}
    1014:	14000096 	strne	r0, [r0], #-150	; 0x96
    1018:	002f4c13 	eoreq	r4, pc, r3, lsl ip	; <UNPREDICTABLE>
    101c:	49010402 	stmdbmi	r1, {r1, sl}
    1020:	0002024d 	andeq	r0, r2, sp, asr #4
    1024:	Address 0x0000000000001024 is out of bounds.


Disassembly of section .debug_str:

00000000 <.debug_str>:
   0:	6d746f6e 	ldclvs	15, cr6, [r4, #-440]!	; 0xfffffe48
   4:	006e6961 	rsbeq	r6, lr, r1, ror #18
   8:	5f6d7261 	svcpl	0x006d7261
   c:	6c004948 	stcvs	9, cr4, [r0], {72}	; 0x48
  10:	20676e6f 	rsbcs	r6, r7, pc, ror #28
  14:	676e6f6c 	strbvs	r6, [lr, -ip, ror #30]!
  18:	736e7520 	cmnvc	lr, #32, 10	; 0x8000000
  1c:	656e6769 	strbvs	r6, [lr, #-1897]!	; 0x769
  20:	6e692064 	cdpvs	0, 6, cr2, cr9, cr4, {3}
  24:	72610074 	rsbvc	r0, r1, #116	; 0x74
  28:	4c505f6d 	mrrcmi	15, 6, r5, r0, cr13
  2c:	6e6f6c00 	cdpvs	12, 6, cr6, cr15, cr0, {0}
  30:	6f6c2067 	svcvs	0x006c2067
  34:	6920676e 	stmdbvs	r0!, {r1, r2, r3, r5, r6, r8, r9, sl, sp, lr}
  38:	6100746e 	tstvs	r0, lr, ror #8
  3c:	415f6d72 	cmpmi	pc, r2, ror sp	; <UNPREDICTABLE>
  40:	6f63004c 	svcvs	0x0063004c
  44:	69006564 	stmdbvs	r0, {r2, r5, r6, r8, sl, sp, lr}
  48:	0074736e 	rsbseq	r7, r4, lr, ror #6
  4c:	5f6d7261 	svcpl	0x006d7261
  50:	5f72646c 	svcpl	0x0072646c
  54:	64726f77 	ldrbtvs	r6, [r2], #-3959	; 0xf77
  58:	6d6d695f 	stclvs	9, cr6, [sp, #-380]!	; 0xfffffe84
  5c:	6c656800 	stclvs	8, cr6, [r5], #-0
  60:	632e6f6c 	teqvs	lr, #108, 30	; 0x1b0
  64:	6d726100 	ldfvse	f6, [r2, #-0]
  68:	3031725f 	eorscc	r7, r1, pc, asr r2
  6c:	6d726100 	ldfvse	f6, [r2, #-0]
  70:	3131725f 	teqcc	r1, pc, asr r2
  74:	6d726100 	ldfvse	f6, [r2, #-0]
  78:	3231725f 	eorscc	r7, r1, #-268435451	; 0xf0000005
  7c:	6d726100 	ldfvse	f6, [r2, #-0]
  80:	3331725f 	teqcc	r1, #-268435451	; 0xf0000005
  84:	6d726100 	ldfvse	f6, [r2, #-0]
  88:	3431725f 	ldrtcc	r7, [r1], #-607	; 0x25f
  8c:	6f687300 	svcvs	0x00687300
  90:	75207472 	strvc	r7, [r0, #-1138]!	; 0x472
  94:	6769736e 	strbvs	r7, [r9, -lr, ror #6]!
  98:	2064656e 	rsbcs	r6, r4, lr, ror #10
  9c:	00746e69 	rsbseq	r6, r4, r9, ror #28
  a0:	5f6d7261 	svcpl	0x006d7261
  a4:	61006370 	tstvs	r0, r0, ror r3
  a8:	435f6d72 	cmpmi	pc, #7296	; 0x1c80
  ac:	6d690043 	stclvs	0, cr0, [r9, #-268]!	; 0xfffffef4
  b0:	0034326d 	eorseq	r3, r4, sp, ror #4
  b4:	5f6d7261 	svcpl	0x006d7261
  b8:	61005343 	tstvs	r0, r3, asr #6
  bc:	625f6d72 	subsvs	r6, pc, #7296	; 0x1c80
  c0:	6c630033 	stclvs	0, cr0, [r3], #-204	; 0xffffff34
  c4:	5f6e6165 	svcpl	0x006e6165
  c8:	6f626572 	svcvs	0x00626572
  cc:	7300746f 	movwvc	r7, #1135	; 0x46f
  d0:	74657a69 	strbtvc	r7, [r5], #-2665	; 0xa69
  d4:	00657079 	rsbeq	r7, r5, r9, ror r0
  d8:	5f6d7261 	svcpl	0x006d7261
  dc:	61003072 	tstvs	r0, r2, ror r0
  e0:	725f6d72 	subsvc	r6, pc, #7296	; 0x1c80
  e4:	72610031 	rsbvc	r0, r1, #49	; 0x31
  e8:	32725f6d 	rsbscc	r5, r2, #436	; 0x1b4
  ec:	6d726100 	ldfvse	f6, [r2, #-0]
  f0:	0033725f 	eorseq	r7, r3, pc, asr r2
  f4:	5f6d7261 	svcpl	0x006d7261
  f8:	61003472 	tstvs	r0, r2, ror r4
  fc:	725f6d72 	subsvc	r6, pc, #7296	; 0x1c80
 100:	72610035 	rsbvc	r0, r1, #53	; 0x35
 104:	36725f6d 	ldrbtcc	r5, [r2], -sp, ror #30
 108:	6d726100 	ldfvse	f6, [r2, #-0]
 10c:	0037725f 	eorseq	r7, r7, pc, asr r2
 110:	5f6d7261 	svcpl	0x006d7261
 114:	61003872 	tstvs	r0, r2, ror r8
 118:	725f6d72 	subsvc	r6, pc, #7296	; 0x1c80
 11c:	72610039 	rsbvc	r0, r1, #57	; 0x39
 120:	454c5f6d 	strbmi	r5, [ip, #-3949]	; 0xf6d
 124:	73656400 	cmnvc	r5, #0, 8
 128:	72610074 	rsbvc	r0, r1, #116	; 0x74
 12c:	534c5f6d 	movtpl	r5, #53101	; 0xcf6d
 130:	6d726100 	ldfvse	f6, [r2, #-0]
 134:	00544c5f 	subseq	r4, r4, pc, asr ip
 138:	6573552f 	ldrbvs	r5, [r3, #-1327]!	; 0x52f
 13c:	622f7372 	eorvs	r7, pc, #-939524095	; 0xc8000001
 140:	6e616972 	mcrvs	9, 3, r6, cr1, cr2, {3}
 144:	2f6e756a 	svccs	0x006e756a
 148:	6b736544 	blvs	1cd9660 <__bss_end__+0x1ccf800>
 14c:	2f706f74 	svccs	0x00706f74
 150:	6f686373 	svcvs	0x00686373
 154:	532f6c6f 	teqpl	pc, #28416	; 0x6f00
 158:	6e697270 	mcrvs	2, 3, r7, cr9, cr0, {3}
 15c:	32393167 	eorscc	r3, r9, #-1073741799	; 0xc0000019
 160:	53432f30 	movtpl	r2, #16176	; 0x3f30
 164:	4c303432 	cfldrsmi	mvf3, [r0], #-200	; 0xffffff38
 168:	73632f58 	cmnvc	r3, #88, 30	; 0x160
 16c:	6c303432 	cfldrsvs	mvf3, [r0], #-200	; 0xffffff38
 170:	30322d78 	eorscc	r2, r2, r8, ror sp
 174:	2f727073 	svccs	0x00727073
 178:	7362616c 	cmnvc	r2, #108, 2
 17c:	642d322f 	strtvs	r3, [sp], #-559	; 0x22f
 180:	6d616e79 	stclvs	14, cr6, [r1, #-484]!	; 0xfffffe1c
 184:	632d6369 	teqvs	sp, #-1543503871	; 0xa4000001
 188:	2d65646f 	cfstrdcs	mvd6, [r5, #-444]!	; 0xfffffe44
 18c:	2f6e6567 	svccs	0x006e6567
 190:	65646f63 	strbvs	r6, [r4, #-3939]!	; 0xf63
 194:	682d312f 	stmdavs	sp!, {r0, r1, r2, r3, r5, r8, ip, sp}
 198:	6f6c6c65 	svcvs	0x006c6c65
 19c:	736e7500 	cmnvc	lr, #0, 10
 1a0:	656e6769 	strbvs	r6, [lr, #-1897]!	; 0x769
 1a4:	68632064 	stmdavs	r3!, {r2, r5, r6, sp}^
 1a8:	73007261 	movwvc	r7, #609	; 0x261
 1ac:	74726f68 	ldrbtvc	r6, [r2], #-3944	; 0xf68
 1b0:	746e6920 	strbtvc	r6, [lr], #-2336	; 0x920
 1b4:	6d726100 	ldfvse	f6, [r2, #-0]
 1b8:	0051455f 	subseq	r4, r1, pc, asr r5
 1bc:	746e6975 	strbtvc	r6, [lr], #-2421	; 0x975
 1c0:	745f3233 	ldrbvc	r3, [pc], #-563	; 1c8 <_start-0x7e38>
 1c4:	6d726100 	ldfvse	f6, [r2, #-0]
 1c8:	00494d5f 	subeq	r4, r9, pc, asr sp
 1cc:	20554e47 	subscs	r4, r5, r7, asr #28
 1d0:	2e342043 	cdpcs	0, 3, cr2, cr4, cr3, {2}
 1d4:	20332e38 	eorscs	r2, r3, r8, lsr lr
 1d8:	70636d2d 	rsbvc	r6, r3, sp, lsr #26
 1dc:	72613d75 	rsbvc	r3, r1, #7488	; 0x1d40
 1e0:	3731316d 	ldrcc	r3, [r1, -sp, ror #2]!
 1e4:	667a6a36 			; <UNDEFINED> instruction: 0x667a6a36
 1e8:	2d20732d 	stccs	3, cr7, [r0, #-180]!	; 0xffffff4c
 1ec:	6e75746d 	cdpvs	4, 7, cr7, cr5, cr13, {3}
 1f0:	72613d65 	rsbvc	r3, r1, #6464	; 0x1940
 1f4:	3731316d 	ldrcc	r3, [r1, -sp, ror #2]!
 1f8:	667a6a36 			; <UNDEFINED> instruction: 0x667a6a36
 1fc:	2d20732d 	stccs	3, cr7, [r0, #-180]!	; 0xffffff4c
 200:	62646767 	rsbvs	r6, r4, #27000832	; 0x19c0000
 204:	674f2d20 	strbvs	r2, [pc, -r0, lsr #26]
 208:	74732d20 	ldrbtvc	r2, [r3], #-3360	; 0xd20
 20c:	6e673d64 	cdpvs	13, 6, cr3, cr7, cr4, {3}
 210:	20393975 	eorscs	r3, r9, r5, ror r9
 214:	7266662d 	rsbvc	r6, r6, #47185920	; 0x2d00000
 218:	74736565 	ldrbtvc	r6, [r3], #-1381	; 0x565
 21c:	69646e61 	stmdbvs	r4!, {r0, r5, r6, r9, sl, fp, sp, lr}^
 220:	6f00676e 	svcvs	0x0000676e
 224:	65736666 	ldrbvs	r6, [r3, #-1638]!	; 0x666
 228:	72610074 	rsbvc	r0, r1, #116	; 0x74
 22c:	70735f6d 	rsbsvc	r5, r3, sp, ror #30
 230:	66666f00 	strbtvs	r6, [r6], -r0, lsl #30
 234:	5f746573 	svcpl	0x00746573
 238:	61003231 	tstvs	r0, r1, lsr r2
 23c:	4e5f6d72 	mrcmi	13, 2, r6, cr15, cr2, {3}
 240:	69750045 	ldmdbvs	r5!, {r0, r2, r6}^
 244:	5f38746e 	svcpl	0x0038746e
 248:	72610074 	rsbvc	r0, r1, #116	; 0x74
 24c:	726c5f6d 	rsbvc	r5, ip, #436	; 0x1b4
 250:	6d726100 	ldfvse	f6, [r2, #-0]
 254:	0043565f 	subeq	r5, r3, pc, asr r6
 258:	5f6d7261 	svcpl	0x006d7261
 25c:	61004547 	tstvs	r0, r7, asr #10
 260:	565f6d72 			; <UNDEFINED> instruction: 0x565f6d72
 264:	72610053 	rsbvc	r0, r1, #83	; 0x53
 268:	6f705f6d 	svcvs	0x00705f6d
 26c:	72610070 	rsbvc	r0, r1, #112	; 0x70
 270:	54475f6d 	strbpl	r5, [r7], #-3949	; 0xf6d
 274:	6d726100 	ldfvse	f6, [r2, #-0]
 278:	7375705f 	cmnvc	r5, #95	; 0x5f
 27c:	72610068 	rsbvc	r0, r1, #104	; 0x68
 280:	31725f6d 	cmncc	r2, sp, ror #30
 284:	5f5f0035 	svcpl	0x005f0035
 288:	63756e67 	cmnvs	r5, #1648	; 0x670
 28c:	5f61765f 	svcpl	0x0061765f
 290:	7473696c 	ldrbtvc	r6, [r3], #-2412	; 0x96c
 294:	62696c00 	rsbvs	r6, r9, #0, 24
 298:	72702f63 	rsbsvc	r2, r0, #396	; 0x18c
 29c:	6b746e69 	blvs	1d1bc48 <__bss_end__+0x1d11de8>
 2a0:	7600632e 	strvc	r6, [r0], -lr, lsr #6
 2a4:	72705f61 	rsbsvc	r5, r0, #388	; 0x184
 2a8:	6b746e69 	blvs	1d1bc54 <__bss_end__+0x1d11df4>
 2ac:	765f5f00 	ldrbvc	r5, [pc], -r0, lsl #30
 2b0:	696c5f61 	stmdbvs	ip!, {r0, r5, r6, r8, r9, sl, fp, ip, lr}^
 2b4:	2f007473 	svccs	0x00007473
 2b8:	72657355 	rsbvc	r7, r5, #1409286145	; 0x54000001
 2bc:	72622f73 	rsbvc	r2, r2, #460	; 0x1cc
 2c0:	6a6e6169 	bvs	1b9886c <__bss_end__+0x1b8ea0c>
 2c4:	442f6e75 	strtmi	r6, [pc], #-3701	; 2cc <_start-0x7d34>
 2c8:	746b7365 	strbtvc	r7, [fp], #-869	; 0x365
 2cc:	732f706f 	teqvc	pc, #111	; 0x6f
 2d0:	6f6f6863 	svcvs	0x006f6863
 2d4:	69572f6c 	ldmdbvs	r7, {r2, r3, r5, r6, r8, r9, sl, fp, sp}^
 2d8:	7265746e 	rsbvc	r7, r5, #1845493760	; 0x6e000000
 2dc:	30323931 	eorscc	r3, r2, r1, lsr r9
 2e0:	3153432f 	cmpcc	r3, pc, lsr #6
 2e4:	2f453034 	svccs	0x00453034
 2e8:	34317363 	ldrtcc	r7, [r1], #-867	; 0x363
 2ec:	322d6530 	eorcc	r6, sp, #48, 10	; 0xc000000
 2f0:	6e697730 	mcrvs	7, 3, r7, cr9, cr0, {1}
 2f4:	62696c2f 	rsbvs	r6, r9, #12032	; 0x2f00
 2f8:	61006970 	tstvs	r0, r0, ror r9
 2fc:	00736772 	rsbseq	r6, r3, r2, ror r7
 300:	70615f5f 	rsbvc	r5, r1, pc, asr pc
 304:	62696c00 	rsbvs	r6, r9, #0, 24
 308:	75702f63 	ldrbvc	r2, [r0, #-3939]!	; 0xf63
 30c:	632e6b74 	teqvs	lr, #116, 22	; 0x1d000
 310:	746e6900 	strbtvc	r6, [lr], #-2304	; 0x900
 314:	616e7265 	cmnvs	lr, r5, ror #4
 318:	75705f6c 	ldrbvc	r5, [r0, #-3948]!	; 0xf6c
 31c:	72006b74 	andvc	r6, r0, #116, 22	; 0x1d000
 320:	705f6970 	subsvc	r6, pc, r0, ror r9	; <UNPREDICTABLE>
 324:	68637475 	stmdavs	r3!, {r0, r2, r4, r5, r6, sl, ip, sp, lr}^
 328:	6e007261 	cdpvs	2, 0, cr7, cr0, cr1, {3}
 32c:	705f6765 	subsvc	r6, pc, r5, ror #14
 330:	76657200 	strbtvc	r7, [r5], -r0, lsl #4
 334:	65737265 	ldrbvs	r7, [r3, #-613]!	; 0x265
 338:	64736900 	ldrbtvs	r6, [r3], #-2304	; 0x900
 33c:	74696769 	strbtvc	r6, [r9], #-1897	; 0x769
 340:	465f5f00 	ldrbmi	r5, [pc], -r0, lsl #30
 344:	54434e55 	strbpl	r4, [r3], #-3669	; 0xe55
 348:	5f4e4f49 	svcpl	0x004e4f49
 34c:	7570005f 	ldrbvc	r0, [r0, #-95]!	; 0x5f
 350:	665f7374 			; <UNDEFINED> instruction: 0x665f7374
 354:	61620070 	smcvs	8192	; 0x2000
 358:	73006573 	movwvc	r6, #1395	; 0x573
 35c:	656e6769 	strbvs	r6, [lr, #-1897]!	; 0x769
 360:	00705f64 	rsbseq	r5, r0, r4, ror #30
 364:	6362696c 	cmnvs	r2, #108, 18	; 0x1b0000
 368:	2d61762f 	stclcs	6, cr7, [r1, #-188]!	; 0xffffff44
 36c:	6e697270 	mcrvs	2, 3, r7, cr9, cr0, {3}
 370:	632e6b74 	teqvs	lr, #116, 22	; 0x1d000
 374:	69707200 	ldmdbvs	r0!, {r9, ip, sp, lr}^
 378:	7465735f 	strbtvc	r7, [r5], #-863	; 0x35f
 37c:	74756f5f 	ldrbtvc	r6, [r5], #-3935	; 0xf5f
 380:	00747570 	rsbseq	r7, r4, r0, ror r5
 384:	74646977 	strbtvc	r6, [r4], #-2423	; 0x977
 388:	75700068 	ldrbvc	r0, [r0, #-104]!	; 0x68
 38c:	665f6374 			; <UNDEFINED> instruction: 0x665f6374
 390:	70720070 	rsbsvc	r0, r2, r0, ror r0
 394:	65725f69 	ldrbvs	r5, [r2, #-3945]!	; 0xf69
 398:	5f746573 	svcpl	0x00746573
 39c:	63747570 	cmnvs	r4, #112, 10	; 0x1c000000
 3a0:	696d6500 	stmdbvs	sp!, {r8, sl, sp, lr}^
 3a4:	70720074 	rsbsvc	r0, r2, r4, ror r0
 3a8:	65725f69 	ldrbvs	r5, [r2, #-3945]!	; 0xf69
 3ac:	746f6f62 	strbtvc	r6, [pc], #-3938	; 3b4 <_start-0x7c4c>
 3b0:	31736300 	cmncc	r3, r0, lsl #6
 3b4:	2d653034 	stclcs	0, cr3, [r5, #-208]!	; 0xffffff30
 3b8:	2f637273 	svccs	0x00637273
 3bc:	61656c63 	cmnvs	r5, r3, ror #24
 3c0:	65722d6e 	ldrbvs	r2, [r2, #-3438]!	; 0xd6e
 3c4:	746f6f62 	strbtvc	r6, [pc], #-3938	; 3cc <_start-0x7c34>
 3c8:	6400632e 	strvs	r6, [r0], #-814	; 0x32e
 3cc:	79616c65 	stmdbvc	r1!, {r0, r2, r5, r6, sl, fp, sp, lr}^
 3d0:	00736d5f 	rsbseq	r6, r3, pc, asr sp
 3d4:	65746e69 	ldrbvs	r6, [r4, #-3689]!	; 0xe69
 3d8:	6c616e72 	stclvs	14, cr6, [r1], #-456	; 0xfffffe38
 3dc:	5f77735f 	svcpl	0x0077735f
 3e0:	63747570 	cmnvs	r4, #112, 10	; 0x1c000000
 3e4:	00726168 	rsbseq	r6, r2, r8, ror #2
 3e8:	73625f5f 	cmnvc	r2, #380	; 0x17c
 3ec:	74735f73 	ldrbtvc	r5, [r3], #-3955	; 0xf73
 3f0:	5f747261 	svcpl	0x00747261
 3f4:	7362005f 	cmnvc	r2, #95	; 0x5f
 3f8:	6e655f73 	mcrvs	15, 3, r5, cr5, cr3, {3}
 3fc:	79630064 	stmdbvc	r3!, {r2, r5, r6}^
 400:	5f656c63 	svcpl	0x00656c63
 404:	5f726570 	svcpl	0x00726570
 408:	00746962 	rsbseq	r6, r4, r2, ror #18
 40c:	736e6f63 	cmnvc	lr, #396	; 0x18c
 410:	5f656c6f 	svcpl	0x00656c6f
 414:	74726175 	ldrbtvc	r6, [r2], #-373	; 0x175
 418:	5f777300 	svcpl	0x00777300
 41c:	74726175 	ldrbtvc	r6, [r2], #-373	; 0x175
 420:	6972705f 	ldmdbvs	r2!, {r0, r1, r2, r3, r4, r6, ip, sp, lr}^
 424:	006b746e 	rsbeq	r7, fp, lr, ror #8
 428:	43545550 	cmpmi	r4, #80, 10	; 0x14000000
 42c:	5053455f 	subspl	r4, r3, pc, asr r5
 430:	5241555f 	subpl	r5, r1, #398458880	; 0x17c00000
 434:	77730054 			; <UNDEFINED> instruction: 0x77730054
 438:	7261755f 	rsbvc	r7, r1, #398458880	; 0x17c00000
 43c:	00745f74 	rsbseq	r5, r4, r4, ror pc
 440:	43545550 	cmpmi	r4, #80, 10	; 0x14000000
 444:	5f57535f 	svcpl	0x0057535f
 448:	54524155 	ldrbpl	r4, [r2], #-341	; 0x155
 44c:	75616200 	strbvc	r6, [r1, #-512]!	; 0x200
 450:	55500064 	ldrbpl	r0, [r0, #-100]	; 0x64
 454:	485f4354 	ldmdami	pc, {r2, r4, r6, r8, r9, lr}^	; <UNPREDICTABLE>
 458:	41555f57 	cmpmi	r5, r7, asr pc
 45c:	5f005452 	svcpl	0x00005452
 460:	61747363 	cmnvs	r4, r3, ror #6
 464:	75007472 	strvc	r7, [r0, #-1138]	; 0x472
 468:	5f747261 	svcpl	0x00747261
 46c:	5f766564 	svcpl	0x00766564
 470:	77730074 			; <UNDEFINED> instruction: 0x77730074
 474:	7261755f 	rsbvc	r7, r1, #398458880	; 0x17c00000
 478:	75705f74 	ldrbvc	r5, [r0, #-3956]!	; 0xf74
 47c:	63006374 	movwvs	r6, #884	; 0x374
 480:	72746e6f 	rsbsvc	r6, r4, #1776	; 0x6f0
 484:	625f6c6f 	subsvs	r6, pc, #28416	; 0x6f00
 488:	745f6b6c 	ldrbvc	r6, [pc], #-2924	; 490 <_start-0x7b70>
 48c:	5f777300 	svcpl	0x00777300
 490:	74726175 	ldrbtvc	r6, [r2], #-373	; 0x175
 494:	5f626300 	svcpl	0x00626300
 498:	5f746567 	svcpl	0x00746567
 49c:	636f6c62 	cmnvs	pc, #25088	; 0x6200
 4a0:	5f5f006b 	svcpl	0x005f006b
 4a4:	5f737362 	svcpl	0x00737362
 4a8:	5f646e65 	svcpl	0x00646e65
 4ac:	7363005f 	cmnvc	r3, #95	; 0x5f
 4b0:	65303431 	ldrvs	r3, [r0, #-1073]!	; 0x431
 4b4:	6372732d 	cmnvs	r2, #-1275068416	; 0xb4000000
 4b8:	7473632f 	ldrbtvc	r6, [r3], #-815	; 0x32f
 4bc:	2e747261 	cdpcs	2, 7, cr7, cr4, cr1, {3}
 4c0:	6f630063 	svcvs	0x00630063
 4c4:	6c6f736e 	stclvs	3, cr7, [pc], #-440	; 314 <_start-0x7cec>
 4c8:	65645f65 	strbvs	r5, [r4, #-3941]!	; 0xf65
 4cc:	616d0076 	smcvs	53254	; 0xd006
 4d0:	00636967 	rsbeq	r6, r3, r7, ror #18
 4d4:	755f7461 	ldrbvc	r7, [pc, #-1121]	; 7b <_start-0x7f85>
 4d8:	5f726573 	svcpl	0x00726573
 4dc:	6576656c 	ldrbvs	r6, [r6, #-1388]!	; 0x56c
 4e0:	4d50006c 	ldclmi	0, cr0, [r0, #-432]	; 0xfffffe50
 4e4:	5341505f 	movtpl	r5, #4191	; 0x105f
 4e8:	524f5753 	subpl	r5, pc, #21757952	; 0x14c0000
 4ec:	73630044 	cmnvc	r3, #68	; 0x44
 4f0:	65303431 	ldrvs	r3, [r0, #-1073]!	; 0x431
 4f4:	6372732d 	cmnvs	r2, #-1275068416	; 0xb4000000
 4f8:	6265722f 	rsbvs	r7, r5, #-268435454	; 0xf0000002
 4fc:	2e746f6f 	cdpcs	15, 7, cr6, cr4, cr15, {3}
 500:	4d500063 	ldclmi	0, cr0, [r0, #-396]	; 0xfffffe74
 504:	5453525f 	ldrbpl	r5, [r3], #-607	; 0x25f
 508:	52575f43 	subspl	r5, r7, #268	; 0x10c
 50c:	5f474643 	svcpl	0x00474643
 510:	4c4c5546 	cfstr64mi	mvdx5, [ip], {70}	; 0x46
 514:	5345525f 	movtpl	r5, #21087	; 0x525f
 518:	50005445 	andpl	r5, r0, r5, asr #8
 51c:	44575f4d 	ldrbmi	r5, [r7], #-3917	; 0xf4d
 520:	7300474f 	movwvc	r4, #1871	; 0x74f
 524:	755f7465 	ldrbvc	r7, [pc, #-1125]	; c7 <_start-0x7f39>
 528:	5f726573 	svcpl	0x00726573
 52c:	6576656c 	ldrbvs	r6, [r6, #-1388]!	; 0x56c
 530:	5550006c 	ldrbpl	r0, [r0, #-108]	; 0x6c
 534:	00323354 	eorseq	r3, r2, r4, asr r3
 538:	525f4d50 	subspl	r4, pc, #80, 26	; 0x1400
 53c:	00435453 	subeq	r5, r3, r3, asr r4
 540:	72737063 	rsbsvc	r7, r3, #99	; 0x63
 544:	6d697400 	cfstrdvs	mvd7, [r9, #-0]
 548:	675f7265 	ldrbvs	r7, [pc, -r5, ror #4]
 54c:	755f7465 	ldrbvc	r7, [pc, #-1125]	; ef <_start-0x7f11>
 550:	5f636573 	svcpl	0x00636573
 554:	00776172 	rsbseq	r6, r7, r2, ror r1
 558:	616c6564 	cmnvs	ip, r4, ror #10
 55c:	65735f79 	ldrbvs	r5, [r3, #-3961]!	; 0xf79
 560:	73630063 	cmnvc	r3, #99	; 0x63
 564:	65303431 	ldrvs	r3, [r0, #-1073]!	; 0x431
 568:	6372732d 	cmnvs	r2, #-1275068416	; 0xb4000000
 56c:	6d69742f 	cfstrdvs	mvd7, [r9, #-188]!	; 0xffffff44
 570:	632e7265 	teqvs	lr, #1342177286	; 0x50000006
 574:	54454700 	strbpl	r4, [r5], #-1792	; 0x700
 578:	74003233 	strvc	r3, [r0], #-563	; 0x233
 57c:	736b6369 	cmnvc	fp, #-1543503871	; 0xa4000001
 580:	6c656400 	cfstrdvs	mvd6, [r5], #-0
 584:	635f7961 	cmpvs	pc, #1589248	; 0x184000
 588:	656c6379 	strbvs	r6, [ip, #-889]!	; 0x379
 58c:	65640073 	strbvs	r0, [r4, #-115]!	; 0x73
 590:	5f79616c 	svcpl	0x0079616c
 594:	74007375 	strvc	r7, [r0], #-885	; 0x375
 598:	72656d69 	rsbvc	r6, r5, #6720	; 0x1a40
 59c:	7465675f 	strbtvc	r6, [r5], #-1887	; 0x75f
 5a0:	6573755f 	ldrbvs	r7, [r3, #-1375]!	; 0x55f
 5a4:	79630063 	stmdbvc	r3!, {r0, r1, r5, r6}^
 5a8:	65705f63 	ldrbvs	r5, [r0, #-3939]!	; 0xf63
 5ac:	69625f72 	stmdbvs	r2!, {r1, r4, r5, r6, r8, r9, sl, fp, ip, lr}^
 5b0:	72770074 	rsbsvc	r0, r7, #116	; 0x74
 5b4:	5f657469 	svcpl	0x00657469
 5b8:	5f637963 	svcpl	0x00637963
 5bc:	69746e75 	ldmdbvs	r4!, {r0, r2, r4, r5, r6, r9, sl, fp, sp, lr}^
 5c0:	7773006c 	ldrbvc	r0, [r3, -ip, rrx]!
 5c4:	7261755f 	rsbvc	r7, r1, #398458880	; 0x17c00000
 5c8:	65675f74 	strbvs	r5, [r7, #-3956]!	; 0xf74
 5cc:	745f6374 	ldrbvc	r6, [pc], #-884	; 5d4 <_start-0x7a2c>
 5d0:	6f656d69 	svcvs	0x00656d69
 5d4:	73007475 	movwvc	r7, #1141	; 0x475
 5d8:	61755f77 	cmnvs	r5, r7, ror pc
 5dc:	675f7472 			; <UNDEFINED> instruction: 0x675f7472
 5e0:	5f737465 	svcpl	0x00737465
 5e4:	69746e75 	ldmdbvs	r4!, {r0, r2, r4, r5, r6, r9, sl, fp, sp, lr}^
 5e8:	7773006c 	ldrbvc	r0, [r3, -ip, rrx]!
 5ec:	7261755f 	rsbvc	r7, r1, #398458880	; 0x17c00000
 5f0:	65675f74 	strbvs	r5, [r7, #-3956]!	; 0xf74
 5f4:	64006374 	strvs	r6, [r0], #-884	; 0x374
 5f8:	76697265 	strbtvc	r7, [r9], -r5, ror #4
 5fc:	64006465 	strvs	r6, [r0], #-1125	; 0x465
 600:	79616c65 	stmdbvc	r1!, {r0, r2, r5, r6, sl, fp, sp, lr}^
 604:	79636e5f 	stmdbvc	r3!, {r0, r1, r2, r3, r4, r6, r9, sl, fp, sp, lr}^
 608:	73656c63 	cmnvc	r5, #25344	; 0x6300
 60c:	5f777300 	svcpl	0x00777300
 610:	74726175 	ldrbtvc	r6, [r2], #-373	; 0x175
 614:	696e695f 	stmdbvs	lr!, {r0, r1, r2, r3, r4, r6, r8, fp, sp, lr}^
 618:	65685f74 	strbvs	r5, [r8, #-3956]!	; 0xf74
 61c:	7265706c 	rsbvc	r7, r5, #108	; 0x6c
 620:	6d697400 	cfstrdvs	mvd7, [r9, #-0]
 624:	74756f65 	ldrbtvc	r6, [r5], #-3941	; 0xf65
 628:	6573755f 	ldrbvs	r7, [r3, #-1375]!	; 0x55f
 62c:	77730063 	ldrbvc	r0, [r3, -r3, rrx]!
 630:	7261755f 	rsbvc	r7, r1, #398458880	; 0x17c00000
 634:	75705f74 	ldrbvc	r5, [r0, #-3956]!	; 0xf74
 638:	67006b74 	smlsdxvs	r0, r4, fp, r6
 63c:	5f6f6970 	svcpl	0x006f6970
 640:	64616572 	strbtvs	r6, [r1], #-1394	; 0x572
 644:	2d796d00 	ldclcs	13, cr6, [r9, #-0]
 648:	2f637273 	svccs	0x00637273
 64c:	752d7773 	strvc	r7, [sp, #-1907]!	; 0x773
 650:	2e747261 	cdpcs	2, 7, cr7, cr4, cr1, {3}
 654:	68630063 	stmdavs	r3!, {r0, r1, r5, r6}^
 658:	695f7261 	ldmdbvs	pc, {r0, r5, r6, r9, ip, sp, lr}^	; <UNPREDICTABLE>
 65c:	7773006e 	ldrbvc	r0, [r3, -lr, rrx]!
 660:	7261755f 	rsbvc	r7, r1, #398458880	; 0x17c00000
 664:	65675f74 	strbvs	r5, [r7, #-3956]!	; 0xf74
 668:	745f7374 	ldrbvc	r7, [pc], #-884	; 670 <_start-0x7990>
 66c:	6f656d69 	svcvs	0x00656d69
 670:	5f007475 	svcpl	0x00007475
 674:	0074756f 	rsbseq	r7, r4, pc, ror #10
 678:	7479626e 	ldrbtvc	r6, [r9], #-622	; 0x26e
 67c:	67007365 	strvs	r7, [r0, -r5, ror #6]
 680:	5f6f6970 	svcpl	0x006f6970
 684:	74697277 	strbtvc	r7, [r9], #-631	; 0x277
 688:	73750065 	cmnvc	r5, #101	; 0x65
 68c:	745f6365 	ldrbvc	r6, [pc], #-869	; 694 <_start-0x796c>
 690:	6f656d69 	svcvs	0x00656d69
 694:	67007475 	smlsdxvs	r0, r5, r4, r7
 698:	5f6f6970 	svcpl	0x006f6970
 69c:	5f746573 	svcpl	0x00746573
 6a0:	75706e69 	ldrbvc	r6, [r0, #-3689]!	; 0xe69
 6a4:	77730074 			; <UNDEFINED> instruction: 0x77730074
 6a8:	7261755f 	rsbvc	r7, r1, #398458880	; 0x17c00000
 6ac:	65675f74 	strbvs	r5, [r7, #-3956]!	; 0xf74
 6b0:	755f7374 	ldrbvc	r7, [pc, #-884]	; 344 <_start-0x7cbc>
 6b4:	6c69746e 	cfstrdvs	mvd7, [r9], #-440	; 0xfffffe48
 6b8:	6b6c625f 	blvs	1b1903c <__bss_end__+0x1b0f1dc>
 6bc:	69706700 	ldmdbvs	r0!, {r8, r9, sl, sp, lr}^
 6c0:	65735f6f 	ldrbvs	r5, [r3, #-3951]!	; 0xf6f
 6c4:	756f5f74 	strbvc	r5, [pc, #-3956]!	; fffff758 <__bss_end__+0xffff58f8>
 6c8:	74757074 	ldrbtvc	r7, [r5], #-116	; 0x74
 6cc:	69617700 	stmdbvs	r1!, {r8, r9, sl, ip, sp, lr}^
 6d0:	6e755f74 	mrcvs	15, 3, r5, cr5, cr4, {3}
 6d4:	5f6c6974 	svcpl	0x006c6974
 6d8:	63657375 	cmnvs	r5, #-738197503	; 0xd4000001
 6dc:	69706700 	ldmdbvs	r0!, {r8, r9, sl, sp, lr}^
 6e0:	76655f6f 	strbtvc	r5, [r5], -pc, ror #30
 6e4:	5f746e65 	svcpl	0x00746e65
 6e8:	65746564 	ldrbvs	r6, [r4, #-1380]!	; 0x564
 6ec:	64657463 	strbtvs	r7, [r5], #-1123	; 0x463
 6f0:	74757000 	ldrbtvc	r7, [r5], #-0
 6f4:	47003233 	smladxmi	r0, r3, r2, r3
 6f8:	45534650 	ldrbmi	r4, [r3, #-1616]	; 0x650
 6fc:	4700324c 	strmi	r3, [r0, -ip, asr #4]
 700:	524c4350 	subpl	r4, ip, #80, 6	; 0x40000001
 704:	4e450030 	mcrmi	0, 2, r0, cr5, cr0, {1}
 708:	454c4241 	strbmi	r4, [ip, #-577]	; 0x241
 70c:	5152495f 	cmppl	r2, pc, asr r9
 710:	00325f53 	eorseq	r5, r2, r3, asr pc
 714:	675f7369 	ldrbvs	r7, [pc, -r9, ror #6]
 718:	5f6f6970 	svcpl	0x006f6970
 71c:	00746e69 	rsbseq	r6, r4, r9, ror #28
 720:	4f495047 	svcmi	0x00495047
 724:	4e55465f 	mrcmi	6, 2, r4, cr5, cr15, {2}
 728:	4e495f43 	cdpmi	15, 4, cr5, cr9, cr3, {2}
 72c:	00545550 	subseq	r5, r4, r0, asr r5
 730:	6f697067 	svcvs	0x00697067
 734:	7465735f 	strbtvc	r7, [r5], #-863	; 0x35f
 738:	66666f5f 	uqsaxvs	r6, r6, pc	; <UNPREDICTABLE>
 73c:	2d796d00 	ldclcs	13, cr6, [r9, #-0]
 740:	2f637273 	svccs	0x00637273
 744:	6f697067 	svcvs	0x00697067
 748:	6900632e 	stmdbvs	r0, {r1, r2, r3, r5, r8, r9, sp, lr}
 74c:	6d5f746e 	cfldrdvs	mvd7, [pc, #-440]	; 59c <_start-0x7a64>
 750:	006b7361 	rsbeq	r7, fp, r1, ror #6
 754:	45535047 	ldrbmi	r5, [r3, #-71]	; 0x47
 758:	47003054 	smlsdmi	r0, r4, r0, r3
 75c:	54455350 	strbpl	r5, [r5], #-848	; 0x350
 760:	65720031 	ldrbvs	r0, [r2, #-49]!	; 0x31
 764:	74735f67 	ldrbtvc	r5, [r3], #-3943	; 0xf67
 768:	47007461 	strmi	r7, [r0, -r1, ror #8]
 76c:	56454c50 			; <UNDEFINED> instruction: 0x56454c50
 770:	50470030 	subpl	r0, r7, r0, lsr r0
 774:	3156454c 	cmpcc	r6, ip, asr #10
 778:	69706700 	ldmdbvs	r0!, {r8, r9, sl, sp, lr}^
 77c:	65725f6f 	ldrbvs	r5, [r2, #-3951]!	; 0xf6f
 780:	50470067 	subpl	r0, r7, r7, rrx
 784:	4c455346 	mcrrmi	3, 4, r5, r5, cr6
 788:	50470030 	subpl	r0, r7, r0, lsr r0
 78c:	4c455346 	mcrrmi	3, 4, r5, r5, cr6
 790:	50470031 	subpl	r0, r7, r1, lsr r0
 794:	4c455346 	mcrrmi	3, 4, r5, r5, cr6
 798:	50470033 	subpl	r0, r7, r3, lsr r0
 79c:	4c455346 	mcrrmi	3, 4, r5, r5, cr6
 7a0:	50470034 	subpl	r0, r7, r4, lsr r0
 7a4:	4c455346 	mcrrmi	3, 4, r5, r5, cr6
 7a8:	65640035 	strbvs	r0, [r4, #-53]!	; 0x35
 7ac:	61625f76 	smcvs	9718	; 0x25f6
 7b0:	65697272 	strbvs	r7, [r9, #-626]!	; 0x272
 7b4:	70670072 	rsbvc	r0, r7, r2, ror r0
 7b8:	665f6f69 	ldrbvs	r6, [pc], -r9, ror #30
 7bc:	306c6573 	rsbcc	r6, ip, r3, ror r5
 7c0:	43504700 	cmpmi	r0, #0, 14
 7c4:	0031524c 	eorseq	r5, r1, ip, asr #4
 7c8:	6f697067 	svcvs	0x00697067
 7cc:	746e695f 	strbtvc	r6, [lr], #-2399	; 0x95f
 7d0:	7369725f 	cmnvc	r9, #-268435451	; 0xf0000005
 7d4:	5f676e69 	svcpl	0x00676e69
 7d8:	65676465 	strbvs	r6, [r7, #-1125]!	; 0x465
 7dc:	69706700 	ldmdbvs	r0!, {r8, r9, sl, sp, lr}^
 7e0:	65735f6f 	ldrbvs	r5, [r3, #-3951]!	; 0xf6f
 7e4:	75665f74 	strbvc	r5, [r6, #-3956]!	; 0xf74
 7e8:	6974636e 	ldmdbvs	r4!, {r1, r2, r3, r5, r6, r8, r9, sp, lr}^
 7ec:	47006e6f 	strmi	r6, [r0, -pc, ror #28]
 7f0:	4e455250 	mcrmi	2, 2, r5, cr5, cr0, {2}
 7f4:	50470030 	subpl	r0, r7, r0, lsr r0
 7f8:	314e4552 	cmpcc	lr, r2, asr r5
 7fc:	69706700 	ldmdbvs	r0!, {r8, r9, sl, sp, lr}^
 800:	76655f6f 	strbtvc	r5, [r5], -pc, ror #30
 804:	5f746e65 	svcpl	0x00746e65
 808:	61656c63 	cmnvs	r5, r3, ror #24
 80c:	52490072 	subpl	r0, r9, #114	; 0x72
 810:	45505f51 	ldrbmi	r5, [r0, #-3921]	; 0xf51
 814:	4e49444e 	cdpmi	4, 4, cr4, cr9, cr14, {2}
 818:	00315f47 	eorseq	r5, r1, r7, asr #30
 81c:	5f515249 	svcpl	0x00515249
 820:	444e4550 	strbmi	r4, [lr], #-1360	; 0x550
 824:	5f474e49 	svcpl	0x00474e49
 828:	69620032 	stmdbvs	r2!, {r1, r4, r5}^
 82c:	73616d74 	cmnvc	r1, #116, 26	; 0x1d00
 830:	7067006b 	rsbvc	r0, r7, fp, rrx
 834:	735f6f69 	cmpvc	pc, #420	; 0x1a4
 838:	00307465 	eorseq	r7, r0, r5, ror #8
 83c:	636e7566 	cmnvs	lr, #427819008	; 0x19800000
 840:	45504700 	ldrbmi	r4, [r0, #-1792]	; 0x700
 844:	00305344 	eorseq	r5, r0, r4, asr #6
 848:	44455047 	strbmi	r5, [r5], #-71	; 0x47
 84c:	67003153 	smlsdvs	r0, r3, r1, r3
 850:	5f6f6970 	svcpl	0x006f6970
 854:	5f746573 	svcpl	0x00746573
 858:	47006e6f 	strmi	r6, [r0, -pc, ror #28]
 85c:	4e454650 	mcrmi	6, 2, r4, cr5, cr0, {2}
 860:	50470030 	subpl	r0, r7, r0, lsr r0
 864:	314e4546 	cmpcc	lr, r6, asr #10
 868:	49504700 	ldmdbmi	r0, {r8, r9, sl, lr}^
 86c:	55465f4f 	strbpl	r5, [r6, #-3919]	; 0xf4f
 870:	4f5f434e 	svcmi	0x005f434e
 874:	55505455 	ldrbpl	r5, [r0, #-1109]	; 0x455
 878:	65670054 	strbvs	r0, [r7, #-84]!	; 0x54
 87c:	00323374 	eorseq	r3, r2, r4, ror r3
 880:	6f697067 	svcvs	0x00697067
 884:	746e695f 	strbtvc	r6, [lr], #-2399	; 0x95f
 888:	6c61665f 	stclvs	6, cr6, [r1], #-380	; 0xfffffe84
 88c:	676e696c 	strbvs	r6, [lr, -ip, ror #18]!
 890:	6764655f 			; <UNDEFINED> instruction: 0x6764655f
 894:	70670065 	rsbvc	r0, r7, r5, rrx
 898:	665f6f69 	ldrbvs	r6, [pc], -r9, ror #30
 89c:	5f636e75 	svcpl	0x00636e75
 8a0:	50470074 	subpl	r0, r7, r4, ror r0
 8a4:	465f4f49 	ldrbmi	r4, [pc], -r9, asr #30
 8a8:	5f434e55 	svcpl	0x00434e55
 8ac:	30544c41 	subscc	r4, r4, r1, asr #24
 8b0:	49504700 	ldmdbmi	r0, {r8, r9, sl, lr}^
 8b4:	55465f4f 	strbpl	r5, [r6, #-3919]	; 0xf4f
 8b8:	415f434e 	cmpmi	pc, lr, asr #6
 8bc:	0031544c 	eorseq	r5, r1, ip, asr #8
 8c0:	4f495047 	svcmi	0x00495047
 8c4:	4e55465f 	mrcmi	6, 2, r4, cr5, cr15, {2}
 8c8:	4c415f43 	mcrrmi	15, 4, r5, r1, cr3
 8cc:	47003254 	smlsdmi	r0, r4, r2, r3
 8d0:	5f4f4950 	svcpl	0x004f4950
 8d4:	434e5546 	movtmi	r5, #58694	; 0xe546
 8d8:	544c415f 	strbpl	r4, [ip], #-351	; 0x15f
 8dc:	50470033 	subpl	r0, r7, r3, lsr r0
 8e0:	465f4f49 	ldrbmi	r4, [pc], -r9, asr #30
 8e4:	5f434e55 	svcpl	0x00434e55
 8e8:	34544c41 	ldrbcc	r4, [r4], #-3137	; 0xc41
 8ec:	49504700 	ldmdbmi	r0, {r8, r9, sl, lr}^
 8f0:	55465f4f 	strbpl	r5, [r6, #-3919]	; 0xf4f
 8f4:	415f434e 	cmpmi	pc, lr, asr #6
 8f8:	0035544c 	eorseq	r5, r5, ip, asr #8
 8fc:	5f676572 	svcpl	0x00676572
 900:	656c6573 	strbvs	r6, [ip, #-1395]!	; 0x573
 904:	67007463 	strvs	r7, [r0, -r3, ror #8]
 908:	5f6f6970 	svcpl	0x006f6970
 90c:	30726c63 	rsbscc	r6, r2, r3, ror #24
 910:	746e6900 	strbtvc	r6, [lr], #-2304	; 0x900
 914:	616e7265 	cmnvs	lr, r5, ror #4
 918:	75705f6c 	ldrbvc	r5, [r0, #-3948]!	; 0xf6c
 91c:	61686374 	smcvs	34356	; 0x8634
 920:	696c0072 	stmdbvs	ip!, {r1, r4, r5, r6}^
 924:	702f6362 	eorvc	r6, pc, r2, ror #6
 928:	68637475 	stmdavs	r3!, {r0, r2, r4, r5, r6, sl, ip, sp, lr}^
 92c:	632e7261 	teqvs	lr, #268435462	; 0x10000006
 930:	69707200 	ldmdbvs	r0!, {r9, ip, sp, lr}^
 934:	7465735f 	strbtvc	r7, [r5], #-863	; 0x35f
 938:	7475705f 	ldrbtvc	r7, [r5], #-95	; 0x5f
 93c:	69730063 	ldmdbvs	r3!, {r0, r1, r5, r6}^
 940:	745f657a 	ldrbvc	r6, [pc], #-1402	; 948 <_start-0x76b8>
 944:	6d656d00 	stclvs	13, cr6, [r5, #-0]
 948:	00746573 	rsbseq	r6, r4, r3, ror r5
 94c:	6e5f6263 	cdpvs	2, 5, cr6, cr15, cr3, {3}
 950:	63007765 	movwvs	r7, #1893	; 0x765
 954:	30343173 	eorscc	r3, r4, r3, ror r1
 958:	72732d65 	rsbsvc	r2, r3, #6464	; 0x1940
 95c:	6f632f63 	svcvs	0x00632f63
 960:	6f72746e 	svcvs	0x0072746e
 964:	6c622d6c 	stclvs	13, cr2, [r2], #-432	; 0xfffffe50
 968:	2e6b636f 	cdpcs	3, 6, cr6, cr11, cr15, {3}
 96c:	55410063 	strbpl	r0, [r1, #-99]	; 0x63
 970:	554d5f58 	strbpl	r5, [sp, #-3928]	; 0xf58
 974:	52434d5f 	subpl	r4, r3, #6080	; 0x17c0
 978:	4745525f 	smlsldmi	r5, r5, pc, r2	; <UNPREDICTABLE>
 97c:	58554100 	ldmdapl	r5, {r8, lr}^
 980:	5f554d5f 	svcpl	0x00554d5f
 984:	525f4f49 	subspl	r4, pc, #292	; 0x124
 988:	41004745 	tstmi	r0, r5, asr #14
 98c:	4d5f5855 	ldclmi	8, cr5, [pc, #-340]	; 840 <_start-0x77c0>
 990:	534d5f55 	movtpl	r5, #57173	; 0xdf55
 994:	45525f52 	ldrbmi	r5, [r2, #-3922]	; 0xf52
 998:	61750047 	cmnvs	r5, r7, asr #32
 99c:	635f7472 	cmpvs	pc, #1912602624	; 0x72000000
 9a0:	675f6e61 	ldrbvs	r6, [pc, -r1, ror #28]
 9a4:	00637465 	rsbeq	r7, r3, r5, ror #8
 9a8:	5f585541 	svcpl	0x00585541
 9ac:	435f554d 	cmpmi	pc, #322961408	; 0x13400000
 9b0:	5f4c544e 	svcpl	0x004c544e
 9b4:	00474552 	subeq	r4, r7, r2, asr r5
 9b8:	74726175 	ldrbtvc	r6, [r2], #-373	; 0x175
 9bc:	7361685f 	cmnvc	r1, #6225920	; 0x5f0000
 9c0:	7461645f 	strbtvc	r6, [r1], #-1119	; 0x45f
 9c4:	61750061 	cmnvs	r5, r1, rrx
 9c8:	695f7472 	ldmdbvs	pc, {r1, r4, r5, r6, sl, ip, sp, lr}^	; <UNPREDICTABLE>
 9cc:	0074696e 	rsbseq	r6, r4, lr, ror #18
 9d0:	5f585541 	svcpl	0x00585541
 9d4:	495f554d 	ldmdbmi	pc, {r0, r2, r3, r6, r8, sl, ip, lr}^	; <UNPREDICTABLE>
 9d8:	525f5245 	subspl	r5, pc, #1342177284	; 0x50000004
 9dc:	41004745 	tstmi	r0, r5, asr #14
 9e0:	4d5f5855 	ldclmi	8, cr5, [pc, #-340]	; 894 <_start-0x776c>
 9e4:	49495f55 	stmdbmi	r9, {r0, r2, r4, r6, r8, r9, sl, fp, ip, lr}^
 9e8:	45525f52 	ldrbmi	r5, [r2, #-3922]	; 0xf52
 9ec:	61750047 	cmnvs	r5, r7, asr #32
 9f0:	635f7472 	cmpvs	pc, #1912602624	; 0x72000000
 9f4:	705f6e61 	subsvc	r6, pc, r1, ror #28
 9f8:	00637475 	rsbeq	r7, r3, r5, ror r4
 9fc:	5f585541 	svcpl	0x00585541
 a00:	42414e45 	submi	r4, r1, #1104	; 0x450
 a04:	0053454c 	subseq	r4, r3, ip, asr #10
 a08:	5f585541 	svcpl	0x00585541
 a0c:	00515249 	subseq	r5, r1, r9, asr #4
 a10:	5f585541 	svcpl	0x00585541
 a14:	425f554d 	subsmi	r5, pc, #322961408	; 0x13400000
 a18:	5f445541 	svcpl	0x00445541
 a1c:	00474552 	subeq	r4, r7, r2, asr r5
 a20:	5f585541 	svcpl	0x00585541
 a24:	535f554d 	cmppl	pc, #322961408	; 0x13400000
 a28:	5f544154 	svcpl	0x00544154
 a2c:	00474552 	subeq	r4, r7, r2, asr r5
 a30:	5f585541 	svcpl	0x00585541
 a34:	535f554d 	cmppl	pc, #322961408	; 0x13400000
 a38:	54415243 	strbpl	r5, [r1], #-579	; 0x243
 a3c:	6d004843 	stcvs	8, cr4, [r0, #-268]	; 0xfffffef4
 a40:	72732d79 	rsbsvc	r2, r3, #7744	; 0x1e40
 a44:	61752f63 	cmnvs	r5, r3, ror #30
 a48:	632e7472 	teqvs	lr, #1912602624	; 0x72000000
 a4c:	58554100 	ldmdapl	r5, {r8, lr}^
 a50:	5f554d5f 	svcpl	0x00554d5f
 a54:	5f52434c 	svcpl	0x0052434c
 a58:	00474552 	subeq	r4, r7, r2, asr r5
 a5c:	5f585541 	svcpl	0x00585541
 a60:	4c5f554d 	cfldr64mi	mvdx5, [pc], {77}	; 0x4d
 a64:	525f5253 	subspl	r5, pc, #805306373	; 0x30000005
 a68:	75004745 	strvc	r4, [r0, #-1861]	; 0x745
 a6c:	5f747261 	svcpl	0x00747261
 a70:	63746567 	cmnvs	r4, #432013312	; 0x19c00000
 a74:	7973615f 	ldmdbvc	r3!, {r0, r1, r2, r3, r4, r6, r8, sp, lr}^
 a78:	6c00636e 	stcvs	3, cr6, [r0], {110}	; 0x6e
 a7c:	2f636269 	svccs	0x00636269
 a80:	736d656d 	cmnvc	sp, #457179136	; 0x1b400000
 a84:	632e7465 	teqvs	lr, #1694498816	; 0x65000000
	...

Disassembly of section .debug_frame:

00000000 <.debug_frame>:
   0:	0000000c 	andeq	r0, r0, ip
   4:	ffffffff 			; <UNDEFINED> instruction: 0xffffffff
   8:	7c020001 	stcvc	0, cr0, [r2], {1}
   c:	000d0c0e 	andeq	r0, sp, lr, lsl #24
  10:	00000014 	andeq	r0, r0, r4, lsl r0
  14:	00000000 	andeq	r0, r0, r0
  18:	00008010 	andeq	r8, r0, r0, lsl r0
  1c:	00000014 	andeq	r0, r0, r4, lsl r0
  20:	83080e42 	movwhi	r0, #36418	; 0x8e42
  24:	00018e02 	andeq	r8, r1, r2, lsl #28
  28:	00000014 	andeq	r0, r0, r4, lsl r0
  2c:	00000000 	andeq	r0, r0, r0
  30:	00008024 	andeq	r8, r0, r4, lsr #32
  34:	00000018 	andeq	r0, r0, r8, lsl r0
  38:	83080e42 	movwhi	r0, #36418	; 0x8e42
  3c:	00018e02 	andeq	r8, r1, r2, lsl #28
  40:	00000018 	andeq	r0, r0, r8, lsl r0
  44:	00000000 	andeq	r0, r0, r0
  48:	0000803c 	andeq	r8, r0, ip, lsr r0
  4c:	000000c8 	andeq	r0, r0, r8, asr #1
  50:	84100e42 	ldrhi	r0, [r0], #-3650	; 0xe42
  54:	86038504 	strhi	r8, [r3], -r4, lsl #10
  58:	00018e02 	andeq	r8, r1, r2, lsl #28
  5c:	0000000c 	andeq	r0, r0, ip
  60:	ffffffff 			; <UNDEFINED> instruction: 0xffffffff
  64:	7c020001 	stcvc	0, cr0, [r2], {1}
  68:	000d0c0e 	andeq	r0, sp, lr, lsl #24
  6c:	00000024 	andeq	r0, r0, r4, lsr #32
  70:	0000005c 	andeq	r0, r0, ip, asr r0
  74:	00008104 	andeq	r8, r0, r4, lsl #2
  78:	00000058 	andeq	r0, r0, r8, asr r0
  7c:	80100e42 	andshi	r0, r0, r2, asr #28
  80:	82038104 	andhi	r8, r3, #4, 2
  84:	42018302 	andmi	r8, r1, #134217728	; 0x8000000
  88:	07841c0e 	streq	r1, [r4, lr, lsl #24]
  8c:	058e0685 	streq	r0, [lr, #1669]	; 0x685
  90:	00280e42 	eoreq	r0, r8, r2, asr #28
  94:	0000000c 	andeq	r0, r0, ip
  98:	ffffffff 			; <UNDEFINED> instruction: 0xffffffff
  9c:	7c020001 	stcvc	0, cr0, [r2], {1}
  a0:	000d0c0e 	andeq	r0, sp, lr, lsl #24
  a4:	00000018 	andeq	r0, r0, r8, lsl r0
  a8:	00000094 	muleq	r0, r4, r0
  ac:	0000815c 	andeq	r8, r0, ip, asr r1
  b0:	00000034 	andeq	r0, r0, r4, lsr r0
  b4:	83100e42 	tsthi	r0, #1056	; 0x420
  b8:	85038404 	strhi	r8, [r3, #-1028]	; 0x404
  bc:	00018e02 	andeq	r8, r1, r2, lsl #28
  c0:	0000000c 	andeq	r0, r0, ip
  c4:	ffffffff 			; <UNDEFINED> instruction: 0xffffffff
  c8:	7c020001 	stcvc	0, cr0, [r2], {1}
  cc:	000d0c0e 	andeq	r0, sp, lr, lsl #24
  d0:	0000000c 	andeq	r0, r0, ip
  d4:	000000c0 	andeq	r0, r0, r0, asr #1
  d8:	00008190 	muleq	r0, r0, r1
  dc:	00000014 	andeq	r0, r0, r4, lsl r0
  e0:	0000000c 	andeq	r0, r0, ip
  e4:	000000c0 	andeq	r0, r0, r0, asr #1
  e8:	000081a4 	andeq	r8, r0, r4, lsr #3
  ec:	0000002c 	andeq	r0, r0, ip, lsr #32
  f0:	0000000c 	andeq	r0, r0, ip
  f4:	000000c0 	andeq	r0, r0, r0, asr #1
  f8:	000081d0 	ldrdeq	r8, [r0], -r0
  fc:	00000040 	andeq	r0, r0, r0, asr #32
 100:	00000020 	andeq	r0, r0, r0, lsr #32
 104:	000000c0 	andeq	r0, r0, r0, asr #1
 108:	00008210 	andeq	r8, r0, r0, lsl r2
 10c:	000001a8 	andeq	r0, r0, r8, lsr #3
 110:	84180e42 	ldrhi	r0, [r8], #-3650	; 0xe42
 114:	86058506 	strhi	r8, [r5], -r6, lsl #10
 118:	88038704 	stmdahi	r3, {r2, r8, r9, sl, pc}
 11c:	42018e02 	andmi	r8, r1, #2, 28
 120:	0000600e 	andeq	r6, r0, lr
 124:	00000014 	andeq	r0, r0, r4, lsl r0
 128:	000000c0 	andeq	r0, r0, r0, asr #1
 12c:	000083b8 			; <UNDEFINED> instruction: 0x000083b8
 130:	00000068 	andeq	r0, r0, r8, rrx
 134:	8e040e42 	cdphi	14, 0, cr0, cr4, cr2, {2}
 138:	100e4201 	andne	r4, lr, r1, lsl #4
 13c:	00000028 	andeq	r0, r0, r8, lsr #32
 140:	000000c0 	andeq	r0, r0, r0, asr #1
 144:	00008420 	andeq	r8, r0, r0, lsr #8
 148:	00000294 	muleq	r0, r4, r2
 14c:	84240e42 	strthi	r0, [r4], #-3650	; 0xe42
 150:	86088509 	strhi	r8, [r8], -r9, lsl #10
 154:	88068707 	stmdahi	r6, {r0, r1, r2, r8, r9, sl, pc}
 158:	8a048905 	bhi	122574 <__bss_end__+0x118714>
 15c:	8e028b03 	vmlahi.f64	d8, d2, d3
 160:	b00e4201 	andlt	r4, lr, r1, lsl #4
 164:	00000001 	andeq	r0, r0, r1
 168:	0000000c 	andeq	r0, r0, ip
 16c:	ffffffff 			; <UNDEFINED> instruction: 0xffffffff
 170:	7c020001 	stcvc	0, cr0, [r2], {1}
 174:	000d0c0e 	andeq	r0, sp, lr, lsl #24
 178:	00000014 	andeq	r0, r0, r4, lsl r0
 17c:	00000168 	andeq	r0, r0, r8, ror #2
 180:	000086b4 			; <UNDEFINED> instruction: 0x000086b4
 184:	00000028 	andeq	r0, r0, r8, lsr #32
 188:	83080e42 	movwhi	r0, #36418	; 0x8e42
 18c:	00018e02 	andeq	r8, r1, r2, lsl #28
 190:	0000000c 	andeq	r0, r0, ip
 194:	ffffffff 			; <UNDEFINED> instruction: 0xffffffff
 198:	7c020001 	stcvc	0, cr0, [r2], {1}
 19c:	000d0c0e 	andeq	r0, sp, lr, lsl #24
 1a0:	00000014 	andeq	r0, r0, r4, lsl r0
 1a4:	00000190 	muleq	r0, r0, r1
 1a8:	000086dc 	ldrdeq	r8, [r0], -ip
 1ac:	00000020 	andeq	r0, r0, r0, lsr #32
 1b0:	84080e42 	strhi	r0, [r8], #-3650	; 0xe42
 1b4:	00018e02 	andeq	r8, r1, r2, lsl #28
 1b8:	00000014 	andeq	r0, r0, r4, lsl r0
 1bc:	00000190 	muleq	r0, r0, r1
 1c0:	000086fc 	strdeq	r8, [r0], -ip
 1c4:	00000090 	muleq	r0, r0, r0
 1c8:	83080e42 	movwhi	r0, #36418	; 0x8e42
 1cc:	00018e02 	andeq	r8, r1, r2, lsl #28
 1d0:	0000000c 	andeq	r0, r0, ip
 1d4:	ffffffff 			; <UNDEFINED> instruction: 0xffffffff
 1d8:	7c020001 	stcvc	0, cr0, [r2], {1}
 1dc:	000d0c0e 	andeq	r0, sp, lr, lsl #24
 1e0:	0000000c 	andeq	r0, r0, ip
 1e4:	000001d0 	ldrdeq	r0, [r0], -r0	; <UNPREDICTABLE>
 1e8:	0000878c 	andeq	r8, r0, ip, lsl #15
 1ec:	00000018 	andeq	r0, r0, r8, lsl r0
 1f0:	0000000c 	andeq	r0, r0, ip
 1f4:	000001d0 	ldrdeq	r0, [r0], -r0	; <UNPREDICTABLE>
 1f8:	000087a4 	andeq	r8, r0, r4, lsr #15
 1fc:	00000014 	andeq	r0, r0, r4, lsl r0
 200:	00000014 	andeq	r0, r0, r4, lsl r0
 204:	000001d0 	ldrdeq	r0, [r0], -r0	; <UNPREDICTABLE>
 208:	000087b8 			; <UNDEFINED> instruction: 0x000087b8
 20c:	00000048 	andeq	r0, r0, r8, asr #32
 210:	83080e42 	movwhi	r0, #36418	; 0x8e42
 214:	00018e02 	andeq	r8, r1, r2, lsl #28
 218:	0000000c 	andeq	r0, r0, ip
 21c:	ffffffff 			; <UNDEFINED> instruction: 0xffffffff
 220:	7c020001 	stcvc	0, cr0, [r2], {1}
 224:	000d0c0e 	andeq	r0, sp, lr, lsl #24
 228:	0000000c 	andeq	r0, r0, ip
 22c:	00000218 	andeq	r0, r0, r8, lsl r2
 230:	00008800 	andeq	r8, r0, r0, lsl #16
 234:	0000001c 	andeq	r0, r0, ip, lsl r0
 238:	00000014 	andeq	r0, r0, r4, lsl r0
 23c:	00000218 	andeq	r0, r0, r8, lsl r2
 240:	0000881c 	andeq	r8, r0, ip, lsl r8
 244:	00000014 	andeq	r0, r0, r4, lsl r0
 248:	83080e42 	movwhi	r0, #36418	; 0x8e42
 24c:	00018e02 	andeq	r8, r1, r2, lsl #28
 250:	00000014 	andeq	r0, r0, r4, lsl r0
 254:	00000218 	andeq	r0, r0, r8, lsl r2
 258:	00008830 	andeq	r8, r0, r0, lsr r8
 25c:	0000000c 	andeq	r0, r0, ip
 260:	83080e42 	movwhi	r0, #36418	; 0x8e42
 264:	00018e02 	andeq	r8, r1, r2, lsl #28
 268:	00000018 	andeq	r0, r0, r8, lsl r0
 26c:	00000218 	andeq	r0, r0, r8, lsl r2
 270:	0000883c 	andeq	r8, r0, ip, lsr r8
 274:	00000024 	andeq	r0, r0, r4, lsr #32
 278:	83100e42 	tsthi	r0, #1056	; 0x420
 27c:	85038404 	strhi	r8, [r3, #-1028]	; 0x404
 280:	00018e02 	andeq	r8, r1, r2, lsl #28
 284:	00000014 	andeq	r0, r0, r4, lsl r0
 288:	00000218 	andeq	r0, r0, r8, lsl r2
 28c:	00008860 	andeq	r8, r0, r0, ror #16
 290:	00000014 	andeq	r0, r0, r4, lsl r0
 294:	83080e42 	movwhi	r0, #36418	; 0x8e42
 298:	00018e02 	andeq	r8, r1, r2, lsl #28
 29c:	00000014 	andeq	r0, r0, r4, lsl r0
 2a0:	00000218 	andeq	r0, r0, r8, lsl r2
 2a4:	00008874 	andeq	r8, r0, r4, ror r8
 2a8:	00000014 	andeq	r0, r0, r4, lsl r0
 2ac:	83080e42 	movwhi	r0, #36418	; 0x8e42
 2b0:	00018e02 	andeq	r8, r1, r2, lsl #28
 2b4:	0000000c 	andeq	r0, r0, ip
 2b8:	ffffffff 			; <UNDEFINED> instruction: 0xffffffff
 2bc:	7c020001 	stcvc	0, cr0, [r2], {1}
 2c0:	000d0c0e 	andeq	r0, sp, lr, lsl #24
 2c4:	0000001c 	andeq	r0, r0, ip, lsl r0
 2c8:	000002b4 			; <UNDEFINED> instruction: 0x000002b4
 2cc:	00008888 	andeq	r8, r0, r8, lsl #17
 2d0:	00000154 	andeq	r0, r0, r4, asr r1
 2d4:	84180e42 	ldrhi	r0, [r8], #-3650	; 0xe42
 2d8:	86058506 	strhi	r8, [r5], -r6, lsl #10
 2dc:	88038704 	stmdahi	r3, {r2, r8, r9, sl, pc}
 2e0:	00018e02 	andeq	r8, r1, r2, lsl #28
 2e4:	00000020 	andeq	r0, r0, r0, lsr #32
 2e8:	000002b4 			; <UNDEFINED> instruction: 0x000002b4
 2ec:	000089dc 	ldrdeq	r8, [r0], -ip
 2f0:	000001c8 	andeq	r0, r0, r8, asr #3
 2f4:	83200e42 	teqhi	r0, #1056	; 0x420
 2f8:	85078408 	strhi	r8, [r7, #-1032]	; 0x408
 2fc:	87058606 	strhi	r8, [r5, -r6, lsl #12]
 300:	89038804 	stmdbhi	r3, {r2, fp, pc}
 304:	00018e02 	andeq	r8, r1, r2, lsl #28
 308:	00000024 	andeq	r0, r0, r4, lsr #32
 30c:	000002b4 			; <UNDEFINED> instruction: 0x000002b4
 310:	00008ba4 	andeq	r8, r0, r4, lsr #23
 314:	000000a4 	andeq	r0, r0, r4, lsr #1
 318:	84200e42 	strthi	r0, [r0], #-3650	; 0xe42
 31c:	86078508 	strhi	r8, [r7], -r8, lsl #10
 320:	88058706 	stmdahi	r5, {r1, r2, r8, r9, sl, pc}
 324:	8a038904 	bhi	e273c <__bss_end__+0xd88dc>
 328:	42018e02 	andmi	r8, r1, #2, 28
 32c:	0000280e 	andeq	r2, r0, lr, lsl #16
 330:	00000020 	andeq	r0, r0, r0, lsr #32
 334:	000002b4 			; <UNDEFINED> instruction: 0x000002b4
 338:	00008c48 	andeq	r8, r0, r8, asr #24
 33c:	00000090 	muleq	r0, r0, r0
 340:	84180e42 	ldrhi	r0, [r8], #-3650	; 0xe42
 344:	86058506 	strhi	r8, [r5], -r6, lsl #10
 348:	88038704 	stmdahi	r3, {r2, r8, r9, sl, pc}
 34c:	42018e02 	andmi	r8, r1, #2, 28
 350:	0000200e 	andeq	r2, r0, lr
 354:	00000020 	andeq	r0, r0, r0, lsr #32
 358:	000002b4 			; <UNDEFINED> instruction: 0x000002b4
 35c:	00008cd8 	ldrdeq	r8, [r0], -r8	; <UNPREDICTABLE>
 360:	000000d4 	ldrdeq	r0, [r0], -r4
 364:	84180e42 	ldrhi	r0, [r8], #-3650	; 0xe42
 368:	86058506 	strhi	r8, [r5], -r6, lsl #10
 36c:	88038704 	stmdahi	r3, {r2, r8, r9, sl, pc}
 370:	42018e02 	andmi	r8, r1, #2, 28
 374:	0000200e 	andeq	r2, r0, lr
 378:	00000014 	andeq	r0, r0, r4, lsl r0
 37c:	000002b4 			; <UNDEFINED> instruction: 0x000002b4
 380:	00008dac 	andeq	r8, r0, ip, lsr #27
 384:	0000003c 	andeq	r0, r0, ip, lsr r0
 388:	83080e42 	movwhi	r0, #36418	; 0x8e42
 38c:	00018e02 	andeq	r8, r1, r2, lsl #28
 390:	00000018 	andeq	r0, r0, r8, lsl r0
 394:	000002b4 			; <UNDEFINED> instruction: 0x000002b4
 398:	00008de8 	andeq	r8, r0, r8, ror #27
 39c:	0000002c 	andeq	r0, r0, ip, lsr #32
 3a0:	83100e42 	tsthi	r0, #1056	; 0x420
 3a4:	85038404 	strhi	r8, [r3, #-1028]	; 0x404
 3a8:	00018e02 	andeq	r8, r1, r2, lsl #28
 3ac:	00000024 	andeq	r0, r0, r4, lsr #32
 3b0:	000002b4 			; <UNDEFINED> instruction: 0x000002b4
 3b4:	00008e14 	andeq	r8, r0, r4, lsl lr
 3b8:	00000090 	muleq	r0, r0, r0
 3bc:	810c0e42 	tsthi	ip, r2, asr #28
 3c0:	83028203 	movwhi	r8, #8707	; 0x2203
 3c4:	180e4201 	stmdane	lr, {r0, r9, lr}
 3c8:	05850684 	streq	r0, [r5, #1668]	; 0x684
 3cc:	0e42048e 	cdpeq	4, 4, cr0, cr2, cr14, {4}
 3d0:	000003f0 	strdeq	r0, [r0], -r0	; <UNPREDICTABLE>
 3d4:	00000014 	andeq	r0, r0, r4, lsl r0
 3d8:	000002b4 			; <UNDEFINED> instruction: 0x000002b4
 3dc:	00008ea4 	andeq	r8, r0, r4, lsr #29
 3e0:	0000004c 	andeq	r0, r0, ip, asr #32
 3e4:	8e040e42 	cdphi	14, 0, cr0, cr4, cr2, {2}
 3e8:	100e4201 	andne	r4, lr, r1, lsl #4
 3ec:	0000000c 	andeq	r0, r0, ip
 3f0:	ffffffff 			; <UNDEFINED> instruction: 0xffffffff
 3f4:	7c020001 	stcvc	0, cr0, [r2], {1}
 3f8:	000d0c0e 	andeq	r0, sp, lr, lsl #24
 3fc:	00000018 	andeq	r0, r0, r8, lsl r0
 400:	000003ec 	andeq	r0, r0, ip, ror #7
 404:	00008f3c 	andeq	r8, r0, ip, lsr pc
 408:	000000d4 	ldrdeq	r0, [r0], -r4
 40c:	83100e42 	tsthi	r0, #1056	; 0x420
 410:	85038404 	strhi	r8, [r3, #-1028]	; 0x404
 414:	00018e02 	andeq	r8, r1, r2, lsl #28
 418:	00000014 	andeq	r0, r0, r4, lsl r0
 41c:	000003ec 	andeq	r0, r0, ip, ror #7
 420:	00009010 	andeq	r9, r0, r0, lsl r0
 424:	00000038 	andeq	r0, r0, r8, lsr r0
 428:	83080e42 	movwhi	r0, #36418	; 0x8e42
 42c:	00018e02 	andeq	r8, r1, r2, lsl #28
 430:	00000014 	andeq	r0, r0, r4, lsl r0
 434:	000003ec 	andeq	r0, r0, ip, ror #7
 438:	00009048 	andeq	r9, r0, r8, asr #32
 43c:	00000038 	andeq	r0, r0, r8, lsr r0
 440:	83080e42 	movwhi	r0, #36418	; 0x8e42
 444:	00018e02 	andeq	r8, r1, r2, lsl #28
 448:	00000018 	andeq	r0, r0, r8, lsl r0
 44c:	000003ec 	andeq	r0, r0, ip, ror #7
 450:	00009080 	andeq	r9, r0, r0, lsl #1
 454:	000000cc 	andeq	r0, r0, ip, asr #1
 458:	83100e42 	tsthi	r0, #1056	; 0x420
 45c:	85038404 	strhi	r8, [r3, #-1028]	; 0x404
 460:	00018e02 	andeq	r8, r1, r2, lsl #28
 464:	00000014 	andeq	r0, r0, r4, lsl r0
 468:	000003ec 	andeq	r0, r0, ip, ror #7
 46c:	0000914c 	andeq	r9, r0, ip, asr #2
 470:	0000004c 	andeq	r0, r0, ip, asr #32
 474:	84080e42 	strhi	r0, [r8], #-3650	; 0xe42
 478:	00018e02 	andeq	r8, r1, r2, lsl #28
 47c:	00000014 	andeq	r0, r0, r4, lsl r0
 480:	000003ec 	andeq	r0, r0, ip, ror #7
 484:	00009198 	muleq	r0, r8, r1
 488:	00000024 	andeq	r0, r0, r4, lsr #32
 48c:	83080e42 	movwhi	r0, #36418	; 0x8e42
 490:	00018e02 	andeq	r8, r1, r2, lsl #28
 494:	00000018 	andeq	r0, r0, r8, lsl r0
 498:	000003ec 	andeq	r0, r0, ip, ror #7
 49c:	000091bc 			; <UNDEFINED> instruction: 0x000091bc
 4a0:	000000d8 	ldrdeq	r0, [r0], -r8
 4a4:	84100e42 	ldrhi	r0, [r0], #-3650	; 0xe42
 4a8:	86038504 	strhi	r8, [r3], -r4, lsl #10
 4ac:	00018e02 	andeq	r8, r1, r2, lsl #28
 4b0:	00000014 	andeq	r0, r0, r4, lsl r0
 4b4:	000003ec 	andeq	r0, r0, ip, ror #7
 4b8:	00009294 	muleq	r0, r4, r2
 4bc:	0000002c 	andeq	r0, r0, ip, lsr #32
 4c0:	83080e42 	movwhi	r0, #36418	; 0x8e42
 4c4:	00018e02 	andeq	r8, r1, r2, lsl #28
 4c8:	00000018 	andeq	r0, r0, r8, lsl r0
 4cc:	000003ec 	andeq	r0, r0, ip, ror #7
 4d0:	000092c0 	andeq	r9, r0, r0, asr #5
 4d4:	00000084 	andeq	r0, r0, r4, lsl #1
 4d8:	83100e42 	tsthi	r0, #1056	; 0x420
 4dc:	85038404 	strhi	r8, [r3, #-1028]	; 0x404
 4e0:	00018e02 	andeq	r8, r1, r2, lsl #28
 4e4:	00000018 	andeq	r0, r0, r8, lsl r0
 4e8:	000003ec 	andeq	r0, r0, ip, ror #7
 4ec:	00009344 	andeq	r9, r0, r4, asr #6
 4f0:	00000084 	andeq	r0, r0, r4, lsl #1
 4f4:	83100e42 	tsthi	r0, #1056	; 0x420
 4f8:	85038404 	strhi	r8, [r3, #-1028]	; 0x404
 4fc:	00018e02 	andeq	r8, r1, r2, lsl #28
 500:	00000014 	andeq	r0, r0, r4, lsl r0
 504:	000003ec 	andeq	r0, r0, ip, ror #7
 508:	000093c8 	andeq	r9, r0, r8, asr #7
 50c:	00000084 	andeq	r0, r0, r4, lsl #1
 510:	84080e42 	strhi	r0, [r8], #-3650	; 0xe42
 514:	00018e02 	andeq	r8, r1, r2, lsl #28
 518:	00000014 	andeq	r0, r0, r4, lsl r0
 51c:	000003ec 	andeq	r0, r0, ip, ror #7
 520:	0000944c 	andeq	r9, r0, ip, asr #8
 524:	00000058 	andeq	r0, r0, r8, asr r0
 528:	84080e42 	strhi	r0, [r8], #-3650	; 0xe42
 52c:	00018e02 	andeq	r8, r1, r2, lsl #28
 530:	0000000c 	andeq	r0, r0, ip
 534:	ffffffff 			; <UNDEFINED> instruction: 0xffffffff
 538:	7c020001 	stcvc	0, cr0, [r2], {1}
 53c:	000d0c0e 	andeq	r0, sp, lr, lsl #24
 540:	00000014 	andeq	r0, r0, r4, lsl r0
 544:	00000530 	andeq	r0, r0, r0, lsr r5
 548:	000094a4 	andeq	r9, r0, r4, lsr #9
 54c:	00000014 	andeq	r0, r0, r4, lsl r0
 550:	84080e42 	strhi	r0, [r8], #-3650	; 0xe42
 554:	00018e02 	andeq	r8, r1, r2, lsl #28
 558:	0000000c 	andeq	r0, r0, ip
 55c:	00000530 	andeq	r0, r0, r0, lsr r5
 560:	000094b8 			; <UNDEFINED> instruction: 0x000094b8
 564:	00000018 	andeq	r0, r0, r8, lsl r0
 568:	0000000c 	andeq	r0, r0, ip
 56c:	00000530 	andeq	r0, r0, r0, lsr r5
 570:	000094d0 	ldrdeq	r9, [r0], -r0
 574:	00000010 	andeq	r0, r0, r0, lsl r0
 578:	0000000c 	andeq	r0, r0, ip
 57c:	ffffffff 			; <UNDEFINED> instruction: 0xffffffff
 580:	7c020001 	stcvc	0, cr0, [r2], {1}
 584:	000d0c0e 	andeq	r0, sp, lr, lsl #24
 588:	00000014 	andeq	r0, r0, r4, lsl r0
 58c:	00000578 	andeq	r0, r0, r8, ror r5
 590:	000094e0 	andeq	r9, r0, r0, ror #9
 594:	00000028 	andeq	r0, r0, r8, lsr #32
 598:	83080e42 	movwhi	r0, #36418	; 0x8e42
 59c:	00018e02 	andeq	r8, r1, r2, lsl #28
 5a0:	0000000c 	andeq	r0, r0, ip
 5a4:	00000578 	andeq	r0, r0, r8, ror r5
 5a8:	00009508 	andeq	r9, r0, r8, lsl #10
 5ac:	00000028 	andeq	r0, r0, r8, lsr #32
 5b0:	0000000c 	andeq	r0, r0, ip
 5b4:	ffffffff 			; <UNDEFINED> instruction: 0xffffffff
 5b8:	7c020001 	stcvc	0, cr0, [r2], {1}
 5bc:	000d0c0e 	andeq	r0, sp, lr, lsl #24
 5c0:	00000018 	andeq	r0, r0, r8, lsl r0
 5c4:	000005b0 			; <UNDEFINED> instruction: 0x000005b0
 5c8:	00009530 	andeq	r9, r0, r0, lsr r5
 5cc:	0000009c 	muleq	r0, ip, r0
 5d0:	83100e42 	tsthi	r0, #1056	; 0x420
 5d4:	85038404 	strhi	r8, [r3, #-1028]	; 0x404
 5d8:	00018e02 	andeq	r8, r1, r2, lsl #28
 5dc:	00000014 	andeq	r0, r0, r4, lsl r0
 5e0:	000005b0 			; <UNDEFINED> instruction: 0x000005b0
 5e4:	000095cc 	andeq	r9, r0, ip, asr #11
 5e8:	0000001c 	andeq	r0, r0, ip, lsl r0
 5ec:	83080e42 	movwhi	r0, #36418	; 0x8e42
 5f0:	00018e02 	andeq	r8, r1, r2, lsl #28
 5f4:	00000014 	andeq	r0, r0, r4, lsl r0
 5f8:	000005b0 			; <UNDEFINED> instruction: 0x000005b0
 5fc:	000095e8 	andeq	r9, r0, r8, ror #11
 600:	00000028 	andeq	r0, r0, r8, lsr #32
 604:	83080e42 	movwhi	r0, #36418	; 0x8e42
 608:	00018e02 	andeq	r8, r1, r2, lsl #28
 60c:	00000014 	andeq	r0, r0, r4, lsl r0
 610:	000005b0 			; <UNDEFINED> instruction: 0x000005b0
 614:	00009610 	andeq	r9, r0, r0, lsl r6
 618:	0000001c 	andeq	r0, r0, ip, lsl r0
 61c:	83080e42 	movwhi	r0, #36418	; 0x8e42
 620:	00018e02 	andeq	r8, r1, r2, lsl #28
 624:	00000014 	andeq	r0, r0, r4, lsl r0
 628:	000005b0 			; <UNDEFINED> instruction: 0x000005b0
 62c:	0000962c 	andeq	r9, r0, ip, lsr #12
 630:	0000002c 	andeq	r0, r0, ip, lsr #32
 634:	84080e42 	strhi	r0, [r8], #-3650	; 0xe42
 638:	00018e02 	andeq	r8, r1, r2, lsl #28
 63c:	00000014 	andeq	r0, r0, r4, lsl r0
 640:	000005b0 			; <UNDEFINED> instruction: 0x000005b0
 644:	00009658 	andeq	r9, r0, r8, asr r6
 648:	0000000c 	andeq	r0, r0, ip
 64c:	83080e42 	movwhi	r0, #36418	; 0x8e42
 650:	00018e02 	andeq	r8, r1, r2, lsl #28
 654:	00000014 	andeq	r0, r0, r4, lsl r0
 658:	000005b0 			; <UNDEFINED> instruction: 0x000005b0
 65c:	00009664 	andeq	r9, r0, r4, ror #12
 660:	00000020 	andeq	r0, r0, r0, lsr #32
 664:	83080e42 	movwhi	r0, #36418	; 0x8e42
 668:	00018e02 	andeq	r8, r1, r2, lsl #28
 66c:	0000000c 	andeq	r0, r0, ip
 670:	ffffffff 			; <UNDEFINED> instruction: 0xffffffff
 674:	7c020001 	stcvc	0, cr0, [r2], {1}
 678:	000d0c0e 	andeq	r0, sp, lr, lsl #24
 67c:	0000000c 	andeq	r0, r0, ip
 680:	0000066c 	andeq	r0, r0, ip, ror #12
 684:	0000969c 	muleq	r0, ip, r6
 688:	00000020 	andeq	r0, r0, r0, lsr #32

Disassembly of section .debug_ranges:

00000000 <.debug_ranges>:
   0:	000002b4 			; <UNDEFINED> instruction: 0x000002b4
   4:	000002b8 			; <UNDEFINED> instruction: 0x000002b8
   8:	000002e8 	andeq	r0, r0, r8, ror #5
   c:	000004e0 	andeq	r0, r0, r0, ror #9
	...
  18:	0000878c 	andeq	r8, r0, ip, lsl #15
  1c:	00008800 	andeq	r8, r0, r0, lsl #16
	...
