
test-gen.elf:     file format elf32-littlearm


Disassembly of section .text:

00008000 <_start>:
    8000:	e3a0d302 	mov	sp, #134217728	; 0x8000000
    8004:	e3a0b000 	mov	fp, #0
    8008:	eb000435 	bl	90e4 <_cstart>
    800c:	eb00044c 	bl	9144 <rpi_reboot>

00008010 <cycles_per_sec>:
    8010:	e3500001 	cmp	r0, #1
    8014:	e92d4010 	push	{r4, lr}
    8018:	8a000006 	bhi	8038 <cycles_per_sec+0x28>
    801c:	ee1f4f3c 	mrc	15, 0, r4, cr15, cr12, {1}
    8020:	e3a03ffa 	mov	r3, #1000	; 0x3e8
    8024:	e0000093 	mul	r0, r3, r0
    8028:	eb00046f 	bl	91ec <delay_ms>
    802c:	ee1f0f3c 	mrc	15, 0, r0, cr15, cr12, {1}
    8030:	e0640000 	rsb	r0, r4, r0
    8034:	e8bd8010 	pop	{r4, pc}
    8038:	eb0002c2 	bl	8b48 <rpi_reset_putc>
    803c:	e59f1010 	ldr	r1, [pc, #16]	; 8054 <cycles_per_sec+0x44>
    8040:	e59f2010 	ldr	r2, [pc, #16]	; 8058 <cycles_per_sec+0x48>
    8044:	e3a03042 	mov	r3, #66	; 0x42
    8048:	e59f000c 	ldr	r0, [pc, #12]	; 805c <cycles_per_sec+0x4c>
    804c:	eb0002a2 	bl	8adc <printk>
    8050:	eb000419 	bl	90bc <clean_reboot>
    8054:	00009a48 	andeq	r9, r0, r8, asr #20
    8058:	00009a08 	andeq	r9, r0, r8, lsl #20
    805c:	00009a18 	andeq	r9, r0, r8, lsl sl

00008060 <sw_uart_get8>:
    8060:	e5902004 	ldr	r2, [r0, #4]
    8064:	e3a01001 	mov	r1, #1
    8068:	e1a01211 	lsl	r1, r1, r2
    806c:	e590c00c 	ldr	ip, [r0, #12]
    8070:	e59f01a0 	ldr	r0, [pc, #416]	; 8218 <sw_uart_get8+0x1b8>
    8074:	e92d07f0 	push	{r4, r5, r6, r7, r8, r9, sl}
    8078:	e1a0a0ac 	lsr	sl, ip, #1
    807c:	e5903034 	ldr	r3, [r0, #52]	; 0x34
    8080:	e0013003 	and	r3, r1, r3
    8084:	e1b03233 	lsrs	r3, r3, r2
    8088:	1afffffb 	bne	807c <sw_uart_get8+0x1c>
    808c:	ee1f3f3c 	mrc	15, 0, r3, cr15, cr12, {1}
    8090:	ee1f2f3c 	mrc	15, 0, r2, cr15, cr12, {1}
    8094:	e0632002 	rsb	r2, r3, r2
    8098:	e15a0002 	cmp	sl, r2
    809c:	8afffffb 	bhi	8090 <sw_uart_get8+0x30>
    80a0:	e08aa00c 	add	sl, sl, ip
    80a4:	ee1f2f3c 	mrc	15, 0, r2, cr15, cr12, {1}
    80a8:	e0632002 	rsb	r2, r3, r2
    80ac:	e152000a 	cmp	r2, sl
    80b0:	3afffffb 	bcc	80a4 <sw_uart_get8+0x44>
    80b4:	e59f215c 	ldr	r2, [pc, #348]	; 8218 <sw_uart_get8+0x1b8>
    80b8:	e08aa00c 	add	sl, sl, ip
    80bc:	e5928034 	ldr	r8, [r2, #52]	; 0x34
    80c0:	e0088001 	and	r8, r8, r1
    80c4:	e1a08a28 	lsr	r8, r8, #20
    80c8:	e1a08388 	lsl	r8, r8, #7
    80cc:	e6ef8078 	uxtb	r8, r8
    80d0:	ee1f2f3c 	mrc	15, 0, r2, cr15, cr12, {1}
    80d4:	e0632002 	rsb	r2, r3, r2
    80d8:	e152000a 	cmp	r2, sl
    80dc:	3afffffb 	bcc	80d0 <sw_uart_get8+0x70>
    80e0:	e59f2130 	ldr	r2, [pc, #304]	; 8218 <sw_uart_get8+0x1b8>
    80e4:	e08aa00c 	add	sl, sl, ip
    80e8:	e5927034 	ldr	r7, [r2, #52]	; 0x34
    80ec:	e0077001 	and	r7, r7, r1
    80f0:	e1a07727 	lsr	r7, r7, #14
    80f4:	e2077040 	and	r7, r7, #64	; 0x40
    80f8:	ee1f2f3c 	mrc	15, 0, r2, cr15, cr12, {1}
    80fc:	e0632002 	rsb	r2, r3, r2
    8100:	e152000a 	cmp	r2, sl
    8104:	3afffffb 	bcc	80f8 <sw_uart_get8+0x98>
    8108:	e59f2108 	ldr	r2, [pc, #264]	; 8218 <sw_uart_get8+0x1b8>
    810c:	e08aa00c 	add	sl, sl, ip
    8110:	e5926034 	ldr	r6, [r2, #52]	; 0x34
    8114:	e0066001 	and	r6, r6, r1
    8118:	e1a067a6 	lsr	r6, r6, #15
    811c:	e2066020 	and	r6, r6, #32
    8120:	ee1f2f3c 	mrc	15, 0, r2, cr15, cr12, {1}
    8124:	e0632002 	rsb	r2, r3, r2
    8128:	e152000a 	cmp	r2, sl
    812c:	3afffffb 	bcc	8120 <sw_uart_get8+0xc0>
    8130:	e59f20e0 	ldr	r2, [pc, #224]	; 8218 <sw_uart_get8+0x1b8>
    8134:	e08aa00c 	add	sl, sl, ip
    8138:	e5925034 	ldr	r5, [r2, #52]	; 0x34
    813c:	e0055001 	and	r5, r5, r1
    8140:	e1a05825 	lsr	r5, r5, #16
    8144:	e2055010 	and	r5, r5, #16
    8148:	ee1f2f3c 	mrc	15, 0, r2, cr15, cr12, {1}
    814c:	e0632002 	rsb	r2, r3, r2
    8150:	e152000a 	cmp	r2, sl
    8154:	3afffffb 	bcc	8148 <sw_uart_get8+0xe8>
    8158:	e59f20b8 	ldr	r2, [pc, #184]	; 8218 <sw_uart_get8+0x1b8>
    815c:	e08aa00c 	add	sl, sl, ip
    8160:	e5924034 	ldr	r4, [r2, #52]	; 0x34
    8164:	e0044001 	and	r4, r4, r1
    8168:	e1a048a4 	lsr	r4, r4, #17
    816c:	e2044008 	and	r4, r4, #8
    8170:	ee1f2f3c 	mrc	15, 0, r2, cr15, cr12, {1}
    8174:	e0632002 	rsb	r2, r3, r2
    8178:	e152000a 	cmp	r2, sl
    817c:	3afffffb 	bcc	8170 <sw_uart_get8+0x110>
    8180:	e59f2090 	ldr	r2, [pc, #144]	; 8218 <sw_uart_get8+0x1b8>
    8184:	e08aa00c 	add	sl, sl, ip
    8188:	e5929034 	ldr	r9, [r2, #52]	; 0x34
    818c:	e0099001 	and	r9, r9, r1
    8190:	e1a09929 	lsr	r9, r9, #18
    8194:	e2099004 	and	r9, r9, #4
    8198:	ee1f2f3c 	mrc	15, 0, r2, cr15, cr12, {1}
    819c:	e0632002 	rsb	r2, r3, r2
    81a0:	e152000a 	cmp	r2, sl
    81a4:	3afffffb 	bcc	8198 <sw_uart_get8+0x138>
    81a8:	e59f2068 	ldr	r2, [pc, #104]	; 8218 <sw_uart_get8+0x1b8>
    81ac:	e08aa00c 	add	sl, sl, ip
    81b0:	e5920034 	ldr	r0, [r2, #52]	; 0x34
    81b4:	e0000001 	and	r0, r0, r1
    81b8:	e1a009a0 	lsr	r0, r0, #19
    81bc:	e2000002 	and	r0, r0, #2
    81c0:	ee1f2f3c 	mrc	15, 0, r2, cr15, cr12, {1}
    81c4:	e0632002 	rsb	r2, r3, r2
    81c8:	e152000a 	cmp	r2, sl
    81cc:	3afffffb 	bcc	81c0 <sw_uart_get8+0x160>
    81d0:	e59f2040 	ldr	r2, [pc, #64]	; 8218 <sw_uart_get8+0x1b8>
    81d4:	e1888007 	orr	r8, r8, r7
    81d8:	e5927034 	ldr	r7, [r2, #52]	; 0x34
    81dc:	e08ac00c 	add	ip, sl, ip
    81e0:	e0077001 	and	r7, r7, r1
    81e4:	e1a07587 	lsl	r7, r7, #11
    81e8:	e1887fa7 	orr	r7, r8, r7, lsr #31
    81ec:	e1876006 	orr	r6, r7, r6
    81f0:	e1865005 	orr	r5, r6, r5
    81f4:	e1854004 	orr	r4, r5, r4
    81f8:	e1849009 	orr	r9, r4, r9
    81fc:	e1890000 	orr	r0, r9, r0
    8200:	ee1f2f3c 	mrc	15, 0, r2, cr15, cr12, {1}
    8204:	e0632002 	rsb	r2, r3, r2
    8208:	e152000c 	cmp	r2, ip
    820c:	3afffffb 	bcc	8200 <sw_uart_get8+0x1a0>
    8210:	e8bd07f0 	pop	{r4, r5, r6, r7, r8, r9, sl}
    8214:	e12fff1e 	bx	lr
    8218:	20200000 	eorcs	r0, r0, r0

0000821c <sw_uart_put8>:
    821c:	e92d0070 	push	{r4, r5, r6}
    8220:	ee1f3f3c 	mrc	15, 0, r3, cr15, cr12, {1}
    8224:	e5905000 	ldr	r5, [r0]
    8228:	e3a04001 	mov	r4, #1
    822c:	e1a04514 	lsl	r4, r4, r5
    8230:	e59f6270 	ldr	r6, [pc, #624]	; 84a8 <sw_uart_put8+0x28c>
    8234:	e5962034 	ldr	r2, [r6, #52]	; 0x34
    8238:	e59fc268 	ldr	ip, [pc, #616]	; 84a8 <sw_uart_put8+0x28c>
    823c:	e0042002 	and	r2, r4, r2
    8240:	e1b02532 	lsrs	r2, r2, r5
    8244:	0afffffa 	beq	8234 <sw_uart_put8+0x18>
    8248:	e59c2028 	ldr	r2, [ip, #40]	; 0x28
    824c:	e1824004 	orr	r4, r2, r4
    8250:	e58c4028 	str	r4, [ip, #40]	; 0x28
    8254:	e590c00c 	ldr	ip, [r0, #12]
    8258:	ee1f2f3c 	mrc	15, 0, r2, cr15, cr12, {1}
    825c:	e0632002 	rsb	r2, r3, r2
    8260:	e152000c 	cmp	r2, ip
    8264:	3afffffb 	bcc	8258 <sw_uart_put8+0x3c>
    8268:	e59fc238 	ldr	ip, [pc, #568]	; 84a8 <sw_uart_put8+0x28c>
    826c:	e3110001 	tst	r1, #1
    8270:	e5902000 	ldr	r2, [r0]
    8274:	159c401c 	ldrne	r4, [ip, #28]
    8278:	059c4028 	ldreq	r4, [ip, #40]	; 0x28
    827c:	e3a05001 	mov	r5, #1
    8280:	11842215 	orrne	r2, r4, r5, lsl r2
    8284:	01842215 	orreq	r2, r4, r5, lsl r2
    8288:	158c201c 	strne	r2, [ip, #28]
    828c:	058c2028 	streq	r2, [ip, #40]	; 0x28
    8290:	e590c00c 	ldr	ip, [r0, #12]
    8294:	e1a0c08c 	lsl	ip, ip, #1
    8298:	ee1f2f3c 	mrc	15, 0, r2, cr15, cr12, {1}
    829c:	e0632002 	rsb	r2, r3, r2
    82a0:	e152000c 	cmp	r2, ip
    82a4:	3afffffb 	bcc	8298 <sw_uart_put8+0x7c>
    82a8:	e59fc1f8 	ldr	ip, [pc, #504]	; 84a8 <sw_uart_put8+0x28c>
    82ac:	e3110002 	tst	r1, #2
    82b0:	e5902000 	ldr	r2, [r0]
    82b4:	159c401c 	ldrne	r4, [ip, #28]
    82b8:	059c4028 	ldreq	r4, [ip, #40]	; 0x28
    82bc:	e3a05001 	mov	r5, #1
    82c0:	11842215 	orrne	r2, r4, r5, lsl r2
    82c4:	01842215 	orreq	r2, r4, r5, lsl r2
    82c8:	158c201c 	strne	r2, [ip, #28]
    82cc:	058c2028 	streq	r2, [ip, #40]	; 0x28
    82d0:	e590c00c 	ldr	ip, [r0, #12]
    82d4:	e08cc08c 	add	ip, ip, ip, lsl #1
    82d8:	ee1f2f3c 	mrc	15, 0, r2, cr15, cr12, {1}
    82dc:	e0632002 	rsb	r2, r3, r2
    82e0:	e152000c 	cmp	r2, ip
    82e4:	3afffffb 	bcc	82d8 <sw_uart_put8+0xbc>
    82e8:	e59fc1b8 	ldr	ip, [pc, #440]	; 84a8 <sw_uart_put8+0x28c>
    82ec:	e3110004 	tst	r1, #4
    82f0:	e5902000 	ldr	r2, [r0]
    82f4:	159c401c 	ldrne	r4, [ip, #28]
    82f8:	059c4028 	ldreq	r4, [ip, #40]	; 0x28
    82fc:	e3a05001 	mov	r5, #1
    8300:	11842215 	orrne	r2, r4, r5, lsl r2
    8304:	01842215 	orreq	r2, r4, r5, lsl r2
    8308:	158c201c 	strne	r2, [ip, #28]
    830c:	058c2028 	streq	r2, [ip, #40]	; 0x28
    8310:	e590c00c 	ldr	ip, [r0, #12]
    8314:	e1a0c10c 	lsl	ip, ip, #2
    8318:	ee1f2f3c 	mrc	15, 0, r2, cr15, cr12, {1}
    831c:	e0632002 	rsb	r2, r3, r2
    8320:	e152000c 	cmp	r2, ip
    8324:	3afffffb 	bcc	8318 <sw_uart_put8+0xfc>
    8328:	e59fc178 	ldr	ip, [pc, #376]	; 84a8 <sw_uart_put8+0x28c>
    832c:	e3110008 	tst	r1, #8
    8330:	e5902000 	ldr	r2, [r0]
    8334:	159c401c 	ldrne	r4, [ip, #28]
    8338:	059c4028 	ldreq	r4, [ip, #40]	; 0x28
    833c:	e3a05001 	mov	r5, #1
    8340:	11842215 	orrne	r2, r4, r5, lsl r2
    8344:	01842215 	orreq	r2, r4, r5, lsl r2
    8348:	158c201c 	strne	r2, [ip, #28]
    834c:	058c2028 	streq	r2, [ip, #40]	; 0x28
    8350:	e590c00c 	ldr	ip, [r0, #12]
    8354:	e08cc10c 	add	ip, ip, ip, lsl #2
    8358:	ee1f2f3c 	mrc	15, 0, r2, cr15, cr12, {1}
    835c:	e0632002 	rsb	r2, r3, r2
    8360:	e152000c 	cmp	r2, ip
    8364:	3afffffb 	bcc	8358 <sw_uart_put8+0x13c>
    8368:	e59fc138 	ldr	ip, [pc, #312]	; 84a8 <sw_uart_put8+0x28c>
    836c:	e3110010 	tst	r1, #16
    8370:	e5902000 	ldr	r2, [r0]
    8374:	159c401c 	ldrne	r4, [ip, #28]
    8378:	059c4028 	ldreq	r4, [ip, #40]	; 0x28
    837c:	e3a05001 	mov	r5, #1
    8380:	11842215 	orrne	r2, r4, r5, lsl r2
    8384:	01842215 	orreq	r2, r4, r5, lsl r2
    8388:	158c201c 	strne	r2, [ip, #28]
    838c:	058c2028 	streq	r2, [ip, #40]	; 0x28
    8390:	e590c00c 	ldr	ip, [r0, #12]
    8394:	e08cc08c 	add	ip, ip, ip, lsl #1
    8398:	e1a0c08c 	lsl	ip, ip, #1
    839c:	ee1f2f3c 	mrc	15, 0, r2, cr15, cr12, {1}
    83a0:	e0632002 	rsb	r2, r3, r2
    83a4:	e152000c 	cmp	r2, ip
    83a8:	3afffffb 	bcc	839c <sw_uart_put8+0x180>
    83ac:	e59fc0f4 	ldr	ip, [pc, #244]	; 84a8 <sw_uart_put8+0x28c>
    83b0:	e3110020 	tst	r1, #32
    83b4:	e5902000 	ldr	r2, [r0]
    83b8:	159c401c 	ldrne	r4, [ip, #28]
    83bc:	059c4028 	ldreq	r4, [ip, #40]	; 0x28
    83c0:	e3a05001 	mov	r5, #1
    83c4:	11842215 	orrne	r2, r4, r5, lsl r2
    83c8:	01842215 	orreq	r2, r4, r5, lsl r2
    83cc:	158c201c 	strne	r2, [ip, #28]
    83d0:	058c2028 	streq	r2, [ip, #40]	; 0x28
    83d4:	e590c00c 	ldr	ip, [r0, #12]
    83d8:	e06cc18c 	rsb	ip, ip, ip, lsl #3
    83dc:	ee1f2f3c 	mrc	15, 0, r2, cr15, cr12, {1}
    83e0:	e0632002 	rsb	r2, r3, r2
    83e4:	e152000c 	cmp	r2, ip
    83e8:	3afffffb 	bcc	83dc <sw_uart_put8+0x1c0>
    83ec:	e59fc0b4 	ldr	ip, [pc, #180]	; 84a8 <sw_uart_put8+0x28c>
    83f0:	e3110040 	tst	r1, #64	; 0x40
    83f4:	e5902000 	ldr	r2, [r0]
    83f8:	159c401c 	ldrne	r4, [ip, #28]
    83fc:	059c4028 	ldreq	r4, [ip, #40]	; 0x28
    8400:	e3a05001 	mov	r5, #1
    8404:	11842215 	orrne	r2, r4, r5, lsl r2
    8408:	01842215 	orreq	r2, r4, r5, lsl r2
    840c:	158c201c 	strne	r2, [ip, #28]
    8410:	058c2028 	streq	r2, [ip, #40]	; 0x28
    8414:	e590c00c 	ldr	ip, [r0, #12]
    8418:	e1a0c18c 	lsl	ip, ip, #3
    841c:	ee1f2f3c 	mrc	15, 0, r2, cr15, cr12, {1}
    8420:	e0632002 	rsb	r2, r3, r2
    8424:	e152000c 	cmp	r2, ip
    8428:	3afffffb 	bcc	841c <sw_uart_put8+0x200>
    842c:	e3110080 	tst	r1, #128	; 0x80
    8430:	e59f1070 	ldr	r1, [pc, #112]	; 84a8 <sw_uart_put8+0x28c>
    8434:	e5902000 	ldr	r2, [r0]
    8438:	1591c01c 	ldrne	ip, [r1, #28]
    843c:	0591c028 	ldreq	ip, [r1, #40]	; 0x28
    8440:	e3a04001 	mov	r4, #1
    8444:	118c2214 	orrne	r2, ip, r4, lsl r2
    8448:	018c2214 	orreq	r2, ip, r4, lsl r2
    844c:	1581201c 	strne	r2, [r1, #28]
    8450:	05812028 	streq	r2, [r1, #40]	; 0x28
    8454:	e590100c 	ldr	r1, [r0, #12]
    8458:	e0811181 	add	r1, r1, r1, lsl #3
    845c:	ee1f2f3c 	mrc	15, 0, r2, cr15, cr12, {1}
    8460:	e0632002 	rsb	r2, r3, r2
    8464:	e1520001 	cmp	r2, r1
    8468:	3afffffb 	bcc	845c <sw_uart_put8+0x240>
    846c:	e59f2034 	ldr	r2, [pc, #52]	; 84a8 <sw_uart_put8+0x28c>
    8470:	e5901000 	ldr	r1, [r0]
    8474:	e592c01c 	ldr	ip, [r2, #28]
    8478:	e3a04001 	mov	r4, #1
    847c:	e18c1114 	orr	r1, ip, r4, lsl r1
    8480:	e582101c 	str	r1, [r2, #28]
    8484:	e590100c 	ldr	r1, [r0, #12]
    8488:	e0811101 	add	r1, r1, r1, lsl #2
    848c:	e1a01411 	lsl	r1, r1, r4
    8490:	ee1f2f3c 	mrc	15, 0, r2, cr15, cr12, {1}
    8494:	e0632002 	rsb	r2, r3, r2
    8498:	e1520001 	cmp	r2, r1
    849c:	3afffffb 	bcc	8490 <sw_uart_put8+0x274>
    84a0:	e8bd0070 	pop	{r4, r5, r6}
    84a4:	e12fff1e 	bx	lr
    84a8:	20200000 	eorcs	r0, r0, r0

000084ac <notmain>:
    84ac:	e92d4ff0 	push	{r4, r5, r6, r7, r8, r9, sl, fp, lr}
    84b0:	e59f3608 	ldr	r3, [pc, #1544]	; 8ac0 <notmain+0x614>
    84b4:	e3a02015 	mov	r2, #21
    84b8:	e59f1604 	ldr	r1, [pc, #1540]	; 8ac4 <notmain+0x618>
    84bc:	e3a0cae1 	mov	ip, #921600	; 0xe1000
    84c0:	e1a00002 	mov	r0, r2
    84c4:	e24dd03c 	sub	sp, sp, #60	; 0x3c
    84c8:	e3a04014 	mov	r4, #20
    84cc:	e583c008 	str	ip, [r3, #8]
    84d0:	e583100c 	str	r1, [r3, #12]
    84d4:	e8830014 	stm	r3, {r2, r4}
    84d8:	eb00034d 	bl	9214 <gpio_set_output>
    84dc:	e1a00004 	mov	r0, r4
    84e0:	eb00039c 	bl	9358 <gpio_set_input>
    84e4:	eb0002ec 	bl	909c <enable_cache>
    84e8:	e3a03001 	mov	r3, #1
    84ec:	ee0f3f1c 	mcr	15, 0, r3, cr15, cr12, {0}
    84f0:	e59f45d0 	ldr	r4, [pc, #1488]	; 8ac8 <notmain+0x61c>
    84f4:	e59f05d0 	ldr	r0, [pc, #1488]	; 8acc <notmain+0x620>
    84f8:	e594301c 	ldr	r3, [r4, #28]
    84fc:	e3833602 	orr	r3, r3, #2097152	; 0x200000
    8500:	e584301c 	str	r3, [r4, #28]
    8504:	eb000174 	bl	8adc <printk>
    8508:	e59f05b0 	ldr	r0, [pc, #1456]	; 8ac0 <notmain+0x614>
    850c:	e1a01004 	mov	r1, r4
    8510:	e5902004 	ldr	r2, [r0, #4]
    8514:	e3a00001 	mov	r0, #1
    8518:	e1a00210 	lsl	r0, r0, r2
    851c:	e5913034 	ldr	r3, [r1, #52]	; 0x34
    8520:	e0003003 	and	r3, r0, r3
    8524:	e1b03233 	lsrs	r3, r3, r2
    8528:	0afffffb 	beq	851c <notmain+0x70>
    852c:	e3a00001 	mov	r0, #1
    8530:	eb00032d 	bl	91ec <delay_ms>
    8534:	e59f958c 	ldr	r9, [pc, #1420]	; 8ac8 <notmain+0x61c>
    8538:	e3a02001 	mov	r2, #1
    853c:	e58d2008 	str	r2, [sp, #8]
    8540:	e59f0578 	ldr	r0, [pc, #1400]	; 8ac0 <notmain+0x614>
    8544:	e3a01000 	mov	r1, #0
    8548:	ebffff33 	bl	821c <sw_uart_put8>
    854c:	e59f056c 	ldr	r0, [pc, #1388]	; 8ac0 <notmain+0x614>
    8550:	e3a01000 	mov	r1, #0
    8554:	ebffff30 	bl	821c <sw_uart_put8>
    8558:	e59d3008 	ldr	r3, [sp, #8]
    855c:	e59f055c 	ldr	r0, [pc, #1372]	; 8ac0 <notmain+0x614>
    8560:	e2031cff 	and	r1, r3, #65280	; 0xff00
    8564:	e1a01421 	lsr	r1, r1, #8
    8568:	ebffff2b 	bl	821c <sw_uart_put8>
    856c:	e59d8008 	ldr	r8, [sp, #8]
    8570:	e59fa548 	ldr	sl, [pc, #1352]	; 8ac0 <notmain+0x614>
    8574:	e59f0544 	ldr	r0, [pc, #1348]	; 8ac0 <notmain+0x614>
    8578:	e6ef1078 	uxtb	r1, r8
    857c:	ebffff26 	bl	821c <sw_uart_put8>
    8580:	e59a2004 	ldr	r2, [sl, #4]
    8584:	e59ac00c 	ldr	ip, [sl, #12]
    8588:	e3a0b001 	mov	fp, #1
    858c:	e1a0121b 	lsl	r1, fp, r2
    8590:	e1a00b3c 	lsr	r0, ip, fp
    8594:	e5993034 	ldr	r3, [r9, #52]	; 0x34
    8598:	e0013003 	and	r3, r1, r3
    859c:	e1b03233 	lsrs	r3, r3, r2
    85a0:	1afffffb 	bne	8594 <notmain+0xe8>
    85a4:	ee1f3f3c 	mrc	15, 0, r3, cr15, cr12, {1}
    85a8:	ee1f2f3c 	mrc	15, 0, r2, cr15, cr12, {1}
    85ac:	e0632002 	rsb	r2, r3, r2
    85b0:	e1500002 	cmp	r0, r2
    85b4:	8afffffb 	bhi	85a8 <notmain+0xfc>
    85b8:	e080000c 	add	r0, r0, ip
    85bc:	ee1f2f3c 	mrc	15, 0, r2, cr15, cr12, {1}
    85c0:	e0632002 	rsb	r2, r3, r2
    85c4:	e1520000 	cmp	r2, r0
    85c8:	3afffffb 	bcc	85bc <notmain+0x110>
    85cc:	e599a034 	ldr	sl, [r9, #52]	; 0x34
    85d0:	e080000c 	add	r0, r0, ip
    85d4:	e00aa001 	and	sl, sl, r1
    85d8:	e1a0aa2a 	lsr	sl, sl, #20
    85dc:	e1a0a38a 	lsl	sl, sl, #7
    85e0:	e6efa07a 	uxtb	sl, sl
    85e4:	ee1f2f3c 	mrc	15, 0, r2, cr15, cr12, {1}
    85e8:	e0632002 	rsb	r2, r3, r2
    85ec:	e1500002 	cmp	r0, r2
    85f0:	8afffffb 	bhi	85e4 <notmain+0x138>
    85f4:	e5998034 	ldr	r8, [r9, #52]	; 0x34
    85f8:	e080000c 	add	r0, r0, ip
    85fc:	e0088001 	and	r8, r8, r1
    8600:	e1a08728 	lsr	r8, r8, #14
    8604:	e2088040 	and	r8, r8, #64	; 0x40
    8608:	ee1f2f3c 	mrc	15, 0, r2, cr15, cr12, {1}
    860c:	e0632002 	rsb	r2, r3, r2
    8610:	e1500002 	cmp	r0, r2
    8614:	8afffffb 	bhi	8608 <notmain+0x15c>
    8618:	e5997034 	ldr	r7, [r9, #52]	; 0x34
    861c:	e080000c 	add	r0, r0, ip
    8620:	e0077001 	and	r7, r7, r1
    8624:	e1a077a7 	lsr	r7, r7, #15
    8628:	e2077020 	and	r7, r7, #32
    862c:	ee1f2f3c 	mrc	15, 0, r2, cr15, cr12, {1}
    8630:	e0632002 	rsb	r2, r3, r2
    8634:	e1520000 	cmp	r2, r0
    8638:	3afffffb 	bcc	862c <notmain+0x180>
    863c:	e5996034 	ldr	r6, [r9, #52]	; 0x34
    8640:	e080000c 	add	r0, r0, ip
    8644:	e0066001 	and	r6, r6, r1
    8648:	e1a06826 	lsr	r6, r6, #16
    864c:	e2066010 	and	r6, r6, #16
    8650:	ee1f2f3c 	mrc	15, 0, r2, cr15, cr12, {1}
    8654:	e0632002 	rsb	r2, r3, r2
    8658:	e1500002 	cmp	r0, r2
    865c:	8afffffb 	bhi	8650 <notmain+0x1a4>
    8660:	e5995034 	ldr	r5, [r9, #52]	; 0x34
    8664:	e080000c 	add	r0, r0, ip
    8668:	e0055001 	and	r5, r5, r1
    866c:	e1a058a5 	lsr	r5, r5, #17
    8670:	e2055008 	and	r5, r5, #8
    8674:	ee1f2f3c 	mrc	15, 0, r2, cr15, cr12, {1}
    8678:	e0632002 	rsb	r2, r3, r2
    867c:	e1500002 	cmp	r0, r2
    8680:	8afffffb 	bhi	8674 <notmain+0x1c8>
    8684:	e5994034 	ldr	r4, [r9, #52]	; 0x34
    8688:	e080000c 	add	r0, r0, ip
    868c:	e0044001 	and	r4, r4, r1
    8690:	e1a04924 	lsr	r4, r4, #18
    8694:	e2044004 	and	r4, r4, #4
    8698:	ee1f2f3c 	mrc	15, 0, r2, cr15, cr12, {1}
    869c:	e0632002 	rsb	r2, r3, r2
    86a0:	e1500002 	cmp	r0, r2
    86a4:	8afffffb 	bhi	8698 <notmain+0x1ec>
    86a8:	e599e034 	ldr	lr, [r9, #52]	; 0x34
    86ac:	e080000c 	add	r0, r0, ip
    86b0:	e00ee001 	and	lr, lr, r1
    86b4:	e1a0e9ae 	lsr	lr, lr, #19
    86b8:	e20ee002 	and	lr, lr, #2
    86bc:	ee1f2f3c 	mrc	15, 0, r2, cr15, cr12, {1}
    86c0:	e0632002 	rsb	r2, r3, r2
    86c4:	e1520000 	cmp	r2, r0
    86c8:	3afffffb 	bcc	86bc <notmain+0x210>
    86cc:	e5992034 	ldr	r2, [r9, #52]	; 0x34
    86d0:	e18aa008 	orr	sl, sl, r8
    86d4:	e0028001 	and	r8, r2, r1
    86d8:	e1a08588 	lsl	r8, r8, #11
    86dc:	e18a8fa8 	orr	r8, sl, r8, lsr #31
    86e0:	e1887007 	orr	r7, r8, r7
    86e4:	e1876006 	orr	r6, r7, r6
    86e8:	e1865005 	orr	r5, r6, r5
    86ec:	e1854004 	orr	r4, r5, r4
    86f0:	e080000c 	add	r0, r0, ip
    86f4:	e184e00e 	orr	lr, r4, lr
    86f8:	ee1f2f3c 	mrc	15, 0, r2, cr15, cr12, {1}
    86fc:	e0632002 	rsb	r2, r3, r2
    8700:	e1520000 	cmp	r2, r0
    8704:	3afffffb 	bcc	86f8 <notmain+0x24c>
    8708:	e1a0ec0e 	lsl	lr, lr, #24
    870c:	e59f03ac 	ldr	r0, [pc, #940]	; 8ac0 <notmain+0x614>
    8710:	e58de014 	str	lr, [sp, #20]
    8714:	ebfffe51 	bl	8060 <sw_uart_get8>
    8718:	e59f23a0 	ldr	r2, [pc, #928]	; 8ac0 <notmain+0x614>
    871c:	e3a03001 	mov	r3, #1
    8720:	e592a00c 	ldr	sl, [r2, #12]
    8724:	e5921004 	ldr	r1, [r2, #4]
    8728:	e1a0633a 	lsr	r6, sl, r3
    872c:	e1a02113 	lsl	r2, r3, r1
    8730:	e1a00800 	lsl	r0, r0, #16
    8734:	e58d0018 	str	r0, [sp, #24]
    8738:	e5993034 	ldr	r3, [r9, #52]	; 0x34
    873c:	e0023003 	and	r3, r2, r3
    8740:	e1b03133 	lsrs	r3, r3, r1
    8744:	1afffffb 	bne	8738 <notmain+0x28c>
    8748:	ee1f3f3c 	mrc	15, 0, r3, cr15, cr12, {1}
    874c:	ee1f0f3c 	mrc	15, 0, r0, cr15, cr12, {1}
    8750:	e0630000 	rsb	r0, r3, r0
    8754:	e1560000 	cmp	r6, r0
    8758:	8afffffb 	bhi	874c <notmain+0x2a0>
    875c:	e086700a 	add	r7, r6, sl
    8760:	ee1f0f3c 	mrc	15, 0, r0, cr15, cr12, {1}
    8764:	e0630000 	rsb	r0, r3, r0
    8768:	e1500007 	cmp	r0, r7
    876c:	3afffffb 	bcc	8760 <notmain+0x2b4>
    8770:	e5998034 	ldr	r8, [r9, #52]	; 0x34
    8774:	e087000a 	add	r0, r7, sl
    8778:	e0088002 	and	r8, r8, r2
    877c:	e1a08a28 	lsr	r8, r8, #20
    8780:	e1a08388 	lsl	r8, r8, #7
    8784:	e6ef8078 	uxtb	r8, r8
    8788:	e58d000c 	str	r0, [sp, #12]
    878c:	e58d801c 	str	r8, [sp, #28]
    8790:	e1a0c000 	mov	ip, r0
    8794:	ee1f0f3c 	mrc	15, 0, r0, cr15, cr12, {1}
    8798:	e0630000 	rsb	r0, r3, r0
    879c:	e15c0000 	cmp	ip, r0
    87a0:	8afffffb 	bhi	8794 <notmain+0x2e8>
    87a4:	e5998034 	ldr	r8, [r9, #52]	; 0x34
    87a8:	e59d000c 	ldr	r0, [sp, #12]
    87ac:	e0088002 	and	r8, r8, r2
    87b0:	e1a08728 	lsr	r8, r8, #14
    87b4:	e080000a 	add	r0, r0, sl
    87b8:	e2088040 	and	r8, r8, #64	; 0x40
    87bc:	e58d0010 	str	r0, [sp, #16]
    87c0:	e58d8020 	str	r8, [sp, #32]
    87c4:	e1a0c000 	mov	ip, r0
    87c8:	ee1f0f3c 	mrc	15, 0, r0, cr15, cr12, {1}
    87cc:	e0630000 	rsb	r0, r3, r0
    87d0:	e150000c 	cmp	r0, ip
    87d4:	3afffffb 	bcc	87c8 <notmain+0x31c>
    87d8:	e599b034 	ldr	fp, [r9, #52]	; 0x34
    87dc:	e59d8010 	ldr	r8, [sp, #16]
    87e0:	e00bb002 	and	fp, fp, r2
    87e4:	e1a0b7ab 	lsr	fp, fp, #15
    87e8:	e20bb020 	and	fp, fp, #32
    87ec:	e088500a 	add	r5, r8, sl
    87f0:	e58db024 	str	fp, [sp, #36]	; 0x24
    87f4:	ee1f0f3c 	mrc	15, 0, r0, cr15, cr12, {1}
    87f8:	e0630000 	rsb	r0, r3, r0
    87fc:	e1500005 	cmp	r0, r5
    8800:	3afffffb 	bcc	87f4 <notmain+0x348>
    8804:	e599b034 	ldr	fp, [r9, #52]	; 0x34
    8808:	e085400a 	add	r4, r5, sl
    880c:	e00bb002 	and	fp, fp, r2
    8810:	e1a0b82b 	lsr	fp, fp, #16
    8814:	e20bb010 	and	fp, fp, #16
    8818:	e58db028 	str	fp, [sp, #40]	; 0x28
    881c:	ee1f0f3c 	mrc	15, 0, r0, cr15, cr12, {1}
    8820:	e0630000 	rsb	r0, r3, r0
    8824:	e1500004 	cmp	r0, r4
    8828:	3afffffb 	bcc	881c <notmain+0x370>
    882c:	e599b034 	ldr	fp, [r9, #52]	; 0x34
    8830:	e084e00a 	add	lr, r4, sl
    8834:	e00bb002 	and	fp, fp, r2
    8838:	e1a0b8ab 	lsr	fp, fp, #17
    883c:	e20bb008 	and	fp, fp, #8
    8840:	e58db02c 	str	fp, [sp, #44]	; 0x2c
    8844:	ee1f0f3c 	mrc	15, 0, r0, cr15, cr12, {1}
    8848:	e0630000 	rsb	r0, r3, r0
    884c:	e150000e 	cmp	r0, lr
    8850:	3afffffb 	bcc	8844 <notmain+0x398>
    8854:	e599b034 	ldr	fp, [r9, #52]	; 0x34
    8858:	e08ec00a 	add	ip, lr, sl
    885c:	e00bb002 	and	fp, fp, r2
    8860:	e1a0b92b 	lsr	fp, fp, #18
    8864:	e20bb004 	and	fp, fp, #4
    8868:	e58db030 	str	fp, [sp, #48]	; 0x30
    886c:	ee1f0f3c 	mrc	15, 0, r0, cr15, cr12, {1}
    8870:	e0630000 	rsb	r0, r3, r0
    8874:	e150000c 	cmp	r0, ip
    8878:	3afffffb 	bcc	886c <notmain+0x3c0>
    887c:	e599b034 	ldr	fp, [r9, #52]	; 0x34
    8880:	e08c000a 	add	r0, ip, sl
    8884:	e00bb002 	and	fp, fp, r2
    8888:	e1a0b9ab 	lsr	fp, fp, #19
    888c:	e20bb002 	and	fp, fp, #2
    8890:	e58db034 	str	fp, [sp, #52]	; 0x34
    8894:	ee1f8f3c 	mrc	15, 0, r8, cr15, cr12, {1}
    8898:	e0638008 	rsb	r8, r3, r8
    889c:	e1580000 	cmp	r8, r0
    88a0:	3afffffb 	bcc	8894 <notmain+0x3e8>
    88a4:	e599b034 	ldr	fp, [r9, #52]	; 0x34
    88a8:	e59d801c 	ldr	r8, [sp, #28]
    88ac:	e58db004 	str	fp, [sp, #4]
    88b0:	e59db020 	ldr	fp, [sp, #32]
    88b4:	e188800b 	orr	r8, r8, fp
    88b8:	e58d801c 	str	r8, [sp, #28]
    88bc:	e59d8004 	ldr	r8, [sp, #4]
    88c0:	e008b002 	and	fp, r8, r2
    88c4:	e59d801c 	ldr	r8, [sp, #28]
    88c8:	e1a0b58b 	lsl	fp, fp, #11
    88cc:	e188bfab 	orr	fp, r8, fp, lsr #31
    88d0:	e59d8024 	ldr	r8, [sp, #36]	; 0x24
    88d4:	e18bb008 	orr	fp, fp, r8
    88d8:	e59d8028 	ldr	r8, [sp, #40]	; 0x28
    88dc:	e18bb008 	orr	fp, fp, r8
    88e0:	e59d802c 	ldr	r8, [sp, #44]	; 0x2c
    88e4:	e18bb008 	orr	fp, fp, r8
    88e8:	e59d8030 	ldr	r8, [sp, #48]	; 0x30
    88ec:	e18bb008 	orr	fp, fp, r8
    88f0:	e080800a 	add	r8, r0, sl
    88f4:	e59da034 	ldr	sl, [sp, #52]	; 0x34
    88f8:	e18bb00a 	orr	fp, fp, sl
    88fc:	ee1faf3c 	mrc	15, 0, sl, cr15, cr12, {1}
    8900:	e063a00a 	rsb	sl, r3, sl
    8904:	e15a0008 	cmp	sl, r8
    8908:	3afffffb 	bcc	88fc <notmain+0x450>
    890c:	e1a0b40b 	lsl	fp, fp, #8
    8910:	e5993034 	ldr	r3, [r9, #52]	; 0x34
    8914:	e0033002 	and	r3, r3, r2
    8918:	e1b03133 	lsrs	r3, r3, r1
    891c:	1afffffb 	bne	8910 <notmain+0x464>
    8920:	ee1f3f3c 	mrc	15, 0, r3, cr15, cr12, {1}
    8924:	ee1f1f3c 	mrc	15, 0, r1, cr15, cr12, {1}
    8928:	e0631001 	rsb	r1, r3, r1
    892c:	e1560001 	cmp	r6, r1
    8930:	8afffffb 	bhi	8924 <notmain+0x478>
    8934:	ee1f1f3c 	mrc	15, 0, r1, cr15, cr12, {1}
    8938:	e0631001 	rsb	r1, r3, r1
    893c:	e1510007 	cmp	r1, r7
    8940:	3afffffb 	bcc	8934 <notmain+0x488>
    8944:	e5996034 	ldr	r6, [r9, #52]	; 0x34
    8948:	e59d700c 	ldr	r7, [sp, #12]
    894c:	e0026006 	and	r6, r2, r6
    8950:	e1a06a26 	lsr	r6, r6, #20
    8954:	e1a06386 	lsl	r6, r6, #7
    8958:	e6ef6076 	uxtb	r6, r6
    895c:	ee1f1f3c 	mrc	15, 0, r1, cr15, cr12, {1}
    8960:	e0631001 	rsb	r1, r3, r1
    8964:	e1570001 	cmp	r7, r1
    8968:	8afffffb 	bhi	895c <notmain+0x4b0>
    896c:	e5997034 	ldr	r7, [r9, #52]	; 0x34
    8970:	e59da010 	ldr	sl, [sp, #16]
    8974:	e0027007 	and	r7, r2, r7
    8978:	e1a07727 	lsr	r7, r7, #14
    897c:	e2077040 	and	r7, r7, #64	; 0x40
    8980:	ee1f1f3c 	mrc	15, 0, r1, cr15, cr12, {1}
    8984:	e0631001 	rsb	r1, r3, r1
    8988:	e151000a 	cmp	r1, sl
    898c:	3afffffb 	bcc	8980 <notmain+0x4d4>
    8990:	e599a034 	ldr	sl, [r9, #52]	; 0x34
    8994:	e002a00a 	and	sl, r2, sl
    8998:	e1a0a7aa 	lsr	sl, sl, #15
    899c:	e20aa020 	and	sl, sl, #32
    89a0:	ee1f1f3c 	mrc	15, 0, r1, cr15, cr12, {1}
    89a4:	e0631001 	rsb	r1, r3, r1
    89a8:	e1510005 	cmp	r1, r5
    89ac:	3afffffb 	bcc	89a0 <notmain+0x4f4>
    89b0:	e5995034 	ldr	r5, [r9, #52]	; 0x34
    89b4:	e0025005 	and	r5, r2, r5
    89b8:	e1a05825 	lsr	r5, r5, #16
    89bc:	e2055010 	and	r5, r5, #16
    89c0:	ee1f1f3c 	mrc	15, 0, r1, cr15, cr12, {1}
    89c4:	e0631001 	rsb	r1, r3, r1
    89c8:	e1510004 	cmp	r1, r4
    89cc:	3afffffb 	bcc	89c0 <notmain+0x514>
    89d0:	e5994034 	ldr	r4, [r9, #52]	; 0x34
    89d4:	e0024004 	and	r4, r2, r4
    89d8:	e1a048a4 	lsr	r4, r4, #17
    89dc:	e2044008 	and	r4, r4, #8
    89e0:	ee1f1f3c 	mrc	15, 0, r1, cr15, cr12, {1}
    89e4:	e0631001 	rsb	r1, r3, r1
    89e8:	e151000e 	cmp	r1, lr
    89ec:	3afffffb 	bcc	89e0 <notmain+0x534>
    89f0:	e599e034 	ldr	lr, [r9, #52]	; 0x34
    89f4:	e002e00e 	and	lr, r2, lr
    89f8:	e1a0e92e 	lsr	lr, lr, #18
    89fc:	e20ee004 	and	lr, lr, #4
    8a00:	ee1f1f3c 	mrc	15, 0, r1, cr15, cr12, {1}
    8a04:	e0631001 	rsb	r1, r3, r1
    8a08:	e151000c 	cmp	r1, ip
    8a0c:	3afffffb 	bcc	8a00 <notmain+0x554>
    8a10:	e599c034 	ldr	ip, [r9, #52]	; 0x34
    8a14:	e002c00c 	and	ip, r2, ip
    8a18:	e1a0c9ac 	lsr	ip, ip, #19
    8a1c:	e20cc002 	and	ip, ip, #2
    8a20:	ee1f1f3c 	mrc	15, 0, r1, cr15, cr12, {1}
    8a24:	e0631001 	rsb	r1, r3, r1
    8a28:	e1510000 	cmp	r1, r0
    8a2c:	3afffffb 	bcc	8a20 <notmain+0x574>
    8a30:	e5991034 	ldr	r1, [r9, #52]	; 0x34
    8a34:	e0022001 	and	r2, r2, r1
    8a38:	e1a02a22 	lsr	r2, r2, #20
    8a3c:	e2022001 	and	r2, r2, #1
    8a40:	ee1f1f3c 	mrc	15, 0, r1, cr15, cr12, {1}
    8a44:	e0631001 	rsb	r1, r3, r1
    8a48:	e1510008 	cmp	r1, r8
    8a4c:	3afffffb 	bcc	8a40 <notmain+0x594>
    8a50:	e59d0018 	ldr	r0, [sp, #24]
    8a54:	e59d1014 	ldr	r1, [sp, #20]
    8a58:	e1803001 	orr	r3, r0, r1
    8a5c:	e1832002 	orr	r2, r3, r2
    8a60:	e1826006 	orr	r6, r2, r6
    8a64:	e1867007 	orr	r7, r6, r7
    8a68:	e187a00a 	orr	sl, r7, sl
    8a6c:	e18a5005 	orr	r5, sl, r5
    8a70:	e1854004 	orr	r4, r5, r4
    8a74:	e184e00e 	orr	lr, r4, lr
    8a78:	e18ec00c 	orr	ip, lr, ip
    8a7c:	e59d2008 	ldr	r2, [sp, #8]
    8a80:	e18cb00b 	orr	fp, ip, fp
    8a84:	e152000b 	cmp	r2, fp
    8a88:	1a000008 	bne	8ab0 <notmain+0x604>
    8a8c:	e59f803c 	ldr	r8, [pc, #60]	; 8ad0 <notmain+0x624>
    8a90:	e2823001 	add	r3, r2, #1
    8a94:	e1530008 	cmp	r3, r8
    8a98:	e58d3008 	str	r3, [sp, #8]
    8a9c:	1afffea7 	bne	8540 <notmain+0x94>
    8aa0:	e59f002c 	ldr	r0, [pc, #44]	; 8ad4 <notmain+0x628>
    8aa4:	e3a01a01 	mov	r1, #4096	; 0x1000
    8aa8:	eb00000b 	bl	8adc <printk>
    8aac:	eb000182 	bl	90bc <clean_reboot>
    8ab0:	e1a0100b 	mov	r1, fp
    8ab4:	e59f001c 	ldr	r0, [pc, #28]	; 8ad8 <notmain+0x62c>
    8ab8:	eb000007 	bl	8adc <printk>
    8abc:	eafffffa 	b	8aac <notmain+0x600>
    8ac0:	00009bb4 			; <UNDEFINED> instruction: 0x00009bb4
    8ac4:	000002f7 	strdeq	r0, [r0], -r7
    8ac8:	20200000 	eorcs	r0, r0, r0
    8acc:	00009a54 	andeq	r9, r0, r4, asr sl
    8ad0:	00001001 	andeq	r1, r0, r1
    8ad4:	00009a88 	andeq	r9, r0, r8, lsl #21
    8ad8:	00009a64 	andeq	r9, r0, r4, ror #20

00008adc <printk>:
    8adc:	e92d000f 	push	{r0, r1, r2, r3}
    8ae0:	e92d4030 	push	{r4, r5, lr}
    8ae4:	e24dd00c 	sub	sp, sp, #12
    8ae8:	e28d301c 	add	r3, sp, #28
    8aec:	e58d3004 	str	r3, [sp, #4]
    8af0:	e59f4034 	ldr	r4, [pc, #52]	; 8b2c <printk+0x50>
    8af4:	e1a00004 	mov	r0, r4
    8af8:	e3a01b01 	mov	r1, #1024	; 0x400
    8afc:	e59d2018 	ldr	r2, [sp, #24]
    8b00:	eb0000c3 	bl	8e14 <va_printk>
    8b04:	e1a05000 	mov	r5, r0
    8b08:	e59f3020 	ldr	r3, [pc, #32]	; 8b30 <printk+0x54>
    8b0c:	e5933000 	ldr	r3, [r3]
    8b10:	e1a00004 	mov	r0, r4
    8b14:	e12fff33 	blx	r3
    8b18:	e1a00005 	mov	r0, r5
    8b1c:	e28dd00c 	add	sp, sp, #12
    8b20:	e8bd4030 	pop	{r4, r5, lr}
    8b24:	e28dd010 	add	sp, sp, #16
    8b28:	e12fff1e 	bx	lr
    8b2c:	00009bc4 	andeq	r9, r0, r4, asr #23
    8b30:	00009970 	andeq	r9, r0, r0, ror r9

00008b34 <internal_putchar>:
    8b34:	e92d4010 	push	{r4, lr}
    8b38:	e1a04000 	mov	r4, r0
    8b3c:	eb00035b 	bl	98b0 <uart_putc>
    8b40:	e1a00004 	mov	r0, r4
    8b44:	e8bd8010 	pop	{r4, pc}

00008b48 <rpi_reset_putc>:
    8b48:	e59f2008 	ldr	r2, [pc, #8]	; 8b58 <rpi_reset_putc+0x10>
    8b4c:	e59f3008 	ldr	r3, [pc, #8]	; 8b5c <rpi_reset_putc+0x14>
    8b50:	e5832000 	str	r2, [r3]
    8b54:	e12fff1e 	bx	lr
    8b58:	00008b34 	andeq	r8, r0, r4, lsr fp
    8b5c:	0000996c 	andeq	r9, r0, ip, ror #18

00008b60 <rpi_set_putc>:
    8b60:	e59f3004 	ldr	r3, [pc, #4]	; 8b6c <rpi_set_putc+0xc>
    8b64:	e5830000 	str	r0, [r3]
    8b68:	e12fff1e 	bx	lr
    8b6c:	0000996c 	andeq	r9, r0, ip, ror #18

00008b70 <internal_putk>:
    8b70:	e92d4038 	push	{r3, r4, r5, lr}
    8b74:	e1a04000 	mov	r4, r0
    8b78:	e59f5020 	ldr	r5, [pc, #32]	; 8ba0 <internal_putk+0x30>
    8b7c:	ea000002 	b	8b8c <internal_putk+0x1c>
    8b80:	e5953000 	ldr	r3, [r5]
    8b84:	e12fff33 	blx	r3
    8b88:	e2844001 	add	r4, r4, #1
    8b8c:	e5d40000 	ldrb	r0, [r4]
    8b90:	e3500000 	cmp	r0, #0
    8b94:	1afffff9 	bne	8b80 <internal_putk+0x10>
    8b98:	e3a00001 	mov	r0, #1
    8b9c:	e8bd8038 	pop	{r3, r4, r5, pc}
    8ba0:	0000996c 	andeq	r9, r0, ip, ror #18

00008ba4 <isdigit>:
    8ba4:	e2400030 	sub	r0, r0, #48	; 0x30
    8ba8:	e3500009 	cmp	r0, #9
    8bac:	83a00000 	movhi	r0, #0
    8bb0:	93a00001 	movls	r0, #1
    8bb4:	e12fff1e 	bx	lr

00008bb8 <pad>:
    8bb8:	e0611000 	rsb	r1, r1, r0
    8bbc:	e3a03020 	mov	r3, #32
    8bc0:	ea000002 	b	8bd0 <pad+0x18>
    8bc4:	e5c03000 	strb	r3, [r0]
    8bc8:	e2811001 	add	r1, r1, #1
    8bcc:	e2800001 	add	r0, r0, #1
    8bd0:	e1510002 	cmp	r1, r2
    8bd4:	bafffffa 	blt	8bc4 <pad+0xc>
    8bd8:	e3a03000 	mov	r3, #0
    8bdc:	e5c03000 	strb	r3, [r0]
    8be0:	e12fff1e 	bx	lr

00008be4 <reverse>:
    8be4:	e063c002 	rsb	ip, r3, r2
    8be8:	e28cc001 	add	ip, ip, #1
    8bec:	e15c0001 	cmp	ip, r1
    8bf0:	c061100c 	rsbgt	r1, r1, ip
    8bf4:	c0833001 	addgt	r3, r3, r1
    8bf8:	e2422001 	sub	r2, r2, #1
    8bfc:	e1a01000 	mov	r1, r0
    8c00:	ea000002 	b	8c10 <reverse+0x2c>
    8c04:	e452c001 	ldrb	ip, [r2], #-1
    8c08:	e5c1c000 	strb	ip, [r1]
    8c0c:	e2811001 	add	r1, r1, #1
    8c10:	e1520003 	cmp	r2, r3
    8c14:	2afffffa 	bcs	8c04 <reverse+0x20>
    8c18:	e3a03000 	mov	r3, #0
    8c1c:	e5c13000 	strb	r3, [r1]
    8c20:	e12fff1e 	bx	lr

00008c24 <emit>:
    8c24:	e92d41f0 	push	{r4, r5, r6, r7, r8, lr}
    8c28:	e24dd040 	sub	sp, sp, #64	; 0x40
    8c2c:	e1a05001 	mov	r5, r1
    8c30:	e1a04002 	mov	r4, r2
    8c34:	e59d2058 	ldr	r2, [sp, #88]	; 0x58
    8c38:	e1520004 	cmp	r2, r4
    8c3c:	c2442001 	subgt	r2, r4, #1
    8c40:	e1a0c003 	mov	ip, r3
    8c44:	e2400002 	sub	r0, r0, #2
    8c48:	e350000e 	cmp	r0, #14
    8c4c:	979ff100 	ldrls	pc, [pc, r0, lsl #2]
    8c50:	ea000042 	b	8d60 <emit+0x13c>
    8c54:	00008d38 	andeq	r8, r0, r8, lsr sp
    8c58:	00008d60 	andeq	r8, r0, r0, ror #26
    8c5c:	00008d60 	andeq	r8, r0, r0, ror #26
    8c60:	00008d60 	andeq	r8, r0, r0, ror #26
    8c64:	00008d60 	andeq	r8, r0, r0, ror #26
    8c68:	00008d60 	andeq	r8, r0, r0, ror #26
    8c6c:	00008d2c 	andeq	r8, r0, ip, lsr #26
    8c70:	00008d60 	andeq	r8, r0, r0, ror #26
    8c74:	00008c90 	muleq	r0, r0, ip
    8c78:	00008d60 	andeq	r8, r0, r0, ror #26
    8c7c:	00008d60 	andeq	r8, r0, r0, ror #26
    8c80:	00008d60 	andeq	r8, r0, r0, ror #26
    8c84:	00008d60 	andeq	r8, r0, r0, ror #26
    8c88:	00008d60 	andeq	r8, r0, r0, ror #26
    8c8c:	00008d04 	andeq	r8, r0, r4, lsl #26
    8c90:	e59d105c 	ldr	r1, [sp, #92]	; 0x5c
    8c94:	e2911000 	adds	r1, r1, #0
    8c98:	13a01001 	movne	r1, #1
    8c9c:	e0111fa3 	ands	r1, r1, r3, lsr #31
    8ca0:	1263c000 	rsbne	ip, r3, #0
    8ca4:	13a08001 	movne	r8, #1
    8ca8:	03a08000 	moveq	r8, #0
    8cac:	e1a0100d 	mov	r1, sp
    8cb0:	e59f70ec 	ldr	r7, [pc, #236]	; 8da4 <emit+0x180>
    8cb4:	e59f60ec 	ldr	r6, [pc, #236]	; 8da8 <emit+0x184>
    8cb8:	ea000000 	b	8cc0 <emit+0x9c>
    8cbc:	e1a01003 	mov	r1, r3
    8cc0:	e2813001 	add	r3, r1, #1
    8cc4:	e08e0c97 	umull	r0, lr, r7, ip
    8cc8:	e1a0e1ae 	lsr	lr, lr, #3
    8ccc:	e1a0000e 	mov	r0, lr
    8cd0:	e08ee10e 	add	lr, lr, lr, lsl #2
    8cd4:	e1a0e08e 	lsl	lr, lr, #1
    8cd8:	e06ee00c 	rsb	lr, lr, ip
    8cdc:	e7d6c00e 	ldrb	ip, [r6, lr]
    8ce0:	e5c1c000 	strb	ip, [r1]
    8ce4:	e1a0c000 	mov	ip, r0
    8ce8:	e3500000 	cmp	r0, #0
    8cec:	1afffff2 	bne	8cbc <emit+0x98>
    8cf0:	e3580000 	cmp	r8, #0
    8cf4:	12813002 	addne	r3, r1, #2
    8cf8:	13a0002d 	movne	r0, #45	; 0x2d
    8cfc:	15c10001 	strbne	r0, [r1, #1]
    8d00:	ea00001d 	b	8d7c <emit+0x158>
    8d04:	e1a0e00d 	mov	lr, sp
    8d08:	e59f009c 	ldr	r0, [pc, #156]	; 8dac <emit+0x188>
    8d0c:	e28e3001 	add	r3, lr, #1
    8d10:	e20c100f 	and	r1, ip, #15
    8d14:	e7d01001 	ldrb	r1, [r0, r1]
    8d18:	e5ce1000 	strb	r1, [lr]
    8d1c:	e1a0e003 	mov	lr, r3
    8d20:	e1b0c22c 	lsrs	ip, ip, #4
    8d24:	1afffff8 	bne	8d0c <emit+0xe8>
    8d28:	ea000013 	b	8d7c <emit+0x158>
    8d2c:	e5cd3000 	strb	r3, [sp]
    8d30:	e28d3001 	add	r3, sp, #1
    8d34:	ea000010 	b	8d7c <emit+0x158>
    8d38:	e1a0e00d 	mov	lr, sp
    8d3c:	e59f006c 	ldr	r0, [pc, #108]	; 8db0 <emit+0x18c>
    8d40:	e28e3001 	add	r3, lr, #1
    8d44:	e20c1001 	and	r1, ip, #1
    8d48:	e7d01001 	ldrb	r1, [r0, r1]
    8d4c:	e5ce1000 	strb	r1, [lr]
    8d50:	e1a0e003 	mov	lr, r3
    8d54:	e1b0c0ac 	lsrs	ip, ip, #1
    8d58:	1afffff8 	bne	8d40 <emit+0x11c>
    8d5c:	ea000006 	b	8d7c <emit+0x158>
    8d60:	ebffff78 	bl	8b48 <rpi_reset_putc>
    8d64:	e59f0048 	ldr	r0, [pc, #72]	; 8db4 <emit+0x190>
    8d68:	e59f1048 	ldr	r1, [pc, #72]	; 8db8 <emit+0x194>
    8d6c:	e59f2048 	ldr	r2, [pc, #72]	; 8dbc <emit+0x198>
    8d70:	e3a03075 	mov	r3, #117	; 0x75
    8d74:	ebffff58 	bl	8adc <printk>
    8d78:	eb0000cf 	bl	90bc <clean_reboot>
    8d7c:	e1a00003 	mov	r0, r3
    8d80:	e1a0100d 	mov	r1, sp
    8d84:	ebffff8b 	bl	8bb8 <pad>
    8d88:	e1a02000 	mov	r2, r0
    8d8c:	e1a00005 	mov	r0, r5
    8d90:	e1a01004 	mov	r1, r4
    8d94:	e1a0300d 	mov	r3, sp
    8d98:	ebffff91 	bl	8be4 <reverse>
    8d9c:	e28dd040 	add	sp, sp, #64	; 0x40
    8da0:	e8bd81f0 	pop	{r4, r5, r6, r7, r8, pc}
    8da4:	cccccccd 	stclgt	12, cr12, [ip], {205}	; 0xcd
    8da8:	00009af0 	strdeq	r9, [r0], -r0
    8dac:	00009afc 	strdeq	r9, [r0], -ip
    8db0:	00009b10 	andeq	r9, r0, r0, lsl fp
    8db4:	00009ac8 	andeq	r9, r0, r8, asr #21
    8db8:	00009adc 	ldrdeq	r9, [r0], -ip
    8dbc:	00009aa4 	andeq	r9, r0, r4, lsr #21

00008dc0 <rpi_set_output>:
    8dc0:	e92d4008 	push	{r3, lr}
    8dc4:	e3500000 	cmp	r0, #0
    8dc8:	1a000006 	bne	8de8 <rpi_set_output+0x28>
    8dcc:	ebffff5d 	bl	8b48 <rpi_reset_putc>
    8dd0:	e59f0028 	ldr	r0, [pc, #40]	; 8e00 <rpi_set_output+0x40>
    8dd4:	e59f1028 	ldr	r1, [pc, #40]	; 8e04 <rpi_set_output+0x44>
    8dd8:	e59f2028 	ldr	r2, [pc, #40]	; 8e08 <rpi_set_output+0x48>
    8ddc:	e3a03020 	mov	r3, #32
    8de0:	ebffff3d 	bl	8adc <printk>
    8de4:	eb0000b4 	bl	90bc <clean_reboot>
    8de8:	e59f301c 	ldr	r3, [pc, #28]	; 8e0c <rpi_set_output+0x4c>
    8dec:	e5830000 	str	r0, [r3]
    8df0:	e3510000 	cmp	r1, #0
    8df4:	159f3014 	ldrne	r3, [pc, #20]	; 8e10 <rpi_set_output+0x50>
    8df8:	15831000 	strne	r1, [r3]
    8dfc:	e8bd8008 	pop	{r3, pc}
    8e00:	00009b14 	andeq	r9, r0, r4, lsl fp
    8e04:	00009adc 	ldrdeq	r9, [r0], -ip
    8e08:	00009aac 	andeq	r9, r0, ip, lsr #21
    8e0c:	0000996c 	andeq	r9, r0, ip, ror #18
    8e10:	00009970 	andeq	r9, r0, r0, ror r9

00008e14 <va_printk>:
    8e14:	e92d4ff0 	push	{r4, r5, r6, r7, r8, r9, sl, fp, lr}
    8e18:	e24dd08c 	sub	sp, sp, #140	; 0x8c
    8e1c:	e1a0a000 	mov	sl, r0
    8e20:	e1a09003 	mov	r9, r3
    8e24:	e2411001 	sub	r1, r1, #1
    8e28:	e0808001 	add	r8, r0, r1
    8e2c:	e3a03000 	mov	r3, #0
    8e30:	e5c03000 	strb	r3, [r0]
    8e34:	e1a04000 	mov	r4, r0
    8e38:	e1a0b003 	mov	fp, r3
    8e3c:	ea000086 	b	905c <va_printk+0x248>
    8e40:	e3530025 	cmp	r3, #37	; 0x25
    8e44:	12822001 	addne	r2, r2, #1
    8e48:	15c43000 	strbne	r3, [r4]
    8e4c:	12844001 	addne	r4, r4, #1
    8e50:	1a000081 	bne	905c <va_printk+0x248>
    8e54:	e5d21001 	ldrb	r1, [r2, #1]
    8e58:	e3510025 	cmp	r1, #37	; 0x25
    8e5c:	05c43000 	strbeq	r3, [r4]
    8e60:	02822002 	addeq	r2, r2, #2
    8e64:	02844001 	addeq	r4, r4, #1
    8e68:	0a00007b 	beq	905c <va_printk+0x248>
    8e6c:	e2826001 	add	r6, r2, #1
    8e70:	e1a0700b 	mov	r7, fp
    8e74:	ea000004 	b	8e8c <va_printk+0x78>
    8e78:	e0877107 	add	r7, r7, r7, lsl #2
    8e7c:	e1a07087 	lsl	r7, r7, #1
    8e80:	e0877005 	add	r7, r7, r5
    8e84:	e2477030 	sub	r7, r7, #48	; 0x30
    8e88:	e2866001 	add	r6, r6, #1
    8e8c:	e5d65000 	ldrb	r5, [r6]
    8e90:	e1a00005 	mov	r0, r5
    8e94:	ebffff42 	bl	8ba4 <isdigit>
    8e98:	e3500000 	cmp	r0, #0
    8e9c:	1afffff5 	bne	8e78 <va_printk+0x64>
    8ea0:	e357001f 	cmp	r7, #31
    8ea4:	9a000006 	bls	8ec4 <va_printk+0xb0>
    8ea8:	ebffff26 	bl	8b48 <rpi_reset_putc>
    8eac:	e59f01d4 	ldr	r0, [pc, #468]	; 9088 <va_printk+0x274>
    8eb0:	e59f11d4 	ldr	r1, [pc, #468]	; 908c <va_printk+0x278>
    8eb4:	e59f21d4 	ldr	r2, [pc, #468]	; 9090 <va_printk+0x27c>
    8eb8:	e3a03092 	mov	r3, #146	; 0x92
    8ebc:	ebffff06 	bl	8adc <printk>
    8ec0:	eb00007d 	bl	90bc <clean_reboot>
    8ec4:	e2455062 	sub	r5, r5, #98	; 0x62
    8ec8:	e3550016 	cmp	r5, #22
    8ecc:	979ff105 	ldrls	pc, [pc, r5, lsl #2]
    8ed0:	ea00004e 	b	9010 <va_printk+0x1fc>
    8ed4:	00008fbc 			; <UNDEFINED> instruction: 0x00008fbc
    8ed8:	00008fec 	andeq	r8, r0, ip, ror #31
    8edc:	00008f4c 	andeq	r8, r0, ip, asr #30
    8ee0:	00009010 	andeq	r9, r0, r0, lsl r0
    8ee4:	00008f30 	andeq	r8, r0, r0, lsr pc
    8ee8:	00009010 	andeq	r9, r0, r0, lsl r0
    8eec:	00009010 	andeq	r9, r0, r0, lsl r0
    8ef0:	00009010 	andeq	r9, r0, r0, lsl r0
    8ef4:	00009010 	andeq	r9, r0, r0, lsl r0
    8ef8:	00009010 	andeq	r9, r0, r0, lsl r0
    8efc:	00009010 	andeq	r9, r0, r0, lsl r0
    8f00:	00009010 	andeq	r9, r0, r0, lsl r0
    8f04:	00009010 	andeq	r9, r0, r0, lsl r0
    8f08:	00009010 	andeq	r9, r0, r0, lsl r0
    8f0c:	00008f98 	muleq	r0, r8, pc	; <UNPREDICTABLE>
    8f10:	00009010 	andeq	r9, r0, r0, lsl r0
    8f14:	00009010 	andeq	r9, r0, r0, lsl r0
    8f18:	00008fe0 	andeq	r8, r0, r0, ror #31
    8f1c:	00009010 	andeq	r9, r0, r0, lsl r0
    8f20:	00008f74 	andeq	r8, r0, r4, ror pc
    8f24:	00009010 	andeq	r9, r0, r0, lsl r0
    8f28:	00009010 	andeq	r9, r0, r0, lsl r0
    8f2c:	00008f98 	muleq	r0, r8, pc	; <UNPREDICTABLE>
    8f30:	ebffff04 	bl	8b48 <rpi_reset_putc>
    8f34:	e59f0158 	ldr	r0, [pc, #344]	; 9094 <va_printk+0x280>
    8f38:	e59f114c 	ldr	r1, [pc, #332]	; 908c <va_printk+0x278>
    8f3c:	e59f214c 	ldr	r2, [pc, #332]	; 9090 <va_printk+0x27c>
    8f40:	e3a03098 	mov	r3, #152	; 0x98
    8f44:	ebfffee4 	bl	8adc <printk>
    8f48:	eb00005b 	bl	90bc <clean_reboot>
    8f4c:	e5993000 	ldr	r3, [r9]
    8f50:	e2899004 	add	r9, r9, #4
    8f54:	e58d7000 	str	r7, [sp]
    8f58:	e3a02001 	mov	r2, #1
    8f5c:	e58d2004 	str	r2, [sp, #4]
    8f60:	e3a0000a 	mov	r0, #10
    8f64:	e28d1008 	add	r1, sp, #8
    8f68:	e3a02080 	mov	r2, #128	; 0x80
    8f6c:	ebffff2c 	bl	8c24 <emit>
    8f70:	ea00002f 	b	9034 <va_printk+0x220>
    8f74:	e5993000 	ldr	r3, [r9]
    8f78:	e2899004 	add	r9, r9, #4
    8f7c:	e58d7000 	str	r7, [sp]
    8f80:	e58db004 	str	fp, [sp, #4]
    8f84:	e3a0000a 	mov	r0, #10
    8f88:	e28d1008 	add	r1, sp, #8
    8f8c:	e3a02080 	mov	r2, #128	; 0x80
    8f90:	ebffff23 	bl	8c24 <emit>
    8f94:	ea000026 	b	9034 <va_printk+0x220>
    8f98:	e5993000 	ldr	r3, [r9]
    8f9c:	e2899004 	add	r9, r9, #4
    8fa0:	e58d7000 	str	r7, [sp]
    8fa4:	e58db004 	str	fp, [sp, #4]
    8fa8:	e3a00010 	mov	r0, #16
    8fac:	e28d1008 	add	r1, sp, #8
    8fb0:	e3a02080 	mov	r2, #128	; 0x80
    8fb4:	ebffff1a 	bl	8c24 <emit>
    8fb8:	ea00001d 	b	9034 <va_printk+0x220>
    8fbc:	e5993000 	ldr	r3, [r9]
    8fc0:	e2899004 	add	r9, r9, #4
    8fc4:	e58d7000 	str	r7, [sp]
    8fc8:	e58db004 	str	fp, [sp, #4]
    8fcc:	e3a00002 	mov	r0, #2
    8fd0:	e28d1008 	add	r1, sp, #8
    8fd4:	e3a02080 	mov	r2, #128	; 0x80
    8fd8:	ebffff11 	bl	8c24 <emit>
    8fdc:	ea000014 	b	9034 <va_printk+0x220>
    8fe0:	e5990000 	ldr	r0, [r9]
    8fe4:	e2899004 	add	r9, r9, #4
    8fe8:	ea000011 	b	9034 <va_printk+0x220>
    8fec:	e5993000 	ldr	r3, [r9]
    8ff0:	e2899004 	add	r9, r9, #4
    8ff4:	e58d7000 	str	r7, [sp]
    8ff8:	e58db004 	str	fp, [sp, #4]
    8ffc:	e3a00008 	mov	r0, #8
    9000:	e08d1000 	add	r1, sp, r0
    9004:	e3a02080 	mov	r2, #128	; 0x80
    9008:	ebffff05 	bl	8c24 <emit>
    900c:	ea000008 	b	9034 <va_printk+0x220>
    9010:	ebfffecc 	bl	8b48 <rpi_reset_putc>
    9014:	e5d63000 	ldrb	r3, [r6]
    9018:	e58d3000 	str	r3, [sp]
    901c:	e59f0074 	ldr	r0, [pc, #116]	; 9098 <va_printk+0x284>
    9020:	e59f1064 	ldr	r1, [pc, #100]	; 908c <va_printk+0x278>
    9024:	e59f2064 	ldr	r2, [pc, #100]	; 9090 <va_printk+0x27c>
    9028:	e3a030b9 	mov	r3, #185	; 0xb9
    902c:	ebfffeaa 	bl	8adc <printk>
    9030:	eb000021 	bl	90bc <clean_reboot>
    9034:	e2862001 	add	r2, r6, #1
    9038:	ea000002 	b	9048 <va_printk+0x234>
    903c:	e2800001 	add	r0, r0, #1
    9040:	e5c43000 	strb	r3, [r4]
    9044:	e2844001 	add	r4, r4, #1
    9048:	e1540008 	cmp	r4, r8
    904c:	2a000002 	bcs	905c <va_printk+0x248>
    9050:	e5d03000 	ldrb	r3, [r0]
    9054:	e3530000 	cmp	r3, #0
    9058:	1afffff7 	bne	903c <va_printk+0x228>
    905c:	e5d23000 	ldrb	r3, [r2]
    9060:	e3530000 	cmp	r3, #0
    9064:	0a000001 	beq	9070 <va_printk+0x25c>
    9068:	e1540008 	cmp	r4, r8
    906c:	3affff73 	bcc	8e40 <va_printk+0x2c>
    9070:	e2840001 	add	r0, r4, #1
    9074:	e3a03000 	mov	r3, #0
    9078:	e5c43000 	strb	r3, [r4]
    907c:	e06a0000 	rsb	r0, sl, r0
    9080:	e28dd08c 	add	sp, sp, #140	; 0x8c
    9084:	e8bd8ff0 	pop	{r4, r5, r6, r7, r8, r9, sl, fp, pc}
    9088:	00009b2c 	andeq	r9, r0, ip, lsr #22
    908c:	00009adc 	ldrdeq	r9, [r0], -ip
    9090:	00009abc 			; <UNDEFINED> instruction: 0x00009abc
    9094:	00009b48 	andeq	r9, r0, r8, asr #22
    9098:	00009b70 	andeq	r9, r0, r0, ror fp

0000909c <enable_cache>:
    909c:	ee113f10 	mrc	15, 0, r3, cr1, cr0, {0}
    90a0:	e3833b06 	orr	r3, r3, #6144	; 0x1800
    90a4:	ee013f10 	mcr	15, 0, r3, cr1, cr0, {0}
    90a8:	e12fff1e 	bx	lr

000090ac <disable_cache>:
    90ac:	ee113f10 	mrc	15, 0, r3, cr1, cr0, {0}
    90b0:	e3c33b06 	bic	r3, r3, #6144	; 0x1800
    90b4:	ee013f10 	mcr	15, 0, r3, cr1, cr0, {0}
    90b8:	e12fff1e 	bx	lr

000090bc <clean_reboot>:
    90bc:	e92d4008 	push	{r3, lr}
    90c0:	e59f3014 	ldr	r3, [pc, #20]	; 90dc <clean_reboot+0x20>
    90c4:	e5933000 	ldr	r3, [r3]
    90c8:	e59f0010 	ldr	r0, [pc, #16]	; 90e0 <clean_reboot+0x24>
    90cc:	e12fff33 	blx	r3
    90d0:	e3a00064 	mov	r0, #100	; 0x64
    90d4:	eb000044 	bl	91ec <delay_ms>
    90d8:	eb000019 	bl	9144 <rpi_reboot>
    90dc:	00009970 	andeq	r9, r0, r0, ror r9
    90e0:	00009ba8 	andeq	r9, r0, r8, lsr #23

000090e4 <_cstart>:
    90e4:	e92d4008 	push	{r3, lr}
    90e8:	e59f3020 	ldr	r3, [pc, #32]	; 9110 <_cstart+0x2c>
    90ec:	e59f2020 	ldr	r2, [pc, #32]	; 9114 <_cstart+0x30>
    90f0:	e3a01000 	mov	r1, #0
    90f4:	ea000001 	b	9100 <_cstart+0x1c>
    90f8:	e5831000 	str	r1, [r3]
    90fc:	e2833004 	add	r3, r3, #4
    9100:	e1530002 	cmp	r3, r2
    9104:	3afffffb 	bcc	90f8 <_cstart+0x14>
    9108:	ebfffce7 	bl	84ac <notmain>
    910c:	eb00000c 	bl	9144 <rpi_reboot>
    9110:	00009bb4 			; <UNDEFINED> instruction: 0x00009bb4
    9114:	00009fc8 	andeq	r9, r0, r8, asr #31

00009118 <at_user_level>:
    9118:	e10f0000 	mrs	r0, CPSR
    911c:	e200001f 	and	r0, r0, #31
    9120:	e3500010 	cmp	r0, #16
    9124:	13a00000 	movne	r0, #0
    9128:	03a00001 	moveq	r0, #1
    912c:	e12fff1e 	bx	lr

00009130 <set_user_level>:
    9130:	e10f3000 	mrs	r3, CPSR
    9134:	e3c3301f 	bic	r3, r3, #31
    9138:	e3833010 	orr	r3, r3, #16
    913c:	e129f003 	msr	CPSR_fc, r3
    9140:	e12fff1e 	bx	lr

00009144 <rpi_reboot>:
    9144:	e92d4008 	push	{r3, lr}
    9148:	ebfffff2 	bl	9118 <at_user_level>
    914c:	e3500000 	cmp	r0, #0
    9150:	0a000000 	beq	9158 <rpi_reboot+0x14>
    9154:	ebfffff5 	bl	9130 <set_user_level>
    9158:	e3a0001e 	mov	r0, #30
    915c:	eb000022 	bl	91ec <delay_ms>
    9160:	e59f0014 	ldr	r0, [pc, #20]	; 917c <rpi_reboot+0x38>
    9164:	e59f1014 	ldr	r1, [pc, #20]	; 9180 <rpi_reboot+0x3c>
    9168:	eb0001ee 	bl	9928 <PUT32>
    916c:	e59f0010 	ldr	r0, [pc, #16]	; 9184 <rpi_reboot+0x40>
    9170:	e59f1010 	ldr	r1, [pc, #16]	; 9188 <rpi_reboot+0x44>
    9174:	eb0001eb 	bl	9928 <PUT32>
    9178:	eafffffe 	b	9178 <rpi_reboot+0x34>
    917c:	20100024 	andscs	r0, r0, r4, lsr #32
    9180:	5a000001 	bpl	918c <delay_cycles>
    9184:	2010001c 	andscs	r0, r0, ip, lsl r0
    9188:	5a000020 	bpl	9210 <delay_sec+0x10>

0000918c <delay_cycles>:
    918c:	ea000001 	b	9198 <delay_cycles+0xc>
    9190:	e2811000 	add	r1, r1, #0
    9194:	e1a00003 	mov	r0, r3
    9198:	e2403001 	sub	r3, r0, #1
    919c:	e3500000 	cmp	r0, #0
    91a0:	1afffffa 	bne	9190 <delay_cycles+0x4>
    91a4:	e12fff1e 	bx	lr

000091a8 <timer_get_usec_raw>:
    91a8:	e92d4008 	push	{r3, lr}
    91ac:	e59f0004 	ldr	r0, [pc, #4]	; 91b8 <timer_get_usec_raw+0x10>
    91b0:	eb0001e8 	bl	9958 <GET32>
    91b4:	e8bd8008 	pop	{r3, pc}
    91b8:	20003004 	andcs	r3, r0, r4

000091bc <timer_get_usec>:
    91bc:	e92d4008 	push	{r3, lr}
    91c0:	ebfffff8 	bl	91a8 <timer_get_usec_raw>
    91c4:	e8bd8008 	pop	{r3, pc}

000091c8 <delay_us>:
    91c8:	e92d4038 	push	{r3, r4, r5, lr}
    91cc:	e1a05000 	mov	r5, r0
    91d0:	ebfffff9 	bl	91bc <timer_get_usec>
    91d4:	e1a04000 	mov	r4, r0
    91d8:	ebfffff7 	bl	91bc <timer_get_usec>
    91dc:	e0640000 	rsb	r0, r4, r0
    91e0:	e1500005 	cmp	r0, r5
    91e4:	3afffffb 	bcc	91d8 <delay_us+0x10>
    91e8:	e8bd8038 	pop	{r3, r4, r5, pc}

000091ec <delay_ms>:
    91ec:	e92d4008 	push	{r3, lr}
    91f0:	e3a03ffa 	mov	r3, #1000	; 0x3e8
    91f4:	e0000093 	mul	r0, r3, r0
    91f8:	ebfffff2 	bl	91c8 <delay_us>
    91fc:	e8bd8008 	pop	{r3, pc}

00009200 <delay_sec>:
    9200:	e92d4008 	push	{r3, lr}
    9204:	e3a03ffa 	mov	r3, #1000	; 0x3e8
    9208:	e0000093 	mul	r0, r3, r0
    920c:	ebfffff6 	bl	91ec <delay_ms>
    9210:	e8bd8008 	pop	{r3, pc}

00009214 <gpio_set_output>:
    9214:	e92d4038 	push	{r3, r4, r5, lr}
    9218:	e1a04000 	mov	r4, r0
    921c:	e350001f 	cmp	r0, #31
    9220:	88bd8038 	pophi	{r3, r4, r5, pc}
    9224:	e59f30b4 	ldr	r3, [pc, #180]	; 92e0 <gpio_set_output+0xcc>
    9228:	e0832093 	umull	r2, r3, r3, r0
    922c:	e1a031a3 	lsr	r3, r3, #3
    9230:	e3530005 	cmp	r3, #5
    9234:	979ff103 	ldrls	pc, [pc, r3, lsl #2]
    9238:	ea000017 	b	929c <gpio_set_output+0x88>
    923c:	00009254 	andeq	r9, r0, r4, asr r2
    9240:	00009260 	andeq	r9, r0, r0, ror #4
    9244:	0000926c 	andeq	r9, r0, ip, ror #4
    9248:	00009278 	andeq	r9, r0, r8, ror r2
    924c:	00009284 	andeq	r9, r0, r4, lsl #5
    9250:	00009290 	muleq	r0, r0, r2
    9254:	e59f3088 	ldr	r3, [pc, #136]	; 92e4 <gpio_set_output+0xd0>
    9258:	e5935000 	ldr	r5, [r3]
    925c:	ea00000f 	b	92a0 <gpio_set_output+0x8c>
    9260:	e59f307c 	ldr	r3, [pc, #124]	; 92e4 <gpio_set_output+0xd0>
    9264:	e5935004 	ldr	r5, [r3, #4]
    9268:	ea00000c 	b	92a0 <gpio_set_output+0x8c>
    926c:	e59f3070 	ldr	r3, [pc, #112]	; 92e4 <gpio_set_output+0xd0>
    9270:	e5935008 	ldr	r5, [r3, #8]
    9274:	ea000009 	b	92a0 <gpio_set_output+0x8c>
    9278:	e59f3064 	ldr	r3, [pc, #100]	; 92e4 <gpio_set_output+0xd0>
    927c:	e593500c 	ldr	r5, [r3, #12]
    9280:	ea000006 	b	92a0 <gpio_set_output+0x8c>
    9284:	e59f3058 	ldr	r3, [pc, #88]	; 92e4 <gpio_set_output+0xd0>
    9288:	e5935010 	ldr	r5, [r3, #16]
    928c:	ea000003 	b	92a0 <gpio_set_output+0x8c>
    9290:	e59f304c 	ldr	r3, [pc, #76]	; 92e4 <gpio_set_output+0xd0>
    9294:	e5935014 	ldr	r5, [r3, #20]
    9298:	ea000000 	b	92a0 <gpio_set_output+0x8c>
    929c:	e3a05000 	mov	r5, #0
    92a0:	e1a00005 	mov	r0, r5
    92a4:	eb0001a9 	bl	9950 <get32>
    92a8:	e59f1030 	ldr	r1, [pc, #48]	; 92e0 <gpio_set_output+0xcc>
    92ac:	e0813491 	umull	r3, r1, r1, r4
    92b0:	e1a011a1 	lsr	r1, r1, #3
    92b4:	e0811101 	add	r1, r1, r1, lsl #2
    92b8:	e1a01081 	lsl	r1, r1, #1
    92bc:	e0611004 	rsb	r1, r1, r4
    92c0:	e0811081 	add	r1, r1, r1, lsl #1
    92c4:	e3a03007 	mov	r3, #7
    92c8:	e1c03113 	bic	r3, r0, r3, lsl r1
    92cc:	e1a00005 	mov	r0, r5
    92d0:	e3a02001 	mov	r2, #1
    92d4:	e1831112 	orr	r1, r3, r2, lsl r1
    92d8:	eb000190 	bl	9920 <put32>
    92dc:	e8bd8038 	pop	{r3, r4, r5, pc}
    92e0:	cccccccd 	stclgt	12, cr12, [ip], {205}	; 0xcd
    92e4:	00009974 	andeq	r9, r0, r4, ror r9

000092e8 <gpio_set_on>:
    92e8:	e92d4008 	push	{r3, lr}
    92ec:	e350001f 	cmp	r0, #31
    92f0:	88bd8008 	pophi	{r3, pc}
    92f4:	959f3020 	ldrls	r3, [pc, #32]	; 931c <gpio_set_on+0x34>
    92f8:	95932018 	ldrls	r2, [r3, #24]
    92fc:	859f3018 	ldrhi	r3, [pc, #24]	; 931c <gpio_set_on+0x34>
    9300:	8593201c 	ldrhi	r2, [r3, #28]
    9304:	e200301f 	and	r3, r0, #31
    9308:	e1a00002 	mov	r0, r2
    930c:	e3a01001 	mov	r1, #1
    9310:	e1a01311 	lsl	r1, r1, r3
    9314:	eb000181 	bl	9920 <put32>
    9318:	e8bd8008 	pop	{r3, pc}
    931c:	00009974 	andeq	r9, r0, r4, ror r9

00009320 <gpio_set_off>:
    9320:	e92d4008 	push	{r3, lr}
    9324:	e350001f 	cmp	r0, #31
    9328:	88bd8008 	pophi	{r3, pc}
    932c:	959f3020 	ldrls	r3, [pc, #32]	; 9354 <gpio_set_off+0x34>
    9330:	95932020 	ldrls	r2, [r3, #32]
    9334:	859f3018 	ldrhi	r3, [pc, #24]	; 9354 <gpio_set_off+0x34>
    9338:	85932024 	ldrhi	r2, [r3, #36]	; 0x24
    933c:	e200301f 	and	r3, r0, #31
    9340:	e1a00002 	mov	r0, r2
    9344:	e3a01001 	mov	r1, #1
    9348:	e1a01311 	lsl	r1, r1, r3
    934c:	eb000173 	bl	9920 <put32>
    9350:	e8bd8008 	pop	{r3, pc}
    9354:	00009974 	andeq	r9, r0, r4, ror r9

00009358 <gpio_set_input>:
    9358:	e92d4038 	push	{r3, r4, r5, lr}
    935c:	e1a04000 	mov	r4, r0
    9360:	e350001f 	cmp	r0, #31
    9364:	88bd8038 	pophi	{r3, r4, r5, pc}
    9368:	e59f30ac 	ldr	r3, [pc, #172]	; 941c <gpio_set_input+0xc4>
    936c:	e0832093 	umull	r2, r3, r3, r0
    9370:	e1a031a3 	lsr	r3, r3, #3
    9374:	e3530005 	cmp	r3, #5
    9378:	979ff103 	ldrls	pc, [pc, r3, lsl #2]
    937c:	ea000017 	b	93e0 <gpio_set_input+0x88>
    9380:	00009398 	muleq	r0, r8, r3
    9384:	000093a4 	andeq	r9, r0, r4, lsr #7
    9388:	000093b0 			; <UNDEFINED> instruction: 0x000093b0
    938c:	000093bc 			; <UNDEFINED> instruction: 0x000093bc
    9390:	000093c8 	andeq	r9, r0, r8, asr #7
    9394:	000093d4 	ldrdeq	r9, [r0], -r4
    9398:	e59f3080 	ldr	r3, [pc, #128]	; 9420 <gpio_set_input+0xc8>
    939c:	e5935000 	ldr	r5, [r3]
    93a0:	ea00000f 	b	93e4 <gpio_set_input+0x8c>
    93a4:	e59f3074 	ldr	r3, [pc, #116]	; 9420 <gpio_set_input+0xc8>
    93a8:	e5935004 	ldr	r5, [r3, #4]
    93ac:	ea00000c 	b	93e4 <gpio_set_input+0x8c>
    93b0:	e59f3068 	ldr	r3, [pc, #104]	; 9420 <gpio_set_input+0xc8>
    93b4:	e5935008 	ldr	r5, [r3, #8]
    93b8:	ea000009 	b	93e4 <gpio_set_input+0x8c>
    93bc:	e59f305c 	ldr	r3, [pc, #92]	; 9420 <gpio_set_input+0xc8>
    93c0:	e593500c 	ldr	r5, [r3, #12]
    93c4:	ea000006 	b	93e4 <gpio_set_input+0x8c>
    93c8:	e59f3050 	ldr	r3, [pc, #80]	; 9420 <gpio_set_input+0xc8>
    93cc:	e5935010 	ldr	r5, [r3, #16]
    93d0:	ea000003 	b	93e4 <gpio_set_input+0x8c>
    93d4:	e59f3044 	ldr	r3, [pc, #68]	; 9420 <gpio_set_input+0xc8>
    93d8:	e5935014 	ldr	r5, [r3, #20]
    93dc:	ea000000 	b	93e4 <gpio_set_input+0x8c>
    93e0:	e3a05000 	mov	r5, #0
    93e4:	e1a00005 	mov	r0, r5
    93e8:	eb000158 	bl	9950 <get32>
    93ec:	e59f1028 	ldr	r1, [pc, #40]	; 941c <gpio_set_input+0xc4>
    93f0:	e0813491 	umull	r3, r1, r1, r4
    93f4:	e1a011a1 	lsr	r1, r1, #3
    93f8:	e0811101 	add	r1, r1, r1, lsl #2
    93fc:	e1a01081 	lsl	r1, r1, #1
    9400:	e0611004 	rsb	r1, r1, r4
    9404:	e0811081 	add	r1, r1, r1, lsl #1
    9408:	e3a03007 	mov	r3, #7
    940c:	e1c01113 	bic	r1, r0, r3, lsl r1
    9410:	e1a00005 	mov	r0, r5
    9414:	eb000141 	bl	9920 <put32>
    9418:	e8bd8038 	pop	{r3, r4, r5, pc}
    941c:	cccccccd 	stclgt	12, cr12, [ip], {205}	; 0xcd
    9420:	00009974 	andeq	r9, r0, r4, ror r9

00009424 <gpio_read>:
    9424:	e92d4010 	push	{r4, lr}
    9428:	e1a04000 	mov	r4, r0
    942c:	e350001f 	cmp	r0, #31
    9430:	8a00000b 	bhi	9464 <gpio_read+0x40>
    9434:	8a000003 	bhi	9448 <gpio_read+0x24>
    9438:	e59f302c 	ldr	r3, [pc, #44]	; 946c <gpio_read+0x48>
    943c:	e5930028 	ldr	r0, [r3, #40]	; 0x28
    9440:	eb000142 	bl	9950 <get32>
    9444:	ea000002 	b	9454 <gpio_read+0x30>
    9448:	e59f301c 	ldr	r3, [pc, #28]	; 946c <gpio_read+0x48>
    944c:	e593002c 	ldr	r0, [r3, #44]	; 0x2c
    9450:	eb00013e 	bl	9950 <get32>
    9454:	e204401f 	and	r4, r4, #31
    9458:	e3a03001 	mov	r3, #1
    945c:	e0000413 	and	r0, r0, r3, lsl r4
    9460:	e8bd8010 	pop	{r4, pc}
    9464:	e3e00000 	mvn	r0, #0
    9468:	e8bd8010 	pop	{r4, pc}
    946c:	00009974 	andeq	r9, r0, r4, ror r9

00009470 <gpio_write>:
    9470:	e92d4008 	push	{r3, lr}
    9474:	e350001f 	cmp	r0, #31
    9478:	88bd8008 	pophi	{r3, pc}
    947c:	e3510000 	cmp	r1, #0
    9480:	0a000001 	beq	948c <gpio_write+0x1c>
    9484:	ebffff97 	bl	92e8 <gpio_set_on>
    9488:	e8bd8008 	pop	{r3, pc}
    948c:	ebffffa3 	bl	9320 <gpio_set_off>
    9490:	e8bd8008 	pop	{r3, pc}

00009494 <gpio_set_function>:
    9494:	e92d4070 	push	{r4, r5, r6, lr}
    9498:	e1a04000 	mov	r4, r0
    949c:	e1a05001 	mov	r5, r1
    94a0:	e3510007 	cmp	r1, #7
    94a4:	9350001f 	cmpls	r0, #31
    94a8:	88bd8070 	pophi	{r4, r5, r6, pc}
    94ac:	e59f30b0 	ldr	r3, [pc, #176]	; 9564 <gpio_set_function+0xd0>
    94b0:	e0832093 	umull	r2, r3, r3, r0
    94b4:	e1a031a3 	lsr	r3, r3, #3
    94b8:	e3530005 	cmp	r3, #5
    94bc:	979ff103 	ldrls	pc, [pc, r3, lsl #2]
    94c0:	ea000017 	b	9524 <gpio_set_function+0x90>
    94c4:	000094dc 	ldrdeq	r9, [r0], -ip
    94c8:	000094e8 	andeq	r9, r0, r8, ror #9
    94cc:	000094f4 	strdeq	r9, [r0], -r4
    94d0:	00009500 	andeq	r9, r0, r0, lsl #10
    94d4:	0000950c 	andeq	r9, r0, ip, lsl #10
    94d8:	00009518 	andeq	r9, r0, r8, lsl r5
    94dc:	e59f3084 	ldr	r3, [pc, #132]	; 9568 <gpio_set_function+0xd4>
    94e0:	e5936000 	ldr	r6, [r3]
    94e4:	ea00000f 	b	9528 <gpio_set_function+0x94>
    94e8:	e59f3078 	ldr	r3, [pc, #120]	; 9568 <gpio_set_function+0xd4>
    94ec:	e5936004 	ldr	r6, [r3, #4]
    94f0:	ea00000c 	b	9528 <gpio_set_function+0x94>
    94f4:	e59f306c 	ldr	r3, [pc, #108]	; 9568 <gpio_set_function+0xd4>
    94f8:	e5936008 	ldr	r6, [r3, #8]
    94fc:	ea000009 	b	9528 <gpio_set_function+0x94>
    9500:	e59f3060 	ldr	r3, [pc, #96]	; 9568 <gpio_set_function+0xd4>
    9504:	e593600c 	ldr	r6, [r3, #12]
    9508:	ea000006 	b	9528 <gpio_set_function+0x94>
    950c:	e59f3054 	ldr	r3, [pc, #84]	; 9568 <gpio_set_function+0xd4>
    9510:	e5936010 	ldr	r6, [r3, #16]
    9514:	ea000003 	b	9528 <gpio_set_function+0x94>
    9518:	e59f3048 	ldr	r3, [pc, #72]	; 9568 <gpio_set_function+0xd4>
    951c:	e5936014 	ldr	r6, [r3, #20]
    9520:	ea000000 	b	9528 <gpio_set_function+0x94>
    9524:	e3a06000 	mov	r6, #0
    9528:	e1a00006 	mov	r0, r6
    952c:	eb000107 	bl	9950 <get32>
    9530:	e59f302c 	ldr	r3, [pc, #44]	; 9564 <gpio_set_function+0xd0>
    9534:	e0832493 	umull	r2, r3, r3, r4
    9538:	e1a031a3 	lsr	r3, r3, #3
    953c:	e0833103 	add	r3, r3, r3, lsl #2
    9540:	e1a03083 	lsl	r3, r3, #1
    9544:	e0633004 	rsb	r3, r3, r4
    9548:	e0833083 	add	r3, r3, r3, lsl #1
    954c:	e3a01007 	mov	r1, #7
    9550:	e1c01311 	bic	r1, r0, r1, lsl r3
    9554:	e1a00006 	mov	r0, r6
    9558:	e1811315 	orr	r1, r1, r5, lsl r3
    955c:	eb0000ef 	bl	9920 <put32>
    9560:	e8bd8070 	pop	{r4, r5, r6, pc}
    9564:	cccccccd 	stclgt	12, cr12, [ip], {205}	; 0xcd
    9568:	00009974 	andeq	r9, r0, r4, ror r9

0000956c <gpio_toggle>:
    956c:	e92d4008 	push	{r3, lr}
    9570:	e350001f 	cmp	r0, #31
    9574:	88bd8008 	pophi	{r3, pc}
    9578:	959f3020 	ldrls	r3, [pc, #32]	; 95a0 <gpio_toggle+0x34>
    957c:	95932018 	ldrls	r2, [r3, #24]
    9580:	859f3018 	ldrhi	r3, [pc, #24]	; 95a0 <gpio_toggle+0x34>
    9584:	8593201c 	ldrhi	r2, [r3, #28]
    9588:	e200301f 	and	r3, r0, #31
    958c:	e1a00002 	mov	r0, r2
    9590:	e3a01001 	mov	r1, #1
    9594:	e1a01311 	lsl	r1, r1, r3
    9598:	eb0000e0 	bl	9920 <put32>
    959c:	e8bd8008 	pop	{r3, pc}
    95a0:	00009974 	andeq	r9, r0, r4, ror r9

000095a4 <is_gpio_int>:
    95a4:	e92d4008 	push	{r3, lr}
    95a8:	e59f301c 	ldr	r3, [pc, #28]	; 95cc <is_gpio_int+0x28>
    95ac:	e5930030 	ldr	r0, [r3, #48]	; 0x30
    95b0:	eb0000e6 	bl	9950 <get32>
    95b4:	e3500000 	cmp	r0, #0
    95b8:	0a000001 	beq	95c4 <is_gpio_int+0x20>
    95bc:	e3a00001 	mov	r0, #1
    95c0:	e8bd8008 	pop	{r3, pc}
    95c4:	e3a00000 	mov	r0, #0
    95c8:	e8bd8008 	pop	{r3, pc}
    95cc:	00009974 	andeq	r9, r0, r4, ror r9

000095d0 <gpio_int_rising_edge>:
    95d0:	e92d4038 	push	{r3, r4, r5, lr}
    95d4:	e1a04000 	mov	r4, r0
    95d8:	e350001f 	cmp	r0, #31
    95dc:	88bd8038 	pophi	{r3, r4, r5, pc}
    95e0:	eb0000c8 	bl	9908 <dev_barrier>
    95e4:	e354001f 	cmp	r4, #31
    95e8:	8a000007 	bhi	960c <gpio_int_rising_edge+0x3c>
    95ec:	e59f505c 	ldr	r5, [pc, #92]	; 9650 <gpio_int_rising_edge+0x80>
    95f0:	e5950034 	ldr	r0, [r5, #52]	; 0x34
    95f4:	eb0000d5 	bl	9950 <get32>
    95f8:	e3a01001 	mov	r1, #1
    95fc:	e1801411 	orr	r1, r0, r1, lsl r4
    9600:	e5950034 	ldr	r0, [r5, #52]	; 0x34
    9604:	eb0000c5 	bl	9920 <put32>
    9608:	ea000007 	b	962c <gpio_int_rising_edge+0x5c>
    960c:	e59f503c 	ldr	r5, [pc, #60]	; 9650 <gpio_int_rising_edge+0x80>
    9610:	e5950038 	ldr	r0, [r5, #56]	; 0x38
    9614:	eb0000cd 	bl	9950 <get32>
    9618:	e204401f 	and	r4, r4, #31
    961c:	e3a01001 	mov	r1, #1
    9620:	e1801411 	orr	r1, r0, r1, lsl r4
    9624:	e5950038 	ldr	r0, [r5, #56]	; 0x38
    9628:	eb0000bc 	bl	9920 <put32>
    962c:	eb0000b5 	bl	9908 <dev_barrier>
    9630:	e59f4018 	ldr	r4, [pc, #24]	; 9650 <gpio_int_rising_edge+0x80>
    9634:	e594003c 	ldr	r0, [r4, #60]	; 0x3c
    9638:	eb0000c4 	bl	9950 <get32>
    963c:	e3801802 	orr	r1, r0, #131072	; 0x20000
    9640:	e594003c 	ldr	r0, [r4, #60]	; 0x3c
    9644:	eb0000b5 	bl	9920 <put32>
    9648:	eb0000ae 	bl	9908 <dev_barrier>
    964c:	e8bd8038 	pop	{r3, r4, r5, pc}
    9650:	00009974 	andeq	r9, r0, r4, ror r9

00009654 <gpio_int_falling_edge>:
    9654:	e92d4038 	push	{r3, r4, r5, lr}
    9658:	e1a04000 	mov	r4, r0
    965c:	e350001f 	cmp	r0, #31
    9660:	88bd8038 	pophi	{r3, r4, r5, pc}
    9664:	eb0000a7 	bl	9908 <dev_barrier>
    9668:	e354001f 	cmp	r4, #31
    966c:	8a000007 	bhi	9690 <gpio_int_falling_edge+0x3c>
    9670:	e59f505c 	ldr	r5, [pc, #92]	; 96d4 <gpio_int_falling_edge+0x80>
    9674:	e5950040 	ldr	r0, [r5, #64]	; 0x40
    9678:	eb0000b4 	bl	9950 <get32>
    967c:	e3a01001 	mov	r1, #1
    9680:	e1801411 	orr	r1, r0, r1, lsl r4
    9684:	e5950040 	ldr	r0, [r5, #64]	; 0x40
    9688:	eb0000a4 	bl	9920 <put32>
    968c:	ea000007 	b	96b0 <gpio_int_falling_edge+0x5c>
    9690:	e59f503c 	ldr	r5, [pc, #60]	; 96d4 <gpio_int_falling_edge+0x80>
    9694:	e5950044 	ldr	r0, [r5, #68]	; 0x44
    9698:	eb0000ac 	bl	9950 <get32>
    969c:	e204401f 	and	r4, r4, #31
    96a0:	e3a01001 	mov	r1, #1
    96a4:	e1801411 	orr	r1, r0, r1, lsl r4
    96a8:	e5950044 	ldr	r0, [r5, #68]	; 0x44
    96ac:	eb00009b 	bl	9920 <put32>
    96b0:	eb000094 	bl	9908 <dev_barrier>
    96b4:	e59f4018 	ldr	r4, [pc, #24]	; 96d4 <gpio_int_falling_edge+0x80>
    96b8:	e594003c 	ldr	r0, [r4, #60]	; 0x3c
    96bc:	eb0000a3 	bl	9950 <get32>
    96c0:	e3801601 	orr	r1, r0, #1048576	; 0x100000
    96c4:	e594003c 	ldr	r0, [r4, #60]	; 0x3c
    96c8:	eb000094 	bl	9920 <put32>
    96cc:	eb00008d 	bl	9908 <dev_barrier>
    96d0:	e8bd8038 	pop	{r3, r4, r5, pc}
    96d4:	00009974 	andeq	r9, r0, r4, ror r9

000096d8 <gpio_event_detected>:
    96d8:	e92d4010 	push	{r4, lr}
    96dc:	e1a04000 	mov	r4, r0
    96e0:	e350001f 	cmp	r0, #31
    96e4:	8a000019 	bhi	9750 <gpio_event_detected+0x78>
    96e8:	eb000086 	bl	9908 <dev_barrier>
    96ec:	e354001f 	cmp	r4, #31
    96f0:	8a000008 	bhi	9718 <gpio_event_detected+0x40>
    96f4:	e59f305c 	ldr	r3, [pc, #92]	; 9758 <gpio_event_detected+0x80>
    96f8:	e5930048 	ldr	r0, [r3, #72]	; 0x48
    96fc:	eb000093 	bl	9950 <get32>
    9700:	e3a03001 	mov	r3, #1
    9704:	e0103413 	ands	r3, r0, r3, lsl r4
    9708:	0a00000d 	beq	9744 <gpio_event_detected+0x6c>
    970c:	eb00007d 	bl	9908 <dev_barrier>
    9710:	e3a00001 	mov	r0, #1
    9714:	e8bd8010 	pop	{r4, pc}
    9718:	e59f3038 	ldr	r3, [pc, #56]	; 9758 <gpio_event_detected+0x80>
    971c:	e593004c 	ldr	r0, [r3, #76]	; 0x4c
    9720:	eb00008a 	bl	9950 <get32>
    9724:	e3a03001 	mov	r3, #1
    9728:	e0004413 	and	r4, r0, r3, lsl r4
    972c:	eb000075 	bl	9908 <dev_barrier>
    9730:	e3540000 	cmp	r4, #0
    9734:	0a000002 	beq	9744 <gpio_event_detected+0x6c>
    9738:	eb000072 	bl	9908 <dev_barrier>
    973c:	e3a00001 	mov	r0, #1
    9740:	e8bd8010 	pop	{r4, pc}
    9744:	eb00006f 	bl	9908 <dev_barrier>
    9748:	e3a00000 	mov	r0, #0
    974c:	e8bd8010 	pop	{r4, pc}
    9750:	e3e00000 	mvn	r0, #0
    9754:	e8bd8010 	pop	{r4, pc}
    9758:	00009974 	andeq	r9, r0, r4, ror r9

0000975c <gpio_event_clear>:
    975c:	e92d4010 	push	{r4, lr}
    9760:	e1a04000 	mov	r4, r0
    9764:	e350001f 	cmp	r0, #31
    9768:	88bd8010 	pophi	{r4, pc}
    976c:	eb000065 	bl	9908 <dev_barrier>
    9770:	e354001f 	cmp	r4, #31
    9774:	8a000005 	bhi	9790 <gpio_event_clear+0x34>
    9778:	e59f3030 	ldr	r3, [pc, #48]	; 97b0 <gpio_event_clear+0x54>
    977c:	e5930048 	ldr	r0, [r3, #72]	; 0x48
    9780:	e3a01001 	mov	r1, #1
    9784:	e1a01411 	lsl	r1, r1, r4
    9788:	eb000064 	bl	9920 <put32>
    978c:	ea000005 	b	97a8 <gpio_event_clear+0x4c>
    9790:	e204401f 	and	r4, r4, #31
    9794:	e59f3014 	ldr	r3, [pc, #20]	; 97b0 <gpio_event_clear+0x54>
    9798:	e593004c 	ldr	r0, [r3, #76]	; 0x4c
    979c:	e3a01001 	mov	r1, #1
    97a0:	e1a01411 	lsl	r1, r1, r4
    97a4:	eb00005d 	bl	9920 <put32>
    97a8:	eb000056 	bl	9908 <dev_barrier>
    97ac:	e8bd8010 	pop	{r4, pc}
    97b0:	00009974 	andeq	r9, r0, r4, ror r9

000097b4 <uart_init>:
    97b4:	e92d4038 	push	{r3, r4, r5, lr}
    97b8:	eb000052 	bl	9908 <dev_barrier>
    97bc:	e3a0000e 	mov	r0, #14
    97c0:	e3a01002 	mov	r1, #2
    97c4:	ebffff32 	bl	9494 <gpio_set_function>
    97c8:	e3a0000f 	mov	r0, #15
    97cc:	e3a01002 	mov	r1, #2
    97d0:	ebffff2f 	bl	9494 <gpio_set_function>
    97d4:	eb00004b 	bl	9908 <dev_barrier>
    97d8:	e59f4068 	ldr	r4, [pc, #104]	; 9848 <uart_init+0x94>
    97dc:	e5945000 	ldr	r5, [r4]
    97e0:	e1a00005 	mov	r0, r5
    97e4:	eb000059 	bl	9950 <get32>
    97e8:	e3801001 	orr	r1, r0, #1
    97ec:	e1a00005 	mov	r0, r5
    97f0:	eb00004a 	bl	9920 <put32>
    97f4:	eb000043 	bl	9908 <dev_barrier>
    97f8:	e5940004 	ldr	r0, [r4, #4]
    97fc:	e3a01000 	mov	r1, #0
    9800:	eb000046 	bl	9920 <put32>
    9804:	e5940008 	ldr	r0, [r4, #8]
    9808:	e3a01000 	mov	r1, #0
    980c:	eb000043 	bl	9920 <put32>
    9810:	e594000c 	ldr	r0, [r4, #12]
    9814:	e3a01006 	mov	r1, #6
    9818:	eb000040 	bl	9920 <put32>
    981c:	e5940010 	ldr	r0, [r4, #16]
    9820:	e3a01003 	mov	r1, #3
    9824:	eb00003d 	bl	9920 <put32>
    9828:	e5940014 	ldr	r0, [r4, #20]
    982c:	e59f1018 	ldr	r1, [pc, #24]	; 984c <uart_init+0x98>
    9830:	eb00003a 	bl	9920 <put32>
    9834:	e5940004 	ldr	r0, [r4, #4]
    9838:	e3a01003 	mov	r1, #3
    983c:	eb000037 	bl	9920 <put32>
    9840:	eb000030 	bl	9908 <dev_barrier>
    9844:	e8bd8038 	pop	{r3, r4, r5, pc}
    9848:	000099d4 	ldrdeq	r9, [r0], -r4
    984c:	0000010e 	andeq	r0, r0, lr, lsl #2

00009850 <uart_can_getc>:
    9850:	e92d4008 	push	{r3, lr}
    9854:	e59f300c 	ldr	r3, [pc, #12]	; 9868 <uart_can_getc+0x18>
    9858:	e5930018 	ldr	r0, [r3, #24]
    985c:	eb00003b 	bl	9950 <get32>
    9860:	e2000001 	and	r0, r0, #1
    9864:	e8bd8008 	pop	{r3, pc}
    9868:	000099d4 	ldrdeq	r9, [r0], -r4

0000986c <uart_getc>:
    986c:	e92d4008 	push	{r3, lr}
    9870:	ebfffff6 	bl	9850 <uart_can_getc>
    9874:	e3500000 	cmp	r0, #0
    9878:	0afffffc 	beq	9870 <uart_getc+0x4>
    987c:	e59f300c 	ldr	r3, [pc, #12]	; 9890 <uart_getc+0x24>
    9880:	e593001c 	ldr	r0, [r3, #28]
    9884:	eb000031 	bl	9950 <get32>
    9888:	e6ef0070 	uxtb	r0, r0
    988c:	e8bd8008 	pop	{r3, pc}
    9890:	000099d4 	ldrdeq	r9, [r0], -r4

00009894 <uart_can_putc>:
    9894:	e92d4008 	push	{r3, lr}
    9898:	e59f300c 	ldr	r3, [pc, #12]	; 98ac <uart_can_putc+0x18>
    989c:	e5930018 	ldr	r0, [r3, #24]
    98a0:	eb00002a 	bl	9950 <get32>
    98a4:	e2000020 	and	r0, r0, #32
    98a8:	e8bd8008 	pop	{r3, pc}
    98ac:	000099d4 	ldrdeq	r9, [r0], -r4

000098b0 <uart_putc>:
    98b0:	e92d4010 	push	{r4, lr}
    98b4:	e1a04000 	mov	r4, r0
    98b8:	ebfffff5 	bl	9894 <uart_can_putc>
    98bc:	e3500000 	cmp	r0, #0
    98c0:	0afffffc 	beq	98b8 <uart_putc+0x8>
    98c4:	e59f300c 	ldr	r3, [pc, #12]	; 98d8 <uart_putc+0x28>
    98c8:	e593001c 	ldr	r0, [r3, #28]
    98cc:	e1a01004 	mov	r1, r4
    98d0:	eb000012 	bl	9920 <put32>
    98d4:	e8bd8010 	pop	{r4, pc}
    98d8:	000099d4 	ldrdeq	r9, [r0], -r4

000098dc <uart_has_data>:
    98dc:	e92d4008 	push	{r3, lr}
    98e0:	ebffffda 	bl	9850 <uart_can_getc>
    98e4:	e8bd8008 	pop	{r3, pc}

000098e8 <uart_getc_async>:
    98e8:	e92d4008 	push	{r3, lr}
    98ec:	ebfffffa 	bl	98dc <uart_has_data>
    98f0:	e3500000 	cmp	r0, #0
    98f4:	0a000001 	beq	9900 <uart_getc_async+0x18>
    98f8:	ebffffdb 	bl	986c <uart_getc>
    98fc:	e8bd8008 	pop	{r3, pc}
    9900:	e3e00000 	mvn	r0, #0
    9904:	e8bd8008 	pop	{r3, pc}

00009908 <dev_barrier>:
    9908:	ea000002 	b	9918 <dsb>

0000990c <dmb>:
    990c:	e3a00000 	mov	r0, #0
    9910:	ee070fba 	mcr	15, 0, r0, cr7, cr10, {5}
    9914:	e12fff1e 	bx	lr

00009918 <dsb>:
    9918:	ee070f9a 	mcr	15, 0, r0, cr7, cr10, {4}
    991c:	e12fff1e 	bx	lr

00009920 <put32>:
    9920:	e5801000 	str	r1, [r0]
    9924:	e12fff1e 	bx	lr

00009928 <PUT32>:
    9928:	e5801000 	str	r1, [r0]
    992c:	e12fff1e 	bx	lr

00009930 <put16>:
    9930:	e1c010b0 	strh	r1, [r0]
    9934:	e12fff1e 	bx	lr

00009938 <PUT16>:
    9938:	e1c010b0 	strh	r1, [r0]
    993c:	e12fff1e 	bx	lr

00009940 <put8>:
    9940:	e5c01000 	strb	r1, [r0]
    9944:	e12fff1e 	bx	lr

00009948 <PUT8>:
    9948:	e5c01000 	strb	r1, [r0]
    994c:	e12fff1e 	bx	lr

00009950 <get32>:
    9950:	e5900000 	ldr	r0, [r0]
    9954:	e12fff1e 	bx	lr

00009958 <GET32>:
    9958:	e5900000 	ldr	r0, [r0]
    995c:	e12fff1e 	bx	lr

00009960 <GETPC>:
    9960:	e1a0000e 	mov	r0, lr
    9964:	e12fff1e 	bx	lr

00009968 <dummy>:
    9968:	e12fff1e 	bx	lr

Disassembly of section .data:

0000996c <rpi_putchar>:
    996c:	00008b34 	andeq	r8, r0, r4, lsr fp

00009970 <putk>:
    9970:	00008b70 	andeq	r8, r0, r0, ror fp

00009974 <GPFSEL0>:
    9974:	20200000 	eorcs	r0, r0, r0

00009978 <GPFSEL1>:
    9978:	20200004 	eorcs	r0, r0, r4

0000997c <GPFSEL2>:
    997c:	20200008 	eorcs	r0, r0, r8

00009980 <GPFSEL3>:
    9980:	2020000c 	eorcs	r0, r0, ip

00009984 <GPFSEL4>:
    9984:	20200010 	eorcs	r0, r0, r0, lsl r0

00009988 <GPFSEL5>:
    9988:	20200014 	eorcs	r0, r0, r4, lsl r0

0000998c <GPSET0>:
    998c:	2020001c 	eorcs	r0, r0, ip, lsl r0

00009990 <GPSET1>:
    9990:	20200020 	eorcs	r0, r0, r0, lsr #32

00009994 <GPCLR0>:
    9994:	20200028 	eorcs	r0, r0, r8, lsr #32

00009998 <GPCLR1>:
    9998:	2020002c 	eorcs	r0, r0, ip, lsr #32

0000999c <GPLEV0>:
    999c:	20200034 	eorcs	r0, r0, r4, lsr r0

000099a0 <GPLEV1>:
    99a0:	20200038 	eorcs	r0, r0, r8, lsr r0

000099a4 <IRQ_PENDING_2>:
    99a4:	2000b208 	andcs	fp, r0, r8, lsl #4

000099a8 <GPREN0>:
    99a8:	2020004c 	eorcs	r0, r0, ip, asr #32

000099ac <GPREN1>:
    99ac:	20200050 	eorcs	r0, r0, r0, asr r0

000099b0 <ENABLE_IRQS_2>:
    99b0:	2000b214 	andcs	fp, r0, r4, lsl r2

000099b4 <GPFEN0>:
    99b4:	20200058 	eorcs	r0, r0, r8, asr r0

000099b8 <GPFEN1>:
    99b8:	2020005c 	eorcs	r0, r0, ip, asr r0

000099bc <GPEDS0>:
    99bc:	20200040 	eorcs	r0, r0, r0, asr #32

000099c0 <GPEDS1>:
    99c0:	20200044 	eorcs	r0, r0, r4, asr #32

000099c4 <IRQ_PENDING_1>:
    99c4:	2000b204 	andcs	fp, r0, r4, lsl #4

000099c8 <gpio_clr0>:
    99c8:	20200028 	eorcs	r0, r0, r8, lsr #32

000099cc <gpio_set0>:
    99cc:	2020001c 	eorcs	r0, r0, ip, lsl r0

000099d0 <gpio_fsel0>:
    99d0:	20200000 	eorcs	r0, r0, r0

000099d4 <AUX_ENABLES>:
    99d4:	20215004 	eorcs	r5, r1, r4

000099d8 <AUX_MU_CNTL_REG>:
    99d8:	20215060 	eorcs	r5, r1, r0, rrx

000099dc <AUX_MU_IER_REG>:
    99dc:	20215044 	eorcs	r5, r1, r4, asr #32

000099e0 <AUX_MU_IIR_REG>:
    99e0:	20215048 	eorcs	r5, r1, r8, asr #32

000099e4 <AUX_MU_LCR_REG>:
    99e4:	2021504c 	eorcs	r5, r1, ip, asr #32

000099e8 <AUX_MU_BAUD_REG>:
    99e8:	20215068 	eorcs	r5, r1, r8, rrx

000099ec <AUX_MU_LSR_REG>:
    99ec:	20215054 	eorcs	r5, r1, r4, asr r0

000099f0 <AUX_MU_IO_REG>:
    99f0:	20215040 	eorcs	r5, r1, r0, asr #32

000099f4 <AUX_MU_STAT_REG>:
    99f4:	20215064 	eorcs	r5, r1, r4, rrx

000099f8 <AUX_MU_SCRATCH>:
    99f8:	2021505c 	eorcs	r5, r1, ip, asr r0

000099fc <AUX_MU_MSR_REG>:
    99fc:	20215058 	eorcs	r5, r1, r8, asr r0

00009a00 <AUX_MU_MCR_REG>:
    9a00:	20215050 	eorcs	r5, r1, r0, asr r0

00009a04 <AUX_IRQ>:
    9a04:	20215000 	eorcs	r5, r1, r0

Disassembly of section .rodata:

00009a08 <__FUNCTION__.4271>:
    9a08:	6c637963 	stclvs	9, cr7, [r3], #-396	; 0xfffffe74
    9a0c:	705f7365 	subsvc	r7, pc, r5, ror #6
    9a10:	735f7265 	cmpvc	pc, #1342177286	; 0x50000006
    9a14:	00006365 	andeq	r6, r0, r5, ror #6
    9a18:	4f525245 	svcmi	0x00525245
    9a1c:	73253a52 	teqvc	r5, #335872	; 0x52000
    9a20:	3a73253a 	bcc	1cd2f10 <__bss_end__+0x1cc8f48>
    9a24:	203a6425 	eorscs	r6, sl, r5, lsr #8
    9a28:	534c4146 	movtpl	r4, #49478	; 0xc146
    9a2c:	733c2845 	teqvc	ip, #4521984	; 0x450000
    9a30:	32203c20 	eorcc	r3, r0, #32, 24	; 0x2000
    9a34:	203a293e 	eorscs	r2, sl, lr, lsr r9
    9a38:	6c6c6977 	stclvs	9, cr6, [ip], #-476	; 0xfffffe24
    9a3c:	65766f20 	ldrbvs	r6, [r6, #-3872]!	; 0xf20
    9a40:	6f6c6672 	svcvs	0x006c6672
    9a44:	00000a77 	andeq	r0, r0, r7, ror sl
    9a48:	74736574 	ldrbtvc	r6, [r3], #-1396	; 0x574
    9a4c:	6e65672d 	cdpvs	7, 6, cr6, cr5, cr13, {1}
    9a50:	0000632e 	andeq	r6, r0, lr, lsr #6
    9a54:	61206d41 	teqvs	r0, r1, asr #26
    9a58:	72657320 	rsbvc	r7, r5, #32, 6	; 0x80000000
    9a5c:	0a726576 	beq	1ca303c <__bss_end__+0x1c99074>
    9a60:	00000000 	andeq	r0, r0, r0
    9a64:	6d73694d 	ldclvs	9, cr6, [r3, #-308]!	; 0xfffffecc
    9a68:	68637461 	stmdavs	r3!, {r0, r5, r6, sl, ip, sp, lr}^
    9a6c:	6f67202c 	svcvs	0x0067202c
    9a70:	64252074 	strtvs	r2, [r5], #-116	; 0x74
    9a74:	74756220 	ldrbtvc	r6, [r5], #-544	; 0x220
    9a78:	70786520 	rsbsvc	r6, r8, r0, lsr #10
    9a7c:	65746365 	ldrbvs	r6, [r4, #-869]!	; 0x365
    9a80:	64252064 	strtvs	r2, [r5], #-100	; 0x64
    9a84:	0000000a 	andeq	r0, r0, sl
    9a88:	65696c63 	strbvs	r6, [r9, #-3171]!	; 0xc63
    9a8c:	6420746e 	strtvs	r7, [r0], #-1134	; 0x46e
    9a90:	3a656e6f 	bcc	1965454 <__bss_end__+0x195b48c>
    9a94:	646e6520 	strbtvs	r6, [lr], #-1312	; 0x520
    9a98:	77206465 	strvc	r6, [r0, -r5, ror #8]!
    9a9c:	20687469 	rsbcs	r7, r8, r9, ror #8
    9aa0:	000a6425 	andeq	r6, sl, r5, lsr #8

00009aa4 <__FUNCTION__.4271>:
    9aa4:	74696d65 	strbtvc	r6, [r9], #-3429	; 0xd65
    9aa8:	00000000 	andeq	r0, r0, r0

00009aac <__FUNCTION__.4219>:
    9aac:	5f697072 	svcpl	0x00697072
    9ab0:	5f746573 	svcpl	0x00746573
    9ab4:	7074756f 	rsbsvc	r7, r4, pc, ror #10
    9ab8:	00007475 	andeq	r7, r0, r5, ror r4

00009abc <__FUNCTION__.4293>:
    9abc:	705f6176 	subsvc	r6, pc, r6, ror r1	; <UNPREDICTABLE>
    9ac0:	746e6972 	strbtvc	r6, [lr], #-2418	; 0x972
    9ac4:	0000006b 	andeq	r0, r0, fp, rrx
    9ac8:	494e4150 	stmdbmi	lr, {r4, r6, r8, lr}^
    9acc:	73253a43 	teqvc	r5, #274432	; 0x43000
    9ad0:	3a73253a 	bcc	1cd2fc0 <__bss_end__+0x1cc8ff8>
    9ad4:	303a6425 	eorscc	r6, sl, r5, lsr #8
    9ad8:	0000000a 	andeq	r0, r0, sl
    9adc:	6362696c 	cmnvs	r2, #108, 18	; 0x1b0000
    9ae0:	2d61762f 	stclcs	6, cr7, [r1, #-188]!	; 0xffffff44
    9ae4:	6e697270 	mcrvs	2, 3, r7, cr9, cr0, {3}
    9ae8:	632e6b74 	teqvs	lr, #116, 22	; 0x1d000
    9aec:	00000000 	andeq	r0, r0, r0
    9af0:	33323130 	teqcc	r2, #48, 2
    9af4:	37363534 			; <UNDEFINED> instruction: 0x37363534
    9af8:	00003938 	andeq	r3, r0, r8, lsr r9
    9afc:	33323130 	teqcc	r2, #48, 2
    9b00:	37363534 			; <UNDEFINED> instruction: 0x37363534
    9b04:	62613938 	rsbvs	r3, r1, #56, 18	; 0xe0000
    9b08:	66656463 	strbtvs	r6, [r5], -r3, ror #8
    9b0c:	00000000 	andeq	r0, r0, r0
    9b10:	00003130 	andeq	r3, r0, r0, lsr r1
    9b14:	494e4150 	stmdbmi	lr, {r4, r6, r8, lr}^
    9b18:	73253a43 	teqvc	r5, #274432	; 0x43000
    9b1c:	3a73253a 	bcc	1cd300c <__bss_end__+0x1cc9044>
    9b20:	703a6425 	eorsvc	r6, sl, r5, lsr #8
    9b24:	5f637475 	svcpl	0x00637475
    9b28:	000a7066 	andeq	r7, sl, r6, rrx
    9b2c:	494e4150 	stmdbmi	lr, {r4, r6, r8, lr}^
    9b30:	73253a43 	teqvc	r5, #274432	; 0x43000
    9b34:	3a73253a 	bcc	1cd3024 <__bss_end__+0x1cc905c>
    9b38:	773a6425 	ldrvc	r6, [sl, -r5, lsr #8]!
    9b3c:	68746469 	ldmdavs	r4!, {r0, r3, r5, r6, sl, sp, lr}^
    9b40:	33203c20 	teqcc	r0, #32, 24	; 0x2000
    9b44:	00000a32 	andeq	r0, r0, r2, lsr sl
    9b48:	494e4150 	stmdbmi	lr, {r4, r6, r8, lr}^
    9b4c:	73253a43 	teqvc	r5, #274432	; 0x43000
    9b50:	3a73253a 	bcc	1cd3040 <__bss_end__+0x1cc9078>
    9b54:	663a6425 	ldrtvs	r6, [sl], -r5, lsr #8
    9b58:	74616f6c 	strbtvc	r6, [r1], #-3948	; 0xf6c
    9b5c:	746f6e20 	strbtvc	r6, [pc], #-3616	; 9b64 <__FUNCTION__.4293+0xa8>
    9b60:	616e6520 	cmnvs	lr, r0, lsr #10
    9b64:	64656c62 	strbtvs	r6, [r5], #-3170	; 0xc62
    9b68:	0a212121 	beq	851ff4 <__bss_end__+0x84802c>
    9b6c:	00000000 	andeq	r0, r0, r0
    9b70:	494e4150 	stmdbmi	lr, {r4, r6, r8, lr}^
    9b74:	73253a43 	teqvc	r5, #274432	; 0x43000
    9b78:	3a73253a 	bcc	1cd3068 <__bss_end__+0x1cc90a0>
    9b7c:	703a6425 	eorsvc	r6, sl, r5, lsr #8
    9b80:	746e6972 	strbtvc	r6, [lr], #-2418	; 0x972
    9b84:	6e203a6b 	vnmulvs.f32	s6, s0, s23
    9b88:	6820746f 	stmdavs	r0!, {r0, r1, r2, r3, r5, r6, sl, ip, sp, lr}
    9b8c:	6c646e61 	stclvs	14, cr6, [r4], #-388	; 0xfffffe7c
    9b90:	20676e69 	rsbcs	r6, r7, r9, ror #28
    9b94:	63657073 	cmnvs	r5, #115	; 0x73
    9b98:	65696669 	strbvs	r6, [r9, #-1641]!	; 0x669
    9b9c:	25272072 	strcs	r2, [r7, #-114]!	; 0x72
    9ba0:	0a0a2763 	beq	293934 <__bss_end__+0x28996c>
    9ba4:	00000000 	andeq	r0, r0, r0
    9ba8:	454e4f44 	strbmi	r4, [lr, #-3908]	; 0xf44
    9bac:	0a212121 	beq	852038 <__bss_end__+0x848070>
    9bb0:	00000000 	andeq	r0, r0, r0

Disassembly of section .bss:

00009bb4 <__bss_start__>:
	...

00009bc4 <buf.4219>:
	...

Disassembly of section .ARM.attributes:

00000000 <.ARM.attributes>:
   0:	00002a41 	andeq	r2, r0, r1, asr #20
   4:	61656100 	cmnvs	r5, r0, lsl #2
   8:	01006962 	tsteq	r0, r2, ror #18
   c:	00000020 	andeq	r0, r0, r0, lsr #32
  10:	4b5a3605 	blmi	168d82c <__bss_end__+0x1683864>
  14:	08070600 	stmdaeq	r7, {r9, sl}
  18:	12010901 	andne	r0, r1, #16384	; 0x4000
  1c:	15011404 	strne	r1, [r1, #-1028]	; 0x404
  20:	18031701 	stmdane	r3, {r0, r8, r9, sl, ip}
  24:	22011a01 	andcs	r1, r1, #4096	; 0x1000
  28:	Address 0x0000000000000028 is out of bounds.


Disassembly of section .comment:

00000000 <.comment>:
   0:	3a434347 	bcc	10d0d24 <__bss_end__+0x10c6d5c>
   4:	4e472820 	cdpmi	8, 4, cr2, cr7, cr0, {1}
   8:	34202955 	strtcc	r2, [r0], #-2389	; 0x955
   c:	332e382e 	teqcc	lr, #3014656	; 0x2e0000
	...

Disassembly of section .debug_info:

00000000 <.debug_info>:
       0:	000010cc 	andeq	r1, r0, ip, asr #1
       4:	00000004 	andeq	r0, r0, r4
       8:	01040000 	mrseq	r0, (UNDEF: 4)
       c:	000000ad 	andeq	r0, r0, sp, lsr #1
      10:	00028c01 	andeq	r8, r2, r1, lsl #24
      14:	0001fc00 	andeq	pc, r1, r0, lsl #24
      18:	00801000 	addeq	r1, r0, r0
      1c:	000acc00 	andeq	ip, sl, r0, lsl #24
      20:	00000000 	andeq	r0, r0, r0
      24:	05040200 	streq	r0, [r4, #-512]	; 0x200
      28:	00746e69 	rsbseq	r6, r4, r9, ror #28
      2c:	3e070403 	cdpcc	4, 0, cr0, cr7, cr3, {0}
      30:	03000000 	movweq	r0, #0
      34:	01b90601 			; <UNDEFINED> instruction: 0x01b90601
      38:	02030000 	andeq	r0, r3, #0
      3c:	0001c505 	andeq	ip, r1, r5, lsl #10
      40:	05040300 	streq	r0, [r4, #-768]	; 0x300
      44:	00000061 	andeq	r0, r0, r1, rrx
      48:	5c050803 	stcpl	8, cr0, [r5], {3}
      4c:	04000000 	streq	r0, [r0], #-0
      50:	00000284 	andeq	r0, r0, r4, lsl #5
      54:	005a2e02 	subseq	r2, sl, r2, lsl #28
      58:	01030000 	mrseq	r0, (UNDEF: 3)
      5c:	0001b708 	andeq	fp, r1, r8, lsl #14
      60:	07020300 	streq	r0, [r2, -r0, lsl #6]
      64:	00000165 	andeq	r0, r0, r5, ror #2
      68:	39070403 	stmdbcc	r7, {r0, r1, sl}
      6c:	03000000 	movweq	r0, #0
      70:	00340708 	eorseq	r0, r4, r8, lsl #14
      74:	04030000 	streq	r0, [r3], #-0
      78:	00019707 	andeq	r9, r1, r7, lsl #14
      7c:	08010300 	stmdaeq	r1, {r8, r9}
      80:	000001c0 	andeq	r0, r0, r0, asr #3
      84:	008a0405 	addeq	r0, sl, r5, lsl #8
      88:	7d060000 	stcvc	0, cr0, [r6, #-0]
      8c:	07000000 	streq	r0, [r0, -r0]
      90:	c61c0110 			; <UNDEFINED> instruction: 0xc61c0110
      94:	08000000 	stmdaeq	r0, {}	; <UNPREDICTABLE>
      98:	01007874 	tsteq	r0, r4, ror r8
      9c:	0000251d 	andeq	r2, r0, sp, lsl r5
      a0:	72080000 	andvc	r0, r8, #0
      a4:	1d010078 	stcne	0, cr0, [r1, #-480]	; 0xfffffe20
      a8:	00000025 	andeq	r0, r0, r5, lsr #32
      ac:	01e70904 	mvneq	r0, r4, lsl #18
      b0:	1e010000 	cdpne	0, 0, cr0, cr1, cr0, {0}
      b4:	0000002c 	andeq	r0, r0, ip, lsr #32
      b8:	02970908 	addseq	r0, r7, #8, 18	; 0x20000
      bc:	1f010000 	svcne	0x00010000
      c0:	0000002c 	andeq	r0, r0, ip, lsr #32
      c4:	aa04000c 	bge	1000fc <__bss_end__+0xf6134>
      c8:	01000001 	tsteq	r0, r1
      cc:	00008f20 	andeq	r8, r0, r0, lsr #30
      d0:	004b0a00 	subeq	r0, fp, r0, lsl #20
      d4:	29010000 	stmdbcs	r1, {}	; <UNPREDICTABLE>
      d8:	0000e903 	andeq	lr, r0, r3, lsl #18
      dc:	69700b00 	ldmdbvs	r0!, {r8, r9, fp}^
      e0:	2901006e 	stmdbcs	r1, {r1, r2, r3, r5, r6}
      e4:	0000002c 	andeq	r0, r0, ip, lsr #32
      e8:	009b0a00 	addseq	r0, fp, r0, lsl #20
      ec:	2e010000 	cdpcs	0, 0, cr0, cr1, cr0, {0}
      f0:	00010103 	andeq	r0, r1, r3, lsl #2
      f4:	69700b00 	ldmdbvs	r0!, {r8, r9, fp}^
      f8:	2e01006e 	cdpcs	0, 0, cr0, cr1, cr14, {3}
      fc:	0000002c 	andeq	r0, r0, ip, lsr #32
     100:	00190a00 	andseq	r0, r9, r0, lsl #20
     104:	33010000 	movwcc	r0, #4096	; 0x1000
     108:	00012203 	andeq	r2, r1, r3, lsl #4
     10c:	69700b00 	ldmdbvs	r0!, {r8, r9, fp}^
     110:	3301006e 	movwcc	r0, #4206	; 0x106e
     114:	0000002c 	andeq	r0, r0, ip, lsr #32
     118:	0100760b 	tsteq	r0, fp, lsl #12
     11c:	00002c33 	andeq	r2, r0, r3, lsr ip
     120:	4c0a0000 	stcmi	0, cr0, [sl], {-0}
     124:	01000002 	tsteq	r0, r2
     128:	01620192 			; <UNDEFINED> instruction: 0x01620192
     12c:	740b0000 	strvc	r0, [fp], #-0
     130:	92010078 	andls	r0, r1, #120	; 0x78
     134:	0000002c 	andeq	r0, r0, ip, lsr #32
     138:	0078720b 	rsbseq	r7, r8, fp, lsl #4
     13c:	002c9201 	eoreq	r9, ip, r1, lsl #4
     140:	6e0b0000 	cdpvs	0, 0, cr0, cr11, cr0, {0}
     144:	2c920100 	ldfcss	f0, [r2], {0}
     148:	0c000000 	stceq	0, cr0, [r0], {-0}
     14c:	00000104 	andeq	r0, r0, r4, lsl #2
     150:	002c9701 	eoreq	r9, ip, r1, lsl #14
     154:	4d0c0000 	stcmi	0, cr0, [ip, #-0]
     158:	01000001 	tsteq	r0, r1
     15c:	00002c98 	muleq	r0, r8, ip
     160:	d80d0000 	stmdale	sp, {}	; <UNPREDICTABLE>
     164:	01000001 	tsteq	r0, r1
     168:	00002c41 	andeq	r2, r0, r1, asr #24
     16c:	00801000 	addeq	r1, r0, r0
     170:	00005000 	andeq	r5, r0, r0
     174:	429c0100 	addsmi	r0, ip, #0, 2
     178:	0e000002 	cdpeq	0, 0, cr0, cr0, cr2, {0}
     17c:	41010073 	tstmi	r1, r3, ror r0
     180:	0000002c 	andeq	r0, r0, ip, lsr #32
     184:	00000000 	andeq	r0, r0, r0
     188:	0001580f 	andeq	r5, r1, pc, lsl #16
     18c:	00025200 	andeq	r5, r2, r0, lsl #4
     190:	08030500 	stmdaeq	r3, {r8, sl}
     194:	0c00009a 	stceq	0, cr0, [r0], {154}	; 0x9a
     198:	000001f6 	strdeq	r0, [r0], -r6
     19c:	002c4301 	eoreq	r4, ip, r1, lsl #6
     1a0:	62100000 	andsvs	r0, r0, #0
     1a4:	01000002 	tsteq	r0, r2
     1a8:	00002c45 	andeq	r2, r0, r5, asr #24
     1ac:	00003a00 	andeq	r3, r0, r0, lsl #20
     1b0:	801c1100 	andshi	r1, ip, r0, lsl #2
     1b4:	00040000 	andeq	r0, r4, r0
     1b8:	01ca0000 	biceq	r0, sl, r0
     1bc:	a00c0000 	andge	r0, ip, r0
     1c0:	01000001 	tsteq	r0, r1
     1c4:	00002c43 	andeq	r2, r0, r3, asr #24
     1c8:	2c110000 	ldccs	0, cr0, [r1], {-0}
     1cc:	04000080 	streq	r0, [r0], #-128	; 0x80
     1d0:	e7000000 	str	r0, [r0, -r0]
     1d4:	10000001 	andne	r0, r0, r1
     1d8:	000001a0 	andeq	r0, r0, r0, lsr #3
     1dc:	002c4501 	eoreq	r4, ip, r1, lsl #10
     1e0:	003a0000 	eorseq	r0, sl, r0
     1e4:	12000000 	andne	r0, r0, #0
     1e8:	0000802c 	andeq	r8, r0, ip, lsr #32
     1ec:	00001071 	andeq	r1, r0, r1, ror r0
     1f0:	00000200 	andeq	r0, r0, r0, lsl #4
     1f4:	07500113 	smmlaeq	r0, r3, r1, r0
     1f8:	0a5001f3 	beq	14009cc <__bss_end__+0x13f6a04>
     1fc:	001e03e8 	andseq	r0, lr, r8, ror #7
     200:	00803c14 	addeq	r3, r0, r4, lsl ip
     204:	00108200 	andseq	r8, r0, r0, lsl #4
     208:	80501200 	subshi	r1, r0, r0, lsl #4
     20c:	10890000 	addne	r0, r9, r0
     210:	02380000 	eorseq	r0, r8, #0
     214:	01130000 	tsteq	r3, r0
     218:	42080253 	andmi	r0, r8, #805306373	; 0x30000005
     21c:	05520113 	ldrbeq	r0, [r2, #-275]	; 0x113
     220:	009a0803 	addseq	r0, sl, r3, lsl #16
     224:	51011300 	mrspl	r1, SP_irq
     228:	9a480305 	bls	1200e44 <__bss_end__+0x11f6e7c>
     22c:	01130000 	tsteq	r3, r0
     230:	18030550 	stmdane	r3, {r4, r6, r8, sl}
     234:	0000009a 	muleq	r0, sl, r0
     238:	00805414 	addeq	r5, r0, r4, lsl r4
     23c:	00109f00 	andseq	r9, r0, r0, lsl #30
     240:	7d150000 	ldcvc	0, cr0, [r5, #-0]
     244:	52000000 	andpl	r0, r0, #0
     248:	16000002 	strne	r0, [r0], -r2
     24c:	00000076 	andeq	r0, r0, r6, ror r0
     250:	4206000e 	andmi	r0, r6, #14
     254:	17000002 	strne	r0, [r0, -r2]
     258:	0000006a 	andeq	r0, r0, sl, rrx
     25c:	002c4a01 	eoreq	r4, ip, r1, lsl #20
     260:	54010000 	strpl	r0, [r1], #-0
     264:	18000003 	stmdane	r0, {r0, r1}
     268:	000001a5 	andeq	r0, r0, r5, lsr #3
     26c:	03544a01 	cmpeq	r4, #4096	; 0x1000
     270:	1c0c0000 	stcne	0, cr0, [ip], {-0}
     274:	01000003 	tsteq	r0, r3
     278:	00002c4c 	andeq	r2, r0, ip, asr #24
     27c:	00691900 	rsbeq	r1, r9, r0, lsl #18
     280:	002c4d01 	eoreq	r4, ip, r1, lsl #26
     284:	290c0000 	stmdbcs	ip, {}	; <UNPREDICTABLE>
     288:	01000000 	mrseq	r0, (UNDEF: 0)
     28c:	00002c4e 	andeq	r2, r0, lr, asr #24
     290:	04b50c00 	ldrteq	r0, [r5], #3072	; 0xc00
     294:	52010000 	andpl	r0, r1, #0
     298:	0000002c 	andeq	r0, r0, ip, lsr #32
     29c:	0002ad1a 	andeq	sl, r2, sl, lsl sp
     2a0:	01a00c00 	lsleq	r0, r0, #24
     2a4:	52010000 	andpl	r0, r1, #0
     2a8:	0000002c 	andeq	r0, r0, ip, lsr #32
     2ac:	02be1a00 	adcseq	r1, lr, #0, 20
     2b0:	a00c0000 	andge	r0, ip, r0
     2b4:	01000001 	tsteq	r0, r1
     2b8:	00002c53 	andeq	r2, r0, r3, asr ip
     2bc:	cf1a0000 	svcgt	0x001a0000
     2c0:	0c000002 	stceq	0, cr0, [r0], {2}
     2c4:	000001a0 	andeq	r0, r0, r0, lsr #3
     2c8:	002c5501 	eoreq	r5, ip, r1, lsl #10
     2cc:	1a000000 	bne	2d4 <_start-0x7d2c>
     2d0:	000002e0 	andeq	r0, r0, r0, ror #5
     2d4:	0001a00c 	andeq	sl, r1, ip
     2d8:	2c570100 	ldfcse	f0, [r7], {-0}
     2dc:	00000000 	andeq	r0, r0, r0
     2e0:	0002f11a 	andeq	pc, r2, sl, lsl r1	; <UNPREDICTABLE>
     2e4:	01a00c00 	lsleq	r0, r0, #24
     2e8:	59010000 	stmdbpl	r1, {}	; <UNPREDICTABLE>
     2ec:	0000002c 	andeq	r0, r0, ip, lsr #32
     2f0:	03021a00 	movweq	r1, #10752	; 0x2a00
     2f4:	a00c0000 	andge	r0, ip, r0
     2f8:	01000001 	tsteq	r0, r1
     2fc:	00002c5b 	andeq	r2, r0, fp, asr ip
     300:	131a0000 	tstne	sl, #0
     304:	0c000003 	stceq	0, cr0, [r0], {3}
     308:	000001a0 	andeq	r0, r0, r0, lsr #3
     30c:	002c5d01 	eoreq	r5, ip, r1, lsl #26
     310:	1a000000 	bne	318 <_start-0x7ce8>
     314:	00000324 	andeq	r0, r0, r4, lsr #6
     318:	0001a00c 	andeq	sl, r1, ip
     31c:	2c5f0100 	ldfcse	f0, [pc], {-0}
     320:	00000000 	andeq	r0, r0, r0
     324:	0003351a 	andeq	r3, r3, sl, lsl r5
     328:	01a00c00 	lsleq	r0, r0, #24
     32c:	61010000 	mrsvs	r0, (UNDEF: 1)
     330:	0000002c 	andeq	r0, r0, ip, lsr #32
     334:	03461a00 	movteq	r1, #27136	; 0x6a00
     338:	a00c0000 	andge	r0, ip, r0
     33c:	01000001 	tsteq	r0, r1
     340:	00002c63 	andeq	r2, r0, r3, ror #24
     344:	0c1b0000 	ldceq	0, cr0, [fp], {-0}
     348:	000001a0 	andeq	r0, r0, r0, lsr #3
     34c:	002c6501 	eoreq	r6, ip, r1, lsl #10
     350:	00000000 	andeq	r0, r0, r0
     354:	00c60405 	sbceq	r0, r6, r5, lsl #8
     358:	571c0000 	ldrpl	r0, [ip, -r0]
     35c:	60000002 	andvs	r0, r0, r2
     360:	bc000080 	stclt	0, cr0, [r0], {128}	; 0x80
     364:	01000001 	tsteq	r0, r1
     368:	00048d9c 	muleq	r4, ip, sp
     36c:	02671d00 	rsbeq	r1, r7, #0, 26
     370:	004d0000 	subeq	r0, sp, r0
     374:	721e0000 	andsvc	r0, lr, #0
     378:	6e000002 	cdpvs	0, 0, cr0, cr0, cr2, {0}
     37c:	1f000000 	svcne	0x00000000
     380:	0000027d 	andeq	r0, r0, sp, ror r2
     384:	02861e01 	addeq	r1, r6, #1, 28
     388:	01250000 	teqeq	r5, r0
     38c:	91200000 	teqls	r0, r0
     390:	01000002 	tsteq	r0, r2
     394:	808c1153 	addhi	r1, ip, r3, asr r1
     398:	00040000 	andeq	r0, r4, r0
     39c:	03aa0000 			; <UNDEFINED> instruction: 0x03aa0000
     3a0:	a1200000 	teqge	r0, r0
     3a4:	01000002 	tsteq	r0, r2
     3a8:	90110053 	andsls	r0, r1, r3, asr r0
     3ac:	04000080 	streq	r0, [r0], #-128	; 0x80
     3b0:	c1000000 	mrsgt	r0, (UNDEF: 0)
     3b4:	1e000003 	cdpne	0, 0, cr0, cr0, cr3, {0}
     3b8:	000002b2 			; <UNDEFINED> instruction: 0x000002b2
     3bc:	0000015a 	andeq	r0, r0, sl, asr r1
     3c0:	80a41100 	adchi	r1, r4, r0, lsl #2
     3c4:	00040000 	andeq	r0, r4, r0
     3c8:	03d80000 	bicseq	r0, r8, #0
     3cc:	c31e0000 	tstgt	lr, #0
     3d0:	6d000002 	stcvs	0, cr0, [r0, #-8]
     3d4:	00000001 	andeq	r0, r0, r1
     3d8:	0080d011 	addeq	sp, r0, r1, lsl r0
     3dc:	00000400 	andeq	r0, r0, r0, lsl #8
     3e0:	0003ef00 	andeq	lr, r3, r0, lsl #30
     3e4:	02d41e00 	sbcseq	r1, r4, #0, 28
     3e8:	01800000 	orreq	r0, r0, r0
     3ec:	11000000 	mrsne	r0, (UNDEF: 0)
     3f0:	000080f8 	strdeq	r8, [r0], -r8	; <UNPREDICTABLE>
     3f4:	00000004 	andeq	r0, r0, r4
     3f8:	00000406 	andeq	r0, r0, r6, lsl #8
     3fc:	0002e51e 	andeq	lr, r2, lr, lsl r5
     400:	00019300 	andeq	r9, r1, r0, lsl #6
     404:	20110000 	andscs	r0, r1, r0
     408:	04000081 	streq	r0, [r0], #-129	; 0x81
     40c:	1d000000 	stcne	0, cr0, [r0, #-0]
     410:	1e000004 	cdpne	0, 0, cr0, cr0, cr4, {0}
     414:	000002f6 	strdeq	r0, [r0], -r6
     418:	000001a6 	andeq	r0, r0, r6, lsr #3
     41c:	81481100 	mrshi	r1, (UNDEF: 88)
     420:	00040000 	andeq	r0, r4, r0
     424:	04340000 	ldrteq	r0, [r4], #-0
     428:	071e0000 	ldreq	r0, [lr, -r0]
     42c:	b9000003 	stmdblt	r0, {r0, r1}
     430:	00000001 	andeq	r0, r0, r1
     434:	00817011 	addeq	r7, r1, r1, lsl r0
     438:	00000400 	andeq	r0, r0, r0, lsl #8
     43c:	00044b00 	andeq	r4, r4, r0, lsl #22
     440:	03181e00 	tsteq	r8, #0, 28
     444:	01cc0000 	biceq	r0, ip, r0
     448:	11000000 	mrsne	r0, (UNDEF: 0)
     44c:	00008198 	muleq	r0, r8, r1
     450:	00000004 	andeq	r0, r0, r4
     454:	00000462 	andeq	r0, r0, r2, ror #8
     458:	0003291e 	andeq	r2, r3, lr, lsl r9
     45c:	0001df00 	andeq	sp, r1, r0, lsl #30
     460:	c0110000 	andsgt	r0, r1, r0
     464:	04000081 	streq	r0, [r0], #-129	; 0x81
     468:	79000000 	stmdbvc	r0, {}	; <UNPREDICTABLE>
     46c:	1e000004 	cdpne	0, 0, cr0, cr0, cr4, {0}
     470:	0000033a 	andeq	r0, r0, sl, lsr r3
     474:	000001f2 	strdeq	r0, [r0], -r2
     478:	82002100 	andhi	r2, r0, #0, 2
     47c:	00040000 	andeq	r0, r4, r0
     480:	471e0000 	ldrmi	r0, [lr, -r0]
     484:	05000003 	streq	r0, [r0, #-3]
     488:	00000002 	andeq	r0, r0, r2
     48c:	01092200 	mrseq	r2, R9_fiq
     490:	74010000 	strvc	r0, [r1], #-0
     494:	0000821c 	andeq	r8, r0, ip, lsl r2
     498:	00000290 	muleq	r0, r0, r2
     49c:	09e19c01 	stmibeq	r1!, {r0, sl, fp, ip, pc}^
     4a0:	a5230000 	strge	r0, [r3, #-0]!
     4a4:	01000001 	tsteq	r0, r1
     4a8:	00035474 	andeq	r5, r3, r4, ror r4
     4ac:	24500100 	ldrbcs	r0, [r0], #-256	; 0x100
     4b0:	00000798 	muleq	r0, r8, r7
     4b4:	004f7401 	subeq	r7, pc, r1, lsl #8
     4b8:	02180000 	andseq	r0, r8, #0
     4bc:	69250000 	stmdbvs	r5!, {}	; <UNPREDICTABLE>
     4c0:	2c750100 	ldfcse	f0, [r5], #-0
     4c4:	01000000 	mrseq	r0, (UNDEF: 0)
     4c8:	0004b526 	andeq	fp, r4, r6, lsr #10
     4cc:	2c760100 	ldfcse	f0, [r6], #-0
     4d0:	01000000 	mrseq	r0, (UNDEF: 0)
     4d4:	82201153 	eorhi	r1, r0, #-1073741804	; 0xc0000014
     4d8:	00100000 	andseq	r0, r0, r0
     4dc:	04f00000 	ldrbteq	r0, [r0], #0
     4e0:	a0260000 	eorge	r0, r6, r0
     4e4:	01000001 	tsteq	r0, r1
     4e8:	00002c76 	andeq	r2, r0, r6, ror ip
     4ec:	00530100 	subseq	r0, r3, r0, lsl #2
     4f0:	0000e927 	andeq	lr, r0, r7, lsr #18
     4f4:	00824800 	addeq	r4, r2, r0, lsl #16
     4f8:	00001000 	andeq	r1, r0, r0
     4fc:	0d7c0100 	ldfeqe	f0, [ip, #-0]
     500:	1d000005 	stcne	0, cr0, [r0, #-20]	; 0xffffffec
     504:	000000f5 	strdeq	r0, [r0], -r5
     508:	00000239 	andeq	r0, r0, r9, lsr r2
     50c:	82581100 	subshi	r1, r8, #0, 2
     510:	00040000 	andeq	r0, r4, r0
     514:	052a0000 	streq	r0, [sl, #-0]!
     518:	a0100000 	andsge	r0, r0, r0
     51c:	01000001 	tsteq	r0, r1
     520:	00002c7d 	andeq	r2, r0, sp, ror ip
     524:	00024c00 	andeq	r4, r2, r0, lsl #24
     528:	01280000 	teqeq	r8, r0
     52c:	68000001 	stmdavs	r0, {r0}
     530:	00000082 	andeq	r0, r0, r2, lsl #1
     534:	01000000 	mrseq	r0, (UNDEF: 0)
     538:	00059e7e 	andeq	r9, r5, lr, ror lr
     53c:	01181d00 	tsteq	r8, r0, lsl #26
     540:	025f0000 	subseq	r0, pc, #0
     544:	0d1d0000 	ldceq	0, cr0, [sp, #-0]
     548:	79000001 	stmdbvc	r0, {r0}
     54c:	29000002 	stmdbcs	r0, {r1}
     550:	00000018 	andeq	r0, r0, r8, lsl r0
     554:	00000584 	andeq	r0, r0, r4, lsl #11
     558:	0001181d 	andeq	r1, r1, sp, lsl r8
     55c:	00029800 	andeq	r9, r2, r0, lsl #16
     560:	010d1d00 	tsteq	sp, r0, lsl #26
     564:	02790000 	rsbseq	r0, r9, #0
     568:	d12a0000 	teqle	sl, r0
     56c:	68000000 	stmdavs	r0, {}	; <UNPREDICTABLE>
     570:	18000082 	stmdane	r0, {r1, r7}
     574:	01000000 	mrseq	r0, (UNDEF: 0)
     578:	00dd1d36 	sbcseq	r1, sp, r6, lsr sp
     57c:	02790000 	rsbseq	r0, r9, #0
     580:	00000000 	andeq	r0, r0, r0
     584:	0000e92a 	andeq	lr, r0, sl, lsr #18
     588:	00827800 	addeq	r7, r2, r0, lsl #16
     58c:	00004000 	andeq	r4, r0, r0
     590:	1d380100 	ldfnes	f0, [r8, #-0]
     594:	000000f5 	strdeq	r0, [r0], -r5
     598:	00000279 	andeq	r0, r0, r9, ror r2
     59c:	98110000 	ldmdals	r1, {}	; <UNPREDICTABLE>
     5a0:	04000082 	streq	r0, [r0], #-130	; 0x82
     5a4:	bb000000 	bllt	5ac <_start-0x7a54>
     5a8:	10000005 	andne	r0, r0, r5
     5ac:	000001a0 	andeq	r0, r0, r0, lsr #3
     5b0:	002c7f01 	eoreq	r7, ip, r1, lsl #30
     5b4:	03200000 	teqeq	r0, #0
     5b8:	28000000 	stmdacs	r0, {}	; <UNPREDICTABLE>
     5bc:	00000101 	andeq	r0, r0, r1, lsl #2
     5c0:	000082a8 	andeq	r8, r0, r8, lsr #5
     5c4:	00000060 	andeq	r0, r0, r0, rrx
     5c8:	062f8001 	strteq	r8, [pc], -r1
     5cc:	181d0000 	ldmdane	sp, {}	; <UNPREDICTABLE>
     5d0:	33000001 	movwcc	r0, #1
     5d4:	1d000003 	stcne	0, cr0, [r0, #-12]
     5d8:	0000010d 	andeq	r0, r0, sp, lsl #2
     5dc:	0000034d 	andeq	r0, r0, sp, asr #6
     5e0:	00007829 	andeq	r7, r0, r9, lsr #16
     5e4:	00061500 	andeq	r1, r6, r0, lsl #10
     5e8:	01181d00 	tsteq	r8, r0, lsl #26
     5ec:	036c0000 	cmneq	ip, #0
     5f0:	0d1d0000 	ldceq	0, cr0, [sp, #-0]
     5f4:	4d000001 	stcmi	0, cr0, [r0, #-4]
     5f8:	2a000003 	bcs	60c <_start-0x79f4>
     5fc:	000000d1 	ldrdeq	r0, [r0], -r1
     600:	000082a8 	andeq	r8, r0, r8, lsr #5
     604:	00000078 	andeq	r0, r0, r8, ror r0
     608:	dd1d3601 	ldcle	6, cr3, [sp, #-4]
     60c:	4d000000 	stcmi	0, cr0, [r0, #-0]
     610:	00000003 	andeq	r0, r0, r3
     614:	00e92a00 	rsceq	r2, r9, r0, lsl #20
     618:	82b80000 	adcshi	r0, r8, #0
     61c:	00a00000 	adceq	r0, r0, r0
     620:	38010000 	stmdacc	r1, {}	; <UNPREDICTABLE>
     624:	0000f51d 	andeq	pc, r0, sp, lsl r5	; <UNPREDICTABLE>
     628:	00034d00 	andeq	r4, r3, r0, lsl #26
     62c:	11000000 	mrsne	r0, (UNDEF: 0)
     630:	000082d8 	ldrdeq	r8, [r0], -r8	; <UNPREDICTABLE>
     634:	00000004 	andeq	r0, r0, r4
     638:	0000064c 	andeq	r0, r0, ip, asr #12
     63c:	0001a010 	andeq	sl, r1, r0, lsl r0
     640:	2c810100 	stfcss	f0, [r1], {0}
     644:	e2000000 	and	r0, r0, #0
     648:	00000003 	andeq	r0, r0, r3
     64c:	00010128 	andeq	r0, r1, r8, lsr #2
     650:	0082e800 	addeq	lr, r2, r0, lsl #16
     654:	0000c000 	andeq	ip, r0, r0
     658:	c0820100 	addgt	r0, r2, r0, lsl #2
     65c:	1d000006 	stcne	0, cr0, [r0, #-24]	; 0xffffffe8
     660:	00000118 	andeq	r0, r0, r8, lsl r1
     664:	000003f5 	strdeq	r0, [r0], -r5
     668:	00010d1d 	andeq	r0, r1, sp, lsl sp
     66c:	00040f00 	andeq	r0, r4, r0, lsl #30
     670:	00d82900 	sbcseq	r2, r8, r0, lsl #18
     674:	06a60000 	strteq	r0, [r6], r0
     678:	181d0000 	ldmdane	sp, {}	; <UNPREDICTABLE>
     67c:	2e000001 	cdpcs	0, 0, cr0, cr0, cr1, {0}
     680:	1d000004 	stcne	0, cr0, [r0, #-16]
     684:	0000010d 	andeq	r0, r0, sp, lsl #2
     688:	0000040f 	andeq	r0, r0, pc, lsl #8
     68c:	0000d12a 	andeq	sp, r0, sl, lsr #2
     690:	0082e800 	addeq	lr, r2, r0, lsl #16
     694:	0000d800 	andeq	sp, r0, r0, lsl #16
     698:	1d360100 	ldfnes	f0, [r6, #-0]
     69c:	000000dd 	ldrdeq	r0, [r0], -sp
     6a0:	0000040f 	andeq	r0, r0, pc, lsl #8
     6a4:	e92a0000 	stmdb	sl!, {}	; <UNPREDICTABLE>
     6a8:	f8000000 			; <UNDEFINED> instruction: 0xf8000000
     6ac:	00000082 	andeq	r0, r0, r2, lsl #1
     6b0:	01000001 	tsteq	r0, r1
     6b4:	00f51d38 	rscseq	r1, r5, r8, lsr sp
     6b8:	040f0000 	streq	r0, [pc], #-0	; 6c0 <_start-0x7940>
     6bc:	00000000 	andeq	r0, r0, r0
     6c0:	00831811 	addeq	r1, r3, r1, lsl r8
     6c4:	00000400 	andeq	r0, r0, r0, lsl #8
     6c8:	0006dd00 	andeq	sp, r6, r0, lsl #26
     6cc:	01a01000 	moveq	r1, r0
     6d0:	83010000 	movwhi	r0, #4096	; 0x1000
     6d4:	0000002c 	andeq	r0, r0, ip, lsr #32
     6d8:	00000492 	muleq	r0, r2, r4
     6dc:	01012800 	tsteq	r1, r0, lsl #16
     6e0:	83280000 	teqhi	r8, #0
     6e4:	01200000 	teqeq	r0, r0
     6e8:	84010000 	strhi	r0, [r1], #-0
     6ec:	00000751 	andeq	r0, r0, r1, asr r7
     6f0:	0001181d 	andeq	r1, r1, sp, lsl r8
     6f4:	0004a500 	andeq	sl, r4, r0, lsl #10
     6f8:	010d1d00 	tsteq	sp, r0, lsl #26
     6fc:	04bf0000 	ldrteq	r0, [pc], #0	; 704 <_start-0x78fc>
     700:	38290000 	stmdacc	r9!, {}	; <UNPREDICTABLE>
     704:	37000001 	strcc	r0, [r0, -r1]
     708:	1d000007 	stcne	0, cr0, [r0, #-28]	; 0xffffffe4
     70c:	00000118 	andeq	r0, r0, r8, lsl r1
     710:	000004de 	ldrdeq	r0, [r0], -lr
     714:	00010d1d 	andeq	r0, r1, sp, lsl sp
     718:	0004bf00 	andeq	fp, r4, r0, lsl #30
     71c:	00d12a00 	sbcseq	r2, r1, r0, lsl #20
     720:	83280000 	teqhi	r8, #0
     724:	01380000 	teqeq	r8, r0
     728:	36010000 	strcc	r0, [r1], -r0
     72c:	0000dd1d 	andeq	sp, r0, sp, lsl sp
     730:	0004bf00 	andeq	fp, r4, r0, lsl #30
     734:	2a000000 	bcs	73c <_start-0x78c4>
     738:	000000e9 	andeq	r0, r0, r9, ror #1
     73c:	00008338 	andeq	r8, r0, r8, lsr r3
     740:	00000160 	andeq	r0, r0, r0, ror #2
     744:	f51d3801 			; <UNDEFINED> instruction: 0xf51d3801
     748:	bf000000 	svclt	0x00000000
     74c:	00000004 	andeq	r0, r0, r4
     750:	83581100 	cmphi	r8, #0, 2
     754:	00040000 	andeq	r0, r4, r0
     758:	076e0000 	strbeq	r0, [lr, -r0]!
     75c:	a0100000 	andsge	r0, r0, r0
     760:	01000001 	tsteq	r0, r1
     764:	00002c85 	andeq	r2, r0, r5, lsl #25
     768:	00053000 	andeq	r3, r5, r0
     76c:	01280000 	teqeq	r8, r0
     770:	68000001 	stmdavs	r0, {r0}
     774:	80000083 	andhi	r0, r0, r3, lsl #1
     778:	01000001 	tsteq	r0, r1
     77c:	0007e286 	andeq	lr, r7, r6, lsl #5
     780:	01181d00 	tsteq	r8, r0, lsl #26
     784:	05430000 	strbeq	r0, [r3, #-0]
     788:	0d1d0000 	ldceq	0, cr0, [sp, #-0]
     78c:	5d000001 	stcpl	0, cr0, [r0, #-4]
     790:	29000005 	stmdbcs	r0, {r0, r2}
     794:	00000198 	muleq	r0, r8, r1
     798:	000007c8 	andeq	r0, r0, r8, asr #15
     79c:	0001181d 	andeq	r1, r1, sp, lsl r8
     7a0:	00057c00 	andeq	r7, r5, r0, lsl #24
     7a4:	010d1d00 	tsteq	sp, r0, lsl #26
     7a8:	055d0000 	ldrbeq	r0, [sp, #-0]
     7ac:	d12a0000 	teqle	sl, r0
     7b0:	68000000 	stmdavs	r0, {}	; <UNPREDICTABLE>
     7b4:	98000083 	stmdals	r0, {r0, r1, r7}
     7b8:	01000001 	tsteq	r0, r1
     7bc:	00dd1d36 	sbcseq	r1, sp, r6, lsr sp
     7c0:	055d0000 	ldrbeq	r0, [sp, #-0]
     7c4:	00000000 	andeq	r0, r0, r0
     7c8:	0000e92a 	andeq	lr, r0, sl, lsr #18
     7cc:	00837800 	addeq	r7, r3, r0, lsl #16
     7d0:	0001c000 	andeq	ip, r1, r0
     7d4:	1d380100 	ldfnes	f0, [r8, #-0]
     7d8:	000000f5 	strdeq	r0, [r0], -r5
     7dc:	0000055d 	andeq	r0, r0, sp, asr r5
     7e0:	9c110000 	ldcls	0, cr0, [r1], {-0}
     7e4:	04000083 	streq	r0, [r0], #-131	; 0x83
     7e8:	ff000000 			; <UNDEFINED> instruction: 0xff000000
     7ec:	10000007 	andne	r0, r0, r7
     7f0:	000001a0 	andeq	r0, r0, r0, lsr #3
     7f4:	002c8701 	eoreq	r8, ip, r1, lsl #14
     7f8:	05bc0000 	ldreq	r0, [ip, #0]!
     7fc:	28000000 	stmdacs	r0, {}	; <UNPREDICTABLE>
     800:	00000101 	andeq	r0, r0, r1, lsl #2
     804:	000083ac 	andeq	r8, r0, ip, lsr #7
     808:	000001e0 	andeq	r0, r0, r0, ror #3
     80c:	08738801 	ldmdaeq	r3!, {r0, fp, pc}^
     810:	181d0000 	ldmdane	sp, {}	; <UNPREDICTABLE>
     814:	cf000001 	svcgt	0x00000001
     818:	1d000005 	stcne	0, cr0, [r0, #-20]	; 0xffffffec
     81c:	0000010d 	andeq	r0, r0, sp, lsl #2
     820:	000005ea 	andeq	r0, r0, sl, ror #11
     824:	0001f829 	andeq	pc, r1, r9, lsr #16
     828:	00085900 	andeq	r5, r8, r0, lsl #18
     82c:	01181d00 	tsteq	r8, r0, lsl #26
     830:	06090000 	streq	r0, [r9], -r0
     834:	0d1d0000 	ldceq	0, cr0, [sp, #-0]
     838:	ea000001 	b	844 <_start-0x77bc>
     83c:	2a000005 	bcs	858 <_start-0x77a8>
     840:	000000d1 	ldrdeq	r0, [r0], -r1
     844:	000083ac 	andeq	r8, r0, ip, lsr #7
     848:	000001f8 	strdeq	r0, [r0], -r8
     84c:	dd1d3601 	ldcle	6, cr3, [sp, #-4]
     850:	ea000000 	b	858 <_start-0x77a8>
     854:	00000005 	andeq	r0, r0, r5
     858:	00e92a00 	rsceq	r2, r9, r0, lsl #20
     85c:	83bc0000 			; <UNDEFINED> instruction: 0x83bc0000
     860:	02200000 	eoreq	r0, r0, #0
     864:	38010000 	stmdacc	r1, {}	; <UNPREDICTABLE>
     868:	0000f51d 	andeq	pc, r0, sp, lsl r5	; <UNPREDICTABLE>
     86c:	0005ea00 	andeq	lr, r5, r0, lsl #20
     870:	11000000 	mrsne	r0, (UNDEF: 0)
     874:	000083dc 	ldrdeq	r8, [r0], -ip
     878:	00000004 	andeq	r0, r0, r4
     87c:	00000890 	muleq	r0, r0, r8
     880:	0001a010 	andeq	sl, r1, r0, lsl r0
     884:	2c890100 	stfcss	f0, [r9], {0}
     888:	37000000 	strcc	r0, [r0, -r0]
     88c:	00000006 	andeq	r0, r0, r6
     890:	00010128 	andeq	r0, r1, r8, lsr #2
     894:	0083ec00 	addeq	lr, r3, r0, lsl #24
     898:	00024000 	andeq	r4, r2, r0
     89c:	048a0100 	streq	r0, [sl], #256	; 0x100
     8a0:	1d000009 	stcne	0, cr0, [r0, #-36]	; 0xffffffdc
     8a4:	00000118 	andeq	r0, r0, r8, lsl r1
     8a8:	0000064a 	andeq	r0, r0, sl, asr #12
     8ac:	00010d1d 	andeq	r0, r1, sp, lsl sp
     8b0:	00066500 	andeq	r6, r6, r0, lsl #10
     8b4:	02582900 	subseq	r2, r8, #0, 18
     8b8:	08ea0000 	stmiaeq	sl!, {}^	; <UNPREDICTABLE>
     8bc:	181d0000 	ldmdane	sp, {}	; <UNPREDICTABLE>
     8c0:	4a000001 	bmi	8cc <_start-0x7734>
     8c4:	1d000006 	stcne	0, cr0, [r0, #-24]	; 0xffffffe8
     8c8:	0000010d 	andeq	r0, r0, sp, lsl #2
     8cc:	00000665 	andeq	r0, r0, r5, ror #12
     8d0:	0000d12a 	andeq	sp, r0, sl, lsr #2
     8d4:	0083ec00 	addeq	lr, r3, r0, lsl #24
     8d8:	00025800 	andeq	r5, r2, r0, lsl #16
     8dc:	1d360100 	ldfnes	f0, [r6, #-0]
     8e0:	000000dd 	ldrdeq	r0, [r0], -sp
     8e4:	00000665 	andeq	r0, r0, r5, ror #12
     8e8:	e92a0000 	stmdb	sl!, {}	; <UNPREDICTABLE>
     8ec:	fc000000 	stc2	0, cr0, [r0], {-0}
     8f0:	80000083 	andhi	r0, r0, r3, lsl #1
     8f4:	01000002 	tsteq	r0, r2
     8f8:	00f51d38 	rscseq	r1, r5, r8, lsr sp
     8fc:	06650000 	strbteq	r0, [r5], -r0
     900:	00000000 	andeq	r0, r0, r0
     904:	00841c11 	addeq	r1, r4, r1, lsl ip
     908:	00000400 	andeq	r0, r0, r0, lsl #8
     90c:	00092100 	andeq	r2, r9, r0, lsl #2
     910:	01a01000 	moveq	r1, r0
     914:	8b010000 	blhi	4091c <__bss_end__+0x36954>
     918:	0000002c 	andeq	r0, r0, ip, lsr #32
     91c:	00000684 	andeq	r0, r0, r4, lsl #13
     920:	01012800 	tsteq	r1, r0, lsl #16
     924:	842c0000 	strthi	r0, [ip], #-0
     928:	02a00000 	adceq	r0, r0, #0
     92c:	8c010000 	stchi	0, cr0, [r1], {-0}
     930:	0000098d 	andeq	r0, r0, sp, lsl #19
     934:	0001182b 	andeq	r1, r1, fp, lsr #16
     938:	010d1d00 	tsteq	sp, r0, lsl #26
     93c:	06970000 	ldreq	r0, [r7], r0
     940:	b8290000 	stmdalt	r9!, {}	; <UNPREDICTABLE>
     944:	73000002 	movwvc	r0, #2
     948:	2b000009 	blcs	974 <_start-0x768c>
     94c:	00000118 	andeq	r0, r0, r8, lsl r1
     950:	00010d1d 	andeq	r0, r1, sp, lsl sp
     954:	00069700 	andeq	r9, r6, r0, lsl #14
     958:	00d12a00 	sbcseq	r2, r1, r0, lsl #20
     95c:	84300000 	ldrthi	r0, [r0], #-0
     960:	02b80000 	adcseq	r0, r8, #0
     964:	36010000 	strcc	r0, [r1], -r0
     968:	0000dd1d 	andeq	sp, r0, sp, lsl sp
     96c:	00069700 	andeq	r9, r6, r0, lsl #14
     970:	2a000000 	bcs	978 <_start-0x7688>
     974:	000000e9 	andeq	r0, r0, r9, ror #1
     978:	0000843c 	andeq	r8, r0, ip, lsr r4
     97c:	000002e0 	andeq	r0, r0, r0, ror #5
     980:	f51d3801 			; <UNDEFINED> instruction: 0xf51d3801
     984:	97000000 	strls	r0, [r0, -r0]
     988:	00000006 	andeq	r0, r0, r6
     98c:	845c1100 	ldrbhi	r1, [ip], #-256	; 0x100
     990:	00040000 	andeq	r0, r4, r0
     994:	09aa0000 	stmibeq	sl!, {}	; <UNPREDICTABLE>
     998:	a0100000 	andsge	r0, r0, r0
     99c:	01000001 	tsteq	r0, r1
     9a0:	00002c8d 	andeq	r2, r0, sp, lsl #25
     9a4:	0006b600 	andeq	fp, r6, r0, lsl #12
     9a8:	d1270000 	teqle	r7, r0
     9ac:	6c000000 	stcvs	0, cr0, [r0], {-0}
     9b0:	24000084 	strcs	r0, [r0], #-132	; 0x84
     9b4:	01000000 	mrseq	r0, (UNDEF: 0)
     9b8:	0009c78e 	andeq	ip, r9, lr, lsl #15
     9bc:	00dd1d00 	sbcseq	r1, sp, r0, lsl #26
     9c0:	06c90000 	strbeq	r0, [r9], r0
     9c4:	21000000 	mrscs	r0, (UNDEF: 0)
     9c8:	00008490 	muleq	r0, r0, r4
     9cc:	00000004 	andeq	r0, r0, r4
     9d0:	0001a010 	andeq	sl, r1, r0, lsl r0
     9d4:	2c8f0100 	stfcss	f0, [pc], {0}
     9d8:	dd000000 	stcle	0, cr0, [r0, #-0]
     9dc:	00000006 	andeq	r0, r0, r6
     9e0:	00932200 	addseq	r2, r3, r0, lsl #4
     9e4:	b1010000 	mrslt	r0, (UNDEF: 1)
     9e8:	000084ac 	andeq	r8, r0, ip, lsr #9
     9ec:	00000630 	andeq	r0, r0, r0, lsr r6
     9f0:	0f679c01 	svceq	0x00679c01
     9f4:	72250000 	eorvc	r0, r5, #0
     9f8:	b2010078 	andlt	r0, r1, #120	; 0x78
     9fc:	00000025 	andeq	r0, r0, r5, lsr #32
     a00:	78742514 	ldmdavc	r4!, {r2, r4, r8, sl, sp}^
     a04:	25b30100 	ldrcs	r0, [r3, #256]!	; 0x100
     a08:	15000000 	strne	r0, [r0, #-0]
     a0c:	0084e811 	addeq	lr, r4, r1, lsl r8
     a10:	00000800 	andeq	r0, r0, r0, lsl #16
     a14:	000a2500 	andeq	r2, sl, r0, lsl #10
     a18:	6e692500 	cdpvs	5, 6, cr2, cr9, cr0, {0}
     a1c:	2cb80100 	ldfcss	f0, [r8]
     a20:	01000000 	mrseq	r0, (UNDEF: 0)
     a24:	01222800 	teqeq	r2, r0, lsl #16
     a28:	84f00000 	ldrbthi	r0, [r0], #0
     a2c:	03000000 	movweq	r0, #0
     a30:	ba010000 	blt	40a38 <__bss_end__+0x36a70>
     a34:	00000f2d 	andeq	r0, r0, sp, lsr #30
     a38:	00012e2c 	andeq	r2, r1, ip, lsr #28
     a3c:	422d1500 	eormi	r1, sp, #0, 10
     a40:	00000001 	andeq	r0, r0, r1
     a44:	01382c10 	teqeq	r8, r0, lsl ip
     a48:	2e140000 	cdpcs	0, 1, cr0, cr4, cr0, {0}
     a4c:	00000300 	andeq	r0, r0, r0, lsl #6
     a50:	00014b1e 	andeq	r4, r1, lr, lsl fp
     a54:	0006f000 	andeq	pc, r6, r0
     a58:	01561e00 	cmpeq	r6, r0, lsl #28
     a5c:	07640000 	strbeq	r0, [r4, -r0]!
     a60:	d1280000 	teqle	r8, r0
     a64:	f0000000 			; <UNDEFINED> instruction: 0xf0000000
     a68:	18000084 	stmdane	r0, {r2, r7}
     a6c:	01000003 	tsteq	r0, r3
     a70:	000a7c93 	muleq	sl, r3, ip
     a74:	00dd2c00 	sbcseq	r2, sp, r0, lsl #24
     a78:	00150000 	andseq	r0, r5, r0
     a7c:	00025728 	andeq	r5, r2, r8, lsr #14
     a80:	00853400 	addeq	r3, r5, r0, lsl #8
     a84:	00033000 	andeq	r3, r3, r0
     a88:	bca20100 	stflts	f0, [r2]
     a8c:	2f00000b 	svccs	0x0000000b
     a90:	00000267 	andeq	r0, r0, r7, ror #4
     a94:	9bb40306 	blls	fed016b4 <__bss_end__+0xfecf76ec>
     a98:	2e9f0000 	cdpcs	0, 9, cr0, cr15, cr0, {0}
     a9c:	00000330 	andeq	r0, r0, r0, lsr r3
     aa0:	0002721e 	andeq	r7, r2, lr, lsl r2
     aa4:	0007ab00 	andeq	sl, r7, r0, lsl #22
     aa8:	027d1f00 	rsbseq	r1, sp, #0, 30
     aac:	1e010000 	cdpne	0, 0, cr0, cr1, cr0, {0}
     ab0:	00000286 	andeq	r0, r0, r6, lsl #5
     ab4:	00000862 	andeq	r0, r0, r2, ror #16
     ab8:	0002911e 	andeq	r9, r2, lr, lsl r1
     abc:	00088500 	andeq	r8, r8, r0, lsl #10
     ac0:	85a41100 	strhi	r1, [r4, #256]!	; 0x100
     ac4:	00040000 	andeq	r0, r4, r0
     ac8:	0ad80000 	beq	ff600ad0 <__bss_end__+0xff5f6b08>
     acc:	a11e0000 	tstge	lr, r0
     ad0:	85000002 	strhi	r0, [r0, #-2]
     ad4:	00000008 	andeq	r0, r0, r8
     ad8:	0085a811 	addeq	sl, r5, r1, lsl r8
     adc:	00000400 	andeq	r0, r0, r0, lsl #8
     ae0:	000aef00 	andeq	lr, sl, r0, lsl #30
     ae4:	02b21e00 	adcseq	r1, r2, #0, 28
     ae8:	08980000 	ldmeq	r8, {}	; <UNPREDICTABLE>
     aec:	11000000 	mrsne	r0, (UNDEF: 0)
     af0:	000085bc 			; <UNDEFINED> instruction: 0x000085bc
     af4:	00000004 	andeq	r0, r0, r4
     af8:	00000b06 	andeq	r0, r0, r6, lsl #22
     afc:	0002c31e 	andeq	ip, r2, lr, lsl r3
     b00:	0008ab00 	andeq	sl, r8, r0, lsl #22
     b04:	e4110000 	ldr	r0, [r1], #-0
     b08:	04000085 	streq	r0, [r0], #-133	; 0x85
     b0c:	1d000000 	stcne	0, cr0, [r0, #-0]
     b10:	1e00000b 	cdpne	0, 0, cr0, cr0, cr11, {0}
     b14:	000002d4 	ldrdeq	r0, [r0], -r4
     b18:	000008be 			; <UNDEFINED> instruction: 0x000008be
     b1c:	86081100 	strhi	r1, [r8], -r0, lsl #2
     b20:	00040000 	andeq	r0, r4, r0
     b24:	0b340000 	bleq	d00b2c <__bss_end__+0xcf6b64>
     b28:	e51e0000 	ldr	r0, [lr, #-0]
     b2c:	d1000002 	tstle	r0, r2
     b30:	00000008 	andeq	r0, r0, r8
     b34:	00862c11 	addeq	r2, r6, r1, lsl ip
     b38:	00000400 	andeq	r0, r0, r0, lsl #8
     b3c:	000b4b00 	andeq	r4, fp, r0, lsl #22
     b40:	02f61e00 	rscseq	r1, r6, #0, 28
     b44:	08e40000 	stmiaeq	r4!, {}^	; <UNPREDICTABLE>
     b48:	11000000 	mrsne	r0, (UNDEF: 0)
     b4c:	00008650 	andeq	r8, r0, r0, asr r6
     b50:	00000004 	andeq	r0, r0, r4
     b54:	00000b62 	andeq	r0, r0, r2, ror #22
     b58:	0003071e 	andeq	r0, r3, lr, lsl r7
     b5c:	0008f700 	andeq	pc, r8, r0, lsl #14
     b60:	74110000 	ldrvc	r0, [r1], #-0
     b64:	04000086 	streq	r0, [r0], #-134	; 0x86
     b68:	79000000 	stmdbvc	r0, {}	; <UNPREDICTABLE>
     b6c:	1e00000b 	cdpne	0, 0, cr0, cr0, cr11, {0}
     b70:	00000318 	andeq	r0, r0, r8, lsl r3
     b74:	0000090a 	andeq	r0, r0, sl, lsl #18
     b78:	86981100 	ldrhi	r1, [r8], r0, lsl #2
     b7c:	00040000 	andeq	r0, r4, r0
     b80:	0b900000 	bleq	fe400b88 <__bss_end__+0xfe3f6bc0>
     b84:	291e0000 	ldmdbcs	lr, {}	; <UNPREDICTABLE>
     b88:	1d000003 	stcne	0, cr0, [r0, #-12]
     b8c:	00000009 	andeq	r0, r0, r9
     b90:	0086bc11 	addeq	fp, r6, r1, lsl ip
     b94:	00000400 	andeq	r0, r0, r0, lsl #8
     b98:	000ba700 	andeq	sl, fp, r0, lsl #14
     b9c:	033a1e00 	teqeq	sl, #0, 28
     ba0:	09300000 	ldmdbeq	r0!, {}	; <UNPREDICTABLE>
     ba4:	21000000 	mrscs	r0, (UNDEF: 0)
     ba8:	000086f8 	strdeq	r8, [r0], -r8	; <UNPREDICTABLE>
     bac:	00000004 	andeq	r0, r0, r4
     bb0:	0003471e 	andeq	r4, r3, lr, lsl r7
     bb4:	00094300 	andeq	r4, r9, r0, lsl #6
     bb8:	00000000 	andeq	r0, r0, r0
     bbc:	00025728 	andeq	r5, r2, r8, lsr #14
     bc0:	00872000 	addeq	r2, r7, r0
     bc4:	00034800 	andeq	r4, r3, r0, lsl #16
     bc8:	fca40100 	stc2	1, cr0, [r4]
     bcc:	2f00000c 	svccs	0x0000000c
     bd0:	00000267 	andeq	r0, r0, r7, ror #4
     bd4:	9bb40306 	blls	fed017f4 <__bss_end__+0xfecf782c>
     bd8:	2e9f0000 	cdpcs	0, 9, cr0, cr15, cr0, {0}
     bdc:	00000348 	andeq	r0, r0, r8, asr #6
     be0:	0002721e 	andeq	r7, r2, lr, lsl r2
     be4:	00095600 	andeq	r5, r9, r0, lsl #12
     be8:	027d1f00 	rsbseq	r1, sp, #0, 30
     bec:	1e010000 	cdpne	0, 0, cr0, cr1, cr0, {0}
     bf0:	00000286 	andeq	r0, r0, r6, lsl #5
     bf4:	00000b93 	muleq	r0, r3, fp
     bf8:	0002911e 	andeq	r9, r2, lr, lsl r1
     bfc:	000bcc00 	andeq	ip, fp, r0, lsl #24
     c00:	87481100 	strbhi	r1, [r8, -r0, lsl #2]
     c04:	00040000 	andeq	r0, r4, r0
     c08:	0c180000 	ldceq	0, cr0, [r8], {-0}
     c0c:	a11e0000 	tstge	lr, r0
     c10:	cc000002 	stcgt	0, cr0, [r0], {2}
     c14:	0000000b 	andeq	r0, r0, fp
     c18:	00874c11 	addeq	r4, r7, r1, lsl ip
     c1c:	00000400 	andeq	r0, r0, r0, lsl #8
     c20:	000c2f00 	andeq	r2, ip, r0, lsl #30
     c24:	02b21e00 	adcseq	r1, r2, #0, 28
     c28:	0bdf0000 	bleq	ff7c0c30 <__bss_end__+0xff7b6c68>
     c2c:	11000000 	mrsne	r0, (UNDEF: 0)
     c30:	00008760 	andeq	r8, r0, r0, ror #14
     c34:	00000004 	andeq	r0, r0, r4
     c38:	00000c46 	andeq	r0, r0, r6, asr #24
     c3c:	0002c31e 	andeq	ip, r2, lr, lsl r3
     c40:	000bf200 	andeq	pc, fp, r0, lsl #4
     c44:	94110000 	ldrls	r0, [r1], #-0
     c48:	04000087 	streq	r0, [r0], #-135	; 0x87
     c4c:	5d000000 	stcpl	0, cr0, [r0, #-0]
     c50:	1e00000c 	cdpne	0, 0, cr0, cr0, cr12, {0}
     c54:	000002d4 	ldrdeq	r0, [r0], -r4
     c58:	00000c05 	andeq	r0, r0, r5, lsl #24
     c5c:	87c81100 	strbhi	r1, [r8, r0, lsl #2]
     c60:	00040000 	andeq	r0, r4, r0
     c64:	0c740000 	ldcleq	0, cr0, [r4], #-0
     c68:	e51e0000 	ldr	r0, [lr, #-0]
     c6c:	18000002 	stmdane	r0, {r1}
     c70:	0000000c 	andeq	r0, r0, ip
     c74:	0087f411 	addeq	pc, r7, r1, lsl r4	; <UNPREDICTABLE>
     c78:	00000400 	andeq	r0, r0, r0, lsl #8
     c7c:	000c8b00 	andeq	r8, ip, r0, lsl #22
     c80:	02f61e00 	rscseq	r1, r6, #0, 28
     c84:	0c2b0000 	stceq	0, cr0, [fp], #-0
     c88:	11000000 	mrsne	r0, (UNDEF: 0)
     c8c:	0000881c 	andeq	r8, r0, ip, lsl r8
     c90:	00000004 	andeq	r0, r0, r4
     c94:	00000ca2 	andeq	r0, r0, r2, lsr #25
     c98:	0003071e 	andeq	r0, r3, lr, lsl r7
     c9c:	000c3e00 	andeq	r3, ip, r0, lsl #28
     ca0:	44110000 	ldrmi	r0, [r1], #-0
     ca4:	04000088 	streq	r0, [r0], #-136	; 0x88
     ca8:	b9000000 	stmdblt	r0, {}	; <UNPREDICTABLE>
     cac:	1e00000c 	cdpne	0, 0, cr0, cr0, cr12, {0}
     cb0:	00000318 	andeq	r0, r0, r8, lsl r3
     cb4:	00000c51 	andeq	r0, r0, r1, asr ip
     cb8:	886c1100 	stmdahi	ip!, {r8, ip}^
     cbc:	00040000 	andeq	r0, r4, r0
     cc0:	0cd00000 	ldcleq	0, cr0, [r0], {0}
     cc4:	291e0000 	ldmdbcs	lr, {}	; <UNPREDICTABLE>
     cc8:	64000003 	strvs	r0, [r0], #-3
     ccc:	0000000c 	andeq	r0, r0, ip
     cd0:	00889411 	addeq	r9, r8, r1, lsl r4
     cd4:	00000400 	andeq	r0, r0, r0, lsl #8
     cd8:	000ce700 	andeq	lr, ip, r0, lsl #14
     cdc:	033a1e00 	teqeq	sl, #0, 28
     ce0:	0c770000 	ldcleq	0, cr0, [r7], #-0
     ce4:	21000000 	mrscs	r0, (UNDEF: 0)
     ce8:	000088fc 	strdeq	r8, [r0], -ip
     cec:	00000004 	andeq	r0, r0, r4
     cf0:	0003471e 	andeq	r4, r3, lr, lsl r7
     cf4:	000c8a00 	andeq	r8, ip, r0, lsl #20
     cf8:	00000000 	andeq	r0, r0, r0
     cfc:	00025728 	andeq	r5, r2, r8, lsr #14
     d00:	00891000 	addeq	r1, r9, r0
     d04:	00036000 	andeq	r6, r3, r0
     d08:	3ca50100 	stfccs	f0, [r5]
     d0c:	2f00000e 	svccs	0x0000000e
     d10:	00000267 	andeq	r0, r0, r7, ror #4
     d14:	9bb40306 	blls	fed01934 <__bss_end__+0xfecf796c>
     d18:	2e9f0000 	cdpcs	0, 9, cr0, cr15, cr0, {0}
     d1c:	00000360 	andeq	r0, r0, r0, ror #6
     d20:	0002721e 	andeq	r7, r2, lr, lsl r2
     d24:	000c9d00 	andeq	r9, ip, r0, lsl #26
     d28:	027d1f00 	rsbseq	r1, sp, #0, 30
     d2c:	1e010000 	cdpne	0, 0, cr0, cr1, cr0, {0}
     d30:	00000286 	andeq	r0, r0, r6, lsl #5
     d34:	00000d6b 	andeq	r0, r0, fp, ror #26
     d38:	0002911e 	andeq	r9, r2, lr, lsl r1
     d3c:	000da400 	andeq	sl, sp, r0, lsl #8
     d40:	89201100 	stmdbhi	r0!, {r8, ip}
     d44:	00040000 	andeq	r0, r4, r0
     d48:	0d580000 	ldcleq	0, cr0, [r8, #-0]
     d4c:	a11e0000 	tstge	lr, r0
     d50:	a4000002 	strge	r0, [r0], #-2
     d54:	0000000d 	andeq	r0, r0, sp
     d58:	00892411 	addeq	r2, r9, r1, lsl r4
     d5c:	00000400 	andeq	r0, r0, r0, lsl #8
     d60:	000d6f00 	andeq	r6, sp, r0, lsl #30
     d64:	02b21e00 	adcseq	r1, r2, #0, 28
     d68:	0db70000 	ldceq	0, cr0, [r7]
     d6c:	11000000 	mrsne	r0, (UNDEF: 0)
     d70:	00008934 	andeq	r8, r0, r4, lsr r9
     d74:	00000004 	andeq	r0, r0, r4
     d78:	00000d86 	andeq	r0, r0, r6, lsl #27
     d7c:	0002c31e 	andeq	ip, r2, lr, lsl r3
     d80:	000dca00 	andeq	ip, sp, r0, lsl #20
     d84:	5c110000 	ldcpl	0, cr0, [r1], {-0}
     d88:	04000089 	streq	r0, [r0], #-137	; 0x89
     d8c:	9d000000 	stcls	0, cr0, [r0, #-0]
     d90:	1e00000d 	cdpne	0, 0, cr0, cr0, cr13, {0}
     d94:	000002d4 	ldrdeq	r0, [r0], -r4
     d98:	00000ddd 	ldrdeq	r0, [r0], -sp
     d9c:	89801100 	stmibhi	r0, {r8, ip}
     da0:	00040000 	andeq	r0, r4, r0
     da4:	0db40000 	ldceq	0, cr0, [r4]
     da8:	e51e0000 	ldr	r0, [lr, #-0]
     dac:	f0000002 			; <UNDEFINED> instruction: 0xf0000002
     db0:	0000000d 	andeq	r0, r0, sp
     db4:	0089a011 	addeq	sl, r9, r1, lsl r0
     db8:	00000400 	andeq	r0, r0, r0, lsl #8
     dbc:	000dcb00 	andeq	ip, sp, r0, lsl #22
     dc0:	02f61e00 	rscseq	r1, r6, #0, 28
     dc4:	0e030000 	cdpeq	0, 0, cr0, cr3, cr0, {0}
     dc8:	11000000 	mrsne	r0, (UNDEF: 0)
     dcc:	000089c0 	andeq	r8, r0, r0, asr #19
     dd0:	00000004 	andeq	r0, r0, r4
     dd4:	00000de2 	andeq	r0, r0, r2, ror #27
     dd8:	0003071e 	andeq	r0, r3, lr, lsl r7
     ddc:	000e1600 	andeq	r1, lr, r0, lsl #12
     de0:	e0110000 	ands	r0, r1, r0
     de4:	04000089 	streq	r0, [r0], #-137	; 0x89
     de8:	f9000000 			; <UNDEFINED> instruction: 0xf9000000
     dec:	1e00000d 	cdpne	0, 0, cr0, cr0, cr13, {0}
     df0:	00000318 	andeq	r0, r0, r8, lsl r3
     df4:	00000e29 	andeq	r0, r0, r9, lsr #28
     df8:	8a001100 	bhi	5200 <_start-0x2e00>
     dfc:	00040000 	andeq	r0, r4, r0
     e00:	0e100000 	cdpeq	0, 1, cr0, cr0, cr0, {0}
     e04:	291e0000 	ldmdbcs	lr, {}	; <UNPREDICTABLE>
     e08:	3c000003 	stccc	0, cr0, [r0], {3}
     e0c:	0000000e 	andeq	r0, r0, lr
     e10:	008a2011 	addeq	r2, sl, r1, lsl r0
     e14:	00000400 	andeq	r0, r0, r0, lsl #8
     e18:	000e2700 	andeq	r2, lr, r0, lsl #14
     e1c:	033a1e00 	teqeq	sl, #0, 28
     e20:	0e4f0000 	cdpeq	0, 4, cr0, cr15, cr0, {0}
     e24:	21000000 	mrscs	r0, (UNDEF: 0)
     e28:	00008a40 	andeq	r8, r0, r0, asr #20
     e2c:	00000004 	andeq	r0, r0, r4
     e30:	0003471e 	andeq	r4, r3, lr, lsl r7
     e34:	000e6200 	andeq	r6, lr, r0, lsl #4
     e38:	00000000 	andeq	r0, r0, r0
     e3c:	00850812 	addeq	r0, r5, r2, lsl r8
     e40:	00108900 	andseq	r8, r0, r0, lsl #18
     e44:	000e5300 	andeq	r5, lr, r0, lsl #6
     e48:	50011300 	andpl	r1, r1, r0, lsl #6
     e4c:	9a540305 	bls	1501a68 <__bss_end__+0x14f7aa0>
     e50:	12000000 	andne	r0, r0, #0
     e54:	00008534 	andeq	r8, r0, r4, lsr r5
     e58:	00001071 	andeq	r1, r0, r1, ror r0
     e5c:	00000e66 	andeq	r0, r0, r6, ror #28
     e60:	01500113 	cmpeq	r0, r3, lsl r1
     e64:	4c120031 	ldcmi	0, cr0, [r2], {49}	; 0x31
     e68:	8d000085 	stchi	0, cr0, [r0, #-532]	; 0xfffffdec
     e6c:	82000004 	andhi	r0, r0, #4
     e70:	1300000e 	movwne	r0, #14
     e74:	30015101 	andcc	r5, r1, r1, lsl #2
     e78:	05500113 	ldrbeq	r0, [r0, #-275]	; 0x113
     e7c:	009bb403 	addseq	fp, fp, r3, lsl #8
     e80:	58120000 	ldmdapl	r2, {}	; <UNPREDICTABLE>
     e84:	8d000085 	stchi	0, cr0, [r0, #-532]	; 0xfffffdec
     e88:	9e000004 	cdpls	0, 0, cr0, cr0, cr4, {0}
     e8c:	1300000e 	movwne	r0, #14
     e90:	30015101 	andcc	r5, r1, r1, lsl #2
     e94:	05500113 	ldrbeq	r0, [r0, #-275]	; 0x113
     e98:	009bb403 	addseq	fp, fp, r3, lsl #8
     e9c:	6c120000 	ldcvs	0, cr0, [r2], {-0}
     ea0:	8d000085 	stchi	0, cr0, [r0, #-532]	; 0xfffffdec
     ea4:	c3000004 	movwgt	r0, #4
     ea8:	1300000e 	movwne	r0, #14
     eac:	910a5101 	tstls	sl, r1, lsl #2
     eb0:	0a067fa0 	beq	1a0d38 <__bss_end__+0x196d70>
     eb4:	381aff00 	ldmdacc	sl, {r8, r9, sl, fp, ip, sp, lr, pc}
     eb8:	50011325 	andpl	r1, r1, r5, lsr #6
     ebc:	9bb40305 	blls	fed01ad8 <__bss_end__+0xfecf7b10>
     ec0:	12000000 	andne	r0, r0, #0
     ec4:	00008580 	andeq	r8, r0, r0, lsl #11
     ec8:	0000048d 	andeq	r0, r0, sp, lsl #9
     ecc:	00000edd 	ldrdeq	r0, [r0], -sp
     ed0:	02510113 	subseq	r0, r1, #-1073741820	; 0xc0000004
     ed4:	01130078 	tsteq	r3, r8, ror r0
     ed8:	007a0250 	rsbseq	r0, sl, r0, asr r2
     edc:	87181200 	ldrhi	r1, [r8, -r0, lsl #4]
     ee0:	02570000 	subseq	r0, r7, #0
     ee4:	0ef40000 	cdpeq	0, 15, cr0, cr4, cr0, {0}
     ee8:	01130000 	tsteq	r3, r0
     eec:	b4030550 	strlt	r0, [r3], #-1360	; 0x550
     ef0:	0000009b 	muleq	r0, fp, r0
     ef4:	008aac12 	addeq	sl, sl, r2, lsl ip
     ef8:	00108900 	andseq	r8, r0, r0, lsl #18
     efc:	000f1200 	andeq	r1, pc, r0, lsl #4
     f00:	51011300 	mrspl	r1, SP_irq
     f04:	10000a03 	andne	r0, r0, r3, lsl #20
     f08:	05500113 	ldrbeq	r0, [r0, #-275]	; 0x113
     f0c:	009a8803 	addseq	r8, sl, r3, lsl #16
     f10:	bc300000 	ldclt	0, cr0, [r0], #-0
     f14:	8900008a 	stmdbhi	r0, {r1, r3, r7}
     f18:	13000010 	movwne	r0, #16
     f1c:	7b025101 	blvc	95328 <__bss_end__+0x8b360>
     f20:	50011300 	andpl	r1, r1, r0, lsl #6
     f24:	9a640305 	bls	1901b40 <__bss_end__+0x18f7b78>
     f28:	00000000 	andeq	r0, r0, r0
     f2c:	84dc1200 	ldrbhi	r1, [ip], #512	; 0x200
     f30:	10a60000 	adcne	r0, r6, r0
     f34:	0f400000 	svceq	0x00400000
     f38:	01130000 	tsteq	r3, r0
     f3c:	00450150 	subeq	r0, r5, r0, asr r1
     f40:	0084e412 	addeq	lr, r4, r2, lsl r4
     f44:	0010b700 	andseq	fp, r0, r0, lsl #14
     f48:	000f5400 	andeq	r5, pc, r0, lsl #8
     f4c:	50011300 	andpl	r1, r1, r0, lsl #6
     f50:	00007402 	andeq	r7, r0, r2, lsl #8
     f54:	0084e814 	addeq	lr, r4, r4, lsl r8
     f58:	0010c800 	andseq	ip, r0, r0, lsl #16
     f5c:	8ab01400 	bhi	fec05f64 <__bss_end__+0xfebfbf9c>
     f60:	109f0000 	addsne	r0, pc, r0
     f64:	31000000 	mrscc	r0, (UNDEF: 0)
     f68:	00000178 	andeq	r0, r0, r8, ror r1
     f6c:	0f760801 	svceq	0x00760801
     f70:	00000000 	andeq	r0, r0, r0
     f74:	04052020 	streq	r2, [r5], #-32
     f78:	00000f7c 	andeq	r0, r0, ip, ror pc
     f7c:	00002c32 	andeq	r2, r0, r2, lsr ip
     f80:	01ec3100 	mvneq	r3, r0, lsl #2
     f84:	09010000 	stmdbeq	r1, {}	; <UNPREDICTABLE>
     f88:	00000f76 	andeq	r0, r0, r6, ror pc
     f8c:	2020001c 	eorcs	r0, r0, ip, lsl r0
     f90:	00000831 	andeq	r0, r0, r1, lsr r8
     f94:	760a0100 	strvc	r0, [sl], -r0, lsl #2
     f98:	2800000f 	stmdacs	r0, {r0, r1, r2, r3}
     f9c:	31202000 	teqcc	r0, r0
     fa0:	00000125 	andeq	r0, r0, r5, lsr #2
     fa4:	0f760c01 	svceq	0x00760c01
     fa8:	00000000 	andeq	r0, r0, r0
     fac:	2d312020 	ldccs	0, cr2, [r1, #-128]!	; 0xffffff80
     fb0:	01000001 	tsteq	r0, r1
     fb4:	000f760d 	andeq	r7, pc, sp, lsl #12
     fb8:	20000400 	andcs	r0, r0, r0, lsl #8
     fbc:	00003120 	andeq	r3, r0, r0, lsr #2
     fc0:	0e010000 	cdpeq	0, 0, cr0, cr1, cr0, {0}
     fc4:	00000f76 	andeq	r0, r0, r6, ror pc
     fc8:	20200008 	eorcs	r0, r0, r8
     fcc:	00013531 	andeq	r3, r1, r1, lsr r5
     fd0:	760f0100 	strvc	r0, [pc], -r0, lsl #2
     fd4:	0c00000f 	stceq	0, cr0, [r0], {15}
     fd8:	31202000 	teqcc	r0, r0
     fdc:	0000013d 	andeq	r0, r0, sp, lsr r1
     fe0:	0f761001 	svceq	0x00761001
     fe4:	00100000 	andseq	r0, r0, r0
     fe8:	45312020 	ldrmi	r2, [r1, #-32]!
     fec:	01000001 	tsteq	r0, r1
     ff0:	000f7611 	andeq	r7, pc, r1, lsl r6	; <UNPREDICTABLE>
     ff4:	20001400 	andcs	r1, r0, r0, lsl #8
     ff8:	00773120 	rsbseq	r3, r7, r0, lsr #2
     ffc:	13010000 	movwne	r0, #4096	; 0x1000
    1000:	00001008 	andeq	r1, r0, r8
    1004:	2020001c 	eorcs	r0, r0, ip, lsl r0
    1008:	000f7606 	andeq	r7, pc, r6, lsl #12
    100c:	007e3100 	rsbseq	r3, lr, r0, lsl #2
    1010:	14010000 	strne	r0, [r1], #-0
    1014:	00000f76 	andeq	r0, r0, r6, ror pc
    1018:	20200020 	eorcs	r0, r0, r0, lsr #32
    101c:	00001231 	andeq	r1, r0, r1, lsr r2
    1020:	2b160100 	blcs	581428 <__bss_end__+0x577460>
    1024:	28000010 	stmdacs	r0, {r4}
    1028:	06202000 	strteq	r2, [r0], -r0
    102c:	00000f76 	andeq	r0, r0, r6, ror pc
    1030:	00018331 	andeq	r8, r1, r1, lsr r3
    1034:	76170100 	ldrvc	r0, [r7], -r0, lsl #2
    1038:	2c00000f 	stccs	0, cr0, [r0], {15}
    103c:	31202000 	teqcc	r0, r0
    1040:	00000085 	andeq	r0, r0, r5, lsl #1
    1044:	104e1901 	subne	r1, lr, r1, lsl #18
    1048:	00340000 	eorseq	r0, r4, r0
    104c:	76062020 	strvc	r2, [r6], -r0, lsr #32
    1050:	3100000f 	tstcc	r0, pc
    1054:	0000008c 	andeq	r0, r0, ip, lsl #1
    1058:	0f761a01 	svceq	0x00761a01
    105c:	00380000 	eorseq	r0, r8, r0
    1060:	75332020 	ldrvc	r2, [r3, #-32]!
    1064:	c6220100 	strtgt	r0, [r2], -r0, lsl #2
    1068:	05000000 	streq	r0, [r0, #-0]
    106c:	009bb403 	addseq	fp, fp, r3, lsl #8
    1070:	01cf3400 	biceq	r3, pc, r0, lsl #8
    1074:	50030000 	andpl	r0, r3, r0
    1078:	00001082 	andeq	r1, r0, r2, lsl #1
    107c:	00002c35 	andeq	r2, r0, r5, lsr ip
    1080:	16360000 	ldrtne	r0, [r6], -r0
    1084:	03000001 	movweq	r0, #1
    1088:	031c371e 	tsteq	ip, #7864320	; 0x780000
    108c:	29030000 	stmdbcs	r3, {}	; <UNPREDICTABLE>
    1090:	00000025 	andeq	r0, r0, r5, lsr #32
    1094:	0000109f 	muleq	r0, pc, r0	; <UNPREDICTABLE>
    1098:	00008435 	andeq	r8, r0, r5, lsr r4
    109c:	36003800 	strcc	r3, [r0], -r0, lsl #16
    10a0:	0000018a 	andeq	r0, r0, sl, lsl #3
    10a4:	67346603 	ldrvs	r6, [r4, -r3, lsl #12]!
    10a8:	04000002 	streq	r0, [r0], #-2
    10ac:	0010b71d 	andseq	fp, r0, sp, lsl r7
    10b0:	002c3500 	eoreq	r3, ip, r0, lsl #10
    10b4:	34000000 	strcc	r0, [r0], #-0
    10b8:	00000253 	andeq	r0, r0, r3, asr r2
    10bc:	10c81c04 	sbcne	r1, r8, r4, lsl #24
    10c0:	2c350000 	ldccs	0, cr0, [r5], #-0
    10c4:	00000000 	andeq	r0, r0, r0
    10c8:	00027736 	andeq	r7, r2, r6, lsr r7
    10cc:	008e0300 	addeq	r0, lr, r0, lsl #6
    10d0:	00000191 	muleq	r0, r1, r1
    10d4:	02cd0004 	sbceq	r0, sp, #4
    10d8:	01040000 	mrseq	r0, (UNDEF: 4)
    10dc:	000002c2 	andeq	r0, r0, r2, asr #5
    10e0:	0002b401 	andeq	fp, r2, r1, lsl #8
    10e4:	00032d00 	andeq	r2, r3, r0, lsl #26
    10e8:	008adc00 	addeq	sp, sl, r0, lsl #24
    10ec:	00005800 	andeq	r5, r0, r0, lsl #16
    10f0:	00037e00 	andeq	r7, r3, r0, lsl #28
    10f4:	02a50200 	adceq	r0, r5, #0, 4
    10f8:	28020000 	stmdacs	r2, {}	; <UNPREDICTABLE>
    10fc:	00000030 	andeq	r0, r0, r0, lsr r0
    1100:	00032303 	andeq	r2, r3, r3, lsl #6
    1104:	00030400 	andeq	r0, r3, r0, lsl #8
    1108:	00000047 	andeq	r0, r0, r7, asr #32
    110c:	00037604 	andeq	r7, r3, r4, lsl #12
    1110:	00004700 	andeq	r4, r0, r0, lsl #14
    1114:	05000000 	streq	r0, [r0, #-0]
    1118:	03250204 	teqeq	r5, #4, 4	; 0x40000000
    111c:	62020000 	andvs	r0, r2, #0
    1120:	00000025 	andeq	r0, r0, r5, lsr #32
    1124:	69050406 	stmdbvs	r5, {r1, r2, sl}
    1128:	0700746e 	streq	r7, [r0, -lr, ror #8]
    112c:	003e0704 	eorseq	r0, lr, r4, lsl #14
    1130:	01070000 	mrseq	r0, (UNDEF: 7)
    1134:	0001b906 	andeq	fp, r1, r6, lsl #18
    1138:	05020700 	streq	r0, [r2, #-1792]	; 0x700
    113c:	000001c5 	andeq	r0, r0, r5, asr #3
    1140:	61050407 	tstvs	r5, r7, lsl #8
    1144:	07000000 	streq	r0, [r0, -r0]
    1148:	005c0508 	subseq	r0, ip, r8, lsl #10
    114c:	01070000 	mrseq	r0, (UNDEF: 7)
    1150:	0001b708 	andeq	fp, r1, r8, lsl #14
    1154:	07020700 	streq	r0, [r2, -r0, lsl #14]
    1158:	00000165 	andeq	r0, r0, r5, ror #2
    115c:	39070407 	stmdbcc	r7, {r0, r1, r2, sl}
    1160:	07000000 	streq	r0, [r0, -r0]
    1164:	00340708 	eorseq	r0, r4, r8, lsl #14
    1168:	04070000 	streq	r0, [r7], #-0
    116c:	00019707 	andeq	r9, r1, r7, lsl #14
    1170:	a7040800 	strge	r0, [r4, -r0, lsl #16]
    1174:	07000000 	streq	r0, [r0, -r0]
    1178:	01c00801 	biceq	r0, r0, r1, lsl #16
    117c:	04080000 	streq	r0, [r8], #-0
    1180:	000000b4 	strheq	r0, [r0], -r4
    1184:	0000a709 	andeq	sl, r0, r9, lsl #14
    1188:	031c0a00 	tsteq	ip, #0, 20
    118c:	06010000 	streq	r0, [r1], -r0
    1190:	00000054 	andeq	r0, r0, r4, asr r0
    1194:	00008adc 	ldrdeq	r8, [r0], -ip
    1198:	00000058 	andeq	r0, r0, r8, asr r0
    119c:	01439c01 	cmpeq	r3, r1, lsl #24
    11a0:	660b0000 	strvs	r0, [fp], -r0
    11a4:	0100746d 	tsteq	r0, sp, ror #8
    11a8:	0000ae06 	andeq	sl, r0, r6, lsl #28
    11ac:	70910200 	addsvc	r0, r1, r0, lsl #4
    11b0:	75620d0c 	strbvc	r0, [r2, #-3340]!	; 0xd0c
    11b4:	08010066 	stmdaeq	r1, {r1, r2, r5, r6}
    11b8:	00000143 	andeq	r0, r0, r3, asr #2
    11bc:	9bc40305 	blls	ff101dd8 <__bss_end__+0xff0f7e10>
    11c0:	710e0000 	mrsvc	r0, (UNDEF: 14)
    11c4:	01000003 	tsteq	r0, r3
    11c8:	00004909 	andeq	r4, r0, r9, lsl #18
    11cc:	5c910200 	lfmpl	f0, 4, [r1], {0}
    11d0:	007a730f 	rsbseq	r7, sl, pc, lsl #6
    11d4:	00540c01 	subseq	r0, r4, r1, lsl #24
    11d8:	0e750000 	cdpeq	0, 7, cr0, cr5, cr0, {0}
    11dc:	04100000 	ldreq	r0, [r0], #-0
    11e0:	7400008b 	strvc	r0, [r0], #-139	; 0x8b
    11e4:	36000001 	strcc	r0, [r0], -r1
    11e8:	11000001 	tstne	r0, r1
    11ec:	91025301 	tstls	r2, r1, lsl #6
    11f0:	5201114c 	andpl	r1, r1, #76, 2
    11f4:	06489103 	strbeq	r9, [r8], -r3, lsl #2
    11f8:	03510111 	cmpeq	r1, #1073741828	; 0x40000004
    11fc:	1104000a 	tstne	r4, sl
    1200:	74025001 	strvc	r5, [r2], #-1
    1204:	18120000 	ldmdane	r2, {}	; <UNPREDICTABLE>
    1208:	1100008b 	smlabbne	r0, fp, r0, r0
    120c:	74025001 	strvc	r5, [r2], #-1
    1210:	13000000 	movwne	r0, #0
    1214:	000000a7 	andeq	r0, r0, r7, lsr #1
    1218:	00000154 	andeq	r0, r0, r4, asr r1
    121c:	00009a14 	andeq	r9, r0, r4, lsl sl
    1220:	0003ff00 	andeq	pc, r3, r0, lsl #30
    1224:	00005415 	andeq	r5, r0, r5, lsl r4
    1228:	00016300 	andeq	r6, r1, r0, lsl #6
    122c:	00ae1600 	adceq	r1, lr, r0, lsl #12
    1230:	17000000 	strne	r0, [r0, -r0]
    1234:	000003d3 	ldrdeq	r0, [r0], -r3
    1238:	016e2204 	cmneq	lr, r4, lsl #4
    123c:	04080000 	streq	r0, [r8], #-0
    1240:	00000154 	andeq	r0, r0, r4, asr r1
    1244:	00031918 	andeq	r1, r3, r8, lsl r9
    1248:	54020500 	strpl	r0, [r2], #-1280	; 0x500
    124c:	16000000 	strne	r0, [r0], -r0
    1250:	000000a1 	andeq	r0, r0, r1, lsr #1
    1254:	00005416 	andeq	r5, r0, r6, lsl r4
    1258:	00ae1600 	adceq	r1, lr, r0, lsl #12
    125c:	49160000 	ldmdbmi	r6, {}	; <UNPREDICTABLE>
    1260:	00000000 	andeq	r0, r0, r0
    1264:	00011300 	andeq	r1, r1, r0, lsl #6
    1268:	fe000400 	cdp2	4, 0, cr0, cr0, cr0, {0}
    126c:	04000003 	streq	r0, [r0], #-3
    1270:	0002c201 	andeq	ip, r2, r1, lsl #4
    1274:	03a20100 			; <UNDEFINED> instruction: 0x03a20100
    1278:	032d0000 	teqeq	sp, #0
    127c:	8b340000 	blhi	d01284 <__bss_end__+0xcf72bc>
    1280:	003c0000 	eorseq	r0, ip, r0
    1284:	04840000 	streq	r0, [r4], #0
    1288:	04020000 	streq	r0, [r2], #-0
    128c:	746e6905 	strbtvc	r6, [lr], #-2309	; 0x905
    1290:	07040300 	streq	r0, [r4, -r0, lsl #6]
    1294:	0000003e 	andeq	r0, r0, lr, lsr r0
    1298:	b9060103 	stmdblt	r6, {r0, r1, r8}
    129c:	03000001 	movweq	r0, #1
    12a0:	01c50502 	biceq	r0, r5, r2, lsl #10
    12a4:	04030000 	streq	r0, [r3], #-0
    12a8:	00006105 	andeq	r6, r0, r5, lsl #2
    12ac:	05080300 	streq	r0, [r8, #-768]	; 0x300
    12b0:	0000005c 	andeq	r0, r0, ip, asr r0
    12b4:	b7080103 	strlt	r0, [r8, -r3, lsl #2]
    12b8:	03000001 	movweq	r0, #1
    12bc:	01650702 	cmneq	r5, r2, lsl #14
    12c0:	04030000 	streq	r0, [r3], #-0
    12c4:	00003907 	andeq	r3, r0, r7, lsl #18
    12c8:	07080300 	streq	r0, [r8, -r0, lsl #6]
    12cc:	00000034 	andeq	r0, r0, r4, lsr r0
    12d0:	97070403 	strls	r0, [r7, -r3, lsl #8]
    12d4:	03000001 	movweq	r0, #1
    12d8:	01c00801 	biceq	r0, r0, r1, lsl #16
    12dc:	85040000 	strhi	r0, [r4, #-0]
    12e0:	01000003 	tsteq	r0, r3
    12e4:	00002503 	andeq	r2, r0, r3, lsl #10
    12e8:	008b3400 	addeq	r3, fp, r0, lsl #8
    12ec:	00001400 	andeq	r1, r0, r0, lsl #8
    12f0:	b09c0100 	addslt	r0, ip, r0, lsl #2
    12f4:	05000000 	streq	r0, [r0, #-0]
    12f8:	03010063 	movweq	r0, #4195	; 0x1063
    12fc:	00000025 	andeq	r0, r0, r5, lsr #32
    1300:	00000e9e 	muleq	r0, lr, lr
    1304:	008b4006 	addeq	r4, fp, r6
    1308:	00010900 	andeq	r0, r1, r0, lsl #18
    130c:	50010700 	andpl	r0, r1, r0, lsl #14
    1310:	00007402 	andeq	r7, r0, r2, lsl #8
    1314:	01160800 	tsteq	r6, r0, lsl #16
    1318:	08010000 	stmdaeq	r1, {}	; <UNPREDICTABLE>
    131c:	00008b48 	andeq	r8, r0, r8, asr #22
    1320:	00000018 	andeq	r0, r0, r8, lsl r0
    1324:	b1099c01 	tstlt	r9, r1, lsl #24
    1328:	01000003 	tsteq	r0, r3
    132c:	008b600b 	addeq	r6, fp, fp
    1330:	00001000 	andeq	r1, r0, r0
    1334:	e39c0100 	orrs	r0, ip, #0, 2
    1338:	0a000000 	beq	1340 <_start-0x6cc0>
    133c:	01007066 	tsteq	r0, r6, rrx
    1340:	0000f20b 	andeq	pc, r0, fp, lsl #4
    1344:	00500100 	subseq	r0, r0, r0, lsl #2
    1348:	0000250b 	andeq	r2, r0, fp, lsl #10
    134c:	0000f200 	andeq	pc, r0, r0, lsl #4
    1350:	00250c00 	eoreq	r0, r5, r0, lsl #24
    1354:	0d000000 	stceq	0, cr0, [r0, #-0]
    1358:	0000e304 	andeq	lr, r0, r4, lsl #6
    135c:	03960e00 	orrseq	r0, r6, #0, 28
    1360:	06010000 	streq	r0, [r1], -r0
    1364:	000000f2 	strdeq	r0, [r0], -r2
    1368:	996c0305 	stmdbls	ip!, {r0, r2, r8, r9}^
    136c:	7b0f0000 	blvc	3c1374 <__bss_end__+0x3b73ac>
    1370:	02000003 	andeq	r0, r0, #3
    1374:	002c0c3c 	eoreq	r0, ip, ip, lsr ip
    1378:	00000000 	andeq	r0, r0, r0
    137c:	000000ee 	andeq	r0, r0, lr, ror #1
    1380:	04e60004 	strbteq	r0, [r6], #4
    1384:	01040000 	mrseq	r0, (UNDEF: 4)
    1388:	000002c2 	andeq	r0, r0, r2, asr #5
    138c:	0003be01 	andeq	fp, r3, r1, lsl #28
    1390:	00032d00 	andeq	r2, r3, r0, lsl #26
    1394:	008b7000 	addeq	r7, fp, r0
    1398:	00003400 	andeq	r3, r0, r0, lsl #8
    139c:	00051200 	andeq	r1, r5, r0, lsl #4
    13a0:	05040200 	streq	r0, [r4, #-512]	; 0x200
    13a4:	00746e69 	rsbseq	r6, r4, r9, ror #28
    13a8:	3e070403 	cdpcc	4, 0, cr0, cr7, cr3, {0}
    13ac:	03000000 	movweq	r0, #0
    13b0:	01b90601 			; <UNDEFINED> instruction: 0x01b90601
    13b4:	02030000 	andeq	r0, r3, #0
    13b8:	0001c505 	andeq	ip, r1, r5, lsl #10
    13bc:	05040300 	streq	r0, [r4, #-768]	; 0x300
    13c0:	00000061 	andeq	r0, r0, r1, rrx
    13c4:	5c050803 	stcpl	8, cr0, [r5], {3}
    13c8:	03000000 	movweq	r0, #0
    13cc:	01b70801 			; <UNDEFINED> instruction: 0x01b70801
    13d0:	02030000 	andeq	r0, r3, #0
    13d4:	00016507 	andeq	r6, r1, r7, lsl #10
    13d8:	07040300 	streq	r0, [r4, -r0, lsl #6]
    13dc:	00000039 	andeq	r0, r0, r9, lsr r0
    13e0:	34070803 	strcc	r0, [r7], #-2051	; 0x803
    13e4:	03000000 	movweq	r0, #0
    13e8:	01970704 	orrseq	r0, r7, r4, lsl #14
    13ec:	01030000 	mrseq	r0, (UNDEF: 3)
    13f0:	0001c008 	andeq	ip, r1, r8
    13f4:	7f040400 	svcvc	0x00040400
    13f8:	05000000 	streq	r0, [r0, #-0]
    13fc:	00000072 	andeq	r0, r0, r2, ror r0
    1400:	0003ca06 	andeq	ip, r3, r6, lsl #20
    1404:	25040100 	strcs	r0, [r4, #-256]	; 0x100
    1408:	70000000 	andvc	r0, r0, r0
    140c:	3400008b 	strcc	r0, [r0], #-139	; 0x8b
    1410:	01000000 	mrseq	r0, (UNDEF: 0)
    1414:	0000ab9c 	muleq	r0, ip, fp
    1418:	00700700 	rsbseq	r0, r0, r0, lsl #14
    141c:	00790401 	rsbseq	r0, r9, r1, lsl #8
    1420:	0ebc0000 	cdpeq	0, 11, cr0, cr12, cr0, {0}
    1424:	08000000 	stmdaeq	r0, {}	; <UNPREDICTABLE>
    1428:	00000025 	andeq	r0, r0, r5, lsr #32
    142c:	000000ba 	strheq	r0, [r0], -sl
    1430:	00002509 	andeq	r2, r0, r9, lsl #10
    1434:	960a0000 	strls	r0, [sl], -r0
    1438:	02000003 	andeq	r0, r0, #3
    143c:	0000c51d 	andeq	ip, r0, sp, lsl r5
    1440:	ab040400 	blge	102448 <__bss_end__+0xf8480>
    1444:	08000000 	stmdaeq	r0, {}	; <UNPREDICTABLE>
    1448:	00000025 	andeq	r0, r0, r5, lsr #32
    144c:	000000da 	ldrdeq	r0, [r0], -sl
    1450:	00007909 	andeq	r7, r0, r9, lsl #18
    1454:	d30b0000 	movwle	r0, #45056	; 0xb000
    1458:	01000003 	tsteq	r0, r3
    145c:	0000eb0c 	andeq	lr, r0, ip, lsl #22
    1460:	70030500 	andvc	r0, r3, r0, lsl #10
    1464:	04000099 	streq	r0, [r0], #-153	; 0x99
    1468:	0000cb04 	andeq	ip, r0, r4, lsl #22
    146c:	06810000 	streq	r0, [r1], r0
    1470:	00040000 	andeq	r0, r4, r0
    1474:	0000057f 	andeq	r0, r0, pc, ror r5
    1478:	02c20104 	sbceq	r0, r2, #4, 2
    147c:	04010000 	streq	r0, [r1], #-0
    1480:	2d000004 	stccs	0, cr0, [r0, #-16]
    1484:	a4000003 	strge	r0, [r0], #-3
    1488:	f800008b 			; <UNDEFINED> instruction: 0xf800008b
    148c:	ac000004 	stcge	0, cr0, [r0], {4}
    1490:	02000005 	andeq	r0, r0, #5
    1494:	6e690504 	cdpvs	5, 6, cr0, cr9, cr4, {0}
    1498:	04030074 	streq	r0, [r3], #-116	; 0x74
    149c:	00003e07 	andeq	r3, r0, r7, lsl #28
    14a0:	06010300 	streq	r0, [r1], -r0, lsl #6
    14a4:	000001b9 			; <UNDEFINED> instruction: 0x000001b9
    14a8:	c5050203 	strgt	r0, [r5, #-515]	; 0x203
    14ac:	03000001 	movweq	r0, #1
    14b0:	00610504 	rsbeq	r0, r1, r4, lsl #10
    14b4:	08030000 	stmdaeq	r3, {}	; <UNPREDICTABLE>
    14b8:	00005c05 	andeq	r5, r0, r5, lsl #24
    14bc:	08010300 	stmdaeq	r1, {r8, r9}
    14c0:	000001b7 			; <UNDEFINED> instruction: 0x000001b7
    14c4:	65070203 	strvs	r0, [r7, #-515]	; 0x203
    14c8:	03000001 	movweq	r0, #1
    14cc:	00390704 	eorseq	r0, r9, r4, lsl #14
    14d0:	08030000 	stmdaeq	r3, {}	; <UNPREDICTABLE>
    14d4:	00003407 	andeq	r3, r0, r7, lsl #8
    14d8:	07040300 	streq	r0, [r4, -r0, lsl #6]
    14dc:	00000197 	muleq	r0, r7, r1
    14e0:	04050404 	streq	r0, [r5], #-1028	; 0x404
    14e4:	0000007a 	andeq	r0, r0, sl, ror r0
    14e8:	c0080103 	andgt	r0, r8, r3, lsl #2
    14ec:	05000001 	streq	r0, [r0, #-1]
    14f0:	00008704 	andeq	r8, r0, r4, lsl #14
    14f4:	007a0600 	rsbseq	r0, sl, r0, lsl #12
    14f8:	a5070000 	strge	r0, [r7, #-0]
    14fc:	02000002 	andeq	r0, r0, #2
    1500:	00009728 	andeq	r9, r0, r8, lsr #14
    1504:	03230800 	teqeq	r3, #0, 16
    1508:	04040000 	streq	r0, [r4], #-0
    150c:	0000ae00 	andeq	sl, r0, r0, lsl #28
    1510:	03760900 	cmneq	r6, #0, 18
    1514:	00720000 	rsbseq	r0, r2, r0
    1518:	00000000 	andeq	r0, r0, r0
    151c:	00032507 	andeq	r2, r3, r7, lsl #10
    1520:	8c620200 	sfmhi	f0, 2, [r2], #-0
    1524:	0a000000 	beq	152c <_start-0x6ad4>
    1528:	000003e6 	andeq	r0, r0, r6, ror #7
    152c:	00252701 	eoreq	r2, r5, r1, lsl #14
    1530:	8ba40000 	blhi	fe901538 <__bss_end__+0xfe8f7570>
    1534:	00140000 	andseq	r0, r4, r0
    1538:	9c010000 	stcls	0, cr0, [r1], {-0}
    153c:	000000e0 	andeq	r0, r0, r0, ror #1
    1540:	0100630b 	tsteq	r0, fp, lsl #6
    1544:	00002527 	andeq	r2, r0, r7, lsr #10
    1548:	000eda00 	andeq	sp, lr, r0, lsl #20
    154c:	700c0000 	andvc	r0, ip, r0
    1550:	01006461 	tsteq	r0, r1, ror #8
    1554:	0000742e 	andeq	r7, r0, lr, lsr #8
    1558:	008bb800 	addeq	fp, fp, r0, lsl #16
    155c:	00002c00 	andeq	r2, r0, r0, lsl #24
    1560:	309c0100 	addscc	r0, ip, r0, lsl #2
    1564:	0b000001 	bleq	1570 <_start-0x6a90>
    1568:	2e010070 	mcrcs	0, 0, r0, cr1, cr0, {3}
    156c:	00000074 	andeq	r0, r0, r4, ror r0
    1570:	00000f08 	andeq	r0, r0, r8, lsl #30
    1574:	0003f60d 	andeq	pc, r3, sp, lsl #12
    1578:	742e0100 	strtvc	r0, [lr], #-256	; 0x100
    157c:	33000000 	movwcc	r0, #0
    1580:	0e00000f 	cdpeq	0, 0, cr0, cr0, cr15, {0}
    1584:	00000424 	andeq	r0, r0, r4, lsr #8
    1588:	00252e01 	eoreq	r2, r5, r1, lsl #28
    158c:	52010000 	andpl	r0, r1, #0
    1590:	6e656c0f 	cdpvs	12, 6, cr6, cr5, cr15, {0}
    1594:	252f0100 	strcs	r0, [pc, #-256]!	; 149c <_start-0x6b64>
    1598:	01000000 	mrseq	r0, (UNDEF: 0)
    159c:	de0a0051 	mcrle	0, 0, r0, cr10, cr1, {2}
    15a0:	01000003 	tsteq	r0, r3
    15a4:	00007437 	andeq	r7, r0, r7, lsr r4
    15a8:	008be400 	addeq	lr, fp, r0, lsl #8
    15ac:	00004000 	andeq	r4, r0, r0
    15b0:	9c9c0100 	ldflss	f0, [ip], {0}
    15b4:	0b000001 	bleq	15c0 <_start-0x6a40>
    15b8:	00747364 	rsbseq	r7, r4, r4, ror #6
    15bc:	00743701 	rsbseq	r3, r4, r1, lsl #14
    15c0:	0f540000 	svceq	0x00540000
    15c4:	6e0b0000 	cdpvs	0, 0, cr0, cr11, cr0, {0}
    15c8:	25370100 	ldrcs	r0, [r7, #-256]!	; 0x100
    15cc:	8c000000 	stchi	0, cr0, [r0], {-0}
    15d0:	0b00000f 	bleq	1614 <_start-0x69ec>
    15d4:	37010070 	smlsdxcc	r1, r0, r0, r0
    15d8:	00000074 	andeq	r0, r0, r4, ror r0
    15dc:	00000fad 	andeq	r0, r0, sp, lsr #31
    15e0:	0004b50d 	andeq	fp, r4, sp, lsl #10
    15e4:	74370100 	ldrtvc	r0, [r7], #-256	; 0x100
    15e8:	e3000000 	movw	r0, #0
    15ec:	1000000f 	andne	r0, r0, pc
    15f0:	006e656c 	rsbeq	r6, lr, ip, ror #10
    15f4:	00253901 	eoreq	r3, r5, r1, lsl #18
    15f8:	10010000 	andne	r0, r1, r0
    15fc:	730f0000 	movwvc	r0, #61440	; 0xf000
    1600:	743d0100 	ldrtvc	r0, [sp], #-256	; 0x100
    1604:	01000000 	mrseq	r0, (UNDEF: 0)
    1608:	320a0050 	andcc	r0, sl, #80	; 0x50
    160c:	01000004 	tsteq	r0, r4
    1610:	00007447 	andeq	r7, r0, r7, asr #8
    1614:	008c2400 	addeq	r2, ip, r0, lsl #8
    1618:	00019c00 	andeq	r9, r1, r0, lsl #24
    161c:	d39c0100 	orrsle	r0, ip, #0, 2
    1620:	0d000002 	stceq	0, cr0, [r0, #-8]
    1624:	000003f6 	strdeq	r0, [r0], -r6
    1628:	002c4701 	eoreq	r4, ip, r1, lsl #14
    162c:	10280000 	eorne	r0, r8, r0
    1630:	640b0000 	strvs	r0, [fp], #-0
    1634:	01007473 	tsteq	r0, r3, ror r4
    1638:	00007447 	andeq	r7, r0, r7, asr #8
    163c:	00105600 	andseq	r5, r0, r0, lsl #12
    1640:	006e0b00 	rsbeq	r0, lr, r0, lsl #22
    1644:	00254701 	eoreq	r4, r5, r1, lsl #14
    1648:	10c40000 	sbcne	r0, r4, r0
    164c:	760b0000 	strvc	r0, [fp], -r0
    1650:	01006c61 	tsteq	r0, r1, ror #24
    1654:	00002547 	andeq	r2, r0, r7, asr #10
    1658:	0010f000 	andseq	pc, r0, r0
    165c:	04240d00 	strteq	r0, [r4], #-3328	; 0xd00
    1660:	47010000 	strmi	r0, [r1, -r0]
    1664:	00000025 	andeq	r0, r0, r5, lsr #32
    1668:	0000116f 	andeq	r1, r0, pc, ror #2
    166c:	0003fb0e 	andeq	pc, r3, lr, lsl #22
    1670:	25470100 	strbcs	r0, [r7, #-256]	; 0x100
    1674:	02000000 	andeq	r0, r0, #0
    1678:	620f0491 	andvs	r0, pc, #-1862270976	; 0x91000000
    167c:	01006675 	tsteq	r0, r5, ror r6
    1680:	0002d34c 	andeq	sp, r2, ip, asr #6
    1684:	a8910300 	ldmge	r1, {r8, r9}
    1688:	0070107f 	rsbseq	r1, r0, pc, ror r0
    168c:	00744c01 	rsbseq	r4, r4, r1, lsl #24
    1690:	11990000 	orrsne	r0, r9, r0
    1694:	75100000 	ldrvc	r0, [r0, #-0]
    1698:	2c4d0100 	stfcse	f0, [sp], {-0}
    169c:	3e000000 	cdpcc	0, 0, cr0, cr0, cr0, {0}
    16a0:	11000012 	tstne	r0, r2, lsl r0
    16a4:	00000158 	andeq	r0, r0, r8, asr r1
    16a8:	000002f3 	strdeq	r0, [r0], -r3
    16ac:	9aa40305 	bls	fe9022c8 <__bss_end__+0xfe8f8300>
    16b0:	90120000 	andsls	r0, r2, r0
    16b4:	7400008c 	strvc	r0, [r0], #-140	; 0x8c
    16b8:	61000000 	mrsvs	r0, (UNDEF: 0)
    16bc:	13000002 	movwne	r0, #2
    16c0:	000003d8 	ldrdeq	r0, [r0], -r8
    16c4:	002c5201 	eoreq	r5, ip, r1, lsl #4
    16c8:	13430000 	movtne	r0, #12288	; 0x3000
    16cc:	14000000 	strne	r0, [r0], #-0
    16d0:	00008d64 	andeq	r8, r0, r4, ror #26
    16d4:	00000660 	andeq	r0, r0, r0, ror #12
    16d8:	008d7815 	addeq	r7, sp, r5, lsl r8
    16dc:	00066700 	andeq	r6, r6, r0, lsl #14
    16e0:	00029900 	andeq	r9, r2, r0, lsl #18
    16e4:	53011600 	movwpl	r1, #5632	; 0x1600
    16e8:	16750802 	ldrbtne	r0, [r5], -r2, lsl #16
    16ec:	03055201 	movweq	r5, #20993	; 0x5201
    16f0:	00009aa4 	andeq	r9, r0, r4, lsr #21
    16f4:	05510116 	ldrbeq	r0, [r1, #-278]	; 0x116
    16f8:	009adc03 	addseq	sp, sl, r3, lsl #24
    16fc:	50011600 	andpl	r1, r1, r0, lsl #12
    1700:	9ac80305 	bls	ff20231c <__bss_end__+0xff1f8354>
    1704:	14000000 	strne	r0, [r0], #-0
    1708:	00008d7c 	andeq	r8, r0, ip, ror sp
    170c:	0000067d 	andeq	r0, r0, sp, ror r6
    1710:	008d8815 	addeq	r8, sp, r5, lsl r8
    1714:	0000e000 	andeq	lr, r0, r0
    1718:	0002b600 	andeq	fp, r2, r0, lsl #12
    171c:	51011600 	tstpl	r1, r0, lsl #12
    1720:	00007d02 	andeq	r7, r0, r2, lsl #26
    1724:	008d9c17 	addeq	r9, sp, r7, lsl ip
    1728:	00013000 	andeq	r3, r1, r0
    172c:	53011600 	movwpl	r1, #5632	; 0x1600
    1730:	16007d02 	strne	r7, [r0], -r2, lsl #26
    1734:	74025101 	strvc	r5, [r2], #-257	; 0x101
    1738:	50011600 	andpl	r1, r1, r0, lsl #12
    173c:	00007502 	andeq	r7, r0, r2, lsl #10
    1740:	007a1800 	rsbseq	r1, sl, r0, lsl #16
    1744:	02e30000 	rsceq	r0, r3, #0
    1748:	6b190000 	blvs	641750 <__bss_end__+0x637788>
    174c:	3f000000 	svccc	0x00000000
    1750:	007a1800 	rsbseq	r1, sl, r0, lsl #16
    1754:	02f30000 	rscseq	r0, r3, #0
    1758:	6b190000 	blvs	641760 <__bss_end__+0x637798>
    175c:	04000000 	streq	r0, [r0], #-0
    1760:	02e30600 	rsceq	r0, r3, #0, 12
    1764:	151a0000 	ldrne	r0, [sl, #-0]
    1768:	01000004 	tsteq	r0, r4
    176c:	008dc01f 	addeq	ip, sp, pc, lsl r0
    1770:	00005400 	andeq	r5, r0, r0, lsl #8
    1774:	7c9c0100 	ldfvcs	f0, [ip], {0}
    1778:	0d000003 	stceq	0, cr0, [r0, #-12]
    177c:	0000042a 	andeq	r0, r0, sl, lsr #8
    1780:	038b1f01 	orreq	r1, fp, #1, 30
    1784:	136f0000 	cmnne	pc, #0
    1788:	ee0d0000 	cdp	0, 0, cr0, cr13, cr0, {0}
    178c:	01000003 	tsteq	r0, r3
    1790:	0003a01f 	andeq	sl, r3, pc, lsl r0
    1794:	00139b00 	andseq	r9, r3, r0, lsl #22
    1798:	01581100 	cmpeq	r8, r0, lsl #2
    179c:	03b60000 			; <UNDEFINED> instruction: 0x03b60000
    17a0:	03050000 	movweq	r0, #20480	; 0x5000
    17a4:	00009aac 	andeq	r9, r0, ip, lsr #21
    17a8:	008dd014 	addeq	sp, sp, r4, lsl r0
    17ac:	00066000 	andeq	r6, r6, r0
    17b0:	8de41500 	cfstr64hi	mvdx1, [r4]
    17b4:	06670000 	strbteq	r0, [r7], -r0
    17b8:	03720000 	cmneq	r2, #0
    17bc:	01160000 	tsteq	r6, r0
    17c0:	20080253 	andcs	r0, r8, r3, asr r2
    17c4:	05520116 	ldrbeq	r0, [r2, #-278]	; 0x116
    17c8:	009aac03 	addseq	sl, sl, r3, lsl #24
    17cc:	51011600 	tstpl	r1, r0, lsl #12
    17d0:	9adc0305 	bls	ff7023ec <__bss_end__+0xff6f8424>
    17d4:	01160000 	tsteq	r6, r0
    17d8:	14030550 	strne	r0, [r3], #-1360	; 0x550
    17dc:	0000009b 	muleq	r0, fp, r0
    17e0:	008de814 	addeq	lr, sp, r4, lsl r8
    17e4:	00067d00 	andeq	r7, r6, r0, lsl #26
    17e8:	251b0000 	ldrcs	r0, [fp, #-0]
    17ec:	8b000000 	blhi	17f4 <_start-0x680c>
    17f0:	1c000003 	stcne	0, cr0, [r0], {3}
    17f4:	00000025 	andeq	r0, r0, r5, lsr #32
    17f8:	7c040500 	cfstr32vc	mvfx0, [r4], {-0}
    17fc:	1b000003 	blne	1810 <_start-0x67f0>
    1800:	00000025 	andeq	r0, r0, r5, lsr #32
    1804:	000003a0 	andeq	r0, r0, r0, lsr #7
    1808:	0000811c 	andeq	r8, r0, ip, lsl r1
    180c:	04050000 	streq	r0, [r5], #-0
    1810:	00000391 	muleq	r0, r1, r3
    1814:	00007a18 	andeq	r7, r0, r8, lsl sl
    1818:	0003b600 	andeq	fp, r3, r0, lsl #12
    181c:	006b1900 	rsbeq	r1, fp, r0, lsl #18
    1820:	000e0000 	andeq	r0, lr, r0
    1824:	0003a606 	andeq	sl, r3, r6, lsl #12
    1828:	03191d00 	tsteq	r9, #0, 26
    182c:	7d010000 	stcvc	0, cr0, [r1, #-0]
    1830:	00000025 	andeq	r0, r0, r5, lsr #32
    1834:	00008e14 	andeq	r8, r0, r4, lsl lr
    1838:	00000288 	andeq	r0, r0, r8, lsl #5
    183c:	06259c01 	strteq	r9, [r5], -r1, lsl #24
    1840:	620b0000 	andvs	r0, fp, #0
    1844:	01006675 	tsteq	r0, r5, ror r6
    1848:	0000747d 	andeq	r7, r0, sp, ror r4
    184c:	0013c700 	andseq	ip, r3, r0, lsl #14
    1850:	006e0b00 	rsbeq	r0, lr, r0, lsl #22
    1854:	00257d01 	eoreq	r7, r5, r1, lsl #26
    1858:	13f30000 	mvnsne	r0, #0
    185c:	660b0000 	strvs	r0, [fp], -r0
    1860:	0100746d 	tsteq	r0, sp, ror #8
    1864:	0000817d 	andeq	r8, r0, sp, ror r1
    1868:	00142100 	andseq	r2, r4, r0, lsl #2
    186c:	03710d00 	cmneq	r1, #0, 26
    1870:	7d010000 	stcvc	0, cr0, [r1, #-0]
    1874:	000000ae 	andeq	r0, r0, lr, lsr #1
    1878:	00001455 	andeq	r1, r0, r5, asr r4
    187c:	01007010 	tsteq	r0, r0, lsl r0
    1880:	0000747e 	andeq	r7, r0, lr, ror r4
    1884:	00146800 	andseq	r6, r4, r0, lsl #16
    1888:	00651000 	rsbeq	r1, r5, r0
    188c:	00747e01 	rsbseq	r7, r4, r1, lsl #28
    1890:	14e60000 	strbtne	r0, [r6], #0
    1894:	58110000 	ldmdapl	r1, {}	; <UNPREDICTABLE>
    1898:	35000001 	strcc	r0, [r0, #-1]
    189c:	05000006 	streq	r0, [r0, #-6]
    18a0:	009abc03 	addseq	fp, sl, r3, lsl #24
    18a4:	03781e00 	cmneq	r8, #0, 28
    18a8:	73100000 	tstvc	r0, #0
    18ac:	748b0100 	strvc	r0, [fp], #256	; 0x100
    18b0:	0d000000 	stceq	0, cr0, [r0, #-0]
    18b4:	0f000015 	svceq	0x00000015
    18b8:	006d756e 	rsbeq	r7, sp, lr, ror #10
    18bc:	063a8b01 	ldrteq	r8, [sl], -r1, lsl #22
    18c0:	91030000 	mrsls	r0, (UNDEF: 3)
    18c4:	24137ed8 	ldrcs	r7, [r3], #-3800	; 0xed8
    18c8:	01000004 	tsteq	r0, r4
    18cc:	00002c8c 	andeq	r2, r0, ip, lsl #25
    18d0:	00156200 	andseq	r6, r5, r0, lsl #4
    18d4:	8e981500 	cdphi	5, 9, cr1, cr8, cr0, {0}
    18d8:	00b90000 	adcseq	r0, r9, r0
    18dc:	047b0000 	ldrbteq	r0, [fp], #-0
    18e0:	01160000 	tsteq	r6, r0
    18e4:	00750250 	rsbseq	r0, r5, r0, asr r2
    18e8:	8eac1400 	cdphi	4, 10, cr1, cr12, cr0, {0}
    18ec:	06600000 	strbteq	r0, [r0], -r0
    18f0:	c0150000 	andsgt	r0, r5, r0
    18f4:	6700008e 	strvs	r0, [r0, -lr, lsl #1]
    18f8:	b3000006 	movwlt	r0, #6
    18fc:	16000004 	strne	r0, [r0], -r4
    1900:	08025301 	stmdaeq	r2, {r0, r8, r9, ip, lr}
    1904:	52011692 	andpl	r1, r1, #153092096	; 0x9200000
    1908:	9abc0305 	bls	fef02524 <__bss_end__+0xfeef855c>
    190c:	01160000 	tsteq	r6, r0
    1910:	dc030551 	cfstr32le	mvfx0, [r3], {81}	; 0x51
    1914:	1600009a 			; <UNDEFINED> instruction: 0x1600009a
    1918:	03055001 	movweq	r5, #20481	; 0x5001
    191c:	00009b2c 	andeq	r9, r0, ip, lsr #22
    1920:	8ec41400 	cdphi	4, 12, cr1, cr4, cr0, {0}
    1924:	067d0000 	ldrbteq	r0, [sp], -r0
    1928:	34140000 	ldrcc	r0, [r4], #-0
    192c:	6000008f 	andvs	r0, r0, pc, lsl #1
    1930:	15000006 	strne	r0, [r0, #-6]
    1934:	00008f48 	andeq	r8, r0, r8, asr #30
    1938:	00000667 	andeq	r0, r0, r7, ror #12
    193c:	000004f4 	strdeq	r0, [r0], -r4
    1940:	02530116 	subseq	r0, r3, #-2147483643	; 0x80000005
    1944:	01169808 	tsteq	r6, r8, lsl #16
    1948:	bc030552 	cfstr32lt	mvfx0, [r3], {82}	; 0x52
    194c:	1600009a 			; <UNDEFINED> instruction: 0x1600009a
    1950:	03055101 	movweq	r5, #20737	; 0x5101
    1954:	00009adc 	ldrdeq	r9, [r0], -ip
    1958:	05500116 	ldrbeq	r0, [r0, #-278]	; 0x116
    195c:	009b4803 	addseq	r4, fp, r3, lsl #16
    1960:	4c140000 	ldcmi	0, cr0, [r4], {-0}
    1964:	7d00008f 	stcvc	0, cr0, [r0, #-572]	; 0xfffffdc4
    1968:	15000006 	strne	r0, [r0, #-6]
    196c:	00008f70 	andeq	r8, r0, r0, ror pc
    1970:	0000019c 	muleq	r0, ip, r1
    1974:	0000052a 	andeq	r0, r0, sl, lsr #10
    1978:	02520116 	subseq	r0, r2, #-2147483643	; 0x80000005
    197c:	01168008 	tsteq	r6, r8
    1980:	d0910351 	addsle	r0, r1, r1, asr r3
    1984:	5001167e 	andpl	r1, r1, lr, ror r6
    1988:	02163a01 	andseq	r3, r6, #4096	; 0x1000
    198c:	3101047d 	tstcc	r1, sp, ror r4
    1990:	007d0216 	rsbseq	r0, sp, r6, lsl r2
    1994:	00007702 	andeq	r7, r0, r2, lsl #14
    1998:	008f9415 	addeq	r9, pc, r5, lsl r4	; <UNPREDICTABLE>
    199c:	00019c00 	andeq	r9, r1, r0, lsl #24
    19a0:	00055800 	andeq	r5, r5, r0, lsl #16
    19a4:	52011600 	andpl	r1, r1, #0, 12
    19a8:	16800802 	strne	r0, [r0], r2, lsl #16
    19ac:	91035101 	tstls	r3, r1, lsl #2
    19b0:	01167ed0 			; <UNDEFINED> instruction: 0x01167ed0
    19b4:	163a0150 			; <UNDEFINED> instruction: 0x163a0150
    19b8:	02047d02 	andeq	r7, r4, #2, 26	; 0x80
    19bc:	0216007b 	andseq	r0, r6, #123	; 0x7b
    19c0:	7702007d 	smlsdxvc	r2, sp, r0, r0
    19c4:	b8150000 	ldmdalt	r5, {}	; <UNPREDICTABLE>
    19c8:	9c00008f 	stcls	0, cr0, [r0], {143}	; 0x8f
    19cc:	86000001 	strhi	r0, [r0], -r1
    19d0:	16000005 	strne	r0, [r0], -r5
    19d4:	08025201 	stmdaeq	r2, {r0, r9, ip, lr}
    19d8:	51011680 	smlabbpl	r1, r0, r6, r1
    19dc:	7ed09103 	atnvcs	f1, f3
    19e0:	01500116 	cmpeq	r0, r6, lsl r1
    19e4:	7d021640 	stcvc	6, cr1, [r2, #-256]	; 0xffffff00
    19e8:	007b0204 	rsbseq	r0, fp, r4, lsl #4
    19ec:	007d0216 	rsbseq	r0, sp, r6, lsl r2
    19f0:	00007702 	andeq	r7, r0, r2, lsl #14
    19f4:	008fdc15 	addeq	sp, pc, r5, lsl ip	; <UNPREDICTABLE>
    19f8:	00019c00 	andeq	r9, r1, r0, lsl #24
    19fc:	0005b400 	andeq	fp, r5, r0, lsl #8
    1a00:	52011600 	andpl	r1, r1, #0, 12
    1a04:	16800802 	strne	r0, [r0], r2, lsl #16
    1a08:	91035101 	tstls	r3, r1, lsl #2
    1a0c:	01167ed0 			; <UNDEFINED> instruction: 0x01167ed0
    1a10:	16320150 			; <UNDEFINED> instruction: 0x16320150
    1a14:	02047d02 	andeq	r7, r4, #2, 26	; 0x80
    1a18:	0216007b 	andseq	r0, r6, #123	; 0x7b
    1a1c:	7702007d 	smlsdxvc	r2, sp, r0, r0
    1a20:	0c150000 	ldceq	0, cr0, [r5], {-0}
    1a24:	9c000090 	stcls	0, cr0, [r0], {144}	; 0x90
    1a28:	e2000001 	and	r0, r0, #1
    1a2c:	16000005 	strne	r0, [r0], -r5
    1a30:	08025201 	stmdaeq	r2, {r0, r9, ip, lr}
    1a34:	51011680 	smlabbpl	r1, r0, r6, r1
    1a38:	7ed09103 	atnvcs	f1, f3
    1a3c:	01500116 	cmpeq	r0, r6, lsl r1
    1a40:	7d021638 	stcvc	6, cr1, [r2, #-224]	; 0xffffff20
    1a44:	007b0204 	rsbseq	r0, fp, r4, lsl #4
    1a48:	007d0216 	rsbseq	r0, sp, r6, lsl r2
    1a4c:	00007702 	andeq	r7, r0, r2, lsl #14
    1a50:	00901414 	addseq	r1, r0, r4, lsl r4
    1a54:	00066000 	andeq	r6, r6, r0
    1a58:	90301500 	eorsls	r1, r0, r0, lsl #10
    1a5c:	06670000 	strbteq	r0, [r7], -r0
    1a60:	061a0000 	ldreq	r0, [sl], -r0
    1a64:	01160000 	tsteq	r6, r0
    1a68:	b9080253 	stmdblt	r8, {r0, r1, r4, r6, r9}
    1a6c:	05520116 	ldrbeq	r0, [r2, #-278]	; 0x116
    1a70:	009abc03 	addseq	fp, sl, r3, lsl #24
    1a74:	51011600 	tstpl	r1, r0, lsl #12
    1a78:	9adc0305 	bls	ff702694 <__bss_end__+0xff6f86cc>
    1a7c:	01160000 	tsteq	r6, r0
    1a80:	70030550 	andvc	r0, r3, r0, asr r5
    1a84:	0000009b 	muleq	r0, fp, r0
    1a88:	00903414 	addseq	r3, r0, r4, lsl r4
    1a8c:	00067d00 	andeq	r7, r6, r0, lsl #26
    1a90:	18000000 	stmdane	r0, {}	; <UNPREDICTABLE>
    1a94:	0000007a 	andeq	r0, r0, sl, ror r0
    1a98:	00000635 	andeq	r0, r0, r5, lsr r6
    1a9c:	00006b19 	andeq	r6, r0, r9, lsl fp
    1aa0:	06000900 	streq	r0, [r0], -r0, lsl #18
    1aa4:	00000625 	andeq	r0, r0, r5, lsr #12
    1aa8:	00007a18 	andeq	r7, r0, r8, lsl sl
    1aac:	00064a00 	andeq	r4, r6, r0, lsl #20
    1ab0:	006b1900 	rsbeq	r1, fp, r0, lsl #18
    1ab4:	007f0000 	rsbseq	r0, pc, r0
    1ab8:	0003961f 	andeq	r9, r3, pc, lsl r6
    1abc:	8b1d0300 	blhi	7426c4 <__bss_end__+0x7386fc>
    1ac0:	1f000003 	svcne	0x00000003
    1ac4:	000003d3 	ldrdeq	r0, [r0], -r3
    1ac8:	03a02203 	moveq	r2, #805306368	; 0x30000000
    1acc:	16200000 	strtne	r0, [r0], -r0
    1ad0:	03000001 	movweq	r0, #1
    1ad4:	031c211e 	tsteq	ip, #-2147483641	; 0x80000007
    1ad8:	29030000 	stmdbcs	r3, {}	; <UNPREDICTABLE>
    1adc:	00000025 	andeq	r0, r0, r5, lsr #32
    1ae0:	0000067d 	andeq	r0, r0, sp, ror r6
    1ae4:	0000811c 	andeq	r8, r0, ip, lsl r1
    1ae8:	20002200 	andcs	r2, r0, r0, lsl #4
    1aec:	0000018a 	andeq	r0, r0, sl, lsl #3
    1af0:	b8006603 	stmdalt	r0, {r0, r1, r9, sl, sp, lr}
    1af4:	04000000 	streq	r0, [r0], #-0
    1af8:	00075b00 	andeq	r5, r7, r0, lsl #22
    1afc:	c2010400 	andgt	r0, r1, #0, 8
    1b00:	01000002 	tsteq	r0, r2
    1b04:	00000445 	andeq	r0, r0, r5, asr #8
    1b08:	0000032d 	andeq	r0, r0, sp, lsr #6
    1b0c:	0000909c 	muleq	r0, ip, r0
    1b10:	00000020 	andeq	r0, r0, r0, lsr #32
    1b14:	0000078e 	andeq	r0, r0, lr, lsl #15
    1b18:	69050402 	stmdbvs	r5, {r1, sl}
    1b1c:	0300746e 	movweq	r7, #1134	; 0x46e
    1b20:	003e0704 	eorseq	r0, lr, r4, lsl #14
    1b24:	01030000 	mrseq	r0, (UNDEF: 3)
    1b28:	0001b906 	andeq	fp, r1, r6, lsl #18
    1b2c:	05020300 	streq	r0, [r2, #-768]	; 0x300
    1b30:	000001c5 	andeq	r0, r0, r5, asr #3
    1b34:	61050403 	tstvs	r5, r3, lsl #8
    1b38:	03000000 	movweq	r0, #0
    1b3c:	005c0508 	subseq	r0, ip, r8, lsl #10
    1b40:	01030000 	mrseq	r0, (UNDEF: 3)
    1b44:	0001b708 	andeq	fp, r1, r8, lsl #14
    1b48:	07020300 	streq	r0, [r2, -r0, lsl #6]
    1b4c:	00000165 	andeq	r0, r0, r5, ror #2
    1b50:	39070403 	stmdbcc	r7, {r0, r1, sl}
    1b54:	03000000 	movweq	r0, #0
    1b58:	00340708 	eorseq	r0, r4, r8, lsl #14
    1b5c:	04030000 	streq	r0, [r3], #-0
    1b60:	00019707 	andeq	r9, r1, r7, lsl #14
    1b64:	08010300 	stmdaeq	r1, {r8, r9}
    1b68:	000001c0 	andeq	r0, r0, r0, asr #3
    1b6c:	00027704 	andeq	r7, r2, r4, lsl #14
    1b70:	9c030100 	stflss	f0, [r3], {-0}
    1b74:	10000090 	mulne	r0, r0, r0
    1b78:	01000000 	mrseq	r0, (UNDEF: 0)
    1b7c:	00009c9c 	muleq	r0, ip, ip
    1b80:	00720500 	rsbseq	r0, r2, r0, lsl #10
    1b84:	002c0401 	eoreq	r0, ip, r1, lsl #8
    1b88:	158c0000 	strne	r0, [ip]
    1b8c:	06000000 	streq	r0, [r0], -r0
    1b90:	00000437 	andeq	r0, r0, r7, lsr r4
    1b94:	90ac0c01 	adcls	r0, ip, r1, lsl #24
    1b98:	00100000 	andseq	r0, r0, r0
    1b9c:	9c010000 	stcls	0, cr0, [r1], {-0}
    1ba0:	01007205 	tsteq	r0, r5, lsl #4
    1ba4:	00002c0d 	andeq	r2, r0, sp, lsl #24
    1ba8:	0015b000 	andseq	fp, r5, r0
    1bac:	ff000000 			; <UNDEFINED> instruction: 0xff000000
    1bb0:	04000000 	streq	r0, [r0], #-0
    1bb4:	0007c600 	andeq	ip, r7, r0, lsl #12
    1bb8:	c2010400 	andgt	r0, r1, #0, 8
    1bbc:	01000002 	tsteq	r0, r2
    1bc0:	00000463 	andeq	r0, r0, r3, ror #8
    1bc4:	0000032d 	andeq	r0, r0, sp, lsr #6
    1bc8:	000090bc 	strheq	r9, [r0], -ip
    1bcc:	00000028 	andeq	r0, r0, r8, lsr #32
    1bd0:	000007d5 	ldrdeq	r0, [r0], -r5
    1bd4:	69050402 	stmdbvs	r5, {r1, sl}
    1bd8:	0300746e 	movweq	r7, #1134	; 0x46e
    1bdc:	003e0704 	eorseq	r0, lr, r4, lsl #14
    1be0:	01030000 	mrseq	r0, (UNDEF: 3)
    1be4:	0001b906 	andeq	fp, r1, r6, lsl #18
    1be8:	05020300 	streq	r0, [r2, #-768]	; 0x300
    1bec:	000001c5 	andeq	r0, r0, r5, asr #3
    1bf0:	61050403 	tstvs	r5, r3, lsl #8
    1bf4:	03000000 	movweq	r0, #0
    1bf8:	005c0508 	subseq	r0, ip, r8, lsl #10
    1bfc:	01030000 	mrseq	r0, (UNDEF: 3)
    1c00:	0001b708 	andeq	fp, r1, r8, lsl #14
    1c04:	07020300 	streq	r0, [r2, -r0, lsl #6]
    1c08:	00000165 	andeq	r0, r0, r5, ror #2
    1c0c:	39070403 	stmdbcc	r7, {r0, r1, sl}
    1c10:	03000000 	movweq	r0, #0
    1c14:	00340708 	eorseq	r0, r4, r8, lsl #14
    1c18:	04030000 	streq	r0, [r3], #-0
    1c1c:	00019707 	andeq	r9, r1, r7, lsl #14
    1c20:	08010300 	stmdaeq	r1, {r8, r9}
    1c24:	000001c0 	andeq	r0, r0, r0, asr #3
    1c28:	007f0404 	rsbseq	r0, pc, r4, lsl #8
    1c2c:	72050000 	andvc	r0, r5, #0
    1c30:	06000000 	streq	r0, [r0], -r0
    1c34:	0000018a 	andeq	r0, r0, sl, lsl #3
    1c38:	90bc0401 	adcsls	r0, ip, r1, lsl #8
    1c3c:	00280000 	eoreq	r0, r8, r0
    1c40:	9c010000 	stcls	0, cr0, [r1], {-0}
    1c44:	000000ca 	andeq	r0, r0, sl, asr #1
    1c48:	0090d007 	addseq	sp, r0, r7
    1c4c:	0000ac00 	andeq	sl, r0, r0, lsl #24
    1c50:	50010800 	andpl	r0, r1, r0, lsl #16
    1c54:	9ba80305 	blls	fea02870 <__bss_end__+0xfe9f88a8>
    1c58:	09000000 	stmdbeq	r0, {}	; <UNPREDICTABLE>
    1c5c:	000090d8 	ldrdeq	r9, [r0], -r8
    1c60:	000000ea 	andeq	r0, r0, sl, ror #1
    1c64:	000000c0 	andeq	r0, r0, r0, asr #1
    1c68:	02500108 	subseq	r0, r0, #8, 2
    1c6c:	0a006408 	beq	1ac94 <__bss_end__+0x10ccc>
    1c70:	000090dc 	ldrdeq	r9, [r0], -ip
    1c74:	000000fb 	strdeq	r0, [r0], -fp
    1c78:	00250b00 	eoreq	r0, r5, r0, lsl #22
    1c7c:	00d90000 	sbcseq	r0, r9, r0
    1c80:	790c0000 	stmdbvc	ip, {}	; <UNPREDICTABLE>
    1c84:	00000000 	andeq	r0, r0, r0
    1c88:	0003d30d 	andeq	sp, r3, sp, lsl #6
    1c8c:	e4220200 	strt	r0, [r2], #-512	; 0x200
    1c90:	04000000 	streq	r0, [r0], #-0
    1c94:	0000ca04 	andeq	ip, r0, r4, lsl #20
    1c98:	01cf0e00 	biceq	r0, pc, r0, lsl #28
    1c9c:	50020000 	andpl	r0, r2, r0
    1ca0:	000000fb 	strdeq	r0, [r0], -fp
    1ca4:	00002c0c 	andeq	r2, r0, ip, lsl #24
    1ca8:	580f0000 	stmdapl	pc, {}	; <UNPREDICTABLE>
    1cac:	02000004 	andeq	r0, r0, #4
    1cb0:	00ff0063 	rscseq	r0, pc, r3, rrx
    1cb4:	00040000 	andeq	r0, r4, r0
    1cb8:	00000890 	muleq	r0, r0, r8
    1cbc:	02c20104 	sbceq	r0, r2, #4, 2
    1cc0:	7d010000 	stcvc	0, cr0, [r1, #-0]
    1cc4:	2d000004 	stccs	0, cr0, [r0, #-16]
    1cc8:	e4000003 	str	r0, [r0], #-3
    1ccc:	34000090 	strcc	r0, [r0], #-144	; 0x90
    1cd0:	6c000000 	stcvs	0, cr0, [r0], {-0}
    1cd4:	02000008 	andeq	r0, r0, #8
    1cd8:	6e690504 	cdpvs	5, 6, cr0, cr9, cr4, {0}
    1cdc:	04030074 	streq	r0, [r3], #-116	; 0x74
    1ce0:	00003e07 	andeq	r3, r0, r7, lsl #28
    1ce4:	06010300 	streq	r0, [r1], -r0, lsl #6
    1ce8:	000001b9 			; <UNDEFINED> instruction: 0x000001b9
    1cec:	c5050203 	strgt	r0, [r5, #-515]	; 0x203
    1cf0:	03000001 	movweq	r0, #1
    1cf4:	00610504 	rsbeq	r0, r1, r4, lsl #10
    1cf8:	08030000 	stmdaeq	r3, {}	; <UNPREDICTABLE>
    1cfc:	00005c05 	andeq	r5, r0, r5, lsl #24
    1d00:	08010300 	stmdaeq	r1, {r8, r9}
    1d04:	000001b7 			; <UNDEFINED> instruction: 0x000001b7
    1d08:	65070203 	strvs	r0, [r7, #-515]	; 0x203
    1d0c:	03000001 	movweq	r0, #1
    1d10:	00390704 	eorseq	r0, r9, r4, lsl #14
    1d14:	08030000 	stmdaeq	r3, {}	; <UNPREDICTABLE>
    1d18:	00003407 	andeq	r3, r0, r7, lsl #8
    1d1c:	07040300 	streq	r0, [r4, -r0, lsl #6]
    1d20:	00000197 	muleq	r0, r7, r1
    1d24:	c0080103 	andgt	r0, r8, r3, lsl #2
    1d28:	04000001 	streq	r0, [r0], #-1
    1d2c:	000004b3 			; <UNDEFINED> instruction: 0x000004b3
    1d30:	90e40d01 	rscls	r0, r4, r1, lsl #26
    1d34:	00340000 	eorseq	r0, r4, r0
    1d38:	9c010000 	stcls	0, cr0, [r1], {-0}
    1d3c:	000000d8 	ldrdeq	r0, [r0], -r8
    1d40:	00049105 	andeq	r9, r4, r5, lsl #2
    1d44:	250e0100 	strcs	r0, [lr, #-256]	; 0x100
    1d48:	05000000 	streq	r0, [r0, #-0]
    1d4c:	0000049f 	muleq	r0, pc, r4	; <UNPREDICTABLE>
    1d50:	00250e01 	eoreq	r0, r5, r1, lsl #28
    1d54:	93060000 	movwls	r0, #24576	; 0x6000
    1d58:	01000000 	mrseq	r0, (UNDEF: 0)
    1d5c:	7362070f 	cmnvc	r2, #3932160	; 0x3c0000
    1d60:	11010073 	tstne	r1, r3, ror r0
    1d64:	000000d8 	ldrdeq	r0, [r0], -r8
    1d68:	000015d4 	ldrdeq	r1, [r0], -r4
    1d6c:	0004ab08 	andeq	sl, r4, r8, lsl #22
    1d70:	d8120100 	ldmdale	r2, {r8}
    1d74:	09000000 	stmdbeq	r0, {}	; <UNPREDICTABLE>
    1d78:	0000910c 	andeq	r9, r0, ip, lsl #2
    1d7c:	000000f4 	strdeq	r0, [r0], -r4
    1d80:	00911009 	addseq	r1, r1, r9
    1d84:	0000fb00 	andeq	pc, r0, r0, lsl #22
    1d88:	040a0000 	streq	r0, [sl], #-0
    1d8c:	00000025 	andeq	r0, r0, r5, lsr #32
    1d90:	00049105 	andeq	r9, r4, r5, lsl #2
    1d94:	250e0100 	strcs	r0, [lr, #-256]	; 0x100
    1d98:	05000000 	streq	r0, [r0, #-0]
    1d9c:	0000049f 	muleq	r0, pc, r4	; <UNPREDICTABLE>
    1da0:	00250e01 	eoreq	r0, r5, r1, lsl #28
    1da4:	93060000 	movwls	r0, #24576	; 0x6000
    1da8:	02000000 	andeq	r0, r0, #0
    1dac:	045806d8 	ldrbeq	r0, [r8], #-1752	; 0x6d8
    1db0:	63020000 	movwvs	r0, #8192	; 0x2000
    1db4:	0001ad00 	andeq	sl, r1, r0, lsl #26
    1db8:	24000400 	strcs	r0, [r0], #-1024	; 0x400
    1dbc:	04000009 	streq	r0, [r0], #-9
    1dc0:	0002c201 	andeq	ip, r2, r1, lsl #4
    1dc4:	04d50100 	ldrbeq	r0, [r5], #256	; 0x100
    1dc8:	032d0000 	teqeq	sp, #0
    1dcc:	03900000 	orrseq	r0, r0, #0
    1dd0:	00000000 	andeq	r0, r0, r0
    1dd4:	090a0000 	stmdbeq	sl, {}	; <UNPREDICTABLE>
    1dd8:	04020000 	streq	r0, [r2], #-0
    1ddc:	746e6905 	strbtvc	r6, [lr], #-2309	; 0x905
    1de0:	07040300 	streq	r0, [r4, -r0, lsl #6]
    1de4:	0000003e 	andeq	r0, r0, lr, lsr r0
    1de8:	b9060103 	stmdblt	r6, {r0, r1, r8}
    1dec:	03000001 	movweq	r0, #1
    1df0:	01c50502 	biceq	r0, r5, r2, lsl #10
    1df4:	04030000 	streq	r0, [r3], #-0
    1df8:	00006105 	andeq	r6, r0, r5, lsl #2
    1dfc:	05080300 	streq	r0, [r8, #-768]	; 0x300
    1e00:	0000005c 	andeq	r0, r0, ip, asr r0
    1e04:	b7080103 	strlt	r0, [r8, -r3, lsl #2]
    1e08:	03000001 	movweq	r0, #1
    1e0c:	01650702 	cmneq	r5, r2, lsl #14
    1e10:	04030000 	streq	r0, [r3], #-0
    1e14:	00003907 	andeq	r3, r0, r7, lsl #18
    1e18:	07080300 	streq	r0, [r8, -r0, lsl #6]
    1e1c:	00000034 	andeq	r0, r0, r4, lsr r0
    1e20:	97070403 	strls	r0, [r7, -r3, lsl #8]
    1e24:	03000001 	movweq	r0, #1
    1e28:	01c00801 	biceq	r0, r0, r1, lsl #16
    1e2c:	bb040000 	bllt	101e34 <__bss_end__+0xf7e6c>
    1e30:	01000004 	tsteq	r0, r4
    1e34:	0000250e 	andeq	r2, r0, lr, lsl #10
    1e38:	00911800 	addseq	r1, r1, r0, lsl #16
    1e3c:	00001800 	andeq	r1, r0, r0, lsl #16
    1e40:	a29c0100 	addsge	r0, ip, #0, 2
    1e44:	05000000 	streq	r0, [r0, #-0]
    1e48:	00000527 	andeq	r0, r0, r7, lsr #10
    1e4c:	002c0f01 	eoreq	r0, ip, r1, lsl #30
    1e50:	15f40000 	ldrbne	r0, [r4, #0]!
    1e54:	06000000 	streq	r0, [r0], -r0
    1e58:	0000050a 	andeq	r0, r0, sl, lsl #10
    1e5c:	91301701 	teqls	r0, r1, lsl #14
    1e60:	00140000 	andseq	r0, r4, r0
    1e64:	9c010000 	stcls	0, cr0, [r1], {-0}
    1e68:	000000c7 	andeq	r0, r0, r7, asr #1
    1e6c:	00052705 	andeq	r2, r5, r5, lsl #14
    1e70:	2c180100 	ldfcss	f0, [r8], {-0}
    1e74:	13000000 	movwne	r0, #0
    1e78:	00000016 	andeq	r0, r0, r6, lsl r0
    1e7c:	00045806 	andeq	r5, r4, r6, lsl #16
    1e80:	441f0100 	ldrmi	r0, [pc], #-256	; 1e88 <_start-0x6178>
    1e84:	48000091 	stmdami	r0, {r0, r4, r7}
    1e88:	01000000 	mrseq	r0, (UNDEF: 0)
    1e8c:	0001779c 	muleq	r1, ip, r7
    1e90:	051f0700 	ldreq	r0, [pc, #-1792]	; 1798 <_start-0x6868>
    1e94:	2a010000 	bcs	41e9c <__bss_end__+0x37ed4>
    1e98:	00000177 	andeq	r0, r0, r7, ror r1
    1e9c:	2010001c 	andscs	r0, r0, ip, lsl r0
    1ea0:	00050207 	andeq	r0, r5, r7, lsl #4
    1ea4:	772b0100 	strvc	r0, [fp, -r0, lsl #2]!
    1ea8:	24000001 	strcs	r0, [r0], #-1
    1eac:	07201000 	streq	r1, [r0, -r0]!
    1eb0:	000004c9 	andeq	r0, r0, r9, asr #9
    1eb4:	01772c01 	cmneq	r7, r1, lsl #24
    1eb8:	00000000 	andeq	r0, r0, r0
    1ebc:	e9085a00 	stmdb	r8, {r9, fp, ip, lr}
    1ec0:	01000004 	tsteq	r0, r4
    1ec4:	0001772d 	andeq	r7, r1, sp, lsr #14
    1ec8:	4c092000 	stcmi	0, cr2, [r9], {-0}
    1ecc:	79000091 	stmdbvc	r0, {r0, r4, r7}
    1ed0:	09000000 	stmdbeq	r0, {}	; <UNPREDICTABLE>
    1ed4:	00009158 	andeq	r9, r0, r8, asr r1
    1ed8:	000000a2 	andeq	r0, r0, r2, lsr #1
    1edc:	0091600a 	addseq	r6, r1, sl
    1ee0:	00018d00 	andeq	r8, r1, r0, lsl #26
    1ee4:	00013a00 	andeq	r3, r1, r0, lsl #20
    1ee8:	50010b00 	andpl	r0, r1, r0, lsl #22
    1eec:	0a004e01 	beq	156f8 <__bss_end__+0xb730>
    1ef0:	0000916c 	andeq	r9, r0, ip, ror #2
    1ef4:	0000019e 	muleq	r0, lr, r1
    1ef8:	0000015a 	andeq	r0, r0, sl, asr r1
    1efc:	0551010b 	ldrbeq	r0, [r1, #-267]	; 0x10b
    1f00:	0000010c 	andeq	r0, r0, ip, lsl #2
    1f04:	50010b5a 	andpl	r0, r1, sl, asr fp
    1f08:	00240c05 	eoreq	r0, r4, r5, lsl #24
    1f0c:	0c002010 	stceq	0, cr2, [r0], {16}
    1f10:	00009178 	andeq	r9, r0, r8, ror r1
    1f14:	0000019e 	muleq	r0, lr, r1
    1f18:	0551010b 	ldrbeq	r0, [r1, #-267]	; 0x10b
    1f1c:	0000200c 	andeq	r2, r0, ip
    1f20:	50010b5a 	andpl	r0, r1, sl, asr fp
    1f24:	001c0c05 	andseq	r0, ip, r5, lsl #24
    1f28:	00002010 	andeq	r2, r0, r0, lsl r0
    1f2c:	0000250d 	andeq	r2, r0, sp, lsl #10
    1f30:	04be0800 	ldrteq	r0, [lr], #2048	; 0x800
    1f34:	0d010000 	stceq	0, cr0, [r1, #-0]
    1f38:	00000188 	andeq	r0, r0, r8, lsl #3
    1f3c:	002c0d10 	eoreq	r0, ip, r0, lsl sp
    1f40:	cf0e0000 	svcgt	0x000e0000
    1f44:	02000001 	andeq	r0, r0, #1
    1f48:	00019e50 	andeq	r9, r1, r0, asr lr
    1f4c:	002c0f00 	eoreq	r0, ip, r0, lsl #30
    1f50:	10000000 	andne	r0, r0, r0
    1f54:	00000519 	andeq	r0, r0, r9, lsl r5
    1f58:	2c0f9c02 	stccs	12, cr9, [pc], {2}
    1f5c:	0f000000 	svceq	0x00000000
    1f60:	0000002c 	andeq	r0, r0, ip, lsr #32
    1f64:	01d80000 	bicseq	r0, r8, r0
    1f68:	00040000 	andeq	r0, r4, r0
    1f6c:	00000a12 	andeq	r0, r0, r2, lsl sl
    1f70:	02c20104 	sbceq	r0, r2, #4, 2
    1f74:	49010000 	stmdbmi	r1, {}	; <UNPREDICTABLE>
    1f78:	2d000005 	stccs	0, cr0, [r0, #-20]	; 0xffffffec
    1f7c:	8c000003 	stchi	0, cr0, [r0], {3}
    1f80:	88000091 	stmdahi	r0, {r0, r4, r7}
    1f84:	a7000000 	strge	r0, [r0, -r0]
    1f88:	02000009 	andeq	r0, r0, #9
    1f8c:	6e690504 	cdpvs	5, 6, cr0, cr9, cr4, {0}
    1f90:	04030074 	streq	r0, [r3], #-116	; 0x74
    1f94:	00003e07 	andeq	r3, r0, r7, lsl #28
    1f98:	06010300 	streq	r0, [r1], -r0, lsl #6
    1f9c:	000001b9 			; <UNDEFINED> instruction: 0x000001b9
    1fa0:	c5050203 	strgt	r0, [r5, #-515]	; 0x203
    1fa4:	03000001 	movweq	r0, #1
    1fa8:	00610504 	rsbeq	r0, r1, r4, lsl #10
    1fac:	08030000 	stmdaeq	r3, {}	; <UNPREDICTABLE>
    1fb0:	00005c05 	andeq	r5, r0, r5, lsl #24
    1fb4:	08010300 	stmdaeq	r1, {r8, r9}
    1fb8:	000001b7 			; <UNDEFINED> instruction: 0x000001b7
    1fbc:	65070203 	strvs	r0, [r7, #-515]	; 0x203
    1fc0:	03000001 	movweq	r0, #1
    1fc4:	00390704 	eorseq	r0, r9, r4, lsl #14
    1fc8:	08030000 	stmdaeq	r3, {}	; <UNPREDICTABLE>
    1fcc:	00003407 	andeq	r3, r0, r7, lsl #8
    1fd0:	07040300 	streq	r0, [r4, -r0, lsl #6]
    1fd4:	00000197 	muleq	r0, r7, r1
    1fd8:	c0080103 	andgt	r0, r8, r3, lsl #2
    1fdc:	04000001 	streq	r0, [r0], #-1
    1fe0:	00000568 	andeq	r0, r0, r8, ror #10
    1fe4:	918c0501 	orrls	r0, ip, r1, lsl #10
    1fe8:	001c0000 	andseq	r0, ip, r0
    1fec:	9c010000 	stcls	0, cr0, [r1], {-0}
    1ff0:	0000009e 	muleq	r0, lr, r0
    1ff4:	00056205 	andeq	r6, r5, r5, lsl #4
    1ff8:	2c050100 	stfcss	f0, [r5], {-0}
    1ffc:	3d000000 	stccc	0, cr0, [r0, #-0]
    2000:	00000016 	andeq	r0, r0, r6, lsl r0
    2004:	00052c06 	andeq	r2, r5, r6, lsl #24
    2008:	2c110100 	ldfcss	f0, [r1], {-0}
    200c:	a8000000 	stmdage	r0, {}	; <UNPREDICTABLE>
    2010:	14000091 	strne	r0, [r0], #-145	; 0x91
    2014:	01000000 	mrseq	r0, (UNDEF: 0)
    2018:	0000cb9c 	muleq	r0, ip, fp
    201c:	91b40700 			; <UNDEFINED> instruction: 0x91b40700
    2020:	01ca0000 	biceq	r0, sl, r0
    2024:	01080000 	mrseq	r0, (UNDEF: 8)
    2028:	040c0550 	streq	r0, [ip], #-1360	; 0x550
    202c:	00200030 	eoreq	r0, r0, r0, lsr r0
    2030:	057e0600 	ldrbeq	r0, [lr, #-1536]!	; 0x600
    2034:	16010000 	strne	r0, [r1], -r0
    2038:	0000002c 	andeq	r0, r0, ip, lsr #32
    203c:	000091bc 			; <UNDEFINED> instruction: 0x000091bc
    2040:	0000000c 	andeq	r0, r0, ip
    2044:	00f99c01 	rscseq	r9, r9, r1, lsl #24
    2048:	75090000 	strvc	r0, [r9, #-0]
    204c:	2c1a0100 	ldfcss	f0, [sl], {-0}
    2050:	01000000 	mrseq	r0, (UNDEF: 0)
    2054:	91c40a50 	bicls	r0, r4, r0, asr sl
    2058:	009e0000 	addseq	r0, lr, r0
    205c:	04000000 	streq	r0, [r0], #-0
    2060:	00000575 	andeq	r0, r0, r5, ror r5
    2064:	91c81f01 	bicls	r1, r8, r1, lsl #30
    2068:	00240000 	eoreq	r0, r4, r0
    206c:	9c010000 	stcls	0, cr0, [r1], {-0}
    2070:	00000157 	andeq	r0, r0, r7, asr r1
    2074:	0073750b 	rsbseq	r7, r3, fp, lsl #10
    2078:	002c1f01 	eoreq	r1, ip, r1, lsl #30
    207c:	16710000 	ldrbtne	r0, [r1], -r0
    2080:	72090000 	andvc	r0, r9, #0
    2084:	20010062 	andcs	r0, r1, r2, rrx
    2088:	0000002c 	andeq	r0, r0, ip, lsr #32
    208c:	d80c5401 	stmdale	ip, {r0, sl, ip, lr}
    2090:	10000091 	mulne	r0, r1, r0
    2094:	4d000000 	stcmi	0, cr0, [r0, #-0]
    2098:	0d000001 	stceq	0, cr0, [r0, #-4]
    209c:	01006172 	tsteq	r0, r2, ror r1
    20a0:	00002c22 	andeq	r2, r0, r2, lsr #24
    20a4:	00168f00 	andseq	r8, r6, r0, lsl #30
    20a8:	91dc0a00 	bicsls	r0, ip, r0, lsl #20
    20ac:	00cb0000 	sbceq	r0, fp, r0
    20b0:	0a000000 	beq	20b8 <_start-0x5f48>
    20b4:	000091d4 	ldrdeq	r9, [r0], -r4
    20b8:	000000cb 	andeq	r0, r0, fp, asr #1
    20bc:	01cf0400 	biceq	r0, pc, r0, lsl #8
    20c0:	28010000 	stmdacs	r1, {}	; <UNPREDICTABLE>
    20c4:	000091ec 	andeq	r9, r0, ip, ror #3
    20c8:	00000014 	andeq	r0, r0, r4, lsl r0
    20cc:	01909c01 	orrseq	r9, r0, r1, lsl #24
    20d0:	6d0b0000 	stcvs	0, cr0, [fp, #-0]
    20d4:	28010073 	stmdacs	r1, {r0, r1, r4, r5, r6}
    20d8:	0000002c 	andeq	r0, r0, ip, lsr #32
    20dc:	000016a2 	andeq	r1, r0, r2, lsr #13
    20e0:	0091fc07 	addseq	pc, r1, r7, lsl #24
    20e4:	0000f900 	andeq	pc, r0, r0, lsl #18
    20e8:	50010800 	andpl	r0, r1, r0, lsl #16
    20ec:	5001f307 	andpl	pc, r1, r7, lsl #6
    20f0:	1e03e80a 	cdpne	8, 0, cr14, cr3, cr10, {0}
    20f4:	3f040000 	svccc	0x00040000
    20f8:	01000005 	tsteq	r0, r5
    20fc:	0092002b 	addseq	r0, r2, fp, lsr #32
    2100:	00001400 	andeq	r1, r0, r0, lsl #8
    2104:	ca9c0100 	bgt	fe70250c <__bss_end__+0xfe6f8544>
    2108:	0b000001 	bleq	2114 <_start-0x5eec>
    210c:	00636573 	rsbeq	r6, r3, r3, ror r5
    2110:	002c2b01 	eoreq	r2, ip, r1, lsl #22
    2114:	16c30000 	strbne	r0, [r3], r0
    2118:	10070000 	andne	r0, r7, r0
    211c:	57000092 			; <UNDEFINED> instruction: 0x57000092
    2120:	08000001 	stmdaeq	r0, {r0}
    2124:	f3075001 	vhadd.u8	d5, d7, d1
    2128:	e80a5001 	stmda	sl, {r0, ip, lr}
    212c:	00001e03 	andeq	r1, r0, r3, lsl #28
    2130:	00055c0e 	andeq	r5, r5, lr, lsl #24
    2134:	2ca80200 	sfmcs	f0, 4, [r8]
    2138:	0f000000 	svceq	0x00000000
    213c:	0000002c 	andeq	r0, r0, ip, lsr #32
    2140:	08820000 	stmeq	r2, {}	; <UNPREDICTABLE>
    2144:	00040000 	andeq	r0, r4, r0
    2148:	00000af5 	strdeq	r0, [r0], -r5
    214c:	02c20104 	sbceq	r0, r2, #4, 2
    2150:	d1010000 	mrsle	r0, (UNDEF: 1)
    2154:	2d000005 	stccs	0, cr0, [r0, #-20]	; 0xffffffec
    2158:	14000003 	strne	r0, [r0], #-3
    215c:	a0000092 	mulge	r0, r2, r0
    2160:	4e000005 	cdpmi	0, 0, cr0, cr0, cr5, {0}
    2164:	0200000a 	andeq	r0, r0, #10
    2168:	00340708 	eorseq	r0, r4, r8, lsl #14
    216c:	04020000 	streq	r0, [r2], #-0
    2170:	00003e07 	andeq	r3, r0, r7, lsl #28
    2174:	06010200 	streq	r0, [r1], -r0, lsl #4
    2178:	000001b9 			; <UNDEFINED> instruction: 0x000001b9
    217c:	c5050202 	strgt	r0, [r5, #-514]	; 0x202
    2180:	02000001 	andeq	r0, r0, #1
    2184:	00610504 	rsbeq	r0, r1, r4, lsl #10
    2188:	08020000 	stmdaeq	r2, {}	; <UNPREDICTABLE>
    218c:	00005c05 	andeq	r5, r0, r5, lsl #24
    2190:	08010200 	stmdaeq	r1, {r9}
    2194:	000001b7 			; <UNDEFINED> instruction: 0x000001b7
    2198:	65070202 	strvs	r0, [r7, #-514]	; 0x202
    219c:	02000001 	andeq	r0, r0, #1
    21a0:	00390704 	eorseq	r0, r9, r4, lsl #14
    21a4:	04030000 	streq	r0, [r3], #-0
    21a8:	746e6905 	strbtvc	r6, [lr], #-2309	; 0x905
    21ac:	07040200 	streq	r0, [r4, -r0, lsl #4]
    21b0:	00000197 	muleq	r0, r7, r1
    21b4:	c0080102 	andgt	r0, r8, r2, lsl #2
    21b8:	04000001 	streq	r0, [r0], #-1
    21bc:	b20c0201 	andlt	r0, ip, #268435456	; 0x10000000
    21c0:	05000000 	streq	r0, [r0, #-0]
    21c4:	000005c1 	andeq	r0, r0, r1, asr #11
    21c8:	06a70500 	strteq	r0, [r7], r0, lsl #10
    21cc:	05010000 	streq	r0, [r1, #-0]
    21d0:	000006e0 	andeq	r0, r0, r0, ror #13
    21d4:	06ef0504 	strbteq	r0, [pc], r4, lsl #10
    21d8:	05050000 	streq	r0, [r5, #-0]
    21dc:	000006fe 	strdeq	r0, [r0], -lr
    21e0:	070d0506 	streq	r0, [sp, -r6, lsl #10]
    21e4:	05070000 	streq	r0, [r7, #-0]
    21e8:	0000071c 	andeq	r0, r0, ip, lsl r7
    21ec:	072b0503 	streq	r0, [fp, -r3, lsl #10]!
    21f0:	00020000 	andeq	r0, r2, r0
    21f4:	0006d406 	andeq	sp, r6, r6, lsl #8
    21f8:	79150200 	ldmdbvc	r5, {r9}
    21fc:	07000000 	streq	r0, [r0, -r0]
    2200:	00000267 	andeq	r0, r0, r7, ror #4
    2204:	92143f01 	andsls	r3, r4, #1, 30
    2208:	00d40000 	sbcseq	r0, r4, r0
    220c:	9c010000 	stcls	0, cr0, [r1], {-0}
    2210:	00000133 	andeq	r0, r0, r3, lsr r1
    2214:	6e697008 	cdpvs	0, 6, cr7, cr9, cr8, {0}
    2218:	2c3f0100 	ldfcss	f0, [pc], #-0	; 2220 <_start-0x5de0>
    221c:	e4000000 	str	r0, [r0], #-0
    2220:	09000016 	stmdbeq	r0, {r1, r2, r4}
    2224:	000005f1 	strdeq	r0, [r0], -r1
    2228:	01334701 	teqeq	r3, r1, lsl #14
    222c:	17020000 	strne	r0, [r2, -r0]
    2230:	3a090000 	bcc	242238 <__bss_end__+0x238270>
    2234:	01000007 	tsteq	r0, r7
    2238:	00002c49 	andeq	r2, r0, r9, asr #24
    223c:	00175700 	andseq	r5, r7, r0, lsl #14
    2240:	06720900 	ldrbteq	r0, [r2], -r0, lsl #18
    2244:	57010000 	strpl	r0, [r1, -r0]
    2248:	0000002c 	andeq	r0, r0, ip, lsr #32
    224c:	00001923 	andeq	r1, r0, r3, lsr #18
    2250:	0092a80a 	addseq	sl, r2, sl, lsl #16
    2254:	00084100 	andeq	r4, r8, r0, lsl #2
    2258:	00012200 	andeq	r2, r1, r0, lsl #4
    225c:	50010b00 	andpl	r0, r1, r0, lsl #22
    2260:	00007502 	andeq	r7, r0, r2, lsl #10
    2264:	0092dc0c 	addseq	sp, r2, ip, lsl #24
    2268:	00086200 	andeq	r6, r8, r0, lsl #4
    226c:	50010b00 	andpl	r0, r1, r0, lsl #22
    2270:	00007502 	andeq	r7, r0, r2, lsl #10
    2274:	39040d00 	stmdbcc	r4, {r8, sl, fp}
    2278:	0e000001 	cdpeq	0, 0, cr0, cr0, cr1, {0}
    227c:	0000002c 	andeq	r0, r0, ip, lsr #32
    2280:	00005007 	andeq	r5, r0, r7
    2284:	e8600100 	stmda	r0!, {r8}^
    2288:	38000092 	stmdacc	r0, {r1, r4, r7}
    228c:	01000000 	mrseq	r0, (UNDEF: 0)
    2290:	0001969c 	muleq	r1, ip, r6
    2294:	69700800 	ldmdbvs	r0!, {fp}^
    2298:	6001006e 	andvs	r0, r1, lr, rrx
    229c:	0000002c 	andeq	r0, r0, ip, lsr #32
    22a0:	00001953 	andeq	r1, r0, r3, asr r9
    22a4:	0005f109 	andeq	pc, r5, r9, lsl #2
    22a8:	33670100 	cmncc	r7, #0, 2
    22ac:	74000001 	strvc	r0, [r0], #-1
    22b0:	09000019 	stmdbeq	r0, {r0, r3, r4}
    22b4:	00000672 	andeq	r0, r0, r2, ror r6
    22b8:	002c6801 	eoreq	r6, ip, r1, lsl #16
    22bc:	19aa0000 	stmibne	sl!, {}	; <UNPREDICTABLE>
    22c0:	180c0000 	stmdane	ip, {}	; <UNPREDICTABLE>
    22c4:	62000093 	andvs	r0, r0, #147	; 0x93
    22c8:	0b000008 	bleq	22f0 <_start-0x5d10>
    22cc:	31075101 	tstcc	r7, r1, lsl #2
    22d0:	4f5001f3 	svcmi	0x005001f3
    22d4:	0000241a 	andeq	r2, r0, sl, lsl r4
    22d8:	0000a007 	andeq	sl, r0, r7
    22dc:	207b0100 	rsbscs	r0, fp, r0, lsl #2
    22e0:	38000093 	stmdacc	r0, {r0, r1, r4, r7}
    22e4:	01000000 	mrseq	r0, (UNDEF: 0)
    22e8:	0001ee9c 	muleq	r1, ip, lr
    22ec:	69700800 	ldmdbvs	r0!, {fp}^
    22f0:	7b01006e 	blvc	424b0 <__bss_end__+0x384e8>
    22f4:	0000002c 	andeq	r0, r0, ip, lsr #32
    22f8:	000019ea 	andeq	r1, r0, sl, ror #19
    22fc:	0005f109 	andeq	pc, r5, r9, lsl #2
    2300:	33810100 	orrcc	r0, r1, #0, 2
    2304:	0b000001 	bleq	2310 <_start-0x5cf0>
    2308:	0900001a 	stmdbeq	r0, {r1, r3, r4}
    230c:	00000672 	andeq	r0, r0, r2, ror r6
    2310:	002c8201 	eoreq	r8, ip, r1, lsl #4
    2314:	1a410000 	bne	104231c <__bss_end__+0x1038354>
    2318:	500c0000 	andpl	r0, ip, r0
    231c:	62000093 	andvs	r0, r0, #147	; 0x93
    2320:	0b000008 	bleq	2348 <_start-0x5cb8>
    2324:	31075101 	tstcc	r7, r1, lsl #2
    2328:	4f5001f3 	svcmi	0x005001f3
    232c:	0000241a 	andeq	r2, r0, sl, lsl r4
    2330:	00025307 	andeq	r5, r2, r7, lsl #6
    2334:	58950100 	ldmpl	r5, {r8}
    2338:	cc000093 	stcgt	0, cr0, [r0], {147}	; 0x93
    233c:	01000000 	mrseq	r0, (UNDEF: 0)
    2340:	0002649c 	muleq	r2, ip, r4
    2344:	69700800 	ldmdbvs	r0!, {fp}^
    2348:	9501006e 	strls	r0, [r1, #-110]	; 0x6e
    234c:	0000002c 	andeq	r0, r0, ip, lsr #32
    2350:	00001a81 	andeq	r1, r0, r1, lsl #21
    2354:	0005f109 	andeq	pc, r5, r9, lsl #2
    2358:	339b0100 	orrscc	r0, fp, #0, 2
    235c:	9f000001 	svcls	0x00000001
    2360:	0900001a 	stmdbeq	r0, {r1, r3, r4}
    2364:	0000073a 	andeq	r0, r0, sl, lsr r7
    2368:	002c9d01 	eoreq	r9, ip, r1, lsl #26
    236c:	1af40000 	bne	ffd02374 <__bss_end__+0xffcf83ac>
    2370:	72090000 	andvc	r0, r9, #0
    2374:	01000006 	tsteq	r0, r6
    2378:	00002cab 	andeq	r2, r0, fp, lsr #25
    237c:	001cc000 	andseq	ip, ip, r0
    2380:	93ec0a00 	mvnls	r0, #0, 20
    2384:	08410000 	stmdaeq	r1, {}^	; <UNPREDICTABLE>
    2388:	02530000 	subseq	r0, r3, #0
    238c:	010b0000 	mrseq	r0, (UNDEF: 11)
    2390:	00750250 	rsbseq	r0, r5, r0, asr r2
    2394:	94180c00 	ldrls	r0, [r8], #-3072	; 0xc00
    2398:	08620000 	stmdaeq	r2!, {}^	; <UNPREDICTABLE>
    239c:	010b0000 	mrseq	r0, (UNDEF: 11)
    23a0:	00750250 	rsbseq	r0, r5, r0, asr r2
    23a4:	060f0000 	streq	r0, [pc], -r0
    23a8:	01000006 	tsteq	r0, r6
    23ac:	000064b2 			; <UNDEFINED> instruction: 0x000064b2
    23b0:	00942400 	addseq	r2, r4, r0, lsl #8
    23b4:	00004c00 	andeq	r4, r0, r0, lsl #24
    23b8:	ac9c0100 	ldfges	f0, [ip], {0}
    23bc:	08000002 	stmdaeq	r0, {r1}
    23c0:	006e6970 	rsbeq	r6, lr, r0, ror r9
    23c4:	002cb201 	eoreq	fp, ip, r1, lsl #4
    23c8:	1cde0000 	ldclne	0, cr0, [lr], {0}
    23cc:	76100000 	ldrvc	r0, [r0], -r0
    23d0:	2cb80100 	ldfcss	f0, [r8]
    23d4:	36000000 	strcc	r0, [r0], -r0
    23d8:	1100001d 	tstne	r0, sp, lsl r0
    23dc:	00009444 	andeq	r9, r0, r4, asr #8
    23e0:	00000841 	andeq	r0, r0, r1, asr #16
    23e4:	00945411 	addseq	r5, r4, r1, lsl r4
    23e8:	00084100 	andeq	r4, r8, r0, lsl #2
    23ec:	1e070000 	cdpne	0, 0, cr0, cr7, cr0, {0}
    23f0:	01000000 	mrseq	r0, (UNDEF: 0)
    23f4:	009470c4 	addseq	r7, r4, r4, asr #1
    23f8:	00002400 	andeq	r2, r0, r0, lsl #8
    23fc:	fc9c0100 	ldc2	1, cr0, [ip], {0}
    2400:	08000002 	stmdaeq	r0, {r1}
    2404:	006e6970 	rsbeq	r6, lr, r0, ror r9
    2408:	002cc401 	eoreq	ip, ip, r1, lsl #8
    240c:	1d6c0000 	stclne	0, cr0, [ip, #-0]
    2410:	76080000 	strvc	r0, [r8], -r0
    2414:	2cc40100 	stfcse	f0, [r4], {0}
    2418:	a6000000 	strge	r0, [r0], -r0
    241c:	0a00001d 	beq	2498 <_start-0x5b68>
    2420:	00009488 	andeq	r9, r0, r8, lsl #9
    2424:	0000013e 	andeq	r0, r0, lr, lsr r1
    2428:	000002f2 	strdeq	r0, [r0], -r2
    242c:	0350010b 	cmpeq	r0, #-1073741822	; 0xc0000002
    2430:	005001f3 	ldrsheq	r0, [r0], #-19	; 0xffffffed
    2434:	00949011 	addseq	r9, r4, r1, lsl r0
    2438:	00019600 	andeq	r9, r1, r0, lsl #12
    243c:	25070000 	strcs	r0, [r7, #-0]
    2440:	01000006 	tsteq	r0, r6
    2444:	009494d0 			; <UNDEFINED> instruction: 0x009494d0
    2448:	0000d800 	andeq	sp, r0, r0, lsl #16
    244c:	819c0100 	orrshi	r0, ip, r0, lsl #2
    2450:	08000003 	stmdaeq	r0, {r0, r1}
    2454:	006e6970 	rsbeq	r6, lr, r0, ror r9
    2458:	002cd001 	eoreq	sp, ip, r1
    245c:	1de00000 	stclne	0, cr0, [r0]
    2460:	7a120000 	bvc	482468 <__bss_end__+0x4784a0>
    2464:	01000006 	tsteq	r0, r6
    2468:	0000b2d0 	ldrdeq	fp, [r0], -r0
    246c:	001dfe00 	andseq	pc, sp, r0, lsl #28
    2470:	05f10900 	ldrbeq	r0, [r1, #2304]!	; 0x900
    2474:	d8010000 	stmdale	r1, {}	; <UNPREDICTABLE>
    2478:	00000133 	andeq	r0, r0, r3, lsr r1
    247c:	00001e1f 	andeq	r1, r0, pc, lsl lr
    2480:	00073a09 	andeq	r3, r7, r9, lsl #20
    2484:	2cd90100 	ldfcse	f0, [r9], {0}
    2488:	74000000 	strvc	r0, [r0], #-0
    248c:	0900001e 	stmdbeq	r0, {r1, r2, r3, r4}
    2490:	00000672 	andeq	r0, r0, r2, ror r6
    2494:	002ce701 	eoreq	lr, ip, r1, lsl #14
    2498:	20400000 	subcs	r0, r0, r0
    249c:	300a0000 	andcc	r0, sl, r0
    24a0:	41000095 	swpmi	r0, r5, [r0]	; <UNPREDICTABLE>
    24a4:	70000008 	andvc	r0, r0, r8
    24a8:	0b000003 	bleq	24bc <_start-0x5b44>
    24ac:	76025001 	strvc	r5, [r2], -r1
    24b0:	600c0000 	andvs	r0, ip, r0
    24b4:	62000095 	andvs	r0, r0, #149	; 0x95
    24b8:	0b000008 	bleq	24e0 <_start-0x5b20>
    24bc:	76025001 	strvc	r5, [r2], -r1
    24c0:	07000000 	streq	r0, [r0, -r0]
    24c4:	0000067f 	andeq	r0, r0, pc, ror r6
    24c8:	956cf001 	strbls	pc, [ip, #-1]!	; <UNPREDICTABLE>
    24cc:	00380000 	eorseq	r0, r8, r0
    24d0:	9c010000 	stcls	0, cr0, [r1], {-0}
    24d4:	000003d9 	ldrdeq	r0, [r0], -r9
    24d8:	6e697008 	cdpvs	0, 6, cr7, cr9, cr8, {0}
    24dc:	2cf00100 	ldfcse	f0, [r0]
    24e0:	71000000 	mrsvc	r0, (UNDEF: 0)
    24e4:	09000020 	stmdbeq	r0, {r5}
    24e8:	000005f1 	strdeq	r0, [r0], -r1
    24ec:	0133f601 	teqeq	r3, r1, lsl #12
    24f0:	20920000 	addscs	r0, r2, r0
    24f4:	72090000 	andvc	r0, r9, #0
    24f8:	01000006 	tsteq	r0, r6
    24fc:	00002cf7 	strdeq	r2, [r0], -r7
    2500:	0020c800 	eoreq	ip, r0, r0, lsl #16
    2504:	959c0c00 	ldrls	r0, [ip, #3072]	; 0xc00
    2508:	08620000 	stmdaeq	r2!, {}^	; <UNPREDICTABLE>
    250c:	010b0000 	mrseq	r0, (UNDEF: 11)
    2510:	f3310751 	vaba.u<illegal width 64>	q0, <illegal reg q0.5>, <illegal reg q0.5>
    2514:	1a4f5001 	bne	13d6520 <__bss_end__+0x13cc558>
    2518:	13000024 	movwne	r0, #36	; 0x24
    251c:	000005b5 			; <UNDEFINED> instruction: 0x000005b5
    2520:	64011e01 	strvs	r1, [r1], #-3585	; 0xe01
    2524:	a4000000 	strge	r0, [r0], #-0
    2528:	2c000095 	stccs	0, cr0, [r0], {149}	; 0x95
    252c:	01000000 	mrseq	r0, (UNDEF: 0)
    2530:	00040d9c 	muleq	r4, ip, sp
    2534:	05b81400 	ldreq	r1, [r8, #1024]!	; 0x400
    2538:	1e010000 	cdpne	0, 0, cr0, cr1, cr0, {0}
    253c:	00002c01 	andeq	r2, r0, r1, lsl #24
    2540:	00210800 	eoreq	r0, r1, r0, lsl #16
    2544:	95b41100 	ldrls	r1, [r4, #256]!	; 0x100
    2548:	08410000 	stmdaeq	r1, {}^	; <UNPREDICTABLE>
    254c:	15000000 	strne	r0, [r0, #-0]
    2550:	00000610 	andeq	r0, r0, r0, lsl r6
    2554:	d0012d01 	andle	r2, r1, r1, lsl #26
    2558:	84000095 	strhi	r0, [r0], #-149	; 0x95
    255c:	01000000 	mrseq	r0, (UNDEF: 0)
    2560:	0004d19c 	muleq	r4, ip, r1
    2564:	69701600 	ldmdbvs	r0!, {r9, sl, ip}^
    2568:	2d01006e 	stccs	0, cr0, [r1, #-440]	; 0xfffffe48
    256c:	00002c01 	andeq	r2, r0, r1, lsl #24
    2570:	00212900 	eoreq	r2, r1, r0, lsl #18
    2574:	05df1700 	ldrbeq	r1, [pc, #1792]	; 2c7c <_start-0x5384>
    2578:	3f010000 	svccc	0x00010000
    257c:	00002c01 	andeq	r2, r0, r1, lsl #24
    2580:	00215500 	eoreq	r5, r1, r0, lsl #10
    2584:	95ec1800 	strbls	r1, [ip, #2048]!	; 0x800
    2588:	001c0000 	andseq	r0, ip, r0
    258c:	04730000 	ldrbteq	r0, [r3], #-0
    2590:	72170000 	andsvc	r0, r7, #0
    2594:	01000006 	tsteq	r0, r6
    2598:	002c0136 	eoreq	r0, ip, r6, lsr r1
    259c:	21730000 	cmncs	r3, r0
    25a0:	f8110000 			; <UNDEFINED> instruction: 0xf8110000
    25a4:	41000095 	swpmi	r0, r5, [r0]	; <UNPREDICTABLE>
    25a8:	11000008 	tstne	r0, r8
    25ac:	00009608 	andeq	r9, r0, r8, lsl #12
    25b0:	00000862 	andeq	r0, r0, r2, ror #16
    25b4:	960c1800 	strls	r1, [ip], -r0, lsl #16
    25b8:	00200000 	eoreq	r0, r0, r0
    25bc:	04a30000 	strteq	r0, [r3], #0
    25c0:	72170000 	andsvc	r0, r7, #0
    25c4:	01000006 	tsteq	r0, r6
    25c8:	002c013a 	eoreq	r0, ip, sl, lsr r1
    25cc:	21910000 	orrscs	r0, r1, r0
    25d0:	18110000 	ldmdane	r1, {}	; <UNPREDICTABLE>
    25d4:	41000096 	swpmi	r0, r6, [r0]	; <UNPREDICTABLE>
    25d8:	11000008 	tstne	r0, r8
    25dc:	0000962c 	andeq	r9, r0, ip, lsr #12
    25e0:	00000862 	andeq	r0, r0, r2, ror #16
    25e4:	95e41100 	strbls	r1, [r4, #256]!	; 0x100
    25e8:	087e0000 	ldmdaeq	lr!, {}^	; <UNPREDICTABLE>
    25ec:	30110000 	andscc	r0, r1, r0
    25f0:	7e000096 	mcrvc	0, 0, r0, cr0, cr6, {4}
    25f4:	11000008 	tstne	r0, r8
    25f8:	0000963c 	andeq	r9, r0, ip, lsr r6
    25fc:	00000841 	andeq	r0, r0, r1, asr #16
    2600:	00964811 	addseq	r4, r6, r1, lsl r8
    2604:	00086200 	andeq	r6, r8, r0, lsl #4
    2608:	964c1100 	strbls	r1, [ip], -r0, lsl #2
    260c:	087e0000 	ldmdaeq	lr!, {}^	; <UNPREDICTABLE>
    2610:	15000000 	strne	r0, [r0, #-0]
    2614:	000006be 			; <UNDEFINED> instruction: 0x000006be
    2618:	54014a01 	strpl	r4, [r1], #-2561	; 0xa01
    261c:	84000096 	strhi	r0, [r0], #-150	; 0x96
    2620:	01000000 	mrseq	r0, (UNDEF: 0)
    2624:	0005959c 	muleq	r5, ip, r5
    2628:	69701600 	ldmdbvs	r0!, {r9, sl, ip}^
    262c:	4a01006e 	bmi	427ec <__bss_end__+0x38824>
    2630:	00002c01 	andeq	r2, r0, r1, lsl #24
    2634:	0021af00 	eoreq	sl, r1, r0, lsl #30
    2638:	05df1700 	ldrbeq	r1, [pc, #1792]	; 2d40 <_start-0x52c0>
    263c:	5b010000 	blpl	42644 <__bss_end__+0x3867c>
    2640:	00002c01 	andeq	r2, r0, r1, lsl #24
    2644:	0021db00 	eoreq	sp, r1, r0, lsl #22
    2648:	96701800 	ldrbtls	r1, [r0], -r0, lsl #16
    264c:	001c0000 	andseq	r0, ip, r0
    2650:	05370000 	ldreq	r0, [r7, #-0]!
    2654:	72170000 	andsvc	r0, r7, #0
    2658:	01000006 	tsteq	r0, r6
    265c:	002c0152 	eoreq	r0, ip, r2, asr r1
    2660:	21f90000 	mvnscs	r0, r0
    2664:	7c110000 	ldcvc	0, cr0, [r1], {-0}
    2668:	41000096 	swpmi	r0, r6, [r0]	; <UNPREDICTABLE>
    266c:	11000008 	tstne	r0, r8
    2670:	0000968c 	andeq	r9, r0, ip, lsl #13
    2674:	00000862 	andeq	r0, r0, r2, ror #16
    2678:	96901800 	ldrls	r1, [r0], r0, lsl #16
    267c:	00200000 	eoreq	r0, r0, r0
    2680:	05670000 	strbeq	r0, [r7, #-0]!
    2684:	72170000 	andsvc	r0, r7, #0
    2688:	01000006 	tsteq	r0, r6
    268c:	002c0156 	eoreq	r0, ip, r6, asr r1
    2690:	22170000 	andscs	r0, r7, #0
    2694:	9c110000 	ldcls	0, cr0, [r1], {-0}
    2698:	41000096 	swpmi	r0, r6, [r0]	; <UNPREDICTABLE>
    269c:	11000008 	tstne	r0, r8
    26a0:	000096b0 			; <UNDEFINED> instruction: 0x000096b0
    26a4:	00000862 	andeq	r0, r0, r2, ror #16
    26a8:	96681100 	strbtls	r1, [r8], -r0, lsl #2
    26ac:	087e0000 	ldmdaeq	lr!, {}^	; <UNPREDICTABLE>
    26b0:	b4110000 	ldrlt	r0, [r1], #-0
    26b4:	7e000096 	mcrvc	0, 0, r0, cr0, cr6, {4}
    26b8:	11000008 	tstne	r0, r8
    26bc:	000096c0 	andeq	r9, r0, r0, asr #13
    26c0:	00000841 	andeq	r0, r0, r1, asr #16
    26c4:	0096cc11 	addseq	ip, r6, r1, lsl ip
    26c8:	00086200 	andeq	r6, r8, r0, lsl #4
    26cc:	96d01100 	ldrbls	r1, [r0], r0, lsl #2
    26d0:	087e0000 	ldmdaeq	lr!, {}^	; <UNPREDICTABLE>
    26d4:	13000000 	movwne	r0, #0
    26d8:	0000058d 	andeq	r0, r0, sp, lsl #11
    26dc:	64016501 	strvs	r6, [r1], #-1281	; 0x501
    26e0:	d8000000 	stmdale	r0, {}	; <UNPREDICTABLE>
    26e4:	84000096 	strhi	r0, [r0], #-150	; 0x96
    26e8:	01000000 	mrseq	r0, (UNDEF: 0)
    26ec:	00063b9c 	muleq	r6, ip, fp
    26f0:	69701600 	ldmdbvs	r0!, {r9, sl, ip}^
    26f4:	6501006e 	strvs	r0, [r1, #-110]	; 0x6e
    26f8:	00002c01 	andeq	r2, r0, r1, lsl #24
    26fc:	00223500 	eoreq	r3, r2, r0, lsl #10
    2700:	96f41800 	ldrbtls	r1, [r4], r0, lsl #16
    2704:	00240000 	eoreq	r0, r4, r0
    2708:	05ef0000 	strbeq	r0, [pc, #0]!	; 2710 <_start-0x58f0>
    270c:	e8170000 	ldmda	r7, {}	; <UNPREDICTABLE>
    2710:	01000005 	tsteq	r0, r5
    2714:	002c016c 	eoreq	r0, ip, ip, ror #2
    2718:	22770000 	rsbscs	r0, r7, #0
    271c:	00110000 	andseq	r0, r1, r0
    2720:	41000097 	swpmi	r0, r7, [r0]	; <UNPREDICTABLE>
    2724:	11000008 	tstne	r0, r8
    2728:	00009710 	andeq	r9, r0, r0, lsl r7
    272c:	0000087e 	andeq	r0, r0, lr, ror r8
    2730:	97181800 	ldrls	r1, [r8, -r0, lsl #16]
    2734:	002c0000 	eoreq	r0, ip, r0
    2738:	06280000 	strteq	r0, [r8], -r0
    273c:	e8170000 	ldmda	r7, {}	; <UNPREDICTABLE>
    2740:	01000005 	tsteq	r0, r5
    2744:	002c016f 	eoreq	r0, ip, pc, ror #2
    2748:	22910000 	addscs	r0, r1, #0
    274c:	24110000 	ldrcs	r0, [r1], #-0
    2750:	41000097 	swpmi	r0, r7, [r0]	; <UNPREDICTABLE>
    2754:	11000008 	tstne	r0, r8
    2758:	00009730 	andeq	r9, r0, r0, lsr r7
    275c:	0000087e 	andeq	r0, r0, lr, ror r8
    2760:	00973c11 	addseq	r3, r7, r1, lsl ip
    2764:	00087e00 	andeq	r7, r8, r0, lsl #28
    2768:	ec110000 	ldc	0, cr0, [r1], {-0}
    276c:	7e000096 	mcrvc	0, 0, r0, cr0, cr6, {4}
    2770:	11000008 	tstne	r0, r8
    2774:	00009748 	andeq	r9, r0, r8, asr #14
    2778:	0000087e 	andeq	r0, r0, lr, ror r8
    277c:	06451500 	strbeq	r1, [r5], -r0, lsl #10
    2780:	78010000 	stmdavc	r1, {}	; <UNPREDICTABLE>
    2784:	00975c01 	addseq	r5, r7, r1, lsl #24
    2788:	00005800 	andeq	r5, r0, r0, lsl #16
    278c:	a09c0100 	addsge	r0, ip, r0, lsl #2
    2790:	16000006 	strne	r0, [r0], -r6
    2794:	006e6970 	rsbeq	r6, lr, r0, ror r9
    2798:	2c017801 	stccs	8, cr7, [r1], {1}
    279c:	a4000000 	strge	r0, [r0], #-0
    27a0:	11000022 	tstne	r0, r2, lsr #32
    27a4:	00009770 	andeq	r9, r0, r0, ror r7
    27a8:	0000087e 	andeq	r0, r0, lr, ror r8
    27ac:	00978c0a 	addseq	r8, r7, sl, lsl #24
    27b0:	00086200 	andeq	r6, r8, r0, lsl #4
    27b4:	00068000 	andeq	r8, r6, r0
    27b8:	51010b00 	tstpl	r1, r0, lsl #22
    27bc:	00743104 	rsbseq	r3, r4, r4, lsl #2
    27c0:	a80a0024 	stmdage	sl, {r2, r5}
    27c4:	62000097 	andvs	r0, r0, #151	; 0x97
    27c8:	96000008 	strls	r0, [r0], -r8
    27cc:	0b000006 	bleq	27ec <_start-0x5814>
    27d0:	31045101 	tstcc	r4, r1, lsl #2
    27d4:	00240074 	eoreq	r0, r4, r4, ror r0
    27d8:	0097ac11 	addseq	sl, r7, r1, lsl ip
    27dc:	00087e00 	andeq	r7, r8, r0, lsl #28
    27e0:	78190000 	ldmdavc	r9, {}	; <UNPREDICTABLE>
    27e4:	01000001 	tsteq	r0, r1
    27e8:	00013328 	andeq	r3, r1, r8, lsr #6
    27ec:	d0030500 	andle	r0, r3, r0, lsl #10
    27f0:	19000099 	stmdbne	r0, {r0, r3, r4, r7}
    27f4:	000001ec 	andeq	r0, r0, ip, ror #3
    27f8:	01332901 	teqeq	r3, r1, lsl #18
    27fc:	03050000 	movweq	r0, #20480	; 0x5000
    2800:	000099cc 	andeq	r9, r0, ip, asr #19
    2804:	00000819 	andeq	r0, r0, r9, lsl r8
    2808:	332a0100 	teqcc	sl, #0, 2
    280c:	05000001 	streq	r0, [r0, #-1]
    2810:	0099c803 	addseq	ip, r9, r3, lsl #16
    2814:	01251900 	teqeq	r5, r0, lsl #18
    2818:	2c010000 	stccs	0, cr0, [r1], {-0}
    281c:	00000133 	andeq	r0, r0, r3, lsr r1
    2820:	99740305 	ldmdbls	r4!, {r0, r2, r8, r9}^
    2824:	2d190000 	ldccs	0, cr0, [r9, #-0]
    2828:	01000001 	tsteq	r0, r1
    282c:	0001332d 	andeq	r3, r1, sp, lsr #6
    2830:	78030500 	stmdavc	r3, {r8, sl}
    2834:	19000099 	stmdbne	r0, {r0, r3, r4, r7}
    2838:	00000000 	andeq	r0, r0, r0
    283c:	01332e01 	teqeq	r3, r1, lsl #28
    2840:	03050000 	movweq	r0, #20480	; 0x5000
    2844:	0000997c 	andeq	r9, r0, ip, ror r9
    2848:	00013519 	andeq	r3, r1, r9, lsl r5
    284c:	332f0100 	teqcc	pc, #0, 2
    2850:	05000001 	streq	r0, [r0, #-1]
    2854:	00998003 	addseq	r8, r9, r3
    2858:	013d1900 	teqeq	sp, r0, lsl #18
    285c:	30010000 	andcc	r0, r1, r0
    2860:	00000133 	andeq	r0, r0, r3, lsr r1
    2864:	99840305 	stmibls	r4, {r0, r2, r8, r9}
    2868:	45190000 	ldrmi	r0, [r9, #-0]
    286c:	01000001 	tsteq	r0, r1
    2870:	00013331 	andeq	r3, r1, r1, lsr r3
    2874:	88030500 	stmdahi	r3, {r8, sl}
    2878:	19000099 	stmdbne	r0, {r0, r3, r4, r7}
    287c:	00000077 	andeq	r0, r0, r7, ror r0
    2880:	01333301 	teqeq	r3, r1, lsl #6
    2884:	03050000 	movweq	r0, #20480	; 0x5000
    2888:	0000998c 	andeq	r9, r0, ip, lsl #19
    288c:	00007e19 	andeq	r7, r0, r9, lsl lr
    2890:	33340100 	teqcc	r4, #0, 2
    2894:	05000001 	streq	r0, [r0, #-1]
    2898:	00999003 	addseq	r9, r9, r3
    289c:	00121900 	andseq	r1, r2, r0, lsl #18
    28a0:	36010000 	strcc	r0, [r1], -r0
    28a4:	00000133 	andeq	r0, r0, r3, lsr r1
    28a8:	99940305 	ldmibls	r4, {r0, r2, r8, r9}
    28ac:	83190000 	tsthi	r9, #0
    28b0:	01000001 	tsteq	r0, r1
    28b4:	00013337 	andeq	r3, r1, r7, lsr r3
    28b8:	98030500 	stmdals	r3, {r8, sl}
    28bc:	19000099 	stmdbne	r0, {r0, r3, r4, r7}
    28c0:	00000085 	andeq	r0, r0, r5, lsl #1
    28c4:	01333901 	teqeq	r3, r1, lsl #18
    28c8:	03050000 	movweq	r0, #20480	; 0x5000
    28cc:	0000999c 	muleq	r0, ip, r9
    28d0:	00008c19 	andeq	r8, r0, r9, lsl ip
    28d4:	333a0100 	teqcc	sl, #0, 2
    28d8:	05000001 	streq	r0, [r0, #-1]
    28dc:	0099a003 	addseq	sl, r9, r3
    28e0:	06561a00 	ldrbeq	r1, [r6], -r0, lsl #20
    28e4:	09010000 	stmdbeq	r1, {}	; <UNPREDICTABLE>
    28e8:	00013301 	andeq	r3, r1, r1, lsl #6
    28ec:	c4030500 	strgt	r0, [r3], #-1280	; 0x500
    28f0:	1a000099 	bne	2b5c <_start-0x54a4>
    28f4:	00000664 	andeq	r0, r0, r4, ror #12
    28f8:	33010a01 	movwcc	r0, #6657	; 0x1a01
    28fc:	05000001 	streq	r0, [r0, #-1]
    2900:	0099a403 	addseq	sl, r9, r3, lsl #8
    2904:	068b1a00 	streq	r1, [fp], r0, lsl #20
    2908:	0c010000 	stceq	0, cr0, [r1], {-0}
    290c:	00013301 	andeq	r3, r1, r1, lsl #6
    2910:	bc030500 	cfstr32lt	mvfx0, [r3], {-0}
    2914:	1a000099 	bne	2b80 <_start-0x5480>
    2918:	00000692 	muleq	r0, r2, r6
    291c:	33010d01 	movwcc	r0, #7425	; 0x1d01
    2920:	05000001 	streq	r0, [r0, #-1]
    2924:	0099c003 	addseq	ip, r9, r3
    2928:	06371a00 	ldrteq	r1, [r7], -r0, lsl #20
    292c:	0f010000 	svceq	0x00010000
    2930:	00013301 	andeq	r3, r1, r1, lsl #6
    2934:	a8030500 	stmdage	r3, {r8, sl}
    2938:	1a000099 	bne	2ba4 <_start-0x545c>
    293c:	0000063e 	andeq	r0, r0, lr, lsr r6
    2940:	33011001 	movwcc	r1, #4097	; 0x1001
    2944:	05000001 	streq	r0, [r0, #-1]
    2948:	0099ac03 	addseq	sl, r9, r3, lsl #24
    294c:	06991a00 	ldreq	r1, [r9], r0, lsl #20
    2950:	12010000 	andne	r0, r1, #0
    2954:	00013301 	andeq	r3, r1, r1, lsl #6
    2958:	b4030500 	strlt	r0, [r3], #-1280	; 0x500
    295c:	1a000099 	bne	2bc8 <_start-0x5438>
    2960:	000006a0 	andeq	r0, r0, r0, lsr #13
    2964:	33011301 	movwcc	r1, #4865	; 0x1301
    2968:	05000001 	streq	r0, [r0, #-1]
    296c:	0099b803 	addseq	fp, r9, r3, lsl #16
    2970:	05a71a00 	streq	r1, [r7, #2560]!	; 0xa00
    2974:	15010000 	strne	r0, [r1, #-0]
    2978:	00013301 	andeq	r3, r1, r1, lsl #6
    297c:	b0030500 	andlt	r0, r3, r0, lsl #10
    2980:	1b000099 	blne	2bec <_start-0x5414>
    2984:	000006b8 			; <UNDEFINED> instruction: 0x000006b8
    2988:	002c2001 	eoreq	r2, ip, r1
    298c:	08560000 	ldmdaeq	r6, {}^	; <UNPREDICTABLE>
    2990:	561c0000 	ldrpl	r0, [ip], -r0
    2994:	00000008 	andeq	r0, r0, r8
    2998:	085c040d 	ldmdaeq	ip, {r0, r2, r3, sl}^
    299c:	611d0000 	tstvs	sp, r0
    29a0:	1e000008 	cdpne	0, 0, cr0, cr0, cr8, {0}
    29a4:	0005a11f 	andeq	sl, r5, pc, lsl r1
    29a8:	781e0100 	ldmdavc	lr, {r8}
    29ac:	1c000008 	stcne	0, cr0, [r0], {8}
    29b0:	00000878 	andeq	r0, r0, r8, ror r8
    29b4:	00002c1c 	andeq	r2, r0, ip, lsl ip
    29b8:	040d0000 	streq	r0, [sp], #-0
    29bc:	00000861 	andeq	r0, r0, r1, ror #16
    29c0:	0005fa20 	andeq	pc, r5, r0, lsr #20
    29c4:	008a0300 	addeq	r0, sl, r0, lsl #6
    29c8:	000003ff 	strdeq	r0, [r0], -pc	; <UNPREDICTABLE>
    29cc:	0ccf0004 	stcleq	0, cr0, [pc], {4}
    29d0:	01040000 	mrseq	r0, (UNDEF: 4)
    29d4:	000002c2 	andeq	r0, r0, r2, asr #5
    29d8:	00082001 	andeq	r2, r8, r1
    29dc:	00032d00 	andeq	r2, r3, r0, lsl #26
    29e0:	0097b400 	addseq	fp, r7, r0, lsl #8
    29e4:	00015400 	andeq	r5, r1, r0, lsl #8
    29e8:	000bd100 	andeq	sp, fp, r0, lsl #2
    29ec:	05040200 	streq	r0, [r4, #-512]	; 0x200
    29f0:	00746e69 	rsbseq	r6, r4, r9, ror #28
    29f4:	3e070403 	cdpcc	4, 0, cr0, cr7, cr3, {0}
    29f8:	03000000 	movweq	r0, #0
    29fc:	01b90601 			; <UNDEFINED> instruction: 0x01b90601
    2a00:	02030000 	andeq	r0, r3, #0
    2a04:	0001c505 	andeq	ip, r1, r5, lsl #10
    2a08:	05040300 	streq	r0, [r4, #-768]	; 0x300
    2a0c:	00000061 	andeq	r0, r0, r1, rrx
    2a10:	5c050803 	stcpl	8, cr0, [r5], {3}
    2a14:	03000000 	movweq	r0, #0
    2a18:	01b70801 			; <UNDEFINED> instruction: 0x01b70801
    2a1c:	02030000 	andeq	r0, r3, #0
    2a20:	00016507 	andeq	r6, r1, r7, lsl #10
    2a24:	07040300 	streq	r0, [r4, -r0, lsl #6]
    2a28:	00000039 	andeq	r0, r0, r9, lsr r0
    2a2c:	34070803 	strcc	r0, [r7], #-2051	; 0x803
    2a30:	03000000 	movweq	r0, #0
    2a34:	01970704 	orrseq	r0, r7, r4, lsl #14
    2a38:	01030000 	mrseq	r0, (UNDEF: 3)
    2a3c:	0001c008 	andeq	ip, r1, r8
    2a40:	02010400 	andeq	r0, r1, #0, 8
    2a44:	0000b20c 	andeq	fp, r0, ip, lsl #4
    2a48:	05c10500 	strbeq	r0, [r1, #1280]	; 0x500
    2a4c:	05000000 	streq	r0, [r0, #-0]
    2a50:	000006a7 	andeq	r0, r0, r7, lsr #13
    2a54:	06e00501 	strbteq	r0, [r0], r1, lsl #10
    2a58:	05040000 	streq	r0, [r4, #-0]
    2a5c:	000006ef 	andeq	r0, r0, pc, ror #13
    2a60:	06fe0505 	ldrbteq	r0, [lr], r5, lsl #10
    2a64:	05060000 	streq	r0, [r6, #-0]
    2a68:	0000070d 	andeq	r0, r0, sp, lsl #14
    2a6c:	071c0507 	ldreq	r0, [ip, -r7, lsl #10]
    2a70:	05030000 	streq	r0, [r3, #-0]
    2a74:	0000072b 	andeq	r0, r0, fp, lsr #14
    2a78:	d4060002 	strle	r0, [r6], #-2
    2a7c:	02000006 	andeq	r0, r0, #6
    2a80:	00007915 	andeq	r7, r0, r5, lsl r9
    2a84:	079d0700 	ldreq	r0, [sp, r0, lsl #14]
    2a88:	37010000 	strcc	r0, [r1, -r0]
    2a8c:	000097b4 			; <UNDEFINED> instruction: 0x000097b4
    2a90:	0000009c 	muleq	r0, ip, r0
    2a94:	01c39c01 	biceq	r9, r3, r1, lsl #24
    2a98:	bc080000 	stclt	0, cr0, [r8], {-0}
    2a9c:	a8000097 	stmdage	r0, {r0, r1, r2, r4, r7}
    2aa0:	09000003 	stmdbeq	r0, {r0, r1}
    2aa4:	000097c8 	andeq	r9, r0, r8, asr #15
    2aa8:	000003af 	andeq	r0, r0, pc, lsr #7
    2aac:	000000f3 	strdeq	r0, [r0], -r3
    2ab0:	0151010a 	cmpeq	r1, sl, lsl #2
    2ab4:	50010a32 	andpl	r0, r1, r2, lsr sl
    2ab8:	09003e01 	stmdbeq	r0, {r0, r9, sl, fp, ip, sp}
    2abc:	000097d4 	ldrdeq	r9, [r0], -r4
    2ac0:	000003af 	andeq	r0, r0, pc, lsr #7
    2ac4:	0000010b 	andeq	r0, r0, fp, lsl #2
    2ac8:	0151010a 	cmpeq	r1, sl, lsl #2
    2acc:	50010a32 	andpl	r0, r1, r2, lsr sl
    2ad0:	08003f01 	stmdaeq	r0, {r0, r8, r9, sl, fp, ip, sp}
    2ad4:	000097d8 	ldrdeq	r9, [r0], -r8
    2ad8:	000003a8 	andeq	r0, r0, r8, lsr #7
    2adc:	0097e809 	addseq	lr, r7, r9, lsl #16
    2ae0:	0003c500 	andeq	ip, r3, r0, lsl #10
    2ae4:	00012800 	andeq	r2, r1, r0, lsl #16
    2ae8:	50010a00 	andpl	r0, r1, r0, lsl #20
    2aec:	00007502 	andeq	r7, r0, r2, lsl #10
    2af0:	0097f409 	addseq	pc, r7, r9, lsl #8
    2af4:	0003e600 	andeq	lr, r3, r0, lsl #12
    2af8:	00013c00 	andeq	r3, r1, r0, lsl #24
    2afc:	50010a00 	andpl	r0, r1, r0, lsl #20
    2b00:	00007502 	andeq	r7, r0, r2, lsl #10
    2b04:	0097f808 	addseq	pc, r7, r8, lsl #16
    2b08:	0003a800 	andeq	sl, r3, r0, lsl #16
    2b0c:	98040900 	stmdals	r4, {r8, fp}
    2b10:	03e60000 	mvneq	r0, #0
    2b14:	01580000 	cmpeq	r8, r0
    2b18:	010a0000 	mrseq	r0, (UNDEF: 10)
    2b1c:	00300151 	eorseq	r0, r0, r1, asr r1
    2b20:	00981009 	addseq	r1, r8, r9
    2b24:	0003e600 	andeq	lr, r3, r0, lsl #12
    2b28:	00016b00 	andeq	r6, r1, r0, lsl #22
    2b2c:	51010a00 	tstpl	r1, r0, lsl #20
    2b30:	09003001 	stmdbeq	r0, {r0, ip, sp}
    2b34:	0000981c 	andeq	r9, r0, ip, lsl r8
    2b38:	000003e6 	andeq	r0, r0, r6, ror #7
    2b3c:	0000017e 	andeq	r0, r0, lr, ror r1
    2b40:	0151010a 	cmpeq	r1, sl, lsl #2
    2b44:	28090036 	stmdacs	r9, {r1, r2, r4, r5}
    2b48:	e6000098 			; <UNDEFINED> instruction: 0xe6000098
    2b4c:	91000003 	tstls	r0, r3
    2b50:	0a000001 	beq	2b5c <_start-0x54a4>
    2b54:	33015101 	movwcc	r5, #4353	; 0x1101
    2b58:	98340900 	ldmdals	r4!, {r8, fp}
    2b5c:	03e60000 	mvneq	r0, #0
    2b60:	01a60000 			; <UNDEFINED> instruction: 0x01a60000
    2b64:	010a0000 	mrseq	r0, (UNDEF: 10)
    2b68:	0e0a0351 	mcreq	3, 0, r0, cr10, cr1, {2}
    2b6c:	40090001 	andmi	r0, r9, r1
    2b70:	e6000098 			; <UNDEFINED> instruction: 0xe6000098
    2b74:	b9000003 	stmdblt	r0, {r0, r1}
    2b78:	0a000001 	beq	2b84 <_start-0x547c>
    2b7c:	33015101 	movwcc	r5, #4353	; 0x1101
    2b80:	98440800 	stmdals	r4, {fp}^
    2b84:	03a80000 			; <UNDEFINED> instruction: 0x03a80000
    2b88:	0b000000 	bleq	2b90 <_start-0x5470>
    2b8c:	00000771 	andeq	r0, r0, r1, ror r7
    2b90:	00255701 	eoreq	r5, r5, r1, lsl #14
    2b94:	98500000 	ldmdals	r0, {}^	; <UNPREDICTABLE>
    2b98:	001c0000 	andseq	r0, ip, r0
    2b9c:	9c010000 	stcls	0, cr0, [r1], {-0}
    2ba0:	000001e6 	andeq	r0, r0, r6, ror #3
    2ba4:	00986008 	addseq	r6, r8, r8
    2ba8:	0003c500 	andeq	ip, r3, r0, lsl #10
    2bac:	b60b0000 	strlt	r0, [fp], -r0
    2bb0:	01000007 	tsteq	r0, r7
    2bb4:	0000255d 	andeq	r2, r0, sp, asr r5
    2bb8:	00986c00 	addseq	r6, r8, r0, lsl #24
    2bbc:	00002800 	andeq	r2, r0, r0, lsl #16
    2bc0:	129c0100 	addsne	r0, ip, #0, 2
    2bc4:	08000002 	stmdaeq	r0, {r1}
    2bc8:	00009874 	andeq	r9, r0, r4, ror r8
    2bcc:	000001c3 	andeq	r0, r0, r3, asr #3
    2bd0:	00988808 	addseq	r8, r8, r8, lsl #16
    2bd4:	0003c500 	andeq	ip, r3, r0, lsl #10
    2bd8:	cf0b0000 	svcgt	0x000b0000
    2bdc:	01000007 	tsteq	r0, r7
    2be0:	00002564 	andeq	r2, r0, r4, ror #10
    2be4:	00989400 	addseq	r9, r8, r0, lsl #8
    2be8:	00001c00 	andeq	r1, r0, r0, lsl #24
    2bec:	359c0100 	ldrcc	r0, [ip, #256]	; 0x100
    2bf0:	08000002 	stmdaeq	r0, {r1}
    2bf4:	000098a4 	andeq	r9, r0, r4, lsr #17
    2bf8:	000003c5 	andeq	r0, r0, r5, asr #7
    2bfc:	037b0700 	cmneq	fp, #0, 14
    2c00:	6a010000 	bvs	42c08 <__bss_end__+0x38c40>
    2c04:	000098b0 			; <UNDEFINED> instruction: 0x000098b0
    2c08:	0000002c 	andeq	r0, r0, ip, lsr #32
    2c0c:	02719c01 	rsbseq	r9, r1, #256	; 0x100
    2c10:	630c0000 	movwvs	r0, #49152	; 0xc000
    2c14:	2c6a0100 	stfcse	f0, [sl], #-0
    2c18:	d0000000 	andle	r0, r0, r0
    2c1c:	08000022 	stmdaeq	r0, {r1, r5}
    2c20:	000098bc 			; <UNDEFINED> instruction: 0x000098bc
    2c24:	00000212 	andeq	r0, r0, r2, lsl r2
    2c28:	0098d40d 	addseq	sp, r8, sp, lsl #8
    2c2c:	0003e600 	andeq	lr, r3, r0, lsl #12
    2c30:	51010a00 	tstpl	r1, r0, lsl #20
    2c34:	00007402 	andeq	r7, r0, r2, lsl #8
    2c38:	078f0b00 	streq	r0, [pc, r0, lsl #22]
    2c3c:	74010000 	strvc	r0, [r1], #-0
    2c40:	00000025 	andeq	r0, r0, r5, lsr #32
    2c44:	000098dc 	ldrdeq	r9, [r0], -ip
    2c48:	0000000c 	andeq	r0, r0, ip
    2c4c:	02949c01 	addseq	r9, r4, #256	; 0x100
    2c50:	e4080000 	str	r0, [r8], #-0
    2c54:	c3000098 	movwgt	r0, #152	; 0x98
    2c58:	00000001 	andeq	r0, r0, r1
    2c5c:	00084c0b 	andeq	r4, r8, fp, lsl #24
    2c60:	25780100 	ldrbcs	r0, [r8, #-256]!	; 0x100
    2c64:	e8000000 	stmda	r0, {}	; <UNPREDICTABLE>
    2c68:	20000098 	mulcs	r0, r8, r0
    2c6c:	01000000 	mrseq	r0, (UNDEF: 0)
    2c70:	0002c09c 	muleq	r2, ip, r0
    2c74:	98f00800 	ldmls	r0!, {fp}^
    2c78:	02710000 	rsbseq	r0, r1, #0
    2c7c:	fc080000 	stc2	0, cr0, [r8], {-0}
    2c80:	e6000098 			; <UNDEFINED> instruction: 0xe6000098
    2c84:	00000001 	andeq	r0, r0, r1
    2c88:	0007e90e 	andeq	lr, r7, lr, lsl #18
    2c8c:	d1160100 	tstle	r6, r0, lsl #2
    2c90:	05000002 	streq	r0, [r0, #-2]
    2c94:	009a0403 	addseq	r0, sl, r3, lsl #8
    2c98:	d7040f00 	strle	r0, [r4, -r0, lsl #30]
    2c9c:	10000002 	andne	r0, r0, r2
    2ca0:	0000002c 	andeq	r0, r0, ip, lsr #32
    2ca4:	0007dd0e 	andeq	sp, r7, lr, lsl #26
    2ca8:	d1170100 	tstle	r7, r0, lsl #2
    2cac:	05000002 	streq	r0, [r0, #-2]
    2cb0:	0099d403 	addseq	sp, r9, r3, lsl #8
    2cb4:	07540e00 	ldrbeq	r0, [r4, -r0, lsl #28]
    2cb8:	1a010000 	bne	42cc0 <__bss_end__+0x38cf8>
    2cbc:	000002d1 	ldrdeq	r0, [r0], -r1
    2cc0:	99f00305 	ldmibls	r0!, {r0, r2, r8, r9}^
    2cc4:	a70e0000 	strge	r0, [lr, -r0]
    2cc8:	01000007 	tsteq	r0, r7
    2ccc:	0002d11b 	andeq	sp, r2, fp, lsl r1
    2cd0:	dc030500 	cfstr32le	mvfx0, [r3], {-0}
    2cd4:	0e000099 	mcreq	0, 0, r0, cr0, cr9, {4}
    2cd8:	000007c0 	andeq	r0, r0, r0, asr #15
    2cdc:	02d11c01 	sbcseq	r1, r1, #256	; 0x100
    2ce0:	03050000 	movweq	r0, #20480	; 0x5000
    2ce4:	000099e0 	andeq	r9, r0, r0, ror #19
    2ce8:	00082e0e 	andeq	r2, r8, lr, lsl #28
    2cec:	d11d0100 	tstle	sp, r0, lsl #2
    2cf0:	05000002 	streq	r0, [r0, #-2]
    2cf4:	0099e403 	addseq	lr, r9, r3, lsl #8
    2cf8:	07450e00 	strbeq	r0, [r5, -r0, lsl #28]
    2cfc:	1e010000 	cdpne	0, 0, cr0, cr1, cr0, {0}
    2d00:	000002d1 	ldrdeq	r0, [r0], -r1
    2d04:	9a000305 	bls	3920 <_start-0x46e0>
    2d08:	3d0e0000 	stccc	0, cr0, [lr, #-0]
    2d0c:	01000008 	tsteq	r0, r8
    2d10:	0002d11f 	andeq	sp, r2, pc, lsl r1
    2d14:	ec030500 	cfstr32	mvfx0, [r3], {-0}
    2d18:	0e000099 	mcreq	0, 0, r0, cr0, cr9, {4}
    2d1c:	00000762 	andeq	r0, r0, r2, ror #14
    2d20:	02d12001 	sbcseq	r2, r1, #1
    2d24:	03050000 	movweq	r0, #20480	; 0x5000
    2d28:	000099fc 	strdeq	r9, [r0], -ip
    2d2c:	0008110e 	andeq	r1, r8, lr, lsl #2
    2d30:	d1210100 	teqle	r1, r0, lsl #2
    2d34:	05000002 	streq	r0, [r0, #-2]
    2d38:	0099f803 	addseq	pc, r9, r3, lsl #16
    2d3c:	077f0e00 	ldrbeq	r0, [pc, -r0, lsl #28]!
    2d40:	22010000 	andcs	r0, r1, #0
    2d44:	000002d1 	ldrdeq	r0, [r0], -r1
    2d48:	99d80305 	ldmibls	r8, {r0, r2, r8, r9}^
    2d4c:	010e0000 	mrseq	r0, (UNDEF: 14)
    2d50:	01000008 	tsteq	r0, r8
    2d54:	0002d123 	andeq	sp, r2, r3, lsr #2
    2d58:	f4030500 	vst3.8	{d0,d2,d4}, [r3], r0
    2d5c:	0e000099 	mcreq	0, 0, r0, cr0, cr9, {4}
    2d60:	000007f1 	strdeq	r0, [r0], -r1
    2d64:	02d12401 	sbcseq	r2, r1, #16777216	; 0x1000000
    2d68:	03050000 	movweq	r0, #20480	; 0x5000
    2d6c:	000099e8 	andeq	r9, r0, r8, ror #19
    2d70:	0005fa11 	andeq	pc, r5, r1, lsl sl	; <UNPREDICTABLE>
    2d74:	128a0300 	addne	r0, sl, #0, 6
    2d78:	00000625 	andeq	r0, r0, r5, lsr #12
    2d7c:	03c51902 	biceq	r1, r5, #32768	; 0x8000
    2d80:	2c130000 	ldccs	0, cr0, [r3], {-0}
    2d84:	13000000 	movwne	r0, #0
    2d88:	000000b2 	strheq	r0, [r0], -r2
    2d8c:	06b81400 	ldrteq	r1, [r8], r0, lsl #8
    2d90:	a9030000 	stmdbge	r3, {}	; <UNPREDICTABLE>
    2d94:	0000002c 	andeq	r0, r0, ip, lsr #32
    2d98:	000003da 	ldrdeq	r0, [r0], -sl
    2d9c:	0003da13 	andeq	sp, r3, r3, lsl sl
    2da0:	040f0000 	streq	r0, [pc], #-0	; 2da8 <_start-0x5258>
    2da4:	000003e0 	andeq	r0, r0, r0, ror #7
    2da8:	0003e515 	andeq	lr, r3, r5, lsl r5
    2dac:	a1121600 	tstge	r2, r0, lsl #12
    2db0:	03000005 	movweq	r0, #5
    2db4:	0003fc9d 	muleq	r3, sp, ip
    2db8:	03fc1300 	mvnseq	r1, #0, 6
    2dbc:	2c130000 	ldccs	0, cr0, [r3], {-0}
    2dc0:	00000000 	andeq	r0, r0, r0
    2dc4:	03e5040f 	mvneq	r0, #251658240	; 0xf000000
    2dc8:	Address 0x0000000000002dc8 is out of bounds.


Disassembly of section .debug_abbrev:

00000000 <.debug_abbrev>:
   0:	25011101 	strcs	r1, [r1, #-257]	; 0x101
   4:	030b130e 	movweq	r1, #45838	; 0xb30e
   8:	110e1b0e 	tstne	lr, lr, lsl #22
   c:	10061201 	andne	r1, r6, r1, lsl #4
  10:	02000017 	andeq	r0, r0, #23
  14:	0b0b0024 	bleq	2c00ac <__bss_end__+0x2b60e4>
  18:	08030b3e 	stmdaeq	r3, {r1, r2, r3, r4, r5, r8, r9, fp}
  1c:	24030000 	strcs	r0, [r3], #-0
  20:	3e0b0b00 	vmlacc.f64	d0, d11, d0
  24:	000e030b 	andeq	r0, lr, fp, lsl #6
  28:	00160400 	andseq	r0, r6, r0, lsl #8
  2c:	0b3a0e03 	bleq	e83840 <__bss_end__+0xe79878>
  30:	13490b3b 	movtne	r0, #39739	; 0x9b3b
  34:	0f050000 	svceq	0x00050000
  38:	490b0b00 	stmdbmi	fp, {r8, r9, fp}
  3c:	06000013 			; <UNDEFINED> instruction: 0x06000013
  40:	13490026 	movtne	r0, #36902	; 0x9026
  44:	13070000 	movwne	r0, #28672	; 0x7000
  48:	3a0b0b01 	bcc	2c2c54 <__bss_end__+0x2b8c8c>
  4c:	010b3b0b 	tsteq	fp, fp, lsl #22
  50:	08000013 	stmdaeq	r0, {r0, r1, r4}
  54:	0803000d 	stmdaeq	r3, {r0, r2, r3}
  58:	0b3b0b3a 	bleq	ec2d48 <__bss_end__+0xeb8d80>
  5c:	0b381349 	bleq	e04d88 <__bss_end__+0xdfadc0>
  60:	0d090000 	stceq	0, cr0, [r9, #-0]
  64:	3a0e0300 	bcc	380c6c <__bss_end__+0x376ca4>
  68:	490b3b0b 	stmdbmi	fp, {r0, r1, r3, r8, r9, fp, ip, sp}
  6c:	000b3813 	andeq	r3, fp, r3, lsl r8
  70:	012e0a00 	teqeq	lr, r0, lsl #20
  74:	0b3a0e03 	bleq	e83888 <__bss_end__+0xe798c0>
  78:	19270b3b 	stmdbne	r7!, {r0, r1, r3, r4, r5, r8, r9, fp}
  7c:	13010b20 	movwne	r0, #6944	; 0x1b20
  80:	050b0000 	streq	r0, [fp, #-0]
  84:	3a080300 	bcc	200c8c <__bss_end__+0x1f6cc4>
  88:	490b3b0b 	stmdbmi	fp, {r0, r1, r3, r8, r9, fp, ip, sp}
  8c:	0c000013 	stceq	0, cr0, [r0], {19}
  90:	0e030034 	mcreq	0, 0, r0, cr3, cr4, {1}
  94:	0b3b0b3a 	bleq	ec2d84 <__bss_end__+0xeb8dbc>
  98:	00001349 	andeq	r1, r0, r9, asr #6
  9c:	3f012e0d 	svccc	0x00012e0d
  a0:	3a0e0319 	bcc	380d0c <__bss_end__+0x376d44>
  a4:	270b3b0b 	strcs	r3, [fp, -fp, lsl #22]
  a8:	11134919 	tstne	r3, r9, lsl r9
  ac:	40061201 	andmi	r1, r6, r1, lsl #4
  b0:	19429718 	stmdbne	r2, {r3, r4, r8, r9, sl, ip, pc}^
  b4:	00001301 	andeq	r1, r0, r1, lsl #6
  b8:	0300050e 	movweq	r0, #1294	; 0x50e
  bc:	3b0b3a08 	blcc	2ce8e4 <__bss_end__+0x2c491c>
  c0:	0213490b 	andseq	r4, r3, #180224	; 0x2c000
  c4:	0f000017 	svceq	0x00000017
  c8:	0e030034 	mcreq	0, 0, r0, cr3, cr4, {1}
  cc:	19341349 	ldmdbne	r4!, {r0, r3, r6, r8, r9, ip}
  d0:	00001802 	andeq	r1, r0, r2, lsl #16
  d4:	03003410 	movweq	r3, #1040	; 0x410
  d8:	3b0b3a0e 	blcc	2ce918 <__bss_end__+0x2c4950>
  dc:	0213490b 	andseq	r4, r3, #180224	; 0x2c000
  e0:	11000017 	tstne	r0, r7, lsl r0
  e4:	0111010b 	tsteq	r1, fp, lsl #2
  e8:	13010612 	movwne	r0, #5650	; 0x1612
  ec:	89120000 	ldmdbhi	r2, {}	; <UNPREDICTABLE>
  f0:	11010182 	smlabbne	r1, r2, r1, r0
  f4:	01133101 	tsteq	r3, r1, lsl #2
  f8:	13000013 	movwne	r0, #19
  fc:	0001828a 	andeq	r8, r1, sl, lsl #5
 100:	42911802 	addsmi	r1, r1, #131072	; 0x20000
 104:	14000018 	strne	r0, [r0], #-24
 108:	00018289 	andeq	r8, r1, r9, lsl #5
 10c:	13310111 	teqne	r1, #1073741828	; 0x40000004
 110:	01150000 	tsteq	r5, r0
 114:	01134901 	tsteq	r3, r1, lsl #18
 118:	16000013 			; <UNDEFINED> instruction: 0x16000013
 11c:	13490021 	movtne	r0, #36897	; 0x9021
 120:	00000b2f 	andeq	r0, r0, pc, lsr #22
 124:	3f012e17 	svccc	0x00012e17
 128:	3a0e0319 	bcc	380d94 <__bss_end__+0x376dcc>
 12c:	270b3b0b 	strcs	r3, [fp, -fp, lsl #22]
 130:	20134919 	andscs	r4, r3, r9, lsl r9
 134:	0013010b 	andseq	r0, r3, fp, lsl #2
 138:	00051800 	andeq	r1, r5, r0, lsl #16
 13c:	0b3a0e03 	bleq	e83950 <__bss_end__+0xe79988>
 140:	13490b3b 	movtne	r0, #39739	; 0x9b3b
 144:	34190000 	ldrcc	r0, [r9], #-0
 148:	3a080300 	bcc	200d50 <__bss_end__+0x1f6d88>
 14c:	490b3b0b 	stmdbmi	fp, {r0, r1, r3, r8, r9, fp, ip, sp}
 150:	1a000013 	bne	1a4 <_start-0x7e5c>
 154:	1301010b 	movwne	r0, #4363	; 0x110b
 158:	0b1b0000 	bleq	6c0160 <__bss_end__+0x6b6198>
 15c:	1c000001 	stcne	0, cr0, [r0], {1}
 160:	1331012e 	teqne	r1, #-2147483637	; 0x8000000b
 164:	06120111 			; <UNDEFINED> instruction: 0x06120111
 168:	42971840 	addsmi	r1, r7, #64, 16	; 0x400000
 16c:	00130119 	andseq	r0, r3, r9, lsl r1
 170:	00051d00 	andeq	r1, r5, r0, lsl #26
 174:	17021331 	smladxne	r2, r1, r3, r1
 178:	341e0000 	ldrcc	r0, [lr], #-0
 17c:	02133100 	andseq	r3, r3, #0, 2
 180:	1f000017 	svcne	0x00000017
 184:	13310034 	teqne	r1, #52	; 0x34
 188:	00000b1c 	andeq	r0, r0, ip, lsl fp
 18c:	31003420 	tstcc	r0, r0, lsr #8
 190:	00180213 	andseq	r0, r8, r3, lsl r2
 194:	010b2100 	mrseq	r2, (UNDEF: 27)
 198:	06120111 			; <UNDEFINED> instruction: 0x06120111
 19c:	2e220000 	cdpcs	0, 2, cr0, cr2, cr0, {0}
 1a0:	03193f01 	tsteq	r9, #1, 30
 1a4:	3b0b3a0e 	blcc	2ce9e4 <__bss_end__+0x2c4a1c>
 1a8:	1119270b 	tstne	r9, fp, lsl #14
 1ac:	40061201 	andmi	r1, r6, r1, lsl #4
 1b0:	19429718 	stmdbne	r2, {r3, r4, r8, r9, sl, ip, pc}^
 1b4:	00001301 	andeq	r1, r0, r1, lsl #6
 1b8:	03000523 	movweq	r0, #1315	; 0x523
 1bc:	3b0b3a0e 	blcc	2ce9fc <__bss_end__+0x2c4a34>
 1c0:	0213490b 	andseq	r4, r3, #180224	; 0x2c000
 1c4:	24000018 	strcs	r0, [r0], #-24
 1c8:	0e030005 	cdpeq	0, 0, cr0, cr3, cr5, {0}
 1cc:	0b3b0b3a 	bleq	ec2ebc <__bss_end__+0xeb8ef4>
 1d0:	17021349 	strne	r1, [r2, -r9, asr #6]
 1d4:	34250000 	strtcc	r0, [r5], #-0
 1d8:	3a080300 	bcc	200de0 <__bss_end__+0x1f6e18>
 1dc:	490b3b0b 	stmdbmi	fp, {r0, r1, r3, r8, r9, fp, ip, sp}
 1e0:	000b1c13 	andeq	r1, fp, r3, lsl ip
 1e4:	00342600 	eorseq	r2, r4, r0, lsl #12
 1e8:	0b3a0e03 	bleq	e839fc <__bss_end__+0xe79a34>
 1ec:	13490b3b 	movtne	r0, #39739	; 0x9b3b
 1f0:	00001802 	andeq	r1, r0, r2, lsl #16
 1f4:	31011d27 	tstcc	r1, r7, lsr #26
 1f8:	12011113 	andne	r1, r1, #-1073741820	; 0xc0000004
 1fc:	590b5806 	stmdbpl	fp, {r1, r2, fp, ip, lr}
 200:	0013010b 	andseq	r0, r3, fp, lsl #2
 204:	011d2800 	tsteq	sp, r0, lsl #16
 208:	01521331 	cmpeq	r2, r1, lsr r3
 20c:	0b581755 	bleq	1605f68 <__bss_end__+0x15fbfa0>
 210:	13010b59 	movwne	r0, #7001	; 0x1b59
 214:	0b290000 	bleq	a4021c <__bss_end__+0xa36254>
 218:	01175501 	tsteq	r7, r1, lsl #10
 21c:	2a000013 	bcs	270 <_start-0x7d90>
 220:	1331011d 	teqne	r1, #1073741831	; 0x40000007
 224:	17550152 			; <UNDEFINED> instruction: 0x17550152
 228:	0b590b58 	bleq	1642f90 <__bss_end__+0x1638fc8>
 22c:	052b0000 	streq	r0, [fp, #-0]!
 230:	00133100 	andseq	r3, r3, r0, lsl #2
 234:	00052c00 	andeq	r2, r5, r0, lsl #24
 238:	0b1c1331 	bleq	704f04 <__bss_end__+0x6faf3c>
 23c:	052d0000 	streq	r0, [sp, #-0]!
 240:	1c133100 	ldfnes	f3, [r3], {-0}
 244:	2e000005 	cdpcs	0, 0, cr0, cr0, cr5, {0}
 248:	1755010b 	ldrbne	r0, [r5, -fp, lsl #2]
 24c:	052f0000 	streq	r0, [pc, #-0]!	; 254 <_start-0x7dac>
 250:	02133100 	andseq	r3, r3, #0, 2
 254:	30000018 	andcc	r0, r0, r8, lsl r0
 258:	01018289 	smlabbeq	r1, r9, r2, r8
 25c:	13310111 	teqne	r1, #1073741828	; 0x40000004
 260:	34310000 	ldrtcc	r0, [r1], #-0
 264:	3a0e0300 	bcc	380e6c <__bss_end__+0x376ea4>
 268:	490b3b0b 	stmdbmi	fp, {r0, r1, r3, r8, r9, fp, ip, sp}
 26c:	00061c13 	andeq	r1, r6, r3, lsl ip
 270:	00353200 	eorseq	r3, r5, r0, lsl #4
 274:	00001349 	andeq	r1, r0, r9, asr #6
 278:	03003433 	movweq	r3, #1075	; 0x433
 27c:	3b0b3a08 	blcc	2ceaa4 <__bss_end__+0x2c4adc>
 280:	0213490b 	andseq	r4, r3, #180224	; 0x2c000
 284:	34000018 	strcc	r0, [r0], #-24
 288:	193f012e 	ldmdbne	pc!, {r1, r2, r3, r5, r8}	; <UNPREDICTABLE>
 28c:	0b3a0e03 	bleq	e83aa0 <__bss_end__+0xe79ad8>
 290:	19270b3b 	stmdbne	r7!, {r0, r1, r3, r4, r5, r8, r9, fp}
 294:	1301193c 	movwne	r1, #6460	; 0x193c
 298:	05350000 	ldreq	r0, [r5, #-0]!
 29c:	00134900 	andseq	r4, r3, r0, lsl #18
 2a0:	002e3600 	eoreq	r3, lr, r0, lsl #12
 2a4:	0e03193f 	mcreq	9, 0, r1, cr3, cr15, {1}
 2a8:	0b3b0b3a 	bleq	ec2f98 <__bss_end__+0xeb8fd0>
 2ac:	193c1927 	ldmdbne	ip!, {r0, r1, r2, r5, r8, fp, ip}
 2b0:	2e370000 	cdpcs	0, 3, cr0, cr7, cr0, {0}
 2b4:	03193f01 	tsteq	r9, #1, 30
 2b8:	3b0b3a0e 	blcc	2ceaf8 <__bss_end__+0x2c4b30>
 2bc:	4919270b 	ldmdbmi	r9, {r0, r1, r3, r8, r9, sl, sp}
 2c0:	01193c13 	tsteq	r9, r3, lsl ip
 2c4:	38000013 	stmdacc	r0, {r0, r1, r4}
 2c8:	00000018 	andeq	r0, r0, r8, lsl r0
 2cc:	01110100 	tsteq	r1, r0, lsl #2
 2d0:	0b130e25 	bleq	4c3b6c <__bss_end__+0x4b9ba4>
 2d4:	0e1b0e03 	cdpeq	14, 1, cr0, cr11, cr3, {0}
 2d8:	06120111 			; <UNDEFINED> instruction: 0x06120111
 2dc:	00001710 	andeq	r1, r0, r0, lsl r7
 2e0:	03001602 	movweq	r1, #1538	; 0x602
 2e4:	3b0b3a0e 	blcc	2ceb24 <__bss_end__+0x2c4b5c>
 2e8:	0013490b 	andseq	r4, r3, fp, lsl #18
 2ec:	01130300 	tsteq	r3, r0, lsl #6
 2f0:	0b0b0e03 	bleq	2c3b04 <__bss_end__+0x2b9b3c>
 2f4:	0b3b0b3a 	bleq	ec2fe4 <__bss_end__+0xeb901c>
 2f8:	00001301 	andeq	r1, r0, r1, lsl #6
 2fc:	03000d04 	movweq	r0, #3332	; 0xd04
 300:	3813490e 	ldmdacc	r3, {r1, r2, r3, r8, fp, lr}
 304:	0019340b 	andseq	r3, r9, fp, lsl #8
 308:	000f0500 	andeq	r0, pc, r0, lsl #10
 30c:	00000b0b 	andeq	r0, r0, fp, lsl #22
 310:	0b002406 	bleq	9330 <gpio_set_off+0x10>
 314:	030b3e0b 	movweq	r3, #48651	; 0xbe0b
 318:	07000008 	streq	r0, [r0, -r8]
 31c:	0b0b0024 	bleq	2c03b4 <__bss_end__+0x2b63ec>
 320:	0e030b3e 	vmoveq.16	d3[0], r0
 324:	0f080000 	svceq	0x00080000
 328:	490b0b00 	stmdbmi	fp, {r8, r9, fp}
 32c:	09000013 	stmdbeq	r0, {r0, r1, r4}
 330:	13490026 	movtne	r0, #36902	; 0x9026
 334:	2e0a0000 	cdpcs	0, 0, cr0, cr10, cr0, {0}
 338:	03193f01 	tsteq	r9, #1, 30
 33c:	3b0b3a0e 	blcc	2ceb7c <__bss_end__+0x2c4bb4>
 340:	4919270b 	ldmdbmi	r9, {r0, r1, r3, r8, r9, sl, sp}
 344:	12011113 	andne	r1, r1, #-1073741820	; 0xc0000004
 348:	97184006 	ldrls	r4, [r8, -r6]
 34c:	13011942 	movwne	r1, #6466	; 0x1942
 350:	050b0000 	streq	r0, [fp, #-0]
 354:	3a080300 	bcc	200f5c <__bss_end__+0x1f6f94>
 358:	490b3b0b 	stmdbmi	fp, {r0, r1, r3, r8, r9, fp, ip, sp}
 35c:	00180213 	andseq	r0, r8, r3, lsl r2
 360:	00180c00 	andseq	r0, r8, r0, lsl #24
 364:	340d0000 	strcc	r0, [sp], #-0
 368:	3a080300 	bcc	200f70 <__bss_end__+0x1f6fa8>
 36c:	490b3b0b 	stmdbmi	fp, {r0, r1, r3, r8, r9, fp, ip, sp}
 370:	00180213 	andseq	r0, r8, r3, lsl r2
 374:	00340e00 	eorseq	r0, r4, r0, lsl #28
 378:	0b3a0e03 	bleq	e83b8c <__bss_end__+0xe79bc4>
 37c:	13490b3b 	movtne	r0, #39739	; 0x9b3b
 380:	00001802 	andeq	r1, r0, r2, lsl #16
 384:	0300340f 	movweq	r3, #1039	; 0x40f
 388:	3b0b3a08 	blcc	2cebb0 <__bss_end__+0x2c4be8>
 38c:	0213490b 	andseq	r4, r3, #180224	; 0x2c000
 390:	10000017 	andne	r0, r0, r7, lsl r0
 394:	01018289 	smlabbeq	r1, r9, r2, r8
 398:	13310111 	teqne	r1, #1073741828	; 0x40000004
 39c:	00001301 	andeq	r1, r0, r1, lsl #6
 3a0:	01828a11 	orreq	r8, r2, r1, lsl sl
 3a4:	91180200 	tstls	r8, r0, lsl #4
 3a8:	00001842 	andeq	r1, r0, r2, asr #16
 3ac:	01828912 	orreq	r8, r2, r2, lsl r9
 3b0:	00011101 	andeq	r1, r1, r1, lsl #2
 3b4:	01011300 	mrseq	r1, SP_irq
 3b8:	13011349 	movwne	r1, #4937	; 0x1349
 3bc:	21140000 	tstcs	r4, r0
 3c0:	2f134900 	svccs	0x00134900
 3c4:	15000005 	strne	r0, [r0, #-5]
 3c8:	19270115 	stmdbne	r7!, {r0, r2, r4, r8}
 3cc:	13011349 	movwne	r1, #4937	; 0x1349
 3d0:	05160000 	ldreq	r0, [r6, #-0]
 3d4:	00134900 	andseq	r4, r3, r0, lsl #18
 3d8:	00341700 	eorseq	r1, r4, r0, lsl #14
 3dc:	0b3a0e03 	bleq	e83bf0 <__bss_end__+0xe79c28>
 3e0:	13490b3b 	movtne	r0, #39739	; 0x9b3b
 3e4:	193c193f 	ldmdbne	ip!, {r0, r1, r2, r3, r4, r5, r8, fp, ip}
 3e8:	2e180000 	cdpcs	0, 1, cr0, cr8, cr0, {0}
 3ec:	03193f01 	tsteq	r9, #1, 30
 3f0:	3b0b3a0e 	blcc	2cec30 <__bss_end__+0x2c4c68>
 3f4:	4919270b 	ldmdbmi	r9, {r0, r1, r3, r8, r9, sl, sp}
 3f8:	00193c13 	andseq	r3, r9, r3, lsl ip
 3fc:	11010000 	mrsne	r0, (UNDEF: 1)
 400:	130e2501 	movwne	r2, #58625	; 0xe501
 404:	1b0e030b 	blne	381038 <__bss_end__+0x377070>
 408:	1201110e 	andne	r1, r1, #-2147483645	; 0x80000003
 40c:	00171006 	andseq	r1, r7, r6
 410:	00240200 	eoreq	r0, r4, r0, lsl #4
 414:	0b3e0b0b 	bleq	f83048 <__bss_end__+0xf79080>
 418:	00000803 	andeq	r0, r0, r3, lsl #16
 41c:	0b002403 	bleq	9430 <gpio_read+0xc>
 420:	030b3e0b 	movweq	r3, #48651	; 0xbe0b
 424:	0400000e 	streq	r0, [r0], #-14
 428:	0e03012e 	adfeqsp	f0, f3, #0.5
 42c:	0b3b0b3a 	bleq	ec311c <__bss_end__+0xeb9154>
 430:	13491927 	movtne	r1, #39207	; 0x9927
 434:	06120111 			; <UNDEFINED> instruction: 0x06120111
 438:	42971840 	addsmi	r1, r7, #64, 16	; 0x400000
 43c:	00130119 	andseq	r0, r3, r9, lsl r1
 440:	00050500 	andeq	r0, r5, r0, lsl #10
 444:	0b3a0803 	bleq	e82458 <__bss_end__+0xe78490>
 448:	13490b3b 	movtne	r0, #39739	; 0x9b3b
 44c:	00001702 	andeq	r1, r0, r2, lsl #14
 450:	01828906 	orreq	r8, r2, r6, lsl #18
 454:	31011101 	tstcc	r1, r1, lsl #2
 458:	07000013 	smladeq	r0, r3, r0, r0
 45c:	0001828a 	andeq	r8, r1, sl, lsl #5
 460:	42911802 	addsmi	r1, r1, #131072	; 0x20000
 464:	08000018 	stmdaeq	r0, {r3, r4}
 468:	193f002e 	ldmdbne	pc!, {r1, r2, r3, r5}	; <UNPREDICTABLE>
 46c:	0b3a0e03 	bleq	e83c80 <__bss_end__+0xe79cb8>
 470:	19270b3b 	stmdbne	r7!, {r0, r1, r3, r4, r5, r8, r9, fp}
 474:	06120111 			; <UNDEFINED> instruction: 0x06120111
 478:	42971840 	addsmi	r1, r7, #64, 16	; 0x400000
 47c:	09000019 	stmdbeq	r0, {r0, r3, r4}
 480:	193f012e 	ldmdbne	pc!, {r1, r2, r3, r5, r8}	; <UNPREDICTABLE>
 484:	0b3a0e03 	bleq	e83c98 <__bss_end__+0xe79cd0>
 488:	19270b3b 	stmdbne	r7!, {r0, r1, r3, r4, r5, r8, r9, fp}
 48c:	06120111 			; <UNDEFINED> instruction: 0x06120111
 490:	42971840 	addsmi	r1, r7, #64, 16	; 0x400000
 494:	00130119 	andseq	r0, r3, r9, lsl r1
 498:	00050a00 	andeq	r0, r5, r0, lsl #20
 49c:	0b3a0803 	bleq	e824b0 <__bss_end__+0xe784e8>
 4a0:	13490b3b 	movtne	r0, #39739	; 0x9b3b
 4a4:	00001802 	andeq	r1, r0, r2, lsl #16
 4a8:	2701150b 	strcs	r1, [r1, -fp, lsl #10]
 4ac:	01134919 	tsteq	r3, r9, lsl r9
 4b0:	0c000013 	stceq	0, cr0, [r0], {19}
 4b4:	13490005 	movtne	r0, #36869	; 0x9005
 4b8:	0f0d0000 	svceq	0x000d0000
 4bc:	490b0b00 	stmdbmi	fp, {r8, r9, fp}
 4c0:	0e000013 	mcreq	0, 0, r0, cr0, cr3, {0}
 4c4:	0e030034 	mcreq	0, 0, r0, cr3, cr4, {1}
 4c8:	0b3b0b3a 	bleq	ec31b8 <__bss_end__+0xeb91f0>
 4cc:	193f1349 	ldmdbne	pc!, {r0, r3, r6, r8, r9, ip}	; <UNPREDICTABLE>
 4d0:	00001802 	andeq	r1, r0, r2, lsl #16
 4d4:	3f012e0f 	svccc	0x00012e0f
 4d8:	3a0e0319 	bcc	381144 <__bss_end__+0x37717c>
 4dc:	270b3b0b 	strcs	r3, [fp, -fp, lsl #22]
 4e0:	00193c19 	andseq	r3, r9, r9, lsl ip
 4e4:	11010000 	mrsne	r0, (UNDEF: 1)
 4e8:	130e2501 	movwne	r2, #58625	; 0xe501
 4ec:	1b0e030b 	blne	381120 <__bss_end__+0x377158>
 4f0:	1201110e 	andne	r1, r1, #-2147483645	; 0x80000003
 4f4:	00171006 	andseq	r1, r7, r6
 4f8:	00240200 	eoreq	r0, r4, r0, lsl #4
 4fc:	0b3e0b0b 	bleq	f83130 <__bss_end__+0xf79168>
 500:	00000803 	andeq	r0, r0, r3, lsl #16
 504:	0b002403 	bleq	9518 <gpio_set_function+0x84>
 508:	030b3e0b 	movweq	r3, #48651	; 0xbe0b
 50c:	0400000e 	streq	r0, [r0], #-14
 510:	0b0b000f 	bleq	2c0554 <__bss_end__+0x2b658c>
 514:	00001349 	andeq	r1, r0, r9, asr #6
 518:	49002605 	stmdbmi	r0, {r0, r2, r9, sl, sp}
 51c:	06000013 			; <UNDEFINED> instruction: 0x06000013
 520:	193f012e 	ldmdbne	pc!, {r1, r2, r3, r5, r8}	; <UNPREDICTABLE>
 524:	0b3a0e03 	bleq	e83d38 <__bss_end__+0xe79d70>
 528:	19270b3b 	stmdbne	r7!, {r0, r1, r3, r4, r5, r8, r9, fp}
 52c:	01111349 	tsteq	r1, r9, asr #6
 530:	18400612 	stmdane	r0, {r1, r4, r9, sl}^
 534:	01194296 			; <UNDEFINED> instruction: 0x01194296
 538:	07000013 	smladeq	r0, r3, r0, r0
 53c:	08030005 	stmdaeq	r3, {r0, r2}
 540:	0b3b0b3a 	bleq	ec3230 <__bss_end__+0xeb9268>
 544:	17021349 	strne	r1, [r2, -r9, asr #6]
 548:	15080000 	strne	r0, [r8, #-0]
 54c:	49192701 	ldmdbmi	r9, {r0, r8, r9, sl, sp}
 550:	00130113 	andseq	r0, r3, r3, lsl r1
 554:	00050900 	andeq	r0, r5, r0, lsl #18
 558:	00001349 	andeq	r1, r0, r9, asr #6
 55c:	0300340a 	movweq	r3, #1034	; 0x40a
 560:	3b0b3a0e 	blcc	2ceda0 <__bss_end__+0x2c4dd8>
 564:	3f13490b 	svccc	0x0013490b
 568:	00193c19 	andseq	r3, r9, r9, lsl ip
 56c:	00340b00 	eorseq	r0, r4, r0, lsl #22
 570:	0b3a0e03 	bleq	e83d84 <__bss_end__+0xe79dbc>
 574:	13490b3b 	movtne	r0, #39739	; 0x9b3b
 578:	1802193f 	stmdane	r2, {r0, r1, r2, r3, r4, r5, r8, fp, ip}
 57c:	01000000 	mrseq	r0, (UNDEF: 0)
 580:	0e250111 	mcreq	1, 1, r0, cr5, cr1, {0}
 584:	0e030b13 	vmoveq.32	d3[0], r0
 588:	01110e1b 	tsteq	r1, fp, lsl lr
 58c:	17100612 			; <UNDEFINED> instruction: 0x17100612
 590:	24020000 	strcs	r0, [r2], #-0
 594:	3e0b0b00 	vmlacc.f64	d0, d11, d0
 598:	0008030b 	andeq	r0, r8, fp, lsl #6
 59c:	00240300 	eoreq	r0, r4, r0, lsl #6
 5a0:	0b3e0b0b 	bleq	f831d4 <__bss_end__+0xf7920c>
 5a4:	00000e03 	andeq	r0, r0, r3, lsl #28
 5a8:	0b000f04 	bleq	41c0 <_start-0x3e40>
 5ac:	0500000b 	streq	r0, [r0, #-11]
 5b0:	0b0b000f 	bleq	2c05f4 <__bss_end__+0x2b662c>
 5b4:	00001349 	andeq	r1, r0, r9, asr #6
 5b8:	49002606 	stmdbmi	r0, {r1, r2, r9, sl, sp}
 5bc:	07000013 	smladeq	r0, r3, r0, r0
 5c0:	0e030016 	mcreq	0, 0, r0, cr3, cr6, {0}
 5c4:	0b3b0b3a 	bleq	ec32b4 <__bss_end__+0xeb92ec>
 5c8:	00001349 	andeq	r1, r0, r9, asr #6
 5cc:	03011308 	movweq	r1, #4872	; 0x1308
 5d0:	3a0b0b0e 	bcc	2c3210 <__bss_end__+0x2b9248>
 5d4:	010b3b0b 	tsteq	fp, fp, lsl #22
 5d8:	09000013 	stmdbeq	r0, {r0, r1, r4}
 5dc:	0e03000d 	cdpeq	0, 0, cr0, cr3, cr13, {0}
 5e0:	0b381349 	bleq	e0530c <__bss_end__+0xdfb344>
 5e4:	00001934 	andeq	r1, r0, r4, lsr r9
 5e8:	03012e0a 	movweq	r2, #7690	; 0x1e0a
 5ec:	3b0b3a0e 	blcc	2cee2c <__bss_end__+0x2c4e64>
 5f0:	4919270b 	ldmdbmi	r9, {r0, r1, r3, r8, r9, sl, sp}
 5f4:	12011113 	andne	r1, r1, #-1073741820	; 0xc0000004
 5f8:	97184006 	ldrls	r4, [r8, -r6]
 5fc:	13011942 	movwne	r1, #6466	; 0x1942
 600:	050b0000 	streq	r0, [fp, #-0]
 604:	3a080300 	bcc	20120c <__bss_end__+0x1f7244>
 608:	490b3b0b 	stmdbmi	fp, {r0, r1, r3, r8, r9, fp, ip, sp}
 60c:	00170213 	andseq	r0, r7, r3, lsl r2
 610:	012e0c00 	teqeq	lr, r0, lsl #24
 614:	0b3a0803 	bleq	e82628 <__bss_end__+0xe78660>
 618:	19270b3b 	stmdbne	r7!, {r0, r1, r3, r4, r5, r8, r9, fp}
 61c:	01111349 	tsteq	r1, r9, asr #6
 620:	18400612 	stmdane	r0, {r1, r4, r9, sl}^
 624:	01194297 			; <UNDEFINED> instruction: 0x01194297
 628:	0d000013 	stceq	0, cr0, [r0, #-76]	; 0xffffffb4
 62c:	0e030005 	cdpeq	0, 0, cr0, cr3, cr5, {0}
 630:	0b3b0b3a 	bleq	ec3320 <__bss_end__+0xeb9358>
 634:	17021349 	strne	r1, [r2, -r9, asr #6]
 638:	050e0000 	streq	r0, [lr, #-0]
 63c:	3a0e0300 	bcc	381244 <__bss_end__+0x37727c>
 640:	490b3b0b 	stmdbmi	fp, {r0, r1, r3, r8, r9, fp, ip, sp}
 644:	00180213 	andseq	r0, r8, r3, lsl r2
 648:	00340f00 	eorseq	r0, r4, r0, lsl #30
 64c:	0b3a0803 	bleq	e82660 <__bss_end__+0xe78698>
 650:	13490b3b 	movtne	r0, #39739	; 0x9b3b
 654:	00001802 	andeq	r1, r0, r2, lsl #16
 658:	03003410 	movweq	r3, #1040	; 0x410
 65c:	3b0b3a08 	blcc	2cee84 <__bss_end__+0x2c4ebc>
 660:	0213490b 	andseq	r4, r3, #180224	; 0x2c000
 664:	11000017 	tstne	r0, r7, lsl r0
 668:	0e030034 	mcreq	0, 0, r0, cr3, cr4, {1}
 66c:	19341349 	ldmdbne	r4!, {r0, r3, r6, r8, r9, ip}
 670:	00001802 	andeq	r1, r0, r2, lsl #16
 674:	11010b12 	tstne	r1, r2, lsl fp
 678:	01061201 	tsteq	r6, r1, lsl #4
 67c:	13000013 	movwne	r0, #19
 680:	0e030034 	mcreq	0, 0, r0, cr3, cr4, {1}
 684:	0b3b0b3a 	bleq	ec3374 <__bss_end__+0xeb93ac>
 688:	17021349 	strne	r1, [r2, -r9, asr #6]
 68c:	89140000 	ldmdbhi	r4, {}	; <UNPREDICTABLE>
 690:	11000182 	smlabbne	r0, r2, r1, r0
 694:	00133101 	andseq	r3, r3, r1, lsl #2
 698:	82891500 	addhi	r1, r9, #0, 10
 69c:	01110101 	tsteq	r1, r1, lsl #2
 6a0:	13011331 	movwne	r1, #4913	; 0x1331
 6a4:	8a160000 	bhi	5806ac <__bss_end__+0x5766e4>
 6a8:	02000182 	andeq	r0, r0, #-2147483616	; 0x80000020
 6ac:	18429118 	stmdane	r2, {r3, r4, r8, ip, pc}^
 6b0:	89170000 	ldmdbhi	r7, {}	; <UNPREDICTABLE>
 6b4:	11010182 	smlabbne	r1, r2, r1, r0
 6b8:	00133101 	andseq	r3, r3, r1, lsl #2
 6bc:	01011800 	tsteq	r1, r0, lsl #16
 6c0:	13011349 	movwne	r1, #4937	; 0x1349
 6c4:	21190000 	tstcs	r9, r0
 6c8:	2f134900 	svccs	0x00134900
 6cc:	1a00000b 	bne	700 <_start-0x7900>
 6d0:	193f012e 	ldmdbne	pc!, {r1, r2, r3, r5, r8}	; <UNPREDICTABLE>
 6d4:	0b3a0e03 	bleq	e83ee8 <__bss_end__+0xe79f20>
 6d8:	19270b3b 	stmdbne	r7!, {r0, r1, r3, r4, r5, r8, r9, fp}
 6dc:	06120111 			; <UNDEFINED> instruction: 0x06120111
 6e0:	42971840 	addsmi	r1, r7, #64, 16	; 0x400000
 6e4:	00130119 	andseq	r0, r3, r9, lsl r1
 6e8:	01151b00 	tsteq	r5, r0, lsl #22
 6ec:	13491927 	movtne	r1, #39207	; 0x9927
 6f0:	00001301 	andeq	r1, r0, r1, lsl #6
 6f4:	4900051c 	stmdbmi	r0, {r2, r3, r4, r8, sl}
 6f8:	1d000013 	stcne	0, cr0, [r0, #-76]	; 0xffffffb4
 6fc:	193f012e 	ldmdbne	pc!, {r1, r2, r3, r5, r8}	; <UNPREDICTABLE>
 700:	0b3a0e03 	bleq	e83f14 <__bss_end__+0xe79f4c>
 704:	19270b3b 	stmdbne	r7!, {r0, r1, r3, r4, r5, r8, r9, fp}
 708:	01111349 	tsteq	r1, r9, asr #6
 70c:	18400612 	stmdane	r0, {r1, r4, r9, sl}^
 710:	01194297 			; <UNDEFINED> instruction: 0x01194297
 714:	1e000013 	mcrne	0, 0, r0, cr0, cr3, {0}
 718:	1755010b 	ldrbne	r0, [r5, -fp, lsl #2]
 71c:	341f0000 	ldrcc	r0, [pc], #-0	; 724 <_start-0x78dc>
 720:	3a0e0300 	bcc	381328 <__bss_end__+0x377360>
 724:	490b3b0b 	stmdbmi	fp, {r0, r1, r3, r8, r9, fp, ip, sp}
 728:	3c193f13 	ldccc	15, cr3, [r9], {19}
 72c:	20000019 	andcs	r0, r0, r9, lsl r0
 730:	193f002e 	ldmdbne	pc!, {r1, r2, r3, r5}	; <UNPREDICTABLE>
 734:	0b3a0e03 	bleq	e83f48 <__bss_end__+0xe79f80>
 738:	19270b3b 	stmdbne	r7!, {r0, r1, r3, r4, r5, r8, r9, fp}
 73c:	0000193c 	andeq	r1, r0, ip, lsr r9
 740:	3f012e21 	svccc	0x00012e21
 744:	3a0e0319 	bcc	3813b0 <__bss_end__+0x3773e8>
 748:	270b3b0b 	strcs	r3, [fp, -fp, lsl #22]
 74c:	3c134919 	ldccc	9, cr4, [r3], {25}
 750:	00130119 	andseq	r0, r3, r9, lsl r1
 754:	00182200 	andseq	r2, r8, r0, lsl #4
 758:	01000000 	mrseq	r0, (UNDEF: 0)
 75c:	0e250111 	mcreq	1, 1, r0, cr5, cr1, {0}
 760:	0e030b13 	vmoveq.32	d3[0], r0
 764:	01110e1b 	tsteq	r1, fp, lsl lr
 768:	17100612 			; <UNDEFINED> instruction: 0x17100612
 76c:	24020000 	strcs	r0, [r2], #-0
 770:	3e0b0b00 	vmlacc.f64	d0, d11, d0
 774:	0008030b 	andeq	r0, r8, fp, lsl #6
 778:	00240300 	eoreq	r0, r4, r0, lsl #6
 77c:	0b3e0b0b 	bleq	f833b0 <__bss_end__+0xf793e8>
 780:	00000e03 	andeq	r0, r0, r3, lsl #28
 784:	3f012e04 	svccc	0x00012e04
 788:	3a0e0319 	bcc	3813f4 <__bss_end__+0x37742c>
 78c:	270b3b0b 	strcs	r3, [fp, -fp, lsl #22]
 790:	12011119 	andne	r1, r1, #1073741830	; 0x40000006
 794:	97184006 	ldrls	r4, [r8, -r6]
 798:	13011942 	movwne	r1, #6466	; 0x1942
 79c:	34050000 	strcc	r0, [r5], #-0
 7a0:	3a080300 	bcc	2013a8 <__bss_end__+0x1f73e0>
 7a4:	490b3b0b 	stmdbmi	fp, {r0, r1, r3, r8, r9, fp, ip, sp}
 7a8:	00170213 	andseq	r0, r7, r3, lsl r2
 7ac:	012e0600 	teqeq	lr, r0, lsl #12
 7b0:	0e03193f 	mcreq	9, 0, r1, cr3, cr15, {1}
 7b4:	0b3b0b3a 	bleq	ec34a4 <__bss_end__+0xeb94dc>
 7b8:	01111927 	tsteq	r1, r7, lsr #18
 7bc:	18400612 	stmdane	r0, {r1, r4, r9, sl}^
 7c0:	00194297 	mulseq	r9, r7, r2
 7c4:	11010000 	mrsne	r0, (UNDEF: 1)
 7c8:	130e2501 	movwne	r2, #58625	; 0xe501
 7cc:	1b0e030b 	blne	381400 <__bss_end__+0x377438>
 7d0:	1201110e 	andne	r1, r1, #-2147483645	; 0x80000003
 7d4:	00171006 	andseq	r1, r7, r6
 7d8:	00240200 	eoreq	r0, r4, r0, lsl #4
 7dc:	0b3e0b0b 	bleq	f83410 <__bss_end__+0xf79448>
 7e0:	00000803 	andeq	r0, r0, r3, lsl #16
 7e4:	0b002403 	bleq	97f8 <uart_init+0x44>
 7e8:	030b3e0b 	movweq	r3, #48651	; 0xbe0b
 7ec:	0400000e 	streq	r0, [r0], #-14
 7f0:	0b0b000f 	bleq	2c0834 <__bss_end__+0x2b686c>
 7f4:	00001349 	andeq	r1, r0, r9, asr #6
 7f8:	49002605 	stmdbmi	r0, {r0, r2, r9, sl, sp}
 7fc:	06000013 			; <UNDEFINED> instruction: 0x06000013
 800:	193f012e 	ldmdbne	pc!, {r1, r2, r3, r5, r8}	; <UNPREDICTABLE>
 804:	0b3a0e03 	bleq	e84018 <__bss_end__+0xe7a050>
 808:	19270b3b 	stmdbne	r7!, {r0, r1, r3, r4, r5, r8, r9, fp}
 80c:	06120111 			; <UNDEFINED> instruction: 0x06120111
 810:	42971840 	addsmi	r1, r7, #64, 16	; 0x400000
 814:	00130119 	andseq	r0, r3, r9, lsl r1
 818:	82890700 	addhi	r0, r9, #0, 14
 81c:	01110101 	tsteq	r1, r1, lsl #2
 820:	00001301 	andeq	r1, r0, r1, lsl #6
 824:	01828a08 	orreq	r8, r2, r8, lsl #20
 828:	91180200 	tstls	r8, r0, lsl #4
 82c:	00001842 	andeq	r1, r0, r2, asr #16
 830:	01828909 	orreq	r8, r2, r9, lsl #18
 834:	31011101 	tstcc	r1, r1, lsl #2
 838:	00130113 	andseq	r0, r3, r3, lsl r1
 83c:	82890a00 	addhi	r0, r9, #0, 20
 840:	01110001 	tsteq	r1, r1
 844:	00001331 	andeq	r1, r0, r1, lsr r3
 848:	2701150b 	strcs	r1, [r1, -fp, lsl #10]
 84c:	01134919 	tsteq	r3, r9, lsl r9
 850:	0c000013 	stceq	0, cr0, [r0], {19}
 854:	13490005 	movtne	r0, #36869	; 0x9005
 858:	340d0000 	strcc	r0, [sp], #-0
 85c:	3a0e0300 	bcc	381464 <__bss_end__+0x37749c>
 860:	490b3b0b 	stmdbmi	fp, {r0, r1, r3, r8, r9, fp, ip, sp}
 864:	3c193f13 	ldccc	15, cr3, [r9], {19}
 868:	0e000019 	mcreq	0, 0, r0, cr0, cr9, {0}
 86c:	193f012e 	ldmdbne	pc!, {r1, r2, r3, r5, r8}	; <UNPREDICTABLE>
 870:	0b3a0e03 	bleq	e84084 <__bss_end__+0xe7a0bc>
 874:	19270b3b 	stmdbne	r7!, {r0, r1, r3, r4, r5, r8, r9, fp}
 878:	1301193c 	movwne	r1, #6460	; 0x193c
 87c:	2e0f0000 	cdpcs	0, 0, cr0, cr15, cr0, {0}
 880:	03193f00 	tsteq	r9, #0, 30
 884:	3b0b3a0e 	blcc	2cf0c4 <__bss_end__+0x2c50fc>
 888:	3c19270b 	ldccc	7, cr2, [r9], {11}
 88c:	00000019 	andeq	r0, r0, r9, lsl r0
 890:	25011101 	strcs	r1, [r1, #-257]	; 0x101
 894:	030b130e 	movweq	r1, #45838	; 0xb30e
 898:	110e1b0e 	tstne	lr, lr, lsl #22
 89c:	10061201 	andne	r1, r6, r1, lsl #4
 8a0:	02000017 	andeq	r0, r0, #23
 8a4:	0b0b0024 	bleq	2c093c <__bss_end__+0x2b6974>
 8a8:	08030b3e 	stmdaeq	r3, {r1, r2, r3, r4, r5, r8, r9, fp}
 8ac:	24030000 	strcs	r0, [r3], #-0
 8b0:	3e0b0b00 	vmlacc.f64	d0, d11, d0
 8b4:	000e030b 	andeq	r0, lr, fp, lsl #6
 8b8:	012e0400 	teqeq	lr, r0, lsl #8
 8bc:	0e03193f 	mcreq	9, 0, r1, cr3, cr15, {1}
 8c0:	0b3b0b3a 	bleq	ec35b0 <__bss_end__+0xeb95e8>
 8c4:	06120111 			; <UNDEFINED> instruction: 0x06120111
 8c8:	42971840 	addsmi	r1, r7, #64, 16	; 0x400000
 8cc:	00130119 	andseq	r0, r3, r9, lsl r1
 8d0:	00340500 	eorseq	r0, r4, r0, lsl #10
 8d4:	0b3a0e03 	bleq	e840e8 <__bss_end__+0xe7a120>
 8d8:	13490b3b 	movtne	r0, #39739	; 0x9b3b
 8dc:	193c193f 	ldmdbne	ip!, {r0, r1, r2, r3, r4, r5, r8, fp, ip}
 8e0:	2e060000 	cdpcs	0, 0, cr0, cr6, cr0, {0}
 8e4:	03193f00 	tsteq	r9, #0, 30
 8e8:	3b0b3a0e 	blcc	2cf128 <__bss_end__+0x2c5160>
 8ec:	3c19270b 	ldccc	7, cr2, [r9], {11}
 8f0:	07000019 	smladeq	r0, r9, r0, r0
 8f4:	08030034 	stmdaeq	r3, {r2, r4, r5}
 8f8:	0b3b0b3a 	bleq	ec35e8 <__bss_end__+0xeb9620>
 8fc:	17021349 	strne	r1, [r2, -r9, asr #6]
 900:	34080000 	strcc	r0, [r8], #-0
 904:	3a0e0300 	bcc	38150c <__bss_end__+0x377544>
 908:	490b3b0b 	stmdbmi	fp, {r0, r1, r3, r8, r9, fp, ip, sp}
 90c:	09000013 	stmdbeq	r0, {r0, r1, r4}
 910:	00018289 	andeq	r8, r1, r9, lsl #5
 914:	13310111 	teqne	r1, #1073741828	; 0x40000004
 918:	0f0a0000 	svceq	0x000a0000
 91c:	490b0b00 	stmdbmi	fp, {r8, r9, fp}
 920:	00000013 	andeq	r0, r0, r3, lsl r0
 924:	25011101 	strcs	r1, [r1, #-257]	; 0x101
 928:	030b130e 	movweq	r1, #45838	; 0xb30e
 92c:	550e1b0e 	strpl	r1, [lr, #-2830]	; 0xb0e
 930:	10011117 	andne	r1, r1, r7, lsl r1
 934:	02000017 	andeq	r0, r0, #23
 938:	0b0b0024 	bleq	2c09d0 <__bss_end__+0x2b6a08>
 93c:	08030b3e 	stmdaeq	r3, {r1, r2, r3, r4, r5, r8, r9, fp}
 940:	24030000 	strcs	r0, [r3], #-0
 944:	3e0b0b00 	vmlacc.f64	d0, d11, d0
 948:	000e030b 	andeq	r0, lr, fp, lsl #6
 94c:	012e0400 	teqeq	lr, r0, lsl #8
 950:	0e03193f 	mcreq	9, 0, r1, cr3, cr15, {1}
 954:	0b3b0b3a 	bleq	ec3644 <__bss_end__+0xeb967c>
 958:	13491927 	movtne	r1, #39207	; 0x9927
 95c:	06120111 			; <UNDEFINED> instruction: 0x06120111
 960:	42971840 	addsmi	r1, r7, #64, 16	; 0x400000
 964:	00130119 	andseq	r0, r3, r9, lsl r1
 968:	00340500 	eorseq	r0, r4, r0, lsl #10
 96c:	0b3a0e03 	bleq	e84180 <__bss_end__+0xe7a1b8>
 970:	13490b3b 	movtne	r0, #39739	; 0x9b3b
 974:	00001702 	andeq	r1, r0, r2, lsl #14
 978:	3f012e06 	svccc	0x00012e06
 97c:	3a0e0319 	bcc	3815e8 <__bss_end__+0x377620>
 980:	270b3b0b 	strcs	r3, [fp, -fp, lsl #22]
 984:	12011119 	andne	r1, r1, #1073741830	; 0x40000006
 988:	97184006 	ldrls	r4, [r8, -r6]
 98c:	13011942 	movwne	r1, #6466	; 0x1942
 990:	34070000 	strcc	r0, [r7], #-0
 994:	3a0e0300 	bcc	38159c <__bss_end__+0x3775d4>
 998:	490b3b0b 	stmdbmi	fp, {r0, r1, r3, r8, r9, fp, ip, sp}
 99c:	00061c13 	andeq	r1, r6, r3, lsl ip
 9a0:	00340800 	eorseq	r0, r4, r0, lsl #16
 9a4:	0b3a0e03 	bleq	e841b8 <__bss_end__+0xe7a1f0>
 9a8:	13490b3b 	movtne	r0, #39739	; 0x9b3b
 9ac:	00000b1c 	andeq	r0, r0, ip, lsl fp
 9b0:	01828909 	orreq	r8, r2, r9, lsl #18
 9b4:	31011100 	mrscc	r1, (UNDEF: 17)
 9b8:	0a000013 	beq	a0c <_start-0x75f4>
 9bc:	01018289 	smlabbeq	r1, r9, r2, r8
 9c0:	13310111 	teqne	r1, #1073741828	; 0x40000004
 9c4:	00001301 	andeq	r1, r0, r1, lsl #6
 9c8:	01828a0b 	orreq	r8, r2, fp, lsl #20
 9cc:	91180200 	tstls	r8, r0, lsl #4
 9d0:	00001842 	andeq	r1, r0, r2, asr #16
 9d4:	0182890c 	orreq	r8, r2, ip, lsl #18
 9d8:	31011101 	tstcc	r1, r1, lsl #2
 9dc:	0d000013 	stceq	0, cr0, [r0, #-76]	; 0xffffffb4
 9e0:	13490026 	movtne	r0, #36902	; 0x9026
 9e4:	2e0e0000 	cdpcs	0, 0, cr0, cr14, cr0, {0}
 9e8:	03193f01 	tsteq	r9, #1, 30
 9ec:	3b0b3a0e 	blcc	2cf22c <__bss_end__+0x2c5264>
 9f0:	3c19270b 	ldccc	7, cr2, [r9], {11}
 9f4:	00130119 	andseq	r0, r3, r9, lsl r1
 9f8:	00050f00 	andeq	r0, r5, r0, lsl #30
 9fc:	00001349 	andeq	r1, r0, r9, asr #6
 a00:	3f012e10 	svccc	0x00012e10
 a04:	3a0e0319 	bcc	381670 <__bss_end__+0x3776a8>
 a08:	270b3b0b 	strcs	r3, [fp, -fp, lsl #22]
 a0c:	00193c19 	andseq	r3, r9, r9, lsl ip
 a10:	11010000 	mrsne	r0, (UNDEF: 1)
 a14:	130e2501 	movwne	r2, #58625	; 0xe501
 a18:	1b0e030b 	blne	38164c <__bss_end__+0x377684>
 a1c:	1201110e 	andne	r1, r1, #-2147483645	; 0x80000003
 a20:	00171006 	andseq	r1, r7, r6
 a24:	00240200 	eoreq	r0, r4, r0, lsl #4
 a28:	0b3e0b0b 	bleq	f8365c <__bss_end__+0xf79694>
 a2c:	00000803 	andeq	r0, r0, r3, lsl #16
 a30:	0b002403 	bleq	9a44 <__FUNCTION__.4271+0x3c>
 a34:	030b3e0b 	movweq	r3, #48651	; 0xbe0b
 a38:	0400000e 	streq	r0, [r0], #-14
 a3c:	193f012e 	ldmdbne	pc!, {r1, r2, r3, r5, r8}	; <UNPREDICTABLE>
 a40:	0b3a0e03 	bleq	e84254 <__bss_end__+0xe7a28c>
 a44:	19270b3b 	stmdbne	r7!, {r0, r1, r3, r4, r5, r8, r9, fp}
 a48:	06120111 			; <UNDEFINED> instruction: 0x06120111
 a4c:	42971840 	addsmi	r1, r7, #64, 16	; 0x400000
 a50:	00130119 	andseq	r0, r3, r9, lsl r1
 a54:	00050500 	andeq	r0, r5, r0, lsl #10
 a58:	0b3a0e03 	bleq	e8426c <__bss_end__+0xe7a2a4>
 a5c:	13490b3b 	movtne	r0, #39739	; 0x9b3b
 a60:	00001702 	andeq	r1, r0, r2, lsl #14
 a64:	3f012e06 	svccc	0x00012e06
 a68:	3a0e0319 	bcc	3816d4 <__bss_end__+0x37770c>
 a6c:	270b3b0b 	strcs	r3, [fp, -fp, lsl #22]
 a70:	11134919 	tstne	r3, r9, lsl r9
 a74:	40061201 	andmi	r1, r6, r1, lsl #4
 a78:	19429718 	stmdbne	r2, {r3, r4, r8, r9, sl, ip, pc}^
 a7c:	00001301 	andeq	r1, r0, r1, lsl #6
 a80:	01828907 	orreq	r8, r2, r7, lsl #18
 a84:	31011101 	tstcc	r1, r1, lsl #2
 a88:	08000013 	stmdaeq	r0, {r0, r1, r4}
 a8c:	0001828a 	andeq	r8, r1, sl, lsl #5
 a90:	42911802 	addsmi	r1, r1, #131072	; 0x20000
 a94:	09000018 	stmdbeq	r0, {r3, r4}
 a98:	08030034 	stmdaeq	r3, {r2, r4, r5}
 a9c:	0b3b0b3a 	bleq	ec378c <__bss_end__+0xeb97c4>
 aa0:	18021349 	stmdane	r2, {r0, r3, r6, r8, r9, ip}
 aa4:	890a0000 	stmdbhi	sl, {}	; <UNPREDICTABLE>
 aa8:	11000182 	smlabbne	r0, r2, r1, r0
 aac:	00133101 	andseq	r3, r3, r1, lsl #2
 ab0:	00050b00 	andeq	r0, r5, r0, lsl #22
 ab4:	0b3a0803 	bleq	e82ac8 <__bss_end__+0xe78b00>
 ab8:	13490b3b 	movtne	r0, #39739	; 0x9b3b
 abc:	00001702 	andeq	r1, r0, r2, lsl #14
 ac0:	11010b0c 	tstne	r1, ip, lsl #22
 ac4:	01061201 	tsteq	r6, r1, lsl #4
 ac8:	0d000013 	stceq	0, cr0, [r0, #-76]	; 0xffffffb4
 acc:	08030034 	stmdaeq	r3, {r2, r4, r5}
 ad0:	0b3b0b3a 	bleq	ec37c0 <__bss_end__+0xeb97f8>
 ad4:	17021349 	strne	r1, [r2, -r9, asr #6]
 ad8:	2e0e0000 	cdpcs	0, 0, cr0, cr14, cr0, {0}
 adc:	03193f01 	tsteq	r9, #1, 30
 ae0:	3b0b3a0e 	blcc	2cf320 <__bss_end__+0x2c5358>
 ae4:	4919270b 	ldmdbmi	r9, {r0, r1, r3, r8, r9, sl, sp}
 ae8:	00193c13 	andseq	r3, r9, r3, lsl ip
 aec:	00050f00 	andeq	r0, r5, r0, lsl #30
 af0:	00001349 	andeq	r1, r0, r9, asr #6
 af4:	01110100 	tsteq	r1, r0, lsl #2
 af8:	0b130e25 	bleq	4c4394 <__bss_end__+0x4ba3cc>
 afc:	0e1b0e03 	cdpeq	14, 1, cr0, cr11, cr3, {0}
 b00:	06120111 			; <UNDEFINED> instruction: 0x06120111
 b04:	00001710 	andeq	r1, r0, r0, lsl r7
 b08:	0b002402 	bleq	9b18 <__FUNCTION__.4293+0x5c>
 b0c:	030b3e0b 	movweq	r3, #48651	; 0xbe0b
 b10:	0300000e 	movweq	r0, #14
 b14:	0b0b0024 	bleq	2c0bac <__bss_end__+0x2b6be4>
 b18:	08030b3e 	stmdaeq	r3, {r1, r2, r3, r4, r5, r8, r9, fp}
 b1c:	04040000 	streq	r0, [r4], #-0
 b20:	3a0b0b01 	bcc	2c372c <__bss_end__+0x2b9764>
 b24:	010b3b0b 	tsteq	fp, fp, lsl #22
 b28:	05000013 	streq	r0, [r0, #-19]
 b2c:	0e030028 	cdpeq	0, 0, cr0, cr3, cr8, {1}
 b30:	00000d1c 	andeq	r0, r0, ip, lsl sp
 b34:	03001606 	movweq	r1, #1542	; 0x606
 b38:	3b0b3a0e 	blcc	2cf378 <__bss_end__+0x2c53b0>
 b3c:	0013490b 	andseq	r4, r3, fp, lsl #18
 b40:	012e0700 	teqeq	lr, r0, lsl #14
 b44:	0e03193f 	mcreq	9, 0, r1, cr3, cr15, {1}
 b48:	0b3b0b3a 	bleq	ec3838 <__bss_end__+0xeb9870>
 b4c:	01111927 	tsteq	r1, r7, lsr #18
 b50:	18400612 	stmdane	r0, {r1, r4, r9, sl}^
 b54:	01194297 			; <UNDEFINED> instruction: 0x01194297
 b58:	08000013 	stmdaeq	r0, {r0, r1, r4}
 b5c:	08030005 	stmdaeq	r3, {r0, r2}
 b60:	0b3b0b3a 	bleq	ec3850 <__bss_end__+0xeb9888>
 b64:	17021349 	strne	r1, [r2, -r9, asr #6]
 b68:	34090000 	strcc	r0, [r9], #-0
 b6c:	3a0e0300 	bcc	381774 <__bss_end__+0x3777ac>
 b70:	490b3b0b 	stmdbmi	fp, {r0, r1, r3, r8, r9, fp, ip, sp}
 b74:	00170213 	andseq	r0, r7, r3, lsl r2
 b78:	82890a00 	addhi	r0, r9, #0, 20
 b7c:	01110101 	tsteq	r1, r1, lsl #2
 b80:	13011331 	movwne	r1, #4913	; 0x1331
 b84:	8a0b0000 	bhi	2c0b8c <__bss_end__+0x2b6bc4>
 b88:	02000182 	andeq	r0, r0, #-2147483616	; 0x80000020
 b8c:	18429118 	stmdane	r2, {r3, r4, r8, ip, pc}^
 b90:	890c0000 	stmdbhi	ip, {}	; <UNPREDICTABLE>
 b94:	11010182 	smlabbne	r1, r2, r1, r0
 b98:	00133101 	andseq	r3, r3, r1, lsl #2
 b9c:	000f0d00 	andeq	r0, pc, r0, lsl #26
 ba0:	13490b0b 	movtne	r0, #39691	; 0x9b0b
 ba4:	350e0000 	strcc	r0, [lr, #-0]
 ba8:	00134900 	andseq	r4, r3, r0, lsl #18
 bac:	012e0f00 	teqeq	lr, r0, lsl #30
 bb0:	0e03193f 	mcreq	9, 0, r1, cr3, cr15, {1}
 bb4:	0b3b0b3a 	bleq	ec38a4 <__bss_end__+0xeb98dc>
 bb8:	13491927 	movtne	r1, #39207	; 0x9927
 bbc:	06120111 			; <UNDEFINED> instruction: 0x06120111
 bc0:	42971840 	addsmi	r1, r7, #64, 16	; 0x400000
 bc4:	00130119 	andseq	r0, r3, r9, lsl r1
 bc8:	00341000 	eorseq	r1, r4, r0
 bcc:	0b3a0803 	bleq	e82be0 <__bss_end__+0xe78c18>
 bd0:	13490b3b 	movtne	r0, #39739	; 0x9b3b
 bd4:	00001702 	andeq	r1, r0, r2, lsl #14
 bd8:	01828911 	orreq	r8, r2, r1, lsl r9
 bdc:	31011100 	mrscc	r1, (UNDEF: 17)
 be0:	12000013 	andne	r0, r0, #19
 be4:	0e030005 	cdpeq	0, 0, cr0, cr3, cr5, {0}
 be8:	0b3b0b3a 	bleq	ec38d8 <__bss_end__+0xeb9910>
 bec:	17021349 	strne	r1, [r2, -r9, asr #6]
 bf0:	2e130000 	cdpcs	0, 1, cr0, cr3, cr0, {0}
 bf4:	03193f01 	tsteq	r9, #1, 30
 bf8:	3b0b3a0e 	blcc	2cf438 <__bss_end__+0x2c5470>
 bfc:	49192705 	ldmdbmi	r9, {r0, r2, r8, r9, sl, sp}
 c00:	12011113 	andne	r1, r1, #-1073741820	; 0xc0000004
 c04:	97184006 	ldrls	r4, [r8, -r6]
 c08:	13011942 	movwne	r1, #6466	; 0x1942
 c0c:	05140000 	ldreq	r0, [r4, #-0]
 c10:	3a0e0300 	bcc	381818 <__bss_end__+0x377850>
 c14:	49053b0b 	stmdbmi	r5, {r0, r1, r3, r8, r9, fp, ip, sp}
 c18:	00170213 	andseq	r0, r7, r3, lsl r2
 c1c:	012e1500 	teqeq	lr, r0, lsl #10
 c20:	0e03193f 	mcreq	9, 0, r1, cr3, cr15, {1}
 c24:	053b0b3a 	ldreq	r0, [fp, #-2874]!	; 0xb3a
 c28:	01111927 	tsteq	r1, r7, lsr #18
 c2c:	18400612 	stmdane	r0, {r1, r4, r9, sl}^
 c30:	01194297 			; <UNDEFINED> instruction: 0x01194297
 c34:	16000013 			; <UNDEFINED> instruction: 0x16000013
 c38:	08030005 	stmdaeq	r3, {r0, r2}
 c3c:	053b0b3a 	ldreq	r0, [fp, #-2874]!	; 0xb3a
 c40:	17021349 	strne	r1, [r2, -r9, asr #6]
 c44:	34170000 	ldrcc	r0, [r7], #-0
 c48:	3a0e0300 	bcc	381850 <__bss_end__+0x377888>
 c4c:	49053b0b 	stmdbmi	r5, {r0, r1, r3, r8, r9, fp, ip, sp}
 c50:	00170213 	andseq	r0, r7, r3, lsl r2
 c54:	010b1800 	tsteq	fp, r0, lsl #16
 c58:	06120111 			; <UNDEFINED> instruction: 0x06120111
 c5c:	00001301 	andeq	r1, r0, r1, lsl #6
 c60:	03003419 	movweq	r3, #1049	; 0x419
 c64:	3b0b3a0e 	blcc	2cf4a4 <__bss_end__+0x2c54dc>
 c68:	3f13490b 	svccc	0x0013490b
 c6c:	00180219 	andseq	r0, r8, r9, lsl r2
 c70:	00341a00 	eorseq	r1, r4, r0, lsl #20
 c74:	0b3a0e03 	bleq	e84488 <__bss_end__+0xe7a4c0>
 c78:	1349053b 	movtne	r0, #38203	; 0x953b
 c7c:	1802193f 	stmdane	r2, {r0, r1, r2, r3, r4, r5, r8, fp, ip}
 c80:	2e1b0000 	cdpcs	0, 1, cr0, cr11, cr0, {0}
 c84:	03193f01 	tsteq	r9, #1, 30
 c88:	3b0b3a0e 	blcc	2cf4c8 <__bss_end__+0x2c5500>
 c8c:	4919270b 	ldmdbmi	r9, {r0, r1, r3, r8, r9, sl, sp}
 c90:	01193c13 	tsteq	r9, r3, lsl ip
 c94:	1c000013 	stcne	0, cr0, [r0], {19}
 c98:	13490005 	movtne	r0, #36869	; 0x9005
 c9c:	261d0000 	ldrcs	r0, [sp], -r0
 ca0:	00134900 	andseq	r4, r3, r0, lsl #18
 ca4:	00351e00 	eorseq	r1, r5, r0, lsl #28
 ca8:	2e1f0000 	cdpcs	0, 1, cr0, cr15, cr0, {0}
 cac:	03193f01 	tsteq	r9, #1, 30
 cb0:	3b0b3a0e 	blcc	2cf4f0 <__bss_end__+0x2c5528>
 cb4:	3c19270b 	ldccc	7, cr2, [r9], {11}
 cb8:	00130119 	andseq	r0, r3, r9, lsl r1
 cbc:	002e2000 	eoreq	r2, lr, r0
 cc0:	0e03193f 	mcreq	9, 0, r1, cr3, cr15, {1}
 cc4:	0b3b0b3a 	bleq	ec39b4 <__bss_end__+0xeb99ec>
 cc8:	193c1927 	ldmdbne	ip!, {r0, r1, r2, r5, r8, fp, ip}
 ccc:	01000000 	mrseq	r0, (UNDEF: 0)
 cd0:	0e250111 	mcreq	1, 1, r0, cr5, cr1, {0}
 cd4:	0e030b13 	vmoveq.32	d3[0], r0
 cd8:	01110e1b 	tsteq	r1, fp, lsl lr
 cdc:	17100612 			; <UNDEFINED> instruction: 0x17100612
 ce0:	24020000 	strcs	r0, [r2], #-0
 ce4:	3e0b0b00 	vmlacc.f64	d0, d11, d0
 ce8:	0008030b 	andeq	r0, r8, fp, lsl #6
 cec:	00240300 	eoreq	r0, r4, r0, lsl #6
 cf0:	0b3e0b0b 	bleq	f83924 <__bss_end__+0xf7995c>
 cf4:	00000e03 	andeq	r0, r0, r3, lsl #28
 cf8:	0b010404 	bleq	41d10 <__bss_end__+0x37d48>
 cfc:	3b0b3a0b 	blcc	2cf530 <__bss_end__+0x2c5568>
 d00:	0013010b 	andseq	r0, r3, fp, lsl #2
 d04:	00280500 	eoreq	r0, r8, r0, lsl #10
 d08:	0d1c0e03 	ldceq	14, cr0, [ip, #-12]
 d0c:	16060000 	strne	r0, [r6], -r0
 d10:	3a0e0300 	bcc	381918 <__bss_end__+0x377950>
 d14:	490b3b0b 	stmdbmi	fp, {r0, r1, r3, r8, r9, fp, ip, sp}
 d18:	07000013 	smladeq	r0, r3, r0, r0
 d1c:	193f012e 	ldmdbne	pc!, {r1, r2, r3, r5, r8}	; <UNPREDICTABLE>
 d20:	0b3a0e03 	bleq	e84534 <__bss_end__+0xe7a56c>
 d24:	19270b3b 	stmdbne	r7!, {r0, r1, r3, r4, r5, r8, r9, fp}
 d28:	06120111 			; <UNDEFINED> instruction: 0x06120111
 d2c:	42971840 	addsmi	r1, r7, #64, 16	; 0x400000
 d30:	00130119 	andseq	r0, r3, r9, lsl r1
 d34:	82890800 	addhi	r0, r9, #0, 16
 d38:	01110001 	tsteq	r1, r1
 d3c:	00001331 	andeq	r1, r0, r1, lsr r3
 d40:	01828909 	orreq	r8, r2, r9, lsl #18
 d44:	31011101 	tstcc	r1, r1, lsl #2
 d48:	00130113 	andseq	r0, r3, r3, lsl r1
 d4c:	828a0a00 	addhi	r0, sl, #0, 20
 d50:	18020001 	stmdane	r2, {r0}
 d54:	00184291 	mulseq	r8, r1, r2
 d58:	012e0b00 	teqeq	lr, r0, lsl #22
 d5c:	0e03193f 	mcreq	9, 0, r1, cr3, cr15, {1}
 d60:	0b3b0b3a 	bleq	ec3a50 <__bss_end__+0xeb9a88>
 d64:	13491927 	movtne	r1, #39207	; 0x9927
 d68:	06120111 			; <UNDEFINED> instruction: 0x06120111
 d6c:	42971840 	addsmi	r1, r7, #64, 16	; 0x400000
 d70:	00130119 	andseq	r0, r3, r9, lsl r1
 d74:	00050c00 	andeq	r0, r5, r0, lsl #24
 d78:	0b3a0803 	bleq	e82d8c <__bss_end__+0xe78dc4>
 d7c:	13490b3b 	movtne	r0, #39739	; 0x9b3b
 d80:	00001702 	andeq	r1, r0, r2, lsl #14
 d84:	0182890d 	orreq	r8, r2, sp, lsl #18
 d88:	31011101 	tstcc	r1, r1, lsl #2
 d8c:	0e000013 	mcreq	0, 0, r0, cr0, cr3, {0}
 d90:	0e030034 	mcreq	0, 0, r0, cr3, cr4, {1}
 d94:	0b3b0b3a 	bleq	ec3a84 <__bss_end__+0xeb9abc>
 d98:	193f1349 	ldmdbne	pc!, {r0, r3, r6, r8, r9, ip}	; <UNPREDICTABLE>
 d9c:	00001802 	andeq	r1, r0, r2, lsl #16
 da0:	0b000f0f 	bleq	49e4 <_start-0x361c>
 da4:	0013490b 	andseq	r4, r3, fp, lsl #18
 da8:	00351000 	eorseq	r1, r5, r0
 dac:	00001349 	andeq	r1, r0, r9, asr #6
 db0:	3f002e11 	svccc	0x00002e11
 db4:	3a0e0319 	bcc	381a20 <__bss_end__+0x377a58>
 db8:	270b3b0b 	strcs	r3, [fp, -fp, lsl #22]
 dbc:	00193c19 	andseq	r3, r9, r9, lsl ip
 dc0:	012e1200 	teqeq	lr, r0, lsl #4
 dc4:	0e03193f 	mcreq	9, 0, r1, cr3, cr15, {1}
 dc8:	0b3b0b3a 	bleq	ec3ab8 <__bss_end__+0xeb9af0>
 dcc:	193c1927 	ldmdbne	ip!, {r0, r1, r2, r5, r8, fp, ip}
 dd0:	00001301 	andeq	r1, r0, r1, lsl #6
 dd4:	49000513 	stmdbmi	r0, {r0, r1, r4, r8, sl}
 dd8:	14000013 	strne	r0, [r0], #-19
 ddc:	193f012e 	ldmdbne	pc!, {r1, r2, r3, r5, r8}	; <UNPREDICTABLE>
 de0:	0b3a0e03 	bleq	e845f4 <__bss_end__+0xe7a62c>
 de4:	19270b3b 	stmdbne	r7!, {r0, r1, r3, r4, r5, r8, r9, fp}
 de8:	193c1349 	ldmdbne	ip!, {r0, r3, r6, r8, r9, ip}
 dec:	00001301 	andeq	r1, r0, r1, lsl #6
 df0:	49002615 	stmdbmi	r0, {r0, r2, r4, r9, sl, sp}
 df4:	16000013 			; <UNDEFINED> instruction: 0x16000013
 df8:	00000035 	andeq	r0, r0, r5, lsr r0
	...

Disassembly of section .debug_loc:

00000000 <.debug_loc>:
       0:	00000000 	andeq	r0, r0, r0
       4:	00000018 	andeq	r0, r0, r8, lsl r0
       8:	18500001 	ldmdane	r0, {r0}^
       c:	28000000 	stmdacs	r0, {}	; <UNPREDICTABLE>
      10:	04000000 	streq	r0, [r0], #-0
      14:	5001f300 	andpl	pc, r1, r0, lsl #6
      18:	0000289f 	muleq	r0, pc, r8	; <UNPREDICTABLE>
      1c:	00002b00 	andeq	r2, r0, r0, lsl #22
      20:	50000100 	andpl	r0, r0, r0, lsl #2
      24:	0000002b 	andeq	r0, r0, fp, lsr #32
      28:	00000050 	andeq	r0, r0, r0, asr r0
      2c:	01f30004 	mvnseq	r0, r4
      30:	00009f50 	andeq	r9, r0, r0, asr pc
      34:	00000000 	andeq	r0, r0, r0
      38:	00200000 	eoreq	r0, r0, r0
      3c:	00240000 	eoreq	r0, r4, r0
      40:	00010000 	andeq	r0, r1, r0
      44:	00000050 	andeq	r0, r0, r0, asr r0
      48:	00000000 	andeq	r0, r0, r0
      4c:	00005000 	andeq	r5, r0, r0
      50:	00006400 	andeq	r6, r0, r0, lsl #8
      54:	50000100 	andpl	r0, r0, r0, lsl #2
      58:	00000064 	andeq	r0, r0, r4, rrx
      5c:	0000020c 	andeq	r0, r0, ip, lsl #4
      60:	01f30004 	mvnseq	r0, r4
      64:	00009f50 	andeq	r9, r0, r0, asr pc
      68:	00000000 	andeq	r0, r0, r0
      6c:	00500000 	subseq	r0, r0, r0
      70:	00c00000 	sbceq	r0, r0, r0
      74:	00020000 	andeq	r0, r2, r0
      78:	00c09f30 	sbceq	r9, r0, r0, lsr pc
      7c:	00e80000 	rsceq	r0, r8, r0
      80:	00010000 	andeq	r0, r1, r0
      84:	0000e858 	andeq	lr, r0, r8, asr r8
      88:	00011000 	andeq	r1, r1, r0
      8c:	78000600 	stmdavc	r0, {r9, sl}
      90:	21007700 	tstcs	r0, r0, lsl #14
      94:	0001109f 	muleq	r1, pc, r0	; <UNPREDICTABLE>
      98:	00013800 	andeq	r3, r1, r0, lsl #16
      9c:	78000900 	stmdavc	r0, {r8, fp}
      a0:	21007700 	tstcs	r0, r0, lsl #14
      a4:	9f210076 	svcls	0x00210076
      a8:	00000138 	andeq	r0, r0, r8, lsr r1
      ac:	00000160 	andeq	r0, r0, r0, ror #2
      b0:	0078000c 	rsbseq	r0, r8, ip
      b4:	76210077 			; <UNDEFINED> instruction: 0x76210077
      b8:	00752100 	rsbseq	r2, r5, r0, lsl #2
      bc:	01609f21 	cmneq	r0, r1, lsr #30
      c0:	01880000 	orreq	r0, r8, r0
      c4:	000f0000 	andeq	r0, pc, r0
      c8:	00770078 	rsbseq	r0, r7, r8, ror r0
      cc:	21007621 	tstcs	r0, r1, lsr #12
      d0:	74210075 	strtvc	r0, [r1], #-117	; 0x75
      d4:	889f2100 	ldmhi	pc, {r8, sp}	; <UNPREDICTABLE>
      d8:	b0000001 	andlt	r0, r0, r1
      dc:	12000001 	andne	r0, r0, #1
      e0:	77007800 	strvc	r7, [r0, -r0, lsl #16]
      e4:	00762100 	rsbseq	r2, r6, r0, lsl #2
      e8:	21007521 	tstcs	r0, r1, lsr #10
      ec:	79210074 	stmdbvc	r1!, {r2, r4, r5, r6}
      f0:	b09f2100 	addslt	r2, pc, r0, lsl #2
      f4:	c8000001 	stmdagt	r0, {r0}
      f8:	15000001 	strne	r0, [r0, #-1]
      fc:	77007800 	strvc	r7, [r0, -r0, lsl #16]
     100:	00762100 	rsbseq	r2, r6, r0, lsl #2
     104:	21007521 	tstcs	r0, r1, lsr #10
     108:	79210074 	stmdbvc	r1!, {r2, r4, r5, r6}
     10c:	00702100 	rsbseq	r2, r0, r0, lsl #2
     110:	01f09f21 	mvnseq	r9, r1, lsr #30
     114:	020c0000 	andeq	r0, ip, #0
     118:	00010000 	andeq	r0, r1, r0
     11c:	00000050 	andeq	r0, r0, r0, asr r0
     120:	00000000 	andeq	r0, r0, r0
     124:	00006c00 	andeq	r6, r0, r0, lsl #24
     128:	00009400 	andeq	r9, r0, r0, lsl #8
     12c:	5a000100 	bpl	534 <_start-0x7acc>
     130:	00000094 	muleq	r0, r4, r0
     134:	000001d0 	ldrdeq	r0, [r0], -r0	; <UNPREDICTABLE>
     138:	007c0005 	rsbseq	r0, ip, r5
     13c:	d09f2531 	addsle	r2, pc, r1, lsr r5	; <UNPREDICTABLE>
     140:	0c000001 	stceq	0, cr0, [r0], {1}
     144:	09000002 	stmdbeq	r0, {r1}
     148:	5001f300 	andpl	pc, r1, r0, lsl #6
     14c:	31060c23 	tstcc	r6, r3, lsr #24
     150:	00009f25 	andeq	r9, r0, r5, lsr #30
     154:	00000000 	andeq	r0, r0, r0
     158:	00840000 	addeq	r0, r4, r0
     15c:	00880000 	addeq	r0, r8, r0
     160:	00010000 	andeq	r0, r1, r0
     164:	00000052 	andeq	r0, r0, r2, asr r0
     168:	00000000 	andeq	r0, r0, r0
     16c:	00009800 	andeq	r9, r0, r0, lsl #16
     170:	00009c00 	andeq	r9, r0, r0, lsl #24
     174:	52000100 	andpl	r0, r0, #0, 2
	...
     180:	000000c4 	andeq	r0, r0, r4, asr #1
     184:	000000c8 	andeq	r0, r0, r8, asr #1
     188:	00520001 	subseq	r0, r2, r1
     18c:	00000000 	andeq	r0, r0, r0
     190:	ec000000 	stc	0, cr0, [r0], {-0}
     194:	f0000000 			; <UNDEFINED> instruction: 0xf0000000
     198:	01000000 	mrseq	r0, (UNDEF: 0)
     19c:	00005200 	andeq	r5, r0, r0, lsl #4
     1a0:	00000000 	andeq	r0, r0, r0
     1a4:	01140000 	tsteq	r4, r0
     1a8:	01180000 	tsteq	r8, r0
     1ac:	00010000 	andeq	r0, r1, r0
     1b0:	00000052 	andeq	r0, r0, r2, asr r0
     1b4:	00000000 	andeq	r0, r0, r0
     1b8:	00013c00 	andeq	r3, r1, r0, lsl #24
     1bc:	00014000 	andeq	r4, r1, r0
     1c0:	52000100 	andpl	r0, r0, #0, 2
	...
     1cc:	00000164 	andeq	r0, r0, r4, ror #2
     1d0:	00000168 	andeq	r0, r0, r8, ror #2
     1d4:	00520001 	subseq	r0, r2, r1
     1d8:	00000000 	andeq	r0, r0, r0
     1dc:	8c000000 	stchi	0, cr0, [r0], {-0}
     1e0:	90000001 	andls	r0, r0, r1
     1e4:	01000001 	tsteq	r0, r1
     1e8:	00005200 	andeq	r5, r0, r0, lsl #4
     1ec:	00000000 	andeq	r0, r0, r0
     1f0:	01b40000 			; <UNDEFINED> instruction: 0x01b40000
     1f4:	01b80000 			; <UNDEFINED> instruction: 0x01b80000
     1f8:	00010000 	andeq	r0, r1, r0
     1fc:	00000052 	andeq	r0, r0, r2, asr r0
     200:	00000000 	andeq	r0, r0, r0
     204:	0001f400 	andeq	pc, r1, r0, lsl #8
     208:	0001f800 	andeq	pc, r1, r0, lsl #16
     20c:	52000100 	andpl	r0, r0, #0, 2
	...
     218:	0000020c 	andeq	r0, r0, ip, lsl #4
     21c:	00000424 	andeq	r0, r0, r4, lsr #8
     220:	24510001 	ldrbcs	r0, [r1], #-1
     224:	9c000004 	stcls	0, cr0, [r0], {4}
     228:	04000004 	streq	r0, [r0], #-4
     22c:	5101f300 	mrspl	pc, SP_irq	; <UNPREDICTABLE>
     230:	0000009f 	muleq	r0, pc, r0	; <UNPREDICTABLE>
     234:	00000000 	andeq	r0, r0, r0
     238:	00023800 	andeq	r3, r2, r0, lsl #16
     23c:	00027000 	andeq	r7, r2, r0
     240:	55000100 	strpl	r0, [r0, #-256]	; 0x100
	...
     24c:	0000024c 	andeq	r0, r0, ip, asr #4
     250:	00000250 	andeq	r0, r0, r0, asr r2
     254:	00520001 	subseq	r0, r2, r1
     258:	00000000 	andeq	r0, r0, r0
     25c:	64000000 	strvs	r0, [r0], #-0
     260:	24000002 	strcs	r0, [r0], #-2
     264:	08000004 	stmdaeq	r0, {r2}
     268:	31007100 	mrscc	r7, (UNDEF: 16)
     26c:	1aff081a 	bne	fffc22dc <__bss_end__+0xfffb8314>
     270:	0000009f 	muleq	r0, pc, r0	; <UNPREDICTABLE>
     274:	00000000 	andeq	r0, r0, r0
     278:	00026400 	andeq	r6, r2, r0, lsl #8
     27c:	00027400 	andeq	r7, r2, r0, lsl #8
     280:	52000100 	andpl	r0, r0, #0, 2
     284:	00000274 	andeq	r0, r0, r4, ror r2
     288:	00000474 	andeq	r0, r0, r4, ror r4
     28c:	00700002 	rsbseq	r0, r0, r2
	...
     298:	00000264 	andeq	r0, r0, r4, ror #4
     29c:	000002a4 	andeq	r0, r0, r4, lsr #5
     2a0:	00710008 	rsbseq	r0, r1, r8
     2a4:	ff081a31 			; <UNDEFINED> instruction: 0xff081a31
     2a8:	02a49f1a 	adceq	r9, r4, #26, 30	; 0x68
     2ac:	02e40000 	rsceq	r0, r4, #0
     2b0:	00080000 	andeq	r0, r8, r0
     2b4:	1a320071 	bne	c80480 <__bss_end__+0xc764b8>
     2b8:	9f1aff08 	svcls	0x001aff08
     2bc:	000002e4 	andeq	r0, r0, r4, ror #5
     2c0:	00000324 	andeq	r0, r0, r4, lsr #6
     2c4:	00710008 	rsbseq	r0, r1, r8
     2c8:	ff081a34 			; <UNDEFINED> instruction: 0xff081a34
     2cc:	03249f1a 	teqeq	r4, #26, 30	; 0x68
     2d0:	03640000 	cmneq	r4, #0
     2d4:	00080000 	andeq	r0, r8, r0
     2d8:	1a380071 	bne	e004a4 <__bss_end__+0xdf64dc>
     2dc:	9f1aff08 	svcls	0x001aff08
     2e0:	00000364 	andeq	r0, r0, r4, ror #6
     2e4:	000003a8 	andeq	r0, r0, r8, lsr #7
     2e8:	00710008 	rsbseq	r0, r1, r8
     2ec:	ff081a40 			; <UNDEFINED> instruction: 0xff081a40
     2f0:	03a89f1a 			; <UNDEFINED> instruction: 0x03a89f1a
     2f4:	03e80000 	mvneq	r0, #0
     2f8:	00090000 	andeq	r0, r9, r0
     2fc:	20080071 	andcs	r0, r8, r1, ror r0
     300:	1aff081a 	bne	fffc2370 <__bss_end__+0xfffb83a8>
     304:	0003e89f 	muleq	r3, pc, r8	; <UNPREDICTABLE>
     308:	00042400 	andeq	r2, r4, r0, lsl #8
     30c:	71000900 	tstvc	r0, r0, lsl #18
     310:	1a400800 	bne	1002318 <__bss_end__+0xff8350>
     314:	9f1aff08 	svcls	0x001aff08
	...
     320:	0000028c 	andeq	r0, r0, ip, lsl #5
     324:	00000290 	muleq	r0, r0, r2
     328:	00520001 	subseq	r0, r2, r1
     32c:	00000000 	andeq	r0, r0, r0
     330:	a4000000 	strge	r0, [r0], #-0
     334:	24000002 	strcs	r0, [r0], #-2
     338:	08000004 	stmdaeq	r0, {r2}
     33c:	32007100 	andcc	r7, r0, #0, 2
     340:	1aff081a 	bne	fffc23b0 <__bss_end__+0xfffb83e8>
     344:	0000009f 	muleq	r0, pc, r0	; <UNPREDICTABLE>
     348:	00000000 	andeq	r0, r0, r0
     34c:	0002a400 	andeq	sl, r2, r0, lsl #8
     350:	0002b400 	andeq	fp, r2, r0, lsl #8
     354:	52000100 	andpl	r0, r0, #0, 2
     358:	000002b4 			; <UNDEFINED> instruction: 0x000002b4
     35c:	00000474 	andeq	r0, r0, r4, ror r4
     360:	00700002 	rsbseq	r0, r0, r2
	...
     36c:	000002a4 	andeq	r0, r0, r4, lsr #5
     370:	000002e4 	andeq	r0, r0, r4, ror #5
     374:	00710008 	rsbseq	r0, r1, r8
     378:	ff081a32 			; <UNDEFINED> instruction: 0xff081a32
     37c:	02e49f1a 	rsceq	r9, r4, #26, 30	; 0x68
     380:	03240000 	teqeq	r4, #0
     384:	00080000 	andeq	r0, r8, r0
     388:	1a340071 	bne	d00554 <__bss_end__+0xcf658c>
     38c:	9f1aff08 	svcls	0x001aff08
     390:	00000324 	andeq	r0, r0, r4, lsr #6
     394:	00000364 	andeq	r0, r0, r4, ror #6
     398:	00710008 	rsbseq	r0, r1, r8
     39c:	ff081a38 			; <UNDEFINED> instruction: 0xff081a38
     3a0:	03649f1a 	cmneq	r4, #26, 30	; 0x68
     3a4:	03a80000 			; <UNDEFINED> instruction: 0x03a80000
     3a8:	00080000 	andeq	r0, r8, r0
     3ac:	1a400071 	bne	1000578 <__bss_end__+0xff65b0>
     3b0:	9f1aff08 	svcls	0x001aff08
     3b4:	000003a8 	andeq	r0, r0, r8, lsr #7
     3b8:	000003e8 	andeq	r0, r0, r8, ror #7
     3bc:	00710009 	rsbseq	r0, r1, r9
     3c0:	081a2008 	ldmdaeq	sl, {r3, sp}
     3c4:	e89f1aff 	ldm	pc, {r0, r1, r2, r3, r4, r5, r6, r7, r9, fp, ip}	; <UNPREDICTABLE>
     3c8:	24000003 	strcs	r0, [r0], #-3
     3cc:	09000004 	stmdbeq	r0, {r2}
     3d0:	08007100 	stmdaeq	r0, {r8, ip, sp, lr}
     3d4:	ff081a40 			; <UNDEFINED> instruction: 0xff081a40
     3d8:	00009f1a 	andeq	r9, r0, sl, lsl pc
     3dc:	00000000 	andeq	r0, r0, r0
     3e0:	02cc0000 	sbceq	r0, ip, #0
     3e4:	02d00000 	sbcseq	r0, r0, #0
     3e8:	00010000 	andeq	r0, r1, r0
     3ec:	00000052 	andeq	r0, r0, r2, asr r0
     3f0:	00000000 	andeq	r0, r0, r0
     3f4:	0002e400 	andeq	lr, r2, r0, lsl #8
     3f8:	00042400 	andeq	r2, r4, r0, lsl #8
     3fc:	71000800 	tstvc	r0, r0, lsl #16
     400:	081a3400 	ldmdaeq	sl, {sl, ip, sp}
     404:	009f1aff 			; <UNDEFINED> instruction: 0x009f1aff
     408:	00000000 	andeq	r0, r0, r0
     40c:	e4000000 	str	r0, [r0], #-0
     410:	f4000002 	vst4.8	{d0-d3}, [r0], r2
     414:	01000002 	tsteq	r0, r2
     418:	02f45200 	rscseq	r5, r4, #0, 4
     41c:	04740000 	ldrbteq	r0, [r4], #-0
     420:	00020000 	andeq	r0, r2, r0
     424:	00000070 	andeq	r0, r0, r0, ror r0
     428:	00000000 	andeq	r0, r0, r0
     42c:	02e40000 	rsceq	r0, r4, #0
     430:	03240000 	teqeq	r4, #0
     434:	00080000 	andeq	r0, r8, r0
     438:	1a340071 	bne	d00604 <__bss_end__+0xcf663c>
     43c:	9f1aff08 	svcls	0x001aff08
     440:	00000324 	andeq	r0, r0, r4, lsr #6
     444:	00000364 	andeq	r0, r0, r4, ror #6
     448:	00710008 	rsbseq	r0, r1, r8
     44c:	ff081a38 			; <UNDEFINED> instruction: 0xff081a38
     450:	03649f1a 	cmneq	r4, #26, 30	; 0x68
     454:	03a80000 			; <UNDEFINED> instruction: 0x03a80000
     458:	00080000 	andeq	r0, r8, r0
     45c:	1a400071 	bne	1000628 <__bss_end__+0xff6660>
     460:	9f1aff08 	svcls	0x001aff08
     464:	000003a8 	andeq	r0, r0, r8, lsr #7
     468:	000003e8 	andeq	r0, r0, r8, ror #7
     46c:	00710009 	rsbseq	r0, r1, r9
     470:	081a2008 	ldmdaeq	sl, {r3, sp}
     474:	e89f1aff 	ldm	pc, {r0, r1, r2, r3, r4, r5, r6, r7, r9, fp, ip}	; <UNPREDICTABLE>
     478:	24000003 	strcs	r0, [r0], #-3
     47c:	09000004 	stmdbeq	r0, {r2}
     480:	08007100 	stmdaeq	r0, {r8, ip, sp, lr}
     484:	ff081a40 			; <UNDEFINED> instruction: 0xff081a40
     488:	00009f1a 	andeq	r9, r0, sl, lsl pc
     48c:	00000000 	andeq	r0, r0, r0
     490:	030c0000 	movweq	r0, #49152	; 0xc000
     494:	03100000 	tsteq	r0, #0
     498:	00010000 	andeq	r0, r1, r0
     49c:	00000052 	andeq	r0, r0, r2, asr r0
     4a0:	00000000 	andeq	r0, r0, r0
     4a4:	00032400 	andeq	r2, r3, r0, lsl #8
     4a8:	00042400 	andeq	r2, r4, r0, lsl #8
     4ac:	71000800 	tstvc	r0, r0, lsl #16
     4b0:	081a3800 	ldmdaeq	sl, {fp, ip, sp}
     4b4:	009f1aff 			; <UNDEFINED> instruction: 0x009f1aff
     4b8:	00000000 	andeq	r0, r0, r0
     4bc:	24000000 	strcs	r0, [r0], #-0
     4c0:	34000003 	strcc	r0, [r0], #-3
     4c4:	01000003 	tsteq	r0, r3
     4c8:	03345200 	teqeq	r4, #0, 4
     4cc:	04740000 	ldrbteq	r0, [r4], #-0
     4d0:	00020000 	andeq	r0, r2, r0
     4d4:	00000070 	andeq	r0, r0, r0, ror r0
     4d8:	00000000 	andeq	r0, r0, r0
     4dc:	03240000 	teqeq	r4, #0
     4e0:	03640000 	cmneq	r4, #0
     4e4:	00080000 	andeq	r0, r8, r0
     4e8:	1a380071 	bne	e006b4 <__bss_end__+0xdf66ec>
     4ec:	9f1aff08 	svcls	0x001aff08
     4f0:	00000364 	andeq	r0, r0, r4, ror #6
     4f4:	000003a8 	andeq	r0, r0, r8, lsr #7
     4f8:	00710008 	rsbseq	r0, r1, r8
     4fc:	ff081a40 			; <UNDEFINED> instruction: 0xff081a40
     500:	03a89f1a 			; <UNDEFINED> instruction: 0x03a89f1a
     504:	03e80000 	mvneq	r0, #0
     508:	00090000 	andeq	r0, r9, r0
     50c:	20080071 	andcs	r0, r8, r1, ror r0
     510:	1aff081a 	bne	fffc2580 <__bss_end__+0xfffb85b8>
     514:	0003e89f 	muleq	r3, pc, r8	; <UNPREDICTABLE>
     518:	00042400 	andeq	r2, r4, r0, lsl #8
     51c:	71000900 	tstvc	r0, r0, lsl #18
     520:	1a400800 	bne	1002528 <__bss_end__+0xff8560>
     524:	9f1aff08 	svcls	0x001aff08
	...
     530:	0000034c 	andeq	r0, r0, ip, asr #6
     534:	00000350 	andeq	r0, r0, r0, asr r3
     538:	00520001 	subseq	r0, r2, r1
     53c:	00000000 	andeq	r0, r0, r0
     540:	64000000 	strvs	r0, [r0], #-0
     544:	24000003 	strcs	r0, [r0], #-3
     548:	08000004 	stmdaeq	r0, {r2}
     54c:	40007100 	andmi	r7, r0, r0, lsl #2
     550:	1aff081a 	bne	fffc25c0 <__bss_end__+0xfffb85f8>
     554:	0000009f 	muleq	r0, pc, r0	; <UNPREDICTABLE>
     558:	00000000 	andeq	r0, r0, r0
     55c:	00036400 	andeq	r6, r3, r0, lsl #8
     560:	00037400 	andeq	r7, r3, r0, lsl #8
     564:	52000100 	andpl	r0, r0, #0, 2
     568:	00000374 	andeq	r0, r0, r4, ror r3
     56c:	00000474 	andeq	r0, r0, r4, ror r4
     570:	00700002 	rsbseq	r0, r0, r2
	...
     57c:	00000364 	andeq	r0, r0, r4, ror #6
     580:	000003a8 	andeq	r0, r0, r8, lsr #7
     584:	00710008 	rsbseq	r0, r1, r8
     588:	ff081a40 			; <UNDEFINED> instruction: 0xff081a40
     58c:	03a89f1a 			; <UNDEFINED> instruction: 0x03a89f1a
     590:	03e80000 	mvneq	r0, #0
     594:	00090000 	andeq	r0, r9, r0
     598:	20080071 	andcs	r0, r8, r1, ror r0
     59c:	1aff081a 	bne	fffc260c <__bss_end__+0xfffb8644>
     5a0:	0003e89f 	muleq	r3, pc, r8	; <UNPREDICTABLE>
     5a4:	00042400 	andeq	r2, r4, r0, lsl #8
     5a8:	71000900 	tstvc	r0, r0, lsl #18
     5ac:	1a400800 	bne	10025b4 <__bss_end__+0xff85ec>
     5b0:	9f1aff08 	svcls	0x001aff08
	...
     5bc:	00000390 	muleq	r0, r0, r3
     5c0:	00000394 	muleq	r0, r4, r3
     5c4:	00520001 	subseq	r0, r2, r1
     5c8:	00000000 	andeq	r0, r0, r0
     5cc:	a8000000 	stmdage	r0, {}	; <UNPREDICTABLE>
     5d0:	24000003 	strcs	r0, [r0], #-3
     5d4:	09000004 	stmdbeq	r0, {r2}
     5d8:	08007100 	stmdaeq	r0, {r8, ip, sp, lr}
     5dc:	ff081a20 			; <UNDEFINED> instruction: 0xff081a20
     5e0:	00009f1a 	andeq	r9, r0, sl, lsl pc
     5e4:	00000000 	andeq	r0, r0, r0
     5e8:	03a80000 			; <UNDEFINED> instruction: 0x03a80000
     5ec:	03b80000 			; <UNDEFINED> instruction: 0x03b80000
     5f0:	00010000 	andeq	r0, r1, r0
     5f4:	0003b852 	andeq	fp, r3, r2, asr r8
     5f8:	00047400 	andeq	r7, r4, r0, lsl #8
     5fc:	70000200 	andvc	r0, r0, r0, lsl #4
	...
     608:	0003a800 	andeq	sl, r3, r0, lsl #16
     60c:	0003e800 	andeq	lr, r3, r0, lsl #16
     610:	71000900 	tstvc	r0, r0, lsl #18
     614:	1a200800 	bne	80261c <__bss_end__+0x7f8654>
     618:	9f1aff08 	svcls	0x001aff08
     61c:	000003e8 	andeq	r0, r0, r8, ror #7
     620:	00000424 	andeq	r0, r0, r4, lsr #8
     624:	00710009 	rsbseq	r0, r1, r9
     628:	081a4008 	ldmdaeq	sl, {r3, lr}
     62c:	009f1aff 			; <UNDEFINED> instruction: 0x009f1aff
     630:	00000000 	andeq	r0, r0, r0
     634:	d0000000 	andle	r0, r0, r0
     638:	d4000003 	strle	r0, [r0], #-3
     63c:	01000003 	tsteq	r0, r3
     640:	00005200 	andeq	r5, r0, r0, lsl #4
     644:	00000000 	andeq	r0, r0, r0
     648:	03e80000 	mvneq	r0, #0
     64c:	04240000 	strteq	r0, [r4], #-0
     650:	00090000 	andeq	r0, r9, r0
     654:	40080071 	andmi	r0, r8, r1, ror r0
     658:	1aff081a 	bne	fffc26c8 <__bss_end__+0xfffb8700>
     65c:	0000009f 	muleq	r0, pc, r0	; <UNPREDICTABLE>
     660:	00000000 	andeq	r0, r0, r0
     664:	0003e800 	andeq	lr, r3, r0, lsl #16
     668:	0003f800 	andeq	pc, r3, r0, lsl #16
     66c:	52000100 	andpl	r0, r0, #0, 2
     670:	000003f8 	strdeq	r0, [r0], -r8
     674:	00000474 	andeq	r0, r0, r4, ror r4
     678:	00700002 	rsbseq	r0, r0, r2
	...
     684:	00000410 	andeq	r0, r0, r0, lsl r4
     688:	00000414 	andeq	r0, r0, r4, lsl r4
     68c:	00520001 	subseq	r0, r2, r1
     690:	00000000 	andeq	r0, r0, r0
     694:	28000000 	stmdacs	r0, {}	; <UNPREDICTABLE>
     698:	38000004 	stmdacc	r0, {r2}
     69c:	01000004 	tsteq	r0, r4
     6a0:	04385200 	ldrteq	r5, [r8], #-512	; 0x200
     6a4:	04740000 	ldrbteq	r0, [r4], #-0
     6a8:	00020000 	andeq	r0, r2, r0
     6ac:	00000070 	andeq	r0, r0, r0, ror r0
     6b0:	00000000 	andeq	r0, r0, r0
     6b4:	04500000 	ldrbeq	r0, [r0], #-0
     6b8:	04540000 	ldrbeq	r0, [r4], #-0
     6bc:	00010000 	andeq	r0, r1, r0
     6c0:	00000052 	andeq	r0, r0, r2, asr r0
     6c4:	00000000 	andeq	r0, r0, r0
     6c8:	00045c00 	andeq	r5, r4, r0, lsl #24
     6cc:	00047400 	andeq	r7, r4, r0, lsl #8
     6d0:	70000200 	andvc	r0, r0, r0, lsl #4
	...
     6dc:	00048400 	andeq	r8, r4, r0, lsl #8
     6e0:	00048800 	andeq	r8, r4, r0, lsl #16
     6e4:	52000100 	andpl	r0, r0, #0, 2
	...
     6f0:	00000524 	andeq	r0, r0, r4, lsr #10
     6f4:	00000530 	andeq	r0, r0, r0, lsr r5
     6f8:	9f300002 	svcls	0x00300002
     6fc:	00000704 	andeq	r0, r0, r4, lsl #14
     700:	00000707 	andeq	r0, r0, r7, lsl #14
     704:	075e0001 	ldrbeq	r0, [lr, -r1]
     708:	28000007 	stmdacs	r0, {r0, r1, r2}
     70c:	03000007 	movweq	r0, #7
     710:	7fac9100 	svcvc	0x00ac9100
     714:	00000728 	andeq	r0, r0, r8, lsr #14
     718:	0000073c 	andeq	r0, r0, ip, lsr r7
     71c:	ac910008 	ldcge	0, cr0, [r1], {8}
     720:	0070067f 	rsbseq	r0, r0, pc, ror r6
     724:	073c9f21 	ldreq	r9, [ip, -r1, lsr #30]!
     728:	09000000 	stmdbeq	r0, {}	; <UNPREDICTABLE>
     72c:	000a0000 	andeq	r0, sl, r0
     730:	067fac91 			; <UNDEFINED> instruction: 0x067fac91
     734:	067fb091 			; <UNDEFINED> instruction: 0x067fb091
     738:	09009f21 	stmdbeq	r0, {r0, r5, r8, r9, sl, fp, ip, pc}
     73c:	0a740000 	beq	1d00744 <__bss_end__+0x1cf677c>
     740:	000d0000 	andeq	r0, sp, r0
     744:	067fac91 			; <UNDEFINED> instruction: 0x067fac91
     748:	067fb091 			; <UNDEFINED> instruction: 0x067fb091
     74c:	21007b21 	tstcs	r0, r1, lsr #22
     750:	000a749f 	muleq	sl, pc, r4	; <UNPREDICTABLE>
     754:	000acc00 	andeq	ip, sl, r0, lsl #24
     758:	5b000100 	blpl	b60 <_start-0x74a0>
	...
     764:	00000524 	andeq	r0, r0, r4, lsr #10
     768:	00000530 	andeq	r0, r0, r0, lsr r5
     76c:	9f310002 	svcls	0x00310002
     770:	00000530 	andeq	r0, r0, r0, lsr r5
     774:	00000a8c 	andeq	r0, r0, ip, lsl #21
     778:	a0910003 	addsge	r0, r1, r3
     77c:	000a8c7f 	andeq	r8, sl, pc, ror ip
     780:	000a9000 	andeq	r9, sl, r0
     784:	53000100 	movwpl	r0, #256	; 0x100
     788:	00000a90 	muleq	r0, r0, sl
     78c:	00000a9c 	muleq	r0, ip, sl
     790:	000a0004 	andeq	r0, sl, r4
     794:	0aa09f10 	beq	fe8283dc <__bss_end__+0xfe81e414>
     798:	0acc0000 	beq	ff3007a0 <__bss_end__+0xff2f67d8>
     79c:	00030000 	andeq	r0, r3, r0
     7a0:	007fa091 			; <UNDEFINED> instruction: 0x007fa091
     7a4:	00000000 	andeq	r0, r0, r0
     7a8:	70000000 	andvc	r0, r0, r0
     7ac:	d4000005 	strle	r0, [r0], #-5
     7b0:	02000005 	andeq	r0, r0, #5
     7b4:	d49f3000 	ldrle	r3, [pc], #0	; 7bc <_start-0x7844>
     7b8:	f8000005 			; <UNDEFINED> instruction: 0xf8000005
     7bc:	01000005 	tsteq	r0, r5
     7c0:	05f85a00 	ldrbeq	r5, [r8, #2560]!	; 0xa00
     7c4:	061c0000 	ldreq	r0, [ip], -r0
     7c8:	00060000 	andeq	r0, r6, r0
     7cc:	0078007a 	rsbseq	r0, r8, sl, ror r0
     7d0:	061c9f21 	ldreq	r9, [ip], -r1, lsr #30
     7d4:	06400000 	strbeq	r0, [r0], -r0
     7d8:	00090000 	andeq	r0, r9, r0
     7dc:	0078007a 	rsbseq	r0, r8, sl, ror r0
     7e0:	21007721 	tstcs	r0, r1, lsr #14
     7e4:	0006409f 	muleq	r6, pc, r0	; <UNPREDICTABLE>
     7e8:	00066400 	andeq	r6, r6, r0, lsl #8
     7ec:	7a000c00 	bvc	37f4 <_start-0x480c>
     7f0:	21007800 	tstcs	r0, r0, lsl #16
     7f4:	76210077 			; <UNDEFINED> instruction: 0x76210077
     7f8:	649f2100 	ldrvs	r2, [pc], #256	; 800 <_start-0x7800>
     7fc:	88000006 	stmdahi	r0, {r1, r2}
     800:	0f000006 	svceq	0x00000006
     804:	78007a00 	stmdavc	r0, {r9, fp, ip, sp, lr}
     808:	00772100 	rsbseq	r2, r7, r0, lsl #2
     80c:	21007621 	tstcs	r0, r1, lsr #12
     810:	9f210075 	svcls	0x00210075
     814:	00000688 	andeq	r0, r0, r8, lsl #13
     818:	000006ac 	andeq	r0, r0, ip, lsr #13
     81c:	007a0012 	rsbseq	r0, sl, r2, lsl r0
     820:	77210078 			; <UNDEFINED> instruction: 0x77210078
     824:	00762100 	rsbseq	r2, r6, r0, lsl #2
     828:	21007521 	tstcs	r0, r1, lsr #10
     82c:	9f210074 	svcls	0x00210074
     830:	000006ac 	andeq	r0, r0, ip, lsr #13
     834:	000006c4 	andeq	r0, r0, r4, asr #13
     838:	007a0015 	rsbseq	r0, sl, r5, lsl r0
     83c:	77210078 			; <UNDEFINED> instruction: 0x77210078
     840:	00762100 	rsbseq	r2, r6, r0, lsl #2
     844:	21007521 	tstcs	r0, r1, lsr #10
     848:	7e210074 	mcrvc	0, 1, r0, cr1, cr4, {3}
     84c:	e89f2100 	ldm	pc, {r8, sp}	; <UNPREDICTABLE>
     850:	fc000006 	stc2	0, cr0, [r0], {6}
     854:	01000006 	tsteq	r0, r6
     858:	00005e00 	andeq	r5, r0, r0, lsl #28
     85c:	00000000 	andeq	r0, r0, r0
     860:	05840000 	streq	r0, [r4]
     864:	05ac0000 	streq	r0, [ip, #0]!
     868:	00010000 	andeq	r0, r1, r0
     86c:	0005ac50 	andeq	sl, r5, r0, asr ip
     870:	00070700 	andeq	r0, r7, r0, lsl #14
     874:	7c000600 	stcvc	6, cr0, [r0], {-0}
     878:	25007b00 	strcs	r7, [r0, #-2816]	; 0xb00
     87c:	0000009f 	muleq	r0, pc, r0	; <UNPREDICTABLE>
     880:	00000000 	andeq	r0, r0, r0
     884:	00059800 	andeq	r9, r5, r0, lsl #16
     888:	00070700 	andeq	r0, r7, r0, lsl #14
     88c:	53000100 	movwpl	r0, #256	; 0x100
	...
     898:	0000059c 	muleq	r0, ip, r5
     89c:	000005a0 	andeq	r0, r0, r0, lsr #11
     8a0:	00520001 	subseq	r0, r2, r1
     8a4:	00000000 	andeq	r0, r0, r0
     8a8:	b0000000 	andlt	r0, r0, r0
     8ac:	b4000005 	strlt	r0, [r0], #-5
     8b0:	01000005 	tsteq	r0, r5
     8b4:	00005200 	andeq	r5, r0, r0, lsl #4
     8b8:	00000000 	andeq	r0, r0, r0
     8bc:	05d80000 	ldrbeq	r0, [r8]
     8c0:	05dc0000 	ldrbeq	r0, [ip]
     8c4:	00010000 	andeq	r0, r1, r0
     8c8:	00000052 	andeq	r0, r0, r2, asr r0
     8cc:	00000000 	andeq	r0, r0, r0
     8d0:	0005fc00 	andeq	pc, r5, r0, lsl #24
     8d4:	00060000 	andeq	r0, r6, r0
     8d8:	52000100 	andpl	r0, r0, #0, 2
	...
     8e4:	00000620 	andeq	r0, r0, r0, lsr #12
     8e8:	00000624 	andeq	r0, r0, r4, lsr #12
     8ec:	00520001 	subseq	r0, r2, r1
     8f0:	00000000 	andeq	r0, r0, r0
     8f4:	44000000 	strmi	r0, [r0], #-0
     8f8:	48000006 	stmdami	r0, {r1, r2}
     8fc:	01000006 	tsteq	r0, r6
     900:	00005200 	andeq	r5, r0, r0, lsl #4
     904:	00000000 	andeq	r0, r0, r0
     908:	06680000 	strbteq	r0, [r8], -r0
     90c:	066c0000 	strbteq	r0, [ip], -r0
     910:	00010000 	andeq	r0, r1, r0
     914:	00000052 	andeq	r0, r0, r2, asr r0
     918:	00000000 	andeq	r0, r0, r0
     91c:	00068c00 	andeq	r8, r6, r0, lsl #24
     920:	00069000 	andeq	r9, r6, r0
     924:	52000100 	andpl	r0, r0, #0, 2
	...
     930:	000006b0 			; <UNDEFINED> instruction: 0x000006b0
     934:	000006b4 			; <UNDEFINED> instruction: 0x000006b4
     938:	00520001 	subseq	r0, r2, r1
     93c:	00000000 	andeq	r0, r0, r0
     940:	ec000000 	stc	0, cr0, [r0], {-0}
     944:	f0000006 			; <UNDEFINED> instruction: 0xf0000006
     948:	01000006 	tsteq	r0, r6
     94c:	00005200 	andeq	r5, r0, r0, lsl #4
     950:	00000000 	andeq	r0, r0, r0
     954:	07280000 	streq	r0, [r8, -r0]!
     958:	07800000 	streq	r0, [r0, r0]
     95c:	00020000 	andeq	r0, r2, r0
     960:	07809f30 			; <UNDEFINED> instruction: 0x07809f30
     964:	07980000 	ldreq	r0, [r8, r0]
     968:	00010000 	andeq	r0, r1, r0
     96c:	00079858 	andeq	r9, r7, r8, asr r8
     970:	0007b400 	andeq	fp, r7, r0, lsl #8
     974:	91000300 	mrsls	r0, LR_irq
     978:	07b47fb4 			; <UNDEFINED> instruction: 0x07b47fb4
     97c:	07d00000 	ldrbeq	r0, [r0, r0]
     980:	00080000 	andeq	r0, r8, r0
     984:	067fb491 			; <UNDEFINED> instruction: 0x067fb491
     988:	9f210078 	svcls	0x00210078
     98c:	000007d0 	ldrdeq	r0, [r0], -r0	; <UNPREDICTABLE>
     990:	000007e4 	andeq	r0, r0, r4, ror #15
     994:	b491000a 	ldrlt	r0, [r1], #10
     998:	b891067f 	ldmlt	r1, {r0, r1, r2, r3, r4, r5, r6, r9, sl}
     99c:	9f21067f 	svcls	0x0021067f
     9a0:	000007e4 	andeq	r0, r0, r4, ror #15
     9a4:	000007f8 	strdeq	r0, [r0], -r8
     9a8:	b491000d 	ldrlt	r0, [r1], #13
     9ac:	b891067f 	ldmlt	r1, {r0, r1, r2, r3, r4, r5, r6, r9, sl}
     9b0:	7b21067f 	blvc	8423b4 <__bss_end__+0x8383ec>
     9b4:	f89f2100 			; <UNDEFINED> instruction: 0xf89f2100
     9b8:	0c000007 	stceq	0, cr0, [r0], {7}
     9bc:	0f000008 	svceq	0x00000008
     9c0:	7fb49100 	svcvc	0x00b49100
     9c4:	7fb89106 	svcvc	0x00b89106
     9c8:	bc912106 	ldflts	f2, [r1], {6}
     9cc:	9f21067f 	svcls	0x0021067f
     9d0:	0000080c 	andeq	r0, r0, ip, lsl #16
     9d4:	00000820 	andeq	r0, r0, r0, lsr #16
     9d8:	b4910012 	ldrlt	r0, [r1], #18
     9dc:	b891067f 	ldmlt	r1, {r0, r1, r2, r3, r4, r5, r6, r9, sl}
     9e0:	9121067f 	teqls	r1, pc, ror r6
     9e4:	21067fbc 			; <UNDEFINED> instruction: 0x21067fbc
     9e8:	9f21007b 	svcls	0x0021007b
     9ec:	00000820 	andeq	r0, r0, r0, lsr #16
     9f0:	00000834 	andeq	r0, r0, r4, lsr r8
     9f4:	b4910013 	ldrlt	r0, [r1], #19
     9f8:	b891067f 	ldmlt	r1, {r0, r1, r2, r3, r4, r5, r6, r9, sl}
     9fc:	9121067f 	teqls	r1, pc, ror r6
     a00:	21067fbc 			; <UNDEFINED> instruction: 0x21067fbc
     a04:	21064091 	swpcs	r4, r1, [r6]
     a08:	0008349f 	muleq	r8, pc, r4	; <UNPREDICTABLE>
     a0c:	00084800 	andeq	r4, r8, r0, lsl #16
     a10:	91001600 	tstls	r0, r0, lsl #12
     a14:	91067fb4 			; <UNDEFINED> instruction: 0x91067fb4
     a18:	21067fb8 			; <UNDEFINED> instruction: 0x21067fb8
     a1c:	067fbc91 			; <UNDEFINED> instruction: 0x067fbc91
     a20:	06409121 	strbeq	r9, [r0], -r1, lsr #2
     a24:	21007b21 	tstcs	r0, r1, lsr #22
     a28:	0008489f 	muleq	r8, pc, r8	; <UNPREDICTABLE>
     a2c:	00085c00 	andeq	r5, r8, r0, lsl #24
     a30:	91001700 	tstls	r0, r0, lsl #14
     a34:	91067fb4 			; <UNDEFINED> instruction: 0x91067fb4
     a38:	21067fb8 			; <UNDEFINED> instruction: 0x21067fb8
     a3c:	067fbc91 			; <UNDEFINED> instruction: 0x067fbc91
     a40:	06409121 	strbeq	r9, [r0], -r1, lsr #2
     a44:	06449121 	strbeq	r9, [r4], -r1, lsr #2
     a48:	085c9f21 	ldmdaeq	ip, {r0, r5, r8, r9, sl, fp, ip, pc}^
     a4c:	08700000 	ldmdaeq	r0!, {}^	; <UNPREDICTABLE>
     a50:	001a0000 	andseq	r0, sl, r0
     a54:	067fb491 			; <UNDEFINED> instruction: 0x067fb491
     a58:	067fb891 			; <UNDEFINED> instruction: 0x067fb891
     a5c:	7fbc9121 	svcvc	0x00bc9121
     a60:	40912106 	addsmi	r2, r1, r6, lsl #2
     a64:	44912106 	ldrmi	r2, [r1], #262	; 0x106
     a68:	007b2106 	rsbseq	r2, fp, r6, lsl #2
     a6c:	08709f21 	ldmdaeq	r0!, {r0, r5, r8, r9, sl, fp, ip, pc}^
     a70:	08840000 	stmeq	r4, {}	; <UNPREDICTABLE>
     a74:	001b0000 	andseq	r0, fp, r0
     a78:	067fb491 			; <UNDEFINED> instruction: 0x067fb491
     a7c:	067fb891 			; <UNDEFINED> instruction: 0x067fb891
     a80:	7fbc9121 	svcvc	0x00bc9121
     a84:	40912106 	addsmi	r2, r1, r6, lsl #2
     a88:	44912106 	ldrmi	r2, [r1], #262	; 0x106
     a8c:	48912106 	ldmmi	r1, {r1, r2, r8, sp}
     a90:	849f2106 	ldrhi	r2, [pc], #262	; a98 <_start-0x7568>
     a94:	98000008 	stmdals	r0, {r3}
     a98:	1e000008 	cdpne	0, 0, cr0, cr0, cr8, {0}
     a9c:	7fb49100 	svcvc	0x00b49100
     aa0:	7fb89106 	svcvc	0x00b89106
     aa4:	bc912106 	ldflts	f2, [r1], {6}
     aa8:	9121067f 	teqls	r1, pc, ror r6
     aac:	91210640 	teqls	r1, r0, asr #12
     ab0:	91210644 	teqls	r1, r4, asr #12
     ab4:	7b210648 	blvc	8423dc <__bss_end__+0x838414>
     ab8:	989f2100 	ldmls	pc, {r8, sp}	; <UNPREDICTABLE>
     abc:	ac000008 	stcge	0, cr0, [r0], {8}
     ac0:	1f000008 	svcne	0x00000008
     ac4:	7fb49100 	svcvc	0x00b49100
     ac8:	7fb89106 	svcvc	0x00b89106
     acc:	bc912106 	ldflts	f2, [r1], {6}
     ad0:	9121067f 	teqls	r1, pc, ror r6
     ad4:	91210640 	teqls	r1, r0, asr #12
     ad8:	91210644 	teqls	r1, r4, asr #12
     adc:	91210648 	teqls	r1, r8, asr #12
     ae0:	9f21064c 	svcls	0x0021064c
     ae4:	000008ec 	andeq	r0, r0, ip, ror #17
     ae8:	00000900 	andeq	r0, r0, r0, lsl #18
     aec:	005b0001 	subseq	r0, fp, r1
     af0:	28000009 	stmdacs	r0, {r0, r3}
     af4:	2600000a 	strcs	r0, [r0], -sl
     af8:	7f9c9100 	svcvc	0x009c9100
     afc:	1a007206 	bne	1d31c <__bss_end__+0x13354>
     b00:	254f243b 	strbcs	r2, [pc, #-1083]	; 6cd <_start-0x7933>
     b04:	067fb491 			; <UNDEFINED> instruction: 0x067fb491
     b08:	7fbc9121 	svcvc	0x00bc9121
     b0c:	40912106 	addsmi	r2, r1, r6, lsl #2
     b10:	44912106 	ldrmi	r2, [r1], #262	; 0x106
     b14:	48912106 	ldmmi	r1, {r1, r2, r8, sp}
     b18:	4c912106 	ldfmis	f2, [r1], {6}
     b1c:	289f2106 	ldmcs	pc, {r1, r2, r8, sp}	; <UNPREDICTABLE>
     b20:	9b00000a 	blls	b50 <_start-0x74b0>
     b24:	2c00000a 	stccs	0, cr0, [r0], {10}
     b28:	b8033100 	stmdalt	r3, {r8, ip, sp}
     b2c:	0600009b 			; <UNDEFINED> instruction: 0x0600009b
     b30:	7f9c9124 	svcvc	0x009c9124
     b34:	243b1a06 	ldrtcs	r1, [fp], #-2566	; 0xa06
     b38:	b491254f 	ldrlt	r2, [r1], #1359	; 0x54f
     b3c:	9121067f 	teqls	r1, pc, ror r6
     b40:	21067fbc 			; <UNDEFINED> instruction: 0x21067fbc
     b44:	21064091 	swpcs	r4, r1, [r6]
     b48:	21064491 			; <UNDEFINED> instruction: 0x21064491
     b4c:	21064891 			; <UNDEFINED> instruction: 0x21064891
     b50:	21064c91 			; <UNDEFINED> instruction: 0x21064c91
     b54:	000aa09f 	muleq	sl, pc, r0	; <UNPREDICTABLE>
     b58:	000aab00 	andeq	sl, sl, r0, lsl #22
     b5c:	31002c00 	tstcc	r0, r0, lsl #24
     b60:	009bb803 	addseq	fp, fp, r3, lsl #16
     b64:	91240600 	teqls	r4, r0, lsl #12
     b68:	1a067f9c 	bne	1a09e0 <__bss_end__+0x196a18>
     b6c:	254f243b 	strbcs	r2, [pc, #-1083]	; 739 <_start-0x78c7>
     b70:	067fb491 			; <UNDEFINED> instruction: 0x067fb491
     b74:	7fbc9121 	svcvc	0x00bc9121
     b78:	40912106 	addsmi	r2, r1, r6, lsl #2
     b7c:	44912106 	ldrmi	r2, [r1], #262	; 0x106
     b80:	48912106 	ldmmi	r1, {r1, r2, r8, sp}
     b84:	4c912106 	ldfmis	f2, [r1], {6}
     b88:	009f2106 	addseq	r2, pc, r6, lsl #2
     b8c:	00000000 	andeq	r0, r0, r0
     b90:	28000000 	stmdacs	r0, {}	; <UNPREDICTABLE>
     b94:	38000007 	stmdacc	r0, {r0, r1, r2}
     b98:	01000009 	tsteq	r0, r9
     b9c:	09385600 	ldmdbeq	r8!, {r9, sl, ip, lr}
     ba0:	0a9b0000 	beq	fe6c0ba8 <__bss_end__+0xfe6b6be0>
     ba4:	00090000 	andeq	r0, r9, r0
     ba8:	009bc003 	addseq	ip, fp, r3
     bac:	25310600 	ldrcs	r0, [r1, #-1536]!	; 0x600
     bb0:	000aa09f 	muleq	sl, pc, r0	; <UNPREDICTABLE>
     bb4:	000aab00 	andeq	sl, sl, r0, lsl #22
     bb8:	03000900 	movweq	r0, #2304	; 0x900
     bbc:	00009bc0 	andeq	r9, r0, r0, asr #23
     bc0:	9f253106 	svcls	0x00253106
	...
     bcc:	0000073c 	andeq	r0, r0, ip, lsr r7
     bd0:	00000900 	andeq	r0, r0, r0, lsl #18
     bd4:	00530001 	subseq	r0, r3, r1
     bd8:	00000000 	andeq	r0, r0, r0
     bdc:	40000000 	andmi	r0, r0, r0
     be0:	44000007 	strmi	r0, [r0], #-7
     be4:	01000007 	tsteq	r0, r7
     be8:	00005000 	andeq	r5, r0, r0
     bec:	00000000 	andeq	r0, r0, r0
     bf0:	07540000 	ldrbeq	r0, [r4, -r0]
     bf4:	07580000 	ldrbeq	r0, [r8, -r0]
     bf8:	00010000 	andeq	r0, r1, r0
     bfc:	00000050 	andeq	r0, r0, r0, asr r0
     c00:	00000000 	andeq	r0, r0, r0
     c04:	00078800 	andeq	r8, r7, r0, lsl #16
     c08:	00078c00 	andeq	r8, r7, r0, lsl #24
     c0c:	50000100 	andpl	r0, r0, r0, lsl #2
	...
     c18:	000007bc 			; <UNDEFINED> instruction: 0x000007bc
     c1c:	000007c0 	andeq	r0, r0, r0, asr #15
     c20:	00500001 	subseq	r0, r0, r1
     c24:	00000000 	andeq	r0, r0, r0
     c28:	e8000000 	stmda	r0, {}	; <UNPREDICTABLE>
     c2c:	ec000007 	stc	0, cr0, [r0], {7}
     c30:	01000007 	tsteq	r0, r7
     c34:	00005000 	andeq	r5, r0, r0
     c38:	00000000 	andeq	r0, r0, r0
     c3c:	08100000 	ldmdaeq	r0, {}	; <UNPREDICTABLE>
     c40:	08140000 	ldmdaeq	r4, {}	; <UNPREDICTABLE>
     c44:	00010000 	andeq	r0, r1, r0
     c48:	00000050 	andeq	r0, r0, r0, asr r0
     c4c:	00000000 	andeq	r0, r0, r0
     c50:	00083800 	andeq	r3, r8, r0, lsl #16
     c54:	00083c00 	andeq	r3, r8, r0, lsl #24
     c58:	50000100 	andpl	r0, r0, r0, lsl #2
	...
     c64:	00000860 	andeq	r0, r0, r0, ror #16
     c68:	00000864 	andeq	r0, r0, r4, ror #16
     c6c:	00500001 	subseq	r0, r0, r1
     c70:	00000000 	andeq	r0, r0, r0
     c74:	88000000 	stmdahi	r0, {}	; <UNPREDICTABLE>
     c78:	8c000008 	stchi	0, cr0, [r0], {8}
     c7c:	01000008 	tsteq	r0, r8
     c80:	00005800 	andeq	r5, r0, r0, lsl #16
     c84:	00000000 	andeq	r0, r0, r0
     c88:	08f00000 	ldmeq	r0!, {}^	; <UNPREDICTABLE>
     c8c:	08f40000 	ldmeq	r4!, {}^	; <UNPREDICTABLE>
     c90:	00010000 	andeq	r0, r1, r0
     c94:	0000005a 	andeq	r0, r0, sl, asr r0
     c98:	00000000 	andeq	r0, r0, r0
     c9c:	00090000 	andeq	r0, r9, r0
     ca0:	00094c00 	andeq	r4, r9, r0, lsl #24
     ca4:	30000200 	andcc	r0, r0, r0, lsl #4
     ca8:	00094c9f 	muleq	r9, pc, ip	; <UNPREDICTABLE>
     cac:	00097000 	andeq	r7, r9, r0
     cb0:	56000100 	strpl	r0, [r0], -r0, lsl #2
     cb4:	00000970 	andeq	r0, r0, r0, ror r9
     cb8:	00000990 	muleq	r0, r0, r9
     cbc:	00760006 	rsbseq	r0, r6, r6
     cc0:	9f210077 	svcls	0x00210077
     cc4:	00000990 	muleq	r0, r0, r9
     cc8:	000009b0 			; <UNDEFINED> instruction: 0x000009b0
     ccc:	00760009 	rsbseq	r0, r6, r9
     cd0:	7a210077 	bvc	840eb4 <__bss_end__+0x836eec>
     cd4:	b09f2100 	addslt	r2, pc, r0, lsl #2
     cd8:	d0000009 	andle	r0, r0, r9
     cdc:	0c000009 	stceq	0, cr0, [r0], {9}
     ce0:	77007600 	strvc	r7, [r0, -r0, lsl #12]
     ce4:	007a2100 	rsbseq	r2, sl, r0, lsl #2
     ce8:	21007521 	tstcs	r0, r1, lsr #10
     cec:	0009d09f 	muleq	r9, pc, r0	; <UNPREDICTABLE>
     cf0:	0009f000 	andeq	pc, r9, r0
     cf4:	76000f00 	strvc	r0, [r0], -r0, lsl #30
     cf8:	21007700 	tstcs	r0, r0, lsl #14
     cfc:	7521007a 	strvc	r0, [r1, #-122]!	; 0x7a
     d00:	00742100 	rsbseq	r2, r4, r0, lsl #2
     d04:	09f09f21 	ldmibeq	r0!, {r0, r5, r8, r9, sl, fp, ip, pc}^
     d08:	0a100000 	beq	400d10 <__bss_end__+0x3f6d48>
     d0c:	00120000 	andseq	r0, r2, r0
     d10:	00770076 	rsbseq	r0, r7, r6, ror r0
     d14:	21007a21 	tstcs	r0, r1, lsr #20
     d18:	74210075 	strtvc	r0, [r1], #-117	; 0x75
     d1c:	007e2100 	rsbseq	r2, lr, r0, lsl #2
     d20:	0a109f21 	beq	4289ac <__bss_end__+0x41e9e4>
     d24:	0a300000 	beq	c00d2c <__bss_end__+0xbf6d64>
     d28:	00150000 	andseq	r0, r5, r0
     d2c:	00770076 	rsbseq	r0, r7, r6, ror r0
     d30:	21007a21 	tstcs	r0, r1, lsr #20
     d34:	74210075 	strtvc	r0, [r1], #-117	; 0x75
     d38:	007e2100 	rsbseq	r2, lr, r0, lsl #2
     d3c:	21007c21 	tstcs	r0, r1, lsr #24
     d40:	000a309f 	muleq	sl, pc, r0	; <UNPREDICTABLE>
     d44:	000a5000 	andeq	r5, sl, r0
     d48:	76001800 	strvc	r1, [r0], -r0, lsl #16
     d4c:	21007700 	tstcs	r0, r0, lsl #14
     d50:	7521007a 	strvc	r0, [r1, #-122]!	; 0x7a
     d54:	00742100 	rsbseq	r2, r4, r0, lsl #2
     d58:	21007e21 	tstcs	r0, r1, lsr #28
     d5c:	7221007c 	eorvc	r0, r1, #124	; 0x7c
     d60:	009f2100 	addseq	r2, pc, r0, lsl #2
	...
     d6c:	38000009 	stmdacc	r0, {r0, r3}
     d70:	01000009 	tsteq	r0, r9
     d74:	09385600 	ldmdbeq	r8!, {r9, sl, ip, lr}
     d78:	0a9b0000 	beq	fe6c0d80 <__bss_end__+0xfe6b6db8>
     d7c:	00090000 	andeq	r0, r9, r0
     d80:	009bc003 	addseq	ip, fp, r3
     d84:	25310600 	ldrcs	r0, [r1, #-1536]!	; 0x600
     d88:	000aa09f 	muleq	sl, pc, r0	; <UNPREDICTABLE>
     d8c:	000aab00 	andeq	sl, sl, r0, lsl #22
     d90:	03000900 	movweq	r0, #2304	; 0x900
     d94:	00009bc0 	andeq	r9, r0, r0, asr #23
     d98:	9f253106 	svcls	0x00253106
	...
     da4:	00000914 	andeq	r0, r0, r4, lsl r9
     da8:	00000a4c 	andeq	r0, r0, ip, asr #20
     dac:	00530001 	subseq	r0, r3, r1
     db0:	00000000 	andeq	r0, r0, r0
     db4:	18000000 	stmdane	r0, {}	; <UNPREDICTABLE>
     db8:	1c000009 	stcne	0, cr0, [r0], {9}
     dbc:	01000009 	tsteq	r0, r9
     dc0:	00005100 	andeq	r5, r0, r0, lsl #2
     dc4:	00000000 	andeq	r0, r0, r0
     dc8:	09280000 	stmdbeq	r8!, {}	; <UNPREDICTABLE>
     dcc:	092c0000 	stmdbeq	ip!, {}	; <UNPREDICTABLE>
     dd0:	00010000 	andeq	r0, r1, r0
     dd4:	00000051 	andeq	r0, r0, r1, asr r0
     dd8:	00000000 	andeq	r0, r0, r0
     ddc:	00095000 	andeq	r5, r9, r0
     de0:	00095400 	andeq	r5, r9, r0, lsl #8
     de4:	51000100 	mrspl	r0, (UNDEF: 16)
	...
     df0:	00000974 	andeq	r0, r0, r4, ror r9
     df4:	00000978 	andeq	r0, r0, r8, ror r9
     df8:	00510001 	subseq	r0, r1, r1
     dfc:	00000000 	andeq	r0, r0, r0
     e00:	94000000 	strls	r0, [r0], #-0
     e04:	98000009 	stmdals	r0, {r0, r3}
     e08:	01000009 	tsteq	r0, r9
     e0c:	00005100 	andeq	r5, r0, r0, lsl #2
     e10:	00000000 	andeq	r0, r0, r0
     e14:	09b40000 	ldmibeq	r4!, {}	; <UNPREDICTABLE>
     e18:	09b80000 	ldmibeq	r8!, {}	; <UNPREDICTABLE>
     e1c:	00010000 	andeq	r0, r1, r0
     e20:	00000051 	andeq	r0, r0, r1, asr r0
     e24:	00000000 	andeq	r0, r0, r0
     e28:	0009d400 	andeq	sp, r9, r0, lsl #8
     e2c:	0009d800 	andeq	sp, r9, r0, lsl #16
     e30:	51000100 	mrspl	r0, (UNDEF: 16)
	...
     e3c:	000009f4 	strdeq	r0, [r0], -r4
     e40:	000009f8 	strdeq	r0, [r0], -r8
     e44:	00510001 	subseq	r0, r1, r1
     e48:	00000000 	andeq	r0, r0, r0
     e4c:	14000000 	strne	r0, [r0], #-0
     e50:	1800000a 	stmdane	r0, {r1, r3}
     e54:	0100000a 	tsteq	r0, sl
     e58:	00005100 	andeq	r5, r0, r0, lsl #2
     e5c:	00000000 	andeq	r0, r0, r0
     e60:	0a340000 	beq	d00e68 <__bss_end__+0xcf6ea0>
     e64:	0a380000 	beq	e00e6c <__bss_end__+0xdf6ea4>
     e68:	00010000 	andeq	r0, r1, r0
     e6c:	00000051 	andeq	r0, r0, r1, asr r0
     e70:	00000000 	andeq	r0, r0, r0
     e74:	00002c00 	andeq	r2, r0, r0, lsl #24
     e78:	00003800 	andeq	r3, r0, r0, lsl #16
     e7c:	50000100 	andpl	r0, r0, r0, lsl #2
     e80:	00000038 	andeq	r0, r0, r8, lsr r0
     e84:	00000048 	andeq	r0, r0, r8, asr #32
     e88:	48550001 	ldmdami	r5, {r0}^
     e8c:	58000000 	stmdapl	r0, {}	; <UNPREDICTABLE>
     e90:	01000000 	mrseq	r0, (UNDEF: 0)
     e94:	00005000 	andeq	r5, r0, r0
	...
     ea0:	000b0000 	andeq	r0, fp, r0
     ea4:	00010000 	andeq	r0, r1, r0
     ea8:	00000b50 	andeq	r0, r0, r0, asr fp
     eac:	00001400 	andeq	r1, r0, r0, lsl #8
     eb0:	54000100 	strpl	r0, [r0], #-256	; 0x100
	...
     ec0:	00000010 	andeq	r0, r0, r0, lsl r0
     ec4:	10500001 	subsne	r0, r0, r1
     ec8:	34000000 	strcc	r0, [r0], #-0
     ecc:	01000000 	mrseq	r0, (UNDEF: 0)
     ed0:	00005400 	andeq	r5, r0, r0, lsl #8
	...
     edc:	00040000 	andeq	r0, r4, r0
     ee0:	00010000 	andeq	r0, r1, r0
     ee4:	00000450 	andeq	r0, r0, r0, asr r4
     ee8:	00000c00 	andeq	r0, r0, r0, lsl #24
     eec:	70000300 	andvc	r0, r0, r0, lsl #6
     ef0:	000c9f30 	andeq	r9, ip, r0, lsr pc
     ef4:	00140000 	andseq	r0, r4, r0
     ef8:	00040000 	andeq	r0, r4, r0
     efc:	9f5001f3 	svcls	0x005001f3
	...
     f08:	00000014 	andeq	r0, r0, r4, lsl r0
     f0c:	00000020 	andeq	r0, r0, r0, lsr #32
     f10:	20500001 	subscs	r0, r0, r1
     f14:	2c000000 	stccs	0, cr0, [r0], {-0}
     f18:	03000000 	movweq	r0, #0
     f1c:	9f017000 	svcls	0x00017000
     f20:	0000002c 	andeq	r0, r0, ip, lsr #32
     f24:	00000040 	andeq	r0, r0, r0, asr #32
     f28:	00500001 	subseq	r0, r0, r1
     f2c:	00000000 	andeq	r0, r0, r0
     f30:	14000000 	strne	r0, [r0], #-0
     f34:	18000000 	stmdane	r0, {}	; <UNPREDICTABLE>
     f38:	01000000 	mrseq	r0, (UNDEF: 0)
     f3c:	00185100 	andseq	r5, r8, r0, lsl #2
     f40:	00400000 	subeq	r0, r0, r0
     f44:	00040000 	andeq	r0, r4, r0
     f48:	9f5101f3 	svcls	0x005101f3
	...
     f54:	00000040 	andeq	r0, r0, r0, asr #32
     f58:	00000060 	andeq	r0, r0, r0, rrx
     f5c:	60500001 	subsvs	r0, r0, r1
     f60:	6c000000 	stcvs	0, cr0, [r0], {-0}
     f64:	03000000 	movweq	r0, #0
     f68:	9f017100 	svcls	0x00017100
     f6c:	0000006c 	andeq	r0, r0, ip, rrx
     f70:	00000074 	andeq	r0, r0, r4, ror r0
     f74:	74510001 	ldrbvc	r0, [r1], #-1
     f78:	80000000 	andhi	r0, r0, r0
     f7c:	03000000 	movweq	r0, #0
     f80:	9f017100 	svcls	0x00017100
	...
     f8c:	00000040 	andeq	r0, r0, r0, asr #32
     f90:	00000050 	andeq	r0, r0, r0, asr r0
     f94:	50510001 	subspl	r0, r1, r1
     f98:	80000000 	andhi	r0, r0, r0
     f9c:	04000000 	streq	r0, [r0], #-0
     fa0:	5101f300 	mrspl	pc, SP_irq	; <UNPREDICTABLE>
     fa4:	0000009f 	muleq	r0, pc, r0	; <UNPREDICTABLE>
     fa8:	00000000 	andeq	r0, r0, r0
     fac:	00004000 	andeq	r4, r0, r0
     fb0:	00005800 	andeq	r5, r0, r0, lsl #16
     fb4:	52000100 	andpl	r0, r0, #0, 2
     fb8:	00000058 	andeq	r0, r0, r8, asr r0
     fbc:	00000064 	andeq	r0, r0, r4, rrx
     fc0:	64520001 	ldrbvs	r0, [r2], #-1
     fc4:	68000000 	stmdavs	r0, {}	; <UNPREDICTABLE>
     fc8:	03000000 	movweq	r0, #0
     fcc:	9f017200 	svcls	0x00017200
     fd0:	00000068 	andeq	r0, r0, r8, rrx
     fd4:	00000080 	andeq	r0, r0, r0, lsl #1
     fd8:	00520001 	subseq	r0, r2, r1
     fdc:	00000000 	andeq	r0, r0, r0
     fe0:	40000000 	andmi	r0, r0, r0
     fe4:	54000000 	strpl	r0, [r0], #-0
     fe8:	01000000 	mrseq	r0, (UNDEF: 0)
     fec:	00545300 	subseq	r5, r4, r0, lsl #6
     ff0:	00780000 	rsbseq	r0, r8, r0
     ff4:	00010000 	andeq	r0, r1, r0
     ff8:	00000053 	andeq	r0, r0, r3, asr r0
     ffc:	00000000 	andeq	r0, r0, r0
    1000:	00004800 	andeq	r4, r0, r0, lsl #16
    1004:	00006000 	andeq	r6, r0, r0
    1008:	5c000100 	stfpls	f0, [r0], {-0}
    100c:	00000060 	andeq	r0, r0, r0, rrx
    1010:	00000080 	andeq	r0, r0, r0, lsl #1
    1014:	01f3000a 	mvnseq	r0, sl
    1018:	5301f352 	movwpl	pc, #4946	; 0x1352	; <UNPREDICTABLE>
    101c:	9f01231c 	svcls	0x0001231c
	...
    1028:	00000080 	andeq	r0, r0, r0, lsl #1
    102c:	000000a4 	andeq	r0, r0, r4, lsr #1
    1030:	a4500001 	ldrbge	r0, [r0], #-1
    1034:	18000000 	stmdane	r0, {}	; <UNPREDICTABLE>
    1038:	03000001 	movweq	r0, #1
    103c:	9f027000 	svcls	0x00027000
    1040:	00000118 	andeq	r0, r0, r8, lsl r1
    1044:	0000021c 	andeq	r0, r0, ip, lsl r2
    1048:	01f30004 	mvnseq	r0, r4
    104c:	00009f50 	andeq	r9, r0, r0, asr pc
    1050:	00000000 	andeq	r0, r0, r0
    1054:	00800000 	addeq	r0, r0, r0
    1058:	00f00000 	rscseq	r0, r0, r0
    105c:	00010000 	andeq	r0, r1, r0
    1060:	0000f051 	andeq	pc, r0, r1, asr r0	; <UNPREDICTABLE>
    1064:	00016000 	andeq	r6, r1, r0
    1068:	55000100 	strpl	r0, [r0, #-256]	; 0x100
    106c:	00000160 	andeq	r0, r0, r0, ror #2
    1070:	00000168 	andeq	r0, r0, r8, ror #2
    1074:	68510001 	ldmdavs	r1, {r0}^
    1078:	88000001 	stmdahi	r0, {r0}
    107c:	01000001 	tsteq	r0, r1
    1080:	01885500 	orreq	r5, r8, r0, lsl #10
    1084:	019c0000 	orrseq	r0, ip, r0
    1088:	00010000 	andeq	r0, r1, r0
    108c:	00019c51 	andeq	r9, r1, r1, asr ip
    1090:	0001bc00 	andeq	fp, r1, r0, lsl #24
    1094:	55000100 	strpl	r0, [r0, #-256]	; 0x100
    1098:	000001bc 			; <UNDEFINED> instruction: 0x000001bc
    109c:	000001bf 			; <UNDEFINED> instruction: 0x000001bf
    10a0:	bf510001 	svclt	0x00510001
    10a4:	00000001 	andeq	r0, r0, r1
    10a8:	01000002 	tsteq	r0, r2
    10ac:	02005500 	andeq	r5, r0, #0, 10
    10b0:	021c0000 	andseq	r0, ip, #0
    10b4:	00040000 	andeq	r0, r4, r0
    10b8:	9f5101f3 	svcls	0x005101f3
	...
    10c4:	00000080 	andeq	r0, r0, r0, lsl #1
    10c8:	00000094 	muleq	r0, r4, r0
    10cc:	94520001 	ldrbls	r0, [r2], #-1
    10d0:	00000000 	andeq	r0, r0, r0
    10d4:	01000002 	tsteq	r0, r2
    10d8:	02005400 	andeq	r5, r0, #0, 8
    10dc:	021c0000 	andseq	r0, ip, #0
    10e0:	00040000 	andeq	r0, r4, r0
    10e4:	9f5201f3 	svcls	0x005201f3
	...
    10f0:	00000080 	andeq	r0, r0, r0, lsl #1
    10f4:	00000100 	andeq	r0, r0, r0, lsl #2
    10f8:	04530001 	ldrbeq	r0, [r3], #-1
    10fc:	08000001 	stmdaeq	r0, {r0}
    1100:	01000001 	tsteq	r0, r1
    1104:	01605300 	cmneq	r0, r0, lsl #6
    1108:	01680000 	cmneq	r8, r0
    110c:	00010000 	andeq	r0, r1, r0
    1110:	00016853 	andeq	r6, r1, r3, asr r8
    1114:	00018800 	andeq	r8, r1, r0, lsl #16
    1118:	f3000400 	vshl.u8	d0, d0, d0
    111c:	889f5301 	ldmhi	pc, {r0, r8, r9, ip, lr}	; <UNPREDICTABLE>
    1120:	90000001 	andls	r0, r0, r1
    1124:	01000001 	tsteq	r0, r1
    1128:	01905300 	orrseq	r5, r0, r0, lsl #6
    112c:	01940000 	orrseq	r0, r4, r0
    1130:	00010000 	andeq	r0, r1, r0
    1134:	0001945c 	andeq	r9, r1, ip, asr r4
    1138:	00019c00 	andeq	r9, r1, r0, lsl #24
    113c:	53000100 	movwpl	r0, #256	; 0x100
    1140:	0000019c 	muleq	r0, ip, r1
    1144:	000001bc 			; <UNDEFINED> instruction: 0x000001bc
    1148:	01f30004 	mvnseq	r0, r4
    114c:	01bc9f53 			; <UNDEFINED> instruction: 0x01bc9f53
    1150:	01bf0000 			; <UNDEFINED> instruction: 0x01bf0000
    1154:	00010000 	andeq	r0, r1, r0
    1158:	0001bf53 	andeq	fp, r1, r3, asr pc
    115c:	0001d800 	andeq	sp, r1, r0, lsl #16
    1160:	f3000400 	vshl.u8	d0, d0, d0
    1164:	009f5301 	addseq	r5, pc, r1, lsl #6
    1168:	00000000 	andeq	r0, r0, r0
    116c:	80000000 	andhi	r0, r0, r0
    1170:	9c000000 	stcls	0, cr0, [r0], {-0}
    1174:	02000000 	andeq	r0, r0, #0
    1178:	9c009100 	stflsd	f1, [r0], {-0}
    117c:	bf000000 	svclt	0x00000000
    1180:	01000001 	tsteq	r0, r1
    1184:	01d85200 	bicseq	r5, r8, r0, lsl #4
    1188:	01e30000 	mvneq	r0, r0
    118c:	00010000 	andeq	r0, r1, r0
    1190:	00000052 	andeq	r0, r0, r2, asr r0
    1194:	00000000 	andeq	r0, r0, r0
    1198:	00009c00 	andeq	r9, r0, r0, lsl #24
    119c:	00011800 	andeq	r1, r1, r0, lsl #16
    11a0:	5d000100 	stfpls	f0, [r0, #-0]
    11a4:	00000118 	andeq	r0, r0, r8, lsl r1
    11a8:	0000011c 	andeq	r0, r0, ip, lsl r1
    11ac:	1c530001 	mrrcne	0, 0, r0, r3, cr1
    11b0:	20000001 	andcs	r0, r0, r1
    11b4:	01000001 	tsteq	r0, r1
    11b8:	01205100 	teqeq	r0, r0, lsl #2
    11bc:	01600000 	cmneq	r0, r0
    11c0:	00010000 	andeq	r0, r1, r0
    11c4:	00016053 	andeq	r6, r1, r3, asr r0
    11c8:	00016800 	andeq	r6, r1, r0, lsl #16
    11cc:	5d000100 	stfpls	f0, [r0, #-0]
    11d0:	00000168 	andeq	r0, r0, r8, ror #2
    11d4:	0000016c 	andeq	r0, r0, ip, ror #2
    11d8:	6c5e0001 	mrrcvs	0, 0, r0, lr, cr1
    11dc:	88000001 	stmdahi	r0, {r0}
    11e0:	01000001 	tsteq	r0, r1
    11e4:	01885300 	orreq	r5, r8, r0, lsl #6
    11e8:	01900000 	orrseq	r0, r0, r0
    11ec:	00040000 	andeq	r0, r4, r0
    11f0:	9f7fa191 	svcls	0x007fa191
    11f4:	00000190 	muleq	r0, r0, r1
    11f8:	00000194 	muleq	r0, r4, r1
    11fc:	94530001 	ldrbls	r0, [r3], #-1
    1200:	9c000001 	stcls	0, cr0, [r0], {1}
    1204:	01000001 	tsteq	r0, r1
    1208:	019c5d00 	orrseq	r5, ip, r0, lsl #26
    120c:	01a00000 	moveq	r0, r0
    1210:	00010000 	andeq	r0, r1, r0
    1214:	0001a05e 	andeq	sl, r1, lr, asr r0
    1218:	0001bc00 	andeq	fp, r1, r0, lsl #24
    121c:	53000100 	movwpl	r0, #256	; 0x100
    1220:	000001bc 			; <UNDEFINED> instruction: 0x000001bc
    1224:	000001d8 	ldrdeq	r0, [r0], -r8
    1228:	d85d0001 	ldmdale	sp, {r0}^
    122c:	e3000001 	movw	r0, #1
    1230:	01000001 	tsteq	r0, r1
    1234:	00005300 	andeq	r5, r0, r0, lsl #6
    1238:	00000000 	andeq	r0, r0, r0
    123c:	00a00000 	adceq	r0, r0, r0
    1240:	00ec0000 	rsceq	r0, ip, r0
    1244:	00010000 	andeq	r0, r1, r0
    1248:	0000ec5c 	andeq	lr, r0, ip, asr ip
    124c:	00010000 	andeq	r0, r1, r0
    1250:	53000100 	movwpl	r0, #256	; 0x100
    1254:	00000100 	andeq	r0, r0, r0, lsl #2
    1258:	00000104 	andeq	r0, r0, r4, lsl #2
    125c:	045c0001 	ldrbeq	r0, [ip], #-1
    1260:	08000001 	stmdaeq	r0, {r0}
    1264:	01000001 	tsteq	r0, r1
    1268:	01085300 	mrseq	r5, (UNDEF: 56)
    126c:	01180000 	tsteq	r8, r0
    1270:	00010000 	andeq	r0, r1, r0
    1274:	0001185c 	andeq	r1, r1, ip, asr r8
    1278:	00011c00 	andeq	r1, r1, r0, lsl #24
    127c:	50000100 	andpl	r0, r0, r0, lsl #2
    1280:	0000011c 	andeq	r0, r0, ip, lsl r1
    1284:	0000013c 	andeq	r0, r0, ip, lsr r1
    1288:	445c0001 	ldrbmi	r0, [ip], #-1
    128c:	58000001 	stmdapl	r0, {r0}
    1290:	01000001 	tsteq	r0, r1
    1294:	01585000 	cmpeq	r8, r0
    1298:	01600000 	cmneq	r0, r0
    129c:	00010000 	andeq	r0, r1, r0
    12a0:	0001605c 	andeq	r6, r1, ip, asr r0
    12a4:	00016800 	andeq	r6, r1, r0, lsl #16
    12a8:	53000100 	movwpl	r0, #256	; 0x100
    12ac:	00000168 	andeq	r0, r0, r8, ror #2
    12b0:	00000178 	andeq	r0, r0, r8, ror r1
    12b4:	785c0001 	ldmdavc	ip, {r0}^
    12b8:	80000001 	andhi	r0, r0, r1
    12bc:	05000001 	streq	r0, [r0, #-1]
    12c0:	34007c00 	strcc	r7, [r0], #-3072	; 0xc00
    12c4:	01809f25 	orreq	r9, r0, r5, lsr #30
    12c8:	01880000 	orreq	r0, r8, r0
    12cc:	00010000 	andeq	r0, r1, r0
    12d0:	0001885c 	andeq	r8, r1, ip, asr r8
    12d4:	00019000 	andeq	r9, r1, r0
    12d8:	53000100 	movwpl	r0, #256	; 0x100
    12dc:	00000190 	muleq	r0, r0, r1
    12e0:	00000194 	muleq	r0, r4, r1
    12e4:	945c0001 	ldrbls	r0, [ip], #-1
    12e8:	9c000001 	stcls	0, cr0, [r0], {1}
    12ec:	01000001 	tsteq	r0, r1
    12f0:	019c5300 	orrseq	r5, ip, r0, lsl #6
    12f4:	01ac0000 			; <UNDEFINED> instruction: 0x01ac0000
    12f8:	00010000 	andeq	r0, r1, r0
    12fc:	0001ac5c 	andeq	sl, r1, ip, asr ip
    1300:	0001b400 	andeq	fp, r1, r0, lsl #8
    1304:	7c000500 	cfstr32vc	mvfx0, [r0], {-0}
    1308:	9f253100 	svcls	0x00253100
    130c:	000001b4 			; <UNDEFINED> instruction: 0x000001b4
    1310:	000001bc 			; <UNDEFINED> instruction: 0x000001bc
    1314:	bc5c0001 	mrrclt	0, 0, r0, ip, cr1
    1318:	bf000001 	svclt	0x00000001
    131c:	01000001 	tsteq	r0, r1
    1320:	01bf5300 			; <UNDEFINED> instruction: 0x01bf5300
    1324:	01d80000 	bicseq	r0, r8, r0
    1328:	00040000 	andeq	r0, r4, r0
    132c:	9f5301f3 	svcls	0x005301f3
    1330:	000001d8 	ldrdeq	r0, [r0], -r8
    1334:	000001e3 	andeq	r0, r0, r3, ror #3
    1338:	005c0001 	subseq	r0, ip, r1
    133c:	00000000 	andeq	r0, r0, r0
    1340:	ec000000 	stc	0, cr0, [r0], {-0}
    1344:	fc000000 	stc2	0, cr0, [r0], {-0}
    1348:	02000000 	andeq	r0, r0, #0
    134c:	fc9f3000 	ldc2	0, cr3, [pc], {0}
    1350:	04000000 	streq	r0, [r0], #-0
    1354:	02000001 	andeq	r0, r0, #1
    1358:	049f3100 	ldreq	r3, [pc], #256	; 1360 <_start-0x6ca0>
    135c:	08000001 	stmdaeq	r0, {r0}
    1360:	02000001 	andeq	r0, r0, #1
    1364:	009f3000 	addseq	r3, pc, r0
    1368:	00000000 	andeq	r0, r0, r0
    136c:	1c000000 	stcne	0, cr0, [r0], {-0}
    1370:	2b000002 	blcs	1380 <_start-0x6c80>
    1374:	01000002 	tsteq	r0, r2
    1378:	022b5000 	eoreq	r5, fp, #0
    137c:	02440000 	subeq	r0, r4, #0
    1380:	00040000 	andeq	r0, r4, r0
    1384:	9f5001f3 	svcls	0x005001f3
    1388:	00000244 	andeq	r0, r0, r4, asr #4
    138c:	00000270 	andeq	r0, r0, r0, ror r2
    1390:	00500001 	subseq	r0, r0, r1
    1394:	00000000 	andeq	r0, r0, r0
    1398:	1c000000 	stcne	0, cr0, [r0], {-0}
    139c:	2b000002 	blcs	13ac <_start-0x6c54>
    13a0:	01000002 	tsteq	r0, r2
    13a4:	022b5100 	eoreq	r5, fp, #0, 2
    13a8:	02440000 	subeq	r0, r4, #0
    13ac:	00040000 	andeq	r0, r4, r0
    13b0:	9f5101f3 	svcls	0x005101f3
    13b4:	00000244 	andeq	r0, r0, r4, asr #4
    13b8:	00000270 	andeq	r0, r0, r0, ror r2
    13bc:	00510001 	subseq	r0, r1, r1
    13c0:	00000000 	andeq	r0, r0, r0
    13c4:	70000000 	andvc	r0, r0, r0
    13c8:	9c000002 	stcls	0, cr0, [r0], {2}
    13cc:	01000002 	tsteq	r0, r2
    13d0:	029c5000 	addseq	r5, ip, #0
    13d4:	04e40000 	strbteq	r0, [r4], #0
    13d8:	00010000 	andeq	r0, r1, r0
    13dc:	0004e45a 	andeq	lr, r4, sl, asr r4
    13e0:	0004f800 	andeq	pc, r4, r0, lsl #16
    13e4:	f3000400 	vshl.u8	d0, d0, d0
    13e8:	009f5001 	addseq	r5, pc, r1
    13ec:	00000000 	andeq	r0, r0, r0
    13f0:	70000000 	andvc	r0, r0, r0
    13f4:	84000002 	strhi	r0, [r0], #-2
    13f8:	01000002 	tsteq	r0, r2
    13fc:	02845100 	addeq	r5, r4, #0, 2
    1400:	029c0000 	addseq	r0, ip, #0
    1404:	00030000 	andeq	r0, r3, r0
    1408:	9c9f0171 	ldflss	f0, [pc], {113}	; 0x71
    140c:	f8000002 			; <UNDEFINED> instruction: 0xf8000002
    1410:	04000004 	streq	r0, [r0], #-4
    1414:	5101f300 	mrspl	pc, SP_irq	; <UNPREDICTABLE>
    1418:	0000009f 	muleq	r0, pc, r0	; <UNPREDICTABLE>
    141c:	00000000 	andeq	r0, r0, r0
    1420:	00027000 	andeq	r7, r2, r0
    1424:	0002a400 	andeq	sl, r2, r0, lsl #8
    1428:	52000100 	andpl	r0, r0, #0, 2
    142c:	000002a4 	andeq	r0, r0, r4, lsr #5
    1430:	000002cc 	andeq	r0, r0, ip, asr #5
    1434:	cc520001 	mrrcgt	0, 0, r0, r2, cr1
    1438:	94000002 	strls	r0, [r0], #-2
    143c:	01000004 	tsteq	r0, r4
    1440:	04945600 	ldreq	r5, [r4], #1536	; 0x600
    1444:	04f80000 	ldrbteq	r0, [r8], #0
    1448:	00010000 	andeq	r0, r1, r0
    144c:	00000052 	andeq	r0, r0, r2, asr r0
    1450:	00000000 	andeq	r0, r0, r0
    1454:	00027000 	andeq	r7, r2, r0
    1458:	00028c00 	andeq	r8, r2, r0, lsl #24
    145c:	53000100 	movwpl	r0, #256	; 0x100
	...
    1468:	00000280 	andeq	r0, r0, r0, lsl #5
    146c:	0000029c 	muleq	r0, ip, r2
    1470:	9c500001 	mrrcls	0, 0, r0, r0, cr1	; <UNPREDICTABLE>
    1474:	a0000002 	andge	r0, r0, r2
    1478:	01000002 	tsteq	r0, r2
    147c:	02a05400 	adceq	r5, r0, #0, 8
    1480:	02ac0000 	adceq	r0, ip, #0
    1484:	00030000 	andeq	r0, r3, r0
    1488:	ac9f0174 	ldfges	f0, [pc], {116}	; 0x74
    148c:	b8000002 	stmdalt	r0, {r1}
    1490:	01000002 	tsteq	r0, r2
    1494:	02b85400 	adcseq	r5, r8, #0, 8
    1498:	02c40000 	sbceq	r0, r4, #0
    149c:	00030000 	andeq	r0, r3, r0
    14a0:	c49f0174 	ldrgt	r0, [pc], #372	; 14a8 <_start-0x6b58>
    14a4:	98000002 	stmdals	r0, {r1}
    14a8:	01000004 	tsteq	r0, r4
    14ac:	04985400 	ldreq	r5, [r8], #1024	; 0x400
    14b0:	04a40000 	strteq	r0, [r4], #0
    14b4:	00030000 	andeq	r0, r3, r0
    14b8:	a49f0174 	ldrge	r0, [pc], #372	; 14c0 <_start-0x6b40>
    14bc:	d0000004 	andle	r0, r0, r4
    14c0:	01000004 	tsteq	r0, r4
    14c4:	04d05400 	ldrbeq	r5, [r0], #1024	; 0x400
    14c8:	04dc0000 	ldrbeq	r0, [ip], #0
    14cc:	00010000 	andeq	r0, r1, r0
    14d0:	0004dc50 	andeq	sp, r4, r0, asr ip
    14d4:	0004e400 	andeq	lr, r4, r0, lsl #8
    14d8:	74000300 	strvc	r0, [r0], #-768	; 0x300
    14dc:	00009f01 	andeq	r9, r0, r1, lsl #30
    14e0:	00000000 	andeq	r0, r0, r0
    14e4:	02880000 	addeq	r0, r8, #0
    14e8:	04e40000 	strbteq	r0, [r4], #0
    14ec:	00010000 	andeq	r0, r1, r0
    14f0:	0004e458 	andeq	lr, r4, r8, asr r4
    14f4:	0004f800 	andeq	pc, r4, r0, lsl #16
    14f8:	f3000a00 	vpmax.u8	d0, d0, d0
    14fc:	01f35101 	mvnseq	r5, r1, lsl #2
    1500:	1c312250 	lfmne	f2, 4, [r1], #-320	; 0xfffffec0
    1504:	0000009f 	muleq	r0, pc, r0	; <UNPREDICTABLE>
    1508:	00000000 	andeq	r0, r0, r0
    150c:	0003cc00 	andeq	ip, r3, r0, lsl #24
    1510:	0003d000 	andeq	sp, r3, r0
    1514:	50000100 	andpl	r0, r0, r0, lsl #2
    1518:	000003f0 	strdeq	r0, [r0], -r0	; <UNPREDICTABLE>
    151c:	000003f4 	strdeq	r0, [r0], -r4
    1520:	14500001 	ldrbne	r0, [r0], #-1
    1524:	18000004 	stmdane	r0, {r2}
    1528:	01000004 	tsteq	r0, r4
    152c:	04385000 	ldrteq	r5, [r8], #-0
    1530:	043c0000 	ldrteq	r0, [ip], #-0
    1534:	00010000 	andeq	r0, r1, r0
    1538:	00044450 	andeq	r4, r4, r0, asr r4
    153c:	00044800 	andeq	r4, r4, r0, lsl #16
    1540:	50000100 	andpl	r0, r0, r0, lsl #2
    1544:	00000468 	andeq	r0, r0, r8, ror #8
    1548:	0000046c 	andeq	r0, r0, ip, ror #8
    154c:	90500001 	subsls	r0, r0, r1
    1550:	b8000004 	stmdalt	r0, {r2}
    1554:	01000004 	tsteq	r0, r4
    1558:	00005000 	andeq	r5, r0, r0
    155c:	00000000 	andeq	r0, r0, r0
    1560:	02cc0000 	sbceq	r0, ip, #0
    1564:	02d40000 	sbcseq	r0, r4, #0
    1568:	00020000 	andeq	r0, r2, r0
    156c:	02d49f30 	sbcseq	r9, r4, #48, 30	; 0xc0
    1570:	02d80000 	sbcseq	r0, r8, #0
    1574:	00010000 	andeq	r0, r1, r0
    1578:	0002e457 	andeq	lr, r2, r7, asr r4
    157c:	0004b800 	andeq	fp, r4, r0, lsl #16
    1580:	57000100 	strpl	r0, [r0, -r0, lsl #2]
	...
    158c:	00000004 	andeq	r0, r0, r4
    1590:	00000008 	andeq	r0, r0, r8
    1594:	00730007 	rsbseq	r0, r3, r7
    1598:	2110000a 	tstcs	r0, sl
    159c:	0000089f 	muleq	r0, pc, r8	; <UNPREDICTABLE>
    15a0:	00001000 	andeq	r1, r0, r0
    15a4:	53000100 	movwpl	r0, #256	; 0x100
	...
    15b0:	00000014 	andeq	r0, r0, r4, lsl r0
    15b4:	00000018 	andeq	r0, r0, r8, lsl r0
    15b8:	00730007 	rsbseq	r0, r3, r7
    15bc:	1aefff0b 	bne	ffc011f0 <__bss_end__+0xffbf7228>
    15c0:	0000189f 	muleq	r0, pc, r8	; <UNPREDICTABLE>
    15c4:	00002000 	andeq	r2, r0, r0
    15c8:	53000100 	movwpl	r0, #256	; 0x100
	...
    15d4:	00000014 	andeq	r0, r0, r4, lsl r0
    15d8:	0000001c 	andeq	r0, r0, ip, lsl r0
    15dc:	04730003 	ldrbteq	r0, [r3], #-3
    15e0:	00001c9f 	muleq	r0, pc, ip	; <UNPREDICTABLE>
    15e4:	00002700 	andeq	r2, r0, r0, lsl #14
    15e8:	53000100 	movwpl	r0, #256	; 0x100
	...
    15f4:	00009118 	andeq	r9, r0, r8, lsl r1
    15f8:	0000911c 	andeq	r9, r0, ip, lsl r1
    15fc:	9f300002 	svcls	0x00300002
    1600:	0000911c 	andeq	r9, r0, ip, lsl r1
    1604:	00009120 	andeq	r9, r0, r0, lsr #2
    1608:	00500001 	subseq	r0, r0, r1
    160c:	00000000 	andeq	r0, r0, r0
    1610:	30000000 	andcc	r0, r0, r0
    1614:	34000091 	strcc	r0, [r0], #-145	; 0x91
    1618:	02000091 	andeq	r0, r0, #145	; 0x91
    161c:	349f3000 	ldrcc	r3, [pc], #0	; 1624 <_start-0x69dc>
    1620:	38000091 	stmdacc	r0, {r0, r4, r7}
    1624:	01000091 	swpeq	r0, r1, [r0]	; <UNPREDICTABLE>
    1628:	913c5300 	teqls	ip, r0, lsl #6
    162c:	91440000 	mrsls	r0, (UNDEF: 68)
    1630:	00010000 	andeq	r0, r1, r0
    1634:	00000053 	andeq	r0, r0, r3, asr r0
	...
    1640:	00000400 	andeq	r0, r0, r0, lsl #8
    1644:	50000100 	andpl	r0, r0, r0, lsl #2
    1648:	00000004 	andeq	r0, r0, r4
    164c:	0000000c 	andeq	r0, r0, ip
    1650:	0c530001 	mrrceq	0, 0, r0, r3, cr1
    1654:	10000000 	andne	r0, r0, r0
    1658:	01000000 	mrseq	r0, (UNDEF: 0)
    165c:	00105000 	andseq	r5, r0, r0
    1660:	001c0000 	andseq	r0, ip, r0
    1664:	00010000 	andeq	r0, r1, r0
    1668:	00000053 	andeq	r0, r0, r3, asr r0
    166c:	00000000 	andeq	r0, r0, r0
    1670:	00003c00 	andeq	r3, r0, r0, lsl #24
    1674:	00004700 	andeq	r4, r0, r0, lsl #14
    1678:	50000100 	andpl	r0, r0, r0, lsl #2
    167c:	00000047 	andeq	r0, r0, r7, asr #32
    1680:	00000060 	andeq	r0, r0, r0, rrx
    1684:	00550001 	subseq	r0, r5, r1
    1688:	00000000 	andeq	r0, r0, r0
    168c:	50000000 	andpl	r0, r0, r0
    1690:	54000000 	strpl	r0, [r0], #-0
    1694:	01000000 	mrseq	r0, (UNDEF: 0)
    1698:	00005000 	andeq	r5, r0, r0
    169c:	00000000 	andeq	r0, r0, r0
    16a0:	00600000 	rsbeq	r0, r0, r0
    16a4:	006c0000 	rsbeq	r0, ip, r0
    16a8:	00010000 	andeq	r0, r1, r0
    16ac:	00006c50 	andeq	r6, r0, r0, asr ip
    16b0:	00007400 	andeq	r7, r0, r0, lsl #8
    16b4:	f3000400 	vshl.u8	d0, d0, d0
    16b8:	009f5001 	addseq	r5, pc, r1
    16bc:	00000000 	andeq	r0, r0, r0
    16c0:	74000000 	strvc	r0, [r0], #-0
    16c4:	80000000 	andhi	r0, r0, r0
    16c8:	01000000 	mrseq	r0, (UNDEF: 0)
    16cc:	00805000 	addeq	r5, r0, r0
    16d0:	00880000 	addeq	r0, r8, r0
    16d4:	00040000 	andeq	r0, r4, r0
    16d8:	9f5001f3 	svcls	0x005001f3
	...
    16e8:	00000090 	muleq	r0, r0, r0
    16ec:	90500001 	subsls	r0, r0, r1
    16f0:	d4000000 	strle	r0, [r0], #-0
    16f4:	01000000 	mrseq	r0, (UNDEF: 0)
    16f8:	00005400 	andeq	r5, r0, r0, lsl #8
    16fc:	00000000 	andeq	r0, r0, r0
    1700:	00480000 	subeq	r0, r8, r0
    1704:	004c0000 	subeq	r0, ip, r0
    1708:	00010000 	andeq	r0, r1, r0
    170c:	00005455 	andeq	r5, r0, r5, asr r4
    1710:	00005800 	andeq	r5, r0, r0, lsl #16
    1714:	55000100 	strpl	r0, [r0, #-256]	; 0x100
    1718:	00000060 	andeq	r0, r0, r0, rrx
    171c:	00000064 	andeq	r0, r0, r4, rrx
    1720:	6c550001 	mrrcvs	0, 0, r0, r5, cr1
    1724:	70000000 	andvc	r0, r0, r0
    1728:	01000000 	mrseq	r0, (UNDEF: 0)
    172c:	00785500 	rsbseq	r5, r8, r0, lsl #10
    1730:	007c0000 	rsbseq	r0, ip, r0
    1734:	00010000 	andeq	r0, r1, r0
    1738:	00008455 	andeq	r8, r0, r5, asr r4
    173c:	00008800 	andeq	r8, r0, r0, lsl #16
    1740:	55000100 	strpl	r0, [r0, #-256]	; 0x100
    1744:	0000008c 	andeq	r0, r0, ip, lsl #1
    1748:	000000d4 	ldrdeq	r0, [r0], -r4
    174c:	00550001 	subseq	r0, r5, r1
    1750:	00000000 	andeq	r0, r0, r0
    1754:	1c000000 	stcne	0, cr0, [r0], {-0}
    1758:	44000000 	strmi	r0, [r0], #-0
    175c:	01000000 	mrseq	r0, (UNDEF: 0)
    1760:	00445300 	subeq	r5, r4, r0, lsl #6
    1764:	004c0000 	subeq	r0, ip, r0
    1768:	001c0000 	andseq	r0, ip, r0
    176c:	2cf70070 	ldclcs	0, cr0, [r7], #448	; 0x1c0
    1770:	25f425f7 	ldrbcs	r2, [r4, #1527]!	; 0x5f7
    1774:	cccccd08 	stclgt	13, cr12, [ip], {8}
    1778:	000000cc 	andeq	r0, r0, ip, asr #1
    177c:	20081e00 	andcs	r1, r8, r0, lsl #28
    1780:	f72525f7 			; <UNDEFINED> instruction: 0xf72525f7
    1784:	9f25332c 	svcls	0x0025332c
    1788:	0000004c 	andeq	r0, r0, ip, asr #32
    178c:	00000050 	andeq	r0, r0, r0, asr r0
    1790:	50530001 	subspl	r0, r3, r1
    1794:	58000000 	stmdapl	r0, {}	; <UNPREDICTABLE>
    1798:	1c000000 	stcne	0, cr0, [r0], {-0}
    179c:	f7007000 			; <UNDEFINED> instruction: 0xf7007000
    17a0:	f425f72c 	vld1.8	{d15}, [r5 :128], ip
    17a4:	cccd0825 	stclgt	8, cr0, [sp], {37}	; 0x25
    17a8:	0000cccc 	andeq	ip, r0, ip, asr #25
    17ac:	081e0000 	ldmdaeq	lr, {}	; <UNPREDICTABLE>
    17b0:	2525f720 	strcs	pc, [r5, #-1824]!	; 0x720
    17b4:	25332cf7 	ldrcs	r2, [r3, #-3319]!	; 0xcf7
    17b8:	0000589f 	muleq	r0, pc, r8	; <UNPREDICTABLE>
    17bc:	00005c00 	andeq	r5, r0, r0, lsl #24
    17c0:	53000100 	movwpl	r0, #256	; 0x100
    17c4:	0000005c 	andeq	r0, r0, ip, asr r0
    17c8:	00000064 	andeq	r0, r0, r4, rrx
    17cc:	0070001c 	rsbseq	r0, r0, ip, lsl r0
    17d0:	25f72cf7 	ldrbcs	r2, [r7, #3319]!	; 0xcf7
    17d4:	cd0825f4 	cfstr32gt	mvfx2, [r8, #-976]	; 0xfffffc30
    17d8:	00cccccc 	sbceq	ip, ip, ip, asr #25
    17dc:	1e000000 	cdpne	0, 0, cr0, cr0, cr0, {0}
    17e0:	25f72008 	ldrbcs	r2, [r7, #8]!
    17e4:	332cf725 	msrcc	CPSR_fs, #9699328	; 0x940000
    17e8:	00649f25 	rsbeq	r9, r4, r5, lsr #30
    17ec:	00680000 	rsbeq	r0, r8, r0
    17f0:	00010000 	andeq	r0, r1, r0
    17f4:	00006853 	andeq	r6, r0, r3, asr r8
    17f8:	00007000 	andeq	r7, r0, r0
    17fc:	70001c00 	andvc	r1, r0, r0, lsl #24
    1800:	f72cf700 			; <UNDEFINED> instruction: 0xf72cf700
    1804:	0825f425 	stmdaeq	r5!, {r0, r2, r5, sl, ip, sp, lr, pc}
    1808:	cccccccd 	stclgt	12, cr12, [ip], {205}	; 0xcd
    180c:	00000000 	andeq	r0, r0, r0
    1810:	f720081e 			; <UNDEFINED> instruction: 0xf720081e
    1814:	2cf72525 	cfldr64cs	mvdx2, [r7], #148	; 0x94
    1818:	709f2533 	addsvc	r2, pc, r3, lsr r5	; <UNPREDICTABLE>
    181c:	74000000 	strvc	r0, [r0], #-0
    1820:	01000000 	mrseq	r0, (UNDEF: 0)
    1824:	00745300 	rsbseq	r5, r4, r0, lsl #6
    1828:	007c0000 	rsbseq	r0, ip, r0
    182c:	001c0000 	andseq	r0, ip, r0
    1830:	2cf70070 	ldclcs	0, cr0, [r7], #448	; 0x1c0
    1834:	25f425f7 	ldrbcs	r2, [r4, #1527]!	; 0x5f7
    1838:	cccccd08 	stclgt	13, cr12, [ip], {8}
    183c:	000000cc 	andeq	r0, r0, ip, asr #1
    1840:	20081e00 	andcs	r1, r8, r0, lsl #28
    1844:	f72525f7 			; <UNDEFINED> instruction: 0xf72525f7
    1848:	9f25332c 	svcls	0x0025332c
    184c:	0000007c 	andeq	r0, r0, ip, ror r0
    1850:	00000080 	andeq	r0, r0, r0, lsl #1
    1854:	80530001 	subshi	r0, r3, r1
    1858:	88000000 	stmdahi	r0, {}	; <UNPREDICTABLE>
    185c:	1c000000 	stcne	0, cr0, [r0], {-0}
    1860:	f7007000 			; <UNDEFINED> instruction: 0xf7007000
    1864:	f425f72c 	vld1.8	{d15}, [r5 :128], ip
    1868:	cccd0825 	stclgt	8, cr0, [sp], {37}	; 0x25
    186c:	0000cccc 	andeq	ip, r0, ip, asr #25
    1870:	081e0000 	ldmdaeq	lr, {}	; <UNPREDICTABLE>
    1874:	2525f720 	strcs	pc, [r5, #-1824]!	; 0x720
    1878:	25332cf7 	ldrcs	r2, [r3, #-3319]!	; 0xcf7
    187c:	0000889f 	muleq	r0, pc, r8	; <UNPREDICTABLE>
    1880:	00008c00 	andeq	r8, r0, r0, lsl #24
    1884:	53000100 	movwpl	r0, #256	; 0x100
    1888:	0000008c 	andeq	r0, r0, ip, lsl #1
    188c:	00000090 	muleq	r0, r0, r0
    1890:	0070001c 	rsbseq	r0, r0, ip, lsl r0
    1894:	25f72cf7 	ldrbcs	r2, [r7, #3319]!	; 0xcf7
    1898:	cd0825f4 	cfstr32gt	mvfx2, [r8, #-976]	; 0xfffffc30
    189c:	00cccccc 	sbceq	ip, ip, ip, asr #25
    18a0:	1e000000 	cdpne	0, 0, cr0, cr0, cr0, {0}
    18a4:	25f72008 	ldrbcs	r2, [r7, #8]!
    18a8:	332cf725 	msrcc	CPSR_fs, #9699328	; 0x940000
    18ac:	00909f25 	addseq	r9, r0, r5, lsr #30
    18b0:	00980000 	addseq	r0, r8, r0
    18b4:	001c0000 	andseq	r0, ip, r0
    18b8:	2cf70074 	ldclcs	0, cr0, [r7], #464	; 0x1d0
    18bc:	25f425f7 	ldrbcs	r2, [r4, #1527]!	; 0x5f7
    18c0:	cccccd08 	stclgt	13, cr12, [ip], {8}
    18c4:	000000cc 	andeq	r0, r0, ip, asr #1
    18c8:	20081e00 	andcs	r1, r8, r0, lsl #28
    18cc:	f72525f7 			; <UNDEFINED> instruction: 0xf72525f7
    18d0:	9f25332c 	svcls	0x0025332c
    18d4:	00000098 	muleq	r0, r8, r0
    18d8:	0000009c 	muleq	r0, ip, r0
    18dc:	00740017 	rsbseq	r0, r4, r7, lsl r0
    18e0:	25f72cf7 	ldrbcs	r2, [r7, #3319]!	; 0xcf7
    18e4:	2cf70071 	ldclcs	0, cr0, [r7], #452	; 0x1c4
    18e8:	081e25f7 	ldmdaeq	lr, {r0, r1, r2, r4, r5, r6, r7, r8, sl, sp}
    18ec:	2525f720 	strcs	pc, [r5, #-1824]!	; 0x720
    18f0:	25332cf7 	ldrcs	r2, [r3, #-3319]!	; 0xcf7
    18f4:	00009c9f 	muleq	r0, pc, ip	; <UNPREDICTABLE>
    18f8:	0000d400 	andeq	sp, r0, r0, lsl #8
    18fc:	74001c00 	strvc	r1, [r0], #-3072	; 0xc00
    1900:	f72cf700 			; <UNDEFINED> instruction: 0xf72cf700
    1904:	0825f425 	stmdaeq	r5!, {r0, r2, r5, sl, ip, sp, lr, pc}
    1908:	cccccccd 	stclgt	12, cr12, [ip], {205}	; 0xcd
    190c:	00000000 	andeq	r0, r0, r0
    1910:	f720081e 			; <UNDEFINED> instruction: 0xf720081e
    1914:	2cf72525 	cfldr64cs	mvdx2, [r7], #148	; 0x94
    1918:	009f2533 	addseq	r2, pc, r3, lsr r5	; <UNPREDICTABLE>
    191c:	00000000 	andeq	r0, r0, r0
    1920:	94000000 	strls	r0, [r0], #-0
    1924:	b8000000 	stmdalt	r0, {}	; <UNPREDICTABLE>
    1928:	01000000 	mrseq	r0, (UNDEF: 0)
    192c:	00b85000 	adcseq	r5, r8, r0
    1930:	00c40000 	sbceq	r0, r4, r0
    1934:	00080000 	andeq	r0, r8, r0
    1938:	24007131 	strcs	r7, [r0], #-305	; 0x131
    193c:	9f210073 	svcls	0x00210073
    1940:	000000c4 	andeq	r0, r0, r4, asr #1
    1944:	000000c7 	andeq	r0, r0, r7, asr #1
    1948:	00510001 	subseq	r0, r1, r1
    194c:	00000000 	andeq	r0, r0, r0
    1950:	d4000000 	strle	r0, [r0], #-0
    1954:	f8000000 			; <UNDEFINED> instruction: 0xf8000000
    1958:	01000000 	mrseq	r0, (UNDEF: 0)
    195c:	00f85000 	rscseq	r5, r8, r0
    1960:	010c0000 	mrseq	r0, (UNDEF: 12)
    1964:	00040000 	andeq	r0, r4, r0
    1968:	9f5001f3 	svcls	0x005001f3
	...
    1974:	000000e0 	andeq	r0, r0, r0, ror #1
    1978:	000000e8 	andeq	r0, r0, r8, ror #1
    197c:	9f300002 	svcls	0x00300002
    1980:	000000e8 	andeq	r0, r0, r8, ror #1
    1984:	000000e8 	andeq	r0, r0, r8, ror #1
    1988:	e8520001 	ldmda	r2, {r0}^
    198c:	f0000000 			; <UNDEFINED> instruction: 0xf0000000
    1990:	02000000 	andeq	r0, r0, #0
    1994:	f09f3000 			; <UNDEFINED> instruction: 0xf09f3000
    1998:	03000000 	movweq	r0, #0
    199c:	01000001 	tsteq	r0, r1
    19a0:	00005200 	andeq	r5, r0, r0, lsl #4
    19a4:	00000000 	andeq	r0, r0, r0
    19a8:	00e00000 	rsceq	r0, r0, r0
    19ac:	00f40000 	rscseq	r0, r4, r0
    19b0:	00020000 	andeq	r0, r2, r0
    19b4:	00f49f30 	rscseq	r9, r4, r0, lsr pc
    19b8:	01000000 	mrseq	r0, (UNDEF: 0)
    19bc:	00050000 	andeq	r0, r5, r0
    19c0:	24007331 	strcs	r7, [r0], #-817	; 0x331
    19c4:	0001009f 	muleq	r1, pc, r0	; <UNPREDICTABLE>
    19c8:	00010300 	andeq	r0, r1, r0, lsl #6
    19cc:	51000100 	mrspl	r0, (UNDEF: 16)
    19d0:	00000103 	andeq	r0, r0, r3, lsl #2
    19d4:	0000010c 	andeq	r0, r0, ip, lsl #2
    19d8:	f3310008 	vhadd.u<illegal width 64>	d0, d1, d8
    19dc:	1a4f5001 	bne	13d59e8 <__bss_end__+0x13cba20>
    19e0:	00009f24 	andeq	r9, r0, r4, lsr #30
    19e4:	00000000 	andeq	r0, r0, r0
    19e8:	010c0000 	mrseq	r0, (UNDEF: 12)
    19ec:	01300000 	teqeq	r0, r0
    19f0:	00010000 	andeq	r0, r1, r0
    19f4:	00013050 	andeq	r3, r1, r0, asr r0
    19f8:	00014400 	andeq	r4, r1, r0, lsl #8
    19fc:	f3000400 	vshl.u8	d0, d0, d0
    1a00:	009f5001 	addseq	r5, pc, r1
    1a04:	00000000 	andeq	r0, r0, r0
    1a08:	18000000 	stmdane	r0, {}	; <UNPREDICTABLE>
    1a0c:	20000001 	andcs	r0, r0, r1
    1a10:	02000001 	andeq	r0, r0, #1
    1a14:	209f3000 	addscs	r3, pc, r0
    1a18:	20000001 	andcs	r0, r0, r1
    1a1c:	01000001 	tsteq	r0, r1
    1a20:	01205200 	teqeq	r0, r0, lsl #4
    1a24:	01280000 	teqeq	r8, r0
    1a28:	00020000 	andeq	r0, r2, r0
    1a2c:	01289f30 	teqeq	r8, r0, lsr pc
    1a30:	013b0000 	teqeq	fp, r0
    1a34:	00010000 	andeq	r0, r1, r0
    1a38:	00000052 	andeq	r0, r0, r2, asr r0
    1a3c:	00000000 	andeq	r0, r0, r0
    1a40:	00011800 	andeq	r1, r1, r0, lsl #16
    1a44:	00012c00 	andeq	r2, r1, r0, lsl #24
    1a48:	30000200 	andcc	r0, r0, r0, lsl #4
    1a4c:	00012c9f 	muleq	r1, pc, ip	; <UNPREDICTABLE>
    1a50:	00013800 	andeq	r3, r1, r0, lsl #16
    1a54:	31000500 	tstcc	r0, r0, lsl #10
    1a58:	9f240073 	svcls	0x00240073
    1a5c:	00000138 	andeq	r0, r0, r8, lsr r1
    1a60:	0000013b 	andeq	r0, r0, fp, lsr r1
    1a64:	3b510001 	blcc	1441a70 <__bss_end__+0x1437aa8>
    1a68:	44000001 	strmi	r0, [r0], #-1
    1a6c:	08000001 	stmdaeq	r0, {r0}
    1a70:	01f33100 	mvnseq	r3, r0, lsl #2
    1a74:	241a4f50 	ldrcs	r4, [sl], #-3920	; 0xf50
    1a78:	0000009f 	muleq	r0, pc, r0	; <UNPREDICTABLE>
    1a7c:	00000000 	andeq	r0, r0, r0
    1a80:	00014400 	andeq	r4, r1, r0, lsl #8
    1a84:	0001d400 	andeq	sp, r1, r0, lsl #8
    1a88:	50000100 	andpl	r0, r0, r0, lsl #2
    1a8c:	000001d4 	ldrdeq	r0, [r0], -r4
    1a90:	00000210 	andeq	r0, r0, r0, lsl r2
    1a94:	00540001 	subseq	r0, r4, r1
    1a98:	00000000 	andeq	r0, r0, r0
    1a9c:	8c000000 	stchi	0, cr0, [r0], {-0}
    1aa0:	90000001 	andls	r0, r0, r1
    1aa4:	01000001 	tsteq	r0, r1
    1aa8:	01985500 	orrseq	r5, r8, r0, lsl #10
    1aac:	019c0000 	orrseq	r0, ip, r0
    1ab0:	00010000 	andeq	r0, r1, r0
    1ab4:	0001a455 	andeq	sl, r1, r5, asr r4
    1ab8:	0001a800 	andeq	sl, r1, r0, lsl #16
    1abc:	55000100 	strpl	r0, [r0, #-256]	; 0x100
    1ac0:	000001b0 			; <UNDEFINED> instruction: 0x000001b0
    1ac4:	000001b4 			; <UNDEFINED> instruction: 0x000001b4
    1ac8:	bc550001 	mrrclt	0, 0, r0, r5, cr1
    1acc:	c0000001 	andgt	r0, r0, r1
    1ad0:	01000001 	tsteq	r0, r1
    1ad4:	01c85500 	biceq	r5, r8, r0, lsl #10
    1ad8:	01cc0000 	biceq	r0, ip, r0
    1adc:	00010000 	andeq	r0, r1, r0
    1ae0:	0001d055 	andeq	sp, r1, r5, asr r0
    1ae4:	00021000 	andeq	r1, r2, r0
    1ae8:	55000100 	strpl	r0, [r0, #-256]	; 0x100
	...
    1af4:	00000160 	andeq	r0, r0, r0, ror #2
    1af8:	00000188 	andeq	r0, r0, r8, lsl #3
    1afc:	88530001 	ldmdahi	r3, {r0}^
    1b00:	90000001 	andls	r0, r0, r1
    1b04:	1c000001 	stcne	0, cr0, [r0], {1}
    1b08:	f7007000 			; <UNDEFINED> instruction: 0xf7007000
    1b0c:	f425f72c 	vld1.8	{d15}, [r5 :128], ip
    1b10:	cccd0825 	stclgt	8, cr0, [sp], {37}	; 0x25
    1b14:	0000cccc 	andeq	ip, r0, ip, asr #25
    1b18:	081e0000 	ldmdaeq	lr, {}	; <UNPREDICTABLE>
    1b1c:	2525f720 	strcs	pc, [r5, #-1824]!	; 0x720
    1b20:	25332cf7 	ldrcs	r2, [r3, #-3319]!	; 0xcf7
    1b24:	0001909f 	muleq	r1, pc, r0	; <UNPREDICTABLE>
    1b28:	00019400 	andeq	r9, r1, r0, lsl #8
    1b2c:	53000100 	movwpl	r0, #256	; 0x100
    1b30:	00000194 	muleq	r0, r4, r1
    1b34:	0000019c 	muleq	r0, ip, r1
    1b38:	0070001c 	rsbseq	r0, r0, ip, lsl r0
    1b3c:	25f72cf7 	ldrbcs	r2, [r7, #3319]!	; 0xcf7
    1b40:	cd0825f4 	cfstr32gt	mvfx2, [r8, #-976]	; 0xfffffc30
    1b44:	00cccccc 	sbceq	ip, ip, ip, asr #25
    1b48:	1e000000 	cdpne	0, 0, cr0, cr0, cr0, {0}
    1b4c:	25f72008 	ldrbcs	r2, [r7, #8]!
    1b50:	332cf725 	msrcc	CPSR_fs, #9699328	; 0x940000
    1b54:	019c9f25 	orrseq	r9, ip, r5, lsr #30
    1b58:	01a00000 	moveq	r0, r0
    1b5c:	00010000 	andeq	r0, r1, r0
    1b60:	0001a053 	andeq	sl, r1, r3, asr r0
    1b64:	0001a800 	andeq	sl, r1, r0, lsl #16
    1b68:	70001c00 	andvc	r1, r0, r0, lsl #24
    1b6c:	f72cf700 			; <UNDEFINED> instruction: 0xf72cf700
    1b70:	0825f425 	stmdaeq	r5!, {r0, r2, r5, sl, ip, sp, lr, pc}
    1b74:	cccccccd 	stclgt	12, cr12, [ip], {205}	; 0xcd
    1b78:	00000000 	andeq	r0, r0, r0
    1b7c:	f720081e 			; <UNDEFINED> instruction: 0xf720081e
    1b80:	2cf72525 	cfldr64cs	mvdx2, [r7], #148	; 0x94
    1b84:	a89f2533 	ldmge	pc, {r0, r1, r4, r5, r8, sl, sp}	; <UNPREDICTABLE>
    1b88:	ac000001 	stcge	0, cr0, [r0], {1}
    1b8c:	01000001 	tsteq	r0, r1
    1b90:	01ac5300 			; <UNDEFINED> instruction: 0x01ac5300
    1b94:	01b40000 			; <UNDEFINED> instruction: 0x01b40000
    1b98:	001c0000 	andseq	r0, ip, r0
    1b9c:	2cf70070 	ldclcs	0, cr0, [r7], #448	; 0x1c0
    1ba0:	25f425f7 	ldrbcs	r2, [r4, #1527]!	; 0x5f7
    1ba4:	cccccd08 	stclgt	13, cr12, [ip], {8}
    1ba8:	000000cc 	andeq	r0, r0, ip, asr #1
    1bac:	20081e00 	andcs	r1, r8, r0, lsl #28
    1bb0:	f72525f7 			; <UNDEFINED> instruction: 0xf72525f7
    1bb4:	9f25332c 	svcls	0x0025332c
    1bb8:	000001b4 			; <UNDEFINED> instruction: 0x000001b4
    1bbc:	000001b8 			; <UNDEFINED> instruction: 0x000001b8
    1bc0:	b8530001 	ldmdalt	r3, {r0}^
    1bc4:	c0000001 	andgt	r0, r0, r1
    1bc8:	1c000001 	stcne	0, cr0, [r0], {1}
    1bcc:	f7007000 			; <UNDEFINED> instruction: 0xf7007000
    1bd0:	f425f72c 	vld1.8	{d15}, [r5 :128], ip
    1bd4:	cccd0825 	stclgt	8, cr0, [sp], {37}	; 0x25
    1bd8:	0000cccc 	andeq	ip, r0, ip, asr #25
    1bdc:	081e0000 	ldmdaeq	lr, {}	; <UNPREDICTABLE>
    1be0:	2525f720 	strcs	pc, [r5, #-1824]!	; 0x720
    1be4:	25332cf7 	ldrcs	r2, [r3, #-3319]!	; 0xcf7
    1be8:	0001c09f 	muleq	r1, pc, r0	; <UNPREDICTABLE>
    1bec:	0001c400 	andeq	ip, r1, r0, lsl #8
    1bf0:	53000100 	movwpl	r0, #256	; 0x100
    1bf4:	000001c4 	andeq	r0, r0, r4, asr #3
    1bf8:	000001cc 	andeq	r0, r0, ip, asr #3
    1bfc:	0070001c 	rsbseq	r0, r0, ip, lsl r0
    1c00:	25f72cf7 	ldrbcs	r2, [r7, #3319]!	; 0xcf7
    1c04:	cd0825f4 	cfstr32gt	mvfx2, [r8, #-976]	; 0xfffffc30
    1c08:	00cccccc 	sbceq	ip, ip, ip, asr #25
    1c0c:	1e000000 	cdpne	0, 0, cr0, cr0, cr0, {0}
    1c10:	25f72008 	ldrbcs	r2, [r7, #8]!
    1c14:	332cf725 	msrcc	CPSR_fs, #9699328	; 0x940000
    1c18:	01cc9f25 	biceq	r9, ip, r5, lsr #30
    1c1c:	01d00000 	bicseq	r0, r0, r0
    1c20:	00010000 	andeq	r0, r1, r0
    1c24:	0001d053 	andeq	sp, r1, r3, asr r0
    1c28:	0001d400 	andeq	sp, r1, r0, lsl #8
    1c2c:	70001c00 	andvc	r1, r0, r0, lsl #24
    1c30:	f72cf700 			; <UNDEFINED> instruction: 0xf72cf700
    1c34:	0825f425 	stmdaeq	r5!, {r0, r2, r5, sl, ip, sp, lr, pc}
    1c38:	cccccccd 	stclgt	12, cr12, [ip], {205}	; 0xcd
    1c3c:	00000000 	andeq	r0, r0, r0
    1c40:	f720081e 			; <UNDEFINED> instruction: 0xf720081e
    1c44:	2cf72525 	cfldr64cs	mvdx2, [r7], #148	; 0x94
    1c48:	d49f2533 	ldrle	r2, [pc], #1331	; 1c50 <_start-0x63b0>
    1c4c:	dc000001 	stcle	0, cr0, [r0], {1}
    1c50:	1c000001 	stcne	0, cr0, [r0], {1}
    1c54:	f7007400 			; <UNDEFINED> instruction: 0xf7007400
    1c58:	f425f72c 	vld1.8	{d15}, [r5 :128], ip
    1c5c:	cccd0825 	stclgt	8, cr0, [sp], {37}	; 0x25
    1c60:	0000cccc 	andeq	ip, r0, ip, asr #25
    1c64:	081e0000 	ldmdaeq	lr, {}	; <UNPREDICTABLE>
    1c68:	2525f720 	strcs	pc, [r5, #-1824]!	; 0x720
    1c6c:	25332cf7 	ldrcs	r2, [r3, #-3319]!	; 0xcf7
    1c70:	0001dc9f 	muleq	r1, pc, ip	; <UNPREDICTABLE>
    1c74:	0001e000 	andeq	lr, r1, r0
    1c78:	74001700 	strvc	r1, [r0], #-1792	; 0x700
    1c7c:	f72cf700 			; <UNDEFINED> instruction: 0xf72cf700
    1c80:	f7007125 			; <UNDEFINED> instruction: 0xf7007125
    1c84:	1e25f72c 	cdpne	7, 2, cr15, cr5, cr12, {1}
    1c88:	25f72008 	ldrbcs	r2, [r7, #8]!
    1c8c:	332cf725 	msrcc	CPSR_fs, #9699328	; 0x940000
    1c90:	01e09f25 	mvneq	r9, r5, lsr #30
    1c94:	02100000 	andseq	r0, r0, #0
    1c98:	001c0000 	andseq	r0, ip, r0
    1c9c:	2cf70074 	ldclcs	0, cr0, [r7], #464	; 0x1d0
    1ca0:	25f425f7 	ldrbcs	r2, [r4, #1527]!	; 0x5f7
    1ca4:	cccccd08 	stclgt	13, cr12, [ip], {8}
    1ca8:	000000cc 	andeq	r0, r0, ip, asr #1
    1cac:	20081e00 	andcs	r1, r8, r0, lsl #28
    1cb0:	f72525f7 			; <UNDEFINED> instruction: 0xf72525f7
    1cb4:	9f25332c 	svcls	0x0025332c
	...
    1cc0:	000001d8 	ldrdeq	r0, [r0], -r8
    1cc4:	000001fc 	strdeq	r0, [r0], -ip
    1cc8:	fc500001 	mrrc2	0, 0, r0, r0, cr1	; <UNPREDICTABLE>
    1ccc:	03000001 	movweq	r0, #1
    1cd0:	01000002 	tsteq	r0, r2
    1cd4:	00005100 	andeq	r5, r0, r0, lsl #2
    1cd8:	00000000 	andeq	r0, r0, r0
    1cdc:	02100000 	andseq	r0, r0, #0
    1ce0:	022c0000 	eoreq	r0, ip, #0
    1ce4:	00010000 	andeq	r0, r1, r0
    1ce8:	00022c50 	andeq	r2, r2, r0, asr ip
    1cec:	00023400 	andeq	r3, r2, r0, lsl #8
    1cf0:	54000100 	strpl	r0, [r0], #-256	; 0x100
    1cf4:	00000234 	andeq	r0, r0, r4, lsr r2
    1cf8:	0000023c 	andeq	r0, r0, ip, lsr r2
    1cfc:	3c500001 	mrrccc	0, 0, r0, r0, cr1	; <UNPREDICTABLE>
    1d00:	44000002 	strmi	r0, [r0], #-2
    1d04:	01000002 	tsteq	r0, r2
    1d08:	02445400 	subeq	r5, r4, #0, 8
    1d0c:	02500000 	subseq	r0, r0, #0
    1d10:	00040000 	andeq	r0, r4, r0
    1d14:	9f5001f3 	svcls	0x005001f3
    1d18:	00000250 	andeq	r0, r0, r0, asr r2
    1d1c:	00000254 	andeq	r0, r0, r4, asr r2
    1d20:	54500001 	ldrbpl	r0, [r0], #-1
    1d24:	5c000002 	stcpl	0, cr0, [r0], {2}
    1d28:	01000002 	tsteq	r0, r2
    1d2c:	00005400 	andeq	r5, r0, r0, lsl #8
    1d30:	00000000 	andeq	r0, r0, r0
    1d34:	02200000 	eoreq	r0, r0, #0
    1d38:	02300000 	eorseq	r0, r0, #0
    1d3c:	00020000 	andeq	r0, r2, r0
    1d40:	02309f30 	eorseq	r9, r0, #48, 30	; 0xc0
    1d44:	02340000 	eorseq	r0, r4, #0
    1d48:	00010000 	andeq	r0, r1, r0
    1d4c:	00023450 	andeq	r3, r2, r0, asr r4
    1d50:	00024000 	andeq	r4, r2, r0
    1d54:	30000200 	andcc	r0, r0, r0, lsl #4
    1d58:	0002409f 	muleq	r2, pc, r0	; <UNPREDICTABLE>
    1d5c:	00024c00 	andeq	r4, r2, r0, lsl #24
    1d60:	50000100 	andpl	r0, r0, r0, lsl #2
	...
    1d6c:	0000025c 	andeq	r0, r0, ip, asr r2
    1d70:	00000273 	andeq	r0, r0, r3, ror r2
    1d74:	73500001 	cmpvc	r0, #1
    1d78:	78000002 	stmdavc	r0, {r1}
    1d7c:	04000002 	streq	r0, [r0], #-2
    1d80:	5001f300 	andpl	pc, r1, r0, lsl #6
    1d84:	0002789f 	muleq	r2, pc, r8	; <UNPREDICTABLE>
    1d88:	00027b00 	andeq	r7, r2, r0, lsl #22
    1d8c:	50000100 	andpl	r0, r0, r0, lsl #2
    1d90:	0000027b 	andeq	r0, r0, fp, ror r2
    1d94:	00000280 	andeq	r0, r0, r0, lsl #5
    1d98:	01f30004 	mvnseq	r0, r4
    1d9c:	00009f50 	andeq	r9, r0, r0, asr pc
    1da0:	00000000 	andeq	r0, r0, r0
    1da4:	025c0000 	subseq	r0, ip, #0
    1da8:	02730000 	rsbseq	r0, r3, #0
    1dac:	00010000 	andeq	r0, r1, r0
    1db0:	00027351 	andeq	r7, r2, r1, asr r3
    1db4:	00027800 	andeq	r7, r2, r0, lsl #16
    1db8:	f3000400 	vshl.u8	d0, d0, d0
    1dbc:	789f5101 	ldmvc	pc, {r0, r8, ip, lr}	; <UNPREDICTABLE>
    1dc0:	7b000002 	blvc	1dd0 <_start-0x6230>
    1dc4:	01000002 	tsteq	r0, r2
    1dc8:	027b5100 	rsbseq	r5, fp, #0, 2
    1dcc:	02800000 	addeq	r0, r0, #0
    1dd0:	00040000 	andeq	r0, r4, r0
    1dd4:	9f5101f3 	svcls	0x005101f3
	...
    1de0:	00000280 	andeq	r0, r0, r0, lsl #5
    1de4:	00000318 	andeq	r0, r0, r8, lsl r3
    1de8:	18500001 	ldmdane	r0, {r0}^
    1dec:	58000003 	stmdapl	r0, {r0, r1}
    1df0:	01000003 	tsteq	r0, r3
    1df4:	00005400 	andeq	r5, r0, r0, lsl #8
    1df8:	00000000 	andeq	r0, r0, r0
    1dfc:	02800000 	addeq	r0, r0, #0
    1e00:	031b0000 	tsteq	fp, #0
    1e04:	00010000 	andeq	r0, r1, r0
    1e08:	00031b51 	andeq	r1, r3, r1, asr fp
    1e0c:	00035800 	andeq	r5, r3, r0, lsl #16
    1e10:	f3000400 	vshl.u8	d0, d0, d0
    1e14:	009f5101 	addseq	r5, pc, r1, lsl #2
    1e18:	00000000 	andeq	r0, r0, r0
    1e1c:	d0000000 	andle	r0, r0, r0
    1e20:	d4000002 	strle	r0, [r0], #-2
    1e24:	01000002 	tsteq	r0, r2
    1e28:	02dc5600 	sbcseq	r5, ip, #0, 12
    1e2c:	02e00000 	rsceq	r0, r0, #0
    1e30:	00010000 	andeq	r0, r1, r0
    1e34:	0002e856 	andeq	lr, r2, r6, asr r8
    1e38:	0002ec00 	andeq	lr, r2, r0, lsl #24
    1e3c:	56000100 	strpl	r0, [r0], -r0, lsl #2
    1e40:	000002f4 	strdeq	r0, [r0], -r4
    1e44:	000002f8 	strdeq	r0, [r0], -r8
    1e48:	00560001 	subseq	r0, r6, r1
    1e4c:	04000003 	streq	r0, [r0], #-3
    1e50:	01000003 	tsteq	r0, r3
    1e54:	030c5600 	movweq	r5, #50688	; 0xc600
    1e58:	03100000 	tsteq	r0, #0
    1e5c:	00010000 	andeq	r0, r1, r0
    1e60:	00031456 	andeq	r1, r3, r6, asr r4
    1e64:	00035800 	andeq	r5, r3, r0, lsl #16
    1e68:	56000100 	strpl	r0, [r0], -r0, lsl #2
	...
    1e74:	000002a4 	andeq	r0, r0, r4, lsr #5
    1e78:	000002cc 	andeq	r0, r0, ip, asr #5
    1e7c:	cc530001 	mrrcgt	0, 0, r0, r3, cr1
    1e80:	d4000002 	strle	r0, [r0], #-2
    1e84:	1c000002 	stcne	0, cr0, [r0], {2}
    1e88:	f7007000 			; <UNDEFINED> instruction: 0xf7007000
    1e8c:	f425f72c 	vld1.8	{d15}, [r5 :128], ip
    1e90:	cccd0825 	stclgt	8, cr0, [sp], {37}	; 0x25
    1e94:	0000cccc 	andeq	ip, r0, ip, asr #25
    1e98:	081e0000 	ldmdaeq	lr, {}	; <UNPREDICTABLE>
    1e9c:	2525f720 	strcs	pc, [r5, #-1824]!	; 0x720
    1ea0:	25332cf7 	ldrcs	r2, [r3, #-3319]!	; 0xcf7
    1ea4:	0002d49f 	muleq	r2, pc, r4	; <UNPREDICTABLE>
    1ea8:	0002d800 	andeq	sp, r2, r0, lsl #16
    1eac:	53000100 	movwpl	r0, #256	; 0x100
    1eb0:	000002d8 	ldrdeq	r0, [r0], -r8
    1eb4:	000002e0 	andeq	r0, r0, r0, ror #5
    1eb8:	0070001c 	rsbseq	r0, r0, ip, lsl r0
    1ebc:	25f72cf7 	ldrbcs	r2, [r7, #3319]!	; 0xcf7
    1ec0:	cd0825f4 	cfstr32gt	mvfx2, [r8, #-976]	; 0xfffffc30
    1ec4:	00cccccc 	sbceq	ip, ip, ip, asr #25
    1ec8:	1e000000 	cdpne	0, 0, cr0, cr0, cr0, {0}
    1ecc:	25f72008 	ldrbcs	r2, [r7, #8]!
    1ed0:	332cf725 	msrcc	CPSR_fs, #9699328	; 0x940000
    1ed4:	02e09f25 	rsceq	r9, r0, #37, 30	; 0x94
    1ed8:	02e40000 	rsceq	r0, r4, #0
    1edc:	00010000 	andeq	r0, r1, r0
    1ee0:	0002e453 	andeq	lr, r2, r3, asr r4
    1ee4:	0002ec00 	andeq	lr, r2, r0, lsl #24
    1ee8:	70001c00 	andvc	r1, r0, r0, lsl #24
    1eec:	f72cf700 			; <UNDEFINED> instruction: 0xf72cf700
    1ef0:	0825f425 	stmdaeq	r5!, {r0, r2, r5, sl, ip, sp, lr, pc}
    1ef4:	cccccccd 	stclgt	12, cr12, [ip], {205}	; 0xcd
    1ef8:	00000000 	andeq	r0, r0, r0
    1efc:	f720081e 			; <UNDEFINED> instruction: 0xf720081e
    1f00:	2cf72525 	cfldr64cs	mvdx2, [r7], #148	; 0x94
    1f04:	ec9f2533 	cfldr32	mvfx2, [pc], {51}	; 0x33
    1f08:	f0000002 			; <UNDEFINED> instruction: 0xf0000002
    1f0c:	01000002 	tsteq	r0, r2
    1f10:	02f05300 	rscseq	r5, r0, #0, 6
    1f14:	02f80000 	rscseq	r0, r8, #0
    1f18:	001c0000 	andseq	r0, ip, r0
    1f1c:	2cf70070 	ldclcs	0, cr0, [r7], #448	; 0x1c0
    1f20:	25f425f7 	ldrbcs	r2, [r4, #1527]!	; 0x5f7
    1f24:	cccccd08 	stclgt	13, cr12, [ip], {8}
    1f28:	000000cc 	andeq	r0, r0, ip, asr #1
    1f2c:	20081e00 	andcs	r1, r8, r0, lsl #28
    1f30:	f72525f7 			; <UNDEFINED> instruction: 0xf72525f7
    1f34:	9f25332c 	svcls	0x0025332c
    1f38:	000002f8 	strdeq	r0, [r0], -r8
    1f3c:	000002fc 	strdeq	r0, [r0], -ip
    1f40:	fc530001 	mrrc2	0, 0, r0, r3, cr1
    1f44:	04000002 	streq	r0, [r0], #-2
    1f48:	1c000003 	stcne	0, cr0, [r0], {3}
    1f4c:	f7007000 			; <UNDEFINED> instruction: 0xf7007000
    1f50:	f425f72c 	vld1.8	{d15}, [r5 :128], ip
    1f54:	cccd0825 	stclgt	8, cr0, [sp], {37}	; 0x25
    1f58:	0000cccc 	andeq	ip, r0, ip, asr #25
    1f5c:	081e0000 	ldmdaeq	lr, {}	; <UNPREDICTABLE>
    1f60:	2525f720 	strcs	pc, [r5, #-1824]!	; 0x720
    1f64:	25332cf7 	ldrcs	r2, [r3, #-3319]!	; 0xcf7
    1f68:	0003049f 	muleq	r3, pc, r4	; <UNPREDICTABLE>
    1f6c:	00030800 	andeq	r0, r3, r0, lsl #16
    1f70:	53000100 	movwpl	r0, #256	; 0x100
    1f74:	00000308 	andeq	r0, r0, r8, lsl #6
    1f78:	00000310 	andeq	r0, r0, r0, lsl r3
    1f7c:	0070001c 	rsbseq	r0, r0, ip, lsl r0
    1f80:	25f72cf7 	ldrbcs	r2, [r7, #3319]!	; 0xcf7
    1f84:	cd0825f4 	cfstr32gt	mvfx2, [r8, #-976]	; 0xfffffc30
    1f88:	00cccccc 	sbceq	ip, ip, ip, asr #25
    1f8c:	1e000000 	cdpne	0, 0, cr0, cr0, cr0, {0}
    1f90:	25f72008 	ldrbcs	r2, [r7, #8]!
    1f94:	332cf725 	msrcc	CPSR_fs, #9699328	; 0x940000
    1f98:	03109f25 	tsteq	r0, #37, 30	; 0x94
    1f9c:	03140000 	tsteq	r4, #0
    1fa0:	00010000 	andeq	r0, r1, r0
    1fa4:	00031453 	andeq	r1, r3, r3, asr r4
    1fa8:	00031800 	andeq	r1, r3, r0, lsl #16
    1fac:	70001c00 	andvc	r1, r0, r0, lsl #24
    1fb0:	f72cf700 			; <UNDEFINED> instruction: 0xf72cf700
    1fb4:	0825f425 	stmdaeq	r5!, {r0, r2, r5, sl, ip, sp, lr, pc}
    1fb8:	cccccccd 	stclgt	12, cr12, [ip], {205}	; 0xcd
    1fbc:	00000000 	andeq	r0, r0, r0
    1fc0:	f720081e 			; <UNDEFINED> instruction: 0xf720081e
    1fc4:	2cf72525 	cfldr64cs	mvdx2, [r7], #148	; 0x94
    1fc8:	189f2533 	ldmne	pc, {r0, r1, r4, r5, r8, sl, sp}	; <UNPREDICTABLE>
    1fcc:	20000003 	andcs	r0, r0, r3
    1fd0:	1c000003 	stcne	0, cr0, [r0], {3}
    1fd4:	f7007400 			; <UNDEFINED> instruction: 0xf7007400
    1fd8:	f425f72c 	vld1.8	{d15}, [r5 :128], ip
    1fdc:	cccd0825 	stclgt	8, cr0, [sp], {37}	; 0x25
    1fe0:	0000cccc 	andeq	ip, r0, ip, asr #25
    1fe4:	081e0000 	ldmdaeq	lr, {}	; <UNPREDICTABLE>
    1fe8:	2525f720 	strcs	pc, [r5, #-1824]!	; 0x720
    1fec:	25332cf7 	ldrcs	r2, [r3, #-3319]!	; 0xcf7
    1ff0:	0003209f 	muleq	r3, pc, r0	; <UNPREDICTABLE>
    1ff4:	00032400 	andeq	r2, r3, r0, lsl #8
    1ff8:	74001700 	strvc	r1, [r0], #-1792	; 0x700
    1ffc:	f72cf700 			; <UNDEFINED> instruction: 0xf72cf700
    2000:	f7007325 			; <UNDEFINED> instruction: 0xf7007325
    2004:	1e25f72c 	cdpne	7, 2, cr15, cr5, cr12, {1}
    2008:	25f72008 	ldrbcs	r2, [r7, #8]!
    200c:	332cf725 	msrcc	CPSR_fs, #9699328	; 0x940000
    2010:	03249f25 	teqeq	r4, #37, 30	; 0x94
    2014:	03580000 	cmpeq	r8, #0
    2018:	001c0000 	andseq	r0, ip, r0
    201c:	2cf70074 	ldclcs	0, cr0, [r7], #464	; 0x1d0
    2020:	25f425f7 	ldrbcs	r2, [r4, #1527]!	; 0x5f7
    2024:	cccccd08 	stclgt	13, cr12, [ip], {8}
    2028:	000000cc 	andeq	r0, r0, ip, asr #1
    202c:	20081e00 	andcs	r1, r8, r0, lsl #28
    2030:	f72525f7 			; <UNDEFINED> instruction: 0xf72525f7
    2034:	9f25332c 	svcls	0x0025332c
	...
    2040:	0000031c 	andeq	r0, r0, ip, lsl r3
    2044:	00000340 	andeq	r0, r0, r0, asr #6
    2048:	40500001 	subsmi	r0, r0, r1
    204c:	48000003 	stmdami	r0, {r0, r1}
    2050:	09000003 	stmdbeq	r0, {r0, r1}
    2054:	73007500 	movwvc	r7, #1280	; 0x500
    2058:	00712400 	rsbseq	r2, r1, r0, lsl #8
    205c:	03489f21 	movteq	r9, #36641	; 0x8f21
    2060:	034b0000 	movteq	r0, #45056	; 0xb000
    2064:	00010000 	andeq	r0, r1, r0
    2068:	00000051 	andeq	r0, r0, r1, asr r0
    206c:	00000000 	andeq	r0, r0, r0
    2070:	00035800 	andeq	r5, r3, r0, lsl #16
    2074:	00037c00 	andeq	r7, r3, r0, lsl #24
    2078:	50000100 	andpl	r0, r0, r0, lsl #2
    207c:	0000037c 	andeq	r0, r0, ip, ror r3
    2080:	00000390 	muleq	r0, r0, r3
    2084:	01f30004 	mvnseq	r0, r4
    2088:	00009f50 	andeq	r9, r0, r0, asr pc
    208c:	00000000 	andeq	r0, r0, r0
    2090:	03640000 	cmneq	r4, #0
    2094:	036c0000 	cmneq	ip, #0
    2098:	00020000 	andeq	r0, r2, r0
    209c:	036c9f30 	cmneq	ip, #48, 30	; 0xc0
    20a0:	036c0000 	cmneq	ip, #0
    20a4:	00010000 	andeq	r0, r1, r0
    20a8:	00036c52 	andeq	r6, r3, r2, asr ip
    20ac:	00037400 	andeq	r7, r3, r0, lsl #8
    20b0:	30000200 	andcc	r0, r0, r0, lsl #4
    20b4:	0003749f 	muleq	r3, pc, r4	; <UNPREDICTABLE>
    20b8:	00038700 	andeq	r8, r3, r0, lsl #14
    20bc:	52000100 	andpl	r0, r0, #0, 2
	...
    20c8:	00000364 	andeq	r0, r0, r4, ror #6
    20cc:	00000378 	andeq	r0, r0, r8, ror r3
    20d0:	9f300002 	svcls	0x00300002
    20d4:	00000378 	andeq	r0, r0, r8, ror r3
    20d8:	00000384 	andeq	r0, r0, r4, lsl #7
    20dc:	73310005 	teqvc	r1, #5
    20e0:	849f2400 	ldrhi	r2, [pc], #1024	; 20e8 <_start-0x5f18>
    20e4:	87000003 	strhi	r0, [r0, -r3]
    20e8:	01000003 	tsteq	r0, r3
    20ec:	03875100 	orreq	r5, r7, #0, 2
    20f0:	03900000 	orrseq	r0, r0, #0
    20f4:	00080000 	andeq	r0, r8, r0
    20f8:	5001f331 	andpl	pc, r1, r1, lsr r3	; <UNPREDICTABLE>
    20fc:	9f241a4f 	svcls	0x00241a4f
	...
    2108:	00000390 	muleq	r0, r0, r3
    210c:	0000039c 	muleq	r0, ip, r3
    2110:	9c500001 	mrrcls	0, 0, r0, r0, cr1	; <UNPREDICTABLE>
    2114:	bc000003 	stclt	0, cr0, [r0], {3}
    2118:	04000003 	streq	r0, [r0], #-3
    211c:	5001f300 	andpl	pc, r1, r0, lsl #6
    2120:	0000009f 	muleq	r0, pc, r0	; <UNPREDICTABLE>
    2124:	00000000 	andeq	r0, r0, r0
    2128:	0003bc00 	andeq	fp, r3, r0, lsl #24
    212c:	0003cf00 	andeq	ip, r3, r0, lsl #30
    2130:	50000100 	andpl	r0, r0, r0, lsl #2
    2134:	000003cf 	andeq	r0, r0, pc, asr #7
    2138:	00000408 	andeq	r0, r0, r8, lsl #8
    213c:	08540001 	ldmdaeq	r4, {r0}^
    2140:	40000004 	andmi	r0, r0, r4
    2144:	04000004 	streq	r0, [r0], #-4
    2148:	5001f300 	andpl	pc, r1, r0, lsl #6
    214c:	0000009f 	muleq	r0, pc, r0	; <UNPREDICTABLE>
    2150:	00000000 	andeq	r0, r0, r0
    2154:	00042800 	andeq	r2, r4, r0, lsl #16
    2158:	00042c00 	andeq	r2, r4, r0, lsl #24
    215c:	50000100 	andpl	r0, r0, r0, lsl #2
    2160:	0000042c 	andeq	r0, r0, ip, lsr #8
    2164:	00000433 	andeq	r0, r0, r3, lsr r4
    2168:	00510001 	subseq	r0, r1, r1
    216c:	00000000 	andeq	r0, r0, r0
    2170:	e4000000 	str	r0, [r0], #-0
    2174:	ec000003 	stc	0, cr0, [r0], {3}
    2178:	01000003 	tsteq	r0, r3
    217c:	03ec5000 	mvneq	r5, #0
    2180:	03f30000 	mvnseq	r0, #0
    2184:	00010000 	andeq	r0, r1, r0
    2188:	00000051 	andeq	r0, r0, r1, asr r0
    218c:	00000000 	andeq	r0, r0, r0
    2190:	00040400 	andeq	r0, r4, r0, lsl #8
    2194:	00041000 	andeq	r1, r4, r0
    2198:	50000100 	andpl	r0, r0, r0, lsl #2
    219c:	00000410 	andeq	r0, r0, r0, lsl r4
    21a0:	00000417 	andeq	r0, r0, r7, lsl r4
    21a4:	00510001 	subseq	r0, r1, r1
    21a8:	00000000 	andeq	r0, r0, r0
    21ac:	40000000 	andmi	r0, r0, r0
    21b0:	53000004 	movwpl	r0, #4
    21b4:	01000004 	tsteq	r0, r4
    21b8:	04535000 	ldrbeq	r5, [r3], #-0
    21bc:	048c0000 	streq	r0, [ip], #0
    21c0:	00010000 	andeq	r0, r1, r0
    21c4:	00048c54 	andeq	r8, r4, r4, asr ip
    21c8:	0004c400 	andeq	ip, r4, r0, lsl #8
    21cc:	f3000400 	vshl.u8	d0, d0, d0
    21d0:	009f5001 	addseq	r5, pc, r1
    21d4:	00000000 	andeq	r0, r0, r0
    21d8:	ac000000 	stcge	0, cr0, [r0], {-0}
    21dc:	b0000004 	andlt	r0, r0, r4
    21e0:	01000004 	tsteq	r0, r4
    21e4:	04b05000 	ldrteq	r5, [r0], #0
    21e8:	04b70000 	ldrteq	r0, [r7], #0
    21ec:	00010000 	andeq	r0, r1, r0
    21f0:	00000051 	andeq	r0, r0, r1, asr r0
    21f4:	00000000 	andeq	r0, r0, r0
    21f8:	00046800 	andeq	r6, r4, r0, lsl #16
    21fc:	00047000 	andeq	r7, r4, r0
    2200:	50000100 	andpl	r0, r0, r0, lsl #2
    2204:	00000470 	andeq	r0, r0, r0, ror r4
    2208:	00000477 	andeq	r0, r0, r7, ror r4
    220c:	00510001 	subseq	r0, r1, r1
    2210:	00000000 	andeq	r0, r0, r0
    2214:	88000000 	stmdahi	r0, {}	; <UNPREDICTABLE>
    2218:	94000004 	strls	r0, [r0], #-4
    221c:	01000004 	tsteq	r0, r4
    2220:	04945000 	ldreq	r5, [r4], #0
    2224:	049b0000 	ldreq	r0, [fp], #0
    2228:	00010000 	andeq	r0, r1, r0
    222c:	00000051 	andeq	r0, r0, r1, asr r0
    2230:	00000000 	andeq	r0, r0, r0
    2234:	0004c400 	andeq	ip, r4, r0, lsl #8
    2238:	0004d700 	andeq	sp, r4, r0, lsl #14
    223c:	50000100 	andpl	r0, r0, r0, lsl #2
    2240:	000004d7 	ldrdeq	r0, [r0], -r7
    2244:	00000518 	andeq	r0, r0, r8, lsl r5
    2248:	18540001 	ldmdane	r4, {r0}^
    224c:	3c000005 	stccc	0, cr0, [r0], {5}
    2250:	04000005 	streq	r0, [r0], #-5
    2254:	5001f300 	andpl	pc, r1, r0, lsl #6
    2258:	00053c9f 	muleq	r5, pc, ip	; <UNPREDICTABLE>
    225c:	00054000 	andeq	r4, r5, r0
    2260:	50000100 	andpl	r0, r0, r0, lsl #2
    2264:	00000540 	andeq	r0, r0, r0, asr #10
    2268:	00000548 	andeq	r0, r0, r8, asr #10
    226c:	00540001 	subseq	r0, r4, r1
    2270:	00000000 	andeq	r0, r0, r0
    2274:	ec000000 	stc	0, cr0, [r0], {-0}
    2278:	fb000004 	blx	2292 <_start-0x5d6e>
    227c:	08000004 	stmdaeq	r0, {r2}
    2280:	00743100 	rsbseq	r3, r4, r0, lsl #2
    2284:	1a007024 	bne	1e31c <__bss_end__+0x14354>
    2288:	0000009f 	muleq	r0, pc, r0	; <UNPREDICTABLE>
    228c:	00000000 	andeq	r0, r0, r0
    2290:	00051800 	andeq	r1, r5, r0, lsl #16
    2294:	00053000 	andeq	r3, r5, r0
    2298:	54000100 	strpl	r0, [r0], #-256	; 0x100
	...
    22a4:	00000548 	andeq	r0, r0, r8, asr #10
    22a8:	0000055b 	andeq	r0, r0, fp, asr r5
    22ac:	5b500001 	blpl	14022b8 <__bss_end__+0x13f82f0>
    22b0:	80000005 	andhi	r0, r0, r5
    22b4:	01000005 	tsteq	r0, r5
    22b8:	05805400 	streq	r5, [r0, #1024]	; 0x400
    22bc:	05a00000 	streq	r0, [r0, #0]!
    22c0:	00040000 	andeq	r0, r4, r0
    22c4:	9f5001f3 	svcls	0x005001f3
	...
    22d0:	000000fc 	strdeq	r0, [r0], -ip
    22d4:	00000104 	andeq	r0, r0, r4, lsl #2
    22d8:	04500001 	ldrbeq	r0, [r0], #-1
    22dc:	28000001 	stmdacs	r0, {r0}
    22e0:	01000001 	tsteq	r0, r1
    22e4:	00005400 	andeq	r5, r0, r0, lsl #8
    22e8:	00000000 	andeq	r0, r0, r0
	...

Disassembly of section .debug_aranges:

00000000 <.debug_aranges>:
   0:	0000001c 	andeq	r0, r0, ip, lsl r0
   4:	00000002 	andeq	r0, r0, r2
   8:	00040000 	andeq	r0, r4, r0
   c:	00000000 	andeq	r0, r0, r0
  10:	00008010 	andeq	r8, r0, r0, lsl r0
  14:	00000acc 	andeq	r0, r0, ip, asr #21
	...
  20:	0000001c 	andeq	r0, r0, ip, lsl r0
  24:	10d00002 	sbcsne	r0, r0, r2
  28:	00040000 	andeq	r0, r4, r0
  2c:	00000000 	andeq	r0, r0, r0
  30:	00008adc 	ldrdeq	r8, [r0], -ip
  34:	00000058 	andeq	r0, r0, r8, asr r0
	...
  40:	0000001c 	andeq	r0, r0, ip, lsl r0
  44:	12650002 	rsbne	r0, r5, #2
  48:	00040000 	andeq	r0, r4, r0
  4c:	00000000 	andeq	r0, r0, r0
  50:	00008b34 	andeq	r8, r0, r4, lsr fp
  54:	0000003c 	andeq	r0, r0, ip, lsr r0
	...
  60:	0000001c 	andeq	r0, r0, ip, lsl r0
  64:	137c0002 	cmnne	ip, #2
  68:	00040000 	andeq	r0, r4, r0
  6c:	00000000 	andeq	r0, r0, r0
  70:	00008b70 	andeq	r8, r0, r0, ror fp
  74:	00000034 	andeq	r0, r0, r4, lsr r0
	...
  80:	0000001c 	andeq	r0, r0, ip, lsl r0
  84:	146e0002 	strbtne	r0, [lr], #-2
  88:	00040000 	andeq	r0, r4, r0
  8c:	00000000 	andeq	r0, r0, r0
  90:	00008ba4 	andeq	r8, r0, r4, lsr #23
  94:	000004f8 	strdeq	r0, [r0], -r8
	...
  a0:	0000001c 	andeq	r0, r0, ip, lsl r0
  a4:	1af30002 	bne	ffcc00b4 <__bss_end__+0xffcb60ec>
  a8:	00040000 	andeq	r0, r4, r0
  ac:	00000000 	andeq	r0, r0, r0
  b0:	0000909c 	muleq	r0, ip, r0
  b4:	00000020 	andeq	r0, r0, r0, lsr #32
	...
  c0:	0000001c 	andeq	r0, r0, ip, lsl r0
  c4:	1baf0002 	blne	febc00d4 <__bss_end__+0xfebb610c>
  c8:	00040000 	andeq	r0, r4, r0
  cc:	00000000 	andeq	r0, r0, r0
  d0:	000090bc 	strheq	r9, [r0], -ip
  d4:	00000028 	andeq	r0, r0, r8, lsr #32
	...
  e0:	0000001c 	andeq	r0, r0, ip, lsl r0
  e4:	1cb20002 	ldcne	0, cr0, [r2], #8
  e8:	00040000 	andeq	r0, r4, r0
  ec:	00000000 	andeq	r0, r0, r0
  f0:	000090e4 	andeq	r9, r0, r4, ror #1
  f4:	00000034 	andeq	r0, r0, r4, lsr r0
	...
 100:	0000001c 	andeq	r0, r0, ip, lsl r0
 104:	1db50002 	ldcne	0, cr0, [r5, #8]!
 108:	00040000 	andeq	r0, r4, r0
 10c:	00000000 	andeq	r0, r0, r0
 110:	00009118 	andeq	r9, r0, r8, lsl r1
 114:	00000074 	andeq	r0, r0, r4, ror r0
	...
 120:	0000001c 	andeq	r0, r0, ip, lsl r0
 124:	1f660002 	svcne	0x00660002
 128:	00040000 	andeq	r0, r4, r0
 12c:	00000000 	andeq	r0, r0, r0
 130:	0000918c 	andeq	r9, r0, ip, lsl #3
 134:	00000088 	andeq	r0, r0, r8, lsl #1
	...
 140:	0000001c 	andeq	r0, r0, ip, lsl r0
 144:	21420002 	cmpcs	r2, r2
 148:	00040000 	andeq	r0, r4, r0
 14c:	00000000 	andeq	r0, r0, r0
 150:	00009214 	andeq	r9, r0, r4, lsl r2
 154:	000005a0 	andeq	r0, r0, r0, lsr #11
	...
 160:	0000001c 	andeq	r0, r0, ip, lsl r0
 164:	29c80002 	stmibcs	r8, {r1}^
 168:	00040000 	andeq	r0, r4, r0
 16c:	00000000 	andeq	r0, r0, r0
 170:	000097b4 			; <UNDEFINED> instruction: 0x000097b4
 174:	00000154 	andeq	r0, r0, r4, asr r1
	...

Disassembly of section .debug_ranges:

00000000 <.debug_ranges>:
   0:	00000258 	andeq	r0, r0, r8, asr r2
   4:	00000260 	andeq	r0, r0, r0, ror #4
   8:	00000264 	andeq	r0, r0, r4, ror #4
   c:	00000288 	andeq	r0, r0, r8, lsl #5
	...
  18:	00000258 	andeq	r0, r0, r8, asr r2
  1c:	0000025c 	andeq	r0, r0, ip, asr r2
  20:	00000264 	andeq	r0, r0, r4, ror #4
  24:	00000268 	andeq	r0, r0, r8, ror #4
  28:	0000026c 	andeq	r0, r0, ip, ror #4
  2c:	00000274 	andeq	r0, r0, r4, ror r2
  30:	00000278 	andeq	r0, r0, r8, ror r2
  34:	0000027c 	andeq	r0, r0, ip, ror r2
	...
  40:	00000268 	andeq	r0, r0, r8, ror #4
  44:	0000026c 	andeq	r0, r0, ip, ror #4
  48:	00000274 	andeq	r0, r0, r4, ror r2
  4c:	00000278 	andeq	r0, r0, r8, ror r2
  50:	0000027c 	andeq	r0, r0, ip, ror r2
  54:	00000288 	andeq	r0, r0, r8, lsl #5
	...
  60:	00000298 	muleq	r0, r8, r2
  64:	000002a0 	andeq	r0, r0, r0, lsr #5
  68:	000002a4 	andeq	r0, r0, r4, lsr #5
  6c:	000002c8 	andeq	r0, r0, r8, asr #5
	...
  78:	00000298 	muleq	r0, r8, r2
  7c:	0000029c 	muleq	r0, ip, r2
  80:	000002a4 	andeq	r0, r0, r4, lsr #5
  84:	000002a8 	andeq	r0, r0, r8, lsr #5
  88:	000002ac 	andeq	r0, r0, ip, lsr #5
  8c:	000002b4 			; <UNDEFINED> instruction: 0x000002b4
  90:	000002b8 			; <UNDEFINED> instruction: 0x000002b8
  94:	000002bc 			; <UNDEFINED> instruction: 0x000002bc
	...
  a0:	000002a8 	andeq	r0, r0, r8, lsr #5
  a4:	000002ac 	andeq	r0, r0, ip, lsr #5
  a8:	000002b4 			; <UNDEFINED> instruction: 0x000002b4
  ac:	000002b8 			; <UNDEFINED> instruction: 0x000002b8
  b0:	000002bc 			; <UNDEFINED> instruction: 0x000002bc
  b4:	000002c8 	andeq	r0, r0, r8, asr #5
	...
  c0:	000002d8 	ldrdeq	r0, [r0], -r8
  c4:	000002e0 	andeq	r0, r0, r0, ror #5
  c8:	000002e4 	andeq	r0, r0, r4, ror #5
  cc:	00000308 	andeq	r0, r0, r8, lsl #6
	...
  d8:	000002d8 	ldrdeq	r0, [r0], -r8
  dc:	000002dc 	ldrdeq	r0, [r0], -ip
  e0:	000002e4 	andeq	r0, r0, r4, ror #5
  e4:	000002e8 	andeq	r0, r0, r8, ror #5
  e8:	000002ec 	andeq	r0, r0, ip, ror #5
  ec:	000002f4 	strdeq	r0, [r0], -r4
  f0:	000002f8 	strdeq	r0, [r0], -r8
  f4:	000002fc 	strdeq	r0, [r0], -ip
	...
 100:	000002e8 	andeq	r0, r0, r8, ror #5
 104:	000002ec 	andeq	r0, r0, ip, ror #5
 108:	000002f4 	strdeq	r0, [r0], -r4
 10c:	000002f8 	strdeq	r0, [r0], -r8
 110:	000002fc 	strdeq	r0, [r0], -ip
 114:	00000308 	andeq	r0, r0, r8, lsl #6
	...
 120:	00000318 	andeq	r0, r0, r8, lsl r3
 124:	00000320 	andeq	r0, r0, r0, lsr #6
 128:	00000324 	andeq	r0, r0, r4, lsr #6
 12c:	00000348 	andeq	r0, r0, r8, asr #6
	...
 138:	00000318 	andeq	r0, r0, r8, lsl r3
 13c:	0000031c 	andeq	r0, r0, ip, lsl r3
 140:	00000324 	andeq	r0, r0, r4, lsr #6
 144:	00000328 	andeq	r0, r0, r8, lsr #6
 148:	0000032c 	andeq	r0, r0, ip, lsr #6
 14c:	00000334 	andeq	r0, r0, r4, lsr r3
 150:	00000338 	andeq	r0, r0, r8, lsr r3
 154:	0000033c 	andeq	r0, r0, ip, lsr r3
	...
 160:	00000328 	andeq	r0, r0, r8, lsr #6
 164:	0000032c 	andeq	r0, r0, ip, lsr #6
 168:	00000334 	andeq	r0, r0, r4, lsr r3
 16c:	00000338 	andeq	r0, r0, r8, lsr r3
 170:	0000033c 	andeq	r0, r0, ip, lsr r3
 174:	00000348 	andeq	r0, r0, r8, asr #6
	...
 180:	00000358 	andeq	r0, r0, r8, asr r3
 184:	00000360 	andeq	r0, r0, r0, ror #6
 188:	00000364 	andeq	r0, r0, r4, ror #6
 18c:	0000038c 	andeq	r0, r0, ip, lsl #7
	...
 198:	00000358 	andeq	r0, r0, r8, asr r3
 19c:	0000035c 	andeq	r0, r0, ip, asr r3
 1a0:	00000364 	andeq	r0, r0, r4, ror #6
 1a4:	00000368 	andeq	r0, r0, r8, ror #6
 1a8:	0000036c 	andeq	r0, r0, ip, ror #6
 1ac:	00000374 	andeq	r0, r0, r4, ror r3
 1b0:	00000378 	andeq	r0, r0, r8, ror r3
 1b4:	0000037c 	andeq	r0, r0, ip, ror r3
	...
 1c0:	00000368 	andeq	r0, r0, r8, ror #6
 1c4:	0000036c 	andeq	r0, r0, ip, ror #6
 1c8:	00000374 	andeq	r0, r0, r4, ror r3
 1cc:	00000378 	andeq	r0, r0, r8, ror r3
 1d0:	0000037c 	andeq	r0, r0, ip, ror r3
 1d4:	0000038c 	andeq	r0, r0, ip, lsl #7
	...
 1e0:	0000039c 	muleq	r0, ip, r3
 1e4:	000003a4 	andeq	r0, r0, r4, lsr #7
 1e8:	000003a8 	andeq	r0, r0, r8, lsr #7
 1ec:	000003cc 	andeq	r0, r0, ip, asr #7
	...
 1f8:	0000039c 	muleq	r0, ip, r3
 1fc:	000003a0 	andeq	r0, r0, r0, lsr #7
 200:	000003a8 	andeq	r0, r0, r8, lsr #7
 204:	000003ac 	andeq	r0, r0, ip, lsr #7
 208:	000003b0 			; <UNDEFINED> instruction: 0x000003b0
 20c:	000003b8 			; <UNDEFINED> instruction: 0x000003b8
 210:	000003bc 			; <UNDEFINED> instruction: 0x000003bc
 214:	000003c0 	andeq	r0, r0, r0, asr #7
	...
 220:	000003ac 	andeq	r0, r0, ip, lsr #7
 224:	000003b0 			; <UNDEFINED> instruction: 0x000003b0
 228:	000003b8 			; <UNDEFINED> instruction: 0x000003b8
 22c:	000003bc 			; <UNDEFINED> instruction: 0x000003bc
 230:	000003c0 	andeq	r0, r0, r0, asr #7
 234:	000003cc 	andeq	r0, r0, ip, asr #7
	...
 240:	000003dc 	ldrdeq	r0, [r0], -ip
 244:	000003e4 	andeq	r0, r0, r4, ror #7
 248:	000003e8 	andeq	r0, r0, r8, ror #7
 24c:	0000040c 	andeq	r0, r0, ip, lsl #8
	...
 258:	000003dc 	ldrdeq	r0, [r0], -ip
 25c:	000003e0 	andeq	r0, r0, r0, ror #7
 260:	000003e8 	andeq	r0, r0, r8, ror #7
 264:	000003ec 	andeq	r0, r0, ip, ror #7
 268:	000003f0 	strdeq	r0, [r0], -r0	; <UNPREDICTABLE>
 26c:	000003f8 	strdeq	r0, [r0], -r8
 270:	000003fc 	strdeq	r0, [r0], -ip
 274:	00000400 	andeq	r0, r0, r0, lsl #8
	...
 280:	000003ec 	andeq	r0, r0, ip, ror #7
 284:	000003f0 	strdeq	r0, [r0], -r0	; <UNPREDICTABLE>
 288:	000003f8 	strdeq	r0, [r0], -r8
 28c:	000003fc 	strdeq	r0, [r0], -ip
 290:	00000400 	andeq	r0, r0, r0, lsl #8
 294:	0000040c 	andeq	r0, r0, ip, lsl #8
	...
 2a0:	0000041c 	andeq	r0, r0, ip, lsl r4
 2a4:	00000424 	andeq	r0, r0, r4, lsr #8
 2a8:	00000428 	andeq	r0, r0, r8, lsr #8
 2ac:	0000044c 	andeq	r0, r0, ip, asr #8
	...
 2b8:	00000420 	andeq	r0, r0, r0, lsr #8
 2bc:	00000424 	andeq	r0, r0, r4, lsr #8
 2c0:	00000428 	andeq	r0, r0, r8, lsr #8
 2c4:	0000042c 	andeq	r0, r0, ip, lsr #8
 2c8:	00000430 	andeq	r0, r0, r0, lsr r4
 2cc:	00000438 	andeq	r0, r0, r8, lsr r4
 2d0:	0000043c 	andeq	r0, r0, ip, lsr r4
 2d4:	00000440 	andeq	r0, r0, r0, asr #8
	...
 2e0:	0000042c 	andeq	r0, r0, ip, lsr #8
 2e4:	00000430 	andeq	r0, r0, r0, lsr r4
 2e8:	00000438 	andeq	r0, r0, r8, lsr r4
 2ec:	0000043c 	andeq	r0, r0, ip, lsr r4
 2f0:	00000440 	andeq	r0, r0, r0, asr #8
 2f4:	0000044c 	andeq	r0, r0, ip, asr #8
	...
 300:	000004e0 	andeq	r0, r0, r0, ror #9
 304:	00000a9c 	muleq	r0, ip, sl
 308:	00000aa4 	andeq	r0, r0, r4, lsr #21
 30c:	00000acc 	andeq	r0, r0, ip, asr #21
	...
 318:	000004e0 	andeq	r0, r0, r0, ror #9
 31c:	000004e4 	andeq	r0, r0, r4, ror #9
 320:	000004e8 	andeq	r0, r0, r8, ror #9
 324:	000004f4 	strdeq	r0, [r0], -r4
	...
 330:	00000524 	andeq	r0, r0, r4, lsr #10
 334:	00000528 	andeq	r0, r0, r8, lsr #10
 338:	00000574 	andeq	r0, r0, r4, ror r5
 33c:	000006f8 	strdeq	r0, [r0], -r8
	...
 348:	00000710 	andeq	r0, r0, r0, lsl r7
 34c:	00000720 	andeq	r0, r0, r0, lsr #14
 350:	00000728 	andeq	r0, r0, r8, lsr #14
 354:	000008fc 	strdeq	r0, [r0], -ip
	...
 360:	00000900 	andeq	r0, r0, r0, lsl #18
 364:	00000a40 	andeq	r0, r0, r0, asr #20
 368:	00000a50 	andeq	r0, r0, r0, asr sl
 36c:	00000a6c 	andeq	r0, r0, ip, ror #20
	...
 378:	00000294 	muleq	r0, r4, r2
 37c:	00000298 	muleq	r0, r8, r2
 380:	000002c8 	andeq	r0, r0, r8, asr #5
 384:	000004b8 			; <UNDEFINED> instruction: 0x000004b8
	...
 390:	00009118 	andeq	r9, r0, r8, lsl r1
 394:	0000918c 	andeq	r9, r0, ip, lsl #3
	...

Disassembly of section .debug_line:

00000000 <.debug_line>:
   0:	0000037a 	andeq	r0, r0, sl, ror r3
   4:	01280002 	teqeq	r8, r2
   8:	01020000 	mrseq	r0, (UNDEF: 2)
   c:	000d0efb 	strdeq	r0, [sp], -fp
  10:	01010101 	tsteq	r1, r1, lsl #2
  14:	01000000 	mrseq	r0, (UNDEF: 0)
  18:	2f010000 	svccs	0x00010000
  1c:	2f727375 	svccs	0x00727375
  20:	61636f6c 	cmnvs	r3, ip, ror #30
  24:	65432f6c 	strbvs	r2, [r3, #-3948]	; 0xf6c
  28:	72616c6c 	rsbvc	r6, r1, #108, 24	; 0x6c00
  2c:	6d72612f 	ldfvse	f6, [r2, #-188]!	; 0xffffff44
  30:	6e6f6e2d 	cdpvs	14, 6, cr6, cr15, cr13, {1}
  34:	61652d65 	cmnvs	r5, r5, ror #26
  38:	342f6962 	strtcc	r6, [pc], #-2402	; 40 <_start-0x7fc0>
  3c:	332e382e 	teqcc	lr, #3014656	; 0x2e0000
  40:	3173632d 	cmncc	r3, sp, lsr #6
  44:	2f653037 	svccs	0x00653037
  48:	2f62696c 	svccs	0x0062696c
  4c:	2f636367 	svccs	0x00636367
  50:	2d6d7261 	sfmcs	f7, 2, [sp, #-388]!	; 0xfffffe7c
  54:	656e6f6e 	strbvs	r6, [lr, #-3950]!	; 0xf6e
  58:	6261652d 	rsbvs	r6, r1, #188743680	; 0xb400000
  5c:	2e342f69 	cdpcs	15, 3, cr2, cr4, cr9, {3}
  60:	2f332e38 	svccs	0x00332e38
  64:	6c636e69 	stclvs	14, cr6, [r3], #-420	; 0xfffffe5c
  68:	00656475 	rsbeq	r6, r5, r5, ror r4
  6c:	6573552f 	ldrbvs	r5, [r3, #-1327]!	; 0x52f
  70:	622f7372 	eorvs	r7, pc, #-939524095	; 0xc8000001
  74:	6e616972 	mcrvs	9, 3, r6, cr1, cr2, {3}
  78:	2f6e756a 	svccs	0x006e756a
  7c:	6b736544 	blvs	1cd9594 <__bss_end__+0x1ccf5cc>
  80:	2f706f74 	svccs	0x00706f74
  84:	6f686373 	svcvs	0x00686373
  88:	572f6c6f 	strpl	r6, [pc, -pc, ror #24]!
  8c:	65746e69 	ldrbvs	r6, [r4, #-3689]!	; 0xe69
  90:	32393172 	eorscc	r3, r9, #-2147483620	; 0x8000001c
  94:	53432f30 	movtpl	r2, #16176	; 0x3f30
  98:	45303431 	ldrmi	r3, [r0, #-1073]!	; 0x431
  9c:	3173632f 	cmncc	r3, pc, lsr #6
  a0:	2d653034 	stclcs	0, cr3, [r5, #-208]!	; 0xffffff30
  a4:	69773032 	ldmdbvs	r7!, {r1, r4, r5, ip, sp}^
  a8:	696c2f6e 	stmdbvs	ip!, {r1, r2, r3, r5, r6, r8, r9, sl, fp, sp}^
  ac:	00697062 	rsbeq	r7, r9, r2, rrx
  b0:	6573552f 	ldrbvs	r5, [r3, #-1327]!	; 0x52f
  b4:	622f7372 	eorvs	r7, pc, #-939524095	; 0xc8000001
  b8:	6e616972 	mcrvs	9, 3, r6, cr1, cr2, {3}
  bc:	2f6e756a 	svccs	0x006e756a
  c0:	6b736544 	blvs	1cd95d8 <__bss_end__+0x1ccf610>
  c4:	2f706f74 	svccs	0x00706f74
  c8:	6f686373 	svcvs	0x00686373
  cc:	572f6c6f 	strpl	r6, [pc, -pc, ror #24]!
  d0:	65746e69 	ldrbvs	r6, [r4, #-3689]!	; 0xe69
  d4:	32393172 	eorscc	r3, r9, #-2147483620	; 0x8000001c
  d8:	53432f30 	movtpl	r2, #16176	; 0x3f30
  dc:	45303431 	ldrmi	r3, [r0, #-1073]!	; 0x431
  e0:	3173632f 	cmncc	r3, pc, lsr #6
  e4:	2d653034 	stclcs	0, cr3, [r5, #-208]!	; 0xffffff30
  e8:	69773032 	ldmdbvs	r7!, {r1, r4, r5, ip, sp}^
  ec:	696c2f6e 	stmdbvs	ip!, {r1, r2, r3, r5, r6, r8, r9, sl, fp, sp}^
  f0:	2f697062 	svccs	0x00697062
  f4:	34317363 	ldrtcc	r7, [r1], #-867	; 0x363
  f8:	732d6530 	teqvc	sp, #48, 10	; 0xc000000
  fc:	00006372 	andeq	r6, r0, r2, ror r3
 100:	74736574 	ldrbtvc	r6, [r3], #-1396	; 0x574
 104:	6e65672d 	cdpvs	7, 6, cr6, cr5, cr13, {1}
 108:	0000632e 	andeq	r6, r0, lr, lsr #6
 10c:	74730000 	ldrbtvc	r0, [r3], #-0
 110:	746e6964 	strbtvc	r6, [lr], #-2404	; 0x964
 114:	6363672d 	cmnvs	r3, #11796480	; 0xb40000
 118:	0100682e 	tsteq	r0, lr, lsr #16
 11c:	70720000 	rsbsvc	r0, r2, r0
 120:	00682e69 	rsbeq	r2, r8, r9, ror #28
 124:	67000002 	strvs	r0, [r0, -r2]
 128:	2e6f6970 	mcrcs	9, 3, r6, cr15, cr0, {3}
 12c:	00030068 	andeq	r0, r3, r8, rrx
 130:	05000000 	streq	r0, [r0, #-0]
 134:	00801002 	addeq	r1, r0, r2
 138:	00c00300 	sbceq	r0, r0, r0, lsl #6
 13c:	2f2d1301 	svccs	0x002d1301
 140:	30672f2f 	rsbcc	r2, r7, pc, lsr #30
 144:	01040200 	mrseq	r0, R12_usr
 148:	6a440845 	bvs	1102264 <__bss_end__+0x10f829c>
 14c:	0032292f 	eorseq	r2, r2, pc, lsr #18
 150:	2f010402 	svccs	0x00010402
 154:	04020085 	streq	r0, [r2], #-133	; 0x85
 158:	02002f01 	andeq	r2, r0, #1, 30
 15c:	83a00104 	movhi	r0, #4, 2
 160:	01040200 	mrseq	r0, R12_usr
 164:	020083d7 	andeq	r8, r0, #1543503875	; 0x5c000003
 168:	83bb0104 			; <UNDEFINED> instruction: 0x83bb0104
 16c:	01040200 	mrseq	r0, R12_usr
 170:	020083bb 	andeq	r8, r0, #-335544318	; 0xec000002
 174:	83bb0104 			; <UNDEFINED> instruction: 0x83bb0104
 178:	01040200 	mrseq	r0, R12_usr
 17c:	020083bb 	andeq	r8, r0, #-335544318	; 0xec000002
 180:	83bb0104 			; <UNDEFINED> instruction: 0x83bb0104
 184:	01040200 	mrseq	r0, R12_usr
 188:	740383bb 	strvc	r8, [r3], #-955	; 0x3bb
 18c:	2e0c032e 	cdpcs	3, 0, cr0, cr12, cr14, {1}
 190:	30827603 	addcc	r7, r2, r3, lsl #12
 194:	30303030 	eorscc	r3, r0, r0, lsr r0
 198:	01040200 	mrseq	r0, R12_usr
 19c:	820c032f 	andhi	r0, ip, #-1140850688	; 0xbc000000
 1a0:	00843069 	addeq	r3, r4, r9, rrx
 1a4:	06010402 	streq	r0, [r1], -r2, lsl #8
 1a8:	b703062e 	strlt	r0, [r3, -lr, lsr #12]
 1ac:	02009e7f 	andeq	r9, r0, #2032	; 0x7f0
 1b0:	ce030104 	adfgts	f0, f3, f4
 1b4:	ad038200 	sfmge	f0, 1, [r3, #-0]
 1b8:	0b03827f 	bleq	e0bbc <__bss_end__+0xd6bf4>
 1bc:	00c9032e 	sbceq	r0, r9, lr, lsr #6
 1c0:	7fac032e 	svcvc	0x00ac032e
 1c4:	4f29332e 	svcmi	0x0029332e
 1c8:	02003329 	andeq	r3, r0, #-1543503872	; 0xa4000000
 1cc:	d0030104 	andle	r0, r3, r4, lsl #2
 1d0:	ab036600 	blge	d99d8 <__bss_end__+0xcfa10>
 1d4:	0b03827f 	bleq	e0bd8 <__bss_end__+0xd6c10>
 1d8:	00cb032e 	sbceq	r0, fp, lr, lsr #6
 1dc:	7faa032e 	svcvc	0x00aa032e
 1e0:	4f29332e 	svcmi	0x0029332e
 1e4:	02003329 	andeq	r3, r0, #-1543503872	; 0xa4000000
 1e8:	d2030104 	andle	r0, r3, #4, 2
 1ec:	a9036600 	stmdbge	r3, {r9, sl, sp, lr}
 1f0:	0b03827f 	bleq	e0bf4 <__bss_end__+0xd6c2c>
 1f4:	00cd032e 	sbceq	r0, sp, lr, lsr #6
 1f8:	7fa8032e 	svcvc	0x00a8032e
 1fc:	4f29332e 	svcmi	0x0029332e
 200:	02003329 	andeq	r3, r0, #-1543503872	; 0xa4000000
 204:	d4030104 	strle	r0, [r3], #-260	; 0x104
 208:	a7036600 	strge	r6, [r3, -r0, lsl #12]
 20c:	0b03827f 	bleq	e0c10 <__bss_end__+0xd6c48>
 210:	00cf032e 	sbceq	r0, pc, lr, lsr #6
 214:	7fa6032e 	svcvc	0x00a6032e
 218:	4f29332e 	svcmi	0x0029332e
 21c:	02003329 	andeq	r3, r0, #-1543503872	; 0xa4000000
 220:	d6030104 	strle	r0, [r3], -r4, lsl #2
 224:	a5036600 	strge	r6, [r3, #-1536]	; 0x600
 228:	0b03827f 	bleq	e0c2c <__bss_end__+0xd6c64>
 22c:	00d1032e 	sbcseq	r0, r1, lr, lsr #6
 230:	7fa4032e 	svcvc	0x00a4032e
 234:	4f29332e 	svcmi	0x0029332e
 238:	02003329 	andeq	r3, r0, #-1543503872	; 0xa4000000
 23c:	d8030104 	stmdale	r3, {r2, r8}
 240:	a3038200 	movwge	r8, #12800	; 0x3200
 244:	0b03827f 	bleq	e0c48 <__bss_end__+0xd6c80>
 248:	00d3032e 	sbcseq	r0, r3, lr, lsr #6
 24c:	7fa2032e 	svcvc	0x00a2032e
 250:	4f29332e 	svcmi	0x0029332e
 254:	02003329 	andeq	r3, r0, #-1543503872	; 0xa4000000
 258:	da030104 	ble	c0670 <__bss_end__+0xb66a8>
 25c:	a1036600 	tstge	r3, r0, lsl #12
 260:	0b03827f 	bleq	e0c64 <__bss_end__+0xd6c9c>
 264:	00d5032e 	sbcseq	r0, r5, lr, lsr #6
 268:	7fa0032e 	svcvc	0x00a0032e
 26c:	4f29332e 	svcmi	0x0029332e
 270:	02003329 	andeq	r3, r0, #-1543503872	; 0xa4000000
 274:	dc030104 	stfles	f0, [r3], {4}
 278:	aa036600 	bge	d9a80 <__bss_end__+0xcfab8>
 27c:	7503827f 	strvc	r8, [r3, #-639]	; 0x27f
 280:	00e2032e 	rsceq	r0, r2, lr, lsr #6
 284:	7f9e032e 	svcvc	0x009e032e
 288:	4f29332e 	svcmi	0x0029332e
 28c:	02003329 	andeq	r3, r0, #-1543503872	; 0xa4000000
 290:	de030104 	adfles	f0, f3, f4
 294:	9d036600 	stcls	6, cr6, [r3, #-0]
 298:	0200827f 	andeq	r8, r0, #-268435449	; 0xf0000007
 29c:	e5030104 	str	r0, [r3, #-260]	; 0x104
 2a0:	83200800 	teqhi	r0, #0, 16
 2a4:	31662103 	cmncc	r6, r3, lsl #2
 2a8:	83312a83 	teqhi	r1, #536576	; 0x83000
 2ac:	032f4b2f 	teqeq	pc, #48128	; 0xbc00
 2b0:	034a7ef2 	movteq	r7, #44786	; 0xaef2
 2b4:	032e00ea 	teqeq	lr, #234	; 0xea
 2b8:	032e7f96 	teqeq	lr, #600	; 0x258
 2bc:	4b6600ea 	blmi	198066c <__bss_end__+0x19766a4>
 2c0:	7fb903f3 	svcvc	0x00b903f3
 2c4:	00c9034a 	sbceq	r0, r9, sl, asr #6
 2c8:	68684c2e 	stmdavs	r8!, {r1, r2, r3, r5, sl, fp, lr}^
 2cc:	7fae03a0 	svcvc	0x00ae03a0
 2d0:	2f8583ba 	svccs	0x008583ba
 2d4:	83bb83a0 			; <UNDEFINED> instruction: 0x83bb83a0
 2d8:	839f839f 	orrshi	r8, pc, #2080374786	; 0x7c000002
 2dc:	839f839f 	orrshi	r8, pc, #2080374786	; 0x7c000002
 2e0:	839f839f 	orrshi	r8, pc, #2080374786	; 0x7c000002
 2e4:	032e7403 	teqeq	lr, #50331648	; 0x3000000
 2e8:	76032e0c 	strvc	r2, [r3], -ip, lsl #28
 2ec:	3030304a 	eorscc	r3, r0, sl, asr #32
 2f0:	032f4c30 	teqeq	pc, #48, 24	; 0x3000
 2f4:	2d2f823d 	sfmcs	f0, 1, [pc, #-244]!	; 208 <_start-0x7df8>
 2f8:	7fab032f 	svcvc	0x00ab032f
 2fc:	00d50366 	sbcseq	r0, r5, r6, ror #6
 300:	7fac0382 	svcvc	0x00ac0382
 304:	a02f854a 	eorge	r8, pc, sl, asr #10
 308:	83210883 	teqhi	r1, #8585216	; 0x830000
 30c:	d7832108 	strle	r2, [r3, r8, lsl #2]
 310:	bb83bb83 	bllt	fe0ef124 <__bss_end__+0xfe0e515c>
 314:	bb83bb83 	bllt	fe0ef128 <__bss_end__+0xfe0e5160>
 318:	2e740383 	cdpcs	3, 7, cr0, cr4, cr3, {4}
 31c:	032e0c03 	teqeq	lr, #768	; 0x300
 320:	0c032e74 	stceq	14, cr2, [r3], {116}	; 0x74
 324:	4a760366 	bmi	1d810c4 <__bss_end__+0x1d770fc>
 328:	032e0a03 	teqeq	lr, #12288	; 0x3000
 32c:	4c302e76 	ldcmi	14, cr2, [r0], #-472	; 0xfffffe28
 330:	4b684c4c 	blmi	1a13468 <__bss_end__+0x1a094a0>
 334:	03823f03 	orreq	r3, r2, #3, 30
 338:	852e7fab 	strhi	r7, [lr, #-4011]!	; 0xfab
 33c:	bb83842f 	bllt	fe0e1400 <__bss_end__+0xfe0d7438>
 340:	83839f83 	orrhi	r9, r3, #524	; 0x20c
 344:	83838383 	orrhi	r8, r3, #201326594	; 0xc000002
 348:	83838383 	orrhi	r8, r3, #201326594	; 0xc000002
 34c:	3e038383 	cdpcc	3, 0, cr8, cr3, cr3, {4}
 350:	40036782 	andmi	r6, r3, r2, lsl #15
 354:	2c2c2c2e 	stccs	12, cr2, [ip], #-184	; 0xffffff48
 358:	032c2c2c 	teqeq	ip, #44, 24	; 0x2c00
 35c:	2c2e00cf 	stccs	0, cr0, [lr], #-828	; 0xfffffcc4
 360:	4a720330 	bmi	1c81028 <__bss_end__+0x1c77060>
 364:	032e1303 	teqeq	lr, #201326592	; 0xc000000
 368:	13032e6d 	movwne	r2, #15981	; 0x3e6d
 36c:	2e6d032e 	cdpcs	3, 6, cr0, cr13, cr14, {1}
 370:	032e1503 	teqeq	lr, #12582912	; 0xc00000
 374:	69036611 	stmdbvs	r3, {r0, r4, r9, sl, sp, lr}
 378:	0014024a 	andseq	r0, r4, sl, asr #4
 37c:	01020101 	tsteq	r2, r1, lsl #2
 380:	00020000 	andeq	r0, r2, r0
 384:	000000eb 	andeq	r0, r0, fp, ror #1
 388:	0efb0102 	cdpeq	1, 15, cr0, cr11, cr2, {0}
 38c:	0101000d 	tsteq	r1, sp
 390:	00000101 	andeq	r0, r0, r1, lsl #2
 394:	00000100 	andeq	r0, r0, r0, lsl #2
 398:	62696c01 	rsbvs	r6, r9, #256	; 0x100
 39c:	752f0063 	strvc	r0, [pc, #-99]!	; 341 <_start-0x7cbf>
 3a0:	6c2f7273 	sfmvs	f7, 4, [pc], #-460	; 1dc <_start-0x7e24>
 3a4:	6c61636f 	stclvs	3, cr6, [r1], #-444	; 0xfffffe44
 3a8:	6c65432f 	stclvs	3, cr4, [r5], #-188	; 0xffffff44
 3ac:	2f72616c 	svccs	0x0072616c
 3b0:	2d6d7261 	sfmcs	f7, 2, [sp, #-388]!	; 0xfffffe7c
 3b4:	656e6f6e 	strbvs	r6, [lr, #-3950]!	; 0xf6e
 3b8:	6261652d 	rsbvs	r6, r1, #188743680	; 0xb400000
 3bc:	2e342f69 	cdpcs	15, 3, cr2, cr4, cr9, {3}
 3c0:	2d332e38 	ldccs	14, cr2, [r3, #-224]!	; 0xffffff20
 3c4:	37317363 	ldrcc	r7, [r1, -r3, ror #6]!
 3c8:	6c2f6530 	cfstr32vs	mvfx6, [pc], #-192	; 310 <_start-0x7cf0>
 3cc:	672f6269 	strvs	r6, [pc, -r9, ror #4]!
 3d0:	612f6363 	teqvs	pc, r3, ror #6
 3d4:	6e2d6d72 	mcrvs	13, 1, r6, cr13, cr2, {3}
 3d8:	2d656e6f 	stclcs	14, cr6, [r5, #-444]!	; 0xfffffe44
 3dc:	69626165 	stmdbvs	r2!, {r0, r2, r5, r6, r8, sp, lr}^
 3e0:	382e342f 	stmdacc	lr!, {r0, r1, r2, r3, r5, sl, ip, sp}
 3e4:	692f332e 	stmdbvs	pc!, {r1, r2, r3, r5, r8, r9, ip, sp}	; <UNPREDICTABLE>
 3e8:	756c636e 	strbvc	r6, [ip, #-878]!	; 0x36e
 3ec:	2f006564 	svccs	0x00006564
 3f0:	72657355 	rsbvc	r7, r5, #1409286145	; 0x54000001
 3f4:	72622f73 	rsbvc	r2, r2, #460	; 0x1cc
 3f8:	6a6e6169 	bvs	1b989a4 <__bss_end__+0x1b8e9dc>
 3fc:	442f6e75 	strtmi	r6, [pc], #-3701	; 404 <_start-0x7bfc>
 400:	746b7365 	strbtvc	r7, [fp], #-869	; 0x365
 404:	732f706f 	teqvc	pc, #111	; 0x6f
 408:	6f6f6863 	svcvs	0x006f6863
 40c:	69572f6c 	ldmdbvs	r7, {r2, r3, r5, r6, r8, r9, sl, fp, sp}^
 410:	7265746e 	rsbvc	r7, r5, #1845493760	; 0x6e000000
 414:	30323931 	eorscc	r3, r2, r1, lsr r9
 418:	3153432f 	cmpcc	r3, pc, lsr #6
 41c:	2f453034 	svccs	0x00453034
 420:	34317363 	ldrtcc	r7, [r1], #-867	; 0x363
 424:	322d6530 	eorcc	r6, sp, #48, 10	; 0xc000000
 428:	6e697730 	mcrvs	7, 3, r7, cr9, cr0, {1}
 42c:	62696c2f 	rsbvs	r6, r9, #12032	; 0x2f00
 430:	00006970 	andeq	r6, r0, r0, ror r9
 434:	6e697270 	mcrvs	2, 3, r7, cr9, cr0, {3}
 438:	632e6b74 	teqvs	lr, #116, 22	; 0x1d000
 43c:	00000100 	andeq	r0, r0, r0, lsl #2
 440:	61647473 	smcvs	18243	; 0x4743
 444:	682e6772 	stmdavs	lr!, {r1, r4, r5, r6, r8, r9, sl, sp, lr}
 448:	00000200 	andeq	r0, r0, r0, lsl #4
 44c:	6975623c 	ldmdbvs	r5!, {r2, r3, r4, r5, r9, sp, lr}^
 450:	692d746c 	pushvs	{r2, r3, r5, r6, sl, ip, sp, lr}
 454:	00003e6e 	andeq	r3, r0, lr, ror #28
 458:	70720000 	rsbsvc	r0, r2, r0
 45c:	00682e69 	rsbeq	r2, r8, r9, ror #28
 460:	76000003 	strvc	r0, [r0], -r3
 464:	72702d61 	rsbsvc	r2, r0, #6208	; 0x1840
 468:	6b746e69 	blvs	1d1be14 <__bss_end__+0x1d11e4c>
 46c:	0100682e 	tsteq	r0, lr, lsr #16
 470:	00000000 	andeq	r0, r0, r0
 474:	8adc0205 	bhi	ff700c90 <__bss_end__+0xff6f6cc8>
 478:	6b170000 	blvs	5c0480 <__bss_end__+0x5b64b8>
 47c:	0289bf4b 	addeq	fp, r9, #300	; 0x12c
 480:	0101000e 	tsteq	r1, lr
 484:	0000008a 	andeq	r0, r0, sl, lsl #1
 488:	00720002 	rsbseq	r0, r2, r2
 48c:	01020000 	mrseq	r0, (UNDEF: 2)
 490:	000d0efb 	strdeq	r0, [sp], -fp
 494:	01010101 	tsteq	r1, r1, lsl #2
 498:	01000000 	mrseq	r0, (UNDEF: 0)
 49c:	6c010000 	stcvs	0, cr0, [r1], {-0}
 4a0:	00636269 	rsbeq	r6, r3, r9, ror #4
 4a4:	6573552f 	ldrbvs	r5, [r3, #-1327]!	; 0x52f
 4a8:	622f7372 	eorvs	r7, pc, #-939524095	; 0xc8000001
 4ac:	6e616972 	mcrvs	9, 3, r6, cr1, cr2, {3}
 4b0:	2f6e756a 	svccs	0x006e756a
 4b4:	6b736544 	blvs	1cd99cc <__bss_end__+0x1ccfa04>
 4b8:	2f706f74 	svccs	0x00706f74
 4bc:	6f686373 	svcvs	0x00686373
 4c0:	572f6c6f 	strpl	r6, [pc, -pc, ror #24]!
 4c4:	65746e69 	ldrbvs	r6, [r4, #-3689]!	; 0xe69
 4c8:	32393172 	eorscc	r3, r9, #-2147483620	; 0x8000001c
 4cc:	53432f30 	movtpl	r2, #16176	; 0x3f30
 4d0:	45303431 	ldrmi	r3, [r0, #-1073]!	; 0x431
 4d4:	3173632f 	cmncc	r3, pc, lsr #6
 4d8:	2d653034 	stclcs	0, cr3, [r5, #-208]!	; 0xffffff30
 4dc:	69773032 	ldmdbvs	r7!, {r1, r4, r5, ip, sp}^
 4e0:	696c2f6e 	stmdbvs	ip!, {r1, r2, r3, r5, r6, r8, r9, sl, fp, sp}^
 4e4:	00697062 	rsbeq	r7, r9, r2, rrx
 4e8:	74757000 	ldrbtvc	r7, [r5], #-0
 4ec:	72616863 	rsbvc	r6, r1, #6488064	; 0x630000
 4f0:	0100632e 	tsteq	r0, lr, lsr #6
 4f4:	70720000 	rsbsvc	r0, r2, r0
 4f8:	00682e69 	rsbeq	r2, r8, r9, ror #28
 4fc:	00000002 	andeq	r0, r0, r2
 500:	34020500 	strcc	r0, [r2], #-1280	; 0x500
 504:	1400008b 	strne	r0, [r0], #-139	; 0x8b
 508:	bc136b4a 	ldclt	11, cr6, [r3], {74}	; 0x4a
 50c:	00080213 	andeq	r0, r8, r3, lsl r2
 510:	00960101 	addseq	r0, r6, r1, lsl #2
 514:	00020000 	andeq	r0, r2, r0
 518:	0000006f 	andeq	r0, r0, pc, rrx
 51c:	0efb0102 	cdpeq	1, 15, cr0, cr11, cr2, {0}
 520:	0101000d 	tsteq	r1, sp
 524:	00000101 	andeq	r0, r0, r1, lsl #2
 528:	00000100 	andeq	r0, r0, r0, lsl #2
 52c:	62696c01 	rsbvs	r6, r9, #256	; 0x100
 530:	552f0063 	strpl	r0, [pc, #-99]!	; 4d5 <_start-0x7b2b>
 534:	73726573 	cmnvc	r2, #482344960	; 0x1cc00000
 538:	6972622f 	ldmdbvs	r2!, {r0, r1, r2, r3, r5, r9, sp, lr}^
 53c:	756a6e61 	strbvc	r6, [sl, #-3681]!	; 0xe61
 540:	65442f6e 	strbvs	r2, [r4, #-3950]	; 0xf6e
 544:	6f746b73 	svcvs	0x00746b73
 548:	63732f70 	cmnvs	r3, #112, 30	; 0x1c0
 54c:	6c6f6f68 	stclvs	15, cr6, [pc], #-416	; 3b4 <_start-0x7c4c>
 550:	6e69572f 	cdpvs	7, 6, cr5, cr9, cr15, {1}
 554:	31726574 	cmncc	r2, r4, ror r5
 558:	2f303239 	svccs	0x00303239
 55c:	34315343 	ldrtcc	r5, [r1], #-835	; 0x343
 560:	632f4530 	teqvs	pc, #48, 10	; 0xc000000
 564:	30343173 	eorscc	r3, r4, r3, ror r1
 568:	30322d65 	eorscc	r2, r2, r5, ror #26
 56c:	2f6e6977 	svccs	0x006e6977
 570:	7062696c 	rsbvc	r6, r2, ip, ror #18
 574:	70000069 	andvc	r0, r0, r9, rrx
 578:	2e6b7475 	mcrcs	4, 3, r7, cr11, cr5, {3}
 57c:	00010063 	andeq	r0, r1, r3, rrx
 580:	69707200 	ldmdbvs	r0!, {r9, ip, sp, lr}^
 584:	0200682e 	andeq	r6, r0, #3014656	; 0x2e0000
 588:	00000000 	andeq	r0, r0, r0
 58c:	8b700205 	blhi	1c00da8 <__bss_end__+0x1bf6de0>
 590:	4c150000 	ldcmi	0, cr0, [r5], {-0}
 594:	0402002d 	streq	r0, [r2], #-45	; 0x2d
 598:	02002f02 	andeq	r2, r0, #2, 30
 59c:	00490204 	subeq	r0, r9, r4, lsl #4
 5a0:	06010402 	streq	r0, [r1], -r2, lsl #8
 5a4:	026b062e 	rsbeq	r0, fp, #48234496	; 0x2e00000
 5a8:	01010006 	tsteq	r1, r6
 5ac:	000001de 	ldrdeq	r0, [r0], -lr
 5b0:	00df0002 	sbcseq	r0, pc, r2
 5b4:	01020000 	mrseq	r0, (UNDEF: 2)
 5b8:	000d0efb 	strdeq	r0, [sp], -fp
 5bc:	01010101 	tsteq	r1, r1, lsl #2
 5c0:	01000000 	mrseq	r0, (UNDEF: 0)
 5c4:	6c010000 	stcvs	0, cr0, [r1], {-0}
 5c8:	00636269 	rsbeq	r6, r3, r9, ror #4
 5cc:	7273752f 	rsbsvc	r7, r3, #197132288	; 0xbc00000
 5d0:	636f6c2f 	cmnvs	pc, #12032	; 0x2f00
 5d4:	432f6c61 	teqmi	pc, #24832	; 0x6100
 5d8:	616c6c65 	cmnvs	ip, r5, ror #24
 5dc:	72612f72 	rsbvc	r2, r1, #456	; 0x1c8
 5e0:	6f6e2d6d 	svcvs	0x006e2d6d
 5e4:	652d656e 	strvs	r6, [sp, #-1390]!	; 0x56e
 5e8:	2f696261 	svccs	0x00696261
 5ec:	2e382e34 	mrccs	14, 1, r2, cr8, cr4, {1}
 5f0:	73632d33 	cmnvc	r3, #3264	; 0xcc0
 5f4:	65303731 	ldrvs	r3, [r0, #-1841]!	; 0x731
 5f8:	62696c2f 	rsbvs	r6, r9, #12032	; 0x2f00
 5fc:	6363672f 	cmnvs	r3, #12320768	; 0xbc0000
 600:	6d72612f 	ldfvse	f6, [r2, #-188]!	; 0xffffff44
 604:	6e6f6e2d 	cdpvs	14, 6, cr6, cr15, cr13, {1}
 608:	61652d65 	cmnvs	r5, r5, ror #26
 60c:	342f6962 	strtcc	r6, [pc], #-2402	; 614 <_start-0x79ec>
 610:	332e382e 	teqcc	lr, #3014656	; 0x2e0000
 614:	636e692f 	cmnvs	lr, #770048	; 0xbc000
 618:	6564756c 	strbvs	r7, [r4, #-1388]!	; 0x56c
 61c:	73552f00 	cmpvc	r5, #0, 30
 620:	2f737265 	svccs	0x00737265
 624:	61697262 	cmnvs	r9, r2, ror #4
 628:	6e756a6e 	vsubvs.f32	s13, s10, s29
 62c:	7365442f 	cmnvc	r5, #788529152	; 0x2f000000
 630:	706f746b 	rsbvc	r7, pc, fp, ror #8
 634:	6863732f 	stmdavs	r3!, {r0, r1, r2, r3, r5, r8, r9, ip, sp, lr}^
 638:	2f6c6f6f 	svccs	0x006c6f6f
 63c:	746e6957 	strbtvc	r6, [lr], #-2391	; 0x957
 640:	39317265 	ldmdbcc	r1!, {r0, r2, r5, r6, r9, ip, sp, lr}
 644:	432f3032 	teqmi	pc, #50	; 0x32
 648:	30343153 	eorscc	r3, r4, r3, asr r1
 64c:	73632f45 	cmnvc	r3, #276	; 0x114
 650:	65303431 	ldrvs	r3, [r0, #-1073]!	; 0x431
 654:	7730322d 	ldrvc	r3, [r0, -sp, lsr #4]!
 658:	6c2f6e69 	stcvs	14, cr6, [pc], #-420	; 4bc <_start-0x7b44>
 65c:	69706269 	ldmdbvs	r0!, {r0, r3, r5, r6, r9, sp, lr}^
 660:	61760000 	cmnvs	r6, r0
 664:	6972702d 	ldmdbvs	r2!, {r0, r2, r3, r5, ip, sp, lr}^
 668:	2e6b746e 	cdpcs	4, 6, cr7, cr11, cr14, {3}
 66c:	00010063 	andeq	r0, r1, r3, rrx
 670:	64747300 	ldrbtvs	r7, [r4], #-768	; 0x300
 674:	2e677261 	cdpcs	2, 6, cr7, cr7, cr1, {3}
 678:	00020068 	andeq	r0, r2, r8, rrx
 67c:	69707200 	ldmdbvs	r0!, {r9, ip, sp, lr}^
 680:	0300682e 	movweq	r6, #2094	; 0x82e
 684:	623c0000 	eorsvs	r0, ip, #0
 688:	746c6975 	strbtvc	r6, [ip], #-2421	; 0x975
 68c:	3e6e692d 	cdpcc	9, 6, cr6, cr14, cr13, {1}
 690:	00000000 	andeq	r0, r0, r0
 694:	02050000 	andeq	r0, r5, #0
 698:	00008ba4 	andeq	r8, r0, r4, lsr #23
 69c:	01012603 	tsteq	r1, r3, lsl #12
 6a0:	2d3113a5 	ldccs	3, cr1, [r1, #-660]!	; 0xfffffd6c
 6a4:	02040200 	andeq	r0, r4, #0, 4
 6a8:	0402002f 	streq	r0, [r2], #-47	; 0x2f
 6ac:	02002d02 	andeq	r2, r0, #2, 26	; 0x80
 6b0:	002f0204 	eoreq	r0, pc, r4, lsl #4
 6b4:	2d010402 	cfstrscs	mvf0, [r1, #-8]
 6b8:	14304c4c 	ldrtne	r4, [r0], #-3148	; 0xc4c
 6bc:	004f2f4b 	subeq	r2, pc, fp, asr #30
 6c0:	67020402 	strvs	r0, [r2, -r2, lsl #8]
 6c4:	01040200 	mrseq	r0, R12_usr
 6c8:	304d4c65 	subcc	r4, sp, r5, ror #24
 6cc:	30312fa0 	eorscc	r2, r1, r0, lsr #31
 6d0:	84162602 	ldrhi	r2, [r6], #-1538	; 0x602
 6d4:	02002c2d 	andeq	r2, r0, #11520	; 0x2d00
 6d8:	00300104 	eorseq	r0, r0, r4, lsl #2
 6dc:	33010402 	movwcc	r0, #5122	; 0x1402
 6e0:	02006606 	andeq	r6, r0, #6291456	; 0x600000
 6e4:	002e0104 	eoreq	r0, lr, r4, lsl #2
 6e8:	06010402 	streq	r0, [r1], -r2, lsl #8
 6ec:	2f672108 	svccs	0x00672108
 6f0:	03827303 	orreq	r7, r2, #201326592	; 0xc000000
 6f4:	02002e13 	andeq	r2, r0, #304	; 0x130
 6f8:	2e060104 	adfcss	f0, f6, f4
 6fc:	01040200 	mrseq	r0, R12_usr
 700:	4b6a9f06 	blmi	1aa8320 <__bss_end__+0x1a9e358>
 704:	032e6703 	teqeq	lr, #786432	; 0xc0000
 708:	02002e21 	andeq	r2, r0, #528	; 0x210
 70c:	2e060104 	adfcss	f0, f6, f4
 710:	01040200 	mrseq	r0, R12_usr
 714:	02009f06 	andeq	r9, r0, #6, 30
 718:	d96a0104 	stmdble	sl!, {r2, r8}^
 71c:	7fa603f3 	svcvc	0x00a603f3
 720:	002f2008 	eoreq	r2, pc, r8
 724:	06010402 	streq	r0, [r1], -r2, lsl #8
 728:	4bd7064a 	blmi	ff5c2058 <__bss_end__+0xff5b8090>
 72c:	00da032f 	sbcseq	r0, sl, pc, lsr #6
 730:	484c83f2 	stmdami	ip, {r1, r4, r5, r6, r7, r8, r9, pc}^
 734:	032e0e03 	teqeq	lr, #3, 28	; 0x30
 738:	2f2f2e75 	svccs	0x002f2e75
 73c:	2d2f4b84 	vstmdbcs	pc!, {d4-d5}
 740:	2f30314d 	svccs	0x0030314d
 744:	04020083 	streq	r0, [r2], #-131	; 0x83
 748:	00a22c01 	adceq	r2, r2, r1, lsl #24
 74c:	06010402 	streq	r0, [r1], -r2, lsl #8
 750:	02d8064a 	sbcseq	r0, r8, #77594624	; 0x4a00000
 754:	0e031636 	mcreq	6, 0, r1, cr3, cr6, {1}
 758:	302108d6 	ldrdcc	r0, [r1], -r6	; <UNPREDICTABLE>
 75c:	30f331f3 	ldrshtcc	r3, [r3], #19
 760:	304b30f3 	strdcc	r3, [fp], #-3
 764:	230830f3 	movwcs	r3, #33011	; 0x80f3
 768:	02002f31 	andeq	r2, r0, #49, 30	; 0xc4
 76c:	00650104 	rsbeq	r0, r5, r4, lsl #2
 770:	06020402 	streq	r0, [r2], -r2, lsl #8
 774:	0402004a 	streq	r0, [r2], #-74	; 0x4a
 778:	42030601 	andmi	r0, r3, #1048576	; 0x100000
 77c:	04020066 	streq	r0, [r2], #-102	; 0x66
 780:	06660602 	strbteq	r0, [r6], -r2, lsl #12
 784:	4a00c203 	bmi	30f98 <__bss_end__+0x26fd0>
 788:	00100268 	andseq	r0, r0, r8, ror #4
 78c:	00430101 	subeq	r0, r3, r1, lsl #2
 790:	00020000 	andeq	r0, r2, r0
 794:	00000029 	andeq	r0, r0, r9, lsr #32
 798:	0efb0102 	cdpeq	1, 15, cr0, cr11, cr2, {0}
 79c:	0101000d 	tsteq	r1, sp
 7a0:	00000101 	andeq	r0, r0, r1, lsl #2
 7a4:	00000100 	andeq	r0, r0, r0, lsl #2
 7a8:	31736301 	cmncc	r3, r1, lsl #6
 7ac:	2d653034 	stclcs	0, cr3, [r5, #-208]!	; 0xffffff30
 7b0:	00637273 	rsbeq	r7, r3, r3, ror r2
 7b4:	63616300 	cmnvs	r1, #0, 6
 7b8:	632e6568 	teqvs	lr, #104, 10	; 0x1a000000
 7bc:	00000100 	andeq	r0, r0, r0, lsl #2
 7c0:	02050000 	andeq	r0, r5, #0
 7c4:	0000909c 	muleq	r0, ip, r0
 7c8:	2f301414 	svccs	0x00301414
 7cc:	2f31144e 	svccs	0x0031144e
 7d0:	01000402 	tsteq	r0, r2, lsl #8
 7d4:	00009301 	andeq	r9, r0, r1, lsl #6
 7d8:	7d000200 	sfmvc	f0, 4, [r0, #-0]
 7dc:	02000000 	andeq	r0, r0, #0
 7e0:	0d0efb01 	vstreq	d15, [lr, #-4]
 7e4:	01010100 	mrseq	r0, (UNDEF: 17)
 7e8:	00000001 	andeq	r0, r0, r1
 7ec:	01000001 	tsteq	r0, r1
 7f0:	34317363 	ldrtcc	r7, [r1], #-867	; 0x363
 7f4:	732d6530 	teqvc	sp, #48, 10	; 0xc000000
 7f8:	2f006372 	svccs	0x00006372
 7fc:	72657355 	rsbvc	r7, r5, #1409286145	; 0x54000001
 800:	72622f73 	rsbvc	r2, r2, #460	; 0x1cc
 804:	6a6e6169 	bvs	1b98db0 <__bss_end__+0x1b8ede8>
 808:	442f6e75 	strtmi	r6, [pc], #-3701	; 810 <_start-0x77f0>
 80c:	746b7365 	strbtvc	r7, [fp], #-869	; 0x365
 810:	732f706f 	teqvc	pc, #111	; 0x6f
 814:	6f6f6863 	svcvs	0x006f6863
 818:	69572f6c 	ldmdbvs	r7, {r2, r3, r5, r6, r8, r9, sl, fp, sp}^
 81c:	7265746e 	rsbvc	r7, r5, #1845493760	; 0x6e000000
 820:	30323931 	eorscc	r3, r2, r1, lsr r9
 824:	3153432f 	cmpcc	r3, pc, lsr #6
 828:	2f453034 	svccs	0x00453034
 82c:	34317363 	ldrtcc	r7, [r1], #-867	; 0x363
 830:	322d6530 	eorcc	r6, sp, #48, 10	; 0xc000000
 834:	6e697730 	mcrvs	7, 3, r7, cr9, cr0, {1}
 838:	62696c2f 	rsbvs	r6, r9, #12032	; 0x2f00
 83c:	00006970 	andeq	r6, r0, r0, ror r9
 840:	61656c63 	cmnvs	r5, r3, ror #24
 844:	65722d6e 	ldrbvs	r2, [r2, #-3438]!	; 0xd6e
 848:	746f6f62 	strbtvc	r6, [pc], #-3938	; 850 <_start-0x77b0>
 84c:	0100632e 	tsteq	r0, lr, lsr #6
 850:	70720000 	rsbsvc	r0, r2, r0
 854:	00682e69 	rsbeq	r2, r8, r9, ror #28
 858:	00000002 	andeq	r0, r0, r2
 85c:	bc020500 	cfstr32lt	mvfx0, [r2], {-0}
 860:	15000090 	strne	r0, [r0, #-144]	; 0x90
 864:	024b832f 	subeq	r8, fp, #-1140850688	; 0xbc000000
 868:	01010006 	tsteq	r1, r6
 86c:	0000009a 	muleq	r0, sl, r0
 870:	00770002 	rsbseq	r0, r7, r2
 874:	01020000 	mrseq	r0, (UNDEF: 2)
 878:	000d0efb 	strdeq	r0, [sp], -fp
 87c:	01010101 	tsteq	r1, r1, lsl #2
 880:	01000000 	mrseq	r0, (UNDEF: 0)
 884:	63010000 	movwvs	r0, #4096	; 0x1000
 888:	30343173 	eorscc	r3, r4, r3, ror r1
 88c:	72732d65 	rsbsvc	r2, r3, #6464	; 0x1940
 890:	552f0063 	strpl	r0, [pc, #-99]!	; 835 <_start-0x77cb>
 894:	73726573 	cmnvc	r2, #482344960	; 0x1cc00000
 898:	6972622f 	ldmdbvs	r2!, {r0, r1, r2, r3, r5, r9, sp, lr}^
 89c:	756a6e61 	strbvc	r6, [sl, #-3681]!	; 0xe61
 8a0:	65442f6e 	strbvs	r2, [r4, #-3950]	; 0xf6e
 8a4:	6f746b73 	svcvs	0x00746b73
 8a8:	63732f70 	cmnvs	r3, #112, 30	; 0x1c0
 8ac:	6c6f6f68 	stclvs	15, cr6, [pc], #-416	; 714 <_start-0x78ec>
 8b0:	6e69572f 	cdpvs	7, 6, cr5, cr9, cr15, {1}
 8b4:	31726574 	cmncc	r2, r4, ror r5
 8b8:	2f303239 	svccs	0x00303239
 8bc:	34315343 	ldrtcc	r5, [r1], #-835	; 0x343
 8c0:	632f4530 	teqvs	pc, #48, 10	; 0xc000000
 8c4:	30343173 	eorscc	r3, r4, r3, ror r1
 8c8:	30322d65 	eorscc	r2, r2, r5, ror #26
 8cc:	2f6e6977 	svccs	0x006e6977
 8d0:	7062696c 	rsbvc	r6, r2, ip, ror #18
 8d4:	63000069 	movwvs	r0, #105	; 0x69
 8d8:	72617473 	rsbvc	r7, r1, #1929379840	; 0x73000000
 8dc:	00632e74 	rsbeq	r2, r3, r4, ror lr
 8e0:	72000001 	andvc	r0, r0, #1
 8e4:	682e6970 	stmdavs	lr!, {r4, r5, r6, r8, fp, sp, lr}
 8e8:	00000200 	andeq	r0, r0, r0, lsl #4
 8ec:	02050000 	andeq	r0, r5, #0
 8f0:	000090e4 	andeq	r9, r0, r4, ror #1
 8f4:	32010c03 	andcc	r0, r1, #768	; 0x300
 8f8:	2f2d2f31 	svccs	0x002d2f31
 8fc:	01040200 	mrseq	r0, R12_usr
 900:	4a0f0349 	bmi	3c162c <__bss_end__+0x3b7664>
 904:	0006022f 	andeq	r0, r6, pc, lsr #4
 908:	00990101 	addseq	r0, r9, r1, lsl #2
 90c:	00020000 	andeq	r0, r2, r0
 910:	00000077 	andeq	r0, r0, r7, ror r0
 914:	0efb0102 	cdpeq	1, 15, cr0, cr11, cr2, {0}
 918:	0101000d 	tsteq	r1, sp
 91c:	00000101 	andeq	r0, r0, r1, lsl #2
 920:	00000100 	andeq	r0, r0, r0, lsl #2
 924:	31736301 	cmncc	r3, r1, lsl #6
 928:	2d653034 	stclcs	0, cr3, [r5, #-208]!	; 0xffffff30
 92c:	00637273 	rsbeq	r7, r3, r3, ror r2
 930:	6573552f 	ldrbvs	r5, [r3, #-1327]!	; 0x52f
 934:	622f7372 	eorvs	r7, pc, #-939524095	; 0xc8000001
 938:	6e616972 	mcrvs	9, 3, r6, cr1, cr2, {3}
 93c:	2f6e756a 	svccs	0x006e756a
 940:	6b736544 	blvs	1cd9e58 <__bss_end__+0x1ccfe90>
 944:	2f706f74 	svccs	0x00706f74
 948:	6f686373 	svcvs	0x00686373
 94c:	572f6c6f 	strpl	r6, [pc, -pc, ror #24]!
 950:	65746e69 	ldrbvs	r6, [r4, #-3689]!	; 0xe69
 954:	32393172 	eorscc	r3, r9, #-2147483620	; 0x8000001c
 958:	53432f30 	movtpl	r2, #16176	; 0x3f30
 95c:	45303431 	ldrmi	r3, [r0, #-1073]!	; 0x431
 960:	3173632f 	cmncc	r3, pc, lsr #6
 964:	2d653034 	stclcs	0, cr3, [r5, #-208]!	; 0xffffff30
 968:	69773032 	ldmdbvs	r7!, {r1, r4, r5, ip, sp}^
 96c:	696c2f6e 	stmdbvs	ip!, {r1, r2, r3, r5, r6, r8, r9, sl, fp, sp}^
 970:	00697062 	rsbeq	r7, r9, r2, rrx
 974:	62657200 	rsbvs	r7, r5, #0, 4
 978:	2e746f6f 	cdpcs	15, 7, cr6, cr4, cr15, {3}
 97c:	00010063 	andeq	r0, r1, r3, rrx
 980:	69707200 	ldmdbvs	r0!, {r9, ip, sp, lr}^
 984:	0200682e 	andeq	r6, r0, #3014656	; 0x2e0000
 988:	00000000 	andeq	r0, r0, r0
 98c:	91180205 	tstls	r8, r5, lsl #4
 990:	0d030000 	stceq	0, cr0, [r3, #-0]
 994:	2f311401 	svccs	0x00311401
 998:	4b2f1585 	blmi	bc5fb4 <__bss_end__+0xbbbfec>
 99c:	35672f4d 	strbcc	r2, [r7, #-3917]!	; 0xf4d
 9a0:	10026752 	andne	r6, r2, r2, asr r7
 9a4:	a3010100 	movwge	r0, #4352	; 0x1100
 9a8:	02000000 	andeq	r0, r0, #0
 9ac:	00007600 	andeq	r7, r0, r0, lsl #12
 9b0:	fb010200 	blx	411ba <__bss_end__+0x371f2>
 9b4:	01000d0e 	tsteq	r0, lr, lsl #26
 9b8:	00010101 	andeq	r0, r1, r1, lsl #2
 9bc:	00010000 	andeq	r0, r1, r0
 9c0:	73630100 	cmnvc	r3, #0, 2
 9c4:	65303431 	ldrvs	r3, [r0, #-1073]!	; 0x431
 9c8:	6372732d 	cmnvs	r2, #-1275068416	; 0xb4000000
 9cc:	73552f00 	cmpvc	r5, #0, 30
 9d0:	2f737265 	svccs	0x00737265
 9d4:	61697262 	cmnvs	r9, r2, ror #4
 9d8:	6e756a6e 	vsubvs.f32	s13, s10, s29
 9dc:	7365442f 	cmnvc	r5, #788529152	; 0x2f000000
 9e0:	706f746b 	rsbvc	r7, pc, fp, ror #8
 9e4:	6863732f 	stmdavs	r3!, {r0, r1, r2, r3, r5, r8, r9, ip, sp, lr}^
 9e8:	2f6c6f6f 	svccs	0x006c6f6f
 9ec:	746e6957 	strbtvc	r6, [lr], #-2391	; 0x957
 9f0:	39317265 	ldmdbcc	r1!, {r0, r2, r5, r6, r9, ip, sp, lr}
 9f4:	432f3032 	teqmi	pc, #50	; 0x32
 9f8:	30343153 	eorscc	r3, r4, r3, asr r1
 9fc:	73632f45 	cmnvc	r3, #276	; 0x114
 a00:	65303431 	ldrvs	r3, [r0, #-1073]!	; 0x431
 a04:	7730322d 	ldrvc	r3, [r0, -sp, lsr #4]!
 a08:	6c2f6e69 	stcvs	14, cr6, [pc], #-420	; 86c <_start-0x7794>
 a0c:	69706269 	ldmdbvs	r0!, {r0, r3, r5, r6, r9, sp, lr}^
 a10:	69740000 	ldmdbvs	r4!, {}^	; <UNPREDICTABLE>
 a14:	2e72656d 	cdpcs	5, 7, cr6, cr2, cr13, {3}
 a18:	00010063 	andeq	r0, r1, r3, rrx
 a1c:	69707200 	ldmdbvs	r0!, {r9, ip, sp, lr}^
 a20:	0200682e 	andeq	r6, r0, #3014656	; 0x2e0000
 a24:	00000000 	andeq	r0, r0, r0
 a28:	918c0205 	orrls	r0, ip, r5, lsl #4
 a2c:	14160000 	ldrne	r0, [r6], #-0
 a30:	02002d2f 	andeq	r2, r0, #3008	; 0xbc0
 a34:	2e060104 	adfcss	f0, f6, f4
 a38:	2f316d06 	svccs	0x00316d06
 a3c:	31324d4b 	teqcc	r2, fp, asr #26
 a40:	2f4c4b30 	svccs	0x004c4b30
 a44:	842f2f6a 	strthi	r2, [pc], #-3946	; a4c <_start-0x75b4>
 a48:	0008022f 	andeq	r0, r8, pc, lsr #4
 a4c:	017f0101 	cmneq	pc, r1, lsl #2
 a50:	00020000 	andeq	r0, r2, r0
 a54:	000000ca 	andeq	r0, r0, sl, asr #1
 a58:	0efb0102 	cdpeq	1, 15, cr0, cr11, cr2, {0}
 a5c:	0101000d 	tsteq	r1, sp
 a60:	00000101 	andeq	r0, r0, r1, lsl #2
 a64:	00000100 	andeq	r0, r0, r0, lsl #2
 a68:	2d796d01 	ldclcs	13, cr6, [r9, #-4]!
 a6c:	00637273 	rsbeq	r7, r3, r3, ror r2
 a70:	6573552f 	ldrbvs	r5, [r3, #-1327]!	; 0x52f
 a74:	622f7372 	eorvs	r7, pc, #-939524095	; 0xc8000001
 a78:	6e616972 	mcrvs	9, 3, r6, cr1, cr2, {3}
 a7c:	2f6e756a 	svccs	0x006e756a
 a80:	6b736544 	blvs	1cd9f98 <__bss_end__+0x1ccffd0>
 a84:	2f706f74 	svccs	0x00706f74
 a88:	6f686373 	svcvs	0x00686373
 a8c:	572f6c6f 	strpl	r6, [pc, -pc, ror #24]!
 a90:	65746e69 	ldrbvs	r6, [r4, #-3689]!	; 0xe69
 a94:	32393172 	eorscc	r3, r9, #-2147483620	; 0x8000001c
 a98:	53432f30 	movtpl	r2, #16176	; 0x3f30
 a9c:	45303431 	ldrmi	r3, [r0, #-1073]!	; 0x431
 aa0:	3173632f 	cmncc	r3, pc, lsr #6
 aa4:	2d653034 	stclcs	0, cr3, [r5, #-208]!	; 0xffffff30
 aa8:	69773032 	ldmdbvs	r7!, {r1, r4, r5, ip, sp}^
 aac:	696c2f6e 	stmdbvs	ip!, {r1, r2, r3, r5, r6, r8, r9, sl, fp, sp}^
 ab0:	2f697062 	svccs	0x00697062
 ab4:	34317363 	ldrtcc	r7, [r1], #-867	; 0x363
 ab8:	732d6530 	teqvc	sp, #48, 10	; 0xc000000
 abc:	2f006372 	svccs	0x00006372
 ac0:	72657355 	rsbvc	r7, r5, #1409286145	; 0x54000001
 ac4:	72622f73 	rsbvc	r2, r2, #460	; 0x1cc
 ac8:	6a6e6169 	bvs	1b99074 <__bss_end__+0x1b8f0ac>
 acc:	442f6e75 	strtmi	r6, [pc], #-3701	; ad4 <_start-0x752c>
 ad0:	746b7365 	strbtvc	r7, [fp], #-869	; 0x365
 ad4:	732f706f 	teqvc	pc, #111	; 0x6f
 ad8:	6f6f6863 	svcvs	0x006f6863
 adc:	69572f6c 	ldmdbvs	r7, {r2, r3, r5, r6, r8, r9, sl, fp, sp}^
 ae0:	7265746e 	rsbvc	r7, r5, #1845493760	; 0x6e000000
 ae4:	30323931 	eorscc	r3, r2, r1, lsr r9
 ae8:	3153432f 	cmpcc	r3, pc, lsr #6
 aec:	2f453034 	svccs	0x00453034
 af0:	34317363 	ldrtcc	r7, [r1], #-867	; 0x363
 af4:	322d6530 	eorcc	r6, sp, #48, 10	; 0xc000000
 af8:	6e697730 	mcrvs	7, 3, r7, cr9, cr0, {1}
 afc:	62696c2f 	rsbvs	r6, r9, #12032	; 0x2f00
 b00:	00006970 	andeq	r6, r0, r0, ror r9
 b04:	6f697067 	svcvs	0x00697067
 b08:	0100632e 	tsteq	r0, lr, lsr #6
 b0c:	70670000 	rsbvc	r0, r7, r0
 b10:	682e6f69 	stmdavs	lr!, {r0, r3, r5, r6, r8, r9, sl, fp, sp, lr}
 b14:	00000200 	andeq	r0, r0, r0, lsl #4
 b18:	2e697072 	mcrcs	0, 3, r7, cr9, cr2, {3}
 b1c:	00030068 	andeq	r0, r3, r8, rrx
 b20:	05000000 	streq	r0, [r0, #-0]
 b24:	00921402 	addseq	r1, r2, r2, lsl #8
 b28:	013e0300 	teqeq	lr, r0, lsl #6
 b2c:	0869504e 	stmdaeq	r9!, {r1, r2, r3, r6, ip, lr}^
 b30:	67676721 	strbvs	r6, [r7, -r1, lsr #14]!
 b34:	32676767 	rsbcc	r6, r7, #27000832	; 0x19c0000
 b38:	dc22084b 	stcle	8, cr0, [r2], #-300	; 0xfffffed4
 b3c:	4e135131 	mrcmi	1, 0, r5, cr3, cr1, {1}
 b40:	31be3050 			; <UNDEFINED> instruction: 0x31be3050
 b44:	4f4d1350 	svcmi	0x004d1350
 b48:	504cc030 	subpl	ip, ip, r0, lsr r0
 b4c:	67210869 	strvs	r0, [r1, -r9, ror #16]!
 b50:	67676767 	strbvs	r6, [r7, -r7, ror #14]!
 b54:	084b3267 	stmdaeq	fp, {r0, r1, r2, r5, r6, r9, ip, sp}^
 b58:	504ca321 	subpl	sl, ip, r1, lsr #6
 b5c:	0369842f 	cmneq	r9, #788529152	; 0x2f000000
 b60:	0c038275 	sfmeq	f0, 1, [r3], {117}	; 0x75
 b64:	4e304d2e 	cdpmi	13, 3, cr4, cr0, cr14, {1}
 b68:	6a4d4c4b 	bvs	1353c9c <__bss_end__+0x1349cd4>
 b6c:	2108696b 	tstcs	r8, fp, ror #18
 b70:	67676767 	strbvs	r6, [r7, -r7, ror #14]!
 b74:	4b326767 	blmi	c9a918 <__bss_end__+0xc90950>
 b78:	30c02208 	sbccc	r2, r0, r8, lsl #4
 b7c:	504e1351 	subpl	r1, lr, r1, asr r3
 b80:	ba180330 	blt	601848 <__bss_end__+0x5f7880>
 b84:	2f4c9f31 	svccs	0x004c9f31
 b88:	2f4e4d52 	svccs	0x004e4d52
 b8c:	684b674b 	stmdavs	fp, {r0, r1, r3, r6, r8, r9, sl, sp, lr}^
 b90:	2f4c6767 	svccs	0x004c6767
 b94:	6e4b2f67 	cdpvs	15, 4, cr2, cr11, cr7, {3}
 b98:	4b2f4e4c 	blmi	bd44d0 <__bss_end__+0xbca508>
 b9c:	67684b67 	strbvs	r4, [r8, -r7, ror #22]!
 ba0:	672f4c67 	strvs	r4, [pc, -r7, ror #24]!
 ba4:	4b6d4b2f 	blmi	1b53868 <__bss_end__+0x1b498a0>
 ba8:	674b2f4e 	strbvs	r2, [fp, -lr, asr #30]
 bac:	01040200 	mrseq	r0, R12_usr
 bb0:	68066606 	stmdavs	r6, {r1, r2, r9, sl, sp, lr}
 bb4:	02002f9f 	andeq	r2, r0, #636	; 0x27c
 bb8:	4a060104 	bmi	180fd0 <__bss_end__+0x177008>
 bbc:	032f6806 	teqeq	pc, #393216	; 0x60000
 bc0:	0e034a73 	mcreq	10, 0, r4, cr3, cr3, {3}
 bc4:	4e4c4d2e 	cdpmi	13, 4, cr4, cr12, cr14, {1}
 bc8:	bcbc4b2f 	fldmiaxlt	ip!, {d4-d26}	;@ Deprecated
 bcc:	01000602 	tsteq	r0, r2, lsl #12
 bd0:	00010101 	andeq	r0, r1, r1, lsl #2
 bd4:	ca000200 	bgt	13dc <_start-0x6c24>
 bd8:	02000000 	andeq	r0, r0, #0
 bdc:	0d0efb01 	vstreq	d15, [lr, #-4]
 be0:	01010100 	mrseq	r0, (UNDEF: 17)
 be4:	00000001 	andeq	r0, r0, r1
 be8:	01000001 	tsteq	r0, r1
 bec:	732d796d 	teqvc	sp, #1785856	; 0x1b4000
 bf0:	2f006372 	svccs	0x00006372
 bf4:	72657355 	rsbvc	r7, r5, #1409286145	; 0x54000001
 bf8:	72622f73 	rsbvc	r2, r2, #460	; 0x1cc
 bfc:	6a6e6169 	bvs	1b991a8 <__bss_end__+0x1b8f1e0>
 c00:	442f6e75 	strtmi	r6, [pc], #-3701	; c08 <_start-0x73f8>
 c04:	746b7365 	strbtvc	r7, [fp], #-869	; 0x365
 c08:	732f706f 	teqvc	pc, #111	; 0x6f
 c0c:	6f6f6863 	svcvs	0x006f6863
 c10:	69572f6c 	ldmdbvs	r7, {r2, r3, r5, r6, r8, r9, sl, fp, sp}^
 c14:	7265746e 	rsbvc	r7, r5, #1845493760	; 0x6e000000
 c18:	30323931 	eorscc	r3, r2, r1, lsr r9
 c1c:	3153432f 	cmpcc	r3, pc, lsr #6
 c20:	2f453034 	svccs	0x00453034
 c24:	34317363 	ldrtcc	r7, [r1], #-867	; 0x363
 c28:	322d6530 	eorcc	r6, sp, #48, 10	; 0xc000000
 c2c:	6e697730 	mcrvs	7, 3, r7, cr9, cr0, {1}
 c30:	62696c2f 	rsbvs	r6, r9, #12032	; 0x2f00
 c34:	632f6970 	teqvs	pc, #112, 18	; 0x1c0000
 c38:	30343173 	eorscc	r3, r4, r3, ror r1
 c3c:	72732d65 	rsbsvc	r2, r3, #6464	; 0x1940
 c40:	552f0063 	strpl	r0, [pc, #-99]!	; be5 <_start-0x741b>
 c44:	73726573 	cmnvc	r2, #482344960	; 0x1cc00000
 c48:	6972622f 	ldmdbvs	r2!, {r0, r1, r2, r3, r5, r9, sp, lr}^
 c4c:	756a6e61 	strbvc	r6, [sl, #-3681]!	; 0xe61
 c50:	65442f6e 	strbvs	r2, [r4, #-3950]	; 0xf6e
 c54:	6f746b73 	svcvs	0x00746b73
 c58:	63732f70 	cmnvs	r3, #112, 30	; 0x1c0
 c5c:	6c6f6f68 	stclvs	15, cr6, [pc], #-416	; ac4 <_start-0x753c>
 c60:	6e69572f 	cdpvs	7, 6, cr5, cr9, cr15, {1}
 c64:	31726574 	cmncc	r2, r4, ror r5
 c68:	2f303239 	svccs	0x00303239
 c6c:	34315343 	ldrtcc	r5, [r1], #-835	; 0x343
 c70:	632f4530 	teqvs	pc, #48, 10	; 0xc000000
 c74:	30343173 	eorscc	r3, r4, r3, ror r1
 c78:	30322d65 	eorscc	r2, r2, r5, ror #26
 c7c:	2f6e6977 	svccs	0x006e6977
 c80:	7062696c 	rsbvc	r6, r2, ip, ror #18
 c84:	75000069 	strvc	r0, [r0, #-105]	; 0x69
 c88:	2e747261 	cdpcs	2, 7, cr7, cr4, cr1, {3}
 c8c:	00010063 	andeq	r0, r1, r3, rrx
 c90:	69706700 	ldmdbvs	r0!, {r8, r9, sl, sp, lr}^
 c94:	00682e6f 	rsbeq	r2, r8, pc, ror #28
 c98:	72000002 	andvc	r0, r0, #2
 c9c:	682e6970 	stmdavs	lr!, {r4, r5, r6, r8, fp, sp, lr}
 ca0:	00000300 	andeq	r0, r0, r0, lsl #6
 ca4:	02050000 	andeq	r0, r5, #0
 ca8:	000097b4 			; <UNDEFINED> instruction: 0x000097b4
 cac:	30013603 	andcc	r3, r1, r3, lsl #12
 cb0:	306d6733 	rsbcc	r6, sp, r3, lsr r7
 cb4:	676730d8 			; <UNDEFINED> instruction: 0x676730d8
 cb8:	68676767 	stmdavs	r7!, {r0, r1, r2, r5, r6, r8, r9, sl, sp, lr}^
 cbc:	6a672f86 	bvs	19ccadc <__bss_end__+0x19c2b14>
 cc0:	69676730 	stmdbvs	r7!, {r4, r5, r8, r9, sl, sp, lr}^
 cc4:	4c6a672f 	stclmi	7, cr6, [sl], #-188	; 0xffffff44
 cc8:	2f2fc167 	svccs	0x002fc167
 ccc:	49682f30 	stmdbmi	r8!, {r4, r5, r8, r9, sl, fp, sp}^
 cd0:	00020230 	andeq	r0, r2, r0, lsr r2
 cd4:	Address 0x0000000000000cd4 is out of bounds.


Disassembly of section .debug_str:

00000000 <.debug_str>:
   0:	53465047 	movtpl	r5, #24647	; 0x6047
   4:	00324c45 	eorseq	r4, r2, r5, asr #24
   8:	6f697067 	svcvs	0x00697067
   c:	726c635f 	rsbvc	r6, ip, #2080374785	; 0x7c000001
  10:	50470030 	subpl	r0, r7, r0, lsr r0
  14:	30524c43 	subscc	r4, r2, r3, asr #24
  18:	73616600 	cmnvc	r1, #0, 12
  1c:	70675f74 	rsbvc	r5, r7, r4, ror pc
  20:	775f6f69 	ldrbvc	r6, [pc, -r9, ror #30]
  24:	65746972 	ldrbvs	r6, [r4, #-2418]!	; 0x972
  28:	6c616800 	stclvs	8, cr6, [r1], #-0
  2c:	65645f66 	strbvs	r5, [r4, #-3942]!	; 0xf66
  30:	0079616c 	rsbseq	r6, r9, ip, ror #2
  34:	676e6f6c 	strbvs	r6, [lr, -ip, ror #30]!
  38:	6e6f6c20 	cdpvs	12, 6, cr6, cr15, cr0, {1}
  3c:	6e752067 	cdpvs	0, 7, cr2, cr5, cr7, {3}
  40:	6e676973 	mcrvs	9, 3, r6, cr7, cr3, {3}
  44:	69206465 	stmdbvs	r0!, {r0, r2, r5, r6, sl, sp, lr}
  48:	6600746e 	strvs	r7, [r0], -lr, ror #8
  4c:	5f747361 	svcpl	0x00747361
  50:	6f697067 	svcvs	0x00697067
  54:	7465735f 	strbtvc	r7, [r5], #-863	; 0x35f
  58:	006e6f5f 	rsbeq	r6, lr, pc, asr pc
  5c:	676e6f6c 	strbvs	r6, [lr, -ip, ror #30]!
  60:	6e6f6c20 	cdpvs	12, 6, cr6, cr15, cr0, {1}
  64:	6e692067 	cdpvs	0, 6, cr2, cr9, cr7, {3}
  68:	77730074 			; <UNDEFINED> instruction: 0x77730074
  6c:	7261755f 	rsbvc	r7, r1, #398458880	; 0x17c00000
  70:	65675f74 	strbvs	r5, [r7, #-3956]!	; 0xf74
  74:	47003874 	smlsdxmi	r0, r4, r8, r3
  78:	54455350 	strbpl	r5, [r5], #-848	; 0x350
  7c:	50470030 	subpl	r0, r7, r0, lsr r0
  80:	31544553 	cmpcc	r4, r3, asr r5
  84:	4c504700 	mrrcmi	7, 0, r4, r0, cr0
  88:	00305645 	eorseq	r5, r0, r5, asr #12
  8c:	454c5047 	strbmi	r5, [ip, #-71]	; 0x47
  90:	6e003156 	mcrvs	1, 0, r3, cr0, cr6, {2}
  94:	616d746f 	cmnvs	sp, pc, ror #8
  98:	66006e69 	strvs	r6, [r0], -r9, ror #28
  9c:	5f747361 	svcpl	0x00747361
  a0:	6f697067 	svcvs	0x00697067
  a4:	7465735f 	strbtvc	r7, [r5], #-863	; 0x35f
  a8:	66666f5f 	uqsaxvs	r6, r6, pc	; <UNPREDICTABLE>
  ac:	554e4700 	strbpl	r4, [lr, #-1792]	; 0x700
  b0:	34204320 	strtcc	r4, [r0], #-800	; 0x320
  b4:	332e382e 	teqcc	lr, #3014656	; 0x2e0000
  b8:	636d2d20 	cmnvs	sp, #32, 26	; 0x800
  bc:	613d7570 	teqvs	sp, r0, ror r5
  c0:	31316d72 	teqcc	r1, r2, ror sp
  c4:	7a6a3637 	bvc	1a8d9a8 <__bss_end__+0x1a839e0>
  c8:	20732d66 	rsbscs	r2, r3, r6, ror #26
  cc:	75746d2d 	ldrbvc	r6, [r4, #-3373]!	; 0xd2d
  d0:	613d656e 	teqvs	sp, lr, ror #10
  d4:	31316d72 	teqcc	r1, r2, ror sp
  d8:	7a6a3637 	bvc	1a8d9bc <__bss_end__+0x1a839f4>
  dc:	20732d66 	rsbscs	r2, r3, r6, ror #26
  e0:	6467672d 	strbtvs	r6, [r7], #-1837	; 0x72d
  e4:	4f2d2062 	svcmi	0x002d2062
  e8:	732d2033 	teqvc	sp, #51	; 0x33
  ec:	673d6474 			; <UNDEFINED> instruction: 0x673d6474
  f0:	3939756e 	ldmdbcc	r9!, {r1, r2, r3, r5, r6, r8, sl, ip, sp, lr}
  f4:	66662d20 	strbtvs	r2, [r6], -r0, lsr #26
  f8:	73656572 	cmnvc	r5, #478150656	; 0x1c800000
  fc:	646e6174 	strbtvs	r6, [lr], #-372	; 0x174
 100:	00676e69 	rsbeq	r6, r7, r9, ror #28
 104:	706d6574 	rsbvc	r6, sp, r4, ror r5
 108:	5f777300 	svcpl	0x00777300
 10c:	74726175 	ldrbtvc	r6, [r2], #-373	; 0x175
 110:	7475705f 	ldrbtvc	r7, [r5], #-95	; 0x5f
 114:	70720038 	rsbsvc	r0, r2, r8, lsr r0
 118:	65725f69 	ldrbvs	r5, [r2, #-3945]!	; 0xf69
 11c:	5f746573 	svcpl	0x00746573
 120:	63747570 	cmnvs	r4, #112, 10	; 0x1c000000
 124:	46504700 	ldrbmi	r4, [r0], -r0, lsl #14
 128:	304c4553 	subcc	r4, ip, r3, asr r5
 12c:	46504700 	ldrbmi	r4, [r0], -r0, lsl #14
 130:	314c4553 	cmpcc	ip, r3, asr r5
 134:	46504700 	ldrbmi	r4, [r0], -r0, lsl #14
 138:	334c4553 	movtcc	r4, #50515	; 0xc553
 13c:	46504700 	ldrbmi	r4, [r0], -r0, lsl #14
 140:	344c4553 	strbcc	r4, [ip], #-1363	; 0x553
 144:	46504700 	ldrbmi	r4, [r0], -r0, lsl #14
 148:	354c4553 	strbcc	r4, [ip, #-1363]	; 0x553
 14c:	72756300 	rsbsvc	r6, r5, #0, 6
 150:	61765f72 	cmnvs	r6, r2, ror pc
 154:	0065756c 	rsbeq	r7, r5, ip, ror #10
 158:	55465f5f 	strbpl	r5, [r6, #-3935]	; 0xf5f
 15c:	4954434e 	ldmdbmi	r4, {r1, r2, r3, r6, r8, r9, lr}^
 160:	5f5f4e4f 	svcpl	0x005f4e4f
 164:	6f687300 	svcvs	0x00687300
 168:	75207472 	strvc	r7, [r0, #-1138]!	; 0x472
 16c:	6769736e 	strbvs	r7, [r9, -lr, ror #6]!
 170:	2064656e 	rsbcs	r6, r4, lr, ror #10
 174:	00746e69 	rsbseq	r6, r4, r9, ror #28
 178:	6f697067 	svcvs	0x00697067
 17c:	6573665f 	ldrbvs	r6, [r3, #-1631]!	; 0x65f
 180:	4700306c 	strmi	r3, [r0, -ip, rrx]
 184:	524c4350 	subpl	r4, ip, #80, 6	; 0x40000001
 188:	6c630031 	stclvs	0, cr0, [r3], #-196	; 0xffffff3c
 18c:	5f6e6165 	svcpl	0x006e6165
 190:	6f626572 	svcvs	0x00626572
 194:	7300746f 	movwvc	r7, #1135	; 0x46f
 198:	74657a69 	strbtvc	r7, [r5], #-2665	; 0xa69
 19c:	00657079 	rsbeq	r7, r5, r9, ror r0
 1a0:	74756f5f 	ldrbtvc	r6, [r5], #-3935	; 0xf5f
 1a4:	72617500 	rsbvc	r7, r1, #0, 10
 1a8:	796d0074 	stmdbvc	sp!, {r2, r4, r5, r6}^
 1ac:	5f77735f 	svcpl	0x0077735f
 1b0:	74726175 	ldrbtvc	r6, [r2], #-373	; 0x175
 1b4:	7500745f 	strvc	r7, [r0, #-1119]	; 0x45f
 1b8:	6769736e 	strbvs	r7, [r9, -lr, ror #6]!
 1bc:	2064656e 	rsbcs	r6, r4, lr, ror #10
 1c0:	72616863 	rsbvc	r6, r1, #6488064	; 0x630000
 1c4:	6f687300 	svcvs	0x00687300
 1c8:	69207472 	stmdbvs	r0!, {r1, r4, r5, r6, sl, ip, sp, lr}
 1cc:	6400746e 	strvs	r7, [r0], #-1134	; 0x46e
 1d0:	79616c65 	stmdbvc	r1!, {r0, r2, r5, r6, sl, fp, sp, lr}^
 1d4:	00736d5f 	rsbseq	r6, r3, pc, asr sp
 1d8:	6c637963 	stclvs	9, cr7, [r3], #-396	; 0xfffffe74
 1dc:	705f7365 	subsvc	r7, pc, r5, ror #6
 1e0:	735f7265 	cmpvc	pc, #1342177286	; 0x50000006
 1e4:	62006365 	andvs	r6, r0, #-1811939327	; 0x94000001
 1e8:	00647561 	rsbeq	r7, r4, r1, ror #10
 1ec:	6f697067 	svcvs	0x00697067
 1f0:	7465735f 	strbtvc	r7, [r5], #-863	; 0x35f
 1f4:	69660030 	stmdbvs	r6!, {r4, r5}^
 1f8:	00747372 	rsbseq	r7, r4, r2, ror r3
 1fc:	6573552f 	ldrbvs	r5, [r3, #-1327]!	; 0x52f
 200:	622f7372 	eorvs	r7, pc, #-939524095	; 0xc8000001
 204:	6e616972 	mcrvs	9, 3, r6, cr1, cr2, {3}
 208:	2f6e756a 	svccs	0x006e756a
 20c:	6b736544 	blvs	1cd9724 <__bss_end__+0x1ccf75c>
 210:	2f706f74 	svccs	0x00706f74
 214:	6f686373 	svcvs	0x00686373
 218:	532f6c6f 	teqpl	pc, #28416	; 0x6f00
 21c:	6e697270 	mcrvs	2, 3, r7, cr9, cr0, {3}
 220:	32393167 	eorscc	r3, r9, #-1073741799	; 0xc0000019
 224:	53432f30 	movtpl	r2, #16176	; 0x3f30
 228:	4c303432 	cfldrsmi	mvf3, [r0], #-200	; 0xffffff38
 22c:	73632f58 	cmnvc	r3, #88, 30	; 0x160
 230:	6c303432 	cfldrsvs	mvf3, [r0], #-200	; 0xffffff38
 234:	30322d78 	eorscc	r2, r2, r8, ror sp
 238:	2f727073 	svccs	0x00727073
 23c:	7362616c 	cmnvc	r2, #108, 2
 240:	752d342f 	strvc	r3, [sp, #-1071]!	; 0x42f
 244:	2d747261 	lfmcs	f7, 2, [r4, #-388]!	; 0xfffffe7c
 248:	2f316e38 	svccs	0x00316e38
 24c:	76726573 			; <UNDEFINED> instruction: 0x76726573
 250:	67007265 	strvs	r7, [r0, -r5, ror #4]
 254:	5f6f6970 	svcpl	0x006f6970
 258:	5f746573 	svcpl	0x00746573
 25c:	75706e69 	ldrbvc	r6, [r0, #-3689]!	; 0xe69
 260:	616c0074 	smcvs	49156	; 0xc004
 264:	67007473 	smlsdxvs	r0, r3, r4, r7
 268:	5f6f6970 	svcpl	0x006f6970
 26c:	5f746573 	svcpl	0x00746573
 270:	7074756f 	rsbsvc	r7, r4, pc, ror #10
 274:	65007475 	strvs	r7, [r0, #-1141]	; 0x475
 278:	6c62616e 	stfvse	f6, [r2], #-440	; 0xfffffe48
 27c:	61635f65 	cmnvs	r3, r5, ror #30
 280:	00656863 	rsbeq	r6, r5, r3, ror #16
 284:	746e6975 	strbtvc	r6, [lr], #-2421	; 0x975
 288:	00745f38 	rsbseq	r5, r4, r8, lsr pc
 28c:	74736574 	ldrbtvc	r6, [r3], #-1396	; 0x574
 290:	6e65672d 	cdpvs	7, 6, cr6, cr5, cr13, {1}
 294:	6300632e 	movwvs	r6, #814	; 0x32e
 298:	656c6379 	strbvs	r6, [ip, #-889]!	; 0x379
 29c:	7265705f 	rsbvc	r7, r5, #95	; 0x5f
 2a0:	7469625f 	strbtvc	r6, [r9], #-607	; 0x25f
 2a4:	675f5f00 	ldrbvs	r5, [pc, -r0, lsl #30]
 2a8:	5f63756e 	svcpl	0x0063756e
 2ac:	6c5f6176 	ldfvse	f6, [pc], {118}	; 0x76
 2b0:	00747369 	rsbseq	r7, r4, r9, ror #6
 2b4:	6362696c 	cmnvs	r2, #108, 18	; 0x1b0000
 2b8:	6972702f 	ldmdbvs	r2!, {r0, r1, r2, r3, r5, ip, sp, lr}^
 2bc:	2e6b746e 	cdpcs	4, 6, cr7, cr11, cr14, {3}
 2c0:	4e470063 	cdpmi	0, 4, cr0, cr7, cr3, {3}
 2c4:	20432055 	subcs	r2, r3, r5, asr r0
 2c8:	2e382e34 	mrccs	14, 1, r2, cr8, cr4, {1}
 2cc:	6d2d2033 	stcvs	0, cr2, [sp, #-204]!	; 0xffffff34
 2d0:	3d757063 	ldclcc	0, cr7, [r5, #-396]!	; 0xfffffe74
 2d4:	316d7261 	cmncc	sp, r1, ror #4
 2d8:	6a363731 	bvs	d8dfa4 <__bss_end__+0xd83fdc>
 2dc:	732d667a 	teqvc	sp, #127926272	; 0x7a00000
 2e0:	746d2d20 	strbtvc	r2, [sp], #-3360	; 0xd20
 2e4:	3d656e75 	stclcc	14, cr6, [r5, #-468]!	; 0xfffffe2c
 2e8:	316d7261 	cmncc	sp, r1, ror #4
 2ec:	6a363731 	bvs	d8dfb8 <__bss_end__+0xd83ff0>
 2f0:	732d667a 	teqvc	sp, #127926272	; 0x7a00000
 2f4:	67672d20 	strbvs	r2, [r7, -r0, lsr #26]!
 2f8:	2d206264 	sfmcs	f6, 4, [r0, #-400]!	; 0xfffffe70
 2fc:	2d20674f 	stccs	7, cr6, [r0, #-316]!	; 0xfffffec4
 300:	3d647473 	cfstrdcc	mvd7, [r4, #-460]!	; 0xfffffe34
 304:	39756e67 	ldmdbcc	r5!, {r0, r1, r2, r5, r6, r9, sl, fp, sp, lr}^
 308:	662d2039 			; <UNDEFINED> instruction: 0x662d2039
 30c:	65657266 	strbvs	r7, [r5, #-614]!	; 0x266
 310:	6e617473 	mcrvs	4, 3, r7, cr1, cr3, {3}
 314:	676e6964 	strbvs	r6, [lr, -r4, ror #18]!
 318:	5f617600 	svcpl	0x00617600
 31c:	6e697270 	mcrvs	2, 3, r7, cr9, cr0, {3}
 320:	5f006b74 	svcpl	0x00006b74
 324:	5f61765f 	svcpl	0x0061765f
 328:	7473696c 	ldrbtvc	r6, [r3], #-2412	; 0x96c
 32c:	73552f00 	cmpvc	r5, #0, 30
 330:	2f737265 	svccs	0x00737265
 334:	61697262 	cmnvs	r9, r2, ror #4
 338:	6e756a6e 	vsubvs.f32	s13, s10, s29
 33c:	7365442f 	cmnvc	r5, #788529152	; 0x2f000000
 340:	706f746b 	rsbvc	r7, pc, fp, ror #8
 344:	6863732f 	stmdavs	r3!, {r0, r1, r2, r3, r5, r8, r9, ip, sp, lr}^
 348:	2f6c6f6f 	svccs	0x006c6f6f
 34c:	746e6957 	strbtvc	r6, [lr], #-2391	; 0x957
 350:	39317265 	ldmdbcc	r1!, {r0, r2, r5, r6, r9, ip, sp, lr}
 354:	432f3032 	teqmi	pc, #50	; 0x32
 358:	30343153 	eorscc	r3, r4, r3, asr r1
 35c:	73632f45 	cmnvc	r3, #276	; 0x114
 360:	65303431 	ldrvs	r3, [r0, #-1073]!	; 0x431
 364:	7730322d 	ldrvc	r3, [r0, -sp, lsr #4]!
 368:	6c2f6e69 	stcvs	14, cr6, [pc], #-420	; 1cc <_start-0x7e34>
 36c:	69706269 	ldmdbvs	r0!, {r0, r3, r5, r6, r9, sp, lr}^
 370:	67726100 	ldrbvs	r6, [r2, -r0, lsl #2]!
 374:	5f5f0073 	svcpl	0x005f0073
 378:	75007061 	strvc	r7, [r0, #-97]	; 0x61
 37c:	5f747261 	svcpl	0x00747261
 380:	63747570 	cmnvs	r4, #112, 10	; 0x1c000000
 384:	746e6900 	strbtvc	r6, [lr], #-2304	; 0x900
 388:	616e7265 	cmnvs	lr, r5, ror #4
 38c:	75705f6c 	ldrbvc	r5, [r0, #-3948]!	; 0xf6c
 390:	61686374 	smcvs	34356	; 0x8634
 394:	70720072 	rsbsvc	r0, r2, r2, ror r0
 398:	75705f69 	ldrbvc	r5, [r0, #-3945]!	; 0xf69
 39c:	61686374 	smcvs	34356	; 0x8634
 3a0:	696c0072 	stmdbvs	ip!, {r1, r4, r5, r6}^
 3a4:	702f6362 	eorvc	r6, pc, r2, ror #6
 3a8:	68637475 	stmdavs	r3!, {r0, r2, r4, r5, r6, sl, ip, sp, lr}^
 3ac:	632e7261 	teqvs	lr, #268435462	; 0x10000006
 3b0:	69707200 	ldmdbvs	r0!, {r9, ip, sp, lr}^
 3b4:	7465735f 	strbtvc	r7, [r5], #-863	; 0x35f
 3b8:	7475705f 	ldrbtvc	r7, [r5], #-95	; 0x5f
 3bc:	696c0063 	stmdbvs	ip!, {r0, r1, r5, r6}^
 3c0:	702f6362 	eorvc	r6, pc, r2, ror #6
 3c4:	2e6b7475 	mcrcs	4, 3, r7, cr11, cr5, {3}
 3c8:	6e690063 	cdpvs	0, 6, cr0, cr9, cr3, {3}
 3cc:	6e726574 	mrcvs	5, 3, r6, cr2, cr4, {3}
 3d0:	705f6c61 	subsvc	r6, pc, r1, ror #24
 3d4:	006b7475 	rsbeq	r7, fp, r5, ror r4
 3d8:	5f67656e 	svcpl	0x0067656e
 3dc:	65720070 	ldrbvs	r0, [r2, #-112]!	; 0x70
 3e0:	73726576 	cmnvc	r2, #494927872	; 0x1d800000
 3e4:	73690065 	cmnvc	r9, #101	; 0x65
 3e8:	69676964 	stmdbvs	r7!, {r2, r5, r6, r8, fp, sp, lr}^
 3ec:	75700074 	ldrbvc	r0, [r0, #-116]!	; 0x74
 3f0:	665f7374 			; <UNDEFINED> instruction: 0x665f7374
 3f4:	61620070 	smcvs	8192	; 0x2000
 3f8:	73006573 	movwvc	r6, #1395	; 0x573
 3fc:	656e6769 	strbvs	r6, [lr, #-1897]!	; 0x769
 400:	00705f64 	rsbseq	r5, r0, r4, ror #30
 404:	6362696c 	cmnvs	r2, #108, 18	; 0x1b0000
 408:	2d61762f 	stclcs	6, cr7, [r1, #-188]!	; 0xffffff44
 40c:	6e697270 	mcrvs	2, 3, r7, cr9, cr0, {3}
 410:	632e6b74 	teqvs	lr, #116, 22	; 0x1d000
 414:	69707200 	ldmdbvs	r0!, {r9, ip, sp, lr}^
 418:	7465735f 	strbtvc	r7, [r5], #-863	; 0x35f
 41c:	74756f5f 	ldrbtvc	r6, [r5], #-3935	; 0xf5f
 420:	00747570 	rsbseq	r7, r4, r0, ror r5
 424:	74646977 	strbtvc	r6, [r4], #-2423	; 0x977
 428:	75700068 	ldrbvc	r0, [r0, #-104]!	; 0x68
 42c:	665f6374 			; <UNDEFINED> instruction: 0x665f6374
 430:	6d650070 	stclvs	0, cr0, [r5, #-448]!	; 0xfffffe40
 434:	64007469 	strvs	r7, [r0], #-1129	; 0x469
 438:	62617369 	rsbvs	r7, r1, #-1543503871	; 0xa4000001
 43c:	635f656c 	cmpvs	pc, #108, 10	; 0x1b000000
 440:	65686361 	strbvs	r6, [r8, #-865]!	; 0x361
 444:	31736300 	cmncc	r3, r0, lsl #6
 448:	2d653034 	stclcs	0, cr3, [r5, #-208]!	; 0xffffff30
 44c:	2f637273 	svccs	0x00637273
 450:	68636163 	stmdavs	r3!, {r0, r1, r5, r6, r8, sp, lr}^
 454:	00632e65 	rsbeq	r2, r3, r5, ror #28
 458:	5f697072 	svcpl	0x00697072
 45c:	6f626572 	svcvs	0x00626572
 460:	6300746f 	movwvs	r7, #1135	; 0x46f
 464:	30343173 	eorscc	r3, r4, r3, ror r1
 468:	72732d65 	rsbsvc	r2, r3, #6464	; 0x1940
 46c:	6c632f63 	stclvs	15, cr2, [r3], #-396	; 0xfffffe74
 470:	2d6e6165 	stfcse	f6, [lr, #-404]!	; 0xfffffe6c
 474:	6f626572 	svcvs	0x00626572
 478:	632e746f 	teqvs	lr, #1862270976	; 0x6f000000
 47c:	31736300 	cmncc	r3, r0, lsl #6
 480:	2d653034 	stclcs	0, cr3, [r5, #-208]!	; 0xffffff30
 484:	2f637273 	svccs	0x00637273
 488:	61747363 	cmnvs	r4, r3, ror #6
 48c:	632e7472 	teqvs	lr, #1912602624	; 0x72000000
 490:	625f5f00 	subsvs	r5, pc, #0, 30
 494:	735f7373 	cmpvc	pc, #-872415231	; 0xcc000001
 498:	74726174 	ldrbtvc	r6, [r2], #-372	; 0x174
 49c:	5f005f5f 	svcpl	0x00005f5f
 4a0:	7373625f 	cmnvc	r3, #-268435451	; 0xf0000005
 4a4:	646e655f 	strbtvs	r6, [lr], #-1375	; 0x55f
 4a8:	62005f5f 	andvs	r5, r0, #380	; 0x17c
 4ac:	655f7373 	ldrbvs	r7, [pc, #-883]	; 141 <_start-0x7ebf>
 4b0:	5f00646e 	svcpl	0x0000646e
 4b4:	61747363 	cmnvs	r4, r3, ror #6
 4b8:	61007472 	tstvs	r0, r2, ror r4
 4bc:	73755f74 	cmnvc	r5, #116, 30	; 0x1d0
 4c0:	6c5f7265 	lfmvs	f7, 2, [pc], {101}	; 0x65
 4c4:	6c657665 	stclvs	6, cr7, [r5], #-404	; 0xfffffe6c
 4c8:	5f4d5000 	svcpl	0x004d5000
 4cc:	53534150 	cmppl	r3, #80, 2
 4d0:	44524f57 	ldrbmi	r4, [r2], #-3927	; 0xf57
 4d4:	31736300 	cmncc	r3, r0, lsl #6
 4d8:	2d653034 	stclcs	0, cr3, [r5, #-208]!	; 0xffffff30
 4dc:	2f637273 	svccs	0x00637273
 4e0:	6f626572 	svcvs	0x00626572
 4e4:	632e746f 	teqvs	lr, #1862270976	; 0x6f000000
 4e8:	5f4d5000 	svcpl	0x004d5000
 4ec:	43545352 	cmpmi	r4, #1207959553	; 0x48000001
 4f0:	4352575f 	cmpmi	r2, #24903680	; 0x17c0000
 4f4:	465f4746 	ldrbmi	r4, [pc], -r6, asr #14
 4f8:	5f4c4c55 	svcpl	0x004c4c55
 4fc:	45534552 	ldrbmi	r4, [r3, #-1362]	; 0x552
 500:	4d500054 	ldclmi	0, cr0, [r0, #-336]	; 0xfffffeb0
 504:	4f44575f 	svcmi	0x0044575f
 508:	65730047 	ldrbvs	r0, [r3, #-71]!	; 0x47
 50c:	73755f74 	cmnvc	r5, #116, 30	; 0x1d0
 510:	6c5f7265 	lfmvs	f7, 2, [pc], {101}	; 0x65
 514:	6c657665 	stclvs	6, cr7, [r5], #-404	; 0xfffffe6c
 518:	54555000 	ldrbpl	r5, [r5], #-0
 51c:	50003233 	andpl	r3, r0, r3, lsr r2
 520:	53525f4d 	cmppl	r2, #308	; 0x134
 524:	63004354 	movwvs	r4, #852	; 0x354
 528:	00727370 	rsbseq	r7, r2, r0, ror r3
 52c:	656d6974 	strbvs	r6, [sp, #-2420]!	; 0x974
 530:	65675f72 	strbvs	r5, [r7, #-3954]!	; 0xf72
 534:	73755f74 	cmnvc	r5, #116, 30	; 0x1d0
 538:	725f6365 	subsvc	r6, pc, #-1811939327	; 0x94000001
 53c:	64007761 	strvs	r7, [r0], #-1889	; 0x761
 540:	79616c65 	stmdbvc	r1!, {r0, r2, r5, r6, sl, fp, sp, lr}^
 544:	6365735f 	cmnvs	r5, #2080374785	; 0x7c000001
 548:	31736300 	cmncc	r3, r0, lsl #6
 54c:	2d653034 	stclcs	0, cr3, [r5, #-208]!	; 0xffffff30
 550:	2f637273 	svccs	0x00637273
 554:	656d6974 	strbvs	r6, [sp, #-2420]!	; 0x974
 558:	00632e72 	rsbeq	r2, r3, r2, ror lr
 55c:	33544547 	cmpcc	r4, #297795584	; 0x11c00000
 560:	69740032 	ldmdbvs	r4!, {r1, r4, r5}^
 564:	00736b63 	rsbseq	r6, r3, r3, ror #22
 568:	616c6564 	cmnvs	ip, r4, ror #10
 56c:	79635f79 	stmdbvc	r3!, {r0, r3, r4, r5, r6, r8, r9, sl, fp, ip, lr}^
 570:	73656c63 	cmnvc	r5, #25344	; 0x6300
 574:	6c656400 	cfstrdvs	mvd6, [r5], #-0
 578:	755f7961 	ldrbvc	r7, [pc, #-2401]	; fffffc1f <__bss_end__+0xffff5c57>
 57c:	69740073 	ldmdbvs	r4!, {r0, r1, r4, r5, r6}^
 580:	5f72656d 	svcpl	0x0072656d
 584:	5f746567 	svcpl	0x00746567
 588:	63657375 	cmnvs	r5, #-738197503	; 0xd4000001
 58c:	69706700 	ldmdbvs	r0!, {r8, r9, sl, sp, lr}^
 590:	76655f6f 	strbtvc	r5, [r5], -pc, ror #30
 594:	5f746e65 	svcpl	0x00746e65
 598:	65746564 	ldrbvs	r6, [r4, #-1380]!	; 0x564
 59c:	64657463 	strbtvs	r7, [r5], #-1123	; 0x463
 5a0:	74757000 	ldrbtvc	r7, [r5], #-0
 5a4:	45003233 	strmi	r3, [r0, #-563]	; 0x233
 5a8:	4c42414e 	stfmie	f4, [r2], {78}	; 0x4e
 5ac:	52495f45 	subpl	r5, r9, #276	; 0x114
 5b0:	325f5351 	subscc	r5, pc, #1140850689	; 0x44000001
 5b4:	5f736900 	svcpl	0x00736900
 5b8:	6f697067 	svcvs	0x00697067
 5bc:	746e695f 	strbtvc	r6, [lr], #-2399	; 0x95f
 5c0:	49504700 	ldmdbmi	r0, {r8, r9, sl, lr}^
 5c4:	55465f4f 	strbpl	r5, [r6, #-3919]	; 0xf4f
 5c8:	495f434e 	ldmdbmi	pc, {r1, r2, r3, r6, r8, r9, lr}^	; <UNPREDICTABLE>
 5cc:	5455504e 	ldrbpl	r5, [r5], #-78	; 0x4e
 5d0:	2d796d00 	ldclcs	13, cr6, [r9, #-0]
 5d4:	2f637273 	svccs	0x00637273
 5d8:	6f697067 	svcvs	0x00697067
 5dc:	6900632e 	stmdbvs	r0, {r1, r2, r3, r5, r8, r9, sp, lr}
 5e0:	6d5f746e 	cfldrdvs	mvd7, [pc, #-440]	; 430 <_start-0x7bd0>
 5e4:	006b7361 	rsbeq	r7, fp, r1, ror #6
 5e8:	5f676572 	svcpl	0x00676572
 5ec:	74617473 	strbtvc	r7, [r1], #-1139	; 0x473
 5f0:	69706700 	ldmdbvs	r0!, {r8, r9, sl, sp, lr}^
 5f4:	65725f6f 	ldrbvs	r5, [r2, #-3951]!	; 0xf6f
 5f8:	65640067 	strbvs	r0, [r4, #-103]!	; 0x67
 5fc:	61625f76 	smcvs	9718	; 0x25f6
 600:	65697272 	strbvs	r7, [r9, #-626]!	; 0x272
 604:	70670072 	rsbvc	r0, r7, r2, ror r0
 608:	725f6f69 	subsvc	r6, pc, #420	; 0x1a4
 60c:	00646165 	rsbeq	r6, r4, r5, ror #2
 610:	6f697067 	svcvs	0x00697067
 614:	746e695f 	strbtvc	r6, [lr], #-2399	; 0x95f
 618:	7369725f 	cmnvc	r9, #-268435451	; 0xf0000005
 61c:	5f676e69 	svcpl	0x00676e69
 620:	65676465 	strbvs	r6, [r7, #-1125]!	; 0x465
 624:	69706700 	ldmdbvs	r0!, {r8, r9, sl, sp, lr}^
 628:	65735f6f 	ldrbvs	r5, [r3, #-3951]!	; 0xf6f
 62c:	75665f74 	strbvc	r5, [r6, #-3956]!	; 0xf74
 630:	6974636e 	ldmdbvs	r4!, {r1, r2, r3, r5, r6, r8, r9, sp, lr}^
 634:	47006e6f 	strmi	r6, [r0, -pc, ror #28]
 638:	4e455250 	mcrmi	2, 2, r5, cr5, cr0, {2}
 63c:	50470030 	subpl	r0, r7, r0, lsr r0
 640:	314e4552 	cmpcc	lr, r2, asr r5
 644:	69706700 	ldmdbvs	r0!, {r8, r9, sl, sp, lr}^
 648:	76655f6f 	strbtvc	r5, [r5], -pc, ror #30
 64c:	5f746e65 	svcpl	0x00746e65
 650:	61656c63 	cmnvs	r5, r3, ror #24
 654:	52490072 	subpl	r0, r9, #114	; 0x72
 658:	45505f51 	ldrbmi	r5, [r0, #-3921]	; 0xf51
 65c:	4e49444e 	cdpmi	4, 4, cr4, cr9, cr14, {2}
 660:	00315f47 	eorseq	r5, r1, r7, asr #30
 664:	5f515249 	svcpl	0x00515249
 668:	444e4550 	strbmi	r4, [lr], #-1360	; 0x550
 66c:	5f474e49 	svcpl	0x00474e49
 670:	69620032 	stmdbvs	r2!, {r1, r4, r5}^
 674:	73616d74 	cmnvc	r1, #116, 26	; 0x1d00
 678:	7566006b 	strbvc	r0, [r6, #-107]!	; 0x6b
 67c:	6700636e 	strvs	r6, [r0, -lr, ror #6]
 680:	5f6f6970 	svcpl	0x006f6970
 684:	67676f74 			; <UNDEFINED> instruction: 0x67676f74
 688:	4700656c 	strmi	r6, [r0, -ip, ror #10]
 68c:	53444550 	movtpl	r4, #17744	; 0x4550
 690:	50470030 	subpl	r0, r7, r0, lsr r0
 694:	31534445 	cmpcc	r3, r5, asr #8
 698:	46504700 	ldrbmi	r4, [r0], -r0, lsl #14
 69c:	00304e45 	eorseq	r4, r0, r5, asr #28
 6a0:	45465047 	strbmi	r5, [r6, #-71]	; 0x47
 6a4:	4700314e 	strmi	r3, [r0, -lr, asr #2]
 6a8:	5f4f4950 	svcpl	0x004f4950
 6ac:	434e5546 	movtmi	r5, #58694	; 0xe546
 6b0:	54554f5f 	ldrbpl	r4, [r5], #-3935	; 0xf5f
 6b4:	00545550 	subseq	r5, r4, r0, asr r5
 6b8:	33746567 	cmncc	r4, #432013312	; 0x19c00000
 6bc:	70670032 	rsbvc	r0, r7, r2, lsr r0
 6c0:	695f6f69 	ldmdbvs	pc, {r0, r3, r5, r6, r8, r9, sl, fp, sp, lr}^	; <UNPREDICTABLE>
 6c4:	665f746e 	ldrbvs	r7, [pc], -lr, ror #8
 6c8:	696c6c61 	stmdbvs	ip!, {r0, r5, r6, sl, fp, sp, lr}^
 6cc:	655f676e 	ldrbvs	r6, [pc, #-1902]	; ffffff66 <__bss_end__+0xffff5f9e>
 6d0:	00656764 	rsbeq	r6, r5, r4, ror #14
 6d4:	6f697067 	svcvs	0x00697067
 6d8:	6e75665f 	mrcvs	6, 3, r6, cr5, cr15, {2}
 6dc:	00745f63 	rsbseq	r5, r4, r3, ror #30
 6e0:	4f495047 	svcmi	0x00495047
 6e4:	4e55465f 	mrcmi	6, 2, r4, cr5, cr15, {2}
 6e8:	4c415f43 	mcrrmi	15, 4, r5, r1, cr3
 6ec:	47003054 	smlsdmi	r0, r4, r0, r3
 6f0:	5f4f4950 	svcpl	0x004f4950
 6f4:	434e5546 	movtmi	r5, #58694	; 0xe546
 6f8:	544c415f 	strbpl	r4, [ip], #-351	; 0x15f
 6fc:	50470031 	subpl	r0, r7, r1, lsr r0
 700:	465f4f49 	ldrbmi	r4, [pc], -r9, asr #30
 704:	5f434e55 	svcpl	0x00434e55
 708:	32544c41 	subscc	r4, r4, #16640	; 0x4100
 70c:	49504700 	ldmdbmi	r0, {r8, r9, sl, lr}^
 710:	55465f4f 	strbpl	r5, [r6, #-3919]	; 0xf4f
 714:	415f434e 	cmpmi	pc, lr, asr #6
 718:	0033544c 	eorseq	r5, r3, ip, asr #8
 71c:	4f495047 	svcmi	0x00495047
 720:	4e55465f 	mrcmi	6, 2, r4, cr5, cr15, {2}
 724:	4c415f43 	mcrrmi	15, 4, r5, r1, cr3
 728:	47003454 	smlsdmi	r0, r4, r4, r3
 72c:	5f4f4950 	svcpl	0x004f4950
 730:	434e5546 	movtmi	r5, #58694	; 0xe546
 734:	544c415f 	strbpl	r4, [ip], #-351	; 0x15f
 738:	65720035 	ldrbvs	r0, [r2, #-53]!	; 0x35
 73c:	65735f67 	ldrbvs	r5, [r3, #-3943]!	; 0xf67
 740:	7463656c 	strbtvc	r6, [r3], #-1388	; 0x56c
 744:	58554100 	ldmdapl	r5, {r8, lr}^
 748:	5f554d5f 	svcpl	0x00554d5f
 74c:	5f52434d 	svcpl	0x0052434d
 750:	00474552 	subeq	r4, r7, r2, asr r5
 754:	5f585541 	svcpl	0x00585541
 758:	495f554d 	ldmdbmi	pc, {r0, r2, r3, r6, r8, sl, ip, lr}^	; <UNPREDICTABLE>
 75c:	45525f4f 	ldrbmi	r5, [r2, #-3919]	; 0xf4f
 760:	55410047 	strbpl	r0, [r1, #-71]	; 0x47
 764:	554d5f58 	strbpl	r5, [sp, #-3928]	; 0xf58
 768:	52534d5f 	subspl	r4, r3, #6080	; 0x17c0
 76c:	4745525f 	smlsldmi	r5, r5, pc, r2	; <UNPREDICTABLE>
 770:	72617500 	rsbvc	r7, r1, #0, 10
 774:	61635f74 	smcvs	13812	; 0x35f4
 778:	65675f6e 	strbvs	r5, [r7, #-3950]!	; 0xf6e
 77c:	41006374 	tstmi	r0, r4, ror r3
 780:	4d5f5855 	ldclmi	8, cr5, [pc, #-340]	; 634 <_start-0x79cc>
 784:	4e435f55 	mcrmi	15, 2, r5, cr3, cr5, {2}
 788:	525f4c54 	subspl	r4, pc, #84, 24	; 0x5400
 78c:	75004745 	strvc	r4, [r0, #-1861]	; 0x745
 790:	5f747261 	svcpl	0x00747261
 794:	5f736168 	svcpl	0x00736168
 798:	61746164 	cmnvs	r4, r4, ror #2
 79c:	72617500 	rsbvc	r7, r1, #0, 10
 7a0:	6e695f74 	mcrvs	15, 3, r5, cr9, cr4, {3}
 7a4:	41007469 	tstmi	r0, r9, ror #8
 7a8:	4d5f5855 	ldclmi	8, cr5, [pc, #-340]	; 65c <_start-0x79a4>
 7ac:	45495f55 	strbmi	r5, [r9, #-3925]	; 0xf55
 7b0:	45525f52 	ldrbmi	r5, [r2, #-3922]	; 0xf52
 7b4:	61750047 	cmnvs	r5, r7, asr #32
 7b8:	675f7472 			; <UNDEFINED> instruction: 0x675f7472
 7bc:	00637465 	rsbeq	r7, r3, r5, ror #8
 7c0:	5f585541 	svcpl	0x00585541
 7c4:	495f554d 	ldmdbmi	pc, {r0, r2, r3, r6, r8, sl, ip, lr}^	; <UNPREDICTABLE>
 7c8:	525f5249 	subspl	r5, pc, #-1879048188	; 0x90000004
 7cc:	75004745 	strvc	r4, [r0, #-1861]	; 0x745
 7d0:	5f747261 	svcpl	0x00747261
 7d4:	5f6e6163 	svcpl	0x006e6163
 7d8:	63747570 	cmnvs	r4, #112, 10	; 0x1c000000
 7dc:	58554100 	ldmdapl	r5, {r8, lr}^
 7e0:	414e455f 	cmpmi	lr, pc, asr r5
 7e4:	53454c42 	movtpl	r4, #23618	; 0x5c42
 7e8:	58554100 	ldmdapl	r5, {r8, lr}^
 7ec:	5152495f 	cmppl	r2, pc, asr r9
 7f0:	58554100 	ldmdapl	r5, {r8, lr}^
 7f4:	5f554d5f 	svcpl	0x00554d5f
 7f8:	44554142 	ldrbmi	r4, [r5], #-322	; 0x142
 7fc:	4745525f 	smlsldmi	r5, r5, pc, r2	; <UNPREDICTABLE>
 800:	58554100 	ldmdapl	r5, {r8, lr}^
 804:	5f554d5f 	svcpl	0x00554d5f
 808:	54415453 	strbpl	r5, [r1], #-1107	; 0x453
 80c:	4745525f 	smlsldmi	r5, r5, pc, r2	; <UNPREDICTABLE>
 810:	58554100 	ldmdapl	r5, {r8, lr}^
 814:	5f554d5f 	svcpl	0x00554d5f
 818:	41524353 	cmpmi	r2, r3, asr r3
 81c:	00484354 	subeq	r4, r8, r4, asr r3
 820:	732d796d 	teqvc	sp, #1785856	; 0x1b4000
 824:	752f6372 	strvc	r6, [pc, #-882]!	; 4ba <_start-0x7b46>
 828:	2e747261 	cdpcs	2, 7, cr7, cr4, cr1, {3}
 82c:	55410063 	strbpl	r0, [r1, #-99]	; 0x63
 830:	554d5f58 	strbpl	r5, [sp, #-3928]	; 0xf58
 834:	52434c5f 	subpl	r4, r3, #24320	; 0x5f00
 838:	4745525f 	smlsldmi	r5, r5, pc, r2	; <UNPREDICTABLE>
 83c:	58554100 	ldmdapl	r5, {r8, lr}^
 840:	5f554d5f 	svcpl	0x00554d5f
 844:	5f52534c 	svcpl	0x0052534c
 848:	00474552 	subeq	r4, r7, r2, asr r5
 84c:	74726175 	ldrbtvc	r6, [r2], #-373	; 0x175
 850:	7465675f 	strbtvc	r6, [r5], #-1887	; 0x75f
 854:	73615f63 	cmnvc	r1, #396	; 0x18c
 858:	00636e79 	rsbeq	r6, r3, r9, ror lr

Disassembly of section .debug_frame:

00000000 <.debug_frame>:
   0:	0000000c 	andeq	r0, r0, ip
   4:	ffffffff 			; <UNDEFINED> instruction: 0xffffffff
   8:	7c020001 	stcvc	0, cr0, [r2], {1}
   c:	000d0c0e 	andeq	r0, sp, lr, lsl #24
  10:	00000014 	andeq	r0, r0, r4, lsl r0
  14:	00000000 	andeq	r0, r0, r0
  18:	00008010 	andeq	r8, r0, r0, lsl r0
  1c:	00000050 	andeq	r0, r0, r0, asr r0
  20:	84080e44 	strhi	r0, [r8], #-3652	; 0xe44
  24:	00018e02 	andeq	r8, r1, r2, lsl #28
  28:	00000020 	andeq	r0, r0, r0, lsr #32
  2c:	00000000 	andeq	r0, r0, r0
  30:	00008060 	andeq	r8, r0, r0, rrx
  34:	000001bc 			; <UNDEFINED> instruction: 0x000001bc
  38:	841c0e4c 	ldrhi	r0, [ip], #-3660	; 0xe4c
  3c:	86068507 	strhi	r8, [r6], -r7, lsl #10
  40:	88048705 	stmdahi	r4, {r0, r2, r8, r9, sl, pc}
  44:	8a028903 	bhi	a2458 <__bss_end__+0x98490>
  48:	00000001 	andeq	r0, r0, r1
  4c:	00000018 	andeq	r0, r0, r8, lsl r0
  50:	00000000 	andeq	r0, r0, r0
  54:	0000821c 	andeq	r8, r0, ip, lsl r2
  58:	00000290 	muleq	r0, r0, r2
  5c:	840c0e42 	strhi	r0, [ip], #-3650	; 0xe42
  60:	86028503 	strhi	r8, [r2], -r3, lsl #10
  64:	00000001 	andeq	r0, r0, r1
  68:	00000024 	andeq	r0, r0, r4, lsr #32
  6c:	00000000 	andeq	r0, r0, r0
  70:	000084ac 	andeq	r8, r0, ip, lsr #9
  74:	00000630 	andeq	r0, r0, r0, lsr r6
  78:	84240e42 	strthi	r0, [r4], #-3650	; 0xe42
  7c:	86088509 	strhi	r8, [r8], -r9, lsl #10
  80:	88068707 	stmdahi	r6, {r0, r1, r2, r8, r9, sl, pc}
  84:	8a048905 	bhi	1224a0 <__bss_end__+0x1184d8>
  88:	8e028b03 	vmlahi.f64	d8, d2, d3
  8c:	600e4c01 	andvs	r4, lr, r1, lsl #24
  90:	0000000c 	andeq	r0, r0, ip
  94:	ffffffff 			; <UNDEFINED> instruction: 0xffffffff
  98:	7c020001 	stcvc	0, cr0, [r2], {1}
  9c:	000d0c0e 	andeq	r0, sp, lr, lsl #24
  a0:	00000024 	andeq	r0, r0, r4, lsr #32
  a4:	00000090 	muleq	r0, r0, r0
  a8:	00008adc 	ldrdeq	r8, [r0], -ip
  ac:	00000058 	andeq	r0, r0, r8, asr r0
  b0:	80100e42 	andshi	r0, r0, r2, asr #28
  b4:	82038104 	andhi	r8, r3, #4, 2
  b8:	42018302 	andmi	r8, r1, #134217728	; 0x8000000
  bc:	07841c0e 	streq	r1, [r4, lr, lsl #24]
  c0:	058e0685 	streq	r0, [lr, #1669]	; 0x685
  c4:	00280e42 	eoreq	r0, r8, r2, asr #28
  c8:	0000000c 	andeq	r0, r0, ip
  cc:	ffffffff 			; <UNDEFINED> instruction: 0xffffffff
  d0:	7c020001 	stcvc	0, cr0, [r2], {1}
  d4:	000d0c0e 	andeq	r0, sp, lr, lsl #24
  d8:	00000014 	andeq	r0, r0, r4, lsl r0
  dc:	000000c8 	andeq	r0, r0, r8, asr #1
  e0:	00008b34 	andeq	r8, r0, r4, lsr fp
  e4:	00000014 	andeq	r0, r0, r4, lsl r0
  e8:	84080e42 	strhi	r0, [r8], #-3650	; 0xe42
  ec:	00018e02 	andeq	r8, r1, r2, lsl #28
  f0:	0000000c 	andeq	r0, r0, ip
  f4:	000000c8 	andeq	r0, r0, r8, asr #1
  f8:	00008b48 	andeq	r8, r0, r8, asr #22
  fc:	00000018 	andeq	r0, r0, r8, lsl r0
 100:	0000000c 	andeq	r0, r0, ip
 104:	000000c8 	andeq	r0, r0, r8, asr #1
 108:	00008b60 	andeq	r8, r0, r0, ror #22
 10c:	00000010 	andeq	r0, r0, r0, lsl r0
 110:	0000000c 	andeq	r0, r0, ip
 114:	ffffffff 			; <UNDEFINED> instruction: 0xffffffff
 118:	7c020001 	stcvc	0, cr0, [r2], {1}
 11c:	000d0c0e 	andeq	r0, sp, lr, lsl #24
 120:	00000018 	andeq	r0, r0, r8, lsl r0
 124:	00000110 	andeq	r0, r0, r0, lsl r1
 128:	00008b70 	andeq	r8, r0, r0, ror fp
 12c:	00000034 	andeq	r0, r0, r4, lsr r0
 130:	83100e42 	tsthi	r0, #1056	; 0x420
 134:	85038404 	strhi	r8, [r3, #-1028]	; 0x404
 138:	00018e02 	andeq	r8, r1, r2, lsl #28
 13c:	0000000c 	andeq	r0, r0, ip
 140:	ffffffff 			; <UNDEFINED> instruction: 0xffffffff
 144:	7c020001 	stcvc	0, cr0, [r2], {1}
 148:	000d0c0e 	andeq	r0, sp, lr, lsl #24
 14c:	0000000c 	andeq	r0, r0, ip
 150:	0000013c 	andeq	r0, r0, ip, lsr r1
 154:	00008ba4 	andeq	r8, r0, r4, lsr #23
 158:	00000014 	andeq	r0, r0, r4, lsl r0
 15c:	0000000c 	andeq	r0, r0, ip
 160:	0000013c 	andeq	r0, r0, ip, lsr r1
 164:	00008bb8 			; <UNDEFINED> instruction: 0x00008bb8
 168:	0000002c 	andeq	r0, r0, ip, lsr #32
 16c:	0000000c 	andeq	r0, r0, ip
 170:	0000013c 	andeq	r0, r0, ip, lsr r1
 174:	00008be4 	andeq	r8, r0, r4, ror #23
 178:	00000040 	andeq	r0, r0, r0, asr #32
 17c:	00000020 	andeq	r0, r0, r0, lsr #32
 180:	0000013c 	andeq	r0, r0, ip, lsr r1
 184:	00008c24 	andeq	r8, r0, r4, lsr #24
 188:	0000019c 	muleq	r0, ip, r1
 18c:	84180e42 	ldrhi	r0, [r8], #-3650	; 0xe42
 190:	86058506 	strhi	r8, [r5], -r6, lsl #10
 194:	88038704 	stmdahi	r3, {r2, r8, r9, sl, pc}
 198:	42018e02 	andmi	r8, r1, #2, 28
 19c:	0000580e 	andeq	r5, r0, lr, lsl #16
 1a0:	00000014 	andeq	r0, r0, r4, lsl r0
 1a4:	0000013c 	andeq	r0, r0, ip, lsr r1
 1a8:	00008dc0 	andeq	r8, r0, r0, asr #27
 1ac:	00000054 	andeq	r0, r0, r4, asr r0
 1b0:	83080e42 	movwhi	r0, #36418	; 0x8e42
 1b4:	00018e02 	andeq	r8, r1, r2, lsl #28
 1b8:	00000028 	andeq	r0, r0, r8, lsr #32
 1bc:	0000013c 	andeq	r0, r0, ip, lsr r1
 1c0:	00008e14 	andeq	r8, r0, r4, lsl lr
 1c4:	00000288 	andeq	r0, r0, r8, lsl #5
 1c8:	84240e42 	strthi	r0, [r4], #-3650	; 0xe42
 1cc:	86088509 	strhi	r8, [r8], -r9, lsl #10
 1d0:	88068707 	stmdahi	r6, {r0, r1, r2, r8, r9, sl, pc}
 1d4:	8a048905 	bhi	1225f0 <__bss_end__+0x118628>
 1d8:	8e028b03 	vmlahi.f64	d8, d2, d3
 1dc:	b00e4201 	andlt	r4, lr, r1, lsl #4
 1e0:	00000001 	andeq	r0, r0, r1
 1e4:	0000000c 	andeq	r0, r0, ip
 1e8:	ffffffff 			; <UNDEFINED> instruction: 0xffffffff
 1ec:	7c020001 	stcvc	0, cr0, [r2], {1}
 1f0:	000d0c0e 	andeq	r0, sp, lr, lsl #24
 1f4:	0000000c 	andeq	r0, r0, ip
 1f8:	000001e4 	andeq	r0, r0, r4, ror #3
 1fc:	0000909c 	muleq	r0, ip, r0
 200:	00000010 	andeq	r0, r0, r0, lsl r0
 204:	0000000c 	andeq	r0, r0, ip
 208:	000001e4 	andeq	r0, r0, r4, ror #3
 20c:	000090ac 	andeq	r9, r0, ip, lsr #1
 210:	00000010 	andeq	r0, r0, r0, lsl r0
 214:	0000000c 	andeq	r0, r0, ip
 218:	ffffffff 			; <UNDEFINED> instruction: 0xffffffff
 21c:	7c020001 	stcvc	0, cr0, [r2], {1}
 220:	000d0c0e 	andeq	r0, sp, lr, lsl #24
 224:	00000014 	andeq	r0, r0, r4, lsl r0
 228:	00000214 	andeq	r0, r0, r4, lsl r2
 22c:	000090bc 	strheq	r9, [r0], -ip
 230:	00000028 	andeq	r0, r0, r8, lsr #32
 234:	83080e42 	movwhi	r0, #36418	; 0x8e42
 238:	00018e02 	andeq	r8, r1, r2, lsl #28
 23c:	0000000c 	andeq	r0, r0, ip
 240:	ffffffff 			; <UNDEFINED> instruction: 0xffffffff
 244:	7c020001 	stcvc	0, cr0, [r2], {1}
 248:	000d0c0e 	andeq	r0, sp, lr, lsl #24
 24c:	00000014 	andeq	r0, r0, r4, lsl r0
 250:	0000023c 	andeq	r0, r0, ip, lsr r2
 254:	000090e4 	andeq	r9, r0, r4, ror #1
 258:	00000034 	andeq	r0, r0, r4, lsr r0
 25c:	83080e42 	movwhi	r0, #36418	; 0x8e42
 260:	00018e02 	andeq	r8, r1, r2, lsl #28
 264:	0000000c 	andeq	r0, r0, ip
 268:	ffffffff 			; <UNDEFINED> instruction: 0xffffffff
 26c:	7c020001 	stcvc	0, cr0, [r2], {1}
 270:	000d0c0e 	andeq	r0, sp, lr, lsl #24
 274:	0000000c 	andeq	r0, r0, ip
 278:	00000264 	andeq	r0, r0, r4, ror #4
 27c:	00009118 	andeq	r9, r0, r8, lsl r1
 280:	00000018 	andeq	r0, r0, r8, lsl r0
 284:	0000000c 	andeq	r0, r0, ip
 288:	00000264 	andeq	r0, r0, r4, ror #4
 28c:	00009130 	andeq	r9, r0, r0, lsr r1
 290:	00000014 	andeq	r0, r0, r4, lsl r0
 294:	00000014 	andeq	r0, r0, r4, lsl r0
 298:	00000264 	andeq	r0, r0, r4, ror #4
 29c:	00009144 	andeq	r9, r0, r4, asr #2
 2a0:	00000048 	andeq	r0, r0, r8, asr #32
 2a4:	83080e42 	movwhi	r0, #36418	; 0x8e42
 2a8:	00018e02 	andeq	r8, r1, r2, lsl #28
 2ac:	0000000c 	andeq	r0, r0, ip
 2b0:	ffffffff 			; <UNDEFINED> instruction: 0xffffffff
 2b4:	7c020001 	stcvc	0, cr0, [r2], {1}
 2b8:	000d0c0e 	andeq	r0, sp, lr, lsl #24
 2bc:	0000000c 	andeq	r0, r0, ip
 2c0:	000002ac 	andeq	r0, r0, ip, lsr #5
 2c4:	0000918c 	andeq	r9, r0, ip, lsl #3
 2c8:	0000001c 	andeq	r0, r0, ip, lsl r0
 2cc:	00000014 	andeq	r0, r0, r4, lsl r0
 2d0:	000002ac 	andeq	r0, r0, ip, lsr #5
 2d4:	000091a8 	andeq	r9, r0, r8, lsr #3
 2d8:	00000014 	andeq	r0, r0, r4, lsl r0
 2dc:	83080e42 	movwhi	r0, #36418	; 0x8e42
 2e0:	00018e02 	andeq	r8, r1, r2, lsl #28
 2e4:	00000014 	andeq	r0, r0, r4, lsl r0
 2e8:	000002ac 	andeq	r0, r0, ip, lsr #5
 2ec:	000091bc 			; <UNDEFINED> instruction: 0x000091bc
 2f0:	0000000c 	andeq	r0, r0, ip
 2f4:	83080e42 	movwhi	r0, #36418	; 0x8e42
 2f8:	00018e02 	andeq	r8, r1, r2, lsl #28
 2fc:	00000018 	andeq	r0, r0, r8, lsl r0
 300:	000002ac 	andeq	r0, r0, ip, lsr #5
 304:	000091c8 	andeq	r9, r0, r8, asr #3
 308:	00000024 	andeq	r0, r0, r4, lsr #32
 30c:	83100e42 	tsthi	r0, #1056	; 0x420
 310:	85038404 	strhi	r8, [r3, #-1028]	; 0x404
 314:	00018e02 	andeq	r8, r1, r2, lsl #28
 318:	00000014 	andeq	r0, r0, r4, lsl r0
 31c:	000002ac 	andeq	r0, r0, ip, lsr #5
 320:	000091ec 	andeq	r9, r0, ip, ror #3
 324:	00000014 	andeq	r0, r0, r4, lsl r0
 328:	83080e42 	movwhi	r0, #36418	; 0x8e42
 32c:	00018e02 	andeq	r8, r1, r2, lsl #28
 330:	00000014 	andeq	r0, r0, r4, lsl r0
 334:	000002ac 	andeq	r0, r0, ip, lsr #5
 338:	00009200 	andeq	r9, r0, r0, lsl #4
 33c:	00000014 	andeq	r0, r0, r4, lsl r0
 340:	83080e42 	movwhi	r0, #36418	; 0x8e42
 344:	00018e02 	andeq	r8, r1, r2, lsl #28
 348:	0000000c 	andeq	r0, r0, ip
 34c:	ffffffff 			; <UNDEFINED> instruction: 0xffffffff
 350:	7c020001 	stcvc	0, cr0, [r2], {1}
 354:	000d0c0e 	andeq	r0, sp, lr, lsl #24
 358:	00000018 	andeq	r0, r0, r8, lsl r0
 35c:	00000348 	andeq	r0, r0, r8, asr #6
 360:	00009214 	andeq	r9, r0, r4, lsl r2
 364:	000000d4 	ldrdeq	r0, [r0], -r4
 368:	83100e42 	tsthi	r0, #1056	; 0x420
 36c:	85038404 	strhi	r8, [r3, #-1028]	; 0x404
 370:	00018e02 	andeq	r8, r1, r2, lsl #28
 374:	00000014 	andeq	r0, r0, r4, lsl r0
 378:	00000348 	andeq	r0, r0, r8, asr #6
 37c:	000092e8 	andeq	r9, r0, r8, ror #5
 380:	00000038 	andeq	r0, r0, r8, lsr r0
 384:	83080e42 	movwhi	r0, #36418	; 0x8e42
 388:	00018e02 	andeq	r8, r1, r2, lsl #28
 38c:	00000014 	andeq	r0, r0, r4, lsl r0
 390:	00000348 	andeq	r0, r0, r8, asr #6
 394:	00009320 	andeq	r9, r0, r0, lsr #6
 398:	00000038 	andeq	r0, r0, r8, lsr r0
 39c:	83080e42 	movwhi	r0, #36418	; 0x8e42
 3a0:	00018e02 	andeq	r8, r1, r2, lsl #28
 3a4:	00000018 	andeq	r0, r0, r8, lsl r0
 3a8:	00000348 	andeq	r0, r0, r8, asr #6
 3ac:	00009358 	andeq	r9, r0, r8, asr r3
 3b0:	000000cc 	andeq	r0, r0, ip, asr #1
 3b4:	83100e42 	tsthi	r0, #1056	; 0x420
 3b8:	85038404 	strhi	r8, [r3, #-1028]	; 0x404
 3bc:	00018e02 	andeq	r8, r1, r2, lsl #28
 3c0:	00000014 	andeq	r0, r0, r4, lsl r0
 3c4:	00000348 	andeq	r0, r0, r8, asr #6
 3c8:	00009424 	andeq	r9, r0, r4, lsr #8
 3cc:	0000004c 	andeq	r0, r0, ip, asr #32
 3d0:	84080e42 	strhi	r0, [r8], #-3650	; 0xe42
 3d4:	00018e02 	andeq	r8, r1, r2, lsl #28
 3d8:	00000014 	andeq	r0, r0, r4, lsl r0
 3dc:	00000348 	andeq	r0, r0, r8, asr #6
 3e0:	00009470 	andeq	r9, r0, r0, ror r4
 3e4:	00000024 	andeq	r0, r0, r4, lsr #32
 3e8:	83080e42 	movwhi	r0, #36418	; 0x8e42
 3ec:	00018e02 	andeq	r8, r1, r2, lsl #28
 3f0:	00000018 	andeq	r0, r0, r8, lsl r0
 3f4:	00000348 	andeq	r0, r0, r8, asr #6
 3f8:	00009494 	muleq	r0, r4, r4
 3fc:	000000d8 	ldrdeq	r0, [r0], -r8
 400:	84100e42 	ldrhi	r0, [r0], #-3650	; 0xe42
 404:	86038504 	strhi	r8, [r3], -r4, lsl #10
 408:	00018e02 	andeq	r8, r1, r2, lsl #28
 40c:	00000014 	andeq	r0, r0, r4, lsl r0
 410:	00000348 	andeq	r0, r0, r8, asr #6
 414:	0000956c 	andeq	r9, r0, ip, ror #10
 418:	00000038 	andeq	r0, r0, r8, lsr r0
 41c:	83080e42 	movwhi	r0, #36418	; 0x8e42
 420:	00018e02 	andeq	r8, r1, r2, lsl #28
 424:	00000014 	andeq	r0, r0, r4, lsl r0
 428:	00000348 	andeq	r0, r0, r8, asr #6
 42c:	000095a4 	andeq	r9, r0, r4, lsr #11
 430:	0000002c 	andeq	r0, r0, ip, lsr #32
 434:	83080e42 	movwhi	r0, #36418	; 0x8e42
 438:	00018e02 	andeq	r8, r1, r2, lsl #28
 43c:	00000018 	andeq	r0, r0, r8, lsl r0
 440:	00000348 	andeq	r0, r0, r8, asr #6
 444:	000095d0 	ldrdeq	r9, [r0], -r0
 448:	00000084 	andeq	r0, r0, r4, lsl #1
 44c:	83100e42 	tsthi	r0, #1056	; 0x420
 450:	85038404 	strhi	r8, [r3, #-1028]	; 0x404
 454:	00018e02 	andeq	r8, r1, r2, lsl #28
 458:	00000018 	andeq	r0, r0, r8, lsl r0
 45c:	00000348 	andeq	r0, r0, r8, asr #6
 460:	00009654 	andeq	r9, r0, r4, asr r6
 464:	00000084 	andeq	r0, r0, r4, lsl #1
 468:	83100e42 	tsthi	r0, #1056	; 0x420
 46c:	85038404 	strhi	r8, [r3, #-1028]	; 0x404
 470:	00018e02 	andeq	r8, r1, r2, lsl #28
 474:	00000014 	andeq	r0, r0, r4, lsl r0
 478:	00000348 	andeq	r0, r0, r8, asr #6
 47c:	000096d8 	ldrdeq	r9, [r0], -r8
 480:	00000084 	andeq	r0, r0, r4, lsl #1
 484:	84080e42 	strhi	r0, [r8], #-3650	; 0xe42
 488:	00018e02 	andeq	r8, r1, r2, lsl #28
 48c:	00000014 	andeq	r0, r0, r4, lsl r0
 490:	00000348 	andeq	r0, r0, r8, asr #6
 494:	0000975c 	andeq	r9, r0, ip, asr r7
 498:	00000058 	andeq	r0, r0, r8, asr r0
 49c:	84080e42 	strhi	r0, [r8], #-3650	; 0xe42
 4a0:	00018e02 	andeq	r8, r1, r2, lsl #28
 4a4:	0000000c 	andeq	r0, r0, ip
 4a8:	ffffffff 			; <UNDEFINED> instruction: 0xffffffff
 4ac:	7c020001 	stcvc	0, cr0, [r2], {1}
 4b0:	000d0c0e 	andeq	r0, sp, lr, lsl #24
 4b4:	00000018 	andeq	r0, r0, r8, lsl r0
 4b8:	000004a4 	andeq	r0, r0, r4, lsr #9
 4bc:	000097b4 			; <UNDEFINED> instruction: 0x000097b4
 4c0:	0000009c 	muleq	r0, ip, r0
 4c4:	83100e42 	tsthi	r0, #1056	; 0x420
 4c8:	85038404 	strhi	r8, [r3, #-1028]	; 0x404
 4cc:	00018e02 	andeq	r8, r1, r2, lsl #28
 4d0:	00000014 	andeq	r0, r0, r4, lsl r0
 4d4:	000004a4 	andeq	r0, r0, r4, lsr #9
 4d8:	00009850 	andeq	r9, r0, r0, asr r8
 4dc:	0000001c 	andeq	r0, r0, ip, lsl r0
 4e0:	83080e42 	movwhi	r0, #36418	; 0x8e42
 4e4:	00018e02 	andeq	r8, r1, r2, lsl #28
 4e8:	00000014 	andeq	r0, r0, r4, lsl r0
 4ec:	000004a4 	andeq	r0, r0, r4, lsr #9
 4f0:	0000986c 	andeq	r9, r0, ip, ror #16
 4f4:	00000028 	andeq	r0, r0, r8, lsr #32
 4f8:	83080e42 	movwhi	r0, #36418	; 0x8e42
 4fc:	00018e02 	andeq	r8, r1, r2, lsl #28
 500:	00000014 	andeq	r0, r0, r4, lsl r0
 504:	000004a4 	andeq	r0, r0, r4, lsr #9
 508:	00009894 	muleq	r0, r4, r8
 50c:	0000001c 	andeq	r0, r0, ip, lsl r0
 510:	83080e42 	movwhi	r0, #36418	; 0x8e42
 514:	00018e02 	andeq	r8, r1, r2, lsl #28
 518:	00000014 	andeq	r0, r0, r4, lsl r0
 51c:	000004a4 	andeq	r0, r0, r4, lsr #9
 520:	000098b0 			; <UNDEFINED> instruction: 0x000098b0
 524:	0000002c 	andeq	r0, r0, ip, lsr #32
 528:	84080e42 	strhi	r0, [r8], #-3650	; 0xe42
 52c:	00018e02 	andeq	r8, r1, r2, lsl #28
 530:	00000014 	andeq	r0, r0, r4, lsl r0
 534:	000004a4 	andeq	r0, r0, r4, lsr #9
 538:	000098dc 	ldrdeq	r9, [r0], -ip
 53c:	0000000c 	andeq	r0, r0, ip
 540:	83080e42 	movwhi	r0, #36418	; 0x8e42
 544:	00018e02 	andeq	r8, r1, r2, lsl #28
 548:	00000014 	andeq	r0, r0, r4, lsl r0
 54c:	000004a4 	andeq	r0, r0, r4, lsr #9
 550:	000098e8 	andeq	r9, r0, r8, ror #17
 554:	00000020 	andeq	r0, r0, r0, lsr #32
 558:	83080e42 	movwhi	r0, #36418	; 0x8e42
 55c:	00018e02 	andeq	r8, r1, r2, lsl #28
