
scope.elf:     file format elf32-littlearm


Disassembly of section .text:

00008000 <_start>:
    8000:	e3a0d302 	mov	sp, #134217728	; 0x8000000
    8004:	e3a0b000 	mov	fp, #0
    8008:	eb0002df 	bl	8b8c <_cstart>
    800c:	eb00030d 	bl	8c48 <rpi_reboot>

00008010 <cycles_per_sec>:
    8010:	e3500001 	cmp	r0, #1
    8014:	e92d4010 	push	{r4, lr}
    8018:	8a000006 	bhi	8038 <cycles_per_sec+0x28>
    801c:	ee1f4f3c 	mrc	15, 0, r4, cr15, cr12, {1}
    8020:	e3a03ffa 	mov	r3, #1000	; 0x3e8
    8024:	e0000093 	mul	r0, r3, r0
    8028:	eb000330 	bl	8cf0 <delay_ms>
    802c:	ee1f0f3c 	mrc	15, 0, r0, cr15, cr12, {1}
    8030:	e0640000 	rsb	r0, r4, r0
    8034:	e8bd8010 	pop	{r4, pc}
    8038:	eb000159 	bl	85a4 <rpi_reset_putc>
    803c:	e59f1010 	ldr	r1, [pc, #16]	; 8054 <cycles_per_sec+0x44>
    8040:	e59f2010 	ldr	r2, [pc, #16]	; 8058 <cycles_per_sec+0x48>
    8044:	e3a03027 	mov	r3, #39	; 0x27
    8048:	e59f000c 	ldr	r0, [pc, #12]	; 805c <cycles_per_sec+0x4c>
    804c:	eb000139 	bl	8538 <printk>
    8050:	eb0002bb 	bl	8b44 <clean_reboot>
    8054:	00009c24 	andeq	r9, r0, r4, lsr #24
    8058:	00009be4 	andeq	r9, r0, r4, ror #23
    805c:	00009bf4 	strdeq	r9, [r0], -r4

00008060 <scope>:
    8060:	e92d03f0 	push	{r4, r5, r6, r7, r8, r9}
    8064:	e59f33e8 	ldr	r3, [pc, #1000]	; 8454 <scope+0x3f4>
    8068:	e24dd030 	sub	sp, sp, #48	; 0x30
    806c:	e5935034 	ldr	r5, [r3, #52]	; 0x34
    8070:	e1a06000 	mov	r6, r0
    8074:	e5932034 	ldr	r2, [r3, #52]	; 0x34
    8078:	e1520005 	cmp	r2, r5
    807c:	0afffffc 	beq	8074 <scope+0x14>
    8080:	ee1f7f3c 	mrc	15, 0, r7, cr15, cr12, {1}
    8084:	e59f33c8 	ldr	r3, [pc, #968]	; 8454 <scope+0x3f4>
    8088:	e3a0ce7d 	mov	ip, #2000	; 0x7d0
    808c:	e3a00001 	mov	r0, #1
    8090:	e5934034 	ldr	r4, [r3, #52]	; 0x34
    8094:	e1520004 	cmp	r2, r4
    8098:	0a000004 	beq	80b0 <scope+0x50>
    809c:	ee1f8f3c 	mrc	15, 0, r8, cr15, cr12, {1}
    80a0:	e28d9030 	add	r9, sp, #48	; 0x30
    80a4:	e0892100 	add	r2, r9, r0, lsl #2
    80a8:	e502802c 	str	r8, [r2, #-44]	; 0x2c
    80ac:	e2800001 	add	r0, r0, #1
    80b0:	e5932034 	ldr	r2, [r3, #52]	; 0x34
    80b4:	e1540002 	cmp	r4, r2
    80b8:	0a000004 	beq	80d0 <scope+0x70>
    80bc:	ee1f8f3c 	mrc	15, 0, r8, cr15, cr12, {1}
    80c0:	e28d9030 	add	r9, sp, #48	; 0x30
    80c4:	e0894100 	add	r4, r9, r0, lsl #2
    80c8:	e504802c 	str	r8, [r4, #-44]	; 0x2c
    80cc:	e2800001 	add	r0, r0, #1
    80d0:	e5934034 	ldr	r4, [r3, #52]	; 0x34
    80d4:	e1520004 	cmp	r2, r4
    80d8:	0a000004 	beq	80f0 <scope+0x90>
    80dc:	ee1f8f3c 	mrc	15, 0, r8, cr15, cr12, {1}
    80e0:	e28d9030 	add	r9, sp, #48	; 0x30
    80e4:	e0892100 	add	r2, r9, r0, lsl #2
    80e8:	e502802c 	str	r8, [r2, #-44]	; 0x2c
    80ec:	e2800001 	add	r0, r0, #1
    80f0:	e5932034 	ldr	r2, [r3, #52]	; 0x34
    80f4:	e1540002 	cmp	r4, r2
    80f8:	0a000004 	beq	8110 <scope+0xb0>
    80fc:	ee1f8f3c 	mrc	15, 0, r8, cr15, cr12, {1}
    8100:	e28d9030 	add	r9, sp, #48	; 0x30
    8104:	e0894100 	add	r4, r9, r0, lsl #2
    8108:	e504802c 	str	r8, [r4, #-44]	; 0x2c
    810c:	e2800001 	add	r0, r0, #1
    8110:	e5934034 	ldr	r4, [r3, #52]	; 0x34
    8114:	e1520004 	cmp	r2, r4
    8118:	0a000004 	beq	8130 <scope+0xd0>
    811c:	ee1f8f3c 	mrc	15, 0, r8, cr15, cr12, {1}
    8120:	e28d9030 	add	r9, sp, #48	; 0x30
    8124:	e0892100 	add	r2, r9, r0, lsl #2
    8128:	e502802c 	str	r8, [r2, #-44]	; 0x2c
    812c:	e2800001 	add	r0, r0, #1
    8130:	e5932034 	ldr	r2, [r3, #52]	; 0x34
    8134:	e1540002 	cmp	r4, r2
    8138:	0a000004 	beq	8150 <scope+0xf0>
    813c:	ee1f8f3c 	mrc	15, 0, r8, cr15, cr12, {1}
    8140:	e28d9030 	add	r9, sp, #48	; 0x30
    8144:	e0894100 	add	r4, r9, r0, lsl #2
    8148:	e504802c 	str	r8, [r4, #-44]	; 0x2c
    814c:	e2800001 	add	r0, r0, #1
    8150:	e5934034 	ldr	r4, [r3, #52]	; 0x34
    8154:	e1520004 	cmp	r2, r4
    8158:	0a000004 	beq	8170 <scope+0x110>
    815c:	ee1f8f3c 	mrc	15, 0, r8, cr15, cr12, {1}
    8160:	e28d9030 	add	r9, sp, #48	; 0x30
    8164:	e0892100 	add	r2, r9, r0, lsl #2
    8168:	e502802c 	str	r8, [r2, #-44]	; 0x2c
    816c:	e2800001 	add	r0, r0, #1
    8170:	e5932034 	ldr	r2, [r3, #52]	; 0x34
    8174:	e1540002 	cmp	r4, r2
    8178:	0a000004 	beq	8190 <scope+0x130>
    817c:	ee1f8f3c 	mrc	15, 0, r8, cr15, cr12, {1}
    8180:	e28d9030 	add	r9, sp, #48	; 0x30
    8184:	e0894100 	add	r4, r9, r0, lsl #2
    8188:	e504802c 	str	r8, [r4, #-44]	; 0x2c
    818c:	e2800001 	add	r0, r0, #1
    8190:	e25cc001 	subs	ip, ip, #1
    8194:	1affffbd 	bne	8090 <scope+0x30>
    8198:	e3a03001 	mov	r3, #1
    819c:	e0055613 	and	r5, r5, r3, lsl r6
    81a0:	e1a06635 	lsr	r6, r5, r6
    81a4:	e3500000 	cmp	r0, #0
    81a8:	e0662003 	rsb	r2, r6, r3
    81ac:	0a000096 	beq	840c <scope+0x3ac>
    81b0:	e28cc001 	add	ip, ip, #1
    81b4:	e15c0000 	cmp	ip, r0
    81b8:	1afffffc 	bne	81b0 <scope+0x150>
    81bc:	e3500002 	cmp	r0, #2
    81c0:	e58d7004 	str	r7, [sp, #4]
    81c4:	e2403001 	sub	r3, r0, #1
    81c8:	9a00009e 	bls	8448 <scope+0x3e8>
    81cc:	e59dc008 	ldr	ip, [sp, #8]
    81d0:	e59d500c 	ldr	r5, [sp, #12]
    81d4:	e067700c 	rsb	r7, r7, ip
    81d8:	e3530003 	cmp	r3, #3
    81dc:	e06cc005 	rsb	ip, ip, r5
    81e0:	e5812000 	str	r2, [r1]
    81e4:	e5816008 	str	r6, [r1, #8]
    81e8:	e5817004 	str	r7, [r1, #4]
    81ec:	e581c00c 	str	ip, [r1, #12]
    81f0:	9a000088 	bls	8418 <scope+0x3b8>
    81f4:	e59dc010 	ldr	ip, [sp, #16]
    81f8:	e59d4014 	ldr	r4, [sp, #20]
    81fc:	e065500c 	rsb	r5, r5, ip
    8200:	e3530005 	cmp	r3, #5
    8204:	e06cc004 	rsb	ip, ip, r4
    8208:	e5812010 	str	r2, [r1, #16]
    820c:	e5816018 	str	r6, [r1, #24]
    8210:	e5815014 	str	r5, [r1, #20]
    8214:	e581c01c 	str	ip, [r1, #28]
    8218:	9a000081 	bls	8424 <scope+0x3c4>
    821c:	e59dc018 	ldr	ip, [sp, #24]
    8220:	e59d501c 	ldr	r5, [sp, #28]
    8224:	e064400c 	rsb	r4, r4, ip
    8228:	e3530007 	cmp	r3, #7
    822c:	e06cc005 	rsb	ip, ip, r5
    8230:	e5812020 	str	r2, [r1, #32]
    8234:	e5816028 	str	r6, [r1, #40]	; 0x28
    8238:	e5814024 	str	r4, [r1, #36]	; 0x24
    823c:	e581c02c 	str	ip, [r1, #44]	; 0x2c
    8240:	9a00007a 	bls	8430 <scope+0x3d0>
    8244:	e59d4020 	ldr	r4, [sp, #32]
    8248:	e59dc024 	ldr	ip, [sp, #36]	; 0x24
    824c:	e0655004 	rsb	r5, r5, r4
    8250:	e3530009 	cmp	r3, #9
    8254:	e064400c 	rsb	r4, r4, ip
    8258:	e5812030 	str	r2, [r1, #48]	; 0x30
    825c:	e5816038 	str	r6, [r1, #56]	; 0x38
    8260:	e5815034 	str	r5, [r1, #52]	; 0x34
    8264:	e581403c 	str	r4, [r1, #60]	; 0x3c
    8268:	9a000073 	bls	843c <scope+0x3dc>
    826c:	e59d3028 	ldr	r3, [sp, #40]	; 0x28
    8270:	e59d502c 	ldr	r5, [sp, #44]	; 0x2c
    8274:	e06c4003 	rsb	r4, ip, r3
    8278:	e0633005 	rsb	r3, r3, r5
    827c:	e3a0c00a 	mov	ip, #10
    8280:	e581304c 	str	r3, [r1, #76]	; 0x4c
    8284:	e5812040 	str	r2, [r1, #64]	; 0x40
    8288:	e5816048 	str	r6, [r1, #72]	; 0x48
    828c:	e5814044 	str	r4, [r1, #68]	; 0x44
    8290:	e1a0300c 	mov	r3, ip
    8294:	e2834001 	add	r4, r3, #1
    8298:	e28d6030 	add	r6, sp, #48	; 0x30
    829c:	e0865104 	add	r5, r6, r4, lsl #2
    82a0:	e28d7030 	add	r7, sp, #48	; 0x30
    82a4:	e515602c 	ldr	r6, [r5, #-44]	; 0x2c
    82a8:	e0875103 	add	r5, r7, r3, lsl #2
    82ac:	e515702c 	ldr	r7, [r5, #-44]	; 0x2c
    82b0:	e1500004 	cmp	r0, r4
    82b4:	e081518c 	add	r5, r1, ip, lsl #3
    82b8:	e0677006 	rsb	r7, r7, r6
    82bc:	e781218c 	str	r2, [r1, ip, lsl #3]
    82c0:	e262c001 	rsb	ip, r2, #1
    82c4:	e5857004 	str	r7, [r5, #4]
    82c8:	9a00004f 	bls	840c <scope+0x3ac>
    82cc:	e2835002 	add	r5, r3, #2
    82d0:	e28d8030 	add	r8, sp, #48	; 0x30
    82d4:	e0887105 	add	r7, r8, r5, lsl #2
    82d8:	e517702c 	ldr	r7, [r7, #-44]	; 0x2c
    82dc:	e0818184 	add	r8, r1, r4, lsl #3
    82e0:	e0666007 	rsb	r6, r6, r7
    82e4:	e1500005 	cmp	r0, r5
    82e8:	e781c184 	str	ip, [r1, r4, lsl #3]
    82ec:	e5886004 	str	r6, [r8, #4]
    82f0:	9a000045 	bls	840c <scope+0x3ac>
    82f4:	e2834003 	add	r4, r3, #3
    82f8:	e28d9030 	add	r9, sp, #48	; 0x30
    82fc:	e0896104 	add	r6, r9, r4, lsl #2
    8300:	e516602c 	ldr	r6, [r6, #-44]	; 0x2c
    8304:	e0818185 	add	r8, r1, r5, lsl #3
    8308:	e0677006 	rsb	r7, r7, r6
    830c:	e1500004 	cmp	r0, r4
    8310:	e7812185 	str	r2, [r1, r5, lsl #3]
    8314:	e5887004 	str	r7, [r8, #4]
    8318:	9a00003b 	bls	840c <scope+0x3ac>
    831c:	e2835004 	add	r5, r3, #4
    8320:	e0897105 	add	r7, r9, r5, lsl #2
    8324:	e517702c 	ldr	r7, [r7, #-44]	; 0x2c
    8328:	e0818184 	add	r8, r1, r4, lsl #3
    832c:	e0666007 	rsb	r6, r6, r7
    8330:	e1500005 	cmp	r0, r5
    8334:	e781c184 	str	ip, [r1, r4, lsl #3]
    8338:	e5886004 	str	r6, [r8, #4]
    833c:	9a000032 	bls	840c <scope+0x3ac>
    8340:	e2834005 	add	r4, r3, #5
    8344:	e0896104 	add	r6, r9, r4, lsl #2
    8348:	e516602c 	ldr	r6, [r6, #-44]	; 0x2c
    834c:	e0818185 	add	r8, r1, r5, lsl #3
    8350:	e0677006 	rsb	r7, r7, r6
    8354:	e1500004 	cmp	r0, r4
    8358:	e7812185 	str	r2, [r1, r5, lsl #3]
    835c:	e5887004 	str	r7, [r8, #4]
    8360:	9a000029 	bls	840c <scope+0x3ac>
    8364:	e2835006 	add	r5, r3, #6
    8368:	e0897105 	add	r7, r9, r5, lsl #2
    836c:	e517702c 	ldr	r7, [r7, #-44]	; 0x2c
    8370:	e0818184 	add	r8, r1, r4, lsl #3
    8374:	e0666007 	rsb	r6, r6, r7
    8378:	e1500005 	cmp	r0, r5
    837c:	e781c184 	str	ip, [r1, r4, lsl #3]
    8380:	e5886004 	str	r6, [r8, #4]
    8384:	9a000020 	bls	840c <scope+0x3ac>
    8388:	e2834007 	add	r4, r3, #7
    838c:	e0896104 	add	r6, r9, r4, lsl #2
    8390:	e516602c 	ldr	r6, [r6, #-44]	; 0x2c
    8394:	e0818185 	add	r8, r1, r5, lsl #3
    8398:	e0677006 	rsb	r7, r7, r6
    839c:	e1500004 	cmp	r0, r4
    83a0:	e7812185 	str	r2, [r1, r5, lsl #3]
    83a4:	e5887004 	str	r7, [r8, #4]
    83a8:	9a000017 	bls	840c <scope+0x3ac>
    83ac:	e2835008 	add	r5, r3, #8
    83b0:	e0897105 	add	r7, r9, r5, lsl #2
    83b4:	e517702c 	ldr	r7, [r7, #-44]	; 0x2c
    83b8:	e0818184 	add	r8, r1, r4, lsl #3
    83bc:	e0666007 	rsb	r6, r6, r7
    83c0:	e1500005 	cmp	r0, r5
    83c4:	e781c184 	str	ip, [r1, r4, lsl #3]
    83c8:	e5886004 	str	r6, [r8, #4]
    83cc:	9a00000e 	bls	840c <scope+0x3ac>
    83d0:	e2834009 	add	r4, r3, #9
    83d4:	e0896104 	add	r6, r9, r4, lsl #2
    83d8:	e516602c 	ldr	r6, [r6, #-44]	; 0x2c
    83dc:	e0818185 	add	r8, r1, r5, lsl #3
    83e0:	e0677006 	rsb	r7, r7, r6
    83e4:	e1500004 	cmp	r0, r4
    83e8:	e7812185 	str	r2, [r1, r5, lsl #3]
    83ec:	e5887004 	str	r7, [r8, #4]
    83f0:	9a000005 	bls	840c <scope+0x3ac>
    83f4:	e0893103 	add	r3, r9, r3, lsl #2
    83f8:	e5132004 	ldr	r2, [r3, #-4]
    83fc:	e0813184 	add	r3, r1, r4, lsl #3
    8400:	e0666002 	rsb	r6, r6, r2
    8404:	e781c184 	str	ip, [r1, r4, lsl #3]
    8408:	e5836004 	str	r6, [r3, #4]
    840c:	e28dd030 	add	sp, sp, #48	; 0x30
    8410:	e8bd03f0 	pop	{r4, r5, r6, r7, r8, r9}
    8414:	e12fff1e 	bx	lr
    8418:	e3a0c002 	mov	ip, #2
    841c:	e1a0300c 	mov	r3, ip
    8420:	eaffff9b 	b	8294 <scope+0x234>
    8424:	e3a0c004 	mov	ip, #4
    8428:	e1a0300c 	mov	r3, ip
    842c:	eaffff98 	b	8294 <scope+0x234>
    8430:	e3a0c006 	mov	ip, #6
    8434:	e1a0300c 	mov	r3, ip
    8438:	eaffff95 	b	8294 <scope+0x234>
    843c:	e3a0c008 	mov	ip, #8
    8440:	e1a0300c 	mov	r3, ip
    8444:	eaffff92 	b	8294 <scope+0x234>
    8448:	e3a0c000 	mov	ip, #0
    844c:	e1a0300c 	mov	r3, ip
    8450:	eaffff8f 	b	8294 <scope+0x234>
    8454:	20200000 	eorcs	r0, r0, r0

00008458 <dump_samples>:
    8458:	e92d47f0 	push	{r4, r5, r6, r7, r8, r9, sl, lr}
    845c:	e2519001 	subs	r9, r1, #1
    8460:	e24dd010 	sub	sp, sp, #16
    8464:	e1a0a000 	mov	sl, r0
    8468:	e1a08002 	mov	r8, r2
    846c:	0a00001a 	beq	84dc <dump_samples+0x84>
    8470:	e3a02000 	mov	r2, #0
    8474:	e1a01002 	mov	r1, r2
    8478:	e1a06002 	mov	r6, r2
    847c:	e1a05002 	mov	r5, r2
    8480:	e1a04008 	mov	r4, r8
    8484:	ea000001 	b	8490 <dump_samples+0x38>
    8488:	e1a01007 	mov	r1, r7
    848c:	e1a02007 	mov	r2, r7
    8490:	e1a02182 	lsl	r2, r2, #3
    8494:	e08a3002 	add	r3, sl, r2
    8498:	e5933004 	ldr	r3, [r3, #4]
    849c:	e79a2002 	ldr	r2, [sl, r2]
    84a0:	e0855003 	add	r5, r5, r3
    84a4:	e1550004 	cmp	r5, r4
    84a8:	80640005 	rsbhi	r0, r4, r5
    84ac:	90650004 	rsbls	r0, r5, r4
    84b0:	e0866000 	add	r6, r6, r0
    84b4:	e2817001 	add	r7, r1, #1
    84b8:	e58d4004 	str	r4, [sp, #4]
    84bc:	e58d0008 	str	r0, [sp, #8]
    84c0:	e58d600c 	str	r6, [sp, #12]
    84c4:	e58d5000 	str	r5, [sp]
    84c8:	e59f0014 	ldr	r0, [pc, #20]	; 84e4 <dump_samples+0x8c>
    84cc:	eb000019 	bl	8538 <printk>
    84d0:	e1570009 	cmp	r7, r9
    84d4:	e0844008 	add	r4, r4, r8
    84d8:	1affffea 	bne	8488 <dump_samples+0x30>
    84dc:	e28dd010 	add	sp, sp, #16
    84e0:	e8bd87f0 	pop	{r4, r5, r6, r7, r8, r9, sl, pc}
    84e4:	00009c2c 	andeq	r9, r0, ip, lsr #24

000084e8 <notmain>:
    84e8:	e52de004 	push	{lr}		; (str lr, [sp, #-4]!)
    84ec:	e24dd054 	sub	sp, sp, #84	; 0x54
    84f0:	eb00018b 	bl	8b24 <enable_cache>
    84f4:	e3a00015 	mov	r0, #21
    84f8:	eb000257 	bl	8e5c <gpio_set_input>
    84fc:	e3a03001 	mov	r3, #1
    8500:	ee0f3f1c 	mcr	15, 0, r3, cr15, cr12, {0}
    8504:	e3a00001 	mov	r0, #1
    8508:	ebfffec0 	bl	8010 <cycles_per_sec>
    850c:	e1a0100d 	mov	r1, sp
    8510:	e1a03000 	mov	r3, r0
    8514:	e3a0200a 	mov	r2, #10
    8518:	e3a00015 	mov	r0, #21
    851c:	ebfffecf 	bl	8060 <scope>
    8520:	e59f200c 	ldr	r2, [pc, #12]	; 8534 <notmain+0x4c>
    8524:	e1a01000 	mov	r1, r0
    8528:	e1a0000d 	mov	r0, sp
    852c:	ebffffc9 	bl	8458 <dump_samples>
    8530:	eb000183 	bl	8b44 <clean_reboot>
    8534:	00001770 	andeq	r1, r0, r0, ror r7

00008538 <printk>:
    8538:	e92d000f 	push	{r0, r1, r2, r3}
    853c:	e92d4030 	push	{r4, r5, lr}
    8540:	e24dd00c 	sub	sp, sp, #12
    8544:	e28d301c 	add	r3, sp, #28
    8548:	e58d3004 	str	r3, [sp, #4]
    854c:	e59f4034 	ldr	r4, [pc, #52]	; 8588 <printk+0x50>
    8550:	e1a00004 	mov	r0, r4
    8554:	e3a01b01 	mov	r1, #1024	; 0x400
    8558:	e59d2018 	ldr	r2, [sp, #24]
    855c:	eb0000cb 	bl	8890 <va_printk>
    8560:	e1a05000 	mov	r5, r0
    8564:	e59f3020 	ldr	r3, [pc, #32]	; 858c <printk+0x54>
    8568:	e5933000 	ldr	r3, [r3]
    856c:	e1a00004 	mov	r0, r4
    8570:	e12fff33 	blx	r3
    8574:	e1a00005 	mov	r0, r5
    8578:	e28dd00c 	add	sp, sp, #12
    857c:	e8bd4030 	pop	{r4, r5, lr}
    8580:	e28dd010 	add	sp, sp, #16
    8584:	e12fff1e 	bx	lr
    8588:	00009ea4 	andeq	r9, r0, r4, lsr #29
    858c:	00009b4c 	andeq	r9, r0, ip, asr #22

00008590 <internal_putchar>:
    8590:	e92d4010 	push	{r4, lr}
    8594:	e1a04000 	mov	r4, r0
    8598:	eb00051f 	bl	9a1c <uart_putc>
    859c:	e1a00004 	mov	r0, r4
    85a0:	e8bd8010 	pop	{r4, pc}

000085a4 <rpi_reset_putc>:
    85a4:	e59f2008 	ldr	r2, [pc, #8]	; 85b4 <rpi_reset_putc+0x10>
    85a8:	e59f3008 	ldr	r3, [pc, #8]	; 85b8 <rpi_reset_putc+0x14>
    85ac:	e5832000 	str	r2, [r3]
    85b0:	e12fff1e 	bx	lr
    85b4:	00008590 	muleq	r0, r0, r5
    85b8:	00009b48 	andeq	r9, r0, r8, asr #22

000085bc <rpi_set_putc>:
    85bc:	e59f3004 	ldr	r3, [pc, #4]	; 85c8 <rpi_set_putc+0xc>
    85c0:	e5830000 	str	r0, [r3]
    85c4:	e12fff1e 	bx	lr
    85c8:	00009b48 	andeq	r9, r0, r8, asr #22

000085cc <internal_putk>:
    85cc:	e92d4038 	push	{r3, r4, r5, lr}
    85d0:	e1a04000 	mov	r4, r0
    85d4:	e59f5020 	ldr	r5, [pc, #32]	; 85fc <internal_putk+0x30>
    85d8:	ea000002 	b	85e8 <internal_putk+0x1c>
    85dc:	e5953000 	ldr	r3, [r5]
    85e0:	e12fff33 	blx	r3
    85e4:	e2844001 	add	r4, r4, #1
    85e8:	e5d40000 	ldrb	r0, [r4]
    85ec:	e3500000 	cmp	r0, #0
    85f0:	1afffff9 	bne	85dc <internal_putk+0x10>
    85f4:	e3a00001 	mov	r0, #1
    85f8:	e8bd8038 	pop	{r3, r4, r5, pc}
    85fc:	00009b48 	andeq	r9, r0, r8, asr #22

00008600 <isdigit>:
    8600:	e2400030 	sub	r0, r0, #48	; 0x30
    8604:	e3500009 	cmp	r0, #9
    8608:	83a00000 	movhi	r0, #0
    860c:	93a00001 	movls	r0, #1
    8610:	e12fff1e 	bx	lr

00008614 <pad>:
    8614:	e0611000 	rsb	r1, r1, r0
    8618:	e3a03020 	mov	r3, #32
    861c:	ea000002 	b	862c <pad+0x18>
    8620:	e5c03000 	strb	r3, [r0]
    8624:	e2811001 	add	r1, r1, #1
    8628:	e2800001 	add	r0, r0, #1
    862c:	e1510002 	cmp	r1, r2
    8630:	bafffffa 	blt	8620 <pad+0xc>
    8634:	e3a03000 	mov	r3, #0
    8638:	e5c03000 	strb	r3, [r0]
    863c:	e12fff1e 	bx	lr

00008640 <reverse>:
    8640:	e063c002 	rsb	ip, r3, r2
    8644:	e28cc001 	add	ip, ip, #1
    8648:	e15c0001 	cmp	ip, r1
    864c:	c061100c 	rsbgt	r1, r1, ip
    8650:	c0833001 	addgt	r3, r3, r1
    8654:	e2422001 	sub	r2, r2, #1
    8658:	e1a01000 	mov	r1, r0
    865c:	ea000002 	b	866c <reverse+0x2c>
    8660:	e452c001 	ldrb	ip, [r2], #-1
    8664:	e5c1c000 	strb	ip, [r1]
    8668:	e2811001 	add	r1, r1, #1
    866c:	e1520003 	cmp	r2, r3
    8670:	2afffffa 	bcs	8660 <reverse+0x20>
    8674:	e3a03000 	mov	r3, #0
    8678:	e5c13000 	strb	r3, [r1]
    867c:	e12fff1e 	bx	lr

00008680 <emit>:
    8680:	e92d41f0 	push	{r4, r5, r6, r7, r8, lr}
    8684:	e24dd048 	sub	sp, sp, #72	; 0x48
    8688:	e1a05001 	mov	r5, r1
    868c:	e1a04002 	mov	r4, r2
    8690:	e59d2060 	ldr	r2, [sp, #96]	; 0x60
    8694:	e1520004 	cmp	r2, r4
    8698:	c2442001 	subgt	r2, r4, #1
    869c:	e1a0c003 	mov	ip, r3
    86a0:	e2400002 	sub	r0, r0, #2
    86a4:	e350000e 	cmp	r0, #14
    86a8:	979ff100 	ldrls	pc, [pc, r0, lsl #2]
    86ac:	ea000042 	b	87bc <emit+0x13c>
    86b0:	00008794 	muleq	r0, r4, r7
    86b4:	000087bc 			; <UNDEFINED> instruction: 0x000087bc
    86b8:	000087bc 			; <UNDEFINED> instruction: 0x000087bc
    86bc:	000087bc 			; <UNDEFINED> instruction: 0x000087bc
    86c0:	000087bc 			; <UNDEFINED> instruction: 0x000087bc
    86c4:	000087bc 			; <UNDEFINED> instruction: 0x000087bc
    86c8:	00008788 	andeq	r8, r0, r8, lsl #15
    86cc:	000087bc 			; <UNDEFINED> instruction: 0x000087bc
    86d0:	000086ec 	andeq	r8, r0, ip, ror #13
    86d4:	000087bc 			; <UNDEFINED> instruction: 0x000087bc
    86d8:	000087bc 			; <UNDEFINED> instruction: 0x000087bc
    86dc:	000087bc 			; <UNDEFINED> instruction: 0x000087bc
    86e0:	000087bc 			; <UNDEFINED> instruction: 0x000087bc
    86e4:	000087bc 			; <UNDEFINED> instruction: 0x000087bc
    86e8:	00008760 	andeq	r8, r0, r0, ror #14
    86ec:	e59d1064 	ldr	r1, [sp, #100]	; 0x64
    86f0:	e2911000 	adds	r1, r1, #0
    86f4:	13a01001 	movne	r1, #1
    86f8:	e0111fa3 	ands	r1, r1, r3, lsr #31
    86fc:	1263c000 	rsbne	ip, r3, #0
    8700:	13a08001 	movne	r8, #1
    8704:	03a08000 	moveq	r8, #0
    8708:	e28d1008 	add	r1, sp, #8
    870c:	e59f70f4 	ldr	r7, [pc, #244]	; 8808 <emit+0x188>
    8710:	e59f60f4 	ldr	r6, [pc, #244]	; 880c <emit+0x18c>
    8714:	ea000000 	b	871c <emit+0x9c>
    8718:	e1a01003 	mov	r1, r3
    871c:	e2813001 	add	r3, r1, #1
    8720:	e08e0c97 	umull	r0, lr, r7, ip
    8724:	e1a0e1ae 	lsr	lr, lr, #3
    8728:	e1a0000e 	mov	r0, lr
    872c:	e08ee10e 	add	lr, lr, lr, lsl #2
    8730:	e1a0e08e 	lsl	lr, lr, #1
    8734:	e06ee00c 	rsb	lr, lr, ip
    8738:	e7d6c00e 	ldrb	ip, [r6, lr]
    873c:	e5c1c000 	strb	ip, [r1]
    8740:	e1a0c000 	mov	ip, r0
    8744:	e3500000 	cmp	r0, #0
    8748:	1afffff2 	bne	8718 <emit+0x98>
    874c:	e3580000 	cmp	r8, #0
    8750:	12813002 	addne	r3, r1, #2
    8754:	13a0002d 	movne	r0, #45	; 0x2d
    8758:	15c10001 	strbne	r0, [r1, #1]
    875c:	ea00001f 	b	87e0 <emit+0x160>
    8760:	e28de008 	add	lr, sp, #8
    8764:	e59f00a4 	ldr	r0, [pc, #164]	; 8810 <emit+0x190>
    8768:	e28e3001 	add	r3, lr, #1
    876c:	e20c100f 	and	r1, ip, #15
    8770:	e7d01001 	ldrb	r1, [r0, r1]
    8774:	e5ce1000 	strb	r1, [lr]
    8778:	e1a0e003 	mov	lr, r3
    877c:	e1b0c22c 	lsrs	ip, ip, #4
    8780:	1afffff8 	bne	8768 <emit+0xe8>
    8784:	ea000015 	b	87e0 <emit+0x160>
    8788:	e5cd3008 	strb	r3, [sp, #8]
    878c:	e28d3009 	add	r3, sp, #9
    8790:	ea000012 	b	87e0 <emit+0x160>
    8794:	e28de008 	add	lr, sp, #8
    8798:	e59f0074 	ldr	r0, [pc, #116]	; 8814 <emit+0x194>
    879c:	e28e3001 	add	r3, lr, #1
    87a0:	e20c1001 	and	r1, ip, #1
    87a4:	e7d01001 	ldrb	r1, [r0, r1]
    87a8:	e5ce1000 	strb	r1, [lr]
    87ac:	e1a0e003 	mov	lr, r3
    87b0:	e1b0c0ac 	lsrs	ip, ip, #1
    87b4:	1afffff8 	bne	879c <emit+0x11c>
    87b8:	ea000008 	b	87e0 <emit+0x160>
    87bc:	ebffff78 	bl	85a4 <rpi_reset_putc>
    87c0:	e59f3050 	ldr	r3, [pc, #80]	; 8818 <emit+0x198>
    87c4:	e58d3000 	str	r3, [sp]
    87c8:	e59f004c 	ldr	r0, [pc, #76]	; 881c <emit+0x19c>
    87cc:	e59f104c 	ldr	r1, [pc, #76]	; 8820 <emit+0x1a0>
    87d0:	e59f204c 	ldr	r2, [pc, #76]	; 8824 <emit+0x1a4>
    87d4:	e3a03075 	mov	r3, #117	; 0x75
    87d8:	ebffff56 	bl	8538 <printk>
    87dc:	eb0000d8 	bl	8b44 <clean_reboot>
    87e0:	e1a00003 	mov	r0, r3
    87e4:	e28d1008 	add	r1, sp, #8
    87e8:	ebffff89 	bl	8614 <pad>
    87ec:	e1a02000 	mov	r2, r0
    87f0:	e1a00005 	mov	r0, r5
    87f4:	e1a01004 	mov	r1, r4
    87f8:	e28d3008 	add	r3, sp, #8
    87fc:	ebffff8f 	bl	8640 <reverse>
    8800:	e28dd048 	add	sp, sp, #72	; 0x48
    8804:	e8bd81f0 	pop	{r4, r5, r6, r7, r8, pc}
    8808:	cccccccd 	stclgt	12, cr12, [ip], {205}	; 0xcd
    880c:	00009cb8 			; <UNDEFINED> instruction: 0x00009cb8
    8810:	00009cc4 	andeq	r9, r0, r4, asr #25
    8814:	00009cd8 	ldrdeq	r9, [r0], -r8
    8818:	00009cb4 			; <UNDEFINED> instruction: 0x00009cb4
    881c:	00009c8c 	andeq	r9, r0, ip, lsl #25
    8820:	00009ca0 	andeq	r9, r0, r0, lsr #25
    8824:	00009c68 	andeq	r9, r0, r8, ror #24

00008828 <rpi_set_output>:
    8828:	e52de004 	push	{lr}		; (str lr, [sp, #-4]!)
    882c:	e24dd00c 	sub	sp, sp, #12
    8830:	e3500000 	cmp	r0, #0
    8834:	1a000008 	bne	885c <rpi_set_output+0x34>
    8838:	ebffff59 	bl	85a4 <rpi_reset_putc>
    883c:	e59f3034 	ldr	r3, [pc, #52]	; 8878 <rpi_set_output+0x50>
    8840:	e58d3000 	str	r3, [sp]
    8844:	e59f0030 	ldr	r0, [pc, #48]	; 887c <rpi_set_output+0x54>
    8848:	e59f1030 	ldr	r1, [pc, #48]	; 8880 <rpi_set_output+0x58>
    884c:	e59f2030 	ldr	r2, [pc, #48]	; 8884 <rpi_set_output+0x5c>
    8850:	e3a03020 	mov	r3, #32
    8854:	ebffff37 	bl	8538 <printk>
    8858:	eb0000b9 	bl	8b44 <clean_reboot>
    885c:	e59f3024 	ldr	r3, [pc, #36]	; 8888 <rpi_set_output+0x60>
    8860:	e5830000 	str	r0, [r3]
    8864:	e3510000 	cmp	r1, #0
    8868:	159f301c 	ldrne	r3, [pc, #28]	; 888c <rpi_set_output+0x64>
    886c:	15831000 	strne	r1, [r3]
    8870:	e28dd00c 	add	sp, sp, #12
    8874:	e49df004 	pop	{pc}		; (ldr pc, [sp], #4)
    8878:	00009cdc 	ldrdeq	r9, [r0], -ip
    887c:	00009c8c 	andeq	r9, r0, ip, lsl #25
    8880:	00009ca0 	andeq	r9, r0, r0, lsr #25
    8884:	00009c70 	andeq	r9, r0, r0, ror ip
    8888:	00009b48 	andeq	r9, r0, r8, asr #22
    888c:	00009b4c 	andeq	r9, r0, ip, asr #22

00008890 <va_printk>:
    8890:	e92d4ff0 	push	{r4, r5, r6, r7, r8, r9, sl, fp, lr}
    8894:	e24dd08c 	sub	sp, sp, #140	; 0x8c
    8898:	e1a0a000 	mov	sl, r0
    889c:	e1a09003 	mov	r9, r3
    88a0:	e2411001 	sub	r1, r1, #1
    88a4:	e0808001 	add	r8, r0, r1
    88a8:	e3a03000 	mov	r3, #0
    88ac:	e5c03000 	strb	r3, [r0]
    88b0:	e1a04000 	mov	r4, r0
    88b4:	e1a0b003 	mov	fp, r3
    88b8:	ea000088 	b	8ae0 <va_printk+0x250>
    88bc:	e3530025 	cmp	r3, #37	; 0x25
    88c0:	12822001 	addne	r2, r2, #1
    88c4:	15c43000 	strbne	r3, [r4]
    88c8:	12844001 	addne	r4, r4, #1
    88cc:	1a000083 	bne	8ae0 <va_printk+0x250>
    88d0:	e5d21001 	ldrb	r1, [r2, #1]
    88d4:	e3510025 	cmp	r1, #37	; 0x25
    88d8:	05c43000 	strbeq	r3, [r4]
    88dc:	02822002 	addeq	r2, r2, #2
    88e0:	02844001 	addeq	r4, r4, #1
    88e4:	0a00007d 	beq	8ae0 <va_printk+0x250>
    88e8:	e2826001 	add	r6, r2, #1
    88ec:	e1a0700b 	mov	r7, fp
    88f0:	ea000004 	b	8908 <va_printk+0x78>
    88f4:	e0877107 	add	r7, r7, r7, lsl #2
    88f8:	e1a07087 	lsl	r7, r7, #1
    88fc:	e0877005 	add	r7, r7, r5
    8900:	e2477030 	sub	r7, r7, #48	; 0x30
    8904:	e2866001 	add	r6, r6, #1
    8908:	e5d65000 	ldrb	r5, [r6]
    890c:	e1a00005 	mov	r0, r5
    8910:	ebffff3a 	bl	8600 <isdigit>
    8914:	e3500000 	cmp	r0, #0
    8918:	1afffff5 	bne	88f4 <va_printk+0x64>
    891c:	e357001f 	cmp	r7, #31
    8920:	9a000008 	bls	8948 <va_printk+0xb8>
    8924:	ebffff1e 	bl	85a4 <rpi_reset_putc>
    8928:	e59f31dc 	ldr	r3, [pc, #476]	; 8b0c <va_printk+0x27c>
    892c:	e58d3000 	str	r3, [sp]
    8930:	e59f01d8 	ldr	r0, [pc, #472]	; 8b10 <va_printk+0x280>
    8934:	e59f11d8 	ldr	r1, [pc, #472]	; 8b14 <va_printk+0x284>
    8938:	e59f21d8 	ldr	r2, [pc, #472]	; 8b18 <va_printk+0x288>
    893c:	e3a03092 	mov	r3, #146	; 0x92
    8940:	ebfffefc 	bl	8538 <printk>
    8944:	eb00007e 	bl	8b44 <clean_reboot>
    8948:	e2455062 	sub	r5, r5, #98	; 0x62
    894c:	e3550016 	cmp	r5, #22
    8950:	979ff105 	ldrls	pc, [pc, r5, lsl #2]
    8954:	ea00004e 	b	8a94 <va_printk+0x204>
    8958:	00008a40 	andeq	r8, r0, r0, asr #20
    895c:	00008a70 	andeq	r8, r0, r0, ror sl
    8960:	000089d0 	ldrdeq	r8, [r0], -r0
    8964:	00008a94 	muleq	r0, r4, sl
    8968:	000089b4 			; <UNDEFINED> instruction: 0x000089b4
    896c:	00008a94 	muleq	r0, r4, sl
    8970:	00008a94 	muleq	r0, r4, sl
    8974:	00008a94 	muleq	r0, r4, sl
    8978:	00008a94 	muleq	r0, r4, sl
    897c:	00008a94 	muleq	r0, r4, sl
    8980:	00008a94 	muleq	r0, r4, sl
    8984:	00008a94 	muleq	r0, r4, sl
    8988:	00008a94 	muleq	r0, r4, sl
    898c:	00008a94 	muleq	r0, r4, sl
    8990:	00008a1c 	andeq	r8, r0, ip, lsl sl
    8994:	00008a94 	muleq	r0, r4, sl
    8998:	00008a94 	muleq	r0, r4, sl
    899c:	00008a64 	andeq	r8, r0, r4, ror #20
    89a0:	00008a94 	muleq	r0, r4, sl
    89a4:	000089f8 	strdeq	r8, [r0], -r8	; <UNPREDICTABLE>
    89a8:	00008a94 	muleq	r0, r4, sl
    89ac:	00008a94 	muleq	r0, r4, sl
    89b0:	00008a1c 	andeq	r8, r0, ip, lsl sl
    89b4:	ebfffefa 	bl	85a4 <rpi_reset_putc>
    89b8:	e59f015c 	ldr	r0, [pc, #348]	; 8b1c <va_printk+0x28c>
    89bc:	e59f1150 	ldr	r1, [pc, #336]	; 8b14 <va_printk+0x284>
    89c0:	e59f2150 	ldr	r2, [pc, #336]	; 8b18 <va_printk+0x288>
    89c4:	e3a03098 	mov	r3, #152	; 0x98
    89c8:	ebfffeda 	bl	8538 <printk>
    89cc:	eb00005c 	bl	8b44 <clean_reboot>
    89d0:	e5993000 	ldr	r3, [r9]
    89d4:	e2899004 	add	r9, r9, #4
    89d8:	e58d7000 	str	r7, [sp]
    89dc:	e3a02001 	mov	r2, #1
    89e0:	e58d2004 	str	r2, [sp, #4]
    89e4:	e3a0000a 	mov	r0, #10
    89e8:	e28d1008 	add	r1, sp, #8
    89ec:	e3a02080 	mov	r2, #128	; 0x80
    89f0:	ebffff22 	bl	8680 <emit>
    89f4:	ea00002f 	b	8ab8 <va_printk+0x228>
    89f8:	e5993000 	ldr	r3, [r9]
    89fc:	e2899004 	add	r9, r9, #4
    8a00:	e58d7000 	str	r7, [sp]
    8a04:	e58db004 	str	fp, [sp, #4]
    8a08:	e3a0000a 	mov	r0, #10
    8a0c:	e28d1008 	add	r1, sp, #8
    8a10:	e3a02080 	mov	r2, #128	; 0x80
    8a14:	ebffff19 	bl	8680 <emit>
    8a18:	ea000026 	b	8ab8 <va_printk+0x228>
    8a1c:	e5993000 	ldr	r3, [r9]
    8a20:	e2899004 	add	r9, r9, #4
    8a24:	e58d7000 	str	r7, [sp]
    8a28:	e58db004 	str	fp, [sp, #4]
    8a2c:	e3a00010 	mov	r0, #16
    8a30:	e28d1008 	add	r1, sp, #8
    8a34:	e3a02080 	mov	r2, #128	; 0x80
    8a38:	ebffff10 	bl	8680 <emit>
    8a3c:	ea00001d 	b	8ab8 <va_printk+0x228>
    8a40:	e5993000 	ldr	r3, [r9]
    8a44:	e2899004 	add	r9, r9, #4
    8a48:	e58d7000 	str	r7, [sp]
    8a4c:	e58db004 	str	fp, [sp, #4]
    8a50:	e3a00002 	mov	r0, #2
    8a54:	e28d1008 	add	r1, sp, #8
    8a58:	e3a02080 	mov	r2, #128	; 0x80
    8a5c:	ebffff07 	bl	8680 <emit>
    8a60:	ea000014 	b	8ab8 <va_printk+0x228>
    8a64:	e5990000 	ldr	r0, [r9]
    8a68:	e2899004 	add	r9, r9, #4
    8a6c:	ea000011 	b	8ab8 <va_printk+0x228>
    8a70:	e5993000 	ldr	r3, [r9]
    8a74:	e2899004 	add	r9, r9, #4
    8a78:	e58d7000 	str	r7, [sp]
    8a7c:	e58db004 	str	fp, [sp, #4]
    8a80:	e3a00008 	mov	r0, #8
    8a84:	e08d1000 	add	r1, sp, r0
    8a88:	e3a02080 	mov	r2, #128	; 0x80
    8a8c:	ebfffefb 	bl	8680 <emit>
    8a90:	ea000008 	b	8ab8 <va_printk+0x228>
    8a94:	ebfffec2 	bl	85a4 <rpi_reset_putc>
    8a98:	e5d63000 	ldrb	r3, [r6]
    8a9c:	e58d3000 	str	r3, [sp]
    8aa0:	e59f0078 	ldr	r0, [pc, #120]	; 8b20 <va_printk+0x290>
    8aa4:	e59f1068 	ldr	r1, [pc, #104]	; 8b14 <va_printk+0x284>
    8aa8:	e59f2068 	ldr	r2, [pc, #104]	; 8b18 <va_printk+0x288>
    8aac:	e3a030b9 	mov	r3, #185	; 0xb9
    8ab0:	ebfffea0 	bl	8538 <printk>
    8ab4:	eb000022 	bl	8b44 <clean_reboot>
    8ab8:	e2862001 	add	r2, r6, #1
    8abc:	ea000002 	b	8acc <va_printk+0x23c>
    8ac0:	e2800001 	add	r0, r0, #1
    8ac4:	e5c43000 	strb	r3, [r4]
    8ac8:	e2844001 	add	r4, r4, #1
    8acc:	e1540008 	cmp	r4, r8
    8ad0:	2a000002 	bcs	8ae0 <va_printk+0x250>
    8ad4:	e5d03000 	ldrb	r3, [r0]
    8ad8:	e3530000 	cmp	r3, #0
    8adc:	1afffff7 	bne	8ac0 <va_printk+0x230>
    8ae0:	e5d23000 	ldrb	r3, [r2]
    8ae4:	e3530000 	cmp	r3, #0
    8ae8:	0a000001 	beq	8af4 <va_printk+0x264>
    8aec:	e1540008 	cmp	r4, r8
    8af0:	3affff71 	bcc	88bc <va_printk+0x2c>
    8af4:	e2840001 	add	r0, r4, #1
    8af8:	e3a03000 	mov	r3, #0
    8afc:	e5c43000 	strb	r3, [r4]
    8b00:	e06a0000 	rsb	r0, sl, r0
    8b04:	e28dd08c 	add	sp, sp, #140	; 0x8c
    8b08:	e8bd8ff0 	pop	{r4, r5, r6, r7, r8, r9, sl, fp, pc}
    8b0c:	00009ce4 	andeq	r9, r0, r4, ror #25
    8b10:	00009c8c 	andeq	r9, r0, ip, lsl #25
    8b14:	00009ca0 	andeq	r9, r0, r0, lsr #25
    8b18:	00009c80 	andeq	r9, r0, r0, lsl #25
    8b1c:	00009cf0 	strdeq	r9, [r0], -r0
    8b20:	00009d18 	andeq	r9, r0, r8, lsl sp

00008b24 <enable_cache>:
    8b24:	ee113f10 	mrc	15, 0, r3, cr1, cr0, {0}
    8b28:	e3833b06 	orr	r3, r3, #6144	; 0x1800
    8b2c:	ee013f10 	mcr	15, 0, r3, cr1, cr0, {0}
    8b30:	e12fff1e 	bx	lr

00008b34 <disable_cache>:
    8b34:	ee113f10 	mrc	15, 0, r3, cr1, cr0, {0}
    8b38:	e3c33b06 	bic	r3, r3, #6144	; 0x1800
    8b3c:	ee013f10 	mcr	15, 0, r3, cr1, cr0, {0}
    8b40:	e12fff1e 	bx	lr

00008b44 <clean_reboot>:
    8b44:	e92d4008 	push	{r3, lr}
    8b48:	e59f3014 	ldr	r3, [pc, #20]	; 8b64 <clean_reboot+0x20>
    8b4c:	e5933000 	ldr	r3, [r3]
    8b50:	e59f0010 	ldr	r0, [pc, #16]	; 8b68 <clean_reboot+0x24>
    8b54:	e12fff33 	blx	r3
    8b58:	e3a00064 	mov	r0, #100	; 0x64
    8b5c:	eb000063 	bl	8cf0 <delay_ms>
    8b60:	eb000038 	bl	8c48 <rpi_reboot>
    8b64:	00009b4c 	andeq	r9, r0, ip, asr #22
    8b68:	00009d50 	andeq	r9, r0, r0, asr sp

00008b6c <internal_sw_putchar>:
    8b6c:	e92d4010 	push	{r4, lr}
    8b70:	e1a04000 	mov	r4, r0
    8b74:	e59f000c 	ldr	r0, [pc, #12]	; 8b88 <internal_sw_putchar+0x1c>
    8b78:	e6ef1074 	uxtb	r1, r4
    8b7c:	eb0001cd 	bl	92b8 <sw_uart_putc>
    8b80:	e1a00004 	mov	r0, r4
    8b84:	e8bd8010 	pop	{r4, pc}
    8b88:	0000a2a4 	andeq	sl, r0, r4, lsr #5

00008b8c <_cstart>:
    8b8c:	e92d4008 	push	{r3, lr}
    8b90:	e59f3068 	ldr	r3, [pc, #104]	; 8c00 <_cstart+0x74>
    8b94:	e59f2068 	ldr	r2, [pc, #104]	; 8c04 <_cstart+0x78>
    8b98:	e3a01000 	mov	r1, #0
    8b9c:	ea000001 	b	8ba8 <_cstart+0x1c>
    8ba0:	e5831000 	str	r1, [r3]
    8ba4:	e2833004 	add	r3, r3, #4
    8ba8:	e1530002 	cmp	r3, r2
    8bac:	3afffffb 	bcc	8ba0 <_cstart+0x14>
    8bb0:	eb0003d2 	bl	9b00 <cb_get_block>
    8bb4:	e3500000 	cmp	r0, #0
    8bb8:	0a00000e 	beq	8bf8 <_cstart+0x6c>
    8bbc:	e5d02004 	ldrb	r2, [r0, #4]
    8bc0:	e3520002 	cmp	r2, #2
    8bc4:	1a00000b 	bne	8bf8 <_cstart+0x6c>
    8bc8:	e59f1038 	ldr	r1, [pc, #56]	; 8c08 <_cstart+0x7c>
    8bcc:	e59f2038 	ldr	r2, [pc, #56]	; 8c0c <_cstart+0x80>
    8bd0:	e5821000 	str	r1, [r2]
    8bd4:	e59fc034 	ldr	ip, [pc, #52]	; 8c10 <_cstart+0x84>
    8bd8:	e2803008 	add	r3, r0, #8
    8bdc:	e8930007 	ldm	r3, {r0, r1, r2}
    8be0:	e88c0007 	stm	ip, {r0, r1, r2}
    8be4:	e1a0000c 	mov	r0, ip
    8be8:	e59f1024 	ldr	r1, [pc, #36]	; 8c14 <_cstart+0x88>
    8bec:	eb000314 	bl	9844 <sw_uart_printk>
    8bf0:	e59f0020 	ldr	r0, [pc, #32]	; 8c18 <_cstart+0x8c>
    8bf4:	ebfffe4f 	bl	8538 <printk>
    8bf8:	ebfffe3a 	bl	84e8 <notmain>
    8bfc:	eb000011 	bl	8c48 <rpi_reboot>
    8c00:	00009ea4 	andeq	r9, r0, r4, lsr #29
    8c04:	0000a2b0 			; <UNDEFINED> instruction: 0x0000a2b0
    8c08:	00008b6c 	andeq	r8, r0, ip, ror #22
    8c0c:	00009b48 	andeq	r9, r0, r8, asr #22
    8c10:	0000a2a4 	andeq	sl, r0, r4, lsr #5
    8c14:	00009d5c 	andeq	r9, r0, ip, asr sp
    8c18:	00009d80 	andeq	r9, r0, r0, lsl #27

00008c1c <at_user_level>:
    8c1c:	e10f0000 	mrs	r0, CPSR
    8c20:	e200001f 	and	r0, r0, #31
    8c24:	e3500010 	cmp	r0, #16
    8c28:	13a00000 	movne	r0, #0
    8c2c:	03a00001 	moveq	r0, #1
    8c30:	e12fff1e 	bx	lr

00008c34 <set_user_level>:
    8c34:	e10f3000 	mrs	r3, CPSR
    8c38:	e3c3301f 	bic	r3, r3, #31
    8c3c:	e3833010 	orr	r3, r3, #16
    8c40:	e129f003 	msr	CPSR_fc, r3
    8c44:	e12fff1e 	bx	lr

00008c48 <rpi_reboot>:
    8c48:	e92d4008 	push	{r3, lr}
    8c4c:	ebfffff2 	bl	8c1c <at_user_level>
    8c50:	e3500000 	cmp	r0, #0
    8c54:	0a000000 	beq	8c5c <rpi_reboot+0x14>
    8c58:	ebfffff5 	bl	8c34 <set_user_level>
    8c5c:	e3a0001e 	mov	r0, #30
    8c60:	eb000022 	bl	8cf0 <delay_ms>
    8c64:	e59f0014 	ldr	r0, [pc, #20]	; 8c80 <rpi_reboot+0x38>
    8c68:	e59f1014 	ldr	r1, [pc, #20]	; 8c84 <rpi_reboot+0x3c>
    8c6c:	eb000388 	bl	9a94 <PUT32>
    8c70:	e59f0010 	ldr	r0, [pc, #16]	; 8c88 <rpi_reboot+0x40>
    8c74:	e59f1010 	ldr	r1, [pc, #16]	; 8c8c <rpi_reboot+0x44>
    8c78:	eb000385 	bl	9a94 <PUT32>
    8c7c:	eafffffe 	b	8c7c <rpi_reboot+0x34>
    8c80:	20100024 	andscs	r0, r0, r4, lsr #32
    8c84:	5a000001 	bpl	8c90 <delay_cycles>
    8c88:	2010001c 	andscs	r0, r0, ip, lsl r0
    8c8c:	5a000020 	bpl	8d14 <delay_sec+0x10>

00008c90 <delay_cycles>:
    8c90:	ea000001 	b	8c9c <delay_cycles+0xc>
    8c94:	e2811000 	add	r1, r1, #0
    8c98:	e1a00003 	mov	r0, r3
    8c9c:	e2403001 	sub	r3, r0, #1
    8ca0:	e3500000 	cmp	r0, #0
    8ca4:	1afffffa 	bne	8c94 <delay_cycles+0x4>
    8ca8:	e12fff1e 	bx	lr

00008cac <timer_get_usec_raw>:
    8cac:	e92d4008 	push	{r3, lr}
    8cb0:	e59f0004 	ldr	r0, [pc, #4]	; 8cbc <timer_get_usec_raw+0x10>
    8cb4:	eb000382 	bl	9ac4 <GET32>
    8cb8:	e8bd8008 	pop	{r3, pc}
    8cbc:	20003004 	andcs	r3, r0, r4

00008cc0 <timer_get_usec>:
    8cc0:	e92d4008 	push	{r3, lr}
    8cc4:	ebfffff8 	bl	8cac <timer_get_usec_raw>
    8cc8:	e8bd8008 	pop	{r3, pc}

00008ccc <delay_us>:
    8ccc:	e92d4038 	push	{r3, r4, r5, lr}
    8cd0:	e1a05000 	mov	r5, r0
    8cd4:	ebfffff9 	bl	8cc0 <timer_get_usec>
    8cd8:	e1a04000 	mov	r4, r0
    8cdc:	ebfffff7 	bl	8cc0 <timer_get_usec>
    8ce0:	e0640000 	rsb	r0, r4, r0
    8ce4:	e1500005 	cmp	r0, r5
    8ce8:	3afffffb 	bcc	8cdc <delay_us+0x10>
    8cec:	e8bd8038 	pop	{r3, r4, r5, pc}

00008cf0 <delay_ms>:
    8cf0:	e92d4008 	push	{r3, lr}
    8cf4:	e3a03ffa 	mov	r3, #1000	; 0x3e8
    8cf8:	e0000093 	mul	r0, r3, r0
    8cfc:	ebfffff2 	bl	8ccc <delay_us>
    8d00:	e8bd8008 	pop	{r3, pc}

00008d04 <delay_sec>:
    8d04:	e92d4008 	push	{r3, lr}
    8d08:	e3a03ffa 	mov	r3, #1000	; 0x3e8
    8d0c:	e0000093 	mul	r0, r3, r0
    8d10:	ebfffff6 	bl	8cf0 <delay_ms>
    8d14:	e8bd8008 	pop	{r3, pc}

00008d18 <gpio_set_output>:
    8d18:	e92d4038 	push	{r3, r4, r5, lr}
    8d1c:	e1a04000 	mov	r4, r0
    8d20:	e350001f 	cmp	r0, #31
    8d24:	88bd8038 	pophi	{r3, r4, r5, pc}
    8d28:	e59f30b4 	ldr	r3, [pc, #180]	; 8de4 <gpio_set_output+0xcc>
    8d2c:	e0832093 	umull	r2, r3, r3, r0
    8d30:	e1a031a3 	lsr	r3, r3, #3
    8d34:	e3530005 	cmp	r3, #5
    8d38:	979ff103 	ldrls	pc, [pc, r3, lsl #2]
    8d3c:	ea000017 	b	8da0 <gpio_set_output+0x88>
    8d40:	00008d58 	andeq	r8, r0, r8, asr sp
    8d44:	00008d64 	andeq	r8, r0, r4, ror #26
    8d48:	00008d70 	andeq	r8, r0, r0, ror sp
    8d4c:	00008d7c 	andeq	r8, r0, ip, ror sp
    8d50:	00008d88 	andeq	r8, r0, r8, lsl #27
    8d54:	00008d94 	muleq	r0, r4, sp
    8d58:	e59f3088 	ldr	r3, [pc, #136]	; 8de8 <gpio_set_output+0xd0>
    8d5c:	e5935000 	ldr	r5, [r3]
    8d60:	ea00000f 	b	8da4 <gpio_set_output+0x8c>
    8d64:	e59f307c 	ldr	r3, [pc, #124]	; 8de8 <gpio_set_output+0xd0>
    8d68:	e5935004 	ldr	r5, [r3, #4]
    8d6c:	ea00000c 	b	8da4 <gpio_set_output+0x8c>
    8d70:	e59f3070 	ldr	r3, [pc, #112]	; 8de8 <gpio_set_output+0xd0>
    8d74:	e5935008 	ldr	r5, [r3, #8]
    8d78:	ea000009 	b	8da4 <gpio_set_output+0x8c>
    8d7c:	e59f3064 	ldr	r3, [pc, #100]	; 8de8 <gpio_set_output+0xd0>
    8d80:	e593500c 	ldr	r5, [r3, #12]
    8d84:	ea000006 	b	8da4 <gpio_set_output+0x8c>
    8d88:	e59f3058 	ldr	r3, [pc, #88]	; 8de8 <gpio_set_output+0xd0>
    8d8c:	e5935010 	ldr	r5, [r3, #16]
    8d90:	ea000003 	b	8da4 <gpio_set_output+0x8c>
    8d94:	e59f304c 	ldr	r3, [pc, #76]	; 8de8 <gpio_set_output+0xd0>
    8d98:	e5935014 	ldr	r5, [r3, #20]
    8d9c:	ea000000 	b	8da4 <gpio_set_output+0x8c>
    8da0:	e3a05000 	mov	r5, #0
    8da4:	e1a00005 	mov	r0, r5
    8da8:	eb000343 	bl	9abc <get32>
    8dac:	e59f1030 	ldr	r1, [pc, #48]	; 8de4 <gpio_set_output+0xcc>
    8db0:	e0813491 	umull	r3, r1, r1, r4
    8db4:	e1a011a1 	lsr	r1, r1, #3
    8db8:	e0811101 	add	r1, r1, r1, lsl #2
    8dbc:	e1a01081 	lsl	r1, r1, #1
    8dc0:	e0611004 	rsb	r1, r1, r4
    8dc4:	e0811081 	add	r1, r1, r1, lsl #1
    8dc8:	e3a03007 	mov	r3, #7
    8dcc:	e1c03113 	bic	r3, r0, r3, lsl r1
    8dd0:	e1a00005 	mov	r0, r5
    8dd4:	e3a02001 	mov	r2, #1
    8dd8:	e1831112 	orr	r1, r3, r2, lsl r1
    8ddc:	eb00032a 	bl	9a8c <put32>
    8de0:	e8bd8038 	pop	{r3, r4, r5, pc}
    8de4:	cccccccd 	stclgt	12, cr12, [ip], {205}	; 0xcd
    8de8:	00009b50 	andeq	r9, r0, r0, asr fp

00008dec <gpio_set_on>:
    8dec:	e92d4008 	push	{r3, lr}
    8df0:	e350001f 	cmp	r0, #31
    8df4:	88bd8008 	pophi	{r3, pc}
    8df8:	959f3020 	ldrls	r3, [pc, #32]	; 8e20 <gpio_set_on+0x34>
    8dfc:	95932018 	ldrls	r2, [r3, #24]
    8e00:	859f3018 	ldrhi	r3, [pc, #24]	; 8e20 <gpio_set_on+0x34>
    8e04:	8593201c 	ldrhi	r2, [r3, #28]
    8e08:	e200301f 	and	r3, r0, #31
    8e0c:	e1a00002 	mov	r0, r2
    8e10:	e3a01001 	mov	r1, #1
    8e14:	e1a01311 	lsl	r1, r1, r3
    8e18:	eb00031b 	bl	9a8c <put32>
    8e1c:	e8bd8008 	pop	{r3, pc}
    8e20:	00009b50 	andeq	r9, r0, r0, asr fp

00008e24 <gpio_set_off>:
    8e24:	e92d4008 	push	{r3, lr}
    8e28:	e350001f 	cmp	r0, #31
    8e2c:	88bd8008 	pophi	{r3, pc}
    8e30:	959f3020 	ldrls	r3, [pc, #32]	; 8e58 <gpio_set_off+0x34>
    8e34:	95932020 	ldrls	r2, [r3, #32]
    8e38:	859f3018 	ldrhi	r3, [pc, #24]	; 8e58 <gpio_set_off+0x34>
    8e3c:	85932024 	ldrhi	r2, [r3, #36]	; 0x24
    8e40:	e200301f 	and	r3, r0, #31
    8e44:	e1a00002 	mov	r0, r2
    8e48:	e3a01001 	mov	r1, #1
    8e4c:	e1a01311 	lsl	r1, r1, r3
    8e50:	eb00030d 	bl	9a8c <put32>
    8e54:	e8bd8008 	pop	{r3, pc}
    8e58:	00009b50 	andeq	r9, r0, r0, asr fp

00008e5c <gpio_set_input>:
    8e5c:	e92d4038 	push	{r3, r4, r5, lr}
    8e60:	e1a04000 	mov	r4, r0
    8e64:	e350001f 	cmp	r0, #31
    8e68:	88bd8038 	pophi	{r3, r4, r5, pc}
    8e6c:	e59f30ac 	ldr	r3, [pc, #172]	; 8f20 <gpio_set_input+0xc4>
    8e70:	e0832093 	umull	r2, r3, r3, r0
    8e74:	e1a031a3 	lsr	r3, r3, #3
    8e78:	e3530005 	cmp	r3, #5
    8e7c:	979ff103 	ldrls	pc, [pc, r3, lsl #2]
    8e80:	ea000017 	b	8ee4 <gpio_set_input+0x88>
    8e84:	00008e9c 	muleq	r0, ip, lr
    8e88:	00008ea8 	andeq	r8, r0, r8, lsr #29
    8e8c:	00008eb4 			; <UNDEFINED> instruction: 0x00008eb4
    8e90:	00008ec0 	andeq	r8, r0, r0, asr #29
    8e94:	00008ecc 	andeq	r8, r0, ip, asr #29
    8e98:	00008ed8 	ldrdeq	r8, [r0], -r8	; <UNPREDICTABLE>
    8e9c:	e59f3080 	ldr	r3, [pc, #128]	; 8f24 <gpio_set_input+0xc8>
    8ea0:	e5935000 	ldr	r5, [r3]
    8ea4:	ea00000f 	b	8ee8 <gpio_set_input+0x8c>
    8ea8:	e59f3074 	ldr	r3, [pc, #116]	; 8f24 <gpio_set_input+0xc8>
    8eac:	e5935004 	ldr	r5, [r3, #4]
    8eb0:	ea00000c 	b	8ee8 <gpio_set_input+0x8c>
    8eb4:	e59f3068 	ldr	r3, [pc, #104]	; 8f24 <gpio_set_input+0xc8>
    8eb8:	e5935008 	ldr	r5, [r3, #8]
    8ebc:	ea000009 	b	8ee8 <gpio_set_input+0x8c>
    8ec0:	e59f305c 	ldr	r3, [pc, #92]	; 8f24 <gpio_set_input+0xc8>
    8ec4:	e593500c 	ldr	r5, [r3, #12]
    8ec8:	ea000006 	b	8ee8 <gpio_set_input+0x8c>
    8ecc:	e59f3050 	ldr	r3, [pc, #80]	; 8f24 <gpio_set_input+0xc8>
    8ed0:	e5935010 	ldr	r5, [r3, #16]
    8ed4:	ea000003 	b	8ee8 <gpio_set_input+0x8c>
    8ed8:	e59f3044 	ldr	r3, [pc, #68]	; 8f24 <gpio_set_input+0xc8>
    8edc:	e5935014 	ldr	r5, [r3, #20]
    8ee0:	ea000000 	b	8ee8 <gpio_set_input+0x8c>
    8ee4:	e3a05000 	mov	r5, #0
    8ee8:	e1a00005 	mov	r0, r5
    8eec:	eb0002f2 	bl	9abc <get32>
    8ef0:	e59f1028 	ldr	r1, [pc, #40]	; 8f20 <gpio_set_input+0xc4>
    8ef4:	e0813491 	umull	r3, r1, r1, r4
    8ef8:	e1a011a1 	lsr	r1, r1, #3
    8efc:	e0811101 	add	r1, r1, r1, lsl #2
    8f00:	e1a01081 	lsl	r1, r1, #1
    8f04:	e0611004 	rsb	r1, r1, r4
    8f08:	e0811081 	add	r1, r1, r1, lsl #1
    8f0c:	e3a03007 	mov	r3, #7
    8f10:	e1c01113 	bic	r1, r0, r3, lsl r1
    8f14:	e1a00005 	mov	r0, r5
    8f18:	eb0002db 	bl	9a8c <put32>
    8f1c:	e8bd8038 	pop	{r3, r4, r5, pc}
    8f20:	cccccccd 	stclgt	12, cr12, [ip], {205}	; 0xcd
    8f24:	00009b50 	andeq	r9, r0, r0, asr fp

00008f28 <gpio_read>:
    8f28:	e92d4010 	push	{r4, lr}
    8f2c:	e1a04000 	mov	r4, r0
    8f30:	e350001f 	cmp	r0, #31
    8f34:	8a00000b 	bhi	8f68 <gpio_read+0x40>
    8f38:	8a000003 	bhi	8f4c <gpio_read+0x24>
    8f3c:	e59f302c 	ldr	r3, [pc, #44]	; 8f70 <gpio_read+0x48>
    8f40:	e5930028 	ldr	r0, [r3, #40]	; 0x28
    8f44:	eb0002dc 	bl	9abc <get32>
    8f48:	ea000002 	b	8f58 <gpio_read+0x30>
    8f4c:	e59f301c 	ldr	r3, [pc, #28]	; 8f70 <gpio_read+0x48>
    8f50:	e593002c 	ldr	r0, [r3, #44]	; 0x2c
    8f54:	eb0002d8 	bl	9abc <get32>
    8f58:	e204401f 	and	r4, r4, #31
    8f5c:	e3a03001 	mov	r3, #1
    8f60:	e0000413 	and	r0, r0, r3, lsl r4
    8f64:	e8bd8010 	pop	{r4, pc}
    8f68:	e3e00000 	mvn	r0, #0
    8f6c:	e8bd8010 	pop	{r4, pc}
    8f70:	00009b50 	andeq	r9, r0, r0, asr fp

00008f74 <gpio_write>:
    8f74:	e92d4008 	push	{r3, lr}
    8f78:	e350001f 	cmp	r0, #31
    8f7c:	88bd8008 	pophi	{r3, pc}
    8f80:	e3510000 	cmp	r1, #0
    8f84:	0a000001 	beq	8f90 <gpio_write+0x1c>
    8f88:	ebffff97 	bl	8dec <gpio_set_on>
    8f8c:	e8bd8008 	pop	{r3, pc}
    8f90:	ebffffa3 	bl	8e24 <gpio_set_off>
    8f94:	e8bd8008 	pop	{r3, pc}

00008f98 <gpio_set_function>:
    8f98:	e92d4070 	push	{r4, r5, r6, lr}
    8f9c:	e1a04000 	mov	r4, r0
    8fa0:	e1a05001 	mov	r5, r1
    8fa4:	e3510007 	cmp	r1, #7
    8fa8:	9350001f 	cmpls	r0, #31
    8fac:	88bd8070 	pophi	{r4, r5, r6, pc}
    8fb0:	e59f30b0 	ldr	r3, [pc, #176]	; 9068 <gpio_set_function+0xd0>
    8fb4:	e0832093 	umull	r2, r3, r3, r0
    8fb8:	e1a031a3 	lsr	r3, r3, #3
    8fbc:	e3530005 	cmp	r3, #5
    8fc0:	979ff103 	ldrls	pc, [pc, r3, lsl #2]
    8fc4:	ea000017 	b	9028 <gpio_set_function+0x90>
    8fc8:	00008fe0 	andeq	r8, r0, r0, ror #31
    8fcc:	00008fec 	andeq	r8, r0, ip, ror #31
    8fd0:	00008ff8 	strdeq	r8, [r0], -r8	; <UNPREDICTABLE>
    8fd4:	00009004 	andeq	r9, r0, r4
    8fd8:	00009010 	andeq	r9, r0, r0, lsl r0
    8fdc:	0000901c 	andeq	r9, r0, ip, lsl r0
    8fe0:	e59f3084 	ldr	r3, [pc, #132]	; 906c <gpio_set_function+0xd4>
    8fe4:	e5936000 	ldr	r6, [r3]
    8fe8:	ea00000f 	b	902c <gpio_set_function+0x94>
    8fec:	e59f3078 	ldr	r3, [pc, #120]	; 906c <gpio_set_function+0xd4>
    8ff0:	e5936004 	ldr	r6, [r3, #4]
    8ff4:	ea00000c 	b	902c <gpio_set_function+0x94>
    8ff8:	e59f306c 	ldr	r3, [pc, #108]	; 906c <gpio_set_function+0xd4>
    8ffc:	e5936008 	ldr	r6, [r3, #8]
    9000:	ea000009 	b	902c <gpio_set_function+0x94>
    9004:	e59f3060 	ldr	r3, [pc, #96]	; 906c <gpio_set_function+0xd4>
    9008:	e593600c 	ldr	r6, [r3, #12]
    900c:	ea000006 	b	902c <gpio_set_function+0x94>
    9010:	e59f3054 	ldr	r3, [pc, #84]	; 906c <gpio_set_function+0xd4>
    9014:	e5936010 	ldr	r6, [r3, #16]
    9018:	ea000003 	b	902c <gpio_set_function+0x94>
    901c:	e59f3048 	ldr	r3, [pc, #72]	; 906c <gpio_set_function+0xd4>
    9020:	e5936014 	ldr	r6, [r3, #20]
    9024:	ea000000 	b	902c <gpio_set_function+0x94>
    9028:	e3a06000 	mov	r6, #0
    902c:	e1a00006 	mov	r0, r6
    9030:	eb0002a1 	bl	9abc <get32>
    9034:	e59f302c 	ldr	r3, [pc, #44]	; 9068 <gpio_set_function+0xd0>
    9038:	e0832493 	umull	r2, r3, r3, r4
    903c:	e1a031a3 	lsr	r3, r3, #3
    9040:	e0833103 	add	r3, r3, r3, lsl #2
    9044:	e1a03083 	lsl	r3, r3, #1
    9048:	e0633004 	rsb	r3, r3, r4
    904c:	e0833083 	add	r3, r3, r3, lsl #1
    9050:	e3a01007 	mov	r1, #7
    9054:	e1c01311 	bic	r1, r0, r1, lsl r3
    9058:	e1a00006 	mov	r0, r6
    905c:	e1811315 	orr	r1, r1, r5, lsl r3
    9060:	eb000289 	bl	9a8c <put32>
    9064:	e8bd8070 	pop	{r4, r5, r6, pc}
    9068:	cccccccd 	stclgt	12, cr12, [ip], {205}	; 0xcd
    906c:	00009b50 	andeq	r9, r0, r0, asr fp

00009070 <gpio_toggle>:
    9070:	e92d4008 	push	{r3, lr}
    9074:	e350001f 	cmp	r0, #31
    9078:	88bd8008 	pophi	{r3, pc}
    907c:	959f3020 	ldrls	r3, [pc, #32]	; 90a4 <gpio_toggle+0x34>
    9080:	95932018 	ldrls	r2, [r3, #24]
    9084:	859f3018 	ldrhi	r3, [pc, #24]	; 90a4 <gpio_toggle+0x34>
    9088:	8593201c 	ldrhi	r2, [r3, #28]
    908c:	e200301f 	and	r3, r0, #31
    9090:	e1a00002 	mov	r0, r2
    9094:	e3a01001 	mov	r1, #1
    9098:	e1a01311 	lsl	r1, r1, r3
    909c:	eb00027a 	bl	9a8c <put32>
    90a0:	e8bd8008 	pop	{r3, pc}
    90a4:	00009b50 	andeq	r9, r0, r0, asr fp

000090a8 <is_gpio_int>:
    90a8:	e92d4008 	push	{r3, lr}
    90ac:	e59f301c 	ldr	r3, [pc, #28]	; 90d0 <is_gpio_int+0x28>
    90b0:	e5930030 	ldr	r0, [r3, #48]	; 0x30
    90b4:	eb000280 	bl	9abc <get32>
    90b8:	e3500000 	cmp	r0, #0
    90bc:	0a000001 	beq	90c8 <is_gpio_int+0x20>
    90c0:	e3a00001 	mov	r0, #1
    90c4:	e8bd8008 	pop	{r3, pc}
    90c8:	e3a00000 	mov	r0, #0
    90cc:	e8bd8008 	pop	{r3, pc}
    90d0:	00009b50 	andeq	r9, r0, r0, asr fp

000090d4 <gpio_int_rising_edge>:
    90d4:	e92d4038 	push	{r3, r4, r5, lr}
    90d8:	e1a04000 	mov	r4, r0
    90dc:	e350001f 	cmp	r0, #31
    90e0:	88bd8038 	pophi	{r3, r4, r5, pc}
    90e4:	eb000262 	bl	9a74 <dev_barrier>
    90e8:	e354001f 	cmp	r4, #31
    90ec:	8a000007 	bhi	9110 <gpio_int_rising_edge+0x3c>
    90f0:	e59f505c 	ldr	r5, [pc, #92]	; 9154 <gpio_int_rising_edge+0x80>
    90f4:	e5950034 	ldr	r0, [r5, #52]	; 0x34
    90f8:	eb00026f 	bl	9abc <get32>
    90fc:	e3a01001 	mov	r1, #1
    9100:	e1801411 	orr	r1, r0, r1, lsl r4
    9104:	e5950034 	ldr	r0, [r5, #52]	; 0x34
    9108:	eb00025f 	bl	9a8c <put32>
    910c:	ea000007 	b	9130 <gpio_int_rising_edge+0x5c>
    9110:	e59f503c 	ldr	r5, [pc, #60]	; 9154 <gpio_int_rising_edge+0x80>
    9114:	e5950038 	ldr	r0, [r5, #56]	; 0x38
    9118:	eb000267 	bl	9abc <get32>
    911c:	e204401f 	and	r4, r4, #31
    9120:	e3a01001 	mov	r1, #1
    9124:	e1801411 	orr	r1, r0, r1, lsl r4
    9128:	e5950038 	ldr	r0, [r5, #56]	; 0x38
    912c:	eb000256 	bl	9a8c <put32>
    9130:	eb00024f 	bl	9a74 <dev_barrier>
    9134:	e59f4018 	ldr	r4, [pc, #24]	; 9154 <gpio_int_rising_edge+0x80>
    9138:	e594003c 	ldr	r0, [r4, #60]	; 0x3c
    913c:	eb00025e 	bl	9abc <get32>
    9140:	e3801802 	orr	r1, r0, #131072	; 0x20000
    9144:	e594003c 	ldr	r0, [r4, #60]	; 0x3c
    9148:	eb00024f 	bl	9a8c <put32>
    914c:	eb000248 	bl	9a74 <dev_barrier>
    9150:	e8bd8038 	pop	{r3, r4, r5, pc}
    9154:	00009b50 	andeq	r9, r0, r0, asr fp

00009158 <gpio_int_falling_edge>:
    9158:	e92d4038 	push	{r3, r4, r5, lr}
    915c:	e1a04000 	mov	r4, r0
    9160:	e350001f 	cmp	r0, #31
    9164:	88bd8038 	pophi	{r3, r4, r5, pc}
    9168:	eb000241 	bl	9a74 <dev_barrier>
    916c:	e354001f 	cmp	r4, #31
    9170:	8a000007 	bhi	9194 <gpio_int_falling_edge+0x3c>
    9174:	e59f505c 	ldr	r5, [pc, #92]	; 91d8 <gpio_int_falling_edge+0x80>
    9178:	e5950040 	ldr	r0, [r5, #64]	; 0x40
    917c:	eb00024e 	bl	9abc <get32>
    9180:	e3a01001 	mov	r1, #1
    9184:	e1801411 	orr	r1, r0, r1, lsl r4
    9188:	e5950040 	ldr	r0, [r5, #64]	; 0x40
    918c:	eb00023e 	bl	9a8c <put32>
    9190:	ea000007 	b	91b4 <gpio_int_falling_edge+0x5c>
    9194:	e59f503c 	ldr	r5, [pc, #60]	; 91d8 <gpio_int_falling_edge+0x80>
    9198:	e5950044 	ldr	r0, [r5, #68]	; 0x44
    919c:	eb000246 	bl	9abc <get32>
    91a0:	e204401f 	and	r4, r4, #31
    91a4:	e3a01001 	mov	r1, #1
    91a8:	e1801411 	orr	r1, r0, r1, lsl r4
    91ac:	e5950044 	ldr	r0, [r5, #68]	; 0x44
    91b0:	eb000235 	bl	9a8c <put32>
    91b4:	eb00022e 	bl	9a74 <dev_barrier>
    91b8:	e59f4018 	ldr	r4, [pc, #24]	; 91d8 <gpio_int_falling_edge+0x80>
    91bc:	e594003c 	ldr	r0, [r4, #60]	; 0x3c
    91c0:	eb00023d 	bl	9abc <get32>
    91c4:	e3801601 	orr	r1, r0, #1048576	; 0x100000
    91c8:	e594003c 	ldr	r0, [r4, #60]	; 0x3c
    91cc:	eb00022e 	bl	9a8c <put32>
    91d0:	eb000227 	bl	9a74 <dev_barrier>
    91d4:	e8bd8038 	pop	{r3, r4, r5, pc}
    91d8:	00009b50 	andeq	r9, r0, r0, asr fp

000091dc <gpio_event_detected>:
    91dc:	e92d4010 	push	{r4, lr}
    91e0:	e1a04000 	mov	r4, r0
    91e4:	e350001f 	cmp	r0, #31
    91e8:	8a000019 	bhi	9254 <gpio_event_detected+0x78>
    91ec:	eb000220 	bl	9a74 <dev_barrier>
    91f0:	e354001f 	cmp	r4, #31
    91f4:	8a000008 	bhi	921c <gpio_event_detected+0x40>
    91f8:	e59f305c 	ldr	r3, [pc, #92]	; 925c <gpio_event_detected+0x80>
    91fc:	e5930048 	ldr	r0, [r3, #72]	; 0x48
    9200:	eb00022d 	bl	9abc <get32>
    9204:	e3a03001 	mov	r3, #1
    9208:	e0103413 	ands	r3, r0, r3, lsl r4
    920c:	0a00000d 	beq	9248 <gpio_event_detected+0x6c>
    9210:	eb000217 	bl	9a74 <dev_barrier>
    9214:	e3a00001 	mov	r0, #1
    9218:	e8bd8010 	pop	{r4, pc}
    921c:	e59f3038 	ldr	r3, [pc, #56]	; 925c <gpio_event_detected+0x80>
    9220:	e593004c 	ldr	r0, [r3, #76]	; 0x4c
    9224:	eb000224 	bl	9abc <get32>
    9228:	e3a03001 	mov	r3, #1
    922c:	e0004413 	and	r4, r0, r3, lsl r4
    9230:	eb00020f 	bl	9a74 <dev_barrier>
    9234:	e3540000 	cmp	r4, #0
    9238:	0a000002 	beq	9248 <gpio_event_detected+0x6c>
    923c:	eb00020c 	bl	9a74 <dev_barrier>
    9240:	e3a00001 	mov	r0, #1
    9244:	e8bd8010 	pop	{r4, pc}
    9248:	eb000209 	bl	9a74 <dev_barrier>
    924c:	e3a00000 	mov	r0, #0
    9250:	e8bd8010 	pop	{r4, pc}
    9254:	e3e00000 	mvn	r0, #0
    9258:	e8bd8010 	pop	{r4, pc}
    925c:	00009b50 	andeq	r9, r0, r0, asr fp

00009260 <gpio_event_clear>:
    9260:	e92d4010 	push	{r4, lr}
    9264:	e1a04000 	mov	r4, r0
    9268:	e350001f 	cmp	r0, #31
    926c:	88bd8010 	pophi	{r4, pc}
    9270:	eb0001ff 	bl	9a74 <dev_barrier>
    9274:	e354001f 	cmp	r4, #31
    9278:	8a000005 	bhi	9294 <gpio_event_clear+0x34>
    927c:	e59f3030 	ldr	r3, [pc, #48]	; 92b4 <gpio_event_clear+0x54>
    9280:	e5930048 	ldr	r0, [r3, #72]	; 0x48
    9284:	e3a01001 	mov	r1, #1
    9288:	e1a01411 	lsl	r1, r1, r4
    928c:	eb0001fe 	bl	9a8c <put32>
    9290:	ea000005 	b	92ac <gpio_event_clear+0x4c>
    9294:	e204401f 	and	r4, r4, #31
    9298:	e59f3014 	ldr	r3, [pc, #20]	; 92b4 <gpio_event_clear+0x54>
    929c:	e593004c 	ldr	r0, [r3, #76]	; 0x4c
    92a0:	e3a01001 	mov	r1, #1
    92a4:	e1a01411 	lsl	r1, r1, r4
    92a8:	eb0001f7 	bl	9a8c <put32>
    92ac:	eb0001f0 	bl	9a74 <dev_barrier>
    92b0:	e8bd8010 	pop	{r4, pc}
    92b4:	00009b50 	andeq	r9, r0, r0, asr fp

000092b8 <sw_uart_putc>:
    92b8:	e92d41f0 	push	{r4, r5, r6, r7, r8, lr}
    92bc:	e1a07001 	mov	r7, r1
    92c0:	e5d06000 	ldrb	r6, [r0]
    92c4:	e5905008 	ldr	r5, [r0, #8]
    92c8:	ee1f4f3c 	mrc	15, 0, r4, cr15, cr12, {1}
    92cc:	e1a00006 	mov	r0, r6
    92d0:	e3a01000 	mov	r1, #0
    92d4:	ebffff26 	bl	8f74 <gpio_write>
    92d8:	ee1f3f3c 	mrc	15, 0, r3, cr15, cr12, {1}
    92dc:	e0643003 	rsb	r3, r4, r3
    92e0:	e1550003 	cmp	r5, r3
    92e4:	8afffffb 	bhi	92d8 <sw_uart_putc+0x20>
    92e8:	e1a08085 	lsl	r8, r5, #1
    92ec:	e1a00006 	mov	r0, r6
    92f0:	e2071001 	and	r1, r7, #1
    92f4:	ebffff1e 	bl	8f74 <gpio_write>
    92f8:	ee1f3f3c 	mrc	15, 0, r3, cr15, cr12, {1}
    92fc:	e0643003 	rsb	r3, r4, r3
    9300:	e1580003 	cmp	r8, r3
    9304:	8afffffb 	bhi	92f8 <sw_uart_putc+0x40>
    9308:	e0888005 	add	r8, r8, r5
    930c:	e1a00006 	mov	r0, r6
    9310:	e2071002 	and	r1, r7, #2
    9314:	ebffff16 	bl	8f74 <gpio_write>
    9318:	ee1f3f3c 	mrc	15, 0, r3, cr15, cr12, {1}
    931c:	e0643003 	rsb	r3, r4, r3
    9320:	e1580003 	cmp	r8, r3
    9324:	8afffffb 	bhi	9318 <sw_uart_putc+0x60>
    9328:	e0888005 	add	r8, r8, r5
    932c:	e1a00006 	mov	r0, r6
    9330:	e2071004 	and	r1, r7, #4
    9334:	ebffff0e 	bl	8f74 <gpio_write>
    9338:	ee1f3f3c 	mrc	15, 0, r3, cr15, cr12, {1}
    933c:	e0643003 	rsb	r3, r4, r3
    9340:	e1580003 	cmp	r8, r3
    9344:	8afffffb 	bhi	9338 <sw_uart_putc+0x80>
    9348:	e0888005 	add	r8, r8, r5
    934c:	e1a00006 	mov	r0, r6
    9350:	e2071008 	and	r1, r7, #8
    9354:	ebffff06 	bl	8f74 <gpio_write>
    9358:	ee1f3f3c 	mrc	15, 0, r3, cr15, cr12, {1}
    935c:	e0643003 	rsb	r3, r4, r3
    9360:	e1580003 	cmp	r8, r3
    9364:	8afffffb 	bhi	9358 <sw_uart_putc+0xa0>
    9368:	e0888005 	add	r8, r8, r5
    936c:	e1a00006 	mov	r0, r6
    9370:	e2071010 	and	r1, r7, #16
    9374:	ebfffefe 	bl	8f74 <gpio_write>
    9378:	ee1f3f3c 	mrc	15, 0, r3, cr15, cr12, {1}
    937c:	e0643003 	rsb	r3, r4, r3
    9380:	e1580003 	cmp	r8, r3
    9384:	8afffffb 	bhi	9378 <sw_uart_putc+0xc0>
    9388:	e0888005 	add	r8, r8, r5
    938c:	e1a00006 	mov	r0, r6
    9390:	e2071020 	and	r1, r7, #32
    9394:	ebfffef6 	bl	8f74 <gpio_write>
    9398:	ee1f3f3c 	mrc	15, 0, r3, cr15, cr12, {1}
    939c:	e0643003 	rsb	r3, r4, r3
    93a0:	e1580003 	cmp	r8, r3
    93a4:	8afffffb 	bhi	9398 <sw_uart_putc+0xe0>
    93a8:	e0888005 	add	r8, r8, r5
    93ac:	e1a00006 	mov	r0, r6
    93b0:	e2071040 	and	r1, r7, #64	; 0x40
    93b4:	ebfffeee 	bl	8f74 <gpio_write>
    93b8:	ee1f3f3c 	mrc	15, 0, r3, cr15, cr12, {1}
    93bc:	e0643003 	rsb	r3, r4, r3
    93c0:	e1580003 	cmp	r8, r3
    93c4:	8afffffb 	bhi	93b8 <sw_uart_putc+0x100>
    93c8:	e0888005 	add	r8, r8, r5
    93cc:	e1a00006 	mov	r0, r6
    93d0:	e2071080 	and	r1, r7, #128	; 0x80
    93d4:	ebfffee6 	bl	8f74 <gpio_write>
    93d8:	ee1f3f3c 	mrc	15, 0, r3, cr15, cr12, {1}
    93dc:	e0643003 	rsb	r3, r4, r3
    93e0:	e1580003 	cmp	r8, r3
    93e4:	8afffffb 	bhi	93d8 <sw_uart_putc+0x120>
    93e8:	e0885005 	add	r5, r8, r5
    93ec:	e1a00006 	mov	r0, r6
    93f0:	e3a01001 	mov	r1, #1
    93f4:	ebfffede 	bl	8f74 <gpio_write>
    93f8:	ee1f3f3c 	mrc	15, 0, r3, cr15, cr12, {1}
    93fc:	e0643003 	rsb	r3, r4, r3
    9400:	e1550003 	cmp	r5, r3
    9404:	8afffffb 	bhi	93f8 <sw_uart_putc+0x140>
    9408:	e8bd81f0 	pop	{r4, r5, r6, r7, r8, pc}

0000940c <sw_uart_getc_timeout>:
    940c:	e92d43f8 	push	{r3, r4, r5, r6, r7, r8, r9, lr}
    9410:	e1a09000 	mov	r9, r0
    9414:	e5d07001 	ldrb	r7, [r0, #1]
    9418:	e1a05007 	mov	r5, r7
    941c:	e1a06001 	mov	r6, r1
    9420:	ebfffe21 	bl	8cac <timer_get_usec_raw>
    9424:	e1a04000 	mov	r4, r0
    9428:	e1a00005 	mov	r0, r5
    942c:	ebfffebd 	bl	8f28 <gpio_read>
    9430:	e3500000 	cmp	r0, #0
    9434:	0a000005 	beq	9450 <sw_uart_getc_timeout+0x44>
    9438:	ebfffe1b 	bl	8cac <timer_get_usec_raw>
    943c:	e0640000 	rsb	r0, r4, r0
    9440:	e1560000 	cmp	r6, r0
    9444:	2afffff7 	bcs	9428 <sw_uart_getc_timeout+0x1c>
    9448:	e3a03000 	mov	r3, #0
    944c:	ea000000 	b	9454 <sw_uart_getc_timeout+0x48>
    9450:	e3a03001 	mov	r3, #1
    9454:	e3530000 	cmp	r3, #0
    9458:	0a000059 	beq	95c4 <sw_uart_getc_timeout+0x1b8>
    945c:	ee1f8f3c 	mrc	15, 0, r8, cr15, cr12, {1}
    9460:	e5994008 	ldr	r4, [r9, #8]
    9464:	e08420a4 	add	r2, r4, r4, lsr #1
    9468:	ee1f3f3c 	mrc	15, 0, r3, cr15, cr12, {1}
    946c:	e0683003 	rsb	r3, r8, r3
    9470:	e1520003 	cmp	r2, r3
    9474:	8afffffb 	bhi	9468 <sw_uart_getc_timeout+0x5c>
    9478:	e0888004 	add	r8, r8, r4
    947c:	e1a00007 	mov	r0, r7
    9480:	ebfffea8 	bl	8f28 <gpio_read>
    9484:	e1a09750 	asr	r9, r0, r7
    9488:	ee1f3f3c 	mrc	15, 0, r3, cr15, cr12, {1}
    948c:	e0683003 	rsb	r3, r8, r3
    9490:	e1540003 	cmp	r4, r3
    9494:	8afffffb 	bhi	9488 <sw_uart_getc_timeout+0x7c>
    9498:	e0888004 	add	r8, r8, r4
    949c:	e1a00007 	mov	r0, r7
    94a0:	ebfffea0 	bl	8f28 <gpio_read>
    94a4:	e1a00750 	asr	r0, r0, r7
    94a8:	e1899080 	orr	r9, r9, r0, lsl #1
    94ac:	ee1f3f3c 	mrc	15, 0, r3, cr15, cr12, {1}
    94b0:	e0683003 	rsb	r3, r8, r3
    94b4:	e1540003 	cmp	r4, r3
    94b8:	8afffffb 	bhi	94ac <sw_uart_getc_timeout+0xa0>
    94bc:	e0888004 	add	r8, r8, r4
    94c0:	e1a00007 	mov	r0, r7
    94c4:	ebfffe97 	bl	8f28 <gpio_read>
    94c8:	e1a00750 	asr	r0, r0, r7
    94cc:	e1899100 	orr	r9, r9, r0, lsl #2
    94d0:	ee1f3f3c 	mrc	15, 0, r3, cr15, cr12, {1}
    94d4:	e0683003 	rsb	r3, r8, r3
    94d8:	e1540003 	cmp	r4, r3
    94dc:	8afffffb 	bhi	94d0 <sw_uart_getc_timeout+0xc4>
    94e0:	e0888004 	add	r8, r8, r4
    94e4:	e1a00007 	mov	r0, r7
    94e8:	ebfffe8e 	bl	8f28 <gpio_read>
    94ec:	e1a00750 	asr	r0, r0, r7
    94f0:	e1899180 	orr	r9, r9, r0, lsl #3
    94f4:	ee1f3f3c 	mrc	15, 0, r3, cr15, cr12, {1}
    94f8:	e0683003 	rsb	r3, r8, r3
    94fc:	e1540003 	cmp	r4, r3
    9500:	8afffffb 	bhi	94f4 <sw_uart_getc_timeout+0xe8>
    9504:	e0888004 	add	r8, r8, r4
    9508:	e1a00007 	mov	r0, r7
    950c:	ebfffe85 	bl	8f28 <gpio_read>
    9510:	e1a00750 	asr	r0, r0, r7
    9514:	e1899200 	orr	r9, r9, r0, lsl #4
    9518:	ee1f3f3c 	mrc	15, 0, r3, cr15, cr12, {1}
    951c:	e0683003 	rsb	r3, r8, r3
    9520:	e1540003 	cmp	r4, r3
    9524:	8afffffb 	bhi	9518 <sw_uart_getc_timeout+0x10c>
    9528:	e0888004 	add	r8, r8, r4
    952c:	e1a00007 	mov	r0, r7
    9530:	ebfffe7c 	bl	8f28 <gpio_read>
    9534:	e1a00750 	asr	r0, r0, r7
    9538:	e1899280 	orr	r9, r9, r0, lsl #5
    953c:	ee1f3f3c 	mrc	15, 0, r3, cr15, cr12, {1}
    9540:	e0683003 	rsb	r3, r8, r3
    9544:	e1540003 	cmp	r4, r3
    9548:	8afffffb 	bhi	953c <sw_uart_getc_timeout+0x130>
    954c:	e0888004 	add	r8, r8, r4
    9550:	e1a00007 	mov	r0, r7
    9554:	ebfffe73 	bl	8f28 <gpio_read>
    9558:	e1a00750 	asr	r0, r0, r7
    955c:	e1899300 	orr	r9, r9, r0, lsl #6
    9560:	ee1f3f3c 	mrc	15, 0, r3, cr15, cr12, {1}
    9564:	e0683003 	rsb	r3, r8, r3
    9568:	e1540003 	cmp	r4, r3
    956c:	8afffffb 	bhi	9560 <sw_uart_getc_timeout+0x154>
    9570:	e1a00007 	mov	r0, r7
    9574:	ebfffe6b 	bl	8f28 <gpio_read>
    9578:	e1a00750 	asr	r0, r0, r7
    957c:	e1899380 	orr	r9, r9, r0, lsl #7
    9580:	ebfffdc9 	bl	8cac <timer_get_usec_raw>
    9584:	e1a04000 	mov	r4, r0
    9588:	e1a00005 	mov	r0, r5
    958c:	ebfffe65 	bl	8f28 <gpio_read>
    9590:	e3500000 	cmp	r0, #0
    9594:	0a000005 	beq	95b0 <sw_uart_getc_timeout+0x1a4>
    9598:	ebfffdc3 	bl	8cac <timer_get_usec_raw>
    959c:	e0640000 	rsb	r0, r4, r0
    95a0:	e1560000 	cmp	r6, r0
    95a4:	2afffff7 	bcs	9588 <sw_uart_getc_timeout+0x17c>
    95a8:	e3a03000 	mov	r3, #0
    95ac:	ea000000 	b	95b4 <sw_uart_getc_timeout+0x1a8>
    95b0:	e3a03001 	mov	r3, #1
    95b4:	e3530000 	cmp	r3, #0
    95b8:	0a000003 	beq	95cc <sw_uart_getc_timeout+0x1c0>
    95bc:	e1a00009 	mov	r0, r9
    95c0:	e8bd83f8 	pop	{r3, r4, r5, r6, r7, r8, r9, pc}
    95c4:	e3e00000 	mvn	r0, #0
    95c8:	e8bd83f8 	pop	{r3, r4, r5, r6, r7, r8, r9, pc}
    95cc:	e3e00000 	mvn	r0, #0
    95d0:	e8bd83f8 	pop	{r3, r4, r5, r6, r7, r8, r9, pc}

000095d4 <sw_uart_gets_until>:
    95d4:	e92d47f0 	push	{r4, r5, r6, r7, r8, r9, sl, lr}
    95d8:	e24dd008 	sub	sp, sp, #8
    95dc:	e1a08000 	mov	r8, r0
    95e0:	e1a06001 	mov	r6, r1
    95e4:	e1a09003 	mov	r9, r3
    95e8:	e59da028 	ldr	sl, [sp, #40]	; 0x28
    95ec:	e3520000 	cmp	r2, #0
    95f0:	1a000008 	bne	9618 <sw_uart_gets_until+0x44>
    95f4:	ebfffbea 	bl	85a4 <rpi_reset_putc>
    95f8:	e59f3068 	ldr	r3, [pc, #104]	; 9668 <sw_uart_gets_until+0x94>
    95fc:	e58d3000 	str	r3, [sp]
    9600:	e59f0064 	ldr	r0, [pc, #100]	; 966c <sw_uart_gets_until+0x98>
    9604:	e59f1064 	ldr	r1, [pc, #100]	; 9670 <sw_uart_gets_until+0x9c>
    9608:	e59f2064 	ldr	r2, [pc, #100]	; 9674 <sw_uart_gets_until+0xa0>
    960c:	e3a0306d 	mov	r3, #109	; 0x6d
    9610:	ebfffbc8 	bl	8538 <printk>
    9614:	ebfffd4a 	bl	8b44 <clean_reboot>
    9618:	e3a04000 	mov	r4, #0
    961c:	e5c14000 	strb	r4, [r1]
    9620:	e2427001 	sub	r7, r2, #1
    9624:	ea000007 	b	9648 <sw_uart_gets_until+0x74>
    9628:	e1a00008 	mov	r0, r8
    962c:	e1a0100a 	mov	r1, sl
    9630:	ebffff75 	bl	940c <sw_uart_getc_timeout>
    9634:	e6ef0070 	uxtb	r0, r0
    9638:	e1500009 	cmp	r0, r9
    963c:	0a000004 	beq	9654 <sw_uart_gets_until+0x80>
    9640:	e7c60005 	strb	r0, [r6, r5]
    9644:	e2844001 	add	r4, r4, #1
    9648:	e1a05004 	mov	r5, r4
    964c:	e1540007 	cmp	r4, r7
    9650:	3afffff4 	bcc	9628 <sw_uart_gets_until+0x54>
    9654:	e3a03000 	mov	r3, #0
    9658:	e7c63005 	strb	r3, [r6, r5]
    965c:	e1a00004 	mov	r0, r4
    9660:	e28dd008 	add	sp, sp, #8
    9664:	e8bd87f0 	pop	{r4, r5, r6, r7, r8, r9, sl, pc}
    9668:	00009e18 	andeq	r9, r0, r8, lsl lr
    966c:	00009c8c 	andeq	r9, r0, ip, lsl #25
    9670:	00009e04 	andeq	r9, r0, r4, lsl #28
    9674:	00009d8c 	andeq	r9, r0, ip, lsl #27

00009678 <sw_uart_gets_timeout>:
    9678:	e92d41f0 	push	{r4, r5, r6, r7, r8, lr}
    967c:	e24dd008 	sub	sp, sp, #8
    9680:	e1a07000 	mov	r7, r0
    9684:	e1a05001 	mov	r5, r1
    9688:	e1a08003 	mov	r8, r3
    968c:	e3520000 	cmp	r2, #0
    9690:	1a000008 	bne	96b8 <sw_uart_gets_timeout+0x40>
    9694:	ebfffbc2 	bl	85a4 <rpi_reset_putc>
    9698:	e59f3058 	ldr	r3, [pc, #88]	; 96f8 <sw_uart_gets_timeout+0x80>
    969c:	e58d3000 	str	r3, [sp]
    96a0:	e59f0054 	ldr	r0, [pc, #84]	; 96fc <sw_uart_gets_timeout+0x84>
    96a4:	e59f1054 	ldr	r1, [pc, #84]	; 9700 <sw_uart_gets_timeout+0x88>
    96a8:	e59f2054 	ldr	r2, [pc, #84]	; 9704 <sw_uart_gets_timeout+0x8c>
    96ac:	e3a03083 	mov	r3, #131	; 0x83
    96b0:	ebfffba0 	bl	8538 <printk>
    96b4:	ebfffd22 	bl	8b44 <clean_reboot>
    96b8:	e3a04000 	mov	r4, #0
    96bc:	e5c14000 	strb	r4, [r1]
    96c0:	e2426001 	sub	r6, r2, #1
    96c4:	ea000004 	b	96dc <sw_uart_gets_timeout+0x64>
    96c8:	e1a00007 	mov	r0, r7
    96cc:	e1a01008 	mov	r1, r8
    96d0:	ebffff4d 	bl	940c <sw_uart_getc_timeout>
    96d4:	e7c50004 	strb	r0, [r5, r4]
    96d8:	e2844001 	add	r4, r4, #1
    96dc:	e1540006 	cmp	r4, r6
    96e0:	3afffff8 	bcc	96c8 <sw_uart_gets_timeout+0x50>
    96e4:	e3a03000 	mov	r3, #0
    96e8:	e7c53004 	strb	r3, [r5, r4]
    96ec:	e1a00004 	mov	r0, r4
    96f0:	e28dd008 	add	sp, sp, #8
    96f4:	e8bd81f0 	pop	{r4, r5, r6, r7, r8, pc}
    96f8:	00009e18 	andeq	r9, r0, r8, lsl lr
    96fc:	00009c8c 	andeq	r9, r0, ip, lsl #25
    9700:	00009e04 	andeq	r9, r0, r4, lsl #28
    9704:	00009da0 	andeq	r9, r0, r0, lsr #27

00009708 <sw_uart_init_helper>:
    9708:	e92d41f0 	push	{r4, r5, r6, r7, r8, lr}
    970c:	e24dd008 	sub	sp, sp, #8
    9710:	e1a04000 	mov	r4, r0
    9714:	e1a06001 	mov	r6, r1
    9718:	e1a08002 	mov	r8, r2
    971c:	e1a05003 	mov	r5, r3
    9720:	e59d7020 	ldr	r7, [sp, #32]
    9724:	e1a00001 	mov	r0, r1
    9728:	ebfffd7a 	bl	8d18 <gpio_set_output>
    972c:	e1a00008 	mov	r0, r8
    9730:	ebfffdc9 	bl	8e5c <gpio_set_input>
    9734:	e3a03001 	mov	r3, #1
    9738:	ee0f3f1c 	mcr	15, 0, r3, cr15, cr12, {0}
    973c:	e1a00006 	mov	r0, r6
    9740:	e3a01001 	mov	r1, #1
    9744:	ebfffe0a 	bl	8f74 <gpio_write>
    9748:	e0020795 	mul	r2, r5, r7
    974c:	e59f3074 	ldr	r3, [pc, #116]	; 97c8 <sw_uart_init_helper+0xc0>
    9750:	e0653003 	rsb	r3, r5, r3
    9754:	e1530002 	cmp	r3, r2
    9758:	8a000005 	bhi	9774 <sw_uart_init_helper+0x6c>
    975c:	e59f3064 	ldr	r3, [pc, #100]	; 97c8 <sw_uart_init_helper+0xc0>
    9760:	e0853003 	add	r3, r5, r3
    9764:	e1530002 	cmp	r3, r2
    9768:	2a000003 	bcs	977c <sw_uart_init_helper+0x74>
    976c:	e3a03000 	mov	r3, #0
    9770:	ea000002 	b	9780 <sw_uart_init_helper+0x78>
    9774:	e3a03000 	mov	r3, #0
    9778:	ea000000 	b	9780 <sw_uart_init_helper+0x78>
    977c:	e3a03001 	mov	r3, #1
    9780:	e3530000 	cmp	r3, #0
    9784:	1a000008 	bne	97ac <sw_uart_init_helper+0xa4>
    9788:	ebfffb85 	bl	85a4 <rpi_reset_putc>
    978c:	e59f3038 	ldr	r3, [pc, #56]	; 97cc <sw_uart_init_helper+0xc4>
    9790:	e58d3000 	str	r3, [sp]
    9794:	e59f0034 	ldr	r0, [pc, #52]	; 97d0 <sw_uart_init_helper+0xc8>
    9798:	e59f1034 	ldr	r1, [pc, #52]	; 97d4 <sw_uart_init_helper+0xcc>
    979c:	e59f2034 	ldr	r2, [pc, #52]	; 97d8 <sw_uart_init_helper+0xd0>
    97a0:	e3a0309d 	mov	r3, #157	; 0x9d
    97a4:	ebfffb63 	bl	8538 <printk>
    97a8:	ebfffce5 	bl	8b44 <clean_reboot>
    97ac:	e5c46000 	strb	r6, [r4]
    97b0:	e5c48001 	strb	r8, [r4, #1]
    97b4:	e5845004 	str	r5, [r4, #4]
    97b8:	e5847008 	str	r7, [r4, #8]
    97bc:	e1a00004 	mov	r0, r4
    97c0:	e28dd008 	add	sp, sp, #8
    97c4:	e8bd81f0 	pop	{r4, r5, r6, r7, r8, pc}
    97c8:	29b92700 	ldmibcs	r9!, {r8, r9, sl, sp}
    97cc:	00009e24 	andeq	r9, r0, r4, lsr #28
    97d0:	00009c8c 	andeq	r9, r0, ip, lsl #25
    97d4:	00009e04 	andeq	r9, r0, r4, lsl #28
    97d8:	00009db8 			; <UNDEFINED> instruction: 0x00009db8

000097dc <sw_uart_getc>:
    97dc:	e92d4008 	push	{r3, lr}
    97e0:	e3e01000 	mvn	r1, #0
    97e4:	ebffff08 	bl	940c <sw_uart_getc_timeout>
    97e8:	e3500000 	cmp	r0, #0
    97ec:	a8bd8008 	popge	{r3, pc}
    97f0:	ebfffb6b 	bl	85a4 <rpi_reset_putc>
    97f4:	e59f0010 	ldr	r0, [pc, #16]	; 980c <sw_uart_getc+0x30>
    97f8:	e59f1010 	ldr	r1, [pc, #16]	; 9810 <sw_uart_getc+0x34>
    97fc:	e59f2010 	ldr	r2, [pc, #16]	; 9814 <sw_uart_getc+0x38>
    9800:	e3a030ac 	mov	r3, #172	; 0xac
    9804:	ebfffb4b 	bl	8538 <printk>
    9808:	ebfffccd 	bl	8b44 <clean_reboot>
    980c:	00009e58 	andeq	r9, r0, r8, asr lr
    9810:	00009e04 	andeq	r9, r0, r4, lsl #28
    9814:	00009dcc 	andeq	r9, r0, ip, asr #27

00009818 <sw_uart_putk>:
    9818:	e92d4038 	push	{r3, r4, r5, lr}
    981c:	e1a05000 	mov	r5, r0
    9820:	e1a04001 	mov	r4, r1
    9824:	ea000002 	b	9834 <sw_uart_putk+0x1c>
    9828:	e1a00005 	mov	r0, r5
    982c:	ebfffea1 	bl	92b8 <sw_uart_putc>
    9830:	e2844001 	add	r4, r4, #1
    9834:	e5d41000 	ldrb	r1, [r4]
    9838:	e3510000 	cmp	r1, #0
    983c:	1afffff9 	bne	9828 <sw_uart_putk+0x10>
    9840:	e8bd8038 	pop	{r3, r4, r5, pc}

00009844 <sw_uart_printk>:
    9844:	e92d000e 	push	{r1, r2, r3}
    9848:	e92d4030 	push	{r4, r5, lr}
    984c:	e24ddf76 	sub	sp, sp, #472	; 0x1d8
    9850:	e1a05000 	mov	r5, r0
    9854:	e28d3f7a 	add	r3, sp, #488	; 0x1e8
    9858:	e58d3008 	str	r3, [sp, #8]
    985c:	e28d000c 	add	r0, sp, #12
    9860:	e3a01f73 	mov	r1, #460	; 0x1cc
    9864:	e59d21e4 	ldr	r2, [sp, #484]	; 0x1e4
    9868:	ebfffc08 	bl	8890 <va_printk>
    986c:	e1a04000 	mov	r4, r0
    9870:	e59f3048 	ldr	r3, [pc, #72]	; 98c0 <sw_uart_printk+0x7c>
    9874:	e1500003 	cmp	r0, r3
    9878:	9a000008 	bls	98a0 <sw_uart_printk+0x5c>
    987c:	ebfffb48 	bl	85a4 <rpi_reset_putc>
    9880:	e59f303c 	ldr	r3, [pc, #60]	; 98c4 <sw_uart_printk+0x80>
    9884:	e58d3000 	str	r3, [sp]
    9888:	e59f0038 	ldr	r0, [pc, #56]	; 98c8 <sw_uart_printk+0x84>
    988c:	e59f1038 	ldr	r1, [pc, #56]	; 98cc <sw_uart_printk+0x88>
    9890:	e59f2038 	ldr	r2, [pc, #56]	; 98d0 <sw_uart_printk+0x8c>
    9894:	e3a030c0 	mov	r3, #192	; 0xc0
    9898:	ebfffb26 	bl	8538 <printk>
    989c:	ebfffca8 	bl	8b44 <clean_reboot>
    98a0:	e1a00005 	mov	r0, r5
    98a4:	e28d100c 	add	r1, sp, #12
    98a8:	ebffffda 	bl	9818 <sw_uart_putk>
    98ac:	e1a00004 	mov	r0, r4
    98b0:	e28ddf76 	add	sp, sp, #472	; 0x1d8
    98b4:	e8bd4030 	pop	{r4, r5, lr}
    98b8:	e28dd00c 	add	sp, sp, #12
    98bc:	e12fff1e 	bx	lr
    98c0:	000001ca 	andeq	r0, r0, sl, asr #3
    98c4:	00009e90 	muleq	r0, r0, lr
    98c8:	00009c8c 	andeq	r9, r0, ip, lsl #25
    98cc:	00009e04 	andeq	r9, r0, r4, lsl #28
    98d0:	00009ddc 	ldrdeq	r9, [r0], -ip

000098d4 <sw_uart_gets_until_blk>:
    98d4:	e52de004 	push	{lr}		; (str lr, [sp, #-4]!)
    98d8:	e24dd00c 	sub	sp, sp, #12
    98dc:	e3e0c000 	mvn	ip, #0
    98e0:	e58dc000 	str	ip, [sp]
    98e4:	ebffff3a 	bl	95d4 <sw_uart_gets_until>
    98e8:	e3500000 	cmp	r0, #0
    98ec:	aa000006 	bge	990c <sw_uart_gets_until_blk+0x38>
    98f0:	ebfffb2b 	bl	85a4 <rpi_reset_putc>
    98f4:	e59f0018 	ldr	r0, [pc, #24]	; 9914 <sw_uart_gets_until_blk+0x40>
    98f8:	e59f1018 	ldr	r1, [pc, #24]	; 9918 <sw_uart_gets_until_blk+0x44>
    98fc:	e59f2018 	ldr	r2, [pc, #24]	; 991c <sw_uart_gets_until_blk+0x48>
    9900:	e3a030c8 	mov	r3, #200	; 0xc8
    9904:	ebfffb0b 	bl	8538 <printk>
    9908:	ebfffc8d 	bl	8b44 <clean_reboot>
    990c:	e28dd00c 	add	sp, sp, #12
    9910:	e49df004 	pop	{pc}		; (ldr pc, [sp], #4)
    9914:	00009e58 	andeq	r9, r0, r8, asr lr
    9918:	00009e04 	andeq	r9, r0, r4, lsl #28
    991c:	00009dec 	andeq	r9, r0, ip, ror #27

00009920 <uart_init>:
    9920:	e92d4038 	push	{r3, r4, r5, lr}
    9924:	eb000052 	bl	9a74 <dev_barrier>
    9928:	e3a0000e 	mov	r0, #14
    992c:	e3a01002 	mov	r1, #2
    9930:	ebfffd98 	bl	8f98 <gpio_set_function>
    9934:	e3a0000f 	mov	r0, #15
    9938:	e3a01002 	mov	r1, #2
    993c:	ebfffd95 	bl	8f98 <gpio_set_function>
    9940:	eb00004b 	bl	9a74 <dev_barrier>
    9944:	e59f4068 	ldr	r4, [pc, #104]	; 99b4 <uart_init+0x94>
    9948:	e5945000 	ldr	r5, [r4]
    994c:	e1a00005 	mov	r0, r5
    9950:	eb000059 	bl	9abc <get32>
    9954:	e3801001 	orr	r1, r0, #1
    9958:	e1a00005 	mov	r0, r5
    995c:	eb00004a 	bl	9a8c <put32>
    9960:	eb000043 	bl	9a74 <dev_barrier>
    9964:	e5940004 	ldr	r0, [r4, #4]
    9968:	e3a01000 	mov	r1, #0
    996c:	eb000046 	bl	9a8c <put32>
    9970:	e5940008 	ldr	r0, [r4, #8]
    9974:	e3a01000 	mov	r1, #0
    9978:	eb000043 	bl	9a8c <put32>
    997c:	e594000c 	ldr	r0, [r4, #12]
    9980:	e3a01006 	mov	r1, #6
    9984:	eb000040 	bl	9a8c <put32>
    9988:	e5940010 	ldr	r0, [r4, #16]
    998c:	e3a01003 	mov	r1, #3
    9990:	eb00003d 	bl	9a8c <put32>
    9994:	e5940014 	ldr	r0, [r4, #20]
    9998:	e59f1018 	ldr	r1, [pc, #24]	; 99b8 <uart_init+0x98>
    999c:	eb00003a 	bl	9a8c <put32>
    99a0:	e5940004 	ldr	r0, [r4, #4]
    99a4:	e3a01003 	mov	r1, #3
    99a8:	eb000037 	bl	9a8c <put32>
    99ac:	eb000030 	bl	9a74 <dev_barrier>
    99b0:	e8bd8038 	pop	{r3, r4, r5, pc}
    99b4:	00009bb0 			; <UNDEFINED> instruction: 0x00009bb0
    99b8:	0000010e 	andeq	r0, r0, lr, lsl #2

000099bc <uart_can_getc>:
    99bc:	e92d4008 	push	{r3, lr}
    99c0:	e59f300c 	ldr	r3, [pc, #12]	; 99d4 <uart_can_getc+0x18>
    99c4:	e5930018 	ldr	r0, [r3, #24]
    99c8:	eb00003b 	bl	9abc <get32>
    99cc:	e2000001 	and	r0, r0, #1
    99d0:	e8bd8008 	pop	{r3, pc}
    99d4:	00009bb0 			; <UNDEFINED> instruction: 0x00009bb0

000099d8 <uart_getc>:
    99d8:	e92d4008 	push	{r3, lr}
    99dc:	ebfffff6 	bl	99bc <uart_can_getc>
    99e0:	e3500000 	cmp	r0, #0
    99e4:	0afffffc 	beq	99dc <uart_getc+0x4>
    99e8:	e59f300c 	ldr	r3, [pc, #12]	; 99fc <uart_getc+0x24>
    99ec:	e593001c 	ldr	r0, [r3, #28]
    99f0:	eb000031 	bl	9abc <get32>
    99f4:	e6ef0070 	uxtb	r0, r0
    99f8:	e8bd8008 	pop	{r3, pc}
    99fc:	00009bb0 			; <UNDEFINED> instruction: 0x00009bb0

00009a00 <uart_can_putc>:
    9a00:	e92d4008 	push	{r3, lr}
    9a04:	e59f300c 	ldr	r3, [pc, #12]	; 9a18 <uart_can_putc+0x18>
    9a08:	e5930018 	ldr	r0, [r3, #24]
    9a0c:	eb00002a 	bl	9abc <get32>
    9a10:	e2000020 	and	r0, r0, #32
    9a14:	e8bd8008 	pop	{r3, pc}
    9a18:	00009bb0 			; <UNDEFINED> instruction: 0x00009bb0

00009a1c <uart_putc>:
    9a1c:	e92d4010 	push	{r4, lr}
    9a20:	e1a04000 	mov	r4, r0
    9a24:	ebfffff5 	bl	9a00 <uart_can_putc>
    9a28:	e3500000 	cmp	r0, #0
    9a2c:	0afffffc 	beq	9a24 <uart_putc+0x8>
    9a30:	e59f300c 	ldr	r3, [pc, #12]	; 9a44 <uart_putc+0x28>
    9a34:	e593001c 	ldr	r0, [r3, #28]
    9a38:	e1a01004 	mov	r1, r4
    9a3c:	eb000012 	bl	9a8c <put32>
    9a40:	e8bd8010 	pop	{r4, pc}
    9a44:	00009bb0 			; <UNDEFINED> instruction: 0x00009bb0

00009a48 <uart_has_data>:
    9a48:	e92d4008 	push	{r3, lr}
    9a4c:	ebffffda 	bl	99bc <uart_can_getc>
    9a50:	e8bd8008 	pop	{r3, pc}

00009a54 <uart_getc_async>:
    9a54:	e92d4008 	push	{r3, lr}
    9a58:	ebfffffa 	bl	9a48 <uart_has_data>
    9a5c:	e3500000 	cmp	r0, #0
    9a60:	0a000001 	beq	9a6c <uart_getc_async+0x18>
    9a64:	ebffffdb 	bl	99d8 <uart_getc>
    9a68:	e8bd8008 	pop	{r3, pc}
    9a6c:	e3e00000 	mvn	r0, #0
    9a70:	e8bd8008 	pop	{r3, pc}

00009a74 <dev_barrier>:
    9a74:	ea000002 	b	9a84 <dsb>

00009a78 <dmb>:
    9a78:	e3a00000 	mov	r0, #0
    9a7c:	ee070fba 	mcr	15, 0, r0, cr7, cr10, {5}
    9a80:	e12fff1e 	bx	lr

00009a84 <dsb>:
    9a84:	ee070f9a 	mcr	15, 0, r0, cr7, cr10, {4}
    9a88:	e12fff1e 	bx	lr

00009a8c <put32>:
    9a8c:	e5801000 	str	r1, [r0]
    9a90:	e12fff1e 	bx	lr

00009a94 <PUT32>:
    9a94:	e5801000 	str	r1, [r0]
    9a98:	e12fff1e 	bx	lr

00009a9c <put16>:
    9a9c:	e1c010b0 	strh	r1, [r0]
    9aa0:	e12fff1e 	bx	lr

00009aa4 <PUT16>:
    9aa4:	e1c010b0 	strh	r1, [r0]
    9aa8:	e12fff1e 	bx	lr

00009aac <put8>:
    9aac:	e5c01000 	strb	r1, [r0]
    9ab0:	e12fff1e 	bx	lr

00009ab4 <PUT8>:
    9ab4:	e5c01000 	strb	r1, [r0]
    9ab8:	e12fff1e 	bx	lr

00009abc <get32>:
    9abc:	e5900000 	ldr	r0, [r0]
    9ac0:	e12fff1e 	bx	lr

00009ac4 <GET32>:
    9ac4:	e5900000 	ldr	r0, [r0]
    9ac8:	e12fff1e 	bx	lr

00009acc <GETPC>:
    9acc:	e1a0000e 	mov	r0, lr
    9ad0:	e12fff1e 	bx	lr

00009ad4 <dummy>:
    9ad4:	e12fff1e 	bx	lr

00009ad8 <cb_new>:
    9ad8:	e92d4008 	push	{r3, lr}
    9adc:	e3a00409 	mov	r0, #150994944	; 0x9000000
    9ae0:	e3a01000 	mov	r1, #0
    9ae4:	e3a02004 	mov	r2, #4
    9ae8:	eb00000e 	bl	9b28 <memset>
    9aec:	e3a00409 	mov	r0, #150994944	; 0x9000000
    9af0:	e59f3004 	ldr	r3, [pc, #4]	; 9afc <cb_new+0x24>
    9af4:	e5803000 	str	r3, [r0]
    9af8:	e8bd8008 	pop	{r3, pc}
    9afc:	12345678 	eorsne	r5, r4, #120, 12	; 0x7800000

00009b00 <cb_get_block>:
    9b00:	e3a03409 	mov	r3, #150994944	; 0x9000000
    9b04:	e5932000 	ldr	r2, [r3]
    9b08:	e59f3014 	ldr	r3, [pc, #20]	; 9b24 <cb_get_block+0x24>
    9b0c:	e1520003 	cmp	r2, r3
    9b10:	0a000001 	beq	9b1c <cb_get_block+0x1c>
    9b14:	e3a00000 	mov	r0, #0
    9b18:	e12fff1e 	bx	lr
    9b1c:	e3a00409 	mov	r0, #150994944	; 0x9000000
    9b20:	e12fff1e 	bx	lr
    9b24:	12345678 	eorsne	r5, r4, #120, 12	; 0x7800000

00009b28 <memset>:
    9b28:	e0802002 	add	r2, r0, r2
    9b2c:	e1a03000 	mov	r3, r0
    9b30:	ea000001 	b	9b3c <memset+0x14>
    9b34:	e5c31000 	strb	r1, [r3]
    9b38:	e2833001 	add	r3, r3, #1
    9b3c:	e1530002 	cmp	r3, r2
    9b40:	3afffffb 	bcc	9b34 <memset+0xc>
    9b44:	e12fff1e 	bx	lr

Disassembly of section .data:

00009b48 <rpi_putchar>:
    9b48:	00008590 	muleq	r0, r0, r5

00009b4c <putk>:
    9b4c:	000085cc 	andeq	r8, r0, ip, asr #11

00009b50 <GPFSEL0>:
    9b50:	20200000 	eorcs	r0, r0, r0

00009b54 <GPFSEL1>:
    9b54:	20200004 	eorcs	r0, r0, r4

00009b58 <GPFSEL2>:
    9b58:	20200008 	eorcs	r0, r0, r8

00009b5c <GPFSEL3>:
    9b5c:	2020000c 	eorcs	r0, r0, ip

00009b60 <GPFSEL4>:
    9b60:	20200010 	eorcs	r0, r0, r0, lsl r0

00009b64 <GPFSEL5>:
    9b64:	20200014 	eorcs	r0, r0, r4, lsl r0

00009b68 <GPSET0>:
    9b68:	2020001c 	eorcs	r0, r0, ip, lsl r0

00009b6c <GPSET1>:
    9b6c:	20200020 	eorcs	r0, r0, r0, lsr #32

00009b70 <GPCLR0>:
    9b70:	20200028 	eorcs	r0, r0, r8, lsr #32

00009b74 <GPCLR1>:
    9b74:	2020002c 	eorcs	r0, r0, ip, lsr #32

00009b78 <GPLEV0>:
    9b78:	20200034 	eorcs	r0, r0, r4, lsr r0

00009b7c <GPLEV1>:
    9b7c:	20200038 	eorcs	r0, r0, r8, lsr r0

00009b80 <IRQ_PENDING_2>:
    9b80:	2000b208 	andcs	fp, r0, r8, lsl #4

00009b84 <GPREN0>:
    9b84:	2020004c 	eorcs	r0, r0, ip, asr #32

00009b88 <GPREN1>:
    9b88:	20200050 	eorcs	r0, r0, r0, asr r0

00009b8c <ENABLE_IRQS_2>:
    9b8c:	2000b214 	andcs	fp, r0, r4, lsl r2

00009b90 <GPFEN0>:
    9b90:	20200058 	eorcs	r0, r0, r8, asr r0

00009b94 <GPFEN1>:
    9b94:	2020005c 	eorcs	r0, r0, ip, asr r0

00009b98 <GPEDS0>:
    9b98:	20200040 	eorcs	r0, r0, r0, asr #32

00009b9c <GPEDS1>:
    9b9c:	20200044 	eorcs	r0, r0, r4, asr #32

00009ba0 <IRQ_PENDING_1>:
    9ba0:	2000b204 	andcs	fp, r0, r4, lsl #4

00009ba4 <gpio_clr0>:
    9ba4:	20200028 	eorcs	r0, r0, r8, lsr #32

00009ba8 <gpio_set0>:
    9ba8:	2020001c 	eorcs	r0, r0, ip, lsl r0

00009bac <gpio_fsel0>:
    9bac:	20200000 	eorcs	r0, r0, r0

00009bb0 <AUX_ENABLES>:
    9bb0:	20215004 	eorcs	r5, r1, r4

00009bb4 <AUX_MU_CNTL_REG>:
    9bb4:	20215060 	eorcs	r5, r1, r0, rrx

00009bb8 <AUX_MU_IER_REG>:
    9bb8:	20215044 	eorcs	r5, r1, r4, asr #32

00009bbc <AUX_MU_IIR_REG>:
    9bbc:	20215048 	eorcs	r5, r1, r8, asr #32

00009bc0 <AUX_MU_LCR_REG>:
    9bc0:	2021504c 	eorcs	r5, r1, ip, asr #32

00009bc4 <AUX_MU_BAUD_REG>:
    9bc4:	20215068 	eorcs	r5, r1, r8, rrx

00009bc8 <AUX_MU_LSR_REG>:
    9bc8:	20215054 	eorcs	r5, r1, r4, asr r0

00009bcc <AUX_MU_IO_REG>:
    9bcc:	20215040 	eorcs	r5, r1, r0, asr #32

00009bd0 <AUX_MU_STAT_REG>:
    9bd0:	20215064 	eorcs	r5, r1, r4, rrx

00009bd4 <AUX_MU_SCRATCH>:
    9bd4:	2021505c 	eorcs	r5, r1, ip, asr r0

00009bd8 <AUX_MU_MSR_REG>:
    9bd8:	20215058 	eorcs	r5, r1, r8, asr r0

00009bdc <AUX_MU_MCR_REG>:
    9bdc:	20215050 	eorcs	r5, r1, r0, asr r0

00009be0 <AUX_IRQ>:
    9be0:	20215000 	eorcs	r5, r1, r0

Disassembly of section .rodata:

00009be4 <__FUNCTION__.4228>:
    9be4:	6c637963 	stclvs	9, cr7, [r3], #-396	; 0xfffffe74
    9be8:	705f7365 	subsvc	r7, pc, r5, ror #6
    9bec:	735f7265 	cmpvc	pc, #1342177286	; 0x50000006
    9bf0:	00006365 	andeq	r6, r0, r5, ror #6
    9bf4:	4f525245 	svcmi	0x00525245
    9bf8:	73253a52 	teqvc	r5, #335872	; 0x52000
    9bfc:	3a73253a 	bcc	1cd30ec <__bss_end__+0x1cc8e3c>
    9c00:	203a6425 	eorscs	r6, sl, r5, lsr #8
    9c04:	534c4146 	movtpl	r4, #49478	; 0xc146
    9c08:	733c2845 	teqvc	ip, #4521984	; 0x450000
    9c0c:	32203c20 	eorcc	r3, r0, #32, 24	; 0x2000
    9c10:	203a293e 	eorscs	r2, sl, lr, lsr r9
    9c14:	6c6c6977 	stclvs	9, cr6, [ip], #-476	; 0xfffffe24
    9c18:	65766f20 	ldrbvs	r6, [r6, #-3872]!	; 0xf20
    9c1c:	6f6c6672 	svcvs	0x006c6672
    9c20:	00000a77 	andeq	r0, r0, r7, ror sl
    9c24:	706f6373 	rsbvc	r6, pc, r3, ror r3	; <UNPREDICTABLE>
    9c28:	00632e65 	rsbeq	r2, r3, r5, ror #28
    9c2c:	3a642520 	bcc	19130b4 <__bss_end__+0x1908e04>
    9c30:	6c617620 	stclvs	6, cr7, [r1], #-128	; 0xffffff80
    9c34:	2c64253d 	cfstr64cs	mvdx2, [r4], #-244	; 0xffffff0c
    9c38:	6d697420 	cfstrdvs	mvd7, [r9, #-128]!	; 0xffffff80
    9c3c:	64253d65 	strtvs	r3, [r5], #-3429	; 0xd65
    9c40:	6f74202c 	svcvs	0x0074202c
    9c44:	64253d74 	strtvs	r3, [r5], #-3444	; 0xd74
    9c48:	7865203a 	stmdavc	r5!, {r1, r3, r4, r5, sp}^
    9c4c:	64253d70 	strtvs	r3, [r5], #-3440	; 0xd70
    9c50:	72652820 	rsbvc	r2, r5, #32, 16	; 0x200000
    9c54:	64253d72 	strtvs	r3, [r5], #-3442	; 0xd72
    9c58:	6f74202c 	svcvs	0x0074202c
    9c5c:	72726574 	rsbsvc	r6, r2, #116, 10	; 0x1d000000
    9c60:	2964253d 	stmdbcs	r4!, {r0, r2, r3, r4, r5, r8, sl, sp}^
    9c64:	0000000a 	andeq	r0, r0, sl

00009c68 <__FUNCTION__.4265>:
    9c68:	74696d65 	strbtvc	r6, [r9], #-3429	; 0xd65
    9c6c:	00000000 	andeq	r0, r0, r0

00009c70 <__FUNCTION__.4213>:
    9c70:	5f697072 	svcpl	0x00697072
    9c74:	5f746573 	svcpl	0x00746573
    9c78:	7074756f 	rsbsvc	r7, r4, pc, ror #10
    9c7c:	00007475 	andeq	r7, r0, r5, ror r4

00009c80 <__FUNCTION__.4287>:
    9c80:	705f6176 	subsvc	r6, pc, r6, ror r1	; <UNPREDICTABLE>
    9c84:	746e6972 	strbtvc	r6, [lr], #-2418	; 0x972
    9c88:	0000006b 	andeq	r0, r0, fp, rrx
    9c8c:	494e4150 	stmdbmi	lr, {r4, r6, r8, lr}^
    9c90:	73253a43 	teqvc	r5, #274432	; 0x43000
    9c94:	3a73253a 	bcc	1cd3184 <__bss_end__+0x1cc8ed4>
    9c98:	253a6425 	ldrcs	r6, [sl, #-1061]!	; 0x425
    9c9c:	00000a73 	andeq	r0, r0, r3, ror sl
    9ca0:	6362696c 	cmnvs	r2, #108, 18	; 0x1b0000
    9ca4:	2d61762f 	stclcs	6, cr7, [r1, #-188]!	; 0xffffff44
    9ca8:	6e697270 	mcrvs	2, 3, r7, cr9, cr0, {3}
    9cac:	632e6b74 	teqvs	lr, #116, 22	; 0x1d000
    9cb0:	00000000 	andeq	r0, r0, r0
    9cb4:	00000030 	andeq	r0, r0, r0, lsr r0
    9cb8:	33323130 	teqcc	r2, #48, 2
    9cbc:	37363534 			; <UNDEFINED> instruction: 0x37363534
    9cc0:	00003938 	andeq	r3, r0, r8, lsr r9
    9cc4:	33323130 	teqcc	r2, #48, 2
    9cc8:	37363534 			; <UNDEFINED> instruction: 0x37363534
    9ccc:	62613938 	rsbvs	r3, r1, #56, 18	; 0xe0000
    9cd0:	66656463 	strbtvs	r6, [r5], -r3, ror #8
    9cd4:	00000000 	andeq	r0, r0, r0
    9cd8:	00003130 	andeq	r3, r0, r0, lsr r1
    9cdc:	63747570 	cmnvs	r4, #112, 10	; 0x1c000000
    9ce0:	0070665f 	rsbseq	r6, r0, pc, asr r6
    9ce4:	74646977 	strbtvc	r6, [r4], #-2423	; 0x977
    9ce8:	203c2068 	eorscs	r2, ip, r8, rrx
    9cec:	00003233 	andeq	r3, r0, r3, lsr r2
    9cf0:	494e4150 	stmdbmi	lr, {r4, r6, r8, lr}^
    9cf4:	73253a43 	teqvc	r5, #274432	; 0x43000
    9cf8:	3a73253a 	bcc	1cd31e8 <__bss_end__+0x1cc8f38>
    9cfc:	663a6425 	ldrtvs	r6, [sl], -r5, lsr #8
    9d00:	74616f6c 	strbtvc	r6, [r1], #-3948	; 0xf6c
    9d04:	746f6e20 	strbtvc	r6, [pc], #-3616	; 9d0c <__FUNCTION__.4287+0x8c>
    9d08:	616e6520 	cmnvs	lr, r0, lsr #10
    9d0c:	64656c62 	strbtvs	r6, [r5], #-3170	; 0xc62
    9d10:	0a212121 	beq	85219c <__bss_end__+0x847eec>
    9d14:	00000000 	andeq	r0, r0, r0
    9d18:	494e4150 	stmdbmi	lr, {r4, r6, r8, lr}^
    9d1c:	73253a43 	teqvc	r5, #274432	; 0x43000
    9d20:	3a73253a 	bcc	1cd3210 <__bss_end__+0x1cc8f60>
    9d24:	703a6425 	eorsvc	r6, sl, r5, lsr #8
    9d28:	746e6972 	strbtvc	r6, [lr], #-2418	; 0x972
    9d2c:	6e203a6b 	vnmulvs.f32	s6, s0, s23
    9d30:	6820746f 	stmdavs	r0!, {r0, r1, r2, r3, r5, r6, sl, ip, sp, lr}
    9d34:	6c646e61 	stclvs	14, cr6, [r4], #-388	; 0xfffffe7c
    9d38:	20676e69 	rsbcs	r6, r7, r9, ror #28
    9d3c:	63657073 	cmnvs	r5, #115	; 0x73
    9d40:	65696669 	strbvs	r6, [r9, #-1641]!	; 0x669
    9d44:	25272072 	strcs	r2, [r7, #-114]!	; 0x72
    9d48:	0a0a2763 	beq	293adc <__bss_end__+0x28982c>
    9d4c:	00000000 	andeq	r0, r0, r0
    9d50:	454e4f44 	strbmi	r4, [lr, #-3908]	; 0xf44
    9d54:	0a212121 	beq	8521e0 <__bss_end__+0x847f30>
    9d58:	00000000 	andeq	r0, r0, r0
    9d5c:	756f6261 	strbvc	r6, [pc, #-609]!	; 9b03 <cb_get_block+0x3>
    9d60:	6f742074 	svcvs	0x00742074
    9d64:	69727020 	ldmdbvs	r2!, {r5, ip, sp, lr}^
    9d68:	6f20746e 	svcvs	0x0020746e
    9d6c:	6572206e 	ldrbvs	r2, [r2, #-110]!	; 0x6e
    9d70:	616c7567 	cmnvs	ip, r7, ror #10
    9d74:	72702072 	rsbsvc	r2, r0, #114	; 0x72
    9d78:	66746e69 	ldrbtvs	r6, [r4], -r9, ror #28
    9d7c:	0000000a 	andeq	r0, r0, sl
    9d80:	63637573 	cmnvs	r3, #482344960	; 0x1cc00000
    9d84:	21737365 	cmncs	r3, r5, ror #6
    9d88:	0000000a 	andeq	r0, r0, sl

00009d8c <__FUNCTION__.4314>:
    9d8c:	755f7773 	ldrbvc	r7, [pc, #-1907]	; 9621 <sw_uart_gets_until+0x4d>
    9d90:	5f747261 	svcpl	0x00747261
    9d94:	73746567 	cmnvc	r4, #432013312	; 0x19c00000
    9d98:	746e755f 	strbtvc	r7, [lr], #-1375	; 0x55f
    9d9c:	00006c69 	andeq	r6, r0, r9, ror #24

00009da0 <__FUNCTION__.4326>:
    9da0:	755f7773 	ldrbvc	r7, [pc, #-1907]	; 9635 <sw_uart_gets_until+0x61>
    9da4:	5f747261 	svcpl	0x00747261
    9da8:	73746567 	cmnvc	r4, #432013312	; 0x19c00000
    9dac:	6d69745f 	cfstrdvs	mvd7, [r9, #-380]!	; 0xfffffe84
    9db0:	74756f65 	ldrbtvc	r6, [r5], #-3941	; 0xf65
    9db4:	00000000 	andeq	r0, r0, r0

00009db8 <__FUNCTION__.4340>:
    9db8:	755f7773 	ldrbvc	r7, [pc, #-1907]	; 964d <sw_uart_gets_until+0x79>
    9dbc:	5f747261 	svcpl	0x00747261
    9dc0:	74696e69 	strbtvc	r6, [r9], #-3689	; 0xe69
    9dc4:	6c65685f 	stclvs	8, cr6, [r5], #-380	; 0xfffffe84
    9dc8:	00726570 	rsbseq	r6, r2, r0, ror r5

00009dcc <__FUNCTION__.4346>:
    9dcc:	755f7773 	ldrbvc	r7, [pc, #-1907]	; 9661 <sw_uart_gets_until+0x8d>
    9dd0:	5f747261 	svcpl	0x00747261
    9dd4:	63746567 	cmnvs	r4, #432013312	; 0x19c00000
    9dd8:	00000000 	andeq	r0, r0, r0

00009ddc <__FUNCTION__.4368>:
    9ddc:	755f7773 	ldrbvc	r7, [pc, #-1907]	; 9671 <sw_uart_gets_until+0x9d>
    9de0:	5f747261 	svcpl	0x00747261
    9de4:	6e697270 	mcrvs	2, 3, r7, cr9, cr0, {3}
    9de8:	00006b74 	andeq	r6, r0, r4, ror fp

00009dec <__FUNCTION__.4376>:
    9dec:	755f7773 	ldrbvc	r7, [pc, #-1907]	; 9681 <sw_uart_gets_timeout+0x9>
    9df0:	5f747261 	svcpl	0x00747261
    9df4:	73746567 	cmnvc	r4, #432013312	; 0x19c00000
    9df8:	746e755f 	strbtvc	r7, [lr], #-1375	; 0x55f
    9dfc:	625f6c69 	subsvs	r6, pc, #26880	; 0x6900
    9e00:	00006b6c 	andeq	r6, r0, ip, ror #22
    9e04:	732d796d 	teqvc	sp, #1785856	; 0x1b4000
    9e08:	732f6372 	teqvc	pc, #-939524095	; 0xc8000001
    9e0c:	61752d77 	cmnvs	r5, r7, ror sp
    9e10:	632e7472 	teqvs	lr, #1912602624	; 0x72000000
    9e14:	00000000 	andeq	r0, r0, r0
    9e18:	7479626e 	ldrbtvc	r6, [r9], #-622	; 0x26e
    9e1c:	303e7365 	eorscc	r7, lr, r5, ror #6
    9e20:	00000000 	andeq	r0, r0, r0
    9e24:	7a686d28 	bvc	1a252cc <__bss_end__+0x1a1b01c>
    9e28:	62202d20 	eorvs	r2, r0, #32, 26	; 0x800
    9e2c:	29647561 	stmdbcs	r4!, {r0, r5, r6, r8, sl, ip, sp, lr}^
    9e30:	203d3c20 	eorscs	r3, sp, r0, lsr #24
    9e34:	69726564 	ldmdbvs	r2!, {r2, r5, r6, r8, sl, sp, lr}^
    9e38:	20646576 	rsbcs	r6, r4, r6, ror r5
    9e3c:	64202626 	strtvs	r2, [r0], #-1574	; 0x626
    9e40:	76697265 	strbtvc	r7, [r9], -r5, ror #4
    9e44:	3c206465 	cfstrscc	mvf6, [r0], #-404	; 0xfffffe6c
    9e48:	6d28203d 	stcvs	0, cr2, [r8, #-244]!	; 0xffffff0c
    9e4c:	2b207a68 	blcs	8287f4 <__bss_end__+0x81e544>
    9e50:	75616220 	strbvc	r6, [r1, #-544]!	; 0x220
    9e54:	00002964 	andeq	r2, r0, r4, ror #18
    9e58:	494e4150 	stmdbmi	lr, {r4, r6, r8, lr}^
    9e5c:	73253a43 	teqvc	r5, #274432	; 0x43000
    9e60:	3a73253a 	bcc	1cd3350 <__bss_end__+0x1cc90a0>
    9e64:	693a6425 	ldmdbvs	sl!, {r0, r2, r5, sl, sp, lr}
    9e68:	736f706d 	cmnvc	pc, #109	; 0x6d
    9e6c:	6c626973 	stclvs	9, cr6, [r2], #-460	; 0xfffffe34
    9e70:	68203a65 	stmdavs	r0!, {r0, r2, r5, r6, r9, fp, ip, sp}
    9e74:	20657661 	rsbcs	r7, r5, r1, ror #12
    9e78:	69206e61 	stmdbvs	r0!, {r0, r5, r6, r9, sl, fp, sp, lr}
    9e7c:	6e69666e 	cdpvs	6, 6, cr6, cr9, cr14, {3}
    9e80:	20657469 	rsbcs	r7, r5, r9, ror #8
    9e84:	656d6974 	strbvs	r6, [sp, #-2420]!	; 0x974
    9e88:	2174756f 	cmncs	r4, pc, ror #10
    9e8c:	00000a0a 	andeq	r0, r0, sl, lsl #20
    9e90:	3c207a73 	stccc	10, cr7, [r0], #-460	; 0xfffffe34
    9e94:	7a697320 	bvc	1a66b1c <__bss_end__+0x1a5c86c>
    9e98:	20666f65 	rsbcs	r6, r6, r5, ror #30
    9e9c:	2d667562 	cfstr64cs	mvdx7, [r6, #-392]!	; 0xfffffe78
    9ea0:	00000031 	andeq	r0, r0, r1, lsr r0

Disassembly of section .bss:

00009ea4 <__bss_start__>:
	...

0000a2a4 <console_uart>:
	...

Disassembly of section .ARM.attributes:

00000000 <.ARM.attributes>:
   0:	00002a41 	andeq	r2, r0, r1, asr #20
   4:	61656100 	cmnvs	r5, r0, lsl #2
   8:	01006962 	tsteq	r0, r2, ror #18
   c:	00000020 	andeq	r0, r0, r0, lsr #32
  10:	4b5a3605 	blmi	168d82c <__bss_end__+0x168357c>
  14:	08070600 	stmdaeq	r7, {r9, sl}
  18:	12010901 	andne	r0, r1, #16384	; 0x4000
  1c:	15011404 	strne	r1, [r1, #-1028]	; 0x404
  20:	18031701 	stmdane	r3, {r0, r8, r9, sl, ip}
  24:	22011a01 	andcs	r1, r1, #4096	; 0x1000
  28:	Address 0x0000000000000028 is out of bounds.


Disassembly of section .comment:

00000000 <.comment>:
   0:	3a434347 	bcc	10d0d24 <__bss_end__+0x10c6a74>
   4:	4e472820 	cdpmi	8, 4, cr2, cr7, cr0, {1}
   8:	34202955 	strtcc	r2, [r0], #-2389	; 0x955
   c:	332e382e 	teqcc	lr, #3014656	; 0x2e0000
	...

Disassembly of section .debug_info:

00000000 <.debug_info>:
       0:	000006cb 	andeq	r0, r0, fp, asr #13
       4:	00000004 	andeq	r0, r0, r4
       8:	01040000 	mrseq	r0, (UNDEF: 4)
       c:	0000007c 	andeq	r0, r0, ip, ror r0
      10:	00029b01 	andeq	r9, r2, r1, lsl #22
      14:	0001cb00 	andeq	ip, r1, r0, lsl #22
      18:	00801000 	addeq	r1, r0, r0
      1c:	00052800 	andeq	r2, r5, r0, lsl #16
      20:	00000000 	andeq	r0, r0, r0
      24:	05040200 	streq	r0, [r4, #-512]	; 0x200
      28:	00746e69 	rsbseq	r6, r4, r9, ror #28
      2c:	33070403 	movwcc	r0, #29699	; 0x7403
      30:	03000000 	movweq	r0, #0
      34:	01950601 	orrseq	r0, r5, r1, lsl #12
      38:	02030000 	andeq	r0, r3, #0
      3c:	0001a105 	andeq	sl, r1, r5, lsl #2
      40:	05040300 	streq	r0, [r4, #-768]	; 0x300
      44:	00000045 	andeq	r0, r0, r5, asr #32
      48:	40050803 	andmi	r0, r5, r3, lsl #16
      4c:	03000000 	movweq	r0, #0
      50:	01930801 	orrseq	r0, r3, r1, lsl #16
      54:	02030000 	andeq	r0, r3, #0
      58:	00012707 	andeq	r2, r1, r7, lsl #14
      5c:	07040300 	streq	r0, [r4, -r0, lsl #6]
      60:	0000002e 	andeq	r0, r0, lr, lsr #32
      64:	29070803 	stmdbcs	r7, {r0, r1, fp}
      68:	03000000 	movweq	r0, #0
      6c:	01710704 	cmneq	r1, r4, lsl #14
      70:	01030000 	mrseq	r0, (UNDEF: 3)
      74:	00019c08 	andeq	r9, r1, r8, lsl #24
      78:	7f040400 	svcvc	0x00040400
      7c:	05000000 	streq	r0, [r0, #-0]
      80:	00000072 	andeq	r0, r0, r2, ror r0
      84:	1c010806 	stcne	8, cr0, [r1], {6}
      88:	000000a3 	andeq	r0, r0, r3, lsr #1
      8c:	01007607 	tsteq	r0, r7, lsl #12
      90:	00002c1d 	andeq	r2, r0, sp, lsl ip
      94:	95080000 	strls	r0, [r8, #-0]
      98:	01000008 	tsteq	r0, r8
      9c:	00002c1d 	andeq	r2, r0, sp, lsl ip
      a0:	09000400 	stmdbeq	r0, {sl}
      a4:	00000072 	andeq	r0, r0, r2, ror r0
      a8:	00841e01 	addeq	r1, r4, r1, lsl #28
      ac:	6d0a0000 	stcvs	0, cr0, [sl, #-0]
      b0:	01000002 	tsteq	r0, r2
      b4:	00002521 	andeq	r2, r0, r1, lsr #10
      b8:	00ca0300 	sbceq	r0, sl, r0, lsl #6
      bc:	700b0000 	andvc	r0, fp, r0
      c0:	01006e69 	tsteq	r0, r9, ror #28
      c4:	00002c21 	andeq	r2, r0, r1, lsr #24
      c8:	bc0c0000 	stclt	0, cr0, [ip], {-0}
      cc:	01000001 	tsteq	r0, r1
      d0:	00002c26 	andeq	r2, r0, r6, lsr #24
      d4:	00801000 	addeq	r1, r0, r0
      d8:	00005000 	andeq	r5, r0, r0
      dc:	aa9c0100 	bge	fe7004e4 <__bss_end__+0xfe6f6234>
      e0:	0d000001 	stceq	0, cr0, [r0, #-4]
      e4:	26010073 			; <UNDEFINED> instruction: 0x26010073
      e8:	0000002c 	andeq	r0, r0, ip, lsr #32
      ec:	00000000 	andeq	r0, r0, r0
      f0:	00010a0e 	andeq	r0, r1, lr, lsl #20
      f4:	0001ba00 	andeq	fp, r1, r0, lsl #20
      f8:	e4030500 	str	r0, [r3], #-1280	; 0x500
      fc:	0f00009b 	svceq	0x0000009b
     100:	00000236 	andeq	r0, r0, r6, lsr r2
     104:	002c2801 	eoreq	r2, ip, r1, lsl #16
     108:	3a100000 	bcc	400110 <__bss_end__+0x3f5e60>
     10c:	01000001 	tsteq	r0, r1
     110:	00002c2a 	andeq	r2, r0, sl, lsr #24
     114:	00003a00 	andeq	r3, r0, r0, lsl #20
     118:	801c1100 	andshi	r1, ip, r0, lsl #2
     11c:	00040000 	andeq	r0, r4, r0
     120:	01320000 	teqeq	r2, r0
     124:	890f0000 	stmdbhi	pc, {}	; <UNPREDICTABLE>
     128:	01000001 	tsteq	r0, r1
     12c:	00002c28 	andeq	r2, r0, r8, lsr #24
     130:	2c110000 	ldccs	0, cr0, [r1], {-0}
     134:	04000080 	streq	r0, [r0], #-128	; 0x80
     138:	4f000000 	svcmi	0x00000000
     13c:	10000001 	andne	r0, r0, r1
     140:	00000189 	andeq	r0, r0, r9, lsl #3
     144:	002c2a01 	eoreq	r2, ip, r1, lsl #20
     148:	003a0000 	eorseq	r0, sl, r0
     14c:	12000000 	andne	r0, r0, #0
     150:	0000802c 	andeq	r8, r0, ip, lsr #32
     154:	00000685 	andeq	r0, r0, r5, lsl #13
     158:	00000168 	andeq	r0, r0, r8, ror #2
     15c:	07500113 	smmlaeq	r0, r3, r1, r0
     160:	0a5001f3 	beq	1400934 <__bss_end__+0x13f6684>
     164:	001e03e8 	andseq	r0, lr, r8, ror #7
     168:	00803c14 	addeq	r3, r0, r4, lsl ip
     16c:	00069600 	andeq	r9, r6, r0, lsl #12
     170:	80501200 	subshi	r1, r0, r0, lsl #4
     174:	069d0000 	ldreq	r0, [sp], r0
     178:	01a00000 	moveq	r0, r0
     17c:	01130000 	tsteq	r3, r0
     180:	27080253 	smlsdcs	r8, r3, r2, r0
     184:	05520113 	ldrbeq	r0, [r2, #-275]	; 0x113
     188:	009be403 	addseq	lr, fp, r3, lsl #8
     18c:	51011300 	mrspl	r1, SP_irq
     190:	9c240305 	stcls	3, cr0, [r4], #-20	; 0xffffffec
     194:	01130000 	tsteq	r3, r0
     198:	f4030550 	vst3.16	{d0,d2,d4}, [r3 :64], r0
     19c:	0000009b 	muleq	r0, fp, r0
     1a0:	00805414 	addeq	r5, r0, r4, lsl r4
     1a4:	0006b300 	andeq	fp, r6, r0, lsl #6
     1a8:	72150000 	andsvc	r0, r5, #0
     1ac:	ba000000 	blt	1b4 <_start-0x7e4c>
     1b0:	16000001 	strne	r0, [r0], -r1
     1b4:	0000006b 	andeq	r0, r0, fp, rrx
     1b8:	aa05000e 	bge	1401f8 <__bss_end__+0x135f48>
     1bc:	0c000001 	stceq	0, cr0, [r0], {1}
     1c0:	00000226 	andeq	r0, r0, r6, lsr #4
     1c4:	002c3401 	eoreq	r3, ip, r1, lsl #8
     1c8:	80600000 	rsbhi	r0, r0, r0
     1cc:	03f80000 	mvnseq	r0, #0
     1d0:	9c010000 	stcls	0, cr0, [r1], {-0}
     1d4:	000003c4 	andeq	r0, r0, r4, asr #7
     1d8:	6e69700d 	cdpvs	0, 6, cr7, cr9, cr13, {0}
     1dc:	2c340100 	ldfcss	f0, [r4], #-0
     1e0:	4d000000 	stcmi	0, cr0, [r0, #-0]
     1e4:	17000000 	strne	r0, [r0, -r0]
     1e8:	3401006c 	strcc	r0, [r1], #-108	; 0x6c
     1ec:	000003c4 	andeq	r0, r0, r4, asr #7
     1f0:	4c185101 	ldfmis	f5, [r8], {1}
     1f4:	01000001 	tsteq	r0, r1
     1f8:	00002c34 	andeq	r2, r0, r4, lsr ip
     1fc:	00007900 	andeq	r7, r0, r0, lsl #18
     200:	027c1800 	rsbseq	r1, ip, #0, 16
     204:	34010000 	strcc	r0, [r1], #-0
     208:	0000002c 	andeq	r0, r0, ip, lsr #32
     20c:	0000009a 	muleq	r0, sl, r0
     210:	00011710 	andeq	r1, r1, r0, lsl r7
     214:	2c350100 	ldfcss	f0, [r5], #-0
     218:	bb000000 	bllt	220 <_start-0x7de0>
     21c:	10000000 	andne	r0, r0, r0
     220:	00000287 	andeq	r0, r0, r7, lsl #5
     224:	002c3601 	eoreq	r3, ip, r1, lsl #12
     228:	00da0000 	sbcseq	r0, sl, r0
     22c:	3c100000 	ldccc	0, cr0, [r0], {-0}
     230:	01000002 	tsteq	r0, r2
     234:	00002c37 	andeq	r2, r0, r7, lsr ip
     238:	00013a00 	andeq	r3, r1, r0, lsl #20
     23c:	017a1900 	cmneq	sl, r0, lsl #18
     240:	38010000 	stmdacc	r1, {}	; <UNPREDICTABLE>
     244:	000003ca 	andeq	r0, r0, sl, asr #7
     248:	7fbc9103 	svcvc	0x00bc9103
     24c:	00001710 	andeq	r1, r0, r0, lsl r7
     250:	2c3a0100 	ldfcss	f0, [sl], #-0
     254:	a5000000 	strge	r0, [r0, #-0]
     258:	10000001 	andne	r0, r0, r1
     25c:	000004fe 	strdeq	r0, [r0], -lr
     260:	002c3c01 	eoreq	r3, ip, r1, lsl #24
     264:	01b80000 			; <UNDEFINED> instruction: 0x01b80000
     268:	66100000 	ldrvs	r0, [r0], -r0
     26c:	01000002 	tsteq	r0, r2
     270:	00002c41 	andeq	r2, r0, r1, asr #24
     274:	0001f000 	andeq	pc, r1, r0
     278:	01ab1000 			; <UNDEFINED> instruction: 0x01ab1000
     27c:	8f010000 	svchi	0x00010000
     280:	0000002c 	andeq	r0, r0, ip, lsr #32
     284:	00000240 	andeq	r0, r0, r0, asr #4
     288:	0000ae1a 	andeq	sl, r0, sl, lsl lr
     28c:	00806400 	addeq	r6, r0, r0, lsl #8
     290:	00000000 	andeq	r0, r0, r0
     294:	a53a0100 	ldrge	r0, [sl, #-256]!	; 0x100
     298:	1b000002 	blne	2a8 <_start-0x7d58>
     29c:	000000be 	strheq	r0, [r0], -lr
     2a0:	0000004d 	andeq	r0, r0, sp, asr #32
     2a4:	00181c00 	andseq	r1, r8, r0, lsl #24
     2a8:	02be0000 	adcseq	r0, lr, #0
     2ac:	89100000 	ldmdbhi	r0, {}	; <UNPREDICTABLE>
     2b0:	01000001 	tsteq	r0, r1
     2b4:	00002c40 	andeq	r2, r0, r0, asr #24
     2b8:	0001b800 	andeq	fp, r1, r0, lsl #16
     2bc:	301c0000 	andscc	r0, ip, r0
     2c0:	99000000 	stmdbls	r0, {}	; <UNPREDICTABLE>
     2c4:	1d000003 	stcne	0, cr0, [r0, #-12]
     2c8:	55010069 	strpl	r0, [r1, #-105]	; 0x69
     2cc:	00000025 	andeq	r0, r0, r5, lsr #32
     2d0:	00000343 	andeq	r0, r0, r3, asr #6
     2d4:	00809c11 	addeq	r9, r0, r1, lsl ip
     2d8:	00000400 	andeq	r0, r0, r0, lsl #8
     2dc:	0002ed00 	andeq	lr, r2, r0, lsl #26
     2e0:	01890f00 	orreq	r0, r9, r0, lsl #30
     2e4:	58010000 	stmdapl	r1, {}	; <UNPREDICTABLE>
     2e8:	0000002c 	andeq	r0, r0, ip, lsr #32
     2ec:	80bc1100 	adcshi	r1, ip, r0, lsl #2
     2f0:	00040000 	andeq	r0, r4, r0
     2f4:	03060000 	movweq	r0, #24576	; 0x6000
     2f8:	890f0000 	stmdbhi	pc, {}	; <UNPREDICTABLE>
     2fc:	01000001 	tsteq	r0, r1
     300:	00002c5e 	andeq	r2, r0, lr, asr ip
     304:	dc110000 	ldcle	0, cr0, [r1], {-0}
     308:	04000080 	streq	r0, [r0], #-128	; 0x80
     30c:	1f000000 	svcne	0x00000000
     310:	0f000003 	svceq	0x00000003
     314:	00000189 	andeq	r0, r0, r9, lsl #3
     318:	002c6401 	eoreq	r6, ip, r1, lsl #8
     31c:	11000000 	mrsne	r0, (UNDEF: 0)
     320:	000080fc 	strdeq	r8, [r0], -ip
     324:	00000004 	andeq	r0, r0, r4
     328:	00000338 	andeq	r0, r0, r8, lsr r3
     32c:	0001890f 	andeq	r8, r1, pc, lsl #18
     330:	2c6a0100 	stfcse	f0, [sl], #-0
     334:	00000000 	andeq	r0, r0, r0
     338:	00811c11 	addeq	r1, r1, r1, lsl ip
     33c:	00000400 	andeq	r0, r0, r0, lsl #8
     340:	00035100 	andeq	r5, r3, r0, lsl #2
     344:	01890f00 	orreq	r0, r9, r0, lsl #30
     348:	70010000 	andvc	r0, r1, r0
     34c:	0000002c 	andeq	r0, r0, ip, lsr #32
     350:	813c1100 	teqhi	ip, r0, lsl #2
     354:	00040000 	andeq	r0, r4, r0
     358:	036a0000 	cmneq	sl, #0
     35c:	890f0000 	stmdbhi	pc, {}	; <UNPREDICTABLE>
     360:	01000001 	tsteq	r0, r1
     364:	00002c76 	andeq	r2, r0, r6, ror ip
     368:	5c110000 	ldcpl	0, cr0, [r1], {-0}
     36c:	04000081 	streq	r0, [r0], #-129	; 0x81
     370:	83000000 	movwhi	r0, #0
     374:	0f000003 	svceq	0x00000003
     378:	00000189 	andeq	r0, r0, r9, lsl #3
     37c:	002c7c01 	eoreq	r7, ip, r1, lsl #24
     380:	1e000000 	cdpne	0, 0, cr0, cr0, cr0, {0}
     384:	0000817c 	andeq	r8, r0, ip, ror r1
     388:	00000004 	andeq	r0, r0, r4
     38c:	0001890f 	andeq	r8, r1, pc, lsl #18
     390:	2c820100 	stfcss	f0, [r2], {0}
     394:	00000000 	andeq	r0, r0, r0
     398:	00481c00 	subeq	r1, r8, r0, lsl #24
     39c:	03b00000 	movseq	r0, #0
     3a0:	611d0000 	tstvs	sp, r0
     3a4:	25900100 	ldrcs	r0, [r0, #256]	; 0x100
     3a8:	57000000 	strpl	r0, [r0, -r0]
     3ac:	00000003 	andeq	r0, r0, r3
     3b0:	0000681f 	andeq	r6, r0, pc, lsl r8
     3b4:	006a1d00 	rsbeq	r1, sl, r0, lsl #26
     3b8:	00259701 	eoreq	r9, r5, r1, lsl #14
     3bc:	03810000 	orreq	r0, r1, #0
     3c0:	00000000 	andeq	r0, r0, r0
     3c4:	00a30404 	adceq	r0, r3, r4, lsl #8
     3c8:	2c150000 	ldccs	0, cr0, [r5], {-0}
     3cc:	da000000 	ble	3d4 <_start-0x7c2c>
     3d0:	16000003 	strne	r0, [r0], -r3
     3d4:	0000006b 	andeq	r0, r0, fp, rrx
     3d8:	3f20000a 	svccc	0x0020000a
     3dc:	01000001 	tsteq	r0, r1
     3e0:	008458a3 	addeq	r5, r4, r3, lsr #17
     3e4:	00009000 	andeq	r9, r0, r0
     3e8:	bc9c0100 	ldflts	f0, [ip], {0}
     3ec:	0d000004 	stceq	0, cr0, [r0, #-16]
     3f0:	a301006c 	movwge	r0, #4204	; 0x106c
     3f4:	000003c4 	andeq	r0, r0, r4, asr #7
     3f8:	000004ab 	andeq	r0, r0, fp, lsr #9
     3fc:	01006e0d 	tsteq	r0, sp, lsl #28
     400:	00002ca3 	andeq	r2, r0, r3, lsr #25
     404:	0004d700 	andeq	sp, r4, r0, lsl #14
     408:	00221800 	eoreq	r1, r2, r0, lsl #16
     40c:	a3010000 	movwge	r0, #4096	; 0x1000
     410:	0000002c 	andeq	r0, r0, ip, lsr #32
     414:	00000505 	andeq	r0, r0, r5, lsl #10
     418:	746f741d 	strbtvc	r7, [pc], #-1053	; 420 <_start-0x7be0>
     41c:	2ca40100 	stfcss	f0, [r4]
     420:	31000000 	mrscc	r0, (UNDEF: 0)
     424:	10000005 	andne	r0, r0, r5
     428:	0000004e 	andeq	r0, r0, lr, asr #32
     42c:	002ca401 	eoreq	sl, ip, r1, lsl #8
     430:	05500000 	ldrbeq	r0, [r0, #-0]
     434:	801f0000 	andshi	r0, pc, r0
     438:	1d000000 	stcne	0, cr0, [r0, #-0]
     43c:	a6010069 	strge	r0, [r1], -r9, rrx
     440:	00000025 	andeq	r0, r0, r5, lsr #32
     444:	0000056f 	andeq	r0, r0, pc, ror #10
     448:	0084901e 	addeq	r9, r4, lr, lsl r0
     44c:	00004000 	andeq	r4, r0, r0
     450:	00651d00 	rsbeq	r1, r5, r0, lsl #26
     454:	03c4a701 	biceq	sl, r4, #262144	; 0x40000
     458:	05b10000 	ldreq	r0, [r1, #0]!
     45c:	8e100000 	cdphi	0, 1, cr0, cr0, cr0, {0}
     460:	01000001 	tsteq	r0, r1
     464:	00002ca9 	andeq	r2, r0, r9, lsr #25
     468:	0005d400 	andeq	sp, r5, r0, lsl #8
     46c:	78651d00 	stmdavc	r5!, {r8, sl, fp, ip}^
     470:	ac010070 	stcge	0, cr0, [r1], {112}	; 0x70
     474:	0000002c 	andeq	r0, r0, ip, lsr #32
     478:	000005e7 	andeq	r0, r0, r7, ror #11
     47c:	7272651d 	rsbsvc	r6, r2, #121634816	; 0x7400000
     480:	2cad0100 	stfcss	f0, [sp]
     484:	fa000000 	blx	48c <_start-0x7b74>
     488:	21000005 	tstcs	r0, r5
     48c:	000084d0 	ldrdeq	r8, [r0], -r0
     490:	0000069d 	muleq	r0, sp, r6
     494:	02510113 	subseq	r0, r1, #-1073741820	; 0xc0000004
     498:	01137f77 	tsteq	r3, r7, ror pc
     49c:	2c030550 	cfstr32cs	mvfx0, [r3], {80}	; 0x50
     4a0:	1300009c 	movwne	r0, #156	; 0x9c
     4a4:	020c7d02 	andeq	r7, ip, #2, 26	; 0x80
     4a8:	02130076 	andseq	r0, r3, #118	; 0x76
     4ac:	7402047d 	strvc	r0, [r2], #-1149	; 0x47d
     4b0:	7d021300 	stcvc	3, cr1, [r2, #-0]
     4b4:	00750200 	rsbseq	r0, r5, r0, lsl #4
     4b8:	00000000 	andeq	r0, r0, r0
     4bc:	00000f20 	andeq	r0, r0, r0, lsr #30
     4c0:	e8b40100 	ldm	r4!, {r8}
     4c4:	50000084 	andpl	r0, r0, r4, lsl #1
     4c8:	01000000 	mrseq	r0, (UNDEF: 0)
     4cc:	0005849c 	muleq	r5, ip, r4
     4d0:	69702200 	ldmdbvs	r0!, {r9, sp}^
     4d4:	b501006e 	strlt	r0, [r1, #-110]	; 0x6e
     4d8:	00000025 	andeq	r0, r0, r5, lsr #32
     4dc:	6f6c2315 	svcvs	0x006c2315
     4e0:	bb010067 	bllt	40684 <__bss_end__+0x363d4>
     4e4:	00000584 	andeq	r0, r0, r4, lsl #11
     4e8:	7fa89103 	svcvc	0x00a89103
     4ec:	01006e1d 	tsteq	r0, sp, lsl lr
     4f0:	00002cbd 			; <UNDEFINED> instruction: 0x00002cbd
     4f4:	00061900 	andeq	r1, r6, r0, lsl #18
     4f8:	84fc1100 	ldrbthi	r1, [ip], #256	; 0x100
     4fc:	00080000 	andeq	r0, r8, r0
     500:	05120000 	ldreq	r0, [r2, #-0]
     504:	69220000 	stmdbvs	r2!, {}	; <UNPREDICTABLE>
     508:	b801006e 	stmdalt	r1, {r1, r2, r3, r5, r6}
     50c:	0000002c 	andeq	r0, r0, ip, lsr #32
     510:	f4140001 			; <UNDEFINED> instruction: 0xf4140001
     514:	ba000084 	blt	72c <_start-0x78d4>
     518:	12000006 	andne	r0, r0, #6
     51c:	000084fc 	strdeq	r8, [r0], -ip
     520:	000006c1 	andeq	r0, r0, r1, asr #13
     524:	0000052e 	andeq	r0, r0, lr, lsr #10
     528:	01500113 	cmpeq	r0, r3, lsl r1
     52c:	0c120045 	ldceq	0, cr0, [r2], {69}	; 0x45
     530:	ca000085 	bgt	74c <_start-0x78b4>
     534:	41000000 	mrsmi	r0, (UNDEF: 0)
     538:	13000005 	movwne	r0, #5
     53c:	31015001 	tstcc	r1, r1
     540:	85201200 	strhi	r1, [r0, #-512]!	; 0x200
     544:	01bf0000 			; <UNDEFINED> instruction: 0x01bf0000
     548:	055f0000 	ldrbeq	r0, [pc, #-0]	; 550 <_start-0x7ab0>
     54c:	01130000 	tsteq	r3, r0
     550:	133a0152 	teqne	sl, #-2147483628	; 0x80000014
     554:	7d025101 	stfvcs	f5, [r2, #-4]
     558:	50011300 	andpl	r1, r1, r0, lsl #6
     55c:	12004501 	andne	r4, r0, #4194304	; 0x400000
     560:	00008530 	andeq	r8, r0, r0, lsr r5
     564:	000003da 	ldrdeq	r0, [r0], -sl
     568:	0000057a 	andeq	r0, r0, sl, ror r5
     56c:	03520113 	cmpeq	r2, #-1073741820	; 0xc0000004
     570:	1317700a 	tstne	r7, #10
     574:	7d025001 	stcvc	0, cr5, [r2, #-4]
     578:	34140000 	ldrcc	r0, [r4], #-0
     57c:	b3000085 	movwlt	r0, #133	; 0x85
     580:	00000006 	andeq	r0, r0, r6
     584:	0000a315 	andeq	sl, r0, r5, lsl r3
     588:	00059400 	andeq	r9, r5, r0, lsl #8
     58c:	006b1600 	rsbeq	r1, fp, r0, lsl #12
     590:	00090000 	andeq	r0, r9, r0
     594:	00015224 	andeq	r5, r1, r4, lsr #4
     598:	a3070100 	movwge	r0, #28928	; 0x7100
     59c:	00000005 	andeq	r0, r0, r5
     5a0:	04202000 	strteq	r2, [r0], #-0
     5a4:	0005a904 	andeq	sl, r5, r4, lsl #18
     5a8:	002c2500 	eoreq	r2, ip, r0, lsl #10
     5ac:	2c240000 	stccs	0, cr0, [r4], #-0
     5b0:	01000002 	tsteq	r0, r2
     5b4:	0005a308 	andeq	sl, r5, r8, lsl #6
     5b8:	20001c00 	andcs	r1, r0, r0, lsl #24
     5bc:	02912420 	addseq	r2, r1, #32, 8	; 0x20000000
     5c0:	09010000 	stmdbeq	r1, {}	; <UNPREDICTABLE>
     5c4:	000005a3 	andeq	r0, r0, r3, lsr #11
     5c8:	20200028 	eorcs	r0, r0, r8, lsr #32
     5cc:	0000e224 	andeq	lr, r0, r4, lsr #4
     5d0:	a30b0100 	movwge	r0, #45312	; 0xb100
     5d4:	00000005 	andeq	r0, r0, r5
     5d8:	24202000 	strtcs	r2, [r0], #-0
     5dc:	000000ea 	andeq	r0, r0, sl, ror #1
     5e0:	05a30c01 	streq	r0, [r3, #3073]!	; 0xc01
     5e4:	00040000 	andeq	r0, r4, r0
     5e8:	00242020 	eoreq	r2, r4, r0, lsr #32
     5ec:	01000000 	mrseq	r0, (UNDEF: 0)
     5f0:	0005a30d 	andeq	sl, r5, sp, lsl #6
     5f4:	20000800 	andcs	r0, r0, r0, lsl #16
     5f8:	00f22420 	rscseq	r2, r2, r0, lsr #8
     5fc:	0e010000 	cdpeq	0, 0, cr0, cr1, cr0, {0}
     600:	000005a3 	andeq	r0, r0, r3, lsr #11
     604:	2020000c 	eorcs	r0, r0, ip
     608:	0000fa24 	andeq	pc, r0, r4, lsr #20
     60c:	a30f0100 	movwge	r0, #61696	; 0xf100
     610:	10000005 	andne	r0, r0, r5
     614:	24202000 	strtcs	r2, [r0], #-0
     618:	00000102 	andeq	r0, r0, r2, lsl #2
     61c:	05a31001 	streq	r1, [r3, #1]!
     620:	00140000 	andseq	r0, r4, r0
     624:	56242020 	strtpl	r2, [r4], -r0, lsr #32
     628:	01000000 	mrseq	r0, (UNDEF: 0)
     62c:	0005a312 	andeq	sl, r5, r2, lsl r3
     630:	20001c00 	andcs	r1, r0, r0, lsl #24
     634:	005d2420 	subseq	r2, sp, r0, lsr #8
     638:	13010000 	movwne	r0, #4096	; 0x1000
     63c:	000005a3 	andeq	r0, r0, r3, lsr #11
     640:	20200020 	eorcs	r0, r0, r0, lsr #32
     644:	00000824 	andeq	r0, r0, r4, lsr #16
     648:	a3150100 	tstge	r5, #0, 2
     64c:	28000005 	stmdacs	r0, {r0, r2}
     650:	24202000 	strtcs	r2, [r0], #-0
     654:	0000015d 	andeq	r0, r0, sp, asr r1
     658:	05a31601 	streq	r1, [r3, #1537]!	; 0x601
     65c:	002c0000 	eoreq	r0, ip, r0
     660:	64242020 	strtvs	r2, [r4], #-32
     664:	01000000 	mrseq	r0, (UNDEF: 0)
     668:	00067118 	andeq	r7, r6, r8, lsl r1
     66c:	20003400 	andcs	r3, r0, r0, lsl #8
     670:	05a30520 	streq	r0, [r3, #1312]!	; 0x520
     674:	6b240000 	blvs	90067c <__bss_end__+0x8f63cc>
     678:	01000000 	mrseq	r0, (UNDEF: 0)
     67c:	0005a319 	andeq	sl, r5, r9, lsl r3
     680:	20003800 	andcs	r3, r0, r0, lsl #16
     684:	01b32620 			; <UNDEFINED> instruction: 0x01b32620
     688:	50020000 	andpl	r0, r2, r0
     68c:	00000696 	muleq	r0, r6, r6
     690:	00002c27 	andeq	r2, r0, r7, lsr #24
     694:	d3280000 	teqle	r8, #0
     698:	02000000 	andeq	r0, r0, #0
     69c:	031a291e 	tsteq	sl, #491520	; 0x78000
     6a0:	29020000 	stmdbcs	r2, {}	; <UNPREDICTABLE>
     6a4:	00000025 	andeq	r0, r0, r5, lsr #32
     6a8:	000006b3 			; <UNDEFINED> instruction: 0x000006b3
     6ac:	00007927 	andeq	r7, r0, r7, lsr #18
     6b0:	28002a00 	stmdacs	r0, {r9, fp, sp}
     6b4:	00000164 	andeq	r0, r0, r4, ror #2
     6b8:	59286602 	stmdbpl	r8!, {r1, r9, sl, sp, lr}
     6bc:	02000002 	andeq	r0, r0, #2
     6c0:	024a2b8e 	subeq	r2, sl, #145408	; 0x23800
     6c4:	1c030000 	stcne	0, cr0, [r3], {-0}
     6c8:	00002c27 	andeq	r2, r0, r7, lsr #24
     6cc:	91000000 	mrsls	r0, (UNDEF: 0)
     6d0:	04000001 	streq	r0, [r0], #-1
     6d4:	00024500 	andeq	r4, r2, r0, lsl #10
     6d8:	c0010400 	andgt	r0, r1, r0, lsl #8
     6dc:	01000002 	tsteq	r0, r2
     6e0:	000002b2 			; <UNDEFINED> instruction: 0x000002b2
     6e4:	0000032b 	andeq	r0, r0, fp, lsr #6
     6e8:	00008538 	andeq	r8, r0, r8, lsr r5
     6ec:	00000058 	andeq	r0, r0, r8, asr r0
     6f0:	000001d2 	ldrdeq	r0, [r0], -r2
     6f4:	0002a302 	andeq	sl, r2, r2, lsl #6
     6f8:	30280200 	eorcc	r0, r8, r0, lsl #4
     6fc:	03000000 	movweq	r0, #0
     700:	00000321 	andeq	r0, r0, r1, lsr #6
     704:	47000304 	strmi	r0, [r0, -r4, lsl #6]
     708:	04000000 	streq	r0, [r0], #-0
     70c:	00000374 	andeq	r0, r0, r4, ror r3
     710:	00000047 	andeq	r0, r0, r7, asr #32
     714:	04050000 	streq	r0, [r5], #-0
     718:	00032302 	andeq	r2, r3, r2, lsl #6
     71c:	25620200 	strbcs	r0, [r2, #-512]!	; 0x200
     720:	06000000 	streq	r0, [r0], -r0
     724:	6e690504 	cdpvs	5, 6, cr0, cr9, cr4, {0}
     728:	04070074 	streq	r0, [r7], #-116	; 0x74
     72c:	00003307 	andeq	r3, r0, r7, lsl #6
     730:	06010700 	streq	r0, [r1], -r0, lsl #14
     734:	00000195 	muleq	r0, r5, r1
     738:	a1050207 	tstge	r5, r7, lsl #4
     73c:	07000001 	streq	r0, [r0, -r1]
     740:	00450504 	subeq	r0, r5, r4, lsl #10
     744:	08070000 	stmdaeq	r7, {}	; <UNPREDICTABLE>
     748:	00004005 	andeq	r4, r0, r5
     74c:	08010700 	stmdaeq	r1, {r8, r9, sl}
     750:	00000193 	muleq	r0, r3, r1
     754:	27070207 	strcs	r0, [r7, -r7, lsl #4]
     758:	07000001 	streq	r0, [r0, -r1]
     75c:	002e0704 	eoreq	r0, lr, r4, lsl #14
     760:	08070000 	stmdaeq	r7, {}	; <UNPREDICTABLE>
     764:	00002907 	andeq	r2, r0, r7, lsl #18
     768:	07040700 	streq	r0, [r4, -r0, lsl #14]
     76c:	00000171 	andeq	r0, r0, r1, ror r1
     770:	00a70408 	adceq	r0, r7, r8, lsl #8
     774:	01070000 	mrseq	r0, (UNDEF: 7)
     778:	00019c08 	andeq	r9, r1, r8, lsl #24
     77c:	b4040800 	strlt	r0, [r4], #-2048	; 0x800
     780:	09000000 	stmdbeq	r0, {}	; <UNPREDICTABLE>
     784:	000000a7 	andeq	r0, r0, r7, lsr #1
     788:	00031a0a 	andeq	r1, r3, sl, lsl #20
     78c:	54060100 	strpl	r0, [r6], #-256	; 0x100
     790:	38000000 	stmdacc	r0, {}	; <UNPREDICTABLE>
     794:	58000085 	stmdapl	r0, {r0, r2, r7}
     798:	01000000 	mrseq	r0, (UNDEF: 0)
     79c:	0001439c 	muleq	r1, ip, r3
     7a0:	6d660b00 	vstmdbvs	r6!, {d16-d15}
     7a4:	06010074 			; <UNDEFINED> instruction: 0x06010074
     7a8:	000000ae 	andeq	r0, r0, lr, lsr #1
     7ac:	0c709102 	ldfeqp	f1, [r0], #-8
     7b0:	6675620d 	ldrbtvs	r6, [r5], -sp, lsl #4
     7b4:	43080100 	movwmi	r0, #33024	; 0x8100
     7b8:	05000001 	streq	r0, [r0, #-1]
     7bc:	009ea403 	addseq	sl, lr, r3, lsl #8
     7c0:	036f0e00 	cmneq	pc, #0, 28
     7c4:	09010000 	stmdbeq	r1, {}	; <UNPREDICTABLE>
     7c8:	00000049 	andeq	r0, r0, r9, asr #32
     7cc:	0f5c9102 	svceq	0x005c9102
     7d0:	01007a73 	tsteq	r0, r3, ror sl
     7d4:	0000540c 	andeq	r5, r0, ip, lsl #8
     7d8:	00063700 	andeq	r3, r6, r0, lsl #14
     7dc:	85601000 	strbhi	r1, [r0, #-0]!
     7e0:	01740000 	cmneq	r4, r0
     7e4:	01360000 	teqeq	r6, r0
     7e8:	01110000 	tsteq	r1, r0
     7ec:	4c910253 	lfmmi	f0, 4, [r1], {83}	; 0x53
     7f0:	03520111 	cmpeq	r2, #1073741828	; 0x40000004
     7f4:	11064891 			; <UNDEFINED> instruction: 0x11064891
     7f8:	0a035101 	beq	d4c04 <__bss_end__+0xca954>
     7fc:	01110400 	tsteq	r1, r0, lsl #8
     800:	00740250 	rsbseq	r0, r4, r0, asr r2
     804:	85741200 	ldrbhi	r1, [r4, #-512]!	; 0x200
     808:	01110000 	tsteq	r1, r0
     80c:	00740250 	rsbseq	r0, r4, r0, asr r2
     810:	a7130000 	ldrge	r0, [r3, -r0]
     814:	54000000 	strpl	r0, [r0], #-0
     818:	14000001 	strne	r0, [r0], #-1
     81c:	0000009a 	muleq	r0, sl, r0
     820:	150003ff 	strne	r0, [r0, #-1023]	; 0x3ff
     824:	00000054 	andeq	r0, r0, r4, asr r0
     828:	00000163 	andeq	r0, r0, r3, ror #2
     82c:	0000ae16 	andeq	sl, r0, r6, lsl lr
     830:	c7170000 	ldrgt	r0, [r7, -r0]
     834:	04000003 	streq	r0, [r0], #-3
     838:	00016e22 	andeq	r6, r1, r2, lsr #28
     83c:	54040800 	strpl	r0, [r4], #-2048	; 0x800
     840:	18000001 	stmdane	r0, {r0}
     844:	00000317 	andeq	r0, r0, r7, lsl r3
     848:	00540205 	subseq	r0, r4, r5, lsl #4
     84c:	a1160000 	tstge	r6, r0
     850:	16000000 	strne	r0, [r0], -r0
     854:	00000054 	andeq	r0, r0, r4, asr r0
     858:	0000ae16 	andeq	sl, r0, r6, lsl lr
     85c:	00491600 	subeq	r1, r9, r0, lsl #12
     860:	00000000 	andeq	r0, r0, r0
     864:	00000113 	andeq	r0, r0, r3, lsl r1
     868:	03760004 	cmneq	r6, #4
     86c:	01040000 	mrseq	r0, (UNDEF: 4)
     870:	000002c0 	andeq	r0, r0, r0, asr #5
     874:	00039601 	andeq	r9, r3, r1, lsl #12
     878:	00032b00 	andeq	r2, r3, r0, lsl #22
     87c:	00859000 	addeq	r9, r5, r0
     880:	00003c00 	andeq	r3, r0, r0, lsl #24
     884:	0002d800 	andeq	sp, r2, r0, lsl #16
     888:	05040200 	streq	r0, [r4, #-512]	; 0x200
     88c:	00746e69 	rsbseq	r6, r4, r9, ror #28
     890:	33070403 	movwcc	r0, #29699	; 0x7403
     894:	03000000 	movweq	r0, #0
     898:	01950601 	orrseq	r0, r5, r1, lsl #12
     89c:	02030000 	andeq	r0, r3, #0
     8a0:	0001a105 	andeq	sl, r1, r5, lsl #2
     8a4:	05040300 	streq	r0, [r4, #-768]	; 0x300
     8a8:	00000045 	andeq	r0, r0, r5, asr #32
     8ac:	40050803 	andmi	r0, r5, r3, lsl #16
     8b0:	03000000 	movweq	r0, #0
     8b4:	01930801 	orrseq	r0, r3, r1, lsl #16
     8b8:	02030000 	andeq	r0, r3, #0
     8bc:	00012707 	andeq	r2, r1, r7, lsl #14
     8c0:	07040300 	streq	r0, [r4, -r0, lsl #6]
     8c4:	0000002e 	andeq	r0, r0, lr, lsr #32
     8c8:	29070803 	stmdbcs	r7, {r0, r1, fp}
     8cc:	03000000 	movweq	r0, #0
     8d0:	01710704 	cmneq	r1, r4, lsl #14
     8d4:	01030000 	mrseq	r0, (UNDEF: 3)
     8d8:	00019c08 	andeq	r9, r1, r8, lsl #24
     8dc:	03790400 	cmneq	r9, #0, 8
     8e0:	03010000 	movweq	r0, #4096	; 0x1000
     8e4:	00000025 	andeq	r0, r0, r5, lsr #32
     8e8:	00008590 	muleq	r0, r0, r5
     8ec:	00000014 	andeq	r0, r0, r4, lsl r0
     8f0:	00b09c01 	adcseq	r9, r0, r1, lsl #24
     8f4:	63050000 	movwvs	r0, #20480	; 0x5000
     8f8:	25030100 	strcs	r0, [r3, #-256]	; 0x100
     8fc:	60000000 	andvs	r0, r0, r0
     900:	06000006 	streq	r0, [r0], -r6
     904:	0000859c 	muleq	r0, ip, r5
     908:	00000109 	andeq	r0, r0, r9, lsl #2
     90c:	02500107 	subseq	r0, r0, #-1073741823	; 0xc0000001
     910:	00000074 	andeq	r0, r0, r4, ror r0
     914:	0000d308 	andeq	sp, r0, r8, lsl #6
     918:	a4080100 	strge	r0, [r8], #-256	; 0x100
     91c:	18000085 	stmdane	r0, {r0, r2, r7}
     920:	01000000 	mrseq	r0, (UNDEF: 0)
     924:	03a5099c 			; <UNDEFINED> instruction: 0x03a5099c
     928:	0b010000 	bleq	40930 <__bss_end__+0x36680>
     92c:	000085bc 			; <UNDEFINED> instruction: 0x000085bc
     930:	00000010 	andeq	r0, r0, r0, lsl r0
     934:	00e39c01 	rsceq	r9, r3, r1, lsl #24
     938:	660a0000 	strvs	r0, [sl], -r0
     93c:	0b010070 	bleq	40b04 <__bss_end__+0x36854>
     940:	000000f2 	strdeq	r0, [r0], -r2
     944:	0b005001 	bleq	14950 <__bss_end__+0xa6a0>
     948:	00000025 	andeq	r0, r0, r5, lsr #32
     94c:	000000f2 	strdeq	r0, [r0], -r2
     950:	0000250c 	andeq	r2, r0, ip, lsl #10
     954:	040d0000 	streq	r0, [sp], #-0
     958:	000000e3 	andeq	r0, r0, r3, ror #1
     95c:	00038a0e 	andeq	r8, r3, lr, lsl #20
     960:	f2060100 	vrhadd.s8	d0, d6, d0
     964:	05000000 	streq	r0, [r0, #-0]
     968:	009b4803 	addseq	r4, fp, r3, lsl #16
     96c:	05120f00 	ldreq	r0, [r2, #-3840]	; 0xf00
     970:	3c020000 	stccc	0, cr0, [r2], {-0}
     974:	00002c0c 	andeq	r2, r0, ip, lsl #24
     978:	ee000000 	cdp	0, 0, cr0, cr0, cr0, {0}
     97c:	04000000 	streq	r0, [r0], #-0
     980:	00045e00 	andeq	r5, r4, r0, lsl #28
     984:	c0010400 	andgt	r0, r1, r0, lsl #8
     988:	01000002 	tsteq	r0, r2
     98c:	000003b2 			; <UNDEFINED> instruction: 0x000003b2
     990:	0000032b 	andeq	r0, r0, fp, lsr #6
     994:	000085cc 	andeq	r8, r0, ip, asr #11
     998:	00000034 	andeq	r0, r0, r4, lsr r0
     99c:	00000366 	andeq	r0, r0, r6, ror #6
     9a0:	69050402 	stmdbvs	r5, {r1, sl}
     9a4:	0300746e 	movweq	r7, #1134	; 0x46e
     9a8:	00330704 	eorseq	r0, r3, r4, lsl #14
     9ac:	01030000 	mrseq	r0, (UNDEF: 3)
     9b0:	00019506 	andeq	r9, r1, r6, lsl #10
     9b4:	05020300 	streq	r0, [r2, #-768]	; 0x300
     9b8:	000001a1 	andeq	r0, r0, r1, lsr #3
     9bc:	45050403 	strmi	r0, [r5, #-1027]	; 0x403
     9c0:	03000000 	movweq	r0, #0
     9c4:	00400508 	subeq	r0, r0, r8, lsl #10
     9c8:	01030000 	mrseq	r0, (UNDEF: 3)
     9cc:	00019308 	andeq	r9, r1, r8, lsl #6
     9d0:	07020300 	streq	r0, [r2, -r0, lsl #6]
     9d4:	00000127 	andeq	r0, r0, r7, lsr #2
     9d8:	2e070403 	cdpcs	4, 0, cr0, cr7, cr3, {0}
     9dc:	03000000 	movweq	r0, #0
     9e0:	00290708 	eoreq	r0, r9, r8, lsl #14
     9e4:	04030000 	streq	r0, [r3], #-0
     9e8:	00017107 	andeq	r7, r1, r7, lsl #2
     9ec:	08010300 	stmdaeq	r1, {r8, r9}
     9f0:	0000019c 	muleq	r0, ip, r1
     9f4:	007f0404 	rsbseq	r0, pc, r4, lsl #8
     9f8:	72050000 	andvc	r0, r5, #0
     9fc:	06000000 	streq	r0, [r0], -r0
     a00:	000003be 			; <UNDEFINED> instruction: 0x000003be
     a04:	00250401 	eoreq	r0, r5, r1, lsl #8
     a08:	85cc0000 	strbhi	r0, [ip]
     a0c:	00340000 	eorseq	r0, r4, r0
     a10:	9c010000 	stcls	0, cr0, [r1], {-0}
     a14:	000000ab 	andeq	r0, r0, fp, lsr #1
     a18:	01007007 	tsteq	r0, r7
     a1c:	00007904 	andeq	r7, r0, r4, lsl #18
     a20:	00067e00 	andeq	r7, r6, r0, lsl #28
     a24:	25080000 	strcs	r0, [r8, #-0]
     a28:	ba000000 	blt	a30 <_start-0x75d0>
     a2c:	09000000 	stmdbeq	r0, {}	; <UNPREDICTABLE>
     a30:	00000025 	andeq	r0, r0, r5, lsr #32
     a34:	038a0a00 	orreq	r0, sl, #0, 20
     a38:	1d020000 	stcne	0, cr0, [r2, #-0]
     a3c:	000000c5 	andeq	r0, r0, r5, asr #1
     a40:	00ab0404 	adceq	r0, fp, r4, lsl #8
     a44:	25080000 	strcs	r0, [r8, #-0]
     a48:	da000000 	ble	a50 <_start-0x75b0>
     a4c:	09000000 	stmdbeq	r0, {}	; <UNPREDICTABLE>
     a50:	00000079 	andeq	r0, r0, r9, ror r0
     a54:	03c70b00 	biceq	r0, r7, #0, 22
     a58:	0c010000 	stceq	0, cr0, [r1], {-0}
     a5c:	000000eb 	andeq	r0, r0, fp, ror #1
     a60:	9b4c0305 	blls	130167c <__bss_end__+0x12f73cc>
     a64:	04040000 	streq	r0, [r4], #-0
     a68:	000000cb 	andeq	r0, r0, fp, asr #1
     a6c:	0006a100 	andeq	sl, r6, r0, lsl #2
     a70:	f7000400 			; <UNDEFINED> instruction: 0xf7000400
     a74:	04000004 	streq	r0, [r0], #-4
     a78:	0002c001 	andeq	ip, r2, r1
     a7c:	03f80100 	mvnseq	r0, #0, 2
     a80:	032b0000 	teqeq	fp, #0
     a84:	86000000 	strhi	r0, [r0], -r0
     a88:	05240000 	streq	r0, [r4, #-0]!
     a8c:	04000000 	streq	r0, [r0], #-0
     a90:	04020000 	streq	r0, [r2], #-0
     a94:	746e6905 	strbtvc	r6, [lr], #-2309	; 0x905
     a98:	07040300 	streq	r0, [r4, -r0, lsl #6]
     a9c:	00000033 	andeq	r0, r0, r3, lsr r0
     aa0:	95060103 	strls	r0, [r6, #-259]	; 0x103
     aa4:	03000001 	movweq	r0, #1
     aa8:	01a10502 			; <UNDEFINED> instruction: 0x01a10502
     aac:	04030000 	streq	r0, [r3], #-0
     ab0:	00004505 	andeq	r4, r0, r5, lsl #10
     ab4:	05080300 	streq	r0, [r8, #-768]	; 0x300
     ab8:	00000040 	andeq	r0, r0, r0, asr #32
     abc:	93080103 	movwls	r0, #33027	; 0x8103
     ac0:	03000001 	movweq	r0, #1
     ac4:	01270702 	teqeq	r7, r2, lsl #14
     ac8:	04030000 	streq	r0, [r3], #-0
     acc:	00002e07 	andeq	r2, r0, r7, lsl #28
     ad0:	07080300 	streq	r0, [r8, -r0, lsl #6]
     ad4:	00000029 	andeq	r0, r0, r9, lsr #32
     ad8:	71070403 	tstvc	r7, r3, lsl #8
     adc:	04000001 	streq	r0, [r0], #-1
     ae0:	7a040504 	bvc	101ef8 <__bss_end__+0xf7c48>
     ae4:	03000000 	movweq	r0, #0
     ae8:	019c0801 	orrseq	r0, ip, r1, lsl #16
     aec:	04050000 	streq	r0, [r5], #-0
     af0:	00000087 	andeq	r0, r0, r7, lsl #1
     af4:	00007a06 	andeq	r7, r0, r6, lsl #20
     af8:	02a30700 	adceq	r0, r3, #0, 14
     afc:	28020000 	stmdacs	r2, {}	; <UNPREDICTABLE>
     b00:	00000097 	muleq	r0, r7, r0
     b04:	00032108 	andeq	r2, r3, r8, lsl #2
     b08:	00040400 	andeq	r0, r4, r0, lsl #8
     b0c:	000000ae 	andeq	r0, r0, lr, lsr #1
     b10:	00037409 	andeq	r7, r3, r9, lsl #8
     b14:	00007200 	andeq	r7, r0, r0, lsl #4
     b18:	07000000 	streq	r0, [r0, -r0]
     b1c:	00000323 	andeq	r0, r0, r3, lsr #6
     b20:	008c6202 	addeq	r6, ip, r2, lsl #4
     b24:	da0a0000 	ble	280b2c <__bss_end__+0x27687c>
     b28:	01000003 	tsteq	r0, r3
     b2c:	00002527 	andeq	r2, r0, r7, lsr #10
     b30:	00860000 	addeq	r0, r6, r0
     b34:	00001400 	andeq	r1, r0, r0, lsl #8
     b38:	e09c0100 	adds	r0, ip, r0, lsl #2
     b3c:	0b000000 	bleq	b44 <_start-0x74bc>
     b40:	27010063 	strcs	r0, [r1, -r3, rrx]
     b44:	00000025 	andeq	r0, r0, r5, lsr #32
     b48:	0000069c 	muleq	r0, ip, r6
     b4c:	61700c00 	cmnvs	r0, r0, lsl #24
     b50:	2e010064 	cdpcs	0, 0, cr0, cr1, cr4, {3}
     b54:	00000074 	andeq	r0, r0, r4, ror r0
     b58:	00008614 	andeq	r8, r0, r4, lsl r6
     b5c:	0000002c 	andeq	r0, r0, ip, lsr #32
     b60:	01309c01 	teqeq	r0, r1, lsl #24
     b64:	700b0000 	andvc	r0, fp, r0
     b68:	742e0100 	strtvc	r0, [lr], #-256	; 0x100
     b6c:	ca000000 	bgt	b74 <_start-0x748c>
     b70:	0d000006 	stceq	0, cr0, [r0, #-24]	; 0xffffffe8
     b74:	000003ea 	andeq	r0, r0, sl, ror #7
     b78:	00742e01 	rsbseq	r2, r4, r1, lsl #28
     b7c:	06f50000 	ldrbteq	r0, [r5], r0
     b80:	180e0000 	stmdane	lr, {}	; <UNPREDICTABLE>
     b84:	01000004 	tsteq	r0, r4
     b88:	0000252e 	andeq	r2, r0, lr, lsr #10
     b8c:	0f520100 	svceq	0x00520100
     b90:	006e656c 	rsbeq	r6, lr, ip, ror #10
     b94:	00252f01 	eoreq	r2, r5, r1, lsl #30
     b98:	51010000 	mrspl	r0, (UNDEF: 1)
     b9c:	03d20a00 	bicseq	r0, r2, #0, 20
     ba0:	37010000 	strcc	r0, [r1, -r0]
     ba4:	00000074 	andeq	r0, r0, r4, ror r0
     ba8:	00008640 	andeq	r8, r0, r0, asr #12
     bac:	00000040 	andeq	r0, r0, r0, asr #32
     bb0:	019c9c01 	orrseq	r9, ip, r1, lsl #24
     bb4:	640b0000 	strvs	r0, [fp], #-0
     bb8:	01007473 	tsteq	r0, r3, ror r4
     bbc:	00007437 	andeq	r7, r0, r7, lsr r4
     bc0:	00071600 	andeq	r1, r7, r0, lsl #12
     bc4:	006e0b00 	rsbeq	r0, lr, r0, lsl #22
     bc8:	00253701 	eoreq	r3, r5, r1, lsl #14
     bcc:	074e0000 	strbeq	r0, [lr, -r0]
     bd0:	700b0000 	andvc	r0, fp, r0
     bd4:	74370100 	ldrtvc	r0, [r7], #-256	; 0x100
     bd8:	6f000000 	svcvs	0x00000000
     bdc:	0d000007 	stceq	0, cr0, [r0, #-28]	; 0xffffffe4
     be0:	000004fe 	strdeq	r0, [r0], -lr
     be4:	00743701 	rsbseq	r3, r4, r1, lsl #14
     be8:	07a50000 	streq	r0, [r5, r0]!
     bec:	6c100000 	ldcvs	0, cr0, [r0], {-0}
     bf0:	01006e65 	tsteq	r0, r5, ror #28
     bf4:	00002539 	andeq	r2, r0, r9, lsr r5
     bf8:	0007c300 	andeq	ip, r7, r0, lsl #6
     bfc:	00730f00 	rsbseq	r0, r3, r0, lsl #30
     c00:	00743d01 	rsbseq	r3, r4, r1, lsl #26
     c04:	50010000 	andpl	r0, r1, r0
     c08:	04260a00 	strteq	r0, [r6], #-2560	; 0xa00
     c0c:	47010000 	strmi	r0, [r1, -r0]
     c10:	00000074 	andeq	r0, r0, r4, ror r0
     c14:	00008680 	andeq	r8, r0, r0, lsl #13
     c18:	000001a8 	andeq	r0, r0, r8, lsr #3
     c1c:	02df9c01 	sbcseq	r9, pc, #256	; 0x100
     c20:	ea0d0000 	b	340c28 <__bss_end__+0x336978>
     c24:	01000003 	tsteq	r0, r3
     c28:	00002c47 	andeq	r2, r0, r7, asr #24
     c2c:	0007ea00 	andeq	lr, r7, r0, lsl #20
     c30:	73640b00 	cmnvc	r4, #0, 22
     c34:	47010074 	smlsdxmi	r1, r4, r0, r0
     c38:	00000074 	andeq	r0, r0, r4, ror r0
     c3c:	00000818 	andeq	r0, r0, r8, lsl r8
     c40:	01006e0b 	tsteq	r0, fp, lsl #28
     c44:	00002547 	andeq	r2, r0, r7, asr #10
     c48:	00088600 	andeq	r8, r8, r0, lsl #12
     c4c:	61760b00 	cmnvs	r6, r0, lsl #22
     c50:	4701006c 	strmi	r0, [r1, -ip, rrx]
     c54:	00000025 	andeq	r0, r0, r5, lsr #32
     c58:	000008b2 			; <UNDEFINED> instruction: 0x000008b2
     c5c:	0004180d 	andeq	r1, r4, sp, lsl #16
     c60:	25470100 	strbcs	r0, [r7, #-256]	; 0x100
     c64:	31000000 	mrscc	r0, (UNDEF: 0)
     c68:	0e000009 	cdpeq	0, 0, cr0, cr0, cr9, {0}
     c6c:	000003ef 	andeq	r0, r0, pc, ror #7
     c70:	00254701 	eoreq	r4, r5, r1, lsl #14
     c74:	91020000 	mrsls	r0, (UNDEF: 2)
     c78:	75620f04 	strbvc	r0, [r2, #-3844]!	; 0xf04
     c7c:	4c010066 	stcmi	0, cr0, [r1], {102}	; 0x66
     c80:	000002df 	ldrdeq	r0, [r0], -pc	; <UNPREDICTABLE>
     c84:	7fa89103 	svcvc	0x00a89103
     c88:	01007010 	tsteq	r0, r0, lsl r0
     c8c:	0000744c 	andeq	r7, r0, ip, asr #8
     c90:	00095b00 	andeq	r5, r9, r0, lsl #22
     c94:	00751000 	rsbseq	r1, r5, r0
     c98:	002c4d01 	eoreq	r4, ip, r1, lsl #26
     c9c:	0a170000 	beq	5c0ca4 <__bss_end__+0x5b69f4>
     ca0:	0a110000 	beq	440ca8 <__bss_end__+0x4369f8>
     ca4:	ff000001 			; <UNDEFINED> instruction: 0xff000001
     ca8:	05000002 	streq	r0, [r0, #-2]
     cac:	009c6803 	addseq	r6, ip, r3, lsl #16
     cb0:	86ec1200 	strbthi	r1, [ip], r0, lsl #4
     cb4:	00740000 	rsbseq	r0, r4, r0
     cb8:	02610000 	rsbeq	r0, r1, #0
     cbc:	cc130000 	ldcgt	0, cr0, [r3], {-0}
     cc0:	01000003 	tsteq	r0, r3
     cc4:	00002c52 	andeq	r2, r0, r2, asr ip
     cc8:	000b1c00 	andeq	r1, fp, r0, lsl #24
     ccc:	c0140000 	andsgt	r0, r4, r0
     cd0:	80000087 	andhi	r0, r0, r7, lsl #1
     cd4:	15000006 	strne	r0, [r0, #-6]
     cd8:	000087dc 	ldrdeq	r8, [r0], -ip
     cdc:	00000687 	andeq	r0, r0, r7, lsl #13
     ce0:	000002a3 	andeq	r0, r0, r3, lsr #5
     ce4:	02530116 	subseq	r0, r3, #-2147483643	; 0x80000005
     ce8:	01167508 	tsteq	r6, r8, lsl #10
     cec:	68030552 	stmdavs	r3, {r1, r4, r6, r8, sl}
     cf0:	1600009c 			; <UNDEFINED> instruction: 0x1600009c
     cf4:	03055101 	movweq	r5, #20737	; 0x5101
     cf8:	00009ca0 	andeq	r9, r0, r0, lsr #25
     cfc:	05500116 	ldrbeq	r0, [r0, #-278]	; 0x116
     d00:	009c8c03 	addseq	r8, ip, r3, lsl #24
     d04:	7d021600 	stcvc	6, cr1, [r2, #-0]
     d08:	b4030500 	strlt	r0, [r3], #-1280	; 0x500
     d0c:	0000009c 	muleq	r0, ip, r0
     d10:	0087e014 	addeq	lr, r7, r4, lsl r0
     d14:	00069d00 	andeq	r9, r6, r0, lsl #26
     d18:	87ec1500 	strbhi	r1, [ip, r0, lsl #10]!
     d1c:	00e00000 	rsceq	r0, r0, r0
     d20:	02c10000 	sbceq	r0, r1, #0
     d24:	01160000 	tsteq	r6, r0
     d28:	a0910351 	addsge	r0, r1, r1, asr r3
     d2c:	0017007f 	andseq	r0, r7, pc, ror r0
     d30:	30000088 	andcc	r0, r0, r8, lsl #1
     d34:	16000001 	strne	r0, [r0], -r1
     d38:	91035301 	tstls	r3, r1, lsl #6
     d3c:	01167fa0 	tsteq	r6, r0, lsr #31
     d40:	00740251 	rsbseq	r0, r4, r1, asr r2
     d44:	02500116 	subseq	r0, r0, #-2147483643	; 0x80000005
     d48:	00000075 	andeq	r0, r0, r5, ror r0
     d4c:	00007a18 	andeq	r7, r0, r8, lsl sl
     d50:	0002ef00 	andeq	lr, r2, r0, lsl #30
     d54:	006b1900 	rsbeq	r1, fp, r0, lsl #18
     d58:	003f0000 	eorseq	r0, pc, r0
     d5c:	00007a18 	andeq	r7, r0, r8, lsl sl
     d60:	0002ff00 	andeq	pc, r2, r0, lsl #30
     d64:	006b1900 	rsbeq	r1, fp, r0, lsl #18
     d68:	00040000 	andeq	r0, r4, r0
     d6c:	0002ef06 	andeq	lr, r2, r6, lsl #30
     d70:	04091a00 	streq	r1, [r9], #-2560	; 0xa00
     d74:	1f010000 	svcne	0x00010000
     d78:	00008828 	andeq	r8, r0, r8, lsr #16
     d7c:	00000068 	andeq	r0, r0, r8, rrx
     d80:	03929c01 	orrseq	r9, r2, #256	; 0x100
     d84:	1e0d0000 	cdpne	0, 0, cr0, cr13, cr0, {0}
     d88:	01000004 	tsteq	r0, r4
     d8c:	0003a11f 	andeq	sl, r3, pc, lsl r1
     d90:	000b4800 	andeq	r4, fp, r0, lsl #16
     d94:	03e20d00 	mvneq	r0, #0, 26
     d98:	1f010000 	svcne	0x00010000
     d9c:	000003b6 			; <UNDEFINED> instruction: 0x000003b6
     da0:	00000b74 	andeq	r0, r0, r4, ror fp
     da4:	00010a11 	andeq	r0, r1, r1, lsl sl
     da8:	0003cc00 	andeq	ip, r3, r0, lsl #24
     dac:	70030500 	andvc	r0, r3, r0, lsl #10
     db0:	1400009c 	strne	r0, [r0], #-156	; 0x9c
     db4:	0000883c 	andeq	r8, r0, ip, lsr r8
     db8:	00000680 	andeq	r0, r0, r0, lsl #13
     dbc:	00885815 	addeq	r5, r8, r5, lsl r8
     dc0:	00068700 	andeq	r8, r6, r0, lsl #14
     dc4:	00038800 	andeq	r8, r3, r0, lsl #16
     dc8:	53011600 	movwpl	r1, #5632	; 0x1600
     dcc:	16200802 	strtne	r0, [r0], -r2, lsl #16
     dd0:	03055201 	movweq	r5, #20993	; 0x5201
     dd4:	00009c70 	andeq	r9, r0, r0, ror ip
     dd8:	05510116 	ldrbeq	r0, [r1, #-278]	; 0x116
     ddc:	009ca003 	addseq	sl, ip, r3
     de0:	50011600 	andpl	r1, r1, r0, lsl #12
     de4:	9c8c0305 	stcls	3, cr0, [ip], {5}
     de8:	02160000 	andseq	r0, r6, #0
     dec:	0305007d 	movweq	r0, #20605	; 0x507d
     df0:	00009cdc 	ldrdeq	r9, [r0], -ip
     df4:	885c1400 	ldmdahi	ip, {sl, ip}^
     df8:	069d0000 	ldreq	r0, [sp], r0
     dfc:	1b000000 	blne	e04 <_start-0x71fc>
     e00:	00000025 	andeq	r0, r0, r5, lsr #32
     e04:	000003a1 	andeq	r0, r0, r1, lsr #7
     e08:	0000251c 	andeq	r2, r0, ip, lsl r5
     e0c:	04050000 	streq	r0, [r5], #-0
     e10:	00000392 	muleq	r0, r2, r3
     e14:	0000251b 	andeq	r2, r0, fp, lsl r5
     e18:	0003b600 	andeq	fp, r3, r0, lsl #12
     e1c:	00811c00 	addeq	r1, r1, r0, lsl #24
     e20:	05000000 	streq	r0, [r0, #-0]
     e24:	0003a704 	andeq	sl, r3, r4, lsl #14
     e28:	007a1800 	rsbseq	r1, sl, r0, lsl #16
     e2c:	03cc0000 	biceq	r0, ip, #0
     e30:	6b190000 	blvs	640e38 <__bss_end__+0x636b88>
     e34:	0e000000 	cdpeq	0, 0, cr0, cr0, cr0, {0}
     e38:	03bc0600 			; <UNDEFINED> instruction: 0x03bc0600
     e3c:	171d0000 	ldrne	r0, [sp, -r0]
     e40:	01000003 	tsteq	r0, r3
     e44:	0000257d 	andeq	r2, r0, sp, ror r5
     e48:	00889000 	addeq	r9, r8, r0
     e4c:	00029400 	andeq	r9, r2, r0, lsl #8
     e50:	459c0100 	ldrmi	r0, [ip, #256]	; 0x100
     e54:	0b000006 	bleq	e74 <_start-0x718c>
     e58:	00667562 	rsbeq	r7, r6, r2, ror #10
     e5c:	00747d01 	rsbseq	r7, r4, r1, lsl #26
     e60:	0ba00000 	bleq	fe800e68 <__bss_end__+0xfe7f6bb8>
     e64:	6e0b0000 	cdpvs	0, 0, cr0, cr11, cr0, {0}
     e68:	257d0100 	ldrbcs	r0, [sp, #-256]!	; 0x100
     e6c:	cc000000 	stcgt	0, cr0, [r0], {-0}
     e70:	0b00000b 	bleq	ea4 <_start-0x715c>
     e74:	00746d66 	rsbseq	r6, r4, r6, ror #26
     e78:	00817d01 	addeq	r7, r1, r1, lsl #26
     e7c:	0bfa0000 	bleq	ffe80e84 <__bss_end__+0xffe76bd4>
     e80:	6f0d0000 	svcvs	0x000d0000
     e84:	01000003 	tsteq	r0, r3
     e88:	0000ae7d 	andeq	sl, r0, sp, ror lr
     e8c:	000c2e00 	andeq	r2, ip, r0, lsl #28
     e90:	00701000 	rsbseq	r1, r0, r0
     e94:	00747e01 	rsbseq	r7, r4, r1, lsl #28
     e98:	0c410000 	mareq	acc0, r0, r1
     e9c:	65100000 	ldrvs	r0, [r0, #-0]
     ea0:	747e0100 	ldrbtvc	r0, [lr], #-256	; 0x100
     ea4:	bf000000 	svclt	0x00000000
     ea8:	1100000c 	tstne	r0, ip
     eac:	0000010a 	andeq	r0, r0, sl, lsl #2
     eb0:	00000655 	andeq	r0, r0, r5, asr r6
     eb4:	9c800305 	stcls	3, cr0, [r0], {5}
     eb8:	a01e0000 	andsge	r0, lr, r0
     ebc:	10000000 	andne	r0, r0, r0
     ec0:	8b010073 	blhi	41094 <__bss_end__+0x36de4>
     ec4:	00000074 	andeq	r0, r0, r4, ror r0
     ec8:	00000ce6 	andeq	r0, r0, r6, ror #25
     ecc:	6d756e0f 	ldclvs	14, cr6, [r5, #-60]!	; 0xffffffc4
     ed0:	5a8b0100 	bpl	fe2c12d8 <__bss_end__+0xfe2b7028>
     ed4:	03000006 	movweq	r0, #6
     ed8:	137ed891 	cmnne	lr, #9502720	; 0x910000
     edc:	00000418 	andeq	r0, r0, r8, lsl r4
     ee0:	002c8c01 	eoreq	r8, ip, r1, lsl #24
     ee4:	0d3b0000 	ldceq	0, cr0, [fp, #-0]
     ee8:	14150000 	ldrne	r0, [r5], #-0
     eec:	b9000089 	stmdblt	r0, {r0, r3, r7}
     ef0:	91000000 	mrsls	r0, (UNDEF: 0)
     ef4:	16000004 	strne	r0, [r0], -r4
     ef8:	75025001 	strvc	r5, [r2, #-1]
     efc:	28140000 	ldmdacs	r4, {}	; <UNPREDICTABLE>
     f00:	80000089 	andhi	r0, r0, r9, lsl #1
     f04:	15000006 	strne	r0, [r0, #-6]
     f08:	00008944 	andeq	r8, r0, r4, asr #18
     f0c:	00000687 	andeq	r0, r0, r7, lsl #13
     f10:	000004d3 	ldrdeq	r0, [r0], -r3
     f14:	02530116 	subseq	r0, r3, #-2147483643	; 0x80000005
     f18:	01169208 	tsteq	r6, r8, lsl #4
     f1c:	80030552 	andhi	r0, r3, r2, asr r5
     f20:	1600009c 			; <UNDEFINED> instruction: 0x1600009c
     f24:	03055101 	movweq	r5, #20737	; 0x5101
     f28:	00009ca0 	andeq	r9, r0, r0, lsr #25
     f2c:	05500116 	ldrbeq	r0, [r0, #-278]	; 0x116
     f30:	009c8c03 	addseq	r8, ip, r3, lsl #24
     f34:	7d021600 	stcvc	6, cr1, [r2, #-0]
     f38:	e4030500 	str	r0, [r3], #-1280	; 0x500
     f3c:	0000009c 	muleq	r0, ip, r0
     f40:	00894814 	addeq	r4, r9, r4, lsl r8
     f44:	00069d00 	andeq	r9, r6, r0, lsl #26
     f48:	89b81400 	ldmibhi	r8!, {sl, ip}
     f4c:	06800000 	streq	r0, [r0], r0
     f50:	cc150000 	ldcgt	0, cr0, [r5], {-0}
     f54:	87000089 	strhi	r0, [r0, -r9, lsl #1]
     f58:	14000006 	strne	r0, [r0], #-6
     f5c:	16000005 	strne	r0, [r0], -r5
     f60:	08025301 	stmdaeq	r2, {r0, r8, r9, ip, lr}
     f64:	52011698 	andpl	r1, r1, #152, 12	; 0x9800000
     f68:	9c800305 	stcls	3, cr0, [r0], {5}
     f6c:	01160000 	tsteq	r6, r0
     f70:	a0030551 	andge	r0, r3, r1, asr r5
     f74:	1600009c 			; <UNDEFINED> instruction: 0x1600009c
     f78:	03055001 	movweq	r5, #20481	; 0x5001
     f7c:	00009cf0 	strdeq	r9, [r0], -r0
     f80:	89d01400 	ldmibhi	r0, {sl, ip}^
     f84:	069d0000 	ldreq	r0, [sp], r0
     f88:	f4150000 			; <UNDEFINED> instruction: 0xf4150000
     f8c:	9c000089 	stcls	0, cr0, [r0], {137}	; 0x89
     f90:	4a000001 	bmi	f9c <_start-0x7064>
     f94:	16000005 	strne	r0, [r0], -r5
     f98:	08025201 	stmdaeq	r2, {r0, r9, ip, lr}
     f9c:	51011680 	smlabbpl	r1, r0, r6, r1
     fa0:	7ed09103 	atnvcs	f1, f3
     fa4:	01500116 	cmpeq	r0, r6, lsl r1
     fa8:	7d02163a 	stcvc	6, cr1, [r2, #-232]	; 0xffffff18
     fac:	16310104 	ldrtne	r0, [r1], -r4, lsl #2
     fb0:	02007d02 	andeq	r7, r0, #2, 26	; 0x80
     fb4:	15000077 	strne	r0, [r0, #-119]	; 0x77
     fb8:	00008a18 	andeq	r8, r0, r8, lsl sl
     fbc:	0000019c 	muleq	r0, ip, r1
     fc0:	00000578 	andeq	r0, r0, r8, ror r5
     fc4:	02520116 	subseq	r0, r2, #-2147483643	; 0x80000005
     fc8:	01168008 	tsteq	r6, r8
     fcc:	d0910351 	addsle	r0, r1, r1, asr r3
     fd0:	5001167e 	andpl	r1, r1, lr, ror r6
     fd4:	02163a01 	andseq	r3, r6, #4096	; 0x1000
     fd8:	7b02047d 	blvc	821d4 <__bss_end__+0x77f24>
     fdc:	7d021600 	stcvc	6, cr1, [r2, #-0]
     fe0:	00770200 	rsbseq	r0, r7, r0, lsl #4
     fe4:	8a3c1500 	bhi	f063ec <__bss_end__+0xefc13c>
     fe8:	019c0000 	orrseq	r0, ip, r0
     fec:	05a60000 	streq	r0, [r6, #0]!
     ff0:	01160000 	tsteq	r6, r0
     ff4:	80080252 	andhi	r0, r8, r2, asr r2
     ff8:	03510116 	cmpeq	r1, #-2147483643	; 0x80000005
     ffc:	167ed091 			; <UNDEFINED> instruction: 0x167ed091
    1000:	40015001 	andmi	r5, r1, r1
    1004:	047d0216 	ldrbteq	r0, [sp], #-534	; 0x216
    1008:	16007b02 	strne	r7, [r0], -r2, lsl #22
    100c:	02007d02 	andeq	r7, r0, #2, 26	; 0x80
    1010:	15000077 	strne	r0, [r0, #-119]	; 0x77
    1014:	00008a60 	andeq	r8, r0, r0, ror #20
    1018:	0000019c 	muleq	r0, ip, r1
    101c:	000005d4 	ldrdeq	r0, [r0], -r4
    1020:	02520116 	subseq	r0, r2, #-2147483643	; 0x80000005
    1024:	01168008 	tsteq	r6, r8
    1028:	d0910351 	addsle	r0, r1, r1, asr r3
    102c:	5001167e 	andpl	r1, r1, lr, ror r6
    1030:	02163201 	andseq	r3, r6, #268435456	; 0x10000000
    1034:	7b02047d 	blvc	82230 <__bss_end__+0x77f80>
    1038:	7d021600 	stcvc	6, cr1, [r2, #-0]
    103c:	00770200 	rsbseq	r0, r7, r0, lsl #4
    1040:	8a901500 	bhi	fe406448 <__bss_end__+0xfe3fc198>
    1044:	019c0000 	orrseq	r0, ip, r0
    1048:	06020000 	streq	r0, [r2], -r0
    104c:	01160000 	tsteq	r6, r0
    1050:	80080252 	andhi	r0, r8, r2, asr r2
    1054:	03510116 	cmpeq	r1, #-2147483643	; 0x80000005
    1058:	167ed091 			; <UNDEFINED> instruction: 0x167ed091
    105c:	38015001 	stmdacc	r1, {r0, ip, lr}
    1060:	047d0216 	ldrbteq	r0, [sp], #-534	; 0x216
    1064:	16007b02 	strne	r7, [r0], -r2, lsl #22
    1068:	02007d02 	andeq	r7, r0, #2, 26	; 0x80
    106c:	14000077 	strne	r0, [r0], #-119	; 0x77
    1070:	00008a98 	muleq	r0, r8, sl
    1074:	00000680 	andeq	r0, r0, r0, lsl #13
    1078:	008ab415 	addeq	fp, sl, r5, lsl r4
    107c:	00068700 	andeq	r8, r6, r0, lsl #14
    1080:	00063a00 	andeq	r3, r6, r0, lsl #20
    1084:	53011600 	movwpl	r1, #5632	; 0x1600
    1088:	16b90802 	ldrtne	r0, [r9], r2, lsl #16
    108c:	03055201 	movweq	r5, #20993	; 0x5201
    1090:	00009c80 	andeq	r9, r0, r0, lsl #25
    1094:	05510116 	ldrbeq	r0, [r1, #-278]	; 0x116
    1098:	009ca003 	addseq	sl, ip, r3
    109c:	50011600 	andpl	r1, r1, r0, lsl #12
    10a0:	9d180305 	ldcls	3, cr0, [r8, #-20]	; 0xffffffec
    10a4:	14000000 	strne	r0, [r0], #-0
    10a8:	00008ab8 			; <UNDEFINED> instruction: 0x00008ab8
    10ac:	0000069d 	muleq	r0, sp, r6
    10b0:	7a180000 	bvc	6010b8 <__bss_end__+0x5f6e08>
    10b4:	55000000 	strpl	r0, [r0, #-0]
    10b8:	19000006 	stmdbne	r0, {r1, r2}
    10bc:	0000006b 	andeq	r0, r0, fp, rrx
    10c0:	45060009 	strmi	r0, [r6, #-9]
    10c4:	18000006 	stmdane	r0, {r1, r2}
    10c8:	0000007a 	andeq	r0, r0, sl, ror r0
    10cc:	0000066a 	andeq	r0, r0, sl, ror #12
    10d0:	00006b19 	andeq	r6, r0, r9, lsl fp
    10d4:	1f007f00 	svcne	0x00007f00
    10d8:	0000038a 	andeq	r0, r0, sl, lsl #7
    10dc:	03a11d03 			; <UNDEFINED> instruction: 0x03a11d03
    10e0:	c71f0000 	ldrgt	r0, [pc, -r0]
    10e4:	03000003 	movweq	r0, #3
    10e8:	0003b622 	andeq	fp, r3, r2, lsr #12
    10ec:	00d32000 	sbcseq	r2, r3, r0
    10f0:	1e030000 	cdpne	0, 0, cr0, cr3, cr0, {0}
    10f4:	00031a21 	andeq	r1, r3, r1, lsr #20
    10f8:	25290300 	strcs	r0, [r9, #-768]!	; 0x300
    10fc:	9d000000 	stcls	0, cr0, [r0, #-0]
    1100:	1c000006 	stcne	0, cr0, [r0], {6}
    1104:	00000081 	andeq	r0, r0, r1, lsl #1
    1108:	64200022 	strtvs	r0, [r0], #-34	; 0x22
    110c:	03000001 	movweq	r0, #1
    1110:	00b80066 	adcseq	r0, r8, r6, rrx
    1114:	00040000 	andeq	r0, r4, r0
    1118:	000006d3 	ldrdeq	r0, [r0], -r3
    111c:	02c00104 	sbceq	r0, r0, #4, 2
    1120:	39010000 	stmdbcc	r1, {}	; <UNPREDICTABLE>
    1124:	2b000004 	blcs	113c <_start-0x6ec4>
    1128:	24000003 	strcs	r0, [r0], #-3
    112c:	2000008b 	andcs	r0, r0, fp, lsl #1
    1130:	e6000000 	str	r0, [r0], -r0
    1134:	02000005 	andeq	r0, r0, #5
    1138:	6e690504 	cdpvs	5, 6, cr0, cr9, cr4, {0}
    113c:	04030074 	streq	r0, [r3], #-116	; 0x74
    1140:	00003307 	andeq	r3, r0, r7, lsl #6
    1144:	06010300 	streq	r0, [r1], -r0, lsl #6
    1148:	00000195 	muleq	r0, r5, r1
    114c:	a1050203 	tstge	r5, r3, lsl #4
    1150:	03000001 	movweq	r0, #1
    1154:	00450504 	subeq	r0, r5, r4, lsl #10
    1158:	08030000 	stmdaeq	r3, {}	; <UNPREDICTABLE>
    115c:	00004005 	andeq	r4, r0, r5
    1160:	08010300 	stmdaeq	r1, {r8, r9}
    1164:	00000193 	muleq	r0, r3, r1
    1168:	27070203 	strcs	r0, [r7, -r3, lsl #4]
    116c:	03000001 	movweq	r0, #1
    1170:	002e0704 	eoreq	r0, lr, r4, lsl #14
    1174:	08030000 	stmdaeq	r3, {}	; <UNPREDICTABLE>
    1178:	00002907 	andeq	r2, r0, r7, lsl #18
    117c:	07040300 	streq	r0, [r4, -r0, lsl #6]
    1180:	00000171 	andeq	r0, r0, r1, ror r1
    1184:	9c080103 	stflss	f0, [r8], {3}
    1188:	04000001 	streq	r0, [r0], #-1
    118c:	00000259 	andeq	r0, r0, r9, asr r2
    1190:	8b240301 	blhi	901d9c <__bss_end__+0x8f7aec>
    1194:	00100000 	andseq	r0, r0, r0
    1198:	9c010000 	stcls	0, cr0, [r1], {-0}
    119c:	0000009c 	muleq	r0, ip, r0
    11a0:	01007205 	tsteq	r0, r5, lsl #4
    11a4:	00002c04 	andeq	r2, r0, r4, lsl #24
    11a8:	000d6500 	andeq	r6, sp, r0, lsl #10
    11ac:	2b060000 	blcs	1811b4 <__bss_end__+0x176f04>
    11b0:	01000004 	tsteq	r0, r4
    11b4:	008b340c 	addeq	r3, fp, ip, lsl #8
    11b8:	00001000 	andeq	r1, r0, r0
    11bc:	059c0100 	ldreq	r0, [ip, #256]	; 0x100
    11c0:	0d010072 	stceq	0, cr0, [r1, #-456]	; 0xfffffe38
    11c4:	0000002c 	andeq	r0, r0, ip, lsr #32
    11c8:	00000d89 	andeq	r0, r0, r9, lsl #27
    11cc:	00ff0000 	rscseq	r0, pc, r0
    11d0:	00040000 	andeq	r0, r4, r0
    11d4:	0000073e 	andeq	r0, r0, lr, lsr r7
    11d8:	02c00104 	sbceq	r0, r0, #4, 2
    11dc:	57010000 	strpl	r0, [r1, -r0]
    11e0:	2b000004 	blcs	11f8 <_start-0x6e08>
    11e4:	44000003 	strmi	r0, [r0], #-3
    11e8:	2800008b 	stmdacs	r0, {r0, r1, r3, r7}
    11ec:	2d000000 	stccs	0, cr0, [r0, #-0]
    11f0:	02000006 	andeq	r0, r0, #6
    11f4:	6e690504 	cdpvs	5, 6, cr0, cr9, cr4, {0}
    11f8:	04030074 	streq	r0, [r3], #-116	; 0x74
    11fc:	00003307 	andeq	r3, r0, r7, lsl #6
    1200:	06010300 	streq	r0, [r1], -r0, lsl #6
    1204:	00000195 	muleq	r0, r5, r1
    1208:	a1050203 	tstge	r5, r3, lsl #4
    120c:	03000001 	movweq	r0, #1
    1210:	00450504 	subeq	r0, r5, r4, lsl #10
    1214:	08030000 	stmdaeq	r3, {}	; <UNPREDICTABLE>
    1218:	00004005 	andeq	r4, r0, r5
    121c:	08010300 	stmdaeq	r1, {r8, r9}
    1220:	00000193 	muleq	r0, r3, r1
    1224:	27070203 	strcs	r0, [r7, -r3, lsl #4]
    1228:	03000001 	movweq	r0, #1
    122c:	002e0704 	eoreq	r0, lr, r4, lsl #14
    1230:	08030000 	stmdaeq	r3, {}	; <UNPREDICTABLE>
    1234:	00002907 	andeq	r2, r0, r7, lsl #18
    1238:	07040300 	streq	r0, [r4, -r0, lsl #6]
    123c:	00000171 	andeq	r0, r0, r1, ror r1
    1240:	9c080103 	stflss	f0, [r8], {3}
    1244:	04000001 	streq	r0, [r0], #-1
    1248:	00007f04 	andeq	r7, r0, r4, lsl #30
    124c:	00720500 	rsbseq	r0, r2, r0, lsl #10
    1250:	64060000 	strvs	r0, [r6], #-0
    1254:	01000001 	tsteq	r0, r1
    1258:	008b4404 	addeq	r4, fp, r4, lsl #8
    125c:	00002800 	andeq	r2, r0, r0, lsl #16
    1260:	ca9c0100 	bgt	fe701668 <__bss_end__+0xfe6f73b8>
    1264:	07000000 	streq	r0, [r0, -r0]
    1268:	00008b58 	andeq	r8, r0, r8, asr fp
    126c:	000000ac 	andeq	r0, r0, ip, lsr #1
    1270:	05500108 	ldrbeq	r0, [r0, #-264]	; 0x108
    1274:	009d5003 	addseq	r5, sp, r3
    1278:	60090000 	andvs	r0, r9, r0
    127c:	ea00008b 	b	14b0 <_start-0x6b50>
    1280:	c0000000 	andgt	r0, r0, r0
    1284:	08000000 	stmdaeq	r0, {}	; <UNPREDICTABLE>
    1288:	08025001 	stmdaeq	r2, {r0, ip, lr}
    128c:	640a0064 	strvs	r0, [sl], #-100	; 0x64
    1290:	fb00008b 	blx	14c6 <_start-0x6b3a>
    1294:	00000000 	andeq	r0, r0, r0
    1298:	0000250b 	andeq	r2, r0, fp, lsl #10
    129c:	0000d900 	andeq	sp, r0, r0, lsl #18
    12a0:	00790c00 	rsbseq	r0, r9, r0, lsl #24
    12a4:	0d000000 	stceq	0, cr0, [r0, #-0]
    12a8:	000003c7 	andeq	r0, r0, r7, asr #7
    12ac:	00e42202 	rsceq	r2, r4, r2, lsl #4
    12b0:	04040000 	streq	r0, [r4], #-0
    12b4:	000000ca 	andeq	r0, r0, sl, asr #1
    12b8:	0001b30e 	andeq	fp, r1, lr, lsl #6
    12bc:	fb500200 	blx	1401ac6 <__bss_end__+0x13f7816>
    12c0:	0c000000 	stceq	0, cr0, [r0], {-0}
    12c4:	0000002c 	andeq	r0, r0, ip, lsr #32
    12c8:	044c0f00 	strbeq	r0, [ip], #-3840	; 0xf00
    12cc:	63020000 	movwvs	r0, #8192	; 0x2000
    12d0:	0002dd00 	andeq	sp, r2, r0, lsl #26
    12d4:	08000400 	stmdaeq	r0, {sl}
    12d8:	04000008 	streq	r0, [r0], #-8
    12dc:	0002c001 	andeq	ip, r2, r1
    12e0:	05530100 	ldrbeq	r0, [r3, #-256]	; 0x100
    12e4:	032b0000 	teqeq	fp, #0
    12e8:	8b6c0000 	blhi	1b012f0 <__bss_end__+0x1af7040>
    12ec:	00b00000 	adcseq	r0, r0, r0
    12f0:	06c40000 	strbeq	r0, [r4], r0
    12f4:	04020000 	streq	r0, [r2], #-0
    12f8:	746e6905 	strbtvc	r6, [lr], #-2309	; 0x905
    12fc:	07040300 	streq	r0, [r4, -r0, lsl #6]
    1300:	00000033 	andeq	r0, r0, r3, lsr r0
    1304:	95060103 	strls	r0, [r6, #-259]	; 0x103
    1308:	03000001 	movweq	r0, #1
    130c:	01a10502 			; <UNDEFINED> instruction: 0x01a10502
    1310:	04030000 	streq	r0, [r3], #-0
    1314:	00004505 	andeq	r4, r0, r5, lsl #10
    1318:	05080300 	streq	r0, [r8, #-768]	; 0x300
    131c:	00000040 	andeq	r0, r0, r0, asr #32
    1320:	00051c04 	andeq	r1, r5, r4, lsl #24
    1324:	5a2e0200 	bpl	b81b2c <__bss_end__+0xb7787c>
    1328:	03000000 	movweq	r0, #0
    132c:	01930801 	orrseq	r0, r3, r1, lsl #16
    1330:	02030000 	andeq	r0, r3, #0
    1334:	00012707 	andeq	r2, r1, r7, lsl #14
    1338:	05730400 	ldrbeq	r0, [r3, #-1024]!	; 0x400
    133c:	34020000 	strcc	r0, [r2], #-0
    1340:	00000073 	andeq	r0, r0, r3, ror r0
    1344:	2e070403 	cdpcs	4, 0, cr0, cr7, cr3, {0}
    1348:	03000000 	movweq	r0, #0
    134c:	00290708 	eoreq	r0, r9, r8, lsl #14
    1350:	04030000 	streq	r0, [r3], #-0
    1354:	00017107 	andeq	r7, r1, r7, lsl #2
    1358:	08010300 	stmdaeq	r1, {r8, r9}
    135c:	0000019c 	muleq	r0, ip, r1
    1360:	00950405 	addseq	r0, r5, r5, lsl #8
    1364:	88060000 	stmdahi	r6, {}	; <UNPREDICTABLE>
    1368:	07000000 	streq	r0, [r0, -r0]
    136c:	d10e030c 	tstle	lr, ip, lsl #6
    1370:	08000000 	stmdaeq	r0, {}	; <UNPREDICTABLE>
    1374:	03007874 	movweq	r7, #2164	; 0x874
    1378:	00004f0f 	andeq	r4, r0, pc, lsl #30
    137c:	72080000 	andvc	r0, r8, #0
    1380:	0f030078 	svceq	0x00030078
    1384:	0000004f 	andeq	r0, r0, pc, asr #32
    1388:	04ea0901 	strbteq	r0, [sl], #2305	; 0x901
    138c:	10030000 	andne	r0, r3, r0
    1390:	00000068 	andeq	r0, r0, r8, rrx
    1394:	049b0904 	ldreq	r0, [fp], #2308	; 0x904
    1398:	11030000 	mrsne	r0, (UNDEF: 3)
    139c:	00000068 	andeq	r0, r0, r8, rrx
    13a0:	d3040008 	movwle	r0, #16392	; 0x4008
    13a4:	03000004 	movweq	r0, #4
    13a8:	00009a12 	andeq	r9, r0, r2, lsl sl
    13ac:	04010a00 	streq	r0, [r1], #-2560	; 0xa00
    13b0:	0000f710 	andeq	pc, r0, r0, lsl r7	; <UNPREDICTABLE>
    13b4:	04ef0b00 	strbteq	r0, [pc], #2816	; 13bc <_start-0x6c44>
    13b8:	0b010000 	bleq	413c0 <__bss_end__+0x37110>
    13bc:	000004dd 	ldrdeq	r0, [r0], -sp
    13c0:	04c50b02 	strbeq	r0, [r5], #2818	; 0xb02
    13c4:	00030000 	andeq	r0, r3, r0
    13c8:	00050404 	andeq	r0, r5, r4, lsl #8
    13cc:	dc100400 	cfldrsle	mvf0, [r0], {-0}
    13d0:	07000000 	streq	r0, [r0, -r0]
    13d4:	2f140414 	svccs	0x00140414
    13d8:	09000001 	stmdbeq	r0, {r0}
    13dc:	0000057c 	andeq	r0, r0, ip, ror r5
    13e0:	002c1504 	eoreq	r1, ip, r4, lsl #10
    13e4:	09000000 	stmdbeq	r0, {}	; <UNPREDICTABLE>
    13e8:	00000567 	andeq	r0, r0, r7, ror #10
    13ec:	00f71804 	rscseq	r1, r7, r4, lsl #16
    13f0:	09040000 	stmdbeq	r4, {}	; <UNPREDICTABLE>
    13f4:	00000532 	andeq	r0, r0, r2, lsr r5
    13f8:	00d11b04 	sbcseq	r1, r1, r4, lsl #22
    13fc:	00080000 	andeq	r0, r8, r0
    1400:	00052404 	andeq	r2, r5, r4, lsl #8
    1404:	02200400 	eoreq	r0, r0, #0, 8
    1408:	0c000001 	stceq	0, cr0, [r0], {1}
    140c:	00000471 	andeq	r0, r0, r1, ror r4
    1410:	00250601 	eoreq	r0, r5, r1, lsl #12
    1414:	8b6c0000 	blhi	1b0141c <__bss_end__+0x1af716c>
    1418:	00200000 	eoreq	r0, r0, r0
    141c:	9c010000 	stcls	0, cr0, [r1], {-0}
    1420:	0000017a 	andeq	r0, r0, sl, ror r1
    1424:	0100630d 	tsteq	r0, sp, lsl #6
    1428:	00002506 	andeq	r2, r0, r6, lsl #10
    142c:	000dad00 	andeq	sl, sp, r0, lsl #26
    1430:	8b800e00 	blhi	fe004c38 <__bss_end__+0xfdffa988>
    1434:	027a0000 	rsbseq	r0, sl, #0
    1438:	010f0000 	mrseq	r0, CPSR
    143c:	00740251 	rsbseq	r0, r4, r1, asr r2
    1440:	0550010f 	ldrbeq	r0, [r0, #-271]	; 0x10f
    1444:	00a2a403 	adceq	sl, r2, r3, lsl #8
    1448:	10000000 	andne	r0, r0, r0
    144c:	000004fc 	strdeq	r0, [r0], -ip
    1450:	8b8c0b01 	blhi	fe30405c <__bss_end__+0xfe2f9dac>
    1454:	00900000 	addseq	r0, r0, r0
    1458:	9c010000 	stcls	0, cr0, [r1], {-0}
    145c:	00000227 	andeq	r0, r0, r7, lsr #4
    1460:	00048511 	andeq	r8, r4, r1, lsl r5
    1464:	250c0100 	strcs	r0, [ip, #-256]	; 0x100
    1468:	11000000 	mrsne	r0, (UNDEF: 0)
    146c:	00000547 	andeq	r0, r0, r7, asr #10
    1470:	00250c01 	eoreq	r0, r5, r1, lsl #24
    1474:	0f120000 	svceq	0x00120000
    1478:	01000000 	mrseq	r0, (UNDEF: 0)
    147c:	7362130d 	cmnvc	r2, #872415232	; 0x34000000
    1480:	0f010073 	svceq	0x00010073
    1484:	00000227 	andeq	r0, r0, r7, lsr #4
    1488:	00000dcb 	andeq	r0, r0, fp, asr #27
    148c:	00049314 	andeq	r9, r4, r4, lsl r3
    1490:	27100100 	ldrcs	r0, [r0, -r0, lsl #2]
    1494:	13000002 	movwne	r0, #2
    1498:	01006263 	tsteq	r0, r3, ror #4
    149c:	00022d17 	andeq	r2, r2, r7, lsl sp
    14a0:	000deb00 	andeq	lr, sp, r0, lsl #22
    14a4:	8bb41500 	blhi	fed068ac <__bss_end__+0xfecfc5fc>
    14a8:	02960000 	addseq	r0, r6, #0
    14ac:	f0160000 			; <UNDEFINED> instruction: 0xf0160000
    14b0:	a100008b 	smlabbge	r0, fp, r0, r0
    14b4:	fd000002 	stc2	0, cr0, [r0, #-8]
    14b8:	0f000001 	svceq	0x00000001
    14bc:	03055101 	movweq	r5, #20737	; 0x5101
    14c0:	00009d5c 	andeq	r9, r0, ip, asr sp
    14c4:	0550010f 	ldrbeq	r0, [r0, #-271]	; 0x10f
    14c8:	00a2a403 	adceq	sl, r2, r3, lsl #8
    14cc:	f8160000 			; <UNDEFINED> instruction: 0xf8160000
    14d0:	bc00008b 	stclt	0, cr0, [r0], {139}	; 0x8b
    14d4:	14000002 	strne	r0, [r0], #-2
    14d8:	0f000002 	svceq	0x00000002
    14dc:	03055001 	movweq	r5, #20481	; 0x5001
    14e0:	00009d80 	andeq	r9, r0, r0, lsl #27
    14e4:	8bfc1500 	blhi	fff068ec <__bss_end__+0xffefc63c>
    14e8:	02d20000 	sbcseq	r0, r2, #0
    14ec:	00150000 	andseq	r0, r5, r0
    14f0:	d900008c 	stmdble	r0, {r2, r3, r7}
    14f4:	00000002 	andeq	r0, r0, r2
    14f8:	00250405 	eoreq	r0, r5, r5, lsl #8
    14fc:	04050000 	streq	r0, [r5], #-0
    1500:	0000012f 	andeq	r0, r0, pc, lsr #2
    1504:	0004a917 	andeq	sl, r4, r7, lsl r9
    1508:	d1050100 	mrsle	r0, (UNDEF: 21)
    150c:	05000000 	streq	r0, [r0, #-0]
    1510:	00a2a403 	adceq	sl, r2, r3, lsl #8
    1514:	00251800 	eoreq	r1, r5, r0, lsl #16
    1518:	02530000 	subseq	r0, r3, #0
    151c:	25190000 	ldrcs	r0, [r9, #-0]
    1520:	00000000 	andeq	r0, r0, r0
    1524:	00038a11 	andeq	r8, r3, r1, lsl sl
    1528:	5e1d0500 	cfmul32pl	mvfx0, mvfx13, mvfx0
    152c:	05000002 	streq	r0, [r0, #-2]
    1530:	00024404 	andeq	r4, r2, r4, lsl #8
    1534:	04851100 	streq	r1, [r5], #256	; 0x100
    1538:	0c010000 	stceq	0, cr0, [r1], {-0}
    153c:	00000025 	andeq	r0, r0, r5, lsr #32
    1540:	00054711 	andeq	r4, r5, r1, lsl r7
    1544:	250c0100 	strcs	r0, [ip, #-256]	; 0x100
    1548:	1a000000 	bne	1550 <_start-0x6ab0>
    154c:	0000050f 	andeq	r0, r0, pc, lsl #10
    1550:	02904403 	addseq	r4, r0, #50331648	; 0x3000000
    1554:	90190000 	andsls	r0, r9, r0
    1558:	19000002 	stmdbne	r0, {r1}
    155c:	0000005a 	andeq	r0, r0, sl, asr r0
    1560:	d1040500 	tstle	r4, r0, lsl #10
    1564:	1b000000 	blne	156c <_start-0x6a94>
    1568:	0000053a 	andeq	r0, r0, sl, lsr r5
    156c:	022d2a04 	eoreq	r2, sp, #4, 20	; 0x4000
    1570:	b61c0000 	ldrlt	r0, [ip], -r0
    1574:	03000004 	movweq	r0, #4
    1578:	00002515 	andeq	r2, r0, r5, lsl r5
    157c:	0002bc00 	andeq	fp, r2, r0, lsl #24
    1580:	02901900 	addseq	r1, r0, #0, 18
    1584:	8f190000 	svchi	0x00190000
    1588:	1d000000 	stcne	0, cr0, [r0, #-0]
    158c:	031a1c00 	tsteq	sl, #0, 24
    1590:	29050000 	stmdbcs	r5, {}	; <UNPREDICTABLE>
    1594:	00000025 	andeq	r0, r0, r5, lsr #32
    1598:	000002d2 	ldrdeq	r0, [r0], -r2
    159c:	00008f19 	andeq	r8, r0, r9, lsl pc
    15a0:	12001d00 	andne	r1, r0, #0, 26
    15a4:	0000000f 	andeq	r0, r0, pc
    15a8:	4c12d105 	ldfmid	f5, [r2], {5}
    15ac:	05000004 	streq	r0, [r0, #-4]
    15b0:	01ad0063 			; <UNDEFINED> instruction: 0x01ad0063
    15b4:	00040000 	andeq	r0, r4, r0
    15b8:	0000099f 	muleq	r0, pc, r9	; <UNPREDICTABLE>
    15bc:	02c00104 	sbceq	r0, r0, #4, 2
    15c0:	9c010000 	stcls	0, cr0, [r1], {-0}
    15c4:	2b000005 	blcs	15e0 <_start-0x6a20>
    15c8:	b8000003 	stmdalt	r0, {r0, r1}
    15cc:	00000000 	andeq	r0, r0, r0
    15d0:	e9000000 	stmdb	r0, {}	; <UNPREDICTABLE>
    15d4:	02000007 	andeq	r0, r0, #7
    15d8:	6e690504 	cdpvs	5, 6, cr0, cr9, cr4, {0}
    15dc:	04030074 	streq	r0, [r3], #-116	; 0x74
    15e0:	00003307 	andeq	r3, r0, r7, lsl #6
    15e4:	06010300 	streq	r0, [r1], -r0, lsl #6
    15e8:	00000195 	muleq	r0, r5, r1
    15ec:	a1050203 	tstge	r5, r3, lsl #4
    15f0:	03000001 	movweq	r0, #1
    15f4:	00450504 	subeq	r0, r5, r4, lsl #10
    15f8:	08030000 	stmdaeq	r3, {}	; <UNPREDICTABLE>
    15fc:	00004005 	andeq	r4, r0, r5
    1600:	08010300 	stmdaeq	r1, {r8, r9}
    1604:	00000193 	muleq	r0, r3, r1
    1608:	27070203 	strcs	r0, [r7, -r3, lsl #4]
    160c:	03000001 	movweq	r0, #1
    1610:	002e0704 	eoreq	r0, lr, r4, lsl #14
    1614:	08030000 	stmdaeq	r3, {}	; <UNPREDICTABLE>
    1618:	00002907 	andeq	r2, r0, r7, lsl #18
    161c:	07040300 	streq	r0, [r4, -r0, lsl #6]
    1620:	00000171 	andeq	r0, r0, r1, ror r1
    1624:	9c080103 	stflss	f0, [r8], {3}
    1628:	04000001 	streq	r0, [r0], #-1
    162c:	00000582 	andeq	r0, r0, r2, lsl #11
    1630:	00250e01 	eoreq	r0, r5, r1, lsl #28
    1634:	8c1c0000 	ldchi	0, cr0, [ip], {-0}
    1638:	00180000 	andseq	r0, r8, r0
    163c:	9c010000 	stcls	0, cr0, [r1], {-0}
    1640:	000000a2 	andeq	r0, r0, r2, lsr #1
    1644:	0005ee05 	andeq	lr, r5, r5, lsl #28
    1648:	2c0f0100 	stfcss	f0, [pc], {-0}
    164c:	0b000000 	bleq	1654 <_start-0x69ac>
    1650:	0000000e 	andeq	r0, r0, lr
    1654:	0005d106 	andeq	sp, r5, r6, lsl #2
    1658:	34170100 	ldrcc	r0, [r7], #-256	; 0x100
    165c:	1400008c 	strne	r0, [r0], #-140	; 0x8c
    1660:	01000000 	mrseq	r0, (UNDEF: 0)
    1664:	0000c79c 	muleq	r0, ip, r7
    1668:	05ee0500 	strbeq	r0, [lr, #1280]!	; 0x500
    166c:	18010000 	stmdane	r1, {}	; <UNPREDICTABLE>
    1670:	0000002c 	andeq	r0, r0, ip, lsr #32
    1674:	00000e2a 	andeq	r0, r0, sl, lsr #28
    1678:	044c0600 	strbeq	r0, [ip], #-1536	; 0x600
    167c:	1f010000 	svcne	0x00010000
    1680:	00008c48 	andeq	r8, r0, r8, asr #24
    1684:	00000048 	andeq	r0, r0, r8, asr #32
    1688:	01779c01 	cmneq	r7, r1, lsl #24
    168c:	e6070000 	str	r0, [r7], -r0
    1690:	01000005 	tsteq	r0, r5
    1694:	0001772a 	andeq	r7, r1, sl, lsr #14
    1698:	10001c00 	andne	r1, r0, r0, lsl #24
    169c:	05c90720 	strbeq	r0, [r9, #1824]	; 0x720
    16a0:	2b010000 	blcs	416a8 <__bss_end__+0x373f8>
    16a4:	00000177 	andeq	r0, r0, r7, ror r1
    16a8:	20100024 	andscs	r0, r0, r4, lsr #32
    16ac:	00059007 	andeq	r9, r5, r7
    16b0:	772c0100 	strvc	r0, [ip, -r0, lsl #2]!
    16b4:	00000001 	andeq	r0, r0, r1
    16b8:	085a0000 	ldmdaeq	sl, {}^	; <UNPREDICTABLE>
    16bc:	000005b0 			; <UNDEFINED> instruction: 0x000005b0
    16c0:	01772d01 	cmneq	r7, r1, lsl #26
    16c4:	09200000 	stmdbeq	r0!, {}	; <UNPREDICTABLE>
    16c8:	00008c50 	andeq	r8, r0, r0, asr ip
    16cc:	00000079 	andeq	r0, r0, r9, ror r0
    16d0:	008c5c09 	addeq	r5, ip, r9, lsl #24
    16d4:	0000a200 	andeq	sl, r0, r0, lsl #4
    16d8:	8c640a00 	stclhi	10, cr0, [r4], #-0
    16dc:	018d0000 	orreq	r0, sp, r0
    16e0:	013a0000 	teqeq	sl, r0
    16e4:	010b0000 	mrseq	r0, (UNDEF: 11)
    16e8:	004e0150 	subeq	r0, lr, r0, asr r1
    16ec:	008c700a 	addeq	r7, ip, sl
    16f0:	00019e00 	andeq	r9, r1, r0, lsl #28
    16f4:	00015a00 	andeq	r5, r1, r0, lsl #20
    16f8:	51010b00 	tstpl	r1, r0, lsl #22
    16fc:	00010c05 	andeq	r0, r1, r5, lsl #24
    1700:	010b5a00 	tsteq	fp, r0, lsl #20
    1704:	240c0550 	strcs	r0, [ip], #-1360	; 0x550
    1708:	00201000 	eoreq	r1, r0, r0
    170c:	008c7c0c 	addeq	r7, ip, ip, lsl #24
    1710:	00019e00 	andeq	r9, r1, r0, lsl #28
    1714:	51010b00 	tstpl	r1, r0, lsl #22
    1718:	00200c05 	eoreq	r0, r0, r5, lsl #24
    171c:	010b5a00 	tsteq	fp, r0, lsl #20
    1720:	1c0c0550 	cfstr32ne	mvfx0, [ip], {80}	; 0x50
    1724:	00201000 	eoreq	r1, r0, r0
    1728:	00250d00 	eoreq	r0, r5, r0, lsl #26
    172c:	85080000 	strhi	r0, [r8, #-0]
    1730:	01000005 	tsteq	r0, r5
    1734:	0001880d 	andeq	r8, r1, sp, lsl #16
    1738:	2c0d1000 	stccs	0, cr1, [sp], {-0}
    173c:	0e000000 	cdpeq	0, 0, cr0, cr0, cr0, {0}
    1740:	000001b3 			; <UNDEFINED> instruction: 0x000001b3
    1744:	019e5002 	orrseq	r5, lr, r2
    1748:	2c0f0000 	stccs	0, cr0, [pc], {-0}
    174c:	00000000 	andeq	r0, r0, r0
    1750:	0005e010 	andeq	lr, r5, r0, lsl r0
    1754:	0f9c0200 	svceq	0x009c0200
    1758:	0000002c 	andeq	r0, r0, ip, lsr #32
    175c:	00002c0f 	andeq	r2, r0, pc, lsl #24
    1760:	d8000000 	stmdale	r0, {}	; <UNPREDICTABLE>
    1764:	04000001 	streq	r0, [r0], #-1
    1768:	000a8d00 	andeq	r8, sl, r0, lsl #26
    176c:	c0010400 	andgt	r0, r1, r0, lsl #8
    1770:	01000002 	tsteq	r0, r2
    1774:	00000610 	andeq	r0, r0, r0, lsl r6
    1778:	0000032b 	andeq	r0, r0, fp, lsr #6
    177c:	00008c90 	muleq	r0, r0, ip
    1780:	00000088 	andeq	r0, r0, r8, lsl #1
    1784:	00000886 	andeq	r0, r0, r6, lsl #17
    1788:	69050402 	stmdbvs	r5, {r1, sl}
    178c:	0300746e 	movweq	r7, #1134	; 0x46e
    1790:	00330704 	eorseq	r0, r3, r4, lsl #14
    1794:	01030000 	mrseq	r0, (UNDEF: 3)
    1798:	00019506 	andeq	r9, r1, r6, lsl #10
    179c:	05020300 	streq	r0, [r2, #-768]	; 0x300
    17a0:	000001a1 	andeq	r0, r0, r1, lsr #3
    17a4:	45050403 	strmi	r0, [r5, #-1027]	; 0x403
    17a8:	03000000 	movweq	r0, #0
    17ac:	00400508 	subeq	r0, r0, r8, lsl #10
    17b0:	01030000 	mrseq	r0, (UNDEF: 3)
    17b4:	00019308 	andeq	r9, r1, r8, lsl #6
    17b8:	07020300 	streq	r0, [r2, -r0, lsl #6]
    17bc:	00000127 	andeq	r0, r0, r7, lsr #2
    17c0:	2e070403 	cdpcs	4, 0, cr0, cr7, cr3, {0}
    17c4:	03000000 	movweq	r0, #0
    17c8:	00290708 	eoreq	r0, r9, r8, lsl #14
    17cc:	04030000 	streq	r0, [r3], #-0
    17d0:	00017107 	andeq	r7, r1, r7, lsl #2
    17d4:	08010300 	stmdaeq	r1, {r8, r9}
    17d8:	0000019c 	muleq	r0, ip, r1
    17dc:	00062f04 	andeq	r2, r6, r4, lsl #30
    17e0:	90050100 	andls	r0, r5, r0, lsl #2
    17e4:	1c00008c 	stcne	0, cr0, [r0], {140}	; 0x8c
    17e8:	01000000 	mrseq	r0, (UNDEF: 0)
    17ec:	00009e9c 	muleq	r0, ip, lr
    17f0:	06290500 	strteq	r0, [r9], -r0, lsl #10
    17f4:	05010000 	streq	r0, [r1, #-0]
    17f8:	0000002c 	andeq	r0, r0, ip, lsr #32
    17fc:	00000e54 	andeq	r0, r0, r4, asr lr
    1800:	05f30600 	ldrbeq	r0, [r3, #1536]!	; 0x600
    1804:	0b010000 	bleq	4180c <__bss_end__+0x3755c>
    1808:	0000002c 	andeq	r0, r0, ip, lsr #32
    180c:	00008cac 	andeq	r8, r0, ip, lsr #25
    1810:	00000014 	andeq	r0, r0, r4, lsl r0
    1814:	00cb9c01 	sbceq	r9, fp, r1, lsl #24
    1818:	b8070000 	stmdalt	r7, {}	; <UNPREDICTABLE>
    181c:	ca00008c 	bgt	1a54 <_start-0x65ac>
    1820:	08000001 	stmdaeq	r0, {r0}
    1824:	0c055001 	stceq	0, cr5, [r5], {1}
    1828:	20003004 	andcs	r3, r0, r4
    182c:	45060000 	strmi	r0, [r6, #-0]
    1830:	01000006 	tsteq	r0, r6
    1834:	00002c10 	andeq	r2, r0, r0, lsl ip
    1838:	008cc000 	addeq	ip, ip, r0
    183c:	00000c00 	andeq	r0, r0, r0, lsl #24
    1840:	f99c0100 			; <UNDEFINED> instruction: 0xf99c0100
    1844:	09000000 	stmdbeq	r0, {}	; <UNPREDICTABLE>
    1848:	14010075 	strne	r0, [r1], #-117	; 0x75
    184c:	0000002c 	andeq	r0, r0, ip, lsr #32
    1850:	c80a5001 	stmdagt	sl, {r0, ip, lr}
    1854:	9e00008c 	cdpls	0, 0, cr0, cr0, cr12, {4}
    1858:	00000000 	andeq	r0, r0, r0
    185c:	00063c04 	andeq	r3, r6, r4, lsl #24
    1860:	cc190100 	ldfgts	f0, [r9], {-0}
    1864:	2400008c 	strcs	r0, [r0], #-140	; 0x8c
    1868:	01000000 	mrseq	r0, (UNDEF: 0)
    186c:	0001579c 	muleq	r1, ip, r7
    1870:	73750b00 	cmnvc	r5, #0, 22
    1874:	2c190100 	ldfcss	f0, [r9], {-0}
    1878:	88000000 	stmdahi	r0, {}	; <UNPREDICTABLE>
    187c:	0900000e 	stmdbeq	r0, {r1, r2, r3}
    1880:	01006272 	tsteq	r0, r2, ror r2
    1884:	00002c1a 	andeq	r2, r0, sl, lsl ip
    1888:	0c540100 	ldfeqe	f0, [r4], {-0}
    188c:	00008cdc 	ldrdeq	r8, [r0], -ip
    1890:	00000010 	andeq	r0, r0, r0, lsl r0
    1894:	0000014d 	andeq	r0, r0, sp, asr #2
    1898:	0061720d 	rsbeq	r7, r1, sp, lsl #4
    189c:	002c1c01 	eoreq	r1, ip, r1, lsl #24
    18a0:	0ea60000 	cdpeq	0, 10, cr0, cr6, cr0, {0}
    18a4:	e00a0000 	and	r0, sl, r0
    18a8:	cb00008c 	blgt	1ae0 <_start-0x6520>
    18ac:	00000000 	andeq	r0, r0, r0
    18b0:	008cd80a 	addeq	sp, ip, sl, lsl #16
    18b4:	0000cb00 	andeq	ip, r0, r0, lsl #22
    18b8:	b3040000 	movwlt	r0, #16384	; 0x4000
    18bc:	01000001 	tsteq	r0, r1
    18c0:	008cf022 	addeq	pc, ip, r2, lsr #32
    18c4:	00001400 	andeq	r1, r0, r0, lsl #8
    18c8:	909c0100 	addsls	r0, ip, r0, lsl #2
    18cc:	0b000001 	bleq	18d8 <_start-0x6728>
    18d0:	0100736d 	tsteq	r0, sp, ror #6
    18d4:	00002c22 	andeq	r2, r0, r2, lsr #24
    18d8:	000eb900 	andeq	fp, lr, r0, lsl #18
    18dc:	8d000700 	stchi	7, cr0, [r0, #-0]
    18e0:	00f90000 	rscseq	r0, r9, r0
    18e4:	01080000 	mrseq	r0, (UNDEF: 8)
    18e8:	01f30750 	mvnseq	r0, r0, asr r7
    18ec:	03e80a50 	mvneq	r0, #80, 20	; 0x50000
    18f0:	0400001e 	streq	r0, [r0], #-30
    18f4:	00000606 	andeq	r0, r0, r6, lsl #12
    18f8:	8d042501 	cfstr32hi	mvfx2, [r4, #-4]
    18fc:	00140000 	andseq	r0, r4, r0
    1900:	9c010000 	stcls	0, cr0, [r1], {-0}
    1904:	000001ca 	andeq	r0, r0, sl, asr #3
    1908:	6365730b 	cmnvs	r5, #738197504	; 0x2c000000
    190c:	2c250100 	stfcss	f0, [r5], #-0
    1910:	da000000 	ble	1918 <_start-0x66e8>
    1914:	0700000e 	streq	r0, [r0, -lr]
    1918:	00008d14 	andeq	r8, r0, r4, lsl sp
    191c:	00000157 	andeq	r0, r0, r7, asr r1
    1920:	07500108 	ldrbeq	r0, [r0, -r8, lsl #2]
    1924:	0a5001f3 	beq	14020f8 <__bss_end__+0x13f7e48>
    1928:	001e03e8 	andseq	r0, lr, r8, ror #7
    192c:	06230e00 	strteq	r0, [r3], -r0, lsl #28
    1930:	a8020000 	stmdage	r2, {}	; <UNPREDICTABLE>
    1934:	0000002c 	andeq	r0, r0, ip, lsr #32
    1938:	00002c0f 	andeq	r2, r0, pc, lsl #24
    193c:	82000000 	andhi	r0, r0, #0
    1940:	04000008 	streq	r0, [r0], #-8
    1944:	000b7000 	andeq	r7, fp, r0
    1948:	c0010400 	andgt	r0, r1, r0, lsl #8
    194c:	01000002 	tsteq	r0, r2
    1950:	000006a5 	andeq	r0, r0, r5, lsr #13
    1954:	0000032b 	andeq	r0, r0, fp, lsr #6
    1958:	00008d18 	andeq	r8, r0, r8, lsl sp
    195c:	000005a0 	andeq	r0, r0, r0, lsr #11
    1960:	0000092d 	andeq	r0, r0, sp, lsr #18
    1964:	29070802 	stmdbcs	r7, {r1, fp}
    1968:	02000000 	andeq	r0, r0, #0
    196c:	00330704 	eorseq	r0, r3, r4, lsl #14
    1970:	01020000 	mrseq	r0, (UNDEF: 2)
    1974:	00019506 	andeq	r9, r1, r6, lsl #10
    1978:	05020200 	streq	r0, [r2, #-512]	; 0x200
    197c:	000001a1 	andeq	r0, r0, r1, lsr #3
    1980:	45050402 	strmi	r0, [r5, #-1026]	; 0x402
    1984:	02000000 	andeq	r0, r0, #0
    1988:	00400508 	subeq	r0, r0, r8, lsl #10
    198c:	01020000 	mrseq	r0, (UNDEF: 2)
    1990:	00019308 	andeq	r9, r1, r8, lsl #6
    1994:	07020200 	streq	r0, [r2, -r0, lsl #4]
    1998:	00000127 	andeq	r0, r0, r7, lsr #2
    199c:	2e070402 	cdpcs	4, 0, cr0, cr7, cr2, {0}
    19a0:	03000000 	movweq	r0, #0
    19a4:	6e690504 	cdpvs	5, 6, cr0, cr9, cr4, {0}
    19a8:	04020074 	streq	r0, [r2], #-116	; 0x74
    19ac:	00017107 	andeq	r7, r1, r7, lsl #2
    19b0:	08010200 	stmdaeq	r1, {r9}
    19b4:	0000019c 	muleq	r0, ip, r1
    19b8:	0c020104 	stfeqs	f0, [r2], {4}
    19bc:	000000b2 	strheq	r0, [r0], -r2
    19c0:	00068805 	andeq	r8, r6, r5, lsl #16
    19c4:	98050000 	stmdals	r5, {}	; <UNPREDICTABLE>
    19c8:	01000007 	tsteq	r0, r7
    19cc:	0007d105 	andeq	sp, r7, r5, lsl #2
    19d0:	e0050400 	and	r0, r5, r0, lsl #8
    19d4:	05000007 	streq	r0, [r0, #-7]
    19d8:	0007ef05 	andeq	lr, r7, r5, lsl #30
    19dc:	fe050600 	cdp2	6, 0, cr0, cr5, cr0, {0}
    19e0:	07000007 	streq	r0, [r0, -r7]
    19e4:	00080d05 	andeq	r0, r8, r5, lsl #26
    19e8:	1c050300 	stcne	3, cr0, [r5], {-0}
    19ec:	02000008 	andeq	r0, r0, #8
    19f0:	07c50600 	strbeq	r0, [r5, r0, lsl #12]
    19f4:	15020000 	strne	r0, [r2, #-0]
    19f8:	00000079 	andeq	r0, r0, r9, ror r0
    19fc:	00078807 	andeq	r8, r7, r7, lsl #16
    1a00:	183f0100 	ldmdane	pc!, {r8}	; <UNPREDICTABLE>
    1a04:	d400008d 	strle	r0, [r0], #-141	; 0x8d
    1a08:	01000000 	mrseq	r0, (UNDEF: 0)
    1a0c:	0001339c 	muleq	r1, ip, r3
    1a10:	69700800 	ldmdbvs	r0!, {fp}^
    1a14:	3f01006e 	svccc	0x0001006e
    1a18:	0000002c 	andeq	r0, r0, ip, lsr #32
    1a1c:	00000efb 	strdeq	r0, [r0], -fp
    1a20:	0006c509 	andeq	ip, r6, r9, lsl #10
    1a24:	33470100 	movtcc	r0, #28928	; 0x7100
    1a28:	19000001 	stmdbne	r0, {r0}
    1a2c:	0900000f 	stmdbeq	r0, {r0, r1, r2, r3}
    1a30:	0000082b 	andeq	r0, r0, fp, lsr #16
    1a34:	002c4901 	eoreq	r4, ip, r1, lsl #18
    1a38:	0f6e0000 	svceq	0x006e0000
    1a3c:	3c090000 	stccc	0, cr0, [r9], {-0}
    1a40:	01000007 	tsteq	r0, r7
    1a44:	00002c57 	andeq	r2, r0, r7, asr ip
    1a48:	00113a00 	andseq	r3, r1, r0, lsl #20
    1a4c:	8dac0a00 	stchi	10, cr0, [ip]
    1a50:	08410000 	stmdaeq	r1, {}^	; <UNPREDICTABLE>
    1a54:	01220000 	teqeq	r2, r0
    1a58:	010b0000 	mrseq	r0, (UNDEF: 11)
    1a5c:	00750250 	rsbseq	r0, r5, r0, asr r2
    1a60:	8de00c00 	stclhi	12, cr0, [r0]
    1a64:	08620000 	stmdaeq	r2!, {}^	; <UNPREDICTABLE>
    1a68:	010b0000 	mrseq	r0, (UNDEF: 11)
    1a6c:	00750250 	rsbseq	r0, r5, r0, asr r2
    1a70:	040d0000 	streq	r0, [sp], #-0
    1a74:	00000139 	andeq	r0, r0, r9, lsr r1
    1a78:	00002c0e 	andeq	r2, r0, lr, lsl #24
    1a7c:	076e0700 	strbeq	r0, [lr, -r0, lsl #14]!
    1a80:	60010000 	andvs	r0, r1, r0
    1a84:	00008dec 	andeq	r8, r0, ip, ror #27
    1a88:	00000038 	andeq	r0, r0, r8, lsr r0
    1a8c:	01969c01 	orrseq	r9, r6, r1, lsl #24
    1a90:	70080000 	andvc	r0, r8, r0
    1a94:	01006e69 	tsteq	r0, r9, ror #28
    1a98:	00002c60 	andeq	r2, r0, r0, ror #24
    1a9c:	00116a00 	andseq	r6, r1, r0, lsl #20
    1aa0:	06c50900 	strbeq	r0, [r5], r0, lsl #18
    1aa4:	67010000 	strvs	r0, [r1, -r0]
    1aa8:	00000133 	andeq	r0, r0, r3, lsr r1
    1aac:	0000118b 	andeq	r1, r0, fp, lsl #3
    1ab0:	00073c09 	andeq	r3, r7, r9, lsl #24
    1ab4:	2c680100 	stfcse	f0, [r8], #-0
    1ab8:	c1000000 	mrsgt	r0, (UNDEF: 0)
    1abc:	0c000011 	stceq	0, cr0, [r0], {17}
    1ac0:	00008e1c 	andeq	r8, r0, ip, lsl lr
    1ac4:	00000862 	andeq	r0, r0, r2, ror #16
    1ac8:	0751010b 	ldrbeq	r0, [r1, -fp, lsl #2]
    1acc:	5001f331 	andpl	pc, r1, r1, lsr r3	; <UNPREDICTABLE>
    1ad0:	00241a4f 	eoreq	r1, r4, pc, asr #20
    1ad4:	06980700 	ldreq	r0, [r8], r0, lsl #14
    1ad8:	7b010000 	blvc	41ae0 <__bss_end__+0x37830>
    1adc:	00008e24 	andeq	r8, r0, r4, lsr #28
    1ae0:	00000038 	andeq	r0, r0, r8, lsr r0
    1ae4:	01ee9c01 	mvneq	r9, r1, lsl #24
    1ae8:	70080000 	andvc	r0, r8, r0
    1aec:	01006e69 	tsteq	r0, r9, ror #28
    1af0:	00002c7b 	andeq	r2, r0, fp, ror ip
    1af4:	00120100 	andseq	r0, r2, r0, lsl #2
    1af8:	06c50900 	strbeq	r0, [r5], r0, lsl #18
    1afc:	81010000 	mrshi	r0, (UNDEF: 1)
    1b00:	00000133 	andeq	r0, r0, r3, lsr r1
    1b04:	00001222 	andeq	r1, r0, r2, lsr #4
    1b08:	00073c09 	andeq	r3, r7, r9, lsl #24
    1b0c:	2c820100 	stfcss	f0, [r2], {0}
    1b10:	58000000 	stmdapl	r0, {}	; <UNPREDICTABLE>
    1b14:	0c000012 	stceq	0, cr0, [r0], {18}
    1b18:	00008e54 	andeq	r8, r0, r4, asr lr
    1b1c:	00000862 	andeq	r0, r0, r2, ror #16
    1b20:	0751010b 	ldrbeq	r0, [r1, -fp, lsl #2]
    1b24:	5001f331 	andpl	pc, r1, r1, lsr r3	; <UNPREDICTABLE>
    1b28:	00241a4f 	eoreq	r1, r4, pc, asr #20
    1b2c:	024a0700 	subeq	r0, sl, #0, 14
    1b30:	95010000 	strls	r0, [r1, #-0]
    1b34:	00008e5c 	andeq	r8, r0, ip, asr lr
    1b38:	000000cc 	andeq	r0, r0, ip, asr #1
    1b3c:	02649c01 	rsbeq	r9, r4, #256	; 0x100
    1b40:	70080000 	andvc	r0, r8, r0
    1b44:	01006e69 	tsteq	r0, r9, ror #28
    1b48:	00002c95 	muleq	r0, r5, ip
    1b4c:	00129800 	andseq	r9, r2, r0, lsl #16
    1b50:	06c50900 	strbeq	r0, [r5], r0, lsl #18
    1b54:	9b010000 	blls	41b5c <__bss_end__+0x378ac>
    1b58:	00000133 	andeq	r0, r0, r3, lsr r1
    1b5c:	000012b6 			; <UNDEFINED> instruction: 0x000012b6
    1b60:	00082b09 	andeq	r2, r8, r9, lsl #22
    1b64:	2c9d0100 	ldfcss	f0, [sp], {0}
    1b68:	0b000000 	bleq	1b70 <_start-0x6490>
    1b6c:	09000013 	stmdbeq	r0, {r0, r1, r4}
    1b70:	0000073c 	andeq	r0, r0, ip, lsr r7
    1b74:	002cab01 	eoreq	sl, ip, r1, lsl #22
    1b78:	14d70000 	ldrbne	r0, [r7], #0
    1b7c:	f00a0000 			; <UNDEFINED> instruction: 0xf00a0000
    1b80:	4100008e 	smlabbmi	r0, lr, r0, r0
    1b84:	53000008 	movwpl	r0, #8
    1b88:	0b000002 	bleq	1b98 <_start-0x6468>
    1b8c:	75025001 	strvc	r5, [r2, #-1]
    1b90:	1c0c0000 	stcne	0, cr0, [ip], {-0}
    1b94:	6200008f 	andvs	r0, r0, #143	; 0x8f
    1b98:	0b000008 	bleq	1bc0 <_start-0x6440>
    1b9c:	75025001 	strvc	r5, [r2, #-1]
    1ba0:	0f000000 	svceq	0x00000000
    1ba4:	00000272 	andeq	r0, r0, r2, ror r2
    1ba8:	0064b301 	rsbeq	fp, r4, r1, lsl #6
    1bac:	8f280000 	svchi	0x00280000
    1bb0:	004c0000 	subeq	r0, ip, r0
    1bb4:	9c010000 	stcls	0, cr0, [r1], {-0}
    1bb8:	000002ac 	andeq	r0, r0, ip, lsr #5
    1bbc:	6e697008 	cdpvs	0, 6, cr7, cr9, cr8, {0}
    1bc0:	2cb30100 	ldfcss	f0, [r3]
    1bc4:	f5000000 			; <UNDEFINED> instruction: 0xf5000000
    1bc8:	10000014 	andne	r0, r0, r4, lsl r0
    1bcc:	b9010076 	stmdblt	r1, {r1, r2, r4, r5, r6}
    1bd0:	0000002c 	andeq	r0, r0, ip, lsr #32
    1bd4:	0000154d 	andeq	r1, r0, sp, asr #10
    1bd8:	008f4811 	addeq	r4, pc, r1, lsl r8	; <UNPREDICTABLE>
    1bdc:	00084100 	andeq	r4, r8, r0, lsl #2
    1be0:	8f581100 	svchi	0x00581100
    1be4:	08410000 	stmdaeq	r1, {}^	; <UNPREDICTABLE>
    1be8:	07000000 	streq	r0, [r0, -r0]
    1bec:	00000744 	andeq	r0, r0, r4, asr #14
    1bf0:	8f74c501 	svchi	0x0074c501
    1bf4:	00240000 	eoreq	r0, r4, r0
    1bf8:	9c010000 	stcls	0, cr0, [r1], {-0}
    1bfc:	000002fc 	strdeq	r0, [r0], -ip
    1c00:	6e697008 	cdpvs	0, 6, cr7, cr9, cr8, {0}
    1c04:	2cc50100 	stfcse	f0, [r5], {0}
    1c08:	83000000 	movwhi	r0, #0
    1c0c:	08000015 	stmdaeq	r0, {r0, r2, r4}
    1c10:	c5010076 	strgt	r0, [r1, #-118]	; 0x76
    1c14:	0000002c 	andeq	r0, r0, ip, lsr #32
    1c18:	000015bd 			; <UNDEFINED> instruction: 0x000015bd
    1c1c:	008f8c0a 	addeq	r8, pc, sl, lsl #24
    1c20:	00013e00 	andeq	r3, r1, r0, lsl #28
    1c24:	0002f200 	andeq	pc, r2, r0, lsl #4
    1c28:	50010b00 	andpl	r0, r1, r0, lsl #22
    1c2c:	5001f303 	andpl	pc, r1, r3, lsl #6
    1c30:	8f941100 	svchi	0x00941100
    1c34:	01960000 	orrseq	r0, r6, r0
    1c38:	07000000 	streq	r0, [r0, -r0]
    1c3c:	000006ef 	andeq	r0, r0, pc, ror #13
    1c40:	8f98d101 	svchi	0x0098d101
    1c44:	00d80000 	sbcseq	r0, r8, r0
    1c48:	9c010000 	stcls	0, cr0, [r1], {-0}
    1c4c:	00000381 	andeq	r0, r0, r1, lsl #7
    1c50:	6e697008 	cdpvs	0, 6, cr7, cr9, cr8, {0}
    1c54:	2cd10100 	ldfcse	f0, [r1], {0}
    1c58:	f7000000 			; <UNDEFINED> instruction: 0xf7000000
    1c5c:	12000015 	andne	r0, r0, #21
    1c60:	0000074f 	andeq	r0, r0, pc, asr #14
    1c64:	00b2d101 	adcseq	sp, r2, r1, lsl #2
    1c68:	16150000 	ldrne	r0, [r5], -r0
    1c6c:	c5090000 	strgt	r0, [r9, #-0]
    1c70:	01000006 	tsteq	r0, r6
    1c74:	000133d9 	ldrdeq	r3, [r1], -r9
    1c78:	00163600 	andseq	r3, r6, r0, lsl #12
    1c7c:	082b0900 	stmdaeq	fp!, {r8, fp}
    1c80:	da010000 	ble	41c88 <__bss_end__+0x379d8>
    1c84:	0000002c 	andeq	r0, r0, ip, lsr #32
    1c88:	0000168b 	andeq	r1, r0, fp, lsl #13
    1c8c:	00073c09 	andeq	r3, r7, r9, lsl #24
    1c90:	2ce80100 	stfcse	f0, [r8]
    1c94:	57000000 	strpl	r0, [r0, -r0]
    1c98:	0a000018 	beq	1d00 <_start-0x6300>
    1c9c:	00009034 	andeq	r9, r0, r4, lsr r0
    1ca0:	00000841 	andeq	r0, r0, r1, asr #16
    1ca4:	00000370 	andeq	r0, r0, r0, ror r3
    1ca8:	0250010b 	subseq	r0, r0, #-1073741822	; 0xc0000002
    1cac:	0c000076 	stceq	0, cr0, [r0], {118}	; 0x76
    1cb0:	00009064 	andeq	r9, r0, r4, rrx
    1cb4:	00000862 	andeq	r0, r0, r2, ror #16
    1cb8:	0250010b 	subseq	r0, r0, #-1073741822	; 0xc0000002
    1cbc:	00000076 	andeq	r0, r0, r6, ror r0
    1cc0:	00075407 	andeq	r5, r7, r7, lsl #8
    1cc4:	70f10100 	rscsvc	r0, r1, r0, lsl #2
    1cc8:	38000090 	stmdacc	r0, {r4, r7}
    1ccc:	01000000 	mrseq	r0, (UNDEF: 0)
    1cd0:	0003d99c 	muleq	r3, ip, r9
    1cd4:	69700800 	ldmdbvs	r0!, {fp}^
    1cd8:	f101006e 	setend	le
    1cdc:	0000002c 	andeq	r0, r0, ip, lsr #32
    1ce0:	00001888 	andeq	r1, r0, r8, lsl #17
    1ce4:	0006c509 	andeq	ip, r6, r9, lsl #10
    1ce8:	33f70100 	mvnscc	r0, #0, 2
    1cec:	a9000001 	stmdbge	r0, {r0}
    1cf0:	09000018 	stmdbeq	r0, {r3, r4}
    1cf4:	0000073c 	andeq	r0, r0, ip, lsr r7
    1cf8:	002cf801 	eoreq	pc, ip, r1, lsl #16
    1cfc:	18df0000 	ldmne	pc, {}^	; <UNPREDICTABLE>
    1d00:	a00c0000 	andge	r0, ip, r0
    1d04:	62000090 	andvs	r0, r0, #144	; 0x90
    1d08:	0b000008 	bleq	1d30 <_start-0x62d0>
    1d0c:	31075101 	tstcc	r7, r1, lsl #2
    1d10:	4f5001f3 	svcmi	0x005001f3
    1d14:	0000241a 	andeq	r2, r0, sl, lsl r4
    1d18:	00067c13 	andeq	r7, r6, r3, lsl ip
    1d1c:	011f0100 	tsteq	pc, r0, lsl #2
    1d20:	00000064 	andeq	r0, r0, r4, rrx
    1d24:	000090a8 	andeq	r9, r0, r8, lsr #1
    1d28:	0000002c 	andeq	r0, r0, ip, lsr #32
    1d2c:	040d9c01 	streq	r9, [sp], #-3073	; 0xc01
    1d30:	7f140000 	svcvc	0x00140000
    1d34:	01000006 	tsteq	r0, r6
    1d38:	002c011f 	eoreq	r0, ip, pc, lsl r1
    1d3c:	191f0000 	ldmdbne	pc, {}	; <UNPREDICTABLE>
    1d40:	b8110000 	ldmdalt	r1, {}	; <UNPREDICTABLE>
    1d44:	41000090 	swpmi	r0, r0, [r0]	; <UNPREDICTABLE>
    1d48:	00000008 	andeq	r0, r0, r8
    1d4c:	0006da15 	andeq	sp, r6, r5, lsl sl
    1d50:	012e0100 	teqeq	lr, r0, lsl #2
    1d54:	000090d4 	ldrdeq	r9, [r0], -r4
    1d58:	00000084 	andeq	r0, r0, r4, lsl #1
    1d5c:	04d19c01 	ldrbeq	r9, [r1], #3073	; 0xc01
    1d60:	70160000 	andsvc	r0, r6, r0
    1d64:	01006e69 	tsteq	r0, r9, ror #28
    1d68:	002c012e 	eoreq	r0, ip, lr, lsr #2
    1d6c:	19400000 	stmdbne	r0, {}^	; <UNPREDICTABLE>
    1d70:	b3170000 	tstlt	r7, #0
    1d74:	01000006 	tsteq	r0, r6
    1d78:	002c0140 	eoreq	r0, ip, r0, asr #2
    1d7c:	196c0000 	stmdbne	ip!, {}^	; <UNPREDICTABLE>
    1d80:	f0180000 			; <UNDEFINED> instruction: 0xf0180000
    1d84:	1c000090 	stcne	0, cr0, [r0], {144}	; 0x90
    1d88:	73000000 	movwvc	r0, #0
    1d8c:	17000004 	strne	r0, [r0, -r4]
    1d90:	0000073c 	andeq	r0, r0, ip, lsr r7
    1d94:	2c013701 	stccs	7, cr3, [r1], {1}
    1d98:	8a000000 	bhi	1da0 <_start-0x6260>
    1d9c:	11000019 	tstne	r0, r9, lsl r0
    1da0:	000090fc 	strdeq	r9, [r0], -ip
    1da4:	00000841 	andeq	r0, r0, r1, asr #16
    1da8:	00910c11 	addseq	r0, r1, r1, lsl ip
    1dac:	00086200 	andeq	r6, r8, r0, lsl #4
    1db0:	10180000 	andsne	r0, r8, r0
    1db4:	20000091 	mulcs	r0, r1, r0
    1db8:	a3000000 	movwge	r0, #0
    1dbc:	17000004 	strne	r0, [r0, -r4]
    1dc0:	0000073c 	andeq	r0, r0, ip, lsr r7
    1dc4:	2c013b01 	stccs	11, cr3, [r1], {1}
    1dc8:	a8000000 	stmdage	r0, {}	; <UNPREDICTABLE>
    1dcc:	11000019 	tstne	r0, r9, lsl r0
    1dd0:	0000911c 	andeq	r9, r0, ip, lsl r1
    1dd4:	00000841 	andeq	r0, r0, r1, asr #16
    1dd8:	00913011 	addseq	r3, r1, r1, lsl r0
    1ddc:	00086200 	andeq	r6, r8, r0, lsl #4
    1de0:	e8110000 	ldmda	r1, {}	; <UNPREDICTABLE>
    1de4:	7e000090 	mcrvc	0, 0, r0, cr0, cr0, {4}
    1de8:	11000008 	tstne	r0, r8
    1dec:	00009134 	andeq	r9, r0, r4, lsr r1
    1df0:	0000087e 	andeq	r0, r0, lr, ror r8
    1df4:	00914011 	addseq	r4, r1, r1, lsl r0
    1df8:	00084100 	andeq	r4, r8, r0, lsl #2
    1dfc:	914c1100 	mrsls	r1, (UNDEF: 92)
    1e00:	08620000 	stmdaeq	r2!, {}^	; <UNPREDICTABLE>
    1e04:	50110000 	andspl	r0, r1, r0
    1e08:	7e000091 	mcrvc	0, 0, r0, cr0, cr1, {4}
    1e0c:	00000008 	andeq	r0, r0, r8
    1e10:	0007af15 	andeq	sl, r7, r5, lsl pc
    1e14:	014b0100 	mrseq	r0, (UNDEF: 91)
    1e18:	00009158 	andeq	r9, r0, r8, asr r1
    1e1c:	00000084 	andeq	r0, r0, r4, lsl #1
    1e20:	05959c01 	ldreq	r9, [r5, #3073]	; 0xc01
    1e24:	70160000 	andsvc	r0, r6, r0
    1e28:	01006e69 	tsteq	r0, r9, ror #28
    1e2c:	002c014b 	eoreq	r0, ip, fp, asr #2
    1e30:	19c60000 	stmibne	r6, {}^	; <UNPREDICTABLE>
    1e34:	b3170000 	tstlt	r7, #0
    1e38:	01000006 	tsteq	r0, r6
    1e3c:	002c015c 	eoreq	r0, ip, ip, asr r1
    1e40:	19f20000 	ldmibne	r2!, {}^	; <UNPREDICTABLE>
    1e44:	74180000 	ldrvc	r0, [r8], #-0
    1e48:	1c000091 	stcne	0, cr0, [r0], {145}	; 0x91
    1e4c:	37000000 	strcc	r0, [r0, -r0]
    1e50:	17000005 	strne	r0, [r0, -r5]
    1e54:	0000073c 	andeq	r0, r0, ip, lsr r7
    1e58:	2c015301 	stccs	3, cr5, [r1], {1}
    1e5c:	10000000 	andne	r0, r0, r0
    1e60:	1100001a 	tstne	r0, sl, lsl r0
    1e64:	00009180 	andeq	r9, r0, r0, lsl #3
    1e68:	00000841 	andeq	r0, r0, r1, asr #16
    1e6c:	00919011 	addseq	r9, r1, r1, lsl r0
    1e70:	00086200 	andeq	r6, r8, r0, lsl #4
    1e74:	94180000 	ldrls	r0, [r8], #-0
    1e78:	20000091 	mulcs	r0, r1, r0
    1e7c:	67000000 	strvs	r0, [r0, -r0]
    1e80:	17000005 	strne	r0, [r0, -r5]
    1e84:	0000073c 	andeq	r0, r0, ip, lsr r7
    1e88:	2c015701 	stccs	7, cr5, [r1], {1}
    1e8c:	2e000000 	cdpcs	0, 0, cr0, cr0, cr0, {0}
    1e90:	1100001a 	tstne	r0, sl, lsl r0
    1e94:	000091a0 	andeq	r9, r0, r0, lsr #3
    1e98:	00000841 	andeq	r0, r0, r1, asr #16
    1e9c:	0091b411 	addseq	fp, r1, r1, lsl r4
    1ea0:	00086200 	andeq	r6, r8, r0, lsl #4
    1ea4:	6c110000 	ldcvs	0, cr0, [r1], {-0}
    1ea8:	7e000091 	mcrvc	0, 0, r0, cr0, cr1, {4}
    1eac:	11000008 	tstne	r0, r8
    1eb0:	000091b8 			; <UNDEFINED> instruction: 0x000091b8
    1eb4:	0000087e 	andeq	r0, r0, lr, ror r8
    1eb8:	0091c411 	addseq	ip, r1, r1, lsl r4
    1ebc:	00084100 	andeq	r4, r8, r0, lsl #2
    1ec0:	91d01100 	bicsls	r1, r0, r0, lsl #2
    1ec4:	08620000 	stmdaeq	r2!, {}^	; <UNPREDICTABLE>
    1ec8:	d4110000 	ldrle	r0, [r1], #-0
    1ecc:	7e000091 	mcrvc	0, 0, r0, cr0, cr1, {4}
    1ed0:	00000008 	andeq	r0, r0, r8
    1ed4:	00065413 	andeq	r5, r6, r3, lsl r4
    1ed8:	01660100 	cmneq	r6, r0, lsl #2
    1edc:	00000064 	andeq	r0, r0, r4, rrx
    1ee0:	000091dc 	ldrdeq	r9, [r0], -ip
    1ee4:	00000084 	andeq	r0, r0, r4, lsl #1
    1ee8:	063b9c01 	ldrteq	r9, [fp], -r1, lsl #24
    1eec:	70160000 	andsvc	r0, r6, r0
    1ef0:	01006e69 	tsteq	r0, r9, ror #28
    1ef4:	002c0166 	eoreq	r0, ip, r6, ror #2
    1ef8:	1a4c0000 	bne	1301f00 <__bss_end__+0x12f7c50>
    1efc:	f8180000 			; <UNDEFINED> instruction: 0xf8180000
    1f00:	24000091 	strcs	r0, [r0], #-145	; 0x91
    1f04:	ef000000 	svc	0x00000000
    1f08:	17000005 	strne	r0, [r0, -r5]
    1f0c:	000006bc 			; <UNDEFINED> instruction: 0x000006bc
    1f10:	2c016d01 	stccs	13, cr6, [r1], {1}
    1f14:	8e000000 	cdphi	0, 0, cr0, cr0, cr0, {0}
    1f18:	1100001a 	tstne	r0, sl, lsl r0
    1f1c:	00009204 	andeq	r9, r0, r4, lsl #4
    1f20:	00000841 	andeq	r0, r0, r1, asr #16
    1f24:	00921411 	addseq	r1, r2, r1, lsl r4
    1f28:	00087e00 	andeq	r7, r8, r0, lsl #28
    1f2c:	1c180000 	ldcne	0, cr0, [r8], {-0}
    1f30:	2c000092 	stccs	0, cr0, [r0], {146}	; 0x92
    1f34:	28000000 	stmdacs	r0, {}	; <UNPREDICTABLE>
    1f38:	17000006 	strne	r0, [r0, -r6]
    1f3c:	000006bc 			; <UNDEFINED> instruction: 0x000006bc
    1f40:	2c017001 	stccs	0, cr7, [r1], {1}
    1f44:	a8000000 	stmdage	r0, {}	; <UNPREDICTABLE>
    1f48:	1100001a 	tstne	r0, sl, lsl r0
    1f4c:	00009228 	andeq	r9, r0, r8, lsr #4
    1f50:	00000841 	andeq	r0, r0, r1, asr #16
    1f54:	00923411 	addseq	r3, r2, r1, lsl r4
    1f58:	00087e00 	andeq	r7, r8, r0, lsl #28
    1f5c:	92401100 	subls	r1, r0, #0, 2
    1f60:	087e0000 	ldmdaeq	lr!, {}^	; <UNPREDICTABLE>
    1f64:	11000000 	mrsne	r0, (UNDEF: 0)
    1f68:	000091f0 	strdeq	r9, [r0], -r0
    1f6c:	0000087e 	andeq	r0, r0, lr, ror r8
    1f70:	00924c11 	addseq	r4, r2, r1, lsl ip
    1f74:	00087e00 	andeq	r7, r8, r0, lsl #28
    1f78:	0f150000 	svceq	0x00150000
    1f7c:	01000007 	tsteq	r0, r7
    1f80:	92600179 	rsbls	r0, r0, #1073741854	; 0x4000001e
    1f84:	00580000 	subseq	r0, r8, r0
    1f88:	9c010000 	stcls	0, cr0, [r1], {-0}
    1f8c:	000006a0 	andeq	r0, r0, r0, lsr #13
    1f90:	6e697016 	mcrvs	0, 3, r7, cr9, cr6, {0}
    1f94:	01790100 	cmneq	r9, r0, lsl #2
    1f98:	0000002c 	andeq	r0, r0, ip, lsr #32
    1f9c:	00001abb 			; <UNDEFINED> instruction: 0x00001abb
    1fa0:	00927411 	addseq	r7, r2, r1, lsl r4
    1fa4:	00087e00 	andeq	r7, r8, r0, lsl #28
    1fa8:	92900a00 	addsls	r0, r0, #0, 20
    1fac:	08620000 	stmdaeq	r2!, {}^	; <UNPREDICTABLE>
    1fb0:	06800000 	streq	r0, [r0], r0
    1fb4:	010b0000 	mrseq	r0, (UNDEF: 11)
    1fb8:	74310451 	ldrtvc	r0, [r1], #-1105	; 0x451
    1fbc:	0a002400 	beq	afc4 <__bss_end__+0xd14>
    1fc0:	000092ac 	andeq	r9, r0, ip, lsr #5
    1fc4:	00000862 	andeq	r0, r0, r2, ror #16
    1fc8:	00000696 	muleq	r0, r6, r6
    1fcc:	0451010b 	ldrbeq	r0, [r1], #-267	; 0x10b
    1fd0:	24007431 	strcs	r7, [r0], #-1073	; 0x431
    1fd4:	92b01100 	adcsls	r1, r0, #0, 2
    1fd8:	087e0000 	ldmdaeq	lr!, {}^	; <UNPREDICTABLE>
    1fdc:	19000000 	stmdbne	r0, {}	; <UNPREDICTABLE>
    1fe0:	00000152 	andeq	r0, r0, r2, asr r1
    1fe4:	01332801 	teqeq	r3, r1, lsl #16
    1fe8:	03050000 	movweq	r0, #20480	; 0x5000
    1fec:	00009bac 	andeq	r9, r0, ip, lsr #23
    1ff0:	00022c19 	andeq	r2, r2, r9, lsl ip
    1ff4:	33290100 	teqcc	r9, #0, 2
    1ff8:	05000001 	streq	r0, [r0, #-1]
    1ffc:	009ba803 	addseq	sl, fp, r3, lsl #16
    2000:	02911900 	addseq	r1, r1, #0, 18
    2004:	2a010000 	bcs	4200c <__bss_end__+0x37d5c>
    2008:	00000133 	andeq	r0, r0, r3, lsr r1
    200c:	9ba40305 	blls	fe902c28 <__bss_end__+0xfe8f8978>
    2010:	e2190000 	ands	r0, r9, #0
    2014:	01000000 	mrseq	r0, (UNDEF: 0)
    2018:	0001332c 	andeq	r3, r1, ip, lsr #6
    201c:	50030500 	andpl	r0, r3, r0, lsl #10
    2020:	1900009b 	stmdbne	r0, {r0, r1, r3, r4, r7}
    2024:	000000ea 	andeq	r0, r0, sl, ror #1
    2028:	01332d01 	teqeq	r3, r1, lsl #26
    202c:	03050000 	movweq	r0, #20480	; 0x5000
    2030:	00009b54 	andeq	r9, r0, r4, asr fp
    2034:	00000019 	andeq	r0, r0, r9, lsl r0
    2038:	332e0100 	teqcc	lr, #0, 2
    203c:	05000001 	streq	r0, [r0, #-1]
    2040:	009b5803 	addseq	r5, fp, r3, lsl #16
    2044:	00f21900 	rscseq	r1, r2, r0, lsl #18
    2048:	2f010000 	svccs	0x00010000
    204c:	00000133 	andeq	r0, r0, r3, lsr r1
    2050:	9b5c0305 	blls	1702c6c <__bss_end__+0x16f89bc>
    2054:	fa190000 	blx	64205c <__bss_end__+0x637dac>
    2058:	01000000 	mrseq	r0, (UNDEF: 0)
    205c:	00013330 	andeq	r3, r1, r0, lsr r3
    2060:	60030500 	andvs	r0, r3, r0, lsl #10
    2064:	1900009b 	stmdbne	r0, {r0, r1, r3, r4, r7}
    2068:	00000102 	andeq	r0, r0, r2, lsl #2
    206c:	01333101 	teqeq	r3, r1, lsl #2
    2070:	03050000 	movweq	r0, #20480	; 0x5000
    2074:	00009b64 	andeq	r9, r0, r4, ror #22
    2078:	00005619 	andeq	r5, r0, r9, lsl r6
    207c:	33330100 	teqcc	r3, #0, 2
    2080:	05000001 	streq	r0, [r0, #-1]
    2084:	009b6803 	addseq	r6, fp, r3, lsl #16
    2088:	005d1900 	subseq	r1, sp, r0, lsl #18
    208c:	34010000 	strcc	r0, [r1], #-0
    2090:	00000133 	andeq	r0, r0, r3, lsr r1
    2094:	9b6c0305 	blls	1b02cb0 <__bss_end__+0x1af8a00>
    2098:	08190000 	ldmdaeq	r9, {}	; <UNPREDICTABLE>
    209c:	01000000 	mrseq	r0, (UNDEF: 0)
    20a0:	00013336 	andeq	r3, r1, r6, lsr r3
    20a4:	70030500 	andvc	r0, r3, r0, lsl #10
    20a8:	1900009b 	stmdbne	r0, {r0, r1, r3, r4, r7}
    20ac:	0000015d 	andeq	r0, r0, sp, asr r1
    20b0:	01333701 	teqeq	r3, r1, lsl #14
    20b4:	03050000 	movweq	r0, #20480	; 0x5000
    20b8:	00009b74 	andeq	r9, r0, r4, ror fp
    20bc:	00006419 	andeq	r6, r0, r9, lsl r4
    20c0:	33390100 	teqcc	r9, #0, 2
    20c4:	05000001 	streq	r0, [r0, #-1]
    20c8:	009b7803 	addseq	r7, fp, r3, lsl #16
    20cc:	006b1900 	rsbeq	r1, fp, r0, lsl #18
    20d0:	3a010000 	bcc	420d8 <__bss_end__+0x37e28>
    20d4:	00000133 	andeq	r0, r0, r3, lsr r1
    20d8:	9b7c0305 	blls	1f02cf4 <__bss_end__+0x1ef8a44>
    20dc:	201a0000 	andscs	r0, sl, r0
    20e0:	01000007 	tsteq	r0, r7
    20e4:	0133010a 	teqeq	r3, sl, lsl #2
    20e8:	03050000 	movweq	r0, #20480	; 0x5000
    20ec:	00009ba0 	andeq	r9, r0, r0, lsr #23
    20f0:	00072e1a 	andeq	r2, r7, sl, lsl lr
    20f4:	010b0100 	mrseq	r0, (UNDEF: 27)
    20f8:	00000133 	andeq	r0, r0, r3, lsr r1
    20fc:	9b800305 	blls	fe002d18 <__bss_end__+0xfdff8a68>
    2100:	601a0000 	andsvs	r0, sl, r0
    2104:	01000007 	tsteq	r0, r7
    2108:	0133010d 	teqeq	r3, sp, lsl #2
    210c:	03050000 	movweq	r0, #20480	; 0x5000
    2110:	00009b98 	muleq	r0, r8, fp
    2114:	0007671a 	andeq	r6, r7, sl, lsl r7
    2118:	010e0100 	mrseq	r0, (UNDEF: 30)
    211c:	00000133 	andeq	r0, r0, r3, lsr r1
    2120:	9b9c0305 	blls	fe702d3c <__bss_end__+0xfe6f8a8c>
    2124:	011a0000 	tsteq	sl, r0
    2128:	01000007 	tsteq	r0, r7
    212c:	01330110 	teqeq	r3, r0, lsl r1
    2130:	03050000 	movweq	r0, #20480	; 0x5000
    2134:	00009b84 	andeq	r9, r0, r4, lsl #23
    2138:	0007081a 	andeq	r0, r7, sl, lsl r8
    213c:	01110100 	tsteq	r1, r0, lsl #2
    2140:	00000133 	andeq	r0, r0, r3, lsr r1
    2144:	9b880305 	blls	fe202d60 <__bss_end__+0xfe1f8ab0>
    2148:	7a1a0000 	bvc	682150 <__bss_end__+0x677ea0>
    214c:	01000007 	tsteq	r0, r7
    2150:	01330113 	teqeq	r3, r3, lsl r1
    2154:	03050000 	movweq	r0, #20480	; 0x5000
    2158:	00009b90 	muleq	r0, r0, fp
    215c:	0007811a 	andeq	r8, r7, sl, lsl r1
    2160:	01140100 	tsteq	r4, r0, lsl #2
    2164:	00000133 	andeq	r0, r0, r3, lsr r1
    2168:	9b940305 	blls	fe502d84 <__bss_end__+0xfe4f8ad4>
    216c:	6e1a0000 	cdpvs	0, 1, cr0, cr10, cr0, {0}
    2170:	01000006 	tsteq	r0, r6
    2174:	01330116 	teqeq	r3, r6, lsl r1
    2178:	03050000 	movweq	r0, #20480	; 0x5000
    217c:	00009b8c 	andeq	r9, r0, ip, lsl #23
    2180:	0007a91b 	andeq	sl, r7, fp, lsl r9
    2184:	2c200100 	stfcss	f0, [r0], #-0
    2188:	56000000 	strpl	r0, [r0], -r0
    218c:	1c000008 	stcne	0, cr0, [r0], {8}
    2190:	00000856 	andeq	r0, r0, r6, asr r8
    2194:	5c040d00 	stcpl	13, cr0, [r4], {-0}
    2198:	1d000008 	stcne	0, cr0, [r0, #-32]	; 0xffffffe0
    219c:	00000861 	andeq	r0, r0, r1, ror #16
    21a0:	06681f1e 	uqadd16eq	r1, r8, lr
    21a4:	1e010000 	cdpne	0, 0, cr0, cr1, cr0, {0}
    21a8:	00000878 	andeq	r0, r0, r8, ror r8
    21ac:	0008781c 	andeq	r7, r8, ip, lsl r8
    21b0:	002c1c00 	eoreq	r1, ip, r0, lsl #24
    21b4:	0d000000 	stceq	0, cr0, [r0, #-0]
    21b8:	00086104 	andeq	r6, r8, r4, lsl #2
    21bc:	06ce2000 	strbeq	r2, [lr], r0
    21c0:	8a030000 	bhi	c21c8 <__bss_end__+0xb7f18>
    21c4:	0011f200 	andseq	pc, r1, r0, lsl #4
    21c8:	4a000400 	bmi	31d0 <_start-0x4e30>
    21cc:	0400000d 	streq	r0, [r0], #-13
    21d0:	0002c001 	andeq	ip, r2, r1
    21d4:	08cb0100 	stmiaeq	fp, {r8}^
    21d8:	032b0000 	teqeq	fp, #0
    21dc:	92b80000 	adcsls	r0, r8, #0
    21e0:	06680000 	strbteq	r0, [r8], -r0
    21e4:	0ab00000 	beq	fec021ec <__bss_end__+0xfebf7f3c>
    21e8:	04020000 	streq	r0, [r2], #-0
    21ec:	746e6905 	strbtvc	r6, [lr], #-2309	; 0x905
    21f0:	07040300 	streq	r0, [r4, -r0, lsl #6]
    21f4:	00000033 	andeq	r0, r0, r3, lsr r0
    21f8:	95060103 	strls	r0, [r6, #-259]	; 0x103
    21fc:	03000001 	movweq	r0, #1
    2200:	01a10502 			; <UNDEFINED> instruction: 0x01a10502
    2204:	04030000 	streq	r0, [r3], #-0
    2208:	00004505 	andeq	r4, r0, r5, lsl #10
    220c:	05080300 	streq	r0, [r8, #-768]	; 0x300
    2210:	00000040 	andeq	r0, r0, r0, asr #32
    2214:	00051c04 	andeq	r1, r5, r4, lsl #24
    2218:	5a2e0300 	bpl	b82e20 <__bss_end__+0xb78b70>
    221c:	03000000 	movweq	r0, #0
    2220:	01930801 	orrseq	r0, r3, r1, lsl #16
    2224:	02030000 	andeq	r0, r3, #0
    2228:	00012707 	andeq	r2, r1, r7, lsl #14
    222c:	05730400 	ldrbeq	r0, [r3, #-1024]!	; 0x400
    2230:	34030000 	strcc	r0, [r3], #-0
    2234:	00000073 	andeq	r0, r0, r3, ror r0
    2238:	2e070403 	cdpcs	4, 0, cr0, cr7, cr3, {0}
    223c:	03000000 	movweq	r0, #0
    2240:	00290708 	eoreq	r0, r9, r8, lsl #14
    2244:	04030000 	streq	r0, [r3], #-0
    2248:	00017107 	andeq	r7, r1, r7, lsl #2
    224c:	06040500 	streq	r0, [r4], -r0, lsl #10
    2250:	00009004 	andeq	r9, r0, r4
    2254:	08010300 	stmdaeq	r1, {r8, r9}
    2258:	0000019c 	muleq	r0, ip, r1
    225c:	009d0406 	addseq	r0, sp, r6, lsl #8
    2260:	90070000 	andls	r0, r7, r0
    2264:	08000000 	stmdaeq	r0, {}	; <UNPREDICTABLE>
    2268:	d90e040c 	stmdble	lr, {r2, r3, sl}
    226c:	09000000 	stmdbeq	r0, {}	; <UNPREDICTABLE>
    2270:	04007874 	streq	r7, [r0], #-2164	; 0x874
    2274:	00004f0f 	andeq	r4, r0, pc, lsl #30
    2278:	72090000 	andvc	r0, r9, #0
    227c:	0f040078 	svceq	0x00040078
    2280:	0000004f 	andeq	r0, r0, pc, asr #32
    2284:	04ea0a01 	strbteq	r0, [sl], #2561	; 0xa01
    2288:	10040000 	andne	r0, r4, r0
    228c:	00000068 	andeq	r0, r0, r8, rrx
    2290:	049b0a04 	ldreq	r0, [fp], #2564	; 0xa04
    2294:	11040000 	mrsne	r0, (UNDEF: 4)
    2298:	00000068 	andeq	r0, r0, r8, rrx
    229c:	d3040008 	movwle	r0, #16392	; 0x4008
    22a0:	04000004 	streq	r0, [r0], #-4
    22a4:	0000a212 	andeq	sl, r0, r2, lsl r2
    22a8:	02a30400 	adceq	r0, r3, #0, 8
    22ac:	28050000 	stmdacs	r5, {}	; <UNPREDICTABLE>
    22b0:	000000ef 	andeq	r0, r0, pc, ror #1
    22b4:	0003210b 	andeq	r2, r3, fp, lsl #2
    22b8:	00090400 	andeq	r0, r9, r0, lsl #8
    22bc:	00000106 	andeq	r0, r0, r6, lsl #2
    22c0:	0003740c 	andeq	r7, r3, ip, lsl #8
    22c4:	00008800 	andeq	r8, r0, r0, lsl #16
    22c8:	04000000 	streq	r0, [r0], #-0
    22cc:	00000323 	andeq	r0, r0, r3, lsr #6
    22d0:	00e46205 	rsceq	r6, r4, r5, lsl #4
    22d4:	8f0d0000 	svchi	0x000d0000
    22d8:	02000008 	andeq	r0, r0, #8
    22dc:	013f0309 	teqeq	pc, r9, lsl #6
    22e0:	fe0e0000 	cdp2	0, 0, cr0, cr14, cr0, {0}
    22e4:	02000004 	andeq	r0, r0, #4
    22e8:	00002c09 	andeq	r2, r0, r9, lsl #24
    22ec:	006e0f00 	rsbeq	r0, lr, r0, lsl #30
    22f0:	002c0902 	eoreq	r0, ip, r2, lsl #18
    22f4:	11100000 	tstne	r0, r0
    22f8:	00000189 	andeq	r0, r0, r9, lsl #3
    22fc:	002c0c02 	eoreq	r0, ip, r2, lsl #24
    2300:	00000000 	andeq	r0, r0, r0
    2304:	0008420d 	andeq	r4, r8, sp, lsl #4
    2308:	03170200 	tsteq	r7, #0, 4
    230c:	00000176 	andeq	r0, r0, r6, ror r1
    2310:	6e69700f 	cdpvs	0, 6, cr7, cr9, cr15, {0}
    2314:	2c170200 	lfmcs	f0, 4, [r7], {-0}
    2318:	0f000000 	svceq	0x00000000
    231c:	17020076 	smlsdxne	r2, r6, r0, r0
    2320:	0000002c 	andeq	r0, r0, ip, lsr #32
    2324:	0004fe0e 	andeq	pc, r4, lr, lsl #28
    2328:	2c170200 	lfmcs	f0, 4, [r7], {-0}
    232c:	0e000000 	cdpeq	0, 0, cr0, cr0, cr0, {0}
    2330:	00000895 	muleq	r0, r5, r8
    2334:	002c1702 	eoreq	r1, ip, r2, lsl #14
    2338:	12000000 	andne	r0, r0, #0
    233c:	0000050f 	andeq	r0, r0, pc, lsl #10
    2340:	92b80901 	adcsls	r0, r8, #16384	; 0x4000
    2344:	01540000 	cmpeq	r4, r0
    2348:	9c010000 	stcls	0, cr0, [r1], {-0}
    234c:	00000722 	andeq	r0, r0, r2, lsr #14
    2350:	0004b113 	andeq	fp, r4, r3, lsl r1
    2354:	22090100 	andcs	r0, r9, #0, 2
    2358:	e7000007 	str	r0, [r0, -r7]
    235c:	1400001a 	strne	r0, [r0], #-26
    2360:	09010063 	stmdbeq	r1, {r0, r1, r5, r6}
    2364:	0000005a 	andeq	r0, r0, sl, asr r0
    2368:	00001b08 	andeq	r1, r0, r8, lsl #22
    236c:	00787415 	rsbseq	r7, r8, r5, lsl r4
    2370:	00250b01 	eoreq	r0, r5, r1, lsl #22
    2374:	76060000 	strvc	r0, [r6], -r0
    2378:	1aff0800 	bne	fffc4380 <__bss_end__+0xfffba0d0>
    237c:	006e169f 	mlseq	lr, pc, r6, r1	; <UNPREDICTABLE>
    2380:	00680c01 	rsbeq	r0, r8, r1, lsl #24
    2384:	1b290000 	blne	a4238c <__bss_end__+0xa380dc>
    2388:	75160000 	ldrvc	r0, [r6, #-0]
    238c:	680d0100 	stmdavs	sp, {r8}
    2390:	3c000000 	stccc	0, cr0, [r0], {-0}
    2394:	1500001b 	strne	r0, [r0, #-27]
    2398:	0e010073 	mcreq	0, 0, r0, cr1, cr3, {3}
    239c:	00000068 	andeq	r0, r0, r8, rrx
    23a0:	c8175401 	ldmdagt	r7, {r0, sl, ip, lr}
    23a4:	04000092 	streq	r0, [r0], #-146	; 0x92
    23a8:	f8000000 			; <UNDEFINED> instruction: 0xf8000000
    23ac:	18000001 	stmdane	r0, {r0}
    23b0:	00000189 	andeq	r0, r0, r9, lsl #3
    23b4:	002c0e01 	eoreq	r0, ip, r1, lsl #28
    23b8:	54010000 	strpl	r0, [r1], #-0
    23bc:	013f1900 	teqeq	pc, r0, lsl #18
    23c0:	92cc0000 	sbcls	r0, ip, #0
    23c4:	001c0000 	andseq	r0, ip, r0
    23c8:	11010000 	mrsne	r0, (UNDEF: 1)
    23cc:	00000275 	andeq	r0, r0, r5, ror r2
    23d0:	00016a1a 	andeq	r6, r1, sl, lsl sl
    23d4:	001b6500 	andseq	r6, fp, r0, lsl #10
    23d8:	015f1b00 	cmpeq	pc, r0, lsl #22
    23dc:	54010000 	strpl	r0, [r1], #-0
    23e0:	0001561c 	andeq	r5, r1, ip, lsl r6
    23e4:	4b1b0000 	blmi	6c23ec <__bss_end__+0x6b813c>
    23e8:	01000001 	tsteq	r0, r1
    23ec:	01111956 	tsteq	r1, r6, asr r9
    23f0:	92d80000 	sbcsls	r0, r8, #0
    23f4:	00100000 	andseq	r0, r0, r0
    23f8:	1a020000 	bne	82400 <__bss_end__+0x78150>
    23fc:	0000025f 	andeq	r0, r0, pc, asr r2
    2400:	0001281a 	andeq	r2, r1, sl, lsl r8
    2404:	001b7800 	andseq	r7, fp, r0, lsl #16
    2408:	011d1b00 	tsteq	sp, r0, lsl #22
    240c:	54010000 	strpl	r0, [r1], #-0
    2410:	0092d81d 	addseq	sp, r2, sp, lsl r8
    2414:	00000400 	andeq	r0, r0, r0, lsl #8
    2418:	01321e00 	teqeq	r2, r0, lsl #28
    241c:	1b8b0000 	blne	fe2c2424 <__bss_end__+0xfe2b8174>
    2420:	00000000 	andeq	r0, r0, r0
    2424:	0092d81f 	addseq	sp, r2, pc, lsl r8
    2428:	00115900 	andseq	r5, r1, r0, lsl #18
    242c:	51012000 	mrspl	r2, (UNDEF: 1)
    2430:	01203001 	teqeq	r0, r1
    2434:	00760250 	rsbseq	r0, r6, r0, asr r2
    2438:	3f190000 	svccc	0x00190000
    243c:	ec000001 	stc	0, cr0, [r0], {1}
    2440:	1c000092 	stcne	0, cr0, [r0], {146}	; 0x92
    2444:	01000000 	mrseq	r0, (UNDEF: 0)
    2448:	0002f813 	andeq	pc, r2, r3, lsl r8	; <UNPREDICTABLE>
    244c:	016a1a00 	cmneq	sl, r0, lsl #20
    2450:	1b9e0000 	blne	fe782458 <__bss_end__+0xfe7781a8>
    2454:	5f1b0000 	svcpl	0x001b0000
    2458:	01000001 	tsteq	r0, r1
    245c:	01561a54 	cmpeq	r6, r4, asr sl
    2460:	1bc00000 	blne	ff002468 <__bss_end__+0xfeff81b8>
    2464:	4b1b0000 	blmi	6c246c <__bss_end__+0x6b81bc>
    2468:	01000001 	tsteq	r0, r1
    246c:	01111956 	tsteq	r1, r6, asr r9
    2470:	92f80000 	rscsls	r0, r8, #0
    2474:	00100000 	andseq	r0, r0, r0
    2478:	1a020000 	bne	82480 <__bss_end__+0x781d0>
    247c:	000002df 	ldrdeq	r0, [r0], -pc	; <UNPREDICTABLE>
    2480:	0001281a 	andeq	r2, r1, sl, lsl r8
    2484:	001bf100 	andseq	pc, fp, r0, lsl #2
    2488:	011d1b00 	tsteq	sp, r0, lsl #22
    248c:	54010000 	strpl	r0, [r1], #-0
    2490:	0092f81d 	addseq	pc, r2, sp, lsl r8	; <UNPREDICTABLE>
    2494:	00000400 	andeq	r0, r0, r0, lsl #8
    2498:	01321e00 	teqeq	r2, r0, lsl #28
    249c:	1c130000 	ldcne	0, cr0, [r3], {-0}
    24a0:	00000000 	andeq	r0, r0, r0
    24a4:	0092f81f 	addseq	pc, r2, pc, lsl r8	; <UNPREDICTABLE>
    24a8:	00115900 	andseq	r5, r1, r0, lsl #18
    24ac:	51012000 	mrspl	r2, (UNDEF: 1)
    24b0:	31007704 	tstcc	r0, r4, lsl #14
    24b4:	5001201a 	andpl	r2, r1, sl, lsl r0
    24b8:	00007602 	andeq	r7, r0, r2, lsl #12
    24bc:	013f1900 	teqeq	pc, r0, lsl #18
    24c0:	930c0000 	movwls	r0, #49152	; 0xc000
    24c4:	001c0000 	andseq	r0, ip, r0
    24c8:	15010000 	strne	r0, [r1, #-0]
    24cc:	00000380 	andeq	r0, r0, r0, lsl #7
    24d0:	00016a1a 	andeq	r6, r1, sl, lsl sl
    24d4:	001c2600 	andseq	r2, ip, r0, lsl #12
    24d8:	015f1b00 	cmpeq	pc, r0, lsl #22
    24dc:	54010000 	strpl	r0, [r1], #-0
    24e0:	0001561b 	andeq	r5, r1, fp, lsl r6
    24e4:	00770800 	rsbseq	r0, r7, r0, lsl #16
    24e8:	ff081a32 			; <UNDEFINED> instruction: 0xff081a32
    24ec:	4b1b9f1a 	blmi	6ea15c <__bss_end__+0x6dfeac>
    24f0:	01000001 	tsteq	r0, r1
    24f4:	01111956 	tsteq	r1, r6, asr r9
    24f8:	93180000 	tstls	r8, #0
    24fc:	00100000 	andseq	r0, r0, r0
    2500:	1a020000 	bne	82508 <__bss_end__+0x78258>
    2504:	00000367 	andeq	r0, r0, r7, ror #6
    2508:	0001281a 	andeq	r2, r1, sl, lsl r8
    250c:	001c4b00 	andseq	r4, ip, r0, lsl #22
    2510:	011d1b00 	tsteq	sp, r0, lsl #22
    2514:	54010000 	strpl	r0, [r1], #-0
    2518:	0093181d 	addseq	r1, r3, sp, lsl r8
    251c:	00000400 	andeq	r0, r0, r0, lsl #8
    2520:	01321e00 	teqeq	r2, r0, lsl #28
    2524:	1c700000 	ldclne	0, cr0, [r0], #-0
    2528:	00000000 	andeq	r0, r0, r0
    252c:	0093181f 	addseq	r1, r3, pc, lsl r8
    2530:	00115900 	andseq	r5, r1, r0, lsl #18
    2534:	51012000 	mrspl	r2, (UNDEF: 1)
    2538:	32007704 	andcc	r7, r0, #4, 14	; 0x100000
    253c:	5001201a 	andpl	r2, r1, sl, lsl r0
    2540:	00007602 	andeq	r7, r0, r2, lsl #12
    2544:	013f1900 	teqeq	pc, r0, lsl #18
    2548:	932c0000 	teqls	ip, #0
    254c:	001c0000 	andseq	r0, ip, r0
    2550:	17010000 	strne	r0, [r1, -r0]
    2554:	00000408 	andeq	r0, r0, r8, lsl #8
    2558:	00016a1a 	andeq	r6, r1, sl, lsl sl
    255c:	001c8300 	andseq	r8, ip, r0, lsl #6
    2560:	015f1b00 	cmpeq	pc, r0, lsl #22
    2564:	54010000 	strpl	r0, [r1], #-0
    2568:	0001561b 	andeq	r5, r1, fp, lsl r6
    256c:	00770800 	rsbseq	r0, r7, r0, lsl #16
    2570:	ff081a34 			; <UNDEFINED> instruction: 0xff081a34
    2574:	4b1b9f1a 	blmi	6ea1e4 <__bss_end__+0x6dff34>
    2578:	01000001 	tsteq	r0, r1
    257c:	01111956 	tsteq	r1, r6, asr r9
    2580:	93380000 	teqls	r8, #0
    2584:	00100000 	andseq	r0, r0, r0
    2588:	1a020000 	bne	82590 <__bss_end__+0x782e0>
    258c:	000003ef 	andeq	r0, r0, pc, ror #7
    2590:	0001281a 	andeq	r2, r1, sl, lsl r8
    2594:	001ca500 	andseq	sl, ip, r0, lsl #10
    2598:	011d1b00 	tsteq	sp, r0, lsl #22
    259c:	54010000 	strpl	r0, [r1], #-0
    25a0:	0093381d 	addseq	r3, r3, sp, lsl r8
    25a4:	00000400 	andeq	r0, r0, r0, lsl #8
    25a8:	01321e00 	teqeq	r2, r0, lsl #28
    25ac:	1cc70000 	stclne	0, cr0, [r7], {0}
    25b0:	00000000 	andeq	r0, r0, r0
    25b4:	0093381f 	addseq	r3, r3, pc, lsl r8
    25b8:	00115900 	andseq	r5, r1, r0, lsl #18
    25bc:	51012000 	mrspl	r2, (UNDEF: 1)
    25c0:	34007704 	strcc	r7, [r0], #-1796	; 0x704
    25c4:	5001201a 	andpl	r2, r1, sl, lsl r0
    25c8:	00007602 	andeq	r7, r0, r2, lsl #12
    25cc:	013f1900 	teqeq	pc, r0, lsl #18
    25d0:	934c0000 	movtls	r0, #49152	; 0xc000
    25d4:	001c0000 	andseq	r0, ip, r0
    25d8:	19010000 	stmdbne	r1, {}	; <UNPREDICTABLE>
    25dc:	00000490 	muleq	r0, r0, r4
    25e0:	00016a1a 	andeq	r6, r1, sl, lsl sl
    25e4:	001cda00 	andseq	sp, ip, r0, lsl #20
    25e8:	015f1b00 	cmpeq	pc, r0, lsl #22
    25ec:	54010000 	strpl	r0, [r1], #-0
    25f0:	0001561b 	andeq	r5, r1, fp, lsl r6
    25f4:	00770800 	rsbseq	r0, r7, r0, lsl #16
    25f8:	ff081a38 			; <UNDEFINED> instruction: 0xff081a38
    25fc:	4b1b9f1a 	blmi	6ea26c <__bss_end__+0x6dffbc>
    2600:	01000001 	tsteq	r0, r1
    2604:	01111956 	tsteq	r1, r6, asr r9
    2608:	93580000 	cmpls	r8, #0
    260c:	00100000 	andseq	r0, r0, r0
    2610:	1a020000 	bne	82618 <__bss_end__+0x78368>
    2614:	00000477 	andeq	r0, r0, r7, ror r4
    2618:	0001281a 	andeq	r2, r1, sl, lsl r8
    261c:	001cff00 	andseq	pc, ip, r0, lsl #30
    2620:	011d1b00 	tsteq	sp, r0, lsl #22
    2624:	54010000 	strpl	r0, [r1], #-0
    2628:	0093581d 	addseq	r5, r3, sp, lsl r8
    262c:	00000400 	andeq	r0, r0, r0, lsl #8
    2630:	01321e00 	teqeq	r2, r0, lsl #28
    2634:	1d240000 	stcne	0, cr0, [r4, #-0]
    2638:	00000000 	andeq	r0, r0, r0
    263c:	0093581f 	addseq	r5, r3, pc, lsl r8
    2640:	00115900 	andseq	r5, r1, r0, lsl #18
    2644:	51012000 	mrspl	r2, (UNDEF: 1)
    2648:	38007704 	stmdacc	r0, {r2, r8, r9, sl, ip, sp, lr}
    264c:	5001201a 	andpl	r2, r1, sl, lsl r0
    2650:	00007602 	andeq	r7, r0, r2, lsl #12
    2654:	013f1900 	teqeq	pc, r0, lsl #18
    2658:	936c0000 	cmnls	ip, #0
    265c:	001c0000 	andseq	r0, ip, r0
    2660:	1b010000 	blne	42668 <__bss_end__+0x383b8>
    2664:	00000518 	andeq	r0, r0, r8, lsl r5
    2668:	00016a1a 	andeq	r6, r1, sl, lsl sl
    266c:	001d3700 	andseq	r3, sp, r0, lsl #14
    2670:	015f1b00 	cmpeq	pc, r0, lsl #22
    2674:	54010000 	strpl	r0, [r1], #-0
    2678:	0001561b 	andeq	r5, r1, fp, lsl r6
    267c:	00770800 	rsbseq	r0, r7, r0, lsl #16
    2680:	ff081a40 			; <UNDEFINED> instruction: 0xff081a40
    2684:	4b1b9f1a 	blmi	6ea2f4 <__bss_end__+0x6e0044>
    2688:	01000001 	tsteq	r0, r1
    268c:	01111956 	tsteq	r1, r6, asr r9
    2690:	93780000 	cmnls	r8, #0
    2694:	00100000 	andseq	r0, r0, r0
    2698:	1a020000 	bne	826a0 <__bss_end__+0x783f0>
    269c:	000004ff 	strdeq	r0, [r0], -pc	; <UNPREDICTABLE>
    26a0:	0001281a 	andeq	r2, r1, sl, lsl r8
    26a4:	001d5e00 	andseq	r5, sp, r0, lsl #28
    26a8:	011d1b00 	tsteq	sp, r0, lsl #22
    26ac:	54010000 	strpl	r0, [r1], #-0
    26b0:	0093781d 	addseq	r7, r3, sp, lsl r8
    26b4:	00000400 	andeq	r0, r0, r0, lsl #8
    26b8:	01321e00 	teqeq	r2, r0, lsl #28
    26bc:	1d850000 	stcne	0, cr0, [r5]
    26c0:	00000000 	andeq	r0, r0, r0
    26c4:	0093781f 	addseq	r7, r3, pc, lsl r8
    26c8:	00115900 	andseq	r5, r1, r0, lsl #18
    26cc:	51012000 	mrspl	r2, (UNDEF: 1)
    26d0:	40007704 	andmi	r7, r0, r4, lsl #14
    26d4:	5001201a 	andpl	r2, r1, sl, lsl r0
    26d8:	00007602 	andeq	r7, r0, r2, lsl #12
    26dc:	013f1900 	teqeq	pc, r0, lsl #18
    26e0:	938c0000 	orrls	r0, ip, #0
    26e4:	001c0000 	andseq	r0, ip, r0
    26e8:	1d010000 	stcne	0, cr0, [r1, #-0]
    26ec:	000005a2 	andeq	r0, r0, r2, lsr #11
    26f0:	00016a1a 	andeq	r6, r1, sl, lsl sl
    26f4:	001d9800 	andseq	r9, sp, r0, lsl #16
    26f8:	015f1b00 	cmpeq	pc, r0, lsl #22
    26fc:	54010000 	strpl	r0, [r1], #-0
    2700:	0001561b 	andeq	r5, r1, fp, lsl r6
    2704:	00770900 	rsbseq	r0, r7, r0, lsl #18
    2708:	081a2008 	ldmdaeq	sl, {r3, sp}
    270c:	1b9f1aff 	blne	fe7c9310 <__bss_end__+0xfe7bf060>
    2710:	0000014b 	andeq	r0, r0, fp, asr #2
    2714:	11195601 	tstne	r9, r1, lsl #12
    2718:	98000001 	stmdals	r0, {r0}
    271c:	10000093 	mulne	r0, r3, r0
    2720:	02000000 	andeq	r0, r0, #0
    2724:	0005881a 	andeq	r8, r5, sl, lsl r8
    2728:	01281a00 	teqeq	r8, r0, lsl #20
    272c:	1dc20000 	stclne	0, cr0, [r2]
    2730:	1d1b0000 	ldcne	0, cr0, [fp, #-0]
    2734:	01000001 	tsteq	r0, r1
    2738:	93981d54 	orrsls	r1, r8, #84, 26	; 0x1500
    273c:	00040000 	andeq	r0, r4, r0
    2740:	321e0000 	andscc	r0, lr, #0
    2744:	ec000001 	stc	0, cr0, [r0], {1}
    2748:	0000001d 	andeq	r0, r0, sp, lsl r0
    274c:	93981f00 	orrsls	r1, r8, #0, 30
    2750:	11590000 	cmpne	r9, r0
    2754:	01200000 	teqeq	r0, r0
    2758:	00770551 	rsbseq	r0, r7, r1, asr r5
    275c:	201a2008 	andscs	r2, sl, r8
    2760:	76025001 	strvc	r5, [r2], -r1
    2764:	19000000 	stmdbne	r0, {}	; <UNPREDICTABLE>
    2768:	0000013f 	andeq	r0, r0, pc, lsr r1
    276c:	000093ac 	andeq	r9, r0, ip, lsr #7
    2770:	0000001c 	andeq	r0, r0, ip, lsl r0
    2774:	062c1f01 	strteq	r1, [ip], -r1, lsl #30
    2778:	6a1a0000 	bvs	682780 <__bss_end__+0x6784d0>
    277c:	ff000001 			; <UNDEFINED> instruction: 0xff000001
    2780:	1b00001d 	blne	27fc <_start-0x5804>
    2784:	0000015f 	andeq	r0, r0, pc, asr r1
    2788:	561b5401 	ldrpl	r5, [fp], -r1, lsl #8
    278c:	09000001 	stmdbeq	r0, {r0}
    2790:	40080077 	andmi	r0, r8, r7, ror r0
    2794:	1aff081a 	bne	fffc4804 <__bss_end__+0xfffba554>
    2798:	014b1b9f 			; <UNDEFINED> instruction: 0x014b1b9f
    279c:	56010000 	strpl	r0, [r1], -r0
    27a0:	00011119 	andeq	r1, r1, r9, lsl r1
    27a4:	0093b800 	addseq	fp, r3, r0, lsl #16
    27a8:	00001000 	andeq	r1, r0, r0
    27ac:	121a0200 	andsne	r0, sl, #0, 4
    27b0:	1a000006 	bne	27d0 <_start-0x5830>
    27b4:	00000128 	andeq	r0, r0, r8, lsr #2
    27b8:	00001e21 	andeq	r1, r0, r1, lsr #28
    27bc:	00011d1b 	andeq	r1, r1, fp, lsl sp
    27c0:	1d540100 	ldfnee	f0, [r4, #-0]
    27c4:	000093b8 			; <UNDEFINED> instruction: 0x000093b8
    27c8:	00000004 	andeq	r0, r0, r4
    27cc:	0001321e 	andeq	r3, r1, lr, lsl r2
    27d0:	001e4300 	andseq	r4, lr, r0, lsl #6
    27d4:	1f000000 	svcne	0x00000000
    27d8:	000093b8 			; <UNDEFINED> instruction: 0x000093b8
    27dc:	00001159 	andeq	r1, r0, r9, asr r1
    27e0:	05510120 	ldrbeq	r0, [r1, #-288]	; 0x120
    27e4:	40080077 	andmi	r0, r8, r7, ror r0
    27e8:	5001201a 	andpl	r2, r1, sl, lsl r0
    27ec:	00007602 	andeq	r7, r0, r2, lsl #12
    27f0:	013f1900 	teqeq	pc, r0, lsl #18
    27f4:	93cc0000 	bicls	r0, ip, #0
    27f8:	001c0000 	andseq	r0, ip, r0
    27fc:	21010000 	mrscs	r0, (UNDEF: 1)
    2800:	000006ac 	andeq	r0, r0, ip, lsr #13
    2804:	00016a1b 	andeq	r6, r1, fp, lsl sl
    2808:	1b580100 	blne	1602c10 <__bss_end__+0x15f8960>
    280c:	0000015f 	andeq	r0, r0, pc, asr r1
    2810:	561a5401 	ldrpl	r5, [sl], -r1, lsl #8
    2814:	56000001 	strpl	r0, [r0], -r1
    2818:	1b00001e 	blne	2898 <_start-0x5768>
    281c:	0000014b 	andeq	r0, r0, fp, asr #2
    2820:	11195601 	tstne	r9, r1, lsl #12
    2824:	d8000001 	stmdale	r0, {r0}
    2828:	10000093 	mulne	r0, r3, r0
    282c:	02000000 	andeq	r0, r0, #0
    2830:	0006921a 	andeq	r9, r6, sl, lsl r2
    2834:	01281b00 	teqeq	r8, r0, lsl #22
    2838:	58010000 	stmdapl	r1, {}	; <UNPREDICTABLE>
    283c:	00011d1b 	andeq	r1, r1, fp, lsl sp
    2840:	1d540100 	ldfnee	f0, [r4, #-0]
    2844:	000093d8 	ldrdeq	r9, [r0], -r8
    2848:	00000004 	andeq	r0, r0, r4
    284c:	0001321e 	andeq	r3, r1, lr, lsl r2
    2850:	001e8900 	andseq	r8, lr, r0, lsl #18
    2854:	1f000000 	svcne	0x00000000
    2858:	000093d8 	ldrdeq	r9, [r0], -r8
    285c:	00001159 	andeq	r1, r0, r9, asr r1
    2860:	05510120 	ldrbeq	r0, [r1, #-288]	; 0x120
    2864:	80080077 	andhi	r0, r8, r7, ror r0
    2868:	5001201a 	andpl	r2, r1, sl, lsl r0
    286c:	00007602 	andeq	r7, r0, r2, lsl #12
    2870:	013f2100 	teqeq	pc, r0, lsl #2
    2874:	93ec0000 	mvnls	r0, #0
    2878:	001c0000 	andseq	r0, ip, r0
    287c:	23010000 	movwcs	r0, #4096	; 0x1000
    2880:	00016a1b 	andeq	r6, r1, fp, lsl sl
    2884:	1b550100 	blne	1542c8c <__bss_end__+0x15389dc>
    2888:	0000015f 	andeq	r0, r0, pc, asr r1
    288c:	561c5401 	ldrpl	r5, [ip], -r1, lsl #8
    2890:	01000001 	tsteq	r0, r1
    2894:	00014b1b 	andeq	r4, r1, fp, lsl fp
    2898:	19560100 	ldmdbne	r6, {r8}^
    289c:	00000111 	andeq	r0, r0, r1, lsl r1
    28a0:	000093f8 	strdeq	r9, [r0], -r8
    28a4:	00000010 	andeq	r0, r0, r0, lsl r0
    28a8:	070b1a02 	streq	r1, [fp, -r2, lsl #20]
    28ac:	281b0000 	ldmdacs	fp, {}	; <UNPREDICTABLE>
    28b0:	01000001 	tsteq	r0, r1
    28b4:	011d1b55 	tsteq	sp, r5, asr fp
    28b8:	54010000 	strpl	r0, [r1], #-0
    28bc:	0093f81d 	addseq	pc, r3, sp, lsl r8	; <UNPREDICTABLE>
    28c0:	00000400 	andeq	r0, r0, r0, lsl #8
    28c4:	01321e00 	teqeq	r2, r0, lsl #28
    28c8:	1e9c0000 	cdpne	0, 9, cr0, cr12, cr0, {0}
    28cc:	00000000 	andeq	r0, r0, r0
    28d0:	0093f81f 	addseq	pc, r3, pc, lsl r8	; <UNPREDICTABLE>
    28d4:	00115900 	andseq	r5, r1, r0, lsl #18
    28d8:	51012000 	mrspl	r2, (UNDEF: 1)
    28dc:	01203101 	teqeq	r0, r1, lsl #2
    28e0:	00760250 	rsbseq	r0, r6, r0, asr r2
    28e4:	06000000 	streq	r0, [r0], -r0
    28e8:	0000d904 	andeq	sp, r0, r4, lsl #18
    28ec:	09242200 	stmdbeq	r4!, {r9, sp}
    28f0:	27010000 	strcs	r0, [r1, -r0]
    28f4:	00000025 	andeq	r0, r0, r5, lsr #32
    28f8:	00076203 	andeq	r6, r7, r3, lsl #4
    28fc:	78720f00 	ldmdavc	r2!, {r8, r9, sl, fp}^
    2900:	25270100 	strcs	r0, [r7, #-256]!	; 0x100
    2904:	0f000000 	svceq	0x00000000
    2908:	27010076 	smlsdxcs	r1, r6, r0, r0
    290c:	00000025 	andeq	r0, r0, r5, lsr #32
    2910:	0008b10e 	andeq	fp, r8, lr, lsl #2
    2914:	2c270100 	stfcss	f0, [r7], #-0
    2918:	11000000 	mrsne	r0, (UNDEF: 0)
    291c:	000004fe 	strdeq	r0, [r0], -lr
    2920:	002c2801 	eoreq	r2, ip, r1, lsl #16
    2924:	23000000 	movwcs	r0, #0
    2928:	00000852 	andeq	r0, r0, r2, asr r8
    292c:	00253401 	eoreq	r3, r5, r1, lsl #8
    2930:	940c0000 	strls	r0, [ip], #-0
    2934:	01c80000 	biceq	r0, r8, r0
    2938:	9c010000 	stcls	0, cr0, [r1], {-0}
    293c:	00000b1e 	andeq	r0, r0, lr, lsl fp
    2940:	0004b113 	andeq	fp, r4, r3, lsl r1
    2944:	22340100 	eorscs	r0, r4, #0, 2
    2948:	af000007 	svcge	0x00000007
    294c:	1300001e 	movwne	r0, #30
    2950:	000008b1 			; <UNDEFINED> instruction: 0x000008b1
    2954:	00253401 	eoreq	r3, r5, r1, lsl #8
    2958:	1ef40000 	cdpne	0, 15, cr0, cr4, cr0, {0}
    295c:	72150000 	andsvc	r0, r5, #0
    2960:	35010078 	strcc	r0, [r1, #-120]	; 0x78
    2964:	00000025 	andeq	r0, r0, r5, lsr #32
    2968:	73165501 	tstvc	r6, #4194304	; 0x400000
    296c:	2c3c0100 	ldfcss	f0, [ip], #-0
    2970:	12000000 	andne	r0, r0, #0
    2974:	1600001f 			; <UNDEFINED> instruction: 0x1600001f
    2978:	3f010075 	svccc	0x00010075
    297c:	00000068 	andeq	r0, r0, r8, rrx
    2980:	00001f25 	andeq	r1, r0, r5, lsr #30
    2984:	01006e16 	tsteq	r0, r6, lsl lr
    2988:	00002c40 	andeq	r2, r0, r0, asr #24
    298c:	001f3800 	andseq	r3, pc, r0, lsl #16
    2990:	00631600 	rsbeq	r1, r3, r0, lsl #12
    2994:	002c4101 	eoreq	r4, ip, r1, lsl #2
    2998:	1f4f0000 	svcne	0x004f0000
    299c:	28190000 	ldmdacs	r9, {}	; <UNPREDICTABLE>
    29a0:	20000007 	andcs	r0, r0, r7
    29a4:	34000094 	strcc	r0, [r0], #-148	; 0x94
    29a8:	01000000 	mrseq	r0, (UNDEF: 0)
    29ac:	00083c38 	andeq	r3, r8, r8, lsr ip
    29b0:	074b1a00 	strbeq	r1, [fp, -r0, lsl #20]
    29b4:	1f790000 	svcne	0x00790000
    29b8:	421c0000 	andsmi	r0, ip, #0
    29bc:	00000007 	andeq	r0, r0, r7
    29c0:	0007381b 	andeq	r3, r7, fp, lsl r8
    29c4:	1d550100 	ldfnee	f0, [r5, #-0]
    29c8:	00009420 	andeq	r9, r0, r0, lsr #8
    29cc:	00000034 	andeq	r0, r0, r4, lsr r0
    29d0:	0007561e 	andeq	r5, r7, lr, lsl r6
    29d4:	001f9700 	andseq	r9, pc, r0, lsl #14
    29d8:	94242400 	strtls	r2, [r4], #-1024	; 0x400
    29dc:	116f0000 	cmnne	pc, r0
    29e0:	30250000 	eorcc	r0, r5, r0
    29e4:	7a000094 	bvc	2c3c <_start-0x53c4>
    29e8:	31000011 	tstcc	r0, r1, lsl r0
    29ec:	20000008 	andcs	r0, r0, r8
    29f0:	75025001 	strvc	r5, [r2, #-1]
    29f4:	3c240000 	stccc	0, cr0, [r4], #-0
    29f8:	6f000094 	svcvs	0x00000094
    29fc:	00000011 	andeq	r0, r0, r1, lsl r0
    2a00:	945c1700 	ldrbls	r1, [ip], #-1792	; 0x700
    2a04:	00040000 	andeq	r0, r4, r0
    2a08:	08590000 	ldmdaeq	r9, {}^	; <UNPREDICTABLE>
    2a0c:	89260000 	stmdbhi	r6!, {}	; <UNPREDICTABLE>
    2a10:	01000001 	tsteq	r0, r1
    2a14:	00002c3c 	andeq	r2, r0, ip, lsr ip
    2a18:	001fb500 	andseq	fp, pc, r0, lsl #10
    2a1c:	11190000 	tstne	r9, r0
    2a20:	68000001 	stmdavs	r0, {r0}
    2a24:	10000094 	mulne	r0, r4, r0
    2a28:	01000000 	mrseq	r0, (UNDEF: 0)
    2a2c:	00089244 	andeq	r9, r8, r4, asr #4
    2a30:	01281a00 	teqeq	r8, r0, lsl #20
    2a34:	1fc80000 	svcne	0x00c80000
    2a38:	1d1a0000 	ldcne	0, cr0, [sl, #-0]
    2a3c:	ed000001 	stc	0, cr0, [r0, #-4]
    2a40:	1d00001f 	stcne	0, cr0, [r0, #-124]	; 0xffffff84
    2a44:	00009468 	andeq	r9, r0, r8, ror #8
    2a48:	00000004 	andeq	r0, r0, r4
    2a4c:	0001321e 	andeq	r3, r1, lr, lsl r2
    2a50:	00200000 	eoreq	r0, r0, r0
    2a54:	19000000 	stmdbne	r0, {}	; <UNPREDICTABLE>
    2a58:	00000111 	andeq	r0, r0, r1, lsl r1
    2a5c:	00009488 	andeq	r9, r0, r8, lsl #9
    2a60:	00000010 	andeq	r0, r0, r0, lsl r0
    2a64:	08cb4801 	stmiaeq	fp, {r0, fp, lr}^
    2a68:	281a0000 	ldmdacs	sl, {}	; <UNPREDICTABLE>
    2a6c:	13000001 	movwne	r0, #1
    2a70:	1a000020 	bne	2af8 <_start-0x5508>
    2a74:	0000011d 	andeq	r0, r0, sp, lsl r1
    2a78:	00002026 	andeq	r2, r0, r6, lsr #32
    2a7c:	0094881d 	addseq	r8, r4, sp, lsl r8
    2a80:	00000400 	andeq	r0, r0, r0, lsl #8
    2a84:	01321e00 	teqeq	r2, r0, lsl #28
    2a88:	20390000 	eorscs	r0, r9, r0
    2a8c:	00000000 	andeq	r0, r0, r0
    2a90:	00011119 	andeq	r1, r1, r9, lsl r1
    2a94:	0094ac00 	addseq	sl, r4, r0, lsl #24
    2a98:	00001000 	andeq	r1, r0, r0
    2a9c:	044b0100 	strbeq	r0, [fp], #-256	; 0x100
    2aa0:	1a000009 	bne	2acc <_start-0x5534>
    2aa4:	00000128 	andeq	r0, r0, r8, lsr #2
    2aa8:	0000204c 	andeq	r2, r0, ip, asr #32
    2aac:	00011d1a 	andeq	r1, r1, sl, lsl sp
    2ab0:	00205f00 	eoreq	r5, r0, r0, lsl #30
    2ab4:	94ac1d00 	strtls	r1, [ip], #3328	; 0xd00
    2ab8:	00040000 	andeq	r0, r4, r0
    2abc:	321e0000 	andscc	r0, lr, #0
    2ac0:	72000001 	andvc	r0, r0, #1
    2ac4:	00000020 	andeq	r0, r0, r0, lsr #32
    2ac8:	01111900 	tsteq	r1, r0, lsl #18
    2acc:	94d00000 	ldrbls	r0, [r0], #0
    2ad0:	00100000 	andseq	r0, r0, r0
    2ad4:	4e010000 	cdpmi	0, 0, cr0, cr1, cr0, {0}
    2ad8:	0000093d 	andeq	r0, r0, sp, lsr r9
    2adc:	0001281a 	andeq	r2, r1, sl, lsl r8
    2ae0:	00208500 	eoreq	r8, r0, r0, lsl #10
    2ae4:	011d1a00 	tsteq	sp, r0, lsl #20
    2ae8:	20980000 	addscs	r0, r8, r0
    2aec:	d01d0000 	andsle	r0, sp, r0
    2af0:	04000094 	streq	r0, [r0], #-148	; 0x94
    2af4:	1e000000 	cdpne	0, 0, cr0, cr0, cr0, {0}
    2af8:	00000132 	andeq	r0, r0, r2, lsr r1
    2afc:	000020ab 	andeq	r2, r0, fp, lsr #1
    2b00:	11190000 	tstne	r9, r0
    2b04:	f4000001 	vst4.8	{d0-d3}, [r0], r1
    2b08:	10000094 	mulne	r0, r4, r0
    2b0c:	01000000 	mrseq	r0, (UNDEF: 0)
    2b10:	00097651 	andeq	r7, r9, r1, asr r6
    2b14:	01281a00 	teqeq	r8, r0, lsl #20
    2b18:	20be0000 	adcscs	r0, lr, r0
    2b1c:	1d1a0000 	ldcne	0, cr0, [sl, #-0]
    2b20:	d1000001 	tstle	r0, r1
    2b24:	1d000020 	stcne	0, cr0, [r0, #-128]	; 0xffffff80
    2b28:	000094f4 	strdeq	r9, [r0], -r4
    2b2c:	00000004 	andeq	r0, r0, r4
    2b30:	0001321e 	andeq	r3, r1, lr, lsl r2
    2b34:	0020e400 	eoreq	lr, r0, r0, lsl #8
    2b38:	19000000 	stmdbne	r0, {}	; <UNPREDICTABLE>
    2b3c:	00000111 	andeq	r0, r0, r1, lsl r1
    2b40:	00009518 	andeq	r9, r0, r8, lsl r5
    2b44:	00000010 	andeq	r0, r0, r0, lsl r0
    2b48:	09af5401 	stmibeq	pc!, {r0, sl, ip, lr}	; <UNPREDICTABLE>
    2b4c:	281a0000 	ldmdacs	sl, {}	; <UNPREDICTABLE>
    2b50:	f7000001 			; <UNDEFINED> instruction: 0xf7000001
    2b54:	1a000020 	bne	2bdc <_start-0x5424>
    2b58:	0000011d 	andeq	r0, r0, sp, lsl r1
    2b5c:	0000210a 	andeq	r2, r0, sl, lsl #2
    2b60:	0095181d 	addseq	r1, r5, sp, lsl r8
    2b64:	00000400 	andeq	r0, r0, r0, lsl #8
    2b68:	01321e00 	teqeq	r2, r0, lsl #28
    2b6c:	211d0000 	tstcs	sp, r0
    2b70:	00000000 	andeq	r0, r0, r0
    2b74:	00011119 	andeq	r1, r1, r9, lsl r1
    2b78:	00953c00 	addseq	r3, r5, r0, lsl #24
    2b7c:	00001000 	andeq	r1, r0, r0
    2b80:	e8570100 	ldmda	r7, {r8}^
    2b84:	1a000009 	bne	2bb0 <_start-0x5450>
    2b88:	00000128 	andeq	r0, r0, r8, lsr #2
    2b8c:	00002130 	andeq	r2, r0, r0, lsr r1
    2b90:	00011d1a 	andeq	r1, r1, sl, lsl sp
    2b94:	00214300 	eoreq	r4, r1, r0, lsl #6
    2b98:	953c1d00 	ldrls	r1, [ip, #-3328]!	; 0xd00
    2b9c:	00040000 	andeq	r0, r4, r0
    2ba0:	321e0000 	andscc	r0, lr, #0
    2ba4:	56000001 	strpl	r0, [r0], -r1
    2ba8:	00000021 	andeq	r0, r0, r1, lsr #32
    2bac:	01111900 	tsteq	r1, r0, lsl #18
    2bb0:	95600000 	strbls	r0, [r0, #-0]!
    2bb4:	00100000 	andseq	r0, r0, r0
    2bb8:	5a010000 	bpl	42bc0 <__bss_end__+0x38910>
    2bbc:	00000a1d 	andeq	r0, r0, sp, lsl sl
    2bc0:	0001281a 	andeq	r2, r1, sl, lsl r8
    2bc4:	00216900 	eoreq	r6, r1, r0, lsl #18
    2bc8:	011d2700 	tsteq	sp, r0, lsl #14
    2bcc:	601d0000 	andsvs	r0, sp, r0
    2bd0:	04000095 	streq	r0, [r0], #-149	; 0x95
    2bd4:	1e000000 	cdpne	0, 0, cr0, cr0, cr0, {0}
    2bd8:	00000132 	andeq	r0, r0, r2, lsr r1
    2bdc:	0000217c 	andeq	r2, r0, ip, ror r1
    2be0:	28190000 	ldmdacs	r9, {}	; <UNPREDICTABLE>
    2be4:	80000007 	andhi	r0, r0, r7
    2be8:	34000095 	strcc	r0, [r0], #-149	; 0x95
    2bec:	01000000 	mrseq	r0, (UNDEF: 0)
    2bf0:	000a8161 	andeq	r8, sl, r1, ror #2
    2bf4:	074b2700 	strbeq	r2, [fp, -r0, lsl #14]
    2bf8:	421a0000 	andsmi	r0, sl, #0
    2bfc:	8f000007 	svchi	0x00000007
    2c00:	1a000021 	bne	2c8c <_start-0x5374>
    2c04:	00000738 	andeq	r0, r0, r8, lsr r7
    2c08:	000021af 	andeq	r2, r0, pc, lsr #3
    2c0c:	0095801d 	addseq	r8, r5, sp, lsl r0
    2c10:	00003400 	andeq	r3, r0, r0, lsl #8
    2c14:	07561e00 	ldrbeq	r1, [r6, -r0, lsl #28]
    2c18:	21cd0000 	biccs	r0, sp, r0
    2c1c:	84240000 	strthi	r0, [r4], #-0
    2c20:	6f000095 	svcvs	0x00000095
    2c24:	25000011 	strcs	r0, [r0, #-17]
    2c28:	00009590 	muleq	r0, r0, r5
    2c2c:	0000117a 	andeq	r1, r0, sl, ror r1
    2c30:	00000a76 	andeq	r0, r0, r6, ror sl
    2c34:	02500120 	subseq	r0, r0, #32, 2
    2c38:	24000075 	strcs	r0, [r0], #-117	; 0x75
    2c3c:	0000959c 	muleq	r0, ip, r5
    2c40:	0000116f 	andeq	r1, r0, pc, ror #2
    2c44:	84250000 	strthi	r0, [r5], #-0
    2c48:	7a000094 	bvc	2ea0 <_start-0x5160>
    2c4c:	95000011 	strls	r0, [r0, #-17]
    2c50:	2000000a 	andcs	r0, r0, sl
    2c54:	75025001 	strvc	r5, [r2, #-1]
    2c58:	a4250000 	strtge	r0, [r5], #-0
    2c5c:	7a000094 	bvc	2eb4 <_start-0x514c>
    2c60:	a9000011 	stmdbge	r0, {r0, r4}
    2c64:	2000000a 	andcs	r0, r0, sl
    2c68:	75025001 	strvc	r5, [r2, #-1]
    2c6c:	c8250000 	stmdagt	r5!, {}	; <UNPREDICTABLE>
    2c70:	7a000094 	bvc	2ec8 <_start-0x5138>
    2c74:	bd000011 	stclt	0, cr0, [r0, #-68]	; 0xffffffbc
    2c78:	2000000a 	andcs	r0, r0, sl
    2c7c:	75025001 	strvc	r5, [r2, #-1]
    2c80:	ec250000 	stc	0, cr0, [r5], #-0
    2c84:	7a000094 	bvc	2edc <_start-0x5124>
    2c88:	d1000011 	tstle	r0, r1, lsl r0
    2c8c:	2000000a 	andcs	r0, r0, sl
    2c90:	75025001 	strvc	r5, [r2, #-1]
    2c94:	10250000 	eorne	r0, r5, r0
    2c98:	7a000095 	bvc	2ef4 <_start-0x510c>
    2c9c:	e5000011 	str	r0, [r0, #-17]
    2ca0:	2000000a 	andcs	r0, r0, sl
    2ca4:	75025001 	strvc	r5, [r2, #-1]
    2ca8:	34250000 	strtcc	r0, [r5], #-0
    2cac:	7a000095 	bvc	2f08 <_start-0x50f8>
    2cb0:	f9000011 			; <UNDEFINED> instruction: 0xf9000011
    2cb4:	2000000a 	andcs	r0, r0, sl
    2cb8:	75025001 	strvc	r5, [r2, #-1]
    2cbc:	58250000 	stmdapl	r5!, {}	; <UNPREDICTABLE>
    2cc0:	7a000095 	bvc	2f1c <_start-0x50e4>
    2cc4:	0d000011 	stceq	0, cr0, [r0, #-68]	; 0xffffffbc
    2cc8:	2000000b 	andcs	r0, r0, fp
    2ccc:	75025001 	strvc	r5, [r2, #-1]
    2cd0:	781f0000 	ldmdavc	pc, {}	; <UNPREDICTABLE>
    2cd4:	7a000095 	bvc	2f30 <_start-0x50d0>
    2cd8:	20000011 	andcs	r0, r0, r1, lsl r0
    2cdc:	75025001 	strvc	r5, [r2, #-1]
    2ce0:	23000000 	movwcs	r0, #0
    2ce4:	00000867 	andeq	r0, r0, r7, ror #16
    2ce8:	00256c01 	eoreq	r6, r5, r1, lsl #24
    2cec:	95d40000 	ldrbls	r0, [r4]
    2cf0:	00a40000 	adceq	r0, r4, r0
    2cf4:	9c010000 	stcls	0, cr0, [r1], {-0}
    2cf8:	00000c0c 	andeq	r0, r0, ip, lsl #24
    2cfc:	01007514 	tsteq	r0, r4, lsl r5
    2d00:	0007226c 	andeq	r2, r7, ip, ror #4
    2d04:	0021eb00 	eoreq	lr, r1, r0, lsl #22
    2d08:	75621400 	strbvc	r1, [r2, #-1024]!	; 0x400
    2d0c:	6c010066 	stcvs	0, cr0, [r1], {102}	; 0x66
    2d10:	00000c0c 	andeq	r0, r0, ip, lsl #24
    2d14:	0000222d 	andeq	r2, r0, sp, lsr #4
    2d18:	0008f913 	andeq	pc, r8, r3, lsl r9	; <UNPREDICTABLE>
    2d1c:	686c0100 	stmdavs	ip!, {r8}^
    2d20:	6f000000 	svcvs	0x00000000
    2d24:	14000022 	strne	r0, [r0], #-34	; 0x22
    2d28:	00646e65 	rsbeq	r6, r4, r5, ror #28
    2d2c:	004f6c01 	subeq	r6, pc, r1, lsl #24
    2d30:	22b60000 	adcscs	r0, r6, #0
    2d34:	00280000 	eoreq	r0, r8, r0
    2d38:	01000009 	tsteq	r0, r9
    2d3c:	0000686c 	andeq	r6, r0, ip, ror #16
    2d40:	00910200 	addseq	r0, r1, r0, lsl #4
    2d44:	00010a29 	andeq	r0, r1, r9, lsr #20
    2d48:	000c2200 	andeq	r2, ip, r0, lsl #4
    2d4c:	8c030500 	cfstr32hi	mvfx0, [r3], {-0}
    2d50:	1600009d 			; <UNDEFINED> instruction: 0x1600009d
    2d54:	70010069 	andvc	r0, r1, r9, rrx
    2d58:	00000025 	andeq	r0, r0, r5, lsr #32
    2d5c:	000022f0 	strdeq	r2, [r0], -r0
    2d60:	0008dc26 	andeq	sp, r8, r6, lsr #24
    2d64:	4f710100 	svcmi	0x00710100
    2d68:	1a000000 	bne	2d70 <_start-0x5290>
    2d6c:	24000023 	strcs	r0, [r0], #-35	; 0x23
    2d70:	000095f8 	strdeq	r9, [r0], -r8
    2d74:	0000118f 	andeq	r1, r0, pc, lsl #3
    2d78:	00961425 	addseq	r1, r6, r5, lsr #8
    2d7c:	00119600 	andseq	r9, r1, r0, lsl #12
    2d80:	000bec00 	andeq	lr, fp, r0, lsl #24
    2d84:	53012000 	movwpl	r2, #4096	; 0x1000
    2d88:	206d0802 	rsbcs	r0, sp, r2, lsl #16
    2d8c:	03055201 	movweq	r5, #20993	; 0x5201
    2d90:	00009d8c 	andeq	r9, r0, ip, lsl #27
    2d94:	05510120 	ldrbeq	r0, [r1, #-288]	; 0x120
    2d98:	009e0403 	addseq	r0, lr, r3, lsl #8
    2d9c:	50012000 	andpl	r2, r1, r0
    2da0:	9c8c0305 	stcls	3, cr0, [ip], {5}
    2da4:	02200000 	eoreq	r0, r0, #0
    2da8:	0305007d 	movweq	r0, #20605	; 0x507d
    2dac:	00009e18 	andeq	r9, r0, r8, lsl lr
    2db0:	96182400 	ldrls	r2, [r8], -r0, lsl #8
    2db4:	11ac0000 			; <UNDEFINED> instruction: 0x11ac0000
    2db8:	341f0000 	ldrcc	r0, [pc], #-0	; 2dc0 <_start-0x5240>
    2dbc:	62000096 	andvs	r0, r0, #150	; 0x96
    2dc0:	20000007 	andcs	r0, r0, r7
    2dc4:	7a025101 	bvc	971d0 <__bss_end__+0x8cf20>
    2dc8:	50012000 	andpl	r2, r1, r0
    2dcc:	00007802 	andeq	r7, r0, r2, lsl #16
    2dd0:	4f040600 	svcmi	0x00040600
    2dd4:	2a000000 	bcs	2ddc <_start-0x5224>
    2dd8:	00000090 	muleq	r0, r0, r0
    2ddc:	00000c22 	andeq	r0, r0, r2, lsr #24
    2de0:	0000812b 	andeq	r8, r0, fp, lsr #2
    2de4:	07001200 	streq	r1, [r0, -r0, lsl #4]
    2de8:	00000c12 	andeq	r0, r0, r2, lsl ip
    2dec:	0008e423 	andeq	lr, r8, r3, lsr #8
    2df0:	25800100 	strcs	r0, [r0, #256]	; 0x100
    2df4:	78000000 	stmdavc	r0, {}	; <UNPREDICTABLE>
    2df8:	90000096 	mulls	r0, r6, r0
    2dfc:	01000000 	mrseq	r0, (UNDEF: 0)
    2e00:	000cf89c 	muleq	ip, ip, r8
    2e04:	00751400 	rsbseq	r1, r5, r0, lsl #8
    2e08:	07228001 	streq	r8, [r2, -r1]!
    2e0c:	232d0000 	teqcs	sp, #0
    2e10:	62140000 	andsvs	r0, r4, #0
    2e14:	01006675 	tsteq	r0, r5, ror r6
    2e18:	000c0c80 	andeq	r0, ip, r0, lsl #25
    2e1c:	00236f00 	eoreq	r6, r3, r0, lsl #30
    2e20:	08f91300 	ldmeq	r9!, {r8, r9, ip}^
    2e24:	81010000 	mrshi	r0, (UNDEF: 1)
    2e28:	00000068 	andeq	r0, r0, r8, rrx
    2e2c:	000023b1 			; <UNDEFINED> instruction: 0x000023b1
    2e30:	00090013 	andeq	r0, r9, r3, lsl r0
    2e34:	68810100 	stmvs	r1, {r8}
    2e38:	f8000000 			; <UNDEFINED> instruction: 0xf8000000
    2e3c:	29000023 	stmdbcs	r0, {r0, r1, r5}
    2e40:	0000010a 	andeq	r0, r0, sl, lsl #2
    2e44:	00000d08 	andeq	r0, r0, r8, lsl #26
    2e48:	9da00305 	stcls	3, cr0, [r0, #20]!
    2e4c:	69160000 	ldmdbvs	r6, {}	; <UNPREDICTABLE>
    2e50:	25860100 	strcs	r0, [r6, #256]	; 0x100
    2e54:	3a000000 	bcc	2e5c <_start-0x51a4>
    2e58:	24000024 	strcs	r0, [r0], #-36	; 0x24
    2e5c:	00009698 	muleq	r0, r8, r6
    2e60:	0000118f 	andeq	r1, r0, pc, lsl #3
    2e64:	0096b425 	addseq	fp, r6, r5, lsr #8
    2e68:	00119600 	andseq	r9, r1, r0, lsl #12
    2e6c:	000cd800 	andeq	sp, ip, r0, lsl #16
    2e70:	53012000 	movwpl	r2, #4096	; 0x1000
    2e74:	20830802 	addcs	r0, r3, r2, lsl #16
    2e78:	03055201 	movweq	r5, #20993	; 0x5201
    2e7c:	00009da0 	andeq	r9, r0, r0, lsr #27
    2e80:	05510120 	ldrbeq	r0, [r1, #-288]	; 0x120
    2e84:	009e0403 	addseq	r0, lr, r3, lsl #8
    2e88:	50012000 	andpl	r2, r1, r0
    2e8c:	9c8c0305 	stcls	3, cr0, [ip], {5}
    2e90:	02200000 	eoreq	r0, r0, #0
    2e94:	0305007d 	movweq	r0, #20605	; 0x507d
    2e98:	00009e18 	andeq	r9, r0, r8, lsl lr
    2e9c:	96b82400 	ldrtls	r2, [r8], r0, lsl #8
    2ea0:	11ac0000 			; <UNDEFINED> instruction: 0x11ac0000
    2ea4:	d41f0000 	ldrle	r0, [pc], #-0	; 2eac <_start-0x5154>
    2ea8:	62000096 	andvs	r0, r0, #150	; 0x96
    2eac:	20000007 	andcs	r0, r0, r7
    2eb0:	78025101 	stmdavc	r2, {r0, r8, ip, lr}
    2eb4:	50012000 	andpl	r2, r1, r0
    2eb8:	00007702 	andeq	r7, r0, r2, lsl #14
    2ebc:	00902a00 	addseq	r2, r0, r0, lsl #20
    2ec0:	0d080000 	stceq	0, cr0, [r8, #-0]
    2ec4:	812b0000 	teqhi	fp, r0
    2ec8:	14000000 	strne	r0, [r0], #-0
    2ecc:	0cf80700 	ldcleq	7, cr0, [r8]
    2ed0:	9d230000 	stcls	0, cr0, [r3, #-0]
    2ed4:	01000008 	tsteq	r0, r8
    2ed8:	0000d993 	muleq	r0, r3, r9
    2edc:	00970800 	addseq	r0, r7, r0, lsl #16
    2ee0:	0000d400 	andeq	sp, r0, r0, lsl #8
    2ee4:	329c0100 	addscc	r0, ip, #0, 2
    2ee8:	1400000e 	strne	r0, [r0], #-14
    2eec:	01007874 	tsteq	r0, r4, ror r8
    2ef0:	00004f93 	muleq	r0, r3, pc	; <UNPREDICTABLE>
    2ef4:	00246400 	eoreq	r6, r4, r0, lsl #8
    2ef8:	78721400 	ldmdavc	r2!, {sl, ip}^
    2efc:	4f930100 	svcmi	0x00930100
    2f00:	85000000 	strhi	r0, [r0, #-0]
    2f04:	13000024 	movwne	r0, #36	; 0x24
    2f08:	000004ea 	andeq	r0, r0, sl, ror #9
    2f0c:	00689301 	rsbeq	r9, r8, r1, lsl #6
    2f10:	24a60000 	strtcs	r0, [r6], #0
    2f14:	36280000 	strtcc	r0, [r8], -r0
    2f18:	01000008 	tsteq	r0, r8
    2f1c:	00006893 	muleq	r0, r3, r8
    2f20:	00910200 	addseq	r0, r1, r0, lsl #4
    2f24:	7a686d2c 	bvc	1a1e3dc <__bss_end__+0x1a1412c>
    2f28:	2c9b0100 	ldfcss	f0, [fp], {0}
    2f2c:	00000000 	andeq	r0, r0, r0
    2f30:	2629b927 	strtcs	fp, [r9], -r7, lsr #18
    2f34:	00000887 	andeq	r0, r0, r7, lsl #17
    2f38:	002c9c01 	eoreq	r9, ip, r1, lsl #24
    2f3c:	24d00000 	ldrbcs	r0, [r0], #0
    2f40:	0a290000 	beq	a42f48 <__bss_end__+0xa38c98>
    2f44:	42000001 	andmi	r0, r0, #1
    2f48:	0500000e 	streq	r0, [r0, #-14]
    2f4c:	009db803 	addseq	fp, sp, r3, lsl #16
    2f50:	97341700 	ldrls	r1, [r4, -r0, lsl #14]!
    2f54:	00080000 	andeq	r0, r8, r0
    2f58:	0da50000 	stceq	0, cr0, [r5]
    2f5c:	692d0000 	pushvs	{}	; <UNPREDICTABLE>
    2f60:	9701006e 	strls	r0, [r1, -lr, rrx]
    2f64:	0000002c 	andeq	r0, r0, ip, lsr #32
    2f68:	2c250001 	stccs	0, cr0, [r5], #-4
    2f6c:	b3000097 	movwlt	r0, #151	; 0x97
    2f70:	b9000011 	stmdblt	r0, {r0, r4}
    2f74:	2000000d 	andcs	r0, r0, sp
    2f78:	76025001 	strvc	r5, [r2], -r1
    2f7c:	34250000 	strtcc	r0, [r5], #-0
    2f80:	c4000097 	strgt	r0, [r0], #-151	; 0x97
    2f84:	cd000011 	stcgt	0, cr0, [r0, #-68]	; 0xffffffbc
    2f88:	2000000d 	andcs	r0, r0, sp
    2f8c:	78025001 	stmdavc	r2, {r0, ip, lr}
    2f90:	48250000 	stmdami	r5!, {}	; <UNPREDICTABLE>
    2f94:	59000097 	stmdbpl	r0, {r0, r1, r2, r4, r7}
    2f98:	e6000011 			; <UNDEFINED> instruction: 0xe6000011
    2f9c:	2000000d 	andcs	r0, r0, sp
    2fa0:	31015101 	tstcc	r1, r1, lsl #2
    2fa4:	02500120 	subseq	r0, r0, #32, 2
    2fa8:	24000076 	strcs	r0, [r0], #-118	; 0x76
    2fac:	0000978c 	andeq	r9, r0, ip, lsl #15
    2fb0:	0000118f 	andeq	r1, r0, pc, lsl #3
    2fb4:	0097a825 	addseq	sl, r7, r5, lsr #16
    2fb8:	00119600 	andseq	r9, r1, r0, lsl #12
    2fbc:	000e2800 	andeq	r2, lr, r0, lsl #16
    2fc0:	53012000 	movwpl	r2, #4096	; 0x1000
    2fc4:	209d0802 	addscs	r0, sp, r2, lsl #16
    2fc8:	03055201 	movweq	r5, #20993	; 0x5201
    2fcc:	00009db8 			; <UNDEFINED> instruction: 0x00009db8
    2fd0:	05510120 	ldrbeq	r0, [r1, #-288]	; 0x120
    2fd4:	009e0403 	addseq	r0, lr, r3, lsl #8
    2fd8:	50012000 	andpl	r2, r1, r0
    2fdc:	9c8c0305 	stcls	3, cr0, [ip], {5}
    2fe0:	02200000 	eoreq	r0, r0, #0
    2fe4:	0305007d 	movweq	r0, #20605	; 0x507d
    2fe8:	00009e24 	andeq	r9, r0, r4, lsr #28
    2fec:	97ac2400 	strls	r2, [ip, r0, lsl #8]!
    2ff0:	11ac0000 			; <UNDEFINED> instruction: 0x11ac0000
    2ff4:	2a000000 	bcs	2ffc <_start-0x5004>
    2ff8:	00000090 	muleq	r0, r0, r0
    2ffc:	00000e42 	andeq	r0, r0, r2, asr #28
    3000:	0000812b 	andeq	r8, r0, fp, lsr #2
    3004:	07001300 	streq	r1, [r0, -r0, lsl #6]
    3008:	00000e32 	andeq	r0, r0, r2, lsr lr
    300c:	00087a23 	andeq	r7, r8, r3, lsr #20
    3010:	25a90100 	strcs	r0, [r9, #256]!	; 0x100
    3014:	dc000000 	stcle	0, cr0, [r0], {-0}
    3018:	3c000097 	stccc	0, cr0, [r0], {151}	; 0x97
    301c:	01000000 	mrseq	r0, (UNDEF: 0)
    3020:	000eea9c 	muleq	lr, ip, sl
    3024:	04b11300 	ldrteq	r1, [r1], #768	; 0x300
    3028:	a9010000 	stmdbge	r1, {}	; <UNPREDICTABLE>
    302c:	00000722 	andeq	r0, r0, r2, lsr #14
    3030:	000024fe 	strdeq	r2, [r0], -lr
    3034:	73657216 	cmnvc	r5, #1610612737	; 0x60000001
    3038:	25aa0100 	strcs	r0, [sl, #256]!	; 0x100
    303c:	1f000000 	svcne	0x00000000
    3040:	29000025 	stmdbcs	r0, {r0, r2, r5}
    3044:	0000010a 	andeq	r0, r0, sl, lsl #2
    3048:	00000efa 	strdeq	r0, [r0], -sl
    304c:	9dcc0305 	stclls	3, cr0, [ip, #20]
    3050:	e8250000 	stmda	r5!, {}	; <UNPREDICTABLE>
    3054:	62000097 	andvs	r0, r0, #151	; 0x97
    3058:	a8000007 	stmdage	r0, {r0, r1, r2}
    305c:	2000000e 	andcs	r0, r0, lr
    3060:	09025101 	stmdbeq	r2, {r0, r8, ip, lr}
    3064:	500120ff 	strdpl	r2, [r1], -pc	; <UNPREDICTABLE>
    3068:	5001f303 	andpl	pc, r1, r3, lsl #6
    306c:	97f42400 	ldrbls	r2, [r4, r0, lsl #8]!
    3070:	118f0000 	orrne	r0, pc, r0
    3074:	08250000 	stmdaeq	r5!, {}	; <UNPREDICTABLE>
    3078:	96000098 			; <UNDEFINED> instruction: 0x96000098
    307c:	e0000011 	and	r0, r0, r1, lsl r0
    3080:	2000000e 	andcs	r0, r0, lr
    3084:	08025301 	stmdaeq	r2, {r0, r8, r9, ip, lr}
    3088:	520120ac 	andpl	r2, r1, #172	; 0xac
    308c:	9dcc0305 	stclls	3, cr0, [ip, #20]
    3090:	01200000 	teqeq	r0, r0
    3094:	04030551 	streq	r0, [r3], #-1361	; 0x551
    3098:	2000009e 	mulcs	r0, lr, r0
    309c:	03055001 	movweq	r5, #20481	; 0x5001
    30a0:	00009e58 	andeq	r9, r0, r8, asr lr
    30a4:	980c2400 	stmdals	ip, {sl, sp}
    30a8:	11ac0000 			; <UNDEFINED> instruction: 0x11ac0000
    30ac:	2a000000 	bcs	30b4 <_start-0x4f4c>
    30b0:	00000090 	muleq	r0, r0, r0
    30b4:	00000efa 	strdeq	r0, [r0], -sl
    30b8:	0000812b 	andeq	r8, r0, fp, lsr #2
    30bc:	07000c00 	streq	r0, [r0, -r0, lsl #24]
    30c0:	00000eea 	andeq	r0, r0, sl, ror #29
    30c4:	0008be12 	andeq	fp, r8, r2, lsl lr
    30c8:	18b00100 	ldmne	r0!, {r8}
    30cc:	2c000098 	stccs	0, cr0, [r0], {152}	; 0x98
    30d0:	01000000 	mrseq	r0, (UNDEF: 0)
    30d4:	000f439c 	muleq	pc, ip, r3	; <UNPREDICTABLE>
    30d8:	04b11300 	ldrteq	r1, [r1], #768	; 0x300
    30dc:	b0010000 	andlt	r0, r1, r0
    30e0:	00000722 	andeq	r0, r0, r2, lsr #14
    30e4:	00002532 	andeq	r2, r0, r2, lsr r5
    30e8:	67736d14 			; <UNDEFINED> instruction: 0x67736d14
    30ec:	97b00100 	ldrls	r0, [r0, r0, lsl #2]!
    30f0:	50000000 	andpl	r0, r0, r0
    30f4:	1f000025 	svcne	0x00000025
    30f8:	00009830 	andeq	r9, r0, r0, lsr r8
    30fc:	00000176 	andeq	r0, r0, r6, ror r1
    3100:	02500120 	subseq	r0, r0, #32, 2
    3104:	00000075 	andeq	r0, r0, r5, ror r0
    3108:	0004b623 	andeq	fp, r4, r3, lsr #12
    310c:	25b90100 	ldrcs	r0, [r9, #256]!	; 0x100
    3110:	44000000 	strmi	r0, [r0], #-0
    3114:	90000098 	mulls	r0, r8, r0
    3118:	01000000 	mrseq	r0, (UNDEF: 0)
    311c:	0010419c 	mulseq	r0, ip, r1
    3120:	04b11300 	ldrteq	r1, [r1], #768	; 0x300
    3124:	b9010000 	stmdblt	r1, {}	; <UNPREDICTABLE>
    3128:	00000722 	andeq	r0, r0, r2, lsr #14
    312c:	0000256e 	andeq	r2, r0, lr, ror #10
    3130:	746d662e 	strbtvc	r6, [sp], #-1582	; 0x62e
    3134:	97b90100 	ldrls	r0, [r9, r0, lsl #2]!
    3138:	02000000 	andeq	r0, r0, #0
    313c:	152f7491 	strne	r7, [pc, #-1169]!	; 2cb3 <_start-0x534d>
    3140:	00667562 	rsbeq	r7, r6, r2, ror #10
    3144:	1041ba01 	subne	fp, r1, r1, lsl #20
    3148:	91030000 	mrsls	r0, (UNDEF: 3)
    314c:	6f187c9c 	svcvs	0x00187c9c
    3150:	01000003 	tsteq	r0, r3
    3154:	000106bc 			; <UNDEFINED> instruction: 0x000106bc
    3158:	98910300 	ldmls	r1, {r8, r9}
    315c:	7a73167c 	bvc	1cc8b54 <__bss_end__+0x1cbe8a4>
    3160:	25be0100 	ldrcs	r0, [lr, #256]!	; 0x100
    3164:	9a000000 	bls	316c <_start-0x4e94>
    3168:	29000025 	stmdbcs	r0, {r0, r2, r5}
    316c:	0000010a 	andeq	r0, r0, sl, lsl #2
    3170:	00001062 	andeq	r1, r0, r2, rrx
    3174:	9ddc0305 	ldclls	3, cr0, [ip, #20]
    3178:	6c250000 	stcvs	0, cr0, [r5], #-0
    317c:	d5000098 	strle	r0, [r0, #-152]	; 0x98
    3180:	de000011 	mcrle	0, 0, r0, cr0, cr1, {0}
    3184:	2000000f 	andcs	r0, r0, pc
    3188:	91025301 	tstls	r2, r1, lsl #6
    318c:	52012058 	andpl	r2, r1, #88	; 0x58
    3190:	06549103 	ldrbeq	r9, [r4], -r3, lsl #2
    3194:	03510120 	cmpeq	r1, #32, 2
    3198:	2001cc0a 	andcs	ip, r1, sl, lsl #24
    319c:	91035001 	tstls	r3, r1
    31a0:	24007bfc 	strcs	r7, [r0], #-3068	; 0xbfc
    31a4:	00009880 	andeq	r9, r0, r0, lsl #17
    31a8:	0000118f 	andeq	r1, r0, pc, lsl #3
    31ac:	00989c25 	addseq	r9, r8, r5, lsr #24
    31b0:	00119600 	andseq	r9, r1, r0, lsl #12
    31b4:	00102000 	andseq	r2, r0, r0
    31b8:	53012000 	movwpl	r2, #4096	; 0x1000
    31bc:	20c00802 	sbccs	r0, r0, r2, lsl #16
    31c0:	03055201 	movweq	r5, #20993	; 0x5201
    31c4:	00009ddc 	ldrdeq	r9, [r0], -ip
    31c8:	05510120 	ldrbeq	r0, [r1, #-288]	; 0x120
    31cc:	009e0403 	addseq	r0, lr, r3, lsl #8
    31d0:	50012000 	andpl	r2, r1, r0
    31d4:	9c8c0305 	stcls	3, cr0, [ip], {5}
    31d8:	02200000 	eoreq	r0, r0, #0
    31dc:	0305007d 	movweq	r0, #20605	; 0x507d
    31e0:	00009e90 	muleq	r0, r0, lr
    31e4:	98a02400 	stmials	r0!, {sl, sp}
    31e8:	11ac0000 			; <UNDEFINED> instruction: 0x11ac0000
    31ec:	ac1f0000 	ldcge	0, cr0, [pc], {-0}
    31f0:	ff000098 			; <UNDEFINED> instruction: 0xff000098
    31f4:	2000000e 	andcs	r0, r0, lr
    31f8:	91035101 	tstls	r3, r1, lsl #2
    31fc:	01207bfc 	strdeq	r7, [r0, -ip]!
    3200:	00750250 	rsbseq	r0, r5, r0, asr r2
    3204:	902a0000 	eorls	r0, sl, r0
    3208:	52000000 	andpl	r0, r0, #0
    320c:	30000010 	andcc	r0, r0, r0, lsl r0
    3210:	00000081 	andeq	r0, r0, r1, lsl #1
    3214:	2a0001cb 	bcs	3948 <_start-0x46b8>
    3218:	00000090 	muleq	r0, r0, r0
    321c:	00001062 	andeq	r1, r0, r2, rrx
    3220:	0000812b 	andeq	r8, r0, fp, lsr #2
    3224:	07000e00 	streq	r0, [r0, -r0, lsl #28]
    3228:	00001052 	andeq	r1, r0, r2, asr r0
    322c:	00090d23 	andeq	r0, r9, r3, lsr #26
    3230:	25c50100 	strbcs	r0, [r5, #256]	; 0x100
    3234:	d4000000 	strle	r0, [r0], #-0
    3238:	4c000098 	stcmi	0, cr0, [r0], {152}	; 0x98
    323c:	01000000 	mrseq	r0, (UNDEF: 0)
    3240:	0011449c 	mulseq	r1, ip, r4
    3244:	00751400 	rsbseq	r1, r5, r0, lsl #8
    3248:	0722c501 	streq	ip, [r2, -r1, lsl #10]!
    324c:	25d90000 	ldrbcs	r0, [r9]
    3250:	62140000 	andsvs	r0, r4, #0
    3254:	01006675 	tsteq	r0, r5, ror r6
    3258:	000c0cc5 	andeq	r0, ip, r5, asr #25
    325c:	0025fa00 	eoreq	pc, r5, r0, lsl #20
    3260:	08f91300 	ldmeq	r9!, {r8, r9, ip}^
    3264:	c5010000 	strgt	r0, [r1, #-0]
    3268:	00000068 	andeq	r0, r0, r8, rrx
    326c:	0000261b 	andeq	r2, r0, fp, lsl r6
    3270:	646e6514 	strbtvs	r6, [lr], #-1300	; 0x514
    3274:	4fc50100 	svcmi	0x00c50100
    3278:	3c000000 	stccc	0, cr0, [r0], {-0}
    327c:	16000026 	strne	r0, [r0], -r6, lsr #32
    3280:	00736572 	rsbseq	r6, r3, r2, ror r5
    3284:	0025c601 	eoreq	ip, r5, r1, lsl #12
    3288:	265d0000 	ldrbcs	r0, [sp], -r0
    328c:	0a290000 	beq	a43294 <__bss_end__+0xa38fe4>
    3290:	54000001 	strpl	r0, [r0], #-1
    3294:	05000011 	streq	r0, [r0, #-17]
    3298:	009dec03 	addseq	lr, sp, r3, lsl #24
    329c:	98e82500 	stmials	r8!, {r8, sl, sp}^
    32a0:	0b1e0000 	bleq	7832a8 <__bss_end__+0x778ff8>
    32a4:	11020000 	mrsne	r0, (UNDEF: 2)
    32a8:	01200000 	teqeq	r0, r0
    32ac:	01f30352 	mvnseq	r0, r2, asr r3
    32b0:	51012052 	qaddpl	r2, r2, r1
    32b4:	5101f303 	tstpl	r1, r3, lsl #6
    32b8:	03500120 	cmpeq	r0, #32, 2
    32bc:	205001f3 	ldrshcs	r0, [r0], #-19	; 0xffffffed
    32c0:	02007d02 	andeq	r7, r0, #2, 26	; 0x80
    32c4:	2400ff09 	strcs	pc, [r0], #-3849	; 0xf09
    32c8:	000098f4 	strdeq	r9, [r0], -r4
    32cc:	0000118f 	andeq	r1, r0, pc, lsl #3
    32d0:	00990825 	addseq	r0, r9, r5, lsr #16
    32d4:	00119600 	andseq	r9, r1, r0, lsl #12
    32d8:	00113a00 	andseq	r3, r1, r0, lsl #20
    32dc:	53012000 	movwpl	r2, #4096	; 0x1000
    32e0:	20c80802 	sbccs	r0, r8, r2, lsl #16
    32e4:	03055201 	movweq	r5, #20993	; 0x5201
    32e8:	00009dec 	andeq	r9, r0, ip, ror #27
    32ec:	05510120 	ldrbeq	r0, [r1, #-288]	; 0x120
    32f0:	009e0403 	addseq	r0, lr, r3, lsl #8
    32f4:	50012000 	andpl	r2, r1, r0
    32f8:	9e580305 	cdpls	3, 5, cr0, cr8, cr5, {0}
    32fc:	24000000 	strcs	r0, [r0], #-0
    3300:	0000990c 	andeq	r9, r0, ip, lsl #18
    3304:	000011ac 	andeq	r1, r0, ip, lsr #3
    3308:	00902a00 	addseq	r2, r0, r0, lsl #20
    330c:	11540000 	cmpne	r4, r0
    3310:	812b0000 	teqhi	fp, r0
    3314:	16000000 	strne	r0, [r0], -r0
    3318:	11440700 	cmpne	r4, r0, lsl #14
    331c:	44310000 	ldrtmi	r0, [r1], #-0
    3320:	06000007 	streq	r0, [r0], -r7
    3324:	00116f21 	andseq	r6, r1, r1, lsr #30
    3328:	002c3200 	eoreq	r3, ip, r0, lsl #4
    332c:	2c320000 	ldccs	0, cr0, [r2], #-0
    3330:	00000000 	andeq	r0, r0, r0
    3334:	0005f333 	andeq	pc, r5, r3, lsr r3	; <UNPREDICTABLE>
    3338:	2c570700 	mrrccs	7, 0, r0, r7, cr0
    333c:	34000000 	strcc	r0, [r0], #-0
    3340:	00000272 	andeq	r0, r0, r2, ror r2
    3344:	00252406 	eoreq	r2, r5, r6, lsl #8
    3348:	118f0000 	orrne	r0, pc, r0
    334c:	2c320000 	ldccs	0, cr0, [r2], #-0
    3350:	00000000 	andeq	r0, r0, r0
    3354:	0000d335 	andeq	sp, r0, r5, lsr r3
    3358:	341e0700 	ldrcc	r0, [lr], #-1792	; 0x700
    335c:	0000031a 	andeq	r0, r0, sl, lsl r3
    3360:	00252907 	eoreq	r2, r5, r7, lsl #18
    3364:	11ac0000 			; <UNDEFINED> instruction: 0x11ac0000
    3368:	97320000 	ldrls	r0, [r2, -r0]!
    336c:	2f000000 	svccs	0x00000000
    3370:	01643500 	cmneq	r4, r0, lsl #10
    3374:	66070000 	strvs	r0, [r7], -r0
    3378:	00078831 	andeq	r8, r7, r1, lsr r8
    337c:	c41d0600 	ldrgt	r0, [sp], #-1536	; 0x600
    3380:	32000011 	andcc	r0, r0, #17
    3384:	0000002c 	andeq	r0, r0, ip, lsr #32
    3388:	024a3100 	subeq	r3, sl, #0, 2
    338c:	1c060000 	stcne	0, cr0, [r6], {-0}
    3390:	000011d5 	ldrdeq	r1, [r0], -r5
    3394:	00002c32 	andeq	r2, r0, r2, lsr ip
    3398:	17360000 	ldrne	r0, [r6, -r0]!
    339c:	08000003 	stmdaeq	r0, {r0, r1}
    33a0:	00002502 	andeq	r2, r0, r2, lsl #10
    33a4:	008a3200 	addeq	r3, sl, r0, lsl #4
    33a8:	25320000 	ldrcs	r0, [r2, #-0]!
    33ac:	32000000 	andcc	r0, r0, #0
    33b0:	00000097 	muleq	r0, r7, r0
    33b4:	00010632 	andeq	r0, r1, r2, lsr r6
    33b8:	ff000000 			; <UNDEFINED> instruction: 0xff000000
    33bc:	04000003 	streq	r0, [r0], #-3
    33c0:	00101c00 	andseq	r1, r0, r0, lsl #24
    33c4:	c0010400 	andgt	r0, r1, r0, lsl #8
    33c8:	01000002 	tsteq	r0, r2
    33cc:	00000a05 	andeq	r0, r0, r5, lsl #20
    33d0:	0000032b 	andeq	r0, r0, fp, lsr #6
    33d4:	00009920 	andeq	r9, r0, r0, lsr #18
    33d8:	00000154 	andeq	r0, r0, r4, asr r1
    33dc:	00000dfd 	strdeq	r0, [r0], -sp
    33e0:	69050402 	stmdbvs	r5, {r1, sl}
    33e4:	0300746e 	movweq	r7, #1134	; 0x46e
    33e8:	00330704 	eorseq	r0, r3, r4, lsl #14
    33ec:	01030000 	mrseq	r0, (UNDEF: 3)
    33f0:	00019506 	andeq	r9, r1, r6, lsl #10
    33f4:	05020300 	streq	r0, [r2, #-768]	; 0x300
    33f8:	000001a1 	andeq	r0, r0, r1, lsr #3
    33fc:	45050403 	strmi	r0, [r5, #-1027]	; 0x403
    3400:	03000000 	movweq	r0, #0
    3404:	00400508 	subeq	r0, r0, r8, lsl #10
    3408:	01030000 	mrseq	r0, (UNDEF: 3)
    340c:	00019308 	andeq	r9, r1, r8, lsl #6
    3410:	07020300 	streq	r0, [r2, -r0, lsl #6]
    3414:	00000127 	andeq	r0, r0, r7, lsr #2
    3418:	2e070403 	cdpcs	4, 0, cr0, cr7, cr3, {0}
    341c:	03000000 	movweq	r0, #0
    3420:	00290708 	eoreq	r0, r9, r8, lsl #14
    3424:	04030000 	streq	r0, [r3], #-0
    3428:	00017107 	andeq	r7, r1, r7, lsl #2
    342c:	08010300 	stmdaeq	r1, {r8, r9}
    3430:	0000019c 	muleq	r0, ip, r1
    3434:	0c020104 	stfeqs	f0, [r2], {4}
    3438:	000000b2 	strheq	r0, [r0], -r2
    343c:	00068805 	andeq	r8, r6, r5, lsl #16
    3440:	98050000 	stmdals	r5, {}	; <UNPREDICTABLE>
    3444:	01000007 	tsteq	r0, r7
    3448:	0007d105 	andeq	sp, r7, r5, lsl #2
    344c:	e0050400 	and	r0, r5, r0, lsl #8
    3450:	05000007 	streq	r0, [r0, #-7]
    3454:	0007ef05 	andeq	lr, r7, r5, lsl #30
    3458:	fe050600 	cdp2	6, 0, cr0, cr5, cr0, {0}
    345c:	07000007 	streq	r0, [r0, -r7]
    3460:	00080d05 	andeq	r0, r8, r5, lsl #26
    3464:	1c050300 	stcne	3, cr0, [r5], {-0}
    3468:	02000008 	andeq	r0, r0, #8
    346c:	07c50600 	strbeq	r0, [r5, r0, lsl #12]
    3470:	15020000 	strne	r0, [r2, #-0]
    3474:	00000079 	andeq	r0, r0, r9, ror r0
    3478:	00098c07 	andeq	r8, r9, r7, lsl #24
    347c:	20370100 	eorscs	r0, r7, r0, lsl #2
    3480:	9c000099 	stcls	0, cr0, [r0], {153}	; 0x99
    3484:	01000000 	mrseq	r0, (UNDEF: 0)
    3488:	0001c39c 	muleq	r1, ip, r3
    348c:	99280800 	stmdbls	r8!, {fp}
    3490:	03a80000 			; <UNDEFINED> instruction: 0x03a80000
    3494:	34090000 	strcc	r0, [r9], #-0
    3498:	af000099 	svcge	0x00000099
    349c:	f3000003 	vhadd.u8	d0, d0, d3
    34a0:	0a000000 	beq	34a8 <_start-0x4b58>
    34a4:	32015101 	andcc	r5, r1, #1073741824	; 0x40000000
    34a8:	0150010a 	cmpeq	r0, sl, lsl #2
    34ac:	4009003e 	andmi	r0, r9, lr, lsr r0
    34b0:	af000099 	svcge	0x00000099
    34b4:	0b000003 	bleq	34c8 <_start-0x4b38>
    34b8:	0a000001 	beq	34c4 <_start-0x4b3c>
    34bc:	32015101 	andcc	r5, r1, #1073741824	; 0x40000000
    34c0:	0150010a 	cmpeq	r0, sl, lsl #2
    34c4:	4408003f 	strmi	r0, [r8], #-63	; 0x3f
    34c8:	a8000099 	stmdage	r0, {r0, r3, r4, r7}
    34cc:	09000003 	stmdbeq	r0, {r0, r1}
    34d0:	00009954 	andeq	r9, r0, r4, asr r9
    34d4:	000003c5 	andeq	r0, r0, r5, asr #7
    34d8:	00000128 	andeq	r0, r0, r8, lsr #2
    34dc:	0250010a 	subseq	r0, r0, #-2147483646	; 0x80000002
    34e0:	09000075 	stmdbeq	r0, {r0, r2, r4, r5, r6}
    34e4:	00009960 	andeq	r9, r0, r0, ror #18
    34e8:	000003e6 	andeq	r0, r0, r6, ror #7
    34ec:	0000013c 	andeq	r0, r0, ip, lsr r1
    34f0:	0250010a 	subseq	r0, r0, #-2147483646	; 0x80000002
    34f4:	08000075 	stmdaeq	r0, {r0, r2, r4, r5, r6}
    34f8:	00009964 	andeq	r9, r0, r4, ror #18
    34fc:	000003a8 	andeq	r0, r0, r8, lsr #7
    3500:	00997009 	addseq	r7, r9, r9
    3504:	0003e600 	andeq	lr, r3, r0, lsl #12
    3508:	00015800 	andeq	r5, r1, r0, lsl #16
    350c:	51010a00 	tstpl	r1, r0, lsl #20
    3510:	09003001 	stmdbeq	r0, {r0, ip, sp}
    3514:	0000997c 	andeq	r9, r0, ip, ror r9
    3518:	000003e6 	andeq	r0, r0, r6, ror #7
    351c:	0000016b 	andeq	r0, r0, fp, ror #2
    3520:	0151010a 	cmpeq	r1, sl, lsl #2
    3524:	88090030 	stmdahi	r9, {r4, r5}
    3528:	e6000099 			; <UNDEFINED> instruction: 0xe6000099
    352c:	7e000003 	cdpvc	0, 0, cr0, cr0, cr3, {0}
    3530:	0a000001 	beq	353c <_start-0x4ac4>
    3534:	36015101 	strcc	r5, [r1], -r1, lsl #2
    3538:	99940900 	ldmibls	r4, {r8, fp}
    353c:	03e60000 	mvneq	r0, #0
    3540:	01910000 	orrseq	r0, r1, r0
    3544:	010a0000 	mrseq	r0, (UNDEF: 10)
    3548:	00330151 	eorseq	r0, r3, r1, asr r1
    354c:	0099a009 	addseq	sl, r9, r9
    3550:	0003e600 	andeq	lr, r3, r0, lsl #12
    3554:	0001a600 	andeq	sl, r1, r0, lsl #12
    3558:	51010a00 	tstpl	r1, r0, lsl #20
    355c:	010e0a03 	tsteq	lr, r3, lsl #20
    3560:	99ac0900 	stmibls	ip!, {r8, fp}
    3564:	03e60000 	mvneq	r0, #0
    3568:	01b90000 			; <UNDEFINED> instruction: 0x01b90000
    356c:	010a0000 	mrseq	r0, (UNDEF: 10)
    3570:	00330151 	eorseq	r0, r3, r1, asr r1
    3574:	0099b008 	addseq	fp, r9, r8
    3578:	0003a800 	andeq	sl, r3, r0, lsl #16
    357c:	600b0000 	andvs	r0, fp, r0
    3580:	01000009 	tsteq	r0, r9
    3584:	00002557 	andeq	r2, r0, r7, asr r5
    3588:	0099bc00 	addseq	fp, r9, r0, lsl #24
    358c:	00001c00 	andeq	r1, r0, r0, lsl #24
    3590:	e69c0100 	ldr	r0, [ip], r0, lsl #2
    3594:	08000001 	stmdaeq	r0, {r0}
    3598:	000099cc 	andeq	r9, r0, ip, asr #19
    359c:	000003c5 	andeq	r0, r0, r5, asr #7
    35a0:	087d0b00 	ldmdaeq	sp!, {r8, r9, fp}^
    35a4:	5d010000 	stcpl	0, cr0, [r1, #-0]
    35a8:	00000025 	andeq	r0, r0, r5, lsr #32
    35ac:	000099d8 	ldrdeq	r9, [r0], -r8
    35b0:	00000028 	andeq	r0, r0, r8, lsr #32
    35b4:	02129c01 	andseq	r9, r2, #256	; 0x100
    35b8:	e0080000 	and	r0, r8, r0
    35bc:	c3000099 	movwgt	r0, #153	; 0x99
    35c0:	08000001 	stmdaeq	r0, {r0}
    35c4:	000099f4 	strdeq	r9, [r0], -r4
    35c8:	000003c5 	andeq	r0, r0, r5, asr #7
    35cc:	09b40b00 	ldmibeq	r4!, {r8, r9, fp}
    35d0:	64010000 	strvs	r0, [r1], #-0
    35d4:	00000025 	andeq	r0, r0, r5, lsr #32
    35d8:	00009a00 	andeq	r9, r0, r0, lsl #20
    35dc:	0000001c 	andeq	r0, r0, ip, lsl r0
    35e0:	02359c01 	eorseq	r9, r5, #256	; 0x100
    35e4:	10080000 	andne	r0, r8, r0
    35e8:	c500009a 	strgt	r0, [r0, #-154]	; 0x9a
    35ec:	00000003 	andeq	r0, r0, r3
    35f0:	00051207 	andeq	r1, r5, r7, lsl #4
    35f4:	1c6a0100 	stfnee	f0, [sl], #-0
    35f8:	2c00009a 	stccs	0, cr0, [r0], {154}	; 0x9a
    35fc:	01000000 	mrseq	r0, (UNDEF: 0)
    3600:	0002719c 	muleq	r2, ip, r1
    3604:	00630c00 	rsbeq	r0, r3, r0, lsl #24
    3608:	002c6a01 	eoreq	r6, ip, r1, lsl #20
    360c:	267b0000 	ldrbtcs	r0, [fp], -r0
    3610:	28080000 	stmdacs	r8, {}	; <UNPREDICTABLE>
    3614:	1200009a 	andne	r0, r0, #154	; 0x9a
    3618:	0d000002 	stceq	0, cr0, [r0, #-8]
    361c:	00009a40 	andeq	r9, r0, r0, asr #20
    3620:	000003e6 	andeq	r0, r0, r6, ror #7
    3624:	0251010a 	subseq	r0, r1, #-2147483646	; 0x80000002
    3628:	00000074 	andeq	r0, r0, r4, ror r0
    362c:	00097e0b 	andeq	r7, r9, fp, lsl #28
    3630:	25740100 	ldrbcs	r0, [r4, #-256]!	; 0x100
    3634:	48000000 	stmdami	r0, {}	; <UNPREDICTABLE>
    3638:	0c00009a 	stceq	0, cr0, [r0], {154}	; 0x9a
    363c:	01000000 	mrseq	r0, (UNDEF: 0)
    3640:	0002949c 	muleq	r2, ip, r4
    3644:	9a500800 	bls	140564c <__bss_end__+0x13fb39c>
    3648:	01c30000 	biceq	r0, r3, r0
    364c:	0b000000 	bleq	3654 <_start-0x49ac>
    3650:	00000a31 	andeq	r0, r0, r1, lsr sl
    3654:	00257801 	eoreq	r7, r5, r1, lsl #16
    3658:	9a540000 	bls	1503660 <__bss_end__+0x14f93b0>
    365c:	00200000 	eoreq	r0, r0, r0
    3660:	9c010000 	stcls	0, cr0, [r1], {-0}
    3664:	000002c0 	andeq	r0, r0, r0, asr #5
    3668:	009a5c08 	addseq	r5, sl, r8, lsl #24
    366c:	00027100 	andeq	r7, r2, r0, lsl #2
    3670:	9a680800 	bls	1a05678 <__bss_end__+0x19fb3c8>
    3674:	01e60000 	mvneq	r0, r0
    3678:	0e000000 	cdpeq	0, 0, cr0, cr0, cr0, {0}
    367c:	000009ce 	andeq	r0, r0, lr, asr #19
    3680:	02d11601 	sbcseq	r1, r1, #1048576	; 0x100000
    3684:	03050000 	movweq	r0, #20480	; 0x5000
    3688:	00009be0 	andeq	r9, r0, r0, ror #23
    368c:	02d7040f 	sbcseq	r0, r7, #251658240	; 0xf000000
    3690:	2c100000 	ldccs	0, cr0, [r0], {-0}
    3694:	0e000000 	cdpeq	0, 0, cr0, cr0, cr0, {0}
    3698:	000009c2 	andeq	r0, r0, r2, asr #19
    369c:	02d11701 	sbcseq	r1, r1, #262144	; 0x40000
    36a0:	03050000 	movweq	r0, #20480	; 0x5000
    36a4:	00009bb0 			; <UNDEFINED> instruction: 0x00009bb0
    36a8:	0009430e 	andeq	r4, r9, lr, lsl #6
    36ac:	d11a0100 	tstle	sl, r0, lsl #2
    36b0:	05000002 	streq	r0, [r0, #-2]
    36b4:	009bcc03 	addseq	ip, fp, r3, lsl #24
    36b8:	09960e00 	ldmibeq	r6, {r9, sl, fp}
    36bc:	1b010000 	blne	436c4 <__bss_end__+0x39414>
    36c0:	000002d1 	ldrdeq	r0, [r0], -r1
    36c4:	9bb80305 	blls	fee042e0 <__bss_end__+0xfedfa030>
    36c8:	a50e0000 	strge	r0, [lr, #-0]
    36cc:	01000009 	tsteq	r0, r9
    36d0:	0002d11c 	andeq	sp, r2, ip, lsl r1
    36d4:	bc030500 	cfstr32lt	mvfx0, [r3], {-0}
    36d8:	0e00009b 	mcreq	0, 0, r0, cr0, cr11, {4}
    36dc:	00000a13 	andeq	r0, r0, r3, lsl sl
    36e0:	02d11d01 	sbcseq	r1, r1, #1, 26	; 0x40
    36e4:	03050000 	movweq	r0, #20480	; 0x5000
    36e8:	00009bc0 	andeq	r9, r0, r0, asr #23
    36ec:	0009340e 	andeq	r3, r9, lr, lsl #8
    36f0:	d11e0100 	tstle	lr, r0, lsl #2
    36f4:	05000002 	streq	r0, [r0, #-2]
    36f8:	009bdc03 	addseq	sp, fp, r3, lsl #24
    36fc:	0a220e00 	beq	886f04 <__bss_end__+0x87cc54>
    3700:	1f010000 	svcne	0x00010000
    3704:	000002d1 	ldrdeq	r0, [r0], -r1
    3708:	9bc80305 	blls	ff204324 <__bss_end__+0xff1fa074>
    370c:	510e0000 	mrspl	r0, (UNDEF: 14)
    3710:	01000009 	tsteq	r0, r9
    3714:	0002d120 	andeq	sp, r2, r0, lsr #2
    3718:	d8030500 	stmdale	r3, {r8, sl}
    371c:	0e00009b 	mcreq	0, 0, r0, cr0, cr11, {4}
    3720:	000009f6 	strdeq	r0, [r0], -r6
    3724:	02d12101 	sbcseq	r2, r1, #1073741824	; 0x40000000
    3728:	03050000 	movweq	r0, #20480	; 0x5000
    372c:	00009bd4 	ldrdeq	r9, [r0], -r4
    3730:	00096e0e 	andeq	r6, r9, lr, lsl #28
    3734:	d1220100 	teqle	r2, r0, lsl #2
    3738:	05000002 	streq	r0, [r0, #-2]
    373c:	009bb403 	addseq	fp, fp, r3, lsl #8
    3740:	09e60e00 	stmibeq	r6!, {r9, sl, fp}^
    3744:	23010000 	movwcs	r0, #4096	; 0x1000
    3748:	000002d1 	ldrdeq	r0, [r0], -r1
    374c:	9bd00305 	blls	ff404368 <__bss_end__+0xff3fa0b8>
    3750:	d60e0000 	strle	r0, [lr], -r0
    3754:	01000009 	tsteq	r0, r9
    3758:	0002d124 	andeq	sp, r2, r4, lsr #2
    375c:	c4030500 	strgt	r0, [r3], #-1280	; 0x500
    3760:	1100009b 	swpne	r0, fp, [r0]	; <UNPREDICTABLE>
    3764:	000006ce 	andeq	r0, r0, lr, asr #13
    3768:	ef128a03 	svc	0x00128a03
    376c:	02000006 	andeq	r0, r0, #6
    3770:	0003c519 	andeq	ip, r3, r9, lsl r5
    3774:	002c1300 	eoreq	r1, ip, r0, lsl #6
    3778:	b2130000 	andslt	r0, r3, #0
    377c:	00000000 	andeq	r0, r0, r0
    3780:	0007a914 	andeq	sl, r7, r4, lsl r9
    3784:	2ca90300 	stccs	3, cr0, [r9]
    3788:	da000000 	ble	3790 <_start-0x4870>
    378c:	13000003 	movwne	r0, #3
    3790:	000003da 	ldrdeq	r0, [r0], -sl
    3794:	e0040f00 	and	r0, r4, r0, lsl #30
    3798:	15000003 	strne	r0, [r0, #-3]
    379c:	000003e5 	andeq	r0, r0, r5, ror #7
    37a0:	06681216 			; <UNDEFINED> instruction: 0x06681216
    37a4:	9d030000 	stcls	0, cr0, [r3, #-0]
    37a8:	000003fc 	strdeq	r0, [r0], -ip
    37ac:	0003fc13 	andeq	pc, r3, r3, lsl ip	; <UNPREDICTABLE>
    37b0:	002c1300 	eoreq	r1, ip, r0, lsl #6
    37b4:	0f000000 	svceq	0x00000000
    37b8:	0003e504 	andeq	lr, r3, r4, lsl #10
    37bc:	01c30000 	biceq	r0, r3, r0
    37c0:	00040000 	andeq	r0, r4, r0
    37c4:	0000114a 	andeq	r1, r0, sl, asr #2
    37c8:	02c00104 	sbceq	r0, r0, #4, 2
    37cc:	56010000 	strpl	r0, [r1], -r0
    37d0:	2b00000a 	blcs	3800 <_start-0x4800>
    37d4:	d8000003 	stmdale	r0, {r0, r1}
    37d8:	5000009a 	mulpl	r0, sl, r0
    37dc:	02000000 	andeq	r0, r0, #0
    37e0:	0200000f 	andeq	r0, r0, #15
    37e4:	6e690504 	cdpvs	5, 6, cr0, cr9, cr4, {0}
    37e8:	41030074 	tstmi	r3, r4, ror r0
    37ec:	0200000a 	andeq	r0, r0, #10
    37f0:	000037d4 	ldrdeq	r3, [r0], -r4
    37f4:	07040400 	streq	r0, [r4, -r0, lsl #8]
    37f8:	00000033 	andeq	r0, r0, r3, lsr r0
    37fc:	95060104 	strls	r0, [r6, #-260]	; 0x104
    3800:	04000001 	streq	r0, [r0], #-1
    3804:	01a10502 			; <UNDEFINED> instruction: 0x01a10502
    3808:	04040000 	streq	r0, [r4], #-0
    380c:	00004505 	andeq	r4, r0, r5, lsl #10
    3810:	05080400 	streq	r0, [r8, #-1024]	; 0x400
    3814:	00000040 	andeq	r0, r0, r0, asr #32
    3818:	00051c03 	andeq	r1, r5, r3, lsl #24
    381c:	652e0300 	strvs	r0, [lr, #-768]!	; 0x300
    3820:	04000000 	streq	r0, [r0], #-0
    3824:	01930801 	orrseq	r0, r3, r1, lsl #16
    3828:	02040000 	andeq	r0, r4, #0
    382c:	00012707 	andeq	r2, r1, r7, lsl #14
    3830:	05730300 	ldrbeq	r0, [r3, #-768]!	; 0x300
    3834:	34030000 	strcc	r0, [r3], #-0
    3838:	0000007e 	andeq	r0, r0, lr, ror r0
    383c:	2e070404 	cdpcs	4, 0, cr0, cr7, cr4, {0}
    3840:	04000000 	streq	r0, [r0], #-0
    3844:	00290708 	eoreq	r0, r9, r8, lsl #14
    3848:	04040000 	streq	r0, [r4], #-0
    384c:	00017107 	andeq	r7, r1, r7, lsl #2
    3850:	04040500 	streq	r0, [r4], #-1280	; 0x500
    3854:	019c0801 	orrseq	r0, ip, r1, lsl #16
    3858:	0c060000 	stceq	0, cr0, [r6], {-0}
    385c:	00d30e04 	sbcseq	r0, r3, r4, lsl #28
    3860:	74070000 	strvc	r0, [r7], #-0
    3864:	0f040078 	svceq	0x00040078
    3868:	0000005a 	andeq	r0, r0, sl, asr r0
    386c:	78720700 	ldmdavc	r2!, {r8, r9, sl}^
    3870:	5a0f0400 	bpl	3c4878 <__bss_end__+0x3ba5c8>
    3874:	01000000 	mrseq	r0, (UNDEF: 0)
    3878:	0004ea08 	andeq	lr, r4, r8, lsl #20
    387c:	73100400 	tstvc	r0, #0, 8
    3880:	04000000 	streq	r0, [r0], #-0
    3884:	00049b08 	andeq	r9, r4, r8, lsl #22
    3888:	73110400 	tstvc	r1, #0, 8
    388c:	08000000 	stmdaeq	r0, {}	; <UNPREDICTABLE>
    3890:	04d30300 	ldrbeq	r0, [r3], #768	; 0x300
    3894:	12040000 	andne	r0, r4, #0
    3898:	0000009c 	muleq	r0, ip, r0
    389c:	10050109 	andne	r0, r5, r9, lsl #2
    38a0:	000000f9 	strdeq	r0, [r0], -r9
    38a4:	0004ef0a 	andeq	lr, r4, sl, lsl #30
    38a8:	dd0a0100 	stfles	f0, [sl, #-0]
    38ac:	02000004 	andeq	r0, r0, #4
    38b0:	0004c50a 	andeq	ip, r4, sl, lsl #10
    38b4:	03000300 	movweq	r0, #768	; 0x300
    38b8:	00000504 	andeq	r0, r0, r4, lsl #10
    38bc:	00de1005 	sbcseq	r1, lr, r5
    38c0:	14060000 	strne	r0, [r6], #-0
    38c4:	01311405 	teqeq	r1, r5, lsl #8
    38c8:	7c080000 	stcvc	0, cr0, [r8], {-0}
    38cc:	05000005 	streq	r0, [r0, #-5]
    38d0:	00003715 	andeq	r3, r0, r5, lsl r7
    38d4:	67080000 	strvs	r0, [r8, -r0]
    38d8:	05000005 	streq	r0, [r0, #-5]
    38dc:	0000f918 	andeq	pc, r0, r8, lsl r9	; <UNPREDICTABLE>
    38e0:	32080400 	andcc	r0, r8, #0, 8
    38e4:	05000005 	streq	r0, [r0, #-5]
    38e8:	0000d31b 	andeq	sp, r0, fp, lsl r3
    38ec:	03000800 	movweq	r0, #2048	; 0x800
    38f0:	00000524 	andeq	r0, r0, r4, lsr #10
    38f4:	01042005 	tsteq	r4, r5
    38f8:	4f0b0000 	svcmi	0x000b0000
    38fc:	0100000a 	tsteq	r0, sl
    3900:	00017e05 	andeq	r7, r1, r5, lsl #28
    3904:	009ad800 	addseq	sp, sl, r0, lsl #16
    3908:	00002800 	andeq	r2, r0, r0, lsl #16
    390c:	7e9c0100 	fmlvce	f0, f4, f0
    3910:	0c000001 	stceq	0, cr0, [r0], {1}
    3914:	06010063 	streq	r0, [r1], -r3, rrx
    3918:	0000017e 	andeq	r0, r0, lr, ror r1
    391c:	09000000 	stmdbeq	r0, {}	; <UNPREDICTABLE>
    3920:	009aec0d 	addseq	lr, sl, sp, lsl #24
    3924:	0001ab00 	andeq	sl, r1, r0, lsl #22
    3928:	52010e00 	andpl	r0, r1, #0, 28
    392c:	010e3401 	tsteq	lr, r1, lsl #8
    3930:	0e300151 	mrceq	1, 1, r0, cr0, cr1, {2}
    3934:	42035001 	andmi	r5, r3, #1
    3938:	00002447 	andeq	r2, r0, r7, asr #8
    393c:	0131040f 	teqeq	r1, pc, lsl #8
    3940:	3a0b0000 	bcc	2c3948 <__bss_end__+0x2b9698>
    3944:	01000005 	tsteq	r0, r5
    3948:	00017e0c 	andeq	r7, r1, ip, lsl #28
    394c:	009b0000 	addseq	r0, fp, r0
    3950:	00002800 	andeq	r2, r0, r0, lsl #16
    3954:	ab9c0100 	blge	fe703d5c <__bss_end__+0xfe6f9aac>
    3958:	0c000001 	stceq	0, cr0, [r0], {1}
    395c:	0d010063 	stceq	0, cr0, [r1, #-396]	; 0xfffffe74
    3960:	0000017e 	andeq	r0, r0, lr, ror r1
    3964:	09000000 	stmdbeq	r0, {}	; <UNPREDICTABLE>
    3968:	0a481000 	beq	1207970 <__bss_end__+0x11fd6c0>
    396c:	1b060000 	blne	183974 <__bss_end__+0x1796c4>
    3970:	00000093 	muleq	r0, r3, r0
    3974:	00009311 	andeq	r9, r0, r1, lsl r3
    3978:	00251100 	eoreq	r1, r5, r0, lsl #2
    397c:	2c110000 	ldccs	0, cr0, [r1], {-0}
    3980:	00000000 	andeq	r0, r0, r0
    3984:	0000db00 	andeq	sp, r0, r0, lsl #22
    3988:	2e000400 	cfcpyscs	mvf0, mvf0
    398c:	04000012 	streq	r0, [r0], #-18
    3990:	0002c001 	andeq	ip, r2, r1
    3994:	0a710100 	beq	1c43d9c <__bss_end__+0x1c39aec>
    3998:	032b0000 	teqeq	fp, #0
    399c:	9b280000 	blls	a039a4 <__bss_end__+0x9f96f4>
    39a0:	00200000 	eoreq	r0, r0, r0
    39a4:	102e0000 	eorne	r0, lr, r0
    39a8:	01020000 	mrseq	r0, (UNDEF: 2)
    39ac:	00019506 	andeq	r9, r1, r6, lsl #10
    39b0:	08010200 	stmdaeq	r1, {r9}
    39b4:	00000193 	muleq	r0, r3, r1
    39b8:	a1050202 	tstge	r5, r2, lsl #4
    39bc:	02000001 	andeq	r0, r0, #1
    39c0:	01270702 	teqeq	r7, r2, lsl #14
    39c4:	04030000 	streq	r0, [r3], #-0
    39c8:	746e6905 	strbtvc	r6, [lr], #-2309	; 0x905
    39cc:	07040200 	streq	r0, [r4, -r0, lsl #4]
    39d0:	00000033 	andeq	r0, r0, r3, lsr r0
    39d4:	40050802 	andmi	r0, r5, r2, lsl #16
    39d8:	02000000 	andeq	r0, r0, #0
    39dc:	00290708 	eoreq	r0, r9, r8, lsl #14
    39e0:	04020000 	streq	r0, [r2], #-0
    39e4:	00004505 	andeq	r4, r0, r5, lsl #10
    39e8:	07040200 	streq	r0, [r4, -r0, lsl #4]
    39ec:	00000171 	andeq	r0, r0, r1, ror r1
    39f0:	04020404 	streq	r0, [r2], #-1028	; 0x404
    39f4:	00002e07 	andeq	r2, r0, r7, lsl #28
    39f8:	7a040500 	bvc	104e00 <__bss_end__+0xfab50>
    39fc:	02000000 	andeq	r0, r0, #0
    3a00:	019c0801 	orrseq	r0, ip, r1, lsl #16
    3a04:	41060000 	mrsmi	r0, (UNDEF: 6)
    3a08:	0200000a 	andeq	r0, r0, #10
    3a0c:	000048d4 	ldrdeq	r4, [r0], -r4	; <UNPREDICTABLE>
    3a10:	0a480700 	beq	1205618 <__bss_end__+0x11fb368>
    3a14:	1b030000 	blne	c3a1c <__bss_end__+0xb976c>
    3a18:	0000006b 	andeq	r0, r0, fp, rrx
    3a1c:	00009b28 	andeq	r9, r0, r8, lsr #22
    3a20:	00000020 	andeq	r0, r0, r0, lsr #32
    3a24:	5f089c01 	svcpl	0x00089c01
    3a28:	03010070 	movweq	r0, #4208	; 0x1070
    3a2c:	0000006b 	andeq	r0, r0, fp, rrx
    3a30:	63085001 	movwvs	r5, #32769	; 0x8001
    3a34:	41030100 	mrsmi	r0, (UNDEF: 19)
    3a38:	01000000 	mrseq	r0, (UNDEF: 0)
    3a3c:	006e0951 	rsbeq	r0, lr, r1, asr r9
    3a40:	00810301 	addeq	r0, r1, r1, lsl #6
    3a44:	26990000 	ldrcs	r0, [r9], r0
    3a48:	700a0000 	andvc	r0, sl, r0
    3a4c:	74040100 	strvc	r0, [r4], #-256	; 0x100
    3a50:	ba000000 	blt	3a58 <_start-0x45a8>
    3a54:	0b000026 	bleq	3af4 <_start-0x450c>
    3a58:	04010065 	streq	r0, [r1], #-101	; 0x65
    3a5c:	00000074 	andeq	r0, r0, r4, ror r0
    3a60:	00005201 	andeq	r5, r0, r1, lsl #4

Disassembly of section .debug_abbrev:

00000000 <.debug_abbrev>:
       0:	25011101 	strcs	r1, [r1, #-257]	; 0x101
       4:	030b130e 	movweq	r1, #45838	; 0xb30e
       8:	110e1b0e 	tstne	lr, lr, lsl #22
       c:	10061201 	andne	r1, r6, r1, lsl #4
      10:	02000017 	andeq	r0, r0, #23
      14:	0b0b0024 	bleq	2c00ac <__bss_end__+0x2b5dfc>
      18:	08030b3e 	stmdaeq	r3, {r1, r2, r3, r4, r5, r8, r9, fp}
      1c:	24030000 	strcs	r0, [r3], #-0
      20:	3e0b0b00 	vmlacc.f64	d0, d11, d0
      24:	000e030b 	andeq	r0, lr, fp, lsl #6
      28:	000f0400 	andeq	r0, pc, r0, lsl #8
      2c:	13490b0b 	movtne	r0, #39691	; 0x9b0b
      30:	26050000 	strcs	r0, [r5], -r0
      34:	00134900 	andseq	r4, r3, r0, lsl #18
      38:	01130600 	tsteq	r3, r0, lsl #12
      3c:	0b3a0b0b 	bleq	e82c70 <__bss_end__+0xe789c0>
      40:	13010b3b 	movwne	r0, #6971	; 0x1b3b
      44:	0d070000 	stceq	0, cr0, [r7, #-0]
      48:	3a080300 	bcc	200c50 <__bss_end__+0x1f69a0>
      4c:	490b3b0b 	stmdbmi	fp, {r0, r1, r3, r8, r9, fp, ip, sp}
      50:	000b3813 	andeq	r3, fp, r3, lsl r8
      54:	000d0800 	andeq	r0, sp, r0, lsl #16
      58:	0b3a0e03 	bleq	e8386c <__bss_end__+0xe795bc>
      5c:	13490b3b 	movtne	r0, #39739	; 0x9b3b
      60:	00000b38 	andeq	r0, r0, r8, lsr fp
      64:	03001609 	movweq	r1, #1545	; 0x609
      68:	3b0b3a0e 	blcc	2ce8a8 <__bss_end__+0x2c45f8>
      6c:	0013490b 	andseq	r4, r3, fp, lsl #18
      70:	012e0a00 	teqeq	lr, r0, lsl #20
      74:	0b3a0e03 	bleq	e83888 <__bss_end__+0xe795d8>
      78:	19270b3b 	stmdbne	r7!, {r0, r1, r3, r4, r5, r8, r9, fp}
      7c:	0b201349 	bleq	804da8 <__bss_end__+0x7faaf8>
      80:	00001301 	andeq	r1, r0, r1, lsl #6
      84:	0300050b 	movweq	r0, #1291	; 0x50b
      88:	3b0b3a08 	blcc	2ce8b0 <__bss_end__+0x2c4600>
      8c:	0013490b 	andseq	r4, r3, fp, lsl #18
      90:	012e0c00 	teqeq	lr, r0, lsl #24
      94:	0e03193f 	mcreq	9, 0, r1, cr3, cr15, {1}
      98:	0b3b0b3a 	bleq	ec2d88 <__bss_end__+0xeb8ad8>
      9c:	13491927 	movtne	r1, #39207	; 0x9927
      a0:	06120111 			; <UNDEFINED> instruction: 0x06120111
      a4:	42971840 	addsmi	r1, r7, #64, 16	; 0x400000
      a8:	00130119 	andseq	r0, r3, r9, lsl r1
      ac:	00050d00 	andeq	r0, r5, r0, lsl #26
      b0:	0b3a0803 	bleq	e820c4 <__bss_end__+0xe77e14>
      b4:	13490b3b 	movtne	r0, #39739	; 0x9b3b
      b8:	00001702 	andeq	r1, r0, r2, lsl #14
      bc:	0300340e 	movweq	r3, #1038	; 0x40e
      c0:	3413490e 	ldrcc	r4, [r3], #-2318	; 0x90e
      c4:	00180219 	andseq	r0, r8, r9, lsl r2
      c8:	00340f00 	eorseq	r0, r4, r0, lsl #30
      cc:	0b3a0e03 	bleq	e838e0 <__bss_end__+0xe79630>
      d0:	13490b3b 	movtne	r0, #39739	; 0x9b3b
      d4:	34100000 	ldrcc	r0, [r0], #-0
      d8:	3a0e0300 	bcc	380ce0 <__bss_end__+0x376a30>
      dc:	490b3b0b 	stmdbmi	fp, {r0, r1, r3, r8, r9, fp, ip, sp}
      e0:	00170213 	andseq	r0, r7, r3, lsl r2
      e4:	010b1100 	mrseq	r1, (UNDEF: 27)
      e8:	06120111 			; <UNDEFINED> instruction: 0x06120111
      ec:	00001301 	andeq	r1, r0, r1, lsl #6
      f0:	01828912 	orreq	r8, r2, r2, lsl r9
      f4:	31011101 	tstcc	r1, r1, lsl #2
      f8:	00130113 	andseq	r0, r3, r3, lsl r1
      fc:	828a1300 	addhi	r1, sl, #0, 6
     100:	18020001 	stmdane	r2, {r0}
     104:	00184291 	mulseq	r8, r1, r2
     108:	82891400 	addhi	r1, r9, #0, 8
     10c:	01110001 	tsteq	r1, r1
     110:	00001331 	andeq	r1, r0, r1, lsr r3
     114:	49010115 	stmdbmi	r1, {r0, r2, r4, r8}
     118:	00130113 	andseq	r0, r3, r3, lsl r1
     11c:	00211600 	eoreq	r1, r1, r0, lsl #12
     120:	0b2f1349 	bleq	bc4e4c <__bss_end__+0xbbab9c>
     124:	05170000 	ldreq	r0, [r7, #-0]
     128:	3a080300 	bcc	200d30 <__bss_end__+0x1f6a80>
     12c:	490b3b0b 	stmdbmi	fp, {r0, r1, r3, r8, r9, fp, ip, sp}
     130:	00180213 	andseq	r0, r8, r3, lsl r2
     134:	00051800 	andeq	r1, r5, r0, lsl #16
     138:	0b3a0e03 	bleq	e8394c <__bss_end__+0xe7969c>
     13c:	13490b3b 	movtne	r0, #39739	; 0x9b3b
     140:	00001702 	andeq	r1, r0, r2, lsl #14
     144:	03003419 	movweq	r3, #1049	; 0x419
     148:	3b0b3a0e 	blcc	2ce988 <__bss_end__+0x2c46d8>
     14c:	0213490b 	andseq	r4, r3, #180224	; 0x2c000
     150:	1a000018 	bne	1b8 <_start-0x7e48>
     154:	1331011d 	teqne	r1, #1073741831	; 0x40000007
     158:	17550152 			; <UNDEFINED> instruction: 0x17550152
     15c:	0b590b58 	bleq	1642ec4 <__bss_end__+0x1638c14>
     160:	00001301 	andeq	r1, r0, r1, lsl #6
     164:	3100051b 	tstcc	r0, fp, lsl r5
     168:	00170213 	andseq	r0, r7, r3, lsl r2
     16c:	010b1c00 	tsteq	fp, r0, lsl #24
     170:	13011755 	movwne	r1, #5973	; 0x1755
     174:	341d0000 	ldrcc	r0, [sp], #-0
     178:	3a080300 	bcc	200d80 <__bss_end__+0x1f6ad0>
     17c:	490b3b0b 	stmdbmi	fp, {r0, r1, r3, r8, r9, fp, ip, sp}
     180:	00170213 	andseq	r0, r7, r3, lsl r2
     184:	010b1e00 	tsteq	fp, r0, lsl #28
     188:	06120111 			; <UNDEFINED> instruction: 0x06120111
     18c:	0b1f0000 	bleq	7c0194 <__bss_end__+0x7b5ee4>
     190:	00175501 	andseq	r5, r7, r1, lsl #10
     194:	012e2000 	teqeq	lr, r0
     198:	0e03193f 	mcreq	9, 0, r1, cr3, cr15, {1}
     19c:	0b3b0b3a 	bleq	ec2e8c <__bss_end__+0xeb8bdc>
     1a0:	01111927 	tsteq	r1, r7, lsr #18
     1a4:	18400612 	stmdane	r0, {r1, r4, r9, sl}^
     1a8:	01194297 			; <UNDEFINED> instruction: 0x01194297
     1ac:	21000013 	tstcs	r0, r3, lsl r0
     1b0:	01018289 	smlabbeq	r1, r9, r2, r8
     1b4:	13310111 	teqne	r1, #1073741828	; 0x40000004
     1b8:	34220000 	strtcc	r0, [r2], #-0
     1bc:	3a080300 	bcc	200dc4 <__bss_end__+0x1f6b14>
     1c0:	490b3b0b 	stmdbmi	fp, {r0, r1, r3, r8, r9, fp, ip, sp}
     1c4:	000b1c13 	andeq	r1, fp, r3, lsl ip
     1c8:	00342300 	eorseq	r2, r4, r0, lsl #6
     1cc:	0b3a0803 	bleq	e821e0 <__bss_end__+0xe77f30>
     1d0:	13490b3b 	movtne	r0, #39739	; 0x9b3b
     1d4:	00001802 	andeq	r1, r0, r2, lsl #16
     1d8:	03003424 	movweq	r3, #1060	; 0x424
     1dc:	3b0b3a0e 	blcc	2cea1c <__bss_end__+0x2c476c>
     1e0:	1c13490b 	ldcne	9, cr4, [r3], {11}
     1e4:	25000006 	strcs	r0, [r0, #-6]
     1e8:	13490035 	movtne	r0, #36917	; 0x9035
     1ec:	2e260000 	cdpcs	0, 2, cr0, cr6, cr0, {0}
     1f0:	03193f01 	tsteq	r9, #1, 30
     1f4:	3b0b3a0e 	blcc	2cea34 <__bss_end__+0x2c4784>
     1f8:	3c19270b 	ldccc	7, cr2, [r9], {11}
     1fc:	00130119 	andseq	r0, r3, r9, lsl r1
     200:	00052700 	andeq	r2, r5, r0, lsl #14
     204:	00001349 	andeq	r1, r0, r9, asr #6
     208:	3f002e28 	svccc	0x00002e28
     20c:	3a0e0319 	bcc	380e78 <__bss_end__+0x376bc8>
     210:	270b3b0b 	strcs	r3, [fp, -fp, lsl #22]
     214:	00193c19 	andseq	r3, r9, r9, lsl ip
     218:	012e2900 	teqeq	lr, r0, lsl #18
     21c:	0e03193f 	mcreq	9, 0, r1, cr3, cr15, {1}
     220:	0b3b0b3a 	bleq	ec2f10 <__bss_end__+0xeb8c60>
     224:	13491927 	movtne	r1, #39207	; 0x9927
     228:	1301193c 	movwne	r1, #6460	; 0x193c
     22c:	182a0000 	stmdane	sl!, {}	; <UNPREDICTABLE>
     230:	2b000000 	blcs	238 <_start-0x7dc8>
     234:	193f012e 	ldmdbne	pc!, {r1, r2, r3, r5, r8}	; <UNPREDICTABLE>
     238:	0b3a0e03 	bleq	e83a4c <__bss_end__+0xe7979c>
     23c:	19270b3b 	stmdbne	r7!, {r0, r1, r3, r4, r5, r8, r9, fp}
     240:	0000193c 	andeq	r1, r0, ip, lsr r9
     244:	01110100 	tsteq	r1, r0, lsl #2
     248:	0b130e25 	bleq	4c3ae4 <__bss_end__+0x4b9834>
     24c:	0e1b0e03 	cdpeq	14, 1, cr0, cr11, cr3, {0}
     250:	06120111 			; <UNDEFINED> instruction: 0x06120111
     254:	00001710 	andeq	r1, r0, r0, lsl r7
     258:	03001602 	movweq	r1, #1538	; 0x602
     25c:	3b0b3a0e 	blcc	2cea9c <__bss_end__+0x2c47ec>
     260:	0013490b 	andseq	r4, r3, fp, lsl #18
     264:	01130300 	tsteq	r3, r0, lsl #6
     268:	0b0b0e03 	bleq	2c3a7c <__bss_end__+0x2b97cc>
     26c:	0b3b0b3a 	bleq	ec2f5c <__bss_end__+0xeb8cac>
     270:	00001301 	andeq	r1, r0, r1, lsl #6
     274:	03000d04 	movweq	r0, #3332	; 0xd04
     278:	3813490e 	ldmdacc	r3, {r1, r2, r3, r8, fp, lr}
     27c:	0019340b 	andseq	r3, r9, fp, lsl #8
     280:	000f0500 	andeq	r0, pc, r0, lsl #10
     284:	00000b0b 	andeq	r0, r0, fp, lsl #22
     288:	0b002406 	bleq	92a8 <gpio_event_clear+0x48>
     28c:	030b3e0b 	movweq	r3, #48651	; 0xbe0b
     290:	07000008 	streq	r0, [r0, -r8]
     294:	0b0b0024 	bleq	2c032c <__bss_end__+0x2b607c>
     298:	0e030b3e 	vmoveq.16	d3[0], r0
     29c:	0f080000 	svceq	0x00080000
     2a0:	490b0b00 	stmdbmi	fp, {r8, r9, fp}
     2a4:	09000013 	stmdbeq	r0, {r0, r1, r4}
     2a8:	13490026 	movtne	r0, #36902	; 0x9026
     2ac:	2e0a0000 	cdpcs	0, 0, cr0, cr10, cr0, {0}
     2b0:	03193f01 	tsteq	r9, #1, 30
     2b4:	3b0b3a0e 	blcc	2ceaf4 <__bss_end__+0x2c4844>
     2b8:	4919270b 	ldmdbmi	r9, {r0, r1, r3, r8, r9, sl, sp}
     2bc:	12011113 	andne	r1, r1, #-1073741820	; 0xc0000004
     2c0:	97184006 	ldrls	r4, [r8, -r6]
     2c4:	13011942 	movwne	r1, #6466	; 0x1942
     2c8:	050b0000 	streq	r0, [fp, #-0]
     2cc:	3a080300 	bcc	200ed4 <__bss_end__+0x1f6c24>
     2d0:	490b3b0b 	stmdbmi	fp, {r0, r1, r3, r8, r9, fp, ip, sp}
     2d4:	00180213 	andseq	r0, r8, r3, lsl r2
     2d8:	00180c00 	andseq	r0, r8, r0, lsl #24
     2dc:	340d0000 	strcc	r0, [sp], #-0
     2e0:	3a080300 	bcc	200ee8 <__bss_end__+0x1f6c38>
     2e4:	490b3b0b 	stmdbmi	fp, {r0, r1, r3, r8, r9, fp, ip, sp}
     2e8:	00180213 	andseq	r0, r8, r3, lsl r2
     2ec:	00340e00 	eorseq	r0, r4, r0, lsl #28
     2f0:	0b3a0e03 	bleq	e83b04 <__bss_end__+0xe79854>
     2f4:	13490b3b 	movtne	r0, #39739	; 0x9b3b
     2f8:	00001802 	andeq	r1, r0, r2, lsl #16
     2fc:	0300340f 	movweq	r3, #1039	; 0x40f
     300:	3b0b3a08 	blcc	2ceb28 <__bss_end__+0x2c4878>
     304:	0213490b 	andseq	r4, r3, #180224	; 0x2c000
     308:	10000017 	andne	r0, r0, r7, lsl r0
     30c:	01018289 	smlabbeq	r1, r9, r2, r8
     310:	13310111 	teqne	r1, #1073741828	; 0x40000004
     314:	00001301 	andeq	r1, r0, r1, lsl #6
     318:	01828a11 	orreq	r8, r2, r1, lsl sl
     31c:	91180200 	tstls	r8, r0, lsl #4
     320:	00001842 	andeq	r1, r0, r2, asr #16
     324:	01828912 	orreq	r8, r2, r2, lsl r9
     328:	00011101 	andeq	r1, r1, r1, lsl #2
     32c:	01011300 	mrseq	r1, SP_irq
     330:	13011349 	movwne	r1, #4937	; 0x1349
     334:	21140000 	tstcs	r4, r0
     338:	2f134900 	svccs	0x00134900
     33c:	15000005 	strne	r0, [r0, #-5]
     340:	19270115 	stmdbne	r7!, {r0, r2, r4, r8}
     344:	13011349 	movwne	r1, #4937	; 0x1349
     348:	05160000 	ldreq	r0, [r6, #-0]
     34c:	00134900 	andseq	r4, r3, r0, lsl #18
     350:	00341700 	eorseq	r1, r4, r0, lsl #14
     354:	0b3a0e03 	bleq	e83b68 <__bss_end__+0xe798b8>
     358:	13490b3b 	movtne	r0, #39739	; 0x9b3b
     35c:	193c193f 	ldmdbne	ip!, {r0, r1, r2, r3, r4, r5, r8, fp, ip}
     360:	2e180000 	cdpcs	0, 1, cr0, cr8, cr0, {0}
     364:	03193f01 	tsteq	r9, #1, 30
     368:	3b0b3a0e 	blcc	2ceba8 <__bss_end__+0x2c48f8>
     36c:	4919270b 	ldmdbmi	r9, {r0, r1, r3, r8, r9, sl, sp}
     370:	00193c13 	andseq	r3, r9, r3, lsl ip
     374:	11010000 	mrsne	r0, (UNDEF: 1)
     378:	130e2501 	movwne	r2, #58625	; 0xe501
     37c:	1b0e030b 	blne	380fb0 <__bss_end__+0x376d00>
     380:	1201110e 	andne	r1, r1, #-2147483645	; 0x80000003
     384:	00171006 	andseq	r1, r7, r6
     388:	00240200 	eoreq	r0, r4, r0, lsl #4
     38c:	0b3e0b0b 	bleq	f82fc0 <__bss_end__+0xf78d10>
     390:	00000803 	andeq	r0, r0, r3, lsl #16
     394:	0b002403 	bleq	93a8 <sw_uart_putc+0xf0>
     398:	030b3e0b 	movweq	r3, #48651	; 0xbe0b
     39c:	0400000e 	streq	r0, [r0], #-14
     3a0:	0e03012e 	adfeqsp	f0, f3, #0.5
     3a4:	0b3b0b3a 	bleq	ec3094 <__bss_end__+0xeb8de4>
     3a8:	13491927 	movtne	r1, #39207	; 0x9927
     3ac:	06120111 			; <UNDEFINED> instruction: 0x06120111
     3b0:	42971840 	addsmi	r1, r7, #64, 16	; 0x400000
     3b4:	00130119 	andseq	r0, r3, r9, lsl r1
     3b8:	00050500 	andeq	r0, r5, r0, lsl #10
     3bc:	0b3a0803 	bleq	e823d0 <__bss_end__+0xe78120>
     3c0:	13490b3b 	movtne	r0, #39739	; 0x9b3b
     3c4:	00001702 	andeq	r1, r0, r2, lsl #14
     3c8:	01828906 	orreq	r8, r2, r6, lsl #18
     3cc:	31011101 	tstcc	r1, r1, lsl #2
     3d0:	07000013 	smladeq	r0, r3, r0, r0
     3d4:	0001828a 	andeq	r8, r1, sl, lsl #5
     3d8:	42911802 	addsmi	r1, r1, #131072	; 0x20000
     3dc:	08000018 	stmdaeq	r0, {r3, r4}
     3e0:	193f002e 	ldmdbne	pc!, {r1, r2, r3, r5}	; <UNPREDICTABLE>
     3e4:	0b3a0e03 	bleq	e83bf8 <__bss_end__+0xe79948>
     3e8:	19270b3b 	stmdbne	r7!, {r0, r1, r3, r4, r5, r8, r9, fp}
     3ec:	06120111 			; <UNDEFINED> instruction: 0x06120111
     3f0:	42971840 	addsmi	r1, r7, #64, 16	; 0x400000
     3f4:	09000019 	stmdbeq	r0, {r0, r3, r4}
     3f8:	193f012e 	ldmdbne	pc!, {r1, r2, r3, r5, r8}	; <UNPREDICTABLE>
     3fc:	0b3a0e03 	bleq	e83c10 <__bss_end__+0xe79960>
     400:	19270b3b 	stmdbne	r7!, {r0, r1, r3, r4, r5, r8, r9, fp}
     404:	06120111 			; <UNDEFINED> instruction: 0x06120111
     408:	42971840 	addsmi	r1, r7, #64, 16	; 0x400000
     40c:	00130119 	andseq	r0, r3, r9, lsl r1
     410:	00050a00 	andeq	r0, r5, r0, lsl #20
     414:	0b3a0803 	bleq	e82428 <__bss_end__+0xe78178>
     418:	13490b3b 	movtne	r0, #39739	; 0x9b3b
     41c:	00001802 	andeq	r1, r0, r2, lsl #16
     420:	2701150b 	strcs	r1, [r1, -fp, lsl #10]
     424:	01134919 	tsteq	r3, r9, lsl r9
     428:	0c000013 	stceq	0, cr0, [r0], {19}
     42c:	13490005 	movtne	r0, #36869	; 0x9005
     430:	0f0d0000 	svceq	0x000d0000
     434:	490b0b00 	stmdbmi	fp, {r8, r9, fp}
     438:	0e000013 	mcreq	0, 0, r0, cr0, cr3, {0}
     43c:	0e030034 	mcreq	0, 0, r0, cr3, cr4, {1}
     440:	0b3b0b3a 	bleq	ec3130 <__bss_end__+0xeb8e80>
     444:	193f1349 	ldmdbne	pc!, {r0, r3, r6, r8, r9, ip}	; <UNPREDICTABLE>
     448:	00001802 	andeq	r1, r0, r2, lsl #16
     44c:	3f012e0f 	svccc	0x00012e0f
     450:	3a0e0319 	bcc	3810bc <__bss_end__+0x376e0c>
     454:	270b3b0b 	strcs	r3, [fp, -fp, lsl #22]
     458:	00193c19 	andseq	r3, r9, r9, lsl ip
     45c:	11010000 	mrsne	r0, (UNDEF: 1)
     460:	130e2501 	movwne	r2, #58625	; 0xe501
     464:	1b0e030b 	blne	381098 <__bss_end__+0x376de8>
     468:	1201110e 	andne	r1, r1, #-2147483645	; 0x80000003
     46c:	00171006 	andseq	r1, r7, r6
     470:	00240200 	eoreq	r0, r4, r0, lsl #4
     474:	0b3e0b0b 	bleq	f830a8 <__bss_end__+0xf78df8>
     478:	00000803 	andeq	r0, r0, r3, lsl #16
     47c:	0b002403 	bleq	9490 <sw_uart_getc_timeout+0x84>
     480:	030b3e0b 	movweq	r3, #48651	; 0xbe0b
     484:	0400000e 	streq	r0, [r0], #-14
     488:	0b0b000f 	bleq	2c04cc <__bss_end__+0x2b621c>
     48c:	00001349 	andeq	r1, r0, r9, asr #6
     490:	49002605 	stmdbmi	r0, {r0, r2, r9, sl, sp}
     494:	06000013 			; <UNDEFINED> instruction: 0x06000013
     498:	193f012e 	ldmdbne	pc!, {r1, r2, r3, r5, r8}	; <UNPREDICTABLE>
     49c:	0b3a0e03 	bleq	e83cb0 <__bss_end__+0xe79a00>
     4a0:	19270b3b 	stmdbne	r7!, {r0, r1, r3, r4, r5, r8, r9, fp}
     4a4:	01111349 	tsteq	r1, r9, asr #6
     4a8:	18400612 	stmdane	r0, {r1, r4, r9, sl}^
     4ac:	01194296 			; <UNDEFINED> instruction: 0x01194296
     4b0:	07000013 	smladeq	r0, r3, r0, r0
     4b4:	08030005 	stmdaeq	r3, {r0, r2}
     4b8:	0b3b0b3a 	bleq	ec31a8 <__bss_end__+0xeb8ef8>
     4bc:	17021349 	strne	r1, [r2, -r9, asr #6]
     4c0:	15080000 	strne	r0, [r8, #-0]
     4c4:	49192701 	ldmdbmi	r9, {r0, r8, r9, sl, sp}
     4c8:	00130113 	andseq	r0, r3, r3, lsl r1
     4cc:	00050900 	andeq	r0, r5, r0, lsl #18
     4d0:	00001349 	andeq	r1, r0, r9, asr #6
     4d4:	0300340a 	movweq	r3, #1034	; 0x40a
     4d8:	3b0b3a0e 	blcc	2ced18 <__bss_end__+0x2c4a68>
     4dc:	3f13490b 	svccc	0x0013490b
     4e0:	00193c19 	andseq	r3, r9, r9, lsl ip
     4e4:	00340b00 	eorseq	r0, r4, r0, lsl #22
     4e8:	0b3a0e03 	bleq	e83cfc <__bss_end__+0xe79a4c>
     4ec:	13490b3b 	movtne	r0, #39739	; 0x9b3b
     4f0:	1802193f 	stmdane	r2, {r0, r1, r2, r3, r4, r5, r8, fp, ip}
     4f4:	01000000 	mrseq	r0, (UNDEF: 0)
     4f8:	0e250111 	mcreq	1, 1, r0, cr5, cr1, {0}
     4fc:	0e030b13 	vmoveq.32	d3[0], r0
     500:	01110e1b 	tsteq	r1, fp, lsl lr
     504:	17100612 			; <UNDEFINED> instruction: 0x17100612
     508:	24020000 	strcs	r0, [r2], #-0
     50c:	3e0b0b00 	vmlacc.f64	d0, d11, d0
     510:	0008030b 	andeq	r0, r8, fp, lsl #6
     514:	00240300 	eoreq	r0, r4, r0, lsl #6
     518:	0b3e0b0b 	bleq	f8314c <__bss_end__+0xf78e9c>
     51c:	00000e03 	andeq	r0, r0, r3, lsl #28
     520:	0b000f04 	bleq	4138 <_start-0x3ec8>
     524:	0500000b 	streq	r0, [r0, #-11]
     528:	0b0b000f 	bleq	2c056c <__bss_end__+0x2b62bc>
     52c:	00001349 	andeq	r1, r0, r9, asr #6
     530:	49002606 	stmdbmi	r0, {r1, r2, r9, sl, sp}
     534:	07000013 	smladeq	r0, r3, r0, r0
     538:	0e030016 	mcreq	0, 0, r0, cr3, cr6, {0}
     53c:	0b3b0b3a 	bleq	ec322c <__bss_end__+0xeb8f7c>
     540:	00001349 	andeq	r1, r0, r9, asr #6
     544:	03011308 	movweq	r1, #4872	; 0x1308
     548:	3a0b0b0e 	bcc	2c3188 <__bss_end__+0x2b8ed8>
     54c:	010b3b0b 	tsteq	fp, fp, lsl #22
     550:	09000013 	stmdbeq	r0, {r0, r1, r4}
     554:	0e03000d 	cdpeq	0, 0, cr0, cr3, cr13, {0}
     558:	0b381349 	bleq	e05284 <__bss_end__+0xdfafd4>
     55c:	00001934 	andeq	r1, r0, r4, lsr r9
     560:	03012e0a 	movweq	r2, #7690	; 0x1e0a
     564:	3b0b3a0e 	blcc	2ceda4 <__bss_end__+0x2c4af4>
     568:	4919270b 	ldmdbmi	r9, {r0, r1, r3, r8, r9, sl, sp}
     56c:	12011113 	andne	r1, r1, #-1073741820	; 0xc0000004
     570:	97184006 	ldrls	r4, [r8, -r6]
     574:	13011942 	movwne	r1, #6466	; 0x1942
     578:	050b0000 	streq	r0, [fp, #-0]
     57c:	3a080300 	bcc	201184 <__bss_end__+0x1f6ed4>
     580:	490b3b0b 	stmdbmi	fp, {r0, r1, r3, r8, r9, fp, ip, sp}
     584:	00170213 	andseq	r0, r7, r3, lsl r2
     588:	012e0c00 	teqeq	lr, r0, lsl #24
     58c:	0b3a0803 	bleq	e825a0 <__bss_end__+0xe782f0>
     590:	19270b3b 	stmdbne	r7!, {r0, r1, r3, r4, r5, r8, r9, fp}
     594:	01111349 	tsteq	r1, r9, asr #6
     598:	18400612 	stmdane	r0, {r1, r4, r9, sl}^
     59c:	01194297 			; <UNDEFINED> instruction: 0x01194297
     5a0:	0d000013 	stceq	0, cr0, [r0, #-76]	; 0xffffffb4
     5a4:	0e030005 	cdpeq	0, 0, cr0, cr3, cr5, {0}
     5a8:	0b3b0b3a 	bleq	ec3298 <__bss_end__+0xeb8fe8>
     5ac:	17021349 	strne	r1, [r2, -r9, asr #6]
     5b0:	050e0000 	streq	r0, [lr, #-0]
     5b4:	3a0e0300 	bcc	3811bc <__bss_end__+0x376f0c>
     5b8:	490b3b0b 	stmdbmi	fp, {r0, r1, r3, r8, r9, fp, ip, sp}
     5bc:	00180213 	andseq	r0, r8, r3, lsl r2
     5c0:	00340f00 	eorseq	r0, r4, r0, lsl #30
     5c4:	0b3a0803 	bleq	e825d8 <__bss_end__+0xe78328>
     5c8:	13490b3b 	movtne	r0, #39739	; 0x9b3b
     5cc:	00001802 	andeq	r1, r0, r2, lsl #16
     5d0:	03003410 	movweq	r3, #1040	; 0x410
     5d4:	3b0b3a08 	blcc	2cedfc <__bss_end__+0x2c4b4c>
     5d8:	0213490b 	andseq	r4, r3, #180224	; 0x2c000
     5dc:	11000017 	tstne	r0, r7, lsl r0
     5e0:	0e030034 	mcreq	0, 0, r0, cr3, cr4, {1}
     5e4:	19341349 	ldmdbne	r4!, {r0, r3, r6, r8, r9, ip}
     5e8:	00001802 	andeq	r1, r0, r2, lsl #16
     5ec:	11010b12 	tstne	r1, r2, lsl fp
     5f0:	01061201 	tsteq	r6, r1, lsl #4
     5f4:	13000013 	movwne	r0, #19
     5f8:	0e030034 	mcreq	0, 0, r0, cr3, cr4, {1}
     5fc:	0b3b0b3a 	bleq	ec32ec <__bss_end__+0xeb903c>
     600:	17021349 	strne	r1, [r2, -r9, asr #6]
     604:	89140000 	ldmdbhi	r4, {}	; <UNPREDICTABLE>
     608:	11000182 	smlabbne	r0, r2, r1, r0
     60c:	00133101 	andseq	r3, r3, r1, lsl #2
     610:	82891500 	addhi	r1, r9, #0, 10
     614:	01110101 	tsteq	r1, r1, lsl #2
     618:	13011331 	movwne	r1, #4913	; 0x1331
     61c:	8a160000 	bhi	580624 <__bss_end__+0x576374>
     620:	02000182 	andeq	r0, r0, #-2147483616	; 0x80000020
     624:	18429118 	stmdane	r2, {r3, r4, r8, ip, pc}^
     628:	89170000 	ldmdbhi	r7, {}	; <UNPREDICTABLE>
     62c:	11010182 	smlabbne	r1, r2, r1, r0
     630:	00133101 	andseq	r3, r3, r1, lsl #2
     634:	01011800 	tsteq	r1, r0, lsl #16
     638:	13011349 	movwne	r1, #4937	; 0x1349
     63c:	21190000 	tstcs	r9, r0
     640:	2f134900 	svccs	0x00134900
     644:	1a00000b 	bne	678 <_start-0x7988>
     648:	193f012e 	ldmdbne	pc!, {r1, r2, r3, r5, r8}	; <UNPREDICTABLE>
     64c:	0b3a0e03 	bleq	e83e60 <__bss_end__+0xe79bb0>
     650:	19270b3b 	stmdbne	r7!, {r0, r1, r3, r4, r5, r8, r9, fp}
     654:	06120111 			; <UNDEFINED> instruction: 0x06120111
     658:	42971840 	addsmi	r1, r7, #64, 16	; 0x400000
     65c:	00130119 	andseq	r0, r3, r9, lsl r1
     660:	01151b00 	tsteq	r5, r0, lsl #22
     664:	13491927 	movtne	r1, #39207	; 0x9927
     668:	00001301 	andeq	r1, r0, r1, lsl #6
     66c:	4900051c 	stmdbmi	r0, {r2, r3, r4, r8, sl}
     670:	1d000013 	stcne	0, cr0, [r0, #-76]	; 0xffffffb4
     674:	193f012e 	ldmdbne	pc!, {r1, r2, r3, r5, r8}	; <UNPREDICTABLE>
     678:	0b3a0e03 	bleq	e83e8c <__bss_end__+0xe79bdc>
     67c:	19270b3b 	stmdbne	r7!, {r0, r1, r3, r4, r5, r8, r9, fp}
     680:	01111349 	tsteq	r1, r9, asr #6
     684:	18400612 	stmdane	r0, {r1, r4, r9, sl}^
     688:	01194297 			; <UNDEFINED> instruction: 0x01194297
     68c:	1e000013 	mcrne	0, 0, r0, cr0, cr3, {0}
     690:	1755010b 	ldrbne	r0, [r5, -fp, lsl #2]
     694:	341f0000 	ldrcc	r0, [pc], #-0	; 69c <_start-0x7964>
     698:	3a0e0300 	bcc	3812a0 <__bss_end__+0x376ff0>
     69c:	490b3b0b 	stmdbmi	fp, {r0, r1, r3, r8, r9, fp, ip, sp}
     6a0:	3c193f13 	ldccc	15, cr3, [r9], {19}
     6a4:	20000019 	andcs	r0, r0, r9, lsl r0
     6a8:	193f002e 	ldmdbne	pc!, {r1, r2, r3, r5}	; <UNPREDICTABLE>
     6ac:	0b3a0e03 	bleq	e83ec0 <__bss_end__+0xe79c10>
     6b0:	19270b3b 	stmdbne	r7!, {r0, r1, r3, r4, r5, r8, r9, fp}
     6b4:	0000193c 	andeq	r1, r0, ip, lsr r9
     6b8:	3f012e21 	svccc	0x00012e21
     6bc:	3a0e0319 	bcc	381328 <__bss_end__+0x377078>
     6c0:	270b3b0b 	strcs	r3, [fp, -fp, lsl #22]
     6c4:	3c134919 	ldccc	9, cr4, [r3], {25}
     6c8:	00130119 	andseq	r0, r3, r9, lsl r1
     6cc:	00182200 	andseq	r2, r8, r0, lsl #4
     6d0:	01000000 	mrseq	r0, (UNDEF: 0)
     6d4:	0e250111 	mcreq	1, 1, r0, cr5, cr1, {0}
     6d8:	0e030b13 	vmoveq.32	d3[0], r0
     6dc:	01110e1b 	tsteq	r1, fp, lsl lr
     6e0:	17100612 			; <UNDEFINED> instruction: 0x17100612
     6e4:	24020000 	strcs	r0, [r2], #-0
     6e8:	3e0b0b00 	vmlacc.f64	d0, d11, d0
     6ec:	0008030b 	andeq	r0, r8, fp, lsl #6
     6f0:	00240300 	eoreq	r0, r4, r0, lsl #6
     6f4:	0b3e0b0b 	bleq	f83328 <__bss_end__+0xf79078>
     6f8:	00000e03 	andeq	r0, r0, r3, lsl #28
     6fc:	3f012e04 	svccc	0x00012e04
     700:	3a0e0319 	bcc	38136c <__bss_end__+0x3770bc>
     704:	270b3b0b 	strcs	r3, [fp, -fp, lsl #22]
     708:	12011119 	andne	r1, r1, #1073741830	; 0x40000006
     70c:	97184006 	ldrls	r4, [r8, -r6]
     710:	13011942 	movwne	r1, #6466	; 0x1942
     714:	34050000 	strcc	r0, [r5], #-0
     718:	3a080300 	bcc	201320 <__bss_end__+0x1f7070>
     71c:	490b3b0b 	stmdbmi	fp, {r0, r1, r3, r8, r9, fp, ip, sp}
     720:	00170213 	andseq	r0, r7, r3, lsl r2
     724:	012e0600 	teqeq	lr, r0, lsl #12
     728:	0e03193f 	mcreq	9, 0, r1, cr3, cr15, {1}
     72c:	0b3b0b3a 	bleq	ec341c <__bss_end__+0xeb916c>
     730:	01111927 	tsteq	r1, r7, lsr #18
     734:	18400612 	stmdane	r0, {r1, r4, r9, sl}^
     738:	00194297 	mulseq	r9, r7, r2
     73c:	11010000 	mrsne	r0, (UNDEF: 1)
     740:	130e2501 	movwne	r2, #58625	; 0xe501
     744:	1b0e030b 	blne	381378 <__bss_end__+0x3770c8>
     748:	1201110e 	andne	r1, r1, #-2147483645	; 0x80000003
     74c:	00171006 	andseq	r1, r7, r6
     750:	00240200 	eoreq	r0, r4, r0, lsl #4
     754:	0b3e0b0b 	bleq	f83388 <__bss_end__+0xf790d8>
     758:	00000803 	andeq	r0, r0, r3, lsl #16
     75c:	0b002403 	bleq	9770 <sw_uart_init_helper+0x68>
     760:	030b3e0b 	movweq	r3, #48651	; 0xbe0b
     764:	0400000e 	streq	r0, [r0], #-14
     768:	0b0b000f 	bleq	2c07ac <__bss_end__+0x2b64fc>
     76c:	00001349 	andeq	r1, r0, r9, asr #6
     770:	49002605 	stmdbmi	r0, {r0, r2, r9, sl, sp}
     774:	06000013 			; <UNDEFINED> instruction: 0x06000013
     778:	193f012e 	ldmdbne	pc!, {r1, r2, r3, r5, r8}	; <UNPREDICTABLE>
     77c:	0b3a0e03 	bleq	e83f90 <__bss_end__+0xe79ce0>
     780:	19270b3b 	stmdbne	r7!, {r0, r1, r3, r4, r5, r8, r9, fp}
     784:	06120111 			; <UNDEFINED> instruction: 0x06120111
     788:	42971840 	addsmi	r1, r7, #64, 16	; 0x400000
     78c:	00130119 	andseq	r0, r3, r9, lsl r1
     790:	82890700 	addhi	r0, r9, #0, 14
     794:	01110101 	tsteq	r1, r1, lsl #2
     798:	00001301 	andeq	r1, r0, r1, lsl #6
     79c:	01828a08 	orreq	r8, r2, r8, lsl #20
     7a0:	91180200 	tstls	r8, r0, lsl #4
     7a4:	00001842 	andeq	r1, r0, r2, asr #16
     7a8:	01828909 	orreq	r8, r2, r9, lsl #18
     7ac:	31011101 	tstcc	r1, r1, lsl #2
     7b0:	00130113 	andseq	r0, r3, r3, lsl r1
     7b4:	82890a00 	addhi	r0, r9, #0, 20
     7b8:	01110001 	tsteq	r1, r1
     7bc:	00001331 	andeq	r1, r0, r1, lsr r3
     7c0:	2701150b 	strcs	r1, [r1, -fp, lsl #10]
     7c4:	01134919 	tsteq	r3, r9, lsl r9
     7c8:	0c000013 	stceq	0, cr0, [r0], {19}
     7cc:	13490005 	movtne	r0, #36869	; 0x9005
     7d0:	340d0000 	strcc	r0, [sp], #-0
     7d4:	3a0e0300 	bcc	3813dc <__bss_end__+0x37712c>
     7d8:	490b3b0b 	stmdbmi	fp, {r0, r1, r3, r8, r9, fp, ip, sp}
     7dc:	3c193f13 	ldccc	15, cr3, [r9], {19}
     7e0:	0e000019 	mcreq	0, 0, r0, cr0, cr9, {0}
     7e4:	193f012e 	ldmdbne	pc!, {r1, r2, r3, r5, r8}	; <UNPREDICTABLE>
     7e8:	0b3a0e03 	bleq	e83ffc <__bss_end__+0xe79d4c>
     7ec:	19270b3b 	stmdbne	r7!, {r0, r1, r3, r4, r5, r8, r9, fp}
     7f0:	1301193c 	movwne	r1, #6460	; 0x193c
     7f4:	2e0f0000 	cdpcs	0, 0, cr0, cr15, cr0, {0}
     7f8:	03193f00 	tsteq	r9, #0, 30
     7fc:	3b0b3a0e 	blcc	2cf03c <__bss_end__+0x2c4d8c>
     800:	3c19270b 	ldccc	7, cr2, [r9], {11}
     804:	00000019 	andeq	r0, r0, r9, lsl r0
     808:	25011101 	strcs	r1, [r1, #-257]	; 0x101
     80c:	030b130e 	movweq	r1, #45838	; 0xb30e
     810:	110e1b0e 	tstne	lr, lr, lsl #22
     814:	10061201 	andne	r1, r6, r1, lsl #4
     818:	02000017 	andeq	r0, r0, #23
     81c:	0b0b0024 	bleq	2c08b4 <__bss_end__+0x2b6604>
     820:	08030b3e 	stmdaeq	r3, {r1, r2, r3, r4, r5, r8, r9, fp}
     824:	24030000 	strcs	r0, [r3], #-0
     828:	3e0b0b00 	vmlacc.f64	d0, d11, d0
     82c:	000e030b 	andeq	r0, lr, fp, lsl #6
     830:	00160400 	andseq	r0, r6, r0, lsl #8
     834:	0b3a0e03 	bleq	e84048 <__bss_end__+0xe79d98>
     838:	13490b3b 	movtne	r0, #39739	; 0x9b3b
     83c:	0f050000 	svceq	0x00050000
     840:	490b0b00 	stmdbmi	fp, {r8, r9, fp}
     844:	06000013 			; <UNDEFINED> instruction: 0x06000013
     848:	13490026 	movtne	r0, #36902	; 0x9026
     84c:	13070000 	movwne	r0, #28672	; 0x7000
     850:	3a0b0b01 	bcc	2c345c <__bss_end__+0x2b91ac>
     854:	010b3b0b 	tsteq	fp, fp, lsl #22
     858:	08000013 	stmdaeq	r0, {r0, r1, r4}
     85c:	0803000d 	stmdaeq	r3, {r0, r2, r3}
     860:	0b3b0b3a 	bleq	ec3550 <__bss_end__+0xeb92a0>
     864:	0b381349 	bleq	e05590 <__bss_end__+0xdfb2e0>
     868:	0d090000 	stceq	0, cr0, [r9, #-0]
     86c:	3a0e0300 	bcc	381474 <__bss_end__+0x3771c4>
     870:	490b3b0b 	stmdbmi	fp, {r0, r1, r3, r8, r9, fp, ip, sp}
     874:	000b3813 	andeq	r3, fp, r3, lsl r8
     878:	01040a00 	tsteq	r4, r0, lsl #20
     87c:	0b3a0b0b 	bleq	e834b0 <__bss_end__+0xe79200>
     880:	13010b3b 	movwne	r0, #6971	; 0x1b3b
     884:	280b0000 	stmdacs	fp, {}	; <UNPREDICTABLE>
     888:	1c0e0300 	stcne	3, cr0, [lr], {-0}
     88c:	0c00000d 	stceq	0, cr0, [r0], {13}
     890:	0e03012e 	adfeqsp	f0, f3, #0.5
     894:	0b3b0b3a 	bleq	ec3584 <__bss_end__+0xeb92d4>
     898:	13491927 	movtne	r1, #39207	; 0x9927
     89c:	06120111 			; <UNDEFINED> instruction: 0x06120111
     8a0:	42971840 	addsmi	r1, r7, #64, 16	; 0x400000
     8a4:	00130119 	andseq	r0, r3, r9, lsl r1
     8a8:	00050d00 	andeq	r0, r5, r0, lsl #26
     8ac:	0b3a0803 	bleq	e828c0 <__bss_end__+0xe78610>
     8b0:	13490b3b 	movtne	r0, #39739	; 0x9b3b
     8b4:	00001702 	andeq	r1, r0, r2, lsl #14
     8b8:	0182890e 	orreq	r8, r2, lr, lsl #18
     8bc:	31011101 	tstcc	r1, r1, lsl #2
     8c0:	0f000013 	svceq	0x00000013
     8c4:	0001828a 	andeq	r8, r1, sl, lsl #5
     8c8:	42911802 	addsmi	r1, r1, #131072	; 0x20000
     8cc:	10000018 	andne	r0, r0, r8, lsl r0
     8d0:	193f012e 	ldmdbne	pc!, {r1, r2, r3, r5, r8}	; <UNPREDICTABLE>
     8d4:	0b3a0e03 	bleq	e840e8 <__bss_end__+0xe79e38>
     8d8:	01110b3b 	tsteq	r1, fp, lsr fp
     8dc:	18400612 	stmdane	r0, {r1, r4, r9, sl}^
     8e0:	01194297 			; <UNDEFINED> instruction: 0x01194297
     8e4:	11000013 	tstne	r0, r3, lsl r0
     8e8:	0e030034 	mcreq	0, 0, r0, cr3, cr4, {1}
     8ec:	0b3b0b3a 	bleq	ec35dc <__bss_end__+0xeb932c>
     8f0:	193f1349 	ldmdbne	pc!, {r0, r3, r6, r8, r9, ip}	; <UNPREDICTABLE>
     8f4:	0000193c 	andeq	r1, r0, ip, lsr r9
     8f8:	3f002e12 	svccc	0x00002e12
     8fc:	3a0e0319 	bcc	381568 <__bss_end__+0x3772b8>
     900:	270b3b0b 	strcs	r3, [fp, -fp, lsl #22]
     904:	00193c19 	andseq	r3, r9, r9, lsl ip
     908:	00341300 	eorseq	r1, r4, r0, lsl #6
     90c:	0b3a0803 	bleq	e82920 <__bss_end__+0xe78670>
     910:	13490b3b 	movtne	r0, #39739	; 0x9b3b
     914:	00001702 	andeq	r1, r0, r2, lsl #14
     918:	03003414 	movweq	r3, #1044	; 0x414
     91c:	3b0b3a0e 	blcc	2cf15c <__bss_end__+0x2c4eac>
     920:	0013490b 	andseq	r4, r3, fp, lsl #18
     924:	82891500 	addhi	r1, r9, #0, 10
     928:	01110001 	tsteq	r1, r1
     92c:	00001331 	andeq	r1, r0, r1, lsr r3
     930:	01828916 	orreq	r8, r2, r6, lsl r9
     934:	31011101 	tstcc	r1, r1, lsl #2
     938:	00130113 	andseq	r0, r3, r3, lsl r1
     93c:	00341700 	eorseq	r1, r4, r0, lsl #14
     940:	0b3a0e03 	bleq	e84154 <__bss_end__+0xe79ea4>
     944:	13490b3b 	movtne	r0, #39739	; 0x9b3b
     948:	00001802 	andeq	r1, r0, r2, lsl #16
     94c:	27011518 	smladcs	r1, r8, r5, r1
     950:	01134919 	tsteq	r3, r9, lsl r9
     954:	19000013 	stmdbne	r0, {r0, r1, r4}
     958:	13490005 	movtne	r0, #36869	; 0x9005
     95c:	2e1a0000 	cdpcs	0, 1, cr0, cr10, cr0, {0}
     960:	03193f01 	tsteq	r9, #1, 30
     964:	3b0b3a0e 	blcc	2cf1a4 <__bss_end__+0x2c4ef4>
     968:	3c19270b 	ldccc	7, cr2, [r9], {11}
     96c:	00130119 	andseq	r0, r3, r9, lsl r1
     970:	002e1b00 	eoreq	r1, lr, r0, lsl #22
     974:	0e03193f 	mcreq	9, 0, r1, cr3, cr15, {1}
     978:	0b3b0b3a 	bleq	ec3668 <__bss_end__+0xeb93b8>
     97c:	13491927 	movtne	r1, #39207	; 0x9927
     980:	0000193c 	andeq	r1, r0, ip, lsr r9
     984:	3f012e1c 	svccc	0x00012e1c
     988:	3a0e0319 	bcc	3815f4 <__bss_end__+0x377344>
     98c:	270b3b0b 	strcs	r3, [fp, -fp, lsl #22]
     990:	3c134919 	ldccc	9, cr4, [r3], {25}
     994:	00130119 	andseq	r0, r3, r9, lsl r1
     998:	00181d00 	andseq	r1, r8, r0, lsl #26
     99c:	01000000 	mrseq	r0, (UNDEF: 0)
     9a0:	0e250111 	mcreq	1, 1, r0, cr5, cr1, {0}
     9a4:	0e030b13 	vmoveq.32	d3[0], r0
     9a8:	17550e1b 	smmlane	r5, fp, lr, r0
     9ac:	17100111 			; <UNDEFINED> instruction: 0x17100111
     9b0:	24020000 	strcs	r0, [r2], #-0
     9b4:	3e0b0b00 	vmlacc.f64	d0, d11, d0
     9b8:	0008030b 	andeq	r0, r8, fp, lsl #6
     9bc:	00240300 	eoreq	r0, r4, r0, lsl #6
     9c0:	0b3e0b0b 	bleq	f835f4 <__bss_end__+0xf79344>
     9c4:	00000e03 	andeq	r0, r0, r3, lsl #28
     9c8:	3f012e04 	svccc	0x00012e04
     9cc:	3a0e0319 	bcc	381638 <__bss_end__+0x377388>
     9d0:	270b3b0b 	strcs	r3, [fp, -fp, lsl #22]
     9d4:	11134919 	tstne	r3, r9, lsl r9
     9d8:	40061201 	andmi	r1, r6, r1, lsl #4
     9dc:	19429718 	stmdbne	r2, {r3, r4, r8, r9, sl, ip, pc}^
     9e0:	00001301 	andeq	r1, r0, r1, lsl #6
     9e4:	03003405 	movweq	r3, #1029	; 0x405
     9e8:	3b0b3a0e 	blcc	2cf228 <__bss_end__+0x2c4f78>
     9ec:	0213490b 	andseq	r4, r3, #180224	; 0x2c000
     9f0:	06000017 			; <UNDEFINED> instruction: 0x06000017
     9f4:	193f012e 	ldmdbne	pc!, {r1, r2, r3, r5, r8}	; <UNPREDICTABLE>
     9f8:	0b3a0e03 	bleq	e8420c <__bss_end__+0xe79f5c>
     9fc:	19270b3b 	stmdbne	r7!, {r0, r1, r3, r4, r5, r8, r9, fp}
     a00:	06120111 			; <UNDEFINED> instruction: 0x06120111
     a04:	42971840 	addsmi	r1, r7, #64, 16	; 0x400000
     a08:	00130119 	andseq	r0, r3, r9, lsl r1
     a0c:	00340700 	eorseq	r0, r4, r0, lsl #14
     a10:	0b3a0e03 	bleq	e84224 <__bss_end__+0xe79f74>
     a14:	13490b3b 	movtne	r0, #39739	; 0x9b3b
     a18:	0000061c 	andeq	r0, r0, ip, lsl r6
     a1c:	03003408 	movweq	r3, #1032	; 0x408
     a20:	3b0b3a0e 	blcc	2cf260 <__bss_end__+0x2c4fb0>
     a24:	1c13490b 	ldcne	9, cr4, [r3], {11}
     a28:	0900000b 	stmdbeq	r0, {r0, r1, r3}
     a2c:	00018289 	andeq	r8, r1, r9, lsl #5
     a30:	13310111 	teqne	r1, #1073741828	; 0x40000004
     a34:	890a0000 	stmdbhi	sl, {}	; <UNPREDICTABLE>
     a38:	11010182 	smlabbne	r1, r2, r1, r0
     a3c:	01133101 	tsteq	r3, r1, lsl #2
     a40:	0b000013 	bleq	a94 <_start-0x756c>
     a44:	0001828a 	andeq	r8, r1, sl, lsl #5
     a48:	42911802 	addsmi	r1, r1, #131072	; 0x20000
     a4c:	0c000018 	stceq	0, cr0, [r0], {24}
     a50:	01018289 	smlabbeq	r1, r9, r2, r8
     a54:	13310111 	teqne	r1, #1073741828	; 0x40000004
     a58:	260d0000 	strcs	r0, [sp], -r0
     a5c:	00134900 	andseq	r4, r3, r0, lsl #18
     a60:	012e0e00 	teqeq	lr, r0, lsl #28
     a64:	0e03193f 	mcreq	9, 0, r1, cr3, cr15, {1}
     a68:	0b3b0b3a 	bleq	ec3758 <__bss_end__+0xeb94a8>
     a6c:	193c1927 	ldmdbne	ip!, {r0, r1, r2, r5, r8, fp, ip}
     a70:	00001301 	andeq	r1, r0, r1, lsl #6
     a74:	4900050f 	stmdbmi	r0, {r0, r1, r2, r3, r8, sl}
     a78:	10000013 	andne	r0, r0, r3, lsl r0
     a7c:	193f012e 	ldmdbne	pc!, {r1, r2, r3, r5, r8}	; <UNPREDICTABLE>
     a80:	0b3a0e03 	bleq	e84294 <__bss_end__+0xe79fe4>
     a84:	19270b3b 	stmdbne	r7!, {r0, r1, r3, r4, r5, r8, r9, fp}
     a88:	0000193c 	andeq	r1, r0, ip, lsr r9
     a8c:	01110100 	tsteq	r1, r0, lsl #2
     a90:	0b130e25 	bleq	4c432c <__bss_end__+0x4ba07c>
     a94:	0e1b0e03 	cdpeq	14, 1, cr0, cr11, cr3, {0}
     a98:	06120111 			; <UNDEFINED> instruction: 0x06120111
     a9c:	00001710 	andeq	r1, r0, r0, lsl r7
     aa0:	0b002402 	bleq	9ab0 <put8+0x4>
     aa4:	030b3e0b 	movweq	r3, #48651	; 0xbe0b
     aa8:	03000008 	movweq	r0, #8
     aac:	0b0b0024 	bleq	2c0b44 <__bss_end__+0x2b6894>
     ab0:	0e030b3e 	vmoveq.16	d3[0], r0
     ab4:	2e040000 	cdpcs	0, 0, cr0, cr4, cr0, {0}
     ab8:	03193f01 	tsteq	r9, #1, 30
     abc:	3b0b3a0e 	blcc	2cf2fc <__bss_end__+0x2c504c>
     ac0:	1119270b 	tstne	r9, fp, lsl #14
     ac4:	40061201 	andmi	r1, r6, r1, lsl #4
     ac8:	19429718 	stmdbne	r2, {r3, r4, r8, r9, sl, ip, pc}^
     acc:	00001301 	andeq	r1, r0, r1, lsl #6
     ad0:	03000505 	movweq	r0, #1285	; 0x505
     ad4:	3b0b3a0e 	blcc	2cf314 <__bss_end__+0x2c5064>
     ad8:	0213490b 	andseq	r4, r3, #180224	; 0x2c000
     adc:	06000017 			; <UNDEFINED> instruction: 0x06000017
     ae0:	193f012e 	ldmdbne	pc!, {r1, r2, r3, r5, r8}	; <UNPREDICTABLE>
     ae4:	0b3a0e03 	bleq	e842f8 <__bss_end__+0xe7a048>
     ae8:	19270b3b 	stmdbne	r7!, {r0, r1, r3, r4, r5, r8, r9, fp}
     aec:	01111349 	tsteq	r1, r9, asr #6
     af0:	18400612 	stmdane	r0, {r1, r4, r9, sl}^
     af4:	01194297 			; <UNDEFINED> instruction: 0x01194297
     af8:	07000013 	smladeq	r0, r3, r0, r0
     afc:	01018289 	smlabbeq	r1, r9, r2, r8
     b00:	13310111 	teqne	r1, #1073741828	; 0x40000004
     b04:	8a080000 	bhi	200b0c <__bss_end__+0x1f685c>
     b08:	02000182 	andeq	r0, r0, #-2147483616	; 0x80000020
     b0c:	18429118 	stmdane	r2, {r3, r4, r8, ip, pc}^
     b10:	34090000 	strcc	r0, [r9], #-0
     b14:	3a080300 	bcc	20171c <__bss_end__+0x1f746c>
     b18:	490b3b0b 	stmdbmi	fp, {r0, r1, r3, r8, r9, fp, ip, sp}
     b1c:	00180213 	andseq	r0, r8, r3, lsl r2
     b20:	82890a00 	addhi	r0, r9, #0, 20
     b24:	01110001 	tsteq	r1, r1
     b28:	00001331 	andeq	r1, r0, r1, lsr r3
     b2c:	0300050b 	movweq	r0, #1291	; 0x50b
     b30:	3b0b3a08 	blcc	2cf358 <__bss_end__+0x2c50a8>
     b34:	0213490b 	andseq	r4, r3, #180224	; 0x2c000
     b38:	0c000017 	stceq	0, cr0, [r0], {23}
     b3c:	0111010b 	tsteq	r1, fp, lsl #2
     b40:	13010612 	movwne	r0, #5650	; 0x1612
     b44:	340d0000 	strcc	r0, [sp], #-0
     b48:	3a080300 	bcc	201750 <__bss_end__+0x1f74a0>
     b4c:	490b3b0b 	stmdbmi	fp, {r0, r1, r3, r8, r9, fp, ip, sp}
     b50:	00170213 	andseq	r0, r7, r3, lsl r2
     b54:	012e0e00 	teqeq	lr, r0, lsl #28
     b58:	0e03193f 	mcreq	9, 0, r1, cr3, cr15, {1}
     b5c:	0b3b0b3a 	bleq	ec384c <__bss_end__+0xeb959c>
     b60:	13491927 	movtne	r1, #39207	; 0x9927
     b64:	0000193c 	andeq	r1, r0, ip, lsr r9
     b68:	4900050f 	stmdbmi	r0, {r0, r1, r2, r3, r8, sl}
     b6c:	00000013 	andeq	r0, r0, r3, lsl r0
     b70:	25011101 	strcs	r1, [r1, #-257]	; 0x101
     b74:	030b130e 	movweq	r1, #45838	; 0xb30e
     b78:	110e1b0e 	tstne	lr, lr, lsl #22
     b7c:	10061201 	andne	r1, r6, r1, lsl #4
     b80:	02000017 	andeq	r0, r0, #23
     b84:	0b0b0024 	bleq	2c0c1c <__bss_end__+0x2b696c>
     b88:	0e030b3e 	vmoveq.16	d3[0], r0
     b8c:	24030000 	strcs	r0, [r3], #-0
     b90:	3e0b0b00 	vmlacc.f64	d0, d11, d0
     b94:	0008030b 	andeq	r0, r8, fp, lsl #6
     b98:	01040400 	tsteq	r4, r0, lsl #8
     b9c:	0b3a0b0b 	bleq	e837d0 <__bss_end__+0xe79520>
     ba0:	13010b3b 	movwne	r0, #6971	; 0x1b3b
     ba4:	28050000 	stmdacs	r5, {}	; <UNPREDICTABLE>
     ba8:	1c0e0300 	stcne	3, cr0, [lr], {-0}
     bac:	0600000d 	streq	r0, [r0], -sp
     bb0:	0e030016 	mcreq	0, 0, r0, cr3, cr6, {0}
     bb4:	0b3b0b3a 	bleq	ec38a4 <__bss_end__+0xeb95f4>
     bb8:	00001349 	andeq	r1, r0, r9, asr #6
     bbc:	3f012e07 	svccc	0x00012e07
     bc0:	3a0e0319 	bcc	38182c <__bss_end__+0x37757c>
     bc4:	270b3b0b 	strcs	r3, [fp, -fp, lsl #22]
     bc8:	12011119 	andne	r1, r1, #1073741830	; 0x40000006
     bcc:	97184006 	ldrls	r4, [r8, -r6]
     bd0:	13011942 	movwne	r1, #6466	; 0x1942
     bd4:	05080000 	streq	r0, [r8, #-0]
     bd8:	3a080300 	bcc	2017e0 <__bss_end__+0x1f7530>
     bdc:	490b3b0b 	stmdbmi	fp, {r0, r1, r3, r8, r9, fp, ip, sp}
     be0:	00170213 	andseq	r0, r7, r3, lsl r2
     be4:	00340900 	eorseq	r0, r4, r0, lsl #18
     be8:	0b3a0e03 	bleq	e843fc <__bss_end__+0xe7a14c>
     bec:	13490b3b 	movtne	r0, #39739	; 0x9b3b
     bf0:	00001702 	andeq	r1, r0, r2, lsl #14
     bf4:	0182890a 	orreq	r8, r2, sl, lsl #18
     bf8:	31011101 	tstcc	r1, r1, lsl #2
     bfc:	00130113 	andseq	r0, r3, r3, lsl r1
     c00:	828a0b00 	addhi	r0, sl, #0, 22
     c04:	18020001 	stmdane	r2, {r0}
     c08:	00184291 	mulseq	r8, r1, r2
     c0c:	82890c00 	addhi	r0, r9, #0, 24
     c10:	01110101 	tsteq	r1, r1, lsl #2
     c14:	00001331 	andeq	r1, r0, r1, lsr r3
     c18:	0b000f0d 	bleq	4854 <_start-0x37ac>
     c1c:	0013490b 	andseq	r4, r3, fp, lsl #18
     c20:	00350e00 	eorseq	r0, r5, r0, lsl #28
     c24:	00001349 	andeq	r1, r0, r9, asr #6
     c28:	3f012e0f 	svccc	0x00012e0f
     c2c:	3a0e0319 	bcc	381898 <__bss_end__+0x3775e8>
     c30:	270b3b0b 	strcs	r3, [fp, -fp, lsl #22]
     c34:	11134919 	tstne	r3, r9, lsl r9
     c38:	40061201 	andmi	r1, r6, r1, lsl #4
     c3c:	19429718 	stmdbne	r2, {r3, r4, r8, r9, sl, ip, pc}^
     c40:	00001301 	andeq	r1, r0, r1, lsl #6
     c44:	03003410 	movweq	r3, #1040	; 0x410
     c48:	3b0b3a08 	blcc	2cf470 <__bss_end__+0x2c51c0>
     c4c:	0213490b 	andseq	r4, r3, #180224	; 0x2c000
     c50:	11000017 	tstne	r0, r7, lsl r0
     c54:	00018289 	andeq	r8, r1, r9, lsl #5
     c58:	13310111 	teqne	r1, #1073741828	; 0x40000004
     c5c:	05120000 	ldreq	r0, [r2, #-0]
     c60:	3a0e0300 	bcc	381868 <__bss_end__+0x3775b8>
     c64:	490b3b0b 	stmdbmi	fp, {r0, r1, r3, r8, r9, fp, ip, sp}
     c68:	00170213 	andseq	r0, r7, r3, lsl r2
     c6c:	012e1300 	teqeq	lr, r0, lsl #6
     c70:	0e03193f 	mcreq	9, 0, r1, cr3, cr15, {1}
     c74:	053b0b3a 	ldreq	r0, [fp, #-2874]!	; 0xb3a
     c78:	13491927 	movtne	r1, #39207	; 0x9927
     c7c:	06120111 			; <UNDEFINED> instruction: 0x06120111
     c80:	42971840 	addsmi	r1, r7, #64, 16	; 0x400000
     c84:	00130119 	andseq	r0, r3, r9, lsl r1
     c88:	00051400 	andeq	r1, r5, r0, lsl #8
     c8c:	0b3a0e03 	bleq	e844a0 <__bss_end__+0xe7a1f0>
     c90:	1349053b 	movtne	r0, #38203	; 0x953b
     c94:	00001702 	andeq	r1, r0, r2, lsl #14
     c98:	3f012e15 	svccc	0x00012e15
     c9c:	3a0e0319 	bcc	381908 <__bss_end__+0x377658>
     ca0:	27053b0b 	strcs	r3, [r5, -fp, lsl #22]
     ca4:	12011119 	andne	r1, r1, #1073741830	; 0x40000006
     ca8:	97184006 	ldrls	r4, [r8, -r6]
     cac:	13011942 	movwne	r1, #6466	; 0x1942
     cb0:	05160000 	ldreq	r0, [r6, #-0]
     cb4:	3a080300 	bcc	2018bc <__bss_end__+0x1f760c>
     cb8:	49053b0b 	stmdbmi	r5, {r0, r1, r3, r8, r9, fp, ip, sp}
     cbc:	00170213 	andseq	r0, r7, r3, lsl r2
     cc0:	00341700 	eorseq	r1, r4, r0, lsl #14
     cc4:	0b3a0e03 	bleq	e844d8 <__bss_end__+0xe7a228>
     cc8:	1349053b 	movtne	r0, #38203	; 0x953b
     ccc:	00001702 	andeq	r1, r0, r2, lsl #14
     cd0:	11010b18 	tstne	r1, r8, lsl fp
     cd4:	01061201 	tsteq	r6, r1, lsl #4
     cd8:	19000013 	stmdbne	r0, {r0, r1, r4}
     cdc:	0e030034 	mcreq	0, 0, r0, cr3, cr4, {1}
     ce0:	0b3b0b3a 	bleq	ec39d0 <__bss_end__+0xeb9720>
     ce4:	193f1349 	ldmdbne	pc!, {r0, r3, r6, r8, r9, ip}	; <UNPREDICTABLE>
     ce8:	00001802 	andeq	r1, r0, r2, lsl #16
     cec:	0300341a 	movweq	r3, #1050	; 0x41a
     cf0:	3b0b3a0e 	blcc	2cf530 <__bss_end__+0x2c5280>
     cf4:	3f134905 	svccc	0x00134905
     cf8:	00180219 	andseq	r0, r8, r9, lsl r2
     cfc:	012e1b00 	teqeq	lr, r0, lsl #22
     d00:	0e03193f 	mcreq	9, 0, r1, cr3, cr15, {1}
     d04:	0b3b0b3a 	bleq	ec39f4 <__bss_end__+0xeb9744>
     d08:	13491927 	movtne	r1, #39207	; 0x9927
     d0c:	1301193c 	movwne	r1, #6460	; 0x193c
     d10:	051c0000 	ldreq	r0, [ip, #-0]
     d14:	00134900 	andseq	r4, r3, r0, lsl #18
     d18:	00261d00 	eoreq	r1, r6, r0, lsl #26
     d1c:	00001349 	andeq	r1, r0, r9, asr #6
     d20:	0000351e 	andeq	r3, r0, lr, lsl r5
     d24:	012e1f00 	teqeq	lr, r0, lsl #30
     d28:	0e03193f 	mcreq	9, 0, r1, cr3, cr15, {1}
     d2c:	0b3b0b3a 	bleq	ec3a1c <__bss_end__+0xeb976c>
     d30:	193c1927 	ldmdbne	ip!, {r0, r1, r2, r5, r8, fp, ip}
     d34:	00001301 	andeq	r1, r0, r1, lsl #6
     d38:	3f002e20 	svccc	0x00002e20
     d3c:	3a0e0319 	bcc	3819a8 <__bss_end__+0x3776f8>
     d40:	270b3b0b 	strcs	r3, [fp, -fp, lsl #22]
     d44:	00193c19 	andseq	r3, r9, r9, lsl ip
     d48:	11010000 	mrsne	r0, (UNDEF: 1)
     d4c:	130e2501 	movwne	r2, #58625	; 0xe501
     d50:	1b0e030b 	blne	381984 <__bss_end__+0x3776d4>
     d54:	1201110e 	andne	r1, r1, #-2147483645	; 0x80000003
     d58:	00171006 	andseq	r1, r7, r6
     d5c:	00240200 	eoreq	r0, r4, r0, lsl #4
     d60:	0b3e0b0b 	bleq	f83994 <__bss_end__+0xf796e4>
     d64:	00000803 	andeq	r0, r0, r3, lsl #16
     d68:	0b002403 	bleq	9d7c <__FUNCTION__.4287+0xfc>
     d6c:	030b3e0b 	movweq	r3, #48651	; 0xbe0b
     d70:	0400000e 	streq	r0, [r0], #-14
     d74:	0e030016 	mcreq	0, 0, r0, cr3, cr6, {0}
     d78:	0b3b0b3a 	bleq	ec3a68 <__bss_end__+0xeb97b8>
     d7c:	00001349 	andeq	r1, r0, r9, asr #6
     d80:	0b000f05 	bleq	499c <_start-0x3664>
     d84:	0600000b 	streq	r0, [r0], -fp
     d88:	0b0b000f 	bleq	2c0dcc <__bss_end__+0x2b6b1c>
     d8c:	00001349 	andeq	r1, r0, r9, asr #6
     d90:	49002607 	stmdbmi	r0, {r0, r1, r2, r9, sl, sp}
     d94:	08000013 	stmdaeq	r0, {r0, r1, r4}
     d98:	0b0b0113 	bleq	2c11ec <__bss_end__+0x2b6f3c>
     d9c:	0b3b0b3a 	bleq	ec3a8c <__bss_end__+0xeb97dc>
     da0:	00001301 	andeq	r1, r0, r1, lsl #6
     da4:	03000d09 	movweq	r0, #3337	; 0xd09
     da8:	3b0b3a08 	blcc	2cf5d0 <__bss_end__+0x2c5320>
     dac:	3813490b 	ldmdacc	r3, {r0, r1, r3, r8, fp, lr}
     db0:	0a00000b 	beq	de4 <_start-0x721c>
     db4:	0e03000d 	cdpeq	0, 0, cr0, cr3, cr13, {0}
     db8:	0b3b0b3a 	bleq	ec3aa8 <__bss_end__+0xeb97f8>
     dbc:	0b381349 	bleq	e05ae8 <__bss_end__+0xdfb838>
     dc0:	130b0000 	movwne	r0, #45056	; 0xb000
     dc4:	0b0e0301 	bleq	3819d0 <__bss_end__+0x377720>
     dc8:	3b0b3a0b 	blcc	2cf5fc <__bss_end__+0x2c534c>
     dcc:	0013010b 	andseq	r0, r3, fp, lsl #2
     dd0:	000d0c00 	andeq	r0, sp, r0, lsl #24
     dd4:	13490e03 	movtne	r0, #40451	; 0x9e03
     dd8:	19340b38 	ldmdbne	r4!, {r3, r4, r5, r8, r9, fp}
     ddc:	2e0d0000 	cdpcs	0, 0, cr0, cr13, cr0, {0}
     de0:	3a0e0301 	bcc	3819ec <__bss_end__+0x37773c>
     de4:	270b3b0b 	strcs	r3, [fp, -fp, lsl #22]
     de8:	010b2019 	tsteq	fp, r9, lsl r0
     dec:	0e000013 	mcreq	0, 0, r0, cr0, cr3, {0}
     df0:	0e030005 	cdpeq	0, 0, cr0, cr3, cr5, {0}
     df4:	0b3b0b3a 	bleq	ec3ae4 <__bss_end__+0xeb9834>
     df8:	00001349 	andeq	r1, r0, r9, asr #6
     dfc:	0300050f 	movweq	r0, #1295	; 0x50f
     e00:	3b0b3a08 	blcc	2cf628 <__bss_end__+0x2c5378>
     e04:	0013490b 	andseq	r4, r3, fp, lsl #18
     e08:	010b1000 	mrseq	r1, (UNDEF: 11)
     e0c:	34110000 	ldrcc	r0, [r1], #-0
     e10:	3a0e0300 	bcc	381a18 <__bss_end__+0x377768>
     e14:	490b3b0b 	stmdbmi	fp, {r0, r1, r3, r8, r9, fp, ip, sp}
     e18:	12000013 	andne	r0, r0, #19
     e1c:	193f012e 	ldmdbne	pc!, {r1, r2, r3, r5, r8}	; <UNPREDICTABLE>
     e20:	0b3a0e03 	bleq	e84634 <__bss_end__+0xe7a384>
     e24:	19270b3b 	stmdbne	r7!, {r0, r1, r3, r4, r5, r8, r9, fp}
     e28:	06120111 			; <UNDEFINED> instruction: 0x06120111
     e2c:	42971840 	addsmi	r1, r7, #64, 16	; 0x400000
     e30:	00130119 	andseq	r0, r3, r9, lsl r1
     e34:	00051300 	andeq	r1, r5, r0, lsl #6
     e38:	0b3a0e03 	bleq	e8464c <__bss_end__+0xe7a39c>
     e3c:	13490b3b 	movtne	r0, #39739	; 0x9b3b
     e40:	00001702 	andeq	r1, r0, r2, lsl #14
     e44:	03000514 	movweq	r0, #1300	; 0x514
     e48:	3b0b3a08 	blcc	2cf670 <__bss_end__+0x2c53c0>
     e4c:	0213490b 	andseq	r4, r3, #180224	; 0x2c000
     e50:	15000017 	strne	r0, [r0, #-23]
     e54:	08030034 	stmdaeq	r3, {r2, r4, r5}
     e58:	0b3b0b3a 	bleq	ec3b48 <__bss_end__+0xeb9898>
     e5c:	18021349 	stmdane	r2, {r0, r3, r6, r8, r9, ip}
     e60:	34160000 	ldrcc	r0, [r6], #-0
     e64:	3a080300 	bcc	201a6c <__bss_end__+0x1f77bc>
     e68:	490b3b0b 	stmdbmi	fp, {r0, r1, r3, r8, r9, fp, ip, sp}
     e6c:	00170213 	andseq	r0, r7, r3, lsl r2
     e70:	010b1700 	tsteq	fp, r0, lsl #14
     e74:	06120111 			; <UNDEFINED> instruction: 0x06120111
     e78:	00001301 	andeq	r1, r0, r1, lsl #6
     e7c:	03003418 	movweq	r3, #1048	; 0x418
     e80:	3b0b3a0e 	blcc	2cf6c0 <__bss_end__+0x2c5410>
     e84:	0213490b 	andseq	r4, r3, #180224	; 0x2c000
     e88:	19000018 	stmdbne	r0, {r3, r4}
     e8c:	1331011d 	teqne	r1, #1073741831	; 0x40000007
     e90:	06120111 			; <UNDEFINED> instruction: 0x06120111
     e94:	0b590b58 	bleq	1643bfc <__bss_end__+0x163994c>
     e98:	00001301 	andeq	r1, r0, r1, lsl #6
     e9c:	3100051a 	tstcc	r0, sl, lsl r5
     ea0:	00170213 	andseq	r0, r7, r3, lsl r2
     ea4:	00051b00 	andeq	r1, r5, r0, lsl #22
     ea8:	18021331 	stmdane	r2, {r0, r4, r5, r8, r9, ip}
     eac:	051c0000 	ldreq	r0, [ip, #-0]
     eb0:	1c133100 	ldfnes	f3, [r3], {-0}
     eb4:	1d00000b 	stcne	0, cr0, [r0, #-44]	; 0xffffffd4
     eb8:	0111010b 	tsteq	r1, fp, lsl #2
     ebc:	00000612 	andeq	r0, r0, r2, lsl r6
     ec0:	3100341e 	tstcc	r0, lr, lsl r4
     ec4:	00170213 	andseq	r0, r7, r3, lsl r2
     ec8:	82891f00 	addhi	r1, r9, #0, 30
     ecc:	01110101 	tsteq	r1, r1, lsl #2
     ed0:	00001331 	andeq	r1, r0, r1, lsr r3
     ed4:	01828a20 	orreq	r8, r2, r0, lsr #20
     ed8:	91180200 	tstls	r8, r0, lsl #4
     edc:	00001842 	andeq	r1, r0, r2, asr #16
     ee0:	31011d21 	tstcc	r1, r1, lsr #26
     ee4:	12011113 	andne	r1, r1, #-1073741820	; 0xc0000004
     ee8:	590b5806 	stmdbpl	fp, {r1, r2, fp, ip, lr}
     eec:	2200000b 	andcs	r0, r0, #11
     ef0:	0e03012e 	adfeqsp	f0, f3, #0.5
     ef4:	0b3b0b3a 	bleq	ec3be4 <__bss_end__+0xeb9934>
     ef8:	13491927 	movtne	r1, #39207	; 0x9927
     efc:	13010b20 	movwne	r0, #6944	; 0x1b20
     f00:	2e230000 	cdpcs	0, 2, cr0, cr3, cr0, {0}
     f04:	03193f01 	tsteq	r9, #1, 30
     f08:	3b0b3a0e 	blcc	2cf748 <__bss_end__+0x2c5498>
     f0c:	4919270b 	ldmdbmi	r9, {r0, r1, r3, r8, r9, sl, sp}
     f10:	12011113 	andne	r1, r1, #-1073741820	; 0xc0000004
     f14:	97184006 	ldrls	r4, [r8, -r6]
     f18:	13011942 	movwne	r1, #6466	; 0x1942
     f1c:	89240000 	stmdbhi	r4!, {}	; <UNPREDICTABLE>
     f20:	11000182 	smlabbne	r0, r2, r1, r0
     f24:	00133101 	andseq	r3, r3, r1, lsl #2
     f28:	82892500 	addhi	r2, r9, #0, 10
     f2c:	01110101 	tsteq	r1, r1, lsl #2
     f30:	13011331 	movwne	r1, #4913	; 0x1331
     f34:	34260000 	strtcc	r0, [r6], #-0
     f38:	3a0e0300 	bcc	381b40 <__bss_end__+0x377890>
     f3c:	490b3b0b 	stmdbmi	fp, {r0, r1, r3, r8, r9, fp, ip, sp}
     f40:	00170213 	andseq	r0, r7, r3, lsl r2
     f44:	00052700 	andeq	r2, r5, r0, lsl #14
     f48:	00001331 	andeq	r1, r0, r1, lsr r3
     f4c:	03000528 	movweq	r0, #1320	; 0x528
     f50:	3b0b3a0e 	blcc	2cf790 <__bss_end__+0x2c54e0>
     f54:	0213490b 	andseq	r4, r3, #180224	; 0x2c000
     f58:	29000018 	stmdbcs	r0, {r3, r4}
     f5c:	0e030034 	mcreq	0, 0, r0, cr3, cr4, {1}
     f60:	19341349 	ldmdbne	r4!, {r0, r3, r6, r8, r9, ip}
     f64:	00001802 	andeq	r1, r0, r2, lsl #16
     f68:	4901012a 	stmdbmi	r1, {r1, r3, r5, r8}
     f6c:	00130113 	andseq	r0, r3, r3, lsl r1
     f70:	00212b00 	eoreq	r2, r1, r0, lsl #22
     f74:	0b2f1349 	bleq	bc5ca0 <__bss_end__+0xbbb9f0>
     f78:	342c0000 	strtcc	r0, [ip], #-0
     f7c:	3a080300 	bcc	201b84 <__bss_end__+0x1f78d4>
     f80:	490b3b0b 	stmdbmi	fp, {r0, r1, r3, r8, r9, fp, ip, sp}
     f84:	00061c13 	andeq	r1, r6, r3, lsl ip
     f88:	00342d00 	eorseq	r2, r4, r0, lsl #26
     f8c:	0b3a0803 	bleq	e82fa0 <__bss_end__+0xe78cf0>
     f90:	13490b3b 	movtne	r0, #39739	; 0x9b3b
     f94:	00000b1c 	andeq	r0, r0, ip, lsl fp
     f98:	0300052e 	movweq	r0, #1326	; 0x52e
     f9c:	3b0b3a08 	blcc	2cf7c4 <__bss_end__+0x2c5514>
     fa0:	0213490b 	andseq	r4, r3, #180224	; 0x2c000
     fa4:	2f000018 	svccs	0x00000018
     fa8:	00000018 	andeq	r0, r0, r8, lsl r0
     fac:	49002130 	stmdbmi	r0, {r4, r5, r8, sp}
     fb0:	00052f13 	andeq	r2, r5, r3, lsl pc
     fb4:	012e3100 	teqeq	lr, r0, lsl #2
     fb8:	0e03193f 	mcreq	9, 0, r1, cr3, cr15, {1}
     fbc:	0b3b0b3a 	bleq	ec3cac <__bss_end__+0xeb99fc>
     fc0:	193c1927 	ldmdbne	ip!, {r0, r1, r2, r5, r8, fp, ip}
     fc4:	00001301 	andeq	r1, r0, r1, lsl #6
     fc8:	49000532 	stmdbmi	r0, {r1, r4, r5, r8, sl}
     fcc:	33000013 	movwcc	r0, #19
     fd0:	193f002e 	ldmdbne	pc!, {r1, r2, r3, r5}	; <UNPREDICTABLE>
     fd4:	0b3a0e03 	bleq	e847e8 <__bss_end__+0xe7a538>
     fd8:	19270b3b 	stmdbne	r7!, {r0, r1, r3, r4, r5, r8, r9, fp}
     fdc:	193c1349 	ldmdbne	ip!, {r0, r3, r6, r8, r9, ip}
     fe0:	2e340000 	cdpcs	0, 3, cr0, cr4, cr0, {0}
     fe4:	03193f01 	tsteq	r9, #1, 30
     fe8:	3b0b3a0e 	blcc	2cf828 <__bss_end__+0x2c5578>
     fec:	4919270b 	ldmdbmi	r9, {r0, r1, r3, r8, r9, sl, sp}
     ff0:	01193c13 	tsteq	r9, r3, lsl ip
     ff4:	35000013 	strcc	r0, [r0, #-19]
     ff8:	193f002e 	ldmdbne	pc!, {r1, r2, r3, r5}	; <UNPREDICTABLE>
     ffc:	0b3a0e03 	bleq	e84810 <__bss_end__+0xe7a560>
    1000:	19270b3b 	stmdbne	r7!, {r0, r1, r3, r4, r5, r8, r9, fp}
    1004:	0000193c 	andeq	r1, r0, ip, lsr r9
    1008:	3f012e36 	svccc	0x00012e36
    100c:	3a0e0319 	bcc	381c78 <__bss_end__+0x3779c8>
    1010:	270b3b0b 	strcs	r3, [fp, -fp, lsl #22]
    1014:	3c134919 	ldccc	9, cr4, [r3], {25}
    1018:	00000019 	andeq	r0, r0, r9, lsl r0
    101c:	25011101 	strcs	r1, [r1, #-257]	; 0x101
    1020:	030b130e 	movweq	r1, #45838	; 0xb30e
    1024:	110e1b0e 	tstne	lr, lr, lsl #22
    1028:	10061201 	andne	r1, r6, r1, lsl #4
    102c:	02000017 	andeq	r0, r0, #23
    1030:	0b0b0024 	bleq	2c10c8 <__bss_end__+0x2b6e18>
    1034:	08030b3e 	stmdaeq	r3, {r1, r2, r3, r4, r5, r8, r9, fp}
    1038:	24030000 	strcs	r0, [r3], #-0
    103c:	3e0b0b00 	vmlacc.f64	d0, d11, d0
    1040:	000e030b 	andeq	r0, lr, fp, lsl #6
    1044:	01040400 	tsteq	r4, r0, lsl #8
    1048:	0b3a0b0b 	bleq	e83c7c <__bss_end__+0xe799cc>
    104c:	13010b3b 	movwne	r0, #6971	; 0x1b3b
    1050:	28050000 	stmdacs	r5, {}	; <UNPREDICTABLE>
    1054:	1c0e0300 	stcne	3, cr0, [lr], {-0}
    1058:	0600000d 	streq	r0, [r0], -sp
    105c:	0e030016 	mcreq	0, 0, r0, cr3, cr6, {0}
    1060:	0b3b0b3a 	bleq	ec3d50 <__bss_end__+0xeb9aa0>
    1064:	00001349 	andeq	r1, r0, r9, asr #6
    1068:	3f012e07 	svccc	0x00012e07
    106c:	3a0e0319 	bcc	381cd8 <__bss_end__+0x377a28>
    1070:	270b3b0b 	strcs	r3, [fp, -fp, lsl #22]
    1074:	12011119 	andne	r1, r1, #1073741830	; 0x40000006
    1078:	97184006 	ldrls	r4, [r8, -r6]
    107c:	13011942 	movwne	r1, #6466	; 0x1942
    1080:	89080000 	stmdbhi	r8, {}	; <UNPREDICTABLE>
    1084:	11000182 	smlabbne	r0, r2, r1, r0
    1088:	00133101 	andseq	r3, r3, r1, lsl #2
    108c:	82890900 	addhi	r0, r9, #0, 18
    1090:	01110101 	tsteq	r1, r1, lsl #2
    1094:	13011331 	movwne	r1, #4913	; 0x1331
    1098:	8a0a0000 	bhi	2810a0 <__bss_end__+0x276df0>
    109c:	02000182 	andeq	r0, r0, #-2147483616	; 0x80000020
    10a0:	18429118 	stmdane	r2, {r3, r4, r8, ip, pc}^
    10a4:	2e0b0000 	cdpcs	0, 0, cr0, cr11, cr0, {0}
    10a8:	03193f01 	tsteq	r9, #1, 30
    10ac:	3b0b3a0e 	blcc	2cf8ec <__bss_end__+0x2c563c>
    10b0:	4919270b 	ldmdbmi	r9, {r0, r1, r3, r8, r9, sl, sp}
    10b4:	12011113 	andne	r1, r1, #-1073741820	; 0xc0000004
    10b8:	97184006 	ldrls	r4, [r8, -r6]
    10bc:	13011942 	movwne	r1, #6466	; 0x1942
    10c0:	050c0000 	streq	r0, [ip, #-0]
    10c4:	3a080300 	bcc	201ccc <__bss_end__+0x1f7a1c>
    10c8:	490b3b0b 	stmdbmi	fp, {r0, r1, r3, r8, r9, fp, ip, sp}
    10cc:	00170213 	andseq	r0, r7, r3, lsl r2
    10d0:	82890d00 	addhi	r0, r9, #0, 26
    10d4:	01110101 	tsteq	r1, r1, lsl #2
    10d8:	00001331 	andeq	r1, r0, r1, lsr r3
    10dc:	0300340e 	movweq	r3, #1038	; 0x40e
    10e0:	3b0b3a0e 	blcc	2cf920 <__bss_end__+0x2c5670>
    10e4:	3f13490b 	svccc	0x0013490b
    10e8:	00180219 	andseq	r0, r8, r9, lsl r2
    10ec:	000f0f00 	andeq	r0, pc, r0, lsl #30
    10f0:	13490b0b 	movtne	r0, #39691	; 0x9b0b
    10f4:	35100000 	ldrcc	r0, [r0, #-0]
    10f8:	00134900 	andseq	r4, r3, r0, lsl #18
    10fc:	002e1100 	eoreq	r1, lr, r0, lsl #2
    1100:	0e03193f 	mcreq	9, 0, r1, cr3, cr15, {1}
    1104:	0b3b0b3a 	bleq	ec3df4 <__bss_end__+0xeb9b44>
    1108:	193c1927 	ldmdbne	ip!, {r0, r1, r2, r5, r8, fp, ip}
    110c:	2e120000 	cdpcs	0, 1, cr0, cr2, cr0, {0}
    1110:	03193f01 	tsteq	r9, #1, 30
    1114:	3b0b3a0e 	blcc	2cf954 <__bss_end__+0x2c56a4>
    1118:	3c19270b 	ldccc	7, cr2, [r9], {11}
    111c:	00130119 	andseq	r0, r3, r9, lsl r1
    1120:	00051300 	andeq	r1, r5, r0, lsl #6
    1124:	00001349 	andeq	r1, r0, r9, asr #6
    1128:	3f012e14 	svccc	0x00012e14
    112c:	3a0e0319 	bcc	381d98 <__bss_end__+0x377ae8>
    1130:	270b3b0b 	strcs	r3, [fp, -fp, lsl #22]
    1134:	3c134919 	ldccc	9, cr4, [r3], {25}
    1138:	00130119 	andseq	r0, r3, r9, lsl r1
    113c:	00261500 	eoreq	r1, r6, r0, lsl #10
    1140:	00001349 	andeq	r1, r0, r9, asr #6
    1144:	00003516 	andeq	r3, r0, r6, lsl r5
    1148:	11010000 	mrsne	r0, (UNDEF: 1)
    114c:	130e2501 	movwne	r2, #58625	; 0xe501
    1150:	1b0e030b 	blne	381d84 <__bss_end__+0x377ad4>
    1154:	1201110e 	andne	r1, r1, #-2147483645	; 0x80000003
    1158:	00171006 	andseq	r1, r7, r6
    115c:	00240200 	eoreq	r0, r4, r0, lsl #4
    1160:	0b3e0b0b 	bleq	f83d94 <__bss_end__+0xf79ae4>
    1164:	00000803 	andeq	r0, r0, r3, lsl #16
    1168:	03001603 	movweq	r1, #1539	; 0x603
    116c:	3b0b3a0e 	blcc	2cf9ac <__bss_end__+0x2c56fc>
    1170:	0013490b 	andseq	r4, r3, fp, lsl #18
    1174:	00240400 	eoreq	r0, r4, r0, lsl #8
    1178:	0b3e0b0b 	bleq	f83dac <__bss_end__+0xf79afc>
    117c:	00000e03 	andeq	r0, r0, r3, lsl #28
    1180:	0b000f05 	bleq	4d9c <_start-0x3264>
    1184:	0600000b 	streq	r0, [r0], -fp
    1188:	0b0b0113 	bleq	2c15dc <__bss_end__+0x2b732c>
    118c:	0b3b0b3a 	bleq	ec3e7c <__bss_end__+0xeb9bcc>
    1190:	00001301 	andeq	r1, r0, r1, lsl #6
    1194:	03000d07 	movweq	r0, #3335	; 0xd07
    1198:	3b0b3a08 	blcc	2cf9c0 <__bss_end__+0x2c5710>
    119c:	3813490b 	ldmdacc	r3, {r0, r1, r3, r8, fp, lr}
    11a0:	0800000b 	stmdaeq	r0, {r0, r1, r3}
    11a4:	0e03000d 	cdpeq	0, 0, cr0, cr3, cr13, {0}
    11a8:	0b3b0b3a 	bleq	ec3e98 <__bss_end__+0xeb9be8>
    11ac:	0b381349 	bleq	e05ed8 <__bss_end__+0xdfbc28>
    11b0:	04090000 	streq	r0, [r9], #-0
    11b4:	3a0b0b01 	bcc	2c3dc0 <__bss_end__+0x2b9b10>
    11b8:	010b3b0b 	tsteq	fp, fp, lsl #22
    11bc:	0a000013 	beq	1210 <_start-0x6df0>
    11c0:	0e030028 	cdpeq	0, 0, cr0, cr3, cr8, {1}
    11c4:	00000d1c 	andeq	r0, r0, ip, lsl sp
    11c8:	3f012e0b 	svccc	0x00012e0b
    11cc:	3a0e0319 	bcc	381e38 <__bss_end__+0x377b88>
    11d0:	270b3b0b 	strcs	r3, [fp, -fp, lsl #22]
    11d4:	11134919 	tstne	r3, r9, lsl r9
    11d8:	40061201 	andmi	r1, r6, r1, lsl #4
    11dc:	19429718 	stmdbne	r2, {r3, r4, r8, r9, sl, ip, pc}^
    11e0:	00001301 	andeq	r1, r0, r1, lsl #6
    11e4:	0300340c 	movweq	r3, #1036	; 0x40c
    11e8:	3b0b3a08 	blcc	2cfa10 <__bss_end__+0x2c5760>
    11ec:	1c13490b 	ldcne	9, cr4, [r3], {11}
    11f0:	0d000006 	stceq	0, cr0, [r0, #-24]	; 0xffffffe8
    11f4:	01018289 	smlabbeq	r1, r9, r2, r8
    11f8:	13310111 	teqne	r1, #1073741828	; 0x40000004
    11fc:	8a0e0000 	bhi	381204 <__bss_end__+0x376f54>
    1200:	02000182 	andeq	r0, r0, #-2147483616	; 0x80000020
    1204:	18429118 	stmdane	r2, {r3, r4, r8, ip, pc}^
    1208:	0f0f0000 	svceq	0x000f0000
    120c:	490b0b00 	stmdbmi	fp, {r8, r9, fp}
    1210:	10000013 	andne	r0, r0, r3, lsl r0
    1214:	193f012e 	ldmdbne	pc!, {r1, r2, r3, r5, r8}	; <UNPREDICTABLE>
    1218:	0b3a0e03 	bleq	e84a2c <__bss_end__+0xe7a77c>
    121c:	19270b3b 	stmdbne	r7!, {r0, r1, r3, r4, r5, r8, r9, fp}
    1220:	193c1349 	ldmdbne	ip!, {r0, r3, r6, r8, r9, ip}
    1224:	05110000 	ldreq	r0, [r1, #-0]
    1228:	00134900 	andseq	r4, r3, r0, lsl #18
    122c:	11010000 	mrsne	r0, (UNDEF: 1)
    1230:	130e2501 	movwne	r2, #58625	; 0xe501
    1234:	1b0e030b 	blne	381e68 <__bss_end__+0x377bb8>
    1238:	1201110e 	andne	r1, r1, #-2147483645	; 0x80000003
    123c:	00171006 	andseq	r1, r7, r6
    1240:	00240200 	eoreq	r0, r4, r0, lsl #4
    1244:	0b3e0b0b 	bleq	f83e78 <__bss_end__+0xf79bc8>
    1248:	00000e03 	andeq	r0, r0, r3, lsl #28
    124c:	0b002403 	bleq	a260 <__bss_start__+0x3bc>
    1250:	030b3e0b 	movweq	r3, #48651	; 0xbe0b
    1254:	04000008 	streq	r0, [r0], #-8
    1258:	0b0b000f 	bleq	2c129c <__bss_end__+0x2b6fec>
    125c:	0f050000 	svceq	0x00050000
    1260:	490b0b00 	stmdbmi	fp, {r8, r9, fp}
    1264:	06000013 			; <UNDEFINED> instruction: 0x06000013
    1268:	0e030016 	mcreq	0, 0, r0, cr3, cr6, {0}
    126c:	0b3b0b3a 	bleq	ec3f5c <__bss_end__+0xeb9cac>
    1270:	00001349 	andeq	r1, r0, r9, asr #6
    1274:	3f012e07 	svccc	0x00012e07
    1278:	3a0e0319 	bcc	381ee4 <__bss_end__+0x377c34>
    127c:	270b3b0b 	strcs	r3, [fp, -fp, lsl #22]
    1280:	11134919 	tstne	r3, r9, lsl r9
    1284:	40061201 	andmi	r1, r6, r1, lsl #4
    1288:	19429718 	stmdbne	r2, {r3, r4, r8, r9, sl, ip, pc}^
    128c:	05080000 	streq	r0, [r8, #-0]
    1290:	3a080300 	bcc	201e98 <__bss_end__+0x1f7be8>
    1294:	490b3b0b 	stmdbmi	fp, {r0, r1, r3, r8, r9, fp, ip, sp}
    1298:	00180213 	andseq	r0, r8, r3, lsl r2
    129c:	00050900 	andeq	r0, r5, r0, lsl #18
    12a0:	0b3a0803 	bleq	e832b4 <__bss_end__+0xe79004>
    12a4:	13490b3b 	movtne	r0, #39739	; 0x9b3b
    12a8:	00001702 	andeq	r1, r0, r2, lsl #14
    12ac:	0300340a 	movweq	r3, #1034	; 0x40a
    12b0:	3b0b3a08 	blcc	2cfad8 <__bss_end__+0x2c5828>
    12b4:	0213490b 	andseq	r4, r3, #180224	; 0x2c000
    12b8:	0b000017 	bleq	131c <_start-0x6ce4>
    12bc:	08030034 	stmdaeq	r3, {r2, r4, r5}
    12c0:	0b3b0b3a 	bleq	ec3fb0 <__bss_end__+0xeb9d00>
    12c4:	18021349 	stmdane	r2, {r0, r3, r6, r8, r9, ip}
    12c8:	Address 0x00000000000012c8 is out of bounds.


Disassembly of section .debug_loc:

00000000 <.debug_loc>:
       0:	00000000 	andeq	r0, r0, r0
       4:	00000018 	andeq	r0, r0, r8, lsl r0
       8:	18500001 	ldmdane	r0, {r0}^
       c:	28000000 	stmdacs	r0, {}	; <UNPREDICTABLE>
      10:	04000000 	streq	r0, [r0], #-0
      14:	5001f300 	andpl	pc, r1, r0, lsl #6
      18:	0000289f 	muleq	r0, pc, r8	; <UNPREDICTABLE>
      1c:	00002b00 	andeq	r2, r0, r0, lsl #22
      20:	50000100 	andpl	r0, r0, r0, lsl #2
      24:	0000002b 	andeq	r0, r0, fp, lsr #32
      28:	00000050 	andeq	r0, r0, r0, asr r0
      2c:	01f30004 	mvnseq	r0, r4
      30:	00009f50 	andeq	r9, r0, r0, asr pc
      34:	00000000 	andeq	r0, r0, r0
      38:	00200000 	eoreq	r0, r0, r0
      3c:	00240000 	eoreq	r0, r4, r0
      40:	00010000 	andeq	r0, r1, r0
      44:	00000050 	andeq	r0, r0, r0, asr r0
      48:	00000000 	andeq	r0, r0, r0
      4c:	00005000 	andeq	r5, r0, r0
      50:	00008000 	andeq	r8, r0, r0
      54:	50000100 	andpl	r0, r0, r0, lsl #2
      58:	00000080 	andeq	r0, r0, r0, lsl #1
      5c:	00000194 	muleq	r0, r4, r1
      60:	94560001 	ldrbls	r0, [r6], #-1
      64:	48000001 	stmdami	r0, {r0}
      68:	04000004 	streq	r0, [r0], #-4
      6c:	5001f300 	andpl	pc, r1, r0, lsl #6
      70:	0000009f 	muleq	r0, pc, r0	; <UNPREDICTABLE>
      74:	00000000 	andeq	r0, r0, r0
      78:	00005000 	andeq	r5, r0, r0
      7c:	00006400 	andeq	r6, r0, r0, lsl #8
      80:	52000100 	andpl	r0, r0, #0, 2
      84:	00000064 	andeq	r0, r0, r4, rrx
      88:	00000448 	andeq	r0, r0, r8, asr #8
      8c:	01f30004 	mvnseq	r0, r4
      90:	00009f52 	andeq	r9, r0, r2, asr pc
      94:	00000000 	andeq	r0, r0, r0
      98:	00500000 	subseq	r0, r0, r0
      9c:	00580000 	subseq	r0, r8, r0
      a0:	00010000 	andeq	r0, r1, r0
      a4:	00005853 	andeq	r5, r0, r3, asr r8
      a8:	00044800 	andeq	r4, r4, r0, lsl #16
      ac:	f3000400 	vshl.u8	d0, d0, d0
      b0:	009f5301 	addseq	r5, pc, r1, lsl #6
      b4:	00000000 	andeq	r0, r0, r0
      b8:	50000000 	andpl	r0, r0, r0
      bc:	80000000 	andhi	r0, r0, r0
      c0:	02000000 	andeq	r0, r0, #0
      c4:	809f3100 	addshi	r3, pc, r0, lsl #2
      c8:	48000000 	stmdami	r0, {}	; <UNPREDICTABLE>
      cc:	01000004 	tsteq	r0, r4
      d0:	00005000 	andeq	r5, r0, r0
      d4:	00000000 	andeq	r0, r0, r0
      d8:	00840000 	addeq	r0, r4, r0
      dc:	00a40000 	adceq	r0, r4, r0
      e0:	00010000 	andeq	r0, r1, r0
      e4:	0000a454 	andeq	sl, r0, r4, asr r4
      e8:	0000c400 	andeq	ip, r0, r0, lsl #8
      ec:	52000100 	andpl	r0, r0, #0, 2
      f0:	000000c4 	andeq	r0, r0, r4, asr #1
      f4:	000000e4 	andeq	r0, r0, r4, ror #1
      f8:	e4540001 	ldrb	r0, [r4], #-1
      fc:	04000000 	streq	r0, [r0], #-0
     100:	01000001 	tsteq	r0, r1
     104:	01045200 	mrseq	r5, R12_usr
     108:	01240000 	teqeq	r4, r0
     10c:	00010000 	andeq	r0, r1, r0
     110:	00012454 	andeq	r2, r1, r4, asr r4
     114:	00014400 	andeq	r4, r1, r0, lsl #8
     118:	52000100 	andpl	r0, r0, #0, 2
     11c:	00000144 	andeq	r0, r0, r4, asr #2
     120:	00000164 	andeq	r0, r0, r4, ror #2
     124:	64540001 	ldrbvs	r0, [r4], #-1
     128:	9c000001 	stcls	0, cr0, [r0], {1}
     12c:	01000001 	tsteq	r0, r1
     130:	00005200 	andeq	r5, r0, r0, lsl #4
     134:	00000000 	andeq	r0, r0, r0
     138:	00680000 	rsbeq	r0, r8, r0
     13c:	00840000 	addeq	r0, r4, r0
     140:	00010000 	andeq	r0, r1, r0
     144:	00009c52 	andeq	r9, r0, r2, asr ip
     148:	0000a400 	andeq	sl, r0, r0, lsl #8
     14c:	54000100 	strpl	r0, [r0], #-256	; 0x100
     150:	000000bc 	strheq	r0, [r0], -ip
     154:	000000c4 	andeq	r0, r0, r4, asr #1
     158:	dc520001 	mrrcle	0, 0, r0, r2, cr1
     15c:	e4000000 	str	r0, [r0], #-0
     160:	01000000 	mrseq	r0, (UNDEF: 0)
     164:	00fc5400 	rscseq	r5, ip, r0, lsl #8
     168:	01040000 	mrseq	r0, (UNDEF: 4)
     16c:	00010000 	andeq	r0, r1, r0
     170:	00011c52 	andeq	r1, r1, r2, asr ip
     174:	00012400 	andeq	r2, r1, r0, lsl #8
     178:	54000100 	strpl	r0, [r0], #-256	; 0x100
     17c:	0000013c 	andeq	r0, r0, ip, lsr r1
     180:	00000144 	andeq	r0, r0, r4, asr #2
     184:	5c520001 	mrrcpl	0, 0, r0, r2, cr1
     188:	64000001 	strvs	r0, [r0], #-1
     18c:	01000001 	tsteq	r0, r1
     190:	017c5400 	cmneq	ip, r0, lsl #8
     194:	019c0000 	orrseq	r0, ip, r0
     198:	00010000 	andeq	r0, r1, r0
     19c:	00000052 	andeq	r0, r0, r2, asr r0
     1a0:	00000000 	andeq	r0, r0, r0
     1a4:	00006000 	andeq	r6, r0, r0
     1a8:	00019000 	andeq	r9, r1, r0
     1ac:	55000100 	strpl	r0, [r0, #-256]	; 0x100
	...
     1b8:	00000074 	andeq	r0, r0, r4, ror r0
     1bc:	000001c8 	andeq	r0, r0, r8, asr #3
     1c0:	c8570001 	ldmdagt	r7, {r0}^
     1c4:	fc000001 	stc2	0, cr0, [r0], {1}
     1c8:	03000003 	movweq	r0, #3
     1cc:	7fb49100 	svcvc	0x00b49100
     1d0:	00000408 	andeq	r0, r0, r8, lsl #8
     1d4:	00000438 	andeq	r0, r0, r8, lsr r4
     1d8:	b4910003 	ldrlt	r0, [r1], #3
     1dc:	0004387f 	andeq	r3, r4, pc, ror r8
     1e0:	00044800 	andeq	r4, r4, r0, lsl #16
     1e4:	57000100 	strpl	r0, [r0, -r0, lsl #2]
	...
     1f0:	00000074 	andeq	r0, r0, r4, ror r0
     1f4:	000001c8 	andeq	r0, r0, r8, asr #3
     1f8:	00770007 	rsbseq	r0, r7, r7
     1fc:	225301f3 	subscs	r0, r3, #-1073741764	; 0xc000003c
     200:	0001c89f 	muleq	r1, pc, r8	; <UNPREDICTABLE>
     204:	0003fc00 	andeq	pc, r3, r0, lsl #24
     208:	91000900 	tstls	r0, r0, lsl #18
     20c:	f3067fb4 	vmaxnm.f32	d7, d22, d20
     210:	9f225301 	svcls	0x00225301
     214:	00000408 	andeq	r0, r0, r8, lsl #8
     218:	00000438 	andeq	r0, r0, r8, lsr r4
     21c:	b4910009 	ldrlt	r0, [r1], #9
     220:	01f3067f 	mvnseq	r0, pc, ror r6
     224:	389f2253 	ldmcc	pc, {r0, r1, r4, r6, r9, sp}	; <UNPREDICTABLE>
     228:	48000004 	stmdami	r0, {r2}
     22c:	07000004 	streq	r0, [r0, -r4]
     230:	f3007700 	vabd.u8	d7, d0, d0
     234:	9f225301 	svcls	0x00225301
	...
     240:	0000019c 	muleq	r0, ip, r1
     244:	000001d4 	ldrdeq	r0, [r0], -r4
     248:	d4520001 	ldrble	r0, [r2], #-1
     24c:	dc000001 	stcle	0, cr0, [r0], {1}
     250:	01000001 	tsteq	r0, r1
     254:	01dc5600 	bicseq	r5, ip, r0, lsl #12
     258:	01fc0000 	mvnseq	r0, r0
     25c:	00010000 	andeq	r0, r1, r0
     260:	0001fc52 	andeq	pc, r1, r2, asr ip	; <UNPREDICTABLE>
     264:	00020400 	andeq	r0, r2, r0, lsl #8
     268:	56000100 	strpl	r0, [r0], -r0, lsl #2
     26c:	00000204 	andeq	r0, r0, r4, lsl #4
     270:	00000224 	andeq	r0, r0, r4, lsr #4
     274:	24520001 	ldrbcs	r0, [r2], #-1
     278:	2c000002 	stccs	0, cr0, [r0], {2}
     27c:	01000002 	tsteq	r0, r2
     280:	022c5600 	eoreq	r5, ip, #0, 12
     284:	024c0000 	subeq	r0, ip, #0
     288:	00010000 	andeq	r0, r1, r0
     28c:	00024c52 	andeq	r4, r2, r2, asr ip
     290:	00025400 	andeq	r5, r2, r0, lsl #8
     294:	56000100 	strpl	r0, [r0], -r0, lsl #2
     298:	00000254 	andeq	r0, r0, r4, asr r2
     29c:	00000278 	andeq	r0, r0, r8, ror r2
     2a0:	78520001 	ldmdavc	r2, {r0}^
     2a4:	80000002 	andhi	r0, r0, r2
     2a8:	01000002 	tsteq	r0, r2
     2ac:	02805600 	addeq	r5, r0, #0, 12
     2b0:	02b40000 	adcseq	r0, r4, #0
     2b4:	00010000 	andeq	r0, r1, r0
     2b8:	0002b452 	andeq	fp, r2, r2, asr r4
     2bc:	0002dc00 	andeq	sp, r2, r0, lsl #24
     2c0:	5c000100 	stfpls	f0, [r0], {-0}
     2c4:	000002dc 	ldrdeq	r0, [r0], -ip
     2c8:	00000304 	andeq	r0, r0, r4, lsl #6
     2cc:	04520001 	ldrbeq	r0, [r2], #-1
     2d0:	28000003 	stmdacs	r0, {r0, r1}
     2d4:	01000003 	tsteq	r0, r3
     2d8:	03285c00 	teqeq	r8, #0, 24
     2dc:	034c0000 	movteq	r0, #49152	; 0xc000
     2e0:	00010000 	andeq	r0, r1, r0
     2e4:	00034c52 	andeq	r4, r3, r2, asr ip
     2e8:	00037000 	andeq	r7, r3, r0
     2ec:	5c000100 	stfpls	f0, [r0], {-0}
     2f0:	00000370 	andeq	r0, r0, r0, ror r3
     2f4:	00000394 	muleq	r0, r4, r3
     2f8:	94520001 	ldrbls	r0, [r2], #-1
     2fc:	b8000003 	stmdalt	r0, {r0, r1}
     300:	01000003 	tsteq	r0, r3
     304:	03b85c00 			; <UNDEFINED> instruction: 0x03b85c00
     308:	03dc0000 	bicseq	r0, ip, #0
     30c:	00010000 	andeq	r0, r1, r0
     310:	0003dc52 	andeq	sp, r3, r2, asr ip
     314:	0003ec00 	andeq	lr, r3, r0, lsl #24
     318:	31000500 	tstcc	r0, r0, lsl #10
     31c:	9f1c0072 	svcls	0x001c0072
     320:	000003ec 	andeq	r0, r0, ip, ror #7
     324:	000003f8 	strdeq	r0, [r0], -r8
     328:	78310006 	ldmdavc	r1!, {r1, r2}
     32c:	9f1c0600 	svcls	0x001c0600
     330:	00000408 	andeq	r0, r0, r8, lsl #8
     334:	00000448 	andeq	r0, r0, r8, asr #8
     338:	00520001 	subseq	r0, r2, r1
     33c:	00000000 	andeq	r0, r0, r0
     340:	74000000 	strvc	r0, [r0], #-0
     344:	80000000 	andhi	r0, r0, r0
     348:	02000000 	andeq	r0, r0, #0
     34c:	009f3000 	addseq	r3, pc, r0
     350:	00000000 	andeq	r0, r0, r0
     354:	9c000000 	stcls	0, cr0, [r0], {-0}
     358:	a0000001 	andge	r0, r0, r1
     35c:	02000001 	andeq	r0, r0, #1
     360:	a49f3000 	ldrge	r3, [pc], #0	; 368 <_start-0x7c98>
     364:	c0000001 	andgt	r0, r0, r1
     368:	01000001 	tsteq	r0, r1
     36c:	04385c00 	ldrteq	r5, [r8], #-3072	; 0xc00
     370:	043c0000 	ldrteq	r0, [ip], #-0
     374:	00010000 	andeq	r0, r1, r0
     378:	0000005c 	andeq	r0, r0, ip, asr r0
     37c:	00000000 	andeq	r0, r0, r0
     380:	0001b400 	andeq	fp, r1, r0, lsl #8
     384:	0001dc00 	andeq	sp, r1, r0, lsl #24
     388:	30000200 	andcc	r0, r0, r0, lsl #4
     38c:	0001dc9f 	muleq	r1, pc, ip	; <UNPREDICTABLE>
     390:	0001e000 	andeq	lr, r1, r0
     394:	31000200 	mrscc	r0, R8_usr
     398:	0001e09f 	muleq	r1, pc, r0	; <UNPREDICTABLE>
     39c:	00020400 	andeq	r0, r2, r0, lsl #8
     3a0:	32000200 	andcc	r0, r0, #0, 4
     3a4:	0002049f 	muleq	r2, pc, r4	; <UNPREDICTABLE>
     3a8:	00020800 	andeq	r0, r2, r0, lsl #16
     3ac:	33000200 	movwcc	r0, #512	; 0x200
     3b0:	0002089f 	muleq	r2, pc, r8	; <UNPREDICTABLE>
     3b4:	00022c00 	andeq	r2, r2, r0, lsl #24
     3b8:	34000200 	strcc	r0, [r0], #-512	; 0x200
     3bc:	00022c9f 	muleq	r2, pc, ip	; <UNPREDICTABLE>
     3c0:	00023000 	andeq	r3, r2, r0
     3c4:	35000200 	strcc	r0, [r0, #-512]	; 0x200
     3c8:	0002309f 	muleq	r2, pc, r0	; <UNPREDICTABLE>
     3cc:	00025400 	andeq	r5, r2, r0, lsl #8
     3d0:	36000200 	strcc	r0, [r0], -r0, lsl #4
     3d4:	0002549f 	muleq	r2, pc, r4	; <UNPREDICTABLE>
     3d8:	00025800 	andeq	r5, r2, r0, lsl #16
     3dc:	37000200 	strcc	r0, [r0, -r0, lsl #4]
     3e0:	0002589f 	muleq	r2, pc, r8	; <UNPREDICTABLE>
     3e4:	00028000 	andeq	r8, r2, r0
     3e8:	38000200 	stmdacc	r0, {r9}
     3ec:	0002809f 	muleq	r2, pc, r0	; <UNPREDICTABLE>
     3f0:	00028400 	andeq	r8, r2, r0, lsl #8
     3f4:	3a000200 	bcc	bfc <_start-0x7404>
     3f8:	0002849f 	muleq	r2, pc, r4	; <UNPREDICTABLE>
     3fc:	0002b800 	andeq	fp, r2, r0, lsl #16
     400:	53000100 	movwpl	r0, #256	; 0x100
     404:	000002b8 			; <UNDEFINED> instruction: 0x000002b8
     408:	000002e0 	andeq	r0, r0, r0, ror #5
     40c:	e0540001 	subs	r0, r4, r1
     410:	08000002 	stmdaeq	r0, {r1}
     414:	01000003 	tsteq	r0, r3
     418:	03085500 	movweq	r5, #34048	; 0x8500
     41c:	032c0000 	teqeq	ip, #0
     420:	00010000 	andeq	r0, r1, r0
     424:	00032c54 	andeq	r2, r3, r4, asr ip
     428:	00035000 	andeq	r5, r3, r0
     42c:	55000100 	strpl	r0, [r0, #-256]	; 0x100
     430:	00000350 	andeq	r0, r0, r0, asr r3
     434:	00000374 	andeq	r0, r0, r4, ror r3
     438:	74540001 	ldrbvc	r0, [r4], #-1
     43c:	98000003 	stmdals	r0, {r0, r1}
     440:	01000003 	tsteq	r0, r3
     444:	03985500 	orrseq	r5, r8, #0, 10
     448:	03bc0000 			; <UNDEFINED> instruction: 0x03bc0000
     44c:	00010000 	andeq	r0, r1, r0
     450:	0003bc54 	andeq	fp, r3, r4, asr ip
     454:	0003e000 	andeq	lr, r3, r0
     458:	55000100 	strpl	r0, [r0, #-256]	; 0x100
     45c:	000003e0 	andeq	r0, r0, r0, ror #7
     460:	000003fc 	strdeq	r0, [r0], -ip
     464:	08540001 	ldmdaeq	r4, {r0}^
     468:	14000004 	strne	r0, [r0], #-4
     46c:	02000004 	andeq	r0, r0, #4
     470:	149f3200 	ldrne	r3, [pc], #512	; 478 <_start-0x7b88>
     474:	20000004 	andcs	r0, r0, r4
     478:	02000004 	andeq	r0, r0, #4
     47c:	209f3400 	addscs	r3, pc, r0, lsl #8
     480:	2c000004 	stccs	0, cr0, [r0], {4}
     484:	02000004 	andeq	r0, r0, #4
     488:	2c9f3600 	ldccs	6, cr3, [pc], {0}
     48c:	38000004 	stmdacc	r0, {r2}
     490:	02000004 	andeq	r0, r0, #4
     494:	389f3800 	ldmcc	pc, {fp, ip, sp}	; <UNPREDICTABLE>
     498:	48000004 	stmdami	r0, {r2}
     49c:	02000004 	andeq	r0, r0, #4
     4a0:	009f3000 	addseq	r3, pc, r0
     4a4:	00000000 	andeq	r0, r0, r0
     4a8:	48000000 	stmdami	r0, {}	; <UNPREDICTABLE>
     4ac:	78000004 	stmdavc	r0, {r2}
     4b0:	01000004 	tsteq	r0, r4
     4b4:	04785000 	ldrbteq	r5, [r8], #-0
     4b8:	04d40000 	ldrbeq	r0, [r4], #0
     4bc:	00010000 	andeq	r0, r1, r0
     4c0:	0004d45a 	andeq	sp, r4, sl, asr r4
     4c4:	0004d800 	andeq	sp, r4, r0, lsl #16
     4c8:	f3000400 	vshl.u8	d0, d0, d0
     4cc:	009f5001 	addseq	r5, pc, r1
     4d0:	00000000 	andeq	r0, r0, r0
     4d4:	48000000 	stmdami	r0, {}	; <UNPREDICTABLE>
     4d8:	68000004 	stmdavs	r0, {r2}
     4dc:	01000004 	tsteq	r0, r4
     4e0:	04685100 	strbteq	r5, [r8], #-256	; 0x100
     4e4:	04d40000 	ldrbeq	r0, [r4], #0
     4e8:	00030000 	andeq	r0, r3, r0
     4ec:	d49f0179 	ldrle	r0, [pc], #377	; 4f4 <_start-0x7b0c>
     4f0:	d8000004 	stmdale	r0, {r2}
     4f4:	04000004 	streq	r0, [r0], #-4
     4f8:	5101f300 	mrspl	pc, SP_irq	; <UNPREDICTABLE>
     4fc:	0000009f 	muleq	r0, pc, r0	; <UNPREDICTABLE>
     500:	00000000 	andeq	r0, r0, r0
     504:	00044800 	andeq	r4, r4, r0, lsl #16
     508:	00046400 	andeq	r6, r4, r0, lsl #8
     50c:	52000100 	andpl	r0, r0, #0, 2
     510:	00000464 	andeq	r0, r0, r4, ror #8
     514:	000004d4 	ldrdeq	r0, [r0], -r4
     518:	d4580001 	ldrble	r0, [r8], #-1
     51c:	d8000004 	stmdale	r0, {r2}
     520:	04000004 	streq	r0, [r0], #-4
     524:	5201f300 	andpl	pc, r1, #0, 6
     528:	0000009f 	muleq	r0, pc, r0	; <UNPREDICTABLE>
     52c:	00000000 	andeq	r0, r0, r0
     530:	00044800 	andeq	r4, r4, r0, lsl #16
     534:	00047800 	andeq	r7, r4, r0, lsl #16
     538:	30000200 	andcc	r0, r0, r0, lsl #4
     53c:	0004789f 	muleq	r4, pc, r8	; <UNPREDICTABLE>
     540:	0004cc00 	andeq	ip, r4, r0, lsl #24
     544:	55000100 	strpl	r0, [r0, #-256]	; 0x100
	...
     550:	00000448 	andeq	r0, r0, r8, asr #8
     554:	00000478 	andeq	r0, r0, r8, ror r4
     558:	9f300002 	svcls	0x00300002
     55c:	00000478 	andeq	r0, r0, r8, ror r4
     560:	000004cc 	andeq	r0, r0, ip, asr #9
     564:	00560001 	subseq	r0, r6, r1
     568:	00000000 	andeq	r0, r0, r0
     56c:	48000000 	stmdami	r0, {}	; <UNPREDICTABLE>
     570:	78000004 	stmdavc	r0, {r2}
     574:	02000004 	andeq	r0, r0, #4
     578:	789f3000 	ldmvc	pc, {ip, sp}	; <UNPREDICTABLE>
     57c:	80000004 	andhi	r0, r0, r4
     580:	01000004 	tsteq	r0, r4
     584:	04805700 	streq	r5, [r0], #1792	; 0x700
     588:	04bf0000 	ldrteq	r0, [pc], #0	; 590 <_start-0x7a70>
     58c:	00010000 	andeq	r0, r1, r0
     590:	0004bf51 	andeq	fp, r4, r1, asr pc
     594:	0004c000 	andeq	ip, r4, r0
     598:	77000300 	strvc	r0, [r0, -r0, lsl #6]
     59c:	04c09f7f 	strbeq	r9, [r0], #3967	; 0xf7f
     5a0:	04cc0000 	strbeq	r0, [ip], #0
     5a4:	00010000 	andeq	r0, r1, r0
     5a8:	00000057 	andeq	r0, r0, r7, asr r0
     5ac:	00000000 	andeq	r0, r0, r0
     5b0:	00048800 	andeq	r8, r4, r0, lsl #16
     5b4:	00048c00 	andeq	r8, r4, r0, lsl #24
     5b8:	53000100 	movwpl	r0, #256	; 0x100
     5bc:	0000048c 	andeq	r0, r0, ip, lsl #9
     5c0:	00000490 	muleq	r0, r0, r4
     5c4:	007a0006 	rsbseq	r0, sl, r6
     5c8:	9f220072 	svcls	0x00220072
	...
     5d4:	0000048c 	andeq	r0, r0, ip, lsl #9
     5d8:	000004bf 			; <UNDEFINED> instruction: 0x000004bf
     5dc:	00530001 	subseq	r0, r3, r1
     5e0:	00000000 	andeq	r0, r0, r0
     5e4:	94000000 	strls	r0, [r0], #-0
     5e8:	c8000004 	stmdagt	r0, {r2}
     5ec:	01000004 	tsteq	r0, r4
     5f0:	00005400 	andeq	r5, r0, r0, lsl #8
     5f4:	00000000 	andeq	r0, r0, r0
     5f8:	04a00000 	strteq	r0, [r0], #0
     5fc:	04bc0000 	ldrteq	r0, [ip], #0
     600:	00010000 	andeq	r0, r1, r0
     604:	0004bc50 	andeq	fp, r4, r0, asr ip
     608:	0004bf00 	andeq	fp, r4, r0, lsl #30
     60c:	91000200 	mrsls	r0, R8_usr
     610:	00000050 	andeq	r0, r0, r0, asr r0
     614:	00000000 	andeq	r0, r0, r0
     618:	00051800 	andeq	r1, r5, r0, lsl #16
     61c:	00051c00 	andeq	r1, r5, r0, lsl #24
     620:	50000100 	andpl	r0, r0, r0, lsl #2
     624:	0000051c 	andeq	r0, r0, ip, lsl r5
     628:	0000051f 	andeq	r0, r0, pc, lsl r5
     62c:	00510001 	subseq	r0, r1, r1
     630:	00000000 	andeq	r0, r0, r0
     634:	2c000000 	stccs	0, cr0, [r0], {-0}
     638:	38000000 	stmdacc	r0, {}	; <UNPREDICTABLE>
     63c:	01000000 	mrseq	r0, (UNDEF: 0)
     640:	00385000 	eorseq	r5, r8, r0
     644:	00480000 	subeq	r0, r8, r0
     648:	00010000 	andeq	r0, r1, r0
     64c:	00004855 	andeq	r4, r0, r5, asr r8
     650:	00005800 	andeq	r5, r0, r0, lsl #16
     654:	50000100 	andpl	r0, r0, r0, lsl #2
	...
     664:	0000000b 	andeq	r0, r0, fp
     668:	0b500001 	bleq	1400674 <__bss_end__+0x13f63c4>
     66c:	14000000 	strne	r0, [r0], #-0
     670:	01000000 	mrseq	r0, (UNDEF: 0)
     674:	00005400 	andeq	r5, r0, r0, lsl #8
	...
     680:	00100000 	andseq	r0, r0, r0
     684:	00010000 	andeq	r0, r1, r0
     688:	00001050 	andeq	r1, r0, r0, asr r0
     68c:	00003400 	andeq	r3, r0, r0, lsl #8
     690:	54000100 	strpl	r0, [r0], #-256	; 0x100
	...
     6a0:	00000004 	andeq	r0, r0, r4
     6a4:	04500001 	ldrbeq	r0, [r0], #-1
     6a8:	0c000000 	stceq	0, cr0, [r0], {-0}
     6ac:	03000000 	movweq	r0, #0
     6b0:	9f307000 	svcls	0x00307000
     6b4:	0000000c 	andeq	r0, r0, ip
     6b8:	00000014 	andeq	r0, r0, r4, lsl r0
     6bc:	01f30004 	mvnseq	r0, r4
     6c0:	00009f50 	andeq	r9, r0, r0, asr pc
     6c4:	00000000 	andeq	r0, r0, r0
     6c8:	00140000 	andseq	r0, r4, r0
     6cc:	00200000 	eoreq	r0, r0, r0
     6d0:	00010000 	andeq	r0, r1, r0
     6d4:	00002050 	andeq	r2, r0, r0, asr r0
     6d8:	00002c00 	andeq	r2, r0, r0, lsl #24
     6dc:	70000300 	andvc	r0, r0, r0, lsl #6
     6e0:	002c9f01 	eoreq	r9, ip, r1, lsl #30
     6e4:	00400000 	subeq	r0, r0, r0
     6e8:	00010000 	andeq	r0, r1, r0
     6ec:	00000050 	andeq	r0, r0, r0, asr r0
     6f0:	00000000 	andeq	r0, r0, r0
     6f4:	00001400 	andeq	r1, r0, r0, lsl #8
     6f8:	00001800 	andeq	r1, r0, r0, lsl #16
     6fc:	51000100 	mrspl	r0, (UNDEF: 16)
     700:	00000018 	andeq	r0, r0, r8, lsl r0
     704:	00000040 	andeq	r0, r0, r0, asr #32
     708:	01f30004 	mvnseq	r0, r4
     70c:	00009f51 	andeq	r9, r0, r1, asr pc
     710:	00000000 	andeq	r0, r0, r0
     714:	00400000 	subeq	r0, r0, r0
     718:	00600000 	rsbeq	r0, r0, r0
     71c:	00010000 	andeq	r0, r1, r0
     720:	00006050 	andeq	r6, r0, r0, asr r0
     724:	00006c00 	andeq	r6, r0, r0, lsl #24
     728:	71000300 	mrsvc	r0, LR_irq
     72c:	006c9f01 	rsbeq	r9, ip, r1, lsl #30
     730:	00740000 	rsbseq	r0, r4, r0
     734:	00010000 	andeq	r0, r1, r0
     738:	00007451 	andeq	r7, r0, r1, asr r4
     73c:	00008000 	andeq	r8, r0, r0
     740:	71000300 	mrsvc	r0, LR_irq
     744:	00009f01 	andeq	r9, r0, r1, lsl #30
     748:	00000000 	andeq	r0, r0, r0
     74c:	00400000 	subeq	r0, r0, r0
     750:	00500000 	subseq	r0, r0, r0
     754:	00010000 	andeq	r0, r1, r0
     758:	00005051 	andeq	r5, r0, r1, asr r0
     75c:	00008000 	andeq	r8, r0, r0
     760:	f3000400 	vshl.u8	d0, d0, d0
     764:	009f5101 	addseq	r5, pc, r1, lsl #2
     768:	00000000 	andeq	r0, r0, r0
     76c:	40000000 	andmi	r0, r0, r0
     770:	58000000 	stmdapl	r0, {}	; <UNPREDICTABLE>
     774:	01000000 	mrseq	r0, (UNDEF: 0)
     778:	00585200 	subseq	r5, r8, r0, lsl #4
     77c:	00640000 	rsbeq	r0, r4, r0
     780:	00010000 	andeq	r0, r1, r0
     784:	00006452 	andeq	r6, r0, r2, asr r4
     788:	00006800 	andeq	r6, r0, r0, lsl #16
     78c:	72000300 	andvc	r0, r0, #0, 6
     790:	00689f01 	rsbeq	r9, r8, r1, lsl #30
     794:	00800000 	addeq	r0, r0, r0
     798:	00010000 	andeq	r0, r1, r0
     79c:	00000052 	andeq	r0, r0, r2, asr r0
     7a0:	00000000 	andeq	r0, r0, r0
     7a4:	00004000 	andeq	r4, r0, r0
     7a8:	00005400 	andeq	r5, r0, r0, lsl #8
     7ac:	53000100 	movwpl	r0, #256	; 0x100
     7b0:	00000054 	andeq	r0, r0, r4, asr r0
     7b4:	00000078 	andeq	r0, r0, r8, ror r0
     7b8:	00530001 	subseq	r0, r3, r1
     7bc:	00000000 	andeq	r0, r0, r0
     7c0:	48000000 	stmdami	r0, {}	; <UNPREDICTABLE>
     7c4:	60000000 	andvs	r0, r0, r0
     7c8:	01000000 	mrseq	r0, (UNDEF: 0)
     7cc:	00605c00 	rsbeq	r5, r0, r0, lsl #24
     7d0:	00800000 	addeq	r0, r0, r0
     7d4:	000a0000 	andeq	r0, sl, r0
     7d8:	f35201f3 	vbsl	q8, q9, <illegal reg q9.5>
     7dc:	231c5301 	tstcs	ip, #67108864	; 0x4000000
     7e0:	00009f01 	andeq	r9, r0, r1, lsl #30
     7e4:	00000000 	andeq	r0, r0, r0
     7e8:	00800000 	addeq	r0, r0, r0
     7ec:	00a40000 	adceq	r0, r4, r0
     7f0:	00010000 	andeq	r0, r1, r0
     7f4:	0000a450 	andeq	sl, r0, r0, asr r4
     7f8:	00011800 	andeq	r1, r1, r0, lsl #16
     7fc:	70000300 	andvc	r0, r0, r0, lsl #6
     800:	01189f02 	tsteq	r8, r2, lsl #30
     804:	02280000 	eoreq	r0, r8, #0
     808:	00040000 	andeq	r0, r4, r0
     80c:	9f5001f3 	svcls	0x005001f3
	...
     818:	00000080 	andeq	r0, r0, r0, lsl #1
     81c:	000000f0 	strdeq	r0, [r0], -r0	; <UNPREDICTABLE>
     820:	f0510001 			; <UNDEFINED> instruction: 0xf0510001
     824:	60000000 	andvs	r0, r0, r0
     828:	01000001 	tsteq	r0, r1
     82c:	01605500 	cmneq	r0, r0, lsl #10
     830:	01680000 	cmneq	r8, r0
     834:	00010000 	andeq	r0, r1, r0
     838:	00016851 	andeq	r6, r1, r1, asr r8
     83c:	00018800 	andeq	r8, r1, r0, lsl #16
     840:	55000100 	strpl	r0, [r0, #-256]	; 0x100
     844:	00000188 	andeq	r0, r0, r8, lsl #3
     848:	0000019c 	muleq	r0, ip, r1
     84c:	9c510001 	mrrcls	0, 0, r0, r1, cr1
     850:	bc000001 	stclt	0, cr0, [r0], {1}
     854:	01000001 	tsteq	r0, r1
     858:	01bc5500 			; <UNDEFINED> instruction: 0x01bc5500
     85c:	01bf0000 			; <UNDEFINED> instruction: 0x01bf0000
     860:	00010000 	andeq	r0, r1, r0
     864:	0001bf51 	andeq	fp, r1, r1, asr pc
     868:	00020800 	andeq	r0, r2, r0, lsl #16
     86c:	55000100 	strpl	r0, [r0, #-256]	; 0x100
     870:	00000208 	andeq	r0, r0, r8, lsl #4
     874:	00000228 	andeq	r0, r0, r8, lsr #4
     878:	01f30004 	mvnseq	r0, r4
     87c:	00009f51 	andeq	r9, r0, r1, asr pc
     880:	00000000 	andeq	r0, r0, r0
     884:	00800000 	addeq	r0, r0, r0
     888:	00940000 	addseq	r0, r4, r0
     88c:	00010000 	andeq	r0, r1, r0
     890:	00009452 	andeq	r9, r0, r2, asr r4
     894:	00020800 	andeq	r0, r2, r0, lsl #16
     898:	54000100 	strpl	r0, [r0], #-256	; 0x100
     89c:	00000208 	andeq	r0, r0, r8, lsl #4
     8a0:	00000228 	andeq	r0, r0, r8, lsr #4
     8a4:	01f30004 	mvnseq	r0, r4
     8a8:	00009f52 	andeq	r9, r0, r2, asr pc
     8ac:	00000000 	andeq	r0, r0, r0
     8b0:	00800000 	addeq	r0, r0, r0
     8b4:	01000000 	mrseq	r0, (UNDEF: 0)
     8b8:	00010000 	andeq	r0, r1, r0
     8bc:	00010453 	andeq	r0, r1, r3, asr r4
     8c0:	00010800 	andeq	r0, r1, r0, lsl #16
     8c4:	53000100 	movwpl	r0, #256	; 0x100
     8c8:	00000160 	andeq	r0, r0, r0, ror #2
     8cc:	00000168 	andeq	r0, r0, r8, ror #2
     8d0:	68530001 	ldmdavs	r3, {r0}^
     8d4:	88000001 	stmdahi	r0, {r0}
     8d8:	04000001 	streq	r0, [r0], #-1
     8dc:	5301f300 	movwpl	pc, #4864	; 0x1300	; <UNPREDICTABLE>
     8e0:	0001889f 	muleq	r1, pc, r8	; <UNPREDICTABLE>
     8e4:	00019000 	andeq	r9, r1, r0
     8e8:	53000100 	movwpl	r0, #256	; 0x100
     8ec:	00000190 	muleq	r0, r0, r1
     8f0:	00000194 	muleq	r0, r4, r1
     8f4:	945c0001 	ldrbls	r0, [ip], #-1
     8f8:	9c000001 	stcls	0, cr0, [r0], {1}
     8fc:	01000001 	tsteq	r0, r1
     900:	019c5300 	orrseq	r5, ip, r0, lsl #6
     904:	01bc0000 			; <UNDEFINED> instruction: 0x01bc0000
     908:	00040000 	andeq	r0, r4, r0
     90c:	9f5301f3 	svcls	0x005301f3
     910:	000001bc 			; <UNDEFINED> instruction: 0x000001bc
     914:	000001bf 			; <UNDEFINED> instruction: 0x000001bf
     918:	bf530001 	svclt	0x00530001
     91c:	e0000001 	and	r0, r0, r1
     920:	04000001 	streq	r0, [r0], #-1
     924:	5301f300 	movwpl	pc, #4864	; 0x1300	; <UNPREDICTABLE>
     928:	0000009f 	muleq	r0, pc, r0	; <UNPREDICTABLE>
     92c:	00000000 	andeq	r0, r0, r0
     930:	00008000 	andeq	r8, r0, r0
     934:	00009c00 	andeq	r9, r0, r0, lsl #24
     938:	91000200 	mrsls	r0, R8_usr
     93c:	00009c00 	andeq	r9, r0, r0, lsl #24
     940:	0001bf00 	andeq	fp, r1, r0, lsl #30
     944:	52000100 	andpl	r0, r0, #0, 2
     948:	000001e0 	andeq	r0, r0, r0, ror #3
     94c:	000001eb 	andeq	r0, r0, fp, ror #3
     950:	00520001 	subseq	r0, r2, r1
     954:	00000000 	andeq	r0, r0, r0
     958:	9c000000 	stcls	0, cr0, [r0], {-0}
     95c:	0c000000 	stceq	0, cr0, [r0], {-0}
     960:	04000001 	streq	r0, [r0], #-1
     964:	7fa09100 	svcvc	0x00a09100
     968:	00010c9f 	muleq	r1, pc, ip	; <UNPREDICTABLE>
     96c:	00011800 	andeq	r1, r1, r0, lsl #16
     970:	51000100 	mrspl	r0, (UNDEF: 16)
     974:	00000118 	andeq	r0, r0, r8, lsl r1
     978:	0000011c 	andeq	r0, r0, ip, lsl r1
     97c:	1c530001 	mrrcne	0, 0, r0, r3, cr1
     980:	20000001 	andcs	r0, r0, r1
     984:	01000001 	tsteq	r0, r1
     988:	01205100 	teqeq	r0, r0, lsl #2
     98c:	01600000 	cmneq	r0, r0
     990:	00010000 	andeq	r0, r1, r0
     994:	00016053 	andeq	r6, r1, r3, asr r0
     998:	00016400 	andeq	r6, r1, r0, lsl #8
     99c:	91000400 	tstls	r0, r0, lsl #8
     9a0:	649f7fa0 	ldrvs	r7, [pc], #4000	; 9a8 <_start-0x7658>
     9a4:	6c000001 	stcvs	0, cr0, [r0], {1}
     9a8:	01000001 	tsteq	r0, r1
     9ac:	016c5e00 	cmneq	ip, r0, lsl #28
     9b0:	01880000 	orreq	r0, r8, r0
     9b4:	00010000 	andeq	r0, r1, r0
     9b8:	00018853 	andeq	r8, r1, r3, asr r8
     9bc:	00019000 	andeq	r9, r1, r0
     9c0:	91000400 	tstls	r0, r0, lsl #8
     9c4:	909f7fa1 	addsls	r7, pc, r1, lsr #31
     9c8:	94000001 	strls	r0, [r0], #-1
     9cc:	01000001 	tsteq	r0, r1
     9d0:	01945300 	orrseq	r5, r4, r0, lsl #6
     9d4:	01980000 	orrseq	r0, r8, r0
     9d8:	00040000 	andeq	r0, r4, r0
     9dc:	9f7fa091 	svcls	0x007fa091
     9e0:	00000198 	muleq	r0, r8, r1
     9e4:	000001a0 	andeq	r0, r0, r0, lsr #3
     9e8:	a05e0001 	subsge	r0, lr, r1
     9ec:	bc000001 	stclt	0, cr0, [r0], {1}
     9f0:	01000001 	tsteq	r0, r1
     9f4:	01bc5300 			; <UNDEFINED> instruction: 0x01bc5300
     9f8:	01e00000 	mvneq	r0, r0
     9fc:	00040000 	andeq	r0, r4, r0
     a00:	9f7fa091 	svcls	0x007fa091
     a04:	000001e0 	andeq	r0, r0, r0, ror #3
     a08:	000001eb 	andeq	r0, r0, fp, ror #3
     a0c:	00530001 	subseq	r0, r3, r1
     a10:	00000000 	andeq	r0, r0, r0
     a14:	a0000000 	andge	r0, r0, r0
     a18:	ec000000 	stc	0, cr0, [r0], {-0}
     a1c:	01000000 	mrseq	r0, (UNDEF: 0)
     a20:	00ec5c00 	rsceq	r5, ip, r0, lsl #24
     a24:	01000000 	mrseq	r0, (UNDEF: 0)
     a28:	00010000 	andeq	r0, r1, r0
     a2c:	00010053 	andeq	r0, r1, r3, asr r0
     a30:	00010400 	andeq	r0, r1, r0, lsl #8
     a34:	5c000100 	stfpls	f0, [r0], {-0}
     a38:	00000104 	andeq	r0, r0, r4, lsl #2
     a3c:	00000108 	andeq	r0, r0, r8, lsl #2
     a40:	08530001 	ldmdaeq	r3, {r0}^
     a44:	18000001 	stmdane	r0, {r0}
     a48:	01000001 	tsteq	r0, r1
     a4c:	01185c00 	tsteq	r8, r0, lsl #24
     a50:	011c0000 	tsteq	ip, r0
     a54:	00010000 	andeq	r0, r1, r0
     a58:	00011c50 	andeq	r1, r1, r0, asr ip
     a5c:	00013c00 	andeq	r3, r1, r0, lsl #24
     a60:	5c000100 	stfpls	f0, [r0], {-0}
     a64:	00000144 	andeq	r0, r0, r4, asr #2
     a68:	00000158 	andeq	r0, r0, r8, asr r1
     a6c:	58500001 	ldmdapl	r0, {r0}^
     a70:	60000001 	andvs	r0, r0, r1
     a74:	01000001 	tsteq	r0, r1
     a78:	01605c00 	cmneq	r0, r0, lsl #24
     a7c:	01680000 	cmneq	r8, r0
     a80:	00010000 	andeq	r0, r1, r0
     a84:	00016853 	andeq	r6, r1, r3, asr r8
     a88:	00017800 	andeq	r7, r1, r0, lsl #16
     a8c:	5c000100 	stfpls	f0, [r0], {-0}
     a90:	00000178 	andeq	r0, r0, r8, ror r1
     a94:	00000180 	andeq	r0, r0, r0, lsl #3
     a98:	007c0005 	rsbseq	r0, ip, r5
     a9c:	809f2534 	addshi	r2, pc, r4, lsr r5	; <UNPREDICTABLE>
     aa0:	88000001 	stmdahi	r0, {r0}
     aa4:	01000001 	tsteq	r0, r1
     aa8:	01885c00 	orreq	r5, r8, r0, lsl #24
     aac:	01900000 	orrseq	r0, r0, r0
     ab0:	00010000 	andeq	r0, r1, r0
     ab4:	00019053 	andeq	r9, r1, r3, asr r0
     ab8:	00019400 	andeq	r9, r1, r0, lsl #8
     abc:	5c000100 	stfpls	f0, [r0], {-0}
     ac0:	00000194 	muleq	r0, r4, r1
     ac4:	0000019c 	muleq	r0, ip, r1
     ac8:	9c530001 	mrrcls	0, 0, r0, r3, cr1
     acc:	ac000001 	stcge	0, cr0, [r0], {1}
     ad0:	01000001 	tsteq	r0, r1
     ad4:	01ac5c00 			; <UNDEFINED> instruction: 0x01ac5c00
     ad8:	01b40000 			; <UNDEFINED> instruction: 0x01b40000
     adc:	00050000 	andeq	r0, r5, r0
     ae0:	2531007c 	ldrcs	r0, [r1, #-124]!	; 0x7c
     ae4:	0001b49f 	muleq	r1, pc, r4	; <UNPREDICTABLE>
     ae8:	0001bc00 	andeq	fp, r1, r0, lsl #24
     aec:	5c000100 	stfpls	f0, [r0], {-0}
     af0:	000001bc 			; <UNDEFINED> instruction: 0x000001bc
     af4:	000001bf 			; <UNDEFINED> instruction: 0x000001bf
     af8:	bf530001 	svclt	0x00530001
     afc:	e0000001 	and	r0, r0, r1
     b00:	04000001 	streq	r0, [r0], #-1
     b04:	5301f300 	movwpl	pc, #4864	; 0x1300	; <UNPREDICTABLE>
     b08:	0001e09f 	muleq	r1, pc, r0	; <UNPREDICTABLE>
     b0c:	0001eb00 	andeq	lr, r1, r0, lsl #22
     b10:	5c000100 	stfpls	f0, [r0], {-0}
	...
     b1c:	000000ec 	andeq	r0, r0, ip, ror #1
     b20:	000000fc 	strdeq	r0, [r0], -ip
     b24:	9f300002 	svcls	0x00300002
     b28:	000000fc 	strdeq	r0, [r0], -ip
     b2c:	00000104 	andeq	r0, r0, r4, lsl #2
     b30:	9f310002 	svcls	0x00310002
     b34:	00000104 	andeq	r0, r0, r4, lsl #2
     b38:	00000108 	andeq	r0, r0, r8, lsl #2
     b3c:	9f300002 	svcls	0x00300002
	...
     b48:	00000228 	andeq	r0, r0, r8, lsr #4
     b4c:	0000023b 	andeq	r0, r0, fp, lsr r2
     b50:	3b500001 	blcc	1400b5c <__bss_end__+0x13f68ac>
     b54:	5c000002 	stcpl	0, cr0, [r0], {2}
     b58:	04000002 	streq	r0, [r0], #-2
     b5c:	5001f300 	andpl	pc, r1, r0, lsl #6
     b60:	00025c9f 	muleq	r2, pc, ip	; <UNPREDICTABLE>
     b64:	00029000 	andeq	r9, r2, r0
     b68:	50000100 	andpl	r0, r0, r0, lsl #2
	...
     b74:	00000228 	andeq	r0, r0, r8, lsr #4
     b78:	0000023b 	andeq	r0, r0, fp, lsr r2
     b7c:	3b510001 	blcc	1440b88 <__bss_end__+0x14368d8>
     b80:	5c000002 	stcpl	0, cr0, [r0], {2}
     b84:	04000002 	streq	r0, [r0], #-2
     b88:	5101f300 	mrspl	pc, SP_irq	; <UNPREDICTABLE>
     b8c:	00025c9f 	muleq	r2, pc, ip	; <UNPREDICTABLE>
     b90:	00029000 	andeq	r9, r2, r0
     b94:	51000100 	mrspl	r0, (UNDEF: 16)
	...
     ba0:	00000290 	muleq	r0, r0, r2
     ba4:	000002bc 			; <UNDEFINED> instruction: 0x000002bc
     ba8:	bc500001 	mrrclt	0, 0, r0, r0, cr1	; <UNPREDICTABLE>
     bac:	0c000002 	stceq	0, cr0, [r0], {2}
     bb0:	01000005 	tsteq	r0, r5
     bb4:	050c5a00 	streq	r5, [ip, #-2560]	; 0xa00
     bb8:	05240000 	streq	r0, [r4, #-0]!
     bbc:	00040000 	andeq	r0, r4, r0
     bc0:	9f5001f3 	svcls	0x005001f3
	...
     bcc:	00000290 	muleq	r0, r0, r2
     bd0:	000002a4 	andeq	r0, r0, r4, lsr #5
     bd4:	a4510001 	ldrbge	r0, [r1], #-1
     bd8:	bc000002 	stclt	0, cr0, [r0], {2}
     bdc:	03000002 	movweq	r0, #2
     be0:	9f017100 	svcls	0x00017100
     be4:	000002bc 			; <UNDEFINED> instruction: 0x000002bc
     be8:	00000524 	andeq	r0, r0, r4, lsr #10
     bec:	01f30004 	mvnseq	r0, r4
     bf0:	00009f51 	andeq	r9, r0, r1, asr pc
     bf4:	00000000 	andeq	r0, r0, r0
     bf8:	02900000 	addseq	r0, r0, #0
     bfc:	02c40000 	sbceq	r0, r4, #0
     c00:	00010000 	andeq	r0, r1, r0
     c04:	0002c452 	andeq	ip, r2, r2, asr r4
     c08:	0002ec00 	andeq	lr, r2, r0, lsl #24
     c0c:	52000100 	andpl	r0, r0, #0, 2
     c10:	000002ec 	andeq	r0, r0, ip, ror #5
     c14:	000004bc 			; <UNDEFINED> instruction: 0x000004bc
     c18:	bc560001 	mrrclt	0, 0, r0, r6, cr1
     c1c:	24000004 	strcs	r0, [r0], #-4
     c20:	01000005 	tsteq	r0, r5
     c24:	00005200 	andeq	r5, r0, r0, lsl #4
     c28:	00000000 	andeq	r0, r0, r0
     c2c:	02900000 	addseq	r0, r0, #0
     c30:	02ac0000 	adceq	r0, ip, #0
     c34:	00010000 	andeq	r0, r1, r0
     c38:	00000053 	andeq	r0, r0, r3, asr r0
     c3c:	00000000 	andeq	r0, r0, r0
     c40:	0002a000 	andeq	sl, r2, r0
     c44:	0002bc00 	andeq	fp, r2, r0, lsl #24
     c48:	50000100 	andpl	r0, r0, r0, lsl #2
     c4c:	000002bc 			; <UNDEFINED> instruction: 0x000002bc
     c50:	000002c0 	andeq	r0, r0, r0, asr #5
     c54:	c0540001 	subsgt	r0, r4, r1
     c58:	cc000002 	stcgt	0, cr0, [r0], {2}
     c5c:	03000002 	movweq	r0, #2
     c60:	9f017400 	svcls	0x00017400
     c64:	000002cc 	andeq	r0, r0, ip, asr #5
     c68:	000002d8 	ldrdeq	r0, [r0], -r8
     c6c:	d8540001 	ldmdale	r4, {r0}^
     c70:	e4000002 	str	r0, [r0], #-2
     c74:	03000002 	movweq	r0, #2
     c78:	9f017400 	svcls	0x00017400
     c7c:	000002e4 	andeq	r0, r0, r4, ror #5
     c80:	000004c0 	andeq	r0, r0, r0, asr #9
     c84:	c0540001 	subsgt	r0, r4, r1
     c88:	cc000004 	stcgt	0, cr0, [r0], {4}
     c8c:	03000004 	movweq	r0, #4
     c90:	9f017400 	svcls	0x00017400
     c94:	000004cc 	andeq	r0, r0, ip, asr #9
     c98:	000004f8 	strdeq	r0, [r0], -r8
     c9c:	f8540001 			; <UNDEFINED> instruction: 0xf8540001
     ca0:	04000004 	streq	r0, [r0], #-4
     ca4:	01000005 	tsteq	r0, r5
     ca8:	05045000 	streq	r5, [r4, #-0]
     cac:	050c0000 	streq	r0, [ip, #-0]
     cb0:	00030000 	andeq	r0, r3, r0
     cb4:	009f0174 	addseq	r0, pc, r4, ror r1	; <UNPREDICTABLE>
     cb8:	00000000 	andeq	r0, r0, r0
     cbc:	a8000000 	stmdage	r0, {}	; <UNPREDICTABLE>
     cc0:	0c000002 	stceq	0, cr0, [r0], {2}
     cc4:	01000005 	tsteq	r0, r5
     cc8:	050c5800 	streq	r5, [ip, #-2048]	; 0x800
     ccc:	05240000 	streq	r0, [r4, #-0]!
     cd0:	000a0000 	andeq	r0, sl, r0
     cd4:	f35101f3 	vbsl	q8, <illegal reg q8.5>, <illegal reg q9.5>
     cd8:	31225001 	teqcc	r2, r1
     cdc:	00009f1c 	andeq	r9, r0, ip, lsl pc
     ce0:	00000000 	andeq	r0, r0, r0
     ce4:	03f40000 	mvnseq	r0, #0
     ce8:	03f80000 	mvnseq	r0, #0
     cec:	00010000 	andeq	r0, r1, r0
     cf0:	00041850 	andeq	r1, r4, r0, asr r8
     cf4:	00041c00 	andeq	r1, r4, r0, lsl #24
     cf8:	50000100 	andpl	r0, r0, r0, lsl #2
     cfc:	0000043c 	andeq	r0, r0, ip, lsr r4
     d00:	00000440 	andeq	r0, r0, r0, asr #8
     d04:	60500001 	subsvs	r0, r0, r1
     d08:	64000004 	strvs	r0, [r0], #-4
     d0c:	01000004 	tsteq	r0, r4
     d10:	046c5000 	strbteq	r5, [ip], #-0
     d14:	04700000 	ldrbteq	r0, [r0], #-0
     d18:	00010000 	andeq	r0, r1, r0
     d1c:	00049050 	andeq	r9, r4, r0, asr r0
     d20:	00049400 	andeq	r9, r4, r0, lsl #8
     d24:	50000100 	andpl	r0, r0, r0, lsl #2
     d28:	000004b8 			; <UNDEFINED> instruction: 0x000004b8
     d2c:	000004e0 	andeq	r0, r0, r0, ror #9
     d30:	00500001 	subseq	r0, r0, r1
     d34:	00000000 	andeq	r0, r0, r0
     d38:	ec000000 	stc	0, cr0, [r0], {-0}
     d3c:	f4000002 	vst4.8	{d0-d3}, [r0], r2
     d40:	02000002 	andeq	r0, r0, #2
     d44:	f49f3000 			; <UNDEFINED> instruction: 0xf49f3000
     d48:	f8000002 			; <UNDEFINED> instruction: 0xf8000002
     d4c:	01000002 	tsteq	r0, r2
     d50:	03045700 	movweq	r5, #18176	; 0x4700
     d54:	04e00000 	strbteq	r0, [r0], #0
     d58:	00010000 	andeq	r0, r1, r0
     d5c:	00000057 	andeq	r0, r0, r7, asr r0
     d60:	00000000 	andeq	r0, r0, r0
     d64:	00000400 	andeq	r0, r0, r0, lsl #8
     d68:	00000800 	andeq	r0, r0, r0, lsl #16
     d6c:	73000700 	movwvc	r0, #1792	; 0x700
     d70:	10000a00 	andne	r0, r0, r0, lsl #20
     d74:	00089f21 	andeq	r9, r8, r1, lsr #30
     d78:	00100000 	andseq	r0, r0, r0
     d7c:	00010000 	andeq	r0, r1, r0
     d80:	00000053 	andeq	r0, r0, r3, asr r0
     d84:	00000000 	andeq	r0, r0, r0
     d88:	00001400 	andeq	r1, r0, r0, lsl #8
     d8c:	00001800 	andeq	r1, r0, r0, lsl #16
     d90:	73000700 	movwvc	r0, #1792	; 0x700
     d94:	efff0b00 	svc	0x00ff0b00
     d98:	00189f1a 	andseq	r9, r8, sl, lsl pc
     d9c:	00200000 	eoreq	r0, r0, r0
     da0:	00010000 	andeq	r0, r1, r0
     da4:	00000053 	andeq	r0, r0, r3, asr r0
	...
     db0:	00000c00 	andeq	r0, r0, r0, lsl #24
     db4:	50000100 	andpl	r0, r0, r0, lsl #2
     db8:	0000000c 	andeq	r0, r0, ip
     dbc:	00000020 	andeq	r0, r0, r0, lsr #32
     dc0:	00540001 	subseq	r0, r4, r1
     dc4:	00000000 	andeq	r0, r0, r0
     dc8:	34000000 	strcc	r0, [r0], #-0
     dcc:	3c000000 	stccc	0, cr0, [r0], {-0}
     dd0:	03000000 	movweq	r0, #0
     dd4:	9f047300 	svcls	0x00047300
     dd8:	0000003c 	andeq	r0, r0, ip, lsr r0
     ddc:	00000047 	andeq	r0, r0, r7, asr #32
     de0:	00530001 	subseq	r0, r3, r1
     de4:	00000000 	andeq	r0, r0, r0
     de8:	48000000 	stmdami	r0, {}	; <UNPREDICTABLE>
     dec:	74000000 	strvc	r0, [r0], #-0
     df0:	01000000 	mrseq	r0, (UNDEF: 0)
     df4:	00745000 	rsbseq	r5, r4, r0
     df8:	00830000 	addeq	r0, r3, r0
     dfc:	00030000 	andeq	r0, r3, r0
     e00:	009f7873 	addseq	r7, pc, r3, ror r8	; <UNPREDICTABLE>
     e04:	00000000 	andeq	r0, r0, r0
     e08:	1c000000 	stcne	0, cr0, [r0], {-0}
     e0c:	2000008c 	andcs	r0, r0, ip, lsl #1
     e10:	0200008c 	andeq	r0, r0, #140	; 0x8c
     e14:	209f3000 	addscs	r3, pc, r0
     e18:	2400008c 	strcs	r0, [r0], #-140	; 0x8c
     e1c:	0100008c 	smlabbeq	r0, ip, r0, r0
     e20:	00005000 	andeq	r5, r0, r0
     e24:	00000000 	andeq	r0, r0, r0
     e28:	8c340000 	ldchi	0, cr0, [r4], #-0
     e2c:	8c380000 	ldchi	0, cr0, [r8], #-0
     e30:	00020000 	andeq	r0, r2, r0
     e34:	8c389f30 	ldchi	15, cr9, [r8], #-192	; 0xffffff40
     e38:	8c3c0000 	ldchi	0, cr0, [ip], #-0
     e3c:	00010000 	andeq	r0, r1, r0
     e40:	008c4053 	addeq	r4, ip, r3, asr r0
     e44:	008c4800 	addeq	r4, ip, r0, lsl #16
     e48:	53000100 	movwpl	r0, #256	; 0x100
	...
     e58:	00000004 	andeq	r0, r0, r4
     e5c:	04500001 	ldrbeq	r0, [r0], #-1
     e60:	0c000000 	stceq	0, cr0, [r0], {-0}
     e64:	01000000 	mrseq	r0, (UNDEF: 0)
     e68:	000c5300 	andeq	r5, ip, r0, lsl #6
     e6c:	00100000 	andseq	r0, r0, r0
     e70:	00010000 	andeq	r0, r1, r0
     e74:	00001050 	andeq	r1, r0, r0, asr r0
     e78:	00001c00 	andeq	r1, r0, r0, lsl #24
     e7c:	53000100 	movwpl	r0, #256	; 0x100
	...
     e88:	0000003c 	andeq	r0, r0, ip, lsr r0
     e8c:	00000047 	andeq	r0, r0, r7, asr #32
     e90:	47500001 	ldrbmi	r0, [r0, -r1]
     e94:	60000000 	andvs	r0, r0, r0
     e98:	01000000 	mrseq	r0, (UNDEF: 0)
     e9c:	00005500 	andeq	r5, r0, r0, lsl #10
     ea0:	00000000 	andeq	r0, r0, r0
     ea4:	00500000 	subseq	r0, r0, r0
     ea8:	00540000 	subseq	r0, r4, r0
     eac:	00010000 	andeq	r0, r1, r0
     eb0:	00000050 	andeq	r0, r0, r0, asr r0
     eb4:	00000000 	andeq	r0, r0, r0
     eb8:	00006000 	andeq	r6, r0, r0
     ebc:	00006c00 	andeq	r6, r0, r0, lsl #24
     ec0:	50000100 	andpl	r0, r0, r0, lsl #2
     ec4:	0000006c 	andeq	r0, r0, ip, rrx
     ec8:	00000074 	andeq	r0, r0, r4, ror r0
     ecc:	01f30004 	mvnseq	r0, r4
     ed0:	00009f50 	andeq	r9, r0, r0, asr pc
     ed4:	00000000 	andeq	r0, r0, r0
     ed8:	00740000 	rsbseq	r0, r4, r0
     edc:	00800000 	addeq	r0, r0, r0
     ee0:	00010000 	andeq	r0, r1, r0
     ee4:	00008050 	andeq	r8, r0, r0, asr r0
     ee8:	00008800 	andeq	r8, r0, r0, lsl #16
     eec:	f3000400 	vshl.u8	d0, d0, d0
     ef0:	009f5001 	addseq	r5, pc, r1
	...
     efc:	90000000 	andls	r0, r0, r0
     f00:	01000000 	mrseq	r0, (UNDEF: 0)
     f04:	00905000 	addseq	r5, r0, r0
     f08:	00d40000 	sbcseq	r0, r4, r0
     f0c:	00010000 	andeq	r0, r1, r0
     f10:	00000054 	andeq	r0, r0, r4, asr r0
     f14:	00000000 	andeq	r0, r0, r0
     f18:	00004800 	andeq	r4, r0, r0, lsl #16
     f1c:	00004c00 	andeq	r4, r0, r0, lsl #24
     f20:	55000100 	strpl	r0, [r0, #-256]	; 0x100
     f24:	00000054 	andeq	r0, r0, r4, asr r0
     f28:	00000058 	andeq	r0, r0, r8, asr r0
     f2c:	60550001 	subsvs	r0, r5, r1
     f30:	64000000 	strvs	r0, [r0], #-0
     f34:	01000000 	mrseq	r0, (UNDEF: 0)
     f38:	006c5500 	rsbeq	r5, ip, r0, lsl #10
     f3c:	00700000 	rsbseq	r0, r0, r0
     f40:	00010000 	andeq	r0, r1, r0
     f44:	00007855 	andeq	r7, r0, r5, asr r8
     f48:	00007c00 	andeq	r7, r0, r0, lsl #24
     f4c:	55000100 	strpl	r0, [r0, #-256]	; 0x100
     f50:	00000084 	andeq	r0, r0, r4, lsl #1
     f54:	00000088 	andeq	r0, r0, r8, lsl #1
     f58:	8c550001 	mrrchi	0, 0, r0, r5, cr1
     f5c:	d4000000 	strle	r0, [r0], #-0
     f60:	01000000 	mrseq	r0, (UNDEF: 0)
     f64:	00005500 	andeq	r5, r0, r0, lsl #10
     f68:	00000000 	andeq	r0, r0, r0
     f6c:	001c0000 	andseq	r0, ip, r0
     f70:	00440000 	subeq	r0, r4, r0
     f74:	00010000 	andeq	r0, r1, r0
     f78:	00004453 	andeq	r4, r0, r3, asr r4
     f7c:	00004c00 	andeq	r4, r0, r0, lsl #24
     f80:	70001c00 	andvc	r1, r0, r0, lsl #24
     f84:	f72cf700 			; <UNDEFINED> instruction: 0xf72cf700
     f88:	0825f425 	stmdaeq	r5!, {r0, r2, r5, sl, ip, sp, lr, pc}
     f8c:	cccccccd 	stclgt	12, cr12, [ip], {205}	; 0xcd
     f90:	00000000 	andeq	r0, r0, r0
     f94:	f720081e 			; <UNDEFINED> instruction: 0xf720081e
     f98:	2cf72525 	cfldr64cs	mvdx2, [r7], #148	; 0x94
     f9c:	4c9f2533 	cfldr32mi	mvfx2, [pc], {51}	; 0x33
     fa0:	50000000 	andpl	r0, r0, r0
     fa4:	01000000 	mrseq	r0, (UNDEF: 0)
     fa8:	00505300 	subseq	r5, r0, r0, lsl #6
     fac:	00580000 	subseq	r0, r8, r0
     fb0:	001c0000 	andseq	r0, ip, r0
     fb4:	2cf70070 	ldclcs	0, cr0, [r7], #448	; 0x1c0
     fb8:	25f425f7 	ldrbcs	r2, [r4, #1527]!	; 0x5f7
     fbc:	cccccd08 	stclgt	13, cr12, [ip], {8}
     fc0:	000000cc 	andeq	r0, r0, ip, asr #1
     fc4:	20081e00 	andcs	r1, r8, r0, lsl #28
     fc8:	f72525f7 			; <UNDEFINED> instruction: 0xf72525f7
     fcc:	9f25332c 	svcls	0x0025332c
     fd0:	00000058 	andeq	r0, r0, r8, asr r0
     fd4:	0000005c 	andeq	r0, r0, ip, asr r0
     fd8:	5c530001 	mrrcpl	0, 0, r0, r3, cr1
     fdc:	64000000 	strvs	r0, [r0], #-0
     fe0:	1c000000 	stcne	0, cr0, [r0], {-0}
     fe4:	f7007000 			; <UNDEFINED> instruction: 0xf7007000
     fe8:	f425f72c 	vld1.8	{d15}, [r5 :128], ip
     fec:	cccd0825 	stclgt	8, cr0, [sp], {37}	; 0x25
     ff0:	0000cccc 	andeq	ip, r0, ip, asr #25
     ff4:	081e0000 	ldmdaeq	lr, {}	; <UNPREDICTABLE>
     ff8:	2525f720 	strcs	pc, [r5, #-1824]!	; 0x720
     ffc:	25332cf7 	ldrcs	r2, [r3, #-3319]!	; 0xcf7
    1000:	0000649f 	muleq	r0, pc, r4	; <UNPREDICTABLE>
    1004:	00006800 	andeq	r6, r0, r0, lsl #16
    1008:	53000100 	movwpl	r0, #256	; 0x100
    100c:	00000068 	andeq	r0, r0, r8, rrx
    1010:	00000070 	andeq	r0, r0, r0, ror r0
    1014:	0070001c 	rsbseq	r0, r0, ip, lsl r0
    1018:	25f72cf7 	ldrbcs	r2, [r7, #3319]!	; 0xcf7
    101c:	cd0825f4 	cfstr32gt	mvfx2, [r8, #-976]	; 0xfffffc30
    1020:	00cccccc 	sbceq	ip, ip, ip, asr #25
    1024:	1e000000 	cdpne	0, 0, cr0, cr0, cr0, {0}
    1028:	25f72008 	ldrbcs	r2, [r7, #8]!
    102c:	332cf725 	msrcc	CPSR_fs, #9699328	; 0x940000
    1030:	00709f25 	rsbseq	r9, r0, r5, lsr #30
    1034:	00740000 	rsbseq	r0, r4, r0
    1038:	00010000 	andeq	r0, r1, r0
    103c:	00007453 	andeq	r7, r0, r3, asr r4
    1040:	00007c00 	andeq	r7, r0, r0, lsl #24
    1044:	70001c00 	andvc	r1, r0, r0, lsl #24
    1048:	f72cf700 			; <UNDEFINED> instruction: 0xf72cf700
    104c:	0825f425 	stmdaeq	r5!, {r0, r2, r5, sl, ip, sp, lr, pc}
    1050:	cccccccd 	stclgt	12, cr12, [ip], {205}	; 0xcd
    1054:	00000000 	andeq	r0, r0, r0
    1058:	f720081e 			; <UNDEFINED> instruction: 0xf720081e
    105c:	2cf72525 	cfldr64cs	mvdx2, [r7], #148	; 0x94
    1060:	7c9f2533 	cfldr32vc	mvfx2, [pc], {51}	; 0x33
    1064:	80000000 	andhi	r0, r0, r0
    1068:	01000000 	mrseq	r0, (UNDEF: 0)
    106c:	00805300 	addeq	r5, r0, r0, lsl #6
    1070:	00880000 	addeq	r0, r8, r0
    1074:	001c0000 	andseq	r0, ip, r0
    1078:	2cf70070 	ldclcs	0, cr0, [r7], #448	; 0x1c0
    107c:	25f425f7 	ldrbcs	r2, [r4, #1527]!	; 0x5f7
    1080:	cccccd08 	stclgt	13, cr12, [ip], {8}
    1084:	000000cc 	andeq	r0, r0, ip, asr #1
    1088:	20081e00 	andcs	r1, r8, r0, lsl #28
    108c:	f72525f7 			; <UNDEFINED> instruction: 0xf72525f7
    1090:	9f25332c 	svcls	0x0025332c
    1094:	00000088 	andeq	r0, r0, r8, lsl #1
    1098:	0000008c 	andeq	r0, r0, ip, lsl #1
    109c:	8c530001 	mrrchi	0, 0, r0, r3, cr1
    10a0:	90000000 	andls	r0, r0, r0
    10a4:	1c000000 	stcne	0, cr0, [r0], {-0}
    10a8:	f7007000 			; <UNDEFINED> instruction: 0xf7007000
    10ac:	f425f72c 	vld1.8	{d15}, [r5 :128], ip
    10b0:	cccd0825 	stclgt	8, cr0, [sp], {37}	; 0x25
    10b4:	0000cccc 	andeq	ip, r0, ip, asr #25
    10b8:	081e0000 	ldmdaeq	lr, {}	; <UNPREDICTABLE>
    10bc:	2525f720 	strcs	pc, [r5, #-1824]!	; 0x720
    10c0:	25332cf7 	ldrcs	r2, [r3, #-3319]!	; 0xcf7
    10c4:	0000909f 	muleq	r0, pc, r0	; <UNPREDICTABLE>
    10c8:	00009800 	andeq	r9, r0, r0, lsl #16
    10cc:	74001c00 	strvc	r1, [r0], #-3072	; 0xc00
    10d0:	f72cf700 			; <UNDEFINED> instruction: 0xf72cf700
    10d4:	0825f425 	stmdaeq	r5!, {r0, r2, r5, sl, ip, sp, lr, pc}
    10d8:	cccccccd 	stclgt	12, cr12, [ip], {205}	; 0xcd
    10dc:	00000000 	andeq	r0, r0, r0
    10e0:	f720081e 			; <UNDEFINED> instruction: 0xf720081e
    10e4:	2cf72525 	cfldr64cs	mvdx2, [r7], #148	; 0x94
    10e8:	989f2533 	ldmls	pc, {r0, r1, r4, r5, r8, sl, sp}	; <UNPREDICTABLE>
    10ec:	9c000000 	stcls	0, cr0, [r0], {-0}
    10f0:	17000000 	strne	r0, [r0, -r0]
    10f4:	f7007400 			; <UNDEFINED> instruction: 0xf7007400
    10f8:	7125f72c 	msrvc	SP_abt, ip
    10fc:	f72cf700 			; <UNDEFINED> instruction: 0xf72cf700
    1100:	20081e25 	andcs	r1, r8, r5, lsr #28
    1104:	f72525f7 			; <UNDEFINED> instruction: 0xf72525f7
    1108:	9f25332c 	svcls	0x0025332c
    110c:	0000009c 	muleq	r0, ip, r0
    1110:	000000d4 	ldrdeq	r0, [r0], -r4
    1114:	0074001c 	rsbseq	r0, r4, ip, lsl r0
    1118:	25f72cf7 	ldrbcs	r2, [r7, #3319]!	; 0xcf7
    111c:	cd0825f4 	cfstr32gt	mvfx2, [r8, #-976]	; 0xfffffc30
    1120:	00cccccc 	sbceq	ip, ip, ip, asr #25
    1124:	1e000000 	cdpne	0, 0, cr0, cr0, cr0, {0}
    1128:	25f72008 	ldrbcs	r2, [r7, #8]!
    112c:	332cf725 	msrcc	CPSR_fs, #9699328	; 0x940000
    1130:	00009f25 	andeq	r9, r0, r5, lsr #30
    1134:	00000000 	andeq	r0, r0, r0
    1138:	00940000 	addseq	r0, r4, r0
    113c:	00b80000 	adcseq	r0, r8, r0
    1140:	00010000 	andeq	r0, r1, r0
    1144:	0000b850 	andeq	fp, r0, r0, asr r8
    1148:	0000c400 	andeq	ip, r0, r0, lsl #8
    114c:	31000800 	tstcc	r0, r0, lsl #16
    1150:	73240071 	teqvc	r4, #113	; 0x71
    1154:	c49f2100 	ldrgt	r2, [pc], #256	; 115c <_start-0x6ea4>
    1158:	c7000000 	strgt	r0, [r0, -r0]
    115c:	01000000 	mrseq	r0, (UNDEF: 0)
    1160:	00005100 	andeq	r5, r0, r0, lsl #2
    1164:	00000000 	andeq	r0, r0, r0
    1168:	00d40000 	sbcseq	r0, r4, r0
    116c:	00f80000 	rscseq	r0, r8, r0
    1170:	00010000 	andeq	r0, r1, r0
    1174:	0000f850 	andeq	pc, r0, r0, asr r8	; <UNPREDICTABLE>
    1178:	00010c00 	andeq	r0, r1, r0, lsl #24
    117c:	f3000400 	vshl.u8	d0, d0, d0
    1180:	009f5001 	addseq	r5, pc, r1
    1184:	00000000 	andeq	r0, r0, r0
    1188:	e0000000 	and	r0, r0, r0
    118c:	e8000000 	stmda	r0, {}	; <UNPREDICTABLE>
    1190:	02000000 	andeq	r0, r0, #0
    1194:	e89f3000 	ldm	pc, {ip, sp}	; <UNPREDICTABLE>
    1198:	e8000000 	stmda	r0, {}	; <UNPREDICTABLE>
    119c:	01000000 	mrseq	r0, (UNDEF: 0)
    11a0:	00e85200 	rsceq	r5, r8, r0, lsl #4
    11a4:	00f00000 	rscseq	r0, r0, r0
    11a8:	00020000 	andeq	r0, r2, r0
    11ac:	00f09f30 	rscseq	r9, r0, r0, lsr pc
    11b0:	01030000 	mrseq	r0, (UNDEF: 3)
    11b4:	00010000 	andeq	r0, r1, r0
    11b8:	00000052 	andeq	r0, r0, r2, asr r0
    11bc:	00000000 	andeq	r0, r0, r0
    11c0:	0000e000 	andeq	lr, r0, r0
    11c4:	0000f400 	andeq	pc, r0, r0, lsl #8
    11c8:	30000200 	andcc	r0, r0, r0, lsl #4
    11cc:	0000f49f 	muleq	r0, pc, r4	; <UNPREDICTABLE>
    11d0:	00010000 	andeq	r0, r1, r0
    11d4:	31000500 	tstcc	r0, r0, lsl #10
    11d8:	9f240073 	svcls	0x00240073
    11dc:	00000100 	andeq	r0, r0, r0, lsl #2
    11e0:	00000103 	andeq	r0, r0, r3, lsl #2
    11e4:	03510001 	cmpeq	r1, #1
    11e8:	0c000001 	stceq	0, cr0, [r0], {1}
    11ec:	08000001 	stmdaeq	r0, {r0}
    11f0:	01f33100 	mvnseq	r3, r0, lsl #2
    11f4:	241a4f50 	ldrcs	r4, [sl], #-3920	; 0xf50
    11f8:	0000009f 	muleq	r0, pc, r0	; <UNPREDICTABLE>
    11fc:	00000000 	andeq	r0, r0, r0
    1200:	00010c00 	andeq	r0, r1, r0, lsl #24
    1204:	00013000 	andeq	r3, r1, r0
    1208:	50000100 	andpl	r0, r0, r0, lsl #2
    120c:	00000130 	andeq	r0, r0, r0, lsr r1
    1210:	00000144 	andeq	r0, r0, r4, asr #2
    1214:	01f30004 	mvnseq	r0, r4
    1218:	00009f50 	andeq	r9, r0, r0, asr pc
    121c:	00000000 	andeq	r0, r0, r0
    1220:	01180000 	tsteq	r8, r0
    1224:	01200000 	teqeq	r0, r0
    1228:	00020000 	andeq	r0, r2, r0
    122c:	01209f30 	teqeq	r0, r0, lsr pc
    1230:	01200000 	teqeq	r0, r0
    1234:	00010000 	andeq	r0, r1, r0
    1238:	00012052 	andeq	r2, r1, r2, asr r0
    123c:	00012800 	andeq	r2, r1, r0, lsl #16
    1240:	30000200 	andcc	r0, r0, r0, lsl #4
    1244:	0001289f 	muleq	r1, pc, r8	; <UNPREDICTABLE>
    1248:	00013b00 	andeq	r3, r1, r0, lsl #22
    124c:	52000100 	andpl	r0, r0, #0, 2
	...
    1258:	00000118 	andeq	r0, r0, r8, lsl r1
    125c:	0000012c 	andeq	r0, r0, ip, lsr #2
    1260:	9f300002 	svcls	0x00300002
    1264:	0000012c 	andeq	r0, r0, ip, lsr #2
    1268:	00000138 	andeq	r0, r0, r8, lsr r1
    126c:	73310005 	teqvc	r1, #5
    1270:	389f2400 	ldmcc	pc, {sl, sp}	; <UNPREDICTABLE>
    1274:	3b000001 	blcc	1280 <_start-0x6d80>
    1278:	01000001 	tsteq	r0, r1
    127c:	013b5100 	teqeq	fp, r0, lsl #2
    1280:	01440000 	mrseq	r0, (UNDEF: 68)
    1284:	00080000 	andeq	r0, r8, r0
    1288:	5001f331 	andpl	pc, r1, r1, lsr r3	; <UNPREDICTABLE>
    128c:	9f241a4f 	svcls	0x00241a4f
	...
    1298:	00000144 	andeq	r0, r0, r4, asr #2
    129c:	000001d4 	ldrdeq	r0, [r0], -r4
    12a0:	d4500001 	ldrble	r0, [r0], #-1
    12a4:	10000001 	andne	r0, r0, r1
    12a8:	01000002 	tsteq	r0, r2
    12ac:	00005400 	andeq	r5, r0, r0, lsl #8
    12b0:	00000000 	andeq	r0, r0, r0
    12b4:	018c0000 	orreq	r0, ip, r0
    12b8:	01900000 	orrseq	r0, r0, r0
    12bc:	00010000 	andeq	r0, r1, r0
    12c0:	00019855 	andeq	r9, r1, r5, asr r8
    12c4:	00019c00 	andeq	r9, r1, r0, lsl #24
    12c8:	55000100 	strpl	r0, [r0, #-256]	; 0x100
    12cc:	000001a4 	andeq	r0, r0, r4, lsr #3
    12d0:	000001a8 	andeq	r0, r0, r8, lsr #3
    12d4:	b0550001 	subslt	r0, r5, r1
    12d8:	b4000001 	strlt	r0, [r0], #-1
    12dc:	01000001 	tsteq	r0, r1
    12e0:	01bc5500 			; <UNDEFINED> instruction: 0x01bc5500
    12e4:	01c00000 	biceq	r0, r0, r0
    12e8:	00010000 	andeq	r0, r1, r0
    12ec:	0001c855 	andeq	ip, r1, r5, asr r8
    12f0:	0001cc00 	andeq	ip, r1, r0, lsl #24
    12f4:	55000100 	strpl	r0, [r0, #-256]	; 0x100
    12f8:	000001d0 	ldrdeq	r0, [r0], -r0	; <UNPREDICTABLE>
    12fc:	00000210 	andeq	r0, r0, r0, lsl r2
    1300:	00550001 	subseq	r0, r5, r1
    1304:	00000000 	andeq	r0, r0, r0
    1308:	60000000 	andvs	r0, r0, r0
    130c:	88000001 	stmdahi	r0, {r0}
    1310:	01000001 	tsteq	r0, r1
    1314:	01885300 	orreq	r5, r8, r0, lsl #6
    1318:	01900000 	orrseq	r0, r0, r0
    131c:	001c0000 	andseq	r0, ip, r0
    1320:	2cf70070 	ldclcs	0, cr0, [r7], #448	; 0x1c0
    1324:	25f425f7 	ldrbcs	r2, [r4, #1527]!	; 0x5f7
    1328:	cccccd08 	stclgt	13, cr12, [ip], {8}
    132c:	000000cc 	andeq	r0, r0, ip, asr #1
    1330:	20081e00 	andcs	r1, r8, r0, lsl #28
    1334:	f72525f7 			; <UNDEFINED> instruction: 0xf72525f7
    1338:	9f25332c 	svcls	0x0025332c
    133c:	00000190 	muleq	r0, r0, r1
    1340:	00000194 	muleq	r0, r4, r1
    1344:	94530001 	ldrbls	r0, [r3], #-1
    1348:	9c000001 	stcls	0, cr0, [r0], {1}
    134c:	1c000001 	stcne	0, cr0, [r0], {1}
    1350:	f7007000 			; <UNDEFINED> instruction: 0xf7007000
    1354:	f425f72c 	vld1.8	{d15}, [r5 :128], ip
    1358:	cccd0825 	stclgt	8, cr0, [sp], {37}	; 0x25
    135c:	0000cccc 	andeq	ip, r0, ip, asr #25
    1360:	081e0000 	ldmdaeq	lr, {}	; <UNPREDICTABLE>
    1364:	2525f720 	strcs	pc, [r5, #-1824]!	; 0x720
    1368:	25332cf7 	ldrcs	r2, [r3, #-3319]!	; 0xcf7
    136c:	00019c9f 	muleq	r1, pc, ip	; <UNPREDICTABLE>
    1370:	0001a000 	andeq	sl, r1, r0
    1374:	53000100 	movwpl	r0, #256	; 0x100
    1378:	000001a0 	andeq	r0, r0, r0, lsr #3
    137c:	000001a8 	andeq	r0, r0, r8, lsr #3
    1380:	0070001c 	rsbseq	r0, r0, ip, lsl r0
    1384:	25f72cf7 	ldrbcs	r2, [r7, #3319]!	; 0xcf7
    1388:	cd0825f4 	cfstr32gt	mvfx2, [r8, #-976]	; 0xfffffc30
    138c:	00cccccc 	sbceq	ip, ip, ip, asr #25
    1390:	1e000000 	cdpne	0, 0, cr0, cr0, cr0, {0}
    1394:	25f72008 	ldrbcs	r2, [r7, #8]!
    1398:	332cf725 	msrcc	CPSR_fs, #9699328	; 0x940000
    139c:	01a89f25 			; <UNDEFINED> instruction: 0x01a89f25
    13a0:	01ac0000 			; <UNDEFINED> instruction: 0x01ac0000
    13a4:	00010000 	andeq	r0, r1, r0
    13a8:	0001ac53 	andeq	sl, r1, r3, asr ip
    13ac:	0001b400 	andeq	fp, r1, r0, lsl #8
    13b0:	70001c00 	andvc	r1, r0, r0, lsl #24
    13b4:	f72cf700 			; <UNDEFINED> instruction: 0xf72cf700
    13b8:	0825f425 	stmdaeq	r5!, {r0, r2, r5, sl, ip, sp, lr, pc}
    13bc:	cccccccd 	stclgt	12, cr12, [ip], {205}	; 0xcd
    13c0:	00000000 	andeq	r0, r0, r0
    13c4:	f720081e 			; <UNDEFINED> instruction: 0xf720081e
    13c8:	2cf72525 	cfldr64cs	mvdx2, [r7], #148	; 0x94
    13cc:	b49f2533 	ldrlt	r2, [pc], #1331	; 13d4 <_start-0x6c2c>
    13d0:	b8000001 	stmdalt	r0, {r0}
    13d4:	01000001 	tsteq	r0, r1
    13d8:	01b85300 			; <UNDEFINED> instruction: 0x01b85300
    13dc:	01c00000 	biceq	r0, r0, r0
    13e0:	001c0000 	andseq	r0, ip, r0
    13e4:	2cf70070 	ldclcs	0, cr0, [r7], #448	; 0x1c0
    13e8:	25f425f7 	ldrbcs	r2, [r4, #1527]!	; 0x5f7
    13ec:	cccccd08 	stclgt	13, cr12, [ip], {8}
    13f0:	000000cc 	andeq	r0, r0, ip, asr #1
    13f4:	20081e00 	andcs	r1, r8, r0, lsl #28
    13f8:	f72525f7 			; <UNDEFINED> instruction: 0xf72525f7
    13fc:	9f25332c 	svcls	0x0025332c
    1400:	000001c0 	andeq	r0, r0, r0, asr #3
    1404:	000001c4 	andeq	r0, r0, r4, asr #3
    1408:	c4530001 	ldrbgt	r0, [r3], #-1
    140c:	cc000001 	stcgt	0, cr0, [r0], {1}
    1410:	1c000001 	stcne	0, cr0, [r0], {1}
    1414:	f7007000 			; <UNDEFINED> instruction: 0xf7007000
    1418:	f425f72c 	vld1.8	{d15}, [r5 :128], ip
    141c:	cccd0825 	stclgt	8, cr0, [sp], {37}	; 0x25
    1420:	0000cccc 	andeq	ip, r0, ip, asr #25
    1424:	081e0000 	ldmdaeq	lr, {}	; <UNPREDICTABLE>
    1428:	2525f720 	strcs	pc, [r5, #-1824]!	; 0x720
    142c:	25332cf7 	ldrcs	r2, [r3, #-3319]!	; 0xcf7
    1430:	0001cc9f 	muleq	r1, pc, ip	; <UNPREDICTABLE>
    1434:	0001d000 	andeq	sp, r1, r0
    1438:	53000100 	movwpl	r0, #256	; 0x100
    143c:	000001d0 	ldrdeq	r0, [r0], -r0	; <UNPREDICTABLE>
    1440:	000001d4 	ldrdeq	r0, [r0], -r4
    1444:	0070001c 	rsbseq	r0, r0, ip, lsl r0
    1448:	25f72cf7 	ldrbcs	r2, [r7, #3319]!	; 0xcf7
    144c:	cd0825f4 	cfstr32gt	mvfx2, [r8, #-976]	; 0xfffffc30
    1450:	00cccccc 	sbceq	ip, ip, ip, asr #25
    1454:	1e000000 	cdpne	0, 0, cr0, cr0, cr0, {0}
    1458:	25f72008 	ldrbcs	r2, [r7, #8]!
    145c:	332cf725 	msrcc	CPSR_fs, #9699328	; 0x940000
    1460:	01d49f25 	bicseq	r9, r4, r5, lsr #30
    1464:	01dc0000 	bicseq	r0, ip, r0
    1468:	001c0000 	andseq	r0, ip, r0
    146c:	2cf70074 	ldclcs	0, cr0, [r7], #464	; 0x1d0
    1470:	25f425f7 	ldrbcs	r2, [r4, #1527]!	; 0x5f7
    1474:	cccccd08 	stclgt	13, cr12, [ip], {8}
    1478:	000000cc 	andeq	r0, r0, ip, asr #1
    147c:	20081e00 	andcs	r1, r8, r0, lsl #28
    1480:	f72525f7 			; <UNDEFINED> instruction: 0xf72525f7
    1484:	9f25332c 	svcls	0x0025332c
    1488:	000001dc 	ldrdeq	r0, [r0], -ip
    148c:	000001e0 	andeq	r0, r0, r0, ror #3
    1490:	00740017 	rsbseq	r0, r4, r7, lsl r0
    1494:	25f72cf7 	ldrbcs	r2, [r7, #3319]!	; 0xcf7
    1498:	2cf70071 	ldclcs	0, cr0, [r7], #452	; 0x1c4
    149c:	081e25f7 	ldmdaeq	lr, {r0, r1, r2, r4, r5, r6, r7, r8, sl, sp}
    14a0:	2525f720 	strcs	pc, [r5, #-1824]!	; 0x720
    14a4:	25332cf7 	ldrcs	r2, [r3, #-3319]!	; 0xcf7
    14a8:	0001e09f 	muleq	r1, pc, r0	; <UNPREDICTABLE>
    14ac:	00021000 	andeq	r1, r2, r0
    14b0:	74001c00 	strvc	r1, [r0], #-3072	; 0xc00
    14b4:	f72cf700 			; <UNDEFINED> instruction: 0xf72cf700
    14b8:	0825f425 	stmdaeq	r5!, {r0, r2, r5, sl, ip, sp, lr, pc}
    14bc:	cccccccd 	stclgt	12, cr12, [ip], {205}	; 0xcd
    14c0:	00000000 	andeq	r0, r0, r0
    14c4:	f720081e 			; <UNDEFINED> instruction: 0xf720081e
    14c8:	2cf72525 	cfldr64cs	mvdx2, [r7], #148	; 0x94
    14cc:	009f2533 	addseq	r2, pc, r3, lsr r5	; <UNPREDICTABLE>
    14d0:	00000000 	andeq	r0, r0, r0
    14d4:	d8000000 	stmdale	r0, {}	; <UNPREDICTABLE>
    14d8:	fc000001 	stc2	0, cr0, [r0], {1}
    14dc:	01000001 	tsteq	r0, r1
    14e0:	01fc5000 	mvnseq	r5, r0
    14e4:	02030000 	andeq	r0, r3, #0
    14e8:	00010000 	andeq	r0, r1, r0
    14ec:	00000051 	andeq	r0, r0, r1, asr r0
    14f0:	00000000 	andeq	r0, r0, r0
    14f4:	00021000 	andeq	r1, r2, r0
    14f8:	00022c00 	andeq	r2, r2, r0, lsl #24
    14fc:	50000100 	andpl	r0, r0, r0, lsl #2
    1500:	0000022c 	andeq	r0, r0, ip, lsr #4
    1504:	00000234 	andeq	r0, r0, r4, lsr r2
    1508:	34540001 	ldrbcc	r0, [r4], #-1
    150c:	3c000002 	stccc	0, cr0, [r0], {2}
    1510:	01000002 	tsteq	r0, r2
    1514:	023c5000 	eorseq	r5, ip, #0
    1518:	02440000 	subeq	r0, r4, #0
    151c:	00010000 	andeq	r0, r1, r0
    1520:	00024454 	andeq	r4, r2, r4, asr r4
    1524:	00025000 	andeq	r5, r2, r0
    1528:	f3000400 	vshl.u8	d0, d0, d0
    152c:	509f5001 	addspl	r5, pc, r1
    1530:	54000002 	strpl	r0, [r0], #-2
    1534:	01000002 	tsteq	r0, r2
    1538:	02545000 	subseq	r5, r4, #0
    153c:	025c0000 	subseq	r0, ip, #0
    1540:	00010000 	andeq	r0, r1, r0
    1544:	00000054 	andeq	r0, r0, r4, asr r0
    1548:	00000000 	andeq	r0, r0, r0
    154c:	00022000 	andeq	r2, r2, r0
    1550:	00023000 	andeq	r3, r2, r0
    1554:	30000200 	andcc	r0, r0, r0, lsl #4
    1558:	0002309f 	muleq	r2, pc, r0	; <UNPREDICTABLE>
    155c:	00023400 	andeq	r3, r2, r0, lsl #8
    1560:	50000100 	andpl	r0, r0, r0, lsl #2
    1564:	00000234 	andeq	r0, r0, r4, lsr r2
    1568:	00000240 	andeq	r0, r0, r0, asr #4
    156c:	9f300002 	svcls	0x00300002
    1570:	00000240 	andeq	r0, r0, r0, asr #4
    1574:	0000024c 	andeq	r0, r0, ip, asr #4
    1578:	00500001 	subseq	r0, r0, r1
    157c:	00000000 	andeq	r0, r0, r0
    1580:	5c000000 	stcpl	0, cr0, [r0], {-0}
    1584:	73000002 	movwvc	r0, #2
    1588:	01000002 	tsteq	r0, r2
    158c:	02735000 	rsbseq	r5, r3, #0
    1590:	02780000 	rsbseq	r0, r8, #0
    1594:	00040000 	andeq	r0, r4, r0
    1598:	9f5001f3 	svcls	0x005001f3
    159c:	00000278 	andeq	r0, r0, r8, ror r2
    15a0:	0000027b 	andeq	r0, r0, fp, ror r2
    15a4:	7b500001 	blvc	14015b0 <__bss_end__+0x13f7300>
    15a8:	80000002 	andhi	r0, r0, r2
    15ac:	04000002 	streq	r0, [r0], #-2
    15b0:	5001f300 	andpl	pc, r1, r0, lsl #6
    15b4:	0000009f 	muleq	r0, pc, r0	; <UNPREDICTABLE>
    15b8:	00000000 	andeq	r0, r0, r0
    15bc:	00025c00 	andeq	r5, r2, r0, lsl #24
    15c0:	00027300 	andeq	r7, r2, r0, lsl #6
    15c4:	51000100 	mrspl	r0, (UNDEF: 16)
    15c8:	00000273 	andeq	r0, r0, r3, ror r2
    15cc:	00000278 	andeq	r0, r0, r8, ror r2
    15d0:	01f30004 	mvnseq	r0, r4
    15d4:	02789f51 	rsbseq	r9, r8, #324	; 0x144
    15d8:	027b0000 	rsbseq	r0, fp, #0
    15dc:	00010000 	andeq	r0, r1, r0
    15e0:	00027b51 	andeq	r7, r2, r1, asr fp
    15e4:	00028000 	andeq	r8, r2, r0
    15e8:	f3000400 	vshl.u8	d0, d0, d0
    15ec:	009f5101 	addseq	r5, pc, r1, lsl #2
    15f0:	00000000 	andeq	r0, r0, r0
    15f4:	80000000 	andhi	r0, r0, r0
    15f8:	18000002 	stmdane	r0, {r1}
    15fc:	01000003 	tsteq	r0, r3
    1600:	03185000 	tsteq	r8, #0
    1604:	03580000 	cmpeq	r8, #0
    1608:	00010000 	andeq	r0, r1, r0
    160c:	00000054 	andeq	r0, r0, r4, asr r0
    1610:	00000000 	andeq	r0, r0, r0
    1614:	00028000 	andeq	r8, r2, r0
    1618:	00031b00 	andeq	r1, r3, r0, lsl #22
    161c:	51000100 	mrspl	r0, (UNDEF: 16)
    1620:	0000031b 	andeq	r0, r0, fp, lsl r3
    1624:	00000358 	andeq	r0, r0, r8, asr r3
    1628:	01f30004 	mvnseq	r0, r4
    162c:	00009f51 	andeq	r9, r0, r1, asr pc
    1630:	00000000 	andeq	r0, r0, r0
    1634:	02d00000 	sbcseq	r0, r0, #0
    1638:	02d40000 	sbcseq	r0, r4, #0
    163c:	00010000 	andeq	r0, r1, r0
    1640:	0002dc56 	andeq	sp, r2, r6, asr ip
    1644:	0002e000 	andeq	lr, r2, r0
    1648:	56000100 	strpl	r0, [r0], -r0, lsl #2
    164c:	000002e8 	andeq	r0, r0, r8, ror #5
    1650:	000002ec 	andeq	r0, r0, ip, ror #5
    1654:	f4560001 			; <UNDEFINED> instruction: 0xf4560001
    1658:	f8000002 			; <UNDEFINED> instruction: 0xf8000002
    165c:	01000002 	tsteq	r0, r2
    1660:	03005600 	movweq	r5, #1536	; 0x600
    1664:	03040000 	movweq	r0, #16384	; 0x4000
    1668:	00010000 	andeq	r0, r1, r0
    166c:	00030c56 	andeq	r0, r3, r6, asr ip
    1670:	00031000 	andeq	r1, r3, r0
    1674:	56000100 	strpl	r0, [r0], -r0, lsl #2
    1678:	00000314 	andeq	r0, r0, r4, lsl r3
    167c:	00000358 	andeq	r0, r0, r8, asr r3
    1680:	00560001 	subseq	r0, r6, r1
    1684:	00000000 	andeq	r0, r0, r0
    1688:	a4000000 	strge	r0, [r0], #-0
    168c:	cc000002 	stcgt	0, cr0, [r0], {2}
    1690:	01000002 	tsteq	r0, r2
    1694:	02cc5300 	sbceq	r5, ip, #0, 6
    1698:	02d40000 	sbcseq	r0, r4, #0
    169c:	001c0000 	andseq	r0, ip, r0
    16a0:	2cf70070 	ldclcs	0, cr0, [r7], #448	; 0x1c0
    16a4:	25f425f7 	ldrbcs	r2, [r4, #1527]!	; 0x5f7
    16a8:	cccccd08 	stclgt	13, cr12, [ip], {8}
    16ac:	000000cc 	andeq	r0, r0, ip, asr #1
    16b0:	20081e00 	andcs	r1, r8, r0, lsl #28
    16b4:	f72525f7 			; <UNDEFINED> instruction: 0xf72525f7
    16b8:	9f25332c 	svcls	0x0025332c
    16bc:	000002d4 	ldrdeq	r0, [r0], -r4
    16c0:	000002d8 	ldrdeq	r0, [r0], -r8
    16c4:	d8530001 	ldmdale	r3, {r0}^
    16c8:	e0000002 	and	r0, r0, r2
    16cc:	1c000002 	stcne	0, cr0, [r0], {2}
    16d0:	f7007000 			; <UNDEFINED> instruction: 0xf7007000
    16d4:	f425f72c 	vld1.8	{d15}, [r5 :128], ip
    16d8:	cccd0825 	stclgt	8, cr0, [sp], {37}	; 0x25
    16dc:	0000cccc 	andeq	ip, r0, ip, asr #25
    16e0:	081e0000 	ldmdaeq	lr, {}	; <UNPREDICTABLE>
    16e4:	2525f720 	strcs	pc, [r5, #-1824]!	; 0x720
    16e8:	25332cf7 	ldrcs	r2, [r3, #-3319]!	; 0xcf7
    16ec:	0002e09f 	muleq	r2, pc, r0	; <UNPREDICTABLE>
    16f0:	0002e400 	andeq	lr, r2, r0, lsl #8
    16f4:	53000100 	movwpl	r0, #256	; 0x100
    16f8:	000002e4 	andeq	r0, r0, r4, ror #5
    16fc:	000002ec 	andeq	r0, r0, ip, ror #5
    1700:	0070001c 	rsbseq	r0, r0, ip, lsl r0
    1704:	25f72cf7 	ldrbcs	r2, [r7, #3319]!	; 0xcf7
    1708:	cd0825f4 	cfstr32gt	mvfx2, [r8, #-976]	; 0xfffffc30
    170c:	00cccccc 	sbceq	ip, ip, ip, asr #25
    1710:	1e000000 	cdpne	0, 0, cr0, cr0, cr0, {0}
    1714:	25f72008 	ldrbcs	r2, [r7, #8]!
    1718:	332cf725 	msrcc	CPSR_fs, #9699328	; 0x940000
    171c:	02ec9f25 	rsceq	r9, ip, #37, 30	; 0x94
    1720:	02f00000 	rscseq	r0, r0, #0
    1724:	00010000 	andeq	r0, r1, r0
    1728:	0002f053 	andeq	pc, r2, r3, asr r0	; <UNPREDICTABLE>
    172c:	0002f800 	andeq	pc, r2, r0, lsl #16
    1730:	70001c00 	andvc	r1, r0, r0, lsl #24
    1734:	f72cf700 			; <UNDEFINED> instruction: 0xf72cf700
    1738:	0825f425 	stmdaeq	r5!, {r0, r2, r5, sl, ip, sp, lr, pc}
    173c:	cccccccd 	stclgt	12, cr12, [ip], {205}	; 0xcd
    1740:	00000000 	andeq	r0, r0, r0
    1744:	f720081e 			; <UNDEFINED> instruction: 0xf720081e
    1748:	2cf72525 	cfldr64cs	mvdx2, [r7], #148	; 0x94
    174c:	f89f2533 			; <UNDEFINED> instruction: 0xf89f2533
    1750:	fc000002 	stc2	0, cr0, [r0], {2}
    1754:	01000002 	tsteq	r0, r2
    1758:	02fc5300 	rscseq	r5, ip, #0, 6
    175c:	03040000 	movweq	r0, #16384	; 0x4000
    1760:	001c0000 	andseq	r0, ip, r0
    1764:	2cf70070 	ldclcs	0, cr0, [r7], #448	; 0x1c0
    1768:	25f425f7 	ldrbcs	r2, [r4, #1527]!	; 0x5f7
    176c:	cccccd08 	stclgt	13, cr12, [ip], {8}
    1770:	000000cc 	andeq	r0, r0, ip, asr #1
    1774:	20081e00 	andcs	r1, r8, r0, lsl #28
    1778:	f72525f7 			; <UNDEFINED> instruction: 0xf72525f7
    177c:	9f25332c 	svcls	0x0025332c
    1780:	00000304 	andeq	r0, r0, r4, lsl #6
    1784:	00000308 	andeq	r0, r0, r8, lsl #6
    1788:	08530001 	ldmdaeq	r3, {r0}^
    178c:	10000003 	andne	r0, r0, r3
    1790:	1c000003 	stcne	0, cr0, [r0], {3}
    1794:	f7007000 			; <UNDEFINED> instruction: 0xf7007000
    1798:	f425f72c 	vld1.8	{d15}, [r5 :128], ip
    179c:	cccd0825 	stclgt	8, cr0, [sp], {37}	; 0x25
    17a0:	0000cccc 	andeq	ip, r0, ip, asr #25
    17a4:	081e0000 	ldmdaeq	lr, {}	; <UNPREDICTABLE>
    17a8:	2525f720 	strcs	pc, [r5, #-1824]!	; 0x720
    17ac:	25332cf7 	ldrcs	r2, [r3, #-3319]!	; 0xcf7
    17b0:	0003109f 	muleq	r3, pc, r0	; <UNPREDICTABLE>
    17b4:	00031400 	andeq	r1, r3, r0, lsl #8
    17b8:	53000100 	movwpl	r0, #256	; 0x100
    17bc:	00000314 	andeq	r0, r0, r4, lsl r3
    17c0:	00000318 	andeq	r0, r0, r8, lsl r3
    17c4:	0070001c 	rsbseq	r0, r0, ip, lsl r0
    17c8:	25f72cf7 	ldrbcs	r2, [r7, #3319]!	; 0xcf7
    17cc:	cd0825f4 	cfstr32gt	mvfx2, [r8, #-976]	; 0xfffffc30
    17d0:	00cccccc 	sbceq	ip, ip, ip, asr #25
    17d4:	1e000000 	cdpne	0, 0, cr0, cr0, cr0, {0}
    17d8:	25f72008 	ldrbcs	r2, [r7, #8]!
    17dc:	332cf725 	msrcc	CPSR_fs, #9699328	; 0x940000
    17e0:	03189f25 	tsteq	r8, #37, 30	; 0x94
    17e4:	03200000 	teqeq	r0, #0
    17e8:	001c0000 	andseq	r0, ip, r0
    17ec:	2cf70074 	ldclcs	0, cr0, [r7], #464	; 0x1d0
    17f0:	25f425f7 	ldrbcs	r2, [r4, #1527]!	; 0x5f7
    17f4:	cccccd08 	stclgt	13, cr12, [ip], {8}
    17f8:	000000cc 	andeq	r0, r0, ip, asr #1
    17fc:	20081e00 	andcs	r1, r8, r0, lsl #28
    1800:	f72525f7 			; <UNDEFINED> instruction: 0xf72525f7
    1804:	9f25332c 	svcls	0x0025332c
    1808:	00000320 	andeq	r0, r0, r0, lsr #6
    180c:	00000324 	andeq	r0, r0, r4, lsr #6
    1810:	00740017 	rsbseq	r0, r4, r7, lsl r0
    1814:	25f72cf7 	ldrbcs	r2, [r7, #3319]!	; 0xcf7
    1818:	2cf70073 	ldclcs	0, cr0, [r7], #460	; 0x1cc
    181c:	081e25f7 	ldmdaeq	lr, {r0, r1, r2, r4, r5, r6, r7, r8, sl, sp}
    1820:	2525f720 	strcs	pc, [r5, #-1824]!	; 0x720
    1824:	25332cf7 	ldrcs	r2, [r3, #-3319]!	; 0xcf7
    1828:	0003249f 	muleq	r3, pc, r4	; <UNPREDICTABLE>
    182c:	00035800 	andeq	r5, r3, r0, lsl #16
    1830:	74001c00 	strvc	r1, [r0], #-3072	; 0xc00
    1834:	f72cf700 			; <UNDEFINED> instruction: 0xf72cf700
    1838:	0825f425 	stmdaeq	r5!, {r0, r2, r5, sl, ip, sp, lr, pc}
    183c:	cccccccd 	stclgt	12, cr12, [ip], {205}	; 0xcd
    1840:	00000000 	andeq	r0, r0, r0
    1844:	f720081e 			; <UNDEFINED> instruction: 0xf720081e
    1848:	2cf72525 	cfldr64cs	mvdx2, [r7], #148	; 0x94
    184c:	009f2533 	addseq	r2, pc, r3, lsr r5	; <UNPREDICTABLE>
    1850:	00000000 	andeq	r0, r0, r0
    1854:	1c000000 	stcne	0, cr0, [r0], {-0}
    1858:	40000003 	andmi	r0, r0, r3
    185c:	01000003 	tsteq	r0, r3
    1860:	03405000 	movteq	r5, #0
    1864:	03480000 	movteq	r0, #32768	; 0x8000
    1868:	00090000 	andeq	r0, r9, r0
    186c:	00730075 	rsbseq	r0, r3, r5, ror r0
    1870:	21007124 	tstcs	r0, r4, lsr #2
    1874:	0003489f 	muleq	r3, pc, r8	; <UNPREDICTABLE>
    1878:	00034b00 	andeq	r4, r3, r0, lsl #22
    187c:	51000100 	mrspl	r0, (UNDEF: 16)
	...
    1888:	00000358 	andeq	r0, r0, r8, asr r3
    188c:	0000037c 	andeq	r0, r0, ip, ror r3
    1890:	7c500001 	mrrcvc	0, 0, r0, r0, cr1	; <UNPREDICTABLE>
    1894:	90000003 	andls	r0, r0, r3
    1898:	04000003 	streq	r0, [r0], #-3
    189c:	5001f300 	andpl	pc, r1, r0, lsl #6
    18a0:	0000009f 	muleq	r0, pc, r0	; <UNPREDICTABLE>
    18a4:	00000000 	andeq	r0, r0, r0
    18a8:	00036400 	andeq	r6, r3, r0, lsl #8
    18ac:	00036c00 	andeq	r6, r3, r0, lsl #24
    18b0:	30000200 	andcc	r0, r0, r0, lsl #4
    18b4:	00036c9f 	muleq	r3, pc, ip	; <UNPREDICTABLE>
    18b8:	00036c00 	andeq	r6, r3, r0, lsl #24
    18bc:	52000100 	andpl	r0, r0, #0, 2
    18c0:	0000036c 	andeq	r0, r0, ip, ror #6
    18c4:	00000374 	andeq	r0, r0, r4, ror r3
    18c8:	9f300002 	svcls	0x00300002
    18cc:	00000374 	andeq	r0, r0, r4, ror r3
    18d0:	00000387 	andeq	r0, r0, r7, lsl #7
    18d4:	00520001 	subseq	r0, r2, r1
    18d8:	00000000 	andeq	r0, r0, r0
    18dc:	64000000 	strvs	r0, [r0], #-0
    18e0:	78000003 	stmdavc	r0, {r0, r1}
    18e4:	02000003 	andeq	r0, r0, #3
    18e8:	789f3000 	ldmvc	pc, {ip, sp}	; <UNPREDICTABLE>
    18ec:	84000003 	strhi	r0, [r0], #-3
    18f0:	05000003 	streq	r0, [r0, #-3]
    18f4:	00733100 	rsbseq	r3, r3, r0, lsl #2
    18f8:	03849f24 	orreq	r9, r4, #36, 30	; 0x90
    18fc:	03870000 	orreq	r0, r7, #0
    1900:	00010000 	andeq	r0, r1, r0
    1904:	00038751 	andeq	r8, r3, r1, asr r7
    1908:	00039000 	andeq	r9, r3, r0
    190c:	31000800 	tstcc	r0, r0, lsl #16
    1910:	4f5001f3 	svcmi	0x005001f3
    1914:	009f241a 	addseq	r2, pc, sl, lsl r4	; <UNPREDICTABLE>
    1918:	00000000 	andeq	r0, r0, r0
    191c:	90000000 	andls	r0, r0, r0
    1920:	9c000003 	stcls	0, cr0, [r0], {3}
    1924:	01000003 	tsteq	r0, r3
    1928:	039c5000 	orrseq	r5, ip, #0
    192c:	03bc0000 			; <UNDEFINED> instruction: 0x03bc0000
    1930:	00040000 	andeq	r0, r4, r0
    1934:	9f5001f3 	svcls	0x005001f3
	...
    1940:	000003bc 			; <UNDEFINED> instruction: 0x000003bc
    1944:	000003cf 	andeq	r0, r0, pc, asr #7
    1948:	cf500001 	svcgt	0x00500001
    194c:	08000003 	stmdaeq	r0, {r0, r1}
    1950:	01000004 	tsteq	r0, r4
    1954:	04085400 	streq	r5, [r8], #-1024	; 0x400
    1958:	04400000 	strbeq	r0, [r0], #-0
    195c:	00040000 	andeq	r0, r4, r0
    1960:	9f5001f3 	svcls	0x005001f3
	...
    196c:	00000428 	andeq	r0, r0, r8, lsr #8
    1970:	0000042c 	andeq	r0, r0, ip, lsr #8
    1974:	2c500001 	mrrccs	0, 0, r0, r0, cr1	; <UNPREDICTABLE>
    1978:	33000004 	movwcc	r0, #4
    197c:	01000004 	tsteq	r0, r4
    1980:	00005100 	andeq	r5, r0, r0, lsl #2
    1984:	00000000 	andeq	r0, r0, r0
    1988:	03e40000 	mvneq	r0, #0
    198c:	03ec0000 	mvneq	r0, #0
    1990:	00010000 	andeq	r0, r1, r0
    1994:	0003ec50 	andeq	lr, r3, r0, asr ip
    1998:	0003f300 	andeq	pc, r3, r0, lsl #6
    199c:	51000100 	mrspl	r0, (UNDEF: 16)
	...
    19a8:	00000404 	andeq	r0, r0, r4, lsl #8
    19ac:	00000410 	andeq	r0, r0, r0, lsl r4
    19b0:	10500001 	subsne	r0, r0, r1
    19b4:	17000004 	strne	r0, [r0, -r4]
    19b8:	01000004 	tsteq	r0, r4
    19bc:	00005100 	andeq	r5, r0, r0, lsl #2
    19c0:	00000000 	andeq	r0, r0, r0
    19c4:	04400000 	strbeq	r0, [r0], #-0
    19c8:	04530000 	ldrbeq	r0, [r3], #-0
    19cc:	00010000 	andeq	r0, r1, r0
    19d0:	00045350 	andeq	r5, r4, r0, asr r3
    19d4:	00048c00 	andeq	r8, r4, r0, lsl #24
    19d8:	54000100 	strpl	r0, [r0], #-256	; 0x100
    19dc:	0000048c 	andeq	r0, r0, ip, lsl #9
    19e0:	000004c4 	andeq	r0, r0, r4, asr #9
    19e4:	01f30004 	mvnseq	r0, r4
    19e8:	00009f50 	andeq	r9, r0, r0, asr pc
    19ec:	00000000 	andeq	r0, r0, r0
    19f0:	04ac0000 	strteq	r0, [ip], #0
    19f4:	04b00000 	ldrteq	r0, [r0], #0
    19f8:	00010000 	andeq	r0, r1, r0
    19fc:	0004b050 	andeq	fp, r4, r0, asr r0
    1a00:	0004b700 	andeq	fp, r4, r0, lsl #14
    1a04:	51000100 	mrspl	r0, (UNDEF: 16)
	...
    1a10:	00000468 	andeq	r0, r0, r8, ror #8
    1a14:	00000470 	andeq	r0, r0, r0, ror r4
    1a18:	70500001 	subsvc	r0, r0, r1
    1a1c:	77000004 	strvc	r0, [r0, -r4]
    1a20:	01000004 	tsteq	r0, r4
    1a24:	00005100 	andeq	r5, r0, r0, lsl #2
    1a28:	00000000 	andeq	r0, r0, r0
    1a2c:	04880000 	streq	r0, [r8], #0
    1a30:	04940000 	ldreq	r0, [r4], #0
    1a34:	00010000 	andeq	r0, r1, r0
    1a38:	00049450 	andeq	r9, r4, r0, asr r4
    1a3c:	00049b00 	andeq	r9, r4, r0, lsl #22
    1a40:	51000100 	mrspl	r0, (UNDEF: 16)
	...
    1a4c:	000004c4 	andeq	r0, r0, r4, asr #9
    1a50:	000004d7 	ldrdeq	r0, [r0], -r7
    1a54:	d7500001 	ldrble	r0, [r0, -r1]
    1a58:	18000004 	stmdane	r0, {r2}
    1a5c:	01000005 	tsteq	r0, r5
    1a60:	05185400 	ldreq	r5, [r8, #-1024]	; 0x400
    1a64:	053c0000 	ldreq	r0, [ip, #-0]!
    1a68:	00040000 	andeq	r0, r4, r0
    1a6c:	9f5001f3 	svcls	0x005001f3
    1a70:	0000053c 	andeq	r0, r0, ip, lsr r5
    1a74:	00000540 	andeq	r0, r0, r0, asr #10
    1a78:	40500001 	subsmi	r0, r0, r1
    1a7c:	48000005 	stmdami	r0, {r0, r2}
    1a80:	01000005 	tsteq	r0, r5
    1a84:	00005400 	andeq	r5, r0, r0, lsl #8
    1a88:	00000000 	andeq	r0, r0, r0
    1a8c:	04ec0000 	strbteq	r0, [ip], #0
    1a90:	04fb0000 	ldrbteq	r0, [fp], #0
    1a94:	00080000 	andeq	r0, r8, r0
    1a98:	24007431 	strcs	r7, [r0], #-1073	; 0x431
    1a9c:	9f1a0070 	svcls	0x001a0070
	...
    1aa8:	00000518 	andeq	r0, r0, r8, lsl r5
    1aac:	00000530 	andeq	r0, r0, r0, lsr r5
    1ab0:	00540001 	subseq	r0, r4, r1
    1ab4:	00000000 	andeq	r0, r0, r0
    1ab8:	48000000 	stmdami	r0, {}	; <UNPREDICTABLE>
    1abc:	5b000005 	blpl	1ad8 <_start-0x6528>
    1ac0:	01000005 	tsteq	r0, r5
    1ac4:	055b5000 	ldrbeq	r5, [fp, #-0]
    1ac8:	05800000 	streq	r0, [r0]
    1acc:	00010000 	andeq	r0, r1, r0
    1ad0:	00058054 	andeq	r8, r5, r4, asr r0
    1ad4:	0005a000 	andeq	sl, r5, r0
    1ad8:	f3000400 	vshl.u8	d0, d0, d0
    1adc:	009f5001 	addseq	r5, pc, r1
	...
    1ae8:	18000000 	stmdane	r0, {}	; <UNPREDICTABLE>
    1aec:	01000000 	mrseq	r0, (UNDEF: 0)
    1af0:	00185000 	andseq	r5, r8, r0
    1af4:	01540000 	cmpeq	r4, r0
    1af8:	00040000 	andeq	r0, r4, r0
    1afc:	9f5001f3 	svcls	0x005001f3
	...
    1b0c:	0000001c 	andeq	r0, r0, ip, lsl r0
    1b10:	1c510001 	mrrcne	0, 0, r0, r1, cr1
    1b14:	54000000 	strpl	r0, [r0], #-0
    1b18:	04000001 	streq	r0, [r0], #-1
    1b1c:	5101f300 	mrspl	pc, SP_irq	; <UNPREDICTABLE>
    1b20:	0000009f 	muleq	r0, pc, r0	; <UNPREDICTABLE>
    1b24:	00000000 	andeq	r0, r0, r0
    1b28:	00001000 	andeq	r1, r0, r0
    1b2c:	00013400 	andeq	r3, r1, r0, lsl #8
    1b30:	55000100 	strpl	r0, [r0, #-256]	; 0x100
	...
    1b3c:	00000010 	andeq	r0, r0, r0, lsl r0
    1b40:	00000034 	andeq	r0, r0, r4, lsr r0
    1b44:	34550001 	ldrbcc	r0, [r5], #-1
    1b48:	34000000 	strcc	r0, [r0], #-0
    1b4c:	01000001 	tsteq	r0, r1
    1b50:	01345800 	teqeq	r4, r0, lsl #16
    1b54:	01540000 	cmpeq	r4, r0
    1b58:	00010000 	andeq	r0, r1, r0
    1b5c:	00000055 	andeq	r0, r0, r5, asr r0
    1b60:	00000000 	andeq	r0, r0, r0
    1b64:	00001400 	andeq	r1, r0, r0, lsl #8
    1b68:	00013400 	andeq	r3, r1, r0, lsl #8
    1b6c:	55000100 	strpl	r0, [r0, #-256]	; 0x100
	...
    1b78:	00000020 	andeq	r0, r0, r0, lsr #32
    1b7c:	00000134 	andeq	r0, r0, r4, lsr r1
    1b80:	00550001 	subseq	r0, r5, r1
    1b84:	00000000 	andeq	r0, r0, r0
    1b88:	24000000 	strcs	r0, [r0], #-0
    1b8c:	28000000 	stmdacs	r0, {}	; <UNPREDICTABLE>
    1b90:	01000000 	mrseq	r0, (UNDEF: 0)
    1b94:	00005300 	andeq	r5, r0, r0, lsl #6
    1b98:	00000000 	andeq	r0, r0, r0
    1b9c:	00340000 	eorseq	r0, r4, r0
    1ba0:	00540000 	subseq	r0, r4, r0
    1ba4:	00010000 	andeq	r0, r1, r0
    1ba8:	00005458 	andeq	r5, r0, r8, asr r4
    1bac:	00013400 	andeq	r3, r1, r0, lsl #8
    1bb0:	75000500 	strvc	r0, [r0, #-1280]	; 0x500
    1bb4:	9f243100 	svcls	0x00243100
	...
    1bc0:	00000034 	andeq	r0, r0, r4, lsr r0
    1bc4:	0000003c 	andeq	r0, r0, ip, lsr r0
    1bc8:	00770005 	rsbseq	r0, r7, r5
    1bcc:	3c9f1a31 	vldmiacc	pc, {s2-s50}
    1bd0:	3f000000 	svccc	0x00000000
    1bd4:	01000000 	mrseq	r0, (UNDEF: 0)
    1bd8:	003f5100 	eorseq	r5, pc, r0, lsl #2
    1bdc:	01540000 	cmpeq	r4, r0
    1be0:	00050000 	andeq	r0, r5, r0
    1be4:	1a310077 	bne	c41dc8 <__bss_end__+0xc37b18>
    1be8:	0000009f 	muleq	r0, pc, r0	; <UNPREDICTABLE>
    1bec:	00000000 	andeq	r0, r0, r0
    1bf0:	00004000 	andeq	r4, r0, r0
    1bf4:	00005400 	andeq	r5, r0, r0, lsl #8
    1bf8:	58000100 	stmdapl	r0, {r8}
    1bfc:	00000054 	andeq	r0, r0, r4, asr r0
    1c00:	00000134 	andeq	r0, r0, r4, lsr r1
    1c04:	00750005 	rsbseq	r0, r5, r5
    1c08:	009f2431 	addseq	r2, pc, r1, lsr r4	; <UNPREDICTABLE>
    1c0c:	00000000 	andeq	r0, r0, r0
    1c10:	44000000 	strmi	r0, [r0], #-0
    1c14:	48000000 	stmdami	r0, {}	; <UNPREDICTABLE>
    1c18:	01000000 	mrseq	r0, (UNDEF: 0)
    1c1c:	00005300 	andeq	r5, r0, r0, lsl #6
    1c20:	00000000 	andeq	r0, r0, r0
    1c24:	00540000 	subseq	r0, r4, r0
    1c28:	00740000 	rsbseq	r0, r4, r0
    1c2c:	00010000 	andeq	r0, r1, r0
    1c30:	00007458 	andeq	r7, r0, r8, asr r4
    1c34:	00013400 	andeq	r3, r1, r0, lsl #8
    1c38:	75000800 	strvc	r0, [r0, #-2048]	; 0x800
    1c3c:	75243100 	strvc	r3, [r4, #-256]!	; 0x100
    1c40:	009f2200 	addseq	r2, pc, r0, lsl #4
    1c44:	00000000 	andeq	r0, r0, r0
    1c48:	60000000 	andvs	r0, r0, r0
    1c4c:	74000000 	strvc	r0, [r0], #-0
    1c50:	01000000 	mrseq	r0, (UNDEF: 0)
    1c54:	00745800 	rsbseq	r5, r4, r0, lsl #16
    1c58:	01340000 	teqeq	r4, r0
    1c5c:	00080000 	andeq	r0, r8, r0
    1c60:	24310075 	ldrtcs	r0, [r1], #-117	; 0x75
    1c64:	9f220075 	svcls	0x00220075
	...
    1c70:	00000064 	andeq	r0, r0, r4, rrx
    1c74:	00000068 	andeq	r0, r0, r8, rrx
    1c78:	00530001 	subseq	r0, r3, r1
    1c7c:	00000000 	andeq	r0, r0, r0
    1c80:	74000000 	strvc	r0, [r0], #-0
    1c84:	94000000 	strls	r0, [r0], #-0
    1c88:	01000000 	mrseq	r0, (UNDEF: 0)
    1c8c:	00945800 	addseq	r5, r4, r0, lsl #16
    1c90:	01340000 	teqeq	r4, r0
    1c94:	00050000 	andeq	r0, r5, r0
    1c98:	24320075 	ldrtcs	r0, [r2], #-117	; 0x75
    1c9c:	0000009f 	muleq	r0, pc, r0	; <UNPREDICTABLE>
    1ca0:	00000000 	andeq	r0, r0, r0
    1ca4:	00008000 	andeq	r8, r0, r0
    1ca8:	00009400 	andeq	r9, r0, r0, lsl #8
    1cac:	58000100 	stmdapl	r0, {r8}
    1cb0:	00000094 	muleq	r0, r4, r0
    1cb4:	00000134 	andeq	r0, r0, r4, lsr r1
    1cb8:	00750005 	rsbseq	r0, r5, r5
    1cbc:	009f2432 	addseq	r2, pc, r2, lsr r4	; <UNPREDICTABLE>
    1cc0:	00000000 	andeq	r0, r0, r0
    1cc4:	84000000 	strhi	r0, [r0], #-0
    1cc8:	88000000 	stmdahi	r0, {}	; <UNPREDICTABLE>
    1ccc:	01000000 	mrseq	r0, (UNDEF: 0)
    1cd0:	00005300 	andeq	r5, r0, r0, lsl #6
    1cd4:	00000000 	andeq	r0, r0, r0
    1cd8:	00940000 	addseq	r0, r4, r0
    1cdc:	00b40000 	adcseq	r0, r4, r0
    1ce0:	00010000 	andeq	r0, r1, r0
    1ce4:	0000b458 	andeq	fp, r0, r8, asr r4
    1ce8:	00013400 	andeq	r3, r1, r0, lsl #8
    1cec:	75000800 	strvc	r0, [r0, #-2048]	; 0x800
    1cf0:	75243200 	strvc	r3, [r4, #-512]!	; 0x200
    1cf4:	009f2200 	addseq	r2, pc, r0, lsl #4
    1cf8:	00000000 	andeq	r0, r0, r0
    1cfc:	a0000000 	andge	r0, r0, r0
    1d00:	b4000000 	strlt	r0, [r0], #-0
    1d04:	01000000 	mrseq	r0, (UNDEF: 0)
    1d08:	00b45800 	adcseq	r5, r4, r0, lsl #16
    1d0c:	01340000 	teqeq	r4, r0
    1d10:	00080000 	andeq	r0, r8, r0
    1d14:	24320075 	ldrtcs	r0, [r2], #-117	; 0x75
    1d18:	9f220075 	svcls	0x00220075
	...
    1d24:	000000a4 	andeq	r0, r0, r4, lsr #1
    1d28:	000000a8 	andeq	r0, r0, r8, lsr #1
    1d2c:	00530001 	subseq	r0, r3, r1
    1d30:	00000000 	andeq	r0, r0, r0
    1d34:	b4000000 	strlt	r0, [r0], #-0
    1d38:	d4000000 	strle	r0, [r0], #-0
    1d3c:	01000000 	mrseq	r0, (UNDEF: 0)
    1d40:	00d45800 	sbcseq	r5, r4, r0, lsl #16
    1d44:	01340000 	teqeq	r4, r0
    1d48:	000a0000 	andeq	r0, sl, r0
    1d4c:	24320075 	ldrtcs	r0, [r2], #-117	; 0x75
    1d50:	24310075 	ldrtcs	r0, [r1], #-117	; 0x75
    1d54:	00009f22 	andeq	r9, r0, r2, lsr #30
    1d58:	00000000 	andeq	r0, r0, r0
    1d5c:	00c00000 	sbceq	r0, r0, r0
    1d60:	00d40000 	sbcseq	r0, r4, r0
    1d64:	00010000 	andeq	r0, r1, r0
    1d68:	0000d458 	andeq	sp, r0, r8, asr r4
    1d6c:	00013400 	andeq	r3, r1, r0, lsl #8
    1d70:	75000a00 	strvc	r0, [r0, #-2560]	; 0xa00
    1d74:	75243200 	strvc	r3, [r4, #-512]!	; 0x200
    1d78:	22243100 	eorcs	r3, r4, #0, 2
    1d7c:	0000009f 	muleq	r0, pc, r0	; <UNPREDICTABLE>
    1d80:	00000000 	andeq	r0, r0, r0
    1d84:	0000c400 	andeq	ip, r0, r0, lsl #8
    1d88:	0000c800 	andeq	ip, r0, r0, lsl #16
    1d8c:	53000100 	movwpl	r0, #256	; 0x100
	...
    1d98:	000000d4 	ldrdeq	r0, [r0], -r4
    1d9c:	000000f4 	strdeq	r0, [r0], -r4
    1da0:	f4580001 			; <UNDEFINED> instruction: 0xf4580001
    1da4:	34000000 	strcc	r0, [r0], #-0
    1da8:	0d000001 	stceq	0, cr0, [r0, #-4]
    1dac:	32007500 	andcc	r7, r0, #0, 10
    1db0:	31007524 	tstcc	r0, r4, lsr #10
    1db4:	00752224 	rsbseq	r2, r5, r4, lsr #4
    1db8:	00009f22 	andeq	r9, r0, r2, lsr #30
    1dbc:	00000000 	andeq	r0, r0, r0
    1dc0:	00e00000 	rsceq	r0, r0, r0
    1dc4:	00f40000 	rscseq	r0, r4, r0
    1dc8:	00010000 	andeq	r0, r1, r0
    1dcc:	0000f458 	andeq	pc, r0, r8, asr r4	; <UNPREDICTABLE>
    1dd0:	00013400 	andeq	r3, r1, r0, lsl #8
    1dd4:	75000d00 	strvc	r0, [r0, #-3328]	; 0xd00
    1dd8:	75243200 	strvc	r3, [r4, #-512]!	; 0x200
    1ddc:	22243100 	eorcs	r3, r4, #0, 2
    1de0:	9f220075 	svcls	0x00220075
	...
    1dec:	000000e4 	andeq	r0, r0, r4, ror #1
    1df0:	000000e8 	andeq	r0, r0, r8, ror #1
    1df4:	00530001 	subseq	r0, r3, r1
    1df8:	00000000 	andeq	r0, r0, r0
    1dfc:	f4000000 	vst4.8	{d0-d3}, [r0], r0
    1e00:	14000000 	strne	r0, [r0], #-0
    1e04:	01000001 	tsteq	r0, r1
    1e08:	01145800 	tsteq	r4, r0, lsl #16
    1e0c:	01340000 	teqeq	r4, r0
    1e10:	00050000 	andeq	r0, r5, r0
    1e14:	24330075 	ldrtcs	r0, [r3], #-117	; 0x75
    1e18:	0000009f 	muleq	r0, pc, r0	; <UNPREDICTABLE>
    1e1c:	00000000 	andeq	r0, r0, r0
    1e20:	00010000 	andeq	r0, r1, r0
    1e24:	00011400 	andeq	r1, r1, r0, lsl #8
    1e28:	58000100 	stmdapl	r0, {r8}
    1e2c:	00000114 	andeq	r0, r0, r4, lsl r1
    1e30:	00000134 	andeq	r0, r0, r4, lsr r1
    1e34:	00750005 	rsbseq	r0, r5, r5
    1e38:	009f2433 	addseq	r2, pc, r3, lsr r4	; <UNPREDICTABLE>
    1e3c:	00000000 	andeq	r0, r0, r0
    1e40:	04000000 	streq	r0, [r0], #-0
    1e44:	08000001 	stmdaeq	r0, {r0}
    1e48:	01000001 	tsteq	r0, r1
    1e4c:	00005300 	andeq	r5, r0, r0, lsl #6
    1e50:	00000000 	andeq	r0, r0, r0
    1e54:	01140000 	tsteq	r4, r0
    1e58:	011c0000 	tsteq	ip, r0
    1e5c:	00060000 	andeq	r0, r6, r0
    1e60:	80080077 	andhi	r0, r8, r7, ror r0
    1e64:	011c9f1a 	tsteq	ip, sl, lsl pc
    1e68:	011f0000 	tsteq	pc, r0
    1e6c:	00010000 	andeq	r0, r1, r0
    1e70:	00011f51 	andeq	r1, r1, r1, asr pc
    1e74:	00015400 	andeq	r5, r1, r0, lsl #8
    1e78:	77000600 	strvc	r0, [r0, -r0, lsl #12]
    1e7c:	1a800800 	bne	fe003e84 <__bss_end__+0xfdff9bd4>
    1e80:	0000009f 	muleq	r0, pc, r0	; <UNPREDICTABLE>
    1e84:	00000000 	andeq	r0, r0, r0
    1e88:	00012400 	andeq	r2, r1, r0, lsl #8
    1e8c:	00012800 	andeq	r2, r1, r0, lsl #16
    1e90:	53000100 	movwpl	r0, #256	; 0x100
	...
    1e9c:	00000144 	andeq	r0, r0, r4, asr #2
    1ea0:	00000148 	andeq	r0, r0, r8, asr #2
    1ea4:	00530001 	subseq	r0, r3, r1
    1ea8:	00000000 	andeq	r0, r0, r0
    1eac:	54000000 	strpl	r0, [r0], #-0
    1eb0:	6b000001 	blvs	1ebc <_start-0x6144>
    1eb4:	01000001 	tsteq	r0, r1
    1eb8:	016b5000 	cmneq	fp, r0
    1ebc:	01d00000 	bicseq	r0, r0, r0
    1ec0:	00010000 	andeq	r0, r1, r0
    1ec4:	0001d059 	andeq	sp, r1, r9, asr r0
    1ec8:	00030c00 	andeq	r0, r3, r0, lsl #24
    1ecc:	f3000400 	vshl.u8	d0, d0, d0
    1ed0:	0c9f5001 	ldceq	0, cr5, [pc], {1}
    1ed4:	14000003 	strne	r0, [r0], #-3
    1ed8:	01000003 	tsteq	r0, r3
    1edc:	03145900 	tsteq	r4, #0, 18
    1ee0:	031c0000 	tsteq	ip, #0
    1ee4:	00040000 	andeq	r0, r4, r0
    1ee8:	9f5001f3 	svcls	0x005001f3
	...
    1ef4:	00000154 	andeq	r0, r0, r4, asr r1
    1ef8:	0000016b 	andeq	r0, r0, fp, ror #2
    1efc:	6b510001 	blvs	1441f08 <__bss_end__+0x1437c58>
    1f00:	1c000001 	stcne	0, cr0, [r0], {1}
    1f04:	01000003 	tsteq	r0, r3
    1f08:	00005600 	andeq	r5, r0, r0, lsl #12
    1f0c:	00000000 	andeq	r0, r0, r0
    1f10:	01a80000 			; <UNDEFINED> instruction: 0x01a80000
    1f14:	02980000 	addseq	r0, r8, #0
    1f18:	00010000 	andeq	r0, r1, r0
    1f1c:	00000058 	andeq	r0, r0, r8, asr r0
    1f20:	00000000 	andeq	r0, r0, r0
    1f24:	0001ac00 	andeq	sl, r1, r0, lsl #24
    1f28:	0002d000 	andeq	sp, r2, r0
    1f2c:	54000100 	strpl	r0, [r0], #-256	; 0x100
	...
    1f38:	000001ac 	andeq	r0, r0, ip, lsr #3
    1f3c:	000002d0 	ldrdeq	r0, [r0], -r0	; <UNPREDICTABLE>
    1f40:	00740005 	rsbseq	r0, r4, r5
    1f44:	009f2531 	addseq	r2, pc, r1, lsr r5	; <UNPREDICTABLE>
    1f48:	00000000 	andeq	r0, r0, r0
    1f4c:	ac000000 	stcge	0, cr0, [r0], {-0}
    1f50:	d0000001 	andle	r0, r0, r1
    1f54:	02000001 	andeq	r0, r0, #1
    1f58:	d09f3000 	addsle	r3, pc, r0
    1f5c:	0c000001 	stceq	0, cr0, [r0], {1}
    1f60:	01000003 	tsteq	r0, r3
    1f64:	03145900 	tsteq	r4, #0, 18
    1f68:	031c0000 	tsteq	ip, #0
    1f6c:	00010000 	andeq	r0, r1, r0
    1f70:	00000059 	andeq	r0, r0, r9, asr r0
    1f74:	00000000 	andeq	r0, r0, r0
    1f78:	00016800 	andeq	r6, r1, r0, lsl #16
    1f7c:	00016b00 	andeq	r6, r1, r0, lsl #22
    1f80:	51000100 	mrspl	r0, (UNDEF: 16)
    1f84:	0000016b 	andeq	r0, r0, fp, ror #2
    1f88:	0000031c 	andeq	r0, r0, ip, lsl r3
    1f8c:	00560001 	subseq	r0, r6, r1
    1f90:	00000000 	andeq	r0, r0, r0
    1f94:	70000000 	andvc	r0, r0, r0
    1f98:	ac000001 	stcge	0, cr0, [r0], {1}
    1f9c:	01000001 	tsteq	r0, r1
    1fa0:	030c5400 	movweq	r5, #50176	; 0xc400
    1fa4:	03140000 	tsteq	r4, #0
    1fa8:	00010000 	andeq	r0, r1, r0
    1fac:	00000054 	andeq	r0, r0, r4, asr r0
    1fb0:	00000000 	andeq	r0, r0, r0
    1fb4:	0001a800 	andeq	sl, r1, r0, lsl #16
    1fb8:	0001c400 	andeq	ip, r1, r0, lsl #8
    1fbc:	58000100 	stmdapl	r0, {r8}
	...
    1fc8:	000001b0 			; <UNDEFINED> instruction: 0x000001b0
    1fcc:	000001cb 	andeq	r0, r0, fp, asr #3
    1fd0:	cb520001 	blgt	1481fdc <__bss_end__+0x1477d2c>
    1fd4:	d0000001 	andle	r0, r0, r1
    1fd8:	08000002 	stmdaeq	r0, {r1}
    1fdc:	31007400 	tstcc	r0, r0, lsl #8
    1fe0:	22007425 	andcs	r7, r0, #620756992	; 0x25000000
    1fe4:	0000009f 	muleq	r0, pc, r0	; <UNPREDICTABLE>
    1fe8:	00000000 	andeq	r0, r0, r0
    1fec:	0001b000 	andeq	fp, r1, r0
    1ff0:	0001c400 	andeq	ip, r1, r0, lsl #8
    1ff4:	58000100 	stmdapl	r0, {r8}
	...
    2000:	000001b4 			; <UNDEFINED> instruction: 0x000001b4
    2004:	000001b8 			; <UNDEFINED> instruction: 0x000001b8
    2008:	00530001 	subseq	r0, r3, r1
    200c:	00000000 	andeq	r0, r0, r0
    2010:	d0000000 	andle	r0, r0, r0
    2014:	d0000001 	andle	r0, r0, r1
    2018:	01000002 	tsteq	r0, r2
    201c:	00005400 	andeq	r5, r0, r0, lsl #8
    2020:	00000000 	andeq	r0, r0, r0
    2024:	01d00000 	bicseq	r0, r0, r0
    2028:	01e40000 	mvneq	r0, r0
    202c:	00010000 	andeq	r0, r1, r0
    2030:	00000058 	andeq	r0, r0, r8, asr r0
    2034:	00000000 	andeq	r0, r0, r0
    2038:	0001d400 	andeq	sp, r1, r0, lsl #8
    203c:	0001d800 	andeq	sp, r1, r0, lsl #16
    2040:	53000100 	movwpl	r0, #256	; 0x100
	...
    204c:	000001f4 	strdeq	r0, [r0], -r4
    2050:	000002d0 	ldrdeq	r0, [r0], -r0	; <UNPREDICTABLE>
    2054:	00540001 	subseq	r0, r4, r1
    2058:	00000000 	andeq	r0, r0, r0
    205c:	f4000000 	vst4.8	{d0-d3}, [r0], r0
    2060:	08000001 	stmdaeq	r0, {r0}
    2064:	01000002 	tsteq	r0, r2
    2068:	00005800 	andeq	r5, r0, r0, lsl #16
    206c:	00000000 	andeq	r0, r0, r0
    2070:	01f80000 	mvnseq	r0, r0
    2074:	01fc0000 	mvnseq	r0, r0
    2078:	00010000 	andeq	r0, r1, r0
    207c:	00000053 	andeq	r0, r0, r3, asr r0
    2080:	00000000 	andeq	r0, r0, r0
    2084:	00021800 	andeq	r1, r2, r0, lsl #16
    2088:	0002d000 	andeq	sp, r2, r0
    208c:	54000100 	strpl	r0, [r0], #-256	; 0x100
	...
    2098:	00000218 	andeq	r0, r0, r8, lsl r2
    209c:	0000022c 	andeq	r0, r0, ip, lsr #4
    20a0:	00580001 	subseq	r0, r8, r1
    20a4:	00000000 	andeq	r0, r0, r0
    20a8:	1c000000 	stcne	0, cr0, [r0], {-0}
    20ac:	20000002 	andcs	r0, r0, r2
    20b0:	01000002 	tsteq	r0, r2
    20b4:	00005300 	andeq	r5, r0, r0, lsl #6
    20b8:	00000000 	andeq	r0, r0, r0
    20bc:	023c0000 	eorseq	r0, ip, #0
    20c0:	02d00000 	sbcseq	r0, r0, #0
    20c4:	00010000 	andeq	r0, r1, r0
    20c8:	00000054 	andeq	r0, r0, r4, asr r0
    20cc:	00000000 	andeq	r0, r0, r0
    20d0:	00023c00 	andeq	r3, r2, r0, lsl #24
    20d4:	00025000 	andeq	r5, r2, r0
    20d8:	58000100 	stmdapl	r0, {r8}
	...
    20e4:	00000240 	andeq	r0, r0, r0, asr #4
    20e8:	00000244 	andeq	r0, r0, r4, asr #4
    20ec:	00530001 	subseq	r0, r3, r1
    20f0:	00000000 	andeq	r0, r0, r0
    20f4:	60000000 	andvs	r0, r0, r0
    20f8:	d0000002 	andle	r0, r0, r2
    20fc:	01000002 	tsteq	r0, r2
    2100:	00005400 	andeq	r5, r0, r0, lsl #8
    2104:	00000000 	andeq	r0, r0, r0
    2108:	02600000 	rsbeq	r0, r0, #0
    210c:	02740000 	rsbseq	r0, r4, #0
    2110:	00010000 	andeq	r0, r1, r0
    2114:	00000058 	andeq	r0, r0, r8, asr r0
    2118:	00000000 	andeq	r0, r0, r0
    211c:	00026400 	andeq	r6, r2, r0, lsl #8
    2120:	00026800 	andeq	r6, r2, r0, lsl #16
    2124:	53000100 	movwpl	r0, #256	; 0x100
	...
    2130:	00000284 	andeq	r0, r0, r4, lsl #5
    2134:	000002d0 	ldrdeq	r0, [r0], -r0	; <UNPREDICTABLE>
    2138:	00540001 	subseq	r0, r4, r1
    213c:	00000000 	andeq	r0, r0, r0
    2140:	84000000 	strhi	r0, [r0], #-0
    2144:	98000002 	stmdals	r0, {r1}
    2148:	01000002 	tsteq	r0, r2
    214c:	00005800 	andeq	r5, r0, r0, lsl #16
    2150:	00000000 	andeq	r0, r0, r0
    2154:	02880000 	addeq	r0, r8, #0
    2158:	028c0000 	addeq	r0, ip, #0
    215c:	00010000 	andeq	r0, r1, r0
    2160:	00000053 	andeq	r0, r0, r3, asr r0
    2164:	00000000 	andeq	r0, r0, r0
    2168:	0002a800 	andeq	sl, r2, r0, lsl #16
    216c:	0002d000 	andeq	sp, r2, r0
    2170:	54000100 	strpl	r0, [r0], #-256	; 0x100
	...
    217c:	000002ac 	andeq	r0, r0, ip, lsr #5
    2180:	000002b0 			; <UNDEFINED> instruction: 0x000002b0
    2184:	00530001 	subseq	r0, r3, r1
    2188:	00000000 	andeq	r0, r0, r0
    218c:	c8000000 	stmdagt	r0, {}	; <UNPREDICTABLE>
    2190:	0c000002 	stceq	0, cr0, [r0], {2}
    2194:	02000003 	andeq	r0, r0, #3
    2198:	149f3000 	ldrne	r3, [pc], #0	; 21a0 <_start-0x5e60>
    219c:	1c000003 	stcne	0, cr0, [r0], {3}
    21a0:	02000003 	andeq	r0, r0, #3
    21a4:	009f3000 	addseq	r3, pc, r0
    21a8:	00000000 	andeq	r0, r0, r0
    21ac:	c8000000 	stmdagt	r0, {}	; <UNPREDICTABLE>
    21b0:	0c000002 	stceq	0, cr0, [r0], {2}
    21b4:	01000003 	tsteq	r0, r3
    21b8:	03145500 	tsteq	r4, #0, 10
    21bc:	031c0000 	tsteq	ip, #0
    21c0:	00010000 	andeq	r0, r1, r0
    21c4:	00000055 	andeq	r0, r0, r5, asr r0
    21c8:	00000000 	andeq	r0, r0, r0
    21cc:	0002d000 	andeq	sp, r2, r0
    21d0:	00030c00 	andeq	r0, r3, r0, lsl #24
    21d4:	54000100 	strpl	r0, [r0], #-256	; 0x100
    21d8:	00000314 	andeq	r0, r0, r4, lsl r3
    21dc:	0000031c 	andeq	r0, r0, ip, lsl r3
    21e0:	00540001 	subseq	r0, r4, r1
    21e4:	00000000 	andeq	r0, r0, r0
    21e8:	1c000000 	stcne	0, cr0, [r0], {-0}
    21ec:	3f000003 	svccc	0x00000003
    21f0:	01000003 	tsteq	r0, r3
    21f4:	033f5000 	teqeq	pc, #0
    21f8:	03600000 	cmneq	r0, #0
    21fc:	00010000 	andeq	r0, r1, r0
    2200:	00036058 	andeq	r6, r3, r8, asr r0
    2204:	00037000 	andeq	r7, r3, r0
    2208:	50000100 	andpl	r0, r0, r0, lsl #2
    220c:	00000370 	andeq	r0, r0, r0, ror r3
    2210:	000003b0 			; <UNDEFINED> instruction: 0x000003b0
    2214:	b0580001 	subslt	r0, r8, r1
    2218:	c0000003 	andgt	r0, r0, r3
    221c:	04000003 	streq	r0, [r0], #-3
    2220:	5001f300 	andpl	pc, r1, r0, lsl #6
    2224:	0000009f 	muleq	r0, pc, r0	; <UNPREDICTABLE>
    2228:	00000000 	andeq	r0, r0, r0
    222c:	00031c00 	andeq	r1, r3, r0, lsl #24
    2230:	00033f00 	andeq	r3, r3, r0, lsl #30
    2234:	51000100 	mrspl	r0, (UNDEF: 16)
    2238:	0000033f 	andeq	r0, r0, pc, lsr r3
    223c:	00000360 	andeq	r0, r0, r0, ror #6
    2240:	60560001 	subsvs	r0, r6, r1
    2244:	70000003 	andvc	r0, r0, r3
    2248:	01000003 	tsteq	r0, r3
    224c:	03705100 	cmneq	r0, #0, 2
    2250:	03b00000 	movseq	r0, #0
    2254:	00010000 	andeq	r0, r1, r0
    2258:	0003b056 	andeq	fp, r3, r6, asr r0
    225c:	0003c000 	andeq	ip, r3, r0
    2260:	f3000400 	vshl.u8	d0, d0, d0
    2264:	009f5101 	addseq	r5, pc, r1, lsl #2
    2268:	00000000 	andeq	r0, r0, r0
    226c:	1c000000 	stcne	0, cr0, [r0], {-0}
    2270:	3f000003 	svccc	0x00000003
    2274:	01000003 	tsteq	r0, r3
    2278:	033f5200 	teqeq	pc, #0, 4
    227c:	03600000 	cmneq	r0, #0
    2280:	00040000 	andeq	r0, r4, r0
    2284:	9f5201f3 	svcls	0x005201f3
    2288:	00000360 	andeq	r0, r0, r0, ror #6
    228c:	00000370 	andeq	r0, r0, r0, ror r3
    2290:	70520001 	subsvc	r0, r2, r1
    2294:	b0000003 	andlt	r0, r0, r3
    2298:	03000003 	movweq	r0, #3
    229c:	9f017700 	svcls	0x00017700
    22a0:	000003b0 			; <UNDEFINED> instruction: 0x000003b0
    22a4:	000003c0 	andeq	r0, r0, r0, asr #7
    22a8:	01f30004 	mvnseq	r0, r4
    22ac:	00009f52 	andeq	r9, r0, r2, asr pc
    22b0:	00000000 	andeq	r0, r0, r0
    22b4:	031c0000 	tsteq	ip, #0
    22b8:	033f0000 	teqeq	pc, #0
    22bc:	00010000 	andeq	r0, r1, r0
    22c0:	00033f53 	andeq	r3, r3, r3, asr pc
    22c4:	00036000 	andeq	r6, r3, r0
    22c8:	f3000400 	vshl.u8	d0, d0, d0
    22cc:	609f5301 	addsvs	r5, pc, r1, lsl #6
    22d0:	70000003 	andvc	r0, r0, r3
    22d4:	01000003 	tsteq	r0, r3
    22d8:	03705300 	cmneq	r0, #0, 6
    22dc:	03c00000 	biceq	r0, r0, #0
    22e0:	00040000 	andeq	r0, r4, r0
    22e4:	9f5301f3 	svcls	0x005301f3
	...
    22f0:	00000368 	andeq	r0, r0, r8, ror #6
    22f4:	00000370 	andeq	r0, r0, r0, ror r3
    22f8:	9f300002 	svcls	0x00300002
    22fc:	00000370 	andeq	r0, r0, r0, ror r3
    2300:	000003b0 			; <UNDEFINED> instruction: 0x000003b0
    2304:	b0540001 	subslt	r0, r4, r1
    2308:	c0000003 	andgt	r0, r0, r3
    230c:	01000003 	tsteq	r0, r3
    2310:	00005000 	andeq	r5, r0, r0
    2314:	00000000 	andeq	r0, r0, r0
    2318:	03800000 	orreq	r0, r0, #0
    231c:	03900000 	orrseq	r0, r0, #0
    2320:	00010000 	andeq	r0, r1, r0
    2324:	00000050 	andeq	r0, r0, r0, asr r0
    2328:	00000000 	andeq	r0, r0, r0
    232c:	0003c000 	andeq	ip, r3, r0
    2330:	0003df00 	andeq	sp, r3, r0, lsl #30
    2334:	50000100 	andpl	r0, r0, r0, lsl #2
    2338:	000003df 	ldrdeq	r0, [r0], -pc	; <UNPREDICTABLE>
    233c:	00000400 	andeq	r0, r0, r0, lsl #8
    2340:	00570001 	subseq	r0, r7, r1
    2344:	10000004 	andne	r0, r0, r4
    2348:	01000004 	tsteq	r0, r4
    234c:	04105000 	ldreq	r5, [r0], #-0
    2350:	04400000 	strbeq	r0, [r0], #-0
    2354:	00010000 	andeq	r0, r1, r0
    2358:	00044057 	andeq	r4, r4, r7, asr r0
    235c:	00045000 	andeq	r5, r4, r0
    2360:	f3000400 	vshl.u8	d0, d0, d0
    2364:	009f5001 	addseq	r5, pc, r1
    2368:	00000000 	andeq	r0, r0, r0
    236c:	c0000000 	andgt	r0, r0, r0
    2370:	df000003 	svcle	0x00000003
    2374:	01000003 	tsteq	r0, r3
    2378:	03df5100 	bicseq	r5, pc, #0, 2
    237c:	04000000 	streq	r0, [r0], #-0
    2380:	00010000 	andeq	r0, r1, r0
    2384:	00040055 	andeq	r0, r4, r5, asr r0
    2388:	00041000 	andeq	r1, r4, r0
    238c:	51000100 	mrspl	r0, (UNDEF: 16)
    2390:	00000410 	andeq	r0, r0, r0, lsl r4
    2394:	00000440 	andeq	r0, r0, r0, asr #8
    2398:	40550001 	subsmi	r0, r5, r1
    239c:	50000004 	andpl	r0, r0, r4
    23a0:	04000004 	streq	r0, [r0], #-4
    23a4:	5101f300 	mrspl	pc, SP_irq	; <UNPREDICTABLE>
    23a8:	0000009f 	muleq	r0, pc, r0	; <UNPREDICTABLE>
    23ac:	00000000 	andeq	r0, r0, r0
    23b0:	0003c000 	andeq	ip, r3, r0
    23b4:	0003df00 	andeq	sp, r3, r0, lsl #30
    23b8:	52000100 	andpl	r0, r0, #0, 2
    23bc:	000003df 	ldrdeq	r0, [r0], -pc	; <UNPREDICTABLE>
    23c0:	00000400 	andeq	r0, r0, r0, lsl #8
    23c4:	01f30004 	mvnseq	r0, r4
    23c8:	04009f52 	streq	r9, [r0], #-3922	; 0xf52
    23cc:	04100000 	ldreq	r0, [r0], #-0
    23d0:	00010000 	andeq	r0, r1, r0
    23d4:	00041052 	andeq	r1, r4, r2, asr r0
    23d8:	00044000 	andeq	r4, r4, r0
    23dc:	76000300 	strvc	r0, [r0], -r0, lsl #6
    23e0:	04409f01 	strbeq	r9, [r0], #-3841	; 0xf01
    23e4:	04500000 	ldrbeq	r0, [r0], #-0
    23e8:	00040000 	andeq	r0, r4, r0
    23ec:	9f5201f3 	svcls	0x005201f3
	...
    23f8:	000003c0 	andeq	r0, r0, r0, asr #7
    23fc:	000003df 	ldrdeq	r0, [r0], -pc	; <UNPREDICTABLE>
    2400:	df530001 	svcle	0x00530001
    2404:	00000003 	andeq	r0, r0, r3
    2408:	01000004 	tsteq	r0, r4
    240c:	04005800 	streq	r5, [r0], #-2048	; 0x800
    2410:	04100000 	ldreq	r0, [r0], #-0
    2414:	00010000 	andeq	r0, r1, r0
    2418:	00041053 	andeq	r1, r4, r3, asr r0
    241c:	00044000 	andeq	r4, r4, r0
    2420:	58000100 	stmdapl	r0, {r8}
    2424:	00000440 	andeq	r0, r0, r0, asr #8
    2428:	00000450 	andeq	r0, r0, r0, asr r4
    242c:	01f30004 	mvnseq	r0, r4
    2430:	00009f53 	andeq	r9, r0, r3, asr pc
    2434:	00000000 	andeq	r0, r0, r0
    2438:	04080000 	streq	r0, [r8], #-0
    243c:	04100000 	ldreq	r0, [r0], #-0
    2440:	00020000 	andeq	r0, r2, r0
    2444:	04109f30 	ldreq	r9, [r0], #-3888	; 0xf30
    2448:	04400000 	strbeq	r0, [r0], #-0
    244c:	00010000 	andeq	r0, r1, r0
    2450:	00044054 	andeq	r4, r4, r4, asr r0
    2454:	00045000 	andeq	r5, r4, r0
    2458:	50000100 	andpl	r0, r0, r0, lsl #2
	...
    2464:	00000450 	andeq	r0, r0, r0, asr r4
    2468:	00000473 	andeq	r0, r0, r3, ror r4
    246c:	73510001 	cmpvc	r1, #1
    2470:	24000004 	strcs	r0, [r0], #-4
    2474:	04000005 	streq	r0, [r0], #-5
    2478:	5101f300 	mrspl	pc, SP_irq	; <UNPREDICTABLE>
    247c:	0000009f 	muleq	r0, pc, r0	; <UNPREDICTABLE>
    2480:	00000000 	andeq	r0, r0, r0
    2484:	00045000 	andeq	r5, r4, r0
    2488:	00047300 	andeq	r7, r4, r0, lsl #6
    248c:	52000100 	andpl	r0, r0, #0, 2
    2490:	00000473 	andeq	r0, r0, r3, ror r4
    2494:	00000524 	andeq	r0, r0, r4, lsr #10
    2498:	01f30004 	mvnseq	r0, r4
    249c:	00009f52 	andeq	r9, r0, r2, asr pc
    24a0:	00000000 	andeq	r0, r0, r0
    24a4:	04500000 	ldrbeq	r0, [r0], #-0
    24a8:	04730000 	ldrbteq	r0, [r3], #-0
    24ac:	00010000 	andeq	r0, r1, r0
    24b0:	00047353 	andeq	r7, r4, r3, asr r3
    24b4:	00051000 	andeq	r1, r5, r0
    24b8:	55000100 	strpl	r0, [r0, #-256]	; 0x100
    24bc:	00000510 	andeq	r0, r0, r0, lsl r5
    24c0:	00000524 	andeq	r0, r0, r4, lsr #10
    24c4:	04700002 	ldrbteq	r0, [r0], #-2
	...
    24d0:	00000494 	muleq	r0, r4, r4
    24d4:	000004d3 	ldrdeq	r0, [r0], -r3
    24d8:	d3520001 	cmple	r2, #1
    24dc:	f4000004 	vst4.8	{d0-d3}, [r0], r4
    24e0:	06000004 	streq	r0, [r0], -r4
    24e4:	77007500 	strvc	r7, [r0, -r0, lsl #10]
    24e8:	f49f1e00 			; <UNDEFINED> instruction: 0xf49f1e00
    24ec:	24000004 	strcs	r0, [r0], #-4
    24f0:	01000005 	tsteq	r0, r5
    24f4:	00005200 	andeq	r5, r0, r0, lsl #4
    24f8:	00000000 	andeq	r0, r0, r0
    24fc:	05240000 	streq	r0, [r4, #-0]!
    2500:	052f0000 	streq	r0, [pc, #-0]!	; 2508 <_start-0x5af8>
    2504:	00010000 	andeq	r0, r1, r0
    2508:	00052f50 	andeq	r2, r5, r0, asr pc
    250c:	00056000 	andeq	r6, r5, r0
    2510:	f3000400 	vshl.u8	d0, d0, d0
    2514:	009f5001 	addseq	r5, pc, r1
    2518:	00000000 	andeq	r0, r0, r0
    251c:	30000000 	andcc	r0, r0, r0
    2520:	3b000005 	blcc	253c <_start-0x5ac4>
    2524:	01000005 	tsteq	r0, r5
    2528:	00005000 	andeq	r5, r0, r0
    252c:	00000000 	andeq	r0, r0, r0
    2530:	05600000 	strbeq	r0, [r0, #-0]!
    2534:	05700000 	ldrbeq	r0, [r0, #-0]!
    2538:	00010000 	andeq	r0, r1, r0
    253c:	00057050 	andeq	r7, r5, r0, asr r0
    2540:	00058c00 	andeq	r8, r5, r0, lsl #24
    2544:	55000100 	strpl	r0, [r0, #-256]	; 0x100
	...
    2550:	00000560 	andeq	r0, r0, r0, ror #10
    2554:	00000570 	andeq	r0, r0, r0, ror r5
    2558:	70510001 	subsvc	r0, r1, r1
    255c:	8c000005 	stchi	0, cr0, [r0], {5}
    2560:	01000005 	tsteq	r0, r5
    2564:	00005400 	andeq	r5, r0, r0, lsl #8
    2568:	00000000 	andeq	r0, r0, r0
    256c:	058c0000 	streq	r0, [ip]
    2570:	05a80000 	streq	r0, [r8, #0]!
    2574:	00010000 	andeq	r0, r1, r0
    2578:	0005a850 	andeq	sl, r5, r0, asr r8
    257c:	00060000 	andeq	r0, r6, r0
    2580:	55000100 	strpl	r0, [r0, #-256]	; 0x100
    2584:	00000600 	andeq	r0, r0, r0, lsl #12
    2588:	0000061c 	andeq	r0, r0, ip, lsl r6
    258c:	01f30004 	mvnseq	r0, r4
    2590:	00009f50 	andeq	r9, r0, r0, asr pc
    2594:	00000000 	andeq	r0, r0, r0
    2598:	05b80000 	ldreq	r0, [r8, #0]!
    259c:	05c70000 	strbeq	r0, [r7]
    25a0:	00010000 	andeq	r0, r1, r0
    25a4:	0005c750 	andeq	ip, r5, r0, asr r7
    25a8:	0005e800 	andeq	lr, r5, r0, lsl #16
    25ac:	54000100 	strpl	r0, [r0], #-256	; 0x100
    25b0:	000005e8 	andeq	r0, r0, r8, ror #11
    25b4:	000005ec 	andeq	r0, r0, ip, ror #11
    25b8:	ec500001 	mrrc	0, 0, r0, r0, cr1	; <UNPREDICTABLE>
    25bc:	00000005 	andeq	r0, r0, r5
    25c0:	01000006 	tsteq	r0, r6
    25c4:	06005400 	streq	r5, [r0], -r0, lsl #8
    25c8:	061c0000 	ldreq	r0, [ip], -r0
    25cc:	00010000 	andeq	r0, r1, r0
    25d0:	00000050 	andeq	r0, r0, r0, asr r0
    25d4:	00000000 	andeq	r0, r0, r0
    25d8:	00061c00 	andeq	r1, r6, r0, lsl #24
    25dc:	00062f00 	andeq	r2, r6, r0, lsl #30
    25e0:	50000100 	andpl	r0, r0, r0, lsl #2
    25e4:	0000062f 	andeq	r0, r0, pc, lsr #12
    25e8:	00000668 	andeq	r0, r0, r8, ror #12
    25ec:	01f30004 	mvnseq	r0, r4
    25f0:	00009f50 	andeq	r9, r0, r0, asr pc
    25f4:	00000000 	andeq	r0, r0, r0
    25f8:	061c0000 	ldreq	r0, [ip], -r0
    25fc:	062f0000 	strteq	r0, [pc], -r0
    2600:	00010000 	andeq	r0, r1, r0
    2604:	00062f51 	andeq	r2, r6, r1, asr pc
    2608:	00066800 	andeq	r6, r6, r0, lsl #16
    260c:	f3000400 	vshl.u8	d0, d0, d0
    2610:	009f5101 	addseq	r5, pc, r1, lsl #2
    2614:	00000000 	andeq	r0, r0, r0
    2618:	1c000000 	stcne	0, cr0, [r0], {-0}
    261c:	2f000006 	svccs	0x00000006
    2620:	01000006 	tsteq	r0, r6
    2624:	062f5200 	strteq	r5, [pc], -r0, lsl #4
    2628:	06680000 	strbteq	r0, [r8], -r0
    262c:	00040000 	andeq	r0, r4, r0
    2630:	9f5201f3 	svcls	0x005201f3
	...
    263c:	0000061c 	andeq	r0, r0, ip, lsl r6
    2640:	0000062f 	andeq	r0, r0, pc, lsr #12
    2644:	2f530001 	svccs	0x00530001
    2648:	68000006 	stmdavs	r0, {r1, r2}
    264c:	04000006 	streq	r0, [r0], #-6
    2650:	5301f300 	movwpl	pc, #4864	; 0x1300	; <UNPREDICTABLE>
    2654:	0000009f 	muleq	r0, pc, r0	; <UNPREDICTABLE>
    2658:	00000000 	andeq	r0, r0, r0
    265c:	00063000 	andeq	r3, r6, r0
    2660:	00063b00 	andeq	r3, r6, r0, lsl #22
    2664:	50000100 	andpl	r0, r0, r0, lsl #2
    2668:	00000654 	andeq	r0, r0, r4, asr r6
    266c:	00000668 	andeq	r0, r0, r8, ror #12
    2670:	00500001 	subseq	r0, r0, r1
    2674:	00000000 	andeq	r0, r0, r0
    2678:	fc000000 	stc2	0, cr0, [r0], {-0}
    267c:	04000000 	streq	r0, [r0], #-0
    2680:	01000001 	tsteq	r0, r1
    2684:	01045000 	mrseq	r5, (UNDEF: 4)
    2688:	01280000 	teqeq	r8, r0
    268c:	00010000 	andeq	r0, r1, r0
    2690:	00000054 	andeq	r0, r0, r4, asr r0
	...
    269c:	00000400 	andeq	r0, r0, r0, lsl #8
    26a0:	52000100 	andpl	r0, r0, #0, 2
    26a4:	00000004 	andeq	r0, r0, r4
    26a8:	00000020 	andeq	r0, r0, r0, lsr #32
    26ac:	01f30004 	mvnseq	r0, r4
    26b0:	00009f52 	andeq	r9, r0, r2, asr pc
	...
    26bc:	000c0000 	andeq	r0, ip, r0
    26c0:	00010000 	andeq	r0, r1, r0
    26c4:	00000c50 	andeq	r0, r0, r0, asr ip
    26c8:	00001400 	andeq	r1, r0, r0, lsl #8
    26cc:	73000300 	movwvc	r0, #768	; 0x300
    26d0:	00149f01 	andseq	r9, r4, r1, lsl #30
    26d4:	00200000 	eoreq	r0, r0, r0
    26d8:	00010000 	andeq	r0, r1, r0
    26dc:	00000053 	andeq	r0, r0, r3, asr r0
    26e0:	00000000 	andeq	r0, r0, r0
	...

Disassembly of section .debug_aranges:

00000000 <.debug_aranges>:
   0:	0000001c 	andeq	r0, r0, ip, lsl r0
   4:	00000002 	andeq	r0, r0, r2
   8:	00040000 	andeq	r0, r4, r0
   c:	00000000 	andeq	r0, r0, r0
  10:	00008010 	andeq	r8, r0, r0, lsl r0
  14:	00000528 	andeq	r0, r0, r8, lsr #10
	...
  20:	0000001c 	andeq	r0, r0, ip, lsl r0
  24:	06cf0002 	strbeq	r0, [pc], r2
  28:	00040000 	andeq	r0, r4, r0
  2c:	00000000 	andeq	r0, r0, r0
  30:	00008538 	andeq	r8, r0, r8, lsr r5
  34:	00000058 	andeq	r0, r0, r8, asr r0
	...
  40:	0000001c 	andeq	r0, r0, ip, lsl r0
  44:	08640002 	stmdaeq	r4!, {r1}^
  48:	00040000 	andeq	r0, r4, r0
  4c:	00000000 	andeq	r0, r0, r0
  50:	00008590 	muleq	r0, r0, r5
  54:	0000003c 	andeq	r0, r0, ip, lsr r0
	...
  60:	0000001c 	andeq	r0, r0, ip, lsl r0
  64:	097b0002 	ldmdbeq	fp!, {r1}^
  68:	00040000 	andeq	r0, r4, r0
  6c:	00000000 	andeq	r0, r0, r0
  70:	000085cc 	andeq	r8, r0, ip, asr #11
  74:	00000034 	andeq	r0, r0, r4, lsr r0
	...
  80:	0000001c 	andeq	r0, r0, ip, lsl r0
  84:	0a6d0002 	beq	1b40094 <__bss_end__+0x1b35de4>
  88:	00040000 	andeq	r0, r4, r0
  8c:	00000000 	andeq	r0, r0, r0
  90:	00008600 	andeq	r8, r0, r0, lsl #12
  94:	00000524 	andeq	r0, r0, r4, lsr #10
	...
  a0:	0000001c 	andeq	r0, r0, ip, lsl r0
  a4:	11120002 	tstne	r2, r2
  a8:	00040000 	andeq	r0, r4, r0
  ac:	00000000 	andeq	r0, r0, r0
  b0:	00008b24 	andeq	r8, r0, r4, lsr #22
  b4:	00000020 	andeq	r0, r0, r0, lsr #32
	...
  c0:	0000001c 	andeq	r0, r0, ip, lsl r0
  c4:	11ce0002 	bicne	r0, lr, r2
  c8:	00040000 	andeq	r0, r4, r0
  cc:	00000000 	andeq	r0, r0, r0
  d0:	00008b44 	andeq	r8, r0, r4, asr #22
  d4:	00000028 	andeq	r0, r0, r8, lsr #32
	...
  e0:	0000001c 	andeq	r0, r0, ip, lsl r0
  e4:	12d10002 	sbcsne	r0, r1, #2
  e8:	00040000 	andeq	r0, r4, r0
  ec:	00000000 	andeq	r0, r0, r0
  f0:	00008b6c 	andeq	r8, r0, ip, ror #22
  f4:	000000b0 	strheq	r0, [r0], -r0	; <UNPREDICTABLE>
	...
 100:	0000001c 	andeq	r0, r0, ip, lsl r0
 104:	15b20002 	ldrne	r0, [r2, #2]!
 108:	00040000 	andeq	r0, r4, r0
 10c:	00000000 	andeq	r0, r0, r0
 110:	00008c1c 	andeq	r8, r0, ip, lsl ip
 114:	00000074 	andeq	r0, r0, r4, ror r0
	...
 120:	0000001c 	andeq	r0, r0, ip, lsl r0
 124:	17630002 	strbne	r0, [r3, -r2]!
 128:	00040000 	andeq	r0, r4, r0
 12c:	00000000 	andeq	r0, r0, r0
 130:	00008c90 	muleq	r0, r0, ip
 134:	00000088 	andeq	r0, r0, r8, lsl #1
	...
 140:	0000001c 	andeq	r0, r0, ip, lsl r0
 144:	193f0002 	ldmdbne	pc!, {r1}	; <UNPREDICTABLE>
 148:	00040000 	andeq	r0, r4, r0
 14c:	00000000 	andeq	r0, r0, r0
 150:	00008d18 	andeq	r8, r0, r8, lsl sp
 154:	000005a0 	andeq	r0, r0, r0, lsr #11
	...
 160:	0000001c 	andeq	r0, r0, ip, lsl r0
 164:	21c50002 	biccs	r0, r5, r2
 168:	00040000 	andeq	r0, r4, r0
 16c:	00000000 	andeq	r0, r0, r0
 170:	000092b8 			; <UNDEFINED> instruction: 0x000092b8
 174:	00000668 	andeq	r0, r0, r8, ror #12
	...
 180:	0000001c 	andeq	r0, r0, ip, lsl r0
 184:	33bb0002 			; <UNDEFINED> instruction: 0x33bb0002
 188:	00040000 	andeq	r0, r4, r0
 18c:	00000000 	andeq	r0, r0, r0
 190:	00009920 	andeq	r9, r0, r0, lsr #18
 194:	00000154 	andeq	r0, r0, r4, asr r1
	...
 1a0:	0000001c 	andeq	r0, r0, ip, lsl r0
 1a4:	37be0002 	ldrcc	r0, [lr, r2]!
 1a8:	00040000 	andeq	r0, r4, r0
 1ac:	00000000 	andeq	r0, r0, r0
 1b0:	00009ad8 	ldrdeq	r9, [r0], -r8
 1b4:	00000050 	andeq	r0, r0, r0, asr r0
	...
 1c0:	0000001c 	andeq	r0, r0, ip, lsl r0
 1c4:	39850002 	stmibcc	r5, {r1}
 1c8:	00040000 	andeq	r0, r4, r0
 1cc:	00000000 	andeq	r0, r0, r0
 1d0:	00009b28 	andeq	r9, r0, r8, lsr #22
 1d4:	00000020 	andeq	r0, r0, r0, lsr #32
	...

Disassembly of section .debug_ranges:

00000000 <.debug_ranges>:
   0:	00000054 	andeq	r0, r0, r4, asr r0
   4:	00000058 	andeq	r0, r0, r8, asr r0
   8:	0000005c 	andeq	r0, r0, ip, asr r0
   c:	00000060 	andeq	r0, r0, r0, rrx
	...
  18:	00000070 	andeq	r0, r0, r0, ror r0
  1c:	00000074 	andeq	r0, r0, r4, ror r0
  20:	00000078 	andeq	r0, r0, r8, ror r0
  24:	0000007c 	andeq	r0, r0, ip, ror r0
	...
  30:	00000074 	andeq	r0, r0, r4, ror r0
  34:	00000078 	andeq	r0, r0, r8, ror r0
  38:	00000080 	andeq	r0, r0, r0, lsl #1
  3c:	00000188 	andeq	r0, r0, r8, lsl #3
	...
  48:	00000194 	muleq	r0, r4, r1
  4c:	00000198 	muleq	r0, r8, r1
  50:	0000019c 	muleq	r0, ip, r1
  54:	000001bc 			; <UNDEFINED> instruction: 0x000001bc
  58:	00000438 	andeq	r0, r0, r8, lsr r4
  5c:	00000448 	andeq	r0, r0, r8, asr #8
	...
  68:	000001bc 			; <UNDEFINED> instruction: 0x000001bc
  6c:	000003fc 	strdeq	r0, [r0], -ip
  70:	00000408 	andeq	r0, r0, r8, lsl #8
  74:	00000438 	andeq	r0, r0, r8, lsr r4
	...
  80:	0000044c 	andeq	r0, r0, ip, asr #8
  84:	00000450 	andeq	r0, r0, r0, asr r4
  88:	0000045c 	andeq	r0, r0, ip, asr r4
  8c:	00000468 	andeq	r0, r0, r8, ror #8
  90:	00000470 	andeq	r0, r0, r0, ror r4
  94:	000004cc 	andeq	r0, r0, ip, asr #9
	...
  a0:	000002b4 			; <UNDEFINED> instruction: 0x000002b4
  a4:	000002b8 			; <UNDEFINED> instruction: 0x000002b8
  a8:	000002e8 	andeq	r0, r0, r8, ror #5
  ac:	000004e0 	andeq	r0, r0, r0, ror #9
	...
  b8:	00008c1c 	andeq	r8, r0, ip, lsl ip
  bc:	00008c90 	muleq	r0, r0, ip
	...

Disassembly of section .debug_line:

00000000 <.debug_line>:
       0:	000001ce 	andeq	r0, r0, lr, asr #3
       4:	00c40002 	sbceq	r0, r4, r2
       8:	01020000 	mrseq	r0, (UNDEF: 2)
       c:	000d0efb 	strdeq	r0, [sp], -fp
      10:	01010101 	tsteq	r1, r1, lsl #2
      14:	01000000 	mrseq	r0, (UNDEF: 0)
      18:	2f010000 	svccs	0x00010000
      1c:	72657355 	rsbvc	r7, r5, #1409286145	; 0x54000001
      20:	72622f73 	rsbvc	r2, r2, #460	; 0x1cc
      24:	6a6e6169 	bvs	1b985d0 <__bss_end__+0x1b8e320>
      28:	442f6e75 	strtmi	r6, [pc], #-3701	; 30 <_start-0x7fd0>
      2c:	746b7365 	strbtvc	r7, [fp], #-869	; 0x365
      30:	732f706f 	teqvc	pc, #111	; 0x6f
      34:	6f6f6863 	svcvs	0x006f6863
      38:	69572f6c 	ldmdbvs	r7, {r2, r3, r5, r6, r8, r9, sl, fp, sp}^
      3c:	7265746e 	rsbvc	r7, r5, #1845493760	; 0x6e000000
      40:	30323931 	eorscc	r3, r2, r1, lsr r9
      44:	3153432f 	cmpcc	r3, pc, lsr #6
      48:	2f453034 	svccs	0x00453034
      4c:	34317363 	ldrtcc	r7, [r1], #-867	; 0x363
      50:	322d6530 	eorcc	r6, sp, #48, 10	; 0xc000000
      54:	6e697730 	mcrvs	7, 3, r7, cr9, cr0, {1}
      58:	62696c2f 	rsbvs	r6, r9, #12032	; 0x2f00
      5c:	2f006970 	svccs	0x00006970
      60:	72657355 	rsbvc	r7, r5, #1409286145	; 0x54000001
      64:	72622f73 	rsbvc	r2, r2, #460	; 0x1cc
      68:	6a6e6169 	bvs	1b98614 <__bss_end__+0x1b8e364>
      6c:	442f6e75 	strtmi	r6, [pc], #-3701	; 74 <_start-0x7f8c>
      70:	746b7365 	strbtvc	r7, [fp], #-869	; 0x365
      74:	732f706f 	teqvc	pc, #111	; 0x6f
      78:	6f6f6863 	svcvs	0x006f6863
      7c:	69572f6c 	ldmdbvs	r7, {r2, r3, r5, r6, r8, r9, sl, fp, sp}^
      80:	7265746e 	rsbvc	r7, r5, #1845493760	; 0x6e000000
      84:	30323931 	eorscc	r3, r2, r1, lsr r9
      88:	3153432f 	cmpcc	r3, pc, lsr #6
      8c:	2f453034 	svccs	0x00453034
      90:	34317363 	ldrtcc	r7, [r1], #-867	; 0x363
      94:	322d6530 	eorcc	r6, sp, #48, 10	; 0xc000000
      98:	6e697730 	mcrvs	7, 3, r7, cr9, cr0, {1}
      9c:	62696c2f 	rsbvs	r6, r9, #12032	; 0x2f00
      a0:	632f6970 	teqvs	pc, #112, 18	; 0x1c0000
      a4:	30343173 	eorscc	r3, r4, r3, ror r1
      a8:	72732d65 	rsbsvc	r2, r3, #6464	; 0x1940
      ac:	73000063 	movwvc	r0, #99	; 0x63
      b0:	65706f63 	ldrbvs	r6, [r0, #-3939]!	; 0xf63
      b4:	0000632e 	andeq	r6, r0, lr, lsr #6
      b8:	70720000 	rsbsvc	r0, r2, r0
      bc:	00682e69 	rsbeq	r2, r8, r9, ror #28
      c0:	67000001 	strvs	r0, [r0, -r1]
      c4:	2e6f6970 	mcrcs	9, 3, r6, cr15, cr0, {3}
      c8:	00020068 	andeq	r0, r2, r8, rrx
      cc:	05000000 	streq	r0, [r0, #-0]
      d0:	00801002 	addeq	r1, r0, r2
      d4:	01250300 	teqeq	r5, r0, lsl #6
      d8:	2f2f2d13 	svccs	0x002f2d13
      dc:	0030672f 	eorseq	r6, r0, pc, lsr #14
      e0:	45010402 	strmi	r0, [r1, #-1026]	; 0x402
      e4:	3c080d03 	stccc	13, cr0, [r8], {3}
      e8:	032e6e03 	teqeq	lr, #3, 28	; 0x30
      ec:	6e032e12 	mcrvs	14, 0, r2, cr3, cr2, {0}
      f0:	2e12032e 	cdpcs	3, 1, cr0, cr2, cr14, {1}
      f4:	01040200 	mrseq	r0, R12_usr
      f8:	672e0b03 	strvs	r0, [lr, -r3, lsl #22]!
      fc:	032e1603 	teqeq	lr, #3145728	; 0x300000
     100:	75032e6a 	strvc	r2, [r3, #-3690]	; 0xe6a
     104:	2e21032e 	cdpcs	3, 2, cr0, cr1, cr14, {1}
     108:	30844b2f 	addcc	r4, r4, pc, lsr #22
     10c:	30844b2f 	addcc	r4, r4, pc, lsr #22
     110:	30844b2f 	addcc	r4, r4, pc, lsr #22
     114:	30844b2f 	addcc	r4, r4, pc, lsr #22
     118:	30844b2f 	addcc	r4, r4, pc, lsr #22
     11c:	30844b2f 	addcc	r4, r4, pc, lsr #22
     120:	30844b2f 	addcc	r4, r4, pc, lsr #22
     124:	03844b2f 	orreq	r4, r4, #48128	; 0xbc00
     128:	3a032e51 	bcc	cba74 <__bss_end__+0xc17c4>
     12c:	2f2d674a 	svccs	0x002d674a
     130:	9cf20b03 	fldmiaxls	r2!, {d16}	;@ Deprecated
     134:	f04cf04c 			; <UNDEFINED> instruction: 0xf04cf04c
     138:	004cf04c 	subeq	pc, ip, ip, asr #32
     13c:	06020402 	streq	r0, [r2], -r2, lsl #8
     140:	04020066 	streq	r0, [r2], #-102	; 0x66
     144:	007e0602 	rsbseq	r0, lr, r2, lsl #12
     148:	32020402 	andcc	r0, r2, #33554432	; 0x2000000
     14c:	02040200 	andeq	r0, r4, #0, 4
     150:	0402002c 	streq	r0, [r2], #-44	; 0x2c
     154:	4a064c02 	bmi	193164 <__bss_end__+0x188eb4>
     158:	3030d206 	eorscc	sp, r0, r6, lsl #4
     15c:	2a2f2f2c 	bcs	bcbe14 <__bss_end__+0xbc1b64>
     160:	2a308032 	bcs	c20230 <__bss_end__+0xc15f80>
     164:	322a3030 	eorcc	r3, sl, #48	; 0x30
     168:	302a3080 	eorcc	r3, sl, r0, lsl #1
     16c:	64322a30 	ldrtvs	r2, [r2], #-2608	; 0xa30
     170:	30302a30 	eorscc	r2, r0, r0, lsr sl
     174:	3064322a 	rsbcc	r3, r4, sl, lsr #4
     178:	2a30302a 	bcs	c0c228 <__bss_end__+0xc01f78>
     17c:	2a306432 	bcs	c1924c <__bss_end__+0xc0ef9c>
     180:	322a3030 	eorcc	r3, sl, #48	; 0x30
     184:	302a3064 	eorcc	r3, sl, r4, rrx
     188:	64322a30 	ldrtvs	r2, [r2], #-2608	; 0xa30
     18c:	30302a30 	eorscc	r2, r0, r0, lsr sl
     190:	3064322a 	rsbcc	r3, r4, sl, lsr #4
     194:	2a30302a 	bcs	c0c244 <__bss_end__+0xc01f94>
     198:	2c304832 	ldccs	8, cr4, [r0], #-200	; 0xffffff38
     19c:	78033230 	stmdavc	r3, {r4, r5, r9, ip, sp}
     1a0:	32463266 	subcc	r3, r6, #1610612742	; 0x60000006
     1a4:	32463246 	subcc	r3, r6, #1610612740	; 0x60000004
     1a8:	034a7503 	movteq	r7, #42243	; 0xa503
     1ac:	2b318213 	blcs	c60a00 <__bss_end__+0xc56750>
     1b0:	4c644d2e 	stclmi	13, cr4, [r4], #-184	; 0xffffff48
     1b4:	03354c83 	teqeq	r5, #33536	; 0x8300
     1b8:	67312e7a 			; <UNDEFINED> instruction: 0x67312e7a
     1bc:	7603322c 	strvc	r3, [r3], -ip, lsr #4
     1c0:	660c03ba 			; <UNDEFINED> instruction: 0x660c03ba
     1c4:	4b2f4c68 	blmi	bd336c <__bss_end__+0xbc90bc>
     1c8:	312bd94f 	teqcc	fp, pc, asr #18
     1cc:	0004024b 	andeq	r0, r4, fp, asr #4
     1d0:	01020101 	tsteq	r2, r1, lsl #2
     1d4:	00020000 	andeq	r0, r2, r0
     1d8:	000000eb 	andeq	r0, r0, fp, ror #1
     1dc:	0efb0102 	cdpeq	1, 15, cr0, cr11, cr2, {0}
     1e0:	0101000d 	tsteq	r1, sp
     1e4:	00000101 	andeq	r0, r0, r1, lsl #2
     1e8:	00000100 	andeq	r0, r0, r0, lsl #2
     1ec:	62696c01 	rsbvs	r6, r9, #256	; 0x100
     1f0:	752f0063 	strvc	r0, [pc, #-99]!	; 195 <_start-0x7e6b>
     1f4:	6c2f7273 	sfmvs	f7, 4, [pc], #-460	; 30 <_start-0x7fd0>
     1f8:	6c61636f 	stclvs	3, cr6, [r1], #-444	; 0xfffffe44
     1fc:	6c65432f 	stclvs	3, cr4, [r5], #-188	; 0xffffff44
     200:	2f72616c 	svccs	0x0072616c
     204:	2d6d7261 	sfmcs	f7, 2, [sp, #-388]!	; 0xfffffe7c
     208:	656e6f6e 	strbvs	r6, [lr, #-3950]!	; 0xf6e
     20c:	6261652d 	rsbvs	r6, r1, #188743680	; 0xb400000
     210:	2e342f69 	cdpcs	15, 3, cr2, cr4, cr9, {3}
     214:	2d332e38 	ldccs	14, cr2, [r3, #-224]!	; 0xffffff20
     218:	37317363 	ldrcc	r7, [r1, -r3, ror #6]!
     21c:	6c2f6530 	cfstr32vs	mvfx6, [pc], #-192	; 164 <_start-0x7e9c>
     220:	672f6269 	strvs	r6, [pc, -r9, ror #4]!
     224:	612f6363 	teqvs	pc, r3, ror #6
     228:	6e2d6d72 	mcrvs	13, 1, r6, cr13, cr2, {3}
     22c:	2d656e6f 	stclcs	14, cr6, [r5, #-444]!	; 0xfffffe44
     230:	69626165 	stmdbvs	r2!, {r0, r2, r5, r6, r8, sp, lr}^
     234:	382e342f 	stmdacc	lr!, {r0, r1, r2, r3, r5, sl, ip, sp}
     238:	692f332e 	stmdbvs	pc!, {r1, r2, r3, r5, r8, r9, ip, sp}	; <UNPREDICTABLE>
     23c:	756c636e 	strbvc	r6, [ip, #-878]!	; 0x36e
     240:	2f006564 	svccs	0x00006564
     244:	72657355 	rsbvc	r7, r5, #1409286145	; 0x54000001
     248:	72622f73 	rsbvc	r2, r2, #460	; 0x1cc
     24c:	6a6e6169 	bvs	1b987f8 <__bss_end__+0x1b8e548>
     250:	442f6e75 	strtmi	r6, [pc], #-3701	; 258 <_start-0x7da8>
     254:	746b7365 	strbtvc	r7, [fp], #-869	; 0x365
     258:	732f706f 	teqvc	pc, #111	; 0x6f
     25c:	6f6f6863 	svcvs	0x006f6863
     260:	69572f6c 	ldmdbvs	r7, {r2, r3, r5, r6, r8, r9, sl, fp, sp}^
     264:	7265746e 	rsbvc	r7, r5, #1845493760	; 0x6e000000
     268:	30323931 	eorscc	r3, r2, r1, lsr r9
     26c:	3153432f 	cmpcc	r3, pc, lsr #6
     270:	2f453034 	svccs	0x00453034
     274:	34317363 	ldrtcc	r7, [r1], #-867	; 0x363
     278:	322d6530 	eorcc	r6, sp, #48, 10	; 0xc000000
     27c:	6e697730 	mcrvs	7, 3, r7, cr9, cr0, {1}
     280:	62696c2f 	rsbvs	r6, r9, #12032	; 0x2f00
     284:	00006970 	andeq	r6, r0, r0, ror r9
     288:	6e697270 	mcrvs	2, 3, r7, cr9, cr0, {3}
     28c:	632e6b74 	teqvs	lr, #116, 22	; 0x1d000
     290:	00000100 	andeq	r0, r0, r0, lsl #2
     294:	61647473 	smcvs	18243	; 0x4743
     298:	682e6772 	stmdavs	lr!, {r1, r4, r5, r6, r8, r9, sl, sp, lr}
     29c:	00000200 	andeq	r0, r0, r0, lsl #4
     2a0:	6975623c 	ldmdbvs	r5!, {r2, r3, r4, r5, r9, sp, lr}^
     2a4:	692d746c 	pushvs	{r2, r3, r5, r6, sl, ip, sp, lr}
     2a8:	00003e6e 	andeq	r3, r0, lr, ror #28
     2ac:	70720000 	rsbsvc	r0, r2, r0
     2b0:	00682e69 	rsbeq	r2, r8, r9, ror #28
     2b4:	76000003 	strvc	r0, [r0], -r3
     2b8:	72702d61 	rsbsvc	r2, r0, #6208	; 0x1840
     2bc:	6b746e69 	blvs	1d1bc68 <__bss_end__+0x1d119b8>
     2c0:	0100682e 	tsteq	r0, lr, lsr #16
     2c4:	00000000 	andeq	r0, r0, r0
     2c8:	85380205 	ldrhi	r0, [r8, #-517]!	; 0x205
     2cc:	6b170000 	blvs	5c02d4 <__bss_end__+0x5b6024>
     2d0:	0289bf4b 	addeq	fp, r9, #300	; 0x12c
     2d4:	0101000e 	tsteq	r1, lr
     2d8:	0000008a 	andeq	r0, r0, sl, lsl #1
     2dc:	00720002 	rsbseq	r0, r2, r2
     2e0:	01020000 	mrseq	r0, (UNDEF: 2)
     2e4:	000d0efb 	strdeq	r0, [sp], -fp
     2e8:	01010101 	tsteq	r1, r1, lsl #2
     2ec:	01000000 	mrseq	r0, (UNDEF: 0)
     2f0:	6c010000 	stcvs	0, cr0, [r1], {-0}
     2f4:	00636269 	rsbeq	r6, r3, r9, ror #4
     2f8:	6573552f 	ldrbvs	r5, [r3, #-1327]!	; 0x52f
     2fc:	622f7372 	eorvs	r7, pc, #-939524095	; 0xc8000001
     300:	6e616972 	mcrvs	9, 3, r6, cr1, cr2, {3}
     304:	2f6e756a 	svccs	0x006e756a
     308:	6b736544 	blvs	1cd9820 <__bss_end__+0x1ccf570>
     30c:	2f706f74 	svccs	0x00706f74
     310:	6f686373 	svcvs	0x00686373
     314:	572f6c6f 	strpl	r6, [pc, -pc, ror #24]!
     318:	65746e69 	ldrbvs	r6, [r4, #-3689]!	; 0xe69
     31c:	32393172 	eorscc	r3, r9, #-2147483620	; 0x8000001c
     320:	53432f30 	movtpl	r2, #16176	; 0x3f30
     324:	45303431 	ldrmi	r3, [r0, #-1073]!	; 0x431
     328:	3173632f 	cmncc	r3, pc, lsr #6
     32c:	2d653034 	stclcs	0, cr3, [r5, #-208]!	; 0xffffff30
     330:	69773032 	ldmdbvs	r7!, {r1, r4, r5, ip, sp}^
     334:	696c2f6e 	stmdbvs	ip!, {r1, r2, r3, r5, r6, r8, r9, sl, fp, sp}^
     338:	00697062 	rsbeq	r7, r9, r2, rrx
     33c:	74757000 	ldrbtvc	r7, [r5], #-0
     340:	72616863 	rsbvc	r6, r1, #6488064	; 0x630000
     344:	0100632e 	tsteq	r0, lr, lsr #6
     348:	70720000 	rsbsvc	r0, r2, r0
     34c:	00682e69 	rsbeq	r2, r8, r9, ror #28
     350:	00000002 	andeq	r0, r0, r2
     354:	90020500 	andls	r0, r2, r0, lsl #10
     358:	14000085 	strne	r0, [r0], #-133	; 0x85
     35c:	bc136b4a 	ldclt	11, cr6, [r3], {74}	; 0x4a
     360:	00080213 	andeq	r0, r8, r3, lsl r2
     364:	00960101 	addseq	r0, r6, r1, lsl #2
     368:	00020000 	andeq	r0, r2, r0
     36c:	0000006f 	andeq	r0, r0, pc, rrx
     370:	0efb0102 	cdpeq	1, 15, cr0, cr11, cr2, {0}
     374:	0101000d 	tsteq	r1, sp
     378:	00000101 	andeq	r0, r0, r1, lsl #2
     37c:	00000100 	andeq	r0, r0, r0, lsl #2
     380:	62696c01 	rsbvs	r6, r9, #256	; 0x100
     384:	552f0063 	strpl	r0, [pc, #-99]!	; 329 <_start-0x7cd7>
     388:	73726573 	cmnvc	r2, #482344960	; 0x1cc00000
     38c:	6972622f 	ldmdbvs	r2!, {r0, r1, r2, r3, r5, r9, sp, lr}^
     390:	756a6e61 	strbvc	r6, [sl, #-3681]!	; 0xe61
     394:	65442f6e 	strbvs	r2, [r4, #-3950]	; 0xf6e
     398:	6f746b73 	svcvs	0x00746b73
     39c:	63732f70 	cmnvs	r3, #112, 30	; 0x1c0
     3a0:	6c6f6f68 	stclvs	15, cr6, [pc], #-416	; 208 <_start-0x7df8>
     3a4:	6e69572f 	cdpvs	7, 6, cr5, cr9, cr15, {1}
     3a8:	31726574 	cmncc	r2, r4, ror r5
     3ac:	2f303239 	svccs	0x00303239
     3b0:	34315343 	ldrtcc	r5, [r1], #-835	; 0x343
     3b4:	632f4530 	teqvs	pc, #48, 10	; 0xc000000
     3b8:	30343173 	eorscc	r3, r4, r3, ror r1
     3bc:	30322d65 	eorscc	r2, r2, r5, ror #26
     3c0:	2f6e6977 	svccs	0x006e6977
     3c4:	7062696c 	rsbvc	r6, r2, ip, ror #18
     3c8:	70000069 	andvc	r0, r0, r9, rrx
     3cc:	2e6b7475 	mcrcs	4, 3, r7, cr11, cr5, {3}
     3d0:	00010063 	andeq	r0, r1, r3, rrx
     3d4:	69707200 	ldmdbvs	r0!, {r9, ip, sp, lr}^
     3d8:	0200682e 	andeq	r6, r0, #3014656	; 0x2e0000
     3dc:	00000000 	andeq	r0, r0, r0
     3e0:	85cc0205 	strbhi	r0, [ip, #517]	; 0x205
     3e4:	4c150000 	ldcmi	0, cr0, [r5], {-0}
     3e8:	0402002d 	streq	r0, [r2], #-45	; 0x2d
     3ec:	02002f02 	andeq	r2, r0, #2, 30
     3f0:	00490204 	subeq	r0, r9, r4, lsl #4
     3f4:	06010402 	streq	r0, [r1], -r2, lsl #8
     3f8:	026b062e 	rsbeq	r0, fp, #48234496	; 0x2e00000
     3fc:	01010006 	tsteq	r1, r6
     400:	000001e2 	andeq	r0, r0, r2, ror #3
     404:	00df0002 	sbcseq	r0, pc, r2
     408:	01020000 	mrseq	r0, (UNDEF: 2)
     40c:	000d0efb 	strdeq	r0, [sp], -fp
     410:	01010101 	tsteq	r1, r1, lsl #2
     414:	01000000 	mrseq	r0, (UNDEF: 0)
     418:	6c010000 	stcvs	0, cr0, [r1], {-0}
     41c:	00636269 	rsbeq	r6, r3, r9, ror #4
     420:	7273752f 	rsbsvc	r7, r3, #197132288	; 0xbc00000
     424:	636f6c2f 	cmnvs	pc, #12032	; 0x2f00
     428:	432f6c61 	teqmi	pc, #24832	; 0x6100
     42c:	616c6c65 	cmnvs	ip, r5, ror #24
     430:	72612f72 	rsbvc	r2, r1, #456	; 0x1c8
     434:	6f6e2d6d 	svcvs	0x006e2d6d
     438:	652d656e 	strvs	r6, [sp, #-1390]!	; 0x56e
     43c:	2f696261 	svccs	0x00696261
     440:	2e382e34 	mrccs	14, 1, r2, cr8, cr4, {1}
     444:	73632d33 	cmnvc	r3, #3264	; 0xcc0
     448:	65303731 	ldrvs	r3, [r0, #-1841]!	; 0x731
     44c:	62696c2f 	rsbvs	r6, r9, #12032	; 0x2f00
     450:	6363672f 	cmnvs	r3, #12320768	; 0xbc0000
     454:	6d72612f 	ldfvse	f6, [r2, #-188]!	; 0xffffff44
     458:	6e6f6e2d 	cdpvs	14, 6, cr6, cr15, cr13, {1}
     45c:	61652d65 	cmnvs	r5, r5, ror #26
     460:	342f6962 	strtcc	r6, [pc], #-2402	; 468 <_start-0x7b98>
     464:	332e382e 	teqcc	lr, #3014656	; 0x2e0000
     468:	636e692f 	cmnvs	lr, #770048	; 0xbc000
     46c:	6564756c 	strbvs	r7, [r4, #-1388]!	; 0x56c
     470:	73552f00 	cmpvc	r5, #0, 30
     474:	2f737265 	svccs	0x00737265
     478:	61697262 	cmnvs	r9, r2, ror #4
     47c:	6e756a6e 	vsubvs.f32	s13, s10, s29
     480:	7365442f 	cmnvc	r5, #788529152	; 0x2f000000
     484:	706f746b 	rsbvc	r7, pc, fp, ror #8
     488:	6863732f 	stmdavs	r3!, {r0, r1, r2, r3, r5, r8, r9, ip, sp, lr}^
     48c:	2f6c6f6f 	svccs	0x006c6f6f
     490:	746e6957 	strbtvc	r6, [lr], #-2391	; 0x957
     494:	39317265 	ldmdbcc	r1!, {r0, r2, r5, r6, r9, ip, sp, lr}
     498:	432f3032 	teqmi	pc, #50	; 0x32
     49c:	30343153 	eorscc	r3, r4, r3, asr r1
     4a0:	73632f45 	cmnvc	r3, #276	; 0x114
     4a4:	65303431 	ldrvs	r3, [r0, #-1073]!	; 0x431
     4a8:	7730322d 	ldrvc	r3, [r0, -sp, lsr #4]!
     4ac:	6c2f6e69 	stcvs	14, cr6, [pc], #-420	; 310 <_start-0x7cf0>
     4b0:	69706269 	ldmdbvs	r0!, {r0, r3, r5, r6, r9, sp, lr}^
     4b4:	61760000 	cmnvs	r6, r0
     4b8:	6972702d 	ldmdbvs	r2!, {r0, r2, r3, r5, ip, sp, lr}^
     4bc:	2e6b746e 	cdpcs	4, 6, cr7, cr11, cr14, {3}
     4c0:	00010063 	andeq	r0, r1, r3, rrx
     4c4:	64747300 	ldrbtvs	r7, [r4], #-768	; 0x300
     4c8:	2e677261 	cdpcs	2, 6, cr7, cr7, cr1, {3}
     4cc:	00020068 	andeq	r0, r2, r8, rrx
     4d0:	69707200 	ldmdbvs	r0!, {r9, ip, sp, lr}^
     4d4:	0300682e 	movweq	r6, #2094	; 0x82e
     4d8:	623c0000 	eorsvs	r0, ip, #0
     4dc:	746c6975 	strbtvc	r6, [ip], #-2421	; 0x975
     4e0:	3e6e692d 	cdpcc	9, 6, cr6, cr14, cr13, {1}
     4e4:	00000000 	andeq	r0, r0, r0
     4e8:	02050000 	andeq	r0, r5, #0
     4ec:	00008600 	andeq	r8, r0, r0, lsl #12
     4f0:	01012603 	tsteq	r1, r3, lsl #12
     4f4:	2d3113a5 	ldccs	3, cr1, [r1, #-660]!	; 0xfffffd6c
     4f8:	02040200 	andeq	r0, r4, #0, 4
     4fc:	0402002f 	streq	r0, [r2], #-47	; 0x2f
     500:	02002d02 	andeq	r2, r0, #2, 26	; 0x80
     504:	002f0204 	eoreq	r0, pc, r4, lsl #4
     508:	2d010402 	cfstrscs	mvf0, [r1, #-8]
     50c:	14304c4c 	ldrtne	r4, [r0], #-3148	; 0xc4c
     510:	004f2f4b 	subeq	r2, pc, fp, asr #30
     514:	67020402 	strvs	r0, [r2, -r2, lsl #8]
     518:	01040200 	mrseq	r0, R12_usr
     51c:	304d4c65 	subcc	r4, sp, r5, ror #24
     520:	30312fa0 	eorscc	r2, r1, r0, lsr #31
     524:	84162602 	ldrhi	r2, [r6], #-1538	; 0x602
     528:	02002c2d 	andeq	r2, r0, #11520	; 0x2d00
     52c:	00300104 	eorseq	r0, r0, r4, lsl #2
     530:	33010402 	movwcc	r0, #5122	; 0x1402
     534:	02006606 	andeq	r6, r0, #6291456	; 0x600000
     538:	002e0104 	eoreq	r0, lr, r4, lsl #2
     53c:	06010402 	streq	r0, [r1], -r2, lsl #8
     540:	2f672108 	svccs	0x00672108
     544:	03827303 	orreq	r7, r2, #201326592	; 0xc000000
     548:	02002e13 	andeq	r2, r0, #304	; 0x130
     54c:	2e060104 	adfcss	f0, f6, f4
     550:	01040200 	mrseq	r0, R12_usr
     554:	4b6a9f06 	blmi	1aa8174 <__bss_end__+0x1a9dec4>
     558:	032e6703 	teqeq	lr, #786432	; 0xc0000
     55c:	02002e21 	andeq	r2, r0, #528	; 0x210
     560:	2e060104 	adfcss	f0, f6, f4
     564:	01040200 	mrseq	r0, R12_usr
     568:	02009f06 	andeq	r9, r0, #6, 30
     56c:	086a0104 	stmdaeq	sl!, {r2, r8}^
     570:	a603f323 	strge	pc, [r3], -r3, lsr #6
     574:	4b3c087f 	blmi	f02778 <__bss_end__+0xef84c8>
     578:	01040200 	mrseq	r0, R12_usr
     57c:	08064a06 	stmdaeq	r6, {r1, r2, r9, fp, lr}
     580:	4b2f4b21 	blmi	bd320c <__bss_end__+0xbc8f5c>
     584:	f200d903 	vmla.i8	d13, d0, d3
     588:	03484c83 	movteq	r4, #35971	; 0x8c83
     58c:	75032e0e 	strvc	r2, [r3, #-3598]	; 0xe0e
     590:	842f2f2e 	strthi	r2, [pc], #-3886	; 598 <_start-0x7a68>
     594:	4d2d2f4b 	stcmi	15, cr2, [sp, #-300]!	; 0xfffffed4
     598:	832f3031 	teqhi	pc, #49	; 0x31
     59c:	01040200 	mrseq	r0, R12_usr
     5a0:	0200a22c 	andeq	sl, r0, #44, 4	; 0xc0000002
     5a4:	4a060104 	bmi	1809bc <__bss_end__+0x17670c>
     5a8:	02220806 	eoreq	r0, r2, #393216	; 0x60000
     5ac:	0e031636 	mcreq	6, 0, r1, cr3, cr6, {1}
     5b0:	302108d6 	ldrdcc	r0, [r1], -r6	; <UNPREDICTABLE>
     5b4:	30f331f3 	ldrshtcc	r3, [r3], #19
     5b8:	304b30f3 	strdcc	r3, [fp], #-3
     5bc:	230830f3 	movwcs	r3, #33011	; 0x80f3
     5c0:	02002f31 	andeq	r2, r0, #49, 30	; 0xc4
     5c4:	00650104 	rsbeq	r0, r5, r4, lsl #2
     5c8:	06020402 	streq	r0, [r2], -r2, lsl #8
     5cc:	0402004a 	streq	r0, [r2], #-74	; 0x4a
     5d0:	42030601 	andmi	r0, r3, #1048576	; 0x100000
     5d4:	04020066 	streq	r0, [r2], #-102	; 0x66
     5d8:	06660602 	strbteq	r0, [r6], -r2, lsl #12
     5dc:	4a00c203 	bmi	30df0 <__bss_end__+0x26b40>
     5e0:	00120268 	andseq	r0, r2, r8, ror #4
     5e4:	00430101 	subeq	r0, r3, r1, lsl #2
     5e8:	00020000 	andeq	r0, r2, r0
     5ec:	00000029 	andeq	r0, r0, r9, lsr #32
     5f0:	0efb0102 	cdpeq	1, 15, cr0, cr11, cr2, {0}
     5f4:	0101000d 	tsteq	r1, sp
     5f8:	00000101 	andeq	r0, r0, r1, lsl #2
     5fc:	00000100 	andeq	r0, r0, r0, lsl #2
     600:	31736301 	cmncc	r3, r1, lsl #6
     604:	2d653034 	stclcs	0, cr3, [r5, #-208]!	; 0xffffff30
     608:	00637273 	rsbeq	r7, r3, r3, ror r2
     60c:	63616300 	cmnvs	r1, #0, 6
     610:	632e6568 	teqvs	lr, #104, 10	; 0x1a000000
     614:	00000100 	andeq	r0, r0, r0, lsl #2
     618:	02050000 	andeq	r0, r5, #0
     61c:	00008b24 	andeq	r8, r0, r4, lsr #22
     620:	2f301414 	svccs	0x00301414
     624:	2f31144e 	svccs	0x0031144e
     628:	01000402 	tsteq	r0, r2, lsl #8
     62c:	00009301 	andeq	r9, r0, r1, lsl #6
     630:	7d000200 	sfmvc	f0, 4, [r0, #-0]
     634:	02000000 	andeq	r0, r0, #0
     638:	0d0efb01 	vstreq	d15, [lr, #-4]
     63c:	01010100 	mrseq	r0, (UNDEF: 17)
     640:	00000001 	andeq	r0, r0, r1
     644:	01000001 	tsteq	r0, r1
     648:	34317363 	ldrtcc	r7, [r1], #-867	; 0x363
     64c:	732d6530 	teqvc	sp, #48, 10	; 0xc000000
     650:	2f006372 	svccs	0x00006372
     654:	72657355 	rsbvc	r7, r5, #1409286145	; 0x54000001
     658:	72622f73 	rsbvc	r2, r2, #460	; 0x1cc
     65c:	6a6e6169 	bvs	1b98c08 <__bss_end__+0x1b8e958>
     660:	442f6e75 	strtmi	r6, [pc], #-3701	; 668 <_start-0x7998>
     664:	746b7365 	strbtvc	r7, [fp], #-869	; 0x365
     668:	732f706f 	teqvc	pc, #111	; 0x6f
     66c:	6f6f6863 	svcvs	0x006f6863
     670:	69572f6c 	ldmdbvs	r7, {r2, r3, r5, r6, r8, r9, sl, fp, sp}^
     674:	7265746e 	rsbvc	r7, r5, #1845493760	; 0x6e000000
     678:	30323931 	eorscc	r3, r2, r1, lsr r9
     67c:	3153432f 	cmpcc	r3, pc, lsr #6
     680:	2f453034 	svccs	0x00453034
     684:	34317363 	ldrtcc	r7, [r1], #-867	; 0x363
     688:	322d6530 	eorcc	r6, sp, #48, 10	; 0xc000000
     68c:	6e697730 	mcrvs	7, 3, r7, cr9, cr0, {1}
     690:	62696c2f 	rsbvs	r6, r9, #12032	; 0x2f00
     694:	00006970 	andeq	r6, r0, r0, ror r9
     698:	61656c63 	cmnvs	r5, r3, ror #24
     69c:	65722d6e 	ldrbvs	r2, [r2, #-3438]!	; 0xd6e
     6a0:	746f6f62 	strbtvc	r6, [pc], #-3938	; 6a8 <_start-0x7958>
     6a4:	0100632e 	tsteq	r0, lr, lsr #6
     6a8:	70720000 	rsbsvc	r0, r2, r0
     6ac:	00682e69 	rsbeq	r2, r8, r9, ror #28
     6b0:	00000002 	andeq	r0, r0, r2
     6b4:	44020500 	strmi	r0, [r2], #-1280	; 0x500
     6b8:	1500008b 	strne	r0, [r0, #-139]	; 0x8b
     6bc:	024b832f 	subeq	r8, fp, #-1140850688	; 0xbc000000
     6c0:	01010006 	tsteq	r1, r6
     6c4:	00000121 	andeq	r0, r0, r1, lsr #2
     6c8:	00f80002 	rscseq	r0, r8, r2
     6cc:	01020000 	mrseq	r0, (UNDEF: 2)
     6d0:	000d0efb 	strdeq	r0, [sp], -fp
     6d4:	01010101 	tsteq	r1, r1, lsl #2
     6d8:	01000000 	mrseq	r0, (UNDEF: 0)
     6dc:	63010000 	movwvs	r0, #4096	; 0x1000
     6e0:	30343173 	eorscc	r3, r4, r3, ror r1
     6e4:	72732d65 	rsbsvc	r2, r3, #6464	; 0x1940
     6e8:	752f0063 	strvc	r0, [pc, #-99]!	; 68d <_start-0x7973>
     6ec:	6c2f7273 	sfmvs	f7, 4, [pc], #-460	; 528 <_start-0x7ad8>
     6f0:	6c61636f 	stclvs	3, cr6, [r1], #-444	; 0xfffffe44
     6f4:	6c65432f 	stclvs	3, cr4, [r5], #-188	; 0xffffff44
     6f8:	2f72616c 	svccs	0x0072616c
     6fc:	2d6d7261 	sfmcs	f7, 2, [sp, #-388]!	; 0xfffffe7c
     700:	656e6f6e 	strbvs	r6, [lr, #-3950]!	; 0xf6e
     704:	6261652d 	rsbvs	r6, r1, #188743680	; 0xb400000
     708:	2e342f69 	cdpcs	15, 3, cr2, cr4, cr9, {3}
     70c:	2d332e38 	ldccs	14, cr2, [r3, #-224]!	; 0xffffff20
     710:	37317363 	ldrcc	r7, [r1, -r3, ror #6]!
     714:	6c2f6530 	cfstr32vs	mvfx6, [pc], #-192	; 65c <_start-0x79a4>
     718:	672f6269 	strvs	r6, [pc, -r9, ror #4]!
     71c:	612f6363 	teqvs	pc, r3, ror #6
     720:	6e2d6d72 	mcrvs	13, 1, r6, cr13, cr2, {3}
     724:	2d656e6f 	stclcs	14, cr6, [r5, #-444]!	; 0xfffffe44
     728:	69626165 	stmdbvs	r2!, {r0, r2, r5, r6, r8, sp, lr}^
     72c:	382e342f 	stmdacc	lr!, {r0, r1, r2, r3, r5, sl, ip, sp}
     730:	692f332e 	stmdbvs	pc!, {r1, r2, r3, r5, r8, r9, ip, sp}	; <UNPREDICTABLE>
     734:	756c636e 	strbvc	r6, [ip, #-878]!	; 0x36e
     738:	2f006564 	svccs	0x00006564
     73c:	72657355 	rsbvc	r7, r5, #1409286145	; 0x54000001
     740:	72622f73 	rsbvc	r2, r2, #460	; 0x1cc
     744:	6a6e6169 	bvs	1b98cf0 <__bss_end__+0x1b8ea40>
     748:	442f6e75 	strtmi	r6, [pc], #-3701	; 750 <_start-0x78b0>
     74c:	746b7365 	strbtvc	r7, [fp], #-869	; 0x365
     750:	732f706f 	teqvc	pc, #111	; 0x6f
     754:	6f6f6863 	svcvs	0x006f6863
     758:	69572f6c 	ldmdbvs	r7, {r2, r3, r5, r6, r8, r9, sl, fp, sp}^
     75c:	7265746e 	rsbvc	r7, r5, #1845493760	; 0x6e000000
     760:	30323931 	eorscc	r3, r2, r1, lsr r9
     764:	3153432f 	cmpcc	r3, pc, lsr #6
     768:	2f453034 	svccs	0x00453034
     76c:	34317363 	ldrtcc	r7, [r1], #-867	; 0x363
     770:	322d6530 	eorcc	r6, sp, #48, 10	; 0xc000000
     774:	6e697730 	mcrvs	7, 3, r7, cr9, cr0, {1}
     778:	62696c2f 	rsbvs	r6, r9, #12032	; 0x2f00
     77c:	00006970 	andeq	r6, r0, r0, ror r9
     780:	61747363 	cmnvs	r4, r3, ror #6
     784:	632e7472 	teqvs	lr, #1912602624	; 0x72000000
     788:	00000100 	andeq	r0, r0, r0, lsl #2
     78c:	69647473 	stmdbvs	r4!, {r0, r1, r4, r5, r6, sl, ip, sp, lr}^
     790:	672d746e 	strvs	r7, [sp, -lr, ror #8]!
     794:	682e6363 	stmdavs	lr!, {r0, r1, r5, r6, r8, r9, sp, lr}
     798:	00000200 	andeq	r0, r0, r0, lsl #4
     79c:	752d7773 	strvc	r7, [sp, #-1907]!	; 0x773
     7a0:	2e747261 	cdpcs	2, 7, cr7, cr4, cr1, {3}
     7a4:	00010068 	andeq	r0, r1, r8, rrx
     7a8:	6e6f6300 	cdpvs	3, 6, cr6, cr15, cr0, {0}
     7ac:	6c6f7274 	sfmvs	f7, 2, [pc], #-464	; 5e4 <_start-0x7a1c>
     7b0:	6f6c622d 	svcvs	0x006c622d
     7b4:	682e6b63 	stmdavs	lr!, {r0, r1, r5, r6, r8, r9, fp, sp, lr}
     7b8:	00000100 	andeq	r0, r0, r0, lsl #2
     7bc:	2e697072 	mcrcs	0, 3, r7, cr9, cr2, {3}
     7c0:	00030068 	andeq	r0, r3, r8, rrx
     7c4:	05000000 	streq	r0, [r0, #-0]
     7c8:	008b6c02 	addeq	r6, fp, r2, lsl #24
     7cc:	684b1700 	stmdavs	fp, {r8, r9, sl, ip}^
     7d0:	2f313268 	svccs	0x00313268
     7d4:	02002f2d 	andeq	r2, r0, #45, 30	; 0xb4
     7d8:	4f490104 	svcmi	0x00490104
     7dc:	67674b2f 	strbvs	r4, [r7, -pc, lsr #22]!
     7e0:	2f4e6783 	svccs	0x004e6783
     7e4:	01001002 	tsteq	r0, r2
     7e8:	00009901 	andeq	r9, r0, r1, lsl #18
     7ec:	77000200 	strvc	r0, [r0, -r0, lsl #4]
     7f0:	02000000 	andeq	r0, r0, #0
     7f4:	0d0efb01 	vstreq	d15, [lr, #-4]
     7f8:	01010100 	mrseq	r0, (UNDEF: 17)
     7fc:	00000001 	andeq	r0, r0, r1
     800:	01000001 	tsteq	r0, r1
     804:	34317363 	ldrtcc	r7, [r1], #-867	; 0x363
     808:	732d6530 	teqvc	sp, #48, 10	; 0xc000000
     80c:	2f006372 	svccs	0x00006372
     810:	72657355 	rsbvc	r7, r5, #1409286145	; 0x54000001
     814:	72622f73 	rsbvc	r2, r2, #460	; 0x1cc
     818:	6a6e6169 	bvs	1b98dc4 <__bss_end__+0x1b8eb14>
     81c:	442f6e75 	strtmi	r6, [pc], #-3701	; 824 <_start-0x77dc>
     820:	746b7365 	strbtvc	r7, [fp], #-869	; 0x365
     824:	732f706f 	teqvc	pc, #111	; 0x6f
     828:	6f6f6863 	svcvs	0x006f6863
     82c:	69572f6c 	ldmdbvs	r7, {r2, r3, r5, r6, r8, r9, sl, fp, sp}^
     830:	7265746e 	rsbvc	r7, r5, #1845493760	; 0x6e000000
     834:	30323931 	eorscc	r3, r2, r1, lsr r9
     838:	3153432f 	cmpcc	r3, pc, lsr #6
     83c:	2f453034 	svccs	0x00453034
     840:	34317363 	ldrtcc	r7, [r1], #-867	; 0x363
     844:	322d6530 	eorcc	r6, sp, #48, 10	; 0xc000000
     848:	6e697730 	mcrvs	7, 3, r7, cr9, cr0, {1}
     84c:	62696c2f 	rsbvs	r6, r9, #12032	; 0x2f00
     850:	00006970 	andeq	r6, r0, r0, ror r9
     854:	6f626572 	svcvs	0x00626572
     858:	632e746f 	teqvs	lr, #1862270976	; 0x6f000000
     85c:	00000100 	andeq	r0, r0, r0, lsl #2
     860:	2e697072 	mcrcs	0, 3, r7, cr9, cr2, {3}
     864:	00020068 	andeq	r0, r2, r8, rrx
     868:	05000000 	streq	r0, [r0, #-0]
     86c:	008c1c02 	addeq	r1, ip, r2, lsl #24
     870:	010d0300 	mrseq	r0, SP_mon
     874:	852f3114 	strhi	r3, [pc, #-276]!	; 768 <_start-0x7898>
     878:	4d4b2f15 	stclmi	15, cr2, [fp, #-84]	; 0xffffffac
     87c:	5235672f 	eorspl	r6, r5, #12320768	; 0xbc0000
     880:	00100267 	andseq	r0, r0, r7, ror #4
     884:	00a30101 	adceq	r0, r3, r1, lsl #2
     888:	00020000 	andeq	r0, r2, r0
     88c:	00000076 	andeq	r0, r0, r6, ror r0
     890:	0efb0102 	cdpeq	1, 15, cr0, cr11, cr2, {0}
     894:	0101000d 	tsteq	r1, sp
     898:	00000101 	andeq	r0, r0, r1, lsl #2
     89c:	00000100 	andeq	r0, r0, r0, lsl #2
     8a0:	31736301 	cmncc	r3, r1, lsl #6
     8a4:	2d653034 	stclcs	0, cr3, [r5, #-208]!	; 0xffffff30
     8a8:	00637273 	rsbeq	r7, r3, r3, ror r2
     8ac:	6573552f 	ldrbvs	r5, [r3, #-1327]!	; 0x52f
     8b0:	622f7372 	eorvs	r7, pc, #-939524095	; 0xc8000001
     8b4:	6e616972 	mcrvs	9, 3, r6, cr1, cr2, {3}
     8b8:	2f6e756a 	svccs	0x006e756a
     8bc:	6b736544 	blvs	1cd9dd4 <__bss_end__+0x1ccfb24>
     8c0:	2f706f74 	svccs	0x00706f74
     8c4:	6f686373 	svcvs	0x00686373
     8c8:	572f6c6f 	strpl	r6, [pc, -pc, ror #24]!
     8cc:	65746e69 	ldrbvs	r6, [r4, #-3689]!	; 0xe69
     8d0:	32393172 	eorscc	r3, r9, #-2147483620	; 0x8000001c
     8d4:	53432f30 	movtpl	r2, #16176	; 0x3f30
     8d8:	45303431 	ldrmi	r3, [r0, #-1073]!	; 0x431
     8dc:	3173632f 	cmncc	r3, pc, lsr #6
     8e0:	2d653034 	stclcs	0, cr3, [r5, #-208]!	; 0xffffff30
     8e4:	69773032 	ldmdbvs	r7!, {r1, r4, r5, ip, sp}^
     8e8:	696c2f6e 	stmdbvs	ip!, {r1, r2, r3, r5, r6, r8, r9, sl, fp, sp}^
     8ec:	00697062 	rsbeq	r7, r9, r2, rrx
     8f0:	6d697400 	cfstrdvs	mvd7, [r9, #-0]
     8f4:	632e7265 	teqvs	lr, #1342177286	; 0x50000006
     8f8:	00000100 	andeq	r0, r0, r0, lsl #2
     8fc:	2e697072 	mcrcs	0, 3, r7, cr9, cr2, {3}
     900:	00020068 	andeq	r0, r2, r8, rrx
     904:	05000000 	streq	r0, [r0, #-0]
     908:	008c9002 	addeq	r9, ip, r2
     90c:	2f131600 	svccs	0x00131600
     910:	0402002d 	streq	r0, [r2], #-45	; 0x2d
     914:	062e0601 	strteq	r0, [lr], -r1, lsl #12
     918:	4b2f3168 	blmi	bccec0 <__bss_end__+0xbc2c10>
     91c:	3031324d 	eorscc	r3, r1, sp, asr #4
     920:	6a2f4c4b 	bvs	bd3a54 <__bss_end__+0xbc97a4>
     924:	2f842f2f 	svccs	0x00842f2f
     928:	01000802 	tsteq	r0, r2, lsl #16
     92c:	00017f01 	andeq	r7, r1, r1, lsl #30
     930:	ca000200 	bgt	1138 <_start-0x6ec8>
     934:	02000000 	andeq	r0, r0, #0
     938:	0d0efb01 	vstreq	d15, [lr, #-4]
     93c:	01010100 	mrseq	r0, (UNDEF: 17)
     940:	00000001 	andeq	r0, r0, r1
     944:	01000001 	tsteq	r0, r1
     948:	732d796d 	teqvc	sp, #1785856	; 0x1b4000
     94c:	2f006372 	svccs	0x00006372
     950:	72657355 	rsbvc	r7, r5, #1409286145	; 0x54000001
     954:	72622f73 	rsbvc	r2, r2, #460	; 0x1cc
     958:	6a6e6169 	bvs	1b98f04 <__bss_end__+0x1b8ec54>
     95c:	442f6e75 	strtmi	r6, [pc], #-3701	; 964 <_start-0x769c>
     960:	746b7365 	strbtvc	r7, [fp], #-869	; 0x365
     964:	732f706f 	teqvc	pc, #111	; 0x6f
     968:	6f6f6863 	svcvs	0x006f6863
     96c:	69572f6c 	ldmdbvs	r7, {r2, r3, r5, r6, r8, r9, sl, fp, sp}^
     970:	7265746e 	rsbvc	r7, r5, #1845493760	; 0x6e000000
     974:	30323931 	eorscc	r3, r2, r1, lsr r9
     978:	3153432f 	cmpcc	r3, pc, lsr #6
     97c:	2f453034 	svccs	0x00453034
     980:	34317363 	ldrtcc	r7, [r1], #-867	; 0x363
     984:	322d6530 	eorcc	r6, sp, #48, 10	; 0xc000000
     988:	6e697730 	mcrvs	7, 3, r7, cr9, cr0, {1}
     98c:	62696c2f 	rsbvs	r6, r9, #12032	; 0x2f00
     990:	632f6970 	teqvs	pc, #112, 18	; 0x1c0000
     994:	30343173 	eorscc	r3, r4, r3, ror r1
     998:	72732d65 	rsbsvc	r2, r3, #6464	; 0x1940
     99c:	552f0063 	strpl	r0, [pc, #-99]!	; 941 <_start-0x76bf>
     9a0:	73726573 	cmnvc	r2, #482344960	; 0x1cc00000
     9a4:	6972622f 	ldmdbvs	r2!, {r0, r1, r2, r3, r5, r9, sp, lr}^
     9a8:	756a6e61 	strbvc	r6, [sl, #-3681]!	; 0xe61
     9ac:	65442f6e 	strbvs	r2, [r4, #-3950]	; 0xf6e
     9b0:	6f746b73 	svcvs	0x00746b73
     9b4:	63732f70 	cmnvs	r3, #112, 30	; 0x1c0
     9b8:	6c6f6f68 	stclvs	15, cr6, [pc], #-416	; 820 <_start-0x77e0>
     9bc:	6e69572f 	cdpvs	7, 6, cr5, cr9, cr15, {1}
     9c0:	31726574 	cmncc	r2, r4, ror r5
     9c4:	2f303239 	svccs	0x00303239
     9c8:	34315343 	ldrtcc	r5, [r1], #-835	; 0x343
     9cc:	632f4530 	teqvs	pc, #48, 10	; 0xc000000
     9d0:	30343173 	eorscc	r3, r4, r3, ror r1
     9d4:	30322d65 	eorscc	r2, r2, r5, ror #26
     9d8:	2f6e6977 	svccs	0x006e6977
     9dc:	7062696c 	rsbvc	r6, r2, ip, ror #18
     9e0:	67000069 	strvs	r0, [r0, -r9, rrx]
     9e4:	2e6f6970 	mcrcs	9, 3, r6, cr15, cr0, {3}
     9e8:	00010063 	andeq	r0, r1, r3, rrx
     9ec:	69706700 	ldmdbvs	r0!, {r8, r9, sl, sp, lr}^
     9f0:	00682e6f 	rsbeq	r2, r8, pc, ror #28
     9f4:	72000002 	andvc	r0, r0, #2
     9f8:	682e6970 	stmdavs	lr!, {r4, r5, r6, r8, fp, sp, lr}
     9fc:	00000300 	andeq	r0, r0, r0, lsl #6
     a00:	02050000 	andeq	r0, r5, #0
     a04:	00008d18 	andeq	r8, r0, r8, lsl sp
     a08:	4e013e03 	cdpmi	14, 0, cr3, cr1, cr3, {0}
     a0c:	21086950 	tstcs	r8, r0, asr r9
     a10:	67676767 	strbvs	r6, [r7, -r7, ror #14]!
     a14:	4b326767 	blmi	c9a7b8 <__bss_end__+0xc90508>
     a18:	31dc2208 	bicscc	r2, ip, r8, lsl #4
     a1c:	504e1351 	subpl	r1, lr, r1, asr r3
     a20:	5031be30 	eorspl	fp, r1, r0, lsr lr
     a24:	304f4d13 	subcc	r4, pc, r3, lsl sp	; <UNPREDICTABLE>
     a28:	69504cc0 	ldmdbvs	r0, {r6, r7, sl, fp, lr}^
     a2c:	67672108 	strbvs	r2, [r7, -r8, lsl #2]!
     a30:	67676767 	strbvs	r6, [r7, -r7, ror #14]!
     a34:	21084b32 	tstcs	r8, r2, lsr fp
     a38:	2f504ca4 	svccs	0x00504ca4
     a3c:	75036984 	strvc	r6, [r3, #-2436]	; 0x984
     a40:	2e0c0382 	cdpcs	3, 0, cr0, cr12, cr2, {4}
     a44:	4b4e304d 	blmi	138cb80 <__bss_end__+0x13828d0>
     a48:	6b6a4d4c 	blvs	1a93f80 <__bss_end__+0x1a89cd0>
     a4c:	67210869 	strvs	r0, [r1, -r9, ror #16]!
     a50:	67676767 	strbvs	r6, [r7, -r7, ror #14]!
     a54:	084b3267 	stmdaeq	fp, {r0, r1, r2, r5, r6, r9, ip, sp}^
     a58:	5130c022 	teqpl	r0, r2, lsr #32
     a5c:	30504e13 	subscc	r4, r0, r3, lsl lr
     a60:	31ba1803 			; <UNDEFINED> instruction: 0x31ba1803
     a64:	522f4c9f 	eorpl	r4, pc, #40704	; 0x9f00
     a68:	4b2f4e4d 	blmi	bd43a4 <__bss_end__+0xbca0f4>
     a6c:	67684b67 	strbvs	r4, [r8, -r7, ror #22]!
     a70:	672f4c67 	strvs	r4, [pc, -r7, ror #24]!
     a74:	4c6e4b2f 	stclmi	11, cr4, [lr], #-188	; 0xffffff44
     a78:	674b2f4e 	strbvs	r2, [fp, -lr, asr #30]
     a7c:	6767684b 	strbvs	r6, [r7, -fp, asr #16]!
     a80:	2f672f4c 	svccs	0x00672f4c
     a84:	4e4b6d4b 	cdpmi	13, 4, cr6, cr11, cr11, {2}
     a88:	00674b2f 	rsbeq	r4, r7, pc, lsr #22
     a8c:	06010402 	streq	r0, [r1], -r2, lsl #8
     a90:	9f680666 	svcls	0x00680666
     a94:	0402002f 	streq	r0, [r2], #-47	; 0x2f
     a98:	064a0601 	strbeq	r0, [sl], -r1, lsl #12
     a9c:	73032f68 	movwvc	r2, #16232	; 0x3f68
     aa0:	2e0e034a 	cdpcs	3, 0, cr0, cr14, cr10, {2}
     aa4:	2f4e4c4d 	svccs	0x004e4c4d
     aa8:	02bcbc4b 	adcseq	fp, ip, #19200	; 0x4b00
     aac:	01010006 	tsteq	r1, r6
     ab0:	00000349 	andeq	r0, r0, r9, asr #6
     ab4:	01bd0002 			; <UNDEFINED> instruction: 0x01bd0002
     ab8:	01020000 	mrseq	r0, (UNDEF: 2)
     abc:	000d0efb 	strdeq	r0, [sp], -fp
     ac0:	01010101 	tsteq	r1, r1, lsl #2
     ac4:	01000000 	mrseq	r0, (UNDEF: 0)
     ac8:	6d010000 	stcvs	0, cr0, [r1, #-0]
     acc:	72732d79 	rsbsvc	r2, r3, #7744	; 0x1e40
     ad0:	552f0063 	strpl	r0, [pc, #-99]!	; a75 <_start-0x758b>
     ad4:	73726573 	cmnvc	r2, #482344960	; 0x1cc00000
     ad8:	6972622f 	ldmdbvs	r2!, {r0, r1, r2, r3, r5, r9, sp, lr}^
     adc:	756a6e61 	strbvc	r6, [sl, #-3681]!	; 0xe61
     ae0:	65442f6e 	strbvs	r2, [r4, #-3950]	; 0xf6e
     ae4:	6f746b73 	svcvs	0x00746b73
     ae8:	63732f70 	cmnvs	r3, #112, 30	; 0x1c0
     aec:	6c6f6f68 	stclvs	15, cr6, [pc], #-416	; 954 <_start-0x76ac>
     af0:	6e69572f 	cdpvs	7, 6, cr5, cr9, cr15, {1}
     af4:	31726574 	cmncc	r2, r4, ror r5
     af8:	2f303239 	svccs	0x00303239
     afc:	34315343 	ldrtcc	r5, [r1], #-835	; 0x343
     b00:	632f4530 	teqvs	pc, #48, 10	; 0xc000000
     b04:	30343173 	eorscc	r3, r4, r3, ror r1
     b08:	30322d65 	eorscc	r2, r2, r5, ror #26
     b0c:	2f6e6977 	svccs	0x006e6977
     b10:	7062696c 	rsbvc	r6, r2, ip, ror #18
     b14:	73632f69 	cmnvc	r3, #420	; 0x1a4
     b18:	65303431 	ldrvs	r3, [r0, #-1073]!	; 0x431
     b1c:	6372732d 	cmnvs	r2, #-1275068416	; 0xb4000000
     b20:	73752f00 	cmnvc	r5, #0, 30
     b24:	6f6c2f72 	svcvs	0x006c2f72
     b28:	2f6c6163 	svccs	0x006c6163
     b2c:	6c6c6543 	cfstr64vs	mvdx6, [ip], #-268	; 0xfffffef4
     b30:	612f7261 	teqvs	pc, r1, ror #4
     b34:	6e2d6d72 	mcrvs	13, 1, r6, cr13, cr2, {3}
     b38:	2d656e6f 	stclcs	14, cr6, [r5, #-444]!	; 0xfffffe44
     b3c:	69626165 	stmdbvs	r2!, {r0, r2, r5, r6, r8, sp, lr}^
     b40:	382e342f 	stmdacc	lr!, {r0, r1, r2, r3, r5, sl, ip, sp}
     b44:	632d332e 	teqvs	sp, #-1207959552	; 0xb8000000
     b48:	30373173 	eorscc	r3, r7, r3, ror r1
     b4c:	696c2f65 	stmdbvs	ip!, {r0, r2, r5, r6, r8, r9, sl, fp, sp}^
     b50:	63672f62 	cmnvs	r7, #392	; 0x188
     b54:	72612f63 	rsbvc	r2, r1, #396	; 0x18c
     b58:	6f6e2d6d 	svcvs	0x006e2d6d
     b5c:	652d656e 	strvs	r6, [sp, #-1390]!	; 0x56e
     b60:	2f696261 	svccs	0x00696261
     b64:	2e382e34 	mrccs	14, 1, r2, cr8, cr4, {1}
     b68:	6e692f33 	mcrvs	15, 3, r2, cr9, cr3, {1}
     b6c:	64756c63 	ldrbtvs	r6, [r5], #-3171	; 0xc63
     b70:	552f0065 	strpl	r0, [pc, #-101]!	; b13 <_start-0x74ed>
     b74:	73726573 	cmnvc	r2, #482344960	; 0x1cc00000
     b78:	6972622f 	ldmdbvs	r2!, {r0, r1, r2, r3, r5, r9, sp, lr}^
     b7c:	756a6e61 	strbvc	r6, [sl, #-3681]!	; 0xe61
     b80:	65442f6e 	strbvs	r2, [r4, #-3950]	; 0xf6e
     b84:	6f746b73 	svcvs	0x00746b73
     b88:	63732f70 	cmnvs	r3, #112, 30	; 0x1c0
     b8c:	6c6f6f68 	stclvs	15, cr6, [pc], #-416	; 9f4 <_start-0x760c>
     b90:	6e69572f 	cdpvs	7, 6, cr5, cr9, cr15, {1}
     b94:	31726574 	cmncc	r2, r4, ror r5
     b98:	2f303239 	svccs	0x00303239
     b9c:	34315343 	ldrtcc	r5, [r1], #-835	; 0x343
     ba0:	632f4530 	teqvs	pc, #48, 10	; 0xc000000
     ba4:	30343173 	eorscc	r3, r4, r3, ror r1
     ba8:	30322d65 	eorscc	r2, r2, r5, ror #26
     bac:	2f6e6977 	svccs	0x006e6977
     bb0:	7062696c 	rsbvc	r6, r2, ip, ror #18
     bb4:	552f0069 	strpl	r0, [pc, #-105]!	; b53 <_start-0x74ad>
     bb8:	73726573 	cmnvc	r2, #482344960	; 0x1cc00000
     bbc:	6972622f 	ldmdbvs	r2!, {r0, r1, r2, r3, r5, r9, sp, lr}^
     bc0:	756a6e61 	strbvc	r6, [sl, #-3681]!	; 0xe61
     bc4:	65442f6e 	strbvs	r2, [r4, #-3950]	; 0xf6e
     bc8:	6f746b73 	svcvs	0x00746b73
     bcc:	63732f70 	cmnvs	r3, #112, 30	; 0x1c0
     bd0:	6c6f6f68 	stclvs	15, cr6, [pc], #-416	; a38 <_start-0x75c8>
     bd4:	6e69572f 	cdpvs	7, 6, cr5, cr9, cr15, {1}
     bd8:	31726574 	cmncc	r2, r4, ror r5
     bdc:	2f303239 	svccs	0x00303239
     be0:	34315343 	ldrtcc	r5, [r1], #-835	; 0x343
     be4:	632f4530 	teqvs	pc, #48, 10	; 0xc000000
     be8:	30343173 	eorscc	r3, r4, r3, ror r1
     bec:	30322d65 	eorscc	r2, r2, r5, ror #26
     bf0:	2f6e6977 	svccs	0x006e6977
     bf4:	7062696c 	rsbvc	r6, r2, ip, ror #18
     bf8:	696c2f69 	stmdbvs	ip!, {r0, r3, r5, r6, r8, r9, sl, fp, sp}^
     bfc:	00006362 	andeq	r6, r0, r2, ror #6
     c00:	752d7773 	strvc	r7, [sp, #-1907]!	; 0x773
     c04:	2e747261 	cdpcs	2, 7, cr7, cr4, cr1, {3}
     c08:	00010063 	andeq	r0, r1, r3, rrx
     c0c:	63796300 	cmnvs	r9, #0, 6
     c10:	752d656c 	strvc	r6, [sp, #-1388]!	; 0x56c
     c14:	2e6c6974 	mcrcs	9, 3, r6, cr12, cr4, {3}
     c18:	00020068 	andeq	r0, r2, r8, rrx
     c1c:	64747300 	ldrbtvs	r7, [r4], #-768	; 0x300
     c20:	2d746e69 	ldclcs	14, cr6, [r4, #-420]!	; 0xfffffe5c
     c24:	2e636367 	cdpcs	3, 6, cr6, cr3, cr7, {3}
     c28:	00030068 	andeq	r0, r3, r8, rrx
     c2c:	2d777300 	ldclcs	3, cr7, [r7, #-0]
     c30:	74726175 	ldrbtvc	r6, [r2], #-373	; 0x175
     c34:	0200682e 	andeq	r6, r0, #3014656	; 0x2e0000
     c38:	74730000 	ldrbtvc	r0, [r3], #-0
     c3c:	67726164 	ldrbvs	r6, [r2, -r4, ror #2]!
     c40:	0300682e 	movweq	r6, #2094	; 0x82e
     c44:	70670000 	rsbvc	r0, r7, r0
     c48:	682e6f69 	stmdavs	lr!, {r0, r3, r5, r6, r8, r9, sl, fp, sp, lr}
     c4c:	00000200 	andeq	r0, r0, r0, lsl #4
     c50:	2e697072 	mcrcs	0, 3, r7, cr9, cr2, {3}
     c54:	00040068 	andeq	r0, r4, r8, rrx
     c58:	2d617600 	stclcs	6, cr7, [r1, #-0]
     c5c:	6e697270 	mcrvs	2, 3, r7, cr9, cr0, {3}
     c60:	682e6b74 	stmdavs	lr!, {r2, r4, r5, r6, r8, r9, fp, sp, lr}
     c64:	00000500 	andeq	r0, r0, r0, lsl #10
     c68:	6975623c 	ldmdbvs	r5!, {r2, r3, r4, r5, r9, sp, lr}^
     c6c:	692d746c 	pushvs	{r2, r3, r5, r6, sl, ip, sp, lr}
     c70:	00003e6e 	andeq	r3, r0, lr, ror #28
     c74:	00000000 	andeq	r0, r0, r0
     c78:	92b80205 	adcsls	r0, r8, #1342177280	; 0x50000000
     c7c:	4c1a0000 	ldcmi	0, cr0, [sl], {-0}
     c80:	0204302f 	andeq	r3, r4, #47	; 0x2f
     c84:	032e0b03 	teqeq	lr, #3072	; 0xc00
     c88:	01046673 	tsteq	r4, r3, ror r6
     c8c:	35020488 	strcc	r0, [r2, #-1160]	; 0x488
     c90:	04667303 	strbteq	r7, [r6], #-771	; 0x303
     c94:	02048a01 	andeq	r8, r4, #4096	; 0x1000
     c98:	66730333 			; <UNDEFINED> instruction: 0x66730333
     c9c:	0a030104 	beq	c10b4 <__bss_end__+0xb6e04>
     ca0:	31020482 	smlabbcc	r2, r2, r4, r0
     ca4:	04667303 	strbteq	r7, [r6], #-771	; 0x303
     ca8:	820c0301 	andhi	r0, ip, #67108864	; 0x4000000
     cac:	032f0204 	teqeq	pc, #4, 4	; 0x40000000
     cb0:	01046673 	tsteq	r4, r3, ror r6
     cb4:	04820e03 	streq	r0, [r2], #3587	; 0xe03
     cb8:	73032d02 	movwvc	r2, #15618	; 0x3d02
     cbc:	03010466 	movweq	r0, #5222	; 0x1466
     cc0:	02048210 	andeq	r8, r4, #16, 4
     cc4:	6673032b 	ldrbtvs	r0, [r3], -fp, lsr #6
     cc8:	12030104 	andne	r0, r3, #4, 2
     ccc:	29020482 	stmdbcs	r2, {r1, r7, sl}
     cd0:	04667303 	strbteq	r7, [r6], #-771	; 0x303
     cd4:	82140301 	andshi	r0, r4, #67108864	; 0x4000000
     cd8:	79030204 	stmdbvc	r3, {r2, r9}
     cdc:	6673032e 	ldrbtvs	r0, [r3], -lr, lsr #6
     ce0:	16030104 	strne	r0, [r3], -r4, lsl #2
     ce4:	03020482 	movweq	r0, #9346	; 0x2482
     ce8:	73032e77 	movwvc	r2, #15991	; 0x3e77
     cec:	03010466 	movweq	r0, #5222	; 0x1466
     cf0:	10038218 	andne	r8, r3, r8, lsl r2
     cf4:	034d4b2e 	movteq	r4, #56110	; 0xdb2e
     cf8:	844c2e70 	strbhi	r2, [ip], #-3696	; 0xe70
     cfc:	0d034883 	stceq	8, cr4, [r3, #-524]	; 0xfffffdf4
     d00:	33314e2e 	teqcc	r1, #736	; 0x2e0
     d04:	48030204 	stmdami	r3, {r2, r9}
     d08:	0301042e 	movweq	r0, #5166	; 0x142e
     d0c:	042f823a 	strteq	r8, [pc], #-570	; d14 <_start-0x72ec>
     d10:	66450302 	strbvs	r0, [r5], -r2, lsl #6
     d14:	3d030104 	stfccs	f0, [r3, #-16]
     d18:	02042f82 	andeq	r2, r4, #520	; 0x208
     d1c:	04824203 	streq	r4, [r2], #515	; 0x203
     d20:	00c00301 	sbceq	r0, r0, r1, lsl #6
     d24:	02042f82 	andeq	r2, r4, #520	; 0x208
     d28:	827fbf03 	rsbshi	fp, pc, #3, 30
     d2c:	c3030104 	movwgt	r0, #12548	; 0x3104
     d30:	042f8200 	strteq	r8, [pc], #-512	; d38 <_start-0x72c8>
     d34:	7fbc0302 	svcvc	0x00bc0302
     d38:	03010482 	movweq	r0, #5250	; 0x1482
     d3c:	2f8200c6 	svccs	0x008200c6
     d40:	b9030204 	stmdblt	r3, {r2, r9}
     d44:	0104827f 	tsteq	r4, pc, ror r2
     d48:	8200c903 	andhi	ip, r0, #49152	; 0xc000
     d4c:	0302042f 	movweq	r0, #9263	; 0x242f
     d50:	04827fb6 	streq	r7, [r2], #4022	; 0xfb6
     d54:	00cc0301 	sbceq	r0, ip, r1, lsl #6
     d58:	02042f82 	andeq	r2, r4, #520	; 0x208
     d5c:	827fb303 	rsbshi	fp, pc, #201326592	; 0xc000000
     d60:	d0030104 	andle	r0, r3, r4, lsl #2
     d64:	4c038200 	sfmmi	f0, 1, [r3], {-0}
     d68:	83844c82 	orrhi	r4, r4, #33280	; 0x8200
     d6c:	2e360348 	cdpcs	3, 3, cr0, cr6, cr8, {2}
     d70:	4a54034e 	bmi	1501ab0 <__bss_end__+0x14f7800>
     d74:	324a2903 	subcc	r2, sl, #49152	; 0xc000
     d78:	0200bb34 	andeq	fp, r0, #52, 22	; 0xd000
     d7c:	4a060104 	bmi	181194 <__bss_end__+0x176ee4>
     d80:	4e210806 	cdpmi	8, 2, cr0, cr1, cr6, {0}
     d84:	002cbb4b 	eoreq	fp, ip, fp, asr #22
     d88:	06010402 	streq	r0, [r1], -r2, lsl #8
     d8c:	4c6d062e 	stclmi	6, cr0, [sp], #-184	; 0xffffff48
     d90:	0200a0dc 	andeq	sl, r0, #220	; 0xdc
     d94:	4a060104 	bmi	1811ac <__bss_end__+0x176efc>
     d98:	4d210806 	stcmi	8, cr0, [r1, #-24]!	; 0xffffffe8
     d9c:	02040200 	andeq	r0, r4, #0, 4
     da0:	0402004b 	streq	r0, [r2], #-75	; 0x4b
     da4:	02008102 	andeq	r8, r0, #-2147483648	; 0x80000000
     da8:	2e060104 	adfcss	f0, f6, f4
     dac:	dd4c4d06 	stclle	13, cr4, [ip, #-24]	; 0xffffffe8
     db0:	4b4b4bd8 	blmi	12d3d18 <__bss_end__+0x12c9a68>
     db4:	02002f6a 	andeq	r2, r0, #424	; 0x1a8
     db8:	82060104 	andhi	r0, r6, #4, 2
     dbc:	04020082 	streq	r0, [r2], #-130	; 0x82
     dc0:	02009e04 	andeq	r9, r0, #4, 28	; 0x40
     dc4:	064a0104 	strbeq	r0, [sl], -r4, lsl #2
     dc8:	f5882308 			; <UNDEFINED> instruction: 0xf5882308
     dcc:	084b4b2f 	stmdaeq	fp, {r0, r1, r2, r3, r5, r8, r9, fp, lr}^
     dd0:	02006740 	andeq	r6, r0, #64, 14	; 0x1000000
     dd4:	002f0204 	eoreq	r0, pc, r4, lsl #4
     dd8:	49020402 	stmdbmi	r2, {r1, sl}
     ddc:	01040200 	mrseq	r0, R12_usr
     de0:	68062e06 	stmdavs	r6, {r1, r2, r9, sl, fp, sp}
     de4:	a04b8634 	subge	r8, fp, r4, lsr r6
     de8:	01040200 	mrseq	r0, R12_usr
     dec:	08066606 	stmdaeq	r6, {r1, r2, r9, sl, sp, lr}
     df0:	3e086821 	cdpcc	8, 0, cr6, cr8, cr1, {1}
     df4:	d84b674b 	stmdale	fp, {r0, r1, r3, r6, r8, r9, sl, sp, lr}^
     df8:	01000a02 	tsteq	r0, r2, lsl #20
     dfc:	00010101 	andeq	r0, r1, r1, lsl #2
     e00:	ca000200 	bgt	1608 <_start-0x69f8>
     e04:	02000000 	andeq	r0, r0, #0
     e08:	0d0efb01 	vstreq	d15, [lr, #-4]
     e0c:	01010100 	mrseq	r0, (UNDEF: 17)
     e10:	00000001 	andeq	r0, r0, r1
     e14:	01000001 	tsteq	r0, r1
     e18:	732d796d 	teqvc	sp, #1785856	; 0x1b4000
     e1c:	2f006372 	svccs	0x00006372
     e20:	72657355 	rsbvc	r7, r5, #1409286145	; 0x54000001
     e24:	72622f73 	rsbvc	r2, r2, #460	; 0x1cc
     e28:	6a6e6169 	bvs	1b993d4 <__bss_end__+0x1b8f124>
     e2c:	442f6e75 	strtmi	r6, [pc], #-3701	; e34 <_start-0x71cc>
     e30:	746b7365 	strbtvc	r7, [fp], #-869	; 0x365
     e34:	732f706f 	teqvc	pc, #111	; 0x6f
     e38:	6f6f6863 	svcvs	0x006f6863
     e3c:	69572f6c 	ldmdbvs	r7, {r2, r3, r5, r6, r8, r9, sl, fp, sp}^
     e40:	7265746e 	rsbvc	r7, r5, #1845493760	; 0x6e000000
     e44:	30323931 	eorscc	r3, r2, r1, lsr r9
     e48:	3153432f 	cmpcc	r3, pc, lsr #6
     e4c:	2f453034 	svccs	0x00453034
     e50:	34317363 	ldrtcc	r7, [r1], #-867	; 0x363
     e54:	322d6530 	eorcc	r6, sp, #48, 10	; 0xc000000
     e58:	6e697730 	mcrvs	7, 3, r7, cr9, cr0, {1}
     e5c:	62696c2f 	rsbvs	r6, r9, #12032	; 0x2f00
     e60:	632f6970 	teqvs	pc, #112, 18	; 0x1c0000
     e64:	30343173 	eorscc	r3, r4, r3, ror r1
     e68:	72732d65 	rsbsvc	r2, r3, #6464	; 0x1940
     e6c:	552f0063 	strpl	r0, [pc, #-99]!	; e11 <_start-0x71ef>
     e70:	73726573 	cmnvc	r2, #482344960	; 0x1cc00000
     e74:	6972622f 	ldmdbvs	r2!, {r0, r1, r2, r3, r5, r9, sp, lr}^
     e78:	756a6e61 	strbvc	r6, [sl, #-3681]!	; 0xe61
     e7c:	65442f6e 	strbvs	r2, [r4, #-3950]	; 0xf6e
     e80:	6f746b73 	svcvs	0x00746b73
     e84:	63732f70 	cmnvs	r3, #112, 30	; 0x1c0
     e88:	6c6f6f68 	stclvs	15, cr6, [pc], #-416	; cf0 <_start-0x7310>
     e8c:	6e69572f 	cdpvs	7, 6, cr5, cr9, cr15, {1}
     e90:	31726574 	cmncc	r2, r4, ror r5
     e94:	2f303239 	svccs	0x00303239
     e98:	34315343 	ldrtcc	r5, [r1], #-835	; 0x343
     e9c:	632f4530 	teqvs	pc, #48, 10	; 0xc000000
     ea0:	30343173 	eorscc	r3, r4, r3, ror r1
     ea4:	30322d65 	eorscc	r2, r2, r5, ror #26
     ea8:	2f6e6977 	svccs	0x006e6977
     eac:	7062696c 	rsbvc	r6, r2, ip, ror #18
     eb0:	75000069 	strvc	r0, [r0, #-105]	; 0x69
     eb4:	2e747261 	cdpcs	2, 7, cr7, cr4, cr1, {3}
     eb8:	00010063 	andeq	r0, r1, r3, rrx
     ebc:	69706700 	ldmdbvs	r0!, {r8, r9, sl, sp, lr}^
     ec0:	00682e6f 	rsbeq	r2, r8, pc, ror #28
     ec4:	72000002 	andvc	r0, r0, #2
     ec8:	682e6970 	stmdavs	lr!, {r4, r5, r6, r8, fp, sp, lr}
     ecc:	00000300 	andeq	r0, r0, r0, lsl #6
     ed0:	02050000 	andeq	r0, r5, #0
     ed4:	00009920 	andeq	r9, r0, r0, lsr #18
     ed8:	30013603 	andcc	r3, r1, r3, lsl #12
     edc:	306d6733 	rsbcc	r6, sp, r3, lsr r7
     ee0:	676730d8 			; <UNDEFINED> instruction: 0x676730d8
     ee4:	68676767 	stmdavs	r7!, {r0, r1, r2, r5, r6, r8, r9, sl, sp, lr}^
     ee8:	6a672f86 	bvs	19ccd08 <__bss_end__+0x19c2a58>
     eec:	69676730 	stmdbvs	r7!, {r4, r5, r8, r9, sl, sp, lr}^
     ef0:	4c6a672f 	stclmi	7, cr6, [sl], #-188	; 0xffffff44
     ef4:	2f2fc167 	svccs	0x002fc167
     ef8:	49682f30 	stmdbmi	r8!, {r4, r5, r8, r9, sl, fp, sp}^
     efc:	00020230 	andeq	r0, r2, r0, lsr r2
     f00:	01280101 	teqeq	r8, r1, lsl #2
     f04:	00020000 	andeq	r0, r2, r0
     f08:	0000010d 	andeq	r0, r0, sp, lsl #2
     f0c:	0efb0102 	cdpeq	1, 15, cr0, cr11, cr2, {0}
     f10:	0101000d 	tsteq	r1, sp
     f14:	00000101 	andeq	r0, r0, r1, lsl #2
     f18:	00000100 	andeq	r0, r0, r0, lsl #2
     f1c:	31736301 	cmncc	r3, r1, lsl #6
     f20:	2d653034 	stclcs	0, cr3, [r5, #-208]!	; 0xffffff30
     f24:	00637273 	rsbeq	r7, r3, r3, ror r2
     f28:	7273752f 	rsbsvc	r7, r3, #197132288	; 0xbc00000
     f2c:	636f6c2f 	cmnvs	pc, #12032	; 0x2f00
     f30:	432f6c61 	teqmi	pc, #24832	; 0x6100
     f34:	616c6c65 	cmnvs	ip, r5, ror #24
     f38:	72612f72 	rsbvc	r2, r1, #456	; 0x1c8
     f3c:	6f6e2d6d 	svcvs	0x006e2d6d
     f40:	652d656e 	strvs	r6, [sp, #-1390]!	; 0x56e
     f44:	2f696261 	svccs	0x00696261
     f48:	2e382e34 	mrccs	14, 1, r2, cr8, cr4, {1}
     f4c:	73632d33 	cmnvc	r3, #3264	; 0xcc0
     f50:	65303731 	ldrvs	r3, [r0, #-1841]!	; 0x731
     f54:	62696c2f 	rsbvs	r6, r9, #12032	; 0x2f00
     f58:	6363672f 	cmnvs	r3, #12320768	; 0xbc0000
     f5c:	6d72612f 	ldfvse	f6, [r2, #-188]!	; 0xffffff44
     f60:	6e6f6e2d 	cdpvs	14, 6, cr6, cr15, cr13, {1}
     f64:	61652d65 	cmnvs	r5, r5, ror #26
     f68:	342f6962 	strtcc	r6, [pc], #-2402	; f70 <_start-0x7090>
     f6c:	332e382e 	teqcc	lr, #3014656	; 0x2e0000
     f70:	636e692f 	cmnvs	lr, #770048	; 0xbc000
     f74:	6564756c 	strbvs	r7, [r4, #-1388]!	; 0x56c
     f78:	73752f00 	cmnvc	r5, #0, 30
     f7c:	6f6c2f72 	svcvs	0x006c2f72
     f80:	2f6c6163 	svccs	0x006c6163
     f84:	6c6c6543 	cfstr64vs	mvdx6, [ip], #-268	; 0xfffffef4
     f88:	612f7261 	teqvs	pc, r1, ror #4
     f8c:	6e2d6d72 	mcrvs	13, 1, r6, cr13, cr2, {3}
     f90:	2d656e6f 	stclcs	14, cr6, [r5, #-444]!	; 0xfffffe44
     f94:	69626165 	stmdbvs	r2!, {r0, r2, r5, r6, r8, sp, lr}^
     f98:	382e342f 	stmdacc	lr!, {r0, r1, r2, r3, r5, sl, ip, sp}
     f9c:	632d332e 	teqvs	sp, #-1207959552	; 0xb8000000
     fa0:	30373173 	eorscc	r3, r7, r3, ror r1
     fa4:	72612f65 	rsbvc	r2, r1, #404	; 0x194
     fa8:	6f6e2d6d 	svcvs	0x006e2d6d
     fac:	652d656e 	strvs	r6, [sp, #-1390]!	; 0x56e
     fb0:	2f696261 	svccs	0x00696261
     fb4:	6c636e69 	stclvs	14, cr6, [r3], #-420	; 0xfffffe5c
     fb8:	00656475 	rsbeq	r6, r5, r5, ror r4
     fbc:	6e6f6300 	cdpvs	3, 6, cr6, cr15, cr0, {0}
     fc0:	6c6f7274 	sfmvs	f7, 2, [pc], #-464	; df8 <_start-0x7208>
     fc4:	6f6c622d 	svcvs	0x006c622d
     fc8:	632e6b63 	teqvs	lr, #101376	; 0x18c00
     fcc:	00000100 	andeq	r0, r0, r0, lsl #2
     fd0:	64647473 	strbtvs	r7, [r4], #-1139	; 0x473
     fd4:	682e6665 	stmdavs	lr!, {r0, r2, r5, r6, r9, sl, sp, lr}
     fd8:	00000200 	andeq	r0, r0, r0, lsl #4
     fdc:	69647473 	stmdbvs	r4!, {r0, r1, r4, r5, r6, sl, ip, sp, lr}^
     fe0:	672d746e 	strvs	r7, [sp, -lr, ror #8]!
     fe4:	682e6363 	stmdavs	lr!, {r0, r1, r5, r6, r8, r9, sp, lr}
     fe8:	00000200 	andeq	r0, r0, r0, lsl #4
     fec:	752d7773 	strvc	r7, [sp, #-1907]!	; 0x773
     ff0:	2e747261 	cdpcs	2, 7, cr7, cr4, cr1, {3}
     ff4:	00010068 	andeq	r0, r1, r8, rrx
     ff8:	6e6f6300 	cdpvs	3, 6, cr6, cr15, cr0, {0}
     ffc:	6c6f7274 	sfmvs	f7, 2, [pc], #-464	; e34 <_start-0x71cc>
    1000:	6f6c622d 	svcvs	0x006c622d
    1004:	682e6b63 	stmdavs	lr!, {r0, r1, r5, r6, r8, r9, fp, sp, lr}
    1008:	00000100 	andeq	r0, r0, r0, lsl #2
    100c:	69727473 	ldmdbvs	r2!, {r0, r1, r4, r5, r6, sl, ip, sp, lr}^
    1010:	682e676e 	stmdavs	lr!, {r1, r2, r3, r5, r6, r8, r9, sl, sp, lr}
    1014:	00000300 	andeq	r0, r0, r0, lsl #6
    1018:	02050000 	andeq	r0, r5, #0
    101c:	00009ad8 	ldrdeq	r9, [r0], -r8
    1020:	68833016 	stmvs	r3, {r1, r2, r4, ip, sp}
    1024:	4b9f144c 	blmi	fe7c615c <__bss_end__+0xfe7bbeac>
    1028:	0004022f 	andeq	r0, r4, pc, lsr #4
    102c:	00ec0101 	rsceq	r0, ip, r1, lsl #2
    1030:	00020000 	andeq	r0, r2, r0
    1034:	000000d0 	ldrdeq	r0, [r0], -r0	; <UNPREDICTABLE>
    1038:	0efb0102 	cdpeq	1, 15, cr0, cr11, cr2, {0}
    103c:	0101000d 	tsteq	r1, sp
    1040:	00000101 	andeq	r0, r0, r1, lsl #2
    1044:	00000100 	andeq	r0, r0, r0, lsl #2
    1048:	62696c01 	rsbvs	r6, r9, #256	; 0x100
    104c:	752f0063 	strvc	r0, [pc, #-99]!	; ff1 <_start-0x700f>
    1050:	6c2f7273 	sfmvs	f7, 4, [pc], #-460	; e8c <_start-0x7174>
    1054:	6c61636f 	stclvs	3, cr6, [r1], #-444	; 0xfffffe44
    1058:	6c65432f 	stclvs	3, cr4, [r5], #-188	; 0xffffff44
    105c:	2f72616c 	svccs	0x0072616c
    1060:	2d6d7261 	sfmcs	f7, 2, [sp, #-388]!	; 0xfffffe7c
    1064:	656e6f6e 	strbvs	r6, [lr, #-3950]!	; 0xf6e
    1068:	6261652d 	rsbvs	r6, r1, #188743680	; 0xb400000
    106c:	2e342f69 	cdpcs	15, 3, cr2, cr4, cr9, {3}
    1070:	2d332e38 	ldccs	14, cr2, [r3, #-224]!	; 0xffffff20
    1074:	37317363 	ldrcc	r7, [r1, -r3, ror #6]!
    1078:	6c2f6530 	cfstr32vs	mvfx6, [pc], #-192	; fc0 <_start-0x7040>
    107c:	672f6269 	strvs	r6, [pc, -r9, ror #4]!
    1080:	612f6363 	teqvs	pc, r3, ror #6
    1084:	6e2d6d72 	mcrvs	13, 1, r6, cr13, cr2, {3}
    1088:	2d656e6f 	stclcs	14, cr6, [r5, #-444]!	; 0xfffffe44
    108c:	69626165 	stmdbvs	r2!, {r0, r2, r5, r6, r8, sp, lr}^
    1090:	382e342f 	stmdacc	lr!, {r0, r1, r2, r3, r5, sl, ip, sp}
    1094:	692f332e 	stmdbvs	pc!, {r1, r2, r3, r5, r8, r9, ip, sp}	; <UNPREDICTABLE>
    1098:	756c636e 	strbvc	r6, [ip, #-878]!	; 0x36e
    109c:	2f006564 	svccs	0x00006564
    10a0:	2f727375 	svccs	0x00727375
    10a4:	61636f6c 	cmnvs	r3, ip, ror #30
    10a8:	65432f6c 	strbvs	r2, [r3, #-3948]	; 0xf6c
    10ac:	72616c6c 	rsbvc	r6, r1, #108, 24	; 0x6c00
    10b0:	6d72612f 	ldfvse	f6, [r2, #-188]!	; 0xffffff44
    10b4:	6e6f6e2d 	cdpvs	14, 6, cr6, cr15, cr13, {1}
    10b8:	61652d65 	cmnvs	r5, r5, ror #26
    10bc:	342f6962 	strtcc	r6, [pc], #-2402	; 10c4 <_start-0x6f3c>
    10c0:	332e382e 	teqcc	lr, #3014656	; 0x2e0000
    10c4:	3173632d 	cmncc	r3, sp, lsr #6
    10c8:	2f653037 	svccs	0x00653037
    10cc:	2d6d7261 	sfmcs	f7, 2, [sp, #-388]!	; 0xfffffe7c
    10d0:	656e6f6e 	strbvs	r6, [lr, #-3950]!	; 0xf6e
    10d4:	6261652d 	rsbvs	r6, r1, #188743680	; 0xb400000
    10d8:	6e692f69 	cdpvs	15, 6, cr2, cr9, cr9, {3}
    10dc:	64756c63 	ldrbtvs	r6, [r5], #-3171	; 0xc63
    10e0:	6d000065 	stcvs	0, cr0, [r0, #-404]	; 0xfffffe6c
    10e4:	65736d65 	ldrbvs	r6, [r3, #-3429]!	; 0xd65
    10e8:	00632e74 	rsbeq	r2, r3, r4, ror lr
    10ec:	73000001 	movwvc	r0, #1
    10f0:	65646474 	strbvs	r6, [r4, #-1140]!	; 0x474
    10f4:	00682e66 	rsbeq	r2, r8, r6, ror #28
    10f8:	73000002 	movwvc	r0, #2
    10fc:	6e697274 	mcrvs	2, 3, r7, cr9, cr4, {3}
    1100:	00682e67 	rsbeq	r2, r8, r7, ror #28
    1104:	00000003 	andeq	r0, r0, r3
    1108:	28020500 	stmdacs	r2, {r8, sl}
    110c:	1400009b 	strne	r0, [r0], #-155	; 0x9b
    1110:	002f4c13 	eoreq	r4, pc, r3, lsl ip	; <UNPREDICTABLE>
    1114:	49010402 	stmdbmi	r1, {r1, sl}
    1118:	0002024d 	andeq	r0, r2, sp, asr #4
    111c:	Address 0x000000000000111c is out of bounds.


Disassembly of section .debug_str:

00000000 <.debug_str>:
   0:	53465047 	movtpl	r5, #24647	; 0x6047
   4:	00324c45 	eorseq	r4, r2, r5, asr #24
   8:	4c435047 	mcrrmi	0, 4, r5, r3, cr7
   c:	6e003052 	mcrvs	0, 0, r3, cr0, cr2, {2}
  10:	616d746f 	cmnvs	sp, pc, ror #8
  14:	66006e69 	strvs	r6, [r0], -r9, ror #28
  18:	74737269 	ldrbtvc	r7, [r3], #-617	; 0x269
  1c:	6165725f 	cmnvs	r5, pc, asr r2
  20:	65700064 	ldrbvs	r0, [r0, #-100]!	; 0x64
  24:	646f6972 	strbtvs	r6, [pc], #-2418	; 2c <_start-0x7fd4>
  28:	6e6f6c00 	cdpvs	12, 6, cr6, cr15, cr0, {0}
  2c:	6f6c2067 	svcvs	0x006c2067
  30:	7520676e 	strvc	r6, [r0, #-1902]!	; 0x76e
  34:	6769736e 	strbvs	r7, [r9, -lr, ror #6]!
  38:	2064656e 	rsbcs	r6, r4, lr, ror #10
  3c:	00746e69 	rsbseq	r6, r4, r9, ror #28
  40:	676e6f6c 	strbvs	r6, [lr, -ip, ror #30]!
  44:	6e6f6c20 	cdpvs	12, 6, cr6, cr15, cr0, {1}
  48:	6e692067 	cdpvs	0, 6, cr2, cr9, cr7, {3}
  4c:	6f740074 	svcvs	0x00740074
  50:	72655f74 	rsbvc	r5, r5, #116, 30	; 0x1d0
  54:	50470072 	subpl	r0, r7, r2, ror r0
  58:	30544553 	subscc	r4, r4, r3, asr r5
  5c:	53504700 	cmppl	r0, #0, 14
  60:	00315445 	eorseq	r5, r1, r5, asr #8
  64:	454c5047 	strbmi	r5, [ip, #-71]	; 0x47
  68:	47003056 	smlsdmi	r0, r6, r0, r3
  6c:	56454c50 			; <UNDEFINED> instruction: 0x56454c50
  70:	6f6c0031 	svcvs	0x006c0031
  74:	6e655f67 	cdpvs	15, 6, cr5, cr5, cr7, {3}
  78:	00745f74 	rsbseq	r5, r4, r4, ror pc
  7c:	20554e47 	subscs	r4, r5, r7, asr #28
  80:	2e342043 	cdpcs	0, 3, cr2, cr4, cr3, {2}
  84:	20332e38 	eorscs	r2, r3, r8, lsr lr
  88:	70636d2d 	rsbvc	r6, r3, sp, lsr #26
  8c:	72613d75 	rsbvc	r3, r1, #7488	; 0x1d40
  90:	3731316d 	ldrcc	r3, [r1, -sp, ror #2]!
  94:	667a6a36 			; <UNDEFINED> instruction: 0x667a6a36
  98:	2d20732d 	stccs	3, cr7, [r0, #-180]!	; 0xffffff4c
  9c:	6e75746d 	cdpvs	4, 7, cr7, cr5, cr13, {3}
  a0:	72613d65 	rsbvc	r3, r1, #6464	; 0x1940
  a4:	3731316d 	ldrcc	r3, [r1, -sp, ror #2]!
  a8:	667a6a36 			; <UNDEFINED> instruction: 0x667a6a36
  ac:	2d20732d 	stccs	3, cr7, [r0, #-180]!	; 0xffffff4c
  b0:	62646767 	rsbvs	r6, r4, #27000832	; 0x19c0000
  b4:	334f2d20 	movtcc	r2, #64800	; 0xfd20
  b8:	74732d20 	ldrbtvc	r2, [r3], #-3360	; 0xd20
  bc:	6e673d64 	cdpvs	13, 6, cr3, cr7, cr4, {3}
  c0:	20393975 	eorscs	r3, r9, r5, ror r9
  c4:	7266662d 	rsbvc	r6, r6, #47185920	; 0x2d00000
  c8:	74736565 	ldrbtvc	r6, [r3], #-1381	; 0x565
  cc:	69646e61 	stmdbvs	r4!, {r0, r5, r6, r9, sl, fp, sp, lr}^
  d0:	7200676e 	andvc	r6, r0, #28835840	; 0x1b80000
  d4:	725f6970 	subsvc	r6, pc, #112, 18	; 0x1c0000
  d8:	74657365 	strbtvc	r7, [r5], #-869	; 0x365
  dc:	7475705f 	ldrbtvc	r7, [r5], #-95	; 0x5f
  e0:	50470063 	subpl	r0, r7, r3, rrx
  e4:	4c455346 	mcrrmi	3, 4, r5, r5, cr6
  e8:	50470030 	subpl	r0, r7, r0, lsr r0
  ec:	4c455346 	mcrrmi	3, 4, r5, r5, cr6
  f0:	50470031 	subpl	r0, r7, r1, lsr r0
  f4:	4c455346 	mcrrmi	3, 4, r5, r5, cr6
  f8:	50470033 	subpl	r0, r7, r3, lsr r0
  fc:	4c455346 	mcrrmi	3, 4, r5, r5, cr6
 100:	50470034 	subpl	r0, r7, r4, lsr r0
 104:	4c455346 	mcrrmi	3, 4, r5, r5, cr6
 108:	5f5f0035 	svcpl	0x005f0035
 10c:	434e5546 	movtmi	r5, #58694	; 0xe546
 110:	4e4f4954 	mcrmi	9, 2, r4, cr15, cr4, {2}
 114:	6e005f5f 	mcrvs	15, 0, r5, cr0, cr15, {2}
 118:	745f6d75 	ldrbvc	r6, [pc], #-3445	; 120 <_start-0x7ee0>
 11c:	736e6172 	cmnvc	lr, #-2147483620	; 0x8000001c
 120:	6f697469 	svcvs	0x00697469
 124:	7300736e 	movwvc	r7, #878	; 0x36e
 128:	74726f68 	ldrbtvc	r6, [r2], #-3944	; 0xf68
 12c:	736e7520 	cmnvc	lr, #32, 10	; 0x8000000
 130:	656e6769 	strbvs	r6, [lr, #-1897]!	; 0x769
 134:	6e692064 	cdpvs	0, 6, cr2, cr9, cr4, {3}
 138:	616c0074 	smcvs	49156	; 0xc004
 13c:	64007473 	strvs	r7, [r0], #-1139	; 0x473
 140:	5f706d75 	svcpl	0x00706d75
 144:	706d6173 	rsbvc	r6, sp, r3, ror r1
 148:	0073656c 	rsbseq	r6, r3, ip, ror #10
 14c:	616d5f6e 	cmnvs	sp, lr, ror #30
 150:	70670078 	rsbvc	r0, r7, r8, ror r0
 154:	665f6f69 	ldrbvs	r6, [pc], -r9, ror #30
 158:	306c6573 	rsbcc	r6, ip, r3, ror r5
 15c:	43504700 	cmpmi	r0, #0, 14
 160:	0031524c 	eorseq	r5, r1, ip, asr #4
 164:	61656c63 	cmnvs	r5, r3, ror #24
 168:	65725f6e 	ldrbvs	r5, [r2, #-3950]!	; 0xf6e
 16c:	746f6f62 	strbtvc	r6, [pc], #-3938	; 174 <_start-0x7e8c>
 170:	7a697300 	bvc	1a5cd78 <__bss_end__+0x1a52ac8>
 174:	70797465 	rsbsvc	r7, r9, r5, ror #8
 178:	72740065 	rsbsvc	r0, r4, #101	; 0x65
 17c:	69736e61 	ldmdbvs	r3!, {r0, r5, r6, r9, sl, fp, sp, lr}^
 180:	6e6f6974 	mcrvs	9, 3, r6, cr15, cr4, {3}
 184:	6675625f 			; <UNDEFINED> instruction: 0x6675625f
 188:	756f5f00 	strbvc	r5, [pc, #-3840]!	; fffff290 <__bss_end__+0xffff4fe0>
 18c:	636e0074 	cmnvs	lr, #116	; 0x74
 190:	75006379 	strvc	r6, [r0, #-889]	; 0x379
 194:	6769736e 	strbvs	r7, [r9, -lr, ror #6]!
 198:	2064656e 	rsbcs	r6, r4, lr, ror #10
 19c:	72616863 	rsbvc	r6, r1, #6488064	; 0x630000
 1a0:	6f687300 	svcvs	0x00687300
 1a4:	69207472 	stmdbvs	r0!, {r1, r4, r5, r6, sl, ip, sp, lr}
 1a8:	7000746e 	andvc	r7, r0, lr, ror #8
 1ac:	65725f70 	ldrbvs	r5, [r2, #-3952]!	; 0xf70
 1b0:	64006461 	strvs	r6, [r0], #-1121	; 0x461
 1b4:	79616c65 	stmdbvc	r1!, {r0, r2, r5, r6, sl, fp, sp, lr}^
 1b8:	00736d5f 	rsbseq	r6, r3, pc, asr sp
 1bc:	6c637963 	stclvs	9, cr7, [r3], #-396	; 0xfffffe74
 1c0:	705f7365 	subsvc	r7, pc, r5, ror #6
 1c4:	735f7265 	cmpvc	pc, #1342177286	; 0x50000006
 1c8:	2f006365 	svccs	0x00006365
 1cc:	72657355 	rsbvc	r7, r5, #1409286145	; 0x54000001
 1d0:	72622f73 	rsbvc	r2, r2, #460	; 0x1cc
 1d4:	6a6e6169 	bvs	1b98780 <__bss_end__+0x1b8e4d0>
 1d8:	442f6e75 	strtmi	r6, [pc], #-3701	; 1e0 <_start-0x7e20>
 1dc:	746b7365 	strbtvc	r7, [fp], #-869	; 0x365
 1e0:	732f706f 	teqvc	pc, #111	; 0x6f
 1e4:	6f6f6863 	svcvs	0x006f6863
 1e8:	70532f6c 	subsvc	r2, r3, ip, ror #30
 1ec:	676e6972 			; <UNDEFINED> instruction: 0x676e6972
 1f0:	30323931 	eorscc	r3, r2, r1, lsr r9
 1f4:	3253432f 	subscc	r4, r3, #-1140850688	; 0xbc000000
 1f8:	584c3034 	stmdapl	ip, {r2, r4, r5, ip, sp}^
 1fc:	3273632f 	rsbscc	r6, r3, #-1140850688	; 0xbc000000
 200:	786c3034 	stmdavc	ip!, {r2, r4, r5, ip, sp}^
 204:	7330322d 	teqvc	r0, #-805306366	; 0xd0000002
 208:	6c2f7270 	sfmvs	f7, 4, [pc], #-448	; 50 <_start-0x7fb0>
 20c:	2f736261 	svccs	0x00736261
 210:	6f6c2d33 	svcvs	0x006c2d33
 214:	2d636967 	stclcs	9, cr6, [r3, #-412]!	; 0xfffffe64
 218:	6c616e61 	stclvs	14, cr6, [r1], #-388	; 0xfffffe7c
 21c:	72657a79 	rsbvc	r7, r5, #495616	; 0x79000
 220:	646f632f 	strbtvs	r6, [pc], #-815	; 228 <_start-0x7dd8>
 224:	63732f65 	cmnvs	r3, #404	; 0x194
 228:	0065706f 	rsbeq	r7, r5, pc, rrx
 22c:	6f697067 	svcvs	0x00697067
 230:	7465735f 	strbtvc	r7, [r5], #-863	; 0x35f
 234:	69660030 	stmdbvs	r6!, {r4, r5}^
 238:	00747372 	rsbseq	r7, r4, r2, ror r3
 23c:	65736162 	ldrbvs	r6, [r3, #-354]!	; 0x162
 240:	656e696c 	strbvs	r6, [lr, #-2412]!	; 0x96c
 244:	6165725f 	cmnvs	r5, pc, asr r2
 248:	70670064 	rsbvc	r0, r7, r4, rrx
 24c:	735f6f69 	cmpvc	pc, #420	; 0x1a4
 250:	695f7465 	ldmdbvs	pc, {r0, r2, r5, r6, sl, ip, sp, lr}^	; <UNPREDICTABLE>
 254:	7475706e 	ldrbtvc	r7, [r5], #-110	; 0x6e
 258:	616e6500 	cmnvs	lr, r0, lsl #10
 25c:	5f656c62 	svcpl	0x00656c62
 260:	68636163 	stmdavs	r3!, {r0, r1, r5, r6, r8, sp, lr}^
 264:	75630065 	strbvc	r0, [r3, #-101]!	; 0x65
 268:	66666f74 	uqsub16vs	r6, r6, r4
 26c:	73616600 	cmnvc	r1, #0, 12
 270:	70675f74 	rsbvc	r5, r7, r4, ror pc
 274:	725f6f69 	subsvc	r6, pc, #420	; 0x1a4
 278:	00646165 	rsbeq	r6, r4, r5, ror #2
 27c:	5f78616d 	svcpl	0x0078616d
 280:	6c637963 	stclvs	9, cr7, [r3], #-396	; 0xfffffe74
 284:	63007365 	movwvs	r7, #869	; 0x365
 288:	5f727275 	svcpl	0x00727275
 28c:	64616572 	strbtvs	r6, [r1], #-1394	; 0x572
 290:	69706700 	ldmdbvs	r0!, {r8, r9, sl, sp, lr}^
 294:	6c635f6f 	stclvs	15, cr5, [r3], #-444	; 0xfffffe44
 298:	73003072 	movwvc	r3, #114	; 0x72
 29c:	65706f63 	ldrbvs	r6, [r0, #-3939]!	; 0xf63
 2a0:	5f00632e 	svcpl	0x0000632e
 2a4:	756e675f 	strbvc	r6, [lr, #-1887]!	; 0x75f
 2a8:	61765f63 	cmnvs	r6, r3, ror #30
 2ac:	73696c5f 	cmnvc	r9, #24320	; 0x5f00
 2b0:	696c0074 	stmdbvs	ip!, {r2, r4, r5, r6}^
 2b4:	702f6362 	eorvc	r6, pc, r2, ror #6
 2b8:	746e6972 	strbtvc	r6, [lr], #-2418	; 0x972
 2bc:	00632e6b 	rsbeq	r2, r3, fp, ror #28
 2c0:	20554e47 	subscs	r4, r5, r7, asr #28
 2c4:	2e342043 	cdpcs	0, 3, cr2, cr4, cr3, {2}
 2c8:	20332e38 	eorscs	r2, r3, r8, lsr lr
 2cc:	70636d2d 	rsbvc	r6, r3, sp, lsr #26
 2d0:	72613d75 	rsbvc	r3, r1, #7488	; 0x1d40
 2d4:	3731316d 	ldrcc	r3, [r1, -sp, ror #2]!
 2d8:	667a6a36 			; <UNDEFINED> instruction: 0x667a6a36
 2dc:	2d20732d 	stccs	3, cr7, [r0, #-180]!	; 0xffffff4c
 2e0:	6e75746d 	cdpvs	4, 7, cr7, cr5, cr13, {3}
 2e4:	72613d65 	rsbvc	r3, r1, #6464	; 0x1940
 2e8:	3731316d 	ldrcc	r3, [r1, -sp, ror #2]!
 2ec:	667a6a36 			; <UNDEFINED> instruction: 0x667a6a36
 2f0:	2d20732d 	stccs	3, cr7, [r0, #-180]!	; 0xffffff4c
 2f4:	62646767 	rsbvs	r6, r4, #27000832	; 0x19c0000
 2f8:	674f2d20 	strbvs	r2, [pc, -r0, lsr #26]
 2fc:	74732d20 	ldrbtvc	r2, [r3], #-3360	; 0xd20
 300:	6e673d64 	cdpvs	13, 6, cr3, cr7, cr4, {3}
 304:	20393975 	eorscs	r3, r9, r5, ror r9
 308:	7266662d 	rsbvc	r6, r6, #47185920	; 0x2d00000
 30c:	74736565 	ldrbtvc	r6, [r3], #-1381	; 0x565
 310:	69646e61 	stmdbvs	r4!, {r0, r5, r6, r9, sl, fp, sp, lr}^
 314:	7600676e 	strvc	r6, [r0], -lr, ror #14
 318:	72705f61 	rsbsvc	r5, r0, #388	; 0x184
 31c:	6b746e69 	blvs	1d1bcc8 <__bss_end__+0x1d11a18>
 320:	765f5f00 	ldrbvc	r5, [pc], -r0, lsl #30
 324:	696c5f61 	stmdbvs	ip!, {r0, r5, r6, r8, r9, sl, fp, ip, lr}^
 328:	2f007473 	svccs	0x00007473
 32c:	72657355 	rsbvc	r7, r5, #1409286145	; 0x54000001
 330:	72622f73 	rsbvc	r2, r2, #460	; 0x1cc
 334:	6a6e6169 	bvs	1b988e0 <__bss_end__+0x1b8e630>
 338:	442f6e75 	strtmi	r6, [pc], #-3701	; 340 <_start-0x7cc0>
 33c:	746b7365 	strbtvc	r7, [fp], #-869	; 0x365
 340:	732f706f 	teqvc	pc, #111	; 0x6f
 344:	6f6f6863 	svcvs	0x006f6863
 348:	69572f6c 	ldmdbvs	r7, {r2, r3, r5, r6, r8, r9, sl, fp, sp}^
 34c:	7265746e 	rsbvc	r7, r5, #1845493760	; 0x6e000000
 350:	30323931 	eorscc	r3, r2, r1, lsr r9
 354:	3153432f 	cmpcc	r3, pc, lsr #6
 358:	2f453034 	svccs	0x00453034
 35c:	34317363 	ldrtcc	r7, [r1], #-867	; 0x363
 360:	322d6530 	eorcc	r6, sp, #48, 10	; 0xc000000
 364:	6e697730 	mcrvs	7, 3, r7, cr9, cr0, {1}
 368:	62696c2f 	rsbvs	r6, r9, #12032	; 0x2f00
 36c:	61006970 	tstvs	r0, r0, ror r9
 370:	00736772 	rsbseq	r6, r3, r2, ror r7
 374:	70615f5f 	rsbvc	r5, r1, pc, asr pc
 378:	746e6900 	strbtvc	r6, [lr], #-2304	; 0x900
 37c:	616e7265 	cmnvs	lr, r5, ror #4
 380:	75705f6c 	ldrbvc	r5, [r0, #-3948]!	; 0xf6c
 384:	61686374 	smcvs	34356	; 0x8634
 388:	70720072 	rsbsvc	r0, r2, r2, ror r0
 38c:	75705f69 	ldrbvc	r5, [r0, #-3945]!	; 0xf69
 390:	61686374 	smcvs	34356	; 0x8634
 394:	696c0072 	stmdbvs	ip!, {r1, r4, r5, r6}^
 398:	702f6362 	eorvc	r6, pc, r2, ror #6
 39c:	68637475 	stmdavs	r3!, {r0, r2, r4, r5, r6, sl, ip, sp, lr}^
 3a0:	632e7261 	teqvs	lr, #268435462	; 0x10000006
 3a4:	69707200 	ldmdbvs	r0!, {r9, ip, sp, lr}^
 3a8:	7465735f 	strbtvc	r7, [r5], #-863	; 0x35f
 3ac:	7475705f 	ldrbtvc	r7, [r5], #-95	; 0x5f
 3b0:	696c0063 	stmdbvs	ip!, {r0, r1, r5, r6}^
 3b4:	702f6362 	eorvc	r6, pc, r2, ror #6
 3b8:	2e6b7475 	mcrcs	4, 3, r7, cr11, cr5, {3}
 3bc:	6e690063 	cdpvs	0, 6, cr0, cr9, cr3, {3}
 3c0:	6e726574 	mrcvs	5, 3, r6, cr2, cr4, {3}
 3c4:	705f6c61 	subsvc	r6, pc, r1, ror #24
 3c8:	006b7475 	rsbeq	r7, fp, r5, ror r4
 3cc:	5f67656e 	svcpl	0x0067656e
 3d0:	65720070 	ldrbvs	r0, [r2, #-112]!	; 0x70
 3d4:	73726576 	cmnvc	r2, #494927872	; 0x1d800000
 3d8:	73690065 	cmnvc	r9, #101	; 0x65
 3dc:	69676964 	stmdbvs	r7!, {r2, r5, r6, r8, fp, sp, lr}^
 3e0:	75700074 	ldrbvc	r0, [r0, #-116]!	; 0x74
 3e4:	665f7374 			; <UNDEFINED> instruction: 0x665f7374
 3e8:	61620070 	smcvs	8192	; 0x2000
 3ec:	73006573 	movwvc	r6, #1395	; 0x573
 3f0:	656e6769 	strbvs	r6, [lr, #-1897]!	; 0x769
 3f4:	00705f64 	rsbseq	r5, r0, r4, ror #30
 3f8:	6362696c 	cmnvs	r2, #108, 18	; 0x1b0000
 3fc:	2d61762f 	stclcs	6, cr7, [r1, #-188]!	; 0xffffff44
 400:	6e697270 	mcrvs	2, 3, r7, cr9, cr0, {3}
 404:	632e6b74 	teqvs	lr, #116, 22	; 0x1d000
 408:	69707200 	ldmdbvs	r0!, {r9, ip, sp, lr}^
 40c:	7465735f 	strbtvc	r7, [r5], #-863	; 0x35f
 410:	74756f5f 	ldrbtvc	r6, [r5], #-3935	; 0xf5f
 414:	00747570 	rsbseq	r7, r4, r0, ror r5
 418:	74646977 	strbtvc	r6, [r4], #-2423	; 0x977
 41c:	75700068 	ldrbvc	r0, [r0, #-104]!	; 0x68
 420:	665f6374 			; <UNDEFINED> instruction: 0x665f6374
 424:	6d650070 	stclvs	0, cr0, [r5, #-448]!	; 0xfffffe40
 428:	64007469 	strvs	r7, [r0], #-1129	; 0x469
 42c:	62617369 	rsbvs	r7, r1, #-1543503871	; 0xa4000001
 430:	635f656c 	cmpvs	pc, #108, 10	; 0x1b000000
 434:	65686361 	strbvs	r6, [r8, #-865]!	; 0x361
 438:	31736300 	cmncc	r3, r0, lsl #6
 43c:	2d653034 	stclcs	0, cr3, [r5, #-208]!	; 0xffffff30
 440:	2f637273 	svccs	0x00637273
 444:	68636163 	stmdavs	r3!, {r0, r1, r5, r6, r8, sp, lr}^
 448:	00632e65 	rsbeq	r2, r3, r5, ror #28
 44c:	5f697072 	svcpl	0x00697072
 450:	6f626572 	svcvs	0x00626572
 454:	6300746f 	movwvs	r7, #1135	; 0x46f
 458:	30343173 	eorscc	r3, r4, r3, ror r1
 45c:	72732d65 	rsbsvc	r2, r3, #6464	; 0x1940
 460:	6c632f63 	stclvs	15, cr2, [r3], #-396	; 0xfffffe74
 464:	2d6e6165 	stfcse	f6, [lr, #-404]!	; 0xfffffe6c
 468:	6f626572 	svcvs	0x00626572
 46c:	632e746f 	teqvs	lr, #1862270976	; 0x6f000000
 470:	746e6900 	strbtvc	r6, [lr], #-2304	; 0x900
 474:	616e7265 	cmnvs	lr, r5, ror #4
 478:	77735f6c 	ldrbvc	r5, [r3, -ip, ror #30]!
 47c:	7475705f 	ldrbtvc	r7, [r5], #-95	; 0x5f
 480:	72616863 	rsbvc	r6, r1, #6488064	; 0x630000
 484:	625f5f00 	subsvs	r5, pc, #0, 30
 488:	735f7373 	cmpvc	pc, #-872415231	; 0xcc000001
 48c:	74726174 	ldrbtvc	r6, [r2], #-372	; 0x174
 490:	62005f5f 	andvs	r5, r0, #380	; 0x17c
 494:	655f7373 	ldrbvs	r7, [pc, #-883]	; 129 <_start-0x7ed7>
 498:	6300646e 	movwvs	r6, #1134	; 0x46e
 49c:	656c6379 	strbvs	r6, [ip, #-889]!	; 0x379
 4a0:	7265705f 	rsbvc	r7, r5, #95	; 0x5f
 4a4:	7469625f 	strbtvc	r6, [r9], #-607	; 0x25f
 4a8:	6e6f6300 	cdpvs	3, 6, cr6, cr15, cr0, {0}
 4ac:	656c6f73 	strbvs	r6, [ip, #-3955]!	; 0xf73
 4b0:	7261755f 	rsbvc	r7, r1, #398458880	; 0x17c00000
 4b4:	77730074 			; <UNDEFINED> instruction: 0x77730074
 4b8:	7261755f 	rsbvc	r7, r1, #398458880	; 0x17c00000
 4bc:	72705f74 	rsbsvc	r5, r0, #116, 30	; 0x1d0
 4c0:	6b746e69 	blvs	1d1be6c <__bss_end__+0x1d11bbc>
 4c4:	54555000 	ldrbpl	r5, [r5], #-0
 4c8:	53455f43 	movtpl	r5, #24387	; 0x5f43
 4cc:	41555f50 	cmpmi	r5, r0, asr pc
 4d0:	73005452 	movwvc	r5, #1106	; 0x452
 4d4:	61755f77 	cmnvs	r5, r7, ror pc
 4d8:	745f7472 	ldrbvc	r7, [pc], #-1138	; 4e0 <_start-0x7b20>
 4dc:	54555000 	ldrbpl	r5, [r5], #-0
 4e0:	57535f43 	ldrbpl	r5, [r3, -r3, asr #30]
 4e4:	5241555f 	subpl	r5, r1, #398458880	; 0x17c00000
 4e8:	61620054 	qdsubvs	r0, r4, r2
 4ec:	50006475 	andpl	r6, r0, r5, ror r4
 4f0:	5f435455 	svcpl	0x00435455
 4f4:	555f5748 	ldrbpl	r5, [pc, #-1864]	; fffffdb4 <__bss_end__+0xffff5b04>
 4f8:	00545241 	subseq	r5, r4, r1, asr #4
 4fc:	7473635f 	ldrbtvc	r6, [r3], #-863	; 0x35f
 500:	00747261 	rsbseq	r7, r4, r1, ror #4
 504:	74726175 	ldrbtvc	r6, [r2], #-373	; 0x175
 508:	7665645f 			; <UNDEFINED> instruction: 0x7665645f
 50c:	7300745f 	movwvc	r7, #1119	; 0x45f
 510:	61755f77 	cmnvs	r5, r7, ror pc
 514:	705f7472 	subsvc	r7, pc, r2, ror r4	; <UNPREDICTABLE>
 518:	00637475 	rsbeq	r7, r3, r5, ror r4
 51c:	746e6975 	strbtvc	r6, [lr], #-2421	; 0x975
 520:	00745f38 	rsbseq	r5, r4, r8, lsr pc
 524:	746e6f63 	strbtvc	r6, [lr], #-3939	; 0xf63
 528:	5f6c6f72 	svcpl	0x006c6f72
 52c:	5f6b6c62 	svcpl	0x006b6c62
 530:	77730074 			; <UNDEFINED> instruction: 0x77730074
 534:	7261755f 	rsbvc	r7, r1, #398458880	; 0x17c00000
 538:	62630074 	rsbvs	r0, r3, #116	; 0x74
 53c:	7465675f 	strbtvc	r6, [r5], #-1887	; 0x75f
 540:	6f6c625f 	svcvs	0x006c625f
 544:	5f006b63 	svcpl	0x00006b63
 548:	7373625f 	cmnvc	r3, #-268435451	; 0xf0000005
 54c:	646e655f 	strbtvs	r6, [lr], #-1375	; 0x55f
 550:	63005f5f 	movwvs	r5, #3935	; 0xf5f
 554:	30343173 	eorscc	r3, r4, r3, ror r1
 558:	72732d65 	rsbsvc	r2, r3, #6464	; 0x1940
 55c:	73632f63 	cmnvc	r3, #396	; 0x18c
 560:	74726174 	ldrbtvc	r6, [r2], #-372	; 0x174
 564:	6300632e 	movwvs	r6, #814	; 0x32e
 568:	6f736e6f 	svcvs	0x00736e6f
 56c:	645f656c 	ldrbvs	r6, [pc], #-1388	; 574 <_start-0x7a8c>
 570:	75007665 	strvc	r7, [r0, #-1637]	; 0x665
 574:	33746e69 	cmncc	r4, #1680	; 0x690
 578:	00745f32 	rsbseq	r5, r4, r2, lsr pc
 57c:	6967616d 	stmdbvs	r7!, {r0, r2, r3, r5, r6, r8, sp, lr}^
 580:	74610063 	strbtvc	r0, [r1], #-99	; 0x63
 584:	6573755f 	ldrbvs	r7, [r3, #-1375]!	; 0x55f
 588:	656c5f72 	strbvs	r5, [ip, #-3954]!	; 0xf72
 58c:	006c6576 	rsbeq	r6, ip, r6, ror r5
 590:	505f4d50 	subspl	r4, pc, r0, asr sp	; <UNPREDICTABLE>
 594:	57535341 	ldrbpl	r5, [r3, -r1, asr #6]
 598:	0044524f 	subeq	r5, r4, pc, asr #4
 59c:	34317363 	ldrtcc	r7, [r1], #-867	; 0x363
 5a0:	732d6530 	teqvc	sp, #48, 10	; 0xc000000
 5a4:	722f6372 	eorvc	r6, pc, #-939524095	; 0xc8000001
 5a8:	6f6f6265 	svcvs	0x006f6265
 5ac:	00632e74 	rsbeq	r2, r3, r4, ror lr
 5b0:	525f4d50 	subspl	r4, pc, #80, 26	; 0x1400
 5b4:	5f435453 	svcpl	0x00435453
 5b8:	46435257 			; <UNDEFINED> instruction: 0x46435257
 5bc:	55465f47 	strbpl	r5, [r6, #-3911]	; 0xf47
 5c0:	525f4c4c 	subspl	r4, pc, #76, 24	; 0x4c00
 5c4:	54455345 	strbpl	r5, [r5], #-837	; 0x345
 5c8:	5f4d5000 	svcpl	0x004d5000
 5cc:	474f4457 	smlsldmi	r4, pc, r7, r4	; <UNPREDICTABLE>
 5d0:	74657300 	strbtvc	r7, [r5], #-768	; 0x300
 5d4:	6573755f 	ldrbvs	r7, [r3, #-1375]!	; 0x55f
 5d8:	656c5f72 	strbvs	r5, [ip, #-3954]!	; 0xf72
 5dc:	006c6576 	rsbeq	r6, ip, r6, ror r5
 5e0:	33545550 	cmpcc	r4, #80, 10	; 0x14000000
 5e4:	4d500032 	ldclmi	0, cr0, [r0, #-200]	; 0xffffff38
 5e8:	5453525f 	ldrbpl	r5, [r3], #-607	; 0x25f
 5ec:	70630043 	rsbvc	r0, r3, r3, asr #32
 5f0:	74007273 	strvc	r7, [r0], #-627	; 0x273
 5f4:	72656d69 	rsbvc	r6, r5, #6720	; 0x1a40
 5f8:	7465675f 	strbtvc	r6, [r5], #-1887	; 0x75f
 5fc:	6573755f 	ldrbvs	r7, [r3, #-1375]!	; 0x55f
 600:	61725f63 	cmnvs	r2, r3, ror #30
 604:	65640077 	strbvs	r0, [r4, #-119]!	; 0x77
 608:	5f79616c 	svcpl	0x0079616c
 60c:	00636573 	rsbeq	r6, r3, r3, ror r5
 610:	34317363 	ldrtcc	r7, [r1], #-867	; 0x363
 614:	732d6530 	teqvc	sp, #48, 10	; 0xc000000
 618:	742f6372 	strtvc	r6, [pc], #-882	; 620 <_start-0x79e0>
 61c:	72656d69 	rsbvc	r6, r5, #6720	; 0x1a40
 620:	4700632e 	strmi	r6, [r0, -lr, lsr #6]
 624:	32335445 	eorscc	r5, r3, #1157627904	; 0x45000000
 628:	63697400 	cmnvs	r9, #0, 8
 62c:	6400736b 	strvs	r7, [r0], #-875	; 0x36b
 630:	79616c65 	stmdbvc	r1!, {r0, r2, r5, r6, sl, fp, sp, lr}^
 634:	6379635f 	cmnvs	r9, #2080374785	; 0x7c000001
 638:	0073656c 	rsbseq	r6, r3, ip, ror #10
 63c:	616c6564 	cmnvs	ip, r4, ror #10
 640:	73755f79 	cmnvc	r5, #484	; 0x1e4
 644:	6d697400 	cfstrdvs	mvd7, [r9, #-0]
 648:	675f7265 	ldrbvs	r7, [pc, -r5, ror #4]
 64c:	755f7465 	ldrbvc	r7, [pc, #-1125]	; 1ef <_start-0x7e11>
 650:	00636573 	rsbeq	r6, r3, r3, ror r5
 654:	6f697067 	svcvs	0x00697067
 658:	6576655f 	ldrbvs	r6, [r6, #-1375]!	; 0x55f
 65c:	645f746e 	ldrbvs	r7, [pc], #-1134	; 664 <_start-0x799c>
 660:	63657465 	cmnvs	r5, #1694498816	; 0x65000000
 664:	00646574 	rsbeq	r6, r4, r4, ror r5
 668:	33747570 	cmncc	r4, #112, 10	; 0x1c000000
 66c:	4e450032 	mcrmi	0, 2, r0, cr5, cr2, {1}
 670:	454c4241 	strbmi	r4, [ip, #-577]	; 0x241
 674:	5152495f 	cmppl	r2, pc, asr r9
 678:	00325f53 	eorseq	r5, r2, r3, asr pc
 67c:	675f7369 	ldrbvs	r7, [pc, -r9, ror #6]
 680:	5f6f6970 	svcpl	0x006f6970
 684:	00746e69 	rsbseq	r6, r4, r9, ror #28
 688:	4f495047 	svcmi	0x00495047
 68c:	4e55465f 	mrcmi	6, 2, r4, cr5, cr15, {2}
 690:	4e495f43 	cdpmi	15, 4, cr5, cr9, cr3, {2}
 694:	00545550 	subseq	r5, r4, r0, asr r5
 698:	6f697067 	svcvs	0x00697067
 69c:	7465735f 	strbtvc	r7, [r5], #-863	; 0x35f
 6a0:	66666f5f 	uqsaxvs	r6, r6, pc	; <UNPREDICTABLE>
 6a4:	2d796d00 	ldclcs	13, cr6, [r9, #-0]
 6a8:	2f637273 	svccs	0x00637273
 6ac:	6f697067 	svcvs	0x00697067
 6b0:	6900632e 	stmdbvs	r0, {r1, r2, r3, r5, r8, r9, sp, lr}
 6b4:	6d5f746e 	cfldrdvs	mvd7, [pc, #-440]	; 504 <_start-0x7afc>
 6b8:	006b7361 	rsbeq	r7, fp, r1, ror #6
 6bc:	5f676572 	svcpl	0x00676572
 6c0:	74617473 	strbtvc	r7, [r1], #-1139	; 0x473
 6c4:	69706700 	ldmdbvs	r0!, {r8, r9, sl, sp, lr}^
 6c8:	65725f6f 	ldrbvs	r5, [r2, #-3951]!	; 0xf6f
 6cc:	65640067 	strbvs	r0, [r4, #-103]!	; 0x67
 6d0:	61625f76 	smcvs	9718	; 0x25f6
 6d4:	65697272 	strbvs	r7, [r9, #-626]!	; 0x272
 6d8:	70670072 	rsbvc	r0, r7, r2, ror r0
 6dc:	695f6f69 	ldmdbvs	pc, {r0, r3, r5, r6, r8, r9, sl, fp, sp, lr}^	; <UNPREDICTABLE>
 6e0:	725f746e 	subsvc	r7, pc, #1845493760	; 0x6e000000
 6e4:	6e697369 	cdpvs	3, 6, cr7, cr9, cr9, {3}
 6e8:	64655f67 	strbtvs	r5, [r5], #-3943	; 0xf67
 6ec:	67006567 	strvs	r6, [r0, -r7, ror #10]
 6f0:	5f6f6970 	svcpl	0x006f6970
 6f4:	5f746573 	svcpl	0x00746573
 6f8:	636e7566 	cmnvs	lr, #427819008	; 0x19800000
 6fc:	6e6f6974 	mcrvs	9, 3, r6, cr15, cr4, {3}
 700:	52504700 	subspl	r4, r0, #0, 14
 704:	00304e45 	eorseq	r4, r0, r5, asr #28
 708:	45525047 	ldrbmi	r5, [r2, #-71]	; 0x47
 70c:	6700314e 	strvs	r3, [r0, -lr, asr #2]
 710:	5f6f6970 	svcpl	0x006f6970
 714:	6e657665 	cdpvs	6, 6, cr7, cr5, cr5, {3}
 718:	6c635f74 	stclvs	15, cr5, [r3], #-464	; 0xfffffe30
 71c:	00726165 	rsbseq	r6, r2, r5, ror #2
 720:	5f515249 	svcpl	0x00515249
 724:	444e4550 	strbmi	r4, [lr], #-1360	; 0x550
 728:	5f474e49 	svcpl	0x00474e49
 72c:	52490031 	subpl	r0, r9, #49	; 0x31
 730:	45505f51 	ldrbmi	r5, [r0, #-3921]	; 0xf51
 734:	4e49444e 	cdpmi	4, 4, cr4, cr9, cr14, {2}
 738:	00325f47 	eorseq	r5, r2, r7, asr #30
 73c:	6d746962 	ldclvs	9, cr6, [r4, #-392]!	; 0xfffffe78
 740:	006b7361 	rsbeq	r7, fp, r1, ror #6
 744:	6f697067 	svcvs	0x00697067
 748:	6972775f 	ldmdbvs	r2!, {r0, r1, r2, r3, r4, r6, r8, r9, sl, ip, sp, lr}^
 74c:	66006574 			; <UNDEFINED> instruction: 0x66006574
 750:	00636e75 	rsbeq	r6, r3, r5, ror lr
 754:	6f697067 	svcvs	0x00697067
 758:	676f745f 			; <UNDEFINED> instruction: 0x676f745f
 75c:	00656c67 	rsbeq	r6, r5, r7, ror #24
 760:	44455047 	strbmi	r5, [r5], #-71	; 0x47
 764:	47003053 	smlsdmi	r0, r3, r0, r3
 768:	53444550 	movtpl	r4, #17744	; 0x4550
 76c:	70670031 	rsbvc	r0, r7, r1, lsr r0
 770:	735f6f69 	cmpvc	pc, #420	; 0x1a4
 774:	6f5f7465 	svcvs	0x005f7465
 778:	5047006e 	subpl	r0, r7, lr, rrx
 77c:	304e4546 	subcc	r4, lr, r6, asr #10
 780:	46504700 	ldrbmi	r4, [r0], -r0, lsl #14
 784:	00314e45 	eorseq	r4, r1, r5, asr #28
 788:	6f697067 	svcvs	0x00697067
 78c:	7465735f 	strbtvc	r7, [r5], #-863	; 0x35f
 790:	74756f5f 	ldrbtvc	r6, [r5], #-3935	; 0xf5f
 794:	00747570 	rsbseq	r7, r4, r0, ror r5
 798:	4f495047 	svcmi	0x00495047
 79c:	4e55465f 	mrcmi	6, 2, r4, cr5, cr15, {2}
 7a0:	554f5f43 	strbpl	r5, [pc, #-3907]	; fffff865 <__bss_end__+0xffff55b5>
 7a4:	54555054 	ldrbpl	r5, [r5], #-84	; 0x54
 7a8:	74656700 	strbtvc	r6, [r5], #-1792	; 0x700
 7ac:	67003233 	smladxvs	r0, r3, r2, r3
 7b0:	5f6f6970 	svcpl	0x006f6970
 7b4:	5f746e69 	svcpl	0x00746e69
 7b8:	6c6c6166 	stfvse	f6, [ip], #-408	; 0xfffffe68
 7bc:	5f676e69 	svcpl	0x00676e69
 7c0:	65676465 	strbvs	r6, [r7, #-1125]!	; 0x465
 7c4:	69706700 	ldmdbvs	r0!, {r8, r9, sl, sp, lr}^
 7c8:	75665f6f 	strbvc	r5, [r6, #-3951]!	; 0xf6f
 7cc:	745f636e 	ldrbvc	r6, [pc], #-878	; 7d4 <_start-0x782c>
 7d0:	49504700 	ldmdbmi	r0, {r8, r9, sl, lr}^
 7d4:	55465f4f 	strbpl	r5, [r6, #-3919]	; 0xf4f
 7d8:	415f434e 	cmpmi	pc, lr, asr #6
 7dc:	0030544c 	eorseq	r5, r0, ip, asr #8
 7e0:	4f495047 	svcmi	0x00495047
 7e4:	4e55465f 	mrcmi	6, 2, r4, cr5, cr15, {2}
 7e8:	4c415f43 	mcrrmi	15, 4, r5, r1, cr3
 7ec:	47003154 	smlsdmi	r0, r4, r1, r3
 7f0:	5f4f4950 	svcpl	0x004f4950
 7f4:	434e5546 	movtmi	r5, #58694	; 0xe546
 7f8:	544c415f 	strbpl	r4, [ip], #-351	; 0x15f
 7fc:	50470032 	subpl	r0, r7, r2, lsr r0
 800:	465f4f49 	ldrbmi	r4, [pc], -r9, asr #30
 804:	5f434e55 	svcpl	0x00434e55
 808:	33544c41 	cmpcc	r4, #16640	; 0x4100
 80c:	49504700 	ldmdbmi	r0, {r8, r9, sl, lr}^
 810:	55465f4f 	strbpl	r5, [r6, #-3919]	; 0xf4f
 814:	415f434e 	cmpmi	pc, lr, asr #6
 818:	0034544c 	eorseq	r5, r4, ip, asr #8
 81c:	4f495047 	svcmi	0x00495047
 820:	4e55465f 	mrcmi	6, 2, r4, cr5, cr15, {2}
 824:	4c415f43 	mcrrmi	15, 4, r5, r1, cr3
 828:	72003554 	andvc	r3, r0, #84, 10	; 0x15000000
 82c:	735f6765 	cmpvc	pc, #26476544	; 0x1940000
 830:	63656c65 	cmnvs	r5, #25856	; 0x6500
 834:	79630074 	stmdbvc	r3!, {r2, r4, r5, r6}^
 838:	65705f63 	ldrbvs	r5, [r0, #-3939]!	; 0xf63
 83c:	69625f72 	stmdbvs	r2!, {r1, r4, r5, r6, r8, r9, sl, fp, ip, lr}^
 840:	72770074 	rsbsvc	r0, r7, #116	; 0x74
 844:	5f657469 	svcpl	0x00657469
 848:	5f637963 	svcpl	0x00637963
 84c:	69746e75 	ldmdbvs	r4!, {r0, r2, r4, r5, r6, r9, sl, fp, sp, lr}^
 850:	7773006c 	ldrbvc	r0, [r3, -ip, rrx]!
 854:	7261755f 	rsbvc	r7, r1, #398458880	; 0x17c00000
 858:	65675f74 	strbvs	r5, [r7, #-3956]!	; 0xf74
 85c:	745f6374 	ldrbvc	r6, [pc], #-884	; 864 <_start-0x779c>
 860:	6f656d69 	svcvs	0x00656d69
 864:	73007475 	movwvc	r7, #1141	; 0x475
 868:	61755f77 	cmnvs	r5, r7, ror pc
 86c:	675f7472 			; <UNDEFINED> instruction: 0x675f7472
 870:	5f737465 	svcpl	0x00737465
 874:	69746e75 	ldmdbvs	r4!, {r0, r2, r4, r5, r6, r9, sl, fp, sp, lr}^
 878:	7773006c 	ldrbvc	r0, [r3, -ip, rrx]!
 87c:	7261755f 	rsbvc	r7, r1, #398458880	; 0x17c00000
 880:	65675f74 	strbvs	r5, [r7, #-3956]!	; 0xf74
 884:	64006374 	strvs	r6, [r0], #-884	; 0x374
 888:	76697265 	strbtvc	r7, [r9], -r5, ror #4
 88c:	64006465 	strvs	r6, [r0], #-1125	; 0x465
 890:	79616c65 	stmdbvc	r1!, {r0, r2, r5, r6, sl, fp, sp, lr}^
 894:	79636e5f 	stmdbvc	r3!, {r0, r1, r2, r3, r4, r6, r9, sl, fp, sp, lr}^
 898:	73656c63 	cmnvc	r5, #25344	; 0x6300
 89c:	5f777300 	svcpl	0x00777300
 8a0:	74726175 	ldrbtvc	r6, [r2], #-373	; 0x175
 8a4:	696e695f 	stmdbvs	lr!, {r0, r1, r2, r3, r4, r6, r8, fp, sp, lr}^
 8a8:	65685f74 	strbvs	r5, [r8, #-3956]!	; 0xf74
 8ac:	7265706c 	rsbvc	r7, r5, #108	; 0x6c
 8b0:	6d697400 	cfstrdvs	mvd7, [r9, #-0]
 8b4:	74756f65 	ldrbtvc	r6, [r5], #-3941	; 0xf65
 8b8:	6573755f 	ldrbvs	r7, [r3, #-1375]!	; 0x55f
 8bc:	77730063 	ldrbvc	r0, [r3, -r3, rrx]!
 8c0:	7261755f 	rsbvc	r7, r1, #398458880	; 0x17c00000
 8c4:	75705f74 	ldrbvc	r5, [r0, #-3956]!	; 0xf74
 8c8:	6d006b74 	vstrvs	d6, [r0, #-464]	; 0xfffffe30
 8cc:	72732d79 	rsbsvc	r2, r3, #7744	; 0x1e40
 8d0:	77732f63 	ldrbvc	r2, [r3, -r3, ror #30]!
 8d4:	7261752d 	rsbvc	r7, r1, #188743680	; 0xb400000
 8d8:	00632e74 	rsbeq	r2, r3, r4, ror lr
 8dc:	72616863 	rsbvc	r6, r1, #6488064	; 0x630000
 8e0:	006e695f 	rsbeq	r6, lr, pc, asr r9
 8e4:	755f7773 	ldrbvc	r7, [pc, #-1907]	; 179 <_start-0x7e87>
 8e8:	5f747261 	svcpl	0x00747261
 8ec:	73746567 	cmnvc	r4, #432013312	; 0x19c00000
 8f0:	6d69745f 	cfstrdvs	mvd7, [r9, #-380]!	; 0xfffffe84
 8f4:	74756f65 	ldrbtvc	r6, [r5], #-3941	; 0xf65
 8f8:	79626e00 	stmdbvc	r2!, {r9, sl, fp, sp, lr}^
 8fc:	00736574 	rsbseq	r6, r3, r4, ror r5
 900:	63657375 	cmnvs	r5, #-738197503	; 0xd4000001
 904:	6d69745f 	cfstrdvs	mvd7, [r9, #-380]!	; 0xfffffe84
 908:	74756f65 	ldrbtvc	r6, [r5], #-3941	; 0xf65
 90c:	5f777300 	svcpl	0x00777300
 910:	74726175 	ldrbtvc	r6, [r2], #-373	; 0x175
 914:	7465675f 	strbtvc	r6, [r5], #-1887	; 0x75f
 918:	6e755f73 	mrcvs	15, 3, r5, cr5, cr3, {3}
 91c:	5f6c6974 	svcpl	0x006c6974
 920:	006b6c62 	rsbeq	r6, fp, r2, ror #24
 924:	74696177 	strbtvc	r6, [r9], #-375	; 0x177
 928:	746e755f 	strbtvc	r7, [lr], #-1375	; 0x55f
 92c:	755f6c69 	ldrbvc	r6, [pc, #-3177]	; fffffccb <__bss_end__+0xffff5a1b>
 930:	00636573 	rsbeq	r6, r3, r3, ror r5
 934:	5f585541 	svcpl	0x00585541
 938:	4d5f554d 	cfldr64mi	mvdx5, [pc, #-308]	; 80c <_start-0x77f4>
 93c:	525f5243 	subspl	r5, pc, #805306372	; 0x30000004
 940:	41004745 	tstmi	r0, r5, asr #14
 944:	4d5f5855 	ldclmi	8, cr5, [pc, #-340]	; 7f8 <_start-0x7808>
 948:	4f495f55 	svcmi	0x00495f55
 94c:	4745525f 	smlsldmi	r5, r5, pc, r2	; <UNPREDICTABLE>
 950:	58554100 	ldmdapl	r5, {r8, lr}^
 954:	5f554d5f 	svcpl	0x00554d5f
 958:	5f52534d 	svcpl	0x0052534d
 95c:	00474552 	subeq	r4, r7, r2, asr r5
 960:	74726175 	ldrbtvc	r6, [r2], #-373	; 0x175
 964:	6e61635f 	mcrvs	3, 3, r6, cr1, cr15, {2}
 968:	7465675f 	strbtvc	r6, [r5], #-1887	; 0x75f
 96c:	55410063 	strbpl	r0, [r1, #-99]	; 0x63
 970:	554d5f58 	strbpl	r5, [sp, #-3928]	; 0xf58
 974:	544e435f 	strbpl	r4, [lr], #-863	; 0x35f
 978:	45525f4c 	ldrbmi	r5, [r2, #-3916]	; 0xf4c
 97c:	61750047 	cmnvs	r5, r7, asr #32
 980:	685f7472 	ldmdavs	pc, {r1, r4, r5, r6, sl, ip, sp, lr}^	; <UNPREDICTABLE>
 984:	645f7361 	ldrbvs	r7, [pc], #-865	; 98c <_start-0x7674>
 988:	00617461 	rsbeq	r7, r1, r1, ror #8
 98c:	74726175 	ldrbtvc	r6, [r2], #-373	; 0x175
 990:	696e695f 	stmdbvs	lr!, {r0, r1, r2, r3, r4, r6, r8, fp, sp, lr}^
 994:	55410074 	strbpl	r0, [r1, #-116]	; 0x74
 998:	554d5f58 	strbpl	r5, [sp, #-3928]	; 0xf58
 99c:	5245495f 	subpl	r4, r5, #1556480	; 0x17c000
 9a0:	4745525f 	smlsldmi	r5, r5, pc, r2	; <UNPREDICTABLE>
 9a4:	58554100 	ldmdapl	r5, {r8, lr}^
 9a8:	5f554d5f 	svcpl	0x00554d5f
 9ac:	5f524949 	svcpl	0x00524949
 9b0:	00474552 	subeq	r4, r7, r2, asr r5
 9b4:	74726175 	ldrbtvc	r6, [r2], #-373	; 0x175
 9b8:	6e61635f 	mcrvs	3, 3, r6, cr1, cr15, {2}
 9bc:	7475705f 	ldrbtvc	r7, [r5], #-95	; 0x5f
 9c0:	55410063 	strbpl	r0, [r1, #-99]	; 0x63
 9c4:	4e455f58 	mcrmi	15, 2, r5, cr5, cr8, {2}
 9c8:	454c4241 	strbmi	r4, [ip, #-577]	; 0x241
 9cc:	55410053 	strbpl	r0, [r1, #-83]	; 0x53
 9d0:	52495f58 	subpl	r5, r9, #88, 30	; 0x160
 9d4:	55410051 	strbpl	r0, [r1, #-81]	; 0x51
 9d8:	554d5f58 	strbpl	r5, [sp, #-3928]	; 0xf58
 9dc:	5541425f 	strbpl	r4, [r1, #-607]	; 0x25f
 9e0:	45525f44 	ldrbmi	r5, [r2, #-3908]	; 0xf44
 9e4:	55410047 	strbpl	r0, [r1, #-71]	; 0x47
 9e8:	554d5f58 	strbpl	r5, [sp, #-3928]	; 0xf58
 9ec:	4154535f 	cmpmi	r4, pc, asr r3
 9f0:	45525f54 	ldrbmi	r5, [r2, #-3924]	; 0xf54
 9f4:	55410047 	strbpl	r0, [r1, #-71]	; 0x47
 9f8:	554d5f58 	strbpl	r5, [sp, #-3928]	; 0xf58
 9fc:	5243535f 	subpl	r5, r3, #2080374785	; 0x7c000001
 a00:	48435441 	stmdami	r3, {r0, r6, sl, ip, lr}^
 a04:	2d796d00 	ldclcs	13, cr6, [r9, #-0]
 a08:	2f637273 	svccs	0x00637273
 a0c:	74726175 	ldrbtvc	r6, [r2], #-373	; 0x175
 a10:	4100632e 	tstmi	r0, lr, lsr #6
 a14:	4d5f5855 	ldclmi	8, cr5, [pc, #-340]	; 8c8 <_start-0x7738>
 a18:	434c5f55 	movtmi	r5, #53077	; 0xcf55
 a1c:	45525f52 	ldrbmi	r5, [r2, #-3922]	; 0xf52
 a20:	55410047 	strbpl	r0, [r1, #-71]	; 0x47
 a24:	554d5f58 	strbpl	r5, [sp, #-3928]	; 0xf58
 a28:	52534c5f 	subspl	r4, r3, #24320	; 0x5f00
 a2c:	4745525f 	smlsldmi	r5, r5, pc, r2	; <UNPREDICTABLE>
 a30:	72617500 	rsbvc	r7, r1, #0, 10
 a34:	65675f74 	strbvs	r5, [r7, #-3956]!	; 0xf74
 a38:	615f6374 	cmpvs	pc, r4, ror r3	; <UNPREDICTABLE>
 a3c:	636e7973 	cmnvs	lr, #1884160	; 0x1cc000
 a40:	7a697300 	bvc	1a5d648 <__bss_end__+0x1a53398>
 a44:	00745f65 	rsbseq	r5, r4, r5, ror #30
 a48:	736d656d 	cmnvc	sp, #457179136	; 0x1b400000
 a4c:	63007465 	movwvs	r7, #1125	; 0x465
 a50:	656e5f62 	strbvs	r5, [lr, #-3938]!	; 0xf62
 a54:	73630077 	cmnvc	r3, #119	; 0x77
 a58:	65303431 	ldrvs	r3, [r0, #-1073]!	; 0x431
 a5c:	6372732d 	cmnvs	r2, #-1275068416	; 0xb4000000
 a60:	6e6f632f 	cdpvs	3, 6, cr6, cr15, cr15, {1}
 a64:	6c6f7274 	sfmvs	f7, 2, [pc], #-464	; 89c <_start-0x7764>
 a68:	6f6c622d 	svcvs	0x006c622d
 a6c:	632e6b63 	teqvs	lr, #101376	; 0x18c00
 a70:	62696c00 	rsbvs	r6, r9, #0, 24
 a74:	656d2f63 	strbvs	r2, [sp, #-3939]!	; 0xf63
 a78:	7465736d 	strbtvc	r7, [r5], #-877	; 0x36d
 a7c:	Address 0x0000000000000a7c is out of bounds.


Disassembly of section .debug_frame:

00000000 <.debug_frame>:
   0:	0000000c 	andeq	r0, r0, ip
   4:	ffffffff 			; <UNDEFINED> instruction: 0xffffffff
   8:	7c020001 	stcvc	0, cr0, [r2], {1}
   c:	000d0c0e 	andeq	r0, sp, lr, lsl #24
  10:	00000014 	andeq	r0, r0, r4, lsl r0
  14:	00000000 	andeq	r0, r0, r0
  18:	00008010 	andeq	r8, r0, r0, lsl r0
  1c:	00000050 	andeq	r0, r0, r0, asr r0
  20:	84080e44 	strhi	r0, [r8], #-3652	; 0xe44
  24:	00018e02 	andeq	r8, r1, r2, lsl #28
  28:	00000020 	andeq	r0, r0, r0, lsr #32
  2c:	00000000 	andeq	r0, r0, r0
  30:	00008060 	andeq	r8, r0, r0, rrx
  34:	000003f8 	strdeq	r0, [r0], -r8
  38:	84180e42 	ldrhi	r0, [r8], #-3650	; 0xe42
  3c:	86058506 	strhi	r8, [r5], -r6, lsl #10
  40:	88038704 	stmdahi	r3, {r2, r8, r9, sl, pc}
  44:	44018902 	strmi	r8, [r1], #-2306	; 0x902
  48:	0000480e 	andeq	r4, r0, lr, lsl #16
  4c:	00000024 	andeq	r0, r0, r4, lsr #32
  50:	00000000 	andeq	r0, r0, r0
  54:	00008458 	andeq	r8, r0, r8, asr r4
  58:	00000090 	muleq	r0, r0, r0
  5c:	84200e42 	strthi	r0, [r0], #-3650	; 0xe42
  60:	86078508 	strhi	r8, [r7], -r8, lsl #10
  64:	88058706 	stmdahi	r5, {r1, r2, r8, r9, sl, pc}
  68:	8a038904 	bhi	e2480 <__bss_end__+0xd81d0>
  6c:	44018e02 	strmi	r8, [r1], #-3586	; 0xe02
  70:	0000300e 	andeq	r3, r0, lr
  74:	00000014 	andeq	r0, r0, r4, lsl r0
  78:	00000000 	andeq	r0, r0, r0
  7c:	000084e8 	andeq	r8, r0, r8, ror #9
  80:	00000050 	andeq	r0, r0, r0, asr r0
  84:	8e040e42 	cdphi	14, 0, cr0, cr4, cr2, {2}
  88:	580e4201 	stmdapl	lr, {r0, r9, lr}
  8c:	0000000c 	andeq	r0, r0, ip
  90:	ffffffff 			; <UNDEFINED> instruction: 0xffffffff
  94:	7c020001 	stcvc	0, cr0, [r2], {1}
  98:	000d0c0e 	andeq	r0, sp, lr, lsl #24
  9c:	00000024 	andeq	r0, r0, r4, lsr #32
  a0:	0000008c 	andeq	r0, r0, ip, lsl #1
  a4:	00008538 	andeq	r8, r0, r8, lsr r5
  a8:	00000058 	andeq	r0, r0, r8, asr r0
  ac:	80100e42 	andshi	r0, r0, r2, asr #28
  b0:	82038104 	andhi	r8, r3, #4, 2
  b4:	42018302 	andmi	r8, r1, #134217728	; 0x8000000
  b8:	07841c0e 	streq	r1, [r4, lr, lsl #24]
  bc:	058e0685 	streq	r0, [lr, #1669]	; 0x685
  c0:	00280e42 	eoreq	r0, r8, r2, asr #28
  c4:	0000000c 	andeq	r0, r0, ip
  c8:	ffffffff 			; <UNDEFINED> instruction: 0xffffffff
  cc:	7c020001 	stcvc	0, cr0, [r2], {1}
  d0:	000d0c0e 	andeq	r0, sp, lr, lsl #24
  d4:	00000014 	andeq	r0, r0, r4, lsl r0
  d8:	000000c4 	andeq	r0, r0, r4, asr #1
  dc:	00008590 	muleq	r0, r0, r5
  e0:	00000014 	andeq	r0, r0, r4, lsl r0
  e4:	84080e42 	strhi	r0, [r8], #-3650	; 0xe42
  e8:	00018e02 	andeq	r8, r1, r2, lsl #28
  ec:	0000000c 	andeq	r0, r0, ip
  f0:	000000c4 	andeq	r0, r0, r4, asr #1
  f4:	000085a4 	andeq	r8, r0, r4, lsr #11
  f8:	00000018 	andeq	r0, r0, r8, lsl r0
  fc:	0000000c 	andeq	r0, r0, ip
 100:	000000c4 	andeq	r0, r0, r4, asr #1
 104:	000085bc 			; <UNDEFINED> instruction: 0x000085bc
 108:	00000010 	andeq	r0, r0, r0, lsl r0
 10c:	0000000c 	andeq	r0, r0, ip
 110:	ffffffff 			; <UNDEFINED> instruction: 0xffffffff
 114:	7c020001 	stcvc	0, cr0, [r2], {1}
 118:	000d0c0e 	andeq	r0, sp, lr, lsl #24
 11c:	00000018 	andeq	r0, r0, r8, lsl r0
 120:	0000010c 	andeq	r0, r0, ip, lsl #2
 124:	000085cc 	andeq	r8, r0, ip, asr #11
 128:	00000034 	andeq	r0, r0, r4, lsr r0
 12c:	83100e42 	tsthi	r0, #1056	; 0x420
 130:	85038404 	strhi	r8, [r3, #-1028]	; 0x404
 134:	00018e02 	andeq	r8, r1, r2, lsl #28
 138:	0000000c 	andeq	r0, r0, ip
 13c:	ffffffff 			; <UNDEFINED> instruction: 0xffffffff
 140:	7c020001 	stcvc	0, cr0, [r2], {1}
 144:	000d0c0e 	andeq	r0, sp, lr, lsl #24
 148:	0000000c 	andeq	r0, r0, ip
 14c:	00000138 	andeq	r0, r0, r8, lsr r1
 150:	00008600 	andeq	r8, r0, r0, lsl #12
 154:	00000014 	andeq	r0, r0, r4, lsl r0
 158:	0000000c 	andeq	r0, r0, ip
 15c:	00000138 	andeq	r0, r0, r8, lsr r1
 160:	00008614 	andeq	r8, r0, r4, lsl r6
 164:	0000002c 	andeq	r0, r0, ip, lsr #32
 168:	0000000c 	andeq	r0, r0, ip
 16c:	00000138 	andeq	r0, r0, r8, lsr r1
 170:	00008640 	andeq	r8, r0, r0, asr #12
 174:	00000040 	andeq	r0, r0, r0, asr #32
 178:	00000020 	andeq	r0, r0, r0, lsr #32
 17c:	00000138 	andeq	r0, r0, r8, lsr r1
 180:	00008680 	andeq	r8, r0, r0, lsl #13
 184:	000001a8 	andeq	r0, r0, r8, lsr #3
 188:	84180e42 	ldrhi	r0, [r8], #-3650	; 0xe42
 18c:	86058506 	strhi	r8, [r5], -r6, lsl #10
 190:	88038704 	stmdahi	r3, {r2, r8, r9, sl, pc}
 194:	42018e02 	andmi	r8, r1, #2, 28
 198:	0000600e 	andeq	r6, r0, lr
 19c:	00000014 	andeq	r0, r0, r4, lsl r0
 1a0:	00000138 	andeq	r0, r0, r8, lsr r1
 1a4:	00008828 	andeq	r8, r0, r8, lsr #16
 1a8:	00000068 	andeq	r0, r0, r8, rrx
 1ac:	8e040e42 	cdphi	14, 0, cr0, cr4, cr2, {2}
 1b0:	100e4201 	andne	r4, lr, r1, lsl #4
 1b4:	00000028 	andeq	r0, r0, r8, lsr #32
 1b8:	00000138 	andeq	r0, r0, r8, lsr r1
 1bc:	00008890 	muleq	r0, r0, r8
 1c0:	00000294 	muleq	r0, r4, r2
 1c4:	84240e42 	strthi	r0, [r4], #-3650	; 0xe42
 1c8:	86088509 	strhi	r8, [r8], -r9, lsl #10
 1cc:	88068707 	stmdahi	r6, {r0, r1, r2, r8, r9, sl, pc}
 1d0:	8a048905 	bhi	1225ec <__bss_end__+0x11833c>
 1d4:	8e028b03 	vmlahi.f64	d8, d2, d3
 1d8:	b00e4201 	andlt	r4, lr, r1, lsl #4
 1dc:	00000001 	andeq	r0, r0, r1
 1e0:	0000000c 	andeq	r0, r0, ip
 1e4:	ffffffff 			; <UNDEFINED> instruction: 0xffffffff
 1e8:	7c020001 	stcvc	0, cr0, [r2], {1}
 1ec:	000d0c0e 	andeq	r0, sp, lr, lsl #24
 1f0:	0000000c 	andeq	r0, r0, ip
 1f4:	000001e0 	andeq	r0, r0, r0, ror #3
 1f8:	00008b24 	andeq	r8, r0, r4, lsr #22
 1fc:	00000010 	andeq	r0, r0, r0, lsl r0
 200:	0000000c 	andeq	r0, r0, ip
 204:	000001e0 	andeq	r0, r0, r0, ror #3
 208:	00008b34 	andeq	r8, r0, r4, lsr fp
 20c:	00000010 	andeq	r0, r0, r0, lsl r0
 210:	0000000c 	andeq	r0, r0, ip
 214:	ffffffff 			; <UNDEFINED> instruction: 0xffffffff
 218:	7c020001 	stcvc	0, cr0, [r2], {1}
 21c:	000d0c0e 	andeq	r0, sp, lr, lsl #24
 220:	00000014 	andeq	r0, r0, r4, lsl r0
 224:	00000210 	andeq	r0, r0, r0, lsl r2
 228:	00008b44 	andeq	r8, r0, r4, asr #22
 22c:	00000028 	andeq	r0, r0, r8, lsr #32
 230:	83080e42 	movwhi	r0, #36418	; 0x8e42
 234:	00018e02 	andeq	r8, r1, r2, lsl #28
 238:	0000000c 	andeq	r0, r0, ip
 23c:	ffffffff 			; <UNDEFINED> instruction: 0xffffffff
 240:	7c020001 	stcvc	0, cr0, [r2], {1}
 244:	000d0c0e 	andeq	r0, sp, lr, lsl #24
 248:	00000014 	andeq	r0, r0, r4, lsl r0
 24c:	00000238 	andeq	r0, r0, r8, lsr r2
 250:	00008b6c 	andeq	r8, r0, ip, ror #22
 254:	00000020 	andeq	r0, r0, r0, lsr #32
 258:	84080e42 	strhi	r0, [r8], #-3650	; 0xe42
 25c:	00018e02 	andeq	r8, r1, r2, lsl #28
 260:	00000014 	andeq	r0, r0, r4, lsl r0
 264:	00000238 	andeq	r0, r0, r8, lsr r2
 268:	00008b8c 	andeq	r8, r0, ip, lsl #23
 26c:	00000090 	muleq	r0, r0, r0
 270:	83080e42 	movwhi	r0, #36418	; 0x8e42
 274:	00018e02 	andeq	r8, r1, r2, lsl #28
 278:	0000000c 	andeq	r0, r0, ip
 27c:	ffffffff 			; <UNDEFINED> instruction: 0xffffffff
 280:	7c020001 	stcvc	0, cr0, [r2], {1}
 284:	000d0c0e 	andeq	r0, sp, lr, lsl #24
 288:	0000000c 	andeq	r0, r0, ip
 28c:	00000278 	andeq	r0, r0, r8, ror r2
 290:	00008c1c 	andeq	r8, r0, ip, lsl ip
 294:	00000018 	andeq	r0, r0, r8, lsl r0
 298:	0000000c 	andeq	r0, r0, ip
 29c:	00000278 	andeq	r0, r0, r8, ror r2
 2a0:	00008c34 	andeq	r8, r0, r4, lsr ip
 2a4:	00000014 	andeq	r0, r0, r4, lsl r0
 2a8:	00000014 	andeq	r0, r0, r4, lsl r0
 2ac:	00000278 	andeq	r0, r0, r8, ror r2
 2b0:	00008c48 	andeq	r8, r0, r8, asr #24
 2b4:	00000048 	andeq	r0, r0, r8, asr #32
 2b8:	83080e42 	movwhi	r0, #36418	; 0x8e42
 2bc:	00018e02 	andeq	r8, r1, r2, lsl #28
 2c0:	0000000c 	andeq	r0, r0, ip
 2c4:	ffffffff 			; <UNDEFINED> instruction: 0xffffffff
 2c8:	7c020001 	stcvc	0, cr0, [r2], {1}
 2cc:	000d0c0e 	andeq	r0, sp, lr, lsl #24
 2d0:	0000000c 	andeq	r0, r0, ip
 2d4:	000002c0 	andeq	r0, r0, r0, asr #5
 2d8:	00008c90 	muleq	r0, r0, ip
 2dc:	0000001c 	andeq	r0, r0, ip, lsl r0
 2e0:	00000014 	andeq	r0, r0, r4, lsl r0
 2e4:	000002c0 	andeq	r0, r0, r0, asr #5
 2e8:	00008cac 	andeq	r8, r0, ip, lsr #25
 2ec:	00000014 	andeq	r0, r0, r4, lsl r0
 2f0:	83080e42 	movwhi	r0, #36418	; 0x8e42
 2f4:	00018e02 	andeq	r8, r1, r2, lsl #28
 2f8:	00000014 	andeq	r0, r0, r4, lsl r0
 2fc:	000002c0 	andeq	r0, r0, r0, asr #5
 300:	00008cc0 	andeq	r8, r0, r0, asr #25
 304:	0000000c 	andeq	r0, r0, ip
 308:	83080e42 	movwhi	r0, #36418	; 0x8e42
 30c:	00018e02 	andeq	r8, r1, r2, lsl #28
 310:	00000018 	andeq	r0, r0, r8, lsl r0
 314:	000002c0 	andeq	r0, r0, r0, asr #5
 318:	00008ccc 	andeq	r8, r0, ip, asr #25
 31c:	00000024 	andeq	r0, r0, r4, lsr #32
 320:	83100e42 	tsthi	r0, #1056	; 0x420
 324:	85038404 	strhi	r8, [r3, #-1028]	; 0x404
 328:	00018e02 	andeq	r8, r1, r2, lsl #28
 32c:	00000014 	andeq	r0, r0, r4, lsl r0
 330:	000002c0 	andeq	r0, r0, r0, asr #5
 334:	00008cf0 	strdeq	r8, [r0], -r0
 338:	00000014 	andeq	r0, r0, r4, lsl r0
 33c:	83080e42 	movwhi	r0, #36418	; 0x8e42
 340:	00018e02 	andeq	r8, r1, r2, lsl #28
 344:	00000014 	andeq	r0, r0, r4, lsl r0
 348:	000002c0 	andeq	r0, r0, r0, asr #5
 34c:	00008d04 	andeq	r8, r0, r4, lsl #26
 350:	00000014 	andeq	r0, r0, r4, lsl r0
 354:	83080e42 	movwhi	r0, #36418	; 0x8e42
 358:	00018e02 	andeq	r8, r1, r2, lsl #28
 35c:	0000000c 	andeq	r0, r0, ip
 360:	ffffffff 			; <UNDEFINED> instruction: 0xffffffff
 364:	7c020001 	stcvc	0, cr0, [r2], {1}
 368:	000d0c0e 	andeq	r0, sp, lr, lsl #24
 36c:	00000018 	andeq	r0, r0, r8, lsl r0
 370:	0000035c 	andeq	r0, r0, ip, asr r3
 374:	00008d18 	andeq	r8, r0, r8, lsl sp
 378:	000000d4 	ldrdeq	r0, [r0], -r4
 37c:	83100e42 	tsthi	r0, #1056	; 0x420
 380:	85038404 	strhi	r8, [r3, #-1028]	; 0x404
 384:	00018e02 	andeq	r8, r1, r2, lsl #28
 388:	00000014 	andeq	r0, r0, r4, lsl r0
 38c:	0000035c 	andeq	r0, r0, ip, asr r3
 390:	00008dec 	andeq	r8, r0, ip, ror #27
 394:	00000038 	andeq	r0, r0, r8, lsr r0
 398:	83080e42 	movwhi	r0, #36418	; 0x8e42
 39c:	00018e02 	andeq	r8, r1, r2, lsl #28
 3a0:	00000014 	andeq	r0, r0, r4, lsl r0
 3a4:	0000035c 	andeq	r0, r0, ip, asr r3
 3a8:	00008e24 	andeq	r8, r0, r4, lsr #28
 3ac:	00000038 	andeq	r0, r0, r8, lsr r0
 3b0:	83080e42 	movwhi	r0, #36418	; 0x8e42
 3b4:	00018e02 	andeq	r8, r1, r2, lsl #28
 3b8:	00000018 	andeq	r0, r0, r8, lsl r0
 3bc:	0000035c 	andeq	r0, r0, ip, asr r3
 3c0:	00008e5c 	andeq	r8, r0, ip, asr lr
 3c4:	000000cc 	andeq	r0, r0, ip, asr #1
 3c8:	83100e42 	tsthi	r0, #1056	; 0x420
 3cc:	85038404 	strhi	r8, [r3, #-1028]	; 0x404
 3d0:	00018e02 	andeq	r8, r1, r2, lsl #28
 3d4:	00000014 	andeq	r0, r0, r4, lsl r0
 3d8:	0000035c 	andeq	r0, r0, ip, asr r3
 3dc:	00008f28 	andeq	r8, r0, r8, lsr #30
 3e0:	0000004c 	andeq	r0, r0, ip, asr #32
 3e4:	84080e42 	strhi	r0, [r8], #-3650	; 0xe42
 3e8:	00018e02 	andeq	r8, r1, r2, lsl #28
 3ec:	00000014 	andeq	r0, r0, r4, lsl r0
 3f0:	0000035c 	andeq	r0, r0, ip, asr r3
 3f4:	00008f74 	andeq	r8, r0, r4, ror pc
 3f8:	00000024 	andeq	r0, r0, r4, lsr #32
 3fc:	83080e42 	movwhi	r0, #36418	; 0x8e42
 400:	00018e02 	andeq	r8, r1, r2, lsl #28
 404:	00000018 	andeq	r0, r0, r8, lsl r0
 408:	0000035c 	andeq	r0, r0, ip, asr r3
 40c:	00008f98 	muleq	r0, r8, pc	; <UNPREDICTABLE>
 410:	000000d8 	ldrdeq	r0, [r0], -r8
 414:	84100e42 	ldrhi	r0, [r0], #-3650	; 0xe42
 418:	86038504 	strhi	r8, [r3], -r4, lsl #10
 41c:	00018e02 	andeq	r8, r1, r2, lsl #28
 420:	00000014 	andeq	r0, r0, r4, lsl r0
 424:	0000035c 	andeq	r0, r0, ip, asr r3
 428:	00009070 	andeq	r9, r0, r0, ror r0
 42c:	00000038 	andeq	r0, r0, r8, lsr r0
 430:	83080e42 	movwhi	r0, #36418	; 0x8e42
 434:	00018e02 	andeq	r8, r1, r2, lsl #28
 438:	00000014 	andeq	r0, r0, r4, lsl r0
 43c:	0000035c 	andeq	r0, r0, ip, asr r3
 440:	000090a8 	andeq	r9, r0, r8, lsr #1
 444:	0000002c 	andeq	r0, r0, ip, lsr #32
 448:	83080e42 	movwhi	r0, #36418	; 0x8e42
 44c:	00018e02 	andeq	r8, r1, r2, lsl #28
 450:	00000018 	andeq	r0, r0, r8, lsl r0
 454:	0000035c 	andeq	r0, r0, ip, asr r3
 458:	000090d4 	ldrdeq	r9, [r0], -r4
 45c:	00000084 	andeq	r0, r0, r4, lsl #1
 460:	83100e42 	tsthi	r0, #1056	; 0x420
 464:	85038404 	strhi	r8, [r3, #-1028]	; 0x404
 468:	00018e02 	andeq	r8, r1, r2, lsl #28
 46c:	00000018 	andeq	r0, r0, r8, lsl r0
 470:	0000035c 	andeq	r0, r0, ip, asr r3
 474:	00009158 	andeq	r9, r0, r8, asr r1
 478:	00000084 	andeq	r0, r0, r4, lsl #1
 47c:	83100e42 	tsthi	r0, #1056	; 0x420
 480:	85038404 	strhi	r8, [r3, #-1028]	; 0x404
 484:	00018e02 	andeq	r8, r1, r2, lsl #28
 488:	00000014 	andeq	r0, r0, r4, lsl r0
 48c:	0000035c 	andeq	r0, r0, ip, asr r3
 490:	000091dc 	ldrdeq	r9, [r0], -ip
 494:	00000084 	andeq	r0, r0, r4, lsl #1
 498:	84080e42 	strhi	r0, [r8], #-3650	; 0xe42
 49c:	00018e02 	andeq	r8, r1, r2, lsl #28
 4a0:	00000014 	andeq	r0, r0, r4, lsl r0
 4a4:	0000035c 	andeq	r0, r0, ip, asr r3
 4a8:	00009260 	andeq	r9, r0, r0, ror #4
 4ac:	00000058 	andeq	r0, r0, r8, asr r0
 4b0:	84080e42 	strhi	r0, [r8], #-3650	; 0xe42
 4b4:	00018e02 	andeq	r8, r1, r2, lsl #28
 4b8:	0000000c 	andeq	r0, r0, ip
 4bc:	ffffffff 			; <UNDEFINED> instruction: 0xffffffff
 4c0:	7c020001 	stcvc	0, cr0, [r2], {1}
 4c4:	000d0c0e 	andeq	r0, sp, lr, lsl #24
 4c8:	0000001c 	andeq	r0, r0, ip, lsl r0
 4cc:	000004b8 			; <UNDEFINED> instruction: 0x000004b8
 4d0:	000092b8 			; <UNDEFINED> instruction: 0x000092b8
 4d4:	00000154 	andeq	r0, r0, r4, asr r1
 4d8:	84180e42 	ldrhi	r0, [r8], #-3650	; 0xe42
 4dc:	86058506 	strhi	r8, [r5], -r6, lsl #10
 4e0:	88038704 	stmdahi	r3, {r2, r8, r9, sl, pc}
 4e4:	00018e02 	andeq	r8, r1, r2, lsl #28
 4e8:	00000020 	andeq	r0, r0, r0, lsr #32
 4ec:	000004b8 			; <UNDEFINED> instruction: 0x000004b8
 4f0:	0000940c 	andeq	r9, r0, ip, lsl #8
 4f4:	000001c8 	andeq	r0, r0, r8, asr #3
 4f8:	83200e42 	teqhi	r0, #1056	; 0x420
 4fc:	85078408 	strhi	r8, [r7, #-1032]	; 0x408
 500:	87058606 	strhi	r8, [r5, -r6, lsl #12]
 504:	89038804 	stmdbhi	r3, {r2, fp, pc}
 508:	00018e02 	andeq	r8, r1, r2, lsl #28
 50c:	00000024 	andeq	r0, r0, r4, lsr #32
 510:	000004b8 			; <UNDEFINED> instruction: 0x000004b8
 514:	000095d4 	ldrdeq	r9, [r0], -r4
 518:	000000a4 	andeq	r0, r0, r4, lsr #1
 51c:	84200e42 	strthi	r0, [r0], #-3650	; 0xe42
 520:	86078508 	strhi	r8, [r7], -r8, lsl #10
 524:	88058706 	stmdahi	r5, {r1, r2, r8, r9, sl, pc}
 528:	8a038904 	bhi	e2940 <__bss_end__+0xd8690>
 52c:	42018e02 	andmi	r8, r1, #2, 28
 530:	0000280e 	andeq	r2, r0, lr, lsl #16
 534:	00000020 	andeq	r0, r0, r0, lsr #32
 538:	000004b8 			; <UNDEFINED> instruction: 0x000004b8
 53c:	00009678 	andeq	r9, r0, r8, ror r6
 540:	00000090 	muleq	r0, r0, r0
 544:	84180e42 	ldrhi	r0, [r8], #-3650	; 0xe42
 548:	86058506 	strhi	r8, [r5], -r6, lsl #10
 54c:	88038704 	stmdahi	r3, {r2, r8, r9, sl, pc}
 550:	42018e02 	andmi	r8, r1, #2, 28
 554:	0000200e 	andeq	r2, r0, lr
 558:	00000020 	andeq	r0, r0, r0, lsr #32
 55c:	000004b8 			; <UNDEFINED> instruction: 0x000004b8
 560:	00009708 	andeq	r9, r0, r8, lsl #14
 564:	000000d4 	ldrdeq	r0, [r0], -r4
 568:	84180e42 	ldrhi	r0, [r8], #-3650	; 0xe42
 56c:	86058506 	strhi	r8, [r5], -r6, lsl #10
 570:	88038704 	stmdahi	r3, {r2, r8, r9, sl, pc}
 574:	42018e02 	andmi	r8, r1, #2, 28
 578:	0000200e 	andeq	r2, r0, lr
 57c:	00000014 	andeq	r0, r0, r4, lsl r0
 580:	000004b8 			; <UNDEFINED> instruction: 0x000004b8
 584:	000097dc 	ldrdeq	r9, [r0], -ip
 588:	0000003c 	andeq	r0, r0, ip, lsr r0
 58c:	83080e42 	movwhi	r0, #36418	; 0x8e42
 590:	00018e02 	andeq	r8, r1, r2, lsl #28
 594:	00000018 	andeq	r0, r0, r8, lsl r0
 598:	000004b8 			; <UNDEFINED> instruction: 0x000004b8
 59c:	00009818 	andeq	r9, r0, r8, lsl r8
 5a0:	0000002c 	andeq	r0, r0, ip, lsr #32
 5a4:	83100e42 	tsthi	r0, #1056	; 0x420
 5a8:	85038404 	strhi	r8, [r3, #-1028]	; 0x404
 5ac:	00018e02 	andeq	r8, r1, r2, lsl #28
 5b0:	00000024 	andeq	r0, r0, r4, lsr #32
 5b4:	000004b8 			; <UNDEFINED> instruction: 0x000004b8
 5b8:	00009844 	andeq	r9, r0, r4, asr #16
 5bc:	00000090 	muleq	r0, r0, r0
 5c0:	810c0e42 	tsthi	ip, r2, asr #28
 5c4:	83028203 	movwhi	r8, #8707	; 0x2203
 5c8:	180e4201 	stmdane	lr, {r0, r9, lr}
 5cc:	05850684 	streq	r0, [r5, #1668]	; 0x684
 5d0:	0e42048e 	cdpeq	4, 4, cr0, cr2, cr14, {4}
 5d4:	000003f0 	strdeq	r0, [r0], -r0	; <UNPREDICTABLE>
 5d8:	00000014 	andeq	r0, r0, r4, lsl r0
 5dc:	000004b8 			; <UNDEFINED> instruction: 0x000004b8
 5e0:	000098d4 	ldrdeq	r9, [r0], -r4
 5e4:	0000004c 	andeq	r0, r0, ip, asr #32
 5e8:	8e040e42 	cdphi	14, 0, cr0, cr4, cr2, {2}
 5ec:	100e4201 	andne	r4, lr, r1, lsl #4
 5f0:	0000000c 	andeq	r0, r0, ip
 5f4:	ffffffff 			; <UNDEFINED> instruction: 0xffffffff
 5f8:	7c020001 	stcvc	0, cr0, [r2], {1}
 5fc:	000d0c0e 	andeq	r0, sp, lr, lsl #24
 600:	00000018 	andeq	r0, r0, r8, lsl r0
 604:	000005f0 	strdeq	r0, [r0], -r0	; <UNPREDICTABLE>
 608:	00009920 	andeq	r9, r0, r0, lsr #18
 60c:	0000009c 	muleq	r0, ip, r0
 610:	83100e42 	tsthi	r0, #1056	; 0x420
 614:	85038404 	strhi	r8, [r3, #-1028]	; 0x404
 618:	00018e02 	andeq	r8, r1, r2, lsl #28
 61c:	00000014 	andeq	r0, r0, r4, lsl r0
 620:	000005f0 	strdeq	r0, [r0], -r0	; <UNPREDICTABLE>
 624:	000099bc 			; <UNDEFINED> instruction: 0x000099bc
 628:	0000001c 	andeq	r0, r0, ip, lsl r0
 62c:	83080e42 	movwhi	r0, #36418	; 0x8e42
 630:	00018e02 	andeq	r8, r1, r2, lsl #28
 634:	00000014 	andeq	r0, r0, r4, lsl r0
 638:	000005f0 	strdeq	r0, [r0], -r0	; <UNPREDICTABLE>
 63c:	000099d8 	ldrdeq	r9, [r0], -r8
 640:	00000028 	andeq	r0, r0, r8, lsr #32
 644:	83080e42 	movwhi	r0, #36418	; 0x8e42
 648:	00018e02 	andeq	r8, r1, r2, lsl #28
 64c:	00000014 	andeq	r0, r0, r4, lsl r0
 650:	000005f0 	strdeq	r0, [r0], -r0	; <UNPREDICTABLE>
 654:	00009a00 	andeq	r9, r0, r0, lsl #20
 658:	0000001c 	andeq	r0, r0, ip, lsl r0
 65c:	83080e42 	movwhi	r0, #36418	; 0x8e42
 660:	00018e02 	andeq	r8, r1, r2, lsl #28
 664:	00000014 	andeq	r0, r0, r4, lsl r0
 668:	000005f0 	strdeq	r0, [r0], -r0	; <UNPREDICTABLE>
 66c:	00009a1c 	andeq	r9, r0, ip, lsl sl
 670:	0000002c 	andeq	r0, r0, ip, lsr #32
 674:	84080e42 	strhi	r0, [r8], #-3650	; 0xe42
 678:	00018e02 	andeq	r8, r1, r2, lsl #28
 67c:	00000014 	andeq	r0, r0, r4, lsl r0
 680:	000005f0 	strdeq	r0, [r0], -r0	; <UNPREDICTABLE>
 684:	00009a48 	andeq	r9, r0, r8, asr #20
 688:	0000000c 	andeq	r0, r0, ip
 68c:	83080e42 	movwhi	r0, #36418	; 0x8e42
 690:	00018e02 	andeq	r8, r1, r2, lsl #28
 694:	00000014 	andeq	r0, r0, r4, lsl r0
 698:	000005f0 	strdeq	r0, [r0], -r0	; <UNPREDICTABLE>
 69c:	00009a54 	andeq	r9, r0, r4, asr sl
 6a0:	00000020 	andeq	r0, r0, r0, lsr #32
 6a4:	83080e42 	movwhi	r0, #36418	; 0x8e42
 6a8:	00018e02 	andeq	r8, r1, r2, lsl #28
 6ac:	0000000c 	andeq	r0, r0, ip
 6b0:	ffffffff 			; <UNDEFINED> instruction: 0xffffffff
 6b4:	7c020001 	stcvc	0, cr0, [r2], {1}
 6b8:	000d0c0e 	andeq	r0, sp, lr, lsl #24
 6bc:	00000014 	andeq	r0, r0, r4, lsl r0
 6c0:	000006ac 	andeq	r0, r0, ip, lsr #13
 6c4:	00009ad8 	ldrdeq	r9, [r0], -r8
 6c8:	00000028 	andeq	r0, r0, r8, lsr #32
 6cc:	83080e42 	movwhi	r0, #36418	; 0x8e42
 6d0:	00018e02 	andeq	r8, r1, r2, lsl #28
 6d4:	0000000c 	andeq	r0, r0, ip
 6d8:	000006ac 	andeq	r0, r0, ip, lsr #13
 6dc:	00009b00 	andeq	r9, r0, r0, lsl #22
 6e0:	00000028 	andeq	r0, r0, r8, lsr #32
 6e4:	0000000c 	andeq	r0, r0, ip
 6e8:	ffffffff 			; <UNDEFINED> instruction: 0xffffffff
 6ec:	7c020001 	stcvc	0, cr0, [r2], {1}
 6f0:	000d0c0e 	andeq	r0, sp, lr, lsl #24
 6f4:	0000000c 	andeq	r0, r0, ip
 6f8:	000006e4 	andeq	r0, r0, r4, ror #13
 6fc:	00009b28 	andeq	r9, r0, r8, lsr #22
 700:	00000020 	andeq	r0, r0, r0, lsr #32
