
scope.elf:     file format elf32-littlearm


Disassembly of section .text:

00008000 <_start>:
    8000:	e3a0d302 	mov	sp, #134217728	; 0x8000000
    8004:	e3a0b000 	mov	fp, #0
    8008:	eb000207 	bl	882c <_cstart>
    800c:	eb000235 	bl	88e8 <rpi_reboot>

00008010 <cycles_per_sec>:
    8010:	e3500001 	cmp	r0, #1
    8014:	e92d4010 	push	{r4, lr}
    8018:	8a000006 	bhi	8038 <cycles_per_sec+0x28>
    801c:	ee1f4f3c 	mrc	15, 0, r4, cr15, cr12, {1}
    8020:	e3a03ffa 	mov	r3, #1000	; 0x3e8
    8024:	e0000093 	mul	r0, r3, r0
    8028:	eb000258 	bl	8990 <delay_ms>
    802c:	ee1f0f3c 	mrc	15, 0, r0, cr15, cr12, {1}
    8030:	e0640000 	rsb	r0, r4, r0
    8034:	e8bd8010 	pop	{r4, pc}
    8038:	eb000081 	bl	8244 <rpi_reset_putc>
    803c:	e59f1010 	ldr	r1, [pc, #16]	; 8054 <cycles_per_sec+0x44>
    8040:	e59f2010 	ldr	r2, [pc, #16]	; 8058 <cycles_per_sec+0x48>
    8044:	e3a0302a 	mov	r3, #42	; 0x2a
    8048:	e59f000c 	ldr	r0, [pc, #12]	; 805c <cycles_per_sec+0x4c>
    804c:	eb000061 	bl	81d8 <printk>
    8050:	eb0001e3 	bl	87e4 <clean_reboot>
    8054:	000098c4 	andeq	r9, r0, r4, asr #17
    8058:	00009884 	andeq	r9, r0, r4, lsl #17
    805c:	00009894 	muleq	r0, r4, r8

00008060 <scope>:
    8060:	e92d47f0 	push	{r4, r5, r6, r7, r8, r9, sl, lr}
    8064:	e1a05000 	mov	r5, r0
    8068:	e3a06001 	mov	r6, #1
    806c:	e59f0080 	ldr	r0, [pc, #128]	; 80f4 <scope+0x94>
    8070:	e1a08001 	mov	r8, r1
    8074:	e1a09002 	mov	r9, r2
    8078:	e1a06516 	lsl	r6, r6, r5
    807c:	eb0005b6 	bl	975c <get32>
    8080:	e0000006 	and	r0, r0, r6
    8084:	e1a07550 	asr	r7, r0, r5
    8088:	e59f0064 	ldr	r0, [pc, #100]	; 80f4 <scope+0x94>
    808c:	eb0005b2 	bl	975c <get32>
    8090:	e0000006 	and	r0, r0, r6
    8094:	e1a04550 	asr	r4, r0, r5
    8098:	e1540007 	cmp	r4, r7
    809c:	0afffff9 	beq	8088 <scope+0x28>
    80a0:	ee1faf3c 	mrc	15, 0, sl, cr15, cr12, {1}
    80a4:	e3a07000 	mov	r7, #0
    80a8:	e1590007 	cmp	r9, r7
    80ac:	3a00000e 	bcc	80ec <scope+0x8c>
    80b0:	e59f003c 	ldr	r0, [pc, #60]	; 80f4 <scope+0x94>
    80b4:	eb0005a8 	bl	975c <get32>
    80b8:	e0000006 	and	r0, r0, r6
    80bc:	e1a03550 	asr	r3, r0, r5
    80c0:	e1540003 	cmp	r4, r3
    80c4:	0afffff9 	beq	80b0 <scope+0x50>
    80c8:	e5883000 	str	r3, [r8]
    80cc:	ee1f2f3c 	mrc	15, 0, r2, cr15, cr12, {1}
    80d0:	e06aa002 	rsb	sl, sl, r2
    80d4:	e588a004 	str	sl, [r8, #4]
    80d8:	ee1faf3c 	mrc	15, 0, sl, cr15, cr12, {1}
    80dc:	e2877001 	add	r7, r7, #1
    80e0:	e2888008 	add	r8, r8, #8
    80e4:	e1a04003 	mov	r4, r3
    80e8:	eaffffee 	b	80a8 <scope+0x48>
    80ec:	e1a00007 	mov	r0, r7
    80f0:	e8bd87f0 	pop	{r4, r5, r6, r7, r8, r9, sl, pc}
    80f4:	20200034 	eorcs	r0, r0, r4, lsr r0

000080f8 <dump_samples>:
    80f8:	e92d47f0 	push	{r4, r5, r6, r7, r8, r9, sl, lr}
    80fc:	e2519001 	subs	r9, r1, #1
    8100:	e24dd010 	sub	sp, sp, #16
    8104:	e1a0a000 	mov	sl, r0
    8108:	e1a08002 	mov	r8, r2
    810c:	0a00001a 	beq	817c <dump_samples+0x84>
    8110:	e3a02000 	mov	r2, #0
    8114:	e1a01002 	mov	r1, r2
    8118:	e1a06002 	mov	r6, r2
    811c:	e1a05002 	mov	r5, r2
    8120:	e1a04008 	mov	r4, r8
    8124:	ea000001 	b	8130 <dump_samples+0x38>
    8128:	e1a01007 	mov	r1, r7
    812c:	e1a02007 	mov	r2, r7
    8130:	e1a02182 	lsl	r2, r2, #3
    8134:	e08a3002 	add	r3, sl, r2
    8138:	e5933004 	ldr	r3, [r3, #4]
    813c:	e79a2002 	ldr	r2, [sl, r2]
    8140:	e0855003 	add	r5, r5, r3
    8144:	e1550004 	cmp	r5, r4
    8148:	80640005 	rsbhi	r0, r4, r5
    814c:	90650004 	rsbls	r0, r5, r4
    8150:	e0866000 	add	r6, r6, r0
    8154:	e2817001 	add	r7, r1, #1
    8158:	e58d4004 	str	r4, [sp, #4]
    815c:	e58d0008 	str	r0, [sp, #8]
    8160:	e58d600c 	str	r6, [sp, #12]
    8164:	e58d5000 	str	r5, [sp]
    8168:	e59f0014 	ldr	r0, [pc, #20]	; 8184 <dump_samples+0x8c>
    816c:	eb000019 	bl	81d8 <printk>
    8170:	e1570009 	cmp	r7, r9
    8174:	e0844008 	add	r4, r4, r8
    8178:	1affffea 	bne	8128 <dump_samples+0x30>
    817c:	e28dd010 	add	sp, sp, #16
    8180:	e8bd87f0 	pop	{r4, r5, r6, r7, r8, r9, sl, pc}
    8184:	000098cc 	andeq	r9, r0, ip, asr #17

00008188 <notmain>:
    8188:	e52de004 	push	{lr}		; (str lr, [sp, #-4]!)
    818c:	e24dd054 	sub	sp, sp, #84	; 0x54
    8190:	eb00018b 	bl	87c4 <enable_cache>
    8194:	e3a00015 	mov	r0, #21
    8198:	eb000257 	bl	8afc <gpio_set_input>
    819c:	e3a03001 	mov	r3, #1
    81a0:	ee0f3f1c 	mcr	15, 0, r3, cr15, cr12, {0}
    81a4:	e3a00001 	mov	r0, #1
    81a8:	ebffff98 	bl	8010 <cycles_per_sec>
    81ac:	e1a0100d 	mov	r1, sp
    81b0:	e1a03000 	mov	r3, r0
    81b4:	e3a0200a 	mov	r2, #10
    81b8:	e3a00015 	mov	r0, #21
    81bc:	ebffffa7 	bl	8060 <scope>
    81c0:	e59f200c 	ldr	r2, [pc, #12]	; 81d4 <notmain+0x4c>
    81c4:	e1a01000 	mov	r1, r0
    81c8:	e1a0000d 	mov	r0, sp
    81cc:	ebffffc9 	bl	80f8 <dump_samples>
    81d0:	eb000183 	bl	87e4 <clean_reboot>
    81d4:	00001770 	andeq	r1, r0, r0, ror r7

000081d8 <printk>:
    81d8:	e92d000f 	push	{r0, r1, r2, r3}
    81dc:	e92d4030 	push	{r4, r5, lr}
    81e0:	e24dd00c 	sub	sp, sp, #12
    81e4:	e28d301c 	add	r3, sp, #28
    81e8:	e58d3004 	str	r3, [sp, #4]
    81ec:	e59f4034 	ldr	r4, [pc, #52]	; 8228 <printk+0x50>
    81f0:	e1a00004 	mov	r0, r4
    81f4:	e3a01b01 	mov	r1, #1024	; 0x400
    81f8:	e59d2018 	ldr	r2, [sp, #24]
    81fc:	eb0000cb 	bl	8530 <va_printk>
    8200:	e1a05000 	mov	r5, r0
    8204:	e59f3020 	ldr	r3, [pc, #32]	; 822c <printk+0x54>
    8208:	e5933000 	ldr	r3, [r3]
    820c:	e1a00004 	mov	r0, r4
    8210:	e12fff33 	blx	r3
    8214:	e1a00005 	mov	r0, r5
    8218:	e28dd00c 	add	sp, sp, #12
    821c:	e8bd4030 	pop	{r4, r5, lr}
    8220:	e28dd010 	add	sp, sp, #16
    8224:	e12fff1e 	bx	lr
    8228:	00009b44 	andeq	r9, r0, r4, asr #22
    822c:	000097ec 	andeq	r9, r0, ip, ror #15

00008230 <internal_putchar>:
    8230:	e92d4010 	push	{r4, lr}
    8234:	e1a04000 	mov	r4, r0
    8238:	eb00051f 	bl	96bc <uart_putc>
    823c:	e1a00004 	mov	r0, r4
    8240:	e8bd8010 	pop	{r4, pc}

00008244 <rpi_reset_putc>:
    8244:	e59f2008 	ldr	r2, [pc, #8]	; 8254 <rpi_reset_putc+0x10>
    8248:	e59f3008 	ldr	r3, [pc, #8]	; 8258 <rpi_reset_putc+0x14>
    824c:	e5832000 	str	r2, [r3]
    8250:	e12fff1e 	bx	lr
    8254:	00008230 	andeq	r8, r0, r0, lsr r2
    8258:	000097e8 	andeq	r9, r0, r8, ror #15

0000825c <rpi_set_putc>:
    825c:	e59f3004 	ldr	r3, [pc, #4]	; 8268 <rpi_set_putc+0xc>
    8260:	e5830000 	str	r0, [r3]
    8264:	e12fff1e 	bx	lr
    8268:	000097e8 	andeq	r9, r0, r8, ror #15

0000826c <internal_putk>:
    826c:	e92d4038 	push	{r3, r4, r5, lr}
    8270:	e1a04000 	mov	r4, r0
    8274:	e59f5020 	ldr	r5, [pc, #32]	; 829c <internal_putk+0x30>
    8278:	ea000002 	b	8288 <internal_putk+0x1c>
    827c:	e5953000 	ldr	r3, [r5]
    8280:	e12fff33 	blx	r3
    8284:	e2844001 	add	r4, r4, #1
    8288:	e5d40000 	ldrb	r0, [r4]
    828c:	e3500000 	cmp	r0, #0
    8290:	1afffff9 	bne	827c <internal_putk+0x10>
    8294:	e3a00001 	mov	r0, #1
    8298:	e8bd8038 	pop	{r3, r4, r5, pc}
    829c:	000097e8 	andeq	r9, r0, r8, ror #15

000082a0 <isdigit>:
    82a0:	e2400030 	sub	r0, r0, #48	; 0x30
    82a4:	e3500009 	cmp	r0, #9
    82a8:	83a00000 	movhi	r0, #0
    82ac:	93a00001 	movls	r0, #1
    82b0:	e12fff1e 	bx	lr

000082b4 <pad>:
    82b4:	e0611000 	rsb	r1, r1, r0
    82b8:	e3a03020 	mov	r3, #32
    82bc:	ea000002 	b	82cc <pad+0x18>
    82c0:	e5c03000 	strb	r3, [r0]
    82c4:	e2811001 	add	r1, r1, #1
    82c8:	e2800001 	add	r0, r0, #1
    82cc:	e1510002 	cmp	r1, r2
    82d0:	bafffffa 	blt	82c0 <pad+0xc>
    82d4:	e3a03000 	mov	r3, #0
    82d8:	e5c03000 	strb	r3, [r0]
    82dc:	e12fff1e 	bx	lr

000082e0 <reverse>:
    82e0:	e063c002 	rsb	ip, r3, r2
    82e4:	e28cc001 	add	ip, ip, #1
    82e8:	e15c0001 	cmp	ip, r1
    82ec:	c061100c 	rsbgt	r1, r1, ip
    82f0:	c0833001 	addgt	r3, r3, r1
    82f4:	e2422001 	sub	r2, r2, #1
    82f8:	e1a01000 	mov	r1, r0
    82fc:	ea000002 	b	830c <reverse+0x2c>
    8300:	e452c001 	ldrb	ip, [r2], #-1
    8304:	e5c1c000 	strb	ip, [r1]
    8308:	e2811001 	add	r1, r1, #1
    830c:	e1520003 	cmp	r2, r3
    8310:	2afffffa 	bcs	8300 <reverse+0x20>
    8314:	e3a03000 	mov	r3, #0
    8318:	e5c13000 	strb	r3, [r1]
    831c:	e12fff1e 	bx	lr

00008320 <emit>:
    8320:	e92d41f0 	push	{r4, r5, r6, r7, r8, lr}
    8324:	e24dd048 	sub	sp, sp, #72	; 0x48
    8328:	e1a05001 	mov	r5, r1
    832c:	e1a04002 	mov	r4, r2
    8330:	e59d2060 	ldr	r2, [sp, #96]	; 0x60
    8334:	e1520004 	cmp	r2, r4
    8338:	c2442001 	subgt	r2, r4, #1
    833c:	e1a0c003 	mov	ip, r3
    8340:	e2400002 	sub	r0, r0, #2
    8344:	e350000e 	cmp	r0, #14
    8348:	979ff100 	ldrls	pc, [pc, r0, lsl #2]
    834c:	ea000042 	b	845c <emit+0x13c>
    8350:	00008434 	andeq	r8, r0, r4, lsr r4
    8354:	0000845c 	andeq	r8, r0, ip, asr r4
    8358:	0000845c 	andeq	r8, r0, ip, asr r4
    835c:	0000845c 	andeq	r8, r0, ip, asr r4
    8360:	0000845c 	andeq	r8, r0, ip, asr r4
    8364:	0000845c 	andeq	r8, r0, ip, asr r4
    8368:	00008428 	andeq	r8, r0, r8, lsr #8
    836c:	0000845c 	andeq	r8, r0, ip, asr r4
    8370:	0000838c 	andeq	r8, r0, ip, lsl #7
    8374:	0000845c 	andeq	r8, r0, ip, asr r4
    8378:	0000845c 	andeq	r8, r0, ip, asr r4
    837c:	0000845c 	andeq	r8, r0, ip, asr r4
    8380:	0000845c 	andeq	r8, r0, ip, asr r4
    8384:	0000845c 	andeq	r8, r0, ip, asr r4
    8388:	00008400 	andeq	r8, r0, r0, lsl #8
    838c:	e59d1064 	ldr	r1, [sp, #100]	; 0x64
    8390:	e2911000 	adds	r1, r1, #0
    8394:	13a01001 	movne	r1, #1
    8398:	e0111fa3 	ands	r1, r1, r3, lsr #31
    839c:	1263c000 	rsbne	ip, r3, #0
    83a0:	13a08001 	movne	r8, #1
    83a4:	03a08000 	moveq	r8, #0
    83a8:	e28d1008 	add	r1, sp, #8
    83ac:	e59f70f4 	ldr	r7, [pc, #244]	; 84a8 <emit+0x188>
    83b0:	e59f60f4 	ldr	r6, [pc, #244]	; 84ac <emit+0x18c>
    83b4:	ea000000 	b	83bc <emit+0x9c>
    83b8:	e1a01003 	mov	r1, r3
    83bc:	e2813001 	add	r3, r1, #1
    83c0:	e08e0c97 	umull	r0, lr, r7, ip
    83c4:	e1a0e1ae 	lsr	lr, lr, #3
    83c8:	e1a0000e 	mov	r0, lr
    83cc:	e08ee10e 	add	lr, lr, lr, lsl #2
    83d0:	e1a0e08e 	lsl	lr, lr, #1
    83d4:	e06ee00c 	rsb	lr, lr, ip
    83d8:	e7d6c00e 	ldrb	ip, [r6, lr]
    83dc:	e5c1c000 	strb	ip, [r1]
    83e0:	e1a0c000 	mov	ip, r0
    83e4:	e3500000 	cmp	r0, #0
    83e8:	1afffff2 	bne	83b8 <emit+0x98>
    83ec:	e3580000 	cmp	r8, #0
    83f0:	12813002 	addne	r3, r1, #2
    83f4:	13a0002d 	movne	r0, #45	; 0x2d
    83f8:	15c10001 	strbne	r0, [r1, #1]
    83fc:	ea00001f 	b	8480 <emit+0x160>
    8400:	e28de008 	add	lr, sp, #8
    8404:	e59f00a4 	ldr	r0, [pc, #164]	; 84b0 <emit+0x190>
    8408:	e28e3001 	add	r3, lr, #1
    840c:	e20c100f 	and	r1, ip, #15
    8410:	e7d01001 	ldrb	r1, [r0, r1]
    8414:	e5ce1000 	strb	r1, [lr]
    8418:	e1a0e003 	mov	lr, r3
    841c:	e1b0c22c 	lsrs	ip, ip, #4
    8420:	1afffff8 	bne	8408 <emit+0xe8>
    8424:	ea000015 	b	8480 <emit+0x160>
    8428:	e5cd3008 	strb	r3, [sp, #8]
    842c:	e28d3009 	add	r3, sp, #9
    8430:	ea000012 	b	8480 <emit+0x160>
    8434:	e28de008 	add	lr, sp, #8
    8438:	e59f0074 	ldr	r0, [pc, #116]	; 84b4 <emit+0x194>
    843c:	e28e3001 	add	r3, lr, #1
    8440:	e20c1001 	and	r1, ip, #1
    8444:	e7d01001 	ldrb	r1, [r0, r1]
    8448:	e5ce1000 	strb	r1, [lr]
    844c:	e1a0e003 	mov	lr, r3
    8450:	e1b0c0ac 	lsrs	ip, ip, #1
    8454:	1afffff8 	bne	843c <emit+0x11c>
    8458:	ea000008 	b	8480 <emit+0x160>
    845c:	ebffff78 	bl	8244 <rpi_reset_putc>
    8460:	e59f3050 	ldr	r3, [pc, #80]	; 84b8 <emit+0x198>
    8464:	e58d3000 	str	r3, [sp]
    8468:	e59f004c 	ldr	r0, [pc, #76]	; 84bc <emit+0x19c>
    846c:	e59f104c 	ldr	r1, [pc, #76]	; 84c0 <emit+0x1a0>
    8470:	e59f204c 	ldr	r2, [pc, #76]	; 84c4 <emit+0x1a4>
    8474:	e3a03075 	mov	r3, #117	; 0x75
    8478:	ebffff56 	bl	81d8 <printk>
    847c:	eb0000d8 	bl	87e4 <clean_reboot>
    8480:	e1a00003 	mov	r0, r3
    8484:	e28d1008 	add	r1, sp, #8
    8488:	ebffff89 	bl	82b4 <pad>
    848c:	e1a02000 	mov	r2, r0
    8490:	e1a00005 	mov	r0, r5
    8494:	e1a01004 	mov	r1, r4
    8498:	e28d3008 	add	r3, sp, #8
    849c:	ebffff8f 	bl	82e0 <reverse>
    84a0:	e28dd048 	add	sp, sp, #72	; 0x48
    84a4:	e8bd81f0 	pop	{r4, r5, r6, r7, r8, pc}
    84a8:	cccccccd 	stclgt	12, cr12, [ip], {205}	; 0xcd
    84ac:	00009958 	andeq	r9, r0, r8, asr r9
    84b0:	00009964 	andeq	r9, r0, r4, ror #18
    84b4:	00009978 	andeq	r9, r0, r8, ror r9
    84b8:	00009954 	andeq	r9, r0, r4, asr r9
    84bc:	0000992c 	andeq	r9, r0, ip, lsr #18
    84c0:	00009940 	andeq	r9, r0, r0, asr #18
    84c4:	00009908 	andeq	r9, r0, r8, lsl #18

000084c8 <rpi_set_output>:
    84c8:	e52de004 	push	{lr}		; (str lr, [sp, #-4]!)
    84cc:	e24dd00c 	sub	sp, sp, #12
    84d0:	e3500000 	cmp	r0, #0
    84d4:	1a000008 	bne	84fc <rpi_set_output+0x34>
    84d8:	ebffff59 	bl	8244 <rpi_reset_putc>
    84dc:	e59f3034 	ldr	r3, [pc, #52]	; 8518 <rpi_set_output+0x50>
    84e0:	e58d3000 	str	r3, [sp]
    84e4:	e59f0030 	ldr	r0, [pc, #48]	; 851c <rpi_set_output+0x54>
    84e8:	e59f1030 	ldr	r1, [pc, #48]	; 8520 <rpi_set_output+0x58>
    84ec:	e59f2030 	ldr	r2, [pc, #48]	; 8524 <rpi_set_output+0x5c>
    84f0:	e3a03020 	mov	r3, #32
    84f4:	ebffff37 	bl	81d8 <printk>
    84f8:	eb0000b9 	bl	87e4 <clean_reboot>
    84fc:	e59f3024 	ldr	r3, [pc, #36]	; 8528 <rpi_set_output+0x60>
    8500:	e5830000 	str	r0, [r3]
    8504:	e3510000 	cmp	r1, #0
    8508:	159f301c 	ldrne	r3, [pc, #28]	; 852c <rpi_set_output+0x64>
    850c:	15831000 	strne	r1, [r3]
    8510:	e28dd00c 	add	sp, sp, #12
    8514:	e49df004 	pop	{pc}		; (ldr pc, [sp], #4)
    8518:	0000997c 	andeq	r9, r0, ip, ror r9
    851c:	0000992c 	andeq	r9, r0, ip, lsr #18
    8520:	00009940 	andeq	r9, r0, r0, asr #18
    8524:	00009910 	andeq	r9, r0, r0, lsl r9
    8528:	000097e8 	andeq	r9, r0, r8, ror #15
    852c:	000097ec 	andeq	r9, r0, ip, ror #15

00008530 <va_printk>:
    8530:	e92d4ff0 	push	{r4, r5, r6, r7, r8, r9, sl, fp, lr}
    8534:	e24dd08c 	sub	sp, sp, #140	; 0x8c
    8538:	e1a0a000 	mov	sl, r0
    853c:	e1a09003 	mov	r9, r3
    8540:	e2411001 	sub	r1, r1, #1
    8544:	e0808001 	add	r8, r0, r1
    8548:	e3a03000 	mov	r3, #0
    854c:	e5c03000 	strb	r3, [r0]
    8550:	e1a04000 	mov	r4, r0
    8554:	e1a0b003 	mov	fp, r3
    8558:	ea000088 	b	8780 <va_printk+0x250>
    855c:	e3530025 	cmp	r3, #37	; 0x25
    8560:	12822001 	addne	r2, r2, #1
    8564:	15c43000 	strbne	r3, [r4]
    8568:	12844001 	addne	r4, r4, #1
    856c:	1a000083 	bne	8780 <va_printk+0x250>
    8570:	e5d21001 	ldrb	r1, [r2, #1]
    8574:	e3510025 	cmp	r1, #37	; 0x25
    8578:	05c43000 	strbeq	r3, [r4]
    857c:	02822002 	addeq	r2, r2, #2
    8580:	02844001 	addeq	r4, r4, #1
    8584:	0a00007d 	beq	8780 <va_printk+0x250>
    8588:	e2826001 	add	r6, r2, #1
    858c:	e1a0700b 	mov	r7, fp
    8590:	ea000004 	b	85a8 <va_printk+0x78>
    8594:	e0877107 	add	r7, r7, r7, lsl #2
    8598:	e1a07087 	lsl	r7, r7, #1
    859c:	e0877005 	add	r7, r7, r5
    85a0:	e2477030 	sub	r7, r7, #48	; 0x30
    85a4:	e2866001 	add	r6, r6, #1
    85a8:	e5d65000 	ldrb	r5, [r6]
    85ac:	e1a00005 	mov	r0, r5
    85b0:	ebffff3a 	bl	82a0 <isdigit>
    85b4:	e3500000 	cmp	r0, #0
    85b8:	1afffff5 	bne	8594 <va_printk+0x64>
    85bc:	e357001f 	cmp	r7, #31
    85c0:	9a000008 	bls	85e8 <va_printk+0xb8>
    85c4:	ebffff1e 	bl	8244 <rpi_reset_putc>
    85c8:	e59f31dc 	ldr	r3, [pc, #476]	; 87ac <va_printk+0x27c>
    85cc:	e58d3000 	str	r3, [sp]
    85d0:	e59f01d8 	ldr	r0, [pc, #472]	; 87b0 <va_printk+0x280>
    85d4:	e59f11d8 	ldr	r1, [pc, #472]	; 87b4 <va_printk+0x284>
    85d8:	e59f21d8 	ldr	r2, [pc, #472]	; 87b8 <va_printk+0x288>
    85dc:	e3a03092 	mov	r3, #146	; 0x92
    85e0:	ebfffefc 	bl	81d8 <printk>
    85e4:	eb00007e 	bl	87e4 <clean_reboot>
    85e8:	e2455062 	sub	r5, r5, #98	; 0x62
    85ec:	e3550016 	cmp	r5, #22
    85f0:	979ff105 	ldrls	pc, [pc, r5, lsl #2]
    85f4:	ea00004e 	b	8734 <va_printk+0x204>
    85f8:	000086e0 	andeq	r8, r0, r0, ror #13
    85fc:	00008710 	andeq	r8, r0, r0, lsl r7
    8600:	00008670 	andeq	r8, r0, r0, ror r6
    8604:	00008734 	andeq	r8, r0, r4, lsr r7
    8608:	00008654 	andeq	r8, r0, r4, asr r6
    860c:	00008734 	andeq	r8, r0, r4, lsr r7
    8610:	00008734 	andeq	r8, r0, r4, lsr r7
    8614:	00008734 	andeq	r8, r0, r4, lsr r7
    8618:	00008734 	andeq	r8, r0, r4, lsr r7
    861c:	00008734 	andeq	r8, r0, r4, lsr r7
    8620:	00008734 	andeq	r8, r0, r4, lsr r7
    8624:	00008734 	andeq	r8, r0, r4, lsr r7
    8628:	00008734 	andeq	r8, r0, r4, lsr r7
    862c:	00008734 	andeq	r8, r0, r4, lsr r7
    8630:	000086bc 			; <UNDEFINED> instruction: 0x000086bc
    8634:	00008734 	andeq	r8, r0, r4, lsr r7
    8638:	00008734 	andeq	r8, r0, r4, lsr r7
    863c:	00008704 	andeq	r8, r0, r4, lsl #14
    8640:	00008734 	andeq	r8, r0, r4, lsr r7
    8644:	00008698 	muleq	r0, r8, r6
    8648:	00008734 	andeq	r8, r0, r4, lsr r7
    864c:	00008734 	andeq	r8, r0, r4, lsr r7
    8650:	000086bc 			; <UNDEFINED> instruction: 0x000086bc
    8654:	ebfffefa 	bl	8244 <rpi_reset_putc>
    8658:	e59f015c 	ldr	r0, [pc, #348]	; 87bc <va_printk+0x28c>
    865c:	e59f1150 	ldr	r1, [pc, #336]	; 87b4 <va_printk+0x284>
    8660:	e59f2150 	ldr	r2, [pc, #336]	; 87b8 <va_printk+0x288>
    8664:	e3a03098 	mov	r3, #152	; 0x98
    8668:	ebfffeda 	bl	81d8 <printk>
    866c:	eb00005c 	bl	87e4 <clean_reboot>
    8670:	e5993000 	ldr	r3, [r9]
    8674:	e2899004 	add	r9, r9, #4
    8678:	e58d7000 	str	r7, [sp]
    867c:	e3a02001 	mov	r2, #1
    8680:	e58d2004 	str	r2, [sp, #4]
    8684:	e3a0000a 	mov	r0, #10
    8688:	e28d1008 	add	r1, sp, #8
    868c:	e3a02080 	mov	r2, #128	; 0x80
    8690:	ebffff22 	bl	8320 <emit>
    8694:	ea00002f 	b	8758 <va_printk+0x228>
    8698:	e5993000 	ldr	r3, [r9]
    869c:	e2899004 	add	r9, r9, #4
    86a0:	e58d7000 	str	r7, [sp]
    86a4:	e58db004 	str	fp, [sp, #4]
    86a8:	e3a0000a 	mov	r0, #10
    86ac:	e28d1008 	add	r1, sp, #8
    86b0:	e3a02080 	mov	r2, #128	; 0x80
    86b4:	ebffff19 	bl	8320 <emit>
    86b8:	ea000026 	b	8758 <va_printk+0x228>
    86bc:	e5993000 	ldr	r3, [r9]
    86c0:	e2899004 	add	r9, r9, #4
    86c4:	e58d7000 	str	r7, [sp]
    86c8:	e58db004 	str	fp, [sp, #4]
    86cc:	e3a00010 	mov	r0, #16
    86d0:	e28d1008 	add	r1, sp, #8
    86d4:	e3a02080 	mov	r2, #128	; 0x80
    86d8:	ebffff10 	bl	8320 <emit>
    86dc:	ea00001d 	b	8758 <va_printk+0x228>
    86e0:	e5993000 	ldr	r3, [r9]
    86e4:	e2899004 	add	r9, r9, #4
    86e8:	e58d7000 	str	r7, [sp]
    86ec:	e58db004 	str	fp, [sp, #4]
    86f0:	e3a00002 	mov	r0, #2
    86f4:	e28d1008 	add	r1, sp, #8
    86f8:	e3a02080 	mov	r2, #128	; 0x80
    86fc:	ebffff07 	bl	8320 <emit>
    8700:	ea000014 	b	8758 <va_printk+0x228>
    8704:	e5990000 	ldr	r0, [r9]
    8708:	e2899004 	add	r9, r9, #4
    870c:	ea000011 	b	8758 <va_printk+0x228>
    8710:	e5993000 	ldr	r3, [r9]
    8714:	e2899004 	add	r9, r9, #4
    8718:	e58d7000 	str	r7, [sp]
    871c:	e58db004 	str	fp, [sp, #4]
    8720:	e3a00008 	mov	r0, #8
    8724:	e08d1000 	add	r1, sp, r0
    8728:	e3a02080 	mov	r2, #128	; 0x80
    872c:	ebfffefb 	bl	8320 <emit>
    8730:	ea000008 	b	8758 <va_printk+0x228>
    8734:	ebfffec2 	bl	8244 <rpi_reset_putc>
    8738:	e5d63000 	ldrb	r3, [r6]
    873c:	e58d3000 	str	r3, [sp]
    8740:	e59f0078 	ldr	r0, [pc, #120]	; 87c0 <va_printk+0x290>
    8744:	e59f1068 	ldr	r1, [pc, #104]	; 87b4 <va_printk+0x284>
    8748:	e59f2068 	ldr	r2, [pc, #104]	; 87b8 <va_printk+0x288>
    874c:	e3a030b9 	mov	r3, #185	; 0xb9
    8750:	ebfffea0 	bl	81d8 <printk>
    8754:	eb000022 	bl	87e4 <clean_reboot>
    8758:	e2862001 	add	r2, r6, #1
    875c:	ea000002 	b	876c <va_printk+0x23c>
    8760:	e2800001 	add	r0, r0, #1
    8764:	e5c43000 	strb	r3, [r4]
    8768:	e2844001 	add	r4, r4, #1
    876c:	e1540008 	cmp	r4, r8
    8770:	2a000002 	bcs	8780 <va_printk+0x250>
    8774:	e5d03000 	ldrb	r3, [r0]
    8778:	e3530000 	cmp	r3, #0
    877c:	1afffff7 	bne	8760 <va_printk+0x230>
    8780:	e5d23000 	ldrb	r3, [r2]
    8784:	e3530000 	cmp	r3, #0
    8788:	0a000001 	beq	8794 <va_printk+0x264>
    878c:	e1540008 	cmp	r4, r8
    8790:	3affff71 	bcc	855c <va_printk+0x2c>
    8794:	e2840001 	add	r0, r4, #1
    8798:	e3a03000 	mov	r3, #0
    879c:	e5c43000 	strb	r3, [r4]
    87a0:	e06a0000 	rsb	r0, sl, r0
    87a4:	e28dd08c 	add	sp, sp, #140	; 0x8c
    87a8:	e8bd8ff0 	pop	{r4, r5, r6, r7, r8, r9, sl, fp, pc}
    87ac:	00009984 	andeq	r9, r0, r4, lsl #19
    87b0:	0000992c 	andeq	r9, r0, ip, lsr #18
    87b4:	00009940 	andeq	r9, r0, r0, asr #18
    87b8:	00009920 	andeq	r9, r0, r0, lsr #18
    87bc:	00009990 	muleq	r0, r0, r9
    87c0:	000099b8 			; <UNDEFINED> instruction: 0x000099b8

000087c4 <enable_cache>:
    87c4:	ee113f10 	mrc	15, 0, r3, cr1, cr0, {0}
    87c8:	e3833b06 	orr	r3, r3, #6144	; 0x1800
    87cc:	ee013f10 	mcr	15, 0, r3, cr1, cr0, {0}
    87d0:	e12fff1e 	bx	lr

000087d4 <disable_cache>:
    87d4:	ee113f10 	mrc	15, 0, r3, cr1, cr0, {0}
    87d8:	e3c33b06 	bic	r3, r3, #6144	; 0x1800
    87dc:	ee013f10 	mcr	15, 0, r3, cr1, cr0, {0}
    87e0:	e12fff1e 	bx	lr

000087e4 <clean_reboot>:
    87e4:	e92d4008 	push	{r3, lr}
    87e8:	e59f3014 	ldr	r3, [pc, #20]	; 8804 <clean_reboot+0x20>
    87ec:	e5933000 	ldr	r3, [r3]
    87f0:	e59f0010 	ldr	r0, [pc, #16]	; 8808 <clean_reboot+0x24>
    87f4:	e12fff33 	blx	r3
    87f8:	e3a00064 	mov	r0, #100	; 0x64
    87fc:	eb000063 	bl	8990 <delay_ms>
    8800:	eb000038 	bl	88e8 <rpi_reboot>
    8804:	000097ec 	andeq	r9, r0, ip, ror #15
    8808:	000099f0 	strdeq	r9, [r0], -r0

0000880c <internal_sw_putchar>:
    880c:	e92d4010 	push	{r4, lr}
    8810:	e1a04000 	mov	r4, r0
    8814:	e59f000c 	ldr	r0, [pc, #12]	; 8828 <internal_sw_putchar+0x1c>
    8818:	e6ef1074 	uxtb	r1, r4
    881c:	eb0001cd 	bl	8f58 <sw_uart_putc>
    8820:	e1a00004 	mov	r0, r4
    8824:	e8bd8010 	pop	{r4, pc}
    8828:	00009f44 	andeq	r9, r0, r4, asr #30

0000882c <_cstart>:
    882c:	e92d4008 	push	{r3, lr}
    8830:	e59f3068 	ldr	r3, [pc, #104]	; 88a0 <_cstart+0x74>
    8834:	e59f2068 	ldr	r2, [pc, #104]	; 88a4 <_cstart+0x78>
    8838:	e3a01000 	mov	r1, #0
    883c:	ea000001 	b	8848 <_cstart+0x1c>
    8840:	e5831000 	str	r1, [r3]
    8844:	e2833004 	add	r3, r3, #4
    8848:	e1530002 	cmp	r3, r2
    884c:	3afffffb 	bcc	8840 <_cstart+0x14>
    8850:	eb0003d2 	bl	97a0 <cb_get_block>
    8854:	e3500000 	cmp	r0, #0
    8858:	0a00000e 	beq	8898 <_cstart+0x6c>
    885c:	e5d02004 	ldrb	r2, [r0, #4]
    8860:	e3520002 	cmp	r2, #2
    8864:	1a00000b 	bne	8898 <_cstart+0x6c>
    8868:	e59f1038 	ldr	r1, [pc, #56]	; 88a8 <_cstart+0x7c>
    886c:	e59f2038 	ldr	r2, [pc, #56]	; 88ac <_cstart+0x80>
    8870:	e5821000 	str	r1, [r2]
    8874:	e59fc034 	ldr	ip, [pc, #52]	; 88b0 <_cstart+0x84>
    8878:	e2803008 	add	r3, r0, #8
    887c:	e8930007 	ldm	r3, {r0, r1, r2}
    8880:	e88c0007 	stm	ip, {r0, r1, r2}
    8884:	e1a0000c 	mov	r0, ip
    8888:	e59f1024 	ldr	r1, [pc, #36]	; 88b4 <_cstart+0x88>
    888c:	eb000314 	bl	94e4 <sw_uart_printk>
    8890:	e59f0020 	ldr	r0, [pc, #32]	; 88b8 <_cstart+0x8c>
    8894:	ebfffe4f 	bl	81d8 <printk>
    8898:	ebfffe3a 	bl	8188 <notmain>
    889c:	eb000011 	bl	88e8 <rpi_reboot>
    88a0:	00009b44 	andeq	r9, r0, r4, asr #22
    88a4:	00009f50 	andeq	r9, r0, r0, asr pc
    88a8:	0000880c 	andeq	r8, r0, ip, lsl #16
    88ac:	000097e8 	andeq	r9, r0, r8, ror #15
    88b0:	00009f44 	andeq	r9, r0, r4, asr #30
    88b4:	000099fc 	strdeq	r9, [r0], -ip
    88b8:	00009a20 	andeq	r9, r0, r0, lsr #20

000088bc <at_user_level>:
    88bc:	e10f0000 	mrs	r0, CPSR
    88c0:	e200001f 	and	r0, r0, #31
    88c4:	e3500010 	cmp	r0, #16
    88c8:	13a00000 	movne	r0, #0
    88cc:	03a00001 	moveq	r0, #1
    88d0:	e12fff1e 	bx	lr

000088d4 <set_user_level>:
    88d4:	e10f3000 	mrs	r3, CPSR
    88d8:	e3c3301f 	bic	r3, r3, #31
    88dc:	e3833010 	orr	r3, r3, #16
    88e0:	e129f003 	msr	CPSR_fc, r3
    88e4:	e12fff1e 	bx	lr

000088e8 <rpi_reboot>:
    88e8:	e92d4008 	push	{r3, lr}
    88ec:	ebfffff2 	bl	88bc <at_user_level>
    88f0:	e3500000 	cmp	r0, #0
    88f4:	0a000000 	beq	88fc <rpi_reboot+0x14>
    88f8:	ebfffff5 	bl	88d4 <set_user_level>
    88fc:	e3a0001e 	mov	r0, #30
    8900:	eb000022 	bl	8990 <delay_ms>
    8904:	e59f0014 	ldr	r0, [pc, #20]	; 8920 <rpi_reboot+0x38>
    8908:	e59f1014 	ldr	r1, [pc, #20]	; 8924 <rpi_reboot+0x3c>
    890c:	eb000388 	bl	9734 <PUT32>
    8910:	e59f0010 	ldr	r0, [pc, #16]	; 8928 <rpi_reboot+0x40>
    8914:	e59f1010 	ldr	r1, [pc, #16]	; 892c <rpi_reboot+0x44>
    8918:	eb000385 	bl	9734 <PUT32>
    891c:	eafffffe 	b	891c <rpi_reboot+0x34>
    8920:	20100024 	andscs	r0, r0, r4, lsr #32
    8924:	5a000001 	bpl	8930 <delay_cycles>
    8928:	2010001c 	andscs	r0, r0, ip, lsl r0
    892c:	5a000020 	bpl	89b4 <delay_sec+0x10>

00008930 <delay_cycles>:
    8930:	ea000001 	b	893c <delay_cycles+0xc>
    8934:	e2811000 	add	r1, r1, #0
    8938:	e1a00003 	mov	r0, r3
    893c:	e2403001 	sub	r3, r0, #1
    8940:	e3500000 	cmp	r0, #0
    8944:	1afffffa 	bne	8934 <delay_cycles+0x4>
    8948:	e12fff1e 	bx	lr

0000894c <timer_get_usec_raw>:
    894c:	e92d4008 	push	{r3, lr}
    8950:	e59f0004 	ldr	r0, [pc, #4]	; 895c <timer_get_usec_raw+0x10>
    8954:	eb000382 	bl	9764 <GET32>
    8958:	e8bd8008 	pop	{r3, pc}
    895c:	20003004 	andcs	r3, r0, r4

00008960 <timer_get_usec>:
    8960:	e92d4008 	push	{r3, lr}
    8964:	ebfffff8 	bl	894c <timer_get_usec_raw>
    8968:	e8bd8008 	pop	{r3, pc}

0000896c <delay_us>:
    896c:	e92d4038 	push	{r3, r4, r5, lr}
    8970:	e1a05000 	mov	r5, r0
    8974:	ebfffff9 	bl	8960 <timer_get_usec>
    8978:	e1a04000 	mov	r4, r0
    897c:	ebfffff7 	bl	8960 <timer_get_usec>
    8980:	e0640000 	rsb	r0, r4, r0
    8984:	e1500005 	cmp	r0, r5
    8988:	3afffffb 	bcc	897c <delay_us+0x10>
    898c:	e8bd8038 	pop	{r3, r4, r5, pc}

00008990 <delay_ms>:
    8990:	e92d4008 	push	{r3, lr}
    8994:	e3a03ffa 	mov	r3, #1000	; 0x3e8
    8998:	e0000093 	mul	r0, r3, r0
    899c:	ebfffff2 	bl	896c <delay_us>
    89a0:	e8bd8008 	pop	{r3, pc}

000089a4 <delay_sec>:
    89a4:	e92d4008 	push	{r3, lr}
    89a8:	e3a03ffa 	mov	r3, #1000	; 0x3e8
    89ac:	e0000093 	mul	r0, r3, r0
    89b0:	ebfffff6 	bl	8990 <delay_ms>
    89b4:	e8bd8008 	pop	{r3, pc}

000089b8 <gpio_set_output>:
    89b8:	e92d4038 	push	{r3, r4, r5, lr}
    89bc:	e1a04000 	mov	r4, r0
    89c0:	e350001f 	cmp	r0, #31
    89c4:	88bd8038 	pophi	{r3, r4, r5, pc}
    89c8:	e59f30b4 	ldr	r3, [pc, #180]	; 8a84 <gpio_set_output+0xcc>
    89cc:	e0832093 	umull	r2, r3, r3, r0
    89d0:	e1a031a3 	lsr	r3, r3, #3
    89d4:	e3530005 	cmp	r3, #5
    89d8:	979ff103 	ldrls	pc, [pc, r3, lsl #2]
    89dc:	ea000017 	b	8a40 <gpio_set_output+0x88>
    89e0:	000089f8 	strdeq	r8, [r0], -r8	; <UNPREDICTABLE>
    89e4:	00008a04 	andeq	r8, r0, r4, lsl #20
    89e8:	00008a10 	andeq	r8, r0, r0, lsl sl
    89ec:	00008a1c 	andeq	r8, r0, ip, lsl sl
    89f0:	00008a28 	andeq	r8, r0, r8, lsr #20
    89f4:	00008a34 	andeq	r8, r0, r4, lsr sl
    89f8:	e59f3088 	ldr	r3, [pc, #136]	; 8a88 <gpio_set_output+0xd0>
    89fc:	e5935000 	ldr	r5, [r3]
    8a00:	ea00000f 	b	8a44 <gpio_set_output+0x8c>
    8a04:	e59f307c 	ldr	r3, [pc, #124]	; 8a88 <gpio_set_output+0xd0>
    8a08:	e5935004 	ldr	r5, [r3, #4]
    8a0c:	ea00000c 	b	8a44 <gpio_set_output+0x8c>
    8a10:	e59f3070 	ldr	r3, [pc, #112]	; 8a88 <gpio_set_output+0xd0>
    8a14:	e5935008 	ldr	r5, [r3, #8]
    8a18:	ea000009 	b	8a44 <gpio_set_output+0x8c>
    8a1c:	e59f3064 	ldr	r3, [pc, #100]	; 8a88 <gpio_set_output+0xd0>
    8a20:	e593500c 	ldr	r5, [r3, #12]
    8a24:	ea000006 	b	8a44 <gpio_set_output+0x8c>
    8a28:	e59f3058 	ldr	r3, [pc, #88]	; 8a88 <gpio_set_output+0xd0>
    8a2c:	e5935010 	ldr	r5, [r3, #16]
    8a30:	ea000003 	b	8a44 <gpio_set_output+0x8c>
    8a34:	e59f304c 	ldr	r3, [pc, #76]	; 8a88 <gpio_set_output+0xd0>
    8a38:	e5935014 	ldr	r5, [r3, #20]
    8a3c:	ea000000 	b	8a44 <gpio_set_output+0x8c>
    8a40:	e3a05000 	mov	r5, #0
    8a44:	e1a00005 	mov	r0, r5
    8a48:	eb000343 	bl	975c <get32>
    8a4c:	e59f1030 	ldr	r1, [pc, #48]	; 8a84 <gpio_set_output+0xcc>
    8a50:	e0813491 	umull	r3, r1, r1, r4
    8a54:	e1a011a1 	lsr	r1, r1, #3
    8a58:	e0811101 	add	r1, r1, r1, lsl #2
    8a5c:	e1a01081 	lsl	r1, r1, #1
    8a60:	e0611004 	rsb	r1, r1, r4
    8a64:	e0811081 	add	r1, r1, r1, lsl #1
    8a68:	e3a03007 	mov	r3, #7
    8a6c:	e1c03113 	bic	r3, r0, r3, lsl r1
    8a70:	e1a00005 	mov	r0, r5
    8a74:	e3a02001 	mov	r2, #1
    8a78:	e1831112 	orr	r1, r3, r2, lsl r1
    8a7c:	eb00032a 	bl	972c <put32>
    8a80:	e8bd8038 	pop	{r3, r4, r5, pc}
    8a84:	cccccccd 	stclgt	12, cr12, [ip], {205}	; 0xcd
    8a88:	000097f0 	strdeq	r9, [r0], -r0

00008a8c <gpio_set_on>:
    8a8c:	e92d4008 	push	{r3, lr}
    8a90:	e350001f 	cmp	r0, #31
    8a94:	88bd8008 	pophi	{r3, pc}
    8a98:	959f3020 	ldrls	r3, [pc, #32]	; 8ac0 <gpio_set_on+0x34>
    8a9c:	95932018 	ldrls	r2, [r3, #24]
    8aa0:	859f3018 	ldrhi	r3, [pc, #24]	; 8ac0 <gpio_set_on+0x34>
    8aa4:	8593201c 	ldrhi	r2, [r3, #28]
    8aa8:	e200301f 	and	r3, r0, #31
    8aac:	e1a00002 	mov	r0, r2
    8ab0:	e3a01001 	mov	r1, #1
    8ab4:	e1a01311 	lsl	r1, r1, r3
    8ab8:	eb00031b 	bl	972c <put32>
    8abc:	e8bd8008 	pop	{r3, pc}
    8ac0:	000097f0 	strdeq	r9, [r0], -r0

00008ac4 <gpio_set_off>:
    8ac4:	e92d4008 	push	{r3, lr}
    8ac8:	e350001f 	cmp	r0, #31
    8acc:	88bd8008 	pophi	{r3, pc}
    8ad0:	959f3020 	ldrls	r3, [pc, #32]	; 8af8 <gpio_set_off+0x34>
    8ad4:	95932020 	ldrls	r2, [r3, #32]
    8ad8:	859f3018 	ldrhi	r3, [pc, #24]	; 8af8 <gpio_set_off+0x34>
    8adc:	85932024 	ldrhi	r2, [r3, #36]	; 0x24
    8ae0:	e200301f 	and	r3, r0, #31
    8ae4:	e1a00002 	mov	r0, r2
    8ae8:	e3a01001 	mov	r1, #1
    8aec:	e1a01311 	lsl	r1, r1, r3
    8af0:	eb00030d 	bl	972c <put32>
    8af4:	e8bd8008 	pop	{r3, pc}
    8af8:	000097f0 	strdeq	r9, [r0], -r0

00008afc <gpio_set_input>:
    8afc:	e92d4038 	push	{r3, r4, r5, lr}
    8b00:	e1a04000 	mov	r4, r0
    8b04:	e350001f 	cmp	r0, #31
    8b08:	88bd8038 	pophi	{r3, r4, r5, pc}
    8b0c:	e59f30ac 	ldr	r3, [pc, #172]	; 8bc0 <gpio_set_input+0xc4>
    8b10:	e0832093 	umull	r2, r3, r3, r0
    8b14:	e1a031a3 	lsr	r3, r3, #3
    8b18:	e3530005 	cmp	r3, #5
    8b1c:	979ff103 	ldrls	pc, [pc, r3, lsl #2]
    8b20:	ea000017 	b	8b84 <gpio_set_input+0x88>
    8b24:	00008b3c 	andeq	r8, r0, ip, lsr fp
    8b28:	00008b48 	andeq	r8, r0, r8, asr #22
    8b2c:	00008b54 	andeq	r8, r0, r4, asr fp
    8b30:	00008b60 	andeq	r8, r0, r0, ror #22
    8b34:	00008b6c 	andeq	r8, r0, ip, ror #22
    8b38:	00008b78 	andeq	r8, r0, r8, ror fp
    8b3c:	e59f3080 	ldr	r3, [pc, #128]	; 8bc4 <gpio_set_input+0xc8>
    8b40:	e5935000 	ldr	r5, [r3]
    8b44:	ea00000f 	b	8b88 <gpio_set_input+0x8c>
    8b48:	e59f3074 	ldr	r3, [pc, #116]	; 8bc4 <gpio_set_input+0xc8>
    8b4c:	e5935004 	ldr	r5, [r3, #4]
    8b50:	ea00000c 	b	8b88 <gpio_set_input+0x8c>
    8b54:	e59f3068 	ldr	r3, [pc, #104]	; 8bc4 <gpio_set_input+0xc8>
    8b58:	e5935008 	ldr	r5, [r3, #8]
    8b5c:	ea000009 	b	8b88 <gpio_set_input+0x8c>
    8b60:	e59f305c 	ldr	r3, [pc, #92]	; 8bc4 <gpio_set_input+0xc8>
    8b64:	e593500c 	ldr	r5, [r3, #12]
    8b68:	ea000006 	b	8b88 <gpio_set_input+0x8c>
    8b6c:	e59f3050 	ldr	r3, [pc, #80]	; 8bc4 <gpio_set_input+0xc8>
    8b70:	e5935010 	ldr	r5, [r3, #16]
    8b74:	ea000003 	b	8b88 <gpio_set_input+0x8c>
    8b78:	e59f3044 	ldr	r3, [pc, #68]	; 8bc4 <gpio_set_input+0xc8>
    8b7c:	e5935014 	ldr	r5, [r3, #20]
    8b80:	ea000000 	b	8b88 <gpio_set_input+0x8c>
    8b84:	e3a05000 	mov	r5, #0
    8b88:	e1a00005 	mov	r0, r5
    8b8c:	eb0002f2 	bl	975c <get32>
    8b90:	e59f1028 	ldr	r1, [pc, #40]	; 8bc0 <gpio_set_input+0xc4>
    8b94:	e0813491 	umull	r3, r1, r1, r4
    8b98:	e1a011a1 	lsr	r1, r1, #3
    8b9c:	e0811101 	add	r1, r1, r1, lsl #2
    8ba0:	e1a01081 	lsl	r1, r1, #1
    8ba4:	e0611004 	rsb	r1, r1, r4
    8ba8:	e0811081 	add	r1, r1, r1, lsl #1
    8bac:	e3a03007 	mov	r3, #7
    8bb0:	e1c01113 	bic	r1, r0, r3, lsl r1
    8bb4:	e1a00005 	mov	r0, r5
    8bb8:	eb0002db 	bl	972c <put32>
    8bbc:	e8bd8038 	pop	{r3, r4, r5, pc}
    8bc0:	cccccccd 	stclgt	12, cr12, [ip], {205}	; 0xcd
    8bc4:	000097f0 	strdeq	r9, [r0], -r0

00008bc8 <gpio_read>:
    8bc8:	e92d4010 	push	{r4, lr}
    8bcc:	e1a04000 	mov	r4, r0
    8bd0:	e350001f 	cmp	r0, #31
    8bd4:	8a00000b 	bhi	8c08 <gpio_read+0x40>
    8bd8:	8a000003 	bhi	8bec <gpio_read+0x24>
    8bdc:	e59f302c 	ldr	r3, [pc, #44]	; 8c10 <gpio_read+0x48>
    8be0:	e5930028 	ldr	r0, [r3, #40]	; 0x28
    8be4:	eb0002dc 	bl	975c <get32>
    8be8:	ea000002 	b	8bf8 <gpio_read+0x30>
    8bec:	e59f301c 	ldr	r3, [pc, #28]	; 8c10 <gpio_read+0x48>
    8bf0:	e593002c 	ldr	r0, [r3, #44]	; 0x2c
    8bf4:	eb0002d8 	bl	975c <get32>
    8bf8:	e204401f 	and	r4, r4, #31
    8bfc:	e3a03001 	mov	r3, #1
    8c00:	e0000413 	and	r0, r0, r3, lsl r4
    8c04:	e8bd8010 	pop	{r4, pc}
    8c08:	e3e00000 	mvn	r0, #0
    8c0c:	e8bd8010 	pop	{r4, pc}
    8c10:	000097f0 	strdeq	r9, [r0], -r0

00008c14 <gpio_write>:
    8c14:	e92d4008 	push	{r3, lr}
    8c18:	e350001f 	cmp	r0, #31
    8c1c:	88bd8008 	pophi	{r3, pc}
    8c20:	e3510000 	cmp	r1, #0
    8c24:	0a000001 	beq	8c30 <gpio_write+0x1c>
    8c28:	ebffff97 	bl	8a8c <gpio_set_on>
    8c2c:	e8bd8008 	pop	{r3, pc}
    8c30:	ebffffa3 	bl	8ac4 <gpio_set_off>
    8c34:	e8bd8008 	pop	{r3, pc}

00008c38 <gpio_set_function>:
    8c38:	e92d4070 	push	{r4, r5, r6, lr}
    8c3c:	e1a04000 	mov	r4, r0
    8c40:	e1a05001 	mov	r5, r1
    8c44:	e3510007 	cmp	r1, #7
    8c48:	9350001f 	cmpls	r0, #31
    8c4c:	88bd8070 	pophi	{r4, r5, r6, pc}
    8c50:	e59f30b0 	ldr	r3, [pc, #176]	; 8d08 <gpio_set_function+0xd0>
    8c54:	e0832093 	umull	r2, r3, r3, r0
    8c58:	e1a031a3 	lsr	r3, r3, #3
    8c5c:	e3530005 	cmp	r3, #5
    8c60:	979ff103 	ldrls	pc, [pc, r3, lsl #2]
    8c64:	ea000017 	b	8cc8 <gpio_set_function+0x90>
    8c68:	00008c80 	andeq	r8, r0, r0, lsl #25
    8c6c:	00008c8c 	andeq	r8, r0, ip, lsl #25
    8c70:	00008c98 	muleq	r0, r8, ip
    8c74:	00008ca4 	andeq	r8, r0, r4, lsr #25
    8c78:	00008cb0 			; <UNDEFINED> instruction: 0x00008cb0
    8c7c:	00008cbc 			; <UNDEFINED> instruction: 0x00008cbc
    8c80:	e59f3084 	ldr	r3, [pc, #132]	; 8d0c <gpio_set_function+0xd4>
    8c84:	e5936000 	ldr	r6, [r3]
    8c88:	ea00000f 	b	8ccc <gpio_set_function+0x94>
    8c8c:	e59f3078 	ldr	r3, [pc, #120]	; 8d0c <gpio_set_function+0xd4>
    8c90:	e5936004 	ldr	r6, [r3, #4]
    8c94:	ea00000c 	b	8ccc <gpio_set_function+0x94>
    8c98:	e59f306c 	ldr	r3, [pc, #108]	; 8d0c <gpio_set_function+0xd4>
    8c9c:	e5936008 	ldr	r6, [r3, #8]
    8ca0:	ea000009 	b	8ccc <gpio_set_function+0x94>
    8ca4:	e59f3060 	ldr	r3, [pc, #96]	; 8d0c <gpio_set_function+0xd4>
    8ca8:	e593600c 	ldr	r6, [r3, #12]
    8cac:	ea000006 	b	8ccc <gpio_set_function+0x94>
    8cb0:	e59f3054 	ldr	r3, [pc, #84]	; 8d0c <gpio_set_function+0xd4>
    8cb4:	e5936010 	ldr	r6, [r3, #16]
    8cb8:	ea000003 	b	8ccc <gpio_set_function+0x94>
    8cbc:	e59f3048 	ldr	r3, [pc, #72]	; 8d0c <gpio_set_function+0xd4>
    8cc0:	e5936014 	ldr	r6, [r3, #20]
    8cc4:	ea000000 	b	8ccc <gpio_set_function+0x94>
    8cc8:	e3a06000 	mov	r6, #0
    8ccc:	e1a00006 	mov	r0, r6
    8cd0:	eb0002a1 	bl	975c <get32>
    8cd4:	e59f302c 	ldr	r3, [pc, #44]	; 8d08 <gpio_set_function+0xd0>
    8cd8:	e0832493 	umull	r2, r3, r3, r4
    8cdc:	e1a031a3 	lsr	r3, r3, #3
    8ce0:	e0833103 	add	r3, r3, r3, lsl #2
    8ce4:	e1a03083 	lsl	r3, r3, #1
    8ce8:	e0633004 	rsb	r3, r3, r4
    8cec:	e0833083 	add	r3, r3, r3, lsl #1
    8cf0:	e3a01007 	mov	r1, #7
    8cf4:	e1c01311 	bic	r1, r0, r1, lsl r3
    8cf8:	e1a00006 	mov	r0, r6
    8cfc:	e1811315 	orr	r1, r1, r5, lsl r3
    8d00:	eb000289 	bl	972c <put32>
    8d04:	e8bd8070 	pop	{r4, r5, r6, pc}
    8d08:	cccccccd 	stclgt	12, cr12, [ip], {205}	; 0xcd
    8d0c:	000097f0 	strdeq	r9, [r0], -r0

00008d10 <gpio_toggle>:
    8d10:	e92d4008 	push	{r3, lr}
    8d14:	e350001f 	cmp	r0, #31
    8d18:	88bd8008 	pophi	{r3, pc}
    8d1c:	959f3020 	ldrls	r3, [pc, #32]	; 8d44 <gpio_toggle+0x34>
    8d20:	95932018 	ldrls	r2, [r3, #24]
    8d24:	859f3018 	ldrhi	r3, [pc, #24]	; 8d44 <gpio_toggle+0x34>
    8d28:	8593201c 	ldrhi	r2, [r3, #28]
    8d2c:	e200301f 	and	r3, r0, #31
    8d30:	e1a00002 	mov	r0, r2
    8d34:	e3a01001 	mov	r1, #1
    8d38:	e1a01311 	lsl	r1, r1, r3
    8d3c:	eb00027a 	bl	972c <put32>
    8d40:	e8bd8008 	pop	{r3, pc}
    8d44:	000097f0 	strdeq	r9, [r0], -r0

00008d48 <is_gpio_int>:
    8d48:	e92d4008 	push	{r3, lr}
    8d4c:	e59f301c 	ldr	r3, [pc, #28]	; 8d70 <is_gpio_int+0x28>
    8d50:	e5930030 	ldr	r0, [r3, #48]	; 0x30
    8d54:	eb000280 	bl	975c <get32>
    8d58:	e3500000 	cmp	r0, #0
    8d5c:	0a000001 	beq	8d68 <is_gpio_int+0x20>
    8d60:	e3a00001 	mov	r0, #1
    8d64:	e8bd8008 	pop	{r3, pc}
    8d68:	e3a00000 	mov	r0, #0
    8d6c:	e8bd8008 	pop	{r3, pc}
    8d70:	000097f0 	strdeq	r9, [r0], -r0

00008d74 <gpio_int_rising_edge>:
    8d74:	e92d4038 	push	{r3, r4, r5, lr}
    8d78:	e1a04000 	mov	r4, r0
    8d7c:	e350001f 	cmp	r0, #31
    8d80:	88bd8038 	pophi	{r3, r4, r5, pc}
    8d84:	eb000262 	bl	9714 <dev_barrier>
    8d88:	e354001f 	cmp	r4, #31
    8d8c:	8a000007 	bhi	8db0 <gpio_int_rising_edge+0x3c>
    8d90:	e59f505c 	ldr	r5, [pc, #92]	; 8df4 <gpio_int_rising_edge+0x80>
    8d94:	e5950034 	ldr	r0, [r5, #52]	; 0x34
    8d98:	eb00026f 	bl	975c <get32>
    8d9c:	e3a01001 	mov	r1, #1
    8da0:	e1801411 	orr	r1, r0, r1, lsl r4
    8da4:	e5950034 	ldr	r0, [r5, #52]	; 0x34
    8da8:	eb00025f 	bl	972c <put32>
    8dac:	ea000007 	b	8dd0 <gpio_int_rising_edge+0x5c>
    8db0:	e59f503c 	ldr	r5, [pc, #60]	; 8df4 <gpio_int_rising_edge+0x80>
    8db4:	e5950038 	ldr	r0, [r5, #56]	; 0x38
    8db8:	eb000267 	bl	975c <get32>
    8dbc:	e204401f 	and	r4, r4, #31
    8dc0:	e3a01001 	mov	r1, #1
    8dc4:	e1801411 	orr	r1, r0, r1, lsl r4
    8dc8:	e5950038 	ldr	r0, [r5, #56]	; 0x38
    8dcc:	eb000256 	bl	972c <put32>
    8dd0:	eb00024f 	bl	9714 <dev_barrier>
    8dd4:	e59f4018 	ldr	r4, [pc, #24]	; 8df4 <gpio_int_rising_edge+0x80>
    8dd8:	e594003c 	ldr	r0, [r4, #60]	; 0x3c
    8ddc:	eb00025e 	bl	975c <get32>
    8de0:	e3801802 	orr	r1, r0, #131072	; 0x20000
    8de4:	e594003c 	ldr	r0, [r4, #60]	; 0x3c
    8de8:	eb00024f 	bl	972c <put32>
    8dec:	eb000248 	bl	9714 <dev_barrier>
    8df0:	e8bd8038 	pop	{r3, r4, r5, pc}
    8df4:	000097f0 	strdeq	r9, [r0], -r0

00008df8 <gpio_int_falling_edge>:
    8df8:	e92d4038 	push	{r3, r4, r5, lr}
    8dfc:	e1a04000 	mov	r4, r0
    8e00:	e350001f 	cmp	r0, #31
    8e04:	88bd8038 	pophi	{r3, r4, r5, pc}
    8e08:	eb000241 	bl	9714 <dev_barrier>
    8e0c:	e354001f 	cmp	r4, #31
    8e10:	8a000007 	bhi	8e34 <gpio_int_falling_edge+0x3c>
    8e14:	e59f505c 	ldr	r5, [pc, #92]	; 8e78 <gpio_int_falling_edge+0x80>
    8e18:	e5950040 	ldr	r0, [r5, #64]	; 0x40
    8e1c:	eb00024e 	bl	975c <get32>
    8e20:	e3a01001 	mov	r1, #1
    8e24:	e1801411 	orr	r1, r0, r1, lsl r4
    8e28:	e5950040 	ldr	r0, [r5, #64]	; 0x40
    8e2c:	eb00023e 	bl	972c <put32>
    8e30:	ea000007 	b	8e54 <gpio_int_falling_edge+0x5c>
    8e34:	e59f503c 	ldr	r5, [pc, #60]	; 8e78 <gpio_int_falling_edge+0x80>
    8e38:	e5950044 	ldr	r0, [r5, #68]	; 0x44
    8e3c:	eb000246 	bl	975c <get32>
    8e40:	e204401f 	and	r4, r4, #31
    8e44:	e3a01001 	mov	r1, #1
    8e48:	e1801411 	orr	r1, r0, r1, lsl r4
    8e4c:	e5950044 	ldr	r0, [r5, #68]	; 0x44
    8e50:	eb000235 	bl	972c <put32>
    8e54:	eb00022e 	bl	9714 <dev_barrier>
    8e58:	e59f4018 	ldr	r4, [pc, #24]	; 8e78 <gpio_int_falling_edge+0x80>
    8e5c:	e594003c 	ldr	r0, [r4, #60]	; 0x3c
    8e60:	eb00023d 	bl	975c <get32>
    8e64:	e3801601 	orr	r1, r0, #1048576	; 0x100000
    8e68:	e594003c 	ldr	r0, [r4, #60]	; 0x3c
    8e6c:	eb00022e 	bl	972c <put32>
    8e70:	eb000227 	bl	9714 <dev_barrier>
    8e74:	e8bd8038 	pop	{r3, r4, r5, pc}
    8e78:	000097f0 	strdeq	r9, [r0], -r0

00008e7c <gpio_event_detected>:
    8e7c:	e92d4010 	push	{r4, lr}
    8e80:	e1a04000 	mov	r4, r0
    8e84:	e350001f 	cmp	r0, #31
    8e88:	8a000019 	bhi	8ef4 <gpio_event_detected+0x78>
    8e8c:	eb000220 	bl	9714 <dev_barrier>
    8e90:	e354001f 	cmp	r4, #31
    8e94:	8a000008 	bhi	8ebc <gpio_event_detected+0x40>
    8e98:	e59f305c 	ldr	r3, [pc, #92]	; 8efc <gpio_event_detected+0x80>
    8e9c:	e5930048 	ldr	r0, [r3, #72]	; 0x48
    8ea0:	eb00022d 	bl	975c <get32>
    8ea4:	e3a03001 	mov	r3, #1
    8ea8:	e0103413 	ands	r3, r0, r3, lsl r4
    8eac:	0a00000d 	beq	8ee8 <gpio_event_detected+0x6c>
    8eb0:	eb000217 	bl	9714 <dev_barrier>
    8eb4:	e3a00001 	mov	r0, #1
    8eb8:	e8bd8010 	pop	{r4, pc}
    8ebc:	e59f3038 	ldr	r3, [pc, #56]	; 8efc <gpio_event_detected+0x80>
    8ec0:	e593004c 	ldr	r0, [r3, #76]	; 0x4c
    8ec4:	eb000224 	bl	975c <get32>
    8ec8:	e3a03001 	mov	r3, #1
    8ecc:	e0004413 	and	r4, r0, r3, lsl r4
    8ed0:	eb00020f 	bl	9714 <dev_barrier>
    8ed4:	e3540000 	cmp	r4, #0
    8ed8:	0a000002 	beq	8ee8 <gpio_event_detected+0x6c>
    8edc:	eb00020c 	bl	9714 <dev_barrier>
    8ee0:	e3a00001 	mov	r0, #1
    8ee4:	e8bd8010 	pop	{r4, pc}
    8ee8:	eb000209 	bl	9714 <dev_barrier>
    8eec:	e3a00000 	mov	r0, #0
    8ef0:	e8bd8010 	pop	{r4, pc}
    8ef4:	e3e00000 	mvn	r0, #0
    8ef8:	e8bd8010 	pop	{r4, pc}
    8efc:	000097f0 	strdeq	r9, [r0], -r0

00008f00 <gpio_event_clear>:
    8f00:	e92d4010 	push	{r4, lr}
    8f04:	e1a04000 	mov	r4, r0
    8f08:	e350001f 	cmp	r0, #31
    8f0c:	88bd8010 	pophi	{r4, pc}
    8f10:	eb0001ff 	bl	9714 <dev_barrier>
    8f14:	e354001f 	cmp	r4, #31
    8f18:	8a000005 	bhi	8f34 <gpio_event_clear+0x34>
    8f1c:	e59f3030 	ldr	r3, [pc, #48]	; 8f54 <gpio_event_clear+0x54>
    8f20:	e5930048 	ldr	r0, [r3, #72]	; 0x48
    8f24:	e3a01001 	mov	r1, #1
    8f28:	e1a01411 	lsl	r1, r1, r4
    8f2c:	eb0001fe 	bl	972c <put32>
    8f30:	ea000005 	b	8f4c <gpio_event_clear+0x4c>
    8f34:	e204401f 	and	r4, r4, #31
    8f38:	e59f3014 	ldr	r3, [pc, #20]	; 8f54 <gpio_event_clear+0x54>
    8f3c:	e593004c 	ldr	r0, [r3, #76]	; 0x4c
    8f40:	e3a01001 	mov	r1, #1
    8f44:	e1a01411 	lsl	r1, r1, r4
    8f48:	eb0001f7 	bl	972c <put32>
    8f4c:	eb0001f0 	bl	9714 <dev_barrier>
    8f50:	e8bd8010 	pop	{r4, pc}
    8f54:	000097f0 	strdeq	r9, [r0], -r0

00008f58 <sw_uart_putc>:
    8f58:	e92d41f0 	push	{r4, r5, r6, r7, r8, lr}
    8f5c:	e1a07001 	mov	r7, r1
    8f60:	e5d06000 	ldrb	r6, [r0]
    8f64:	e5905008 	ldr	r5, [r0, #8]
    8f68:	ee1f4f3c 	mrc	15, 0, r4, cr15, cr12, {1}
    8f6c:	e1a00006 	mov	r0, r6
    8f70:	e3a01000 	mov	r1, #0
    8f74:	ebffff26 	bl	8c14 <gpio_write>
    8f78:	ee1f3f3c 	mrc	15, 0, r3, cr15, cr12, {1}
    8f7c:	e0643003 	rsb	r3, r4, r3
    8f80:	e1550003 	cmp	r5, r3
    8f84:	8afffffb 	bhi	8f78 <sw_uart_putc+0x20>
    8f88:	e1a08085 	lsl	r8, r5, #1
    8f8c:	e1a00006 	mov	r0, r6
    8f90:	e2071001 	and	r1, r7, #1
    8f94:	ebffff1e 	bl	8c14 <gpio_write>
    8f98:	ee1f3f3c 	mrc	15, 0, r3, cr15, cr12, {1}
    8f9c:	e0643003 	rsb	r3, r4, r3
    8fa0:	e1580003 	cmp	r8, r3
    8fa4:	8afffffb 	bhi	8f98 <sw_uart_putc+0x40>
    8fa8:	e0888005 	add	r8, r8, r5
    8fac:	e1a00006 	mov	r0, r6
    8fb0:	e2071002 	and	r1, r7, #2
    8fb4:	ebffff16 	bl	8c14 <gpio_write>
    8fb8:	ee1f3f3c 	mrc	15, 0, r3, cr15, cr12, {1}
    8fbc:	e0643003 	rsb	r3, r4, r3
    8fc0:	e1580003 	cmp	r8, r3
    8fc4:	8afffffb 	bhi	8fb8 <sw_uart_putc+0x60>
    8fc8:	e0888005 	add	r8, r8, r5
    8fcc:	e1a00006 	mov	r0, r6
    8fd0:	e2071004 	and	r1, r7, #4
    8fd4:	ebffff0e 	bl	8c14 <gpio_write>
    8fd8:	ee1f3f3c 	mrc	15, 0, r3, cr15, cr12, {1}
    8fdc:	e0643003 	rsb	r3, r4, r3
    8fe0:	e1580003 	cmp	r8, r3
    8fe4:	8afffffb 	bhi	8fd8 <sw_uart_putc+0x80>
    8fe8:	e0888005 	add	r8, r8, r5
    8fec:	e1a00006 	mov	r0, r6
    8ff0:	e2071008 	and	r1, r7, #8
    8ff4:	ebffff06 	bl	8c14 <gpio_write>
    8ff8:	ee1f3f3c 	mrc	15, 0, r3, cr15, cr12, {1}
    8ffc:	e0643003 	rsb	r3, r4, r3
    9000:	e1580003 	cmp	r8, r3
    9004:	8afffffb 	bhi	8ff8 <sw_uart_putc+0xa0>
    9008:	e0888005 	add	r8, r8, r5
    900c:	e1a00006 	mov	r0, r6
    9010:	e2071010 	and	r1, r7, #16
    9014:	ebfffefe 	bl	8c14 <gpio_write>
    9018:	ee1f3f3c 	mrc	15, 0, r3, cr15, cr12, {1}
    901c:	e0643003 	rsb	r3, r4, r3
    9020:	e1580003 	cmp	r8, r3
    9024:	8afffffb 	bhi	9018 <sw_uart_putc+0xc0>
    9028:	e0888005 	add	r8, r8, r5
    902c:	e1a00006 	mov	r0, r6
    9030:	e2071020 	and	r1, r7, #32
    9034:	ebfffef6 	bl	8c14 <gpio_write>
    9038:	ee1f3f3c 	mrc	15, 0, r3, cr15, cr12, {1}
    903c:	e0643003 	rsb	r3, r4, r3
    9040:	e1580003 	cmp	r8, r3
    9044:	8afffffb 	bhi	9038 <sw_uart_putc+0xe0>
    9048:	e0888005 	add	r8, r8, r5
    904c:	e1a00006 	mov	r0, r6
    9050:	e2071040 	and	r1, r7, #64	; 0x40
    9054:	ebfffeee 	bl	8c14 <gpio_write>
    9058:	ee1f3f3c 	mrc	15, 0, r3, cr15, cr12, {1}
    905c:	e0643003 	rsb	r3, r4, r3
    9060:	e1580003 	cmp	r8, r3
    9064:	8afffffb 	bhi	9058 <sw_uart_putc+0x100>
    9068:	e0888005 	add	r8, r8, r5
    906c:	e1a00006 	mov	r0, r6
    9070:	e2071080 	and	r1, r7, #128	; 0x80
    9074:	ebfffee6 	bl	8c14 <gpio_write>
    9078:	ee1f3f3c 	mrc	15, 0, r3, cr15, cr12, {1}
    907c:	e0643003 	rsb	r3, r4, r3
    9080:	e1580003 	cmp	r8, r3
    9084:	8afffffb 	bhi	9078 <sw_uart_putc+0x120>
    9088:	e0885005 	add	r5, r8, r5
    908c:	e1a00006 	mov	r0, r6
    9090:	e3a01001 	mov	r1, #1
    9094:	ebfffede 	bl	8c14 <gpio_write>
    9098:	ee1f3f3c 	mrc	15, 0, r3, cr15, cr12, {1}
    909c:	e0643003 	rsb	r3, r4, r3
    90a0:	e1550003 	cmp	r5, r3
    90a4:	8afffffb 	bhi	9098 <sw_uart_putc+0x140>
    90a8:	e8bd81f0 	pop	{r4, r5, r6, r7, r8, pc}

000090ac <sw_uart_getc_timeout>:
    90ac:	e92d43f8 	push	{r3, r4, r5, r6, r7, r8, r9, lr}
    90b0:	e1a09000 	mov	r9, r0
    90b4:	e5d07001 	ldrb	r7, [r0, #1]
    90b8:	e1a05007 	mov	r5, r7
    90bc:	e1a06001 	mov	r6, r1
    90c0:	ebfffe21 	bl	894c <timer_get_usec_raw>
    90c4:	e1a04000 	mov	r4, r0
    90c8:	e1a00005 	mov	r0, r5
    90cc:	ebfffebd 	bl	8bc8 <gpio_read>
    90d0:	e3500000 	cmp	r0, #0
    90d4:	0a000005 	beq	90f0 <sw_uart_getc_timeout+0x44>
    90d8:	ebfffe1b 	bl	894c <timer_get_usec_raw>
    90dc:	e0640000 	rsb	r0, r4, r0
    90e0:	e1560000 	cmp	r6, r0
    90e4:	2afffff7 	bcs	90c8 <sw_uart_getc_timeout+0x1c>
    90e8:	e3a03000 	mov	r3, #0
    90ec:	ea000000 	b	90f4 <sw_uart_getc_timeout+0x48>
    90f0:	e3a03001 	mov	r3, #1
    90f4:	e3530000 	cmp	r3, #0
    90f8:	0a000059 	beq	9264 <sw_uart_getc_timeout+0x1b8>
    90fc:	ee1f8f3c 	mrc	15, 0, r8, cr15, cr12, {1}
    9100:	e5994008 	ldr	r4, [r9, #8]
    9104:	e08420a4 	add	r2, r4, r4, lsr #1
    9108:	ee1f3f3c 	mrc	15, 0, r3, cr15, cr12, {1}
    910c:	e0683003 	rsb	r3, r8, r3
    9110:	e1520003 	cmp	r2, r3
    9114:	8afffffb 	bhi	9108 <sw_uart_getc_timeout+0x5c>
    9118:	e0888004 	add	r8, r8, r4
    911c:	e1a00007 	mov	r0, r7
    9120:	ebfffea8 	bl	8bc8 <gpio_read>
    9124:	e1a09750 	asr	r9, r0, r7
    9128:	ee1f3f3c 	mrc	15, 0, r3, cr15, cr12, {1}
    912c:	e0683003 	rsb	r3, r8, r3
    9130:	e1540003 	cmp	r4, r3
    9134:	8afffffb 	bhi	9128 <sw_uart_getc_timeout+0x7c>
    9138:	e0888004 	add	r8, r8, r4
    913c:	e1a00007 	mov	r0, r7
    9140:	ebfffea0 	bl	8bc8 <gpio_read>
    9144:	e1a00750 	asr	r0, r0, r7
    9148:	e1899080 	orr	r9, r9, r0, lsl #1
    914c:	ee1f3f3c 	mrc	15, 0, r3, cr15, cr12, {1}
    9150:	e0683003 	rsb	r3, r8, r3
    9154:	e1540003 	cmp	r4, r3
    9158:	8afffffb 	bhi	914c <sw_uart_getc_timeout+0xa0>
    915c:	e0888004 	add	r8, r8, r4
    9160:	e1a00007 	mov	r0, r7
    9164:	ebfffe97 	bl	8bc8 <gpio_read>
    9168:	e1a00750 	asr	r0, r0, r7
    916c:	e1899100 	orr	r9, r9, r0, lsl #2
    9170:	ee1f3f3c 	mrc	15, 0, r3, cr15, cr12, {1}
    9174:	e0683003 	rsb	r3, r8, r3
    9178:	e1540003 	cmp	r4, r3
    917c:	8afffffb 	bhi	9170 <sw_uart_getc_timeout+0xc4>
    9180:	e0888004 	add	r8, r8, r4
    9184:	e1a00007 	mov	r0, r7
    9188:	ebfffe8e 	bl	8bc8 <gpio_read>
    918c:	e1a00750 	asr	r0, r0, r7
    9190:	e1899180 	orr	r9, r9, r0, lsl #3
    9194:	ee1f3f3c 	mrc	15, 0, r3, cr15, cr12, {1}
    9198:	e0683003 	rsb	r3, r8, r3
    919c:	e1540003 	cmp	r4, r3
    91a0:	8afffffb 	bhi	9194 <sw_uart_getc_timeout+0xe8>
    91a4:	e0888004 	add	r8, r8, r4
    91a8:	e1a00007 	mov	r0, r7
    91ac:	ebfffe85 	bl	8bc8 <gpio_read>
    91b0:	e1a00750 	asr	r0, r0, r7
    91b4:	e1899200 	orr	r9, r9, r0, lsl #4
    91b8:	ee1f3f3c 	mrc	15, 0, r3, cr15, cr12, {1}
    91bc:	e0683003 	rsb	r3, r8, r3
    91c0:	e1540003 	cmp	r4, r3
    91c4:	8afffffb 	bhi	91b8 <sw_uart_getc_timeout+0x10c>
    91c8:	e0888004 	add	r8, r8, r4
    91cc:	e1a00007 	mov	r0, r7
    91d0:	ebfffe7c 	bl	8bc8 <gpio_read>
    91d4:	e1a00750 	asr	r0, r0, r7
    91d8:	e1899280 	orr	r9, r9, r0, lsl #5
    91dc:	ee1f3f3c 	mrc	15, 0, r3, cr15, cr12, {1}
    91e0:	e0683003 	rsb	r3, r8, r3
    91e4:	e1540003 	cmp	r4, r3
    91e8:	8afffffb 	bhi	91dc <sw_uart_getc_timeout+0x130>
    91ec:	e0888004 	add	r8, r8, r4
    91f0:	e1a00007 	mov	r0, r7
    91f4:	ebfffe73 	bl	8bc8 <gpio_read>
    91f8:	e1a00750 	asr	r0, r0, r7
    91fc:	e1899300 	orr	r9, r9, r0, lsl #6
    9200:	ee1f3f3c 	mrc	15, 0, r3, cr15, cr12, {1}
    9204:	e0683003 	rsb	r3, r8, r3
    9208:	e1540003 	cmp	r4, r3
    920c:	8afffffb 	bhi	9200 <sw_uart_getc_timeout+0x154>
    9210:	e1a00007 	mov	r0, r7
    9214:	ebfffe6b 	bl	8bc8 <gpio_read>
    9218:	e1a00750 	asr	r0, r0, r7
    921c:	e1899380 	orr	r9, r9, r0, lsl #7
    9220:	ebfffdc9 	bl	894c <timer_get_usec_raw>
    9224:	e1a04000 	mov	r4, r0
    9228:	e1a00005 	mov	r0, r5
    922c:	ebfffe65 	bl	8bc8 <gpio_read>
    9230:	e3500000 	cmp	r0, #0
    9234:	0a000005 	beq	9250 <sw_uart_getc_timeout+0x1a4>
    9238:	ebfffdc3 	bl	894c <timer_get_usec_raw>
    923c:	e0640000 	rsb	r0, r4, r0
    9240:	e1560000 	cmp	r6, r0
    9244:	2afffff7 	bcs	9228 <sw_uart_getc_timeout+0x17c>
    9248:	e3a03000 	mov	r3, #0
    924c:	ea000000 	b	9254 <sw_uart_getc_timeout+0x1a8>
    9250:	e3a03001 	mov	r3, #1
    9254:	e3530000 	cmp	r3, #0
    9258:	0a000003 	beq	926c <sw_uart_getc_timeout+0x1c0>
    925c:	e1a00009 	mov	r0, r9
    9260:	e8bd83f8 	pop	{r3, r4, r5, r6, r7, r8, r9, pc}
    9264:	e3e00000 	mvn	r0, #0
    9268:	e8bd83f8 	pop	{r3, r4, r5, r6, r7, r8, r9, pc}
    926c:	e3e00000 	mvn	r0, #0
    9270:	e8bd83f8 	pop	{r3, r4, r5, r6, r7, r8, r9, pc}

00009274 <sw_uart_gets_until>:
    9274:	e92d47f0 	push	{r4, r5, r6, r7, r8, r9, sl, lr}
    9278:	e24dd008 	sub	sp, sp, #8
    927c:	e1a08000 	mov	r8, r0
    9280:	e1a06001 	mov	r6, r1
    9284:	e1a09003 	mov	r9, r3
    9288:	e59da028 	ldr	sl, [sp, #40]	; 0x28
    928c:	e3520000 	cmp	r2, #0
    9290:	1a000008 	bne	92b8 <sw_uart_gets_until+0x44>
    9294:	ebfffbea 	bl	8244 <rpi_reset_putc>
    9298:	e59f3068 	ldr	r3, [pc, #104]	; 9308 <sw_uart_gets_until+0x94>
    929c:	e58d3000 	str	r3, [sp]
    92a0:	e59f0064 	ldr	r0, [pc, #100]	; 930c <sw_uart_gets_until+0x98>
    92a4:	e59f1064 	ldr	r1, [pc, #100]	; 9310 <sw_uart_gets_until+0x9c>
    92a8:	e59f2064 	ldr	r2, [pc, #100]	; 9314 <sw_uart_gets_until+0xa0>
    92ac:	e3a0306d 	mov	r3, #109	; 0x6d
    92b0:	ebfffbc8 	bl	81d8 <printk>
    92b4:	ebfffd4a 	bl	87e4 <clean_reboot>
    92b8:	e3a04000 	mov	r4, #0
    92bc:	e5c14000 	strb	r4, [r1]
    92c0:	e2427001 	sub	r7, r2, #1
    92c4:	ea000007 	b	92e8 <sw_uart_gets_until+0x74>
    92c8:	e1a00008 	mov	r0, r8
    92cc:	e1a0100a 	mov	r1, sl
    92d0:	ebffff75 	bl	90ac <sw_uart_getc_timeout>
    92d4:	e6ef0070 	uxtb	r0, r0
    92d8:	e1500009 	cmp	r0, r9
    92dc:	0a000004 	beq	92f4 <sw_uart_gets_until+0x80>
    92e0:	e7c60005 	strb	r0, [r6, r5]
    92e4:	e2844001 	add	r4, r4, #1
    92e8:	e1a05004 	mov	r5, r4
    92ec:	e1540007 	cmp	r4, r7
    92f0:	3afffff4 	bcc	92c8 <sw_uart_gets_until+0x54>
    92f4:	e3a03000 	mov	r3, #0
    92f8:	e7c63005 	strb	r3, [r6, r5]
    92fc:	e1a00004 	mov	r0, r4
    9300:	e28dd008 	add	sp, sp, #8
    9304:	e8bd87f0 	pop	{r4, r5, r6, r7, r8, r9, sl, pc}
    9308:	00009ab8 			; <UNDEFINED> instruction: 0x00009ab8
    930c:	0000992c 	andeq	r9, r0, ip, lsr #18
    9310:	00009aa4 	andeq	r9, r0, r4, lsr #21
    9314:	00009a2c 	andeq	r9, r0, ip, lsr #20

00009318 <sw_uart_gets_timeout>:
    9318:	e92d41f0 	push	{r4, r5, r6, r7, r8, lr}
    931c:	e24dd008 	sub	sp, sp, #8
    9320:	e1a07000 	mov	r7, r0
    9324:	e1a05001 	mov	r5, r1
    9328:	e1a08003 	mov	r8, r3
    932c:	e3520000 	cmp	r2, #0
    9330:	1a000008 	bne	9358 <sw_uart_gets_timeout+0x40>
    9334:	ebfffbc2 	bl	8244 <rpi_reset_putc>
    9338:	e59f3058 	ldr	r3, [pc, #88]	; 9398 <sw_uart_gets_timeout+0x80>
    933c:	e58d3000 	str	r3, [sp]
    9340:	e59f0054 	ldr	r0, [pc, #84]	; 939c <sw_uart_gets_timeout+0x84>
    9344:	e59f1054 	ldr	r1, [pc, #84]	; 93a0 <sw_uart_gets_timeout+0x88>
    9348:	e59f2054 	ldr	r2, [pc, #84]	; 93a4 <sw_uart_gets_timeout+0x8c>
    934c:	e3a03083 	mov	r3, #131	; 0x83
    9350:	ebfffba0 	bl	81d8 <printk>
    9354:	ebfffd22 	bl	87e4 <clean_reboot>
    9358:	e3a04000 	mov	r4, #0
    935c:	e5c14000 	strb	r4, [r1]
    9360:	e2426001 	sub	r6, r2, #1
    9364:	ea000004 	b	937c <sw_uart_gets_timeout+0x64>
    9368:	e1a00007 	mov	r0, r7
    936c:	e1a01008 	mov	r1, r8
    9370:	ebffff4d 	bl	90ac <sw_uart_getc_timeout>
    9374:	e7c50004 	strb	r0, [r5, r4]
    9378:	e2844001 	add	r4, r4, #1
    937c:	e1540006 	cmp	r4, r6
    9380:	3afffff8 	bcc	9368 <sw_uart_gets_timeout+0x50>
    9384:	e3a03000 	mov	r3, #0
    9388:	e7c53004 	strb	r3, [r5, r4]
    938c:	e1a00004 	mov	r0, r4
    9390:	e28dd008 	add	sp, sp, #8
    9394:	e8bd81f0 	pop	{r4, r5, r6, r7, r8, pc}
    9398:	00009ab8 			; <UNDEFINED> instruction: 0x00009ab8
    939c:	0000992c 	andeq	r9, r0, ip, lsr #18
    93a0:	00009aa4 	andeq	r9, r0, r4, lsr #21
    93a4:	00009a40 	andeq	r9, r0, r0, asr #20

000093a8 <sw_uart_init_helper>:
    93a8:	e92d41f0 	push	{r4, r5, r6, r7, r8, lr}
    93ac:	e24dd008 	sub	sp, sp, #8
    93b0:	e1a04000 	mov	r4, r0
    93b4:	e1a06001 	mov	r6, r1
    93b8:	e1a08002 	mov	r8, r2
    93bc:	e1a05003 	mov	r5, r3
    93c0:	e59d7020 	ldr	r7, [sp, #32]
    93c4:	e1a00001 	mov	r0, r1
    93c8:	ebfffd7a 	bl	89b8 <gpio_set_output>
    93cc:	e1a00008 	mov	r0, r8
    93d0:	ebfffdc9 	bl	8afc <gpio_set_input>
    93d4:	e3a03001 	mov	r3, #1
    93d8:	ee0f3f1c 	mcr	15, 0, r3, cr15, cr12, {0}
    93dc:	e1a00006 	mov	r0, r6
    93e0:	e3a01001 	mov	r1, #1
    93e4:	ebfffe0a 	bl	8c14 <gpio_write>
    93e8:	e0020795 	mul	r2, r5, r7
    93ec:	e59f3074 	ldr	r3, [pc, #116]	; 9468 <sw_uart_init_helper+0xc0>
    93f0:	e0653003 	rsb	r3, r5, r3
    93f4:	e1530002 	cmp	r3, r2
    93f8:	8a000005 	bhi	9414 <sw_uart_init_helper+0x6c>
    93fc:	e59f3064 	ldr	r3, [pc, #100]	; 9468 <sw_uart_init_helper+0xc0>
    9400:	e0853003 	add	r3, r5, r3
    9404:	e1530002 	cmp	r3, r2
    9408:	2a000003 	bcs	941c <sw_uart_init_helper+0x74>
    940c:	e3a03000 	mov	r3, #0
    9410:	ea000002 	b	9420 <sw_uart_init_helper+0x78>
    9414:	e3a03000 	mov	r3, #0
    9418:	ea000000 	b	9420 <sw_uart_init_helper+0x78>
    941c:	e3a03001 	mov	r3, #1
    9420:	e3530000 	cmp	r3, #0
    9424:	1a000008 	bne	944c <sw_uart_init_helper+0xa4>
    9428:	ebfffb85 	bl	8244 <rpi_reset_putc>
    942c:	e59f3038 	ldr	r3, [pc, #56]	; 946c <sw_uart_init_helper+0xc4>
    9430:	e58d3000 	str	r3, [sp]
    9434:	e59f0034 	ldr	r0, [pc, #52]	; 9470 <sw_uart_init_helper+0xc8>
    9438:	e59f1034 	ldr	r1, [pc, #52]	; 9474 <sw_uart_init_helper+0xcc>
    943c:	e59f2034 	ldr	r2, [pc, #52]	; 9478 <sw_uart_init_helper+0xd0>
    9440:	e3a0309d 	mov	r3, #157	; 0x9d
    9444:	ebfffb63 	bl	81d8 <printk>
    9448:	ebfffce5 	bl	87e4 <clean_reboot>
    944c:	e5c46000 	strb	r6, [r4]
    9450:	e5c48001 	strb	r8, [r4, #1]
    9454:	e5845004 	str	r5, [r4, #4]
    9458:	e5847008 	str	r7, [r4, #8]
    945c:	e1a00004 	mov	r0, r4
    9460:	e28dd008 	add	sp, sp, #8
    9464:	e8bd81f0 	pop	{r4, r5, r6, r7, r8, pc}
    9468:	29b92700 	ldmibcs	r9!, {r8, r9, sl, sp}
    946c:	00009ac4 	andeq	r9, r0, r4, asr #21
    9470:	0000992c 	andeq	r9, r0, ip, lsr #18
    9474:	00009aa4 	andeq	r9, r0, r4, lsr #21
    9478:	00009a58 	andeq	r9, r0, r8, asr sl

0000947c <sw_uart_getc>:
    947c:	e92d4008 	push	{r3, lr}
    9480:	e3e01000 	mvn	r1, #0
    9484:	ebffff08 	bl	90ac <sw_uart_getc_timeout>
    9488:	e3500000 	cmp	r0, #0
    948c:	a8bd8008 	popge	{r3, pc}
    9490:	ebfffb6b 	bl	8244 <rpi_reset_putc>
    9494:	e59f0010 	ldr	r0, [pc, #16]	; 94ac <sw_uart_getc+0x30>
    9498:	e59f1010 	ldr	r1, [pc, #16]	; 94b0 <sw_uart_getc+0x34>
    949c:	e59f2010 	ldr	r2, [pc, #16]	; 94b4 <sw_uart_getc+0x38>
    94a0:	e3a030ac 	mov	r3, #172	; 0xac
    94a4:	ebfffb4b 	bl	81d8 <printk>
    94a8:	ebfffccd 	bl	87e4 <clean_reboot>
    94ac:	00009af8 	strdeq	r9, [r0], -r8
    94b0:	00009aa4 	andeq	r9, r0, r4, lsr #21
    94b4:	00009a6c 	andeq	r9, r0, ip, ror #20

000094b8 <sw_uart_putk>:
    94b8:	e92d4038 	push	{r3, r4, r5, lr}
    94bc:	e1a05000 	mov	r5, r0
    94c0:	e1a04001 	mov	r4, r1
    94c4:	ea000002 	b	94d4 <sw_uart_putk+0x1c>
    94c8:	e1a00005 	mov	r0, r5
    94cc:	ebfffea1 	bl	8f58 <sw_uart_putc>
    94d0:	e2844001 	add	r4, r4, #1
    94d4:	e5d41000 	ldrb	r1, [r4]
    94d8:	e3510000 	cmp	r1, #0
    94dc:	1afffff9 	bne	94c8 <sw_uart_putk+0x10>
    94e0:	e8bd8038 	pop	{r3, r4, r5, pc}

000094e4 <sw_uart_printk>:
    94e4:	e92d000e 	push	{r1, r2, r3}
    94e8:	e92d4030 	push	{r4, r5, lr}
    94ec:	e24ddf76 	sub	sp, sp, #472	; 0x1d8
    94f0:	e1a05000 	mov	r5, r0
    94f4:	e28d3f7a 	add	r3, sp, #488	; 0x1e8
    94f8:	e58d3008 	str	r3, [sp, #8]
    94fc:	e28d000c 	add	r0, sp, #12
    9500:	e3a01f73 	mov	r1, #460	; 0x1cc
    9504:	e59d21e4 	ldr	r2, [sp, #484]	; 0x1e4
    9508:	ebfffc08 	bl	8530 <va_printk>
    950c:	e1a04000 	mov	r4, r0
    9510:	e59f3048 	ldr	r3, [pc, #72]	; 9560 <sw_uart_printk+0x7c>
    9514:	e1500003 	cmp	r0, r3
    9518:	9a000008 	bls	9540 <sw_uart_printk+0x5c>
    951c:	ebfffb48 	bl	8244 <rpi_reset_putc>
    9520:	e59f303c 	ldr	r3, [pc, #60]	; 9564 <sw_uart_printk+0x80>
    9524:	e58d3000 	str	r3, [sp]
    9528:	e59f0038 	ldr	r0, [pc, #56]	; 9568 <sw_uart_printk+0x84>
    952c:	e59f1038 	ldr	r1, [pc, #56]	; 956c <sw_uart_printk+0x88>
    9530:	e59f2038 	ldr	r2, [pc, #56]	; 9570 <sw_uart_printk+0x8c>
    9534:	e3a030c0 	mov	r3, #192	; 0xc0
    9538:	ebfffb26 	bl	81d8 <printk>
    953c:	ebfffca8 	bl	87e4 <clean_reboot>
    9540:	e1a00005 	mov	r0, r5
    9544:	e28d100c 	add	r1, sp, #12
    9548:	ebffffda 	bl	94b8 <sw_uart_putk>
    954c:	e1a00004 	mov	r0, r4
    9550:	e28ddf76 	add	sp, sp, #472	; 0x1d8
    9554:	e8bd4030 	pop	{r4, r5, lr}
    9558:	e28dd00c 	add	sp, sp, #12
    955c:	e12fff1e 	bx	lr
    9560:	000001ca 	andeq	r0, r0, sl, asr #3
    9564:	00009b30 	andeq	r9, r0, r0, lsr fp
    9568:	0000992c 	andeq	r9, r0, ip, lsr #18
    956c:	00009aa4 	andeq	r9, r0, r4, lsr #21
    9570:	00009a7c 	andeq	r9, r0, ip, ror sl

00009574 <sw_uart_gets_until_blk>:
    9574:	e52de004 	push	{lr}		; (str lr, [sp, #-4]!)
    9578:	e24dd00c 	sub	sp, sp, #12
    957c:	e3e0c000 	mvn	ip, #0
    9580:	e58dc000 	str	ip, [sp]
    9584:	ebffff3a 	bl	9274 <sw_uart_gets_until>
    9588:	e3500000 	cmp	r0, #0
    958c:	aa000006 	bge	95ac <sw_uart_gets_until_blk+0x38>
    9590:	ebfffb2b 	bl	8244 <rpi_reset_putc>
    9594:	e59f0018 	ldr	r0, [pc, #24]	; 95b4 <sw_uart_gets_until_blk+0x40>
    9598:	e59f1018 	ldr	r1, [pc, #24]	; 95b8 <sw_uart_gets_until_blk+0x44>
    959c:	e59f2018 	ldr	r2, [pc, #24]	; 95bc <sw_uart_gets_until_blk+0x48>
    95a0:	e3a030c8 	mov	r3, #200	; 0xc8
    95a4:	ebfffb0b 	bl	81d8 <printk>
    95a8:	ebfffc8d 	bl	87e4 <clean_reboot>
    95ac:	e28dd00c 	add	sp, sp, #12
    95b0:	e49df004 	pop	{pc}		; (ldr pc, [sp], #4)
    95b4:	00009af8 	strdeq	r9, [r0], -r8
    95b8:	00009aa4 	andeq	r9, r0, r4, lsr #21
    95bc:	00009a8c 	andeq	r9, r0, ip, lsl #21

000095c0 <uart_init>:
    95c0:	e92d4038 	push	{r3, r4, r5, lr}
    95c4:	eb000052 	bl	9714 <dev_barrier>
    95c8:	e3a0000e 	mov	r0, #14
    95cc:	e3a01002 	mov	r1, #2
    95d0:	ebfffd98 	bl	8c38 <gpio_set_function>
    95d4:	e3a0000f 	mov	r0, #15
    95d8:	e3a01002 	mov	r1, #2
    95dc:	ebfffd95 	bl	8c38 <gpio_set_function>
    95e0:	eb00004b 	bl	9714 <dev_barrier>
    95e4:	e59f4068 	ldr	r4, [pc, #104]	; 9654 <uart_init+0x94>
    95e8:	e5945000 	ldr	r5, [r4]
    95ec:	e1a00005 	mov	r0, r5
    95f0:	eb000059 	bl	975c <get32>
    95f4:	e3801001 	orr	r1, r0, #1
    95f8:	e1a00005 	mov	r0, r5
    95fc:	eb00004a 	bl	972c <put32>
    9600:	eb000043 	bl	9714 <dev_barrier>
    9604:	e5940004 	ldr	r0, [r4, #4]
    9608:	e3a01000 	mov	r1, #0
    960c:	eb000046 	bl	972c <put32>
    9610:	e5940008 	ldr	r0, [r4, #8]
    9614:	e3a01000 	mov	r1, #0
    9618:	eb000043 	bl	972c <put32>
    961c:	e594000c 	ldr	r0, [r4, #12]
    9620:	e3a01006 	mov	r1, #6
    9624:	eb000040 	bl	972c <put32>
    9628:	e5940010 	ldr	r0, [r4, #16]
    962c:	e3a01003 	mov	r1, #3
    9630:	eb00003d 	bl	972c <put32>
    9634:	e5940014 	ldr	r0, [r4, #20]
    9638:	e59f1018 	ldr	r1, [pc, #24]	; 9658 <uart_init+0x98>
    963c:	eb00003a 	bl	972c <put32>
    9640:	e5940004 	ldr	r0, [r4, #4]
    9644:	e3a01003 	mov	r1, #3
    9648:	eb000037 	bl	972c <put32>
    964c:	eb000030 	bl	9714 <dev_barrier>
    9650:	e8bd8038 	pop	{r3, r4, r5, pc}
    9654:	00009850 	andeq	r9, r0, r0, asr r8
    9658:	0000010e 	andeq	r0, r0, lr, lsl #2

0000965c <uart_can_getc>:
    965c:	e92d4008 	push	{r3, lr}
    9660:	e59f300c 	ldr	r3, [pc, #12]	; 9674 <uart_can_getc+0x18>
    9664:	e5930018 	ldr	r0, [r3, #24]
    9668:	eb00003b 	bl	975c <get32>
    966c:	e2000001 	and	r0, r0, #1
    9670:	e8bd8008 	pop	{r3, pc}
    9674:	00009850 	andeq	r9, r0, r0, asr r8

00009678 <uart_getc>:
    9678:	e92d4008 	push	{r3, lr}
    967c:	ebfffff6 	bl	965c <uart_can_getc>
    9680:	e3500000 	cmp	r0, #0
    9684:	0afffffc 	beq	967c <uart_getc+0x4>
    9688:	e59f300c 	ldr	r3, [pc, #12]	; 969c <uart_getc+0x24>
    968c:	e593001c 	ldr	r0, [r3, #28]
    9690:	eb000031 	bl	975c <get32>
    9694:	e6ef0070 	uxtb	r0, r0
    9698:	e8bd8008 	pop	{r3, pc}
    969c:	00009850 	andeq	r9, r0, r0, asr r8

000096a0 <uart_can_putc>:
    96a0:	e92d4008 	push	{r3, lr}
    96a4:	e59f300c 	ldr	r3, [pc, #12]	; 96b8 <uart_can_putc+0x18>
    96a8:	e5930018 	ldr	r0, [r3, #24]
    96ac:	eb00002a 	bl	975c <get32>
    96b0:	e2000020 	and	r0, r0, #32
    96b4:	e8bd8008 	pop	{r3, pc}
    96b8:	00009850 	andeq	r9, r0, r0, asr r8

000096bc <uart_putc>:
    96bc:	e92d4010 	push	{r4, lr}
    96c0:	e1a04000 	mov	r4, r0
    96c4:	ebfffff5 	bl	96a0 <uart_can_putc>
    96c8:	e3500000 	cmp	r0, #0
    96cc:	0afffffc 	beq	96c4 <uart_putc+0x8>
    96d0:	e59f300c 	ldr	r3, [pc, #12]	; 96e4 <uart_putc+0x28>
    96d4:	e593001c 	ldr	r0, [r3, #28]
    96d8:	e1a01004 	mov	r1, r4
    96dc:	eb000012 	bl	972c <put32>
    96e0:	e8bd8010 	pop	{r4, pc}
    96e4:	00009850 	andeq	r9, r0, r0, asr r8

000096e8 <uart_has_data>:
    96e8:	e92d4008 	push	{r3, lr}
    96ec:	ebffffda 	bl	965c <uart_can_getc>
    96f0:	e8bd8008 	pop	{r3, pc}

000096f4 <uart_getc_async>:
    96f4:	e92d4008 	push	{r3, lr}
    96f8:	ebfffffa 	bl	96e8 <uart_has_data>
    96fc:	e3500000 	cmp	r0, #0
    9700:	0a000001 	beq	970c <uart_getc_async+0x18>
    9704:	ebffffdb 	bl	9678 <uart_getc>
    9708:	e8bd8008 	pop	{r3, pc}
    970c:	e3e00000 	mvn	r0, #0
    9710:	e8bd8008 	pop	{r3, pc}

00009714 <dev_barrier>:
    9714:	ea000002 	b	9724 <dsb>

00009718 <dmb>:
    9718:	e3a00000 	mov	r0, #0
    971c:	ee070fba 	mcr	15, 0, r0, cr7, cr10, {5}
    9720:	e12fff1e 	bx	lr

00009724 <dsb>:
    9724:	ee070f9a 	mcr	15, 0, r0, cr7, cr10, {4}
    9728:	e12fff1e 	bx	lr

0000972c <put32>:
    972c:	e5801000 	str	r1, [r0]
    9730:	e12fff1e 	bx	lr

00009734 <PUT32>:
    9734:	e5801000 	str	r1, [r0]
    9738:	e12fff1e 	bx	lr

0000973c <put16>:
    973c:	e1c010b0 	strh	r1, [r0]
    9740:	e12fff1e 	bx	lr

00009744 <PUT16>:
    9744:	e1c010b0 	strh	r1, [r0]
    9748:	e12fff1e 	bx	lr

0000974c <put8>:
    974c:	e5c01000 	strb	r1, [r0]
    9750:	e12fff1e 	bx	lr

00009754 <PUT8>:
    9754:	e5c01000 	strb	r1, [r0]
    9758:	e12fff1e 	bx	lr

0000975c <get32>:
    975c:	e5900000 	ldr	r0, [r0]
    9760:	e12fff1e 	bx	lr

00009764 <GET32>:
    9764:	e5900000 	ldr	r0, [r0]
    9768:	e12fff1e 	bx	lr

0000976c <GETPC>:
    976c:	e1a0000e 	mov	r0, lr
    9770:	e12fff1e 	bx	lr

00009774 <dummy>:
    9774:	e12fff1e 	bx	lr

00009778 <cb_new>:
    9778:	e92d4008 	push	{r3, lr}
    977c:	e3a00409 	mov	r0, #150994944	; 0x9000000
    9780:	e3a01000 	mov	r1, #0
    9784:	e3a02004 	mov	r2, #4
    9788:	eb00000e 	bl	97c8 <memset>
    978c:	e3a00409 	mov	r0, #150994944	; 0x9000000
    9790:	e59f3004 	ldr	r3, [pc, #4]	; 979c <cb_new+0x24>
    9794:	e5803000 	str	r3, [r0]
    9798:	e8bd8008 	pop	{r3, pc}
    979c:	12345678 	eorsne	r5, r4, #120, 12	; 0x7800000

000097a0 <cb_get_block>:
    97a0:	e3a03409 	mov	r3, #150994944	; 0x9000000
    97a4:	e5932000 	ldr	r2, [r3]
    97a8:	e59f3014 	ldr	r3, [pc, #20]	; 97c4 <cb_get_block+0x24>
    97ac:	e1520003 	cmp	r2, r3
    97b0:	0a000001 	beq	97bc <cb_get_block+0x1c>
    97b4:	e3a00000 	mov	r0, #0
    97b8:	e12fff1e 	bx	lr
    97bc:	e3a00409 	mov	r0, #150994944	; 0x9000000
    97c0:	e12fff1e 	bx	lr
    97c4:	12345678 	eorsne	r5, r4, #120, 12	; 0x7800000

000097c8 <memset>:
    97c8:	e0802002 	add	r2, r0, r2
    97cc:	e1a03000 	mov	r3, r0
    97d0:	ea000001 	b	97dc <memset+0x14>
    97d4:	e5c31000 	strb	r1, [r3]
    97d8:	e2833001 	add	r3, r3, #1
    97dc:	e1530002 	cmp	r3, r2
    97e0:	3afffffb 	bcc	97d4 <memset+0xc>
    97e4:	e12fff1e 	bx	lr

Disassembly of section .data:

000097e8 <rpi_putchar>:
    97e8:	00008230 	andeq	r8, r0, r0, lsr r2

000097ec <putk>:
    97ec:	0000826c 	andeq	r8, r0, ip, ror #4

000097f0 <GPFSEL0>:
    97f0:	20200000 	eorcs	r0, r0, r0

000097f4 <GPFSEL1>:
    97f4:	20200004 	eorcs	r0, r0, r4

000097f8 <GPFSEL2>:
    97f8:	20200008 	eorcs	r0, r0, r8

000097fc <GPFSEL3>:
    97fc:	2020000c 	eorcs	r0, r0, ip

00009800 <GPFSEL4>:
    9800:	20200010 	eorcs	r0, r0, r0, lsl r0

00009804 <GPFSEL5>:
    9804:	20200014 	eorcs	r0, r0, r4, lsl r0

00009808 <GPSET0>:
    9808:	2020001c 	eorcs	r0, r0, ip, lsl r0

0000980c <GPSET1>:
    980c:	20200020 	eorcs	r0, r0, r0, lsr #32

00009810 <GPCLR0>:
    9810:	20200028 	eorcs	r0, r0, r8, lsr #32

00009814 <GPCLR1>:
    9814:	2020002c 	eorcs	r0, r0, ip, lsr #32

00009818 <GPLEV0>:
    9818:	20200034 	eorcs	r0, r0, r4, lsr r0

0000981c <GPLEV1>:
    981c:	20200038 	eorcs	r0, r0, r8, lsr r0

00009820 <IRQ_PENDING_2>:
    9820:	2000b208 	andcs	fp, r0, r8, lsl #4

00009824 <GPREN0>:
    9824:	2020004c 	eorcs	r0, r0, ip, asr #32

00009828 <GPREN1>:
    9828:	20200050 	eorcs	r0, r0, r0, asr r0

0000982c <ENABLE_IRQS_2>:
    982c:	2000b214 	andcs	fp, r0, r4, lsl r2

00009830 <GPFEN0>:
    9830:	20200058 	eorcs	r0, r0, r8, asr r0

00009834 <GPFEN1>:
    9834:	2020005c 	eorcs	r0, r0, ip, asr r0

00009838 <GPEDS0>:
    9838:	20200040 	eorcs	r0, r0, r0, asr #32

0000983c <GPEDS1>:
    983c:	20200044 	eorcs	r0, r0, r4, asr #32

00009840 <IRQ_PENDING_1>:
    9840:	2000b204 	andcs	fp, r0, r4, lsl #4

00009844 <gpio_clr0>:
    9844:	20200028 	eorcs	r0, r0, r8, lsr #32

00009848 <gpio_set0>:
    9848:	2020001c 	eorcs	r0, r0, ip, lsl r0

0000984c <gpio_fsel0>:
    984c:	20200000 	eorcs	r0, r0, r0

00009850 <AUX_ENABLES>:
    9850:	20215004 	eorcs	r5, r1, r4

00009854 <AUX_MU_CNTL_REG>:
    9854:	20215060 	eorcs	r5, r1, r0, rrx

00009858 <AUX_MU_IER_REG>:
    9858:	20215044 	eorcs	r5, r1, r4, asr #32

0000985c <AUX_MU_IIR_REG>:
    985c:	20215048 	eorcs	r5, r1, r8, asr #32

00009860 <AUX_MU_LCR_REG>:
    9860:	2021504c 	eorcs	r5, r1, ip, asr #32

00009864 <AUX_MU_BAUD_REG>:
    9864:	20215068 	eorcs	r5, r1, r8, rrx

00009868 <AUX_MU_LSR_REG>:
    9868:	20215054 	eorcs	r5, r1, r4, asr r0

0000986c <AUX_MU_IO_REG>:
    986c:	20215040 	eorcs	r5, r1, r0, asr #32

00009870 <AUX_MU_STAT_REG>:
    9870:	20215064 	eorcs	r5, r1, r4, rrx

00009874 <AUX_MU_SCRATCH>:
    9874:	2021505c 	eorcs	r5, r1, ip, asr r0

00009878 <AUX_MU_MSR_REG>:
    9878:	20215058 	eorcs	r5, r1, r8, asr r0

0000987c <AUX_MU_MCR_REG>:
    987c:	20215050 	eorcs	r5, r1, r0, asr r0

00009880 <AUX_IRQ>:
    9880:	20215000 	eorcs	r5, r1, r0

Disassembly of section .rodata:

00009884 <__FUNCTION__.4229>:
    9884:	6c637963 	stclvs	9, cr7, [r3], #-396	; 0xfffffe74
    9888:	705f7365 	subsvc	r7, pc, r5, ror #6
    988c:	735f7265 	cmpvc	pc, #1342177286	; 0x50000006
    9890:	00006365 	andeq	r6, r0, r5, ror #6
    9894:	4f525245 	svcmi	0x00525245
    9898:	73253a52 	teqvc	r5, #335872	; 0x52000
    989c:	3a73253a 	bcc	1cd2d8c <__bss_end__+0x1cc8e3c>
    98a0:	203a6425 	eorscs	r6, sl, r5, lsr #8
    98a4:	534c4146 	movtpl	r4, #49478	; 0xc146
    98a8:	733c2845 	teqvc	ip, #4521984	; 0x450000
    98ac:	32203c20 	eorcc	r3, r0, #32, 24	; 0x2000
    98b0:	203a293e 	eorscs	r2, sl, lr, lsr r9
    98b4:	6c6c6977 	stclvs	9, cr6, [ip], #-476	; 0xfffffe24
    98b8:	65766f20 	ldrbvs	r6, [r6, #-3872]!	; 0xf20
    98bc:	6f6c6672 	svcvs	0x006c6672
    98c0:	00000a77 	andeq	r0, r0, r7, ror sl
    98c4:	706f6373 	rsbvc	r6, pc, r3, ror r3	; <UNPREDICTABLE>
    98c8:	00632e65 	rsbeq	r2, r3, r5, ror #28
    98cc:	3a642520 	bcc	1912d54 <__bss_end__+0x1908e04>
    98d0:	6c617620 	stclvs	6, cr7, [r1], #-128	; 0xffffff80
    98d4:	2c64253d 	cfstr64cs	mvdx2, [r4], #-244	; 0xffffff0c
    98d8:	6d697420 	cfstrdvs	mvd7, [r9, #-128]!	; 0xffffff80
    98dc:	64253d65 	strtvs	r3, [r5], #-3429	; 0xd65
    98e0:	6f74202c 	svcvs	0x0074202c
    98e4:	64253d74 	strtvs	r3, [r5], #-3444	; 0xd74
    98e8:	7865203a 	stmdavc	r5!, {r1, r3, r4, r5, sp}^
    98ec:	64253d70 	strtvs	r3, [r5], #-3440	; 0xd70
    98f0:	72652820 	rsbvc	r2, r5, #32, 16	; 0x200000
    98f4:	64253d72 	strtvs	r3, [r5], #-3442	; 0xd72
    98f8:	6f74202c 	svcvs	0x0074202c
    98fc:	72726574 	rsbsvc	r6, r2, #116, 10	; 0x1d000000
    9900:	2964253d 	stmdbcs	r4!, {r0, r2, r3, r4, r5, r8, sl, sp}^
    9904:	0000000a 	andeq	r0, r0, sl

00009908 <__FUNCTION__.4265>:
    9908:	74696d65 	strbtvc	r6, [r9], #-3429	; 0xd65
    990c:	00000000 	andeq	r0, r0, r0

00009910 <__FUNCTION__.4213>:
    9910:	5f697072 	svcpl	0x00697072
    9914:	5f746573 	svcpl	0x00746573
    9918:	7074756f 	rsbsvc	r7, r4, pc, ror #10
    991c:	00007475 	andeq	r7, r0, r5, ror r4

00009920 <__FUNCTION__.4287>:
    9920:	705f6176 	subsvc	r6, pc, r6, ror r1	; <UNPREDICTABLE>
    9924:	746e6972 	strbtvc	r6, [lr], #-2418	; 0x972
    9928:	0000006b 	andeq	r0, r0, fp, rrx
    992c:	494e4150 	stmdbmi	lr, {r4, r6, r8, lr}^
    9930:	73253a43 	teqvc	r5, #274432	; 0x43000
    9934:	3a73253a 	bcc	1cd2e24 <__bss_end__+0x1cc8ed4>
    9938:	253a6425 	ldrcs	r6, [sl, #-1061]!	; 0x425
    993c:	00000a73 	andeq	r0, r0, r3, ror sl
    9940:	6362696c 	cmnvs	r2, #108, 18	; 0x1b0000
    9944:	2d61762f 	stclcs	6, cr7, [r1, #-188]!	; 0xffffff44
    9948:	6e697270 	mcrvs	2, 3, r7, cr9, cr0, {3}
    994c:	632e6b74 	teqvs	lr, #116, 22	; 0x1d000
    9950:	00000000 	andeq	r0, r0, r0
    9954:	00000030 	andeq	r0, r0, r0, lsr r0
    9958:	33323130 	teqcc	r2, #48, 2
    995c:	37363534 			; <UNDEFINED> instruction: 0x37363534
    9960:	00003938 	andeq	r3, r0, r8, lsr r9
    9964:	33323130 	teqcc	r2, #48, 2
    9968:	37363534 			; <UNDEFINED> instruction: 0x37363534
    996c:	62613938 	rsbvs	r3, r1, #56, 18	; 0xe0000
    9970:	66656463 	strbtvs	r6, [r5], -r3, ror #8
    9974:	00000000 	andeq	r0, r0, r0
    9978:	00003130 	andeq	r3, r0, r0, lsr r1
    997c:	63747570 	cmnvs	r4, #112, 10	; 0x1c000000
    9980:	0070665f 	rsbseq	r6, r0, pc, asr r6
    9984:	74646977 	strbtvc	r6, [r4], #-2423	; 0x977
    9988:	203c2068 	eorscs	r2, ip, r8, rrx
    998c:	00003233 	andeq	r3, r0, r3, lsr r2
    9990:	494e4150 	stmdbmi	lr, {r4, r6, r8, lr}^
    9994:	73253a43 	teqvc	r5, #274432	; 0x43000
    9998:	3a73253a 	bcc	1cd2e88 <__bss_end__+0x1cc8f38>
    999c:	663a6425 	ldrtvs	r6, [sl], -r5, lsr #8
    99a0:	74616f6c 	strbtvc	r6, [r1], #-3948	; 0xf6c
    99a4:	746f6e20 	strbtvc	r6, [pc], #-3616	; 99ac <__FUNCTION__.4287+0x8c>
    99a8:	616e6520 	cmnvs	lr, r0, lsr #10
    99ac:	64656c62 	strbtvs	r6, [r5], #-3170	; 0xc62
    99b0:	0a212121 	beq	851e3c <__bss_end__+0x847eec>
    99b4:	00000000 	andeq	r0, r0, r0
    99b8:	494e4150 	stmdbmi	lr, {r4, r6, r8, lr}^
    99bc:	73253a43 	teqvc	r5, #274432	; 0x43000
    99c0:	3a73253a 	bcc	1cd2eb0 <__bss_end__+0x1cc8f60>
    99c4:	703a6425 	eorsvc	r6, sl, r5, lsr #8
    99c8:	746e6972 	strbtvc	r6, [lr], #-2418	; 0x972
    99cc:	6e203a6b 	vnmulvs.f32	s6, s0, s23
    99d0:	6820746f 	stmdavs	r0!, {r0, r1, r2, r3, r5, r6, sl, ip, sp, lr}
    99d4:	6c646e61 	stclvs	14, cr6, [r4], #-388	; 0xfffffe7c
    99d8:	20676e69 	rsbcs	r6, r7, r9, ror #28
    99dc:	63657073 	cmnvs	r5, #115	; 0x73
    99e0:	65696669 	strbvs	r6, [r9, #-1641]!	; 0x669
    99e4:	25272072 	strcs	r2, [r7, #-114]!	; 0x72
    99e8:	0a0a2763 	beq	29377c <__bss_end__+0x28982c>
    99ec:	00000000 	andeq	r0, r0, r0
    99f0:	454e4f44 	strbmi	r4, [lr, #-3908]	; 0xf44
    99f4:	0a212121 	beq	851e80 <__bss_end__+0x847f30>
    99f8:	00000000 	andeq	r0, r0, r0
    99fc:	756f6261 	strbvc	r6, [pc, #-609]!	; 97a3 <cb_get_block+0x3>
    9a00:	6f742074 	svcvs	0x00742074
    9a04:	69727020 	ldmdbvs	r2!, {r5, ip, sp, lr}^
    9a08:	6f20746e 	svcvs	0x0020746e
    9a0c:	6572206e 	ldrbvs	r2, [r2, #-110]!	; 0x6e
    9a10:	616c7567 	cmnvs	ip, r7, ror #10
    9a14:	72702072 	rsbsvc	r2, r0, #114	; 0x72
    9a18:	66746e69 	ldrbtvs	r6, [r4], -r9, ror #28
    9a1c:	0000000a 	andeq	r0, r0, sl
    9a20:	63637573 	cmnvs	r3, #482344960	; 0x1cc00000
    9a24:	21737365 	cmncs	r3, r5, ror #6
    9a28:	0000000a 	andeq	r0, r0, sl

00009a2c <__FUNCTION__.4314>:
    9a2c:	755f7773 	ldrbvc	r7, [pc, #-1907]	; 92c1 <sw_uart_gets_until+0x4d>
    9a30:	5f747261 	svcpl	0x00747261
    9a34:	73746567 	cmnvc	r4, #432013312	; 0x19c00000
    9a38:	746e755f 	strbtvc	r7, [lr], #-1375	; 0x55f
    9a3c:	00006c69 	andeq	r6, r0, r9, ror #24

00009a40 <__FUNCTION__.4326>:
    9a40:	755f7773 	ldrbvc	r7, [pc, #-1907]	; 92d5 <sw_uart_gets_until+0x61>
    9a44:	5f747261 	svcpl	0x00747261
    9a48:	73746567 	cmnvc	r4, #432013312	; 0x19c00000
    9a4c:	6d69745f 	cfstrdvs	mvd7, [r9, #-380]!	; 0xfffffe84
    9a50:	74756f65 	ldrbtvc	r6, [r5], #-3941	; 0xf65
    9a54:	00000000 	andeq	r0, r0, r0

00009a58 <__FUNCTION__.4340>:
    9a58:	755f7773 	ldrbvc	r7, [pc, #-1907]	; 92ed <sw_uart_gets_until+0x79>
    9a5c:	5f747261 	svcpl	0x00747261
    9a60:	74696e69 	strbtvc	r6, [r9], #-3689	; 0xe69
    9a64:	6c65685f 	stclvs	8, cr6, [r5], #-380	; 0xfffffe84
    9a68:	00726570 	rsbseq	r6, r2, r0, ror r5

00009a6c <__FUNCTION__.4346>:
    9a6c:	755f7773 	ldrbvc	r7, [pc, #-1907]	; 9301 <sw_uart_gets_until+0x8d>
    9a70:	5f747261 	svcpl	0x00747261
    9a74:	63746567 	cmnvs	r4, #432013312	; 0x19c00000
    9a78:	00000000 	andeq	r0, r0, r0

00009a7c <__FUNCTION__.4368>:
    9a7c:	755f7773 	ldrbvc	r7, [pc, #-1907]	; 9311 <sw_uart_gets_until+0x9d>
    9a80:	5f747261 	svcpl	0x00747261
    9a84:	6e697270 	mcrvs	2, 3, r7, cr9, cr0, {3}
    9a88:	00006b74 	andeq	r6, r0, r4, ror fp

00009a8c <__FUNCTION__.4376>:
    9a8c:	755f7773 	ldrbvc	r7, [pc, #-1907]	; 9321 <sw_uart_gets_timeout+0x9>
    9a90:	5f747261 	svcpl	0x00747261
    9a94:	73746567 	cmnvc	r4, #432013312	; 0x19c00000
    9a98:	746e755f 	strbtvc	r7, [lr], #-1375	; 0x55f
    9a9c:	625f6c69 	subsvs	r6, pc, #26880	; 0x6900
    9aa0:	00006b6c 	andeq	r6, r0, ip, ror #22
    9aa4:	732d796d 	teqvc	sp, #1785856	; 0x1b4000
    9aa8:	732f6372 	teqvc	pc, #-939524095	; 0xc8000001
    9aac:	61752d77 	cmnvs	r5, r7, ror sp
    9ab0:	632e7472 	teqvs	lr, #1912602624	; 0x72000000
    9ab4:	00000000 	andeq	r0, r0, r0
    9ab8:	7479626e 	ldrbtvc	r6, [r9], #-622	; 0x26e
    9abc:	303e7365 	eorscc	r7, lr, r5, ror #6
    9ac0:	00000000 	andeq	r0, r0, r0
    9ac4:	7a686d28 	bvc	1a24f6c <__bss_end__+0x1a1b01c>
    9ac8:	62202d20 	eorvs	r2, r0, #32, 26	; 0x800
    9acc:	29647561 	stmdbcs	r4!, {r0, r5, r6, r8, sl, ip, sp, lr}^
    9ad0:	203d3c20 	eorscs	r3, sp, r0, lsr #24
    9ad4:	69726564 	ldmdbvs	r2!, {r2, r5, r6, r8, sl, sp, lr}^
    9ad8:	20646576 	rsbcs	r6, r4, r6, ror r5
    9adc:	64202626 	strtvs	r2, [r0], #-1574	; 0x626
    9ae0:	76697265 	strbtvc	r7, [r9], -r5, ror #4
    9ae4:	3c206465 	cfstrscc	mvf6, [r0], #-404	; 0xfffffe6c
    9ae8:	6d28203d 	stcvs	0, cr2, [r8, #-244]!	; 0xffffff0c
    9aec:	2b207a68 	blcs	828494 <__bss_end__+0x81e544>
    9af0:	75616220 	strbvc	r6, [r1, #-544]!	; 0x220
    9af4:	00002964 	andeq	r2, r0, r4, ror #18
    9af8:	494e4150 	stmdbmi	lr, {r4, r6, r8, lr}^
    9afc:	73253a43 	teqvc	r5, #274432	; 0x43000
    9b00:	3a73253a 	bcc	1cd2ff0 <__bss_end__+0x1cc90a0>
    9b04:	693a6425 	ldmdbvs	sl!, {r0, r2, r5, sl, sp, lr}
    9b08:	736f706d 	cmnvc	pc, #109	; 0x6d
    9b0c:	6c626973 	stclvs	9, cr6, [r2], #-460	; 0xfffffe34
    9b10:	68203a65 	stmdavs	r0!, {r0, r2, r5, r6, r9, fp, ip, sp}
    9b14:	20657661 	rsbcs	r7, r5, r1, ror #12
    9b18:	69206e61 	stmdbvs	r0!, {r0, r5, r6, r9, sl, fp, sp, lr}
    9b1c:	6e69666e 	cdpvs	6, 6, cr6, cr9, cr14, {3}
    9b20:	20657469 	rsbcs	r7, r5, r9, ror #8
    9b24:	656d6974 	strbvs	r6, [sp, #-2420]!	; 0x974
    9b28:	2174756f 	cmncs	r4, pc, ror #10
    9b2c:	00000a0a 	andeq	r0, r0, sl, lsl #20
    9b30:	3c207a73 	stccc	10, cr7, [r0], #-460	; 0xfffffe34
    9b34:	7a697320 	bvc	1a667bc <__bss_end__+0x1a5c86c>
    9b38:	20666f65 	rsbcs	r6, r6, r5, ror #30
    9b3c:	2d667562 	cfstr64cs	mvdx7, [r6, #-392]!	; 0xfffffe78
    9b40:	00000031 	andeq	r0, r0, r1, lsr r0

Disassembly of section .bss:

00009b44 <__bss_start__>:
	...

00009f44 <console_uart>:
	...

Disassembly of section .ARM.attributes:

00000000 <.ARM.attributes>:
   0:	00002a41 	andeq	r2, r0, r1, asr #20
   4:	61656100 	cmnvs	r5, r0, lsl #2
   8:	01006962 	tsteq	r0, r2, ror #18
   c:	00000020 	andeq	r0, r0, r0, lsr #32
  10:	4b5a3605 	blmi	168d82c <__bss_end__+0x16838dc>
  14:	08070600 	stmdaeq	r7, {r9, sl}
  18:	12010901 	andne	r0, r1, #16384	; 0x4000
  1c:	15011404 	strne	r1, [r1, #-1028]	; 0x404
  20:	18031701 	stmdane	r3, {r0, r8, r9, sl, ip}
  24:	22011a01 	andcs	r1, r1, #4096	; 0x1000
  28:	Address 0x0000000000000028 is out of bounds.


Disassembly of section .comment:

00000000 <.comment>:
   0:	3a434347 	bcc	10d0d24 <__bss_end__+0x10c6dd4>
   4:	4e472820 	cdpmi	8, 4, cr2, cr7, cr0, {1}
   8:	34202955 	strtcc	r2, [r0], #-2389	; 0x955
   c:	332e382e 	teqcc	lr, #3014656	; 0x2e0000
	...

Disassembly of section .debug_info:

00000000 <.debug_info>:
       0:	000006aa 	andeq	r0, r0, sl, lsr #13
       4:	00000004 	andeq	r0, r0, r4
       8:	01040000 	mrseq	r0, (UNDEF: 4)
       c:	0000007c 	andeq	r0, r0, ip, ror r0
      10:	00029701 	andeq	r9, r2, r1, lsl #14
      14:	0001b100 	andeq	fp, r1, r0, lsl #2
      18:	00801000 	addeq	r1, r0, r0
      1c:	0001c800 	andeq	ip, r1, r0, lsl #16
      20:	00000000 	andeq	r0, r0, r0
      24:	05040200 	streq	r0, [r4, #-512]	; 0x200
      28:	00746e69 	rsbseq	r6, r4, r9, ror #28
      2c:	33070403 	movwcc	r0, #29699	; 0x7403
      30:	03000000 	movweq	r0, #0
      34:	01830601 	orreq	r0, r3, r1, lsl #12
      38:	02030000 	andeq	r0, r3, #0
      3c:	00018f05 	andeq	r8, r1, r5, lsl #30
      40:	05040300 	streq	r0, [r4, #-768]	; 0x300
      44:	00000045 	andeq	r0, r0, r5, asr #32
      48:	40050803 	andmi	r0, r5, r3, lsl #16
      4c:	03000000 	movweq	r0, #0
      50:	01810801 	orreq	r0, r1, r1, lsl #16
      54:	02030000 	andeq	r0, r3, #0
      58:	00011707 	andeq	r1, r1, r7, lsl #14
      5c:	07040300 	streq	r0, [r4, -r0, lsl #6]
      60:	0000002e 	andeq	r0, r0, lr, lsr #32
      64:	29070803 	stmdbcs	r7, {r0, r1, fp}
      68:	04000000 	streq	r0, [r0], #-0
      6c:	0000016a 	andeq	r0, r0, sl, ror #2
      70:	00254902 	eoreq	r4, r5, r2, lsl #18
      74:	04030000 	streq	r0, [r3], #-0
      78:	00016107 	andeq	r6, r1, r7, lsl #2
      7c:	08010300 	stmdaeq	r1, {r8, r9}
      80:	0000018a 	andeq	r0, r0, sl, lsl #3
      84:	008a0405 	addeq	r0, sl, r5, lsl #8
      88:	7d060000 	stcvc	0, cr0, [r6, #-0]
      8c:	07000000 	streq	r0, [r0, -r0]
      90:	ae1c0108 	mufgee	f0, f4, #0.0
      94:	08000000 	stmdaeq	r0, {}	; <UNPREDICTABLE>
      98:	1d010076 	stcne	0, cr0, [r1, #-472]	; 0xfffffe28
      9c:	0000002c 	andeq	r0, r0, ip, lsr #32
      a0:	088b0900 	stmeq	fp, {r8, fp}
      a4:	1d010000 	stcne	0, cr0, [r1, #-0]
      a8:	0000002c 	andeq	r0, r0, ip, lsr #32
      ac:	72040004 	andvc	r0, r4, #4
      b0:	01000000 	mrseq	r0, (UNDEF: 0)
      b4:	00008f1e 	andeq	r8, r0, lr, lsl pc
      b8:	02580a00 	subseq	r0, r8, #0, 20
      bc:	21010000 	mrscs	r0, (UNDEF: 1)
      c0:	00000025 	andeq	r0, r0, r5, lsr #32
      c4:	0000de03 	andeq	sp, r0, r3, lsl #28
      c8:	69700b00 	ldmdbvs	r0!, {r8, r9, fp}^
      cc:	2101006e 	tstcs	r1, lr, rrx
      d0:	0000002c 	andeq	r0, r0, ip, lsr #32
      d4:	0100760c 	tsteq	r0, ip, lsl #12
      d8:	00002c23 	andeq	r2, r0, r3, lsr #24
      dc:	a20d0000 	andge	r0, sp, #0
      e0:	01000001 	tsteq	r0, r1
      e4:	00002c29 	andeq	r2, r0, r9, lsr #24
      e8:	00801000 	addeq	r1, r0, r0
      ec:	00005000 	andeq	r5, r0, r0
      f0:	be9c0100 	fmllte	f0, f4, f0
      f4:	0e000001 	cdpeq	0, 0, cr0, cr0, cr1, {0}
      f8:	29010073 	stmdbcs	r1, {r0, r1, r4, r5, r6}
      fc:	0000002c 	andeq	r0, r0, ip, lsr #32
     100:	00000000 	andeq	r0, r0, r0
     104:	00010a0f 	andeq	r0, r1, pc, lsl #20
     108:	0001ce00 	andeq	ip, r1, r0, lsl #28
     10c:	84030500 	strhi	r0, [r3], #-1280	; 0x500
     110:	10000098 	mulne	r0, r8, r0
     114:	0000021c 	andeq	r0, r0, ip, lsl r2
     118:	002c2b01 	eoreq	r2, ip, r1, lsl #22
     11c:	2a110000 	bcs	440124 <__bss_end__+0x4361d4>
     120:	01000001 	tsteq	r0, r1
     124:	00002c2d 	andeq	r2, r0, sp, lsr #24
     128:	00003a00 	andeq	r3, r0, r0, lsl #20
     12c:	801c1200 	andshi	r1, ip, r0, lsl #4
     130:	00040000 	andeq	r0, r4, r0
     134:	01460000 	mrseq	r0, (UNDEF: 70)
     138:	77100000 	ldrvc	r0, [r0, -r0]
     13c:	01000001 	tsteq	r0, r1
     140:	00002c2b 	andeq	r2, r0, fp, lsr #24
     144:	2c120000 	ldccs	0, cr0, [r2], {-0}
     148:	04000080 	streq	r0, [r0], #-128	; 0x80
     14c:	63000000 	movwvs	r0, #0
     150:	11000001 	tstne	r0, r1
     154:	00000177 	andeq	r0, r0, r7, ror r1
     158:	002c2d01 	eoreq	r2, ip, r1, lsl #26
     15c:	003a0000 	eorseq	r0, sl, r0
     160:	13000000 	movwne	r0, #0
     164:	0000802c 	andeq	r8, r0, ip, lsr #32
     168:	00000643 	andeq	r0, r0, r3, asr #12
     16c:	0000017c 	andeq	r0, r0, ip, ror r1
     170:	07500114 	smmlaeq	r0, r4, r1, r0
     174:	0a5001f3 	beq	1400948 <__bss_end__+0x13f69f8>
     178:	001e03e8 	andseq	r0, lr, r8, ror #7
     17c:	00803c15 	addeq	r3, r0, r5, lsl ip
     180:	00065400 	andeq	r5, r6, r0, lsl #8
     184:	80501300 	subshi	r1, r0, r0, lsl #6
     188:	065b0000 	ldrbeq	r0, [fp], -r0
     18c:	01b40000 			; <UNDEFINED> instruction: 0x01b40000
     190:	01140000 	tsteq	r4, r0
     194:	2a080253 	bcs	200ae8 <__bss_end__+0x1f6b98>
     198:	05520114 	ldrbeq	r0, [r2, #-276]	; 0x114
     19c:	00988403 	addseq	r8, r8, r3, lsl #8
     1a0:	51011400 	tstpl	r1, r0, lsl #8
     1a4:	98c40305 	stmials	r4, {r0, r2, r8, r9}^
     1a8:	01140000 	tsteq	r4, r0
     1ac:	94030550 	strls	r0, [r3], #-1360	; 0x550
     1b0:	00000098 	muleq	r0, r8, r0
     1b4:	00805415 	addeq	r5, r0, r5, lsl r4
     1b8:	00067100 	andeq	r7, r6, r0, lsl #2
     1bc:	7d160000 	ldcvc	0, cr0, [r6, #-0]
     1c0:	ce000000 	cdpgt	0, 0, cr0, cr0, cr0, {0}
     1c4:	17000001 	strne	r0, [r0, -r1]
     1c8:	00000076 	andeq	r0, r0, r6, ror r0
     1cc:	be06000e 	cdplt	0, 0, cr0, cr6, cr14, {0}
     1d0:	0d000001 	stceq	0, cr0, [r0, #-4]
     1d4:	0000020c 	andeq	r0, r0, ip, lsl #4
     1d8:	002c3701 	eoreq	r3, ip, r1, lsl #14
     1dc:	80600000 	rsbhi	r0, r0, r0
     1e0:	00980000 	addseq	r0, r8, r0
     1e4:	9c010000 	stcls	0, cr0, [r1], {-0}
     1e8:	00000392 	muleq	r0, r2, r3
     1ec:	6e69700e 	cdpvs	0, 6, cr7, cr9, cr14, {0}
     1f0:	2c370100 	ldfcss	f0, [r7], #-0
     1f4:	4d000000 	stcmi	0, cr0, [r0, #-0]
     1f8:	0e000000 	cdpeq	0, 0, cr0, cr0, cr0, {0}
     1fc:	3701006c 	strcc	r0, [r1, -ip, rrx]
     200:	00000392 	muleq	r0, r2, r3
     204:	0000006b 	andeq	r0, r0, fp, rrx
     208:	00013c18 	andeq	r3, r1, r8, lsl ip
     20c:	2c370100 	ldfcss	f0, [r7], #-0
     210:	97000000 	strls	r0, [r0, -r0]
     214:	18000000 	stmdane	r0, {}	; <UNPREDICTABLE>
     218:	00000267 	andeq	r0, r0, r7, ror #4
     21c:	002c3701 	eoreq	r3, ip, r1, lsl #14
     220:	00b50000 	adcseq	r0, r5, r0
     224:	78190000 	ldmdavc	r9, {}	; <UNPREDICTABLE>
     228:	01000002 	tsteq	r0, r2
     22c:	00006b38 	andeq	r6, r0, r8, lsr fp
     230:	3f110000 	svccc	0x00110000
     234:	01000002 	tsteq	r0, r2
     238:	00006b39 	andeq	r6, r0, r9, lsr fp
     23c:	0000d600 	andeq	sp, r0, r0, lsl #12
     240:	02221100 	eoreq	r1, r2, #0, 2
     244:	3a010000 	bcc	4024c <__bss_end__+0x362fc>
     248:	0000002c 	andeq	r0, r0, ip, lsr #32
     24c:	00000102 	andeq	r0, r0, r2, lsl #2
     250:	00001711 	andeq	r1, r0, r1, lsl r7
     254:	2c3b0100 	ldfcss	f0, [fp], #-0
     258:	37000000 	strcc	r0, [r0, -r0]
     25c:	10000001 	andne	r0, r0, r1
     260:	000004fa 	strdeq	r0, [r0], -sl
     264:	002c3e01 	eoreq	r3, ip, r1, lsl #28
     268:	b91a0000 	ldmdblt	sl, {}	; <UNPREDICTABLE>
     26c:	68000000 	stmdavs	r0, {}	; <UNPREDICTABLE>
     270:	00000080 	andeq	r0, r0, r0, lsl #1
     274:	01000000 	mrseq	r0, (UNDEF: 0)
     278:	0002a93b 	andeq	sl, r2, fp, lsr r9
     27c:	00c91b00 	sbceq	r1, r9, r0, lsl #22
     280:	004d0000 	subeq	r0, sp, r0
     284:	001c0000 	andseq	r0, ip, r0
     288:	1d000000 	stcne	0, cr0, [r0, #-0]
     28c:	000000d4 	ldrdeq	r0, [r0], -r4
     290:	0000014a 	andeq	r0, r0, sl, asr #2
     294:	0080801e 	addeq	r8, r0, lr, lsl r0
     298:	00067800 	andeq	r7, r6, r0, lsl #16
     29c:	50011400 	andpl	r1, r1, r0, lsl #8
     2a0:	00340c05 	eorseq	r0, r4, r5, lsl #24
     2a4:	00002020 	andeq	r2, r0, r0, lsr #32
     2a8:	00b91f00 	adcseq	r1, r9, r0, lsl #30
     2ac:	80880000 	addhi	r0, r8, r0
     2b0:	000c0000 	andeq	r0, ip, r0
     2b4:	3d010000 	stccc	0, cr0, [r1, #-0]
     2b8:	000002ea 	andeq	r0, r0, sl, ror #5
     2bc:	0000c920 	andeq	ip, r0, r0, lsr #18
     2c0:	21550100 	cmpcs	r5, r0, lsl #2
     2c4:	00008088 	andeq	r8, r0, r8, lsl #1
     2c8:	0000000c 	andeq	r0, r0, ip
     2cc:	0000d41d 	andeq	sp, r0, sp, lsl r4
     2d0:	00015d00 	andeq	r5, r1, r0, lsl #26
     2d4:	80901e00 	addshi	r1, r0, r0, lsl #28
     2d8:	06780000 	ldrbteq	r0, [r8], -r0
     2dc:	01140000 	tsteq	r4, r0
     2e0:	340c0550 	strcc	r0, [ip], #-1360	; 0x550
     2e4:	00202000 	eoreq	r2, r0, r0
     2e8:	a0120000 	andsge	r0, r2, r0
     2ec:	04000080 	streq	r0, [r0], #-128	; 0x80
     2f0:	03000000 	movweq	r0, #0
     2f4:	10000003 	andne	r0, r0, r3
     2f8:	00000177 	andeq	r0, r0, r7, ror r1
     2fc:	002c3e01 	eoreq	r3, ip, r1, lsl #28
     300:	21000000 	mrscs	r0, (UNDEF: 0)
     304:	000080b0 	strheq	r8, [r0], -r0
     308:	0000003c 	andeq	r0, r0, ip, lsr r0
     30c:	00028311 	andeq	r8, r2, r1, lsl r3
     310:	2c410100 	stfcse	f0, [r1], {-0}
     314:	70000000 	andvc	r0, r0, r0
     318:	1f000001 	svcne	0x00000001
     31c:	000000b9 	strheq	r0, [r0], -r9
     320:	000080b0 	strheq	r8, [r0], -r0
     324:	0000000c 	andeq	r0, r0, ip
     328:	035e4101 	cmpeq	lr, #1073741824	; 0x40000000
     32c:	c91b0000 	ldmdbgt	fp, {}	; <UNPREDICTABLE>
     330:	83000000 	movwhi	r0, #0
     334:	21000001 	tstcs	r0, r1
     338:	000080b0 	strheq	r8, [r0], -r0
     33c:	0000000c 	andeq	r0, r0, ip
     340:	0000d41d 	andeq	sp, r0, sp, lsl r4
     344:	00019600 	andeq	r9, r1, r0, lsl #12
     348:	80b81e00 	adcshi	r1, r8, r0, lsl #28
     34c:	06780000 	ldrbteq	r0, [r8], -r0
     350:	01140000 	tsteq	r4, r0
     354:	340c0550 	strcc	r0, [ip], #-1360	; 0x550
     358:	00202000 	eoreq	r2, r0, r0
     35c:	cc120000 	ldcgt	0, cr0, [r2], {-0}
     360:	04000080 	streq	r0, [r0], #-128	; 0x80
     364:	7b000000 	blvc	36c <_start-0x7c94>
     368:	11000003 	tstne	r0, r3
     36c:	00000177 	andeq	r0, r0, r7, ror r1
     370:	002c4501 	eoreq	r4, ip, r1, lsl #10
     374:	01a90000 			; <UNDEFINED> instruction: 0x01a90000
     378:	21000000 	mrscs	r0, (UNDEF: 0)
     37c:	000080d8 	ldrdeq	r8, [r0], -r8	; <UNPREDICTABLE>
     380:	00000004 	andeq	r0, r0, r4
     384:	00017710 	andeq	r7, r1, r0, lsl r7
     388:	2c460100 	stfcse	f0, [r6], {-0}
     38c:	00000000 	andeq	r0, r0, r0
     390:	04050000 	streq	r0, [r5], #-0
     394:	000000ae 	andeq	r0, r0, lr, lsr #1
     398:	00012f22 	andeq	r2, r1, r2, lsr #30
     39c:	f84f0100 			; <UNDEFINED> instruction: 0xf84f0100
     3a0:	90000080 	andls	r0, r0, r0, lsl #1
     3a4:	01000000 	mrseq	r0, (UNDEF: 0)
     3a8:	00047a9c 	muleq	r4, ip, sl
     3ac:	006c0e00 	rsbeq	r0, ip, r0, lsl #28
     3b0:	03924f01 	orrseq	r4, r2, #1, 30
     3b4:	01bc0000 			; <UNDEFINED> instruction: 0x01bc0000
     3b8:	6e0e0000 	cdpvs	0, 0, cr0, cr14, cr0, {0}
     3bc:	2c4f0100 	stfcse	f0, [pc], {-0}
     3c0:	e8000000 	stmda	r0, {}	; <UNPREDICTABLE>
     3c4:	18000001 	stmdane	r0, {r0}
     3c8:	00000022 	andeq	r0, r0, r2, lsr #32
     3cc:	002c4f01 	eoreq	r4, ip, r1, lsl #30
     3d0:	02160000 	andseq	r0, r6, #0
     3d4:	74230000 	strtvc	r0, [r3], #-0
     3d8:	0100746f 	tsteq	r0, pc, ror #8
     3dc:	00002c50 	andeq	r2, r0, r0, asr ip
     3e0:	00024200 	andeq	r4, r2, r0, lsl #4
     3e4:	004e1100 	subeq	r1, lr, r0, lsl #2
     3e8:	50010000 	andpl	r0, r1, r0
     3ec:	0000002c 	andeq	r0, r0, ip, lsr #32
     3f0:	00000261 	andeq	r0, r0, r1, ror #4
     3f4:	0000181c 	andeq	r1, r0, ip, lsl r8
     3f8:	00692300 	rsbeq	r2, r9, r0, lsl #6
     3fc:	00255201 	eoreq	r5, r5, r1, lsl #4
     400:	02800000 	addeq	r0, r0, #0
     404:	30210000 	eorcc	r0, r1, r0
     408:	40000081 	andmi	r0, r0, r1, lsl #1
     40c:	23000000 	movwcs	r0, #0
     410:	53010065 	movwpl	r0, #4197	; 0x1065
     414:	00000392 	muleq	r0, r2, r3
     418:	000002c2 	andeq	r0, r0, r2, asr #5
     41c:	00017c11 	andeq	r7, r1, r1, lsl ip
     420:	2c550100 	ldfcse	f0, [r5], {-0}
     424:	e5000000 	str	r0, [r0, #-0]
     428:	23000002 	movwcs	r0, #2
     42c:	00707865 	rsbseq	r7, r0, r5, ror #16
     430:	002c5801 	eoreq	r5, ip, r1, lsl #16
     434:	02f80000 	rscseq	r0, r8, #0
     438:	65230000 	strvs	r0, [r3, #-0]!
     43c:	01007272 	tsteq	r0, r2, ror r2
     440:	00002c59 	andeq	r2, r0, r9, asr ip
     444:	00030b00 	andeq	r0, r3, r0, lsl #22
     448:	81701e00 	cmnhi	r0, r0, lsl #28
     44c:	065b0000 	ldrbeq	r0, [fp], -r0
     450:	01140000 	tsteq	r4, r0
     454:	7f770251 	svcvc	0x00770251
     458:	05500114 	ldrbeq	r0, [r0, #-276]	; 0x114
     45c:	0098cc03 	addseq	ip, r8, r3, lsl #24
     460:	7d021400 	cfstrsvc	mvf1, [r2, #-0]
     464:	0076020c 	rsbseq	r0, r6, ip, lsl #4
     468:	047d0214 	ldrbteq	r0, [sp], #-532	; 0x214
     46c:	14007402 	strne	r7, [r0], #-1026	; 0x402
     470:	02007d02 	andeq	r7, r0, #2, 26	; 0x80
     474:	00000075 	andeq	r0, r0, r5, ror r0
     478:	0f220000 	svceq	0x00220000
     47c:	01000000 	mrseq	r0, (UNDEF: 0)
     480:	00818860 	addeq	r8, r1, r0, ror #16
     484:	00005000 	andeq	r5, r0, r0
     488:	429c0100 	addsmi	r0, ip, #0, 2
     48c:	24000005 	strcs	r0, [r0], #-5
     490:	006e6970 	rsbeq	r6, lr, r0, ror r9
     494:	00256101 	eoreq	r6, r5, r1, lsl #2
     498:	25150000 	ldrcs	r0, [r5, #-0]
     49c:	00676f6c 	rsbeq	r6, r7, ip, ror #30
     4a0:	05426701 	strbeq	r6, [r2, #-1793]	; 0x701
     4a4:	91030000 	mrsls	r0, (UNDEF: 3)
     4a8:	6e237fa8 	cdpvs	15, 2, cr7, cr3, cr8, {5}
     4ac:	2c690100 	stfcse	f0, [r9], #-0
     4b0:	2a000000 	bcs	4b8 <_start-0x7b48>
     4b4:	12000003 	andne	r0, r0, #3
     4b8:	0000819c 	muleq	r0, ip, r1
     4bc:	00000008 	andeq	r0, r0, r8
     4c0:	000004d0 	ldrdeq	r0, [r0], -r0	; <UNPREDICTABLE>
     4c4:	006e6924 	rsbeq	r6, lr, r4, lsr #18
     4c8:	002c6401 	eoreq	r6, ip, r1, lsl #8
     4cc:	00010000 	andeq	r0, r1, r0
     4d0:	00819415 	addeq	r9, r1, r5, lsl r4
     4d4:	00069900 	andeq	r9, r6, r0, lsl #18
     4d8:	819c1300 	orrshi	r1, ip, r0, lsl #6
     4dc:	06a00000 	strteq	r0, [r0], r0
     4e0:	04ec0000 	strbteq	r0, [ip], #0
     4e4:	01140000 	tsteq	r4, r0
     4e8:	00450150 	subeq	r0, r5, r0, asr r1
     4ec:	0081ac13 	addeq	sl, r1, r3, lsl ip
     4f0:	0000de00 	andeq	sp, r0, r0, lsl #28
     4f4:	0004ff00 	andeq	pc, r4, r0, lsl #30
     4f8:	50011400 	andpl	r1, r1, r0, lsl #8
     4fc:	13003101 	movwne	r3, #257	; 0x101
     500:	000081c0 	andeq	r8, r0, r0, asr #3
     504:	000001d3 	ldrdeq	r0, [r0], -r3
     508:	0000051d 	andeq	r0, r0, sp, lsl r5
     50c:	01520114 	cmpeq	r2, r4, lsl r1
     510:	5101143a 	tstpl	r1, sl, lsr r4
     514:	14007d02 	strne	r7, [r0], #-3330	; 0xd02
     518:	45015001 	strmi	r5, [r1, #-1]
     51c:	81d01300 	bicshi	r1, r0, r0, lsl #6
     520:	03980000 	orrseq	r0, r8, #0
     524:	05380000 	ldreq	r0, [r8, #-0]!
     528:	01140000 	tsteq	r4, r0
     52c:	700a0352 	andvc	r0, sl, r2, asr r3
     530:	50011417 	andpl	r1, r1, r7, lsl r4
     534:	00007d02 	andeq	r7, r0, r2, lsl #26
     538:	0081d415 	addeq	sp, r1, r5, lsl r4
     53c:	00067100 	andeq	r7, r6, r0, lsl #2
     540:	ae160000 	cdpge	0, 1, cr0, cr6, cr0, {0}
     544:	52000000 	andpl	r0, r0, #0
     548:	17000005 	strne	r0, [r0, -r5]
     54c:	00000076 	andeq	r0, r0, r6, ror r0
     550:	42260009 	eormi	r0, r6, #9
     554:	01000001 	tsteq	r0, r1
     558:	00056107 	andeq	r6, r5, r7, lsl #2
     55c:	20000000 	andcs	r0, r0, r0
     560:	67040520 	strvs	r0, [r4, -r0, lsr #10]
     564:	27000005 	strcs	r0, [r0, -r5]
     568:	0000002c 	andeq	r0, r0, ip, lsr #32
     56c:	00021226 	andeq	r1, r2, r6, lsr #4
     570:	61080100 	mrsvs	r0, (UNDEF: 24)
     574:	1c000005 	stcne	0, cr0, [r0], {5}
     578:	26202000 	strtcs	r2, [r0], -r0
     57c:	0000028d 	andeq	r0, r0, sp, lsl #5
     580:	05610901 	strbeq	r0, [r1, #-2305]!	; 0x901
     584:	00280000 	eoreq	r0, r8, r0
     588:	e2262020 	eor	r2, r6, #32
     58c:	01000000 	mrseq	r0, (UNDEF: 0)
     590:	0005610b 	andeq	r6, r5, fp, lsl #2
     594:	20000000 	andcs	r0, r0, r0
     598:	00ea2620 	rsceq	r2, sl, r0, lsr #12
     59c:	0c010000 	stceq	0, cr0, [r1], {-0}
     5a0:	00000561 	andeq	r0, r0, r1, ror #10
     5a4:	20200004 	eorcs	r0, r0, r4
     5a8:	00000026 	andeq	r0, r0, r6, lsr #32
     5ac:	610d0100 	mrsvs	r0, (UNDEF: 29)
     5b0:	08000005 	stmdaeq	r0, {r0, r2}
     5b4:	26202000 	strtcs	r2, [r0], -r0
     5b8:	000000f2 	strdeq	r0, [r0], -r2
     5bc:	05610e01 	strbeq	r0, [r1, #-3585]!	; 0xe01
     5c0:	000c0000 	andeq	r0, ip, r0
     5c4:	fa262020 	blx	98864c <__bss_end__+0x97e6fc>
     5c8:	01000000 	mrseq	r0, (UNDEF: 0)
     5cc:	0005610f 	andeq	r6, r5, pc, lsl #2
     5d0:	20001000 	andcs	r1, r0, r0
     5d4:	01022620 	tsteq	r2, r0, lsr #12
     5d8:	10010000 	andne	r0, r1, r0
     5dc:	00000561 	andeq	r0, r0, r1, ror #10
     5e0:	20200014 	eorcs	r0, r0, r4, lsl r0
     5e4:	00005626 	andeq	r5, r0, r6, lsr #12
     5e8:	61120100 	tstvs	r2, r0, lsl #2
     5ec:	1c000005 	stcne	0, cr0, [r0], {5}
     5f0:	26202000 	strtcs	r2, [r0], -r0
     5f4:	0000005d 	andeq	r0, r0, sp, asr r0
     5f8:	05611301 	strbeq	r1, [r1, #-769]!	; 0x301
     5fc:	00200000 	eoreq	r0, r0, r0
     600:	08262020 	stmdaeq	r6!, {r5, sp}
     604:	01000000 	mrseq	r0, (UNDEF: 0)
     608:	00056115 	andeq	r6, r5, r5, lsl r1
     60c:	20002800 	andcs	r2, r0, r0, lsl #16
     610:	014d2620 	cmpeq	sp, r0, lsr #12
     614:	16010000 	strne	r0, [r1], -r0
     618:	00000561 	andeq	r0, r0, r1, ror #10
     61c:	2020002c 	eorcs	r0, r0, ip, lsr #32
     620:	00006426 	andeq	r6, r0, r6, lsr #8
     624:	2f180100 	svccs	0x00180100
     628:	34000006 	strcc	r0, [r0], #-6
     62c:	06202000 	strteq	r2, [r0], -r0
     630:	00000561 	andeq	r0, r0, r1, ror #10
     634:	00006b26 	andeq	r6, r0, r6, lsr #22
     638:	61190100 	tstvs	r9, r0, lsl #2
     63c:	38000005 	stmdacc	r0, {r0, r2}
     640:	28202000 	stmdacs	r0!, {sp}
     644:	00000199 	muleq	r0, r9, r1
     648:	06545003 	ldrbeq	r5, [r4], -r3
     64c:	2c290000 	stccs	0, cr0, [r9], #-0
     650:	00000000 	andeq	r0, r0, r0
     654:	0000d32a 	andeq	sp, r0, sl, lsr #6
     658:	2b1e0300 	blcs	781260 <__bss_end__+0x777310>
     65c:	00000316 	andeq	r0, r0, r6, lsl r3
     660:	00252903 	eoreq	r2, r5, r3, lsl #18
     664:	06710000 	ldrbteq	r0, [r1], -r0
     668:	84290000 	strthi	r0, [r9], #-0
     66c:	2c000000 	stccs	0, cr0, [r0], {-0}
     670:	01542a00 	cmpeq	r4, r0, lsl #20
     674:	66030000 	strvs	r0, [r3], -r0
     678:	0002722b 	andeq	r7, r2, fp, lsr #4
     67c:	2ca90300 	stccs	3, cr0, [r9]
     680:	8d000000 	stchi	0, cr0, [r0, #-0]
     684:	29000006 	stmdbcs	r0, {r1, r2}
     688:	0000068d 	andeq	r0, r0, sp, lsl #13
     68c:	93040500 	movwls	r0, #17664	; 0x4500
     690:	06000006 	streq	r0, [r0], -r6
     694:	00000698 	muleq	r0, r8, r6
     698:	024b2a2d 	subeq	r2, fp, #184320	; 0x2d000
     69c:	8e030000 	cdphi	0, 0, cr0, cr3, cr0, {0}
     6a0:	0002302e 	andeq	r3, r2, lr, lsr #32
     6a4:	291c0400 	ldmdbcs	ip, {sl}
     6a8:	0000002c 	andeq	r0, r0, ip, lsr #32
     6ac:	01910000 	orrseq	r0, r1, r0
     6b0:	00040000 	andeq	r0, r4, r0
     6b4:	00000262 	andeq	r0, r0, r2, ror #4
     6b8:	02bc0104 	adcseq	r0, ip, #4, 2
     6bc:	ae010000 	cdpge	0, 0, cr0, cr1, cr0, {0}
     6c0:	27000002 	strcs	r0, [r0, -r2]
     6c4:	d8000003 	stmdale	r0, {r0, r1}
     6c8:	58000081 	stmdapl	r0, {r0, r7}
     6cc:	b5000000 	strlt	r0, [r0, #-0]
     6d0:	02000001 	andeq	r0, r0, #1
     6d4:	0000029f 	muleq	r0, pc, r2	; <UNPREDICTABLE>
     6d8:	00302802 	eorseq	r2, r0, r2, lsl #16
     6dc:	1d030000 	stcne	0, cr0, [r3, #-0]
     6e0:	04000003 	streq	r0, [r0], #-3
     6e4:	00470003 	subeq	r0, r7, r3
     6e8:	70040000 	andvc	r0, r4, r0
     6ec:	47000003 	strmi	r0, [r0, -r3]
     6f0:	00000000 	andeq	r0, r0, r0
     6f4:	02040500 	andeq	r0, r4, #0, 10
     6f8:	0000031f 	andeq	r0, r0, pc, lsl r3
     6fc:	00256202 	eoreq	r6, r5, r2, lsl #4
     700:	04060000 	streq	r0, [r6], #-0
     704:	746e6905 	strbtvc	r6, [lr], #-2309	; 0x905
     708:	07040700 	streq	r0, [r4, -r0, lsl #14]
     70c:	00000033 	andeq	r0, r0, r3, lsr r0
     710:	83060107 	movwhi	r0, #24839	; 0x6107
     714:	07000001 	streq	r0, [r0, -r1]
     718:	018f0502 	orreq	r0, pc, r2, lsl #10
     71c:	04070000 	streq	r0, [r7], #-0
     720:	00004505 	andeq	r4, r0, r5, lsl #10
     724:	05080700 	streq	r0, [r8, #-1792]	; 0x700
     728:	00000040 	andeq	r0, r0, r0, asr #32
     72c:	81080107 	tsthi	r8, r7, lsl #2
     730:	07000001 	streq	r0, [r0, -r1]
     734:	01170702 	tsteq	r7, r2, lsl #14
     738:	04070000 	streq	r0, [r7], #-0
     73c:	00002e07 	andeq	r2, r0, r7, lsl #28
     740:	07080700 	streq	r0, [r8, -r0, lsl #14]
     744:	00000029 	andeq	r0, r0, r9, lsr #32
     748:	61070407 	tstvs	r7, r7, lsl #8
     74c:	08000001 	stmdaeq	r0, {r0}
     750:	0000a704 	andeq	sl, r0, r4, lsl #14
     754:	08010700 	stmdaeq	r1, {r8, r9, sl}
     758:	0000018a 	andeq	r0, r0, sl, lsl #3
     75c:	00b40408 	adcseq	r0, r4, r8, lsl #8
     760:	a7090000 	strge	r0, [r9, -r0]
     764:	0a000000 	beq	76c <_start-0x7894>
     768:	00000316 	andeq	r0, r0, r6, lsl r3
     76c:	00540601 	subseq	r0, r4, r1, lsl #12
     770:	81d80000 	bicshi	r0, r8, r0
     774:	00580000 	subseq	r0, r8, r0
     778:	9c010000 	stcls	0, cr0, [r1], {-0}
     77c:	00000143 	andeq	r0, r0, r3, asr #2
     780:	746d660b 	strbtvc	r6, [sp], #-1547	; 0x60b
     784:	ae060100 	adfges	f0, f6, f0
     788:	02000000 	andeq	r0, r0, #0
     78c:	0d0c7091 	stceq	0, cr7, [ip, #-580]	; 0xfffffdbc
     790:	00667562 	rsbeq	r7, r6, r2, ror #10
     794:	01430801 	cmpeq	r3, r1, lsl #16
     798:	03050000 	movweq	r0, #20480	; 0x5000
     79c:	00009b44 	andeq	r9, r0, r4, asr #22
     7a0:	00036b0e 	andeq	r6, r3, lr, lsl #22
     7a4:	49090100 	stmdbmi	r9, {r8}
     7a8:	02000000 	andeq	r0, r0, #0
     7ac:	730f5c91 	movwvc	r5, #64657	; 0xfc91
     7b0:	0c01007a 	stceq	0, cr0, [r1], {122}	; 0x7a
     7b4:	00000054 	andeq	r0, r0, r4, asr r0
     7b8:	00000348 	andeq	r0, r0, r8, asr #6
     7bc:	00820010 	addeq	r0, r2, r0, lsl r0
     7c0:	00017400 	andeq	r7, r1, r0, lsl #8
     7c4:	00013600 	andeq	r3, r1, r0, lsl #12
     7c8:	53011100 	movwpl	r1, #4352	; 0x1100
     7cc:	114c9102 	cmpne	ip, r2, lsl #2
     7d0:	91035201 	tstls	r3, r1, lsl #4
     7d4:	01110648 	tsteq	r1, r8, asr #12
     7d8:	000a0351 	andeq	r0, sl, r1, asr r3
     7dc:	50011104 	andpl	r1, r1, r4, lsl #2
     7e0:	00007402 	andeq	r7, r0, r2, lsl #8
     7e4:	00821412 	addeq	r1, r2, r2, lsl r4
     7e8:	50011100 	andpl	r1, r1, r0, lsl #2
     7ec:	00007402 	andeq	r7, r0, r2, lsl #8
     7f0:	00a71300 	adceq	r1, r7, r0, lsl #6
     7f4:	01540000 	cmpeq	r4, r0
     7f8:	9a140000 	bls	500800 <__bss_end__+0x4f68b0>
     7fc:	ff000000 			; <UNDEFINED> instruction: 0xff000000
     800:	54150003 	ldrpl	r0, [r5], #-3
     804:	63000000 	movwvs	r0, #0
     808:	16000001 	strne	r0, [r0], -r1
     80c:	000000ae 	andeq	r0, r0, lr, lsr #1
     810:	03c31700 	biceq	r1, r3, #0, 14
     814:	22040000 	andcs	r0, r4, #0
     818:	0000016e 	andeq	r0, r0, lr, ror #2
     81c:	01540408 	cmpeq	r4, r8, lsl #8
     820:	13180000 	tstne	r8, #0
     824:	05000003 	streq	r0, [r0, #-3]
     828:	00005402 	andeq	r5, r0, r2, lsl #8
     82c:	00a11600 	adceq	r1, r1, r0, lsl #12
     830:	54160000 	ldrpl	r0, [r6], #-0
     834:	16000000 	strne	r0, [r0], -r0
     838:	000000ae 	andeq	r0, r0, lr, lsr #1
     83c:	00004916 	andeq	r4, r0, r6, lsl r9
     840:	13000000 	movwne	r0, #0
     844:	04000001 	streq	r0, [r0], #-1
     848:	00039300 	andeq	r9, r3, r0, lsl #6
     84c:	bc010400 	cfstrslt	mvf0, [r1], {-0}
     850:	01000002 	tsteq	r0, r2
     854:	00000392 	muleq	r0, r2, r3
     858:	00000327 	andeq	r0, r0, r7, lsr #6
     85c:	00008230 	andeq	r8, r0, r0, lsr r2
     860:	0000003c 	andeq	r0, r0, ip, lsr r0
     864:	000002bb 			; <UNDEFINED> instruction: 0x000002bb
     868:	69050402 	stmdbvs	r5, {r1, sl}
     86c:	0300746e 	movweq	r7, #1134	; 0x46e
     870:	00330704 	eorseq	r0, r3, r4, lsl #14
     874:	01030000 	mrseq	r0, (UNDEF: 3)
     878:	00018306 	andeq	r8, r1, r6, lsl #6
     87c:	05020300 	streq	r0, [r2, #-768]	; 0x300
     880:	0000018f 	andeq	r0, r0, pc, lsl #3
     884:	45050403 	strmi	r0, [r5, #-1027]	; 0x403
     888:	03000000 	movweq	r0, #0
     88c:	00400508 	subeq	r0, r0, r8, lsl #10
     890:	01030000 	mrseq	r0, (UNDEF: 3)
     894:	00018108 	andeq	r8, r1, r8, lsl #2
     898:	07020300 	streq	r0, [r2, -r0, lsl #6]
     89c:	00000117 	andeq	r0, r0, r7, lsl r1
     8a0:	2e070403 	cdpcs	4, 0, cr0, cr7, cr3, {0}
     8a4:	03000000 	movweq	r0, #0
     8a8:	00290708 	eoreq	r0, r9, r8, lsl #14
     8ac:	04030000 	streq	r0, [r3], #-0
     8b0:	00016107 	andeq	r6, r1, r7, lsl #2
     8b4:	08010300 	stmdaeq	r1, {r8, r9}
     8b8:	0000018a 	andeq	r0, r0, sl, lsl #3
     8bc:	00037504 	andeq	r7, r3, r4, lsl #10
     8c0:	25030100 	strcs	r0, [r3, #-256]	; 0x100
     8c4:	30000000 	andcc	r0, r0, r0
     8c8:	14000082 	strne	r0, [r0], #-130	; 0x82
     8cc:	01000000 	mrseq	r0, (UNDEF: 0)
     8d0:	0000b09c 	muleq	r0, ip, r0
     8d4:	00630500 	rsbeq	r0, r3, r0, lsl #10
     8d8:	00250301 	eoreq	r0, r5, r1, lsl #6
     8dc:	03710000 	cmneq	r1, #0
     8e0:	3c060000 	stccc	0, cr0, [r6], {-0}
     8e4:	09000082 	stmdbeq	r0, {r1, r7}
     8e8:	07000001 	streq	r0, [r0, -r1]
     8ec:	74025001 	strvc	r5, [r2], #-1
     8f0:	08000000 	stmdaeq	r0, {}	; <UNPREDICTABLE>
     8f4:	000000d3 	ldrdeq	r0, [r0], -r3
     8f8:	82440801 	subhi	r0, r4, #65536	; 0x10000
     8fc:	00180000 	andseq	r0, r8, r0
     900:	9c010000 	stcls	0, cr0, [r1], {-0}
     904:	0003a109 	andeq	sl, r3, r9, lsl #2
     908:	5c0b0100 	stfpls	f0, [fp], {-0}
     90c:	10000082 	andne	r0, r0, r2, lsl #1
     910:	01000000 	mrseq	r0, (UNDEF: 0)
     914:	0000e39c 	muleq	r0, ip, r3
     918:	70660a00 	rsbvc	r0, r6, r0, lsl #20
     91c:	f20b0100 	vrhadd.s8	d0, d11, d0
     920:	01000000 	mrseq	r0, (UNDEF: 0)
     924:	250b0050 	strcs	r0, [fp, #-80]	; 0x50
     928:	f2000000 	vhadd.s8	d0, d0, d0
     92c:	0c000000 	stceq	0, cr0, [r0], {-0}
     930:	00000025 	andeq	r0, r0, r5, lsr #32
     934:	e3040d00 	movw	r0, #19712	; 0x4d00
     938:	0e000000 	cdpeq	0, 0, cr0, cr0, cr0, {0}
     93c:	00000386 	andeq	r0, r0, r6, lsl #7
     940:	00f20601 	rscseq	r0, r2, r1, lsl #12
     944:	03050000 	movweq	r0, #20480	; 0x5000
     948:	000097e8 	andeq	r9, r0, r8, ror #15
     94c:	00050e0f 	andeq	r0, r5, pc, lsl #28
     950:	0c3c0200 	lfmeq	f0, 4, [ip], #-0
     954:	0000002c 	andeq	r0, r0, ip, lsr #32
     958:	00ee0000 	rsceq	r0, lr, r0
     95c:	00040000 	andeq	r0, r4, r0
     960:	0000047b 	andeq	r0, r0, fp, ror r4
     964:	02bc0104 	adcseq	r0, ip, #4, 2
     968:	ae010000 	cdpge	0, 0, cr0, cr1, cr0, {0}
     96c:	27000003 	strcs	r0, [r0, -r3]
     970:	6c000003 	stcvs	0, cr0, [r0], {3}
     974:	34000082 	strcc	r0, [r0], #-130	; 0x82
     978:	49000000 	stmdbmi	r0, {}	; <UNPREDICTABLE>
     97c:	02000003 	andeq	r0, r0, #3
     980:	6e690504 	cdpvs	5, 6, cr0, cr9, cr4, {0}
     984:	04030074 	streq	r0, [r3], #-116	; 0x74
     988:	00003307 	andeq	r3, r0, r7, lsl #6
     98c:	06010300 	streq	r0, [r1], -r0, lsl #6
     990:	00000183 	andeq	r0, r0, r3, lsl #3
     994:	8f050203 	svchi	0x00050203
     998:	03000001 	movweq	r0, #1
     99c:	00450504 	subeq	r0, r5, r4, lsl #10
     9a0:	08030000 	stmdaeq	r3, {}	; <UNPREDICTABLE>
     9a4:	00004005 	andeq	r4, r0, r5
     9a8:	08010300 	stmdaeq	r1, {r8, r9}
     9ac:	00000181 	andeq	r0, r0, r1, lsl #3
     9b0:	17070203 	strne	r0, [r7, -r3, lsl #4]
     9b4:	03000001 	movweq	r0, #1
     9b8:	002e0704 	eoreq	r0, lr, r4, lsl #14
     9bc:	08030000 	stmdaeq	r3, {}	; <UNPREDICTABLE>
     9c0:	00002907 	andeq	r2, r0, r7, lsl #18
     9c4:	07040300 	streq	r0, [r4, -r0, lsl #6]
     9c8:	00000161 	andeq	r0, r0, r1, ror #2
     9cc:	8a080103 	bhi	200de0 <__bss_end__+0x1f6e90>
     9d0:	04000001 	streq	r0, [r0], #-1
     9d4:	00007f04 	andeq	r7, r0, r4, lsl #30
     9d8:	00720500 	rsbseq	r0, r2, r0, lsl #10
     9dc:	ba060000 	blt	1809e4 <__bss_end__+0x176a94>
     9e0:	01000003 	tsteq	r0, r3
     9e4:	00002504 	andeq	r2, r0, r4, lsl #10
     9e8:	00826c00 	addeq	r6, r2, r0, lsl #24
     9ec:	00003400 	andeq	r3, r0, r0, lsl #8
     9f0:	ab9c0100 	blge	fe700df8 <__bss_end__+0xfe6f6ea8>
     9f4:	07000000 	streq	r0, [r0, -r0]
     9f8:	04010070 	streq	r0, [r1], #-112	; 0x70
     9fc:	00000079 	andeq	r0, r0, r9, ror r0
     a00:	0000038f 	andeq	r0, r0, pc, lsl #7
     a04:	00250800 	eoreq	r0, r5, r0, lsl #16
     a08:	00ba0000 	adcseq	r0, sl, r0
     a0c:	25090000 	strcs	r0, [r9, #-0]
     a10:	00000000 	andeq	r0, r0, r0
     a14:	0003860a 	andeq	r8, r3, sl, lsl #12
     a18:	c51d0200 	ldrgt	r0, [sp, #-512]	; 0x200
     a1c:	04000000 	streq	r0, [r0], #-0
     a20:	0000ab04 	andeq	sl, r0, r4, lsl #22
     a24:	00250800 	eoreq	r0, r5, r0, lsl #16
     a28:	00da0000 	sbcseq	r0, sl, r0
     a2c:	79090000 	stmdbvc	r9, {}	; <UNPREDICTABLE>
     a30:	00000000 	andeq	r0, r0, r0
     a34:	0003c30b 	andeq	ip, r3, fp, lsl #6
     a38:	eb0c0100 	bl	300e40 <__bss_end__+0x2f6ef0>
     a3c:	05000000 	streq	r0, [r0, #-0]
     a40:	0097ec03 	addseq	lr, r7, r3, lsl #24
     a44:	cb040400 	blgt	101a4c <__bss_end__+0xf7afc>
     a48:	00000000 	andeq	r0, r0, r0
     a4c:	000006a1 	andeq	r0, r0, r1, lsr #13
     a50:	05140004 	ldreq	r0, [r4, #-4]
     a54:	01040000 	mrseq	r0, (UNDEF: 4)
     a58:	000002bc 			; <UNDEFINED> instruction: 0x000002bc
     a5c:	0003f401 	andeq	pc, r3, r1, lsl #8
     a60:	00032700 	andeq	r2, r3, r0, lsl #14
     a64:	0082a000 	addeq	sl, r2, r0
     a68:	00052400 	andeq	r2, r5, r0, lsl #8
     a6c:	0003e300 	andeq	lr, r3, r0, lsl #6
     a70:	05040200 	streq	r0, [r4, #-512]	; 0x200
     a74:	00746e69 	rsbseq	r6, r4, r9, ror #28
     a78:	33070403 	movwcc	r0, #29699	; 0x7403
     a7c:	03000000 	movweq	r0, #0
     a80:	01830601 	orreq	r0, r3, r1, lsl #12
     a84:	02030000 	andeq	r0, r3, #0
     a88:	00018f05 	andeq	r8, r1, r5, lsl #30
     a8c:	05040300 	streq	r0, [r4, #-768]	; 0x300
     a90:	00000045 	andeq	r0, r0, r5, asr #32
     a94:	40050803 	andmi	r0, r5, r3, lsl #16
     a98:	03000000 	movweq	r0, #0
     a9c:	01810801 	orreq	r0, r1, r1, lsl #16
     aa0:	02030000 	andeq	r0, r3, #0
     aa4:	00011707 	andeq	r1, r1, r7, lsl #14
     aa8:	07040300 	streq	r0, [r4, -r0, lsl #6]
     aac:	0000002e 	andeq	r0, r0, lr, lsr #32
     ab0:	29070803 	stmdbcs	r7, {r0, r1, fp}
     ab4:	03000000 	movweq	r0, #0
     ab8:	01610704 	cmneq	r1, r4, lsl #14
     abc:	04040000 	streq	r0, [r4], #-0
     ac0:	007a0405 	rsbseq	r0, sl, r5, lsl #8
     ac4:	01030000 	mrseq	r0, (UNDEF: 3)
     ac8:	00018a08 	andeq	r8, r1, r8, lsl #20
     acc:	87040500 	strhi	r0, [r4, -r0, lsl #10]
     ad0:	06000000 	streq	r0, [r0], -r0
     ad4:	0000007a 	andeq	r0, r0, sl, ror r0
     ad8:	00029f07 	andeq	r9, r2, r7, lsl #30
     adc:	97280200 	strls	r0, [r8, -r0, lsl #4]!
     ae0:	08000000 	stmdaeq	r0, {}	; <UNPREDICTABLE>
     ae4:	0000031d 	andeq	r0, r0, sp, lsl r3
     ae8:	ae000404 	cdpge	4, 0, cr0, cr0, cr4, {0}
     aec:	09000000 	stmdbeq	r0, {}	; <UNPREDICTABLE>
     af0:	00000370 	andeq	r0, r0, r0, ror r3
     af4:	00000072 	andeq	r0, r0, r2, ror r0
     af8:	1f070000 	svcne	0x00070000
     afc:	02000003 	andeq	r0, r0, #3
     b00:	00008c62 	andeq	r8, r0, r2, ror #24
     b04:	03d60a00 	bicseq	r0, r6, #0, 20
     b08:	27010000 	strcs	r0, [r1, -r0]
     b0c:	00000025 	andeq	r0, r0, r5, lsr #32
     b10:	000082a0 	andeq	r8, r0, r0, lsr #5
     b14:	00000014 	andeq	r0, r0, r4, lsl r0
     b18:	00e09c01 	rsceq	r9, r0, r1, lsl #24
     b1c:	630b0000 	movwvs	r0, #45056	; 0xb000
     b20:	25270100 	strcs	r0, [r7, #-256]!	; 0x100
     b24:	ad000000 	stcge	0, cr0, [r0, #-0]
     b28:	00000003 	andeq	r0, r0, r3
     b2c:	6461700c 	strbtvs	r7, [r1], #-12
     b30:	742e0100 	strtvc	r0, [lr], #-256	; 0x100
     b34:	b4000000 	strlt	r0, [r0], #-0
     b38:	2c000082 	stccs	0, cr0, [r0], {130}	; 0x82
     b3c:	01000000 	mrseq	r0, (UNDEF: 0)
     b40:	0001309c 	muleq	r1, ip, r0
     b44:	00700b00 	rsbseq	r0, r0, r0, lsl #22
     b48:	00742e01 	rsbseq	r2, r4, r1, lsl #28
     b4c:	03db0000 	bicseq	r0, fp, #0
     b50:	e60d0000 	str	r0, [sp], -r0
     b54:	01000003 	tsteq	r0, r3
     b58:	0000742e 	andeq	r7, r0, lr, lsr #8
     b5c:	00040600 	andeq	r0, r4, r0, lsl #12
     b60:	04140e00 	ldreq	r0, [r4], #-3584	; 0xe00
     b64:	2e010000 	cdpcs	0, 0, cr0, cr1, cr0, {0}
     b68:	00000025 	andeq	r0, r0, r5, lsr #32
     b6c:	6c0f5201 	sfmvs	f5, 4, [pc], {1}
     b70:	01006e65 	tsteq	r0, r5, ror #28
     b74:	0000252f 	andeq	r2, r0, pc, lsr #10
     b78:	00510100 	subseq	r0, r1, r0, lsl #2
     b7c:	0003ce0a 	andeq	ip, r3, sl, lsl #28
     b80:	74370100 	ldrtvc	r0, [r7], #-256	; 0x100
     b84:	e0000000 	and	r0, r0, r0
     b88:	40000082 	andmi	r0, r0, r2, lsl #1
     b8c:	01000000 	mrseq	r0, (UNDEF: 0)
     b90:	00019c9c 	muleq	r1, ip, ip
     b94:	73640b00 	cmnvc	r4, #0, 22
     b98:	37010074 	smlsdxcc	r1, r4, r0, r0
     b9c:	00000074 	andeq	r0, r0, r4, ror r0
     ba0:	00000427 	andeq	r0, r0, r7, lsr #8
     ba4:	01006e0b 	tsteq	r0, fp, lsl #28
     ba8:	00002537 	andeq	r2, r0, r7, lsr r5
     bac:	00045f00 	andeq	r5, r4, r0, lsl #30
     bb0:	00700b00 	rsbseq	r0, r0, r0, lsl #22
     bb4:	00743701 	rsbseq	r3, r4, r1, lsl #14
     bb8:	04800000 	streq	r0, [r0], #0
     bbc:	fa0d0000 	blx	340bc4 <__bss_end__+0x336c74>
     bc0:	01000004 	tsteq	r0, r4
     bc4:	00007437 	andeq	r7, r0, r7, lsr r4
     bc8:	0004b600 	andeq	fp, r4, r0, lsl #12
     bcc:	656c1000 	strbvs	r1, [ip, #-0]!
     bd0:	3901006e 	stmdbcc	r1, {r1, r2, r3, r5, r6}
     bd4:	00000025 	andeq	r0, r0, r5, lsr #32
     bd8:	000004d4 	ldrdeq	r0, [r0], -r4
     bdc:	0100730f 	tsteq	r0, pc, lsl #6
     be0:	0000743d 	andeq	r7, r0, sp, lsr r4
     be4:	00500100 	subseq	r0, r0, r0, lsl #2
     be8:	0004220a 	andeq	r2, r4, sl, lsl #4
     bec:	74470100 	strbvc	r0, [r7], #-256	; 0x100
     bf0:	20000000 	andcs	r0, r0, r0
     bf4:	a8000083 	stmdage	r0, {r0, r1, r7}
     bf8:	01000001 	tsteq	r0, r1
     bfc:	0002df9c 	muleq	r2, ip, pc	; <UNPREDICTABLE>
     c00:	03e60d00 	mvneq	r0, #0, 26
     c04:	47010000 	strmi	r0, [r1, -r0]
     c08:	0000002c 	andeq	r0, r0, ip, lsr #32
     c0c:	000004fb 	strdeq	r0, [r0], -fp
     c10:	7473640b 	ldrbtvc	r6, [r3], #-1035	; 0x40b
     c14:	74470100 	strbvc	r0, [r7], #-256	; 0x100
     c18:	29000000 	stmdbcs	r0, {}	; <UNPREDICTABLE>
     c1c:	0b000005 	bleq	c38 <_start-0x73c8>
     c20:	4701006e 	strmi	r0, [r1, -lr, rrx]
     c24:	00000025 	andeq	r0, r0, r5, lsr #32
     c28:	00000597 	muleq	r0, r7, r5
     c2c:	6c61760b 	stclvs	6, cr7, [r1], #-44	; 0xffffffd4
     c30:	25470100 	strbcs	r0, [r7, #-256]	; 0x100
     c34:	c3000000 	movwgt	r0, #0
     c38:	0d000005 	stceq	0, cr0, [r0, #-20]	; 0xffffffec
     c3c:	00000414 	andeq	r0, r0, r4, lsl r4
     c40:	00254701 	eoreq	r4, r5, r1, lsl #14
     c44:	06420000 	strbeq	r0, [r2], -r0
     c48:	eb0e0000 	bl	380c50 <__bss_end__+0x376d00>
     c4c:	01000003 	tsteq	r0, r3
     c50:	00002547 	andeq	r2, r0, r7, asr #10
     c54:	04910200 	ldreq	r0, [r1], #512	; 0x200
     c58:	6675620f 	ldrbtvs	r6, [r5], -pc, lsl #4
     c5c:	df4c0100 	svcle	0x004c0100
     c60:	03000002 	movweq	r0, #2
     c64:	107fa891 			; <UNDEFINED> instruction: 0x107fa891
     c68:	4c010070 	stcmi	0, cr0, [r1], {112}	; 0x70
     c6c:	00000074 	andeq	r0, r0, r4, ror r0
     c70:	0000066c 	andeq	r0, r0, ip, ror #12
     c74:	01007510 	tsteq	r0, r0, lsl r5
     c78:	00002c4d 	andeq	r2, r0, sp, asr #24
     c7c:	00072800 	andeq	r2, r7, r0, lsl #16
     c80:	010a1100 	mrseq	r1, (UNDEF: 26)
     c84:	02ff0000 	rscseq	r0, pc, #0
     c88:	03050000 	movweq	r0, #20480	; 0x5000
     c8c:	00009908 	andeq	r9, r0, r8, lsl #18
     c90:	00838c12 	addeq	r8, r3, r2, lsl ip
     c94:	00007400 	andeq	r7, r0, r0, lsl #8
     c98:	00026100 	andeq	r6, r2, r0, lsl #2
     c9c:	03c81300 	biceq	r1, r8, #0, 6
     ca0:	52010000 	andpl	r0, r1, #0
     ca4:	0000002c 	andeq	r0, r0, ip, lsr #32
     ca8:	0000082d 	andeq	r0, r0, sp, lsr #16
     cac:	84601400 	strbthi	r1, [r0], #-1024	; 0x400
     cb0:	06800000 	streq	r0, [r0], r0
     cb4:	7c150000 	ldcvc	0, cr0, [r5], {-0}
     cb8:	87000084 	strhi	r0, [r0, -r4, lsl #1]
     cbc:	a3000006 	movwge	r0, #6
     cc0:	16000002 	strne	r0, [r0], -r2
     cc4:	08025301 	stmdaeq	r2, {r0, r8, r9, ip, lr}
     cc8:	52011675 	andpl	r1, r1, #122683392	; 0x7500000
     ccc:	99080305 	stmdbls	r8, {r0, r2, r8, r9}
     cd0:	01160000 	tsteq	r6, r0
     cd4:	40030551 	andmi	r0, r3, r1, asr r5
     cd8:	16000099 			; <UNDEFINED> instruction: 0x16000099
     cdc:	03055001 	movweq	r5, #20481	; 0x5001
     ce0:	0000992c 	andeq	r9, r0, ip, lsr #18
     ce4:	007d0216 	rsbseq	r0, sp, r6, lsl r2
     ce8:	99540305 	ldmdbls	r4, {r0, r2, r8, r9}^
     cec:	14000000 	strne	r0, [r0], #-0
     cf0:	00008480 	andeq	r8, r0, r0, lsl #9
     cf4:	0000069d 	muleq	r0, sp, r6
     cf8:	00848c15 	addeq	r8, r4, r5, lsl ip
     cfc:	0000e000 	andeq	lr, r0, r0
     d00:	0002c100 	andeq	ip, r2, r0, lsl #2
     d04:	51011600 	tstpl	r1, r0, lsl #12
     d08:	7fa09103 	svcvc	0x00a09103
     d0c:	84a01700 	strthi	r1, [r0], #1792	; 0x700
     d10:	01300000 	teqeq	r0, r0
     d14:	01160000 	tsteq	r6, r0
     d18:	a0910353 	addsge	r0, r1, r3, asr r3
     d1c:	5101167f 	tstpl	r1, pc, ror r6
     d20:	16007402 	strne	r7, [r0], -r2, lsl #8
     d24:	75025001 	strvc	r5, [r2, #-1]
     d28:	18000000 	stmdane	r0, {}	; <UNPREDICTABLE>
     d2c:	0000007a 	andeq	r0, r0, sl, ror r0
     d30:	000002ef 	andeq	r0, r0, pc, ror #5
     d34:	00006b19 	andeq	r6, r0, r9, lsl fp
     d38:	18003f00 	stmdane	r0, {r8, r9, sl, fp, ip, sp}
     d3c:	0000007a 	andeq	r0, r0, sl, ror r0
     d40:	000002ff 	strdeq	r0, [r0], -pc	; <UNPREDICTABLE>
     d44:	00006b19 	andeq	r6, r0, r9, lsl fp
     d48:	06000400 	streq	r0, [r0], -r0, lsl #8
     d4c:	000002ef 	andeq	r0, r0, pc, ror #5
     d50:	0004051a 	andeq	r0, r4, sl, lsl r5
     d54:	c81f0100 	ldmdagt	pc, {r8}	; <UNPREDICTABLE>
     d58:	68000084 	stmdavs	r0, {r2, r7}
     d5c:	01000000 	mrseq	r0, (UNDEF: 0)
     d60:	0003929c 	muleq	r3, ip, r2
     d64:	041a0d00 	ldreq	r0, [sl], #-3328	; 0xd00
     d68:	1f010000 	svcne	0x00010000
     d6c:	000003a1 	andeq	r0, r0, r1, lsr #7
     d70:	00000859 	andeq	r0, r0, r9, asr r8
     d74:	0003de0d 	andeq	sp, r3, sp, lsl #28
     d78:	b61f0100 	ldrlt	r0, [pc], -r0, lsl #2
     d7c:	85000003 	strhi	r0, [r0, #-3]
     d80:	11000008 	tstne	r0, r8
     d84:	0000010a 	andeq	r0, r0, sl, lsl #2
     d88:	000003cc 	andeq	r0, r0, ip, asr #7
     d8c:	99100305 	ldmdbls	r0, {r0, r2, r8, r9}
     d90:	dc140000 	ldcle	0, cr0, [r4], {-0}
     d94:	80000084 	andhi	r0, r0, r4, lsl #1
     d98:	15000006 	strne	r0, [r0, #-6]
     d9c:	000084f8 	strdeq	r8, [r0], -r8	; <UNPREDICTABLE>
     da0:	00000687 	andeq	r0, r0, r7, lsl #13
     da4:	00000388 	andeq	r0, r0, r8, lsl #7
     da8:	02530116 	subseq	r0, r3, #-2147483643	; 0x80000005
     dac:	01162008 	tsteq	r6, r8
     db0:	10030552 	andne	r0, r3, r2, asr r5
     db4:	16000099 			; <UNDEFINED> instruction: 0x16000099
     db8:	03055101 	movweq	r5, #20737	; 0x5101
     dbc:	00009940 	andeq	r9, r0, r0, asr #18
     dc0:	05500116 	ldrbeq	r0, [r0, #-278]	; 0x116
     dc4:	00992c03 	addseq	r2, r9, r3, lsl #24
     dc8:	7d021600 	stcvc	6, cr1, [r2, #-0]
     dcc:	7c030500 	cfstr32vc	mvfx0, [r3], {-0}
     dd0:	00000099 	muleq	r0, r9, r0
     dd4:	0084fc14 	addeq	pc, r4, r4, lsl ip	; <UNPREDICTABLE>
     dd8:	00069d00 	andeq	r9, r6, r0, lsl #26
     ddc:	251b0000 	ldrcs	r0, [fp, #-0]
     de0:	a1000000 	mrsge	r0, (UNDEF: 0)
     de4:	1c000003 	stcne	0, cr0, [r0], {3}
     de8:	00000025 	andeq	r0, r0, r5, lsr #32
     dec:	92040500 	andls	r0, r4, #0, 10
     df0:	1b000003 	blne	e04 <_start-0x71fc>
     df4:	00000025 	andeq	r0, r0, r5, lsr #32
     df8:	000003b6 			; <UNDEFINED> instruction: 0x000003b6
     dfc:	0000811c 	andeq	r8, r0, ip, lsl r1
     e00:	04050000 	streq	r0, [r5], #-0
     e04:	000003a7 	andeq	r0, r0, r7, lsr #7
     e08:	00007a18 	andeq	r7, r0, r8, lsl sl
     e0c:	0003cc00 	andeq	ip, r3, r0, lsl #24
     e10:	006b1900 	rsbeq	r1, fp, r0, lsl #18
     e14:	000e0000 	andeq	r0, lr, r0
     e18:	0003bc06 	andeq	fp, r3, r6, lsl #24
     e1c:	03131d00 	tsteq	r3, #0, 26
     e20:	7d010000 	stcvc	0, cr0, [r1, #-0]
     e24:	00000025 	andeq	r0, r0, r5, lsr #32
     e28:	00008530 	andeq	r8, r0, r0, lsr r5
     e2c:	00000294 	muleq	r0, r4, r2
     e30:	06459c01 	strbeq	r9, [r5], -r1, lsl #24
     e34:	620b0000 	andvs	r0, fp, #0
     e38:	01006675 	tsteq	r0, r5, ror r6
     e3c:	0000747d 	andeq	r7, r0, sp, ror r4
     e40:	0008b100 	andeq	fp, r8, r0, lsl #2
     e44:	006e0b00 	rsbeq	r0, lr, r0, lsl #22
     e48:	00257d01 	eoreq	r7, r5, r1, lsl #26
     e4c:	08dd0000 	ldmeq	sp, {}^	; <UNPREDICTABLE>
     e50:	660b0000 	strvs	r0, [fp], -r0
     e54:	0100746d 	tsteq	r0, sp, ror #8
     e58:	0000817d 	andeq	r8, r0, sp, ror r1
     e5c:	00090b00 	andeq	r0, r9, r0, lsl #22
     e60:	036b0d00 	cmneq	fp, #0, 26
     e64:	7d010000 	stcvc	0, cr0, [r1, #-0]
     e68:	000000ae 	andeq	r0, r0, lr, lsr #1
     e6c:	0000093f 	andeq	r0, r0, pc, lsr r9
     e70:	01007010 	tsteq	r0, r0, lsl r0
     e74:	0000747e 	andeq	r7, r0, lr, ror r4
     e78:	00095200 	andeq	r5, r9, r0, lsl #4
     e7c:	00651000 	rsbeq	r1, r5, r0
     e80:	00747e01 	rsbseq	r7, r4, r1, lsl #28
     e84:	09d00000 	ldmibeq	r0, {}^	; <UNPREDICTABLE>
     e88:	0a110000 	beq	440e90 <__bss_end__+0x436f40>
     e8c:	55000001 	strpl	r0, [r0, #-1]
     e90:	05000006 	streq	r0, [r0, #-6]
     e94:	00992003 	addseq	r2, r9, r3
     e98:	00381e00 	eorseq	r1, r8, r0, lsl #28
     e9c:	73100000 	tstvc	r0, #0
     ea0:	748b0100 	strvc	r0, [fp], #256	; 0x100
     ea4:	f7000000 			; <UNDEFINED> instruction: 0xf7000000
     ea8:	0f000009 	svceq	0x00000009
     eac:	006d756e 	rsbeq	r7, sp, lr, ror #10
     eb0:	065a8b01 	ldrbeq	r8, [sl], -r1, lsl #22
     eb4:	91030000 	mrsls	r0, (UNDEF: 3)
     eb8:	14137ed8 	ldrne	r7, [r3], #-3800	; 0xed8
     ebc:	01000004 	tsteq	r0, r4
     ec0:	00002c8c 	andeq	r2, r0, ip, lsl #25
     ec4:	000a4c00 	andeq	r4, sl, r0, lsl #24
     ec8:	85b41500 	ldrhi	r1, [r4, #1280]!	; 0x500
     ecc:	00b90000 	adcseq	r0, r9, r0
     ed0:	04910000 	ldreq	r0, [r1], #0
     ed4:	01160000 	tsteq	r6, r0
     ed8:	00750250 	rsbseq	r0, r5, r0, asr r2
     edc:	85c81400 	strbhi	r1, [r8, #1024]	; 0x400
     ee0:	06800000 	streq	r0, [r0], r0
     ee4:	e4150000 	ldr	r0, [r5], #-0
     ee8:	87000085 	strhi	r0, [r0, -r5, lsl #1]
     eec:	d3000006 	movwle	r0, #6
     ef0:	16000004 	strne	r0, [r0], -r4
     ef4:	08025301 	stmdaeq	r2, {r0, r8, r9, ip, lr}
     ef8:	52011692 	andpl	r1, r1, #153092096	; 0x9200000
     efc:	99200305 	stmdbls	r0!, {r0, r2, r8, r9}
     f00:	01160000 	tsteq	r6, r0
     f04:	40030551 	andmi	r0, r3, r1, asr r5
     f08:	16000099 			; <UNDEFINED> instruction: 0x16000099
     f0c:	03055001 	movweq	r5, #20481	; 0x5001
     f10:	0000992c 	andeq	r9, r0, ip, lsr #18
     f14:	007d0216 	rsbseq	r0, sp, r6, lsl r2
     f18:	99840305 	stmibls	r4, {r0, r2, r8, r9}
     f1c:	14000000 	strne	r0, [r0], #-0
     f20:	000085e8 	andeq	r8, r0, r8, ror #11
     f24:	0000069d 	muleq	r0, sp, r6
     f28:	00865814 	addeq	r5, r6, r4, lsl r8
     f2c:	00068000 	andeq	r8, r6, r0
     f30:	866c1500 	strbthi	r1, [ip], -r0, lsl #10
     f34:	06870000 	streq	r0, [r7], r0
     f38:	05140000 	ldreq	r0, [r4, #-0]
     f3c:	01160000 	tsteq	r6, r0
     f40:	98080253 	stmdals	r8, {r0, r1, r4, r6, r9}
     f44:	05520116 	ldrbeq	r0, [r2, #-278]	; 0x116
     f48:	00992003 	addseq	r2, r9, r3
     f4c:	51011600 	tstpl	r1, r0, lsl #12
     f50:	99400305 	stmdbls	r0, {r0, r2, r8, r9}^
     f54:	01160000 	tsteq	r6, r0
     f58:	90030550 	andls	r0, r3, r0, asr r5
     f5c:	00000099 	muleq	r0, r9, r0
     f60:	00867014 	addeq	r7, r6, r4, lsl r0
     f64:	00069d00 	andeq	r9, r6, r0, lsl #26
     f68:	86941500 	ldrhi	r1, [r4], r0, lsl #10
     f6c:	019c0000 	orrseq	r0, ip, r0
     f70:	054a0000 	strbeq	r0, [sl, #-0]
     f74:	01160000 	tsteq	r6, r0
     f78:	80080252 	andhi	r0, r8, r2, asr r2
     f7c:	03510116 	cmpeq	r1, #-2147483643	; 0x80000005
     f80:	167ed091 			; <UNDEFINED> instruction: 0x167ed091
     f84:	3a015001 	bcc	54f90 <__bss_end__+0x4b040>
     f88:	047d0216 	ldrbteq	r0, [sp], #-534	; 0x216
     f8c:	02163101 	andseq	r3, r6, #1073741824	; 0x40000000
     f90:	7702007d 	smlsdxvc	r2, sp, r0, r0
     f94:	b8150000 	ldmdalt	r5, {}	; <UNPREDICTABLE>
     f98:	9c000086 	stcls	0, cr0, [r0], {134}	; 0x86
     f9c:	78000001 	stmdavc	r0, {r0}
     fa0:	16000005 	strne	r0, [r0], -r5
     fa4:	08025201 	stmdaeq	r2, {r0, r9, ip, lr}
     fa8:	51011680 	smlabbpl	r1, r0, r6, r1
     fac:	7ed09103 	atnvcs	f1, f3
     fb0:	01500116 	cmpeq	r0, r6, lsl r1
     fb4:	7d02163a 	stcvc	6, cr1, [r2, #-232]	; 0xffffff18
     fb8:	007b0204 	rsbseq	r0, fp, r4, lsl #4
     fbc:	007d0216 	rsbseq	r0, sp, r6, lsl r2
     fc0:	00007702 	andeq	r7, r0, r2, lsl #14
     fc4:	0086dc15 	addeq	sp, r6, r5, lsl ip
     fc8:	00019c00 	andeq	r9, r1, r0, lsl #24
     fcc:	0005a600 	andeq	sl, r5, r0, lsl #12
     fd0:	52011600 	andpl	r1, r1, #0, 12
     fd4:	16800802 	strne	r0, [r0], r2, lsl #16
     fd8:	91035101 	tstls	r3, r1, lsl #2
     fdc:	01167ed0 			; <UNDEFINED> instruction: 0x01167ed0
     fe0:	16400150 			; <UNDEFINED> instruction: 0x16400150
     fe4:	02047d02 	andeq	r7, r4, #2, 26	; 0x80
     fe8:	0216007b 	andseq	r0, r6, #123	; 0x7b
     fec:	7702007d 	smlsdxvc	r2, sp, r0, r0
     ff0:	00150000 	andseq	r0, r5, r0
     ff4:	9c000087 	stcls	0, cr0, [r0], {135}	; 0x87
     ff8:	d4000001 	strle	r0, [r0], #-1
     ffc:	16000005 	strne	r0, [r0], -r5
    1000:	08025201 	stmdaeq	r2, {r0, r9, ip, lr}
    1004:	51011680 	smlabbpl	r1, r0, r6, r1
    1008:	7ed09103 	atnvcs	f1, f3
    100c:	01500116 	cmpeq	r0, r6, lsl r1
    1010:	7d021632 	stcvc	6, cr1, [r2, #-200]	; 0xffffff38
    1014:	007b0204 	rsbseq	r0, fp, r4, lsl #4
    1018:	007d0216 	rsbseq	r0, sp, r6, lsl r2
    101c:	00007702 	andeq	r7, r0, r2, lsl #14
    1020:	00873015 	addeq	r3, r7, r5, lsl r0
    1024:	00019c00 	andeq	r9, r1, r0, lsl #24
    1028:	00060200 	andeq	r0, r6, r0, lsl #4
    102c:	52011600 	andpl	r1, r1, #0, 12
    1030:	16800802 	strne	r0, [r0], r2, lsl #16
    1034:	91035101 	tstls	r3, r1, lsl #2
    1038:	01167ed0 			; <UNDEFINED> instruction: 0x01167ed0
    103c:	16380150 			; <UNDEFINED> instruction: 0x16380150
    1040:	02047d02 	andeq	r7, r4, #2, 26	; 0x80
    1044:	0216007b 	andseq	r0, r6, #123	; 0x7b
    1048:	7702007d 	smlsdxvc	r2, sp, r0, r0
    104c:	38140000 	ldmdacc	r4, {}	; <UNPREDICTABLE>
    1050:	80000087 	andhi	r0, r0, r7, lsl #1
    1054:	15000006 	strne	r0, [r0, #-6]
    1058:	00008754 	andeq	r8, r0, r4, asr r7
    105c:	00000687 	andeq	r0, r0, r7, lsl #13
    1060:	0000063a 	andeq	r0, r0, sl, lsr r6
    1064:	02530116 	subseq	r0, r3, #-2147483643	; 0x80000005
    1068:	0116b908 	tsteq	r6, r8, lsl #18
    106c:	20030552 	andcs	r0, r3, r2, asr r5
    1070:	16000099 			; <UNDEFINED> instruction: 0x16000099
    1074:	03055101 	movweq	r5, #20737	; 0x5101
    1078:	00009940 	andeq	r9, r0, r0, asr #18
    107c:	05500116 	ldrbeq	r0, [r0, #-278]	; 0x116
    1080:	0099b803 	addseq	fp, r9, r3, lsl #16
    1084:	58140000 	ldmdapl	r4, {}	; <UNPREDICTABLE>
    1088:	9d000087 	stcls	0, cr0, [r0, #-540]	; 0xfffffde4
    108c:	00000006 	andeq	r0, r0, r6
    1090:	007a1800 	rsbseq	r1, sl, r0, lsl #16
    1094:	06550000 	ldrbeq	r0, [r5], -r0
    1098:	6b190000 	blvs	6410a0 <__bss_end__+0x637150>
    109c:	09000000 	stmdbeq	r0, {}	; <UNPREDICTABLE>
    10a0:	06450600 	strbeq	r0, [r5], -r0, lsl #12
    10a4:	7a180000 	bvc	6010ac <__bss_end__+0x5f715c>
    10a8:	6a000000 	bvs	10b0 <_start-0x6f50>
    10ac:	19000006 	stmdbne	r0, {r1, r2}
    10b0:	0000006b 	andeq	r0, r0, fp, rrx
    10b4:	861f007f 			; <UNDEFINED> instruction: 0x861f007f
    10b8:	03000003 	movweq	r0, #3
    10bc:	0003a11d 	andeq	sl, r3, sp, lsl r1
    10c0:	03c31f00 	biceq	r1, r3, #0, 30
    10c4:	22030000 	andcs	r0, r3, #0
    10c8:	000003b6 			; <UNDEFINED> instruction: 0x000003b6
    10cc:	0000d320 	andeq	sp, r0, r0, lsr #6
    10d0:	211e0300 	tstcs	lr, r0, lsl #6
    10d4:	00000316 	andeq	r0, r0, r6, lsl r3
    10d8:	00252903 	eoreq	r2, r5, r3, lsl #18
    10dc:	069d0000 	ldreq	r0, [sp], r0
    10e0:	811c0000 	tsthi	ip, r0
    10e4:	22000000 	andcs	r0, r0, #0
    10e8:	01542000 	cmpeq	r4, r0
    10ec:	66030000 	strvs	r0, [r3], -r0
    10f0:	0000b800 	andeq	fp, r0, r0, lsl #16
    10f4:	f0000400 			; <UNDEFINED> instruction: 0xf0000400
    10f8:	04000006 	streq	r0, [r0], #-6
    10fc:	0002bc01 	andeq	fp, r2, r1, lsl #24
    1100:	04350100 	ldrteq	r0, [r5], #-256	; 0x100
    1104:	03270000 	teqeq	r7, #0
    1108:	87c40000 	strbhi	r0, [r4, r0]
    110c:	00200000 	eoreq	r0, r0, r0
    1110:	05c90000 	strbeq	r0, [r9]
    1114:	04020000 	streq	r0, [r2], #-0
    1118:	746e6905 	strbtvc	r6, [lr], #-2309	; 0x905
    111c:	07040300 	streq	r0, [r4, -r0, lsl #6]
    1120:	00000033 	andeq	r0, r0, r3, lsr r0
    1124:	83060103 	movwhi	r0, #24835	; 0x6103
    1128:	03000001 	movweq	r0, #1
    112c:	018f0502 	orreq	r0, pc, r2, lsl #10
    1130:	04030000 	streq	r0, [r3], #-0
    1134:	00004505 	andeq	r4, r0, r5, lsl #10
    1138:	05080300 	streq	r0, [r8, #-768]	; 0x300
    113c:	00000040 	andeq	r0, r0, r0, asr #32
    1140:	81080103 	tsthi	r8, r3, lsl #2
    1144:	03000001 	movweq	r0, #1
    1148:	01170702 	tsteq	r7, r2, lsl #14
    114c:	04030000 	streq	r0, [r3], #-0
    1150:	00002e07 	andeq	r2, r0, r7, lsl #28
    1154:	07080300 	streq	r0, [r8, -r0, lsl #6]
    1158:	00000029 	andeq	r0, r0, r9, lsr #32
    115c:	61070403 	tstvs	r7, r3, lsl #8
    1160:	03000001 	movweq	r0, #1
    1164:	018a0801 	orreq	r0, sl, r1, lsl #16
    1168:	4b040000 	blmi	101170 <__bss_end__+0xf7220>
    116c:	01000002 	tsteq	r0, r2
    1170:	0087c403 	addeq	ip, r7, r3, lsl #8
    1174:	00001000 	andeq	r1, r0, r0
    1178:	9c9c0100 	ldflss	f0, [ip], {0}
    117c:	05000000 	streq	r0, [r0, #-0]
    1180:	04010072 	streq	r0, [r1], #-114	; 0x72
    1184:	0000002c 	andeq	r0, r0, ip, lsr #32
    1188:	00000a76 	andeq	r0, r0, r6, ror sl
    118c:	04270600 	strteq	r0, [r7], #-1536	; 0x600
    1190:	0c010000 	stceq	0, cr0, [r1], {-0}
    1194:	000087d4 	ldrdeq	r8, [r0], -r4
    1198:	00000010 	andeq	r0, r0, r0, lsl r0
    119c:	72059c01 	andvc	r9, r5, #256	; 0x100
    11a0:	2c0d0100 	stfcss	f0, [sp], {-0}
    11a4:	9a000000 	bls	11ac <_start-0x6e54>
    11a8:	0000000a 	andeq	r0, r0, sl
    11ac:	0000ff00 	andeq	pc, r0, r0, lsl #30
    11b0:	5b000400 	blpl	21b8 <_start-0x5e48>
    11b4:	04000007 	streq	r0, [r0], #-7
    11b8:	0002bc01 	andeq	fp, r2, r1, lsl #24
    11bc:	04530100 	ldrbeq	r0, [r3], #-256	; 0x100
    11c0:	03270000 	teqeq	r7, #0
    11c4:	87e40000 	strbhi	r0, [r4, r0]!
    11c8:	00280000 	eoreq	r0, r8, r0
    11cc:	06100000 	ldreq	r0, [r0], -r0
    11d0:	04020000 	streq	r0, [r2], #-0
    11d4:	746e6905 	strbtvc	r6, [lr], #-2309	; 0x905
    11d8:	07040300 	streq	r0, [r4, -r0, lsl #6]
    11dc:	00000033 	andeq	r0, r0, r3, lsr r0
    11e0:	83060103 	movwhi	r0, #24835	; 0x6103
    11e4:	03000001 	movweq	r0, #1
    11e8:	018f0502 	orreq	r0, pc, r2, lsl #10
    11ec:	04030000 	streq	r0, [r3], #-0
    11f0:	00004505 	andeq	r4, r0, r5, lsl #10
    11f4:	05080300 	streq	r0, [r8, #-768]	; 0x300
    11f8:	00000040 	andeq	r0, r0, r0, asr #32
    11fc:	81080103 	tsthi	r8, r3, lsl #2
    1200:	03000001 	movweq	r0, #1
    1204:	01170702 	tsteq	r7, r2, lsl #14
    1208:	04030000 	streq	r0, [r3], #-0
    120c:	00002e07 	andeq	r2, r0, r7, lsl #28
    1210:	07080300 	streq	r0, [r8, -r0, lsl #6]
    1214:	00000029 	andeq	r0, r0, r9, lsr #32
    1218:	61070403 	tstvs	r7, r3, lsl #8
    121c:	03000001 	movweq	r0, #1
    1220:	018a0801 	orreq	r0, sl, r1, lsl #16
    1224:	04040000 	streq	r0, [r4], #-0
    1228:	0000007f 	andeq	r0, r0, pc, ror r0
    122c:	00007205 	andeq	r7, r0, r5, lsl #4
    1230:	01540600 	cmpeq	r4, r0, lsl #12
    1234:	04010000 	streq	r0, [r1], #-0
    1238:	000087e4 	andeq	r8, r0, r4, ror #15
    123c:	00000028 	andeq	r0, r0, r8, lsr #32
    1240:	00ca9c01 	sbceq	r9, sl, r1, lsl #24
    1244:	f8070000 			; <UNDEFINED> instruction: 0xf8070000
    1248:	ac000087 	stcge	0, cr0, [r0], {135}	; 0x87
    124c:	08000000 	stmdaeq	r0, {}	; <UNPREDICTABLE>
    1250:	03055001 	movweq	r5, #20481	; 0x5001
    1254:	000099f0 	strdeq	r9, [r0], -r0
    1258:	88000900 	stmdahi	r0, {r8, fp}
    125c:	00ea0000 	rsceq	r0, sl, r0
    1260:	00c00000 	sbceq	r0, r0, r0
    1264:	01080000 	mrseq	r0, (UNDEF: 8)
    1268:	64080250 	strvs	r0, [r8], #-592	; 0x250
    126c:	88040a00 	stmdahi	r4, {r9, fp}
    1270:	00fb0000 	rscseq	r0, fp, r0
    1274:	0b000000 	bleq	127c <_start-0x6d84>
    1278:	00000025 	andeq	r0, r0, r5, lsr #32
    127c:	000000d9 	ldrdeq	r0, [r0], -r9
    1280:	0000790c 	andeq	r7, r0, ip, lsl #18
    1284:	c30d0000 	movwgt	r0, #53248	; 0xd000
    1288:	02000003 	andeq	r0, r0, #3
    128c:	0000e422 	andeq	lr, r0, r2, lsr #8
    1290:	ca040400 	bgt	102298 <__bss_end__+0xf8348>
    1294:	0e000000 	cdpeq	0, 0, cr0, cr0, cr0, {0}
    1298:	00000199 	muleq	r0, r9, r1
    129c:	00fb5002 	rscseq	r5, fp, r2
    12a0:	2c0c0000 	stccs	0, cr0, [ip], {-0}
    12a4:	00000000 	andeq	r0, r0, r0
    12a8:	0004480f 	andeq	r4, r4, pc, lsl #16
    12ac:	00630200 	rsbeq	r0, r3, r0, lsl #4
    12b0:	000002dd 	ldrdeq	r0, [r0], -sp
    12b4:	08250004 	stmdaeq	r5!, {r2}
    12b8:	01040000 	mrseq	r0, (UNDEF: 4)
    12bc:	000002bc 			; <UNDEFINED> instruction: 0x000002bc
    12c0:	00054f01 	andeq	r4, r5, r1, lsl #30
    12c4:	00032700 	andeq	r2, r3, r0, lsl #14
    12c8:	00880c00 	addeq	r0, r8, r0, lsl #24
    12cc:	0000b000 	andeq	fp, r0, r0
    12d0:	0006a700 	andeq	sl, r6, r0, lsl #14
    12d4:	05040200 	streq	r0, [r4, #-512]	; 0x200
    12d8:	00746e69 	rsbseq	r6, r4, r9, ror #28
    12dc:	33070403 	movwcc	r0, #29699	; 0x7403
    12e0:	03000000 	movweq	r0, #0
    12e4:	01830601 	orreq	r0, r3, r1, lsl #12
    12e8:	02030000 	andeq	r0, r3, #0
    12ec:	00018f05 	andeq	r8, r1, r5, lsl #30
    12f0:	05040300 	streq	r0, [r4, #-768]	; 0x300
    12f4:	00000045 	andeq	r0, r0, r5, asr #32
    12f8:	40050803 	andmi	r0, r5, r3, lsl #16
    12fc:	04000000 	streq	r0, [r0], #-0
    1300:	00000518 	andeq	r0, r0, r8, lsl r5
    1304:	005a2e02 	subseq	r2, sl, r2, lsl #28
    1308:	01030000 	mrseq	r0, (UNDEF: 3)
    130c:	00018108 	andeq	r8, r1, r8, lsl #2
    1310:	07020300 	streq	r0, [r2, -r0, lsl #6]
    1314:	00000117 	andeq	r0, r0, r7, lsl r1
    1318:	00056f04 	andeq	r6, r5, r4, lsl #30
    131c:	73340200 	teqvc	r4, #0, 4
    1320:	03000000 	movweq	r0, #0
    1324:	002e0704 	eoreq	r0, lr, r4, lsl #14
    1328:	08030000 	stmdaeq	r3, {}	; <UNPREDICTABLE>
    132c:	00002907 	andeq	r2, r0, r7, lsl #18
    1330:	07040300 	streq	r0, [r4, -r0, lsl #6]
    1334:	00000161 	andeq	r0, r0, r1, ror #2
    1338:	8a080103 	bhi	20174c <__bss_end__+0x1f77fc>
    133c:	05000001 	streq	r0, [r0, #-1]
    1340:	00009504 	andeq	r9, r0, r4, lsl #10
    1344:	00880600 	addeq	r0, r8, r0, lsl #12
    1348:	0c070000 	stceq	0, cr0, [r7], {-0}
    134c:	00d10e03 	sbcseq	r0, r1, r3, lsl #28
    1350:	74080000 	strvc	r0, [r8], #-0
    1354:	0f030078 	svceq	0x00030078
    1358:	0000004f 	andeq	r0, r0, pc, asr #32
    135c:	78720800 	ldmdavc	r2!, {fp}^
    1360:	4f0f0300 	svcmi	0x000f0300
    1364:	01000000 	mrseq	r0, (UNDEF: 0)
    1368:	0004e609 	andeq	lr, r4, r9, lsl #12
    136c:	68100300 	ldmdavs	r0, {r8, r9}
    1370:	04000000 	streq	r0, [r0], #-0
    1374:	00049709 	andeq	r9, r4, r9, lsl #14
    1378:	68110300 	ldmdavs	r1, {r8, r9}
    137c:	08000000 	stmdaeq	r0, {}	; <UNPREDICTABLE>
    1380:	04cf0400 	strbeq	r0, [pc], #1024	; 1388 <_start-0x6c78>
    1384:	12030000 	andne	r0, r3, #0
    1388:	0000009a 	muleq	r0, sl, r0
    138c:	1004010a 	andne	r0, r4, sl, lsl #2
    1390:	000000f7 	strdeq	r0, [r0], -r7
    1394:	0004eb0b 	andeq	lr, r4, fp, lsl #22
    1398:	d90b0100 	stmdble	fp, {r8}
    139c:	02000004 	andeq	r0, r0, #4
    13a0:	0004c10b 	andeq	ip, r4, fp, lsl #2
    13a4:	04000300 	streq	r0, [r0], #-768	; 0x300
    13a8:	00000500 	andeq	r0, r0, r0, lsl #10
    13ac:	00dc1004 	sbcseq	r1, ip, r4
    13b0:	14070000 	strne	r0, [r7], #-0
    13b4:	012f1404 	teqeq	pc, r4, lsl #8
    13b8:	78090000 	stmdavc	r9, {}	; <UNPREDICTABLE>
    13bc:	04000005 	streq	r0, [r0], #-5
    13c0:	00002c15 	andeq	r2, r0, r5, lsl ip
    13c4:	63090000 	movwvs	r0, #36864	; 0x9000
    13c8:	04000005 	streq	r0, [r0], #-5
    13cc:	0000f718 	andeq	pc, r0, r8, lsl r7	; <UNPREDICTABLE>
    13d0:	2e090400 	cfcpyscs	mvf0, mvf9
    13d4:	04000005 	streq	r0, [r0], #-5
    13d8:	0000d11b 	andeq	sp, r0, fp, lsl r1
    13dc:	04000800 	streq	r0, [r0], #-2048	; 0x800
    13e0:	00000520 	andeq	r0, r0, r0, lsr #10
    13e4:	01022004 	tsteq	r2, r4
    13e8:	6d0c0000 	stcvs	0, cr0, [ip, #-0]
    13ec:	01000004 	tsteq	r0, r4
    13f0:	00002506 	andeq	r2, r0, r6, lsl #10
    13f4:	00880c00 	addeq	r0, r8, r0, lsl #24
    13f8:	00002000 	andeq	r2, r0, r0
    13fc:	7a9c0100 	bvc	fe701804 <__bss_end__+0xfe6f78b4>
    1400:	0d000001 	stceq	0, cr0, [r0, #-4]
    1404:	06010063 	streq	r0, [r1], -r3, rrx
    1408:	00000025 	andeq	r0, r0, r5, lsr #32
    140c:	00000abe 			; <UNDEFINED> instruction: 0x00000abe
    1410:	0088200e 	addeq	r2, r8, lr
    1414:	00027a00 	andeq	r7, r2, r0, lsl #20
    1418:	51010f00 	tstpl	r1, r0, lsl #30
    141c:	0f007402 	svceq	0x00007402
    1420:	03055001 	movweq	r5, #20481	; 0x5001
    1424:	00009f44 	andeq	r9, r0, r4, asr #30
    1428:	f8100000 			; <UNDEFINED> instruction: 0xf8100000
    142c:	01000004 	tsteq	r0, r4
    1430:	00882c0b 	addeq	r2, r8, fp, lsl #24
    1434:	00009000 	andeq	r9, r0, r0
    1438:	279c0100 	ldrcs	r0, [ip, r0, lsl #2]
    143c:	11000002 	tstne	r0, r2
    1440:	00000481 	andeq	r0, r0, r1, lsl #9
    1444:	00250c01 	eoreq	r0, r5, r1, lsl #24
    1448:	43110000 	tstmi	r1, #0
    144c:	01000005 	tsteq	r0, r5
    1450:	0000250c 	andeq	r2, r0, ip, lsl #10
    1454:	000f1200 	andeq	r1, pc, r0, lsl #4
    1458:	0d010000 	stceq	0, cr0, [r1, #-0]
    145c:	73736213 	cmnvc	r3, #805306369	; 0x30000001
    1460:	270f0100 	strcs	r0, [pc, -r0, lsl #2]
    1464:	dc000002 	stcle	0, cr0, [r0], {2}
    1468:	1400000a 	strne	r0, [r0], #-10
    146c:	0000048f 	andeq	r0, r0, pc, lsl #9
    1470:	02271001 	eoreq	r1, r7, #1
    1474:	63130000 	tstvs	r3, #0
    1478:	17010062 	strne	r0, [r1, -r2, rrx]
    147c:	0000022d 	andeq	r0, r0, sp, lsr #4
    1480:	00000afc 	strdeq	r0, [r0], -ip
    1484:	00885415 	addeq	r5, r8, r5, lsl r4
    1488:	00029600 	andeq	r9, r2, r0, lsl #12
    148c:	88901600 	ldmhi	r0, {r9, sl, ip}
    1490:	02a10000 	adceq	r0, r1, #0
    1494:	01fd0000 	mvnseq	r0, r0
    1498:	010f0000 	mrseq	r0, CPSR
    149c:	fc030551 	stc2	5, cr0, [r3], {81}	; 0x51
    14a0:	0f000099 	svceq	0x00000099
    14a4:	03055001 	movweq	r5, #20481	; 0x5001
    14a8:	00009f44 	andeq	r9, r0, r4, asr #30
    14ac:	88981600 	ldmhi	r8, {r9, sl, ip}
    14b0:	02bc0000 	adcseq	r0, ip, #0
    14b4:	02140000 	andseq	r0, r4, #0
    14b8:	010f0000 	mrseq	r0, CPSR
    14bc:	20030550 	andcs	r0, r3, r0, asr r5
    14c0:	0000009a 	muleq	r0, sl, r0
    14c4:	00889c15 	addeq	r9, r8, r5, lsl ip
    14c8:	0002d200 	andeq	sp, r2, r0, lsl #4
    14cc:	88a01500 	stmiahi	r0!, {r8, sl, ip}
    14d0:	02d90000 	sbcseq	r0, r9, #0
    14d4:	05000000 	streq	r0, [r0, #-0]
    14d8:	00002504 	andeq	r2, r0, r4, lsl #10
    14dc:	2f040500 	svccs	0x00040500
    14e0:	17000001 	strne	r0, [r0, -r1]
    14e4:	000004a5 	andeq	r0, r0, r5, lsr #9
    14e8:	00d10501 	sbcseq	r0, r1, r1, lsl #10
    14ec:	03050000 	movweq	r0, #20480	; 0x5000
    14f0:	00009f44 	andeq	r9, r0, r4, asr #30
    14f4:	00002518 	andeq	r2, r0, r8, lsl r5
    14f8:	00025300 	andeq	r5, r2, r0, lsl #6
    14fc:	00251900 	eoreq	r1, r5, r0, lsl #18
    1500:	11000000 	mrsne	r0, (UNDEF: 0)
    1504:	00000386 	andeq	r0, r0, r6, lsl #7
    1508:	025e1d05 	subseq	r1, lr, #320	; 0x140
    150c:	04050000 	streq	r0, [r5], #-0
    1510:	00000244 	andeq	r0, r0, r4, asr #4
    1514:	00048111 	andeq	r8, r4, r1, lsl r1
    1518:	250c0100 	strcs	r0, [ip, #-256]	; 0x100
    151c:	11000000 	mrsne	r0, (UNDEF: 0)
    1520:	00000543 	andeq	r0, r0, r3, asr #10
    1524:	00250c01 	eoreq	r0, r5, r1, lsl #24
    1528:	0b1a0000 	bleq	681530 <__bss_end__+0x6775e0>
    152c:	03000005 	movweq	r0, #5
    1530:	00029044 	andeq	r9, r2, r4, asr #32
    1534:	02901900 	addseq	r1, r0, #0, 18
    1538:	5a190000 	bpl	641540 <__bss_end__+0x6375f0>
    153c:	00000000 	andeq	r0, r0, r0
    1540:	00d10405 	sbcseq	r0, r1, r5, lsl #8
    1544:	361b0000 	ldrcc	r0, [fp], -r0
    1548:	04000005 	streq	r0, [r0], #-5
    154c:	00022d2a 	andeq	r2, r2, sl, lsr #26
    1550:	04b21c00 	ldrteq	r1, [r2], #3072	; 0xc00
    1554:	15030000 	strne	r0, [r3, #-0]
    1558:	00000025 	andeq	r0, r0, r5, lsr #32
    155c:	000002bc 			; <UNDEFINED> instruction: 0x000002bc
    1560:	00029019 	andeq	r9, r2, r9, lsl r0
    1564:	008f1900 	addeq	r1, pc, r0, lsl #18
    1568:	001d0000 	andseq	r0, sp, r0
    156c:	0003161c 	andeq	r1, r3, ip, lsl r6
    1570:	25290500 	strcs	r0, [r9, #-1280]!	; 0x500
    1574:	d2000000 	andle	r0, r0, #0
    1578:	19000002 	stmdbne	r0, {r1}
    157c:	0000008f 	andeq	r0, r0, pc, lsl #1
    1580:	0f12001d 	svceq	0x0012001d
    1584:	05000000 	streq	r0, [r0, #-0]
    1588:	044812d1 	strbeq	r1, [r8], #-721	; 0x2d1
    158c:	63050000 	movwvs	r0, #20480	; 0x5000
    1590:	0001ad00 	andeq	sl, r1, r0, lsl #26
    1594:	bc000400 	cfstrslt	mvf0, [r0], {-0}
    1598:	04000009 	streq	r0, [r0], #-9
    159c:	0002bc01 	andeq	fp, r2, r1, lsl #24
    15a0:	05980100 	ldreq	r0, [r8, #256]	; 0x100
    15a4:	03270000 	teqeq	r7, #0
    15a8:	00500000 	subseq	r0, r0, r0
    15ac:	00000000 	andeq	r0, r0, r0
    15b0:	07cc0000 	strbeq	r0, [ip, r0]
    15b4:	04020000 	streq	r0, [r2], #-0
    15b8:	746e6905 	strbtvc	r6, [lr], #-2309	; 0x905
    15bc:	07040300 	streq	r0, [r4, -r0, lsl #6]
    15c0:	00000033 	andeq	r0, r0, r3, lsr r0
    15c4:	83060103 	movwhi	r0, #24835	; 0x6103
    15c8:	03000001 	movweq	r0, #1
    15cc:	018f0502 	orreq	r0, pc, r2, lsl #10
    15d0:	04030000 	streq	r0, [r3], #-0
    15d4:	00004505 	andeq	r4, r0, r5, lsl #10
    15d8:	05080300 	streq	r0, [r8, #-768]	; 0x300
    15dc:	00000040 	andeq	r0, r0, r0, asr #32
    15e0:	81080103 	tsthi	r8, r3, lsl #2
    15e4:	03000001 	movweq	r0, #1
    15e8:	01170702 	tsteq	r7, r2, lsl #14
    15ec:	04030000 	streq	r0, [r3], #-0
    15f0:	00002e07 	andeq	r2, r0, r7, lsl #28
    15f4:	07080300 	streq	r0, [r8, -r0, lsl #6]
    15f8:	00000029 	andeq	r0, r0, r9, lsr #32
    15fc:	61070403 	tstvs	r7, r3, lsl #8
    1600:	03000001 	movweq	r0, #1
    1604:	018a0801 	orreq	r0, sl, r1, lsl #16
    1608:	7e040000 	cdpvc	0, 0, cr0, cr4, cr0, {0}
    160c:	01000005 	tsteq	r0, r5
    1610:	0000250e 	andeq	r2, r0, lr, lsl #10
    1614:	0088bc00 	addeq	fp, r8, r0, lsl #24
    1618:	00001800 	andeq	r1, r0, r0, lsl #16
    161c:	a29c0100 	addsge	r0, ip, #0, 2
    1620:	05000000 	streq	r0, [r0, #-0]
    1624:	000005ea 	andeq	r0, r0, sl, ror #11
    1628:	002c0f01 	eoreq	r0, ip, r1, lsl #30
    162c:	0b1c0000 	bleq	701634 <__bss_end__+0x6f76e4>
    1630:	06000000 	streq	r0, [r0], -r0
    1634:	000005cd 	andeq	r0, r0, sp, asr #11
    1638:	88d41701 	ldmhi	r4, {r0, r8, r9, sl, ip}^
    163c:	00140000 	andseq	r0, r4, r0
    1640:	9c010000 	stcls	0, cr0, [r1], {-0}
    1644:	000000c7 	andeq	r0, r0, r7, asr #1
    1648:	0005ea05 	andeq	lr, r5, r5, lsl #20
    164c:	2c180100 	ldfcss	f0, [r8], {-0}
    1650:	3b000000 	blcc	1658 <_start-0x69a8>
    1654:	0000000b 	andeq	r0, r0, fp
    1658:	00044806 	andeq	r4, r4, r6, lsl #16
    165c:	e81f0100 	ldmda	pc, {r8}	; <UNPREDICTABLE>
    1660:	48000088 	stmdami	r0, {r3, r7}
    1664:	01000000 	mrseq	r0, (UNDEF: 0)
    1668:	0001779c 	muleq	r1, ip, r7
    166c:	05e20700 	strbeq	r0, [r2, #1792]!	; 0x700
    1670:	2a010000 	bcs	41678 <__bss_end__+0x37728>
    1674:	00000177 	andeq	r0, r0, r7, ror r1
    1678:	2010001c 	andscs	r0, r0, ip, lsl r0
    167c:	0005c507 	andeq	ip, r5, r7, lsl #10
    1680:	772b0100 	strvc	r0, [fp, -r0, lsl #2]!
    1684:	24000001 	strcs	r0, [r0], #-1
    1688:	07201000 	streq	r1, [r0, -r0]!
    168c:	0000058c 	andeq	r0, r0, ip, lsl #11
    1690:	01772c01 	cmneq	r7, r1, lsl #24
    1694:	00000000 	andeq	r0, r0, r0
    1698:	ac085a00 	stcge	10, cr5, [r8], {-0}
    169c:	01000005 	tsteq	r0, r5
    16a0:	0001772d 	andeq	r7, r1, sp, lsr #14
    16a4:	f0092000 			; <UNDEFINED> instruction: 0xf0092000
    16a8:	79000088 	stmdbvc	r0, {r3, r7}
    16ac:	09000000 	stmdbeq	r0, {}	; <UNPREDICTABLE>
    16b0:	000088fc 	strdeq	r8, [r0], -ip
    16b4:	000000a2 	andeq	r0, r0, r2, lsr #1
    16b8:	0089040a 	addeq	r0, r9, sl, lsl #8
    16bc:	00018d00 	andeq	r8, r1, r0, lsl #26
    16c0:	00013a00 	andeq	r3, r1, r0, lsl #20
    16c4:	50010b00 	andpl	r0, r1, r0, lsl #22
    16c8:	0a004e01 	beq	14ed4 <__bss_end__+0xaf84>
    16cc:	00008910 	andeq	r8, r0, r0, lsl r9
    16d0:	0000019e 	muleq	r0, lr, r1
    16d4:	0000015a 	andeq	r0, r0, sl, asr r1
    16d8:	0551010b 	ldrbeq	r0, [r1, #-267]	; 0x10b
    16dc:	0000010c 	andeq	r0, r0, ip, lsl #2
    16e0:	50010b5a 	andpl	r0, r1, sl, asr fp
    16e4:	00240c05 	eoreq	r0, r4, r5, lsl #24
    16e8:	0c002010 	stceq	0, cr2, [r0], {16}
    16ec:	0000891c 	andeq	r8, r0, ip, lsl r9
    16f0:	0000019e 	muleq	r0, lr, r1
    16f4:	0551010b 	ldrbeq	r0, [r1, #-267]	; 0x10b
    16f8:	0000200c 	andeq	r2, r0, ip
    16fc:	50010b5a 	andpl	r0, r1, sl, asr fp
    1700:	001c0c05 	andseq	r0, ip, r5, lsl #24
    1704:	00002010 	andeq	r2, r0, r0, lsl r0
    1708:	0000250d 	andeq	r2, r0, sp, lsl #10
    170c:	05810800 	streq	r0, [r1, #2048]	; 0x800
    1710:	0d010000 	stceq	0, cr0, [r1, #-0]
    1714:	00000188 	andeq	r0, r0, r8, lsl #3
    1718:	002c0d10 	eoreq	r0, ip, r0, lsl sp
    171c:	990e0000 	stmdbls	lr, {}	; <UNPREDICTABLE>
    1720:	02000001 	andeq	r0, r0, #1
    1724:	00019e50 	andeq	r9, r1, r0, asr lr
    1728:	002c0f00 	eoreq	r0, ip, r0, lsl #30
    172c:	10000000 	andne	r0, r0, r0
    1730:	000005dc 	ldrdeq	r0, [r0], -ip
    1734:	2c0f9c02 	stccs	12, cr9, [pc], {2}
    1738:	0f000000 	svceq	0x00000000
    173c:	0000002c 	andeq	r0, r0, ip, lsr #32
    1740:	01d80000 	bicseq	r0, r8, r0
    1744:	00040000 	andeq	r0, r4, r0
    1748:	00000aaa 	andeq	r0, r0, sl, lsr #21
    174c:	02bc0104 	adcseq	r0, ip, #4, 2
    1750:	0c010000 	stceq	0, cr0, [r1], {-0}
    1754:	27000006 	strcs	r0, [r0, -r6]
    1758:	30000003 	andcc	r0, r0, r3
    175c:	88000089 	stmdahi	r0, {r0, r3, r7}
    1760:	69000000 	stmdbvs	r0, {}	; <UNPREDICTABLE>
    1764:	02000008 	andeq	r0, r0, #8
    1768:	6e690504 	cdpvs	5, 6, cr0, cr9, cr4, {0}
    176c:	04030074 	streq	r0, [r3], #-116	; 0x74
    1770:	00003307 	andeq	r3, r0, r7, lsl #6
    1774:	06010300 	streq	r0, [r1], -r0, lsl #6
    1778:	00000183 	andeq	r0, r0, r3, lsl #3
    177c:	8f050203 	svchi	0x00050203
    1780:	03000001 	movweq	r0, #1
    1784:	00450504 	subeq	r0, r5, r4, lsl #10
    1788:	08030000 	stmdaeq	r3, {}	; <UNPREDICTABLE>
    178c:	00004005 	andeq	r4, r0, r5
    1790:	08010300 	stmdaeq	r1, {r8, r9}
    1794:	00000181 	andeq	r0, r0, r1, lsl #3
    1798:	17070203 	strne	r0, [r7, -r3, lsl #4]
    179c:	03000001 	movweq	r0, #1
    17a0:	002e0704 	eoreq	r0, lr, r4, lsl #14
    17a4:	08030000 	stmdaeq	r3, {}	; <UNPREDICTABLE>
    17a8:	00002907 	andeq	r2, r0, r7, lsl #18
    17ac:	07040300 	streq	r0, [r4, -r0, lsl #6]
    17b0:	00000161 	andeq	r0, r0, r1, ror #2
    17b4:	8a080103 	bhi	201bc8 <__bss_end__+0x1f7c78>
    17b8:	04000001 	streq	r0, [r0], #-1
    17bc:	0000062b 	andeq	r0, r0, fp, lsr #12
    17c0:	89300501 	ldmdbhi	r0!, {r0, r8, sl}
    17c4:	001c0000 	andseq	r0, ip, r0
    17c8:	9c010000 	stcls	0, cr0, [r1], {-0}
    17cc:	0000009e 	muleq	r0, lr, r0
    17d0:	00062505 	andeq	r2, r6, r5, lsl #10
    17d4:	2c050100 	stfcss	f0, [r5], {-0}
    17d8:	65000000 	strvs	r0, [r0, #-0]
    17dc:	0000000b 	andeq	r0, r0, fp
    17e0:	0005ef06 	andeq	lr, r5, r6, lsl #30
    17e4:	2c0b0100 	stfcss	f0, [fp], {-0}
    17e8:	4c000000 	stcmi	0, cr0, [r0], {-0}
    17ec:	14000089 	strne	r0, [r0], #-137	; 0x89
    17f0:	01000000 	mrseq	r0, (UNDEF: 0)
    17f4:	0000cb9c 	muleq	r0, ip, fp
    17f8:	89580700 	ldmdbhi	r8, {r8, r9, sl}^
    17fc:	01ca0000 	biceq	r0, sl, r0
    1800:	01080000 	mrseq	r0, (UNDEF: 8)
    1804:	040c0550 	streq	r0, [ip], #-1360	; 0x550
    1808:	00200030 	eoreq	r0, r0, r0, lsr r0
    180c:	06410600 	strbeq	r0, [r1], -r0, lsl #12
    1810:	10010000 	andne	r0, r1, r0
    1814:	0000002c 	andeq	r0, r0, ip, lsr #32
    1818:	00008960 	andeq	r8, r0, r0, ror #18
    181c:	0000000c 	andeq	r0, r0, ip
    1820:	00f99c01 	rscseq	r9, r9, r1, lsl #24
    1824:	75090000 	strvc	r0, [r9, #-0]
    1828:	2c140100 	ldfcss	f0, [r4], {-0}
    182c:	01000000 	mrseq	r0, (UNDEF: 0)
    1830:	89680a50 	stmdbhi	r8!, {r4, r6, r9, fp}^
    1834:	009e0000 	addseq	r0, lr, r0
    1838:	04000000 	streq	r0, [r0], #-0
    183c:	00000638 	andeq	r0, r0, r8, lsr r6
    1840:	896c1901 	stmdbhi	ip!, {r0, r8, fp, ip}^
    1844:	00240000 	eoreq	r0, r4, r0
    1848:	9c010000 	stcls	0, cr0, [r1], {-0}
    184c:	00000157 	andeq	r0, r0, r7, asr r1
    1850:	0073750b 	rsbseq	r7, r3, fp, lsl #10
    1854:	002c1901 	eoreq	r1, ip, r1, lsl #18
    1858:	0b990000 	bleq	fe641860 <__bss_end__+0xfe637910>
    185c:	72090000 	andvc	r0, r9, #0
    1860:	1a010062 	bne	419f0 <__bss_end__+0x37aa0>
    1864:	0000002c 	andeq	r0, r0, ip, lsr #32
    1868:	7c0c5401 	cfstrsvc	mvf5, [ip], {1}
    186c:	10000089 	andne	r0, r0, r9, lsl #1
    1870:	4d000000 	stcmi	0, cr0, [r0, #-0]
    1874:	0d000001 	stceq	0, cr0, [r0, #-4]
    1878:	01006172 	tsteq	r0, r2, ror r1
    187c:	00002c1c 	andeq	r2, r0, ip, lsl ip
    1880:	000bb700 	andeq	fp, fp, r0, lsl #14
    1884:	89800a00 	stmibhi	r0, {r9, fp}
    1888:	00cb0000 	sbceq	r0, fp, r0
    188c:	0a000000 	beq	1894 <_start-0x676c>
    1890:	00008978 	andeq	r8, r0, r8, ror r9
    1894:	000000cb 	andeq	r0, r0, fp, asr #1
    1898:	01990400 	orrseq	r0, r9, r0, lsl #8
    189c:	22010000 	andcs	r0, r1, #0
    18a0:	00008990 	muleq	r0, r0, r9
    18a4:	00000014 	andeq	r0, r0, r4, lsl r0
    18a8:	01909c01 	orrseq	r9, r0, r1, lsl #24
    18ac:	6d0b0000 	stcvs	0, cr0, [fp, #-0]
    18b0:	22010073 	andcs	r0, r1, #115	; 0x73
    18b4:	0000002c 	andeq	r0, r0, ip, lsr #32
    18b8:	00000bca 	andeq	r0, r0, sl, asr #23
    18bc:	0089a007 	addeq	sl, r9, r7
    18c0:	0000f900 	andeq	pc, r0, r0, lsl #18
    18c4:	50010800 	andpl	r0, r1, r0, lsl #16
    18c8:	5001f307 	andpl	pc, r1, r7, lsl #6
    18cc:	1e03e80a 	cdpne	8, 0, cr14, cr3, cr10, {0}
    18d0:	02040000 	andeq	r0, r4, #0
    18d4:	01000006 	tsteq	r0, r6
    18d8:	0089a425 	addeq	sl, r9, r5, lsr #8
    18dc:	00001400 	andeq	r1, r0, r0, lsl #8
    18e0:	ca9c0100 	bgt	fe701ce8 <__bss_end__+0xfe6f7d98>
    18e4:	0b000001 	bleq	18f0 <_start-0x6710>
    18e8:	00636573 	rsbeq	r6, r3, r3, ror r5
    18ec:	002c2501 	eoreq	r2, ip, r1, lsl #10
    18f0:	0beb0000 	bleq	ffac18f8 <__bss_end__+0xffab79a8>
    18f4:	b4070000 	strlt	r0, [r7], #-0
    18f8:	57000089 	strpl	r0, [r0, -r9, lsl #1]
    18fc:	08000001 	stmdaeq	r0, {r0}
    1900:	f3075001 	vhadd.u8	d5, d7, d1
    1904:	e80a5001 	stmda	sl, {r0, ip, lr}
    1908:	00001e03 	andeq	r1, r0, r3, lsl #28
    190c:	00061f0e 	andeq	r1, r6, lr, lsl #30
    1910:	2ca80200 	sfmcs	f0, 4, [r8]
    1914:	0f000000 	svceq	0x00000000
    1918:	0000002c 	andeq	r0, r0, ip, lsr #32
    191c:	08820000 	stmeq	r2, {}	; <UNPREDICTABLE>
    1920:	00040000 	andeq	r0, r4, r0
    1924:	00000b8d 	andeq	r0, r0, sp, lsl #23
    1928:	02bc0104 	adcseq	r0, ip, #4, 2
    192c:	a1010000 	mrsge	r0, (UNDEF: 1)
    1930:	27000006 	strcs	r0, [r0, -r6]
    1934:	b8000003 	stmdalt	r0, {r0, r1}
    1938:	a0000089 	andge	r0, r0, r9, lsl #1
    193c:	10000005 	andne	r0, r0, r5
    1940:	02000009 	andeq	r0, r0, #9
    1944:	00290708 	eoreq	r0, r9, r8, lsl #14
    1948:	04020000 	streq	r0, [r2], #-0
    194c:	00003307 	andeq	r3, r0, r7, lsl #6
    1950:	06010200 	streq	r0, [r1], -r0, lsl #4
    1954:	00000183 	andeq	r0, r0, r3, lsl #3
    1958:	8f050202 	svchi	0x00050202
    195c:	02000001 	andeq	r0, r0, #1
    1960:	00450504 	subeq	r0, r5, r4, lsl #10
    1964:	08020000 	stmdaeq	r2, {}	; <UNPREDICTABLE>
    1968:	00004005 	andeq	r4, r0, r5
    196c:	08010200 	stmdaeq	r1, {r9}
    1970:	00000181 	andeq	r0, r0, r1, lsl #3
    1974:	17070202 	strne	r0, [r7, -r2, lsl #4]
    1978:	02000001 	andeq	r0, r0, #1
    197c:	002e0704 	eoreq	r0, lr, r4, lsl #14
    1980:	04030000 	streq	r0, [r3], #-0
    1984:	746e6905 	strbtvc	r6, [lr], #-2309	; 0x905
    1988:	07040200 	streq	r0, [r4, -r0, lsl #4]
    198c:	00000161 	andeq	r0, r0, r1, ror #2
    1990:	8a080102 	bhi	201da0 <__bss_end__+0x1f7e50>
    1994:	04000001 	streq	r0, [r0], #-1
    1998:	b20c0201 	andlt	r0, ip, #268435456	; 0x10000000
    199c:	05000000 	streq	r0, [r0, #-0]
    19a0:	00000684 	andeq	r0, r0, r4, lsl #13
    19a4:	07940500 	ldreq	r0, [r4, r0, lsl #10]
    19a8:	05010000 	streq	r0, [r1, #-0]
    19ac:	000007c7 	andeq	r0, r0, r7, asr #15
    19b0:	07d60504 	ldrbeq	r0, [r6, r4, lsl #10]
    19b4:	05050000 	streq	r0, [r5, #-0]
    19b8:	000007e5 	andeq	r0, r0, r5, ror #15
    19bc:	07f40506 	ldrbeq	r0, [r4, r6, lsl #10]!
    19c0:	05070000 	streq	r0, [r7, #-0]
    19c4:	00000803 	andeq	r0, r0, r3, lsl #16
    19c8:	08120503 	ldmdaeq	r2, {r0, r1, r8, sl}
    19cc:	00020000 	andeq	r0, r2, r0
    19d0:	0007bb06 	andeq	fp, r7, r6, lsl #22
    19d4:	79150200 	ldmdbvc	r5, {r9}
    19d8:	07000000 	streq	r0, [r0, -r0]
    19dc:	00000784 	andeq	r0, r0, r4, lsl #15
    19e0:	89b83f01 	ldmibhi	r8!, {r0, r8, r9, sl, fp, ip, sp}
    19e4:	00d40000 	sbcseq	r0, r4, r0
    19e8:	9c010000 	stcls	0, cr0, [r1], {-0}
    19ec:	00000133 	andeq	r0, r0, r3, lsr r1
    19f0:	6e697008 	cdpvs	0, 6, cr7, cr9, cr8, {0}
    19f4:	2c3f0100 	ldfcss	f0, [pc], #-0	; 19fc <_start-0x6604>
    19f8:	0c000000 	stceq	0, cr0, [r0], {-0}
    19fc:	0900000c 	stmdbeq	r0, {r2, r3}
    1a00:	000006c1 	andeq	r0, r0, r1, asr #13
    1a04:	01334701 	teqeq	r3, r1, lsl #14
    1a08:	0c2a0000 	stceq	0, cr0, [sl], #-0
    1a0c:	21090000 	mrscs	r0, (UNDEF: 9)
    1a10:	01000008 	tsteq	r0, r8
    1a14:	00002c49 	andeq	r2, r0, r9, asr #24
    1a18:	000c7f00 	andeq	r7, ip, r0, lsl #30
    1a1c:	07380900 	ldreq	r0, [r8, -r0, lsl #18]!
    1a20:	57010000 	strpl	r0, [r1, -r0]
    1a24:	0000002c 	andeq	r0, r0, ip, lsr #32
    1a28:	00000e4b 	andeq	r0, r0, fp, asr #28
    1a2c:	008a4c0a 	addeq	r4, sl, sl, lsl #24
    1a30:	00084100 	andeq	r4, r8, r0, lsl #2
    1a34:	00012200 	andeq	r2, r1, r0, lsl #4
    1a38:	50010b00 	andpl	r0, r1, r0, lsl #22
    1a3c:	00007502 	andeq	r7, r0, r2, lsl #10
    1a40:	008a800c 	addeq	r8, sl, ip
    1a44:	00086200 	andeq	r6, r8, r0, lsl #4
    1a48:	50010b00 	andpl	r0, r1, r0, lsl #22
    1a4c:	00007502 	andeq	r7, r0, r2, lsl #10
    1a50:	39040d00 	stmdbcc	r4, {r8, sl, fp}
    1a54:	0e000001 	cdpeq	0, 0, cr0, cr0, cr1, {0}
    1a58:	0000002c 	andeq	r0, r0, ip, lsr #32
    1a5c:	00076a07 	andeq	r6, r7, r7, lsl #20
    1a60:	8c600100 	stfhie	f0, [r0], #-0
    1a64:	3800008a 	stmdacc	r0, {r1, r3, r7}
    1a68:	01000000 	mrseq	r0, (UNDEF: 0)
    1a6c:	0001969c 	muleq	r1, ip, r6
    1a70:	69700800 	ldmdbvs	r0!, {fp}^
    1a74:	6001006e 	andvs	r0, r1, lr, rrx
    1a78:	0000002c 	andeq	r0, r0, ip, lsr #32
    1a7c:	00000e7b 	andeq	r0, r0, fp, ror lr
    1a80:	0006c109 	andeq	ip, r6, r9, lsl #2
    1a84:	33670100 	cmncc	r7, #0, 2
    1a88:	9c000001 	stcls	0, cr0, [r0], {1}
    1a8c:	0900000e 	stmdbeq	r0, {r1, r2, r3}
    1a90:	00000738 	andeq	r0, r0, r8, lsr r7
    1a94:	002c6801 	eoreq	r6, ip, r1, lsl #16
    1a98:	0ed20000 	cdpeq	0, 13, cr0, cr2, cr0, {0}
    1a9c:	bc0c0000 	stclt	0, cr0, [ip], {-0}
    1aa0:	6200008a 	andvs	r0, r0, #138	; 0x8a
    1aa4:	0b000008 	bleq	1acc <_start-0x6534>
    1aa8:	31075101 	tstcc	r7, r1, lsl #2
    1aac:	4f5001f3 	svcmi	0x005001f3
    1ab0:	0000241a 	andeq	r2, r0, sl, lsl r4
    1ab4:	00069407 	andeq	r9, r6, r7, lsl #8
    1ab8:	c47b0100 	ldrbtgt	r0, [fp], #-256	; 0x100
    1abc:	3800008a 	stmdacc	r0, {r1, r3, r7}
    1ac0:	01000000 	mrseq	r0, (UNDEF: 0)
    1ac4:	0001ee9c 	muleq	r1, ip, lr
    1ac8:	69700800 	ldmdbvs	r0!, {fp}^
    1acc:	7b01006e 	blvc	41c8c <__bss_end__+0x37d3c>
    1ad0:	0000002c 	andeq	r0, r0, ip, lsr #32
    1ad4:	00000f12 	andeq	r0, r0, r2, lsl pc
    1ad8:	0006c109 	andeq	ip, r6, r9, lsl #2
    1adc:	33810100 	orrcc	r0, r1, #0, 2
    1ae0:	33000001 	movwcc	r0, #1
    1ae4:	0900000f 	stmdbeq	r0, {r0, r1, r2, r3}
    1ae8:	00000738 	andeq	r0, r0, r8, lsr r7
    1aec:	002c8201 	eoreq	r8, ip, r1, lsl #4
    1af0:	0f690000 	svceq	0x00690000
    1af4:	f40c0000 	vst4.8	{d0-d3}, [ip], r0
    1af8:	6200008a 	andvs	r0, r0, #138	; 0x8a
    1afc:	0b000008 	bleq	1b24 <_start-0x64dc>
    1b00:	31075101 	tstcc	r7, r1, lsl #2
    1b04:	4f5001f3 	svcmi	0x005001f3
    1b08:	0000241a 	andeq	r2, r0, sl, lsl r4
    1b0c:	00023007 	andeq	r3, r2, r7
    1b10:	fc950100 	ldc2	1, cr0, [r5], {0}
    1b14:	cc00008a 	stcgt	0, cr0, [r0], {138}	; 0x8a
    1b18:	01000000 	mrseq	r0, (UNDEF: 0)
    1b1c:	0002649c 	muleq	r2, ip, r4
    1b20:	69700800 	ldmdbvs	r0!, {fp}^
    1b24:	9501006e 	strls	r0, [r1, #-110]	; 0x6e
    1b28:	0000002c 	andeq	r0, r0, ip, lsr #32
    1b2c:	00000fa9 	andeq	r0, r0, r9, lsr #31
    1b30:	0006c109 	andeq	ip, r6, r9, lsl #2
    1b34:	339b0100 	orrscc	r0, fp, #0, 2
    1b38:	c7000001 	strgt	r0, [r0, -r1]
    1b3c:	0900000f 	stmdbeq	r0, {r0, r1, r2, r3}
    1b40:	00000821 	andeq	r0, r0, r1, lsr #16
    1b44:	002c9d01 	eoreq	r9, ip, r1, lsl #26
    1b48:	101c0000 	andsne	r0, ip, r0
    1b4c:	38090000 	stmdacc	r9, {}	; <UNPREDICTABLE>
    1b50:	01000007 	tsteq	r0, r7
    1b54:	00002cab 	andeq	r2, r0, fp, lsr #25
    1b58:	0011e800 	andseq	lr, r1, r0, lsl #16
    1b5c:	8b900a00 	blhi	fe404364 <__bss_end__+0xfe3fa414>
    1b60:	08410000 	stmdaeq	r1, {}^	; <UNPREDICTABLE>
    1b64:	02530000 	subseq	r0, r3, #0
    1b68:	010b0000 	mrseq	r0, (UNDEF: 11)
    1b6c:	00750250 	rsbseq	r0, r5, r0, asr r2
    1b70:	8bbc0c00 	blhi	fef04b78 <__bss_end__+0xfeefac28>
    1b74:	08620000 	stmdaeq	r2!, {}^	; <UNPREDICTABLE>
    1b78:	010b0000 	mrseq	r0, (UNDEF: 11)
    1b7c:	00750250 	rsbseq	r0, r5, r0, asr r2
    1b80:	5d0f0000 	stcpl	0, cr0, [pc, #-0]	; 1b88 <_start-0x6478>
    1b84:	01000002 	tsteq	r0, r2
    1b88:	000064b3 			; <UNDEFINED> instruction: 0x000064b3
    1b8c:	008bc800 	addeq	ip, fp, r0, lsl #16
    1b90:	00004c00 	andeq	r4, r0, r0, lsl #24
    1b94:	ac9c0100 	ldfges	f0, [ip], {0}
    1b98:	08000002 	stmdaeq	r0, {r1}
    1b9c:	006e6970 	rsbeq	r6, lr, r0, ror r9
    1ba0:	002cb301 	eoreq	fp, ip, r1, lsl #6
    1ba4:	12060000 	andne	r0, r6, #0
    1ba8:	76100000 	ldrvc	r0, [r0], -r0
    1bac:	2cb90100 	ldfcss	f0, [r9]
    1bb0:	5e000000 	cdppl	0, 0, cr0, cr0, cr0, {0}
    1bb4:	11000012 	tstne	r0, r2, lsl r0
    1bb8:	00008be8 	andeq	r8, r0, r8, ror #23
    1bbc:	00000841 	andeq	r0, r0, r1, asr #16
    1bc0:	008bf811 	addeq	pc, fp, r1, lsl r8	; <UNPREDICTABLE>
    1bc4:	00084100 	andeq	r4, r8, r0, lsl #2
    1bc8:	40070000 	andmi	r0, r7, r0
    1bcc:	01000007 	tsteq	r0, r7
    1bd0:	008c14c5 	addeq	r1, ip, r5, asr #9
    1bd4:	00002400 	andeq	r2, r0, r0, lsl #8
    1bd8:	fc9c0100 	ldc2	1, cr0, [ip], {0}
    1bdc:	08000002 	stmdaeq	r0, {r1}
    1be0:	006e6970 	rsbeq	r6, lr, r0, ror r9
    1be4:	002cc501 	eoreq	ip, ip, r1, lsl #10
    1be8:	12940000 	addsne	r0, r4, #0
    1bec:	76080000 	strvc	r0, [r8], -r0
    1bf0:	2cc50100 	stfcse	f0, [r5], {0}
    1bf4:	ce000000 	cdpgt	0, 0, cr0, cr0, cr0, {0}
    1bf8:	0a000012 	beq	1c48 <_start-0x63b8>
    1bfc:	00008c2c 	andeq	r8, r0, ip, lsr #24
    1c00:	0000013e 	andeq	r0, r0, lr, lsr r1
    1c04:	000002f2 	strdeq	r0, [r0], -r2
    1c08:	0350010b 	cmpeq	r0, #-1073741822	; 0xc0000002
    1c0c:	005001f3 	ldrsheq	r0, [r0], #-19	; 0xffffffed
    1c10:	008c3411 	addeq	r3, ip, r1, lsl r4
    1c14:	00019600 	andeq	r9, r1, r0, lsl #12
    1c18:	eb070000 	bl	1c1c20 <__bss_end__+0x1b7cd0>
    1c1c:	01000006 	tsteq	r0, r6
    1c20:	008c38d1 	ldrdeq	r3, [ip], r1
    1c24:	0000d800 	andeq	sp, r0, r0, lsl #16
    1c28:	819c0100 	orrshi	r0, ip, r0, lsl #2
    1c2c:	08000003 	stmdaeq	r0, {r0, r1}
    1c30:	006e6970 	rsbeq	r6, lr, r0, ror r9
    1c34:	002cd101 	eoreq	sp, ip, r1, lsl #2
    1c38:	13080000 	movwne	r0, #32768	; 0x8000
    1c3c:	4b120000 	blmi	481c44 <__bss_end__+0x477cf4>
    1c40:	01000007 	tsteq	r0, r7
    1c44:	0000b2d1 	ldrdeq	fp, [r0], -r1
    1c48:	00132600 	andseq	r2, r3, r0, lsl #12
    1c4c:	06c10900 	strbeq	r0, [r1], r0, lsl #18
    1c50:	d9010000 	stmdble	r1, {}	; <UNPREDICTABLE>
    1c54:	00000133 	andeq	r0, r0, r3, lsr r1
    1c58:	00001347 	andeq	r1, r0, r7, asr #6
    1c5c:	00082109 	andeq	r2, r8, r9, lsl #2
    1c60:	2cda0100 	ldfcse	f0, [sl], {0}
    1c64:	9c000000 	stcls	0, cr0, [r0], {-0}
    1c68:	09000013 	stmdbeq	r0, {r0, r1, r4}
    1c6c:	00000738 	andeq	r0, r0, r8, lsr r7
    1c70:	002ce801 	eoreq	lr, ip, r1, lsl #16
    1c74:	15680000 	strbne	r0, [r8, #-0]!
    1c78:	d40a0000 	strle	r0, [sl], #-0
    1c7c:	4100008c 	smlabbmi	r0, ip, r0, r0
    1c80:	70000008 	andvc	r0, r0, r8
    1c84:	0b000003 	bleq	1c98 <_start-0x6368>
    1c88:	76025001 	strvc	r5, [r2], -r1
    1c8c:	040c0000 	streq	r0, [ip], #-0
    1c90:	6200008d 	andvs	r0, r0, #141	; 0x8d
    1c94:	0b000008 	bleq	1cbc <_start-0x6344>
    1c98:	76025001 	strvc	r5, [r2], -r1
    1c9c:	07000000 	streq	r0, [r0, -r0]
    1ca0:	00000750 	andeq	r0, r0, r0, asr r7
    1ca4:	8d10f101 	ldfhid	f7, [r0, #-4]
    1ca8:	00380000 	eorseq	r0, r8, r0
    1cac:	9c010000 	stcls	0, cr0, [r1], {-0}
    1cb0:	000003d9 	ldrdeq	r0, [r0], -r9
    1cb4:	6e697008 	cdpvs	0, 6, cr7, cr9, cr8, {0}
    1cb8:	2cf10100 	ldfcse	f0, [r1]
    1cbc:	99000000 	stmdbls	r0, {}	; <UNPREDICTABLE>
    1cc0:	09000015 	stmdbeq	r0, {r0, r2, r4}
    1cc4:	000006c1 	andeq	r0, r0, r1, asr #13
    1cc8:	0133f701 	teqeq	r3, r1, lsl #14
    1ccc:	15ba0000 	ldrne	r0, [sl, #0]!
    1cd0:	38090000 	stmdacc	r9, {}	; <UNPREDICTABLE>
    1cd4:	01000007 	tsteq	r0, r7
    1cd8:	00002cf8 	strdeq	r2, [r0], -r8
    1cdc:	0015f000 	andseq	pc, r5, r0
    1ce0:	8d400c00 	stclhi	12, cr0, [r0, #-0]
    1ce4:	08620000 	stmdaeq	r2!, {}^	; <UNPREDICTABLE>
    1ce8:	010b0000 	mrseq	r0, (UNDEF: 11)
    1cec:	f3310751 	vaba.u<illegal width 64>	q0, <illegal reg q0.5>, <illegal reg q0.5>
    1cf0:	1a4f5001 	bne	13d5cfc <__bss_end__+0x13cbdac>
    1cf4:	13000024 	movwne	r0, #36	; 0x24
    1cf8:	00000678 	andeq	r0, r0, r8, ror r6
    1cfc:	64011f01 	strvs	r1, [r1], #-3841	; 0xf01
    1d00:	48000000 	stmdami	r0, {}	; <UNPREDICTABLE>
    1d04:	2c00008d 	stccs	0, cr0, [r0], {141}	; 0x8d
    1d08:	01000000 	mrseq	r0, (UNDEF: 0)
    1d0c:	00040d9c 	muleq	r4, ip, sp
    1d10:	067b1400 	ldrbteq	r1, [fp], -r0, lsl #8
    1d14:	1f010000 	svcne	0x00010000
    1d18:	00002c01 	andeq	r2, r0, r1, lsl #24
    1d1c:	00163000 	andseq	r3, r6, r0
    1d20:	8d581100 	ldfhie	f1, [r8, #-0]
    1d24:	08410000 	stmdaeq	r1, {}^	; <UNPREDICTABLE>
    1d28:	15000000 	strne	r0, [r0, #-0]
    1d2c:	000006d6 	ldrdeq	r0, [r0], -r6
    1d30:	74012e01 	strvc	r2, [r1], #-3585	; 0xe01
    1d34:	8400008d 	strhi	r0, [r0], #-141	; 0x8d
    1d38:	01000000 	mrseq	r0, (UNDEF: 0)
    1d3c:	0004d19c 	muleq	r4, ip, r1
    1d40:	69701600 	ldmdbvs	r0!, {r9, sl, ip}^
    1d44:	2e01006e 	cdpcs	0, 0, cr0, cr1, cr14, {3}
    1d48:	00002c01 	andeq	r2, r0, r1, lsl #24
    1d4c:	00165100 	andseq	r5, r6, r0, lsl #2
    1d50:	06af1700 	strteq	r1, [pc], r0, lsl #14
    1d54:	40010000 	andmi	r0, r1, r0
    1d58:	00002c01 	andeq	r2, r0, r1, lsl #24
    1d5c:	00167d00 	andseq	r7, r6, r0, lsl #26
    1d60:	8d901800 	ldchi	8, cr1, [r0]
    1d64:	001c0000 	andseq	r0, ip, r0
    1d68:	04730000 	ldrbteq	r0, [r3], #-0
    1d6c:	38170000 	ldmdacc	r7, {}	; <UNPREDICTABLE>
    1d70:	01000007 	tsteq	r0, r7
    1d74:	002c0137 	eoreq	r0, ip, r7, lsr r1
    1d78:	169b0000 	ldrne	r0, [fp], r0
    1d7c:	9c110000 	ldcls	0, cr0, [r1], {-0}
    1d80:	4100008d 	smlabbmi	r0, sp, r0, r0
    1d84:	11000008 	tstne	r0, r8
    1d88:	00008dac 	andeq	r8, r0, ip, lsr #27
    1d8c:	00000862 	andeq	r0, r0, r2, ror #16
    1d90:	8db01800 	ldchi	8, cr1, [r0]
    1d94:	00200000 	eoreq	r0, r0, r0
    1d98:	04a30000 	strteq	r0, [r3], #0
    1d9c:	38170000 	ldmdacc	r7, {}	; <UNPREDICTABLE>
    1da0:	01000007 	tsteq	r0, r7
    1da4:	002c013b 	eoreq	r0, ip, fp, lsr r1
    1da8:	16b90000 	ldrtne	r0, [r9], r0
    1dac:	bc110000 	ldclt	0, cr0, [r1], {-0}
    1db0:	4100008d 	smlabbmi	r0, sp, r0, r0
    1db4:	11000008 	tstne	r0, r8
    1db8:	00008dd0 	ldrdeq	r8, [r0], -r0
    1dbc:	00000862 	andeq	r0, r0, r2, ror #16
    1dc0:	8d881100 	stfhis	f1, [r8]
    1dc4:	087e0000 	ldmdaeq	lr!, {}^	; <UNPREDICTABLE>
    1dc8:	d4110000 	ldrle	r0, [r1], #-0
    1dcc:	7e00008d 	cdpvc	0, 0, cr0, cr0, cr13, {4}
    1dd0:	11000008 	tstne	r0, r8
    1dd4:	00008de0 	andeq	r8, r0, r0, ror #27
    1dd8:	00000841 	andeq	r0, r0, r1, asr #16
    1ddc:	008dec11 	addeq	lr, sp, r1, lsl ip
    1de0:	00086200 	andeq	r6, r8, r0, lsl #4
    1de4:	8df01100 	ldfhie	f1, [r0]
    1de8:	087e0000 	ldmdaeq	lr!, {}^	; <UNPREDICTABLE>
    1dec:	15000000 	strne	r0, [r0, #-0]
    1df0:	000007a5 	andeq	r0, r0, r5, lsr #15
    1df4:	f8014b01 			; <UNDEFINED> instruction: 0xf8014b01
    1df8:	8400008d 	strhi	r0, [r0], #-141	; 0x8d
    1dfc:	01000000 	mrseq	r0, (UNDEF: 0)
    1e00:	0005959c 	muleq	r5, ip, r5
    1e04:	69701600 	ldmdbvs	r0!, {r9, sl, ip}^
    1e08:	4b01006e 	blmi	41fc8 <__bss_end__+0x38078>
    1e0c:	00002c01 	andeq	r2, r0, r1, lsl #24
    1e10:	0016d700 	andseq	sp, r6, r0, lsl #14
    1e14:	06af1700 	strteq	r1, [pc], r0, lsl #14
    1e18:	5c010000 	stcpl	0, cr0, [r1], {-0}
    1e1c:	00002c01 	andeq	r2, r0, r1, lsl #24
    1e20:	00170300 	andseq	r0, r7, r0, lsl #6
    1e24:	8e141800 	cdphi	8, 1, cr1, cr4, cr0, {0}
    1e28:	001c0000 	andseq	r0, ip, r0
    1e2c:	05370000 	ldreq	r0, [r7, #-0]!
    1e30:	38170000 	ldmdacc	r7, {}	; <UNPREDICTABLE>
    1e34:	01000007 	tsteq	r0, r7
    1e38:	002c0153 	eoreq	r0, ip, r3, asr r1
    1e3c:	17210000 	strne	r0, [r1, -r0]!
    1e40:	20110000 	andscs	r0, r1, r0
    1e44:	4100008e 	smlabbmi	r0, lr, r0, r0
    1e48:	11000008 	tstne	r0, r8
    1e4c:	00008e30 	andeq	r8, r0, r0, lsr lr
    1e50:	00000862 	andeq	r0, r0, r2, ror #16
    1e54:	8e341800 	cdphi	8, 3, cr1, cr4, cr0, {0}
    1e58:	00200000 	eoreq	r0, r0, r0
    1e5c:	05670000 	strbeq	r0, [r7, #-0]!
    1e60:	38170000 	ldmdacc	r7, {}	; <UNPREDICTABLE>
    1e64:	01000007 	tsteq	r0, r7
    1e68:	002c0157 	eoreq	r0, ip, r7, asr r1
    1e6c:	173f0000 	ldrne	r0, [pc, -r0]!
    1e70:	40110000 	andsmi	r0, r1, r0
    1e74:	4100008e 	smlabbmi	r0, lr, r0, r0
    1e78:	11000008 	tstne	r0, r8
    1e7c:	00008e54 	andeq	r8, r0, r4, asr lr
    1e80:	00000862 	andeq	r0, r0, r2, ror #16
    1e84:	8e0c1100 	adfhie	f1, f4, f0
    1e88:	087e0000 	ldmdaeq	lr!, {}^	; <UNPREDICTABLE>
    1e8c:	58110000 	ldmdapl	r1, {}	; <UNPREDICTABLE>
    1e90:	7e00008e 	cdpvc	0, 0, cr0, cr0, cr14, {4}
    1e94:	11000008 	tstne	r0, r8
    1e98:	00008e64 	andeq	r8, r0, r4, ror #28
    1e9c:	00000841 	andeq	r0, r0, r1, asr #16
    1ea0:	008e7011 	addeq	r7, lr, r1, lsl r0
    1ea4:	00086200 	andeq	r6, r8, r0, lsl #4
    1ea8:	8e741100 	rpwhis	f1, f4, f0
    1eac:	087e0000 	ldmdaeq	lr!, {}^	; <UNPREDICTABLE>
    1eb0:	13000000 	movwne	r0, #0
    1eb4:	00000650 	andeq	r0, r0, r0, asr r6
    1eb8:	64016601 	strvs	r6, [r1], #-1537	; 0x601
    1ebc:	7c000000 	stcvc	0, cr0, [r0], {-0}
    1ec0:	8400008e 	strhi	r0, [r0], #-142	; 0x8e
    1ec4:	01000000 	mrseq	r0, (UNDEF: 0)
    1ec8:	00063b9c 	muleq	r6, ip, fp
    1ecc:	69701600 	ldmdbvs	r0!, {r9, sl, ip}^
    1ed0:	6601006e 	strvs	r0, [r1], -lr, rrx
    1ed4:	00002c01 	andeq	r2, r0, r1, lsl #24
    1ed8:	00175d00 	andseq	r5, r7, r0, lsl #26
    1edc:	8e981800 	cdphi	8, 9, cr1, cr8, cr0, {0}
    1ee0:	00240000 	eoreq	r0, r4, r0
    1ee4:	05ef0000 	strbeq	r0, [pc, #0]!	; 1eec <_start-0x6114>
    1ee8:	b8170000 	ldmdalt	r7, {}	; <UNPREDICTABLE>
    1eec:	01000006 	tsteq	r0, r6
    1ef0:	002c016d 	eoreq	r0, ip, sp, ror #2
    1ef4:	179f0000 	ldrne	r0, [pc, r0]
    1ef8:	a4110000 	ldrge	r0, [r1], #-0
    1efc:	4100008e 	smlabbmi	r0, lr, r0, r0
    1f00:	11000008 	tstne	r0, r8
    1f04:	00008eb4 			; <UNDEFINED> instruction: 0x00008eb4
    1f08:	0000087e 	andeq	r0, r0, lr, ror r8
    1f0c:	8ebc1800 	cdphi	8, 11, cr1, cr12, cr0, {0}
    1f10:	002c0000 	eoreq	r0, ip, r0
    1f14:	06280000 	strteq	r0, [r8], -r0
    1f18:	b8170000 	ldmdalt	r7, {}	; <UNPREDICTABLE>
    1f1c:	01000006 	tsteq	r0, r6
    1f20:	002c0170 	eoreq	r0, ip, r0, ror r1
    1f24:	17b90000 	ldrne	r0, [r9, r0]!
    1f28:	c8110000 	ldmdagt	r1, {}	; <UNPREDICTABLE>
    1f2c:	4100008e 	smlabbmi	r0, lr, r0, r0
    1f30:	11000008 	tstne	r0, r8
    1f34:	00008ed4 	ldrdeq	r8, [r0], -r4
    1f38:	0000087e 	andeq	r0, r0, lr, ror r8
    1f3c:	008ee011 	addeq	lr, lr, r1, lsl r0
    1f40:	00087e00 	andeq	r7, r8, r0, lsl #28
    1f44:	90110000 	andsls	r0, r1, r0
    1f48:	7e00008e 	cdpvc	0, 0, cr0, cr0, cr14, {4}
    1f4c:	11000008 	tstne	r0, r8
    1f50:	00008eec 	andeq	r8, r0, ip, ror #29
    1f54:	0000087e 	andeq	r0, r0, lr, ror r8
    1f58:	070b1500 	streq	r1, [fp, -r0, lsl #10]
    1f5c:	79010000 	stmdbvc	r1, {}	; <UNPREDICTABLE>
    1f60:	008f0001 	addeq	r0, pc, r1
    1f64:	00005800 	andeq	r5, r0, r0, lsl #16
    1f68:	a09c0100 	addsge	r0, ip, r0, lsl #2
    1f6c:	16000006 	strne	r0, [r0], -r6
    1f70:	006e6970 	rsbeq	r6, lr, r0, ror r9
    1f74:	2c017901 	stccs	9, cr7, [r1], {1}
    1f78:	cc000000 	stcgt	0, cr0, [r0], {-0}
    1f7c:	11000017 	tstne	r0, r7, lsl r0
    1f80:	00008f14 	andeq	r8, r0, r4, lsl pc
    1f84:	0000087e 	andeq	r0, r0, lr, ror r8
    1f88:	008f300a 	addeq	r3, pc, sl
    1f8c:	00086200 	andeq	r6, r8, r0, lsl #4
    1f90:	00068000 	andeq	r8, r6, r0
    1f94:	51010b00 	tstpl	r1, r0, lsl #22
    1f98:	00743104 	rsbseq	r3, r4, r4, lsl #2
    1f9c:	4c0a0024 	stcmi	0, cr0, [sl], {36}	; 0x24
    1fa0:	6200008f 	andvs	r0, r0, #143	; 0x8f
    1fa4:	96000008 	strls	r0, [r0], -r8
    1fa8:	0b000006 	bleq	1fc8 <_start-0x6038>
    1fac:	31045101 	tstcc	r4, r1, lsl #2
    1fb0:	00240074 	eoreq	r0, r4, r4, ror r0
    1fb4:	008f5011 	addeq	r5, pc, r1, lsl r0	; <UNPREDICTABLE>
    1fb8:	00087e00 	andeq	r7, r8, r0, lsl #28
    1fbc:	42190000 	andsmi	r0, r9, #0
    1fc0:	01000001 	tsteq	r0, r1
    1fc4:	00013328 	andeq	r3, r1, r8, lsr #6
    1fc8:	4c030500 	cfstr32mi	mvfx0, [r3], {-0}
    1fcc:	19000098 	stmdbne	r0, {r3, r4, r7}
    1fd0:	00000212 	andeq	r0, r0, r2, lsl r2
    1fd4:	01332901 	teqeq	r3, r1, lsl #18
    1fd8:	03050000 	movweq	r0, #20480	; 0x5000
    1fdc:	00009848 	andeq	r9, r0, r8, asr #16
    1fe0:	00028d19 	andeq	r8, r2, r9, lsl sp
    1fe4:	332a0100 	teqcc	sl, #0, 2
    1fe8:	05000001 	streq	r0, [r0, #-1]
    1fec:	00984403 	addseq	r4, r8, r3, lsl #8
    1ff0:	00e21900 	rsceq	r1, r2, r0, lsl #18
    1ff4:	2c010000 	stccs	0, cr0, [r1], {-0}
    1ff8:	00000133 	andeq	r0, r0, r3, lsr r1
    1ffc:	97f00305 	ldrbls	r0, [r0, r5, lsl #6]!
    2000:	ea190000 	b	642008 <__bss_end__+0x6380b8>
    2004:	01000000 	mrseq	r0, (UNDEF: 0)
    2008:	0001332d 	andeq	r3, r1, sp, lsr #6
    200c:	f4030500 	vst3.8	{d0,d2,d4}, [r3], r0
    2010:	19000097 	stmdbne	r0, {r0, r1, r2, r4, r7}
    2014:	00000000 	andeq	r0, r0, r0
    2018:	01332e01 	teqeq	r3, r1, lsl #28
    201c:	03050000 	movweq	r0, #20480	; 0x5000
    2020:	000097f8 	strdeq	r9, [r0], -r8
    2024:	0000f219 	andeq	pc, r0, r9, lsl r2	; <UNPREDICTABLE>
    2028:	332f0100 	teqcc	pc, #0, 2
    202c:	05000001 	streq	r0, [r0, #-1]
    2030:	0097fc03 	addseq	pc, r7, r3, lsl #24
    2034:	00fa1900 	rscseq	r1, sl, r0, lsl #18
    2038:	30010000 	andcc	r0, r1, r0
    203c:	00000133 	andeq	r0, r0, r3, lsr r1
    2040:	98000305 	stmdals	r0, {r0, r2, r8, r9}
    2044:	02190000 	andseq	r0, r9, #0
    2048:	01000001 	tsteq	r0, r1
    204c:	00013331 	andeq	r3, r1, r1, lsr r3
    2050:	04030500 	streq	r0, [r3], #-1280	; 0x500
    2054:	19000098 	stmdbne	r0, {r3, r4, r7}
    2058:	00000056 	andeq	r0, r0, r6, asr r0
    205c:	01333301 	teqeq	r3, r1, lsl #6
    2060:	03050000 	movweq	r0, #20480	; 0x5000
    2064:	00009808 	andeq	r9, r0, r8, lsl #16
    2068:	00005d19 	andeq	r5, r0, r9, lsl sp
    206c:	33340100 	teqcc	r4, #0, 2
    2070:	05000001 	streq	r0, [r0, #-1]
    2074:	00980c03 	addseq	r0, r8, r3, lsl #24
    2078:	00081900 	andeq	r1, r8, r0, lsl #18
    207c:	36010000 	strcc	r0, [r1], -r0
    2080:	00000133 	andeq	r0, r0, r3, lsr r1
    2084:	98100305 	ldmdals	r0, {r0, r2, r8, r9}
    2088:	4d190000 	ldcmi	0, cr0, [r9, #-0]
    208c:	01000001 	tsteq	r0, r1
    2090:	00013337 	andeq	r3, r1, r7, lsr r3
    2094:	14030500 	strne	r0, [r3], #-1280	; 0x500
    2098:	19000098 	stmdbne	r0, {r3, r4, r7}
    209c:	00000064 	andeq	r0, r0, r4, rrx
    20a0:	01333901 	teqeq	r3, r1, lsl #18
    20a4:	03050000 	movweq	r0, #20480	; 0x5000
    20a8:	00009818 	andeq	r9, r0, r8, lsl r8
    20ac:	00006b19 	andeq	r6, r0, r9, lsl fp
    20b0:	333a0100 	teqcc	sl, #0, 2
    20b4:	05000001 	streq	r0, [r0, #-1]
    20b8:	00981c03 	addseq	r1, r8, r3, lsl #24
    20bc:	071c1a00 	ldreq	r1, [ip, -r0, lsl #20]
    20c0:	0a010000 	beq	420c8 <__bss_end__+0x38178>
    20c4:	00013301 	andeq	r3, r1, r1, lsl #6
    20c8:	40030500 	andmi	r0, r3, r0, lsl #10
    20cc:	1a000098 	bne	2334 <_start-0x5ccc>
    20d0:	0000072a 	andeq	r0, r0, sl, lsr #14
    20d4:	33010b01 	movwcc	r0, #6913	; 0x1b01
    20d8:	05000001 	streq	r0, [r0, #-1]
    20dc:	00982003 	addseq	r2, r8, r3
    20e0:	075c1a00 	ldrbeq	r1, [ip, -r0, lsl #20]
    20e4:	0d010000 	stceq	0, cr0, [r1, #-0]
    20e8:	00013301 	andeq	r3, r1, r1, lsl #6
    20ec:	38030500 	stmdacc	r3, {r8, sl}
    20f0:	1a000098 	bne	2358 <_start-0x5ca8>
    20f4:	00000763 	andeq	r0, r0, r3, ror #14
    20f8:	33010e01 	movwcc	r0, #7681	; 0x1e01
    20fc:	05000001 	streq	r0, [r0, #-1]
    2100:	00983c03 	addseq	r3, r8, r3, lsl #24
    2104:	06fd1a00 	ldrbteq	r1, [sp], r0, lsl #20
    2108:	10010000 	andne	r0, r1, r0
    210c:	00013301 	andeq	r3, r1, r1, lsl #6
    2110:	24030500 	strcs	r0, [r3], #-1280	; 0x500
    2114:	1a000098 	bne	237c <_start-0x5c84>
    2118:	00000704 	andeq	r0, r0, r4, lsl #14
    211c:	33011101 	movwcc	r1, #4353	; 0x1101
    2120:	05000001 	streq	r0, [r0, #-1]
    2124:	00982803 	addseq	r2, r8, r3, lsl #16
    2128:	07761a00 	ldrbeq	r1, [r6, -r0, lsl #20]!
    212c:	13010000 	movwne	r0, #4096	; 0x1000
    2130:	00013301 	andeq	r3, r1, r1, lsl #6
    2134:	30030500 	andcc	r0, r3, r0, lsl #10
    2138:	1a000098 	bne	23a0 <_start-0x5c60>
    213c:	0000077d 	andeq	r0, r0, sp, ror r7
    2140:	33011401 	movwcc	r1, #5121	; 0x1401
    2144:	05000001 	streq	r0, [r0, #-1]
    2148:	00983403 	addseq	r3, r8, r3, lsl #8
    214c:	066a1a00 	strbteq	r1, [sl], -r0, lsl #20
    2150:	16010000 	strne	r0, [r1], -r0
    2154:	00013301 	andeq	r3, r1, r1, lsl #6
    2158:	2c030500 	cfstr32cs	mvfx0, [r3], {-0}
    215c:	1b000098 	blne	23c4 <_start-0x5c3c>
    2160:	00000272 	andeq	r0, r0, r2, ror r2
    2164:	002c2001 	eoreq	r2, ip, r1
    2168:	08560000 	ldmdaeq	r6, {}^	; <UNPREDICTABLE>
    216c:	561c0000 	ldrpl	r0, [ip], -r0
    2170:	00000008 	andeq	r0, r0, r8
    2174:	085c040d 	ldmdaeq	ip, {r0, r2, r3, sl}^
    2178:	611d0000 	tstvs	sp, r0
    217c:	1e000008 	cdpne	0, 0, cr0, cr0, cr8, {0}
    2180:	0006641f 	andeq	r6, r6, pc, lsl r4
    2184:	781e0100 	ldmdavc	lr, {r8}
    2188:	1c000008 	stcne	0, cr0, [r0], {8}
    218c:	00000878 	andeq	r0, r0, r8, ror r8
    2190:	00002c1c 	andeq	r2, r0, ip, lsl ip
    2194:	040d0000 	streq	r0, [sp], #-0
    2198:	00000861 	andeq	r0, r0, r1, ror #16
    219c:	0006ca20 	andeq	ip, r6, r0, lsr #20
    21a0:	008a0300 	addeq	r0, sl, r0, lsl #6
    21a4:	000011f2 	strdeq	r1, [r0], -r2
    21a8:	0d670004 	stcleq	0, cr0, [r7, #-16]!
    21ac:	01040000 	mrseq	r0, (UNDEF: 4)
    21b0:	000002bc 			; <UNDEFINED> instruction: 0x000002bc
    21b4:	0008c101 	andeq	ip, r8, r1, lsl #2
    21b8:	00032700 	andeq	r2, r3, r0, lsl #14
    21bc:	008f5800 	addeq	r5, pc, r0, lsl #16
    21c0:	00066800 	andeq	r6, r6, r0, lsl #16
    21c4:	000a9300 	andeq	r9, sl, r0, lsl #6
    21c8:	05040200 	streq	r0, [r4, #-512]	; 0x200
    21cc:	00746e69 	rsbseq	r6, r4, r9, ror #28
    21d0:	33070403 	movwcc	r0, #29699	; 0x7403
    21d4:	03000000 	movweq	r0, #0
    21d8:	01830601 	orreq	r0, r3, r1, lsl #12
    21dc:	02030000 	andeq	r0, r3, #0
    21e0:	00018f05 	andeq	r8, r1, r5, lsl #30
    21e4:	05040300 	streq	r0, [r4, #-768]	; 0x300
    21e8:	00000045 	andeq	r0, r0, r5, asr #32
    21ec:	40050803 	andmi	r0, r5, r3, lsl #16
    21f0:	04000000 	streq	r0, [r0], #-0
    21f4:	00000518 	andeq	r0, r0, r8, lsl r5
    21f8:	005a2e03 	subseq	r2, sl, r3, lsl #28
    21fc:	01030000 	mrseq	r0, (UNDEF: 3)
    2200:	00018108 	andeq	r8, r1, r8, lsl #2
    2204:	07020300 	streq	r0, [r2, -r0, lsl #6]
    2208:	00000117 	andeq	r0, r0, r7, lsl r1
    220c:	00056f04 	andeq	r6, r5, r4, lsl #30
    2210:	73340300 	teqvc	r4, #0, 6
    2214:	03000000 	movweq	r0, #0
    2218:	002e0704 	eoreq	r0, lr, r4, lsl #14
    221c:	08030000 	stmdaeq	r3, {}	; <UNPREDICTABLE>
    2220:	00002907 	andeq	r2, r0, r7, lsl #18
    2224:	07040300 	streq	r0, [r4, -r0, lsl #6]
    2228:	00000161 	andeq	r0, r0, r1, ror #2
    222c:	04060405 	streq	r0, [r6], #-1029	; 0x405
    2230:	00000090 	muleq	r0, r0, r0
    2234:	8a080103 	bhi	202648 <__bss_end__+0x1f86f8>
    2238:	06000001 	streq	r0, [r0], -r1
    223c:	00009d04 	andeq	r9, r0, r4, lsl #26
    2240:	00900700 	addseq	r0, r0, r0, lsl #14
    2244:	0c080000 	stceq	0, cr0, [r8], {-0}
    2248:	00d90e04 	sbcseq	r0, r9, r4, lsl #28
    224c:	74090000 	strvc	r0, [r9], #-0
    2250:	0f040078 	svceq	0x00040078
    2254:	0000004f 	andeq	r0, r0, pc, asr #32
    2258:	78720900 	ldmdavc	r2!, {r8, fp}^
    225c:	4f0f0400 	svcmi	0x000f0400
    2260:	01000000 	mrseq	r0, (UNDEF: 0)
    2264:	0004e60a 	andeq	lr, r4, sl, lsl #12
    2268:	68100400 	ldmdavs	r0, {sl}
    226c:	04000000 	streq	r0, [r0], #-0
    2270:	0004970a 	andeq	r9, r4, sl, lsl #14
    2274:	68110400 	ldmdavs	r1, {sl}
    2278:	08000000 	stmdaeq	r0, {}	; <UNPREDICTABLE>
    227c:	04cf0400 	strbeq	r0, [pc], #1024	; 2284 <_start-0x5d7c>
    2280:	12040000 	andne	r0, r4, #0
    2284:	000000a2 	andeq	r0, r0, r2, lsr #1
    2288:	00029f04 	andeq	r9, r2, r4, lsl #30
    228c:	ef280500 	svc	0x00280500
    2290:	0b000000 	bleq	2298 <_start-0x5d68>
    2294:	0000031d 	andeq	r0, r0, sp, lsl r3
    2298:	06000904 	streq	r0, [r0], -r4, lsl #18
    229c:	0c000001 	stceq	0, cr0, [r0], {1}
    22a0:	00000370 	andeq	r0, r0, r0, ror r3
    22a4:	00000088 	andeq	r0, r0, r8, lsl #1
    22a8:	1f040000 	svcne	0x00040000
    22ac:	05000003 	streq	r0, [r0, #-3]
    22b0:	0000e462 	andeq	lr, r0, r2, ror #8
    22b4:	08850d00 	stmeq	r5, {r8, sl, fp}
    22b8:	09020000 	stmdbeq	r2, {}	; <UNPREDICTABLE>
    22bc:	00013f03 	andeq	r3, r1, r3, lsl #30
    22c0:	04fa0e00 	ldrbteq	r0, [sl], #3584	; 0xe00
    22c4:	09020000 	stmdbeq	r2, {}	; <UNPREDICTABLE>
    22c8:	0000002c 	andeq	r0, r0, ip, lsr #32
    22cc:	02006e0f 	andeq	r6, r0, #15, 28	; 0xf0
    22d0:	00002c09 	andeq	r2, r0, r9, lsl #24
    22d4:	77111000 	ldrvc	r1, [r1, -r0]
    22d8:	02000001 	andeq	r0, r0, #1
    22dc:	00002c0c 	andeq	r2, r0, ip, lsl #24
    22e0:	0d000000 	stceq	0, cr0, [r0, #-0]
    22e4:	00000838 	andeq	r0, r0, r8, lsr r8
    22e8:	76031702 	strvc	r1, [r3], -r2, lsl #14
    22ec:	0f000001 	svceq	0x00000001
    22f0:	006e6970 	rsbeq	r6, lr, r0, ror r9
    22f4:	002c1702 	eoreq	r1, ip, r2, lsl #14
    22f8:	760f0000 	strvc	r0, [pc], -r0
    22fc:	2c170200 	lfmcs	f0, 4, [r7], {-0}
    2300:	0e000000 	cdpeq	0, 0, cr0, cr0, cr0, {0}
    2304:	000004fa 	strdeq	r0, [r0], -sl
    2308:	002c1702 	eoreq	r1, ip, r2, lsl #14
    230c:	8b0e0000 	blhi	382314 <__bss_end__+0x3783c4>
    2310:	02000008 	andeq	r0, r0, #8
    2314:	00002c17 	andeq	r2, r0, r7, lsl ip
    2318:	0b120000 	bleq	482320 <__bss_end__+0x4783d0>
    231c:	01000005 	tsteq	r0, r5
    2320:	008f5809 	addeq	r5, pc, r9, lsl #16
    2324:	00015400 	andeq	r5, r1, r0, lsl #8
    2328:	229c0100 	addscs	r0, ip, #0, 2
    232c:	13000007 	movwne	r0, #7
    2330:	000004ad 	andeq	r0, r0, sp, lsr #9
    2334:	07220901 	streq	r0, [r2, -r1, lsl #18]!
    2338:	17f80000 	ldrbne	r0, [r8, r0]!
    233c:	63140000 	tstvs	r4, #0
    2340:	5a090100 	bpl	242748 <__bss_end__+0x2387f8>
    2344:	19000000 	stmdbne	r0, {}	; <UNPREDICTABLE>
    2348:	15000018 	strne	r0, [r0, #-24]
    234c:	01007874 	tsteq	r0, r4, ror r8
    2350:	0000250b 	andeq	r2, r0, fp, lsl #10
    2354:	00760600 	rsbseq	r0, r6, r0, lsl #12
    2358:	9f1aff08 	svcls	0x001aff08
    235c:	01006e16 	tsteq	r0, r6, lsl lr
    2360:	0000680c 	andeq	r6, r0, ip, lsl #16
    2364:	00183a00 	andseq	r3, r8, r0, lsl #20
    2368:	00751600 	rsbseq	r1, r5, r0, lsl #12
    236c:	00680d01 	rsbeq	r0, r8, r1, lsl #26
    2370:	184d0000 	stmdane	sp, {}^	; <UNPREDICTABLE>
    2374:	73150000 	tstvc	r5, #0
    2378:	680e0100 	stmdavs	lr, {r8}
    237c:	01000000 	mrseq	r0, (UNDEF: 0)
    2380:	8f681754 	svchi	0x00681754
    2384:	00040000 	andeq	r0, r4, r0
    2388:	01f80000 	mvnseq	r0, r0
    238c:	77180000 	ldrvc	r0, [r8, -r0]
    2390:	01000001 	tsteq	r0, r1
    2394:	00002c0e 	andeq	r2, r0, lr, lsl #24
    2398:	00540100 	subseq	r0, r4, r0, lsl #2
    239c:	00013f19 	andeq	r3, r1, r9, lsl pc
    23a0:	008f6c00 	addeq	r6, pc, r0, lsl #24
    23a4:	00001c00 	andeq	r1, r0, r0, lsl #24
    23a8:	75110100 	ldrvc	r0, [r1, #-256]	; 0x100
    23ac:	1a000002 	bne	23bc <_start-0x5c44>
    23b0:	0000016a 	andeq	r0, r0, sl, ror #2
    23b4:	00001876 	andeq	r1, r0, r6, ror r8
    23b8:	00015f1b 	andeq	r5, r1, fp, lsl pc
    23bc:	1c540100 	ldfnee	f0, [r4], {-0}
    23c0:	00000156 	andeq	r0, r0, r6, asr r1
    23c4:	014b1b00 	cmpeq	fp, r0, lsl #22
    23c8:	56010000 	strpl	r0, [r1], -r0
    23cc:	00011119 	andeq	r1, r1, r9, lsl r1
    23d0:	008f7800 	addeq	r7, pc, r0, lsl #16
    23d4:	00001000 	andeq	r1, r0, r0
    23d8:	5f1a0200 	svcpl	0x001a0200
    23dc:	1a000002 	bne	23ec <_start-0x5c14>
    23e0:	00000128 	andeq	r0, r0, r8, lsr #2
    23e4:	00001889 	andeq	r1, r0, r9, lsl #17
    23e8:	00011d1b 	andeq	r1, r1, fp, lsl sp
    23ec:	1d540100 	ldfnee	f0, [r4, #-0]
    23f0:	00008f78 	andeq	r8, r0, r8, ror pc
    23f4:	00000004 	andeq	r0, r0, r4
    23f8:	0001321e 	andeq	r3, r1, lr, lsl r2
    23fc:	00189c00 	andseq	r9, r8, r0, lsl #24
    2400:	1f000000 	svcne	0x00000000
    2404:	00008f78 	andeq	r8, r0, r8, ror pc
    2408:	00001159 	andeq	r1, r0, r9, asr r1
    240c:	01510120 	cmpeq	r1, r0, lsr #2
    2410:	50012030 	andpl	r2, r1, r0, lsr r0
    2414:	00007602 	andeq	r7, r0, r2, lsl #12
    2418:	013f1900 	teqeq	pc, r0, lsl #18
    241c:	8f8c0000 	svchi	0x008c0000
    2420:	001c0000 	andseq	r0, ip, r0
    2424:	13010000 	movwne	r0, #4096	; 0x1000
    2428:	000002f8 	strdeq	r0, [r0], -r8
    242c:	00016a1a 	andeq	r6, r1, sl, lsl sl
    2430:	0018af00 	andseq	sl, r8, r0, lsl #30
    2434:	015f1b00 	cmpeq	pc, r0, lsl #22
    2438:	54010000 	strpl	r0, [r1], #-0
    243c:	0001561a 	andeq	r5, r1, sl, lsl r6
    2440:	0018d100 	andseq	sp, r8, r0, lsl #2
    2444:	014b1b00 	cmpeq	fp, r0, lsl #22
    2448:	56010000 	strpl	r0, [r1], -r0
    244c:	00011119 	andeq	r1, r1, r9, lsl r1
    2450:	008f9800 	addeq	r9, pc, r0, lsl #16
    2454:	00001000 	andeq	r1, r0, r0
    2458:	df1a0200 	svcle	0x001a0200
    245c:	1a000002 	bne	246c <_start-0x5b94>
    2460:	00000128 	andeq	r0, r0, r8, lsr #2
    2464:	00001902 	andeq	r1, r0, r2, lsl #18
    2468:	00011d1b 	andeq	r1, r1, fp, lsl sp
    246c:	1d540100 	ldfnee	f0, [r4, #-0]
    2470:	00008f98 	muleq	r0, r8, pc	; <UNPREDICTABLE>
    2474:	00000004 	andeq	r0, r0, r4
    2478:	0001321e 	andeq	r3, r1, lr, lsl r2
    247c:	00192400 	andseq	r2, r9, r0, lsl #8
    2480:	1f000000 	svcne	0x00000000
    2484:	00008f98 	muleq	r0, r8, pc	; <UNPREDICTABLE>
    2488:	00001159 	andeq	r1, r0, r9, asr r1
    248c:	04510120 	ldrbeq	r0, [r1], #-288	; 0x120
    2490:	1a310077 	bne	c42674 <__bss_end__+0xc38724>
    2494:	02500120 	subseq	r0, r0, #32, 2
    2498:	00000076 	andeq	r0, r0, r6, ror r0
    249c:	00013f19 	andeq	r3, r1, r9, lsl pc
    24a0:	008fac00 	addeq	sl, pc, r0, lsl #24
    24a4:	00001c00 	andeq	r1, r0, r0, lsl #24
    24a8:	80150100 	andshi	r0, r5, r0, lsl #2
    24ac:	1a000003 	bne	24c0 <_start-0x5b40>
    24b0:	0000016a 	andeq	r0, r0, sl, ror #2
    24b4:	00001937 	andeq	r1, r0, r7, lsr r9
    24b8:	00015f1b 	andeq	r5, r1, fp, lsl pc
    24bc:	1b540100 	blne	15028c4 <__bss_end__+0x14f8974>
    24c0:	00000156 	andeq	r0, r0, r6, asr r1
    24c4:	32007708 	andcc	r7, r0, #8, 14	; 0x200000
    24c8:	1aff081a 	bne	fffc4538 <__bss_end__+0xfffba5e8>
    24cc:	014b1b9f 			; <UNDEFINED> instruction: 0x014b1b9f
    24d0:	56010000 	strpl	r0, [r1], -r0
    24d4:	00011119 	andeq	r1, r1, r9, lsl r1
    24d8:	008fb800 	addeq	fp, pc, r0, lsl #16
    24dc:	00001000 	andeq	r1, r0, r0
    24e0:	671a0200 	ldrvs	r0, [sl, -r0, lsl #4]
    24e4:	1a000003 	bne	24f8 <_start-0x5b08>
    24e8:	00000128 	andeq	r0, r0, r8, lsr #2
    24ec:	0000195c 	andeq	r1, r0, ip, asr r9
    24f0:	00011d1b 	andeq	r1, r1, fp, lsl sp
    24f4:	1d540100 	ldfnee	f0, [r4, #-0]
    24f8:	00008fb8 			; <UNDEFINED> instruction: 0x00008fb8
    24fc:	00000004 	andeq	r0, r0, r4
    2500:	0001321e 	andeq	r3, r1, lr, lsl r2
    2504:	00198100 	andseq	r8, r9, r0, lsl #2
    2508:	1f000000 	svcne	0x00000000
    250c:	00008fb8 			; <UNDEFINED> instruction: 0x00008fb8
    2510:	00001159 	andeq	r1, r0, r9, asr r1
    2514:	04510120 	ldrbeq	r0, [r1], #-288	; 0x120
    2518:	1a320077 	bne	c826fc <__bss_end__+0xc787ac>
    251c:	02500120 	subseq	r0, r0, #32, 2
    2520:	00000076 	andeq	r0, r0, r6, ror r0
    2524:	00013f19 	andeq	r3, r1, r9, lsl pc
    2528:	008fcc00 	addeq	ip, pc, r0, lsl #24
    252c:	00001c00 	andeq	r1, r0, r0, lsl #24
    2530:	08170100 	ldmdaeq	r7, {r8}
    2534:	1a000004 	bne	254c <_start-0x5ab4>
    2538:	0000016a 	andeq	r0, r0, sl, ror #2
    253c:	00001994 	muleq	r0, r4, r9
    2540:	00015f1b 	andeq	r5, r1, fp, lsl pc
    2544:	1b540100 	blne	150294c <__bss_end__+0x14f89fc>
    2548:	00000156 	andeq	r0, r0, r6, asr r1
    254c:	34007708 	strcc	r7, [r0], #-1800	; 0x708
    2550:	1aff081a 	bne	fffc45c0 <__bss_end__+0xfffba670>
    2554:	014b1b9f 			; <UNDEFINED> instruction: 0x014b1b9f
    2558:	56010000 	strpl	r0, [r1], -r0
    255c:	00011119 	andeq	r1, r1, r9, lsl r1
    2560:	008fd800 	addeq	sp, pc, r0, lsl #16
    2564:	00001000 	andeq	r1, r0, r0
    2568:	ef1a0200 	svc	0x001a0200
    256c:	1a000003 	bne	2580 <_start-0x5a80>
    2570:	00000128 	andeq	r0, r0, r8, lsr #2
    2574:	000019b6 			; <UNDEFINED> instruction: 0x000019b6
    2578:	00011d1b 	andeq	r1, r1, fp, lsl sp
    257c:	1d540100 	ldfnee	f0, [r4, #-0]
    2580:	00008fd8 	ldrdeq	r8, [r0], -r8	; <UNPREDICTABLE>
    2584:	00000004 	andeq	r0, r0, r4
    2588:	0001321e 	andeq	r3, r1, lr, lsl r2
    258c:	0019d800 	andseq	sp, r9, r0, lsl #16
    2590:	1f000000 	svcne	0x00000000
    2594:	00008fd8 	ldrdeq	r8, [r0], -r8	; <UNPREDICTABLE>
    2598:	00001159 	andeq	r1, r0, r9, asr r1
    259c:	04510120 	ldrbeq	r0, [r1], #-288	; 0x120
    25a0:	1a340077 	bne	d02784 <__bss_end__+0xcf8834>
    25a4:	02500120 	subseq	r0, r0, #32, 2
    25a8:	00000076 	andeq	r0, r0, r6, ror r0
    25ac:	00013f19 	andeq	r3, r1, r9, lsl pc
    25b0:	008fec00 	addeq	lr, pc, r0, lsl #24
    25b4:	00001c00 	andeq	r1, r0, r0, lsl #24
    25b8:	90190100 	andsls	r0, r9, r0, lsl #2
    25bc:	1a000004 	bne	25d4 <_start-0x5a2c>
    25c0:	0000016a 	andeq	r0, r0, sl, ror #2
    25c4:	000019eb 	andeq	r1, r0, fp, ror #19
    25c8:	00015f1b 	andeq	r5, r1, fp, lsl pc
    25cc:	1b540100 	blne	15029d4 <__bss_end__+0x14f8a84>
    25d0:	00000156 	andeq	r0, r0, r6, asr r1
    25d4:	38007708 	stmdacc	r0, {r3, r8, r9, sl, ip, sp, lr}
    25d8:	1aff081a 	bne	fffc4648 <__bss_end__+0xfffba6f8>
    25dc:	014b1b9f 			; <UNDEFINED> instruction: 0x014b1b9f
    25e0:	56010000 	strpl	r0, [r1], -r0
    25e4:	00011119 	andeq	r1, r1, r9, lsl r1
    25e8:	008ff800 	addeq	pc, pc, r0, lsl #16
    25ec:	00001000 	andeq	r1, r0, r0
    25f0:	771a0200 	ldrvc	r0, [sl, -r0, lsl #4]
    25f4:	1a000004 	bne	260c <_start-0x59f4>
    25f8:	00000128 	andeq	r0, r0, r8, lsr #2
    25fc:	00001a10 	andeq	r1, r0, r0, lsl sl
    2600:	00011d1b 	andeq	r1, r1, fp, lsl sp
    2604:	1d540100 	ldfnee	f0, [r4, #-0]
    2608:	00008ff8 	strdeq	r8, [r0], -r8	; <UNPREDICTABLE>
    260c:	00000004 	andeq	r0, r0, r4
    2610:	0001321e 	andeq	r3, r1, lr, lsl r2
    2614:	001a3500 	andseq	r3, sl, r0, lsl #10
    2618:	1f000000 	svcne	0x00000000
    261c:	00008ff8 	strdeq	r8, [r0], -r8	; <UNPREDICTABLE>
    2620:	00001159 	andeq	r1, r0, r9, asr r1
    2624:	04510120 	ldrbeq	r0, [r1], #-288	; 0x120
    2628:	1a380077 	bne	e0280c <__bss_end__+0xdf88bc>
    262c:	02500120 	subseq	r0, r0, #32, 2
    2630:	00000076 	andeq	r0, r0, r6, ror r0
    2634:	00013f19 	andeq	r3, r1, r9, lsl pc
    2638:	00900c00 	addseq	r0, r0, r0, lsl #24
    263c:	00001c00 	andeq	r1, r0, r0, lsl #24
    2640:	181b0100 	ldmdane	fp, {r8}
    2644:	1a000005 	bne	2660 <_start-0x59a0>
    2648:	0000016a 	andeq	r0, r0, sl, ror #2
    264c:	00001a48 	andeq	r1, r0, r8, asr #20
    2650:	00015f1b 	andeq	r5, r1, fp, lsl pc
    2654:	1b540100 	blne	1502a5c <__bss_end__+0x14f8b0c>
    2658:	00000156 	andeq	r0, r0, r6, asr r1
    265c:	40007708 	andmi	r7, r0, r8, lsl #14
    2660:	1aff081a 	bne	fffc46d0 <__bss_end__+0xfffba780>
    2664:	014b1b9f 			; <UNDEFINED> instruction: 0x014b1b9f
    2668:	56010000 	strpl	r0, [r1], -r0
    266c:	00011119 	andeq	r1, r1, r9, lsl r1
    2670:	00901800 	addseq	r1, r0, r0, lsl #16
    2674:	00001000 	andeq	r1, r0, r0
    2678:	ff1a0200 			; <UNDEFINED> instruction: 0xff1a0200
    267c:	1a000004 	bne	2694 <_start-0x596c>
    2680:	00000128 	andeq	r0, r0, r8, lsr #2
    2684:	00001a6f 	andeq	r1, r0, pc, ror #20
    2688:	00011d1b 	andeq	r1, r1, fp, lsl sp
    268c:	1d540100 	ldfnee	f0, [r4, #-0]
    2690:	00009018 	andeq	r9, r0, r8, lsl r0
    2694:	00000004 	andeq	r0, r0, r4
    2698:	0001321e 	andeq	r3, r1, lr, lsl r2
    269c:	001a9600 	andseq	r9, sl, r0, lsl #12
    26a0:	1f000000 	svcne	0x00000000
    26a4:	00009018 	andeq	r9, r0, r8, lsl r0
    26a8:	00001159 	andeq	r1, r0, r9, asr r1
    26ac:	04510120 	ldrbeq	r0, [r1], #-288	; 0x120
    26b0:	1a400077 	bne	1002894 <__bss_end__+0xff8944>
    26b4:	02500120 	subseq	r0, r0, #32, 2
    26b8:	00000076 	andeq	r0, r0, r6, ror r0
    26bc:	00013f19 	andeq	r3, r1, r9, lsl pc
    26c0:	00902c00 	addseq	r2, r0, r0, lsl #24
    26c4:	00001c00 	andeq	r1, r0, r0, lsl #24
    26c8:	a21d0100 	andsge	r0, sp, #0, 2
    26cc:	1a000005 	bne	26e8 <_start-0x5918>
    26d0:	0000016a 	andeq	r0, r0, sl, ror #2
    26d4:	00001aa9 	andeq	r1, r0, r9, lsr #21
    26d8:	00015f1b 	andeq	r5, r1, fp, lsl pc
    26dc:	1b540100 	blne	1502ae4 <__bss_end__+0x14f8b94>
    26e0:	00000156 	andeq	r0, r0, r6, asr r1
    26e4:	08007709 	stmdaeq	r0, {r0, r3, r8, r9, sl, ip, sp, lr}
    26e8:	ff081a20 			; <UNDEFINED> instruction: 0xff081a20
    26ec:	4b1b9f1a 	blmi	6ea35c <__bss_end__+0x6e040c>
    26f0:	01000001 	tsteq	r0, r1
    26f4:	01111956 	tsteq	r1, r6, asr r9
    26f8:	90380000 	eorsls	r0, r8, r0
    26fc:	00100000 	andseq	r0, r0, r0
    2700:	1a020000 	bne	82708 <__bss_end__+0x787b8>
    2704:	00000588 	andeq	r0, r0, r8, lsl #11
    2708:	0001281a 	andeq	r2, r1, sl, lsl r8
    270c:	001ad300 	andseq	sp, sl, r0, lsl #6
    2710:	011d1b00 	tsteq	sp, r0, lsl #22
    2714:	54010000 	strpl	r0, [r1], #-0
    2718:	0090381d 	addseq	r3, r0, sp, lsl r8
    271c:	00000400 	andeq	r0, r0, r0, lsl #8
    2720:	01321e00 	teqeq	r2, r0, lsl #28
    2724:	1afd0000 	bne	fff4272c <__bss_end__+0xfff387dc>
    2728:	00000000 	andeq	r0, r0, r0
    272c:	0090381f 	addseq	r3, r0, pc, lsl r8
    2730:	00115900 	andseq	r5, r1, r0, lsl #18
    2734:	51012000 	mrspl	r2, (UNDEF: 1)
    2738:	08007705 	stmdaeq	r0, {r0, r2, r8, r9, sl, ip, sp, lr}
    273c:	01201a20 	teqeq	r0, r0, lsr #20
    2740:	00760250 	rsbseq	r0, r6, r0, asr r2
    2744:	3f190000 	svccc	0x00190000
    2748:	4c000001 	stcmi	0, cr0, [r0], {1}
    274c:	1c000090 	stcne	0, cr0, [r0], {144}	; 0x90
    2750:	01000000 	mrseq	r0, (UNDEF: 0)
    2754:	00062c1f 	andeq	r2, r6, pc, lsl ip
    2758:	016a1a00 	cmneq	sl, r0, lsl #20
    275c:	1b100000 	blne	402764 <__bss_end__+0x3f8814>
    2760:	5f1b0000 	svcpl	0x001b0000
    2764:	01000001 	tsteq	r0, r1
    2768:	01561b54 	cmpeq	r6, r4, asr fp
    276c:	77090000 	strvc	r0, [r9, -r0]
    2770:	1a400800 	bne	1004778 <__bss_end__+0xffa828>
    2774:	9f1aff08 	svcls	0x001aff08
    2778:	00014b1b 	andeq	r4, r1, fp, lsl fp
    277c:	19560100 	ldmdbne	r6, {r8}^
    2780:	00000111 	andeq	r0, r0, r1, lsl r1
    2784:	00009058 	andeq	r9, r0, r8, asr r0
    2788:	00000010 	andeq	r0, r0, r0, lsl r0
    278c:	06121a02 	ldreq	r1, [r2], -r2, lsl #20
    2790:	281a0000 	ldmdacs	sl, {}	; <UNPREDICTABLE>
    2794:	32000001 	andcc	r0, r0, #1
    2798:	1b00001b 	blne	280c <_start-0x57f4>
    279c:	0000011d 	andeq	r0, r0, sp, lsl r1
    27a0:	581d5401 	ldmdapl	sp, {r0, sl, ip, lr}
    27a4:	04000090 	streq	r0, [r0], #-144	; 0x90
    27a8:	1e000000 	cdpne	0, 0, cr0, cr0, cr0, {0}
    27ac:	00000132 	andeq	r0, r0, r2, lsr r1
    27b0:	00001b54 	andeq	r1, r0, r4, asr fp
    27b4:	581f0000 	ldmdapl	pc, {}	; <UNPREDICTABLE>
    27b8:	59000090 	stmdbpl	r0, {r4, r7}
    27bc:	20000011 	andcs	r0, r0, r1, lsl r0
    27c0:	77055101 	strvc	r5, [r5, -r1, lsl #2]
    27c4:	1a400800 	bne	10047cc <__bss_end__+0xffa87c>
    27c8:	02500120 	subseq	r0, r0, #32, 2
    27cc:	00000076 	andeq	r0, r0, r6, ror r0
    27d0:	00013f19 	andeq	r3, r1, r9, lsl pc
    27d4:	00906c00 	addseq	r6, r0, r0, lsl #24
    27d8:	00001c00 	andeq	r1, r0, r0, lsl #24
    27dc:	ac210100 	stfges	f0, [r1], #-0
    27e0:	1b000006 	blne	2800 <_start-0x5800>
    27e4:	0000016a 	andeq	r0, r0, sl, ror #2
    27e8:	5f1b5801 	svcpl	0x001b5801
    27ec:	01000001 	tsteq	r0, r1
    27f0:	01561a54 	cmpeq	r6, r4, asr sl
    27f4:	1b670000 	blne	19c27fc <__bss_end__+0x19b88ac>
    27f8:	4b1b0000 	blmi	6c2800 <__bss_end__+0x6b88b0>
    27fc:	01000001 	tsteq	r0, r1
    2800:	01111956 	tsteq	r1, r6, asr r9
    2804:	90780000 	rsbsls	r0, r8, r0
    2808:	00100000 	andseq	r0, r0, r0
    280c:	1a020000 	bne	82814 <__bss_end__+0x788c4>
    2810:	00000692 	muleq	r0, r2, r6
    2814:	0001281b 	andeq	r2, r1, fp, lsl r8
    2818:	1b580100 	blne	1602c20 <__bss_end__+0x15f8cd0>
    281c:	0000011d 	andeq	r0, r0, sp, lsl r1
    2820:	781d5401 	ldmdavc	sp, {r0, sl, ip, lr}
    2824:	04000090 	streq	r0, [r0], #-144	; 0x90
    2828:	1e000000 	cdpne	0, 0, cr0, cr0, cr0, {0}
    282c:	00000132 	andeq	r0, r0, r2, lsr r1
    2830:	00001b9a 	muleq	r0, sl, fp
    2834:	781f0000 	ldmdavc	pc, {}	; <UNPREDICTABLE>
    2838:	59000090 	stmdbpl	r0, {r4, r7}
    283c:	20000011 	andcs	r0, r0, r1, lsl r0
    2840:	77055101 	strvc	r5, [r5, -r1, lsl #2]
    2844:	1a800800 	bne	fe00484c <__bss_end__+0xfdffa8fc>
    2848:	02500120 	subseq	r0, r0, #32, 2
    284c:	00000076 	andeq	r0, r0, r6, ror r0
    2850:	00013f21 	andeq	r3, r1, r1, lsr #30
    2854:	00908c00 	addseq	r8, r0, r0, lsl #24
    2858:	00001c00 	andeq	r1, r0, r0, lsl #24
    285c:	1b230100 	blne	8c2c64 <__bss_end__+0x8b8d14>
    2860:	0000016a 	andeq	r0, r0, sl, ror #2
    2864:	5f1b5501 	svcpl	0x001b5501
    2868:	01000001 	tsteq	r0, r1
    286c:	01561c54 	cmpeq	r6, r4, asr ip
    2870:	1b010000 	blne	42878 <__bss_end__+0x38928>
    2874:	0000014b 	andeq	r0, r0, fp, asr #2
    2878:	11195601 	tstne	r9, r1, lsl #12
    287c:	98000001 	stmdals	r0, {r0}
    2880:	10000090 	mulne	r0, r0, r0
    2884:	02000000 	andeq	r0, r0, #0
    2888:	00070b1a 	andeq	r0, r7, sl, lsl fp
    288c:	01281b00 	teqeq	r8, r0, lsl #22
    2890:	55010000 	strpl	r0, [r1, #-0]
    2894:	00011d1b 	andeq	r1, r1, fp, lsl sp
    2898:	1d540100 	ldfnee	f0, [r4, #-0]
    289c:	00009098 	muleq	r0, r8, r0
    28a0:	00000004 	andeq	r0, r0, r4
    28a4:	0001321e 	andeq	r3, r1, lr, lsl r2
    28a8:	001bad00 	andseq	sl, fp, r0, lsl #26
    28ac:	1f000000 	svcne	0x00000000
    28b0:	00009098 	muleq	r0, r8, r0
    28b4:	00001159 	andeq	r1, r0, r9, asr r1
    28b8:	01510120 	cmpeq	r1, r0, lsr #2
    28bc:	50012031 	andpl	r2, r1, r1, lsr r0
    28c0:	00007602 	andeq	r7, r0, r2, lsl #12
    28c4:	04060000 	streq	r0, [r6], #-0
    28c8:	000000d9 	ldrdeq	r0, [r0], -r9
    28cc:	00091a22 	andeq	r1, r9, r2, lsr #20
    28d0:	25270100 	strcs	r0, [r7, #-256]!	; 0x100
    28d4:	03000000 	movweq	r0, #0
    28d8:	00000762 	andeq	r0, r0, r2, ror #14
    28dc:	0078720f 	rsbseq	r7, r8, pc, lsl #4
    28e0:	00252701 	eoreq	r2, r5, r1, lsl #14
    28e4:	760f0000 	strvc	r0, [pc], -r0
    28e8:	25270100 	strcs	r0, [r7, #-256]!	; 0x100
    28ec:	0e000000 	cdpeq	0, 0, cr0, cr0, cr0, {0}
    28f0:	000008a7 	andeq	r0, r0, r7, lsr #17
    28f4:	002c2701 	eoreq	r2, ip, r1, lsl #14
    28f8:	fa110000 	blx	442900 <__bss_end__+0x4389b0>
    28fc:	01000004 	tsteq	r0, r4
    2900:	00002c28 	andeq	r2, r0, r8, lsr #24
    2904:	48230000 	stmdami	r3!, {}	; <UNPREDICTABLE>
    2908:	01000008 	tsteq	r0, r8
    290c:	00002534 	andeq	r2, r0, r4, lsr r5
    2910:	0090ac00 	addseq	sl, r0, r0, lsl #24
    2914:	0001c800 	andeq	ip, r1, r0, lsl #16
    2918:	1e9c0100 	fmlnee	f0, f4, f0
    291c:	1300000b 	movwne	r0, #11
    2920:	000004ad 	andeq	r0, r0, sp, lsr #9
    2924:	07223401 	streq	r3, [r2, -r1, lsl #8]!
    2928:	1bc00000 	blne	ff002930 <__bss_end__+0xfeff89e0>
    292c:	a7130000 	ldrge	r0, [r3, -r0]
    2930:	01000008 	tsteq	r0, r8
    2934:	00002534 	andeq	r2, r0, r4, lsr r5
    2938:	001c0500 	andseq	r0, ip, r0, lsl #10
    293c:	78721500 	ldmdavc	r2!, {r8, sl, ip}^
    2940:	25350100 	ldrcs	r0, [r5, #-256]!	; 0x100
    2944:	01000000 	mrseq	r0, (UNDEF: 0)
    2948:	00731655 	rsbseq	r1, r3, r5, asr r6
    294c:	002c3c01 	eoreq	r3, ip, r1, lsl #24
    2950:	1c230000 	stcne	0, cr0, [r3], #-0
    2954:	75160000 	ldrvc	r0, [r6, #-0]
    2958:	683f0100 	ldmdavs	pc!, {r8}	; <UNPREDICTABLE>
    295c:	36000000 	strcc	r0, [r0], -r0
    2960:	1600001c 			; <UNDEFINED> instruction: 0x1600001c
    2964:	4001006e 	andmi	r0, r1, lr, rrx
    2968:	0000002c 	andeq	r0, r0, ip, lsr #32
    296c:	00001c49 	andeq	r1, r0, r9, asr #24
    2970:	01006316 	tsteq	r0, r6, lsl r3
    2974:	00002c41 	andeq	r2, r0, r1, asr #24
    2978:	001c6000 	andseq	r6, ip, r0
    297c:	07281900 	streq	r1, [r8, -r0, lsl #18]!
    2980:	90c00000 	sbcls	r0, r0, r0
    2984:	00340000 	eorseq	r0, r4, r0
    2988:	38010000 	stmdacc	r1, {}	; <UNPREDICTABLE>
    298c:	0000083c 	andeq	r0, r0, ip, lsr r8
    2990:	00074b1a 	andeq	r4, r7, sl, lsl fp
    2994:	001c8a00 	andseq	r8, ip, r0, lsl #20
    2998:	07421c00 	strbeq	r1, [r2, -r0, lsl #24]
    299c:	1b000000 	blne	29a4 <_start-0x565c>
    29a0:	00000738 	andeq	r0, r0, r8, lsr r7
    29a4:	c01d5501 	andsgt	r5, sp, r1, lsl #10
    29a8:	34000090 	strcc	r0, [r0], #-144	; 0x90
    29ac:	1e000000 	cdpne	0, 0, cr0, cr0, cr0, {0}
    29b0:	00000756 	andeq	r0, r0, r6, asr r7
    29b4:	00001ca8 	andeq	r1, r0, r8, lsr #25
    29b8:	0090c424 	addseq	ip, r0, r4, lsr #8
    29bc:	00116f00 	andseq	r6, r1, r0, lsl #30
    29c0:	90d02500 	sbcsls	r2, r0, r0, lsl #10
    29c4:	117a0000 	cmnne	sl, r0
    29c8:	08310000 	ldmdaeq	r1!, {}	; <UNPREDICTABLE>
    29cc:	01200000 	teqeq	r0, r0
    29d0:	00750250 	rsbseq	r0, r5, r0, asr r2
    29d4:	90dc2400 	sbcsls	r2, ip, r0, lsl #8
    29d8:	116f0000 	cmnne	pc, r0
    29dc:	00000000 	andeq	r0, r0, r0
    29e0:	0090fc17 	addseq	pc, r0, r7, lsl ip	; <UNPREDICTABLE>
    29e4:	00000400 	andeq	r0, r0, r0, lsl #8
    29e8:	00085900 	andeq	r5, r8, r0, lsl #18
    29ec:	01772600 	cmneq	r7, r0, lsl #12
    29f0:	3c010000 	stccc	0, cr0, [r1], {-0}
    29f4:	0000002c 	andeq	r0, r0, ip, lsr #32
    29f8:	00001cc6 	andeq	r1, r0, r6, asr #25
    29fc:	01111900 	tsteq	r1, r0, lsl #18
    2a00:	91080000 	mrsls	r0, (UNDEF: 8)
    2a04:	00100000 	andseq	r0, r0, r0
    2a08:	44010000 	strmi	r0, [r1], #-0
    2a0c:	00000892 	muleq	r0, r2, r8
    2a10:	0001281a 	andeq	r2, r1, sl, lsl r8
    2a14:	001cd900 	andseq	sp, ip, r0, lsl #18
    2a18:	011d1a00 	tsteq	sp, r0, lsl #20
    2a1c:	1cfe0000 	ldclne	0, cr0, [lr]
    2a20:	081d0000 	ldmdaeq	sp, {}	; <UNPREDICTABLE>
    2a24:	04000091 	streq	r0, [r0], #-145	; 0x91
    2a28:	1e000000 	cdpne	0, 0, cr0, cr0, cr0, {0}
    2a2c:	00000132 	andeq	r0, r0, r2, lsr r1
    2a30:	00001d11 	andeq	r1, r0, r1, lsl sp
    2a34:	11190000 	tstne	r9, r0
    2a38:	28000001 	stmdacs	r0, {r0}
    2a3c:	10000091 	mulne	r0, r1, r0
    2a40:	01000000 	mrseq	r0, (UNDEF: 0)
    2a44:	0008cb48 	andeq	ip, r8, r8, asr #22
    2a48:	01281a00 	teqeq	r8, r0, lsl #20
    2a4c:	1d240000 	stcne	0, cr0, [r4, #-0]
    2a50:	1d1a0000 	ldcne	0, cr0, [sl, #-0]
    2a54:	37000001 	strcc	r0, [r0, -r1]
    2a58:	1d00001d 	stcne	0, cr0, [r0, #-116]	; 0xffffff8c
    2a5c:	00009128 	andeq	r9, r0, r8, lsr #2
    2a60:	00000004 	andeq	r0, r0, r4
    2a64:	0001321e 	andeq	r3, r1, lr, lsl r2
    2a68:	001d4a00 	andseq	r4, sp, r0, lsl #20
    2a6c:	19000000 	stmdbne	r0, {}	; <UNPREDICTABLE>
    2a70:	00000111 	andeq	r0, r0, r1, lsl r1
    2a74:	0000914c 	andeq	r9, r0, ip, asr #2
    2a78:	00000010 	andeq	r0, r0, r0, lsl r0
    2a7c:	09044b01 	stmdbeq	r4, {r0, r8, r9, fp, lr}
    2a80:	281a0000 	ldmdacs	sl, {}	; <UNPREDICTABLE>
    2a84:	5d000001 	stcpl	0, cr0, [r0, #-4]
    2a88:	1a00001d 	bne	2b04 <_start-0x54fc>
    2a8c:	0000011d 	andeq	r0, r0, sp, lsl r1
    2a90:	00001d70 	andeq	r1, r0, r0, ror sp
    2a94:	00914c1d 	addseq	r4, r1, sp, lsl ip
    2a98:	00000400 	andeq	r0, r0, r0, lsl #8
    2a9c:	01321e00 	teqeq	r2, r0, lsl #28
    2aa0:	1d830000 	stcne	0, cr0, [r3]
    2aa4:	00000000 	andeq	r0, r0, r0
    2aa8:	00011119 	andeq	r1, r1, r9, lsl r1
    2aac:	00917000 	addseq	r7, r1, r0
    2ab0:	00001000 	andeq	r1, r0, r0
    2ab4:	3d4e0100 	stfcce	f0, [lr, #-0]
    2ab8:	1a000009 	bne	2ae4 <_start-0x551c>
    2abc:	00000128 	andeq	r0, r0, r8, lsr #2
    2ac0:	00001d96 	muleq	r0, r6, sp
    2ac4:	00011d1a 	andeq	r1, r1, sl, lsl sp
    2ac8:	001da900 	andseq	sl, sp, r0, lsl #18
    2acc:	91701d00 	cmnls	r0, r0, lsl #26
    2ad0:	00040000 	andeq	r0, r4, r0
    2ad4:	321e0000 	andscc	r0, lr, #0
    2ad8:	bc000001 	stclt	0, cr0, [r0], {1}
    2adc:	0000001d 	andeq	r0, r0, sp, lsl r0
    2ae0:	01111900 	tsteq	r1, r0, lsl #18
    2ae4:	91940000 	orrsls	r0, r4, r0
    2ae8:	00100000 	andseq	r0, r0, r0
    2aec:	51010000 	mrspl	r0, (UNDEF: 1)
    2af0:	00000976 	andeq	r0, r0, r6, ror r9
    2af4:	0001281a 	andeq	r2, r1, sl, lsl r8
    2af8:	001dcf00 	andseq	ip, sp, r0, lsl #30
    2afc:	011d1a00 	tsteq	sp, r0, lsl #20
    2b00:	1de20000 	stclne	0, cr0, [r2]
    2b04:	941d0000 	ldrls	r0, [sp], #-0
    2b08:	04000091 	streq	r0, [r0], #-145	; 0x91
    2b0c:	1e000000 	cdpne	0, 0, cr0, cr0, cr0, {0}
    2b10:	00000132 	andeq	r0, r0, r2, lsr r1
    2b14:	00001df5 	strdeq	r1, [r0], -r5
    2b18:	11190000 	tstne	r9, r0
    2b1c:	b8000001 	stmdalt	r0, {r0}
    2b20:	10000091 	mulne	r0, r1, r0
    2b24:	01000000 	mrseq	r0, (UNDEF: 0)
    2b28:	0009af54 	andeq	sl, r9, r4, asr pc
    2b2c:	01281a00 	teqeq	r8, r0, lsl #20
    2b30:	1e080000 	cdpne	0, 0, cr0, cr8, cr0, {0}
    2b34:	1d1a0000 	ldcne	0, cr0, [sl, #-0]
    2b38:	1b000001 	blne	2b44 <_start-0x54bc>
    2b3c:	1d00001e 	stcne	0, cr0, [r0, #-120]	; 0xffffff88
    2b40:	000091b8 			; <UNDEFINED> instruction: 0x000091b8
    2b44:	00000004 	andeq	r0, r0, r4
    2b48:	0001321e 	andeq	r3, r1, lr, lsl r2
    2b4c:	001e2e00 	andseq	r2, lr, r0, lsl #28
    2b50:	19000000 	stmdbne	r0, {}	; <UNPREDICTABLE>
    2b54:	00000111 	andeq	r0, r0, r1, lsl r1
    2b58:	000091dc 	ldrdeq	r9, [r0], -ip
    2b5c:	00000010 	andeq	r0, r0, r0, lsl r0
    2b60:	09e85701 	stmibeq	r8!, {r0, r8, r9, sl, ip, lr}^
    2b64:	281a0000 	ldmdacs	sl, {}	; <UNPREDICTABLE>
    2b68:	41000001 	tstmi	r0, r1
    2b6c:	1a00001e 	bne	2bec <_start-0x5414>
    2b70:	0000011d 	andeq	r0, r0, sp, lsl r1
    2b74:	00001e54 	andeq	r1, r0, r4, asr lr
    2b78:	0091dc1d 	addseq	sp, r1, sp, lsl ip
    2b7c:	00000400 	andeq	r0, r0, r0, lsl #8
    2b80:	01321e00 	teqeq	r2, r0, lsl #28
    2b84:	1e670000 	cdpne	0, 6, cr0, cr7, cr0, {0}
    2b88:	00000000 	andeq	r0, r0, r0
    2b8c:	00011119 	andeq	r1, r1, r9, lsl r1
    2b90:	00920000 	addseq	r0, r2, r0
    2b94:	00001000 	andeq	r1, r0, r0
    2b98:	1d5a0100 	ldfnee	f0, [sl, #-0]
    2b9c:	1a00000a 	bne	2bcc <_start-0x5434>
    2ba0:	00000128 	andeq	r0, r0, r8, lsr #2
    2ba4:	00001e7a 	andeq	r1, r0, sl, ror lr
    2ba8:	00011d27 	andeq	r1, r1, r7, lsr #26
    2bac:	92001d00 	andls	r1, r0, #0, 26
    2bb0:	00040000 	andeq	r0, r4, r0
    2bb4:	321e0000 	andscc	r0, lr, #0
    2bb8:	8d000001 	stchi	0, cr0, [r0, #-4]
    2bbc:	0000001e 	andeq	r0, r0, lr, lsl r0
    2bc0:	07281900 	streq	r1, [r8, -r0, lsl #18]!
    2bc4:	92200000 	eorls	r0, r0, #0
    2bc8:	00340000 	eorseq	r0, r4, r0
    2bcc:	61010000 	mrsvs	r0, (UNDEF: 1)
    2bd0:	00000a81 	andeq	r0, r0, r1, lsl #21
    2bd4:	00074b27 	andeq	r4, r7, r7, lsr #22
    2bd8:	07421a00 	strbeq	r1, [r2, -r0, lsl #20]
    2bdc:	1ea00000 	cdpne	0, 10, cr0, cr0, cr0, {0}
    2be0:	381a0000 	ldmdacc	sl, {}	; <UNPREDICTABLE>
    2be4:	c0000007 	andgt	r0, r0, r7
    2be8:	1d00001e 	stcne	0, cr0, [r0, #-120]	; 0xffffff88
    2bec:	00009220 	andeq	r9, r0, r0, lsr #4
    2bf0:	00000034 	andeq	r0, r0, r4, lsr r0
    2bf4:	0007561e 	andeq	r5, r7, lr, lsl r6
    2bf8:	001ede00 	andseq	sp, lr, r0, lsl #28
    2bfc:	92242400 	eorls	r2, r4, #0, 8
    2c00:	116f0000 	cmnne	pc, r0
    2c04:	30250000 	eorcc	r0, r5, r0
    2c08:	7a000092 	bvc	2e58 <_start-0x51a8>
    2c0c:	76000011 			; <UNDEFINED> instruction: 0x76000011
    2c10:	2000000a 	andcs	r0, r0, sl
    2c14:	75025001 	strvc	r5, [r2, #-1]
    2c18:	3c240000 	stccc	0, cr0, [r4], #-0
    2c1c:	6f000092 	svcvs	0x00000092
    2c20:	00000011 	andeq	r0, r0, r1, lsl r0
    2c24:	91242500 	teqls	r4, r0, lsl #10
    2c28:	117a0000 	cmnne	sl, r0
    2c2c:	0a950000 	beq	fe542c34 <__bss_end__+0xfe538ce4>
    2c30:	01200000 	teqeq	r0, r0
    2c34:	00750250 	rsbseq	r0, r5, r0, asr r2
    2c38:	91442500 	cmpls	r4, r0, lsl #10
    2c3c:	117a0000 	cmnne	sl, r0
    2c40:	0aa90000 	beq	fea42c48 <__bss_end__+0xfea38cf8>
    2c44:	01200000 	teqeq	r0, r0
    2c48:	00750250 	rsbseq	r0, r5, r0, asr r2
    2c4c:	91682500 	cmnls	r8, r0, lsl #10
    2c50:	117a0000 	cmnne	sl, r0
    2c54:	0abd0000 	beq	fef42c5c <__bss_end__+0xfef38d0c>
    2c58:	01200000 	teqeq	r0, r0
    2c5c:	00750250 	rsbseq	r0, r5, r0, asr r2
    2c60:	918c2500 	orrls	r2, ip, r0, lsl #10
    2c64:	117a0000 	cmnne	sl, r0
    2c68:	0ad10000 	beq	ff442c70 <__bss_end__+0xff438d20>
    2c6c:	01200000 	teqeq	r0, r0
    2c70:	00750250 	rsbseq	r0, r5, r0, asr r2
    2c74:	91b02500 	lslsls	r2, r0, #10
    2c78:	117a0000 	cmnne	sl, r0
    2c7c:	0ae50000 	beq	ff942c84 <__bss_end__+0xff938d34>
    2c80:	01200000 	teqeq	r0, r0
    2c84:	00750250 	rsbseq	r0, r5, r0, asr r2
    2c88:	91d42500 	bicsls	r2, r4, r0, lsl #10
    2c8c:	117a0000 	cmnne	sl, r0
    2c90:	0af90000 	beq	ffe42c98 <__bss_end__+0xffe38d48>
    2c94:	01200000 	teqeq	r0, r0
    2c98:	00750250 	rsbseq	r0, r5, r0, asr r2
    2c9c:	91f82500 	mvnsls	r2, r0, lsl #10
    2ca0:	117a0000 	cmnne	sl, r0
    2ca4:	0b0d0000 	bleq	342cac <__bss_end__+0x338d5c>
    2ca8:	01200000 	teqeq	r0, r0
    2cac:	00750250 	rsbseq	r0, r5, r0, asr r2
    2cb0:	92181f00 	andsls	r1, r8, #0, 30
    2cb4:	117a0000 	cmnne	sl, r0
    2cb8:	01200000 	teqeq	r0, r0
    2cbc:	00750250 	rsbseq	r0, r5, r0, asr r2
    2cc0:	5d230000 	stcpl	0, cr0, [r3, #-0]
    2cc4:	01000008 	tsteq	r0, r8
    2cc8:	0000256c 	andeq	r2, r0, ip, ror #10
    2ccc:	00927400 	addseq	r7, r2, r0, lsl #8
    2cd0:	0000a400 	andeq	sl, r0, r0, lsl #8
    2cd4:	0c9c0100 	ldfeqs	f0, [ip], {0}
    2cd8:	1400000c 	strne	r0, [r0], #-12
    2cdc:	6c010075 	stcvs	0, cr0, [r1], {117}	; 0x75
    2ce0:	00000722 	andeq	r0, r0, r2, lsr #14
    2ce4:	00001efc 	strdeq	r1, [r0], -ip
    2ce8:	66756214 			; <UNDEFINED> instruction: 0x66756214
    2cec:	0c6c0100 	stfeqe	f0, [ip], #-0
    2cf0:	3e00000c 	cdpcc	0, 0, cr0, cr0, cr12, {0}
    2cf4:	1300001f 	movwne	r0, #31
    2cf8:	000008ef 	andeq	r0, r0, pc, ror #17
    2cfc:	00686c01 	rsbeq	r6, r8, r1, lsl #24
    2d00:	1f800000 	svcne	0x00800000
    2d04:	65140000 	ldrvs	r0, [r4, #-0]
    2d08:	0100646e 	tsteq	r0, lr, ror #8
    2d0c:	00004f6c 	andeq	r4, r0, ip, ror #30
    2d10:	001fc700 	andseq	ip, pc, r0, lsl #14
    2d14:	08f62800 	ldmeq	r6!, {fp, sp}^
    2d18:	6c010000 	stcvs	0, cr0, [r1], {-0}
    2d1c:	00000068 	andeq	r0, r0, r8, rrx
    2d20:	29009102 	stmdbcs	r0, {r1, r8, ip, pc}
    2d24:	0000010a 	andeq	r0, r0, sl, lsl #2
    2d28:	00000c22 	andeq	r0, r0, r2, lsr #24
    2d2c:	9a2c0305 	bls	b03948 <__bss_end__+0xaf99f8>
    2d30:	69160000 	ldmdbvs	r6, {}	; <UNPREDICTABLE>
    2d34:	25700100 	ldrbcs	r0, [r0, #-256]!	; 0x100
    2d38:	01000000 	mrseq	r0, (UNDEF: 0)
    2d3c:	26000020 	strcs	r0, [r0], -r0, lsr #32
    2d40:	000008d2 	ldrdeq	r0, [r0], -r2
    2d44:	004f7101 	subeq	r7, pc, r1, lsl #2
    2d48:	202b0000 	eorcs	r0, fp, r0
    2d4c:	98240000 	stmdals	r4!, {}	; <UNPREDICTABLE>
    2d50:	8f000092 	svchi	0x00000092
    2d54:	25000011 	strcs	r0, [r0, #-17]
    2d58:	000092b4 			; <UNDEFINED> instruction: 0x000092b4
    2d5c:	00001196 	muleq	r0, r6, r1
    2d60:	00000bec 	andeq	r0, r0, ip, ror #23
    2d64:	02530120 	subseq	r0, r3, #32, 2
    2d68:	01206d08 	teqeq	r0, r8, lsl #26
    2d6c:	2c030552 	cfstr32cs	mvfx0, [r3], {82}	; 0x52
    2d70:	2000009a 	mulcs	r0, sl, r0
    2d74:	03055101 	movweq	r5, #20737	; 0x5101
    2d78:	00009aa4 	andeq	r9, r0, r4, lsr #21
    2d7c:	05500120 	ldrbeq	r0, [r0, #-288]	; 0x120
    2d80:	00992c03 	addseq	r2, r9, r3, lsl #24
    2d84:	7d022000 	stcvc	0, cr2, [r2, #-0]
    2d88:	b8030500 	stmdalt	r3, {r8, sl}
    2d8c:	0000009a 	muleq	r0, sl, r0
    2d90:	0092b824 	addseq	fp, r2, r4, lsr #16
    2d94:	0011ac00 	andseq	sl, r1, r0, lsl #24
    2d98:	92d41f00 	sbcsls	r1, r4, #0, 30
    2d9c:	07620000 	strbeq	r0, [r2, -r0]!
    2da0:	01200000 	teqeq	r0, r0
    2da4:	007a0251 	rsbseq	r0, sl, r1, asr r2
    2da8:	02500120 	subseq	r0, r0, #32, 2
    2dac:	00000078 	andeq	r0, r0, r8, ror r0
    2db0:	004f0406 	subeq	r0, pc, r6, lsl #8
    2db4:	902a0000 	eorls	r0, sl, r0
    2db8:	22000000 	andcs	r0, r0, #0
    2dbc:	2b00000c 	blcs	2df4 <_start-0x520c>
    2dc0:	00000081 	andeq	r0, r0, r1, lsl #1
    2dc4:	12070012 	andne	r0, r7, #18
    2dc8:	2300000c 	movwcs	r0, #12
    2dcc:	000008da 	ldrdeq	r0, [r0], -sl
    2dd0:	00258001 	eoreq	r8, r5, r1
    2dd4:	93180000 	tstls	r8, #0
    2dd8:	00900000 	addseq	r0, r0, r0
    2ddc:	9c010000 	stcls	0, cr0, [r1], {-0}
    2de0:	00000cf8 	strdeq	r0, [r0], -r8
    2de4:	01007514 	tsteq	r0, r4, lsl r5
    2de8:	00072280 	andeq	r2, r7, r0, lsl #5
    2dec:	00203e00 	eoreq	r3, r0, r0, lsl #28
    2df0:	75621400 	strbvc	r1, [r2, #-1024]!	; 0x400
    2df4:	80010066 	andhi	r0, r1, r6, rrx
    2df8:	00000c0c 	andeq	r0, r0, ip, lsl #24
    2dfc:	00002080 	andeq	r2, r0, r0, lsl #1
    2e00:	0008ef13 	andeq	lr, r8, r3, lsl pc
    2e04:	68810100 	stmvs	r1, {r8}
    2e08:	c2000000 	andgt	r0, r0, #0
    2e0c:	13000020 	movwne	r0, #32
    2e10:	000008f6 	strdeq	r0, [r0], -r6
    2e14:	00688101 	rsbeq	r8, r8, r1, lsl #2
    2e18:	21090000 	mrscs	r0, (UNDEF: 9)
    2e1c:	0a290000 	beq	a42e24 <__bss_end__+0xa38ed4>
    2e20:	08000001 	stmdaeq	r0, {r0}
    2e24:	0500000d 	streq	r0, [r0, #-13]
    2e28:	009a4003 	addseq	r4, sl, r3
    2e2c:	00691600 	rsbeq	r1, r9, r0, lsl #12
    2e30:	00258601 	eoreq	r8, r5, r1, lsl #12
    2e34:	214b0000 	mrscs	r0, (UNDEF: 75)
    2e38:	38240000 	stmdacc	r4!, {}	; <UNPREDICTABLE>
    2e3c:	8f000093 	svchi	0x00000093
    2e40:	25000011 	strcs	r0, [r0, #-17]
    2e44:	00009354 	andeq	r9, r0, r4, asr r3
    2e48:	00001196 	muleq	r0, r6, r1
    2e4c:	00000cd8 	ldrdeq	r0, [r0], -r8
    2e50:	02530120 	subseq	r0, r3, #32, 2
    2e54:	01208308 	teqeq	r0, r8, lsl #6
    2e58:	40030552 	andmi	r0, r3, r2, asr r5
    2e5c:	2000009a 	mulcs	r0, sl, r0
    2e60:	03055101 	movweq	r5, #20737	; 0x5101
    2e64:	00009aa4 	andeq	r9, r0, r4, lsr #21
    2e68:	05500120 	ldrbeq	r0, [r0, #-288]	; 0x120
    2e6c:	00992c03 	addseq	r2, r9, r3, lsl #24
    2e70:	7d022000 	stcvc	0, cr2, [r2, #-0]
    2e74:	b8030500 	stmdalt	r3, {r8, sl}
    2e78:	0000009a 	muleq	r0, sl, r0
    2e7c:	00935824 	addseq	r5, r3, r4, lsr #16
    2e80:	0011ac00 	andseq	sl, r1, r0, lsl #24
    2e84:	93741f00 	cmnls	r4, #0, 30
    2e88:	07620000 	strbeq	r0, [r2, -r0]!
    2e8c:	01200000 	teqeq	r0, r0
    2e90:	00780251 	rsbseq	r0, r8, r1, asr r2
    2e94:	02500120 	subseq	r0, r0, #32, 2
    2e98:	00000077 	andeq	r0, r0, r7, ror r0
    2e9c:	0000902a 	andeq	r9, r0, sl, lsr #32
    2ea0:	000d0800 	andeq	r0, sp, r0, lsl #16
    2ea4:	00812b00 	addeq	r2, r1, r0, lsl #22
    2ea8:	00140000 	andseq	r0, r4, r0
    2eac:	000cf807 	andeq	pc, ip, r7, lsl #16
    2eb0:	08932300 	ldmeq	r3, {r8, r9, sp}
    2eb4:	93010000 	movwls	r0, #4096	; 0x1000
    2eb8:	000000d9 	ldrdeq	r0, [r0], -r9
    2ebc:	000093a8 	andeq	r9, r0, r8, lsr #7
    2ec0:	000000d4 	ldrdeq	r0, [r0], -r4
    2ec4:	0e329c01 	cdpeq	12, 3, cr9, cr2, cr1, {0}
    2ec8:	74140000 	ldrvc	r0, [r4], #-0
    2ecc:	93010078 	movwls	r0, #4216	; 0x1078
    2ed0:	0000004f 	andeq	r0, r0, pc, asr #32
    2ed4:	00002175 	andeq	r2, r0, r5, ror r1
    2ed8:	00787214 	rsbseq	r7, r8, r4, lsl r2
    2edc:	004f9301 	subeq	r9, pc, r1, lsl #6
    2ee0:	21960000 	orrscs	r0, r6, r0
    2ee4:	e6130000 	ldr	r0, [r3], -r0
    2ee8:	01000004 	tsteq	r0, r4
    2eec:	00006893 	muleq	r0, r3, r8
    2ef0:	0021b700 	eoreq	fp, r1, r0, lsl #14
    2ef4:	082c2800 	stmdaeq	ip!, {fp, sp}
    2ef8:	93010000 	movwls	r0, #4096	; 0x1000
    2efc:	00000068 	andeq	r0, r0, r8, rrx
    2f00:	2c009102 	stfcsd	f1, [r0], {2}
    2f04:	007a686d 	rsbseq	r6, sl, sp, ror #16
    2f08:	002c9b01 	eoreq	r9, ip, r1, lsl #22
    2f0c:	27000000 	strcs	r0, [r0, -r0]
    2f10:	7d2629b9 	stcvc	9, cr2, [r6, #-740]!	; 0xfffffd1c
    2f14:	01000008 	tsteq	r0, r8
    2f18:	00002c9c 	muleq	r0, ip, ip
    2f1c:	0021e100 	eoreq	lr, r1, r0, lsl #2
    2f20:	010a2900 	tsteq	sl, r0, lsl #18
    2f24:	0e420000 	cdpeq	0, 4, cr0, cr2, cr0, {0}
    2f28:	03050000 	movweq	r0, #20480	; 0x5000
    2f2c:	00009a58 	andeq	r9, r0, r8, asr sl
    2f30:	0093d417 	addseq	sp, r3, r7, lsl r4
    2f34:	00000800 	andeq	r0, r0, r0, lsl #16
    2f38:	000da500 	andeq	sl, sp, r0, lsl #10
    2f3c:	6e692d00 	cdpvs	13, 6, cr2, cr9, cr0, {0}
    2f40:	2c970100 	ldfcss	f0, [r7], {0}
    2f44:	01000000 	mrseq	r0, (UNDEF: 0)
    2f48:	93cc2500 	bicls	r2, ip, #0, 10
    2f4c:	11b30000 			; <UNDEFINED> instruction: 0x11b30000
    2f50:	0db90000 	ldceq	0, cr0, [r9]
    2f54:	01200000 	teqeq	r0, r0
    2f58:	00760250 	rsbseq	r0, r6, r0, asr r2
    2f5c:	93d42500 	bicsls	r2, r4, #0, 10
    2f60:	11c40000 	bicne	r0, r4, r0
    2f64:	0dcd0000 	stcleq	0, cr0, [sp]
    2f68:	01200000 	teqeq	r0, r0
    2f6c:	00780250 	rsbseq	r0, r8, r0, asr r2
    2f70:	93e82500 	mvnls	r2, #0, 10
    2f74:	11590000 	cmpne	r9, r0
    2f78:	0de60000 	stcleq	0, cr0, [r6]
    2f7c:	01200000 	teqeq	r0, r0
    2f80:	20310151 	eorscs	r0, r1, r1, asr r1
    2f84:	76025001 	strvc	r5, [r2], -r1
    2f88:	2c240000 	stccs	0, cr0, [r4], #-0
    2f8c:	8f000094 	svchi	0x00000094
    2f90:	25000011 	strcs	r0, [r0, #-17]
    2f94:	00009448 	andeq	r9, r0, r8, asr #8
    2f98:	00001196 	muleq	r0, r6, r1
    2f9c:	00000e28 	andeq	r0, r0, r8, lsr #28
    2fa0:	02530120 	subseq	r0, r3, #32, 2
    2fa4:	01209d08 	teqeq	r0, r8, lsl #26
    2fa8:	58030552 	stmdapl	r3, {r1, r4, r6, r8, sl}
    2fac:	2000009a 	mulcs	r0, sl, r0
    2fb0:	03055101 	movweq	r5, #20737	; 0x5101
    2fb4:	00009aa4 	andeq	r9, r0, r4, lsr #21
    2fb8:	05500120 	ldrbeq	r0, [r0, #-288]	; 0x120
    2fbc:	00992c03 	addseq	r2, r9, r3, lsl #24
    2fc0:	7d022000 	stcvc	0, cr2, [r2, #-0]
    2fc4:	c4030500 	strgt	r0, [r3], #-1280	; 0x500
    2fc8:	0000009a 	muleq	r0, sl, r0
    2fcc:	00944c24 	addseq	r4, r4, r4, lsr #24
    2fd0:	0011ac00 	andseq	sl, r1, r0, lsl #24
    2fd4:	902a0000 	eorls	r0, sl, r0
    2fd8:	42000000 	andmi	r0, r0, #0
    2fdc:	2b00000e 	blcs	301c <_start-0x4fe4>
    2fe0:	00000081 	andeq	r0, r0, r1, lsl #1
    2fe4:	32070013 	andcc	r0, r7, #19
    2fe8:	2300000e 	movwcs	r0, #14
    2fec:	00000870 	andeq	r0, r0, r0, ror r8
    2ff0:	0025a901 	eoreq	sl, r5, r1, lsl #18
    2ff4:	947c0000 	ldrbtls	r0, [ip], #-0
    2ff8:	003c0000 	eorseq	r0, ip, r0
    2ffc:	9c010000 	stcls	0, cr0, [r1], {-0}
    3000:	00000eea 	andeq	r0, r0, sl, ror #29
    3004:	0004ad13 	andeq	sl, r4, r3, lsl sp
    3008:	22a90100 	adccs	r0, r9, #0, 2
    300c:	0f000007 	svceq	0x00000007
    3010:	16000022 	strne	r0, [r0], -r2, lsr #32
    3014:	00736572 	rsbseq	r6, r3, r2, ror r5
    3018:	0025aa01 	eoreq	sl, r5, r1, lsl #20
    301c:	22300000 	eorscs	r0, r0, #0
    3020:	0a290000 	beq	a43028 <__bss_end__+0xa390d8>
    3024:	fa000001 	blx	3030 <_start-0x4fd0>
    3028:	0500000e 	streq	r0, [r0, #-14]
    302c:	009a6c03 	addseq	r6, sl, r3, lsl #24
    3030:	94882500 	strls	r2, [r8], #1280	; 0x500
    3034:	07620000 	strbeq	r0, [r2, -r0]!
    3038:	0ea80000 	cdpeq	0, 10, cr0, cr8, cr0, {0}
    303c:	01200000 	teqeq	r0, r0
    3040:	ff090251 			; <UNDEFINED> instruction: 0xff090251
    3044:	03500120 	cmpeq	r0, #32, 2
    3048:	005001f3 	ldrsheq	r0, [r0], #-19	; 0xffffffed
    304c:	00949424 	addseq	r9, r4, r4, lsr #8
    3050:	00118f00 	andseq	r8, r1, r0, lsl #30
    3054:	94a82500 	strtls	r2, [r8], #1280	; 0x500
    3058:	11960000 	orrsne	r0, r6, r0
    305c:	0ee00000 	cdpeq	0, 14, cr0, cr0, cr0, {0}
    3060:	01200000 	teqeq	r0, r0
    3064:	ac080253 	sfmge	f0, 4, [r8], {83}	; 0x53
    3068:	05520120 	ldrbeq	r0, [r2, #-288]	; 0x120
    306c:	009a6c03 	addseq	r6, sl, r3, lsl #24
    3070:	51012000 	mrspl	r2, (UNDEF: 1)
    3074:	9aa40305 	bls	fe903c90 <__bss_end__+0xfe8f9d40>
    3078:	01200000 	teqeq	r0, r0
    307c:	f8030550 			; <UNDEFINED> instruction: 0xf8030550
    3080:	0000009a 	muleq	r0, sl, r0
    3084:	0094ac24 	addseq	sl, r4, r4, lsr #24
    3088:	0011ac00 	andseq	sl, r1, r0, lsl #24
    308c:	902a0000 	eorls	r0, sl, r0
    3090:	fa000000 	blx	3098 <_start-0x4f68>
    3094:	2b00000e 	blcs	30d4 <_start-0x4f2c>
    3098:	00000081 	andeq	r0, r0, r1, lsl #1
    309c:	ea07000c 	b	1c30d4 <__bss_end__+0x1b9184>
    30a0:	1200000e 	andne	r0, r0, #14
    30a4:	000008b4 			; <UNDEFINED> instruction: 0x000008b4
    30a8:	94b8b001 	ldrtls	fp, [r8], #1
    30ac:	002c0000 	eoreq	r0, ip, r0
    30b0:	9c010000 	stcls	0, cr0, [r1], {-0}
    30b4:	00000f43 	andeq	r0, r0, r3, asr #30
    30b8:	0004ad13 	andeq	sl, r4, r3, lsl sp
    30bc:	22b00100 	adcscs	r0, r0, #0, 2
    30c0:	43000007 	movwmi	r0, #7
    30c4:	14000022 	strne	r0, [r0], #-34	; 0x22
    30c8:	0067736d 	rsbeq	r7, r7, sp, ror #6
    30cc:	0097b001 	addseq	fp, r7, r1
    30d0:	22610000 	rsbcs	r0, r1, #0
    30d4:	d01f0000 	andsle	r0, pc, r0
    30d8:	76000094 			; <UNDEFINED> instruction: 0x76000094
    30dc:	20000001 	andcs	r0, r0, r1
    30e0:	75025001 	strvc	r5, [r2, #-1]
    30e4:	23000000 	movwcs	r0, #0
    30e8:	000004b2 			; <UNDEFINED> instruction: 0x000004b2
    30ec:	0025b901 	eoreq	fp, r5, r1, lsl #18
    30f0:	94e40000 	strbtls	r0, [r4], #0
    30f4:	00900000 	addseq	r0, r0, r0
    30f8:	9c010000 	stcls	0, cr0, [r1], {-0}
    30fc:	00001041 	andeq	r1, r0, r1, asr #32
    3100:	0004ad13 	andeq	sl, r4, r3, lsl sp
    3104:	22b90100 	adcscs	r0, r9, #0, 2
    3108:	7f000007 	svcvc	0x00000007
    310c:	2e000022 	cdpcs	0, 0, cr0, cr0, cr2, {1}
    3110:	00746d66 	rsbseq	r6, r4, r6, ror #26
    3114:	0097b901 	addseq	fp, r7, r1, lsl #18
    3118:	91020000 	mrsls	r0, (UNDEF: 2)
    311c:	62152f74 	andsvs	r2, r5, #116, 30	; 0x1d0
    3120:	01006675 	tsteq	r0, r5, ror r6
    3124:	001041ba 			; <UNDEFINED> instruction: 0x001041ba
    3128:	9c910300 	ldcls	3, cr0, [r1], {0}
    312c:	036b187c 	cmneq	fp, #124, 16	; 0x7c0000
    3130:	bc010000 	stclt	0, cr0, [r1], {-0}
    3134:	00000106 	andeq	r0, r0, r6, lsl #2
    3138:	7c989103 	ldfvcd	f1, [r8], {3}
    313c:	007a7316 	rsbseq	r7, sl, r6, lsl r3
    3140:	0025be01 	eoreq	fp, r5, r1, lsl #28
    3144:	22ab0000 	adccs	r0, fp, #0
    3148:	0a290000 	beq	a43150 <__bss_end__+0xa39200>
    314c:	62000001 	andvs	r0, r0, #1
    3150:	05000010 	streq	r0, [r0, #-16]
    3154:	009a7c03 	addseq	r7, sl, r3, lsl #24
    3158:	950c2500 	strls	r2, [ip, #-1280]	; 0x500
    315c:	11d50000 	bicsne	r0, r5, r0
    3160:	0fde0000 	svceq	0x00de0000
    3164:	01200000 	teqeq	r0, r0
    3168:	58910253 	ldmpl	r1, {r0, r1, r4, r6, r9}
    316c:	03520120 	cmpeq	r2, #32, 2
    3170:	20065491 	mulcs	r6, r1, r4
    3174:	0a035101 	beq	d7580 <__bss_end__+0xcd630>
    3178:	012001cc 	smlawteq	r0, ip, r1, r0
    317c:	fc910350 	ldc2	3, cr0, [r1], {80}	; 0x50
    3180:	2024007b 	eorcs	r0, r4, fp, ror r0
    3184:	8f000095 	svchi	0x00000095
    3188:	25000011 	strcs	r0, [r0, #-17]
    318c:	0000953c 	andeq	r9, r0, ip, lsr r5
    3190:	00001196 	muleq	r0, r6, r1
    3194:	00001020 	andeq	r1, r0, r0, lsr #32
    3198:	02530120 	subseq	r0, r3, #32, 2
    319c:	0120c008 	teqeq	r0, r8
    31a0:	7c030552 	cfstr32vc	mvfx0, [r3], {82}	; 0x52
    31a4:	2000009a 	mulcs	r0, sl, r0
    31a8:	03055101 	movweq	r5, #20737	; 0x5101
    31ac:	00009aa4 	andeq	r9, r0, r4, lsr #21
    31b0:	05500120 	ldrbeq	r0, [r0, #-288]	; 0x120
    31b4:	00992c03 	addseq	r2, r9, r3, lsl #24
    31b8:	7d022000 	stcvc	0, cr2, [r2, #-0]
    31bc:	30030500 	andcc	r0, r3, r0, lsl #10
    31c0:	0000009b 	muleq	r0, fp, r0
    31c4:	00954024 	addseq	r4, r5, r4, lsr #32
    31c8:	0011ac00 	andseq	sl, r1, r0, lsl #24
    31cc:	954c1f00 	strbls	r1, [ip, #-3840]	; 0xf00
    31d0:	0eff0000 	cdpeq	0, 15, cr0, cr15, cr0, {0}
    31d4:	01200000 	teqeq	r0, r0
    31d8:	fc910351 	ldc2	3, cr0, [r1], {81}	; 0x51
    31dc:	5001207b 	andpl	r2, r1, fp, ror r0
    31e0:	00007502 	andeq	r7, r0, r2, lsl #10
    31e4:	00902a00 	addseq	r2, r0, r0, lsl #20
    31e8:	10520000 	subsne	r0, r2, r0
    31ec:	81300000 	teqhi	r0, r0
    31f0:	cb000000 	blgt	31f8 <_start-0x4e08>
    31f4:	902a0001 	eorls	r0, sl, r1
    31f8:	62000000 	andvs	r0, r0, #0
    31fc:	2b000010 	blcs	3244 <_start-0x4dbc>
    3200:	00000081 	andeq	r0, r0, r1, lsl #1
    3204:	5207000e 	andpl	r0, r7, #14
    3208:	23000010 	movwcs	r0, #16
    320c:	00000903 	andeq	r0, r0, r3, lsl #18
    3210:	0025c501 	eoreq	ip, r5, r1, lsl #10
    3214:	95740000 	ldrbls	r0, [r4, #-0]!
    3218:	004c0000 	subeq	r0, ip, r0
    321c:	9c010000 	stcls	0, cr0, [r1], {-0}
    3220:	00001144 	andeq	r1, r0, r4, asr #2
    3224:	01007514 	tsteq	r0, r4, lsl r5
    3228:	000722c5 	andeq	r2, r7, r5, asr #5
    322c:	0022ea00 	eoreq	lr, r2, r0, lsl #20
    3230:	75621400 	strbvc	r1, [r2, #-1024]!	; 0x400
    3234:	c5010066 	strgt	r0, [r1, #-102]	; 0x66
    3238:	00000c0c 	andeq	r0, r0, ip, lsl #24
    323c:	0000230b 	andeq	r2, r0, fp, lsl #6
    3240:	0008ef13 	andeq	lr, r8, r3, lsl pc
    3244:	68c50100 	stmiavs	r5, {r8}^
    3248:	2c000000 	stccs	0, cr0, [r0], {-0}
    324c:	14000023 	strne	r0, [r0], #-35	; 0x23
    3250:	00646e65 	rsbeq	r6, r4, r5, ror #28
    3254:	004fc501 	subeq	ip, pc, r1, lsl #10
    3258:	234d0000 	movtcs	r0, #53248	; 0xd000
    325c:	72160000 	andsvc	r0, r6, #0
    3260:	01007365 	tsteq	r0, r5, ror #6
    3264:	000025c6 	andeq	r2, r0, r6, asr #11
    3268:	00236e00 	eoreq	r6, r3, r0, lsl #28
    326c:	010a2900 	tsteq	sl, r0, lsl #18
    3270:	11540000 	cmpne	r4, r0
    3274:	03050000 	movweq	r0, #20480	; 0x5000
    3278:	00009a8c 	andeq	r9, r0, ip, lsl #21
    327c:	00958825 	addseq	r8, r5, r5, lsr #16
    3280:	000b1e00 	andeq	r1, fp, r0, lsl #28
    3284:	00110200 	andseq	r0, r1, r0, lsl #4
    3288:	52012000 	andpl	r2, r1, #0
    328c:	5201f303 	andpl	pc, r1, #201326592	; 0xc000000
    3290:	03510120 	cmpeq	r1, #32, 2
    3294:	205101f3 	ldrshcs	r0, [r1], #-19	; 0xffffffed
    3298:	f3035001 	vhadd.u8	d5, d3, d1
    329c:	02205001 	eoreq	r5, r0, #1
    32a0:	0902007d 	stmdbeq	r2, {r0, r2, r3, r4, r5, r6}
    32a4:	942400ff 	strtls	r0, [r4], #-255	; 0xff
    32a8:	8f000095 	svchi	0x00000095
    32ac:	25000011 	strcs	r0, [r0, #-17]
    32b0:	000095a8 	andeq	r9, r0, r8, lsr #11
    32b4:	00001196 	muleq	r0, r6, r1
    32b8:	0000113a 	andeq	r1, r0, sl, lsr r1
    32bc:	02530120 	subseq	r0, r3, #32, 2
    32c0:	0120c808 	teqeq	r0, r8, lsl #16
    32c4:	8c030552 	cfstr32hi	mvfx0, [r3], {82}	; 0x52
    32c8:	2000009a 	mulcs	r0, sl, r0
    32cc:	03055101 	movweq	r5, #20737	; 0x5101
    32d0:	00009aa4 	andeq	r9, r0, r4, lsr #21
    32d4:	05500120 	ldrbeq	r0, [r0, #-288]	; 0x120
    32d8:	009af803 	addseq	pc, sl, r3, lsl #16
    32dc:	ac240000 	stcge	0, cr0, [r4], #-0
    32e0:	ac000095 	stcge	0, cr0, [r0], {149}	; 0x95
    32e4:	00000011 	andeq	r0, r0, r1, lsl r0
    32e8:	0000902a 	andeq	r9, r0, sl, lsr #32
    32ec:	00115400 	andseq	r5, r1, r0, lsl #8
    32f0:	00812b00 	addeq	r2, r1, r0, lsl #22
    32f4:	00160000 	andseq	r0, r6, r0
    32f8:	00114407 	andseq	r4, r1, r7, lsl #8
    32fc:	07403100 	strbeq	r3, [r0, -r0, lsl #2]
    3300:	21060000 	mrscs	r0, (UNDEF: 6)
    3304:	0000116f 	andeq	r1, r0, pc, ror #2
    3308:	00002c32 	andeq	r2, r0, r2, lsr ip
    330c:	002c3200 	eoreq	r3, ip, r0, lsl #4
    3310:	33000000 	movwcc	r0, #0
    3314:	000005ef 	andeq	r0, r0, pc, ror #11
    3318:	002c5707 	eoreq	r5, ip, r7, lsl #14
    331c:	5d340000 	ldcpl	0, cr0, [r4, #-0]
    3320:	06000002 	streq	r0, [r0], -r2
    3324:	00002524 	andeq	r2, r0, r4, lsr #10
    3328:	00118f00 	andseq	r8, r1, r0, lsl #30
    332c:	002c3200 	eoreq	r3, ip, r0, lsl #4
    3330:	35000000 	strcc	r0, [r0, #-0]
    3334:	000000d3 	ldrdeq	r0, [r0], -r3
    3338:	16341e07 	ldrtne	r1, [r4], -r7, lsl #28
    333c:	07000003 	streq	r0, [r0, -r3]
    3340:	00002529 	andeq	r2, r0, r9, lsr #10
    3344:	0011ac00 	andseq	sl, r1, r0, lsl #24
    3348:	00973200 	addseq	r3, r7, r0, lsl #4
    334c:	002f0000 	eoreq	r0, pc, r0
    3350:	00015435 	andeq	r5, r1, r5, lsr r4
    3354:	31660700 	cmncc	r6, r0, lsl #14
    3358:	00000784 	andeq	r0, r0, r4, lsl #15
    335c:	11c41d06 	bicne	r1, r4, r6, lsl #26
    3360:	2c320000 	ldccs	0, cr0, [r2], #-0
    3364:	00000000 	andeq	r0, r0, r0
    3368:	00023031 	andeq	r3, r2, r1, lsr r0
    336c:	d51c0600 	ldrle	r0, [ip, #-1536]	; 0x600
    3370:	32000011 	andcc	r0, r0, #17
    3374:	0000002c 	andeq	r0, r0, ip, lsr #32
    3378:	03133600 	tsteq	r3, #0, 12
    337c:	02080000 	andeq	r0, r8, #0
    3380:	00000025 	andeq	r0, r0, r5, lsr #32
    3384:	00008a32 	andeq	r8, r0, r2, lsr sl
    3388:	00253200 	eoreq	r3, r5, r0, lsl #4
    338c:	97320000 	ldrls	r0, [r2, -r0]!
    3390:	32000000 	andcc	r0, r0, #0
    3394:	00000106 	andeq	r0, r0, r6, lsl #2
    3398:	03ff0000 	mvnseq	r0, #0
    339c:	00040000 	andeq	r0, r4, r0
    33a0:	00001039 	andeq	r1, r0, r9, lsr r0
    33a4:	02bc0104 	adcseq	r0, ip, #4, 2
    33a8:	fb010000 	blx	433b2 <__bss_end__+0x39462>
    33ac:	27000009 	strcs	r0, [r0, -r9]
    33b0:	c0000003 	andgt	r0, r0, r3
    33b4:	54000095 	strpl	r0, [r0], #-149	; 0x95
    33b8:	e0000001 	and	r0, r0, r1
    33bc:	0200000d 	andeq	r0, r0, #13
    33c0:	6e690504 	cdpvs	5, 6, cr0, cr9, cr4, {0}
    33c4:	04030074 	streq	r0, [r3], #-116	; 0x74
    33c8:	00003307 	andeq	r3, r0, r7, lsl #6
    33cc:	06010300 	streq	r0, [r1], -r0, lsl #6
    33d0:	00000183 	andeq	r0, r0, r3, lsl #3
    33d4:	8f050203 	svchi	0x00050203
    33d8:	03000001 	movweq	r0, #1
    33dc:	00450504 	subeq	r0, r5, r4, lsl #10
    33e0:	08030000 	stmdaeq	r3, {}	; <UNPREDICTABLE>
    33e4:	00004005 	andeq	r4, r0, r5
    33e8:	08010300 	stmdaeq	r1, {r8, r9}
    33ec:	00000181 	andeq	r0, r0, r1, lsl #3
    33f0:	17070203 	strne	r0, [r7, -r3, lsl #4]
    33f4:	03000001 	movweq	r0, #1
    33f8:	002e0704 	eoreq	r0, lr, r4, lsl #14
    33fc:	08030000 	stmdaeq	r3, {}	; <UNPREDICTABLE>
    3400:	00002907 	andeq	r2, r0, r7, lsl #18
    3404:	07040300 	streq	r0, [r4, -r0, lsl #6]
    3408:	00000161 	andeq	r0, r0, r1, ror #2
    340c:	8a080103 	bhi	203820 <__bss_end__+0x1f98d0>
    3410:	04000001 	streq	r0, [r0], #-1
    3414:	b20c0201 	andlt	r0, ip, #268435456	; 0x10000000
    3418:	05000000 	streq	r0, [r0, #-0]
    341c:	00000684 	andeq	r0, r0, r4, lsl #13
    3420:	07940500 	ldreq	r0, [r4, r0, lsl #10]
    3424:	05010000 	streq	r0, [r1, #-0]
    3428:	000007c7 	andeq	r0, r0, r7, asr #15
    342c:	07d60504 	ldrbeq	r0, [r6, r4, lsl #10]
    3430:	05050000 	streq	r0, [r5, #-0]
    3434:	000007e5 	andeq	r0, r0, r5, ror #15
    3438:	07f40506 	ldrbeq	r0, [r4, r6, lsl #10]!
    343c:	05070000 	streq	r0, [r7, #-0]
    3440:	00000803 	andeq	r0, r0, r3, lsl #16
    3444:	08120503 	ldmdaeq	r2, {r0, r1, r8, sl}
    3448:	00020000 	andeq	r0, r2, r0
    344c:	0007bb06 	andeq	fp, r7, r6, lsl #22
    3450:	79150200 	ldmdbvc	r5, {r9}
    3454:	07000000 	streq	r0, [r0, -r0]
    3458:	00000982 	andeq	r0, r0, r2, lsl #19
    345c:	95c03701 	strbls	r3, [r0, #1793]	; 0x701
    3460:	009c0000 	addseq	r0, ip, r0
    3464:	9c010000 	stcls	0, cr0, [r1], {-0}
    3468:	000001c3 	andeq	r0, r0, r3, asr #3
    346c:	0095c808 	addseq	ip, r5, r8, lsl #16
    3470:	0003a800 	andeq	sl, r3, r0, lsl #16
    3474:	95d40900 	ldrbls	r0, [r4, #2304]	; 0x900
    3478:	03af0000 			; <UNDEFINED> instruction: 0x03af0000
    347c:	00f30000 	rscseq	r0, r3, r0
    3480:	010a0000 	mrseq	r0, (UNDEF: 10)
    3484:	0a320151 	beq	c839d0 <__bss_end__+0xc79a80>
    3488:	3e015001 	cdpcc	0, 0, cr5, cr1, cr1, {0}
    348c:	95e00900 	strbls	r0, [r0, #2304]!	; 0x900
    3490:	03af0000 			; <UNDEFINED> instruction: 0x03af0000
    3494:	010b0000 	mrseq	r0, (UNDEF: 11)
    3498:	010a0000 	mrseq	r0, (UNDEF: 10)
    349c:	0a320151 	beq	c839e8 <__bss_end__+0xc79a98>
    34a0:	3f015001 	svccc	0x00015001
    34a4:	95e40800 	strbls	r0, [r4, #2048]!	; 0x800
    34a8:	03a80000 			; <UNDEFINED> instruction: 0x03a80000
    34ac:	f4090000 	vst4.8	{d0-d3}, [r9], r0
    34b0:	c5000095 	strgt	r0, [r0, #-149]	; 0x95
    34b4:	28000003 	stmdacs	r0, {r0, r1}
    34b8:	0a000001 	beq	34c4 <_start-0x4b3c>
    34bc:	75025001 	strvc	r5, [r2, #-1]
    34c0:	00090000 	andeq	r0, r9, r0
    34c4:	e6000096 			; <UNDEFINED> instruction: 0xe6000096
    34c8:	3c000003 	stccc	0, cr0, [r0], {3}
    34cc:	0a000001 	beq	34d8 <_start-0x4b28>
    34d0:	75025001 	strvc	r5, [r2, #-1]
    34d4:	04080000 	streq	r0, [r8], #-0
    34d8:	a8000096 	stmdage	r0, {r1, r2, r4, r7}
    34dc:	09000003 	stmdbeq	r0, {r0, r1}
    34e0:	00009610 	andeq	r9, r0, r0, lsl r6
    34e4:	000003e6 	andeq	r0, r0, r6, ror #7
    34e8:	00000158 	andeq	r0, r0, r8, asr r1
    34ec:	0151010a 	cmpeq	r1, sl, lsl #2
    34f0:	1c090030 	stcne	0, cr0, [r9], {48}	; 0x30
    34f4:	e6000096 			; <UNDEFINED> instruction: 0xe6000096
    34f8:	6b000003 	blvs	350c <_start-0x4af4>
    34fc:	0a000001 	beq	3508 <_start-0x4af8>
    3500:	30015101 	andcc	r5, r1, r1, lsl #2
    3504:	96280900 	strtls	r0, [r8], -r0, lsl #18
    3508:	03e60000 	mvneq	r0, #0
    350c:	017e0000 	cmneq	lr, r0
    3510:	010a0000 	mrseq	r0, (UNDEF: 10)
    3514:	00360151 	eorseq	r0, r6, r1, asr r1
    3518:	00963409 	addseq	r3, r6, r9, lsl #8
    351c:	0003e600 	andeq	lr, r3, r0, lsl #12
    3520:	00019100 	andeq	r9, r1, r0, lsl #2
    3524:	51010a00 	tstpl	r1, r0, lsl #20
    3528:	09003301 	stmdbeq	r0, {r0, r8, r9, ip, sp}
    352c:	00009640 	andeq	r9, r0, r0, asr #12
    3530:	000003e6 	andeq	r0, r0, r6, ror #7
    3534:	000001a6 	andeq	r0, r0, r6, lsr #3
    3538:	0351010a 	cmpeq	r1, #-2147483646	; 0x80000002
    353c:	00010e0a 	andeq	r0, r1, sl, lsl #28
    3540:	00964c09 	addseq	r4, r6, r9, lsl #24
    3544:	0003e600 	andeq	lr, r3, r0, lsl #12
    3548:	0001b900 	andeq	fp, r1, r0, lsl #18
    354c:	51010a00 	tstpl	r1, r0, lsl #20
    3550:	08003301 	stmdaeq	r0, {r0, r8, r9, ip, sp}
    3554:	00009650 	andeq	r9, r0, r0, asr r6
    3558:	000003a8 	andeq	r0, r0, r8, lsr #7
    355c:	09560b00 	ldmdbeq	r6, {r8, r9, fp}^
    3560:	57010000 	strpl	r0, [r1, -r0]
    3564:	00000025 	andeq	r0, r0, r5, lsr #32
    3568:	0000965c 	andeq	r9, r0, ip, asr r6
    356c:	0000001c 	andeq	r0, r0, ip, lsl r0
    3570:	01e69c01 	mvneq	r9, r1, lsl #24
    3574:	6c080000 	stcvs	0, cr0, [r8], {-0}
    3578:	c5000096 	strgt	r0, [r0, #-150]	; 0x96
    357c:	00000003 	andeq	r0, r0, r3
    3580:	0008730b 	andeq	r7, r8, fp, lsl #6
    3584:	255d0100 	ldrbcs	r0, [sp, #-256]	; 0x100
    3588:	78000000 	stmdavc	r0, {}	; <UNPREDICTABLE>
    358c:	28000096 	stmdacs	r0, {r1, r2, r4, r7}
    3590:	01000000 	mrseq	r0, (UNDEF: 0)
    3594:	0002129c 	muleq	r2, ip, r2
    3598:	96800800 	strls	r0, [r0], r0, lsl #16
    359c:	01c30000 	biceq	r0, r3, r0
    35a0:	94080000 	strls	r0, [r8], #-0
    35a4:	c5000096 	strgt	r0, [r0, #-150]	; 0x96
    35a8:	00000003 	andeq	r0, r0, r3
    35ac:	0009aa0b 	andeq	sl, r9, fp, lsl #20
    35b0:	25640100 	strbcs	r0, [r4, #-256]!	; 0x100
    35b4:	a0000000 	andge	r0, r0, r0
    35b8:	1c000096 	stcne	0, cr0, [r0], {150}	; 0x96
    35bc:	01000000 	mrseq	r0, (UNDEF: 0)
    35c0:	0002359c 	muleq	r2, ip, r5
    35c4:	96b00800 	ldrtls	r0, [r0], r0, lsl #16
    35c8:	03c50000 	biceq	r0, r5, #0
    35cc:	07000000 	streq	r0, [r0, -r0]
    35d0:	0000050e 	andeq	r0, r0, lr, lsl #10
    35d4:	96bc6a01 	ldrtls	r6, [ip], r1, lsl #20
    35d8:	002c0000 	eoreq	r0, ip, r0
    35dc:	9c010000 	stcls	0, cr0, [r1], {-0}
    35e0:	00000271 	andeq	r0, r0, r1, ror r2
    35e4:	0100630c 	tsteq	r0, ip, lsl #6
    35e8:	00002c6a 	andeq	r2, r0, sl, ror #24
    35ec:	00238c00 	eoreq	r8, r3, r0, lsl #24
    35f0:	96c80800 	strbls	r0, [r8], r0, lsl #16
    35f4:	02120000 	andseq	r0, r2, #0
    35f8:	e00d0000 	and	r0, sp, r0
    35fc:	e6000096 			; <UNDEFINED> instruction: 0xe6000096
    3600:	0a000003 	beq	3614 <_start-0x49ec>
    3604:	74025101 	strvc	r5, [r2], #-257	; 0x101
    3608:	0b000000 	bleq	3610 <_start-0x49f0>
    360c:	00000974 	andeq	r0, r0, r4, ror r9
    3610:	00257401 	eoreq	r7, r5, r1, lsl #8
    3614:	96e80000 	strbtls	r0, [r8], r0
    3618:	000c0000 	andeq	r0, ip, r0
    361c:	9c010000 	stcls	0, cr0, [r1], {-0}
    3620:	00000294 	muleq	r0, r4, r2
    3624:	0096f008 	addseq	pc, r6, r8
    3628:	0001c300 	andeq	ip, r1, r0, lsl #6
    362c:	270b0000 	strcs	r0, [fp, -r0]
    3630:	0100000a 	tsteq	r0, sl
    3634:	00002578 	andeq	r2, r0, r8, ror r5
    3638:	0096f400 	addseq	pc, r6, r0, lsl #8
    363c:	00002000 	andeq	r2, r0, r0
    3640:	c09c0100 	addsgt	r0, ip, r0, lsl #2
    3644:	08000002 	stmdaeq	r0, {r1}
    3648:	000096fc 	strdeq	r9, [r0], -ip
    364c:	00000271 	andeq	r0, r0, r1, ror r2
    3650:	00970808 	addseq	r0, r7, r8, lsl #16
    3654:	0001e600 	andeq	lr, r1, r0, lsl #12
    3658:	c40e0000 	strgt	r0, [lr], #-0
    365c:	01000009 	tsteq	r0, r9
    3660:	0002d116 	andeq	sp, r2, r6, lsl r1
    3664:	80030500 	andhi	r0, r3, r0, lsl #10
    3668:	0f000098 	svceq	0x00000098
    366c:	0002d704 	andeq	sp, r2, r4, lsl #14
    3670:	002c1000 	eoreq	r1, ip, r0
    3674:	b80e0000 	stmdalt	lr, {}	; <UNPREDICTABLE>
    3678:	01000009 	tsteq	r0, r9
    367c:	0002d117 	andeq	sp, r2, r7, lsl r1
    3680:	50030500 	andpl	r0, r3, r0, lsl #10
    3684:	0e000098 	mcreq	0, 0, r0, cr0, cr8, {4}
    3688:	00000939 	andeq	r0, r0, r9, lsr r9
    368c:	02d11a01 	sbcseq	r1, r1, #4096	; 0x1000
    3690:	03050000 	movweq	r0, #20480	; 0x5000
    3694:	0000986c 	andeq	r9, r0, ip, ror #16
    3698:	00098c0e 	andeq	r8, r9, lr, lsl #24
    369c:	d11b0100 	tstle	fp, r0, lsl #2
    36a0:	05000002 	streq	r0, [r0, #-2]
    36a4:	00985803 	addseq	r5, r8, r3, lsl #16
    36a8:	099b0e00 	ldmibeq	fp, {r9, sl, fp}
    36ac:	1c010000 	stcne	0, cr0, [r1], {-0}
    36b0:	000002d1 	ldrdeq	r0, [r0], -r1
    36b4:	985c0305 	ldmdals	ip, {r0, r2, r8, r9}^
    36b8:	090e0000 	stmdbeq	lr, {}	; <UNPREDICTABLE>
    36bc:	0100000a 	tsteq	r0, sl
    36c0:	0002d11d 	andeq	sp, r2, sp, lsl r1
    36c4:	60030500 	andvs	r0, r3, r0, lsl #10
    36c8:	0e000098 	mcreq	0, 0, r0, cr0, cr8, {4}
    36cc:	0000092a 	andeq	r0, r0, sl, lsr #18
    36d0:	02d11e01 	sbcseq	r1, r1, #1, 28
    36d4:	03050000 	movweq	r0, #20480	; 0x5000
    36d8:	0000987c 	andeq	r9, r0, ip, ror r8
    36dc:	000a180e 	andeq	r1, sl, lr, lsl #16
    36e0:	d11f0100 	tstle	pc, r0, lsl #2
    36e4:	05000002 	streq	r0, [r0, #-2]
    36e8:	00986803 	addseq	r6, r8, r3, lsl #16
    36ec:	09470e00 	stmdbeq	r7, {r9, sl, fp}^
    36f0:	20010000 	andcs	r0, r1, r0
    36f4:	000002d1 	ldrdeq	r0, [r0], -r1
    36f8:	98780305 	ldmdals	r8!, {r0, r2, r8, r9}^
    36fc:	ec0e0000 	stc	0, cr0, [lr], {-0}
    3700:	01000009 	tsteq	r0, r9
    3704:	0002d121 	andeq	sp, r2, r1, lsr #2
    3708:	74030500 	strvc	r0, [r3], #-1280	; 0x500
    370c:	0e000098 	mcreq	0, 0, r0, cr0, cr8, {4}
    3710:	00000964 	andeq	r0, r0, r4, ror #18
    3714:	02d12201 	sbcseq	r2, r1, #268435456	; 0x10000000
    3718:	03050000 	movweq	r0, #20480	; 0x5000
    371c:	00009854 	andeq	r9, r0, r4, asr r8
    3720:	0009dc0e 	andeq	sp, r9, lr, lsl #24
    3724:	d1230100 	teqle	r3, r0, lsl #2
    3728:	05000002 	streq	r0, [r0, #-2]
    372c:	00987003 	addseq	r7, r8, r3
    3730:	09cc0e00 	stmibeq	ip, {r9, sl, fp}^
    3734:	24010000 	strcs	r0, [r1], #-0
    3738:	000002d1 	ldrdeq	r0, [r0], -r1
    373c:	98640305 	stmdals	r4!, {r0, r2, r8, r9}^
    3740:	ca110000 	bgt	443748 <__bss_end__+0x4397f8>
    3744:	03000006 	movweq	r0, #6
    3748:	06eb128a 	strbteq	r1, [fp], sl, lsl #5
    374c:	19020000 	stmdbne	r2, {}	; <UNPREDICTABLE>
    3750:	000003c5 	andeq	r0, r0, r5, asr #7
    3754:	00002c13 	andeq	r2, r0, r3, lsl ip
    3758:	00b21300 	adcseq	r1, r2, r0, lsl #6
    375c:	14000000 	strne	r0, [r0], #-0
    3760:	00000272 	andeq	r0, r0, r2, ror r2
    3764:	002ca903 	eoreq	sl, ip, r3, lsl #18
    3768:	03da0000 	bicseq	r0, sl, #0
    376c:	da130000 	ble	4c3774 <__bss_end__+0x4b9824>
    3770:	00000003 	andeq	r0, r0, r3
    3774:	03e0040f 	mvneq	r0, #251658240	; 0xf000000
    3778:	e5150000 	ldr	r0, [r5, #-0]
    377c:	16000003 	strne	r0, [r0], -r3
    3780:	00066412 	andeq	r6, r6, r2, lsl r4
    3784:	fc9d0300 	ldc2	3, cr0, [sp], {0}
    3788:	13000003 	movwne	r0, #3
    378c:	000003fc 	strdeq	r0, [r0], -ip
    3790:	00002c13 	andeq	r2, r0, r3, lsl ip
    3794:	040f0000 	streq	r0, [pc], #-0	; 379c <_start-0x4864>
    3798:	000003e5 	andeq	r0, r0, r5, ror #7
    379c:	0001c300 	andeq	ip, r1, r0, lsl #6
    37a0:	67000400 	strvs	r0, [r0, -r0, lsl #8]
    37a4:	04000011 	streq	r0, [r0], #-17
    37a8:	0002bc01 	andeq	fp, r2, r1, lsl #24
    37ac:	0a4c0100 	beq	1303bb4 <__bss_end__+0x12f9c64>
    37b0:	03270000 	teqeq	r7, #0
    37b4:	97780000 	ldrbls	r0, [r8, -r0]!
    37b8:	00500000 	subseq	r0, r0, r0
    37bc:	0ee50000 	cdpeq	0, 14, cr0, cr5, cr0, {0}
    37c0:	04020000 	streq	r0, [r2], #-0
    37c4:	746e6905 	strbtvc	r6, [lr], #-2309	; 0x905
    37c8:	0a370300 	beq	dc43d0 <__bss_end__+0xdba480>
    37cc:	d4020000 	strle	r0, [r2], #-0
    37d0:	00000037 	andeq	r0, r0, r7, lsr r0
    37d4:	33070404 	movwcc	r0, #29700	; 0x7404
    37d8:	04000000 	streq	r0, [r0], #-0
    37dc:	01830601 	orreq	r0, r3, r1, lsl #12
    37e0:	02040000 	andeq	r0, r4, #0
    37e4:	00018f05 	andeq	r8, r1, r5, lsl #30
    37e8:	05040400 	streq	r0, [r4, #-1024]	; 0x400
    37ec:	00000045 	andeq	r0, r0, r5, asr #32
    37f0:	40050804 	andmi	r0, r5, r4, lsl #16
    37f4:	03000000 	movweq	r0, #0
    37f8:	00000518 	andeq	r0, r0, r8, lsl r5
    37fc:	00652e03 	rsbeq	r2, r5, r3, lsl #28
    3800:	01040000 	mrseq	r0, (UNDEF: 4)
    3804:	00018108 	andeq	r8, r1, r8, lsl #2
    3808:	07020400 	streq	r0, [r2, -r0, lsl #8]
    380c:	00000117 	andeq	r0, r0, r7, lsl r1
    3810:	00056f03 	andeq	r6, r5, r3, lsl #30
    3814:	7e340300 	cdpvc	3, 3, cr0, cr4, cr0, {0}
    3818:	04000000 	streq	r0, [r0], #-0
    381c:	002e0704 	eoreq	r0, lr, r4, lsl #14
    3820:	08040000 	stmdaeq	r4, {}	; <UNPREDICTABLE>
    3824:	00002907 	andeq	r2, r0, r7, lsl #18
    3828:	07040400 	streq	r0, [r4, -r0, lsl #8]
    382c:	00000161 	andeq	r0, r0, r1, ror #2
    3830:	01040405 	tsteq	r4, r5, lsl #8
    3834:	00018a08 	andeq	r8, r1, r8, lsl #20
    3838:	040c0600 	streq	r0, [ip], #-1536	; 0x600
    383c:	0000d30e 	andeq	sp, r0, lr, lsl #6
    3840:	78740700 	ldmdavc	r4!, {r8, r9, sl}^
    3844:	5a0f0400 	bpl	3c484c <__bss_end__+0x3ba8fc>
    3848:	00000000 	andeq	r0, r0, r0
    384c:	00787207 	rsbseq	r7, r8, r7, lsl #4
    3850:	005a0f04 	subseq	r0, sl, r4, lsl #30
    3854:	08010000 	stmdaeq	r1, {}	; <UNPREDICTABLE>
    3858:	000004e6 	andeq	r0, r0, r6, ror #9
    385c:	00731004 	rsbseq	r1, r3, r4
    3860:	08040000 	stmdaeq	r4, {}	; <UNPREDICTABLE>
    3864:	00000497 	muleq	r0, r7, r4
    3868:	00731104 	rsbseq	r1, r3, r4, lsl #2
    386c:	00080000 	andeq	r0, r8, r0
    3870:	0004cf03 	andeq	ip, r4, r3, lsl #30
    3874:	9c120400 	cfldrsls	mvf0, [r2], {-0}
    3878:	09000000 	stmdbeq	r0, {}	; <UNPREDICTABLE>
    387c:	f9100501 			; <UNDEFINED> instruction: 0xf9100501
    3880:	0a000000 	beq	3888 <_start-0x4778>
    3884:	000004eb 	andeq	r0, r0, fp, ror #9
    3888:	04d90a01 	ldrbeq	r0, [r9], #2561	; 0xa01
    388c:	0a020000 	beq	83894 <__bss_end__+0x79944>
    3890:	000004c1 	andeq	r0, r0, r1, asr #9
    3894:	00030003 	andeq	r0, r3, r3
    3898:	05000005 	streq	r0, [r0, #-5]
    389c:	0000de10 	andeq	sp, r0, r0, lsl lr
    38a0:	05140600 	ldreq	r0, [r4, #-1536]	; 0x600
    38a4:	00013114 	andeq	r3, r1, r4, lsl r1
    38a8:	05780800 	ldrbeq	r0, [r8, #-2048]!	; 0x800
    38ac:	15050000 	strne	r0, [r5, #-0]
    38b0:	00000037 	andeq	r0, r0, r7, lsr r0
    38b4:	05630800 	strbeq	r0, [r3, #-2048]!	; 0x800
    38b8:	18050000 	stmdane	r5, {}	; <UNPREDICTABLE>
    38bc:	000000f9 	strdeq	r0, [r0], -r9
    38c0:	052e0804 	streq	r0, [lr, #-2052]!	; 0x804
    38c4:	1b050000 	blne	1438cc <__bss_end__+0x13997c>
    38c8:	000000d3 	ldrdeq	r0, [r0], -r3
    38cc:	20030008 	andcs	r0, r3, r8
    38d0:	05000005 	streq	r0, [r0, #-5]
    38d4:	00010420 	andeq	r0, r1, r0, lsr #8
    38d8:	0a450b00 	beq	11464e0 <__bss_end__+0x113c590>
    38dc:	05010000 	streq	r0, [r1, #-0]
    38e0:	0000017e 	andeq	r0, r0, lr, ror r1
    38e4:	00009778 	andeq	r9, r0, r8, ror r7
    38e8:	00000028 	andeq	r0, r0, r8, lsr #32
    38ec:	017e9c01 	cmneq	lr, r1, lsl #24
    38f0:	630c0000 	movwvs	r0, #49152	; 0xc000
    38f4:	7e060100 	adfvcs	f0, f6, f0
    38f8:	00000001 	andeq	r0, r0, r1
    38fc:	0d090000 	stceq	0, cr0, [r9, #-0]
    3900:	0000978c 	andeq	r9, r0, ip, lsl #15
    3904:	000001ab 	andeq	r0, r0, fp, lsr #3
    3908:	0152010e 	cmpeq	r2, lr, lsl #2
    390c:	51010e34 	tstpl	r1, r4, lsr lr
    3910:	010e3001 	tsteq	lr, r1
    3914:	47420350 	smlsldmi	r0, r2, r0, r3
    3918:	0f000024 	svceq	0x00000024
    391c:	00013104 	andeq	r3, r1, r4, lsl #2
    3920:	05360b00 	ldreq	r0, [r6, #-2816]!	; 0xb00
    3924:	0c010000 	stceq	0, cr0, [r1], {-0}
    3928:	0000017e 	andeq	r0, r0, lr, ror r1
    392c:	000097a0 	andeq	r9, r0, r0, lsr #15
    3930:	00000028 	andeq	r0, r0, r8, lsr #32
    3934:	01ab9c01 			; <UNDEFINED> instruction: 0x01ab9c01
    3938:	630c0000 	movwvs	r0, #49152	; 0xc000
    393c:	7e0d0100 	adfvce	f0, f5, f0
    3940:	00000001 	andeq	r0, r0, r1
    3944:	00090000 	andeq	r0, r9, r0
    3948:	000a3e10 	andeq	r3, sl, r0, lsl lr
    394c:	931b0600 	tstls	fp, #0, 12
    3950:	11000000 	mrsne	r0, (UNDEF: 0)
    3954:	00000093 	muleq	r0, r3, r0
    3958:	00002511 	andeq	r2, r0, r1, lsl r5
    395c:	002c1100 	eoreq	r1, ip, r0, lsl #2
    3960:	00000000 	andeq	r0, r0, r0
    3964:	000000db 	ldrdeq	r0, [r0], -fp
    3968:	124b0004 	subne	r0, fp, #4
    396c:	01040000 	mrseq	r0, (UNDEF: 4)
    3970:	000002bc 			; <UNDEFINED> instruction: 0x000002bc
    3974:	000a6701 	andeq	r6, sl, r1, lsl #14
    3978:	00032700 	andeq	r2, r3, r0, lsl #14
    397c:	0097c800 	addseq	ip, r7, r0, lsl #16
    3980:	00002000 	andeq	r2, r0, r0
    3984:	00101100 	andseq	r1, r0, r0, lsl #2
    3988:	06010200 	streq	r0, [r1], -r0, lsl #4
    398c:	00000183 	andeq	r0, r0, r3, lsl #3
    3990:	81080102 	tsthi	r8, r2, lsl #2
    3994:	02000001 	andeq	r0, r0, #1
    3998:	018f0502 	orreq	r0, pc, r2, lsl #10
    399c:	02020000 	andeq	r0, r2, #0
    39a0:	00011707 	andeq	r1, r1, r7, lsl #14
    39a4:	05040300 	streq	r0, [r4, #-768]	; 0x300
    39a8:	00746e69 	rsbseq	r6, r4, r9, ror #28
    39ac:	33070402 	movwcc	r0, #29698	; 0x7402
    39b0:	02000000 	andeq	r0, r0, #0
    39b4:	00400508 	subeq	r0, r0, r8, lsl #10
    39b8:	08020000 	stmdaeq	r2, {}	; <UNPREDICTABLE>
    39bc:	00002907 	andeq	r2, r0, r7, lsl #18
    39c0:	05040200 	streq	r0, [r4, #-512]	; 0x200
    39c4:	00000045 	andeq	r0, r0, r5, asr #32
    39c8:	61070402 	tstvs	r7, r2, lsl #8
    39cc:	04000001 	streq	r0, [r0], #-1
    39d0:	07040204 	streq	r0, [r4, -r4, lsl #4]
    39d4:	0000002e 	andeq	r0, r0, lr, lsr #32
    39d8:	007a0405 	rsbseq	r0, sl, r5, lsl #8
    39dc:	01020000 	mrseq	r0, (UNDEF: 2)
    39e0:	00018a08 	andeq	r8, r1, r8, lsl #20
    39e4:	0a370600 	beq	dc51ec <__bss_end__+0xdbb29c>
    39e8:	d4020000 	strle	r0, [r2], #-0
    39ec:	00000048 	andeq	r0, r0, r8, asr #32
    39f0:	000a3e07 	andeq	r3, sl, r7, lsl #28
    39f4:	6b1b0300 	blvs	6c45fc <__bss_end__+0x6ba6ac>
    39f8:	c8000000 	stmdagt	r0, {}	; <UNPREDICTABLE>
    39fc:	20000097 	mulcs	r0, r7, r0
    3a00:	01000000 	mrseq	r0, (UNDEF: 0)
    3a04:	705f089c 			; <UNDEFINED> instruction: 0x705f089c
    3a08:	6b030100 	blvs	c3e10 <__bss_end__+0xb9ec0>
    3a0c:	01000000 	mrseq	r0, (UNDEF: 0)
    3a10:	00630850 	rsbeq	r0, r3, r0, asr r8
    3a14:	00410301 	subeq	r0, r1, r1, lsl #6
    3a18:	51010000 	mrspl	r0, (UNDEF: 1)
    3a1c:	01006e09 	tsteq	r0, r9, lsl #28
    3a20:	00008103 	andeq	r8, r0, r3, lsl #2
    3a24:	0023aa00 	eoreq	sl, r3, r0, lsl #20
    3a28:	00700a00 	rsbseq	r0, r0, r0, lsl #20
    3a2c:	00740401 	rsbseq	r0, r4, r1, lsl #8
    3a30:	23cb0000 	biccs	r0, fp, #0
    3a34:	650b0000 	strvs	r0, [fp, #-0]
    3a38:	74040100 	strvc	r0, [r4], #-256	; 0x100
    3a3c:	01000000 	mrseq	r0, (UNDEF: 0)
    3a40:	Address 0x0000000000003a40 is out of bounds.


Disassembly of section .debug_abbrev:

00000000 <.debug_abbrev>:
       0:	25011101 	strcs	r1, [r1, #-257]	; 0x101
       4:	030b130e 	movweq	r1, #45838	; 0xb30e
       8:	110e1b0e 	tstne	lr, lr, lsl #22
       c:	10061201 	andne	r1, r6, r1, lsl #4
      10:	02000017 	andeq	r0, r0, #23
      14:	0b0b0024 	bleq	2c00ac <__bss_end__+0x2b615c>
      18:	08030b3e 	stmdaeq	r3, {r1, r2, r3, r4, r5, r8, r9, fp}
      1c:	24030000 	strcs	r0, [r3], #-0
      20:	3e0b0b00 	vmlacc.f64	d0, d11, d0
      24:	000e030b 	andeq	r0, lr, fp, lsl #6
      28:	00160400 	andseq	r0, r6, r0, lsl #8
      2c:	0b3a0e03 	bleq	e83840 <__bss_end__+0xe798f0>
      30:	13490b3b 	movtne	r0, #39739	; 0x9b3b
      34:	0f050000 	svceq	0x00050000
      38:	490b0b00 	stmdbmi	fp, {r8, r9, fp}
      3c:	06000013 			; <UNDEFINED> instruction: 0x06000013
      40:	13490026 	movtne	r0, #36902	; 0x9026
      44:	13070000 	movwne	r0, #28672	; 0x7000
      48:	3a0b0b01 	bcc	2c2c54 <__bss_end__+0x2b8d04>
      4c:	010b3b0b 	tsteq	fp, fp, lsl #22
      50:	08000013 	stmdaeq	r0, {r0, r1, r4}
      54:	0803000d 	stmdaeq	r3, {r0, r2, r3}
      58:	0b3b0b3a 	bleq	ec2d48 <__bss_end__+0xeb8df8>
      5c:	0b381349 	bleq	e04d88 <__bss_end__+0xdfae38>
      60:	0d090000 	stceq	0, cr0, [r9, #-0]
      64:	3a0e0300 	bcc	380c6c <__bss_end__+0x376d1c>
      68:	490b3b0b 	stmdbmi	fp, {r0, r1, r3, r8, r9, fp, ip, sp}
      6c:	000b3813 	andeq	r3, fp, r3, lsl r8
      70:	012e0a00 	teqeq	lr, r0, lsl #20
      74:	0b3a0e03 	bleq	e83888 <__bss_end__+0xe79938>
      78:	19270b3b 	stmdbne	r7!, {r0, r1, r3, r4, r5, r8, r9, fp}
      7c:	0b201349 	bleq	804da8 <__bss_end__+0x7fae58>
      80:	00001301 	andeq	r1, r0, r1, lsl #6
      84:	0300050b 	movweq	r0, #1291	; 0x50b
      88:	3b0b3a08 	blcc	2ce8b0 <__bss_end__+0x2c4960>
      8c:	0013490b 	andseq	r4, r3, fp, lsl #18
      90:	00340c00 	eorseq	r0, r4, r0, lsl #24
      94:	0b3a0803 	bleq	e820a8 <__bss_end__+0xe78158>
      98:	13490b3b 	movtne	r0, #39739	; 0x9b3b
      9c:	2e0d0000 	cdpcs	0, 0, cr0, cr13, cr0, {0}
      a0:	03193f01 	tsteq	r9, #1, 30
      a4:	3b0b3a0e 	blcc	2ce8e4 <__bss_end__+0x2c4994>
      a8:	4919270b 	ldmdbmi	r9, {r0, r1, r3, r8, r9, sl, sp}
      ac:	12011113 	andne	r1, r1, #-1073741820	; 0xc0000004
      b0:	97184006 	ldrls	r4, [r8, -r6]
      b4:	13011942 	movwne	r1, #6466	; 0x1942
      b8:	050e0000 	streq	r0, [lr, #-0]
      bc:	3a080300 	bcc	200cc4 <__bss_end__+0x1f6d74>
      c0:	490b3b0b 	stmdbmi	fp, {r0, r1, r3, r8, r9, fp, ip, sp}
      c4:	00170213 	andseq	r0, r7, r3, lsl r2
      c8:	00340f00 	eorseq	r0, r4, r0, lsl #30
      cc:	13490e03 	movtne	r0, #40451	; 0x9e03
      d0:	18021934 	stmdane	r2, {r2, r4, r5, r8, fp, ip}
      d4:	34100000 	ldrcc	r0, [r0], #-0
      d8:	3a0e0300 	bcc	380ce0 <__bss_end__+0x376d90>
      dc:	490b3b0b 	stmdbmi	fp, {r0, r1, r3, r8, r9, fp, ip, sp}
      e0:	11000013 	tstne	r0, r3, lsl r0
      e4:	0e030034 	mcreq	0, 0, r0, cr3, cr4, {1}
      e8:	0b3b0b3a 	bleq	ec2dd8 <__bss_end__+0xeb8e88>
      ec:	17021349 	strne	r1, [r2, -r9, asr #6]
      f0:	0b120000 	bleq	4800f8 <__bss_end__+0x4761a8>
      f4:	12011101 	andne	r1, r1, #1073741824	; 0x40000000
      f8:	00130106 	andseq	r0, r3, r6, lsl #2
      fc:	82891300 	addhi	r1, r9, #0, 6
     100:	01110101 	tsteq	r1, r1, lsl #2
     104:	13011331 	movwne	r1, #4913	; 0x1331
     108:	8a140000 	bhi	500110 <__bss_end__+0x4f61c0>
     10c:	02000182 	andeq	r0, r0, #-2147483616	; 0x80000020
     110:	18429118 	stmdane	r2, {r3, r4, r8, ip, pc}^
     114:	89150000 	ldmdbhi	r5, {}	; <UNPREDICTABLE>
     118:	11000182 	smlabbne	r0, r2, r1, r0
     11c:	00133101 	andseq	r3, r3, r1, lsl #2
     120:	01011600 	tsteq	r1, r0, lsl #12
     124:	13011349 	movwne	r1, #4937	; 0x1349
     128:	21170000 	tstcs	r7, r0
     12c:	2f134900 	svccs	0x00134900
     130:	1800000b 	stmdane	r0, {r0, r1, r3}
     134:	0e030005 	cdpeq	0, 0, cr0, cr3, cr5, {0}
     138:	0b3b0b3a 	bleq	ec2e28 <__bss_end__+0xeb8ed8>
     13c:	17021349 	strne	r1, [r2, -r9, asr #6]
     140:	34190000 	ldrcc	r0, [r9], #-0
     144:	3a0e0300 	bcc	380d4c <__bss_end__+0x376dfc>
     148:	490b3b0b 	stmdbmi	fp, {r0, r1, r3, r8, r9, fp, ip, sp}
     14c:	000b1c13 	andeq	r1, fp, r3, lsl ip
     150:	011d1a00 	tsteq	sp, r0, lsl #20
     154:	01521331 	cmpeq	r2, r1, lsr r3
     158:	0b581755 	bleq	1605eb4 <__bss_end__+0x15fbf64>
     15c:	13010b59 	movwne	r0, #7001	; 0x1b59
     160:	051b0000 	ldreq	r0, [fp, #-0]
     164:	02133100 	andseq	r3, r3, #0, 2
     168:	1c000017 	stcne	0, cr0, [r0], {23}
     16c:	1755010b 	ldrbne	r0, [r5, -fp, lsl #2]
     170:	341d0000 	ldrcc	r0, [sp], #-0
     174:	02133100 	andseq	r3, r3, #0, 2
     178:	1e000017 	mcrne	0, 0, r0, cr0, cr7, {0}
     17c:	01018289 	smlabbeq	r1, r9, r2, r8
     180:	13310111 	teqne	r1, #1073741828	; 0x40000004
     184:	1d1f0000 	ldcne	0, cr0, [pc, #-0]	; 18c <_start-0x7e74>
     188:	11133101 	tstne	r3, r1, lsl #2
     18c:	58061201 	stmdapl	r6, {r0, r9, ip}
     190:	010b590b 	tsteq	fp, fp, lsl #18
     194:	20000013 	andcs	r0, r0, r3, lsl r0
     198:	13310005 	teqne	r1, #5
     19c:	00001802 	andeq	r1, r0, r2, lsl #16
     1a0:	11010b21 	tstne	r1, r1, lsr #22
     1a4:	00061201 	andeq	r1, r6, r1, lsl #4
     1a8:	012e2200 	teqeq	lr, r0, lsl #4
     1ac:	0e03193f 	mcreq	9, 0, r1, cr3, cr15, {1}
     1b0:	0b3b0b3a 	bleq	ec2ea0 <__bss_end__+0xeb8f50>
     1b4:	01111927 	tsteq	r1, r7, lsr #18
     1b8:	18400612 	stmdane	r0, {r1, r4, r9, sl}^
     1bc:	01194297 			; <UNDEFINED> instruction: 0x01194297
     1c0:	23000013 	movwcs	r0, #19
     1c4:	08030034 	stmdaeq	r3, {r2, r4, r5}
     1c8:	0b3b0b3a 	bleq	ec2eb8 <__bss_end__+0xeb8f68>
     1cc:	17021349 	strne	r1, [r2, -r9, asr #6]
     1d0:	34240000 	strtcc	r0, [r4], #-0
     1d4:	3a080300 	bcc	200ddc <__bss_end__+0x1f6e8c>
     1d8:	490b3b0b 	stmdbmi	fp, {r0, r1, r3, r8, r9, fp, ip, sp}
     1dc:	000b1c13 	andeq	r1, fp, r3, lsl ip
     1e0:	00342500 	eorseq	r2, r4, r0, lsl #10
     1e4:	0b3a0803 	bleq	e821f8 <__bss_end__+0xe782a8>
     1e8:	13490b3b 	movtne	r0, #39739	; 0x9b3b
     1ec:	00001802 	andeq	r1, r0, r2, lsl #16
     1f0:	03003426 	movweq	r3, #1062	; 0x426
     1f4:	3b0b3a0e 	blcc	2cea34 <__bss_end__+0x2c4ae4>
     1f8:	1c13490b 	ldcne	9, cr4, [r3], {11}
     1fc:	27000006 	strcs	r0, [r0, -r6]
     200:	13490035 	movtne	r0, #36917	; 0x9035
     204:	2e280000 	cdpcs	0, 2, cr0, cr8, cr0, {0}
     208:	03193f01 	tsteq	r9, #1, 30
     20c:	3b0b3a0e 	blcc	2cea4c <__bss_end__+0x2c4afc>
     210:	3c19270b 	ldccc	7, cr2, [r9], {11}
     214:	00130119 	andseq	r0, r3, r9, lsl r1
     218:	00052900 	andeq	r2, r5, r0, lsl #18
     21c:	00001349 	andeq	r1, r0, r9, asr #6
     220:	3f002e2a 	svccc	0x00002e2a
     224:	3a0e0319 	bcc	380e90 <__bss_end__+0x376f40>
     228:	270b3b0b 	strcs	r3, [fp, -fp, lsl #22]
     22c:	00193c19 	andseq	r3, r9, r9, lsl ip
     230:	012e2b00 	teqeq	lr, r0, lsl #22
     234:	0e03193f 	mcreq	9, 0, r1, cr3, cr15, {1}
     238:	0b3b0b3a 	bleq	ec2f28 <__bss_end__+0xeb8fd8>
     23c:	13491927 	movtne	r1, #39207	; 0x9927
     240:	1301193c 	movwne	r1, #6460	; 0x193c
     244:	182c0000 	stmdane	ip!, {}	; <UNPREDICTABLE>
     248:	2d000000 	stccs	0, cr0, [r0, #-0]
     24c:	00000035 	andeq	r0, r0, r5, lsr r0
     250:	3f012e2e 	svccc	0x00012e2e
     254:	3a0e0319 	bcc	380ec0 <__bss_end__+0x376f70>
     258:	270b3b0b 	strcs	r3, [fp, -fp, lsl #22]
     25c:	00193c19 	andseq	r3, r9, r9, lsl ip
     260:	11010000 	mrsne	r0, (UNDEF: 1)
     264:	130e2501 	movwne	r2, #58625	; 0xe501
     268:	1b0e030b 	blne	380e9c <__bss_end__+0x376f4c>
     26c:	1201110e 	andne	r1, r1, #-2147483645	; 0x80000003
     270:	00171006 	andseq	r1, r7, r6
     274:	00160200 	andseq	r0, r6, r0, lsl #4
     278:	0b3a0e03 	bleq	e83a8c <__bss_end__+0xe79b3c>
     27c:	13490b3b 	movtne	r0, #39739	; 0x9b3b
     280:	13030000 	movwne	r0, #12288	; 0x3000
     284:	0b0e0301 	bleq	380e90 <__bss_end__+0x376f40>
     288:	3b0b3a0b 	blcc	2ceabc <__bss_end__+0x2c4b6c>
     28c:	0013010b 	andseq	r0, r3, fp, lsl #2
     290:	000d0400 	andeq	r0, sp, r0, lsl #8
     294:	13490e03 	movtne	r0, #40451	; 0x9e03
     298:	19340b38 	ldmdbne	r4!, {r3, r4, r5, r8, r9, fp}
     29c:	0f050000 	svceq	0x00050000
     2a0:	000b0b00 	andeq	r0, fp, r0, lsl #22
     2a4:	00240600 	eoreq	r0, r4, r0, lsl #12
     2a8:	0b3e0b0b 	bleq	f82edc <__bss_end__+0xf78f8c>
     2ac:	00000803 	andeq	r0, r0, r3, lsl #16
     2b0:	0b002407 	bleq	92d4 <sw_uart_gets_until+0x60>
     2b4:	030b3e0b 	movweq	r3, #48651	; 0xbe0b
     2b8:	0800000e 	stmdaeq	r0, {r1, r2, r3}
     2bc:	0b0b000f 	bleq	2c0300 <__bss_end__+0x2b63b0>
     2c0:	00001349 	andeq	r1, r0, r9, asr #6
     2c4:	49002609 	stmdbmi	r0, {r0, r3, r9, sl, sp}
     2c8:	0a000013 	beq	31c <_start-0x7ce4>
     2cc:	193f012e 	ldmdbne	pc!, {r1, r2, r3, r5, r8}	; <UNPREDICTABLE>
     2d0:	0b3a0e03 	bleq	e83ae4 <__bss_end__+0xe79b94>
     2d4:	19270b3b 	stmdbne	r7!, {r0, r1, r3, r4, r5, r8, r9, fp}
     2d8:	01111349 	tsteq	r1, r9, asr #6
     2dc:	18400612 	stmdane	r0, {r1, r4, r9, sl}^
     2e0:	01194297 			; <UNDEFINED> instruction: 0x01194297
     2e4:	0b000013 	bleq	338 <_start-0x7cc8>
     2e8:	08030005 	stmdaeq	r3, {r0, r2}
     2ec:	0b3b0b3a 	bleq	ec2fdc <__bss_end__+0xeb908c>
     2f0:	18021349 	stmdane	r2, {r0, r3, r6, r8, r9, ip}
     2f4:	180c0000 	stmdane	ip, {}	; <UNPREDICTABLE>
     2f8:	0d000000 	stceq	0, cr0, [r0, #-0]
     2fc:	08030034 	stmdaeq	r3, {r2, r4, r5}
     300:	0b3b0b3a 	bleq	ec2ff0 <__bss_end__+0xeb90a0>
     304:	18021349 	stmdane	r2, {r0, r3, r6, r8, r9, ip}
     308:	340e0000 	strcc	r0, [lr], #-0
     30c:	3a0e0300 	bcc	380f14 <__bss_end__+0x376fc4>
     310:	490b3b0b 	stmdbmi	fp, {r0, r1, r3, r8, r9, fp, ip, sp}
     314:	00180213 	andseq	r0, r8, r3, lsl r2
     318:	00340f00 	eorseq	r0, r4, r0, lsl #30
     31c:	0b3a0803 	bleq	e82330 <__bss_end__+0xe783e0>
     320:	13490b3b 	movtne	r0, #39739	; 0x9b3b
     324:	00001702 	andeq	r1, r0, r2, lsl #14
     328:	01828910 	orreq	r8, r2, r0, lsl r9
     32c:	31011101 	tstcc	r1, r1, lsl #2
     330:	00130113 	andseq	r0, r3, r3, lsl r1
     334:	828a1100 	addhi	r1, sl, #0, 2
     338:	18020001 	stmdane	r2, {r0}
     33c:	00184291 	mulseq	r8, r1, r2
     340:	82891200 	addhi	r1, r9, #0, 4
     344:	01110101 	tsteq	r1, r1, lsl #2
     348:	01130000 	tsteq	r3, r0
     34c:	01134901 	tsteq	r3, r1, lsl #18
     350:	14000013 	strne	r0, [r0], #-19
     354:	13490021 	movtne	r0, #36897	; 0x9021
     358:	0000052f 	andeq	r0, r0, pc, lsr #10
     35c:	27011515 	smladcs	r1, r5, r5, r1
     360:	01134919 	tsteq	r3, r9, lsl r9
     364:	16000013 			; <UNDEFINED> instruction: 0x16000013
     368:	13490005 	movtne	r0, #36869	; 0x9005
     36c:	34170000 	ldrcc	r0, [r7], #-0
     370:	3a0e0300 	bcc	380f78 <__bss_end__+0x377028>
     374:	490b3b0b 	stmdbmi	fp, {r0, r1, r3, r8, r9, fp, ip, sp}
     378:	3c193f13 	ldccc	15, cr3, [r9], {19}
     37c:	18000019 	stmdane	r0, {r0, r3, r4}
     380:	193f012e 	ldmdbne	pc!, {r1, r2, r3, r5, r8}	; <UNPREDICTABLE>
     384:	0b3a0e03 	bleq	e83b98 <__bss_end__+0xe79c48>
     388:	19270b3b 	stmdbne	r7!, {r0, r1, r3, r4, r5, r8, r9, fp}
     38c:	193c1349 	ldmdbne	ip!, {r0, r3, r6, r8, r9, ip}
     390:	01000000 	mrseq	r0, (UNDEF: 0)
     394:	0e250111 	mcreq	1, 1, r0, cr5, cr1, {0}
     398:	0e030b13 	vmoveq.32	d3[0], r0
     39c:	01110e1b 	tsteq	r1, fp, lsl lr
     3a0:	17100612 			; <UNDEFINED> instruction: 0x17100612
     3a4:	24020000 	strcs	r0, [r2], #-0
     3a8:	3e0b0b00 	vmlacc.f64	d0, d11, d0
     3ac:	0008030b 	andeq	r0, r8, fp, lsl #6
     3b0:	00240300 	eoreq	r0, r4, r0, lsl #6
     3b4:	0b3e0b0b 	bleq	f82fe8 <__bss_end__+0xf79098>
     3b8:	00000e03 	andeq	r0, r0, r3, lsl #28
     3bc:	03012e04 	movweq	r2, #7684	; 0x1e04
     3c0:	3b0b3a0e 	blcc	2cec00 <__bss_end__+0x2c4cb0>
     3c4:	4919270b 	ldmdbmi	r9, {r0, r1, r3, r8, r9, sl, sp}
     3c8:	12011113 	andne	r1, r1, #-1073741820	; 0xc0000004
     3cc:	97184006 	ldrls	r4, [r8, -r6]
     3d0:	13011942 	movwne	r1, #6466	; 0x1942
     3d4:	05050000 	streq	r0, [r5, #-0]
     3d8:	3a080300 	bcc	200fe0 <__bss_end__+0x1f7090>
     3dc:	490b3b0b 	stmdbmi	fp, {r0, r1, r3, r8, r9, fp, ip, sp}
     3e0:	00170213 	andseq	r0, r7, r3, lsl r2
     3e4:	82890600 	addhi	r0, r9, #0, 12
     3e8:	01110101 	tsteq	r1, r1, lsl #2
     3ec:	00001331 	andeq	r1, r0, r1, lsr r3
     3f0:	01828a07 	orreq	r8, r2, r7, lsl #20
     3f4:	91180200 	tstls	r8, r0, lsl #4
     3f8:	00001842 	andeq	r1, r0, r2, asr #16
     3fc:	3f002e08 	svccc	0x00002e08
     400:	3a0e0319 	bcc	38106c <__bss_end__+0x37711c>
     404:	270b3b0b 	strcs	r3, [fp, -fp, lsl #22]
     408:	12011119 	andne	r1, r1, #1073741830	; 0x40000006
     40c:	97184006 	ldrls	r4, [r8, -r6]
     410:	00001942 	andeq	r1, r0, r2, asr #18
     414:	3f012e09 	svccc	0x00012e09
     418:	3a0e0319 	bcc	381084 <__bss_end__+0x377134>
     41c:	270b3b0b 	strcs	r3, [fp, -fp, lsl #22]
     420:	12011119 	andne	r1, r1, #1073741830	; 0x40000006
     424:	97184006 	ldrls	r4, [r8, -r6]
     428:	13011942 	movwne	r1, #6466	; 0x1942
     42c:	050a0000 	streq	r0, [sl, #-0]
     430:	3a080300 	bcc	201038 <__bss_end__+0x1f70e8>
     434:	490b3b0b 	stmdbmi	fp, {r0, r1, r3, r8, r9, fp, ip, sp}
     438:	00180213 	andseq	r0, r8, r3, lsl r2
     43c:	01150b00 	tsteq	r5, r0, lsl #22
     440:	13491927 	movtne	r1, #39207	; 0x9927
     444:	00001301 	andeq	r1, r0, r1, lsl #6
     448:	4900050c 	stmdbmi	r0, {r2, r3, r8, sl}
     44c:	0d000013 	stceq	0, cr0, [r0, #-76]	; 0xffffffb4
     450:	0b0b000f 	bleq	2c0494 <__bss_end__+0x2b6544>
     454:	00001349 	andeq	r1, r0, r9, asr #6
     458:	0300340e 	movweq	r3, #1038	; 0x40e
     45c:	3b0b3a0e 	blcc	2cec9c <__bss_end__+0x2c4d4c>
     460:	3f13490b 	svccc	0x0013490b
     464:	00180219 	andseq	r0, r8, r9, lsl r2
     468:	012e0f00 	teqeq	lr, r0, lsl #30
     46c:	0e03193f 	mcreq	9, 0, r1, cr3, cr15, {1}
     470:	0b3b0b3a 	bleq	ec3160 <__bss_end__+0xeb9210>
     474:	193c1927 	ldmdbne	ip!, {r0, r1, r2, r5, r8, fp, ip}
     478:	01000000 	mrseq	r0, (UNDEF: 0)
     47c:	0e250111 	mcreq	1, 1, r0, cr5, cr1, {0}
     480:	0e030b13 	vmoveq.32	d3[0], r0
     484:	01110e1b 	tsteq	r1, fp, lsl lr
     488:	17100612 			; <UNDEFINED> instruction: 0x17100612
     48c:	24020000 	strcs	r0, [r2], #-0
     490:	3e0b0b00 	vmlacc.f64	d0, d11, d0
     494:	0008030b 	andeq	r0, r8, fp, lsl #6
     498:	00240300 	eoreq	r0, r4, r0, lsl #6
     49c:	0b3e0b0b 	bleq	f830d0 <__bss_end__+0xf79180>
     4a0:	00000e03 	andeq	r0, r0, r3, lsl #28
     4a4:	0b000f04 	bleq	40bc <_start-0x3f44>
     4a8:	0013490b 	andseq	r4, r3, fp, lsl #18
     4ac:	00260500 	eoreq	r0, r6, r0, lsl #10
     4b0:	00001349 	andeq	r1, r0, r9, asr #6
     4b4:	3f012e06 	svccc	0x00012e06
     4b8:	3a0e0319 	bcc	381124 <__bss_end__+0x3771d4>
     4bc:	270b3b0b 	strcs	r3, [fp, -fp, lsl #22]
     4c0:	11134919 	tstne	r3, r9, lsl r9
     4c4:	40061201 	andmi	r1, r6, r1, lsl #4
     4c8:	19429618 	stmdbne	r2, {r3, r4, r9, sl, ip, pc}^
     4cc:	00001301 	andeq	r1, r0, r1, lsl #6
     4d0:	03000507 	movweq	r0, #1287	; 0x507
     4d4:	3b0b3a08 	blcc	2cecfc <__bss_end__+0x2c4dac>
     4d8:	0213490b 	andseq	r4, r3, #180224	; 0x2c000
     4dc:	08000017 	stmdaeq	r0, {r0, r1, r2, r4}
     4e0:	19270115 	stmdbne	r7!, {r0, r2, r4, r8}
     4e4:	13011349 	movwne	r1, #4937	; 0x1349
     4e8:	05090000 	streq	r0, [r9, #-0]
     4ec:	00134900 	andseq	r4, r3, r0, lsl #18
     4f0:	00340a00 	eorseq	r0, r4, r0, lsl #20
     4f4:	0b3a0e03 	bleq	e83d08 <__bss_end__+0xe79db8>
     4f8:	13490b3b 	movtne	r0, #39739	; 0x9b3b
     4fc:	193c193f 	ldmdbne	ip!, {r0, r1, r2, r3, r4, r5, r8, fp, ip}
     500:	340b0000 	strcc	r0, [fp], #-0
     504:	3a0e0300 	bcc	38110c <__bss_end__+0x3771bc>
     508:	490b3b0b 	stmdbmi	fp, {r0, r1, r3, r8, r9, fp, ip, sp}
     50c:	02193f13 	andseq	r3, r9, #19, 30	; 0x4c
     510:	00000018 	andeq	r0, r0, r8, lsl r0
     514:	25011101 	strcs	r1, [r1, #-257]	; 0x101
     518:	030b130e 	movweq	r1, #45838	; 0xb30e
     51c:	110e1b0e 	tstne	lr, lr, lsl #22
     520:	10061201 	andne	r1, r6, r1, lsl #4
     524:	02000017 	andeq	r0, r0, #23
     528:	0b0b0024 	bleq	2c05c0 <__bss_end__+0x2b6670>
     52c:	08030b3e 	stmdaeq	r3, {r1, r2, r3, r4, r5, r8, r9, fp}
     530:	24030000 	strcs	r0, [r3], #-0
     534:	3e0b0b00 	vmlacc.f64	d0, d11, d0
     538:	000e030b 	andeq	r0, lr, fp, lsl #6
     53c:	000f0400 	andeq	r0, pc, r0, lsl #8
     540:	00000b0b 	andeq	r0, r0, fp, lsl #22
     544:	0b000f05 	bleq	4160 <_start-0x3ea0>
     548:	0013490b 	andseq	r4, r3, fp, lsl #18
     54c:	00260600 	eoreq	r0, r6, r0, lsl #12
     550:	00001349 	andeq	r1, r0, r9, asr #6
     554:	03001607 	movweq	r1, #1543	; 0x607
     558:	3b0b3a0e 	blcc	2ced98 <__bss_end__+0x2c4e48>
     55c:	0013490b 	andseq	r4, r3, fp, lsl #18
     560:	01130800 	tsteq	r3, r0, lsl #16
     564:	0b0b0e03 	bleq	2c3d78 <__bss_end__+0x2b9e28>
     568:	0b3b0b3a 	bleq	ec3258 <__bss_end__+0xeb9308>
     56c:	00001301 	andeq	r1, r0, r1, lsl #6
     570:	03000d09 	movweq	r0, #3337	; 0xd09
     574:	3813490e 	ldmdacc	r3, {r1, r2, r3, r8, fp, lr}
     578:	0019340b 	andseq	r3, r9, fp, lsl #8
     57c:	012e0a00 	teqeq	lr, r0, lsl #20
     580:	0b3a0e03 	bleq	e83d94 <__bss_end__+0xe79e44>
     584:	19270b3b 	stmdbne	r7!, {r0, r1, r3, r4, r5, r8, r9, fp}
     588:	01111349 	tsteq	r1, r9, asr #6
     58c:	18400612 	stmdane	r0, {r1, r4, r9, sl}^
     590:	01194297 			; <UNDEFINED> instruction: 0x01194297
     594:	0b000013 	bleq	5e8 <_start-0x7a18>
     598:	08030005 	stmdaeq	r3, {r0, r2}
     59c:	0b3b0b3a 	bleq	ec328c <__bss_end__+0xeb933c>
     5a0:	17021349 	strne	r1, [r2, -r9, asr #6]
     5a4:	2e0c0000 	cdpcs	0, 0, cr0, cr12, cr0, {0}
     5a8:	3a080301 	bcc	2011b4 <__bss_end__+0x1f7264>
     5ac:	270b3b0b 	strcs	r3, [fp, -fp, lsl #22]
     5b0:	11134919 	tstne	r3, r9, lsl r9
     5b4:	40061201 	andmi	r1, r6, r1, lsl #4
     5b8:	19429718 	stmdbne	r2, {r3, r4, r8, r9, sl, ip, pc}^
     5bc:	00001301 	andeq	r1, r0, r1, lsl #6
     5c0:	0300050d 	movweq	r0, #1293	; 0x50d
     5c4:	3b0b3a0e 	blcc	2cee04 <__bss_end__+0x2c4eb4>
     5c8:	0213490b 	andseq	r4, r3, #180224	; 0x2c000
     5cc:	0e000017 	mcreq	0, 0, r0, cr0, cr7, {0}
     5d0:	0e030005 	cdpeq	0, 0, cr0, cr3, cr5, {0}
     5d4:	0b3b0b3a 	bleq	ec32c4 <__bss_end__+0xeb9374>
     5d8:	18021349 	stmdane	r2, {r0, r3, r6, r8, r9, ip}
     5dc:	340f0000 	strcc	r0, [pc], #-0	; 5e4 <_start-0x7a1c>
     5e0:	3a080300 	bcc	2011e8 <__bss_end__+0x1f7298>
     5e4:	490b3b0b 	stmdbmi	fp, {r0, r1, r3, r8, r9, fp, ip, sp}
     5e8:	00180213 	andseq	r0, r8, r3, lsl r2
     5ec:	00341000 	eorseq	r1, r4, r0
     5f0:	0b3a0803 	bleq	e82604 <__bss_end__+0xe786b4>
     5f4:	13490b3b 	movtne	r0, #39739	; 0x9b3b
     5f8:	00001702 	andeq	r1, r0, r2, lsl #14
     5fc:	03003411 	movweq	r3, #1041	; 0x411
     600:	3413490e 	ldrcc	r4, [r3], #-2318	; 0x90e
     604:	00180219 	andseq	r0, r8, r9, lsl r2
     608:	010b1200 	mrseq	r1, R11_fiq
     60c:	06120111 			; <UNDEFINED> instruction: 0x06120111
     610:	00001301 	andeq	r1, r0, r1, lsl #6
     614:	03003413 	movweq	r3, #1043	; 0x413
     618:	3b0b3a0e 	blcc	2cee58 <__bss_end__+0x2c4f08>
     61c:	0213490b 	andseq	r4, r3, #180224	; 0x2c000
     620:	14000017 	strne	r0, [r0], #-23
     624:	00018289 	andeq	r8, r1, r9, lsl #5
     628:	13310111 	teqne	r1, #1073741828	; 0x40000004
     62c:	89150000 	ldmdbhi	r5, {}	; <UNPREDICTABLE>
     630:	11010182 	smlabbne	r1, r2, r1, r0
     634:	01133101 	tsteq	r3, r1, lsl #2
     638:	16000013 			; <UNDEFINED> instruction: 0x16000013
     63c:	0001828a 	andeq	r8, r1, sl, lsl #5
     640:	42911802 	addsmi	r1, r1, #131072	; 0x20000
     644:	17000018 	smladne	r0, r8, r0, r0
     648:	01018289 	smlabbeq	r1, r9, r2, r8
     64c:	13310111 	teqne	r1, #1073741828	; 0x40000004
     650:	01180000 	tsteq	r8, r0
     654:	01134901 	tsteq	r3, r1, lsl #18
     658:	19000013 	stmdbne	r0, {r0, r1, r4}
     65c:	13490021 	movtne	r0, #36897	; 0x9021
     660:	00000b2f 	andeq	r0, r0, pc, lsr #22
     664:	3f012e1a 	svccc	0x00012e1a
     668:	3a0e0319 	bcc	3812d4 <__bss_end__+0x377384>
     66c:	270b3b0b 	strcs	r3, [fp, -fp, lsl #22]
     670:	12011119 	andne	r1, r1, #1073741830	; 0x40000006
     674:	97184006 	ldrls	r4, [r8, -r6]
     678:	13011942 	movwne	r1, #6466	; 0x1942
     67c:	151b0000 	ldrne	r0, [fp, #-0]
     680:	49192701 	ldmdbmi	r9, {r0, r8, r9, sl, sp}
     684:	00130113 	andseq	r0, r3, r3, lsl r1
     688:	00051c00 	andeq	r1, r5, r0, lsl #24
     68c:	00001349 	andeq	r1, r0, r9, asr #6
     690:	3f012e1d 	svccc	0x00012e1d
     694:	3a0e0319 	bcc	381300 <__bss_end__+0x3773b0>
     698:	270b3b0b 	strcs	r3, [fp, -fp, lsl #22]
     69c:	11134919 	tstne	r3, r9, lsl r9
     6a0:	40061201 	andmi	r1, r6, r1, lsl #4
     6a4:	19429718 	stmdbne	r2, {r3, r4, r8, r9, sl, ip, pc}^
     6a8:	00001301 	andeq	r1, r0, r1, lsl #6
     6ac:	55010b1e 	strpl	r0, [r1, #-2846]	; 0xb1e
     6b0:	1f000017 	svcne	0x00000017
     6b4:	0e030034 	mcreq	0, 0, r0, cr3, cr4, {1}
     6b8:	0b3b0b3a 	bleq	ec33a8 <__bss_end__+0xeb9458>
     6bc:	193f1349 	ldmdbne	pc!, {r0, r3, r6, r8, r9, ip}	; <UNPREDICTABLE>
     6c0:	0000193c 	andeq	r1, r0, ip, lsr r9
     6c4:	3f002e20 	svccc	0x00002e20
     6c8:	3a0e0319 	bcc	381334 <__bss_end__+0x3773e4>
     6cc:	270b3b0b 	strcs	r3, [fp, -fp, lsl #22]
     6d0:	00193c19 	andseq	r3, r9, r9, lsl ip
     6d4:	012e2100 	teqeq	lr, r0, lsl #2
     6d8:	0e03193f 	mcreq	9, 0, r1, cr3, cr15, {1}
     6dc:	0b3b0b3a 	bleq	ec33cc <__bss_end__+0xeb947c>
     6e0:	13491927 	movtne	r1, #39207	; 0x9927
     6e4:	1301193c 	movwne	r1, #6460	; 0x193c
     6e8:	18220000 	stmdane	r2!, {}	; <UNPREDICTABLE>
     6ec:	00000000 	andeq	r0, r0, r0
     6f0:	25011101 	strcs	r1, [r1, #-257]	; 0x101
     6f4:	030b130e 	movweq	r1, #45838	; 0xb30e
     6f8:	110e1b0e 	tstne	lr, lr, lsl #22
     6fc:	10061201 	andne	r1, r6, r1, lsl #4
     700:	02000017 	andeq	r0, r0, #23
     704:	0b0b0024 	bleq	2c079c <__bss_end__+0x2b684c>
     708:	08030b3e 	stmdaeq	r3, {r1, r2, r3, r4, r5, r8, r9, fp}
     70c:	24030000 	strcs	r0, [r3], #-0
     710:	3e0b0b00 	vmlacc.f64	d0, d11, d0
     714:	000e030b 	andeq	r0, lr, fp, lsl #6
     718:	012e0400 	teqeq	lr, r0, lsl #8
     71c:	0e03193f 	mcreq	9, 0, r1, cr3, cr15, {1}
     720:	0b3b0b3a 	bleq	ec3410 <__bss_end__+0xeb94c0>
     724:	01111927 	tsteq	r1, r7, lsr #18
     728:	18400612 	stmdane	r0, {r1, r4, r9, sl}^
     72c:	01194297 			; <UNDEFINED> instruction: 0x01194297
     730:	05000013 	streq	r0, [r0, #-19]
     734:	08030034 	stmdaeq	r3, {r2, r4, r5}
     738:	0b3b0b3a 	bleq	ec3428 <__bss_end__+0xeb94d8>
     73c:	17021349 	strne	r1, [r2, -r9, asr #6]
     740:	2e060000 	cdpcs	0, 0, cr0, cr6, cr0, {0}
     744:	03193f01 	tsteq	r9, #1, 30
     748:	3b0b3a0e 	blcc	2cef88 <__bss_end__+0x2c5038>
     74c:	1119270b 	tstne	r9, fp, lsl #14
     750:	40061201 	andmi	r1, r6, r1, lsl #4
     754:	19429718 	stmdbne	r2, {r3, r4, r8, r9, sl, ip, pc}^
     758:	01000000 	mrseq	r0, (UNDEF: 0)
     75c:	0e250111 	mcreq	1, 1, r0, cr5, cr1, {0}
     760:	0e030b13 	vmoveq.32	d3[0], r0
     764:	01110e1b 	tsteq	r1, fp, lsl lr
     768:	17100612 			; <UNDEFINED> instruction: 0x17100612
     76c:	24020000 	strcs	r0, [r2], #-0
     770:	3e0b0b00 	vmlacc.f64	d0, d11, d0
     774:	0008030b 	andeq	r0, r8, fp, lsl #6
     778:	00240300 	eoreq	r0, r4, r0, lsl #6
     77c:	0b3e0b0b 	bleq	f833b0 <__bss_end__+0xf79460>
     780:	00000e03 	andeq	r0, r0, r3, lsl #28
     784:	0b000f04 	bleq	439c <_start-0x3c64>
     788:	0013490b 	andseq	r4, r3, fp, lsl #18
     78c:	00260500 	eoreq	r0, r6, r0, lsl #10
     790:	00001349 	andeq	r1, r0, r9, asr #6
     794:	3f012e06 	svccc	0x00012e06
     798:	3a0e0319 	bcc	381404 <__bss_end__+0x3774b4>
     79c:	270b3b0b 	strcs	r3, [fp, -fp, lsl #22]
     7a0:	12011119 	andne	r1, r1, #1073741830	; 0x40000006
     7a4:	97184006 	ldrls	r4, [r8, -r6]
     7a8:	13011942 	movwne	r1, #6466	; 0x1942
     7ac:	89070000 	stmdbhi	r7, {}	; <UNPREDICTABLE>
     7b0:	11010182 	smlabbne	r1, r2, r1, r0
     7b4:	00130101 	andseq	r0, r3, r1, lsl #2
     7b8:	828a0800 	addhi	r0, sl, #0, 16
     7bc:	18020001 	stmdane	r2, {r0}
     7c0:	00184291 	mulseq	r8, r1, r2
     7c4:	82890900 	addhi	r0, r9, #0, 18
     7c8:	01110101 	tsteq	r1, r1, lsl #2
     7cc:	13011331 	movwne	r1, #4913	; 0x1331
     7d0:	890a0000 	stmdbhi	sl, {}	; <UNPREDICTABLE>
     7d4:	11000182 	smlabbne	r0, r2, r1, r0
     7d8:	00133101 	andseq	r3, r3, r1, lsl #2
     7dc:	01150b00 	tsteq	r5, r0, lsl #22
     7e0:	13491927 	movtne	r1, #39207	; 0x9927
     7e4:	00001301 	andeq	r1, r0, r1, lsl #6
     7e8:	4900050c 	stmdbmi	r0, {r2, r3, r8, sl}
     7ec:	0d000013 	stceq	0, cr0, [r0, #-76]	; 0xffffffb4
     7f0:	0e030034 	mcreq	0, 0, r0, cr3, cr4, {1}
     7f4:	0b3b0b3a 	bleq	ec34e4 <__bss_end__+0xeb9594>
     7f8:	193f1349 	ldmdbne	pc!, {r0, r3, r6, r8, r9, ip}	; <UNPREDICTABLE>
     7fc:	0000193c 	andeq	r1, r0, ip, lsr r9
     800:	3f012e0e 	svccc	0x00012e0e
     804:	3a0e0319 	bcc	381470 <__bss_end__+0x377520>
     808:	270b3b0b 	strcs	r3, [fp, -fp, lsl #22]
     80c:	01193c19 	tsteq	r9, r9, lsl ip
     810:	0f000013 	svceq	0x00000013
     814:	193f002e 	ldmdbne	pc!, {r1, r2, r3, r5}	; <UNPREDICTABLE>
     818:	0b3a0e03 	bleq	e8402c <__bss_end__+0xe7a0dc>
     81c:	19270b3b 	stmdbne	r7!, {r0, r1, r3, r4, r5, r8, r9, fp}
     820:	0000193c 	andeq	r1, r0, ip, lsr r9
     824:	01110100 	tsteq	r1, r0, lsl #2
     828:	0b130e25 	bleq	4c40c4 <__bss_end__+0x4ba174>
     82c:	0e1b0e03 	cdpeq	14, 1, cr0, cr11, cr3, {0}
     830:	06120111 			; <UNDEFINED> instruction: 0x06120111
     834:	00001710 	andeq	r1, r0, r0, lsl r7
     838:	0b002402 	bleq	9848 <gpio_set0>
     83c:	030b3e0b 	movweq	r3, #48651	; 0xbe0b
     840:	03000008 	movweq	r0, #8
     844:	0b0b0024 	bleq	2c08dc <__bss_end__+0x2b698c>
     848:	0e030b3e 	vmoveq.16	d3[0], r0
     84c:	16040000 	strne	r0, [r4], -r0
     850:	3a0e0300 	bcc	381458 <__bss_end__+0x377508>
     854:	490b3b0b 	stmdbmi	fp, {r0, r1, r3, r8, r9, fp, ip, sp}
     858:	05000013 	streq	r0, [r0, #-19]
     85c:	0b0b000f 	bleq	2c08a0 <__bss_end__+0x2b6950>
     860:	00001349 	andeq	r1, r0, r9, asr #6
     864:	49002606 	stmdbmi	r0, {r1, r2, r9, sl, sp}
     868:	07000013 	smladeq	r0, r3, r0, r0
     86c:	0b0b0113 	bleq	2c0cc0 <__bss_end__+0x2b6d70>
     870:	0b3b0b3a 	bleq	ec3560 <__bss_end__+0xeb9610>
     874:	00001301 	andeq	r1, r0, r1, lsl #6
     878:	03000d08 	movweq	r0, #3336	; 0xd08
     87c:	3b0b3a08 	blcc	2cf0a4 <__bss_end__+0x2c5154>
     880:	3813490b 	ldmdacc	r3, {r0, r1, r3, r8, fp, lr}
     884:	0900000b 	stmdbeq	r0, {r0, r1, r3}
     888:	0e03000d 	cdpeq	0, 0, cr0, cr3, cr13, {0}
     88c:	0b3b0b3a 	bleq	ec357c <__bss_end__+0xeb962c>
     890:	0b381349 	bleq	e055bc <__bss_end__+0xdfb66c>
     894:	040a0000 	streq	r0, [sl], #-0
     898:	3a0b0b01 	bcc	2c34a4 <__bss_end__+0x2b9554>
     89c:	010b3b0b 	tsteq	fp, fp, lsl #22
     8a0:	0b000013 	bleq	8f4 <_start-0x770c>
     8a4:	0e030028 	cdpeq	0, 0, cr0, cr3, cr8, {1}
     8a8:	00000d1c 	andeq	r0, r0, ip, lsl sp
     8ac:	03012e0c 	movweq	r2, #7692	; 0x1e0c
     8b0:	3b0b3a0e 	blcc	2cf0f0 <__bss_end__+0x2c51a0>
     8b4:	4919270b 	ldmdbmi	r9, {r0, r1, r3, r8, r9, sl, sp}
     8b8:	12011113 	andne	r1, r1, #-1073741820	; 0xc0000004
     8bc:	97184006 	ldrls	r4, [r8, -r6]
     8c0:	13011942 	movwne	r1, #6466	; 0x1942
     8c4:	050d0000 	streq	r0, [sp, #-0]
     8c8:	3a080300 	bcc	2014d0 <__bss_end__+0x1f7580>
     8cc:	490b3b0b 	stmdbmi	fp, {r0, r1, r3, r8, r9, fp, ip, sp}
     8d0:	00170213 	andseq	r0, r7, r3, lsl r2
     8d4:	82890e00 	addhi	r0, r9, #0, 28
     8d8:	01110101 	tsteq	r1, r1, lsl #2
     8dc:	00001331 	andeq	r1, r0, r1, lsr r3
     8e0:	01828a0f 	orreq	r8, r2, pc, lsl #20
     8e4:	91180200 	tstls	r8, r0, lsl #4
     8e8:	00001842 	andeq	r1, r0, r2, asr #16
     8ec:	3f012e10 	svccc	0x00012e10
     8f0:	3a0e0319 	bcc	38155c <__bss_end__+0x37760c>
     8f4:	110b3b0b 	tstne	fp, fp, lsl #22
     8f8:	40061201 	andmi	r1, r6, r1, lsl #4
     8fc:	19429718 	stmdbne	r2, {r3, r4, r8, r9, sl, ip, pc}^
     900:	00001301 	andeq	r1, r0, r1, lsl #6
     904:	03003411 	movweq	r3, #1041	; 0x411
     908:	3b0b3a0e 	blcc	2cf148 <__bss_end__+0x2c51f8>
     90c:	3f13490b 	svccc	0x0013490b
     910:	00193c19 	andseq	r3, r9, r9, lsl ip
     914:	002e1200 	eoreq	r1, lr, r0, lsl #4
     918:	0e03193f 	mcreq	9, 0, r1, cr3, cr15, {1}
     91c:	0b3b0b3a 	bleq	ec360c <__bss_end__+0xeb96bc>
     920:	193c1927 	ldmdbne	ip!, {r0, r1, r2, r5, r8, fp, ip}
     924:	34130000 	ldrcc	r0, [r3], #-0
     928:	3a080300 	bcc	201530 <__bss_end__+0x1f75e0>
     92c:	490b3b0b 	stmdbmi	fp, {r0, r1, r3, r8, r9, fp, ip, sp}
     930:	00170213 	andseq	r0, r7, r3, lsl r2
     934:	00341400 	eorseq	r1, r4, r0, lsl #8
     938:	0b3a0e03 	bleq	e8414c <__bss_end__+0xe7a1fc>
     93c:	13490b3b 	movtne	r0, #39739	; 0x9b3b
     940:	89150000 	ldmdbhi	r5, {}	; <UNPREDICTABLE>
     944:	11000182 	smlabbne	r0, r2, r1, r0
     948:	00133101 	andseq	r3, r3, r1, lsl #2
     94c:	82891600 	addhi	r1, r9, #0, 12
     950:	01110101 	tsteq	r1, r1, lsl #2
     954:	13011331 	movwne	r1, #4913	; 0x1331
     958:	34170000 	ldrcc	r0, [r7], #-0
     95c:	3a0e0300 	bcc	381564 <__bss_end__+0x377614>
     960:	490b3b0b 	stmdbmi	fp, {r0, r1, r3, r8, r9, fp, ip, sp}
     964:	00180213 	andseq	r0, r8, r3, lsl r2
     968:	01151800 	tsteq	r5, r0, lsl #16
     96c:	13491927 	movtne	r1, #39207	; 0x9927
     970:	00001301 	andeq	r1, r0, r1, lsl #6
     974:	49000519 	stmdbmi	r0, {r0, r3, r4, r8, sl}
     978:	1a000013 	bne	9cc <_start-0x7634>
     97c:	193f012e 	ldmdbne	pc!, {r1, r2, r3, r5, r8}	; <UNPREDICTABLE>
     980:	0b3a0e03 	bleq	e84194 <__bss_end__+0xe7a244>
     984:	19270b3b 	stmdbne	r7!, {r0, r1, r3, r4, r5, r8, r9, fp}
     988:	1301193c 	movwne	r1, #6460	; 0x193c
     98c:	2e1b0000 	cdpcs	0, 1, cr0, cr11, cr0, {0}
     990:	03193f00 	tsteq	r9, #0, 30
     994:	3b0b3a0e 	blcc	2cf1d4 <__bss_end__+0x2c5284>
     998:	4919270b 	ldmdbmi	r9, {r0, r1, r3, r8, r9, sl, sp}
     99c:	00193c13 	andseq	r3, r9, r3, lsl ip
     9a0:	012e1c00 	teqeq	lr, r0, lsl #24
     9a4:	0e03193f 	mcreq	9, 0, r1, cr3, cr15, {1}
     9a8:	0b3b0b3a 	bleq	ec3698 <__bss_end__+0xeb9748>
     9ac:	13491927 	movtne	r1, #39207	; 0x9927
     9b0:	1301193c 	movwne	r1, #6460	; 0x193c
     9b4:	181d0000 	ldmdane	sp, {}	; <UNPREDICTABLE>
     9b8:	00000000 	andeq	r0, r0, r0
     9bc:	25011101 	strcs	r1, [r1, #-257]	; 0x101
     9c0:	030b130e 	movweq	r1, #45838	; 0xb30e
     9c4:	550e1b0e 	strpl	r1, [lr, #-2830]	; 0xb0e
     9c8:	10011117 	andne	r1, r1, r7, lsl r1
     9cc:	02000017 	andeq	r0, r0, #23
     9d0:	0b0b0024 	bleq	2c0a68 <__bss_end__+0x2b6b18>
     9d4:	08030b3e 	stmdaeq	r3, {r1, r2, r3, r4, r5, r8, r9, fp}
     9d8:	24030000 	strcs	r0, [r3], #-0
     9dc:	3e0b0b00 	vmlacc.f64	d0, d11, d0
     9e0:	000e030b 	andeq	r0, lr, fp, lsl #6
     9e4:	012e0400 	teqeq	lr, r0, lsl #8
     9e8:	0e03193f 	mcreq	9, 0, r1, cr3, cr15, {1}
     9ec:	0b3b0b3a 	bleq	ec36dc <__bss_end__+0xeb978c>
     9f0:	13491927 	movtne	r1, #39207	; 0x9927
     9f4:	06120111 			; <UNDEFINED> instruction: 0x06120111
     9f8:	42971840 	addsmi	r1, r7, #64, 16	; 0x400000
     9fc:	00130119 	andseq	r0, r3, r9, lsl r1
     a00:	00340500 	eorseq	r0, r4, r0, lsl #10
     a04:	0b3a0e03 	bleq	e84218 <__bss_end__+0xe7a2c8>
     a08:	13490b3b 	movtne	r0, #39739	; 0x9b3b
     a0c:	00001702 	andeq	r1, r0, r2, lsl #14
     a10:	3f012e06 	svccc	0x00012e06
     a14:	3a0e0319 	bcc	381680 <__bss_end__+0x377730>
     a18:	270b3b0b 	strcs	r3, [fp, -fp, lsl #22]
     a1c:	12011119 	andne	r1, r1, #1073741830	; 0x40000006
     a20:	97184006 	ldrls	r4, [r8, -r6]
     a24:	13011942 	movwne	r1, #6466	; 0x1942
     a28:	34070000 	strcc	r0, [r7], #-0
     a2c:	3a0e0300 	bcc	381634 <__bss_end__+0x3776e4>
     a30:	490b3b0b 	stmdbmi	fp, {r0, r1, r3, r8, r9, fp, ip, sp}
     a34:	00061c13 	andeq	r1, r6, r3, lsl ip
     a38:	00340800 	eorseq	r0, r4, r0, lsl #16
     a3c:	0b3a0e03 	bleq	e84250 <__bss_end__+0xe7a300>
     a40:	13490b3b 	movtne	r0, #39739	; 0x9b3b
     a44:	00000b1c 	andeq	r0, r0, ip, lsl fp
     a48:	01828909 	orreq	r8, r2, r9, lsl #18
     a4c:	31011100 	mrscc	r1, (UNDEF: 17)
     a50:	0a000013 	beq	aa4 <_start-0x755c>
     a54:	01018289 	smlabbeq	r1, r9, r2, r8
     a58:	13310111 	teqne	r1, #1073741828	; 0x40000004
     a5c:	00001301 	andeq	r1, r0, r1, lsl #6
     a60:	01828a0b 	orreq	r8, r2, fp, lsl #20
     a64:	91180200 	tstls	r8, r0, lsl #4
     a68:	00001842 	andeq	r1, r0, r2, asr #16
     a6c:	0182890c 	orreq	r8, r2, ip, lsl #18
     a70:	31011101 	tstcc	r1, r1, lsl #2
     a74:	0d000013 	stceq	0, cr0, [r0, #-76]	; 0xffffffb4
     a78:	13490026 	movtne	r0, #36902	; 0x9026
     a7c:	2e0e0000 	cdpcs	0, 0, cr0, cr14, cr0, {0}
     a80:	03193f01 	tsteq	r9, #1, 30
     a84:	3b0b3a0e 	blcc	2cf2c4 <__bss_end__+0x2c5374>
     a88:	3c19270b 	ldccc	7, cr2, [r9], {11}
     a8c:	00130119 	andseq	r0, r3, r9, lsl r1
     a90:	00050f00 	andeq	r0, r5, r0, lsl #30
     a94:	00001349 	andeq	r1, r0, r9, asr #6
     a98:	3f012e10 	svccc	0x00012e10
     a9c:	3a0e0319 	bcc	381708 <__bss_end__+0x3777b8>
     aa0:	270b3b0b 	strcs	r3, [fp, -fp, lsl #22]
     aa4:	00193c19 	andseq	r3, r9, r9, lsl ip
     aa8:	11010000 	mrsne	r0, (UNDEF: 1)
     aac:	130e2501 	movwne	r2, #58625	; 0xe501
     ab0:	1b0e030b 	blne	3816e4 <__bss_end__+0x377794>
     ab4:	1201110e 	andne	r1, r1, #-2147483645	; 0x80000003
     ab8:	00171006 	andseq	r1, r7, r6
     abc:	00240200 	eoreq	r0, r4, r0, lsl #4
     ac0:	0b3e0b0b 	bleq	f836f4 <__bss_end__+0xf797a4>
     ac4:	00000803 	andeq	r0, r0, r3, lsl #16
     ac8:	0b002403 	bleq	9adc <__FUNCTION__.4376+0x50>
     acc:	030b3e0b 	movweq	r3, #48651	; 0xbe0b
     ad0:	0400000e 	streq	r0, [r0], #-14
     ad4:	193f012e 	ldmdbne	pc!, {r1, r2, r3, r5, r8}	; <UNPREDICTABLE>
     ad8:	0b3a0e03 	bleq	e842ec <__bss_end__+0xe7a39c>
     adc:	19270b3b 	stmdbne	r7!, {r0, r1, r3, r4, r5, r8, r9, fp}
     ae0:	06120111 			; <UNDEFINED> instruction: 0x06120111
     ae4:	42971840 	addsmi	r1, r7, #64, 16	; 0x400000
     ae8:	00130119 	andseq	r0, r3, r9, lsl r1
     aec:	00050500 	andeq	r0, r5, r0, lsl #10
     af0:	0b3a0e03 	bleq	e84304 <__bss_end__+0xe7a3b4>
     af4:	13490b3b 	movtne	r0, #39739	; 0x9b3b
     af8:	00001702 	andeq	r1, r0, r2, lsl #14
     afc:	3f012e06 	svccc	0x00012e06
     b00:	3a0e0319 	bcc	38176c <__bss_end__+0x37781c>
     b04:	270b3b0b 	strcs	r3, [fp, -fp, lsl #22]
     b08:	11134919 	tstne	r3, r9, lsl r9
     b0c:	40061201 	andmi	r1, r6, r1, lsl #4
     b10:	19429718 	stmdbne	r2, {r3, r4, r8, r9, sl, ip, pc}^
     b14:	00001301 	andeq	r1, r0, r1, lsl #6
     b18:	01828907 	orreq	r8, r2, r7, lsl #18
     b1c:	31011101 	tstcc	r1, r1, lsl #2
     b20:	08000013 	stmdaeq	r0, {r0, r1, r4}
     b24:	0001828a 	andeq	r8, r1, sl, lsl #5
     b28:	42911802 	addsmi	r1, r1, #131072	; 0x20000
     b2c:	09000018 	stmdbeq	r0, {r3, r4}
     b30:	08030034 	stmdaeq	r3, {r2, r4, r5}
     b34:	0b3b0b3a 	bleq	ec3824 <__bss_end__+0xeb98d4>
     b38:	18021349 	stmdane	r2, {r0, r3, r6, r8, r9, ip}
     b3c:	890a0000 	stmdbhi	sl, {}	; <UNPREDICTABLE>
     b40:	11000182 	smlabbne	r0, r2, r1, r0
     b44:	00133101 	andseq	r3, r3, r1, lsl #2
     b48:	00050b00 	andeq	r0, r5, r0, lsl #22
     b4c:	0b3a0803 	bleq	e82b60 <__bss_end__+0xe78c10>
     b50:	13490b3b 	movtne	r0, #39739	; 0x9b3b
     b54:	00001702 	andeq	r1, r0, r2, lsl #14
     b58:	11010b0c 	tstne	r1, ip, lsl #22
     b5c:	01061201 	tsteq	r6, r1, lsl #4
     b60:	0d000013 	stceq	0, cr0, [r0, #-76]	; 0xffffffb4
     b64:	08030034 	stmdaeq	r3, {r2, r4, r5}
     b68:	0b3b0b3a 	bleq	ec3858 <__bss_end__+0xeb9908>
     b6c:	17021349 	strne	r1, [r2, -r9, asr #6]
     b70:	2e0e0000 	cdpcs	0, 0, cr0, cr14, cr0, {0}
     b74:	03193f01 	tsteq	r9, #1, 30
     b78:	3b0b3a0e 	blcc	2cf3b8 <__bss_end__+0x2c5468>
     b7c:	4919270b 	ldmdbmi	r9, {r0, r1, r3, r8, r9, sl, sp}
     b80:	00193c13 	andseq	r3, r9, r3, lsl ip
     b84:	00050f00 	andeq	r0, r5, r0, lsl #30
     b88:	00001349 	andeq	r1, r0, r9, asr #6
     b8c:	01110100 	tsteq	r1, r0, lsl #2
     b90:	0b130e25 	bleq	4c442c <__bss_end__+0x4ba4dc>
     b94:	0e1b0e03 	cdpeq	14, 1, cr0, cr11, cr3, {0}
     b98:	06120111 			; <UNDEFINED> instruction: 0x06120111
     b9c:	00001710 	andeq	r1, r0, r0, lsl r7
     ba0:	0b002402 	bleq	9bb0 <__bss_start__+0x6c>
     ba4:	030b3e0b 	movweq	r3, #48651	; 0xbe0b
     ba8:	0300000e 	movweq	r0, #14
     bac:	0b0b0024 	bleq	2c0c44 <__bss_end__+0x2b6cf4>
     bb0:	08030b3e 	stmdaeq	r3, {r1, r2, r3, r4, r5, r8, r9, fp}
     bb4:	04040000 	streq	r0, [r4], #-0
     bb8:	3a0b0b01 	bcc	2c37c4 <__bss_end__+0x2b9874>
     bbc:	010b3b0b 	tsteq	fp, fp, lsl #22
     bc0:	05000013 	streq	r0, [r0, #-19]
     bc4:	0e030028 	cdpeq	0, 0, cr0, cr3, cr8, {1}
     bc8:	00000d1c 	andeq	r0, r0, ip, lsl sp
     bcc:	03001606 	movweq	r1, #1542	; 0x606
     bd0:	3b0b3a0e 	blcc	2cf410 <__bss_end__+0x2c54c0>
     bd4:	0013490b 	andseq	r4, r3, fp, lsl #18
     bd8:	012e0700 	teqeq	lr, r0, lsl #14
     bdc:	0e03193f 	mcreq	9, 0, r1, cr3, cr15, {1}
     be0:	0b3b0b3a 	bleq	ec38d0 <__bss_end__+0xeb9980>
     be4:	01111927 	tsteq	r1, r7, lsr #18
     be8:	18400612 	stmdane	r0, {r1, r4, r9, sl}^
     bec:	01194297 			; <UNDEFINED> instruction: 0x01194297
     bf0:	08000013 	stmdaeq	r0, {r0, r1, r4}
     bf4:	08030005 	stmdaeq	r3, {r0, r2}
     bf8:	0b3b0b3a 	bleq	ec38e8 <__bss_end__+0xeb9998>
     bfc:	17021349 	strne	r1, [r2, -r9, asr #6]
     c00:	34090000 	strcc	r0, [r9], #-0
     c04:	3a0e0300 	bcc	38180c <__bss_end__+0x3778bc>
     c08:	490b3b0b 	stmdbmi	fp, {r0, r1, r3, r8, r9, fp, ip, sp}
     c0c:	00170213 	andseq	r0, r7, r3, lsl r2
     c10:	82890a00 	addhi	r0, r9, #0, 20
     c14:	01110101 	tsteq	r1, r1, lsl #2
     c18:	13011331 	movwne	r1, #4913	; 0x1331
     c1c:	8a0b0000 	bhi	2c0c24 <__bss_end__+0x2b6cd4>
     c20:	02000182 	andeq	r0, r0, #-2147483616	; 0x80000020
     c24:	18429118 	stmdane	r2, {r3, r4, r8, ip, pc}^
     c28:	890c0000 	stmdbhi	ip, {}	; <UNPREDICTABLE>
     c2c:	11010182 	smlabbne	r1, r2, r1, r0
     c30:	00133101 	andseq	r3, r3, r1, lsl #2
     c34:	000f0d00 	andeq	r0, pc, r0, lsl #26
     c38:	13490b0b 	movtne	r0, #39691	; 0x9b0b
     c3c:	350e0000 	strcc	r0, [lr, #-0]
     c40:	00134900 	andseq	r4, r3, r0, lsl #18
     c44:	012e0f00 	teqeq	lr, r0, lsl #30
     c48:	0e03193f 	mcreq	9, 0, r1, cr3, cr15, {1}
     c4c:	0b3b0b3a 	bleq	ec393c <__bss_end__+0xeb99ec>
     c50:	13491927 	movtne	r1, #39207	; 0x9927
     c54:	06120111 			; <UNDEFINED> instruction: 0x06120111
     c58:	42971840 	addsmi	r1, r7, #64, 16	; 0x400000
     c5c:	00130119 	andseq	r0, r3, r9, lsl r1
     c60:	00341000 	eorseq	r1, r4, r0
     c64:	0b3a0803 	bleq	e82c78 <__bss_end__+0xe78d28>
     c68:	13490b3b 	movtne	r0, #39739	; 0x9b3b
     c6c:	00001702 	andeq	r1, r0, r2, lsl #14
     c70:	01828911 	orreq	r8, r2, r1, lsl r9
     c74:	31011100 	mrscc	r1, (UNDEF: 17)
     c78:	12000013 	andne	r0, r0, #19
     c7c:	0e030005 	cdpeq	0, 0, cr0, cr3, cr5, {0}
     c80:	0b3b0b3a 	bleq	ec3970 <__bss_end__+0xeb9a20>
     c84:	17021349 	strne	r1, [r2, -r9, asr #6]
     c88:	2e130000 	cdpcs	0, 1, cr0, cr3, cr0, {0}
     c8c:	03193f01 	tsteq	r9, #1, 30
     c90:	3b0b3a0e 	blcc	2cf4d0 <__bss_end__+0x2c5580>
     c94:	49192705 	ldmdbmi	r9, {r0, r2, r8, r9, sl, sp}
     c98:	12011113 	andne	r1, r1, #-1073741820	; 0xc0000004
     c9c:	97184006 	ldrls	r4, [r8, -r6]
     ca0:	13011942 	movwne	r1, #6466	; 0x1942
     ca4:	05140000 	ldreq	r0, [r4, #-0]
     ca8:	3a0e0300 	bcc	3818b0 <__bss_end__+0x377960>
     cac:	49053b0b 	stmdbmi	r5, {r0, r1, r3, r8, r9, fp, ip, sp}
     cb0:	00170213 	andseq	r0, r7, r3, lsl r2
     cb4:	012e1500 	teqeq	lr, r0, lsl #10
     cb8:	0e03193f 	mcreq	9, 0, r1, cr3, cr15, {1}
     cbc:	053b0b3a 	ldreq	r0, [fp, #-2874]!	; 0xb3a
     cc0:	01111927 	tsteq	r1, r7, lsr #18
     cc4:	18400612 	stmdane	r0, {r1, r4, r9, sl}^
     cc8:	01194297 			; <UNDEFINED> instruction: 0x01194297
     ccc:	16000013 			; <UNDEFINED> instruction: 0x16000013
     cd0:	08030005 	stmdaeq	r3, {r0, r2}
     cd4:	053b0b3a 	ldreq	r0, [fp, #-2874]!	; 0xb3a
     cd8:	17021349 	strne	r1, [r2, -r9, asr #6]
     cdc:	34170000 	ldrcc	r0, [r7], #-0
     ce0:	3a0e0300 	bcc	3818e8 <__bss_end__+0x377998>
     ce4:	49053b0b 	stmdbmi	r5, {r0, r1, r3, r8, r9, fp, ip, sp}
     ce8:	00170213 	andseq	r0, r7, r3, lsl r2
     cec:	010b1800 	tsteq	fp, r0, lsl #16
     cf0:	06120111 			; <UNDEFINED> instruction: 0x06120111
     cf4:	00001301 	andeq	r1, r0, r1, lsl #6
     cf8:	03003419 	movweq	r3, #1049	; 0x419
     cfc:	3b0b3a0e 	blcc	2cf53c <__bss_end__+0x2c55ec>
     d00:	3f13490b 	svccc	0x0013490b
     d04:	00180219 	andseq	r0, r8, r9, lsl r2
     d08:	00341a00 	eorseq	r1, r4, r0, lsl #20
     d0c:	0b3a0e03 	bleq	e84520 <__bss_end__+0xe7a5d0>
     d10:	1349053b 	movtne	r0, #38203	; 0x953b
     d14:	1802193f 	stmdane	r2, {r0, r1, r2, r3, r4, r5, r8, fp, ip}
     d18:	2e1b0000 	cdpcs	0, 1, cr0, cr11, cr0, {0}
     d1c:	03193f01 	tsteq	r9, #1, 30
     d20:	3b0b3a0e 	blcc	2cf560 <__bss_end__+0x2c5610>
     d24:	4919270b 	ldmdbmi	r9, {r0, r1, r3, r8, r9, sl, sp}
     d28:	01193c13 	tsteq	r9, r3, lsl ip
     d2c:	1c000013 	stcne	0, cr0, [r0], {19}
     d30:	13490005 	movtne	r0, #36869	; 0x9005
     d34:	261d0000 	ldrcs	r0, [sp], -r0
     d38:	00134900 	andseq	r4, r3, r0, lsl #18
     d3c:	00351e00 	eorseq	r1, r5, r0, lsl #28
     d40:	2e1f0000 	cdpcs	0, 1, cr0, cr15, cr0, {0}
     d44:	03193f01 	tsteq	r9, #1, 30
     d48:	3b0b3a0e 	blcc	2cf588 <__bss_end__+0x2c5638>
     d4c:	3c19270b 	ldccc	7, cr2, [r9], {11}
     d50:	00130119 	andseq	r0, r3, r9, lsl r1
     d54:	002e2000 	eoreq	r2, lr, r0
     d58:	0e03193f 	mcreq	9, 0, r1, cr3, cr15, {1}
     d5c:	0b3b0b3a 	bleq	ec3a4c <__bss_end__+0xeb9afc>
     d60:	193c1927 	ldmdbne	ip!, {r0, r1, r2, r5, r8, fp, ip}
     d64:	01000000 	mrseq	r0, (UNDEF: 0)
     d68:	0e250111 	mcreq	1, 1, r0, cr5, cr1, {0}
     d6c:	0e030b13 	vmoveq.32	d3[0], r0
     d70:	01110e1b 	tsteq	r1, fp, lsl lr
     d74:	17100612 			; <UNDEFINED> instruction: 0x17100612
     d78:	24020000 	strcs	r0, [r2], #-0
     d7c:	3e0b0b00 	vmlacc.f64	d0, d11, d0
     d80:	0008030b 	andeq	r0, r8, fp, lsl #6
     d84:	00240300 	eoreq	r0, r4, r0, lsl #6
     d88:	0b3e0b0b 	bleq	f839bc <__bss_end__+0xf79a6c>
     d8c:	00000e03 	andeq	r0, r0, r3, lsl #28
     d90:	03001604 	movweq	r1, #1540	; 0x604
     d94:	3b0b3a0e 	blcc	2cf5d4 <__bss_end__+0x2c5684>
     d98:	0013490b 	andseq	r4, r3, fp, lsl #18
     d9c:	000f0500 	andeq	r0, pc, r0, lsl #10
     da0:	00000b0b 	andeq	r0, r0, fp, lsl #22
     da4:	0b000f06 	bleq	49c4 <_start-0x363c>
     da8:	0013490b 	andseq	r4, r3, fp, lsl #18
     dac:	00260700 	eoreq	r0, r6, r0, lsl #14
     db0:	00001349 	andeq	r1, r0, r9, asr #6
     db4:	0b011308 	bleq	459dc <__bss_end__+0x3ba8c>
     db8:	3b0b3a0b 	blcc	2cf5ec <__bss_end__+0x2c569c>
     dbc:	0013010b 	andseq	r0, r3, fp, lsl #2
     dc0:	000d0900 	andeq	r0, sp, r0, lsl #18
     dc4:	0b3a0803 	bleq	e82dd8 <__bss_end__+0xe78e88>
     dc8:	13490b3b 	movtne	r0, #39739	; 0x9b3b
     dcc:	00000b38 	andeq	r0, r0, r8, lsr fp
     dd0:	03000d0a 	movweq	r0, #3338	; 0xd0a
     dd4:	3b0b3a0e 	blcc	2cf614 <__bss_end__+0x2c56c4>
     dd8:	3813490b 	ldmdacc	r3, {r0, r1, r3, r8, fp, lr}
     ddc:	0b00000b 	bleq	e10 <_start-0x71f0>
     de0:	0e030113 	mcreq	1, 0, r0, cr3, cr3, {0}
     de4:	0b3a0b0b 	bleq	e83a18 <__bss_end__+0xe79ac8>
     de8:	13010b3b 	movwne	r0, #6971	; 0x1b3b
     dec:	0d0c0000 	stceq	0, cr0, [ip, #-0]
     df0:	490e0300 	stmdbmi	lr, {r8, r9}
     df4:	340b3813 	strcc	r3, [fp], #-2067	; 0x813
     df8:	0d000019 	stceq	0, cr0, [r0, #-100]	; 0xffffff9c
     dfc:	0e03012e 	adfeqsp	f0, f3, #0.5
     e00:	0b3b0b3a 	bleq	ec3af0 <__bss_end__+0xeb9ba0>
     e04:	0b201927 	bleq	8072a8 <__bss_end__+0x7fd358>
     e08:	00001301 	andeq	r1, r0, r1, lsl #6
     e0c:	0300050e 	movweq	r0, #1294	; 0x50e
     e10:	3b0b3a0e 	blcc	2cf650 <__bss_end__+0x2c5700>
     e14:	0013490b 	andseq	r4, r3, fp, lsl #18
     e18:	00050f00 	andeq	r0, r5, r0, lsl #30
     e1c:	0b3a0803 	bleq	e82e30 <__bss_end__+0xe78ee0>
     e20:	13490b3b 	movtne	r0, #39739	; 0x9b3b
     e24:	0b100000 	bleq	400e2c <__bss_end__+0x3f6edc>
     e28:	11000001 	tstne	r0, r1
     e2c:	0e030034 	mcreq	0, 0, r0, cr3, cr4, {1}
     e30:	0b3b0b3a 	bleq	ec3b20 <__bss_end__+0xeb9bd0>
     e34:	00001349 	andeq	r1, r0, r9, asr #6
     e38:	3f012e12 	svccc	0x00012e12
     e3c:	3a0e0319 	bcc	381aa8 <__bss_end__+0x377b58>
     e40:	270b3b0b 	strcs	r3, [fp, -fp, lsl #22]
     e44:	12011119 	andne	r1, r1, #1073741830	; 0x40000006
     e48:	97184006 	ldrls	r4, [r8, -r6]
     e4c:	13011942 	movwne	r1, #6466	; 0x1942
     e50:	05130000 	ldreq	r0, [r3, #-0]
     e54:	3a0e0300 	bcc	381a5c <__bss_end__+0x377b0c>
     e58:	490b3b0b 	stmdbmi	fp, {r0, r1, r3, r8, r9, fp, ip, sp}
     e5c:	00170213 	andseq	r0, r7, r3, lsl r2
     e60:	00051400 	andeq	r1, r5, r0, lsl #8
     e64:	0b3a0803 	bleq	e82e78 <__bss_end__+0xe78f28>
     e68:	13490b3b 	movtne	r0, #39739	; 0x9b3b
     e6c:	00001702 	andeq	r1, r0, r2, lsl #14
     e70:	03003415 	movweq	r3, #1045	; 0x415
     e74:	3b0b3a08 	blcc	2cf69c <__bss_end__+0x2c574c>
     e78:	0213490b 	andseq	r4, r3, #180224	; 0x2c000
     e7c:	16000018 			; <UNDEFINED> instruction: 0x16000018
     e80:	08030034 	stmdaeq	r3, {r2, r4, r5}
     e84:	0b3b0b3a 	bleq	ec3b74 <__bss_end__+0xeb9c24>
     e88:	17021349 	strne	r1, [r2, -r9, asr #6]
     e8c:	0b170000 	bleq	5c0e94 <__bss_end__+0x5b6f44>
     e90:	12011101 	andne	r1, r1, #1073741824	; 0x40000000
     e94:	00130106 	andseq	r0, r3, r6, lsl #2
     e98:	00341800 	eorseq	r1, r4, r0, lsl #16
     e9c:	0b3a0e03 	bleq	e846b0 <__bss_end__+0xe7a760>
     ea0:	13490b3b 	movtne	r0, #39739	; 0x9b3b
     ea4:	00001802 	andeq	r1, r0, r2, lsl #16
     ea8:	31011d19 	tstcc	r1, r9, lsl sp
     eac:	12011113 	andne	r1, r1, #-1073741820	; 0xc0000004
     eb0:	590b5806 	stmdbpl	fp, {r1, r2, fp, ip, lr}
     eb4:	0013010b 	andseq	r0, r3, fp, lsl #2
     eb8:	00051a00 	andeq	r1, r5, r0, lsl #20
     ebc:	17021331 	smladxne	r2, r1, r3, r1
     ec0:	051b0000 	ldreq	r0, [fp, #-0]
     ec4:	02133100 	andseq	r3, r3, #0, 2
     ec8:	1c000018 	stcne	0, cr0, [r0], {24}
     ecc:	13310005 	teqne	r1, #5
     ed0:	00000b1c 	andeq	r0, r0, ip, lsl fp
     ed4:	11010b1d 	tstne	r1, sp, lsl fp
     ed8:	00061201 	andeq	r1, r6, r1, lsl #4
     edc:	00341e00 	eorseq	r1, r4, r0, lsl #28
     ee0:	17021331 	smladxne	r2, r1, r3, r1
     ee4:	891f0000 	ldmdbhi	pc, {}	; <UNPREDICTABLE>
     ee8:	11010182 	smlabbne	r1, r2, r1, r0
     eec:	00133101 	andseq	r3, r3, r1, lsl #2
     ef0:	828a2000 	addhi	r2, sl, #0
     ef4:	18020001 	stmdane	r2, {r0}
     ef8:	00184291 	mulseq	r8, r1, r2
     efc:	011d2100 	tsteq	sp, r0, lsl #2
     f00:	01111331 	tsteq	r1, r1, lsr r3
     f04:	0b580612 	bleq	1602754 <__bss_end__+0x15f8804>
     f08:	00000b59 	andeq	r0, r0, r9, asr fp
     f0c:	03012e22 	movweq	r2, #7714	; 0x1e22
     f10:	3b0b3a0e 	blcc	2cf750 <__bss_end__+0x2c5800>
     f14:	4919270b 	ldmdbmi	r9, {r0, r1, r3, r8, r9, sl, sp}
     f18:	010b2013 	tsteq	fp, r3, lsl r0
     f1c:	23000013 	movwcs	r0, #19
     f20:	193f012e 	ldmdbne	pc!, {r1, r2, r3, r5, r8}	; <UNPREDICTABLE>
     f24:	0b3a0e03 	bleq	e84738 <__bss_end__+0xe7a7e8>
     f28:	19270b3b 	stmdbne	r7!, {r0, r1, r3, r4, r5, r8, r9, fp}
     f2c:	01111349 	tsteq	r1, r9, asr #6
     f30:	18400612 	stmdane	r0, {r1, r4, r9, sl}^
     f34:	01194297 			; <UNDEFINED> instruction: 0x01194297
     f38:	24000013 	strcs	r0, [r0], #-19
     f3c:	00018289 	andeq	r8, r1, r9, lsl #5
     f40:	13310111 	teqne	r1, #1073741828	; 0x40000004
     f44:	89250000 	stmdbhi	r5!, {}	; <UNPREDICTABLE>
     f48:	11010182 	smlabbne	r1, r2, r1, r0
     f4c:	01133101 	tsteq	r3, r1, lsl #2
     f50:	26000013 			; <UNDEFINED> instruction: 0x26000013
     f54:	0e030034 	mcreq	0, 0, r0, cr3, cr4, {1}
     f58:	0b3b0b3a 	bleq	ec3c48 <__bss_end__+0xeb9cf8>
     f5c:	17021349 	strne	r1, [r2, -r9, asr #6]
     f60:	05270000 	streq	r0, [r7, #-0]!
     f64:	00133100 	andseq	r3, r3, r0, lsl #2
     f68:	00052800 	andeq	r2, r5, r0, lsl #16
     f6c:	0b3a0e03 	bleq	e84780 <__bss_end__+0xe7a830>
     f70:	13490b3b 	movtne	r0, #39739	; 0x9b3b
     f74:	00001802 	andeq	r1, r0, r2, lsl #16
     f78:	03003429 	movweq	r3, #1065	; 0x429
     f7c:	3413490e 	ldrcc	r4, [r3], #-2318	; 0x90e
     f80:	00180219 	andseq	r0, r8, r9, lsl r2
     f84:	01012a00 	tsteq	r1, r0, lsl #20
     f88:	13011349 	movwne	r1, #4937	; 0x1349
     f8c:	212b0000 	teqcs	fp, r0
     f90:	2f134900 	svccs	0x00134900
     f94:	2c00000b 	stccs	0, cr0, [r0], {11}
     f98:	08030034 	stmdaeq	r3, {r2, r4, r5}
     f9c:	0b3b0b3a 	bleq	ec3c8c <__bss_end__+0xeb9d3c>
     fa0:	061c1349 	ldreq	r1, [ip], -r9, asr #6
     fa4:	342d0000 	strtcc	r0, [sp], #-0
     fa8:	3a080300 	bcc	201bb0 <__bss_end__+0x1f7c60>
     fac:	490b3b0b 	stmdbmi	fp, {r0, r1, r3, r8, r9, fp, ip, sp}
     fb0:	000b1c13 	andeq	r1, fp, r3, lsl ip
     fb4:	00052e00 	andeq	r2, r5, r0, lsl #28
     fb8:	0b3a0803 	bleq	e82fcc <__bss_end__+0xe7907c>
     fbc:	13490b3b 	movtne	r0, #39739	; 0x9b3b
     fc0:	00001802 	andeq	r1, r0, r2, lsl #16
     fc4:	0000182f 	andeq	r1, r0, pc, lsr #16
     fc8:	00213000 	eoreq	r3, r1, r0
     fcc:	052f1349 	streq	r1, [pc, #-841]!	; c8b <_start-0x7375>
     fd0:	2e310000 	cdpcs	0, 3, cr0, cr1, cr0, {0}
     fd4:	03193f01 	tsteq	r9, #1, 30
     fd8:	3b0b3a0e 	blcc	2cf818 <__bss_end__+0x2c58c8>
     fdc:	3c19270b 	ldccc	7, cr2, [r9], {11}
     fe0:	00130119 	andseq	r0, r3, r9, lsl r1
     fe4:	00053200 	andeq	r3, r5, r0, lsl #4
     fe8:	00001349 	andeq	r1, r0, r9, asr #6
     fec:	3f002e33 	svccc	0x00002e33
     ff0:	3a0e0319 	bcc	381c5c <__bss_end__+0x377d0c>
     ff4:	270b3b0b 	strcs	r3, [fp, -fp, lsl #22]
     ff8:	3c134919 	ldccc	9, cr4, [r3], {25}
     ffc:	34000019 	strcc	r0, [r0], #-25
    1000:	193f012e 	ldmdbne	pc!, {r1, r2, r3, r5, r8}	; <UNPREDICTABLE>
    1004:	0b3a0e03 	bleq	e84818 <__bss_end__+0xe7a8c8>
    1008:	19270b3b 	stmdbne	r7!, {r0, r1, r3, r4, r5, r8, r9, fp}
    100c:	193c1349 	ldmdbne	ip!, {r0, r3, r6, r8, r9, ip}
    1010:	00001301 	andeq	r1, r0, r1, lsl #6
    1014:	3f002e35 	svccc	0x00002e35
    1018:	3a0e0319 	bcc	381c84 <__bss_end__+0x377d34>
    101c:	270b3b0b 	strcs	r3, [fp, -fp, lsl #22]
    1020:	00193c19 	andseq	r3, r9, r9, lsl ip
    1024:	012e3600 	teqeq	lr, r0, lsl #12
    1028:	0e03193f 	mcreq	9, 0, r1, cr3, cr15, {1}
    102c:	0b3b0b3a 	bleq	ec3d1c <__bss_end__+0xeb9dcc>
    1030:	13491927 	movtne	r1, #39207	; 0x9927
    1034:	0000193c 	andeq	r1, r0, ip, lsr r9
    1038:	01110100 	tsteq	r1, r0, lsl #2
    103c:	0b130e25 	bleq	4c48d8 <__bss_end__+0x4ba988>
    1040:	0e1b0e03 	cdpeq	14, 1, cr0, cr11, cr3, {0}
    1044:	06120111 			; <UNDEFINED> instruction: 0x06120111
    1048:	00001710 	andeq	r1, r0, r0, lsl r7
    104c:	0b002402 	bleq	a05c <__bss_end__+0x10c>
    1050:	030b3e0b 	movweq	r3, #48651	; 0xbe0b
    1054:	03000008 	movweq	r0, #8
    1058:	0b0b0024 	bleq	2c10f0 <__bss_end__+0x2b71a0>
    105c:	0e030b3e 	vmoveq.16	d3[0], r0
    1060:	04040000 	streq	r0, [r4], #-0
    1064:	3a0b0b01 	bcc	2c3c70 <__bss_end__+0x2b9d20>
    1068:	010b3b0b 	tsteq	fp, fp, lsl #22
    106c:	05000013 	streq	r0, [r0, #-19]
    1070:	0e030028 	cdpeq	0, 0, cr0, cr3, cr8, {1}
    1074:	00000d1c 	andeq	r0, r0, ip, lsl sp
    1078:	03001606 	movweq	r1, #1542	; 0x606
    107c:	3b0b3a0e 	blcc	2cf8bc <__bss_end__+0x2c596c>
    1080:	0013490b 	andseq	r4, r3, fp, lsl #18
    1084:	012e0700 	teqeq	lr, r0, lsl #14
    1088:	0e03193f 	mcreq	9, 0, r1, cr3, cr15, {1}
    108c:	0b3b0b3a 	bleq	ec3d7c <__bss_end__+0xeb9e2c>
    1090:	01111927 	tsteq	r1, r7, lsr #18
    1094:	18400612 	stmdane	r0, {r1, r4, r9, sl}^
    1098:	01194297 			; <UNDEFINED> instruction: 0x01194297
    109c:	08000013 	stmdaeq	r0, {r0, r1, r4}
    10a0:	00018289 	andeq	r8, r1, r9, lsl #5
    10a4:	13310111 	teqne	r1, #1073741828	; 0x40000004
    10a8:	89090000 	stmdbhi	r9, {}	; <UNPREDICTABLE>
    10ac:	11010182 	smlabbne	r1, r2, r1, r0
    10b0:	01133101 	tsteq	r3, r1, lsl #2
    10b4:	0a000013 	beq	1108 <_start-0x6ef8>
    10b8:	0001828a 	andeq	r8, r1, sl, lsl #5
    10bc:	42911802 	addsmi	r1, r1, #131072	; 0x20000
    10c0:	0b000018 	bleq	1128 <_start-0x6ed8>
    10c4:	193f012e 	ldmdbne	pc!, {r1, r2, r3, r5, r8}	; <UNPREDICTABLE>
    10c8:	0b3a0e03 	bleq	e848dc <__bss_end__+0xe7a98c>
    10cc:	19270b3b 	stmdbne	r7!, {r0, r1, r3, r4, r5, r8, r9, fp}
    10d0:	01111349 	tsteq	r1, r9, asr #6
    10d4:	18400612 	stmdane	r0, {r1, r4, r9, sl}^
    10d8:	01194297 			; <UNDEFINED> instruction: 0x01194297
    10dc:	0c000013 	stceq	0, cr0, [r0], {19}
    10e0:	08030005 	stmdaeq	r3, {r0, r2}
    10e4:	0b3b0b3a 	bleq	ec3dd4 <__bss_end__+0xeb9e84>
    10e8:	17021349 	strne	r1, [r2, -r9, asr #6]
    10ec:	890d0000 	stmdbhi	sp, {}	; <UNPREDICTABLE>
    10f0:	11010182 	smlabbne	r1, r2, r1, r0
    10f4:	00133101 	andseq	r3, r3, r1, lsl #2
    10f8:	00340e00 	eorseq	r0, r4, r0, lsl #28
    10fc:	0b3a0e03 	bleq	e84910 <__bss_end__+0xe7a9c0>
    1100:	13490b3b 	movtne	r0, #39739	; 0x9b3b
    1104:	1802193f 	stmdane	r2, {r0, r1, r2, r3, r4, r5, r8, fp, ip}
    1108:	0f0f0000 	svceq	0x000f0000
    110c:	490b0b00 	stmdbmi	fp, {r8, r9, fp}
    1110:	10000013 	andne	r0, r0, r3, lsl r0
    1114:	13490035 	movtne	r0, #36917	; 0x9035
    1118:	2e110000 	cdpcs	0, 1, cr0, cr1, cr0, {0}
    111c:	03193f00 	tsteq	r9, #0, 30
    1120:	3b0b3a0e 	blcc	2cf960 <__bss_end__+0x2c5a10>
    1124:	3c19270b 	ldccc	7, cr2, [r9], {11}
    1128:	12000019 	andne	r0, r0, #25
    112c:	193f012e 	ldmdbne	pc!, {r1, r2, r3, r5, r8}	; <UNPREDICTABLE>
    1130:	0b3a0e03 	bleq	e84944 <__bss_end__+0xe7a9f4>
    1134:	19270b3b 	stmdbne	r7!, {r0, r1, r3, r4, r5, r8, r9, fp}
    1138:	1301193c 	movwne	r1, #6460	; 0x193c
    113c:	05130000 	ldreq	r0, [r3, #-0]
    1140:	00134900 	andseq	r4, r3, r0, lsl #18
    1144:	012e1400 	teqeq	lr, r0, lsl #8
    1148:	0e03193f 	mcreq	9, 0, r1, cr3, cr15, {1}
    114c:	0b3b0b3a 	bleq	ec3e3c <__bss_end__+0xeb9eec>
    1150:	13491927 	movtne	r1, #39207	; 0x9927
    1154:	1301193c 	movwne	r1, #6460	; 0x193c
    1158:	26150000 	ldrcs	r0, [r5], -r0
    115c:	00134900 	andseq	r4, r3, r0, lsl #18
    1160:	00351600 	eorseq	r1, r5, r0, lsl #12
    1164:	01000000 	mrseq	r0, (UNDEF: 0)
    1168:	0e250111 	mcreq	1, 1, r0, cr5, cr1, {0}
    116c:	0e030b13 	vmoveq.32	d3[0], r0
    1170:	01110e1b 	tsteq	r1, fp, lsl lr
    1174:	17100612 			; <UNDEFINED> instruction: 0x17100612
    1178:	24020000 	strcs	r0, [r2], #-0
    117c:	3e0b0b00 	vmlacc.f64	d0, d11, d0
    1180:	0008030b 	andeq	r0, r8, fp, lsl #6
    1184:	00160300 	andseq	r0, r6, r0, lsl #6
    1188:	0b3a0e03 	bleq	e8499c <__bss_end__+0xe7aa4c>
    118c:	13490b3b 	movtne	r0, #39739	; 0x9b3b
    1190:	24040000 	strcs	r0, [r4], #-0
    1194:	3e0b0b00 	vmlacc.f64	d0, d11, d0
    1198:	000e030b 	andeq	r0, lr, fp, lsl #6
    119c:	000f0500 	andeq	r0, pc, r0, lsl #10
    11a0:	00000b0b 	andeq	r0, r0, fp, lsl #22
    11a4:	0b011306 	bleq	45dc4 <__bss_end__+0x3be74>
    11a8:	3b0b3a0b 	blcc	2cf9dc <__bss_end__+0x2c5a8c>
    11ac:	0013010b 	andseq	r0, r3, fp, lsl #2
    11b0:	000d0700 	andeq	r0, sp, r0, lsl #14
    11b4:	0b3a0803 	bleq	e831c8 <__bss_end__+0xe79278>
    11b8:	13490b3b 	movtne	r0, #39739	; 0x9b3b
    11bc:	00000b38 	andeq	r0, r0, r8, lsr fp
    11c0:	03000d08 	movweq	r0, #3336	; 0xd08
    11c4:	3b0b3a0e 	blcc	2cfa04 <__bss_end__+0x2c5ab4>
    11c8:	3813490b 	ldmdacc	r3, {r0, r1, r3, r8, fp, lr}
    11cc:	0900000b 	stmdbeq	r0, {r0, r1, r3}
    11d0:	0b0b0104 	bleq	2c15e8 <__bss_end__+0x2b7698>
    11d4:	0b3b0b3a 	bleq	ec3ec4 <__bss_end__+0xeb9f74>
    11d8:	00001301 	andeq	r1, r0, r1, lsl #6
    11dc:	0300280a 	movweq	r2, #2058	; 0x80a
    11e0:	000d1c0e 	andeq	r1, sp, lr, lsl #24
    11e4:	012e0b00 	teqeq	lr, r0, lsl #22
    11e8:	0e03193f 	mcreq	9, 0, r1, cr3, cr15, {1}
    11ec:	0b3b0b3a 	bleq	ec3edc <__bss_end__+0xeb9f8c>
    11f0:	13491927 	movtne	r1, #39207	; 0x9927
    11f4:	06120111 			; <UNDEFINED> instruction: 0x06120111
    11f8:	42971840 	addsmi	r1, r7, #64, 16	; 0x400000
    11fc:	00130119 	andseq	r0, r3, r9, lsl r1
    1200:	00340c00 	eorseq	r0, r4, r0, lsl #24
    1204:	0b3a0803 	bleq	e83218 <__bss_end__+0xe792c8>
    1208:	13490b3b 	movtne	r0, #39739	; 0x9b3b
    120c:	0000061c 	andeq	r0, r0, ip, lsl r6
    1210:	0182890d 	orreq	r8, r2, sp, lsl #18
    1214:	31011101 	tstcc	r1, r1, lsl #2
    1218:	0e000013 	mcreq	0, 0, r0, cr0, cr3, {0}
    121c:	0001828a 	andeq	r8, r1, sl, lsl #5
    1220:	42911802 	addsmi	r1, r1, #131072	; 0x20000
    1224:	0f000018 	svceq	0x00000018
    1228:	0b0b000f 	bleq	2c126c <__bss_end__+0x2b731c>
    122c:	00001349 	andeq	r1, r0, r9, asr #6
    1230:	3f012e10 	svccc	0x00012e10
    1234:	3a0e0319 	bcc	381ea0 <__bss_end__+0x377f50>
    1238:	270b3b0b 	strcs	r3, [fp, -fp, lsl #22]
    123c:	3c134919 	ldccc	9, cr4, [r3], {25}
    1240:	11000019 	tstne	r0, r9, lsl r0
    1244:	13490005 	movtne	r0, #36869	; 0x9005
    1248:	01000000 	mrseq	r0, (UNDEF: 0)
    124c:	0e250111 	mcreq	1, 1, r0, cr5, cr1, {0}
    1250:	0e030b13 	vmoveq.32	d3[0], r0
    1254:	01110e1b 	tsteq	r1, fp, lsl lr
    1258:	17100612 			; <UNDEFINED> instruction: 0x17100612
    125c:	24020000 	strcs	r0, [r2], #-0
    1260:	3e0b0b00 	vmlacc.f64	d0, d11, d0
    1264:	000e030b 	andeq	r0, lr, fp, lsl #6
    1268:	00240300 	eoreq	r0, r4, r0, lsl #6
    126c:	0b3e0b0b 	bleq	f83ea0 <__bss_end__+0xf79f50>
    1270:	00000803 	andeq	r0, r0, r3, lsl #16
    1274:	0b000f04 	bleq	4e8c <_start-0x3174>
    1278:	0500000b 	streq	r0, [r0, #-11]
    127c:	0b0b000f 	bleq	2c12c0 <__bss_end__+0x2b7370>
    1280:	00001349 	andeq	r1, r0, r9, asr #6
    1284:	03001606 	movweq	r1, #1542	; 0x606
    1288:	3b0b3a0e 	blcc	2cfac8 <__bss_end__+0x2c5b78>
    128c:	0013490b 	andseq	r4, r3, fp, lsl #18
    1290:	012e0700 	teqeq	lr, r0, lsl #14
    1294:	0e03193f 	mcreq	9, 0, r1, cr3, cr15, {1}
    1298:	0b3b0b3a 	bleq	ec3f88 <__bss_end__+0xeba038>
    129c:	13491927 	movtne	r1, #39207	; 0x9927
    12a0:	06120111 			; <UNDEFINED> instruction: 0x06120111
    12a4:	42971840 	addsmi	r1, r7, #64, 16	; 0x400000
    12a8:	08000019 	stmdaeq	r0, {r0, r3, r4}
    12ac:	08030005 	stmdaeq	r3, {r0, r2}
    12b0:	0b3b0b3a 	bleq	ec3fa0 <__bss_end__+0xeba050>
    12b4:	18021349 	stmdane	r2, {r0, r3, r6, r8, r9, ip}
    12b8:	05090000 	streq	r0, [r9, #-0]
    12bc:	3a080300 	bcc	201ec4 <__bss_end__+0x1f7f74>
    12c0:	490b3b0b 	stmdbmi	fp, {r0, r1, r3, r8, r9, fp, ip, sp}
    12c4:	00170213 	andseq	r0, r7, r3, lsl r2
    12c8:	00340a00 	eorseq	r0, r4, r0, lsl #20
    12cc:	0b3a0803 	bleq	e832e0 <__bss_end__+0xe79390>
    12d0:	13490b3b 	movtne	r0, #39739	; 0x9b3b
    12d4:	00001702 	andeq	r1, r0, r2, lsl #14
    12d8:	0300340b 	movweq	r3, #1035	; 0x40b
    12dc:	3b0b3a08 	blcc	2cfb04 <__bss_end__+0x2c5bb4>
    12e0:	0213490b 	andseq	r4, r3, #180224	; 0x2c000
    12e4:	00000018 	andeq	r0, r0, r8, lsl r0

Disassembly of section .debug_loc:

00000000 <.debug_loc>:
       0:	00000000 	andeq	r0, r0, r0
       4:	00000018 	andeq	r0, r0, r8, lsl r0
       8:	18500001 	ldmdane	r0, {r0}^
       c:	28000000 	stmdacs	r0, {}	; <UNPREDICTABLE>
      10:	04000000 	streq	r0, [r0], #-0
      14:	5001f300 	andpl	pc, r1, r0, lsl #6
      18:	0000289f 	muleq	r0, pc, r8	; <UNPREDICTABLE>
      1c:	00002b00 	andeq	r2, r0, r0, lsl #22
      20:	50000100 	andpl	r0, r0, r0, lsl #2
      24:	0000002b 	andeq	r0, r0, fp, lsr #32
      28:	00000050 	andeq	r0, r0, r0, asr r0
      2c:	01f30004 	mvnseq	r0, r4
      30:	00009f50 	andeq	r9, r0, r0, asr pc
      34:	00000000 	andeq	r0, r0, r0
      38:	00200000 	eoreq	r0, r0, r0
      3c:	00240000 	eoreq	r0, r4, r0
      40:	00010000 	andeq	r0, r1, r0
      44:	00000050 	andeq	r0, r0, r0, asr r0
      48:	00000000 	andeq	r0, r0, r0
      4c:	00005000 	andeq	r5, r0, r0
      50:	00006000 	andeq	r6, r0, r0
      54:	50000100 	andpl	r0, r0, r0, lsl #2
      58:	00000060 	andeq	r0, r0, r0, rrx
      5c:	000000e8 	andeq	r0, r0, r8, ror #1
      60:	00550001 	subseq	r0, r5, r1
      64:	00000000 	andeq	r0, r0, r0
      68:	50000000 	andpl	r0, r0, r0
      6c:	6f000000 	svcvs	0x00000000
      70:	01000000 	mrseq	r0, (UNDEF: 0)
      74:	006f5100 	rsbeq	r5, pc, r0, lsl #2
      78:	00980000 	addseq	r0, r8, r0
      7c:	00010000 	andeq	r0, r1, r0
      80:	00009858 	andeq	r9, r0, r8, asr r8
      84:	0000e800 	andeq	lr, r0, r0, lsl #16
      88:	f3000400 	vshl.u8	d0, d0, d0
      8c:	009f5101 	addseq	r5, pc, r1, lsl #2
      90:	00000000 	andeq	r0, r0, r0
      94:	50000000 	andpl	r0, r0, r0
      98:	6f000000 	svcvs	0x00000000
      9c:	01000000 	mrseq	r0, (UNDEF: 0)
      a0:	006f5200 	rsbeq	r5, pc, r0, lsl #4
      a4:	00e80000 	rsceq	r0, r8, r0
      a8:	00010000 	andeq	r0, r1, r0
      ac:	00000059 	andeq	r0, r0, r9, asr r0
      b0:	00000000 	andeq	r0, r0, r0
      b4:	00005000 	andeq	r5, r0, r0
      b8:	00006f00 	andeq	r6, r0, r0, lsl #30
      bc:	53000100 	movwpl	r0, #256	; 0x100
      c0:	0000006f 	andeq	r0, r0, pc, rrx
      c4:	000000e8 	andeq	r0, r0, r8, ror #1
      c8:	01f30004 	mvnseq	r0, r4
      cc:	00009f53 	andeq	r9, r0, r3, asr pc
      d0:	00000000 	andeq	r0, r0, r0
      d4:	00500000 	subseq	r0, r0, r0
      d8:	00980000 	addseq	r0, r8, r0
      dc:	00020000 	andeq	r0, r2, r0
      e0:	00cc9f30 	sbceq	r9, ip, r0, lsr pc
      e4:	00d00000 	sbcseq	r0, r0, r0
      e8:	00030000 	andeq	r0, r3, r0
      ec:	d09f0177 	addsle	r0, pc, r7, ror r1	; <UNPREDICTABLE>
      f0:	dc000000 	stcle	0, cr0, [r0], {-0}
      f4:	01000000 	mrseq	r0, (UNDEF: 0)
      f8:	00005700 	andeq	r5, r0, r0, lsl #14
      fc:	00000000 	andeq	r0, r0, r0
     100:	00500000 	subseq	r0, r0, r0
     104:	00780000 	rsbseq	r0, r8, r0
     108:	00020000 	andeq	r0, r2, r0
     10c:	00889f30 	addeq	r9, r8, r0, lsr pc
     110:	00980000 	addseq	r0, r8, r0
     114:	00010000 	andeq	r0, r1, r0
     118:	0000a054 	andeq	sl, r0, r4, asr r0
     11c:	0000b800 	andeq	fp, r0, r0, lsl #16
     120:	54000100 	strpl	r0, [r0], #-256	; 0x100
     124:	000000b8 	strheq	r0, [r0], -r8
     128:	000000dc 	ldrdeq	r0, [r0], -ip
     12c:	00530001 	subseq	r0, r3, r1
     130:	00000000 	andeq	r0, r0, r0
     134:	78000000 	stmdavc	r0, {}	; <UNPREDICTABLE>
     138:	98000000 	stmdals	r0, {}	; <UNPREDICTABLE>
     13c:	01000000 	mrseq	r0, (UNDEF: 0)
     140:	00005700 	andeq	r5, r0, r0, lsl #14
     144:	00000000 	andeq	r0, r0, r0
     148:	00700000 	rsbseq	r0, r0, r0
     14c:	00740000 	rsbseq	r0, r4, r0
     150:	00010000 	andeq	r0, r1, r0
     154:	00000050 	andeq	r0, r0, r0, asr r0
     158:	00000000 	andeq	r0, r0, r0
     15c:	00008000 	andeq	r8, r0, r0
     160:	00008400 	andeq	r8, r0, r0, lsl #8
     164:	50000100 	andpl	r0, r0, r0, lsl #2
	...
     170:	000000b0 	strheq	r0, [r0], -r0	; <UNPREDICTABLE>
     174:	000000dc 	ldrdeq	r0, [r0], -ip
     178:	00530001 	subseq	r0, r3, r1
     17c:	00000000 	andeq	r0, r0, r0
     180:	a0000000 	andge	r0, r0, r0
     184:	dc000000 	stcle	0, cr0, [r0], {-0}
     188:	01000000 	mrseq	r0, (UNDEF: 0)
     18c:	00005500 	andeq	r5, r0, r0, lsl #10
     190:	00000000 	andeq	r0, r0, r0
     194:	00a80000 	adceq	r0, r8, r0
     198:	00ac0000 	adceq	r0, ip, r0
     19c:	00010000 	andeq	r0, r1, r0
     1a0:	00000050 	andeq	r0, r0, r0, asr r0
     1a4:	00000000 	andeq	r0, r0, r0
     1a8:	0000c000 	andeq	ip, r0, r0
     1ac:	0000dc00 	andeq	sp, r0, r0, lsl #24
     1b0:	52000100 	andpl	r0, r0, #0, 2
	...
     1bc:	000000e8 	andeq	r0, r0, r8, ror #1
     1c0:	00000118 	andeq	r0, r0, r8, lsl r1
     1c4:	18500001 	ldmdane	r0, {r0}^
     1c8:	74000001 	strvc	r0, [r0], #-1
     1cc:	01000001 	tsteq	r0, r1
     1d0:	01745a00 	cmneq	r4, r0, lsl #20
     1d4:	01780000 	cmneq	r8, r0
     1d8:	00040000 	andeq	r0, r4, r0
     1dc:	9f5001f3 	svcls	0x005001f3
	...
     1e8:	000000e8 	andeq	r0, r0, r8, ror #1
     1ec:	00000108 	andeq	r0, r0, r8, lsl #2
     1f0:	08510001 	ldmdaeq	r1, {r0}^
     1f4:	74000001 	strvc	r0, [r0], #-1
     1f8:	03000001 	movweq	r0, #1
     1fc:	9f017900 	svcls	0x00017900
     200:	00000174 	andeq	r0, r0, r4, ror r1
     204:	00000178 	andeq	r0, r0, r8, ror r1
     208:	01f30004 	mvnseq	r0, r4
     20c:	00009f51 	andeq	r9, r0, r1, asr pc
     210:	00000000 	andeq	r0, r0, r0
     214:	00e80000 	rsceq	r0, r8, r0
     218:	01040000 	mrseq	r0, (UNDEF: 4)
     21c:	00010000 	andeq	r0, r1, r0
     220:	00010452 	andeq	r0, r1, r2, asr r4
     224:	00017400 	andeq	r7, r1, r0, lsl #8
     228:	58000100 	stmdapl	r0, {r8}
     22c:	00000174 	andeq	r0, r0, r4, ror r1
     230:	00000178 	andeq	r0, r0, r8, ror r1
     234:	01f30004 	mvnseq	r0, r4
     238:	00009f52 	andeq	r9, r0, r2, asr pc
     23c:	00000000 	andeq	r0, r0, r0
     240:	00e80000 	rsceq	r0, r8, r0
     244:	01180000 	tsteq	r8, r0
     248:	00020000 	andeq	r0, r2, r0
     24c:	01189f30 	tsteq	r8, r0, lsr pc
     250:	016c0000 	cmneq	ip, r0
     254:	00010000 	andeq	r0, r1, r0
     258:	00000055 	andeq	r0, r0, r5, asr r0
     25c:	00000000 	andeq	r0, r0, r0
     260:	0000e800 	andeq	lr, r0, r0, lsl #16
     264:	00011800 	andeq	r1, r1, r0, lsl #16
     268:	30000200 	andcc	r0, r0, r0, lsl #4
     26c:	0001189f 	muleq	r1, pc, r8	; <UNPREDICTABLE>
     270:	00016c00 	andeq	r6, r1, r0, lsl #24
     274:	56000100 	strpl	r0, [r0], -r0, lsl #2
	...
     280:	000000e8 	andeq	r0, r0, r8, ror #1
     284:	00000118 	andeq	r0, r0, r8, lsl r1
     288:	9f300002 	svcls	0x00300002
     28c:	00000118 	andeq	r0, r0, r8, lsl r1
     290:	00000120 	andeq	r0, r0, r0, lsr #2
     294:	20570001 	subscs	r0, r7, r1
     298:	5f000001 	svcpl	0x00000001
     29c:	01000001 	tsteq	r0, r1
     2a0:	015f5100 	cmpeq	pc, r0, lsl #2
     2a4:	01600000 	cmneq	r0, r0
     2a8:	00030000 	andeq	r0, r3, r0
     2ac:	609f7f77 	addsvs	r7, pc, r7, ror pc	; <UNPREDICTABLE>
     2b0:	6c000001 	stcvs	0, cr0, [r0], {1}
     2b4:	01000001 	tsteq	r0, r1
     2b8:	00005700 	andeq	r5, r0, r0, lsl #14
     2bc:	00000000 	andeq	r0, r0, r0
     2c0:	01280000 	teqeq	r8, r0
     2c4:	012c0000 	teqeq	ip, r0
     2c8:	00010000 	andeq	r0, r1, r0
     2cc:	00012c53 	andeq	r2, r1, r3, asr ip
     2d0:	00013000 	andeq	r3, r1, r0
     2d4:	7a000600 	bvc	1adc <_start-0x6524>
     2d8:	22007200 	andcs	r7, r0, #0, 4
     2dc:	0000009f 	muleq	r0, pc, r0	; <UNPREDICTABLE>
     2e0:	00000000 	andeq	r0, r0, r0
     2e4:	00012c00 	andeq	r2, r1, r0, lsl #24
     2e8:	00015f00 	andeq	r5, r1, r0, lsl #30
     2ec:	53000100 	movwpl	r0, #256	; 0x100
	...
     2f8:	00000134 	andeq	r0, r0, r4, lsr r1
     2fc:	00000168 	andeq	r0, r0, r8, ror #2
     300:	00540001 	subseq	r0, r4, r1
     304:	00000000 	andeq	r0, r0, r0
     308:	40000000 	andmi	r0, r0, r0
     30c:	5c000001 	stcpl	0, cr0, [r0], {1}
     310:	01000001 	tsteq	r0, r1
     314:	015c5000 	cmpeq	ip, r0
     318:	015f0000 	cmpeq	pc, r0
     31c:	00020000 	andeq	r0, r2, r0
     320:	00005091 	muleq	r0, r1, r0
     324:	00000000 	andeq	r0, r0, r0
     328:	01b80000 			; <UNDEFINED> instruction: 0x01b80000
     32c:	01bc0000 			; <UNDEFINED> instruction: 0x01bc0000
     330:	00010000 	andeq	r0, r1, r0
     334:	0001bc50 	andeq	fp, r1, r0, asr ip
     338:	0001bf00 	andeq	fp, r1, r0, lsl #30
     33c:	51000100 	mrspl	r0, (UNDEF: 16)
	...
     348:	0000002c 	andeq	r0, r0, ip, lsr #32
     34c:	00000038 	andeq	r0, r0, r8, lsr r0
     350:	38500001 	ldmdacc	r0, {r0}^
     354:	48000000 	stmdami	r0, {}	; <UNPREDICTABLE>
     358:	01000000 	mrseq	r0, (UNDEF: 0)
     35c:	00485500 	subeq	r5, r8, r0, lsl #10
     360:	00580000 	subseq	r0, r8, r0
     364:	00010000 	andeq	r0, r1, r0
     368:	00000050 	andeq	r0, r0, r0, asr r0
	...
     374:	00000b00 	andeq	r0, r0, r0, lsl #22
     378:	50000100 	andpl	r0, r0, r0, lsl #2
     37c:	0000000b 	andeq	r0, r0, fp
     380:	00000014 	andeq	r0, r0, r4, lsl r0
     384:	00540001 	subseq	r0, r4, r1
	...
     390:	10000000 	andne	r0, r0, r0
     394:	01000000 	mrseq	r0, (UNDEF: 0)
     398:	00105000 	andseq	r5, r0, r0
     39c:	00340000 	eorseq	r0, r4, r0
     3a0:	00010000 	andeq	r0, r1, r0
     3a4:	00000054 	andeq	r0, r0, r4, asr r0
	...
     3b0:	00000400 	andeq	r0, r0, r0, lsl #8
     3b4:	50000100 	andpl	r0, r0, r0, lsl #2
     3b8:	00000004 	andeq	r0, r0, r4
     3bc:	0000000c 	andeq	r0, r0, ip
     3c0:	30700003 	rsbscc	r0, r0, r3
     3c4:	00000c9f 	muleq	r0, pc, ip	; <UNPREDICTABLE>
     3c8:	00001400 	andeq	r1, r0, r0, lsl #8
     3cc:	f3000400 	vshl.u8	d0, d0, d0
     3d0:	009f5001 	addseq	r5, pc, r1
     3d4:	00000000 	andeq	r0, r0, r0
     3d8:	14000000 	strne	r0, [r0], #-0
     3dc:	20000000 	andcs	r0, r0, r0
     3e0:	01000000 	mrseq	r0, (UNDEF: 0)
     3e4:	00205000 	eoreq	r5, r0, r0
     3e8:	002c0000 	eoreq	r0, ip, r0
     3ec:	00030000 	andeq	r0, r3, r0
     3f0:	2c9f0170 	ldfcss	f0, [pc], {112}	; 0x70
     3f4:	40000000 	andmi	r0, r0, r0
     3f8:	01000000 	mrseq	r0, (UNDEF: 0)
     3fc:	00005000 	andeq	r5, r0, r0
     400:	00000000 	andeq	r0, r0, r0
     404:	00140000 	andseq	r0, r4, r0
     408:	00180000 	andseq	r0, r8, r0
     40c:	00010000 	andeq	r0, r1, r0
     410:	00001851 	andeq	r1, r0, r1, asr r8
     414:	00004000 	andeq	r4, r0, r0
     418:	f3000400 	vshl.u8	d0, d0, d0
     41c:	009f5101 	addseq	r5, pc, r1, lsl #2
     420:	00000000 	andeq	r0, r0, r0
     424:	40000000 	andmi	r0, r0, r0
     428:	60000000 	andvs	r0, r0, r0
     42c:	01000000 	mrseq	r0, (UNDEF: 0)
     430:	00605000 	rsbeq	r5, r0, r0
     434:	006c0000 	rsbeq	r0, ip, r0
     438:	00030000 	andeq	r0, r3, r0
     43c:	6c9f0171 	ldfvss	f0, [pc], {113}	; 0x71
     440:	74000000 	strvc	r0, [r0], #-0
     444:	01000000 	mrseq	r0, (UNDEF: 0)
     448:	00745100 	rsbseq	r5, r4, r0, lsl #2
     44c:	00800000 	addeq	r0, r0, r0
     450:	00030000 	andeq	r0, r3, r0
     454:	009f0171 	addseq	r0, pc, r1, ror r1	; <UNPREDICTABLE>
     458:	00000000 	andeq	r0, r0, r0
     45c:	40000000 	andmi	r0, r0, r0
     460:	50000000 	andpl	r0, r0, r0
     464:	01000000 	mrseq	r0, (UNDEF: 0)
     468:	00505100 	subseq	r5, r0, r0, lsl #2
     46c:	00800000 	addeq	r0, r0, r0
     470:	00040000 	andeq	r0, r4, r0
     474:	9f5101f3 	svcls	0x005101f3
	...
     480:	00000040 	andeq	r0, r0, r0, asr #32
     484:	00000058 	andeq	r0, r0, r8, asr r0
     488:	58520001 	ldmdapl	r2, {r0}^
     48c:	64000000 	strvs	r0, [r0], #-0
     490:	01000000 	mrseq	r0, (UNDEF: 0)
     494:	00645200 	rsbeq	r5, r4, r0, lsl #4
     498:	00680000 	rsbeq	r0, r8, r0
     49c:	00030000 	andeq	r0, r3, r0
     4a0:	689f0172 	ldmvs	pc, {r1, r4, r5, r6, r8}	; <UNPREDICTABLE>
     4a4:	80000000 	andhi	r0, r0, r0
     4a8:	01000000 	mrseq	r0, (UNDEF: 0)
     4ac:	00005200 	andeq	r5, r0, r0, lsl #4
     4b0:	00000000 	andeq	r0, r0, r0
     4b4:	00400000 	subeq	r0, r0, r0
     4b8:	00540000 	subseq	r0, r4, r0
     4bc:	00010000 	andeq	r0, r1, r0
     4c0:	00005453 	andeq	r5, r0, r3, asr r4
     4c4:	00007800 	andeq	r7, r0, r0, lsl #16
     4c8:	53000100 	movwpl	r0, #256	; 0x100
	...
     4d4:	00000048 	andeq	r0, r0, r8, asr #32
     4d8:	00000060 	andeq	r0, r0, r0, rrx
     4dc:	605c0001 	subsvs	r0, ip, r1
     4e0:	80000000 	andhi	r0, r0, r0
     4e4:	0a000000 	beq	4ec <_start-0x7b14>
     4e8:	5201f300 	andpl	pc, r1, #0, 6
     4ec:	1c5301f3 	ldfnee	f0, [r3], {243}	; 0xf3
     4f0:	009f0123 	addseq	r0, pc, r3, lsr #2
     4f4:	00000000 	andeq	r0, r0, r0
     4f8:	80000000 	andhi	r0, r0, r0
     4fc:	a4000000 	strge	r0, [r0], #-0
     500:	01000000 	mrseq	r0, (UNDEF: 0)
     504:	00a45000 	adceq	r5, r4, r0
     508:	01180000 	tsteq	r8, r0
     50c:	00030000 	andeq	r0, r3, r0
     510:	189f0270 	ldmne	pc, {r4, r5, r6, r9}	; <UNPREDICTABLE>
     514:	28000001 	stmdacs	r0, {r0}
     518:	04000002 	streq	r0, [r0], #-2
     51c:	5001f300 	andpl	pc, r1, r0, lsl #6
     520:	0000009f 	muleq	r0, pc, r0	; <UNPREDICTABLE>
     524:	00000000 	andeq	r0, r0, r0
     528:	00008000 	andeq	r8, r0, r0
     52c:	0000f000 	andeq	pc, r0, r0
     530:	51000100 	mrspl	r0, (UNDEF: 16)
     534:	000000f0 	strdeq	r0, [r0], -r0	; <UNPREDICTABLE>
     538:	00000160 	andeq	r0, r0, r0, ror #2
     53c:	60550001 	subsvs	r0, r5, r1
     540:	68000001 	stmdavs	r0, {r0}
     544:	01000001 	tsteq	r0, r1
     548:	01685100 	cmneq	r8, r0, lsl #2
     54c:	01880000 	orreq	r0, r8, r0
     550:	00010000 	andeq	r0, r1, r0
     554:	00018855 	andeq	r8, r1, r5, asr r8
     558:	00019c00 	andeq	r9, r1, r0, lsl #24
     55c:	51000100 	mrspl	r0, (UNDEF: 16)
     560:	0000019c 	muleq	r0, ip, r1
     564:	000001bc 			; <UNDEFINED> instruction: 0x000001bc
     568:	bc550001 	mrrclt	0, 0, r0, r5, cr1
     56c:	bf000001 	svclt	0x00000001
     570:	01000001 	tsteq	r0, r1
     574:	01bf5100 			; <UNDEFINED> instruction: 0x01bf5100
     578:	02080000 	andeq	r0, r8, #0
     57c:	00010000 	andeq	r0, r1, r0
     580:	00020855 	andeq	r0, r2, r5, asr r8
     584:	00022800 	andeq	r2, r2, r0, lsl #16
     588:	f3000400 	vshl.u8	d0, d0, d0
     58c:	009f5101 	addseq	r5, pc, r1, lsl #2
     590:	00000000 	andeq	r0, r0, r0
     594:	80000000 	andhi	r0, r0, r0
     598:	94000000 	strls	r0, [r0], #-0
     59c:	01000000 	mrseq	r0, (UNDEF: 0)
     5a0:	00945200 	addseq	r5, r4, r0, lsl #4
     5a4:	02080000 	andeq	r0, r8, #0
     5a8:	00010000 	andeq	r0, r1, r0
     5ac:	00020854 	andeq	r0, r2, r4, asr r8
     5b0:	00022800 	andeq	r2, r2, r0, lsl #16
     5b4:	f3000400 	vshl.u8	d0, d0, d0
     5b8:	009f5201 	addseq	r5, pc, r1, lsl #4
     5bc:	00000000 	andeq	r0, r0, r0
     5c0:	80000000 	andhi	r0, r0, r0
     5c4:	00000000 	andeq	r0, r0, r0
     5c8:	01000001 	tsteq	r0, r1
     5cc:	01045300 	mrseq	r5, LR_abt
     5d0:	01080000 	mrseq	r0, (UNDEF: 8)
     5d4:	00010000 	andeq	r0, r1, r0
     5d8:	00016053 	andeq	r6, r1, r3, asr r0
     5dc:	00016800 	andeq	r6, r1, r0, lsl #16
     5e0:	53000100 	movwpl	r0, #256	; 0x100
     5e4:	00000168 	andeq	r0, r0, r8, ror #2
     5e8:	00000188 	andeq	r0, r0, r8, lsl #3
     5ec:	01f30004 	mvnseq	r0, r4
     5f0:	01889f53 	orreq	r9, r8, r3, asr pc
     5f4:	01900000 	orrseq	r0, r0, r0
     5f8:	00010000 	andeq	r0, r1, r0
     5fc:	00019053 	andeq	r9, r1, r3, asr r0
     600:	00019400 	andeq	r9, r1, r0, lsl #8
     604:	5c000100 	stfpls	f0, [r0], {-0}
     608:	00000194 	muleq	r0, r4, r1
     60c:	0000019c 	muleq	r0, ip, r1
     610:	9c530001 	mrrcls	0, 0, r0, r3, cr1
     614:	bc000001 	stclt	0, cr0, [r0], {1}
     618:	04000001 	streq	r0, [r0], #-1
     61c:	5301f300 	movwpl	pc, #4864	; 0x1300	; <UNPREDICTABLE>
     620:	0001bc9f 	muleq	r1, pc, ip	; <UNPREDICTABLE>
     624:	0001bf00 	andeq	fp, r1, r0, lsl #30
     628:	53000100 	movwpl	r0, #256	; 0x100
     62c:	000001bf 			; <UNDEFINED> instruction: 0x000001bf
     630:	000001e0 	andeq	r0, r0, r0, ror #3
     634:	01f30004 	mvnseq	r0, r4
     638:	00009f53 	andeq	r9, r0, r3, asr pc
     63c:	00000000 	andeq	r0, r0, r0
     640:	00800000 	addeq	r0, r0, r0
     644:	009c0000 	addseq	r0, ip, r0
     648:	00020000 	andeq	r0, r2, r0
     64c:	009c0091 	umullseq	r0, ip, r1, r0
     650:	01bf0000 			; <UNDEFINED> instruction: 0x01bf0000
     654:	00010000 	andeq	r0, r1, r0
     658:	0001e052 	andeq	lr, r1, r2, asr r0
     65c:	0001eb00 	andeq	lr, r1, r0, lsl #22
     660:	52000100 	andpl	r0, r0, #0, 2
	...
     66c:	0000009c 	muleq	r0, ip, r0
     670:	0000010c 	andeq	r0, r0, ip, lsl #2
     674:	a0910004 	addsge	r0, r1, r4
     678:	010c9f7f 	tsteq	ip, pc, ror pc
     67c:	01180000 	tsteq	r8, r0
     680:	00010000 	andeq	r0, r1, r0
     684:	00011851 	andeq	r1, r1, r1, asr r8
     688:	00011c00 	andeq	r1, r1, r0, lsl #24
     68c:	53000100 	movwpl	r0, #256	; 0x100
     690:	0000011c 	andeq	r0, r0, ip, lsl r1
     694:	00000120 	andeq	r0, r0, r0, lsr #2
     698:	20510001 	subscs	r0, r1, r1
     69c:	60000001 	andvs	r0, r0, r1
     6a0:	01000001 	tsteq	r0, r1
     6a4:	01605300 	cmneq	r0, r0, lsl #6
     6a8:	01640000 	cmneq	r4, r0
     6ac:	00040000 	andeq	r0, r4, r0
     6b0:	9f7fa091 	svcls	0x007fa091
     6b4:	00000164 	andeq	r0, r0, r4, ror #2
     6b8:	0000016c 	andeq	r0, r0, ip, ror #2
     6bc:	6c5e0001 	mrrcvs	0, 0, r0, lr, cr1
     6c0:	88000001 	stmdahi	r0, {r0}
     6c4:	01000001 	tsteq	r0, r1
     6c8:	01885300 	orreq	r5, r8, r0, lsl #6
     6cc:	01900000 	orrseq	r0, r0, r0
     6d0:	00040000 	andeq	r0, r4, r0
     6d4:	9f7fa191 	svcls	0x007fa191
     6d8:	00000190 	muleq	r0, r0, r1
     6dc:	00000194 	muleq	r0, r4, r1
     6e0:	94530001 	ldrbls	r0, [r3], #-1
     6e4:	98000001 	stmdals	r0, {r0}
     6e8:	04000001 	streq	r0, [r0], #-1
     6ec:	7fa09100 	svcvc	0x00a09100
     6f0:	0001989f 	muleq	r1, pc, r8	; <UNPREDICTABLE>
     6f4:	0001a000 	andeq	sl, r1, r0
     6f8:	5e000100 	adfpls	f0, f0, f0
     6fc:	000001a0 	andeq	r0, r0, r0, lsr #3
     700:	000001bc 			; <UNDEFINED> instruction: 0x000001bc
     704:	bc530001 	mrrclt	0, 0, r0, r3, cr1
     708:	e0000001 	and	r0, r0, r1
     70c:	04000001 	streq	r0, [r0], #-1
     710:	7fa09100 	svcvc	0x00a09100
     714:	0001e09f 	muleq	r1, pc, r0	; <UNPREDICTABLE>
     718:	0001eb00 	andeq	lr, r1, r0, lsl #22
     71c:	53000100 	movwpl	r0, #256	; 0x100
	...
     728:	000000a0 	andeq	r0, r0, r0, lsr #1
     72c:	000000ec 	andeq	r0, r0, ip, ror #1
     730:	ec5c0001 	mrrc	0, 0, r0, ip, cr1
     734:	00000000 	andeq	r0, r0, r0
     738:	01000001 	tsteq	r0, r1
     73c:	01005300 	mrseq	r5, LR_irq
     740:	01040000 	mrseq	r0, (UNDEF: 4)
     744:	00010000 	andeq	r0, r1, r0
     748:	0001045c 	andeq	r0, r1, ip, asr r4
     74c:	00010800 	andeq	r0, r1, r0, lsl #16
     750:	53000100 	movwpl	r0, #256	; 0x100
     754:	00000108 	andeq	r0, r0, r8, lsl #2
     758:	00000118 	andeq	r0, r0, r8, lsl r1
     75c:	185c0001 	ldmdane	ip, {r0}^
     760:	1c000001 	stcne	0, cr0, [r0], {1}
     764:	01000001 	tsteq	r0, r1
     768:	011c5000 	tsteq	ip, r0
     76c:	013c0000 	teqeq	ip, r0
     770:	00010000 	andeq	r0, r1, r0
     774:	0001445c 	andeq	r4, r1, ip, asr r4
     778:	00015800 	andeq	r5, r1, r0, lsl #16
     77c:	50000100 	andpl	r0, r0, r0, lsl #2
     780:	00000158 	andeq	r0, r0, r8, asr r1
     784:	00000160 	andeq	r0, r0, r0, ror #2
     788:	605c0001 	subsvs	r0, ip, r1
     78c:	68000001 	stmdavs	r0, {r0}
     790:	01000001 	tsteq	r0, r1
     794:	01685300 	cmneq	r8, r0, lsl #6
     798:	01780000 	cmneq	r8, r0
     79c:	00010000 	andeq	r0, r1, r0
     7a0:	0001785c 	andeq	r7, r1, ip, asr r8
     7a4:	00018000 	andeq	r8, r1, r0
     7a8:	7c000500 	cfstr32vc	mvfx0, [r0], {-0}
     7ac:	9f253400 	svcls	0x00253400
     7b0:	00000180 	andeq	r0, r0, r0, lsl #3
     7b4:	00000188 	andeq	r0, r0, r8, lsl #3
     7b8:	885c0001 	ldmdahi	ip, {r0}^
     7bc:	90000001 	andls	r0, r0, r1
     7c0:	01000001 	tsteq	r0, r1
     7c4:	01905300 	orrseq	r5, r0, r0, lsl #6
     7c8:	01940000 	orrseq	r0, r4, r0
     7cc:	00010000 	andeq	r0, r1, r0
     7d0:	0001945c 	andeq	r9, r1, ip, asr r4
     7d4:	00019c00 	andeq	r9, r1, r0, lsl #24
     7d8:	53000100 	movwpl	r0, #256	; 0x100
     7dc:	0000019c 	muleq	r0, ip, r1
     7e0:	000001ac 	andeq	r0, r0, ip, lsr #3
     7e4:	ac5c0001 	mrrcge	0, 0, r0, ip, cr1
     7e8:	b4000001 	strlt	r0, [r0], #-1
     7ec:	05000001 	streq	r0, [r0, #-1]
     7f0:	31007c00 	tstcc	r0, r0, lsl #24
     7f4:	01b49f25 			; <UNDEFINED> instruction: 0x01b49f25
     7f8:	01bc0000 			; <UNDEFINED> instruction: 0x01bc0000
     7fc:	00010000 	andeq	r0, r1, r0
     800:	0001bc5c 	andeq	fp, r1, ip, asr ip
     804:	0001bf00 	andeq	fp, r1, r0, lsl #30
     808:	53000100 	movwpl	r0, #256	; 0x100
     80c:	000001bf 			; <UNDEFINED> instruction: 0x000001bf
     810:	000001e0 	andeq	r0, r0, r0, ror #3
     814:	01f30004 	mvnseq	r0, r4
     818:	01e09f53 	mvneq	r9, r3, asr pc
     81c:	01eb0000 	mvneq	r0, r0
     820:	00010000 	andeq	r0, r1, r0
     824:	0000005c 	andeq	r0, r0, ip, asr r0
     828:	00000000 	andeq	r0, r0, r0
     82c:	0000ec00 	andeq	lr, r0, r0, lsl #24
     830:	0000fc00 	andeq	pc, r0, r0, lsl #24
     834:	30000200 	andcc	r0, r0, r0, lsl #4
     838:	0000fc9f 	muleq	r0, pc, ip	; <UNPREDICTABLE>
     83c:	00010400 	andeq	r0, r1, r0, lsl #8
     840:	31000200 	mrscc	r0, R8_usr
     844:	0001049f 	muleq	r1, pc, r4	; <UNPREDICTABLE>
     848:	00010800 	andeq	r0, r1, r0, lsl #16
     84c:	30000200 	andcc	r0, r0, r0, lsl #4
     850:	0000009f 	muleq	r0, pc, r0	; <UNPREDICTABLE>
     854:	00000000 	andeq	r0, r0, r0
     858:	00022800 	andeq	r2, r2, r0, lsl #16
     85c:	00023b00 	andeq	r3, r2, r0, lsl #22
     860:	50000100 	andpl	r0, r0, r0, lsl #2
     864:	0000023b 	andeq	r0, r0, fp, lsr r2
     868:	0000025c 	andeq	r0, r0, ip, asr r2
     86c:	01f30004 	mvnseq	r0, r4
     870:	025c9f50 	subseq	r9, ip, #80, 30	; 0x140
     874:	02900000 	addseq	r0, r0, #0
     878:	00010000 	andeq	r0, r1, r0
     87c:	00000050 	andeq	r0, r0, r0, asr r0
     880:	00000000 	andeq	r0, r0, r0
     884:	00022800 	andeq	r2, r2, r0, lsl #16
     888:	00023b00 	andeq	r3, r2, r0, lsl #22
     88c:	51000100 	mrspl	r0, (UNDEF: 16)
     890:	0000023b 	andeq	r0, r0, fp, lsr r2
     894:	0000025c 	andeq	r0, r0, ip, asr r2
     898:	01f30004 	mvnseq	r0, r4
     89c:	025c9f51 	subseq	r9, ip, #324	; 0x144
     8a0:	02900000 	addseq	r0, r0, #0
     8a4:	00010000 	andeq	r0, r1, r0
     8a8:	00000051 	andeq	r0, r0, r1, asr r0
     8ac:	00000000 	andeq	r0, r0, r0
     8b0:	00029000 	andeq	r9, r2, r0
     8b4:	0002bc00 	andeq	fp, r2, r0, lsl #24
     8b8:	50000100 	andpl	r0, r0, r0, lsl #2
     8bc:	000002bc 			; <UNDEFINED> instruction: 0x000002bc
     8c0:	0000050c 	andeq	r0, r0, ip, lsl #10
     8c4:	0c5a0001 	mrrceq	0, 0, r0, sl, cr1
     8c8:	24000005 	strcs	r0, [r0], #-5
     8cc:	04000005 	streq	r0, [r0], #-5
     8d0:	5001f300 	andpl	pc, r1, r0, lsl #6
     8d4:	0000009f 	muleq	r0, pc, r0	; <UNPREDICTABLE>
     8d8:	00000000 	andeq	r0, r0, r0
     8dc:	00029000 	andeq	r9, r2, r0
     8e0:	0002a400 	andeq	sl, r2, r0, lsl #8
     8e4:	51000100 	mrspl	r0, (UNDEF: 16)
     8e8:	000002a4 	andeq	r0, r0, r4, lsr #5
     8ec:	000002bc 			; <UNDEFINED> instruction: 0x000002bc
     8f0:	01710003 	cmneq	r1, r3
     8f4:	0002bc9f 	muleq	r2, pc, ip	; <UNPREDICTABLE>
     8f8:	00052400 	andeq	r2, r5, r0, lsl #8
     8fc:	f3000400 	vshl.u8	d0, d0, d0
     900:	009f5101 	addseq	r5, pc, r1, lsl #2
     904:	00000000 	andeq	r0, r0, r0
     908:	90000000 	andls	r0, r0, r0
     90c:	c4000002 	strgt	r0, [r0], #-2
     910:	01000002 	tsteq	r0, r2
     914:	02c45200 	sbceq	r5, r4, #0, 4
     918:	02ec0000 	rsceq	r0, ip, #0
     91c:	00010000 	andeq	r0, r1, r0
     920:	0002ec52 	andeq	lr, r2, r2, asr ip
     924:	0004bc00 	andeq	fp, r4, r0, lsl #24
     928:	56000100 	strpl	r0, [r0], -r0, lsl #2
     92c:	000004bc 			; <UNDEFINED> instruction: 0x000004bc
     930:	00000524 	andeq	r0, r0, r4, lsr #10
     934:	00520001 	subseq	r0, r2, r1
     938:	00000000 	andeq	r0, r0, r0
     93c:	90000000 	andls	r0, r0, r0
     940:	ac000002 	stcge	0, cr0, [r0], {2}
     944:	01000002 	tsteq	r0, r2
     948:	00005300 	andeq	r5, r0, r0, lsl #6
     94c:	00000000 	andeq	r0, r0, r0
     950:	02a00000 	adceq	r0, r0, #0
     954:	02bc0000 	adcseq	r0, ip, #0
     958:	00010000 	andeq	r0, r1, r0
     95c:	0002bc50 	andeq	fp, r2, r0, asr ip
     960:	0002c000 	andeq	ip, r2, r0
     964:	54000100 	strpl	r0, [r0], #-256	; 0x100
     968:	000002c0 	andeq	r0, r0, r0, asr #5
     96c:	000002cc 	andeq	r0, r0, ip, asr #5
     970:	01740003 	cmneq	r4, r3
     974:	0002cc9f 	muleq	r2, pc, ip	; <UNPREDICTABLE>
     978:	0002d800 	andeq	sp, r2, r0, lsl #16
     97c:	54000100 	strpl	r0, [r0], #-256	; 0x100
     980:	000002d8 	ldrdeq	r0, [r0], -r8
     984:	000002e4 	andeq	r0, r0, r4, ror #5
     988:	01740003 	cmneq	r4, r3
     98c:	0002e49f 	muleq	r2, pc, r4	; <UNPREDICTABLE>
     990:	0004c000 	andeq	ip, r4, r0
     994:	54000100 	strpl	r0, [r0], #-256	; 0x100
     998:	000004c0 	andeq	r0, r0, r0, asr #9
     99c:	000004cc 	andeq	r0, r0, ip, asr #9
     9a0:	01740003 	cmneq	r4, r3
     9a4:	0004cc9f 	muleq	r4, pc, ip	; <UNPREDICTABLE>
     9a8:	0004f800 	andeq	pc, r4, r0, lsl #16
     9ac:	54000100 	strpl	r0, [r0], #-256	; 0x100
     9b0:	000004f8 	strdeq	r0, [r0], -r8
     9b4:	00000504 	andeq	r0, r0, r4, lsl #10
     9b8:	04500001 	ldrbeq	r0, [r0], #-1
     9bc:	0c000005 	stceq	0, cr0, [r0], {5}
     9c0:	03000005 	movweq	r0, #5
     9c4:	9f017400 	svcls	0x00017400
	...
     9d0:	000002a8 	andeq	r0, r0, r8, lsr #5
     9d4:	0000050c 	andeq	r0, r0, ip, lsl #10
     9d8:	0c580001 	mrrceq	0, 0, r0, r8, cr1
     9dc:	24000005 	strcs	r0, [r0], #-5
     9e0:	0a000005 	beq	9fc <_start-0x7604>
     9e4:	5101f300 	mrspl	pc, SP_irq	; <UNPREDICTABLE>
     9e8:	225001f3 	subscs	r0, r0, #-1073741764	; 0xc000003c
     9ec:	009f1c31 	addseq	r1, pc, r1, lsr ip	; <UNPREDICTABLE>
     9f0:	00000000 	andeq	r0, r0, r0
     9f4:	f4000000 	vst4.8	{d0-d3}, [r0], r0
     9f8:	f8000003 			; <UNDEFINED> instruction: 0xf8000003
     9fc:	01000003 	tsteq	r0, r3
     a00:	04185000 	ldreq	r5, [r8], #-0
     a04:	041c0000 	ldreq	r0, [ip], #-0
     a08:	00010000 	andeq	r0, r1, r0
     a0c:	00043c50 	andeq	r3, r4, r0, asr ip
     a10:	00044000 	andeq	r4, r4, r0
     a14:	50000100 	andpl	r0, r0, r0, lsl #2
     a18:	00000460 	andeq	r0, r0, r0, ror #8
     a1c:	00000464 	andeq	r0, r0, r4, ror #8
     a20:	6c500001 	mrrcvs	0, 0, r0, r0, cr1	; <UNPREDICTABLE>
     a24:	70000004 	andvc	r0, r0, r4
     a28:	01000004 	tsteq	r0, r4
     a2c:	04905000 	ldreq	r5, [r0], #0
     a30:	04940000 	ldreq	r0, [r4], #0
     a34:	00010000 	andeq	r0, r1, r0
     a38:	0004b850 	andeq	fp, r4, r0, asr r8
     a3c:	0004e000 	andeq	lr, r4, r0
     a40:	50000100 	andpl	r0, r0, r0, lsl #2
	...
     a4c:	000002ec 	andeq	r0, r0, ip, ror #5
     a50:	000002f4 	strdeq	r0, [r0], -r4
     a54:	9f300002 	svcls	0x00300002
     a58:	000002f4 	strdeq	r0, [r0], -r4
     a5c:	000002f8 	strdeq	r0, [r0], -r8
     a60:	04570001 	ldrbeq	r0, [r7], #-1
     a64:	e0000003 	and	r0, r0, r3
     a68:	01000004 	tsteq	r0, r4
     a6c:	00005700 	andeq	r5, r0, r0, lsl #14
     a70:	00000000 	andeq	r0, r0, r0
     a74:	00040000 	andeq	r0, r4, r0
     a78:	00080000 	andeq	r0, r8, r0
     a7c:	00070000 	andeq	r0, r7, r0
     a80:	000a0073 	andeq	r0, sl, r3, ror r0
     a84:	089f2110 	ldmeq	pc, {r4, r8, sp}	; <UNPREDICTABLE>
     a88:	10000000 	andne	r0, r0, r0
     a8c:	01000000 	mrseq	r0, (UNDEF: 0)
     a90:	00005300 	andeq	r5, r0, r0, lsl #6
     a94:	00000000 	andeq	r0, r0, r0
     a98:	00140000 	andseq	r0, r4, r0
     a9c:	00180000 	andseq	r0, r8, r0
     aa0:	00070000 	andeq	r0, r7, r0
     aa4:	ff0b0073 			; <UNDEFINED> instruction: 0xff0b0073
     aa8:	189f1aef 	ldmne	pc, {r0, r1, r2, r3, r5, r6, r7, r9, fp, ip}	; <UNPREDICTABLE>
     aac:	20000000 	andcs	r0, r0, r0
     ab0:	01000000 	mrseq	r0, (UNDEF: 0)
     ab4:	00005300 	andeq	r5, r0, r0, lsl #6
	...
     ac0:	000c0000 	andeq	r0, ip, r0
     ac4:	00010000 	andeq	r0, r1, r0
     ac8:	00000c50 	andeq	r0, r0, r0, asr ip
     acc:	00002000 	andeq	r2, r0, r0
     ad0:	54000100 	strpl	r0, [r0], #-256	; 0x100
	...
     adc:	00000034 	andeq	r0, r0, r4, lsr r0
     ae0:	0000003c 	andeq	r0, r0, ip, lsr r0
     ae4:	04730003 	ldrbteq	r0, [r3], #-3
     ae8:	00003c9f 	muleq	r0, pc, ip	; <UNPREDICTABLE>
     aec:	00004700 	andeq	r4, r0, r0, lsl #14
     af0:	53000100 	movwpl	r0, #256	; 0x100
	...
     afc:	00000048 	andeq	r0, r0, r8, asr #32
     b00:	00000074 	andeq	r0, r0, r4, ror r0
     b04:	74500001 	ldrbvc	r0, [r0], #-1
     b08:	83000000 	movwhi	r0, #0
     b0c:	03000000 	movweq	r0, #0
     b10:	9f787300 	svcls	0x00787300
	...
     b1c:	000088bc 			; <UNDEFINED> instruction: 0x000088bc
     b20:	000088c0 	andeq	r8, r0, r0, asr #17
     b24:	9f300002 	svcls	0x00300002
     b28:	000088c0 	andeq	r8, r0, r0, asr #17
     b2c:	000088c4 	andeq	r8, r0, r4, asr #17
     b30:	00500001 	subseq	r0, r0, r1
     b34:	00000000 	andeq	r0, r0, r0
     b38:	d4000000 	strle	r0, [r0], #-0
     b3c:	d8000088 	stmdale	r0, {r3, r7}
     b40:	02000088 	andeq	r0, r0, #136	; 0x88
     b44:	d89f3000 	ldmle	pc, {ip, sp}	; <UNPREDICTABLE>
     b48:	dc000088 	stcle	0, cr0, [r0], {136}	; 0x88
     b4c:	01000088 	smlabbeq	r0, r8, r0, r0
     b50:	88e05300 	stmiahi	r0!, {r8, r9, ip, lr}^
     b54:	88e80000 	stmiahi	r8!, {}^	; <UNPREDICTABLE>
     b58:	00010000 	andeq	r0, r1, r0
     b5c:	00000053 	andeq	r0, r0, r3, asr r0
	...
     b68:	00000400 	andeq	r0, r0, r0, lsl #8
     b6c:	50000100 	andpl	r0, r0, r0, lsl #2
     b70:	00000004 	andeq	r0, r0, r4
     b74:	0000000c 	andeq	r0, r0, ip
     b78:	0c530001 	mrrceq	0, 0, r0, r3, cr1
     b7c:	10000000 	andne	r0, r0, r0
     b80:	01000000 	mrseq	r0, (UNDEF: 0)
     b84:	00105000 	andseq	r5, r0, r0
     b88:	001c0000 	andseq	r0, ip, r0
     b8c:	00010000 	andeq	r0, r1, r0
     b90:	00000053 	andeq	r0, r0, r3, asr r0
     b94:	00000000 	andeq	r0, r0, r0
     b98:	00003c00 	andeq	r3, r0, r0, lsl #24
     b9c:	00004700 	andeq	r4, r0, r0, lsl #14
     ba0:	50000100 	andpl	r0, r0, r0, lsl #2
     ba4:	00000047 	andeq	r0, r0, r7, asr #32
     ba8:	00000060 	andeq	r0, r0, r0, rrx
     bac:	00550001 	subseq	r0, r5, r1
     bb0:	00000000 	andeq	r0, r0, r0
     bb4:	50000000 	andpl	r0, r0, r0
     bb8:	54000000 	strpl	r0, [r0], #-0
     bbc:	01000000 	mrseq	r0, (UNDEF: 0)
     bc0:	00005000 	andeq	r5, r0, r0
     bc4:	00000000 	andeq	r0, r0, r0
     bc8:	00600000 	rsbeq	r0, r0, r0
     bcc:	006c0000 	rsbeq	r0, ip, r0
     bd0:	00010000 	andeq	r0, r1, r0
     bd4:	00006c50 	andeq	r6, r0, r0, asr ip
     bd8:	00007400 	andeq	r7, r0, r0, lsl #8
     bdc:	f3000400 	vshl.u8	d0, d0, d0
     be0:	009f5001 	addseq	r5, pc, r1
     be4:	00000000 	andeq	r0, r0, r0
     be8:	74000000 	strvc	r0, [r0], #-0
     bec:	80000000 	andhi	r0, r0, r0
     bf0:	01000000 	mrseq	r0, (UNDEF: 0)
     bf4:	00805000 	addeq	r5, r0, r0
     bf8:	00880000 	addeq	r0, r8, r0
     bfc:	00040000 	andeq	r0, r4, r0
     c00:	9f5001f3 	svcls	0x005001f3
	...
     c10:	00000090 	muleq	r0, r0, r0
     c14:	90500001 	subsls	r0, r0, r1
     c18:	d4000000 	strle	r0, [r0], #-0
     c1c:	01000000 	mrseq	r0, (UNDEF: 0)
     c20:	00005400 	andeq	r5, r0, r0, lsl #8
     c24:	00000000 	andeq	r0, r0, r0
     c28:	00480000 	subeq	r0, r8, r0
     c2c:	004c0000 	subeq	r0, ip, r0
     c30:	00010000 	andeq	r0, r1, r0
     c34:	00005455 	andeq	r5, r0, r5, asr r4
     c38:	00005800 	andeq	r5, r0, r0, lsl #16
     c3c:	55000100 	strpl	r0, [r0, #-256]	; 0x100
     c40:	00000060 	andeq	r0, r0, r0, rrx
     c44:	00000064 	andeq	r0, r0, r4, rrx
     c48:	6c550001 	mrrcvs	0, 0, r0, r5, cr1
     c4c:	70000000 	andvc	r0, r0, r0
     c50:	01000000 	mrseq	r0, (UNDEF: 0)
     c54:	00785500 	rsbseq	r5, r8, r0, lsl #10
     c58:	007c0000 	rsbseq	r0, ip, r0
     c5c:	00010000 	andeq	r0, r1, r0
     c60:	00008455 	andeq	r8, r0, r5, asr r4
     c64:	00008800 	andeq	r8, r0, r0, lsl #16
     c68:	55000100 	strpl	r0, [r0, #-256]	; 0x100
     c6c:	0000008c 	andeq	r0, r0, ip, lsl #1
     c70:	000000d4 	ldrdeq	r0, [r0], -r4
     c74:	00550001 	subseq	r0, r5, r1
     c78:	00000000 	andeq	r0, r0, r0
     c7c:	1c000000 	stcne	0, cr0, [r0], {-0}
     c80:	44000000 	strmi	r0, [r0], #-0
     c84:	01000000 	mrseq	r0, (UNDEF: 0)
     c88:	00445300 	subeq	r5, r4, r0, lsl #6
     c8c:	004c0000 	subeq	r0, ip, r0
     c90:	001c0000 	andseq	r0, ip, r0
     c94:	2cf70070 	ldclcs	0, cr0, [r7], #448	; 0x1c0
     c98:	25f425f7 	ldrbcs	r2, [r4, #1527]!	; 0x5f7
     c9c:	cccccd08 	stclgt	13, cr12, [ip], {8}
     ca0:	000000cc 	andeq	r0, r0, ip, asr #1
     ca4:	20081e00 	andcs	r1, r8, r0, lsl #28
     ca8:	f72525f7 			; <UNDEFINED> instruction: 0xf72525f7
     cac:	9f25332c 	svcls	0x0025332c
     cb0:	0000004c 	andeq	r0, r0, ip, asr #32
     cb4:	00000050 	andeq	r0, r0, r0, asr r0
     cb8:	50530001 	subspl	r0, r3, r1
     cbc:	58000000 	stmdapl	r0, {}	; <UNPREDICTABLE>
     cc0:	1c000000 	stcne	0, cr0, [r0], {-0}
     cc4:	f7007000 			; <UNDEFINED> instruction: 0xf7007000
     cc8:	f425f72c 	vld1.8	{d15}, [r5 :128], ip
     ccc:	cccd0825 	stclgt	8, cr0, [sp], {37}	; 0x25
     cd0:	0000cccc 	andeq	ip, r0, ip, asr #25
     cd4:	081e0000 	ldmdaeq	lr, {}	; <UNPREDICTABLE>
     cd8:	2525f720 	strcs	pc, [r5, #-1824]!	; 0x720
     cdc:	25332cf7 	ldrcs	r2, [r3, #-3319]!	; 0xcf7
     ce0:	0000589f 	muleq	r0, pc, r8	; <UNPREDICTABLE>
     ce4:	00005c00 	andeq	r5, r0, r0, lsl #24
     ce8:	53000100 	movwpl	r0, #256	; 0x100
     cec:	0000005c 	andeq	r0, r0, ip, asr r0
     cf0:	00000064 	andeq	r0, r0, r4, rrx
     cf4:	0070001c 	rsbseq	r0, r0, ip, lsl r0
     cf8:	25f72cf7 	ldrbcs	r2, [r7, #3319]!	; 0xcf7
     cfc:	cd0825f4 	cfstr32gt	mvfx2, [r8, #-976]	; 0xfffffc30
     d00:	00cccccc 	sbceq	ip, ip, ip, asr #25
     d04:	1e000000 	cdpne	0, 0, cr0, cr0, cr0, {0}
     d08:	25f72008 	ldrbcs	r2, [r7, #8]!
     d0c:	332cf725 	msrcc	CPSR_fs, #9699328	; 0x940000
     d10:	00649f25 	rsbeq	r9, r4, r5, lsr #30
     d14:	00680000 	rsbeq	r0, r8, r0
     d18:	00010000 	andeq	r0, r1, r0
     d1c:	00006853 	andeq	r6, r0, r3, asr r8
     d20:	00007000 	andeq	r7, r0, r0
     d24:	70001c00 	andvc	r1, r0, r0, lsl #24
     d28:	f72cf700 			; <UNDEFINED> instruction: 0xf72cf700
     d2c:	0825f425 	stmdaeq	r5!, {r0, r2, r5, sl, ip, sp, lr, pc}
     d30:	cccccccd 	stclgt	12, cr12, [ip], {205}	; 0xcd
     d34:	00000000 	andeq	r0, r0, r0
     d38:	f720081e 			; <UNDEFINED> instruction: 0xf720081e
     d3c:	2cf72525 	cfldr64cs	mvdx2, [r7], #148	; 0x94
     d40:	709f2533 	addsvc	r2, pc, r3, lsr r5	; <UNPREDICTABLE>
     d44:	74000000 	strvc	r0, [r0], #-0
     d48:	01000000 	mrseq	r0, (UNDEF: 0)
     d4c:	00745300 	rsbseq	r5, r4, r0, lsl #6
     d50:	007c0000 	rsbseq	r0, ip, r0
     d54:	001c0000 	andseq	r0, ip, r0
     d58:	2cf70070 	ldclcs	0, cr0, [r7], #448	; 0x1c0
     d5c:	25f425f7 	ldrbcs	r2, [r4, #1527]!	; 0x5f7
     d60:	cccccd08 	stclgt	13, cr12, [ip], {8}
     d64:	000000cc 	andeq	r0, r0, ip, asr #1
     d68:	20081e00 	andcs	r1, r8, r0, lsl #28
     d6c:	f72525f7 			; <UNDEFINED> instruction: 0xf72525f7
     d70:	9f25332c 	svcls	0x0025332c
     d74:	0000007c 	andeq	r0, r0, ip, ror r0
     d78:	00000080 	andeq	r0, r0, r0, lsl #1
     d7c:	80530001 	subshi	r0, r3, r1
     d80:	88000000 	stmdahi	r0, {}	; <UNPREDICTABLE>
     d84:	1c000000 	stcne	0, cr0, [r0], {-0}
     d88:	f7007000 			; <UNDEFINED> instruction: 0xf7007000
     d8c:	f425f72c 	vld1.8	{d15}, [r5 :128], ip
     d90:	cccd0825 	stclgt	8, cr0, [sp], {37}	; 0x25
     d94:	0000cccc 	andeq	ip, r0, ip, asr #25
     d98:	081e0000 	ldmdaeq	lr, {}	; <UNPREDICTABLE>
     d9c:	2525f720 	strcs	pc, [r5, #-1824]!	; 0x720
     da0:	25332cf7 	ldrcs	r2, [r3, #-3319]!	; 0xcf7
     da4:	0000889f 	muleq	r0, pc, r8	; <UNPREDICTABLE>
     da8:	00008c00 	andeq	r8, r0, r0, lsl #24
     dac:	53000100 	movwpl	r0, #256	; 0x100
     db0:	0000008c 	andeq	r0, r0, ip, lsl #1
     db4:	00000090 	muleq	r0, r0, r0
     db8:	0070001c 	rsbseq	r0, r0, ip, lsl r0
     dbc:	25f72cf7 	ldrbcs	r2, [r7, #3319]!	; 0xcf7
     dc0:	cd0825f4 	cfstr32gt	mvfx2, [r8, #-976]	; 0xfffffc30
     dc4:	00cccccc 	sbceq	ip, ip, ip, asr #25
     dc8:	1e000000 	cdpne	0, 0, cr0, cr0, cr0, {0}
     dcc:	25f72008 	ldrbcs	r2, [r7, #8]!
     dd0:	332cf725 	msrcc	CPSR_fs, #9699328	; 0x940000
     dd4:	00909f25 	addseq	r9, r0, r5, lsr #30
     dd8:	00980000 	addseq	r0, r8, r0
     ddc:	001c0000 	andseq	r0, ip, r0
     de0:	2cf70074 	ldclcs	0, cr0, [r7], #464	; 0x1d0
     de4:	25f425f7 	ldrbcs	r2, [r4, #1527]!	; 0x5f7
     de8:	cccccd08 	stclgt	13, cr12, [ip], {8}
     dec:	000000cc 	andeq	r0, r0, ip, asr #1
     df0:	20081e00 	andcs	r1, r8, r0, lsl #28
     df4:	f72525f7 			; <UNDEFINED> instruction: 0xf72525f7
     df8:	9f25332c 	svcls	0x0025332c
     dfc:	00000098 	muleq	r0, r8, r0
     e00:	0000009c 	muleq	r0, ip, r0
     e04:	00740017 	rsbseq	r0, r4, r7, lsl r0
     e08:	25f72cf7 	ldrbcs	r2, [r7, #3319]!	; 0xcf7
     e0c:	2cf70071 	ldclcs	0, cr0, [r7], #452	; 0x1c4
     e10:	081e25f7 	ldmdaeq	lr, {r0, r1, r2, r4, r5, r6, r7, r8, sl, sp}
     e14:	2525f720 	strcs	pc, [r5, #-1824]!	; 0x720
     e18:	25332cf7 	ldrcs	r2, [r3, #-3319]!	; 0xcf7
     e1c:	00009c9f 	muleq	r0, pc, ip	; <UNPREDICTABLE>
     e20:	0000d400 	andeq	sp, r0, r0, lsl #8
     e24:	74001c00 	strvc	r1, [r0], #-3072	; 0xc00
     e28:	f72cf700 			; <UNDEFINED> instruction: 0xf72cf700
     e2c:	0825f425 	stmdaeq	r5!, {r0, r2, r5, sl, ip, sp, lr, pc}
     e30:	cccccccd 	stclgt	12, cr12, [ip], {205}	; 0xcd
     e34:	00000000 	andeq	r0, r0, r0
     e38:	f720081e 			; <UNDEFINED> instruction: 0xf720081e
     e3c:	2cf72525 	cfldr64cs	mvdx2, [r7], #148	; 0x94
     e40:	009f2533 	addseq	r2, pc, r3, lsr r5	; <UNPREDICTABLE>
     e44:	00000000 	andeq	r0, r0, r0
     e48:	94000000 	strls	r0, [r0], #-0
     e4c:	b8000000 	stmdalt	r0, {}	; <UNPREDICTABLE>
     e50:	01000000 	mrseq	r0, (UNDEF: 0)
     e54:	00b85000 	adcseq	r5, r8, r0
     e58:	00c40000 	sbceq	r0, r4, r0
     e5c:	00080000 	andeq	r0, r8, r0
     e60:	24007131 	strcs	r7, [r0], #-305	; 0x131
     e64:	9f210073 	svcls	0x00210073
     e68:	000000c4 	andeq	r0, r0, r4, asr #1
     e6c:	000000c7 	andeq	r0, r0, r7, asr #1
     e70:	00510001 	subseq	r0, r1, r1
     e74:	00000000 	andeq	r0, r0, r0
     e78:	d4000000 	strle	r0, [r0], #-0
     e7c:	f8000000 			; <UNDEFINED> instruction: 0xf8000000
     e80:	01000000 	mrseq	r0, (UNDEF: 0)
     e84:	00f85000 	rscseq	r5, r8, r0
     e88:	010c0000 	mrseq	r0, (UNDEF: 12)
     e8c:	00040000 	andeq	r0, r4, r0
     e90:	9f5001f3 	svcls	0x005001f3
	...
     e9c:	000000e0 	andeq	r0, r0, r0, ror #1
     ea0:	000000e8 	andeq	r0, r0, r8, ror #1
     ea4:	9f300002 	svcls	0x00300002
     ea8:	000000e8 	andeq	r0, r0, r8, ror #1
     eac:	000000e8 	andeq	r0, r0, r8, ror #1
     eb0:	e8520001 	ldmda	r2, {r0}^
     eb4:	f0000000 			; <UNDEFINED> instruction: 0xf0000000
     eb8:	02000000 	andeq	r0, r0, #0
     ebc:	f09f3000 			; <UNDEFINED> instruction: 0xf09f3000
     ec0:	03000000 	movweq	r0, #0
     ec4:	01000001 	tsteq	r0, r1
     ec8:	00005200 	andeq	r5, r0, r0, lsl #4
     ecc:	00000000 	andeq	r0, r0, r0
     ed0:	00e00000 	rsceq	r0, r0, r0
     ed4:	00f40000 	rscseq	r0, r4, r0
     ed8:	00020000 	andeq	r0, r2, r0
     edc:	00f49f30 	rscseq	r9, r4, r0, lsr pc
     ee0:	01000000 	mrseq	r0, (UNDEF: 0)
     ee4:	00050000 	andeq	r0, r5, r0
     ee8:	24007331 	strcs	r7, [r0], #-817	; 0x331
     eec:	0001009f 	muleq	r1, pc, r0	; <UNPREDICTABLE>
     ef0:	00010300 	andeq	r0, r1, r0, lsl #6
     ef4:	51000100 	mrspl	r0, (UNDEF: 16)
     ef8:	00000103 	andeq	r0, r0, r3, lsl #2
     efc:	0000010c 	andeq	r0, r0, ip, lsl #2
     f00:	f3310008 	vhadd.u<illegal width 64>	d0, d1, d8
     f04:	1a4f5001 	bne	13d4f10 <__bss_end__+0x13cafc0>
     f08:	00009f24 	andeq	r9, r0, r4, lsr #30
     f0c:	00000000 	andeq	r0, r0, r0
     f10:	010c0000 	mrseq	r0, (UNDEF: 12)
     f14:	01300000 	teqeq	r0, r0
     f18:	00010000 	andeq	r0, r1, r0
     f1c:	00013050 	andeq	r3, r1, r0, asr r0
     f20:	00014400 	andeq	r4, r1, r0, lsl #8
     f24:	f3000400 	vshl.u8	d0, d0, d0
     f28:	009f5001 	addseq	r5, pc, r1
     f2c:	00000000 	andeq	r0, r0, r0
     f30:	18000000 	stmdane	r0, {}	; <UNPREDICTABLE>
     f34:	20000001 	andcs	r0, r0, r1
     f38:	02000001 	andeq	r0, r0, #1
     f3c:	209f3000 	addscs	r3, pc, r0
     f40:	20000001 	andcs	r0, r0, r1
     f44:	01000001 	tsteq	r0, r1
     f48:	01205200 	teqeq	r0, r0, lsl #4
     f4c:	01280000 	teqeq	r8, r0
     f50:	00020000 	andeq	r0, r2, r0
     f54:	01289f30 	teqeq	r8, r0, lsr pc
     f58:	013b0000 	teqeq	fp, r0
     f5c:	00010000 	andeq	r0, r1, r0
     f60:	00000052 	andeq	r0, r0, r2, asr r0
     f64:	00000000 	andeq	r0, r0, r0
     f68:	00011800 	andeq	r1, r1, r0, lsl #16
     f6c:	00012c00 	andeq	r2, r1, r0, lsl #24
     f70:	30000200 	andcc	r0, r0, r0, lsl #4
     f74:	00012c9f 	muleq	r1, pc, ip	; <UNPREDICTABLE>
     f78:	00013800 	andeq	r3, r1, r0, lsl #16
     f7c:	31000500 	tstcc	r0, r0, lsl #10
     f80:	9f240073 	svcls	0x00240073
     f84:	00000138 	andeq	r0, r0, r8, lsr r1
     f88:	0000013b 	andeq	r0, r0, fp, lsr r1
     f8c:	3b510001 	blcc	1440f98 <__bss_end__+0x1437048>
     f90:	44000001 	strmi	r0, [r0], #-1
     f94:	08000001 	stmdaeq	r0, {r0}
     f98:	01f33100 	mvnseq	r3, r0, lsl #2
     f9c:	241a4f50 	ldrcs	r4, [sl], #-3920	; 0xf50
     fa0:	0000009f 	muleq	r0, pc, r0	; <UNPREDICTABLE>
     fa4:	00000000 	andeq	r0, r0, r0
     fa8:	00014400 	andeq	r4, r1, r0, lsl #8
     fac:	0001d400 	andeq	sp, r1, r0, lsl #8
     fb0:	50000100 	andpl	r0, r0, r0, lsl #2
     fb4:	000001d4 	ldrdeq	r0, [r0], -r4
     fb8:	00000210 	andeq	r0, r0, r0, lsl r2
     fbc:	00540001 	subseq	r0, r4, r1
     fc0:	00000000 	andeq	r0, r0, r0
     fc4:	8c000000 	stchi	0, cr0, [r0], {-0}
     fc8:	90000001 	andls	r0, r0, r1
     fcc:	01000001 	tsteq	r0, r1
     fd0:	01985500 	orrseq	r5, r8, r0, lsl #10
     fd4:	019c0000 	orrseq	r0, ip, r0
     fd8:	00010000 	andeq	r0, r1, r0
     fdc:	0001a455 	andeq	sl, r1, r5, asr r4
     fe0:	0001a800 	andeq	sl, r1, r0, lsl #16
     fe4:	55000100 	strpl	r0, [r0, #-256]	; 0x100
     fe8:	000001b0 			; <UNDEFINED> instruction: 0x000001b0
     fec:	000001b4 			; <UNDEFINED> instruction: 0x000001b4
     ff0:	bc550001 	mrrclt	0, 0, r0, r5, cr1
     ff4:	c0000001 	andgt	r0, r0, r1
     ff8:	01000001 	tsteq	r0, r1
     ffc:	01c85500 	biceq	r5, r8, r0, lsl #10
    1000:	01cc0000 	biceq	r0, ip, r0
    1004:	00010000 	andeq	r0, r1, r0
    1008:	0001d055 	andeq	sp, r1, r5, asr r0
    100c:	00021000 	andeq	r1, r2, r0
    1010:	55000100 	strpl	r0, [r0, #-256]	; 0x100
	...
    101c:	00000160 	andeq	r0, r0, r0, ror #2
    1020:	00000188 	andeq	r0, r0, r8, lsl #3
    1024:	88530001 	ldmdahi	r3, {r0}^
    1028:	90000001 	andls	r0, r0, r1
    102c:	1c000001 	stcne	0, cr0, [r0], {1}
    1030:	f7007000 			; <UNDEFINED> instruction: 0xf7007000
    1034:	f425f72c 	vld1.8	{d15}, [r5 :128], ip
    1038:	cccd0825 	stclgt	8, cr0, [sp], {37}	; 0x25
    103c:	0000cccc 	andeq	ip, r0, ip, asr #25
    1040:	081e0000 	ldmdaeq	lr, {}	; <UNPREDICTABLE>
    1044:	2525f720 	strcs	pc, [r5, #-1824]!	; 0x720
    1048:	25332cf7 	ldrcs	r2, [r3, #-3319]!	; 0xcf7
    104c:	0001909f 	muleq	r1, pc, r0	; <UNPREDICTABLE>
    1050:	00019400 	andeq	r9, r1, r0, lsl #8
    1054:	53000100 	movwpl	r0, #256	; 0x100
    1058:	00000194 	muleq	r0, r4, r1
    105c:	0000019c 	muleq	r0, ip, r1
    1060:	0070001c 	rsbseq	r0, r0, ip, lsl r0
    1064:	25f72cf7 	ldrbcs	r2, [r7, #3319]!	; 0xcf7
    1068:	cd0825f4 	cfstr32gt	mvfx2, [r8, #-976]	; 0xfffffc30
    106c:	00cccccc 	sbceq	ip, ip, ip, asr #25
    1070:	1e000000 	cdpne	0, 0, cr0, cr0, cr0, {0}
    1074:	25f72008 	ldrbcs	r2, [r7, #8]!
    1078:	332cf725 	msrcc	CPSR_fs, #9699328	; 0x940000
    107c:	019c9f25 	orrseq	r9, ip, r5, lsr #30
    1080:	01a00000 	moveq	r0, r0
    1084:	00010000 	andeq	r0, r1, r0
    1088:	0001a053 	andeq	sl, r1, r3, asr r0
    108c:	0001a800 	andeq	sl, r1, r0, lsl #16
    1090:	70001c00 	andvc	r1, r0, r0, lsl #24
    1094:	f72cf700 			; <UNDEFINED> instruction: 0xf72cf700
    1098:	0825f425 	stmdaeq	r5!, {r0, r2, r5, sl, ip, sp, lr, pc}
    109c:	cccccccd 	stclgt	12, cr12, [ip], {205}	; 0xcd
    10a0:	00000000 	andeq	r0, r0, r0
    10a4:	f720081e 			; <UNDEFINED> instruction: 0xf720081e
    10a8:	2cf72525 	cfldr64cs	mvdx2, [r7], #148	; 0x94
    10ac:	a89f2533 	ldmge	pc, {r0, r1, r4, r5, r8, sl, sp}	; <UNPREDICTABLE>
    10b0:	ac000001 	stcge	0, cr0, [r0], {1}
    10b4:	01000001 	tsteq	r0, r1
    10b8:	01ac5300 			; <UNDEFINED> instruction: 0x01ac5300
    10bc:	01b40000 			; <UNDEFINED> instruction: 0x01b40000
    10c0:	001c0000 	andseq	r0, ip, r0
    10c4:	2cf70070 	ldclcs	0, cr0, [r7], #448	; 0x1c0
    10c8:	25f425f7 	ldrbcs	r2, [r4, #1527]!	; 0x5f7
    10cc:	cccccd08 	stclgt	13, cr12, [ip], {8}
    10d0:	000000cc 	andeq	r0, r0, ip, asr #1
    10d4:	20081e00 	andcs	r1, r8, r0, lsl #28
    10d8:	f72525f7 			; <UNDEFINED> instruction: 0xf72525f7
    10dc:	9f25332c 	svcls	0x0025332c
    10e0:	000001b4 			; <UNDEFINED> instruction: 0x000001b4
    10e4:	000001b8 			; <UNDEFINED> instruction: 0x000001b8
    10e8:	b8530001 	ldmdalt	r3, {r0}^
    10ec:	c0000001 	andgt	r0, r0, r1
    10f0:	1c000001 	stcne	0, cr0, [r0], {1}
    10f4:	f7007000 			; <UNDEFINED> instruction: 0xf7007000
    10f8:	f425f72c 	vld1.8	{d15}, [r5 :128], ip
    10fc:	cccd0825 	stclgt	8, cr0, [sp], {37}	; 0x25
    1100:	0000cccc 	andeq	ip, r0, ip, asr #25
    1104:	081e0000 	ldmdaeq	lr, {}	; <UNPREDICTABLE>
    1108:	2525f720 	strcs	pc, [r5, #-1824]!	; 0x720
    110c:	25332cf7 	ldrcs	r2, [r3, #-3319]!	; 0xcf7
    1110:	0001c09f 	muleq	r1, pc, r0	; <UNPREDICTABLE>
    1114:	0001c400 	andeq	ip, r1, r0, lsl #8
    1118:	53000100 	movwpl	r0, #256	; 0x100
    111c:	000001c4 	andeq	r0, r0, r4, asr #3
    1120:	000001cc 	andeq	r0, r0, ip, asr #3
    1124:	0070001c 	rsbseq	r0, r0, ip, lsl r0
    1128:	25f72cf7 	ldrbcs	r2, [r7, #3319]!	; 0xcf7
    112c:	cd0825f4 	cfstr32gt	mvfx2, [r8, #-976]	; 0xfffffc30
    1130:	00cccccc 	sbceq	ip, ip, ip, asr #25
    1134:	1e000000 	cdpne	0, 0, cr0, cr0, cr0, {0}
    1138:	25f72008 	ldrbcs	r2, [r7, #8]!
    113c:	332cf725 	msrcc	CPSR_fs, #9699328	; 0x940000
    1140:	01cc9f25 	biceq	r9, ip, r5, lsr #30
    1144:	01d00000 	bicseq	r0, r0, r0
    1148:	00010000 	andeq	r0, r1, r0
    114c:	0001d053 	andeq	sp, r1, r3, asr r0
    1150:	0001d400 	andeq	sp, r1, r0, lsl #8
    1154:	70001c00 	andvc	r1, r0, r0, lsl #24
    1158:	f72cf700 			; <UNDEFINED> instruction: 0xf72cf700
    115c:	0825f425 	stmdaeq	r5!, {r0, r2, r5, sl, ip, sp, lr, pc}
    1160:	cccccccd 	stclgt	12, cr12, [ip], {205}	; 0xcd
    1164:	00000000 	andeq	r0, r0, r0
    1168:	f720081e 			; <UNDEFINED> instruction: 0xf720081e
    116c:	2cf72525 	cfldr64cs	mvdx2, [r7], #148	; 0x94
    1170:	d49f2533 	ldrle	r2, [pc], #1331	; 1178 <_start-0x6e88>
    1174:	dc000001 	stcle	0, cr0, [r0], {1}
    1178:	1c000001 	stcne	0, cr0, [r0], {1}
    117c:	f7007400 			; <UNDEFINED> instruction: 0xf7007400
    1180:	f425f72c 	vld1.8	{d15}, [r5 :128], ip
    1184:	cccd0825 	stclgt	8, cr0, [sp], {37}	; 0x25
    1188:	0000cccc 	andeq	ip, r0, ip, asr #25
    118c:	081e0000 	ldmdaeq	lr, {}	; <UNPREDICTABLE>
    1190:	2525f720 	strcs	pc, [r5, #-1824]!	; 0x720
    1194:	25332cf7 	ldrcs	r2, [r3, #-3319]!	; 0xcf7
    1198:	0001dc9f 	muleq	r1, pc, ip	; <UNPREDICTABLE>
    119c:	0001e000 	andeq	lr, r1, r0
    11a0:	74001700 	strvc	r1, [r0], #-1792	; 0x700
    11a4:	f72cf700 			; <UNDEFINED> instruction: 0xf72cf700
    11a8:	f7007125 			; <UNDEFINED> instruction: 0xf7007125
    11ac:	1e25f72c 	cdpne	7, 2, cr15, cr5, cr12, {1}
    11b0:	25f72008 	ldrbcs	r2, [r7, #8]!
    11b4:	332cf725 	msrcc	CPSR_fs, #9699328	; 0x940000
    11b8:	01e09f25 	mvneq	r9, r5, lsr #30
    11bc:	02100000 	andseq	r0, r0, #0
    11c0:	001c0000 	andseq	r0, ip, r0
    11c4:	2cf70074 	ldclcs	0, cr0, [r7], #464	; 0x1d0
    11c8:	25f425f7 	ldrbcs	r2, [r4, #1527]!	; 0x5f7
    11cc:	cccccd08 	stclgt	13, cr12, [ip], {8}
    11d0:	000000cc 	andeq	r0, r0, ip, asr #1
    11d4:	20081e00 	andcs	r1, r8, r0, lsl #28
    11d8:	f72525f7 			; <UNDEFINED> instruction: 0xf72525f7
    11dc:	9f25332c 	svcls	0x0025332c
	...
    11e8:	000001d8 	ldrdeq	r0, [r0], -r8
    11ec:	000001fc 	strdeq	r0, [r0], -ip
    11f0:	fc500001 	mrrc2	0, 0, r0, r0, cr1	; <UNPREDICTABLE>
    11f4:	03000001 	movweq	r0, #1
    11f8:	01000002 	tsteq	r0, r2
    11fc:	00005100 	andeq	r5, r0, r0, lsl #2
    1200:	00000000 	andeq	r0, r0, r0
    1204:	02100000 	andseq	r0, r0, #0
    1208:	022c0000 	eoreq	r0, ip, #0
    120c:	00010000 	andeq	r0, r1, r0
    1210:	00022c50 	andeq	r2, r2, r0, asr ip
    1214:	00023400 	andeq	r3, r2, r0, lsl #8
    1218:	54000100 	strpl	r0, [r0], #-256	; 0x100
    121c:	00000234 	andeq	r0, r0, r4, lsr r2
    1220:	0000023c 	andeq	r0, r0, ip, lsr r2
    1224:	3c500001 	mrrccc	0, 0, r0, r0, cr1	; <UNPREDICTABLE>
    1228:	44000002 	strmi	r0, [r0], #-2
    122c:	01000002 	tsteq	r0, r2
    1230:	02445400 	subeq	r5, r4, #0, 8
    1234:	02500000 	subseq	r0, r0, #0
    1238:	00040000 	andeq	r0, r4, r0
    123c:	9f5001f3 	svcls	0x005001f3
    1240:	00000250 	andeq	r0, r0, r0, asr r2
    1244:	00000254 	andeq	r0, r0, r4, asr r2
    1248:	54500001 	ldrbpl	r0, [r0], #-1
    124c:	5c000002 	stcpl	0, cr0, [r0], {2}
    1250:	01000002 	tsteq	r0, r2
    1254:	00005400 	andeq	r5, r0, r0, lsl #8
    1258:	00000000 	andeq	r0, r0, r0
    125c:	02200000 	eoreq	r0, r0, #0
    1260:	02300000 	eorseq	r0, r0, #0
    1264:	00020000 	andeq	r0, r2, r0
    1268:	02309f30 	eorseq	r9, r0, #48, 30	; 0xc0
    126c:	02340000 	eorseq	r0, r4, #0
    1270:	00010000 	andeq	r0, r1, r0
    1274:	00023450 	andeq	r3, r2, r0, asr r4
    1278:	00024000 	andeq	r4, r2, r0
    127c:	30000200 	andcc	r0, r0, r0, lsl #4
    1280:	0002409f 	muleq	r2, pc, r0	; <UNPREDICTABLE>
    1284:	00024c00 	andeq	r4, r2, r0, lsl #24
    1288:	50000100 	andpl	r0, r0, r0, lsl #2
	...
    1294:	0000025c 	andeq	r0, r0, ip, asr r2
    1298:	00000273 	andeq	r0, r0, r3, ror r2
    129c:	73500001 	cmpvc	r0, #1
    12a0:	78000002 	stmdavc	r0, {r1}
    12a4:	04000002 	streq	r0, [r0], #-2
    12a8:	5001f300 	andpl	pc, r1, r0, lsl #6
    12ac:	0002789f 	muleq	r2, pc, r8	; <UNPREDICTABLE>
    12b0:	00027b00 	andeq	r7, r2, r0, lsl #22
    12b4:	50000100 	andpl	r0, r0, r0, lsl #2
    12b8:	0000027b 	andeq	r0, r0, fp, ror r2
    12bc:	00000280 	andeq	r0, r0, r0, lsl #5
    12c0:	01f30004 	mvnseq	r0, r4
    12c4:	00009f50 	andeq	r9, r0, r0, asr pc
    12c8:	00000000 	andeq	r0, r0, r0
    12cc:	025c0000 	subseq	r0, ip, #0
    12d0:	02730000 	rsbseq	r0, r3, #0
    12d4:	00010000 	andeq	r0, r1, r0
    12d8:	00027351 	andeq	r7, r2, r1, asr r3
    12dc:	00027800 	andeq	r7, r2, r0, lsl #16
    12e0:	f3000400 	vshl.u8	d0, d0, d0
    12e4:	789f5101 	ldmvc	pc, {r0, r8, ip, lr}	; <UNPREDICTABLE>
    12e8:	7b000002 	blvc	12f8 <_start-0x6d08>
    12ec:	01000002 	tsteq	r0, r2
    12f0:	027b5100 	rsbseq	r5, fp, #0, 2
    12f4:	02800000 	addeq	r0, r0, #0
    12f8:	00040000 	andeq	r0, r4, r0
    12fc:	9f5101f3 	svcls	0x005101f3
	...
    1308:	00000280 	andeq	r0, r0, r0, lsl #5
    130c:	00000318 	andeq	r0, r0, r8, lsl r3
    1310:	18500001 	ldmdane	r0, {r0}^
    1314:	58000003 	stmdapl	r0, {r0, r1}
    1318:	01000003 	tsteq	r0, r3
    131c:	00005400 	andeq	r5, r0, r0, lsl #8
    1320:	00000000 	andeq	r0, r0, r0
    1324:	02800000 	addeq	r0, r0, #0
    1328:	031b0000 	tsteq	fp, #0
    132c:	00010000 	andeq	r0, r1, r0
    1330:	00031b51 	andeq	r1, r3, r1, asr fp
    1334:	00035800 	andeq	r5, r3, r0, lsl #16
    1338:	f3000400 	vshl.u8	d0, d0, d0
    133c:	009f5101 	addseq	r5, pc, r1, lsl #2
    1340:	00000000 	andeq	r0, r0, r0
    1344:	d0000000 	andle	r0, r0, r0
    1348:	d4000002 	strle	r0, [r0], #-2
    134c:	01000002 	tsteq	r0, r2
    1350:	02dc5600 	sbcseq	r5, ip, #0, 12
    1354:	02e00000 	rsceq	r0, r0, #0
    1358:	00010000 	andeq	r0, r1, r0
    135c:	0002e856 	andeq	lr, r2, r6, asr r8
    1360:	0002ec00 	andeq	lr, r2, r0, lsl #24
    1364:	56000100 	strpl	r0, [r0], -r0, lsl #2
    1368:	000002f4 	strdeq	r0, [r0], -r4
    136c:	000002f8 	strdeq	r0, [r0], -r8
    1370:	00560001 	subseq	r0, r6, r1
    1374:	04000003 	streq	r0, [r0], #-3
    1378:	01000003 	tsteq	r0, r3
    137c:	030c5600 	movweq	r5, #50688	; 0xc600
    1380:	03100000 	tsteq	r0, #0
    1384:	00010000 	andeq	r0, r1, r0
    1388:	00031456 	andeq	r1, r3, r6, asr r4
    138c:	00035800 	andeq	r5, r3, r0, lsl #16
    1390:	56000100 	strpl	r0, [r0], -r0, lsl #2
	...
    139c:	000002a4 	andeq	r0, r0, r4, lsr #5
    13a0:	000002cc 	andeq	r0, r0, ip, asr #5
    13a4:	cc530001 	mrrcgt	0, 0, r0, r3, cr1
    13a8:	d4000002 	strle	r0, [r0], #-2
    13ac:	1c000002 	stcne	0, cr0, [r0], {2}
    13b0:	f7007000 			; <UNDEFINED> instruction: 0xf7007000
    13b4:	f425f72c 	vld1.8	{d15}, [r5 :128], ip
    13b8:	cccd0825 	stclgt	8, cr0, [sp], {37}	; 0x25
    13bc:	0000cccc 	andeq	ip, r0, ip, asr #25
    13c0:	081e0000 	ldmdaeq	lr, {}	; <UNPREDICTABLE>
    13c4:	2525f720 	strcs	pc, [r5, #-1824]!	; 0x720
    13c8:	25332cf7 	ldrcs	r2, [r3, #-3319]!	; 0xcf7
    13cc:	0002d49f 	muleq	r2, pc, r4	; <UNPREDICTABLE>
    13d0:	0002d800 	andeq	sp, r2, r0, lsl #16
    13d4:	53000100 	movwpl	r0, #256	; 0x100
    13d8:	000002d8 	ldrdeq	r0, [r0], -r8
    13dc:	000002e0 	andeq	r0, r0, r0, ror #5
    13e0:	0070001c 	rsbseq	r0, r0, ip, lsl r0
    13e4:	25f72cf7 	ldrbcs	r2, [r7, #3319]!	; 0xcf7
    13e8:	cd0825f4 	cfstr32gt	mvfx2, [r8, #-976]	; 0xfffffc30
    13ec:	00cccccc 	sbceq	ip, ip, ip, asr #25
    13f0:	1e000000 	cdpne	0, 0, cr0, cr0, cr0, {0}
    13f4:	25f72008 	ldrbcs	r2, [r7, #8]!
    13f8:	332cf725 	msrcc	CPSR_fs, #9699328	; 0x940000
    13fc:	02e09f25 	rsceq	r9, r0, #37, 30	; 0x94
    1400:	02e40000 	rsceq	r0, r4, #0
    1404:	00010000 	andeq	r0, r1, r0
    1408:	0002e453 	andeq	lr, r2, r3, asr r4
    140c:	0002ec00 	andeq	lr, r2, r0, lsl #24
    1410:	70001c00 	andvc	r1, r0, r0, lsl #24
    1414:	f72cf700 			; <UNDEFINED> instruction: 0xf72cf700
    1418:	0825f425 	stmdaeq	r5!, {r0, r2, r5, sl, ip, sp, lr, pc}
    141c:	cccccccd 	stclgt	12, cr12, [ip], {205}	; 0xcd
    1420:	00000000 	andeq	r0, r0, r0
    1424:	f720081e 			; <UNDEFINED> instruction: 0xf720081e
    1428:	2cf72525 	cfldr64cs	mvdx2, [r7], #148	; 0x94
    142c:	ec9f2533 	cfldr32	mvfx2, [pc], {51}	; 0x33
    1430:	f0000002 			; <UNDEFINED> instruction: 0xf0000002
    1434:	01000002 	tsteq	r0, r2
    1438:	02f05300 	rscseq	r5, r0, #0, 6
    143c:	02f80000 	rscseq	r0, r8, #0
    1440:	001c0000 	andseq	r0, ip, r0
    1444:	2cf70070 	ldclcs	0, cr0, [r7], #448	; 0x1c0
    1448:	25f425f7 	ldrbcs	r2, [r4, #1527]!	; 0x5f7
    144c:	cccccd08 	stclgt	13, cr12, [ip], {8}
    1450:	000000cc 	andeq	r0, r0, ip, asr #1
    1454:	20081e00 	andcs	r1, r8, r0, lsl #28
    1458:	f72525f7 			; <UNDEFINED> instruction: 0xf72525f7
    145c:	9f25332c 	svcls	0x0025332c
    1460:	000002f8 	strdeq	r0, [r0], -r8
    1464:	000002fc 	strdeq	r0, [r0], -ip
    1468:	fc530001 	mrrc2	0, 0, r0, r3, cr1
    146c:	04000002 	streq	r0, [r0], #-2
    1470:	1c000003 	stcne	0, cr0, [r0], {3}
    1474:	f7007000 			; <UNDEFINED> instruction: 0xf7007000
    1478:	f425f72c 	vld1.8	{d15}, [r5 :128], ip
    147c:	cccd0825 	stclgt	8, cr0, [sp], {37}	; 0x25
    1480:	0000cccc 	andeq	ip, r0, ip, asr #25
    1484:	081e0000 	ldmdaeq	lr, {}	; <UNPREDICTABLE>
    1488:	2525f720 	strcs	pc, [r5, #-1824]!	; 0x720
    148c:	25332cf7 	ldrcs	r2, [r3, #-3319]!	; 0xcf7
    1490:	0003049f 	muleq	r3, pc, r4	; <UNPREDICTABLE>
    1494:	00030800 	andeq	r0, r3, r0, lsl #16
    1498:	53000100 	movwpl	r0, #256	; 0x100
    149c:	00000308 	andeq	r0, r0, r8, lsl #6
    14a0:	00000310 	andeq	r0, r0, r0, lsl r3
    14a4:	0070001c 	rsbseq	r0, r0, ip, lsl r0
    14a8:	25f72cf7 	ldrbcs	r2, [r7, #3319]!	; 0xcf7
    14ac:	cd0825f4 	cfstr32gt	mvfx2, [r8, #-976]	; 0xfffffc30
    14b0:	00cccccc 	sbceq	ip, ip, ip, asr #25
    14b4:	1e000000 	cdpne	0, 0, cr0, cr0, cr0, {0}
    14b8:	25f72008 	ldrbcs	r2, [r7, #8]!
    14bc:	332cf725 	msrcc	CPSR_fs, #9699328	; 0x940000
    14c0:	03109f25 	tsteq	r0, #37, 30	; 0x94
    14c4:	03140000 	tsteq	r4, #0
    14c8:	00010000 	andeq	r0, r1, r0
    14cc:	00031453 	andeq	r1, r3, r3, asr r4
    14d0:	00031800 	andeq	r1, r3, r0, lsl #16
    14d4:	70001c00 	andvc	r1, r0, r0, lsl #24
    14d8:	f72cf700 			; <UNDEFINED> instruction: 0xf72cf700
    14dc:	0825f425 	stmdaeq	r5!, {r0, r2, r5, sl, ip, sp, lr, pc}
    14e0:	cccccccd 	stclgt	12, cr12, [ip], {205}	; 0xcd
    14e4:	00000000 	andeq	r0, r0, r0
    14e8:	f720081e 			; <UNDEFINED> instruction: 0xf720081e
    14ec:	2cf72525 	cfldr64cs	mvdx2, [r7], #148	; 0x94
    14f0:	189f2533 	ldmne	pc, {r0, r1, r4, r5, r8, sl, sp}	; <UNPREDICTABLE>
    14f4:	20000003 	andcs	r0, r0, r3
    14f8:	1c000003 	stcne	0, cr0, [r0], {3}
    14fc:	f7007400 			; <UNDEFINED> instruction: 0xf7007400
    1500:	f425f72c 	vld1.8	{d15}, [r5 :128], ip
    1504:	cccd0825 	stclgt	8, cr0, [sp], {37}	; 0x25
    1508:	0000cccc 	andeq	ip, r0, ip, asr #25
    150c:	081e0000 	ldmdaeq	lr, {}	; <UNPREDICTABLE>
    1510:	2525f720 	strcs	pc, [r5, #-1824]!	; 0x720
    1514:	25332cf7 	ldrcs	r2, [r3, #-3319]!	; 0xcf7
    1518:	0003209f 	muleq	r3, pc, r0	; <UNPREDICTABLE>
    151c:	00032400 	andeq	r2, r3, r0, lsl #8
    1520:	74001700 	strvc	r1, [r0], #-1792	; 0x700
    1524:	f72cf700 			; <UNDEFINED> instruction: 0xf72cf700
    1528:	f7007325 			; <UNDEFINED> instruction: 0xf7007325
    152c:	1e25f72c 	cdpne	7, 2, cr15, cr5, cr12, {1}
    1530:	25f72008 	ldrbcs	r2, [r7, #8]!
    1534:	332cf725 	msrcc	CPSR_fs, #9699328	; 0x940000
    1538:	03249f25 	teqeq	r4, #37, 30	; 0x94
    153c:	03580000 	cmpeq	r8, #0
    1540:	001c0000 	andseq	r0, ip, r0
    1544:	2cf70074 	ldclcs	0, cr0, [r7], #464	; 0x1d0
    1548:	25f425f7 	ldrbcs	r2, [r4, #1527]!	; 0x5f7
    154c:	cccccd08 	stclgt	13, cr12, [ip], {8}
    1550:	000000cc 	andeq	r0, r0, ip, asr #1
    1554:	20081e00 	andcs	r1, r8, r0, lsl #28
    1558:	f72525f7 			; <UNDEFINED> instruction: 0xf72525f7
    155c:	9f25332c 	svcls	0x0025332c
	...
    1568:	0000031c 	andeq	r0, r0, ip, lsl r3
    156c:	00000340 	andeq	r0, r0, r0, asr #6
    1570:	40500001 	subsmi	r0, r0, r1
    1574:	48000003 	stmdami	r0, {r0, r1}
    1578:	09000003 	stmdbeq	r0, {r0, r1}
    157c:	73007500 	movwvc	r7, #1280	; 0x500
    1580:	00712400 	rsbseq	r2, r1, r0, lsl #8
    1584:	03489f21 	movteq	r9, #36641	; 0x8f21
    1588:	034b0000 	movteq	r0, #45056	; 0xb000
    158c:	00010000 	andeq	r0, r1, r0
    1590:	00000051 	andeq	r0, r0, r1, asr r0
    1594:	00000000 	andeq	r0, r0, r0
    1598:	00035800 	andeq	r5, r3, r0, lsl #16
    159c:	00037c00 	andeq	r7, r3, r0, lsl #24
    15a0:	50000100 	andpl	r0, r0, r0, lsl #2
    15a4:	0000037c 	andeq	r0, r0, ip, ror r3
    15a8:	00000390 	muleq	r0, r0, r3
    15ac:	01f30004 	mvnseq	r0, r4
    15b0:	00009f50 	andeq	r9, r0, r0, asr pc
    15b4:	00000000 	andeq	r0, r0, r0
    15b8:	03640000 	cmneq	r4, #0
    15bc:	036c0000 	cmneq	ip, #0
    15c0:	00020000 	andeq	r0, r2, r0
    15c4:	036c9f30 	cmneq	ip, #48, 30	; 0xc0
    15c8:	036c0000 	cmneq	ip, #0
    15cc:	00010000 	andeq	r0, r1, r0
    15d0:	00036c52 	andeq	r6, r3, r2, asr ip
    15d4:	00037400 	andeq	r7, r3, r0, lsl #8
    15d8:	30000200 	andcc	r0, r0, r0, lsl #4
    15dc:	0003749f 	muleq	r3, pc, r4	; <UNPREDICTABLE>
    15e0:	00038700 	andeq	r8, r3, r0, lsl #14
    15e4:	52000100 	andpl	r0, r0, #0, 2
	...
    15f0:	00000364 	andeq	r0, r0, r4, ror #6
    15f4:	00000378 	andeq	r0, r0, r8, ror r3
    15f8:	9f300002 	svcls	0x00300002
    15fc:	00000378 	andeq	r0, r0, r8, ror r3
    1600:	00000384 	andeq	r0, r0, r4, lsl #7
    1604:	73310005 	teqvc	r1, #5
    1608:	849f2400 	ldrhi	r2, [pc], #1024	; 1610 <_start-0x69f0>
    160c:	87000003 	strhi	r0, [r0, -r3]
    1610:	01000003 	tsteq	r0, r3
    1614:	03875100 	orreq	r5, r7, #0, 2
    1618:	03900000 	orrseq	r0, r0, #0
    161c:	00080000 	andeq	r0, r8, r0
    1620:	5001f331 	andpl	pc, r1, r1, lsr r3	; <UNPREDICTABLE>
    1624:	9f241a4f 	svcls	0x00241a4f
	...
    1630:	00000390 	muleq	r0, r0, r3
    1634:	0000039c 	muleq	r0, ip, r3
    1638:	9c500001 	mrrcls	0, 0, r0, r0, cr1	; <UNPREDICTABLE>
    163c:	bc000003 	stclt	0, cr0, [r0], {3}
    1640:	04000003 	streq	r0, [r0], #-3
    1644:	5001f300 	andpl	pc, r1, r0, lsl #6
    1648:	0000009f 	muleq	r0, pc, r0	; <UNPREDICTABLE>
    164c:	00000000 	andeq	r0, r0, r0
    1650:	0003bc00 	andeq	fp, r3, r0, lsl #24
    1654:	0003cf00 	andeq	ip, r3, r0, lsl #30
    1658:	50000100 	andpl	r0, r0, r0, lsl #2
    165c:	000003cf 	andeq	r0, r0, pc, asr #7
    1660:	00000408 	andeq	r0, r0, r8, lsl #8
    1664:	08540001 	ldmdaeq	r4, {r0}^
    1668:	40000004 	andmi	r0, r0, r4
    166c:	04000004 	streq	r0, [r0], #-4
    1670:	5001f300 	andpl	pc, r1, r0, lsl #6
    1674:	0000009f 	muleq	r0, pc, r0	; <UNPREDICTABLE>
    1678:	00000000 	andeq	r0, r0, r0
    167c:	00042800 	andeq	r2, r4, r0, lsl #16
    1680:	00042c00 	andeq	r2, r4, r0, lsl #24
    1684:	50000100 	andpl	r0, r0, r0, lsl #2
    1688:	0000042c 	andeq	r0, r0, ip, lsr #8
    168c:	00000433 	andeq	r0, r0, r3, lsr r4
    1690:	00510001 	subseq	r0, r1, r1
    1694:	00000000 	andeq	r0, r0, r0
    1698:	e4000000 	str	r0, [r0], #-0
    169c:	ec000003 	stc	0, cr0, [r0], {3}
    16a0:	01000003 	tsteq	r0, r3
    16a4:	03ec5000 	mvneq	r5, #0
    16a8:	03f30000 	mvnseq	r0, #0
    16ac:	00010000 	andeq	r0, r1, r0
    16b0:	00000051 	andeq	r0, r0, r1, asr r0
    16b4:	00000000 	andeq	r0, r0, r0
    16b8:	00040400 	andeq	r0, r4, r0, lsl #8
    16bc:	00041000 	andeq	r1, r4, r0
    16c0:	50000100 	andpl	r0, r0, r0, lsl #2
    16c4:	00000410 	andeq	r0, r0, r0, lsl r4
    16c8:	00000417 	andeq	r0, r0, r7, lsl r4
    16cc:	00510001 	subseq	r0, r1, r1
    16d0:	00000000 	andeq	r0, r0, r0
    16d4:	40000000 	andmi	r0, r0, r0
    16d8:	53000004 	movwpl	r0, #4
    16dc:	01000004 	tsteq	r0, r4
    16e0:	04535000 	ldrbeq	r5, [r3], #-0
    16e4:	048c0000 	streq	r0, [ip], #0
    16e8:	00010000 	andeq	r0, r1, r0
    16ec:	00048c54 	andeq	r8, r4, r4, asr ip
    16f0:	0004c400 	andeq	ip, r4, r0, lsl #8
    16f4:	f3000400 	vshl.u8	d0, d0, d0
    16f8:	009f5001 	addseq	r5, pc, r1
    16fc:	00000000 	andeq	r0, r0, r0
    1700:	ac000000 	stcge	0, cr0, [r0], {-0}
    1704:	b0000004 	andlt	r0, r0, r4
    1708:	01000004 	tsteq	r0, r4
    170c:	04b05000 	ldrteq	r5, [r0], #0
    1710:	04b70000 	ldrteq	r0, [r7], #0
    1714:	00010000 	andeq	r0, r1, r0
    1718:	00000051 	andeq	r0, r0, r1, asr r0
    171c:	00000000 	andeq	r0, r0, r0
    1720:	00046800 	andeq	r6, r4, r0, lsl #16
    1724:	00047000 	andeq	r7, r4, r0
    1728:	50000100 	andpl	r0, r0, r0, lsl #2
    172c:	00000470 	andeq	r0, r0, r0, ror r4
    1730:	00000477 	andeq	r0, r0, r7, ror r4
    1734:	00510001 	subseq	r0, r1, r1
    1738:	00000000 	andeq	r0, r0, r0
    173c:	88000000 	stmdahi	r0, {}	; <UNPREDICTABLE>
    1740:	94000004 	strls	r0, [r0], #-4
    1744:	01000004 	tsteq	r0, r4
    1748:	04945000 	ldreq	r5, [r4], #0
    174c:	049b0000 	ldreq	r0, [fp], #0
    1750:	00010000 	andeq	r0, r1, r0
    1754:	00000051 	andeq	r0, r0, r1, asr r0
    1758:	00000000 	andeq	r0, r0, r0
    175c:	0004c400 	andeq	ip, r4, r0, lsl #8
    1760:	0004d700 	andeq	sp, r4, r0, lsl #14
    1764:	50000100 	andpl	r0, r0, r0, lsl #2
    1768:	000004d7 	ldrdeq	r0, [r0], -r7
    176c:	00000518 	andeq	r0, r0, r8, lsl r5
    1770:	18540001 	ldmdane	r4, {r0}^
    1774:	3c000005 	stccc	0, cr0, [r0], {5}
    1778:	04000005 	streq	r0, [r0], #-5
    177c:	5001f300 	andpl	pc, r1, r0, lsl #6
    1780:	00053c9f 	muleq	r5, pc, ip	; <UNPREDICTABLE>
    1784:	00054000 	andeq	r4, r5, r0
    1788:	50000100 	andpl	r0, r0, r0, lsl #2
    178c:	00000540 	andeq	r0, r0, r0, asr #10
    1790:	00000548 	andeq	r0, r0, r8, asr #10
    1794:	00540001 	subseq	r0, r4, r1
    1798:	00000000 	andeq	r0, r0, r0
    179c:	ec000000 	stc	0, cr0, [r0], {-0}
    17a0:	fb000004 	blx	17ba <_start-0x6846>
    17a4:	08000004 	stmdaeq	r0, {r2}
    17a8:	00743100 	rsbseq	r3, r4, r0, lsl #2
    17ac:	1a007024 	bne	1d844 <__bss_end__+0x138f4>
    17b0:	0000009f 	muleq	r0, pc, r0	; <UNPREDICTABLE>
    17b4:	00000000 	andeq	r0, r0, r0
    17b8:	00051800 	andeq	r1, r5, r0, lsl #16
    17bc:	00053000 	andeq	r3, r5, r0
    17c0:	54000100 	strpl	r0, [r0], #-256	; 0x100
	...
    17cc:	00000548 	andeq	r0, r0, r8, asr #10
    17d0:	0000055b 	andeq	r0, r0, fp, asr r5
    17d4:	5b500001 	blpl	14017e0 <__bss_end__+0x13f7890>
    17d8:	80000005 	andhi	r0, r0, r5
    17dc:	01000005 	tsteq	r0, r5
    17e0:	05805400 	streq	r5, [r0, #1024]	; 0x400
    17e4:	05a00000 	streq	r0, [r0, #0]!
    17e8:	00040000 	andeq	r0, r4, r0
    17ec:	9f5001f3 	svcls	0x005001f3
	...
    17fc:	00000018 	andeq	r0, r0, r8, lsl r0
    1800:	18500001 	ldmdane	r0, {r0}^
    1804:	54000000 	strpl	r0, [r0], #-0
    1808:	04000001 	streq	r0, [r0], #-1
    180c:	5001f300 	andpl	pc, r1, r0, lsl #6
    1810:	0000009f 	muleq	r0, pc, r0	; <UNPREDICTABLE>
	...
    181c:	00001c00 	andeq	r1, r0, r0, lsl #24
    1820:	51000100 	mrspl	r0, (UNDEF: 16)
    1824:	0000001c 	andeq	r0, r0, ip, lsl r0
    1828:	00000154 	andeq	r0, r0, r4, asr r1
    182c:	01f30004 	mvnseq	r0, r4
    1830:	00009f51 	andeq	r9, r0, r1, asr pc
    1834:	00000000 	andeq	r0, r0, r0
    1838:	00100000 	andseq	r0, r0, r0
    183c:	01340000 	teqeq	r4, r0
    1840:	00010000 	andeq	r0, r1, r0
    1844:	00000055 	andeq	r0, r0, r5, asr r0
    1848:	00000000 	andeq	r0, r0, r0
    184c:	00001000 	andeq	r1, r0, r0
    1850:	00003400 	andeq	r3, r0, r0, lsl #8
    1854:	55000100 	strpl	r0, [r0, #-256]	; 0x100
    1858:	00000034 	andeq	r0, r0, r4, lsr r0
    185c:	00000134 	andeq	r0, r0, r4, lsr r1
    1860:	34580001 	ldrbcc	r0, [r8], #-1
    1864:	54000001 	strpl	r0, [r0], #-1
    1868:	01000001 	tsteq	r0, r1
    186c:	00005500 	andeq	r5, r0, r0, lsl #10
    1870:	00000000 	andeq	r0, r0, r0
    1874:	00140000 	andseq	r0, r4, r0
    1878:	01340000 	teqeq	r4, r0
    187c:	00010000 	andeq	r0, r1, r0
    1880:	00000055 	andeq	r0, r0, r5, asr r0
    1884:	00000000 	andeq	r0, r0, r0
    1888:	00002000 	andeq	r2, r0, r0
    188c:	00013400 	andeq	r3, r1, r0, lsl #8
    1890:	55000100 	strpl	r0, [r0, #-256]	; 0x100
	...
    189c:	00000024 	andeq	r0, r0, r4, lsr #32
    18a0:	00000028 	andeq	r0, r0, r8, lsr #32
    18a4:	00530001 	subseq	r0, r3, r1
    18a8:	00000000 	andeq	r0, r0, r0
    18ac:	34000000 	strcc	r0, [r0], #-0
    18b0:	54000000 	strpl	r0, [r0], #-0
    18b4:	01000000 	mrseq	r0, (UNDEF: 0)
    18b8:	00545800 	subseq	r5, r4, r0, lsl #16
    18bc:	01340000 	teqeq	r4, r0
    18c0:	00050000 	andeq	r0, r5, r0
    18c4:	24310075 	ldrtcs	r0, [r1], #-117	; 0x75
    18c8:	0000009f 	muleq	r0, pc, r0	; <UNPREDICTABLE>
    18cc:	00000000 	andeq	r0, r0, r0
    18d0:	00003400 	andeq	r3, r0, r0, lsl #8
    18d4:	00003c00 	andeq	r3, r0, r0, lsl #24
    18d8:	77000500 	strvc	r0, [r0, -r0, lsl #10]
    18dc:	9f1a3100 	svcls	0x001a3100
    18e0:	0000003c 	andeq	r0, r0, ip, lsr r0
    18e4:	0000003f 	andeq	r0, r0, pc, lsr r0
    18e8:	3f510001 	svccc	0x00510001
    18ec:	54000000 	strpl	r0, [r0], #-0
    18f0:	05000001 	streq	r0, [r0, #-1]
    18f4:	31007700 	tstcc	r0, r0, lsl #14
    18f8:	00009f1a 	andeq	r9, r0, sl, lsl pc
    18fc:	00000000 	andeq	r0, r0, r0
    1900:	00400000 	subeq	r0, r0, r0
    1904:	00540000 	subseq	r0, r4, r0
    1908:	00010000 	andeq	r0, r1, r0
    190c:	00005458 	andeq	r5, r0, r8, asr r4
    1910:	00013400 	andeq	r3, r1, r0, lsl #8
    1914:	75000500 	strvc	r0, [r0, #-1280]	; 0x500
    1918:	9f243100 	svcls	0x00243100
	...
    1924:	00000044 	andeq	r0, r0, r4, asr #32
    1928:	00000048 	andeq	r0, r0, r8, asr #32
    192c:	00530001 	subseq	r0, r3, r1
    1930:	00000000 	andeq	r0, r0, r0
    1934:	54000000 	strpl	r0, [r0], #-0
    1938:	74000000 	strvc	r0, [r0], #-0
    193c:	01000000 	mrseq	r0, (UNDEF: 0)
    1940:	00745800 	rsbseq	r5, r4, r0, lsl #16
    1944:	01340000 	teqeq	r4, r0
    1948:	00080000 	andeq	r0, r8, r0
    194c:	24310075 	ldrtcs	r0, [r1], #-117	; 0x75
    1950:	9f220075 	svcls	0x00220075
	...
    195c:	00000060 	andeq	r0, r0, r0, rrx
    1960:	00000074 	andeq	r0, r0, r4, ror r0
    1964:	74580001 	ldrbvc	r0, [r8], #-1
    1968:	34000000 	strcc	r0, [r0], #-0
    196c:	08000001 	stmdaeq	r0, {r0}
    1970:	31007500 	tstcc	r0, r0, lsl #10
    1974:	22007524 	andcs	r7, r0, #36, 10	; 0x9000000
    1978:	0000009f 	muleq	r0, pc, r0	; <UNPREDICTABLE>
    197c:	00000000 	andeq	r0, r0, r0
    1980:	00006400 	andeq	r6, r0, r0, lsl #8
    1984:	00006800 	andeq	r6, r0, r0, lsl #16
    1988:	53000100 	movwpl	r0, #256	; 0x100
	...
    1994:	00000074 	andeq	r0, r0, r4, ror r0
    1998:	00000094 	muleq	r0, r4, r0
    199c:	94580001 	ldrbls	r0, [r8], #-1
    19a0:	34000000 	strcc	r0, [r0], #-0
    19a4:	05000001 	streq	r0, [r0, #-1]
    19a8:	32007500 	andcc	r7, r0, #0, 10
    19ac:	00009f24 	andeq	r9, r0, r4, lsr #30
    19b0:	00000000 	andeq	r0, r0, r0
    19b4:	00800000 	addeq	r0, r0, r0
    19b8:	00940000 	addseq	r0, r4, r0
    19bc:	00010000 	andeq	r0, r1, r0
    19c0:	00009458 	andeq	r9, r0, r8, asr r4
    19c4:	00013400 	andeq	r3, r1, r0, lsl #8
    19c8:	75000500 	strvc	r0, [r0, #-1280]	; 0x500
    19cc:	9f243200 	svcls	0x00243200
	...
    19d8:	00000084 	andeq	r0, r0, r4, lsl #1
    19dc:	00000088 	andeq	r0, r0, r8, lsl #1
    19e0:	00530001 	subseq	r0, r3, r1
    19e4:	00000000 	andeq	r0, r0, r0
    19e8:	94000000 	strls	r0, [r0], #-0
    19ec:	b4000000 	strlt	r0, [r0], #-0
    19f0:	01000000 	mrseq	r0, (UNDEF: 0)
    19f4:	00b45800 	adcseq	r5, r4, r0, lsl #16
    19f8:	01340000 	teqeq	r4, r0
    19fc:	00080000 	andeq	r0, r8, r0
    1a00:	24320075 	ldrtcs	r0, [r2], #-117	; 0x75
    1a04:	9f220075 	svcls	0x00220075
	...
    1a10:	000000a0 	andeq	r0, r0, r0, lsr #1
    1a14:	000000b4 	strheq	r0, [r0], -r4
    1a18:	b4580001 	ldrblt	r0, [r8], #-1
    1a1c:	34000000 	strcc	r0, [r0], #-0
    1a20:	08000001 	stmdaeq	r0, {r0}
    1a24:	32007500 	andcc	r7, r0, #0, 10
    1a28:	22007524 	andcs	r7, r0, #36, 10	; 0x9000000
    1a2c:	0000009f 	muleq	r0, pc, r0	; <UNPREDICTABLE>
    1a30:	00000000 	andeq	r0, r0, r0
    1a34:	0000a400 	andeq	sl, r0, r0, lsl #8
    1a38:	0000a800 	andeq	sl, r0, r0, lsl #16
    1a3c:	53000100 	movwpl	r0, #256	; 0x100
	...
    1a48:	000000b4 	strheq	r0, [r0], -r4
    1a4c:	000000d4 	ldrdeq	r0, [r0], -r4
    1a50:	d4580001 	ldrble	r0, [r8], #-1
    1a54:	34000000 	strcc	r0, [r0], #-0
    1a58:	0a000001 	beq	1a64 <_start-0x659c>
    1a5c:	32007500 	andcc	r7, r0, #0, 10
    1a60:	31007524 	tstcc	r0, r4, lsr #10
    1a64:	009f2224 	addseq	r2, pc, r4, lsr #4
    1a68:	00000000 	andeq	r0, r0, r0
    1a6c:	c0000000 	andgt	r0, r0, r0
    1a70:	d4000000 	strle	r0, [r0], #-0
    1a74:	01000000 	mrseq	r0, (UNDEF: 0)
    1a78:	00d45800 	sbcseq	r5, r4, r0, lsl #16
    1a7c:	01340000 	teqeq	r4, r0
    1a80:	000a0000 	andeq	r0, sl, r0
    1a84:	24320075 	ldrtcs	r0, [r2], #-117	; 0x75
    1a88:	24310075 	ldrtcs	r0, [r1], #-117	; 0x75
    1a8c:	00009f22 	andeq	r9, r0, r2, lsr #30
    1a90:	00000000 	andeq	r0, r0, r0
    1a94:	00c40000 	sbceq	r0, r4, r0
    1a98:	00c80000 	sbceq	r0, r8, r0
    1a9c:	00010000 	andeq	r0, r1, r0
    1aa0:	00000053 	andeq	r0, r0, r3, asr r0
    1aa4:	00000000 	andeq	r0, r0, r0
    1aa8:	0000d400 	andeq	sp, r0, r0, lsl #8
    1aac:	0000f400 	andeq	pc, r0, r0, lsl #8
    1ab0:	58000100 	stmdapl	r0, {r8}
    1ab4:	000000f4 	strdeq	r0, [r0], -r4
    1ab8:	00000134 	andeq	r0, r0, r4, lsr r1
    1abc:	0075000d 	rsbseq	r0, r5, sp
    1ac0:	00752432 	rsbseq	r2, r5, r2, lsr r4
    1ac4:	75222431 	strvc	r2, [r2, #-1073]!	; 0x431
    1ac8:	009f2200 	addseq	r2, pc, r0, lsl #4
    1acc:	00000000 	andeq	r0, r0, r0
    1ad0:	e0000000 	and	r0, r0, r0
    1ad4:	f4000000 	vst4.8	{d0-d3}, [r0], r0
    1ad8:	01000000 	mrseq	r0, (UNDEF: 0)
    1adc:	00f45800 	rscseq	r5, r4, r0, lsl #16
    1ae0:	01340000 	teqeq	r4, r0
    1ae4:	000d0000 	andeq	r0, sp, r0
    1ae8:	24320075 	ldrtcs	r0, [r2], #-117	; 0x75
    1aec:	24310075 	ldrtcs	r0, [r1], #-117	; 0x75
    1af0:	22007522 	andcs	r7, r0, #142606336	; 0x8800000
    1af4:	0000009f 	muleq	r0, pc, r0	; <UNPREDICTABLE>
    1af8:	00000000 	andeq	r0, r0, r0
    1afc:	0000e400 	andeq	lr, r0, r0, lsl #8
    1b00:	0000e800 	andeq	lr, r0, r0, lsl #16
    1b04:	53000100 	movwpl	r0, #256	; 0x100
	...
    1b10:	000000f4 	strdeq	r0, [r0], -r4
    1b14:	00000114 	andeq	r0, r0, r4, lsl r1
    1b18:	14580001 	ldrbne	r0, [r8], #-1
    1b1c:	34000001 	strcc	r0, [r0], #-1
    1b20:	05000001 	streq	r0, [r0, #-1]
    1b24:	33007500 	movwcc	r7, #1280	; 0x500
    1b28:	00009f24 	andeq	r9, r0, r4, lsr #30
    1b2c:	00000000 	andeq	r0, r0, r0
    1b30:	01000000 	mrseq	r0, (UNDEF: 0)
    1b34:	01140000 	tsteq	r4, r0
    1b38:	00010000 	andeq	r0, r1, r0
    1b3c:	00011458 	andeq	r1, r1, r8, asr r4
    1b40:	00013400 	andeq	r3, r1, r0, lsl #8
    1b44:	75000500 	strvc	r0, [r0, #-1280]	; 0x500
    1b48:	9f243300 	svcls	0x00243300
	...
    1b54:	00000104 	andeq	r0, r0, r4, lsl #2
    1b58:	00000108 	andeq	r0, r0, r8, lsl #2
    1b5c:	00530001 	subseq	r0, r3, r1
    1b60:	00000000 	andeq	r0, r0, r0
    1b64:	14000000 	strne	r0, [r0], #-0
    1b68:	1c000001 	stcne	0, cr0, [r0], {1}
    1b6c:	06000001 	streq	r0, [r0], -r1
    1b70:	08007700 	stmdaeq	r0, {r8, r9, sl, ip, sp, lr}
    1b74:	1c9f1a80 	vldmiane	pc, {s2-s129}
    1b78:	1f000001 	svcne	0x00000001
    1b7c:	01000001 	tsteq	r0, r1
    1b80:	011f5100 	tsteq	pc, r0, lsl #2
    1b84:	01540000 	cmpeq	r4, r0
    1b88:	00060000 	andeq	r0, r6, r0
    1b8c:	80080077 	andhi	r0, r8, r7, ror r0
    1b90:	00009f1a 	andeq	r9, r0, sl, lsl pc
    1b94:	00000000 	andeq	r0, r0, r0
    1b98:	01240000 	teqeq	r4, r0
    1b9c:	01280000 	teqeq	r8, r0
    1ba0:	00010000 	andeq	r0, r1, r0
    1ba4:	00000053 	andeq	r0, r0, r3, asr r0
    1ba8:	00000000 	andeq	r0, r0, r0
    1bac:	00014400 	andeq	r4, r1, r0, lsl #8
    1bb0:	00014800 	andeq	r4, r1, r0, lsl #16
    1bb4:	53000100 	movwpl	r0, #256	; 0x100
	...
    1bc0:	00000154 	andeq	r0, r0, r4, asr r1
    1bc4:	0000016b 	andeq	r0, r0, fp, ror #2
    1bc8:	6b500001 	blvs	1401bd4 <__bss_end__+0x13f7c84>
    1bcc:	d0000001 	andle	r0, r0, r1
    1bd0:	01000001 	tsteq	r0, r1
    1bd4:	01d05900 	bicseq	r5, r0, r0, lsl #18
    1bd8:	030c0000 	movweq	r0, #49152	; 0xc000
    1bdc:	00040000 	andeq	r0, r4, r0
    1be0:	9f5001f3 	svcls	0x005001f3
    1be4:	0000030c 	andeq	r0, r0, ip, lsl #6
    1be8:	00000314 	andeq	r0, r0, r4, lsl r3
    1bec:	14590001 	ldrbne	r0, [r9], #-1
    1bf0:	1c000003 	stcne	0, cr0, [r0], {3}
    1bf4:	04000003 	streq	r0, [r0], #-3
    1bf8:	5001f300 	andpl	pc, r1, r0, lsl #6
    1bfc:	0000009f 	muleq	r0, pc, r0	; <UNPREDICTABLE>
    1c00:	00000000 	andeq	r0, r0, r0
    1c04:	00015400 	andeq	r5, r1, r0, lsl #8
    1c08:	00016b00 	andeq	r6, r1, r0, lsl #22
    1c0c:	51000100 	mrspl	r0, (UNDEF: 16)
    1c10:	0000016b 	andeq	r0, r0, fp, ror #2
    1c14:	0000031c 	andeq	r0, r0, ip, lsl r3
    1c18:	00560001 	subseq	r0, r6, r1
    1c1c:	00000000 	andeq	r0, r0, r0
    1c20:	a8000000 	stmdage	r0, {}	; <UNPREDICTABLE>
    1c24:	98000001 	stmdals	r0, {r0}
    1c28:	01000002 	tsteq	r0, r2
    1c2c:	00005800 	andeq	r5, r0, r0, lsl #16
    1c30:	00000000 	andeq	r0, r0, r0
    1c34:	01ac0000 			; <UNDEFINED> instruction: 0x01ac0000
    1c38:	02d00000 	sbcseq	r0, r0, #0
    1c3c:	00010000 	andeq	r0, r1, r0
    1c40:	00000054 	andeq	r0, r0, r4, asr r0
    1c44:	00000000 	andeq	r0, r0, r0
    1c48:	0001ac00 	andeq	sl, r1, r0, lsl #24
    1c4c:	0002d000 	andeq	sp, r2, r0
    1c50:	74000500 	strvc	r0, [r0], #-1280	; 0x500
    1c54:	9f253100 	svcls	0x00253100
	...
    1c60:	000001ac 	andeq	r0, r0, ip, lsr #3
    1c64:	000001d0 	ldrdeq	r0, [r0], -r0	; <UNPREDICTABLE>
    1c68:	9f300002 	svcls	0x00300002
    1c6c:	000001d0 	ldrdeq	r0, [r0], -r0	; <UNPREDICTABLE>
    1c70:	0000030c 	andeq	r0, r0, ip, lsl #6
    1c74:	14590001 	ldrbne	r0, [r9], #-1
    1c78:	1c000003 	stcne	0, cr0, [r0], {3}
    1c7c:	01000003 	tsteq	r0, r3
    1c80:	00005900 	andeq	r5, r0, r0, lsl #18
    1c84:	00000000 	andeq	r0, r0, r0
    1c88:	01680000 	cmneq	r8, r0
    1c8c:	016b0000 	cmneq	fp, r0
    1c90:	00010000 	andeq	r0, r1, r0
    1c94:	00016b51 	andeq	r6, r1, r1, asr fp
    1c98:	00031c00 	andeq	r1, r3, r0, lsl #24
    1c9c:	56000100 	strpl	r0, [r0], -r0, lsl #2
	...
    1ca8:	00000170 	andeq	r0, r0, r0, ror r1
    1cac:	000001ac 	andeq	r0, r0, ip, lsr #3
    1cb0:	0c540001 	mrrceq	0, 0, r0, r4, cr1
    1cb4:	14000003 	strne	r0, [r0], #-3
    1cb8:	01000003 	tsteq	r0, r3
    1cbc:	00005400 	andeq	r5, r0, r0, lsl #8
    1cc0:	00000000 	andeq	r0, r0, r0
    1cc4:	01a80000 			; <UNDEFINED> instruction: 0x01a80000
    1cc8:	01c40000 	biceq	r0, r4, r0
    1ccc:	00010000 	andeq	r0, r1, r0
    1cd0:	00000058 	andeq	r0, r0, r8, asr r0
    1cd4:	00000000 	andeq	r0, r0, r0
    1cd8:	0001b000 	andeq	fp, r1, r0
    1cdc:	0001cb00 	andeq	ip, r1, r0, lsl #22
    1ce0:	52000100 	andpl	r0, r0, #0, 2
    1ce4:	000001cb 	andeq	r0, r0, fp, asr #3
    1ce8:	000002d0 	ldrdeq	r0, [r0], -r0	; <UNPREDICTABLE>
    1cec:	00740008 	rsbseq	r0, r4, r8
    1cf0:	00742531 	rsbseq	r2, r4, r1, lsr r5
    1cf4:	00009f22 	andeq	r9, r0, r2, lsr #30
    1cf8:	00000000 	andeq	r0, r0, r0
    1cfc:	01b00000 	movseq	r0, r0
    1d00:	01c40000 	biceq	r0, r4, r0
    1d04:	00010000 	andeq	r0, r1, r0
    1d08:	00000058 	andeq	r0, r0, r8, asr r0
    1d0c:	00000000 	andeq	r0, r0, r0
    1d10:	0001b400 	andeq	fp, r1, r0, lsl #8
    1d14:	0001b800 	andeq	fp, r1, r0, lsl #16
    1d18:	53000100 	movwpl	r0, #256	; 0x100
	...
    1d24:	000001d0 	ldrdeq	r0, [r0], -r0	; <UNPREDICTABLE>
    1d28:	000002d0 	ldrdeq	r0, [r0], -r0	; <UNPREDICTABLE>
    1d2c:	00540001 	subseq	r0, r4, r1
    1d30:	00000000 	andeq	r0, r0, r0
    1d34:	d0000000 	andle	r0, r0, r0
    1d38:	e4000001 	str	r0, [r0], #-1
    1d3c:	01000001 	tsteq	r0, r1
    1d40:	00005800 	andeq	r5, r0, r0, lsl #16
    1d44:	00000000 	andeq	r0, r0, r0
    1d48:	01d40000 	bicseq	r0, r4, r0
    1d4c:	01d80000 	bicseq	r0, r8, r0
    1d50:	00010000 	andeq	r0, r1, r0
    1d54:	00000053 	andeq	r0, r0, r3, asr r0
    1d58:	00000000 	andeq	r0, r0, r0
    1d5c:	0001f400 	andeq	pc, r1, r0, lsl #8
    1d60:	0002d000 	andeq	sp, r2, r0
    1d64:	54000100 	strpl	r0, [r0], #-256	; 0x100
	...
    1d70:	000001f4 	strdeq	r0, [r0], -r4
    1d74:	00000208 	andeq	r0, r0, r8, lsl #4
    1d78:	00580001 	subseq	r0, r8, r1
    1d7c:	00000000 	andeq	r0, r0, r0
    1d80:	f8000000 			; <UNDEFINED> instruction: 0xf8000000
    1d84:	fc000001 	stc2	0, cr0, [r0], {1}
    1d88:	01000001 	tsteq	r0, r1
    1d8c:	00005300 	andeq	r5, r0, r0, lsl #6
    1d90:	00000000 	andeq	r0, r0, r0
    1d94:	02180000 	andseq	r0, r8, #0
    1d98:	02d00000 	sbcseq	r0, r0, #0
    1d9c:	00010000 	andeq	r0, r1, r0
    1da0:	00000054 	andeq	r0, r0, r4, asr r0
    1da4:	00000000 	andeq	r0, r0, r0
    1da8:	00021800 	andeq	r1, r2, r0, lsl #16
    1dac:	00022c00 	andeq	r2, r2, r0, lsl #24
    1db0:	58000100 	stmdapl	r0, {r8}
	...
    1dbc:	0000021c 	andeq	r0, r0, ip, lsl r2
    1dc0:	00000220 	andeq	r0, r0, r0, lsr #4
    1dc4:	00530001 	subseq	r0, r3, r1
    1dc8:	00000000 	andeq	r0, r0, r0
    1dcc:	3c000000 	stccc	0, cr0, [r0], {-0}
    1dd0:	d0000002 	andle	r0, r0, r2
    1dd4:	01000002 	tsteq	r0, r2
    1dd8:	00005400 	andeq	r5, r0, r0, lsl #8
    1ddc:	00000000 	andeq	r0, r0, r0
    1de0:	023c0000 	eorseq	r0, ip, #0
    1de4:	02500000 	subseq	r0, r0, #0
    1de8:	00010000 	andeq	r0, r1, r0
    1dec:	00000058 	andeq	r0, r0, r8, asr r0
    1df0:	00000000 	andeq	r0, r0, r0
    1df4:	00024000 	andeq	r4, r2, r0
    1df8:	00024400 	andeq	r4, r2, r0, lsl #8
    1dfc:	53000100 	movwpl	r0, #256	; 0x100
	...
    1e08:	00000260 	andeq	r0, r0, r0, ror #4
    1e0c:	000002d0 	ldrdeq	r0, [r0], -r0	; <UNPREDICTABLE>
    1e10:	00540001 	subseq	r0, r4, r1
    1e14:	00000000 	andeq	r0, r0, r0
    1e18:	60000000 	andvs	r0, r0, r0
    1e1c:	74000002 	strvc	r0, [r0], #-2
    1e20:	01000002 	tsteq	r0, r2
    1e24:	00005800 	andeq	r5, r0, r0, lsl #16
    1e28:	00000000 	andeq	r0, r0, r0
    1e2c:	02640000 	rsbeq	r0, r4, #0
    1e30:	02680000 	rsbeq	r0, r8, #0
    1e34:	00010000 	andeq	r0, r1, r0
    1e38:	00000053 	andeq	r0, r0, r3, asr r0
    1e3c:	00000000 	andeq	r0, r0, r0
    1e40:	00028400 	andeq	r8, r2, r0, lsl #8
    1e44:	0002d000 	andeq	sp, r2, r0
    1e48:	54000100 	strpl	r0, [r0], #-256	; 0x100
	...
    1e54:	00000284 	andeq	r0, r0, r4, lsl #5
    1e58:	00000298 	muleq	r0, r8, r2
    1e5c:	00580001 	subseq	r0, r8, r1
    1e60:	00000000 	andeq	r0, r0, r0
    1e64:	88000000 	stmdahi	r0, {}	; <UNPREDICTABLE>
    1e68:	8c000002 	stchi	0, cr0, [r0], {2}
    1e6c:	01000002 	tsteq	r0, r2
    1e70:	00005300 	andeq	r5, r0, r0, lsl #6
    1e74:	00000000 	andeq	r0, r0, r0
    1e78:	02a80000 	adceq	r0, r8, #0
    1e7c:	02d00000 	sbcseq	r0, r0, #0
    1e80:	00010000 	andeq	r0, r1, r0
    1e84:	00000054 	andeq	r0, r0, r4, asr r0
    1e88:	00000000 	andeq	r0, r0, r0
    1e8c:	0002ac00 	andeq	sl, r2, r0, lsl #24
    1e90:	0002b000 	andeq	fp, r2, r0
    1e94:	53000100 	movwpl	r0, #256	; 0x100
	...
    1ea0:	000002c8 	andeq	r0, r0, r8, asr #5
    1ea4:	0000030c 	andeq	r0, r0, ip, lsl #6
    1ea8:	9f300002 	svcls	0x00300002
    1eac:	00000314 	andeq	r0, r0, r4, lsl r3
    1eb0:	0000031c 	andeq	r0, r0, ip, lsl r3
    1eb4:	9f300002 	svcls	0x00300002
	...
    1ec0:	000002c8 	andeq	r0, r0, r8, asr #5
    1ec4:	0000030c 	andeq	r0, r0, ip, lsl #6
    1ec8:	14550001 	ldrbne	r0, [r5], #-1
    1ecc:	1c000003 	stcne	0, cr0, [r0], {3}
    1ed0:	01000003 	tsteq	r0, r3
    1ed4:	00005500 	andeq	r5, r0, r0, lsl #10
    1ed8:	00000000 	andeq	r0, r0, r0
    1edc:	02d00000 	sbcseq	r0, r0, #0
    1ee0:	030c0000 	movweq	r0, #49152	; 0xc000
    1ee4:	00010000 	andeq	r0, r1, r0
    1ee8:	00031454 	andeq	r1, r3, r4, asr r4
    1eec:	00031c00 	andeq	r1, r3, r0, lsl #24
    1ef0:	54000100 	strpl	r0, [r0], #-256	; 0x100
	...
    1efc:	0000031c 	andeq	r0, r0, ip, lsl r3
    1f00:	0000033f 	andeq	r0, r0, pc, lsr r3
    1f04:	3f500001 	svccc	0x00500001
    1f08:	60000003 	andvs	r0, r0, r3
    1f0c:	01000003 	tsteq	r0, r3
    1f10:	03605800 	cmneq	r0, #0, 16
    1f14:	03700000 	cmneq	r0, #0
    1f18:	00010000 	andeq	r0, r1, r0
    1f1c:	00037050 	andeq	r7, r3, r0, asr r0
    1f20:	0003b000 	andeq	fp, r3, r0
    1f24:	58000100 	stmdapl	r0, {r8}
    1f28:	000003b0 			; <UNDEFINED> instruction: 0x000003b0
    1f2c:	000003c0 	andeq	r0, r0, r0, asr #7
    1f30:	01f30004 	mvnseq	r0, r4
    1f34:	00009f50 	andeq	r9, r0, r0, asr pc
    1f38:	00000000 	andeq	r0, r0, r0
    1f3c:	031c0000 	tsteq	ip, #0
    1f40:	033f0000 	teqeq	pc, #0
    1f44:	00010000 	andeq	r0, r1, r0
    1f48:	00033f51 	andeq	r3, r3, r1, asr pc
    1f4c:	00036000 	andeq	r6, r3, r0
    1f50:	56000100 	strpl	r0, [r0], -r0, lsl #2
    1f54:	00000360 	andeq	r0, r0, r0, ror #6
    1f58:	00000370 	andeq	r0, r0, r0, ror r3
    1f5c:	70510001 	subsvc	r0, r1, r1
    1f60:	b0000003 	andlt	r0, r0, r3
    1f64:	01000003 	tsteq	r0, r3
    1f68:	03b05600 	movseq	r5, #0, 12
    1f6c:	03c00000 	biceq	r0, r0, #0
    1f70:	00040000 	andeq	r0, r4, r0
    1f74:	9f5101f3 	svcls	0x005101f3
	...
    1f80:	0000031c 	andeq	r0, r0, ip, lsl r3
    1f84:	0000033f 	andeq	r0, r0, pc, lsr r3
    1f88:	3f520001 	svccc	0x00520001
    1f8c:	60000003 	andvs	r0, r0, r3
    1f90:	04000003 	streq	r0, [r0], #-3
    1f94:	5201f300 	andpl	pc, r1, #0, 6
    1f98:	0003609f 	muleq	r3, pc, r0	; <UNPREDICTABLE>
    1f9c:	00037000 	andeq	r7, r3, r0
    1fa0:	52000100 	andpl	r0, r0, #0, 2
    1fa4:	00000370 	andeq	r0, r0, r0, ror r3
    1fa8:	000003b0 			; <UNDEFINED> instruction: 0x000003b0
    1fac:	01770003 	cmneq	r7, r3
    1fb0:	0003b09f 	muleq	r3, pc, r0	; <UNPREDICTABLE>
    1fb4:	0003c000 	andeq	ip, r3, r0
    1fb8:	f3000400 	vshl.u8	d0, d0, d0
    1fbc:	009f5201 	addseq	r5, pc, r1, lsl #4
    1fc0:	00000000 	andeq	r0, r0, r0
    1fc4:	1c000000 	stcne	0, cr0, [r0], {-0}
    1fc8:	3f000003 	svccc	0x00000003
    1fcc:	01000003 	tsteq	r0, r3
    1fd0:	033f5300 	teqeq	pc, #0, 6
    1fd4:	03600000 	cmneq	r0, #0
    1fd8:	00040000 	andeq	r0, r4, r0
    1fdc:	9f5301f3 	svcls	0x005301f3
    1fe0:	00000360 	andeq	r0, r0, r0, ror #6
    1fe4:	00000370 	andeq	r0, r0, r0, ror r3
    1fe8:	70530001 	subsvc	r0, r3, r1
    1fec:	c0000003 	andgt	r0, r0, r3
    1ff0:	04000003 	streq	r0, [r0], #-3
    1ff4:	5301f300 	movwpl	pc, #4864	; 0x1300	; <UNPREDICTABLE>
    1ff8:	0000009f 	muleq	r0, pc, r0	; <UNPREDICTABLE>
    1ffc:	00000000 	andeq	r0, r0, r0
    2000:	00036800 	andeq	r6, r3, r0, lsl #16
    2004:	00037000 	andeq	r7, r3, r0
    2008:	30000200 	andcc	r0, r0, r0, lsl #4
    200c:	0003709f 	muleq	r3, pc, r0	; <UNPREDICTABLE>
    2010:	0003b000 	andeq	fp, r3, r0
    2014:	54000100 	strpl	r0, [r0], #-256	; 0x100
    2018:	000003b0 			; <UNDEFINED> instruction: 0x000003b0
    201c:	000003c0 	andeq	r0, r0, r0, asr #7
    2020:	00500001 	subseq	r0, r0, r1
    2024:	00000000 	andeq	r0, r0, r0
    2028:	80000000 	andhi	r0, r0, r0
    202c:	90000003 	andls	r0, r0, r3
    2030:	01000003 	tsteq	r0, r3
    2034:	00005000 	andeq	r5, r0, r0
    2038:	00000000 	andeq	r0, r0, r0
    203c:	03c00000 	biceq	r0, r0, #0
    2040:	03df0000 	bicseq	r0, pc, #0
    2044:	00010000 	andeq	r0, r1, r0
    2048:	0003df50 	andeq	sp, r3, r0, asr pc
    204c:	00040000 	andeq	r0, r4, r0
    2050:	57000100 	strpl	r0, [r0, -r0, lsl #2]
    2054:	00000400 	andeq	r0, r0, r0, lsl #8
    2058:	00000410 	andeq	r0, r0, r0, lsl r4
    205c:	10500001 	subsne	r0, r0, r1
    2060:	40000004 	andmi	r0, r0, r4
    2064:	01000004 	tsteq	r0, r4
    2068:	04405700 	strbeq	r5, [r0], #-1792	; 0x700
    206c:	04500000 	ldrbeq	r0, [r0], #-0
    2070:	00040000 	andeq	r0, r4, r0
    2074:	9f5001f3 	svcls	0x005001f3
	...
    2080:	000003c0 	andeq	r0, r0, r0, asr #7
    2084:	000003df 	ldrdeq	r0, [r0], -pc	; <UNPREDICTABLE>
    2088:	df510001 	svcle	0x00510001
    208c:	00000003 	andeq	r0, r0, r3
    2090:	01000004 	tsteq	r0, r4
    2094:	04005500 	streq	r5, [r0], #-1280	; 0x500
    2098:	04100000 	ldreq	r0, [r0], #-0
    209c:	00010000 	andeq	r0, r1, r0
    20a0:	00041051 	andeq	r1, r4, r1, asr r0
    20a4:	00044000 	andeq	r4, r4, r0
    20a8:	55000100 	strpl	r0, [r0, #-256]	; 0x100
    20ac:	00000440 	andeq	r0, r0, r0, asr #8
    20b0:	00000450 	andeq	r0, r0, r0, asr r4
    20b4:	01f30004 	mvnseq	r0, r4
    20b8:	00009f51 	andeq	r9, r0, r1, asr pc
    20bc:	00000000 	andeq	r0, r0, r0
    20c0:	03c00000 	biceq	r0, r0, #0
    20c4:	03df0000 	bicseq	r0, pc, #0
    20c8:	00010000 	andeq	r0, r1, r0
    20cc:	0003df52 	andeq	sp, r3, r2, asr pc
    20d0:	00040000 	andeq	r0, r4, r0
    20d4:	f3000400 	vshl.u8	d0, d0, d0
    20d8:	009f5201 	addseq	r5, pc, r1, lsl #4
    20dc:	10000004 	andne	r0, r0, r4
    20e0:	01000004 	tsteq	r0, r4
    20e4:	04105200 	ldreq	r5, [r0], #-512	; 0x200
    20e8:	04400000 	strbeq	r0, [r0], #-0
    20ec:	00030000 	andeq	r0, r3, r0
    20f0:	409f0176 	addsmi	r0, pc, r6, ror r1	; <UNPREDICTABLE>
    20f4:	50000004 	andpl	r0, r0, r4
    20f8:	04000004 	streq	r0, [r0], #-4
    20fc:	5201f300 	andpl	pc, r1, #0, 6
    2100:	0000009f 	muleq	r0, pc, r0	; <UNPREDICTABLE>
    2104:	00000000 	andeq	r0, r0, r0
    2108:	0003c000 	andeq	ip, r3, r0
    210c:	0003df00 	andeq	sp, r3, r0, lsl #30
    2110:	53000100 	movwpl	r0, #256	; 0x100
    2114:	000003df 	ldrdeq	r0, [r0], -pc	; <UNPREDICTABLE>
    2118:	00000400 	andeq	r0, r0, r0, lsl #8
    211c:	00580001 	subseq	r0, r8, r1
    2120:	10000004 	andne	r0, r0, r4
    2124:	01000004 	tsteq	r0, r4
    2128:	04105300 	ldreq	r5, [r0], #-768	; 0x300
    212c:	04400000 	strbeq	r0, [r0], #-0
    2130:	00010000 	andeq	r0, r1, r0
    2134:	00044058 	andeq	r4, r4, r8, asr r0
    2138:	00045000 	andeq	r5, r4, r0
    213c:	f3000400 	vshl.u8	d0, d0, d0
    2140:	009f5301 	addseq	r5, pc, r1, lsl #6
    2144:	00000000 	andeq	r0, r0, r0
    2148:	08000000 	stmdaeq	r0, {}	; <UNPREDICTABLE>
    214c:	10000004 	andne	r0, r0, r4
    2150:	02000004 	andeq	r0, r0, #4
    2154:	109f3000 	addsne	r3, pc, r0
    2158:	40000004 	andmi	r0, r0, r4
    215c:	01000004 	tsteq	r0, r4
    2160:	04405400 	strbeq	r5, [r0], #-1024	; 0x400
    2164:	04500000 	ldrbeq	r0, [r0], #-0
    2168:	00010000 	andeq	r0, r1, r0
    216c:	00000050 	andeq	r0, r0, r0, asr r0
    2170:	00000000 	andeq	r0, r0, r0
    2174:	00045000 	andeq	r5, r4, r0
    2178:	00047300 	andeq	r7, r4, r0, lsl #6
    217c:	51000100 	mrspl	r0, (UNDEF: 16)
    2180:	00000473 	andeq	r0, r0, r3, ror r4
    2184:	00000524 	andeq	r0, r0, r4, lsr #10
    2188:	01f30004 	mvnseq	r0, r4
    218c:	00009f51 	andeq	r9, r0, r1, asr pc
    2190:	00000000 	andeq	r0, r0, r0
    2194:	04500000 	ldrbeq	r0, [r0], #-0
    2198:	04730000 	ldrbteq	r0, [r3], #-0
    219c:	00010000 	andeq	r0, r1, r0
    21a0:	00047352 	andeq	r7, r4, r2, asr r3
    21a4:	00052400 	andeq	r2, r5, r0, lsl #8
    21a8:	f3000400 	vshl.u8	d0, d0, d0
    21ac:	009f5201 	addseq	r5, pc, r1, lsl #4
    21b0:	00000000 	andeq	r0, r0, r0
    21b4:	50000000 	andpl	r0, r0, r0
    21b8:	73000004 	movwvc	r0, #4
    21bc:	01000004 	tsteq	r0, r4
    21c0:	04735300 	ldrbteq	r5, [r3], #-768	; 0x300
    21c4:	05100000 	ldreq	r0, [r0, #-0]
    21c8:	00010000 	andeq	r0, r1, r0
    21cc:	00051055 	andeq	r1, r5, r5, asr r0
    21d0:	00052400 	andeq	r2, r5, r0, lsl #8
    21d4:	70000200 	andvc	r0, r0, r0, lsl #4
    21d8:	00000004 	andeq	r0, r0, r4
    21dc:	00000000 	andeq	r0, r0, r0
    21e0:	00049400 	andeq	r9, r4, r0, lsl #8
    21e4:	0004d300 	andeq	sp, r4, r0, lsl #6
    21e8:	52000100 	andpl	r0, r0, #0, 2
    21ec:	000004d3 	ldrdeq	r0, [r0], -r3
    21f0:	000004f4 	strdeq	r0, [r0], -r4
    21f4:	00750006 	rsbseq	r0, r5, r6
    21f8:	9f1e0077 	svcls	0x001e0077
    21fc:	000004f4 	strdeq	r0, [r0], -r4
    2200:	00000524 	andeq	r0, r0, r4, lsr #10
    2204:	00520001 	subseq	r0, r2, r1
    2208:	00000000 	andeq	r0, r0, r0
    220c:	24000000 	strcs	r0, [r0], #-0
    2210:	2f000005 	svccs	0x00000005
    2214:	01000005 	tsteq	r0, r5
    2218:	052f5000 	streq	r5, [pc, #-0]!	; 2220 <_start-0x5de0>
    221c:	05600000 	strbeq	r0, [r0, #-0]!
    2220:	00040000 	andeq	r0, r4, r0
    2224:	9f5001f3 	svcls	0x005001f3
	...
    2230:	00000530 	andeq	r0, r0, r0, lsr r5
    2234:	0000053b 	andeq	r0, r0, fp, lsr r5
    2238:	00500001 	subseq	r0, r0, r1
    223c:	00000000 	andeq	r0, r0, r0
    2240:	60000000 	andvs	r0, r0, r0
    2244:	70000005 	andvc	r0, r0, r5
    2248:	01000005 	tsteq	r0, r5
    224c:	05705000 	ldrbeq	r5, [r0, #-0]!
    2250:	058c0000 	streq	r0, [ip]
    2254:	00010000 	andeq	r0, r1, r0
    2258:	00000055 	andeq	r0, r0, r5, asr r0
    225c:	00000000 	andeq	r0, r0, r0
    2260:	00056000 	andeq	r6, r5, r0
    2264:	00057000 	andeq	r7, r5, r0
    2268:	51000100 	mrspl	r0, (UNDEF: 16)
    226c:	00000570 	andeq	r0, r0, r0, ror r5
    2270:	0000058c 	andeq	r0, r0, ip, lsl #11
    2274:	00540001 	subseq	r0, r4, r1
    2278:	00000000 	andeq	r0, r0, r0
    227c:	8c000000 	stchi	0, cr0, [r0], {-0}
    2280:	a8000005 	stmdage	r0, {r0, r2}
    2284:	01000005 	tsteq	r0, r5
    2288:	05a85000 	streq	r5, [r8, #0]!
    228c:	06000000 	streq	r0, [r0], -r0
    2290:	00010000 	andeq	r0, r1, r0
    2294:	00060055 	andeq	r0, r6, r5, asr r0
    2298:	00061c00 	andeq	r1, r6, r0, lsl #24
    229c:	f3000400 	vshl.u8	d0, d0, d0
    22a0:	009f5001 	addseq	r5, pc, r1
    22a4:	00000000 	andeq	r0, r0, r0
    22a8:	b8000000 	stmdalt	r0, {}	; <UNPREDICTABLE>
    22ac:	c7000005 	strgt	r0, [r0, -r5]
    22b0:	01000005 	tsteq	r0, r5
    22b4:	05c75000 	strbeq	r5, [r7]
    22b8:	05e80000 	strbeq	r0, [r8, #0]!
    22bc:	00010000 	andeq	r0, r1, r0
    22c0:	0005e854 	andeq	lr, r5, r4, asr r8
    22c4:	0005ec00 	andeq	lr, r5, r0, lsl #24
    22c8:	50000100 	andpl	r0, r0, r0, lsl #2
    22cc:	000005ec 	andeq	r0, r0, ip, ror #11
    22d0:	00000600 	andeq	r0, r0, r0, lsl #12
    22d4:	00540001 	subseq	r0, r4, r1
    22d8:	1c000006 	stcne	0, cr0, [r0], {6}
    22dc:	01000006 	tsteq	r0, r6
    22e0:	00005000 	andeq	r5, r0, r0
    22e4:	00000000 	andeq	r0, r0, r0
    22e8:	061c0000 	ldreq	r0, [ip], -r0
    22ec:	062f0000 	strteq	r0, [pc], -r0
    22f0:	00010000 	andeq	r0, r1, r0
    22f4:	00062f50 	andeq	r2, r6, r0, asr pc
    22f8:	00066800 	andeq	r6, r6, r0, lsl #16
    22fc:	f3000400 	vshl.u8	d0, d0, d0
    2300:	009f5001 	addseq	r5, pc, r1
    2304:	00000000 	andeq	r0, r0, r0
    2308:	1c000000 	stcne	0, cr0, [r0], {-0}
    230c:	2f000006 	svccs	0x00000006
    2310:	01000006 	tsteq	r0, r6
    2314:	062f5100 	strteq	r5, [pc], -r0, lsl #2
    2318:	06680000 	strbteq	r0, [r8], -r0
    231c:	00040000 	andeq	r0, r4, r0
    2320:	9f5101f3 	svcls	0x005101f3
	...
    232c:	0000061c 	andeq	r0, r0, ip, lsl r6
    2330:	0000062f 	andeq	r0, r0, pc, lsr #12
    2334:	2f520001 	svccs	0x00520001
    2338:	68000006 	stmdavs	r0, {r1, r2}
    233c:	04000006 	streq	r0, [r0], #-6
    2340:	5201f300 	andpl	pc, r1, #0, 6
    2344:	0000009f 	muleq	r0, pc, r0	; <UNPREDICTABLE>
    2348:	00000000 	andeq	r0, r0, r0
    234c:	00061c00 	andeq	r1, r6, r0, lsl #24
    2350:	00062f00 	andeq	r2, r6, r0, lsl #30
    2354:	53000100 	movwpl	r0, #256	; 0x100
    2358:	0000062f 	andeq	r0, r0, pc, lsr #12
    235c:	00000668 	andeq	r0, r0, r8, ror #12
    2360:	01f30004 	mvnseq	r0, r4
    2364:	00009f53 	andeq	r9, r0, r3, asr pc
    2368:	00000000 	andeq	r0, r0, r0
    236c:	06300000 	ldrteq	r0, [r0], -r0
    2370:	063b0000 	ldrteq	r0, [fp], -r0
    2374:	00010000 	andeq	r0, r1, r0
    2378:	00065450 	andeq	r5, r6, r0, asr r4
    237c:	00066800 	andeq	r6, r6, r0, lsl #16
    2380:	50000100 	andpl	r0, r0, r0, lsl #2
	...
    238c:	000000fc 	strdeq	r0, [r0], -ip
    2390:	00000104 	andeq	r0, r0, r4, lsl #2
    2394:	04500001 	ldrbeq	r0, [r0], #-1
    2398:	28000001 	stmdacs	r0, {r0}
    239c:	01000001 	tsteq	r0, r1
    23a0:	00005400 	andeq	r5, r0, r0, lsl #8
	...
    23ac:	00040000 	andeq	r0, r4, r0
    23b0:	00010000 	andeq	r0, r1, r0
    23b4:	00000452 	andeq	r0, r0, r2, asr r4
    23b8:	00002000 	andeq	r2, r0, r0
    23bc:	f3000400 	vshl.u8	d0, d0, d0
    23c0:	009f5201 	addseq	r5, pc, r1, lsl #4
	...
    23cc:	0c000000 	stceq	0, cr0, [r0], {-0}
    23d0:	01000000 	mrseq	r0, (UNDEF: 0)
    23d4:	000c5000 	andeq	r5, ip, r0
    23d8:	00140000 	andseq	r0, r4, r0
    23dc:	00030000 	andeq	r0, r3, r0
    23e0:	149f0173 	ldrne	r0, [pc], #371	; 23e8 <_start-0x5c18>
    23e4:	20000000 	andcs	r0, r0, r0
    23e8:	01000000 	mrseq	r0, (UNDEF: 0)
    23ec:	00005300 	andeq	r5, r0, r0, lsl #6
    23f0:	00000000 	andeq	r0, r0, r0
	...

Disassembly of section .debug_aranges:

00000000 <.debug_aranges>:
   0:	0000001c 	andeq	r0, r0, ip, lsl r0
   4:	00000002 	andeq	r0, r0, r2
   8:	00040000 	andeq	r0, r4, r0
   c:	00000000 	andeq	r0, r0, r0
  10:	00008010 	andeq	r8, r0, r0, lsl r0
  14:	000001c8 	andeq	r0, r0, r8, asr #3
	...
  20:	0000001c 	andeq	r0, r0, ip, lsl r0
  24:	06ae0002 	strteq	r0, [lr], r2
  28:	00040000 	andeq	r0, r4, r0
  2c:	00000000 	andeq	r0, r0, r0
  30:	000081d8 	ldrdeq	r8, [r0], -r8	; <UNPREDICTABLE>
  34:	00000058 	andeq	r0, r0, r8, asr r0
	...
  40:	0000001c 	andeq	r0, r0, ip, lsl r0
  44:	08430002 	stmdaeq	r3, {r1}^
  48:	00040000 	andeq	r0, r4, r0
  4c:	00000000 	andeq	r0, r0, r0
  50:	00008230 	andeq	r8, r0, r0, lsr r2
  54:	0000003c 	andeq	r0, r0, ip, lsr r0
	...
  60:	0000001c 	andeq	r0, r0, ip, lsl r0
  64:	095a0002 	ldmdbeq	sl, {r1}^
  68:	00040000 	andeq	r0, r4, r0
  6c:	00000000 	andeq	r0, r0, r0
  70:	0000826c 	andeq	r8, r0, ip, ror #4
  74:	00000034 	andeq	r0, r0, r4, lsr r0
	...
  80:	0000001c 	andeq	r0, r0, ip, lsl r0
  84:	0a4c0002 	beq	1300094 <__bss_end__+0x12f6144>
  88:	00040000 	andeq	r0, r4, r0
  8c:	00000000 	andeq	r0, r0, r0
  90:	000082a0 	andeq	r8, r0, r0, lsr #5
  94:	00000524 	andeq	r0, r0, r4, lsr #10
	...
  a0:	0000001c 	andeq	r0, r0, ip, lsl r0
  a4:	10f10002 	rscsne	r0, r1, r2
  a8:	00040000 	andeq	r0, r4, r0
  ac:	00000000 	andeq	r0, r0, r0
  b0:	000087c4 	andeq	r8, r0, r4, asr #15
  b4:	00000020 	andeq	r0, r0, r0, lsr #32
	...
  c0:	0000001c 	andeq	r0, r0, ip, lsl r0
  c4:	11ad0002 			; <UNDEFINED> instruction: 0x11ad0002
  c8:	00040000 	andeq	r0, r4, r0
  cc:	00000000 	andeq	r0, r0, r0
  d0:	000087e4 	andeq	r8, r0, r4, ror #15
  d4:	00000028 	andeq	r0, r0, r8, lsr #32
	...
  e0:	0000001c 	andeq	r0, r0, ip, lsl r0
  e4:	12b00002 	adcsne	r0, r0, #2
  e8:	00040000 	andeq	r0, r4, r0
  ec:	00000000 	andeq	r0, r0, r0
  f0:	0000880c 	andeq	r8, r0, ip, lsl #16
  f4:	000000b0 	strheq	r0, [r0], -r0	; <UNPREDICTABLE>
	...
 100:	0000001c 	andeq	r0, r0, ip, lsl r0
 104:	15910002 	ldrne	r0, [r1, #2]
 108:	00040000 	andeq	r0, r4, r0
 10c:	00000000 	andeq	r0, r0, r0
 110:	000088bc 			; <UNDEFINED> instruction: 0x000088bc
 114:	00000074 	andeq	r0, r0, r4, ror r0
	...
 120:	0000001c 	andeq	r0, r0, ip, lsl r0
 124:	17420002 	strbne	r0, [r2, -r2]
 128:	00040000 	andeq	r0, r4, r0
 12c:	00000000 	andeq	r0, r0, r0
 130:	00008930 	andeq	r8, r0, r0, lsr r9
 134:	00000088 	andeq	r0, r0, r8, lsl #1
	...
 140:	0000001c 	andeq	r0, r0, ip, lsl r0
 144:	191e0002 	ldmdbne	lr, {r1}
 148:	00040000 	andeq	r0, r4, r0
 14c:	00000000 	andeq	r0, r0, r0
 150:	000089b8 			; <UNDEFINED> instruction: 0x000089b8
 154:	000005a0 	andeq	r0, r0, r0, lsr #11
	...
 160:	0000001c 	andeq	r0, r0, ip, lsl r0
 164:	21a40002 			; <UNDEFINED> instruction: 0x21a40002
 168:	00040000 	andeq	r0, r4, r0
 16c:	00000000 	andeq	r0, r0, r0
 170:	00008f58 	andeq	r8, r0, r8, asr pc
 174:	00000668 	andeq	r0, r0, r8, ror #12
	...
 180:	0000001c 	andeq	r0, r0, ip, lsl r0
 184:	339a0002 	orrscc	r0, sl, #2
 188:	00040000 	andeq	r0, r4, r0
 18c:	00000000 	andeq	r0, r0, r0
 190:	000095c0 	andeq	r9, r0, r0, asr #11
 194:	00000154 	andeq	r0, r0, r4, asr r1
	...
 1a0:	0000001c 	andeq	r0, r0, ip, lsl r0
 1a4:	379d0002 	ldrcc	r0, [sp, r2]
 1a8:	00040000 	andeq	r0, r4, r0
 1ac:	00000000 	andeq	r0, r0, r0
 1b0:	00009778 	andeq	r9, r0, r8, ror r7
 1b4:	00000050 	andeq	r0, r0, r0, asr r0
	...
 1c0:	0000001c 	andeq	r0, r0, ip, lsl r0
 1c4:	39640002 	stmdbcc	r4!, {r1}^
 1c8:	00040000 	andeq	r0, r4, r0
 1cc:	00000000 	andeq	r0, r0, r0
 1d0:	000097c8 	andeq	r9, r0, r8, asr #15
 1d4:	00000020 	andeq	r0, r0, r0, lsr #32
	...

Disassembly of section .debug_ranges:

00000000 <.debug_ranges>:
   0:	00000058 	andeq	r0, r0, r8, asr r0
   4:	00000060 	andeq	r0, r0, r0, rrx
   8:	00000068 	andeq	r0, r0, r8, rrx
   c:	00000074 	andeq	r0, r0, r4, ror r0
	...
  18:	000000ec 	andeq	r0, r0, ip, ror #1
  1c:	000000f0 	strdeq	r0, [r0], -r0	; <UNPREDICTABLE>
  20:	000000fc 	strdeq	r0, [r0], -ip
  24:	00000108 	andeq	r0, r0, r8, lsl #2
  28:	00000110 	andeq	r0, r0, r0, lsl r1
  2c:	0000016c 	andeq	r0, r0, ip, ror #2
	...
  38:	000002b4 			; <UNDEFINED> instruction: 0x000002b4
  3c:	000002b8 			; <UNDEFINED> instruction: 0x000002b8
  40:	000002e8 	andeq	r0, r0, r8, ror #5
  44:	000004e0 	andeq	r0, r0, r0, ror #9
	...
  50:	000088bc 			; <UNDEFINED> instruction: 0x000088bc
  54:	00008930 	andeq	r8, r0, r0, lsr r9
	...

Disassembly of section .debug_line:

00000000 <.debug_line>:
       0:	000001b1 			; <UNDEFINED> instruction: 0x000001b1
       4:	01250002 	teqeq	r5, r2
       8:	01020000 	mrseq	r0, (UNDEF: 2)
       c:	000d0efb 	strdeq	r0, [sp], -fp
      10:	01010101 	tsteq	r1, r1, lsl #2
      14:	01000000 	mrseq	r0, (UNDEF: 0)
      18:	2f010000 	svccs	0x00010000
      1c:	2f727375 	svccs	0x00727375
      20:	61636f6c 	cmnvs	r3, ip, ror #30
      24:	65432f6c 	strbvs	r2, [r3, #-3948]	; 0xf6c
      28:	72616c6c 	rsbvc	r6, r1, #108, 24	; 0x6c00
      2c:	6d72612f 	ldfvse	f6, [r2, #-188]!	; 0xffffff44
      30:	6e6f6e2d 	cdpvs	14, 6, cr6, cr15, cr13, {1}
      34:	61652d65 	cmnvs	r5, r5, ror #26
      38:	342f6962 	strtcc	r6, [pc], #-2402	; 40 <_start-0x7fc0>
      3c:	332e382e 	teqcc	lr, #3014656	; 0x2e0000
      40:	3173632d 	cmncc	r3, sp, lsr #6
      44:	2f653037 	svccs	0x00653037
      48:	2f62696c 	svccs	0x0062696c
      4c:	2f636367 	svccs	0x00636367
      50:	2d6d7261 	sfmcs	f7, 2, [sp, #-388]!	; 0xfffffe7c
      54:	656e6f6e 	strbvs	r6, [lr, #-3950]!	; 0xf6e
      58:	6261652d 	rsbvs	r6, r1, #188743680	; 0xb400000
      5c:	2e342f69 	cdpcs	15, 3, cr2, cr4, cr9, {3}
      60:	2f332e38 	svccs	0x00332e38
      64:	6c636e69 	stclvs	14, cr6, [r3], #-420	; 0xfffffe5c
      68:	00656475 	rsbeq	r6, r5, r5, ror r4
      6c:	6573552f 	ldrbvs	r5, [r3, #-1327]!	; 0x52f
      70:	622f7372 	eorvs	r7, pc, #-939524095	; 0xc8000001
      74:	6e616972 	mcrvs	9, 3, r6, cr1, cr2, {3}
      78:	2f6e756a 	svccs	0x006e756a
      7c:	6b736544 	blvs	1cd9594 <__bss_end__+0x1ccf644>
      80:	2f706f74 	svccs	0x00706f74
      84:	6f686373 	svcvs	0x00686373
      88:	572f6c6f 	strpl	r6, [pc, -pc, ror #24]!
      8c:	65746e69 	ldrbvs	r6, [r4, #-3689]!	; 0xe69
      90:	32393172 	eorscc	r3, r9, #-2147483620	; 0x8000001c
      94:	53432f30 	movtpl	r2, #16176	; 0x3f30
      98:	45303431 	ldrmi	r3, [r0, #-1073]!	; 0x431
      9c:	3173632f 	cmncc	r3, pc, lsr #6
      a0:	2d653034 	stclcs	0, cr3, [r5, #-208]!	; 0xffffff30
      a4:	69773032 	ldmdbvs	r7!, {r1, r4, r5, ip, sp}^
      a8:	696c2f6e 	stmdbvs	ip!, {r1, r2, r3, r5, r6, r8, r9, sl, fp, sp}^
      ac:	00697062 	rsbeq	r7, r9, r2, rrx
      b0:	6573552f 	ldrbvs	r5, [r3, #-1327]!	; 0x52f
      b4:	622f7372 	eorvs	r7, pc, #-939524095	; 0xc8000001
      b8:	6e616972 	mcrvs	9, 3, r6, cr1, cr2, {3}
      bc:	2f6e756a 	svccs	0x006e756a
      c0:	6b736544 	blvs	1cd95d8 <__bss_end__+0x1ccf688>
      c4:	2f706f74 	svccs	0x00706f74
      c8:	6f686373 	svcvs	0x00686373
      cc:	572f6c6f 	strpl	r6, [pc, -pc, ror #24]!
      d0:	65746e69 	ldrbvs	r6, [r4, #-3689]!	; 0xe69
      d4:	32393172 	eorscc	r3, r9, #-2147483620	; 0x8000001c
      d8:	53432f30 	movtpl	r2, #16176	; 0x3f30
      dc:	45303431 	ldrmi	r3, [r0, #-1073]!	; 0x431
      e0:	3173632f 	cmncc	r3, pc, lsr #6
      e4:	2d653034 	stclcs	0, cr3, [r5, #-208]!	; 0xffffff30
      e8:	69773032 	ldmdbvs	r7!, {r1, r4, r5, ip, sp}^
      ec:	696c2f6e 	stmdbvs	ip!, {r1, r2, r3, r5, r6, r8, r9, sl, fp, sp}^
      f0:	2f697062 	svccs	0x00697062
      f4:	34317363 	ldrtcc	r7, [r1], #-867	; 0x363
      f8:	732d6530 	teqvc	sp, #48, 10	; 0xc000000
      fc:	00006372 	andeq	r6, r0, r2, ror r3
     100:	706f6373 	rsbvc	r6, pc, r3, ror r3	; <UNPREDICTABLE>
     104:	00632e65 	rsbeq	r2, r3, r5, ror #28
     108:	73000000 	movwvc	r0, #0
     10c:	6e696474 	mcrvs	4, 3, r6, cr9, cr4, {3}
     110:	63672d74 	cmnvs	r7, #116, 26	; 0x1d00
     114:	00682e63 	rsbeq	r2, r8, r3, ror #28
     118:	72000001 	andvc	r0, r0, #1
     11c:	682e6970 	stmdavs	lr!, {r4, r5, r6, r8, fp, sp, lr}
     120:	00000200 	andeq	r0, r0, r0, lsl #4
     124:	6f697067 	svcvs	0x00697067
     128:	0300682e 	movweq	r6, #2094	; 0x82e
     12c:	00000000 	andeq	r0, r0, r0
     130:	80100205 	andshi	r0, r0, r5, lsl #4
     134:	28030000 	stmdacs	r3, {}	; <UNPREDICTABLE>
     138:	2f2d1301 	svccs	0x002d1301
     13c:	30672f2f 	rsbcc	r2, r7, pc, lsr #30
     140:	01040200 	mrseq	r0, R12_usr
     144:	080d0345 	stmdaeq	sp, {r0, r2, r6, r8, r9}
     148:	6e032e3c 	mcrvs	14, 0, r2, cr3, cr12, {1}
     14c:	14032c2e 	strne	r2, [r3], #-3118	; 0xc2e
     150:	4a6e032e 	bmi	1b80e10 <__bss_end__+0x1b76ec0>
     154:	1603302c 	strne	r3, [r3], -ip, lsr #32
     158:	0402002e 	streq	r0, [r2], #-46	; 0x2e
     15c:	2e680301 	cdpcs	3, 6, cr0, cr8, cr1, {0}
     160:	01040200 	mrseq	r0, R12_usr
     164:	0402004c 	streq	r0, [r2], #-76	; 0x4c
     168:	2e180301 	cdpcs	3, 1, cr0, cr8, cr1, {0}
     16c:	02002967 	andeq	r2, r0, #1687552	; 0x19c000
     170:	6a030104 	bvs	c0588 <__bss_end__+0xb6638>
     174:	04020066 	streq	r0, [r2], #-102	; 0x66
     178:	02004c01 	andeq	r4, r0, #256	; 0x100
     17c:	1c030104 	stfnes	f0, [r3], {4}
     180:	0402002e 	streq	r0, [r2], #-46	; 0x2e
     184:	2f4c2f01 	svccs	0x004c2f01
     188:	7a032f67 	bvc	cbf2c <__bss_end__+0xc1fdc>
     18c:	4a0a034a 	bmi	280ebc <__bss_end__+0x276f6c>
     190:	2e2b316a 	sufcsez	f3, f3, #2.0
     194:	834c644d 	movthi	r6, #50253	; 0xc44d
     198:	7a03354c 	bvc	cd6d0 <__bss_end__+0xc3780>
     19c:	2c67312e 	stfcse	f3, [r7], #-184	; 0xffffff48
     1a0:	ba760332 	blt	1d80e70 <__bss_end__+0x1d76f20>
     1a4:	68660c03 	stmdavs	r6!, {r0, r1, sl, fp}^
     1a8:	4f4b2f4c 	svcmi	0x004b2f4c
     1ac:	4b312bd9 	blmi	c4b118 <__bss_end__+0xc411c8>
     1b0:	01000402 	tsteq	r0, r2, lsl #8
     1b4:	00010201 	andeq	r0, r1, r1, lsl #4
     1b8:	eb000200 	bl	9c0 <_start-0x7640>
     1bc:	02000000 	andeq	r0, r0, #0
     1c0:	0d0efb01 	vstreq	d15, [lr, #-4]
     1c4:	01010100 	mrseq	r0, (UNDEF: 17)
     1c8:	00000001 	andeq	r0, r0, r1
     1cc:	01000001 	tsteq	r0, r1
     1d0:	6362696c 	cmnvs	r2, #108, 18	; 0x1b0000
     1d4:	73752f00 	cmnvc	r5, #0, 30
     1d8:	6f6c2f72 	svcvs	0x006c2f72
     1dc:	2f6c6163 	svccs	0x006c6163
     1e0:	6c6c6543 	cfstr64vs	mvdx6, [ip], #-268	; 0xfffffef4
     1e4:	612f7261 	teqvs	pc, r1, ror #4
     1e8:	6e2d6d72 	mcrvs	13, 1, r6, cr13, cr2, {3}
     1ec:	2d656e6f 	stclcs	14, cr6, [r5, #-444]!	; 0xfffffe44
     1f0:	69626165 	stmdbvs	r2!, {r0, r2, r5, r6, r8, sp, lr}^
     1f4:	382e342f 	stmdacc	lr!, {r0, r1, r2, r3, r5, sl, ip, sp}
     1f8:	632d332e 	teqvs	sp, #-1207959552	; 0xb8000000
     1fc:	30373173 	eorscc	r3, r7, r3, ror r1
     200:	696c2f65 	stmdbvs	ip!, {r0, r2, r5, r6, r8, r9, sl, fp, sp}^
     204:	63672f62 	cmnvs	r7, #392	; 0x188
     208:	72612f63 	rsbvc	r2, r1, #396	; 0x18c
     20c:	6f6e2d6d 	svcvs	0x006e2d6d
     210:	652d656e 	strvs	r6, [sp, #-1390]!	; 0x56e
     214:	2f696261 	svccs	0x00696261
     218:	2e382e34 	mrccs	14, 1, r2, cr8, cr4, {1}
     21c:	6e692f33 	mcrvs	15, 3, r2, cr9, cr3, {1}
     220:	64756c63 	ldrbtvs	r6, [r5], #-3171	; 0xc63
     224:	552f0065 	strpl	r0, [pc, #-101]!	; 1c7 <_start-0x7e39>
     228:	73726573 	cmnvc	r2, #482344960	; 0x1cc00000
     22c:	6972622f 	ldmdbvs	r2!, {r0, r1, r2, r3, r5, r9, sp, lr}^
     230:	756a6e61 	strbvc	r6, [sl, #-3681]!	; 0xe61
     234:	65442f6e 	strbvs	r2, [r4, #-3950]	; 0xf6e
     238:	6f746b73 	svcvs	0x00746b73
     23c:	63732f70 	cmnvs	r3, #112, 30	; 0x1c0
     240:	6c6f6f68 	stclvs	15, cr6, [pc], #-416	; a8 <_start-0x7f58>
     244:	6e69572f 	cdpvs	7, 6, cr5, cr9, cr15, {1}
     248:	31726574 	cmncc	r2, r4, ror r5
     24c:	2f303239 	svccs	0x00303239
     250:	34315343 	ldrtcc	r5, [r1], #-835	; 0x343
     254:	632f4530 	teqvs	pc, #48, 10	; 0xc000000
     258:	30343173 	eorscc	r3, r4, r3, ror r1
     25c:	30322d65 	eorscc	r2, r2, r5, ror #26
     260:	2f6e6977 	svccs	0x006e6977
     264:	7062696c 	rsbvc	r6, r2, ip, ror #18
     268:	70000069 	andvc	r0, r0, r9, rrx
     26c:	746e6972 	strbtvc	r6, [lr], #-2418	; 0x972
     270:	00632e6b 	rsbeq	r2, r3, fp, ror #28
     274:	73000001 	movwvc	r0, #1
     278:	72616474 	rsbvc	r6, r1, #116, 8	; 0x74000000
     27c:	00682e67 	rsbeq	r2, r8, r7, ror #28
     280:	3c000002 	stccc	0, cr0, [r0], {2}
     284:	6c697562 	cfstr64vs	mvdx7, [r9], #-392	; 0xfffffe78
     288:	6e692d74 	mcrvs	13, 3, r2, cr9, cr4, {3}
     28c:	0000003e 	andeq	r0, r0, lr, lsr r0
     290:	69707200 	ldmdbvs	r0!, {r9, ip, sp, lr}^
     294:	0300682e 	movweq	r6, #2094	; 0x82e
     298:	61760000 	cmnvs	r6, r0
     29c:	6972702d 	ldmdbvs	r2!, {r0, r2, r3, r5, ip, sp, lr}^
     2a0:	2e6b746e 	cdpcs	4, 6, cr7, cr11, cr14, {3}
     2a4:	00010068 	andeq	r0, r1, r8, rrx
     2a8:	05000000 	streq	r0, [r0, #-0]
     2ac:	0081d802 	addeq	sp, r1, r2, lsl #16
     2b0:	4b6b1700 	blmi	1ac5eb8 <__bss_end__+0x1abbf68>
     2b4:	0e0289bf 	mcreq	9, 0, r8, cr2, cr15, {5}
     2b8:	8a010100 	bhi	406c0 <__bss_end__+0x36770>
     2bc:	02000000 	andeq	r0, r0, #0
     2c0:	00007200 	andeq	r7, r0, r0, lsl #4
     2c4:	fb010200 	blx	40ace <__bss_end__+0x36b7e>
     2c8:	01000d0e 	tsteq	r0, lr, lsl #26
     2cc:	00010101 	andeq	r0, r1, r1, lsl #2
     2d0:	00010000 	andeq	r0, r1, r0
     2d4:	696c0100 	stmdbvs	ip!, {r8}^
     2d8:	2f006362 	svccs	0x00006362
     2dc:	72657355 	rsbvc	r7, r5, #1409286145	; 0x54000001
     2e0:	72622f73 	rsbvc	r2, r2, #460	; 0x1cc
     2e4:	6a6e6169 	bvs	1b98890 <__bss_end__+0x1b8e940>
     2e8:	442f6e75 	strtmi	r6, [pc], #-3701	; 2f0 <_start-0x7d10>
     2ec:	746b7365 	strbtvc	r7, [fp], #-869	; 0x365
     2f0:	732f706f 	teqvc	pc, #111	; 0x6f
     2f4:	6f6f6863 	svcvs	0x006f6863
     2f8:	69572f6c 	ldmdbvs	r7, {r2, r3, r5, r6, r8, r9, sl, fp, sp}^
     2fc:	7265746e 	rsbvc	r7, r5, #1845493760	; 0x6e000000
     300:	30323931 	eorscc	r3, r2, r1, lsr r9
     304:	3153432f 	cmpcc	r3, pc, lsr #6
     308:	2f453034 	svccs	0x00453034
     30c:	34317363 	ldrtcc	r7, [r1], #-867	; 0x363
     310:	322d6530 	eorcc	r6, sp, #48, 10	; 0xc000000
     314:	6e697730 	mcrvs	7, 3, r7, cr9, cr0, {1}
     318:	62696c2f 	rsbvs	r6, r9, #12032	; 0x2f00
     31c:	00006970 	andeq	r6, r0, r0, ror r9
     320:	63747570 	cmnvs	r4, #112, 10	; 0x1c000000
     324:	2e726168 	rpwcssz	f6, f2, #0.0
     328:	00010063 	andeq	r0, r1, r3, rrx
     32c:	69707200 	ldmdbvs	r0!, {r9, ip, sp, lr}^
     330:	0200682e 	andeq	r6, r0, #3014656	; 0x2e0000
     334:	00000000 	andeq	r0, r0, r0
     338:	82300205 	eorshi	r0, r0, #1342177280	; 0x50000000
     33c:	4a140000 	bmi	500344 <__bss_end__+0x4f63f4>
     340:	13bc136b 			; <UNDEFINED> instruction: 0x13bc136b
     344:	01000802 	tsteq	r0, r2, lsl #16
     348:	00009601 	andeq	r9, r0, r1, lsl #12
     34c:	6f000200 	svcvs	0x00000200
     350:	02000000 	andeq	r0, r0, #0
     354:	0d0efb01 	vstreq	d15, [lr, #-4]
     358:	01010100 	mrseq	r0, (UNDEF: 17)
     35c:	00000001 	andeq	r0, r0, r1
     360:	01000001 	tsteq	r0, r1
     364:	6362696c 	cmnvs	r2, #108, 18	; 0x1b0000
     368:	73552f00 	cmpvc	r5, #0, 30
     36c:	2f737265 	svccs	0x00737265
     370:	61697262 	cmnvs	r9, r2, ror #4
     374:	6e756a6e 	vsubvs.f32	s13, s10, s29
     378:	7365442f 	cmnvc	r5, #788529152	; 0x2f000000
     37c:	706f746b 	rsbvc	r7, pc, fp, ror #8
     380:	6863732f 	stmdavs	r3!, {r0, r1, r2, r3, r5, r8, r9, ip, sp, lr}^
     384:	2f6c6f6f 	svccs	0x006c6f6f
     388:	746e6957 	strbtvc	r6, [lr], #-2391	; 0x957
     38c:	39317265 	ldmdbcc	r1!, {r0, r2, r5, r6, r9, ip, sp, lr}
     390:	432f3032 	teqmi	pc, #50	; 0x32
     394:	30343153 	eorscc	r3, r4, r3, asr r1
     398:	73632f45 	cmnvc	r3, #276	; 0x114
     39c:	65303431 	ldrvs	r3, [r0, #-1073]!	; 0x431
     3a0:	7730322d 	ldrvc	r3, [r0, -sp, lsr #4]!
     3a4:	6c2f6e69 	stcvs	14, cr6, [pc], #-420	; 208 <_start-0x7df8>
     3a8:	69706269 	ldmdbvs	r0!, {r0, r3, r5, r6, r9, sp, lr}^
     3ac:	75700000 	ldrbvc	r0, [r0, #-0]!
     3b0:	632e6b74 	teqvs	lr, #116, 22	; 0x1d000
     3b4:	00000100 	andeq	r0, r0, r0, lsl #2
     3b8:	2e697072 	mcrcs	0, 3, r7, cr9, cr2, {3}
     3bc:	00020068 	andeq	r0, r2, r8, rrx
     3c0:	05000000 	streq	r0, [r0, #-0]
     3c4:	00826c02 	addeq	r6, r2, r2, lsl #24
     3c8:	2d4c1500 	cfstr64cs	mvdx1, [ip, #-0]
     3cc:	02040200 	andeq	r0, r4, #0, 4
     3d0:	0402002f 	streq	r0, [r2], #-47	; 0x2f
     3d4:	02004902 	andeq	r4, r0, #32768	; 0x8000
     3d8:	2e060104 	adfcss	f0, f6, f4
     3dc:	06026b06 	streq	r6, [r2], -r6, lsl #22
     3e0:	e2010100 	and	r0, r1, #0, 2
     3e4:	02000001 	andeq	r0, r0, #1
     3e8:	0000df00 	andeq	sp, r0, r0, lsl #30
     3ec:	fb010200 	blx	40bf6 <__bss_end__+0x36ca6>
     3f0:	01000d0e 	tsteq	r0, lr, lsl #26
     3f4:	00010101 	andeq	r0, r1, r1, lsl #2
     3f8:	00010000 	andeq	r0, r1, r0
     3fc:	696c0100 	stmdbvs	ip!, {r8}^
     400:	2f006362 	svccs	0x00006362
     404:	2f727375 	svccs	0x00727375
     408:	61636f6c 	cmnvs	r3, ip, ror #30
     40c:	65432f6c 	strbvs	r2, [r3, #-3948]	; 0xf6c
     410:	72616c6c 	rsbvc	r6, r1, #108, 24	; 0x6c00
     414:	6d72612f 	ldfvse	f6, [r2, #-188]!	; 0xffffff44
     418:	6e6f6e2d 	cdpvs	14, 6, cr6, cr15, cr13, {1}
     41c:	61652d65 	cmnvs	r5, r5, ror #26
     420:	342f6962 	strtcc	r6, [pc], #-2402	; 428 <_start-0x7bd8>
     424:	332e382e 	teqcc	lr, #3014656	; 0x2e0000
     428:	3173632d 	cmncc	r3, sp, lsr #6
     42c:	2f653037 	svccs	0x00653037
     430:	2f62696c 	svccs	0x0062696c
     434:	2f636367 	svccs	0x00636367
     438:	2d6d7261 	sfmcs	f7, 2, [sp, #-388]!	; 0xfffffe7c
     43c:	656e6f6e 	strbvs	r6, [lr, #-3950]!	; 0xf6e
     440:	6261652d 	rsbvs	r6, r1, #188743680	; 0xb400000
     444:	2e342f69 	cdpcs	15, 3, cr2, cr4, cr9, {3}
     448:	2f332e38 	svccs	0x00332e38
     44c:	6c636e69 	stclvs	14, cr6, [r3], #-420	; 0xfffffe5c
     450:	00656475 	rsbeq	r6, r5, r5, ror r4
     454:	6573552f 	ldrbvs	r5, [r3, #-1327]!	; 0x52f
     458:	622f7372 	eorvs	r7, pc, #-939524095	; 0xc8000001
     45c:	6e616972 	mcrvs	9, 3, r6, cr1, cr2, {3}
     460:	2f6e756a 	svccs	0x006e756a
     464:	6b736544 	blvs	1cd997c <__bss_end__+0x1ccfa2c>
     468:	2f706f74 	svccs	0x00706f74
     46c:	6f686373 	svcvs	0x00686373
     470:	572f6c6f 	strpl	r6, [pc, -pc, ror #24]!
     474:	65746e69 	ldrbvs	r6, [r4, #-3689]!	; 0xe69
     478:	32393172 	eorscc	r3, r9, #-2147483620	; 0x8000001c
     47c:	53432f30 	movtpl	r2, #16176	; 0x3f30
     480:	45303431 	ldrmi	r3, [r0, #-1073]!	; 0x431
     484:	3173632f 	cmncc	r3, pc, lsr #6
     488:	2d653034 	stclcs	0, cr3, [r5, #-208]!	; 0xffffff30
     48c:	69773032 	ldmdbvs	r7!, {r1, r4, r5, ip, sp}^
     490:	696c2f6e 	stmdbvs	ip!, {r1, r2, r3, r5, r6, r8, r9, sl, fp, sp}^
     494:	00697062 	rsbeq	r7, r9, r2, rrx
     498:	2d617600 	stclcs	6, cr7, [r1, #-0]
     49c:	6e697270 	mcrvs	2, 3, r7, cr9, cr0, {3}
     4a0:	632e6b74 	teqvs	lr, #116, 22	; 0x1d000
     4a4:	00000100 	andeq	r0, r0, r0, lsl #2
     4a8:	61647473 	smcvs	18243	; 0x4743
     4ac:	682e6772 	stmdavs	lr!, {r1, r4, r5, r6, r8, r9, sl, sp, lr}
     4b0:	00000200 	andeq	r0, r0, r0, lsl #4
     4b4:	2e697072 	mcrcs	0, 3, r7, cr9, cr2, {3}
     4b8:	00030068 	andeq	r0, r3, r8, rrx
     4bc:	75623c00 	strbvc	r3, [r2, #-3072]!	; 0xc00
     4c0:	2d746c69 	ldclcs	12, cr6, [r4, #-420]!	; 0xfffffe5c
     4c4:	003e6e69 	eorseq	r6, lr, r9, ror #28
     4c8:	00000000 	andeq	r0, r0, r0
     4cc:	a0020500 	andge	r0, r2, r0, lsl #10
     4d0:	03000082 	movweq	r0, #130	; 0x82
     4d4:	a5010126 	strge	r0, [r1, #-294]	; 0x126
     4d8:	002d3113 	eoreq	r3, sp, r3, lsl r1
     4dc:	2f020402 	svccs	0x00020402
     4e0:	02040200 	andeq	r0, r4, #0, 4
     4e4:	0402002d 	streq	r0, [r2], #-45	; 0x2d
     4e8:	02002f02 	andeq	r2, r0, #2, 30
     4ec:	4c2d0104 	stfmis	f0, [sp], #-16
     4f0:	4b14304c 	blmi	50c628 <__bss_end__+0x5026d8>
     4f4:	02004f2f 	andeq	r4, r0, #47, 30	; 0xbc
     4f8:	00670204 	rsbeq	r0, r7, r4, lsl #4
     4fc:	65010402 	strvs	r0, [r1, #-1026]	; 0x402
     500:	a0304d4c 	eorsge	r4, r0, ip, asr #26
     504:	0230312f 	eorseq	r3, r0, #-1073741813	; 0xc000000b
     508:	2d841626 	stccs	6, cr1, [r4, #152]	; 0x98
     50c:	0402002c 	streq	r0, [r2], #-44	; 0x2c
     510:	02003001 	andeq	r3, r0, #1
     514:	06330104 	ldrteq	r0, [r3], -r4, lsl #2
     518:	04020066 	streq	r0, [r2], #-102	; 0x66
     51c:	02002e01 	andeq	r2, r0, #1, 28
     520:	08060104 	stmdaeq	r6, {r2, r8}
     524:	032f6721 	teqeq	pc, #8650752	; 0x840000
     528:	13038273 	movwne	r8, #12915	; 0x3273
     52c:	0402002e 	streq	r0, [r2], #-46	; 0x2e
     530:	002e0601 	eoreq	r0, lr, r1, lsl #12
     534:	06010402 	streq	r0, [r1], -r2, lsl #8
     538:	034b6a9f 	movteq	r6, #47775	; 0xba9f
     53c:	21032e67 	tstcs	r3, r7, ror #28
     540:	0402002e 	streq	r0, [r2], #-46	; 0x2e
     544:	002e0601 	eoreq	r0, lr, r1, lsl #12
     548:	06010402 	streq	r0, [r1], -r2, lsl #8
     54c:	0402009f 	streq	r0, [r2], #-159	; 0x9f
     550:	23086a01 	movwcs	r6, #35329	; 0x8a01
     554:	7fa603f3 	svcvc	0x00a603f3
     558:	004b3c08 	subeq	r3, fp, r8, lsl #24
     55c:	06010402 	streq	r0, [r1], -r2, lsl #8
     560:	2108064a 	tstcs	r8, sl, asr #12
     564:	034b2f4b 	movteq	r2, #48971	; 0xbf4b
     568:	83f200d9 	mvnshi	r0, #217	; 0xd9
     56c:	0e03484c 	cdpeq	8, 0, cr4, cr3, cr12, {2}
     570:	2e75032e 	cdpcs	3, 7, cr0, cr5, cr14, {1}
     574:	4b842f2f 	blmi	fe10c238 <__bss_end__+0xfe1022e8>
     578:	314d2d2f 	cmpcc	sp, pc, lsr #26
     57c:	00832f30 	addeq	r2, r3, r0, lsr pc
     580:	2c010402 	cfstrscs	mvf0, [r1], {2}
     584:	040200a2 	streq	r0, [r2], #-162	; 0xa2
     588:	064a0601 	strbeq	r0, [sl], -r1, lsl #12
     58c:	36022208 	strcc	r2, [r2], -r8, lsl #4
     590:	d60e0316 			; <UNDEFINED> instruction: 0xd60e0316
     594:	f3302108 	vrhadd.u<illegal width 64>	d2, d0, d8
     598:	f330f331 	vcge.u<illegal width 64>	d15, d0, d17
     59c:	f3304b30 			; <UNDEFINED> instruction: 0xf3304b30
     5a0:	31230830 	teqcc	r3, r0, lsr r8
     5a4:	0402002f 	streq	r0, [r2], #-47	; 0x2f
     5a8:	02006501 	andeq	r6, r0, #4194304	; 0x400000
     5ac:	4a060204 	bmi	180dc4 <__bss_end__+0x176e74>
     5b0:	01040200 	mrseq	r0, R12_usr
     5b4:	66420306 	strbvs	r0, [r2], -r6, lsl #6
     5b8:	02040200 	andeq	r0, r4, #0, 4
     5bc:	03066606 	movweq	r6, #26118	; 0x6606
     5c0:	684a00c2 	stmdavs	sl, {r1, r6, r7}^
     5c4:	01001202 	tsteq	r0, r2, lsl #4
     5c8:	00004301 	andeq	r4, r0, r1, lsl #6
     5cc:	29000200 	stmdbcs	r0, {r9}
     5d0:	02000000 	andeq	r0, r0, #0
     5d4:	0d0efb01 	vstreq	d15, [lr, #-4]
     5d8:	01010100 	mrseq	r0, (UNDEF: 17)
     5dc:	00000001 	andeq	r0, r0, r1
     5e0:	01000001 	tsteq	r0, r1
     5e4:	34317363 	ldrtcc	r7, [r1], #-867	; 0x363
     5e8:	732d6530 	teqvc	sp, #48, 10	; 0xc000000
     5ec:	00006372 	andeq	r6, r0, r2, ror r3
     5f0:	68636163 	stmdavs	r3!, {r0, r1, r5, r6, r8, sp, lr}^
     5f4:	00632e65 	rsbeq	r2, r3, r5, ror #28
     5f8:	00000001 	andeq	r0, r0, r1
     5fc:	c4020500 	strgt	r0, [r2], #-1280	; 0x500
     600:	14000087 	strne	r0, [r0], #-135	; 0x87
     604:	4e2f3014 	miaTTmi	acc0, r4, r3
     608:	022f3114 	eoreq	r3, pc, #20, 2
     60c:	01010004 	tsteq	r1, r4
     610:	00000093 	muleq	r0, r3, r0
     614:	007d0002 	rsbseq	r0, sp, r2
     618:	01020000 	mrseq	r0, (UNDEF: 2)
     61c:	000d0efb 	strdeq	r0, [sp], -fp
     620:	01010101 	tsteq	r1, r1, lsl #2
     624:	01000000 	mrseq	r0, (UNDEF: 0)
     628:	63010000 	movwvs	r0, #4096	; 0x1000
     62c:	30343173 	eorscc	r3, r4, r3, ror r1
     630:	72732d65 	rsbsvc	r2, r3, #6464	; 0x1940
     634:	552f0063 	strpl	r0, [pc, #-99]!	; 5d9 <_start-0x7a27>
     638:	73726573 	cmnvc	r2, #482344960	; 0x1cc00000
     63c:	6972622f 	ldmdbvs	r2!, {r0, r1, r2, r3, r5, r9, sp, lr}^
     640:	756a6e61 	strbvc	r6, [sl, #-3681]!	; 0xe61
     644:	65442f6e 	strbvs	r2, [r4, #-3950]	; 0xf6e
     648:	6f746b73 	svcvs	0x00746b73
     64c:	63732f70 	cmnvs	r3, #112, 30	; 0x1c0
     650:	6c6f6f68 	stclvs	15, cr6, [pc], #-416	; 4b8 <_start-0x7b48>
     654:	6e69572f 	cdpvs	7, 6, cr5, cr9, cr15, {1}
     658:	31726574 	cmncc	r2, r4, ror r5
     65c:	2f303239 	svccs	0x00303239
     660:	34315343 	ldrtcc	r5, [r1], #-835	; 0x343
     664:	632f4530 	teqvs	pc, #48, 10	; 0xc000000
     668:	30343173 	eorscc	r3, r4, r3, ror r1
     66c:	30322d65 	eorscc	r2, r2, r5, ror #26
     670:	2f6e6977 	svccs	0x006e6977
     674:	7062696c 	rsbvc	r6, r2, ip, ror #18
     678:	63000069 	movwvs	r0, #105	; 0x69
     67c:	6e61656c 	cdpvs	5, 6, cr6, cr1, cr12, {3}
     680:	6265722d 	rsbvs	r7, r5, #-805306366	; 0xd0000002
     684:	2e746f6f 	cdpcs	15, 7, cr6, cr4, cr15, {3}
     688:	00010063 	andeq	r0, r1, r3, rrx
     68c:	69707200 	ldmdbvs	r0!, {r9, ip, sp, lr}^
     690:	0200682e 	andeq	r6, r0, #3014656	; 0x2e0000
     694:	00000000 	andeq	r0, r0, r0
     698:	87e40205 	strbhi	r0, [r4, r5, lsl #4]!
     69c:	2f150000 	svccs	0x00150000
     6a0:	06024b83 	streq	r4, [r2], -r3, lsl #23
     6a4:	21010100 	mrscs	r0, (UNDEF: 17)
     6a8:	02000001 	andeq	r0, r0, #1
     6ac:	0000f800 	andeq	pc, r0, r0, lsl #16
     6b0:	fb010200 	blx	40eba <__bss_end__+0x36f6a>
     6b4:	01000d0e 	tsteq	r0, lr, lsl #26
     6b8:	00010101 	andeq	r0, r1, r1, lsl #2
     6bc:	00010000 	andeq	r0, r1, r0
     6c0:	73630100 	cmnvc	r3, #0, 2
     6c4:	65303431 	ldrvs	r3, [r0, #-1073]!	; 0x431
     6c8:	6372732d 	cmnvs	r2, #-1275068416	; 0xb4000000
     6cc:	73752f00 	cmnvc	r5, #0, 30
     6d0:	6f6c2f72 	svcvs	0x006c2f72
     6d4:	2f6c6163 	svccs	0x006c6163
     6d8:	6c6c6543 	cfstr64vs	mvdx6, [ip], #-268	; 0xfffffef4
     6dc:	612f7261 	teqvs	pc, r1, ror #4
     6e0:	6e2d6d72 	mcrvs	13, 1, r6, cr13, cr2, {3}
     6e4:	2d656e6f 	stclcs	14, cr6, [r5, #-444]!	; 0xfffffe44
     6e8:	69626165 	stmdbvs	r2!, {r0, r2, r5, r6, r8, sp, lr}^
     6ec:	382e342f 	stmdacc	lr!, {r0, r1, r2, r3, r5, sl, ip, sp}
     6f0:	632d332e 	teqvs	sp, #-1207959552	; 0xb8000000
     6f4:	30373173 	eorscc	r3, r7, r3, ror r1
     6f8:	696c2f65 	stmdbvs	ip!, {r0, r2, r5, r6, r8, r9, sl, fp, sp}^
     6fc:	63672f62 	cmnvs	r7, #392	; 0x188
     700:	72612f63 	rsbvc	r2, r1, #396	; 0x18c
     704:	6f6e2d6d 	svcvs	0x006e2d6d
     708:	652d656e 	strvs	r6, [sp, #-1390]!	; 0x56e
     70c:	2f696261 	svccs	0x00696261
     710:	2e382e34 	mrccs	14, 1, r2, cr8, cr4, {1}
     714:	6e692f33 	mcrvs	15, 3, r2, cr9, cr3, {1}
     718:	64756c63 	ldrbtvs	r6, [r5], #-3171	; 0xc63
     71c:	552f0065 	strpl	r0, [pc, #-101]!	; 6bf <_start-0x7941>
     720:	73726573 	cmnvc	r2, #482344960	; 0x1cc00000
     724:	6972622f 	ldmdbvs	r2!, {r0, r1, r2, r3, r5, r9, sp, lr}^
     728:	756a6e61 	strbvc	r6, [sl, #-3681]!	; 0xe61
     72c:	65442f6e 	strbvs	r2, [r4, #-3950]	; 0xf6e
     730:	6f746b73 	svcvs	0x00746b73
     734:	63732f70 	cmnvs	r3, #112, 30	; 0x1c0
     738:	6c6f6f68 	stclvs	15, cr6, [pc], #-416	; 5a0 <_start-0x7a60>
     73c:	6e69572f 	cdpvs	7, 6, cr5, cr9, cr15, {1}
     740:	31726574 	cmncc	r2, r4, ror r5
     744:	2f303239 	svccs	0x00303239
     748:	34315343 	ldrtcc	r5, [r1], #-835	; 0x343
     74c:	632f4530 	teqvs	pc, #48, 10	; 0xc000000
     750:	30343173 	eorscc	r3, r4, r3, ror r1
     754:	30322d65 	eorscc	r2, r2, r5, ror #26
     758:	2f6e6977 	svccs	0x006e6977
     75c:	7062696c 	rsbvc	r6, r2, ip, ror #18
     760:	63000069 	movwvs	r0, #105	; 0x69
     764:	72617473 	rsbvc	r7, r1, #1929379840	; 0x73000000
     768:	00632e74 	rsbeq	r2, r3, r4, ror lr
     76c:	73000001 	movwvc	r0, #1
     770:	6e696474 	mcrvs	4, 3, r6, cr9, cr4, {3}
     774:	63672d74 	cmnvs	r7, #116, 26	; 0x1d00
     778:	00682e63 	rsbeq	r2, r8, r3, ror #28
     77c:	73000002 	movwvc	r0, #2
     780:	61752d77 	cmnvs	r5, r7, ror sp
     784:	682e7472 	stmdavs	lr!, {r1, r4, r5, r6, sl, ip, sp, lr}
     788:	00000100 	andeq	r0, r0, r0, lsl #2
     78c:	746e6f63 	strbtvc	r6, [lr], #-3939	; 0xf63
     790:	2d6c6f72 	stclcs	15, cr6, [ip, #-456]!	; 0xfffffe38
     794:	636f6c62 	cmnvs	pc, #25088	; 0x6200
     798:	00682e6b 	rsbeq	r2, r8, fp, ror #28
     79c:	72000001 	andvc	r0, r0, #1
     7a0:	682e6970 	stmdavs	lr!, {r4, r5, r6, r8, fp, sp, lr}
     7a4:	00000300 	andeq	r0, r0, r0, lsl #6
     7a8:	02050000 	andeq	r0, r5, #0
     7ac:	0000880c 	andeq	r8, r0, ip, lsl #16
     7b0:	68684b17 	stmdavs	r8!, {r0, r1, r2, r4, r8, r9, fp, lr}^
     7b4:	2d2f3132 	stfcss	f3, [pc, #-200]!	; 6f4 <_start-0x790c>
     7b8:	0402002f 	streq	r0, [r2], #-47	; 0x2f
     7bc:	2f4f4901 	svccs	0x004f4901
     7c0:	8367674b 	cmnhi	r7, #19660800	; 0x12c0000
     7c4:	022f4e67 	eoreq	r4, pc, #1648	; 0x670
     7c8:	01010010 	tsteq	r1, r0, lsl r0
     7cc:	00000099 	muleq	r0, r9, r0
     7d0:	00770002 	rsbseq	r0, r7, r2
     7d4:	01020000 	mrseq	r0, (UNDEF: 2)
     7d8:	000d0efb 	strdeq	r0, [sp], -fp
     7dc:	01010101 	tsteq	r1, r1, lsl #2
     7e0:	01000000 	mrseq	r0, (UNDEF: 0)
     7e4:	63010000 	movwvs	r0, #4096	; 0x1000
     7e8:	30343173 	eorscc	r3, r4, r3, ror r1
     7ec:	72732d65 	rsbsvc	r2, r3, #6464	; 0x1940
     7f0:	552f0063 	strpl	r0, [pc, #-99]!	; 795 <_start-0x786b>
     7f4:	73726573 	cmnvc	r2, #482344960	; 0x1cc00000
     7f8:	6972622f 	ldmdbvs	r2!, {r0, r1, r2, r3, r5, r9, sp, lr}^
     7fc:	756a6e61 	strbvc	r6, [sl, #-3681]!	; 0xe61
     800:	65442f6e 	strbvs	r2, [r4, #-3950]	; 0xf6e
     804:	6f746b73 	svcvs	0x00746b73
     808:	63732f70 	cmnvs	r3, #112, 30	; 0x1c0
     80c:	6c6f6f68 	stclvs	15, cr6, [pc], #-416	; 674 <_start-0x798c>
     810:	6e69572f 	cdpvs	7, 6, cr5, cr9, cr15, {1}
     814:	31726574 	cmncc	r2, r4, ror r5
     818:	2f303239 	svccs	0x00303239
     81c:	34315343 	ldrtcc	r5, [r1], #-835	; 0x343
     820:	632f4530 	teqvs	pc, #48, 10	; 0xc000000
     824:	30343173 	eorscc	r3, r4, r3, ror r1
     828:	30322d65 	eorscc	r2, r2, r5, ror #26
     82c:	2f6e6977 	svccs	0x006e6977
     830:	7062696c 	rsbvc	r6, r2, ip, ror #18
     834:	72000069 	andvc	r0, r0, #105	; 0x69
     838:	6f6f6265 	svcvs	0x006f6265
     83c:	00632e74 	rsbeq	r2, r3, r4, ror lr
     840:	72000001 	andvc	r0, r0, #1
     844:	682e6970 	stmdavs	lr!, {r4, r5, r6, r8, fp, sp, lr}
     848:	00000200 	andeq	r0, r0, r0, lsl #4
     84c:	02050000 	andeq	r0, r5, #0
     850:	000088bc 			; <UNDEFINED> instruction: 0x000088bc
     854:	14010d03 	strne	r0, [r1], #-3331	; 0xd03
     858:	15852f31 	strne	r2, [r5, #3889]	; 0xf31
     85c:	2f4d4b2f 	svccs	0x004d4b2f
     860:	67523567 	ldrbvs	r3, [r2, -r7, ror #10]
     864:	01001002 	tsteq	r0, r2
     868:	0000a301 	andeq	sl, r0, r1, lsl #6
     86c:	76000200 	strvc	r0, [r0], -r0, lsl #4
     870:	02000000 	andeq	r0, r0, #0
     874:	0d0efb01 	vstreq	d15, [lr, #-4]
     878:	01010100 	mrseq	r0, (UNDEF: 17)
     87c:	00000001 	andeq	r0, r0, r1
     880:	01000001 	tsteq	r0, r1
     884:	34317363 	ldrtcc	r7, [r1], #-867	; 0x363
     888:	732d6530 	teqvc	sp, #48, 10	; 0xc000000
     88c:	2f006372 	svccs	0x00006372
     890:	72657355 	rsbvc	r7, r5, #1409286145	; 0x54000001
     894:	72622f73 	rsbvc	r2, r2, #460	; 0x1cc
     898:	6a6e6169 	bvs	1b98e44 <__bss_end__+0x1b8eef4>
     89c:	442f6e75 	strtmi	r6, [pc], #-3701	; 8a4 <_start-0x775c>
     8a0:	746b7365 	strbtvc	r7, [fp], #-869	; 0x365
     8a4:	732f706f 	teqvc	pc, #111	; 0x6f
     8a8:	6f6f6863 	svcvs	0x006f6863
     8ac:	69572f6c 	ldmdbvs	r7, {r2, r3, r5, r6, r8, r9, sl, fp, sp}^
     8b0:	7265746e 	rsbvc	r7, r5, #1845493760	; 0x6e000000
     8b4:	30323931 	eorscc	r3, r2, r1, lsr r9
     8b8:	3153432f 	cmpcc	r3, pc, lsr #6
     8bc:	2f453034 	svccs	0x00453034
     8c0:	34317363 	ldrtcc	r7, [r1], #-867	; 0x363
     8c4:	322d6530 	eorcc	r6, sp, #48, 10	; 0xc000000
     8c8:	6e697730 	mcrvs	7, 3, r7, cr9, cr0, {1}
     8cc:	62696c2f 	rsbvs	r6, r9, #12032	; 0x2f00
     8d0:	00006970 	andeq	r6, r0, r0, ror r9
     8d4:	656d6974 	strbvs	r6, [sp, #-2420]!	; 0x974
     8d8:	00632e72 	rsbeq	r2, r3, r2, ror lr
     8dc:	72000001 	andvc	r0, r0, #1
     8e0:	682e6970 	stmdavs	lr!, {r4, r5, r6, r8, fp, sp, lr}
     8e4:	00000200 	andeq	r0, r0, r0, lsl #4
     8e8:	02050000 	andeq	r0, r5, #0
     8ec:	00008930 	andeq	r8, r0, r0, lsr r9
     8f0:	2d2f1316 	stccs	3, cr1, [pc, #-88]!	; 8a0 <_start-0x7760>
     8f4:	01040200 	mrseq	r0, R12_usr
     8f8:	68062e06 	stmdavs	r6, {r1, r2, r9, sl, fp, sp}
     8fc:	4d4b2f31 	stclmi	15, cr2, [fp, #-196]	; 0xffffff3c
     900:	4b303132 	blmi	c0cdd0 <__bss_end__+0xc02e80>
     904:	2f6a2f4c 	svccs	0x006a2f4c
     908:	022f842f 	eoreq	r8, pc, #788529152	; 0x2f000000
     90c:	01010008 	tsteq	r1, r8
     910:	0000017f 	andeq	r0, r0, pc, ror r1
     914:	00ca0002 	sbceq	r0, sl, r2
     918:	01020000 	mrseq	r0, (UNDEF: 2)
     91c:	000d0efb 	strdeq	r0, [sp], -fp
     920:	01010101 	tsteq	r1, r1, lsl #2
     924:	01000000 	mrseq	r0, (UNDEF: 0)
     928:	6d010000 	stcvs	0, cr0, [r1, #-0]
     92c:	72732d79 	rsbsvc	r2, r3, #7744	; 0x1e40
     930:	552f0063 	strpl	r0, [pc, #-99]!	; 8d5 <_start-0x772b>
     934:	73726573 	cmnvc	r2, #482344960	; 0x1cc00000
     938:	6972622f 	ldmdbvs	r2!, {r0, r1, r2, r3, r5, r9, sp, lr}^
     93c:	756a6e61 	strbvc	r6, [sl, #-3681]!	; 0xe61
     940:	65442f6e 	strbvs	r2, [r4, #-3950]	; 0xf6e
     944:	6f746b73 	svcvs	0x00746b73
     948:	63732f70 	cmnvs	r3, #112, 30	; 0x1c0
     94c:	6c6f6f68 	stclvs	15, cr6, [pc], #-416	; 7b4 <_start-0x784c>
     950:	6e69572f 	cdpvs	7, 6, cr5, cr9, cr15, {1}
     954:	31726574 	cmncc	r2, r4, ror r5
     958:	2f303239 	svccs	0x00303239
     95c:	34315343 	ldrtcc	r5, [r1], #-835	; 0x343
     960:	632f4530 	teqvs	pc, #48, 10	; 0xc000000
     964:	30343173 	eorscc	r3, r4, r3, ror r1
     968:	30322d65 	eorscc	r2, r2, r5, ror #26
     96c:	2f6e6977 	svccs	0x006e6977
     970:	7062696c 	rsbvc	r6, r2, ip, ror #18
     974:	73632f69 	cmnvc	r3, #420	; 0x1a4
     978:	65303431 	ldrvs	r3, [r0, #-1073]!	; 0x431
     97c:	6372732d 	cmnvs	r2, #-1275068416	; 0xb4000000
     980:	73552f00 	cmpvc	r5, #0, 30
     984:	2f737265 	svccs	0x00737265
     988:	61697262 	cmnvs	r9, r2, ror #4
     98c:	6e756a6e 	vsubvs.f32	s13, s10, s29
     990:	7365442f 	cmnvc	r5, #788529152	; 0x2f000000
     994:	706f746b 	rsbvc	r7, pc, fp, ror #8
     998:	6863732f 	stmdavs	r3!, {r0, r1, r2, r3, r5, r8, r9, ip, sp, lr}^
     99c:	2f6c6f6f 	svccs	0x006c6f6f
     9a0:	746e6957 	strbtvc	r6, [lr], #-2391	; 0x957
     9a4:	39317265 	ldmdbcc	r1!, {r0, r2, r5, r6, r9, ip, sp, lr}
     9a8:	432f3032 	teqmi	pc, #50	; 0x32
     9ac:	30343153 	eorscc	r3, r4, r3, asr r1
     9b0:	73632f45 	cmnvc	r3, #276	; 0x114
     9b4:	65303431 	ldrvs	r3, [r0, #-1073]!	; 0x431
     9b8:	7730322d 	ldrvc	r3, [r0, -sp, lsr #4]!
     9bc:	6c2f6e69 	stcvs	14, cr6, [pc], #-420	; 820 <_start-0x77e0>
     9c0:	69706269 	ldmdbvs	r0!, {r0, r3, r5, r6, r9, sp, lr}^
     9c4:	70670000 	rsbvc	r0, r7, r0
     9c8:	632e6f69 	teqvs	lr, #420	; 0x1a4
     9cc:	00000100 	andeq	r0, r0, r0, lsl #2
     9d0:	6f697067 	svcvs	0x00697067
     9d4:	0200682e 	andeq	r6, r0, #3014656	; 0x2e0000
     9d8:	70720000 	rsbsvc	r0, r2, r0
     9dc:	00682e69 	rsbeq	r2, r8, r9, ror #28
     9e0:	00000003 	andeq	r0, r0, r3
     9e4:	b8020500 	stmdalt	r2, {r8, sl}
     9e8:	03000089 	movweq	r0, #137	; 0x89
     9ec:	504e013e 	subpl	r0, lr, lr, lsr r1
     9f0:	67210869 	strvs	r0, [r1, -r9, ror #16]!
     9f4:	67676767 	strbvs	r6, [r7, -r7, ror #14]!
     9f8:	084b3267 	stmdaeq	fp, {r0, r1, r2, r5, r6, r9, ip, sp}^
     9fc:	5131dc22 	teqpl	r1, r2, lsr #24
     a00:	30504e13 	subscc	r4, r0, r3, lsl lr
     a04:	135031be 	cmpne	r0, #-2147483601	; 0x8000002f
     a08:	c0304f4d 	eorsgt	r4, r0, sp, asr #30
     a0c:	0869504c 	stmdaeq	r9!, {r2, r3, r6, ip, lr}^
     a10:	67676721 	strbvs	r6, [r7, -r1, lsr #14]!
     a14:	32676767 	rsbcc	r6, r7, #27000832	; 0x19c0000
     a18:	a421084b 	strtge	r0, [r1], #-2123	; 0x84b
     a1c:	842f504c 	strthi	r5, [pc], #-76	; a24 <_start-0x75dc>
     a20:	82750369 	rsbshi	r0, r5, #-1543503871	; 0xa4000001
     a24:	4d2e0c03 	stcmi	12, cr0, [lr, #-12]!
     a28:	4c4b4e30 	mcrrmi	14, 3, r4, fp, cr0
     a2c:	696b6a4d 	stmdbvs	fp!, {r0, r2, r3, r6, r9, fp, sp, lr}^
     a30:	67672108 	strbvs	r2, [r7, -r8, lsl #2]!
     a34:	67676767 	strbvs	r6, [r7, -r7, ror #14]!
     a38:	22084b32 	andcs	r4, r8, #51200	; 0xc800
     a3c:	135130c0 	cmpne	r1, #192	; 0xc0
     a40:	0330504e 	teqeq	r0, #78	; 0x4e
     a44:	9f31ba18 	svcls	0x0031ba18
     a48:	4d522f4c 	ldclmi	15, cr2, [r2, #-304]	; 0xfffffed0
     a4c:	674b2f4e 	strbvs	r2, [fp, -lr, asr #30]
     a50:	6767684b 	strbvs	r6, [r7, -fp, asr #16]!
     a54:	2f672f4c 	svccs	0x00672f4c
     a58:	4e4c6e4b 	cdpmi	14, 4, cr6, cr12, cr11, {2}
     a5c:	4b674b2f 	blmi	19d3720 <__bss_end__+0x19c97d0>
     a60:	4c676768 	stclmi	7, cr6, [r7], #-416	; 0xfffffe60
     a64:	4b2f672f 	blmi	bda728 <__bss_end__+0xbd07d8>
     a68:	2f4e4b6d 	svccs	0x004e4b6d
     a6c:	0200674b 	andeq	r6, r0, #19660800	; 0x12c0000
     a70:	66060104 	strvs	r0, [r6], -r4, lsl #2
     a74:	2f9f6806 	svccs	0x009f6806
     a78:	01040200 	mrseq	r0, R12_usr
     a7c:	68064a06 	stmdavs	r6, {r1, r2, r9, fp, lr}
     a80:	4a73032f 	bmi	1cc1744 <__bss_end__+0x1cb77f4>
     a84:	4d2e0e03 	stcmi	14, cr0, [lr, #-12]!
     a88:	4b2f4e4c 	blmi	bd43c0 <__bss_end__+0xbca470>
     a8c:	0602bcbc 			; <UNDEFINED> instruction: 0x0602bcbc
     a90:	49010100 	stmdbmi	r1, {r8}
     a94:	02000003 	andeq	r0, r0, #3
     a98:	0001bd00 	andeq	fp, r1, r0, lsl #26
     a9c:	fb010200 	blx	412a6 <__bss_end__+0x37356>
     aa0:	01000d0e 	tsteq	r0, lr, lsl #26
     aa4:	00010101 	andeq	r0, r1, r1, lsl #2
     aa8:	00010000 	andeq	r0, r1, r0
     aac:	796d0100 	stmdbvc	sp!, {r8}^
     ab0:	6372732d 	cmnvs	r2, #-1275068416	; 0xb4000000
     ab4:	73552f00 	cmpvc	r5, #0, 30
     ab8:	2f737265 	svccs	0x00737265
     abc:	61697262 	cmnvs	r9, r2, ror #4
     ac0:	6e756a6e 	vsubvs.f32	s13, s10, s29
     ac4:	7365442f 	cmnvc	r5, #788529152	; 0x2f000000
     ac8:	706f746b 	rsbvc	r7, pc, fp, ror #8
     acc:	6863732f 	stmdavs	r3!, {r0, r1, r2, r3, r5, r8, r9, ip, sp, lr}^
     ad0:	2f6c6f6f 	svccs	0x006c6f6f
     ad4:	746e6957 	strbtvc	r6, [lr], #-2391	; 0x957
     ad8:	39317265 	ldmdbcc	r1!, {r0, r2, r5, r6, r9, ip, sp, lr}
     adc:	432f3032 	teqmi	pc, #50	; 0x32
     ae0:	30343153 	eorscc	r3, r4, r3, asr r1
     ae4:	73632f45 	cmnvc	r3, #276	; 0x114
     ae8:	65303431 	ldrvs	r3, [r0, #-1073]!	; 0x431
     aec:	7730322d 	ldrvc	r3, [r0, -sp, lsr #4]!
     af0:	6c2f6e69 	stcvs	14, cr6, [pc], #-420	; 954 <_start-0x76ac>
     af4:	69706269 	ldmdbvs	r0!, {r0, r3, r5, r6, r9, sp, lr}^
     af8:	3173632f 	cmncc	r3, pc, lsr #6
     afc:	2d653034 	stclcs	0, cr3, [r5, #-208]!	; 0xffffff30
     b00:	00637273 	rsbeq	r7, r3, r3, ror r2
     b04:	7273752f 	rsbsvc	r7, r3, #197132288	; 0xbc00000
     b08:	636f6c2f 	cmnvs	pc, #12032	; 0x2f00
     b0c:	432f6c61 	teqmi	pc, #24832	; 0x6100
     b10:	616c6c65 	cmnvs	ip, r5, ror #24
     b14:	72612f72 	rsbvc	r2, r1, #456	; 0x1c8
     b18:	6f6e2d6d 	svcvs	0x006e2d6d
     b1c:	652d656e 	strvs	r6, [sp, #-1390]!	; 0x56e
     b20:	2f696261 	svccs	0x00696261
     b24:	2e382e34 	mrccs	14, 1, r2, cr8, cr4, {1}
     b28:	73632d33 	cmnvc	r3, #3264	; 0xcc0
     b2c:	65303731 	ldrvs	r3, [r0, #-1841]!	; 0x731
     b30:	62696c2f 	rsbvs	r6, r9, #12032	; 0x2f00
     b34:	6363672f 	cmnvs	r3, #12320768	; 0xbc0000
     b38:	6d72612f 	ldfvse	f6, [r2, #-188]!	; 0xffffff44
     b3c:	6e6f6e2d 	cdpvs	14, 6, cr6, cr15, cr13, {1}
     b40:	61652d65 	cmnvs	r5, r5, ror #26
     b44:	342f6962 	strtcc	r6, [pc], #-2402	; b4c <_start-0x74b4>
     b48:	332e382e 	teqcc	lr, #3014656	; 0x2e0000
     b4c:	636e692f 	cmnvs	lr, #770048	; 0xbc000
     b50:	6564756c 	strbvs	r7, [r4, #-1388]!	; 0x56c
     b54:	73552f00 	cmpvc	r5, #0, 30
     b58:	2f737265 	svccs	0x00737265
     b5c:	61697262 	cmnvs	r9, r2, ror #4
     b60:	6e756a6e 	vsubvs.f32	s13, s10, s29
     b64:	7365442f 	cmnvc	r5, #788529152	; 0x2f000000
     b68:	706f746b 	rsbvc	r7, pc, fp, ror #8
     b6c:	6863732f 	stmdavs	r3!, {r0, r1, r2, r3, r5, r8, r9, ip, sp, lr}^
     b70:	2f6c6f6f 	svccs	0x006c6f6f
     b74:	746e6957 	strbtvc	r6, [lr], #-2391	; 0x957
     b78:	39317265 	ldmdbcc	r1!, {r0, r2, r5, r6, r9, ip, sp, lr}
     b7c:	432f3032 	teqmi	pc, #50	; 0x32
     b80:	30343153 	eorscc	r3, r4, r3, asr r1
     b84:	73632f45 	cmnvc	r3, #276	; 0x114
     b88:	65303431 	ldrvs	r3, [r0, #-1073]!	; 0x431
     b8c:	7730322d 	ldrvc	r3, [r0, -sp, lsr #4]!
     b90:	6c2f6e69 	stcvs	14, cr6, [pc], #-420	; 9f4 <_start-0x760c>
     b94:	69706269 	ldmdbvs	r0!, {r0, r3, r5, r6, r9, sp, lr}^
     b98:	73552f00 	cmpvc	r5, #0, 30
     b9c:	2f737265 	svccs	0x00737265
     ba0:	61697262 	cmnvs	r9, r2, ror #4
     ba4:	6e756a6e 	vsubvs.f32	s13, s10, s29
     ba8:	7365442f 	cmnvc	r5, #788529152	; 0x2f000000
     bac:	706f746b 	rsbvc	r7, pc, fp, ror #8
     bb0:	6863732f 	stmdavs	r3!, {r0, r1, r2, r3, r5, r8, r9, ip, sp, lr}^
     bb4:	2f6c6f6f 	svccs	0x006c6f6f
     bb8:	746e6957 	strbtvc	r6, [lr], #-2391	; 0x957
     bbc:	39317265 	ldmdbcc	r1!, {r0, r2, r5, r6, r9, ip, sp, lr}
     bc0:	432f3032 	teqmi	pc, #50	; 0x32
     bc4:	30343153 	eorscc	r3, r4, r3, asr r1
     bc8:	73632f45 	cmnvc	r3, #276	; 0x114
     bcc:	65303431 	ldrvs	r3, [r0, #-1073]!	; 0x431
     bd0:	7730322d 	ldrvc	r3, [r0, -sp, lsr #4]!
     bd4:	6c2f6e69 	stcvs	14, cr6, [pc], #-420	; a38 <_start-0x75c8>
     bd8:	69706269 	ldmdbvs	r0!, {r0, r3, r5, r6, r9, sp, lr}^
     bdc:	62696c2f 	rsbvs	r6, r9, #12032	; 0x2f00
     be0:	73000063 	movwvc	r0, #99	; 0x63
     be4:	61752d77 	cmnvs	r5, r7, ror sp
     be8:	632e7472 	teqvs	lr, #1912602624	; 0x72000000
     bec:	00000100 	andeq	r0, r0, r0, lsl #2
     bf0:	6c637963 	stclvs	9, cr7, [r3], #-396	; 0xfffffe74
     bf4:	74752d65 	ldrbtvc	r2, [r5], #-3429	; 0xd65
     bf8:	682e6c69 	stmdavs	lr!, {r0, r3, r5, r6, sl, fp, sp, lr}
     bfc:	00000200 	andeq	r0, r0, r0, lsl #4
     c00:	69647473 	stmdbvs	r4!, {r0, r1, r4, r5, r6, sl, ip, sp, lr}^
     c04:	672d746e 	strvs	r7, [sp, -lr, ror #8]!
     c08:	682e6363 	stmdavs	lr!, {r0, r1, r5, r6, r8, r9, sp, lr}
     c0c:	00000300 	andeq	r0, r0, r0, lsl #6
     c10:	752d7773 	strvc	r7, [sp, #-1907]!	; 0x773
     c14:	2e747261 	cdpcs	2, 7, cr7, cr4, cr1, {3}
     c18:	00020068 	andeq	r0, r2, r8, rrx
     c1c:	64747300 	ldrbtvs	r7, [r4], #-768	; 0x300
     c20:	2e677261 	cdpcs	2, 6, cr7, cr7, cr1, {3}
     c24:	00030068 	andeq	r0, r3, r8, rrx
     c28:	69706700 	ldmdbvs	r0!, {r8, r9, sl, sp, lr}^
     c2c:	00682e6f 	rsbeq	r2, r8, pc, ror #28
     c30:	72000002 	andvc	r0, r0, #2
     c34:	682e6970 	stmdavs	lr!, {r4, r5, r6, r8, fp, sp, lr}
     c38:	00000400 	andeq	r0, r0, r0, lsl #8
     c3c:	702d6176 	eorvc	r6, sp, r6, ror r1
     c40:	746e6972 	strbtvc	r6, [lr], #-2418	; 0x972
     c44:	00682e6b 	rsbeq	r2, r8, fp, ror #28
     c48:	3c000005 	stccc	0, cr0, [r0], {5}
     c4c:	6c697562 	cfstr64vs	mvdx7, [r9], #-392	; 0xfffffe78
     c50:	6e692d74 	mcrvs	13, 3, r2, cr9, cr4, {3}
     c54:	0000003e 	andeq	r0, r0, lr, lsr r0
     c58:	05000000 	streq	r0, [r0, #-0]
     c5c:	008f5802 	addeq	r5, pc, r2, lsl #16
     c60:	2f4c1a00 	svccs	0x004c1a00
     c64:	03020430 	movweq	r0, #9264	; 0x2430
     c68:	73032e0b 	movwvc	r2, #15883	; 0x3e0b
     c6c:	88010466 	stmdahi	r1, {r1, r2, r5, r6, sl}
     c70:	03350204 	teqeq	r5, #4, 4	; 0x40000000
     c74:	01046673 	tsteq	r4, r3, ror r6
     c78:	3302048a 	movwcc	r0, #9354	; 0x248a
     c7c:	04667303 	strbteq	r7, [r6], #-771	; 0x303
     c80:	820a0301 	andhi	r0, sl, #67108864	; 0x4000000
     c84:	03310204 	teqeq	r1, #4, 4	; 0x40000000
     c88:	01046673 	tsteq	r4, r3, ror r6
     c8c:	04820c03 	streq	r0, [r2], #3075	; 0xc03
     c90:	73032f02 	movwvc	r2, #16130	; 0x3f02
     c94:	03010466 	movweq	r0, #5222	; 0x1466
     c98:	0204820e 	andeq	r8, r4, #-536870912	; 0xe0000000
     c9c:	6673032d 	ldrbtvs	r0, [r3], -sp, lsr #6
     ca0:	10030104 	andne	r0, r3, r4, lsl #2
     ca4:	2b020482 	blcs	81eb4 <__bss_end__+0x77f64>
     ca8:	04667303 	strbteq	r7, [r6], #-771	; 0x303
     cac:	82120301 	andshi	r0, r2, #67108864	; 0x4000000
     cb0:	03290204 	teqeq	r9, #4, 4	; 0x40000000
     cb4:	01046673 	tsteq	r4, r3, ror r6
     cb8:	04821403 	streq	r1, [r2], #1027	; 0x403
     cbc:	2e790302 	cdpcs	3, 7, cr0, cr9, cr2, {0}
     cc0:	04667303 	strbteq	r7, [r6], #-771	; 0x303
     cc4:	82160301 	andshi	r0, r6, #67108864	; 0x4000000
     cc8:	77030204 	strvc	r0, [r3, -r4, lsl #4]
     ccc:	6673032e 	ldrbtvs	r0, [r3], -lr, lsr #6
     cd0:	18030104 	stmdane	r3, {r2, r8}
     cd4:	2e100382 	cdpcs	3, 1, cr0, cr0, cr2, {4}
     cd8:	70034d4b 	andvc	r4, r3, fp, asr #26
     cdc:	83844c2e 	orrhi	r4, r4, #11776	; 0x2e00
     ce0:	2e0d0348 	cdpcs	3, 0, cr0, cr13, cr8, {2}
     ce4:	0433314e 	ldrteq	r3, [r3], #-334	; 0x14e
     ce8:	2e480302 	cdpcs	3, 4, cr0, cr8, cr2, {0}
     cec:	3a030104 	bcc	c1104 <__bss_end__+0xb71b4>
     cf0:	02042f82 	andeq	r2, r4, #520	; 0x208
     cf4:	04664503 	strbteq	r4, [r6], #-1283	; 0x503
     cf8:	823d0301 	eorshi	r0, sp, #67108864	; 0x4000000
     cfc:	0302042f 	movweq	r0, #9263	; 0x242f
     d00:	01048242 	tsteq	r4, r2, asr #4
     d04:	8200c003 	andhi	ip, r0, #3
     d08:	0302042f 	movweq	r0, #9263	; 0x242f
     d0c:	04827fbf 	streq	r7, [r2], #4031	; 0xfbf
     d10:	00c30301 	sbceq	r0, r3, r1, lsl #6
     d14:	02042f82 	andeq	r2, r4, #520	; 0x208
     d18:	827fbc03 	rsbshi	fp, pc, #768	; 0x300
     d1c:	c6030104 	strgt	r0, [r3], -r4, lsl #2
     d20:	042f8200 	strteq	r8, [pc], #-512	; d28 <_start-0x72d8>
     d24:	7fb90302 	svcvc	0x00b90302
     d28:	03010482 	movweq	r0, #5250	; 0x1482
     d2c:	2f8200c9 	svccs	0x008200c9
     d30:	b6030204 	strlt	r0, [r3], -r4, lsl #4
     d34:	0104827f 	tsteq	r4, pc, ror r2
     d38:	8200cc03 	andhi	ip, r0, #768	; 0x300
     d3c:	0302042f 	movweq	r0, #9263	; 0x242f
     d40:	04827fb3 	streq	r7, [r2], #4019	; 0xfb3
     d44:	00d00301 	sbcseq	r0, r0, r1, lsl #6
     d48:	824c0382 	subhi	r0, ip, #134217730	; 0x8000002
     d4c:	4883844c 	stmmi	r3, {r2, r3, r6, sl, pc}
     d50:	4e2e3603 	cfmadda32mi	mvax0, mvax3, mvfx14, mvfx3
     d54:	034a5403 	movteq	r5, #41987	; 0xa403
     d58:	34324a29 	ldrtcc	r4, [r2], #-2601	; 0xa29
     d5c:	040200bb 	streq	r0, [r2], #-187	; 0xbb
     d60:	064a0601 	strbeq	r0, [sl], -r1, lsl #12
     d64:	4b4e2108 	blmi	138918c <__bss_end__+0x137f23c>
     d68:	02002cbb 	andeq	r2, r0, #47872	; 0xbb00
     d6c:	2e060104 	adfcss	f0, f6, f4
     d70:	dc4c6d06 	mcrrle	13, 0, r6, ip, cr6
     d74:	040200a0 	streq	r0, [r2], #-160	; 0xa0
     d78:	064a0601 	strbeq	r0, [sl], -r1, lsl #12
     d7c:	004d2108 	subeq	r2, sp, r8, lsl #2
     d80:	4b020402 	blmi	81d90 <__bss_end__+0x77e40>
     d84:	02040200 	andeq	r0, r4, #0, 4
     d88:	04020081 	streq	r0, [r2], #-129	; 0x81
     d8c:	062e0601 	strteq	r0, [lr], -r1, lsl #12
     d90:	d8dd4c4d 	ldmle	sp, {r0, r2, r3, r6, sl, fp, lr}^
     d94:	6a4b4b4b 	bvs	12d3ac8 <__bss_end__+0x12c9b78>
     d98:	0402002f 	streq	r0, [r2], #-47	; 0x2f
     d9c:	82820601 	addhi	r0, r2, #1048576	; 0x100000
     da0:	04040200 	streq	r0, [r4], #-512	; 0x200
     da4:	0402009e 	streq	r0, [r2], #-158	; 0x9e
     da8:	08064a01 	stmdaeq	r6, {r0, r9, fp, lr}
     dac:	2ff58823 	svccs	0x00f58823
     db0:	40084b4b 	andmi	r4, r8, fp, asr #22
     db4:	04020067 	streq	r0, [r2], #-103	; 0x67
     db8:	02002f02 	andeq	r2, r0, #2, 30
     dbc:	00490204 	subeq	r0, r9, r4, lsl #4
     dc0:	06010402 	streq	r0, [r1], -r2, lsl #8
     dc4:	3468062e 	strbtcc	r0, [r8], #-1582	; 0x62e
     dc8:	00a04b86 	adceq	r4, r0, r6, lsl #23
     dcc:	06010402 	streq	r0, [r1], -r2, lsl #8
     dd0:	21080666 	tstcs	r8, r6, ror #12
     dd4:	4b3e0868 	blmi	f82f7c <__bss_end__+0xf7902c>
     dd8:	02d84b67 	sbcseq	r4, r8, #105472	; 0x19c00
     ddc:	0101000a 	tsteq	r1, sl
     de0:	00000101 	andeq	r0, r0, r1, lsl #2
     de4:	00ca0002 	sbceq	r0, sl, r2
     de8:	01020000 	mrseq	r0, (UNDEF: 2)
     dec:	000d0efb 	strdeq	r0, [sp], -fp
     df0:	01010101 	tsteq	r1, r1, lsl #2
     df4:	01000000 	mrseq	r0, (UNDEF: 0)
     df8:	6d010000 	stcvs	0, cr0, [r1, #-0]
     dfc:	72732d79 	rsbsvc	r2, r3, #7744	; 0x1e40
     e00:	552f0063 	strpl	r0, [pc, #-99]!	; da5 <_start-0x725b>
     e04:	73726573 	cmnvc	r2, #482344960	; 0x1cc00000
     e08:	6972622f 	ldmdbvs	r2!, {r0, r1, r2, r3, r5, r9, sp, lr}^
     e0c:	756a6e61 	strbvc	r6, [sl, #-3681]!	; 0xe61
     e10:	65442f6e 	strbvs	r2, [r4, #-3950]	; 0xf6e
     e14:	6f746b73 	svcvs	0x00746b73
     e18:	63732f70 	cmnvs	r3, #112, 30	; 0x1c0
     e1c:	6c6f6f68 	stclvs	15, cr6, [pc], #-416	; c84 <_start-0x737c>
     e20:	6e69572f 	cdpvs	7, 6, cr5, cr9, cr15, {1}
     e24:	31726574 	cmncc	r2, r4, ror r5
     e28:	2f303239 	svccs	0x00303239
     e2c:	34315343 	ldrtcc	r5, [r1], #-835	; 0x343
     e30:	632f4530 	teqvs	pc, #48, 10	; 0xc000000
     e34:	30343173 	eorscc	r3, r4, r3, ror r1
     e38:	30322d65 	eorscc	r2, r2, r5, ror #26
     e3c:	2f6e6977 	svccs	0x006e6977
     e40:	7062696c 	rsbvc	r6, r2, ip, ror #18
     e44:	73632f69 	cmnvc	r3, #420	; 0x1a4
     e48:	65303431 	ldrvs	r3, [r0, #-1073]!	; 0x431
     e4c:	6372732d 	cmnvs	r2, #-1275068416	; 0xb4000000
     e50:	73552f00 	cmpvc	r5, #0, 30
     e54:	2f737265 	svccs	0x00737265
     e58:	61697262 	cmnvs	r9, r2, ror #4
     e5c:	6e756a6e 	vsubvs.f32	s13, s10, s29
     e60:	7365442f 	cmnvc	r5, #788529152	; 0x2f000000
     e64:	706f746b 	rsbvc	r7, pc, fp, ror #8
     e68:	6863732f 	stmdavs	r3!, {r0, r1, r2, r3, r5, r8, r9, ip, sp, lr}^
     e6c:	2f6c6f6f 	svccs	0x006c6f6f
     e70:	746e6957 	strbtvc	r6, [lr], #-2391	; 0x957
     e74:	39317265 	ldmdbcc	r1!, {r0, r2, r5, r6, r9, ip, sp, lr}
     e78:	432f3032 	teqmi	pc, #50	; 0x32
     e7c:	30343153 	eorscc	r3, r4, r3, asr r1
     e80:	73632f45 	cmnvc	r3, #276	; 0x114
     e84:	65303431 	ldrvs	r3, [r0, #-1073]!	; 0x431
     e88:	7730322d 	ldrvc	r3, [r0, -sp, lsr #4]!
     e8c:	6c2f6e69 	stcvs	14, cr6, [pc], #-420	; cf0 <_start-0x7310>
     e90:	69706269 	ldmdbvs	r0!, {r0, r3, r5, r6, r9, sp, lr}^
     e94:	61750000 	cmnvs	r5, r0
     e98:	632e7472 	teqvs	lr, #1912602624	; 0x72000000
     e9c:	00000100 	andeq	r0, r0, r0, lsl #2
     ea0:	6f697067 	svcvs	0x00697067
     ea4:	0200682e 	andeq	r6, r0, #3014656	; 0x2e0000
     ea8:	70720000 	rsbsvc	r0, r2, r0
     eac:	00682e69 	rsbeq	r2, r8, r9, ror #28
     eb0:	00000003 	andeq	r0, r0, r3
     eb4:	c0020500 	andgt	r0, r2, r0, lsl #10
     eb8:	03000095 	movweq	r0, #149	; 0x95
     ebc:	33300136 	teqcc	r0, #-2147483635	; 0x8000000d
     ec0:	d8306d67 	ldmdale	r0!, {r0, r1, r2, r5, r6, r8, sl, fp, sp, lr}
     ec4:	67676730 			; <UNDEFINED> instruction: 0x67676730
     ec8:	86686767 	strbthi	r6, [r8], -r7, ror #14
     ecc:	306a672f 	rsbcc	r6, sl, pc, lsr #14
     ed0:	2f696767 	svccs	0x00696767
     ed4:	674c6a67 	strbvs	r6, [ip, -r7, ror #20]
     ed8:	302f2fc1 	eorcc	r2, pc, r1, asr #31
     edc:	3049682f 	subcc	r6, r9, pc, lsr #16
     ee0:	01000202 	tsteq	r0, r2, lsl #4
     ee4:	00012801 	andeq	r2, r1, r1, lsl #16
     ee8:	0d000200 	sfmeq	f0, 4, [r0, #-0]
     eec:	02000001 	andeq	r0, r0, #1
     ef0:	0d0efb01 	vstreq	d15, [lr, #-4]
     ef4:	01010100 	mrseq	r0, (UNDEF: 17)
     ef8:	00000001 	andeq	r0, r0, r1
     efc:	01000001 	tsteq	r0, r1
     f00:	34317363 	ldrtcc	r7, [r1], #-867	; 0x363
     f04:	732d6530 	teqvc	sp, #48, 10	; 0xc000000
     f08:	2f006372 	svccs	0x00006372
     f0c:	2f727375 	svccs	0x00727375
     f10:	61636f6c 	cmnvs	r3, ip, ror #30
     f14:	65432f6c 	strbvs	r2, [r3, #-3948]	; 0xf6c
     f18:	72616c6c 	rsbvc	r6, r1, #108, 24	; 0x6c00
     f1c:	6d72612f 	ldfvse	f6, [r2, #-188]!	; 0xffffff44
     f20:	6e6f6e2d 	cdpvs	14, 6, cr6, cr15, cr13, {1}
     f24:	61652d65 	cmnvs	r5, r5, ror #26
     f28:	342f6962 	strtcc	r6, [pc], #-2402	; f30 <_start-0x70d0>
     f2c:	332e382e 	teqcc	lr, #3014656	; 0x2e0000
     f30:	3173632d 	cmncc	r3, sp, lsr #6
     f34:	2f653037 	svccs	0x00653037
     f38:	2f62696c 	svccs	0x0062696c
     f3c:	2f636367 	svccs	0x00636367
     f40:	2d6d7261 	sfmcs	f7, 2, [sp, #-388]!	; 0xfffffe7c
     f44:	656e6f6e 	strbvs	r6, [lr, #-3950]!	; 0xf6e
     f48:	6261652d 	rsbvs	r6, r1, #188743680	; 0xb400000
     f4c:	2e342f69 	cdpcs	15, 3, cr2, cr4, cr9, {3}
     f50:	2f332e38 	svccs	0x00332e38
     f54:	6c636e69 	stclvs	14, cr6, [r3], #-420	; 0xfffffe5c
     f58:	00656475 	rsbeq	r6, r5, r5, ror r4
     f5c:	7273752f 	rsbsvc	r7, r3, #197132288	; 0xbc00000
     f60:	636f6c2f 	cmnvs	pc, #12032	; 0x2f00
     f64:	432f6c61 	teqmi	pc, #24832	; 0x6100
     f68:	616c6c65 	cmnvs	ip, r5, ror #24
     f6c:	72612f72 	rsbvc	r2, r1, #456	; 0x1c8
     f70:	6f6e2d6d 	svcvs	0x006e2d6d
     f74:	652d656e 	strvs	r6, [sp, #-1390]!	; 0x56e
     f78:	2f696261 	svccs	0x00696261
     f7c:	2e382e34 	mrccs	14, 1, r2, cr8, cr4, {1}
     f80:	73632d33 	cmnvc	r3, #3264	; 0xcc0
     f84:	65303731 	ldrvs	r3, [r0, #-1841]!	; 0x731
     f88:	6d72612f 	ldfvse	f6, [r2, #-188]!	; 0xffffff44
     f8c:	6e6f6e2d 	cdpvs	14, 6, cr6, cr15, cr13, {1}
     f90:	61652d65 	cmnvs	r5, r5, ror #26
     f94:	692f6962 	stmdbvs	pc!, {r1, r5, r6, r8, fp, sp, lr}	; <UNPREDICTABLE>
     f98:	756c636e 	strbvc	r6, [ip, #-878]!	; 0x36e
     f9c:	00006564 	andeq	r6, r0, r4, ror #10
     fa0:	746e6f63 	strbtvc	r6, [lr], #-3939	; 0xf63
     fa4:	2d6c6f72 	stclcs	15, cr6, [ip, #-456]!	; 0xfffffe38
     fa8:	636f6c62 	cmnvs	pc, #25088	; 0x6200
     fac:	00632e6b 	rsbeq	r2, r3, fp, ror #28
     fb0:	73000001 	movwvc	r0, #1
     fb4:	65646474 	strbvs	r6, [r4, #-1140]!	; 0x474
     fb8:	00682e66 	rsbeq	r2, r8, r6, ror #28
     fbc:	73000002 	movwvc	r0, #2
     fc0:	6e696474 	mcrvs	4, 3, r6, cr9, cr4, {3}
     fc4:	63672d74 	cmnvs	r7, #116, 26	; 0x1d00
     fc8:	00682e63 	rsbeq	r2, r8, r3, ror #28
     fcc:	73000002 	movwvc	r0, #2
     fd0:	61752d77 	cmnvs	r5, r7, ror sp
     fd4:	682e7472 	stmdavs	lr!, {r1, r4, r5, r6, sl, ip, sp, lr}
     fd8:	00000100 	andeq	r0, r0, r0, lsl #2
     fdc:	746e6f63 	strbtvc	r6, [lr], #-3939	; 0xf63
     fe0:	2d6c6f72 	stclcs	15, cr6, [ip, #-456]!	; 0xfffffe38
     fe4:	636f6c62 	cmnvs	pc, #25088	; 0x6200
     fe8:	00682e6b 	rsbeq	r2, r8, fp, ror #28
     fec:	73000001 	movwvc	r0, #1
     ff0:	6e697274 	mcrvs	2, 3, r7, cr9, cr4, {3}
     ff4:	00682e67 	rsbeq	r2, r8, r7, ror #28
     ff8:	00000003 	andeq	r0, r0, r3
     ffc:	78020500 	stmdavc	r2, {r8, sl}
    1000:	16000097 			; <UNDEFINED> instruction: 0x16000097
    1004:	4c688330 	stclmi	3, cr8, [r8], #-192	; 0xffffff40
    1008:	2f4b9f14 	svccs	0x004b9f14
    100c:	01000402 	tsteq	r0, r2, lsl #8
    1010:	0000ec01 	andeq	lr, r0, r1, lsl #24
    1014:	d0000200 	andle	r0, r0, r0, lsl #4
    1018:	02000000 	andeq	r0, r0, #0
    101c:	0d0efb01 	vstreq	d15, [lr, #-4]
    1020:	01010100 	mrseq	r0, (UNDEF: 17)
    1024:	00000001 	andeq	r0, r0, r1
    1028:	01000001 	tsteq	r0, r1
    102c:	6362696c 	cmnvs	r2, #108, 18	; 0x1b0000
    1030:	73752f00 	cmnvc	r5, #0, 30
    1034:	6f6c2f72 	svcvs	0x006c2f72
    1038:	2f6c6163 	svccs	0x006c6163
    103c:	6c6c6543 	cfstr64vs	mvdx6, [ip], #-268	; 0xfffffef4
    1040:	612f7261 	teqvs	pc, r1, ror #4
    1044:	6e2d6d72 	mcrvs	13, 1, r6, cr13, cr2, {3}
    1048:	2d656e6f 	stclcs	14, cr6, [r5, #-444]!	; 0xfffffe44
    104c:	69626165 	stmdbvs	r2!, {r0, r2, r5, r6, r8, sp, lr}^
    1050:	382e342f 	stmdacc	lr!, {r0, r1, r2, r3, r5, sl, ip, sp}
    1054:	632d332e 	teqvs	sp, #-1207959552	; 0xb8000000
    1058:	30373173 	eorscc	r3, r7, r3, ror r1
    105c:	696c2f65 	stmdbvs	ip!, {r0, r2, r5, r6, r8, r9, sl, fp, sp}^
    1060:	63672f62 	cmnvs	r7, #392	; 0x188
    1064:	72612f63 	rsbvc	r2, r1, #396	; 0x18c
    1068:	6f6e2d6d 	svcvs	0x006e2d6d
    106c:	652d656e 	strvs	r6, [sp, #-1390]!	; 0x56e
    1070:	2f696261 	svccs	0x00696261
    1074:	2e382e34 	mrccs	14, 1, r2, cr8, cr4, {1}
    1078:	6e692f33 	mcrvs	15, 3, r2, cr9, cr3, {1}
    107c:	64756c63 	ldrbtvs	r6, [r5], #-3171	; 0xc63
    1080:	752f0065 	strvc	r0, [pc, #-101]!	; 1023 <_start-0x6fdd>
    1084:	6c2f7273 	sfmvs	f7, 4, [pc], #-460	; ec0 <_start-0x7140>
    1088:	6c61636f 	stclvs	3, cr6, [r1], #-444	; 0xfffffe44
    108c:	6c65432f 	stclvs	3, cr4, [r5], #-188	; 0xffffff44
    1090:	2f72616c 	svccs	0x0072616c
    1094:	2d6d7261 	sfmcs	f7, 2, [sp, #-388]!	; 0xfffffe7c
    1098:	656e6f6e 	strbvs	r6, [lr, #-3950]!	; 0xf6e
    109c:	6261652d 	rsbvs	r6, r1, #188743680	; 0xb400000
    10a0:	2e342f69 	cdpcs	15, 3, cr2, cr4, cr9, {3}
    10a4:	2d332e38 	ldccs	14, cr2, [r3, #-224]!	; 0xffffff20
    10a8:	37317363 	ldrcc	r7, [r1, -r3, ror #6]!
    10ac:	612f6530 	teqvs	pc, r0, lsr r5	; <UNPREDICTABLE>
    10b0:	6e2d6d72 	mcrvs	13, 1, r6, cr13, cr2, {3}
    10b4:	2d656e6f 	stclcs	14, cr6, [r5, #-444]!	; 0xfffffe44
    10b8:	69626165 	stmdbvs	r2!, {r0, r2, r5, r6, r8, sp, lr}^
    10bc:	636e692f 	cmnvs	lr, #770048	; 0xbc000
    10c0:	6564756c 	strbvs	r7, [r4, #-1388]!	; 0x56c
    10c4:	656d0000 	strbvs	r0, [sp, #-0]!
    10c8:	7465736d 	strbtvc	r7, [r5], #-877	; 0x36d
    10cc:	0100632e 	tsteq	r0, lr, lsr #6
    10d0:	74730000 	ldrbtvc	r0, [r3], #-0
    10d4:	66656464 	strbtvs	r6, [r5], -r4, ror #8
    10d8:	0200682e 	andeq	r6, r0, #3014656	; 0x2e0000
    10dc:	74730000 	ldrbtvc	r0, [r3], #-0
    10e0:	676e6972 			; <UNDEFINED> instruction: 0x676e6972
    10e4:	0300682e 	movweq	r6, #2094	; 0x82e
    10e8:	00000000 	andeq	r0, r0, r0
    10ec:	97c80205 	strbls	r0, [r8, r5, lsl #4]
    10f0:	13140000 	tstne	r4, #0
    10f4:	02002f4c 	andeq	r2, r0, #76, 30	; 0x130
    10f8:	4d490104 	stfmie	f0, [r9, #-16]
    10fc:	01000202 	tsteq	r0, r2, lsl #4
    1100:	Address 0x0000000000001100 is out of bounds.


Disassembly of section .debug_str:

00000000 <.debug_str>:
   0:	53465047 	movtpl	r5, #24647	; 0x6047
   4:	00324c45 	eorseq	r4, r2, r5, asr #24
   8:	4c435047 	mcrrmi	0, 4, r5, r3, cr7
   c:	6e003052 	mcrvs	0, 0, r3, cr0, cr2, {2}
  10:	616d746f 	cmnvs	sp, pc, ror #8
  14:	66006e69 	strvs	r6, [r0], -r9, ror #28
  18:	74737269 	ldrbtvc	r7, [r3], #-617	; 0x269
  1c:	6165725f 	cmnvs	r5, pc, asr r2
  20:	65700064 	ldrbvs	r0, [r0, #-100]!	; 0x64
  24:	646f6972 	strbtvs	r6, [pc], #-2418	; 2c <_start-0x7fd4>
  28:	6e6f6c00 	cdpvs	12, 6, cr6, cr15, cr0, {0}
  2c:	6f6c2067 	svcvs	0x006c2067
  30:	7520676e 	strvc	r6, [r0, #-1902]!	; 0x76e
  34:	6769736e 	strbvs	r7, [r9, -lr, ror #6]!
  38:	2064656e 	rsbcs	r6, r4, lr, ror #10
  3c:	00746e69 	rsbseq	r6, r4, r9, ror #28
  40:	676e6f6c 	strbvs	r6, [lr, -ip, ror #30]!
  44:	6e6f6c20 	cdpvs	12, 6, cr6, cr15, cr0, {1}
  48:	6e692067 	cdpvs	0, 6, cr2, cr9, cr7, {3}
  4c:	6f740074 	svcvs	0x00740074
  50:	72655f74 	rsbvc	r5, r5, #116, 30	; 0x1d0
  54:	50470072 	subpl	r0, r7, r2, ror r0
  58:	30544553 	subscc	r4, r4, r3, asr r5
  5c:	53504700 	cmppl	r0, #0, 14
  60:	00315445 	eorseq	r5, r1, r5, asr #8
  64:	454c5047 	strbmi	r5, [ip, #-71]	; 0x47
  68:	47003056 	smlsdmi	r0, r6, r0, r3
  6c:	56454c50 			; <UNDEFINED> instruction: 0x56454c50
  70:	6f6c0031 	svcvs	0x006c0031
  74:	6e655f67 	cdpvs	15, 6, cr5, cr5, cr7, {3}
  78:	00745f74 	rsbseq	r5, r4, r4, ror pc
  7c:	20554e47 	subscs	r4, r5, r7, asr #28
  80:	2e342043 	cdpcs	0, 3, cr2, cr4, cr3, {2}
  84:	20332e38 	eorscs	r2, r3, r8, lsr lr
  88:	70636d2d 	rsbvc	r6, r3, sp, lsr #26
  8c:	72613d75 	rsbvc	r3, r1, #7488	; 0x1d40
  90:	3731316d 	ldrcc	r3, [r1, -sp, ror #2]!
  94:	667a6a36 			; <UNDEFINED> instruction: 0x667a6a36
  98:	2d20732d 	stccs	3, cr7, [r0, #-180]!	; 0xffffff4c
  9c:	6e75746d 	cdpvs	4, 7, cr7, cr5, cr13, {3}
  a0:	72613d65 	rsbvc	r3, r1, #6464	; 0x1940
  a4:	3731316d 	ldrcc	r3, [r1, -sp, ror #2]!
  a8:	667a6a36 			; <UNDEFINED> instruction: 0x667a6a36
  ac:	2d20732d 	stccs	3, cr7, [r0, #-180]!	; 0xffffff4c
  b0:	62646767 	rsbvs	r6, r4, #27000832	; 0x19c0000
  b4:	334f2d20 	movtcc	r2, #64800	; 0xfd20
  b8:	74732d20 	ldrbtvc	r2, [r3], #-3360	; 0xd20
  bc:	6e673d64 	cdpvs	13, 6, cr3, cr7, cr4, {3}
  c0:	20393975 	eorscs	r3, r9, r5, ror r9
  c4:	7266662d 	rsbvc	r6, r6, #47185920	; 0x2d00000
  c8:	74736565 	ldrbtvc	r6, [r3], #-1381	; 0x565
  cc:	69646e61 	stmdbvs	r4!, {r0, r5, r6, r9, sl, fp, sp, lr}^
  d0:	7200676e 	andvc	r6, r0, #28835840	; 0x1b80000
  d4:	725f6970 	subsvc	r6, pc, #112, 18	; 0x1c0000
  d8:	74657365 	strbtvc	r7, [r5], #-869	; 0x365
  dc:	7475705f 	ldrbtvc	r7, [r5], #-95	; 0x5f
  e0:	50470063 	subpl	r0, r7, r3, rrx
  e4:	4c455346 	mcrrmi	3, 4, r5, r5, cr6
  e8:	50470030 	subpl	r0, r7, r0, lsr r0
  ec:	4c455346 	mcrrmi	3, 4, r5, r5, cr6
  f0:	50470031 	subpl	r0, r7, r1, lsr r0
  f4:	4c455346 	mcrrmi	3, 4, r5, r5, cr6
  f8:	50470033 	subpl	r0, r7, r3, lsr r0
  fc:	4c455346 	mcrrmi	3, 4, r5, r5, cr6
 100:	50470034 	subpl	r0, r7, r4, lsr r0
 104:	4c455346 	mcrrmi	3, 4, r5, r5, cr6
 108:	5f5f0035 	svcpl	0x005f0035
 10c:	434e5546 	movtmi	r5, #58694	; 0xe546
 110:	4e4f4954 	mcrmi	9, 2, r4, cr15, cr4, {2}
 114:	73005f5f 	movwvc	r5, #3935	; 0xf5f
 118:	74726f68 	ldrbtvc	r6, [r2], #-3944	; 0xf68
 11c:	736e7520 	cmnvc	lr, #32, 10	; 0x8000000
 120:	656e6769 	strbvs	r6, [lr, #-1897]!	; 0x769
 124:	6e692064 	cdpvs	0, 6, cr2, cr9, cr4, {3}
 128:	616c0074 	smcvs	49156	; 0xc004
 12c:	64007473 	strvs	r7, [r0], #-1139	; 0x473
 130:	5f706d75 	svcpl	0x00706d75
 134:	706d6173 	rsbvc	r6, sp, r3, ror r1
 138:	0073656c 	rsbseq	r6, r3, ip, ror #10
 13c:	616d5f6e 	cmnvs	sp, lr, ror #30
 140:	70670078 	rsbvc	r0, r7, r8, ror r0
 144:	665f6f69 	ldrbvs	r6, [pc], -r9, ror #30
 148:	306c6573 	rsbcc	r6, ip, r3, ror r5
 14c:	43504700 	cmpmi	r0, #0, 14
 150:	0031524c 	eorseq	r5, r1, ip, asr #4
 154:	61656c63 	cmnvs	r5, r3, ror #24
 158:	65725f6e 	ldrbvs	r5, [r2, #-3950]!	; 0xf6e
 15c:	746f6f62 	strbtvc	r6, [pc], #-3938	; 164 <_start-0x7e9c>
 160:	7a697300 	bvc	1a5cd68 <__bss_end__+0x1a52e18>
 164:	70797465 	rsbsvc	r7, r9, r5, ror #8
 168:	6e690065 	cdpvs	0, 6, cr0, cr9, cr5, {3}
 16c:	61665f74 	smcvs	26100	; 0x65f4
 170:	32337473 	eorscc	r7, r3, #1929379840	; 0x73000000
 174:	5f00745f 	svcpl	0x0000745f
 178:	0074756f 	rsbseq	r7, r4, pc, ror #10
 17c:	6379636e 	cmnvs	r9, #-1207959551	; 0xb8000001
 180:	736e7500 	cmnvc	lr, #0, 10
 184:	656e6769 	strbvs	r6, [lr, #-1897]!	; 0x769
 188:	68632064 	stmdavs	r3!, {r2, r5, r6, sp}^
 18c:	73007261 	movwvc	r7, #609	; 0x261
 190:	74726f68 	ldrbtvc	r6, [r2], #-3944	; 0xf68
 194:	746e6920 	strbtvc	r6, [lr], #-2336	; 0x920
 198:	6c656400 	cfstrdvs	mvd6, [r5], #-0
 19c:	6d5f7961 	ldclvs	9, cr7, [pc, #-388]	; 20 <_start-0x7fe0>
 1a0:	79630073 	stmdbvc	r3!, {r0, r1, r4, r5, r6}^
 1a4:	73656c63 	cmnvc	r5, #25344	; 0x6300
 1a8:	7265705f 	rsbvc	r7, r5, #95	; 0x5f
 1ac:	6365735f 	cmnvs	r5, #2080374785	; 0x7c000001
 1b0:	73552f00 	cmpvc	r5, #0, 30
 1b4:	2f737265 	svccs	0x00737265
 1b8:	61697262 	cmnvs	r9, r2, ror #4
 1bc:	6e756a6e 	vsubvs.f32	s13, s10, s29
 1c0:	7365442f 	cmnvc	r5, #788529152	; 0x2f000000
 1c4:	706f746b 	rsbvc	r7, pc, fp, ror #8
 1c8:	6863732f 	stmdavs	r3!, {r0, r1, r2, r3, r5, r8, r9, ip, sp, lr}^
 1cc:	2f6c6f6f 	svccs	0x006c6f6f
 1d0:	69727053 	ldmdbvs	r2!, {r0, r1, r4, r6, ip, sp, lr}^
 1d4:	3931676e 	ldmdbcc	r1!, {r1, r2, r3, r5, r6, r8, r9, sl, sp, lr}
 1d8:	432f3032 	teqmi	pc, #50	; 0x32
 1dc:	30343253 	eorscc	r3, r4, r3, asr r2
 1e0:	632f584c 	teqvs	pc, #76, 16	; 0x4c0000
 1e4:	30343273 	eorscc	r3, r4, r3, ror r2
 1e8:	322d786c 	eorcc	r7, sp, #108, 16	; 0x6c0000
 1ec:	72707330 	rsbsvc	r7, r0, #48, 6	; 0xc0000000
 1f0:	62616c2f 	rsbvs	r6, r1, #12032	; 0x2f00
 1f4:	2d332f73 	ldccs	15, cr2, [r3, #-460]!	; 0xfffffe34
 1f8:	69676f6c 	stmdbvs	r7!, {r2, r3, r5, r6, r8, r9, sl, fp, sp, lr}^
 1fc:	6e612d63 	cdpvs	13, 6, cr2, cr1, cr3, {3}
 200:	7a796c61 	bvc	1e5b38c <__bss_end__+0x1e5143c>
 204:	632f7265 	teqvs	pc, #1342177286	; 0x50000006
 208:	2f65646f 	svccs	0x0065646f
 20c:	706f6373 	rsbvc	r6, pc, r3, ror r3	; <UNPREDICTABLE>
 210:	70670065 	rsbvc	r0, r7, r5, rrx
 214:	735f6f69 	cmpvc	pc, #420	; 0x1a4
 218:	00307465 	eorseq	r7, r0, r5, ror #8
 21c:	73726966 	cmnvc	r2, #1671168	; 0x198000
 220:	61620074 	smcvs	8196	; 0x2004
 224:	696c6573 	stmdbvs	ip!, {r0, r1, r4, r5, r6, r8, sl, sp, lr}^
 228:	725f656e 	subsvc	r6, pc, #461373440	; 0x1b800000
 22c:	00646165 	rsbeq	r6, r4, r5, ror #2
 230:	6f697067 	svcvs	0x00697067
 234:	7465735f 	strbtvc	r7, [r5], #-863	; 0x35f
 238:	706e695f 	rsbvc	r6, lr, pc, asr r9
 23c:	6e007475 	mcrvs	4, 0, r7, cr0, cr5, {3}
 240:	735f6d75 	cmpvc	pc, #7488	; 0x1d40
 244:	6c706d61 	ldclvs	13, cr6, [r0], #-388	; 0xfffffe7c
 248:	65007365 	strvs	r7, [r0, #-869]	; 0x365
 24c:	6c62616e 	stfvse	f6, [r2], #-440	; 0xfffffe48
 250:	61635f65 	cmnvs	r3, r5, ror #30
 254:	00656863 	rsbeq	r6, r5, r3, ror #16
 258:	74736166 	ldrbtvc	r6, [r3], #-358	; 0x166
 25c:	6970675f 	ldmdbvs	r0!, {r0, r1, r2, r3, r4, r6, r8, r9, sl, sp, lr}^
 260:	65725f6f 	ldrbvs	r5, [r2, #-3951]!	; 0xf6f
 264:	6d006461 	cfstrsvs	mvf6, [r0, #-388]	; 0xfffffe7c
 268:	635f7861 	cmpvs	pc, #6356992	; 0x610000
 26c:	656c6379 	strbvs	r6, [ip, #-889]!	; 0x379
 270:	65670073 	strbvs	r0, [r7, #-115]!	; 0x73
 274:	00323374 	eorseq	r3, r2, r4, ror r3
 278:	5f6d756e 	svcpl	0x006d756e
 27c:	6c637963 	stclvs	9, cr7, [r3], #-396	; 0xfffffe74
 280:	63007365 	movwvs	r7, #869	; 0x365
 284:	5f727275 	svcpl	0x00727275
 288:	64616572 	strbtvs	r6, [r1], #-1394	; 0x572
 28c:	69706700 	ldmdbvs	r0!, {r8, r9, sl, sp, lr}^
 290:	6c635f6f 	stclvs	15, cr5, [r3], #-444	; 0xfffffe44
 294:	73003072 	movwvc	r3, #114	; 0x72
 298:	65706f63 	ldrbvs	r6, [r0, #-3939]!	; 0xf63
 29c:	5f00632e 	svcpl	0x0000632e
 2a0:	756e675f 	strbvc	r6, [lr, #-1887]!	; 0x75f
 2a4:	61765f63 	cmnvs	r6, r3, ror #30
 2a8:	73696c5f 	cmnvc	r9, #24320	; 0x5f00
 2ac:	696c0074 	stmdbvs	ip!, {r2, r4, r5, r6}^
 2b0:	702f6362 	eorvc	r6, pc, r2, ror #6
 2b4:	746e6972 	strbtvc	r6, [lr], #-2418	; 0x972
 2b8:	00632e6b 	rsbeq	r2, r3, fp, ror #28
 2bc:	20554e47 	subscs	r4, r5, r7, asr #28
 2c0:	2e342043 	cdpcs	0, 3, cr2, cr4, cr3, {2}
 2c4:	20332e38 	eorscs	r2, r3, r8, lsr lr
 2c8:	70636d2d 	rsbvc	r6, r3, sp, lsr #26
 2cc:	72613d75 	rsbvc	r3, r1, #7488	; 0x1d40
 2d0:	3731316d 	ldrcc	r3, [r1, -sp, ror #2]!
 2d4:	667a6a36 			; <UNDEFINED> instruction: 0x667a6a36
 2d8:	2d20732d 	stccs	3, cr7, [r0, #-180]!	; 0xffffff4c
 2dc:	6e75746d 	cdpvs	4, 7, cr7, cr5, cr13, {3}
 2e0:	72613d65 	rsbvc	r3, r1, #6464	; 0x1940
 2e4:	3731316d 	ldrcc	r3, [r1, -sp, ror #2]!
 2e8:	667a6a36 			; <UNDEFINED> instruction: 0x667a6a36
 2ec:	2d20732d 	stccs	3, cr7, [r0, #-180]!	; 0xffffff4c
 2f0:	62646767 	rsbvs	r6, r4, #27000832	; 0x19c0000
 2f4:	674f2d20 	strbvs	r2, [pc, -r0, lsr #26]
 2f8:	74732d20 	ldrbtvc	r2, [r3], #-3360	; 0xd20
 2fc:	6e673d64 	cdpvs	13, 6, cr3, cr7, cr4, {3}
 300:	20393975 	eorscs	r3, r9, r5, ror r9
 304:	7266662d 	rsbvc	r6, r6, #47185920	; 0x2d00000
 308:	74736565 	ldrbtvc	r6, [r3], #-1381	; 0x565
 30c:	69646e61 	stmdbvs	r4!, {r0, r5, r6, r9, sl, fp, sp, lr}^
 310:	7600676e 	strvc	r6, [r0], -lr, ror #14
 314:	72705f61 	rsbsvc	r5, r0, #388	; 0x184
 318:	6b746e69 	blvs	1d1bcc4 <__bss_end__+0x1d11d74>
 31c:	765f5f00 	ldrbvc	r5, [pc], -r0, lsl #30
 320:	696c5f61 	stmdbvs	ip!, {r0, r5, r6, r8, r9, sl, fp, ip, lr}^
 324:	2f007473 	svccs	0x00007473
 328:	72657355 	rsbvc	r7, r5, #1409286145	; 0x54000001
 32c:	72622f73 	rsbvc	r2, r2, #460	; 0x1cc
 330:	6a6e6169 	bvs	1b988dc <__bss_end__+0x1b8e98c>
 334:	442f6e75 	strtmi	r6, [pc], #-3701	; 33c <_start-0x7cc4>
 338:	746b7365 	strbtvc	r7, [fp], #-869	; 0x365
 33c:	732f706f 	teqvc	pc, #111	; 0x6f
 340:	6f6f6863 	svcvs	0x006f6863
 344:	69572f6c 	ldmdbvs	r7, {r2, r3, r5, r6, r8, r9, sl, fp, sp}^
 348:	7265746e 	rsbvc	r7, r5, #1845493760	; 0x6e000000
 34c:	30323931 	eorscc	r3, r2, r1, lsr r9
 350:	3153432f 	cmpcc	r3, pc, lsr #6
 354:	2f453034 	svccs	0x00453034
 358:	34317363 	ldrtcc	r7, [r1], #-867	; 0x363
 35c:	322d6530 	eorcc	r6, sp, #48, 10	; 0xc000000
 360:	6e697730 	mcrvs	7, 3, r7, cr9, cr0, {1}
 364:	62696c2f 	rsbvs	r6, r9, #12032	; 0x2f00
 368:	61006970 	tstvs	r0, r0, ror r9
 36c:	00736772 	rsbseq	r6, r3, r2, ror r7
 370:	70615f5f 	rsbvc	r5, r1, pc, asr pc
 374:	746e6900 	strbtvc	r6, [lr], #-2304	; 0x900
 378:	616e7265 	cmnvs	lr, r5, ror #4
 37c:	75705f6c 	ldrbvc	r5, [r0, #-3948]!	; 0xf6c
 380:	61686374 	smcvs	34356	; 0x8634
 384:	70720072 	rsbsvc	r0, r2, r2, ror r0
 388:	75705f69 	ldrbvc	r5, [r0, #-3945]!	; 0xf69
 38c:	61686374 	smcvs	34356	; 0x8634
 390:	696c0072 	stmdbvs	ip!, {r1, r4, r5, r6}^
 394:	702f6362 	eorvc	r6, pc, r2, ror #6
 398:	68637475 	stmdavs	r3!, {r0, r2, r4, r5, r6, sl, ip, sp, lr}^
 39c:	632e7261 	teqvs	lr, #268435462	; 0x10000006
 3a0:	69707200 	ldmdbvs	r0!, {r9, ip, sp, lr}^
 3a4:	7465735f 	strbtvc	r7, [r5], #-863	; 0x35f
 3a8:	7475705f 	ldrbtvc	r7, [r5], #-95	; 0x5f
 3ac:	696c0063 	stmdbvs	ip!, {r0, r1, r5, r6}^
 3b0:	702f6362 	eorvc	r6, pc, r2, ror #6
 3b4:	2e6b7475 	mcrcs	4, 3, r7, cr11, cr5, {3}
 3b8:	6e690063 	cdpvs	0, 6, cr0, cr9, cr3, {3}
 3bc:	6e726574 	mrcvs	5, 3, r6, cr2, cr4, {3}
 3c0:	705f6c61 	subsvc	r6, pc, r1, ror #24
 3c4:	006b7475 	rsbeq	r7, fp, r5, ror r4
 3c8:	5f67656e 	svcpl	0x0067656e
 3cc:	65720070 	ldrbvs	r0, [r2, #-112]!	; 0x70
 3d0:	73726576 	cmnvc	r2, #494927872	; 0x1d800000
 3d4:	73690065 	cmnvc	r9, #101	; 0x65
 3d8:	69676964 	stmdbvs	r7!, {r2, r5, r6, r8, fp, sp, lr}^
 3dc:	75700074 	ldrbvc	r0, [r0, #-116]!	; 0x74
 3e0:	665f7374 			; <UNDEFINED> instruction: 0x665f7374
 3e4:	61620070 	smcvs	8192	; 0x2000
 3e8:	73006573 	movwvc	r6, #1395	; 0x573
 3ec:	656e6769 	strbvs	r6, [lr, #-1897]!	; 0x769
 3f0:	00705f64 	rsbseq	r5, r0, r4, ror #30
 3f4:	6362696c 	cmnvs	r2, #108, 18	; 0x1b0000
 3f8:	2d61762f 	stclcs	6, cr7, [r1, #-188]!	; 0xffffff44
 3fc:	6e697270 	mcrvs	2, 3, r7, cr9, cr0, {3}
 400:	632e6b74 	teqvs	lr, #116, 22	; 0x1d000
 404:	69707200 	ldmdbvs	r0!, {r9, ip, sp, lr}^
 408:	7465735f 	strbtvc	r7, [r5], #-863	; 0x35f
 40c:	74756f5f 	ldrbtvc	r6, [r5], #-3935	; 0xf5f
 410:	00747570 	rsbseq	r7, r4, r0, ror r5
 414:	74646977 	strbtvc	r6, [r4], #-2423	; 0x977
 418:	75700068 	ldrbvc	r0, [r0, #-104]!	; 0x68
 41c:	665f6374 			; <UNDEFINED> instruction: 0x665f6374
 420:	6d650070 	stclvs	0, cr0, [r5, #-448]!	; 0xfffffe40
 424:	64007469 	strvs	r7, [r0], #-1129	; 0x469
 428:	62617369 	rsbvs	r7, r1, #-1543503871	; 0xa4000001
 42c:	635f656c 	cmpvs	pc, #108, 10	; 0x1b000000
 430:	65686361 	strbvs	r6, [r8, #-865]!	; 0x361
 434:	31736300 	cmncc	r3, r0, lsl #6
 438:	2d653034 	stclcs	0, cr3, [r5, #-208]!	; 0xffffff30
 43c:	2f637273 	svccs	0x00637273
 440:	68636163 	stmdavs	r3!, {r0, r1, r5, r6, r8, sp, lr}^
 444:	00632e65 	rsbeq	r2, r3, r5, ror #28
 448:	5f697072 	svcpl	0x00697072
 44c:	6f626572 	svcvs	0x00626572
 450:	6300746f 	movwvs	r7, #1135	; 0x46f
 454:	30343173 	eorscc	r3, r4, r3, ror r1
 458:	72732d65 	rsbsvc	r2, r3, #6464	; 0x1940
 45c:	6c632f63 	stclvs	15, cr2, [r3], #-396	; 0xfffffe74
 460:	2d6e6165 	stfcse	f6, [lr, #-404]!	; 0xfffffe6c
 464:	6f626572 	svcvs	0x00626572
 468:	632e746f 	teqvs	lr, #1862270976	; 0x6f000000
 46c:	746e6900 	strbtvc	r6, [lr], #-2304	; 0x900
 470:	616e7265 	cmnvs	lr, r5, ror #4
 474:	77735f6c 	ldrbvc	r5, [r3, -ip, ror #30]!
 478:	7475705f 	ldrbtvc	r7, [r5], #-95	; 0x5f
 47c:	72616863 	rsbvc	r6, r1, #6488064	; 0x630000
 480:	625f5f00 	subsvs	r5, pc, #0, 30
 484:	735f7373 	cmpvc	pc, #-872415231	; 0xcc000001
 488:	74726174 	ldrbtvc	r6, [r2], #-372	; 0x174
 48c:	62005f5f 	andvs	r5, r0, #380	; 0x17c
 490:	655f7373 	ldrbvs	r7, [pc, #-883]	; 125 <_start-0x7edb>
 494:	6300646e 	movwvs	r6, #1134	; 0x46e
 498:	656c6379 	strbvs	r6, [ip, #-889]!	; 0x379
 49c:	7265705f 	rsbvc	r7, r5, #95	; 0x5f
 4a0:	7469625f 	strbtvc	r6, [r9], #-607	; 0x25f
 4a4:	6e6f6300 	cdpvs	3, 6, cr6, cr15, cr0, {0}
 4a8:	656c6f73 	strbvs	r6, [ip, #-3955]!	; 0xf73
 4ac:	7261755f 	rsbvc	r7, r1, #398458880	; 0x17c00000
 4b0:	77730074 			; <UNDEFINED> instruction: 0x77730074
 4b4:	7261755f 	rsbvc	r7, r1, #398458880	; 0x17c00000
 4b8:	72705f74 	rsbsvc	r5, r0, #116, 30	; 0x1d0
 4bc:	6b746e69 	blvs	1d1be68 <__bss_end__+0x1d11f18>
 4c0:	54555000 	ldrbpl	r5, [r5], #-0
 4c4:	53455f43 	movtpl	r5, #24387	; 0x5f43
 4c8:	41555f50 	cmpmi	r5, r0, asr pc
 4cc:	73005452 	movwvc	r5, #1106	; 0x452
 4d0:	61755f77 	cmnvs	r5, r7, ror pc
 4d4:	745f7472 	ldrbvc	r7, [pc], #-1138	; 4dc <_start-0x7b24>
 4d8:	54555000 	ldrbpl	r5, [r5], #-0
 4dc:	57535f43 	ldrbpl	r5, [r3, -r3, asr #30]
 4e0:	5241555f 	subpl	r5, r1, #398458880	; 0x17c00000
 4e4:	61620054 	qdsubvs	r0, r4, r2
 4e8:	50006475 	andpl	r6, r0, r5, ror r4
 4ec:	5f435455 	svcpl	0x00435455
 4f0:	555f5748 	ldrbpl	r5, [pc, #-1864]	; fffffdb0 <__bss_end__+0xffff5e60>
 4f4:	00545241 	subseq	r5, r4, r1, asr #4
 4f8:	7473635f 	ldrbtvc	r6, [r3], #-863	; 0x35f
 4fc:	00747261 	rsbseq	r7, r4, r1, ror #4
 500:	74726175 	ldrbtvc	r6, [r2], #-373	; 0x175
 504:	7665645f 			; <UNDEFINED> instruction: 0x7665645f
 508:	7300745f 	movwvc	r7, #1119	; 0x45f
 50c:	61755f77 	cmnvs	r5, r7, ror pc
 510:	705f7472 	subsvc	r7, pc, r2, ror r4	; <UNPREDICTABLE>
 514:	00637475 	rsbeq	r7, r3, r5, ror r4
 518:	746e6975 	strbtvc	r6, [lr], #-2421	; 0x975
 51c:	00745f38 	rsbseq	r5, r4, r8, lsr pc
 520:	746e6f63 	strbtvc	r6, [lr], #-3939	; 0xf63
 524:	5f6c6f72 	svcpl	0x006c6f72
 528:	5f6b6c62 	svcpl	0x006b6c62
 52c:	77730074 			; <UNDEFINED> instruction: 0x77730074
 530:	7261755f 	rsbvc	r7, r1, #398458880	; 0x17c00000
 534:	62630074 	rsbvs	r0, r3, #116	; 0x74
 538:	7465675f 	strbtvc	r6, [r5], #-1887	; 0x75f
 53c:	6f6c625f 	svcvs	0x006c625f
 540:	5f006b63 	svcpl	0x00006b63
 544:	7373625f 	cmnvc	r3, #-268435451	; 0xf0000005
 548:	646e655f 	strbtvs	r6, [lr], #-1375	; 0x55f
 54c:	63005f5f 	movwvs	r5, #3935	; 0xf5f
 550:	30343173 	eorscc	r3, r4, r3, ror r1
 554:	72732d65 	rsbsvc	r2, r3, #6464	; 0x1940
 558:	73632f63 	cmnvc	r3, #396	; 0x18c
 55c:	74726174 	ldrbtvc	r6, [r2], #-372	; 0x174
 560:	6300632e 	movwvs	r6, #814	; 0x32e
 564:	6f736e6f 	svcvs	0x00736e6f
 568:	645f656c 	ldrbvs	r6, [pc], #-1388	; 570 <_start-0x7a90>
 56c:	75007665 	strvc	r7, [r0, #-1637]	; 0x665
 570:	33746e69 	cmncc	r4, #1680	; 0x690
 574:	00745f32 	rsbseq	r5, r4, r2, lsr pc
 578:	6967616d 	stmdbvs	r7!, {r0, r2, r3, r5, r6, r8, sp, lr}^
 57c:	74610063 	strbtvc	r0, [r1], #-99	; 0x63
 580:	6573755f 	ldrbvs	r7, [r3, #-1375]!	; 0x55f
 584:	656c5f72 	strbvs	r5, [ip, #-3954]!	; 0xf72
 588:	006c6576 	rsbeq	r6, ip, r6, ror r5
 58c:	505f4d50 	subspl	r4, pc, r0, asr sp	; <UNPREDICTABLE>
 590:	57535341 	ldrbpl	r5, [r3, -r1, asr #6]
 594:	0044524f 	subeq	r5, r4, pc, asr #4
 598:	34317363 	ldrtcc	r7, [r1], #-867	; 0x363
 59c:	732d6530 	teqvc	sp, #48, 10	; 0xc000000
 5a0:	722f6372 	eorvc	r6, pc, #-939524095	; 0xc8000001
 5a4:	6f6f6265 	svcvs	0x006f6265
 5a8:	00632e74 	rsbeq	r2, r3, r4, ror lr
 5ac:	525f4d50 	subspl	r4, pc, #80, 26	; 0x1400
 5b0:	5f435453 	svcpl	0x00435453
 5b4:	46435257 			; <UNDEFINED> instruction: 0x46435257
 5b8:	55465f47 	strbpl	r5, [r6, #-3911]	; 0xf47
 5bc:	525f4c4c 	subspl	r4, pc, #76, 24	; 0x4c00
 5c0:	54455345 	strbpl	r5, [r5], #-837	; 0x345
 5c4:	5f4d5000 	svcpl	0x004d5000
 5c8:	474f4457 	smlsldmi	r4, pc, r7, r4	; <UNPREDICTABLE>
 5cc:	74657300 	strbtvc	r7, [r5], #-768	; 0x300
 5d0:	6573755f 	ldrbvs	r7, [r3, #-1375]!	; 0x55f
 5d4:	656c5f72 	strbvs	r5, [ip, #-3954]!	; 0xf72
 5d8:	006c6576 	rsbeq	r6, ip, r6, ror r5
 5dc:	33545550 	cmpcc	r4, #80, 10	; 0x14000000
 5e0:	4d500032 	ldclmi	0, cr0, [r0, #-200]	; 0xffffff38
 5e4:	5453525f 	ldrbpl	r5, [r3], #-607	; 0x25f
 5e8:	70630043 	rsbvc	r0, r3, r3, asr #32
 5ec:	74007273 	strvc	r7, [r0], #-627	; 0x273
 5f0:	72656d69 	rsbvc	r6, r5, #6720	; 0x1a40
 5f4:	7465675f 	strbtvc	r6, [r5], #-1887	; 0x75f
 5f8:	6573755f 	ldrbvs	r7, [r3, #-1375]!	; 0x55f
 5fc:	61725f63 	cmnvs	r2, r3, ror #30
 600:	65640077 	strbvs	r0, [r4, #-119]!	; 0x77
 604:	5f79616c 	svcpl	0x0079616c
 608:	00636573 	rsbeq	r6, r3, r3, ror r5
 60c:	34317363 	ldrtcc	r7, [r1], #-867	; 0x363
 610:	732d6530 	teqvc	sp, #48, 10	; 0xc000000
 614:	742f6372 	strtvc	r6, [pc], #-882	; 61c <_start-0x79e4>
 618:	72656d69 	rsbvc	r6, r5, #6720	; 0x1a40
 61c:	4700632e 	strmi	r6, [r0, -lr, lsr #6]
 620:	32335445 	eorscc	r5, r3, #1157627904	; 0x45000000
 624:	63697400 	cmnvs	r9, #0, 8
 628:	6400736b 	strvs	r7, [r0], #-875	; 0x36b
 62c:	79616c65 	stmdbvc	r1!, {r0, r2, r5, r6, sl, fp, sp, lr}^
 630:	6379635f 	cmnvs	r9, #2080374785	; 0x7c000001
 634:	0073656c 	rsbseq	r6, r3, ip, ror #10
 638:	616c6564 	cmnvs	ip, r4, ror #10
 63c:	73755f79 	cmnvc	r5, #484	; 0x1e4
 640:	6d697400 	cfstrdvs	mvd7, [r9, #-0]
 644:	675f7265 	ldrbvs	r7, [pc, -r5, ror #4]
 648:	755f7465 	ldrbvc	r7, [pc, #-1125]	; 1eb <_start-0x7e15>
 64c:	00636573 	rsbeq	r6, r3, r3, ror r5
 650:	6f697067 	svcvs	0x00697067
 654:	6576655f 	ldrbvs	r6, [r6, #-1375]!	; 0x55f
 658:	645f746e 	ldrbvs	r7, [pc], #-1134	; 660 <_start-0x79a0>
 65c:	63657465 	cmnvs	r5, #1694498816	; 0x65000000
 660:	00646574 	rsbeq	r6, r4, r4, ror r5
 664:	33747570 	cmncc	r4, #112, 10	; 0x1c000000
 668:	4e450032 	mcrmi	0, 2, r0, cr5, cr2, {1}
 66c:	454c4241 	strbmi	r4, [ip, #-577]	; 0x241
 670:	5152495f 	cmppl	r2, pc, asr r9
 674:	00325f53 	eorseq	r5, r2, r3, asr pc
 678:	675f7369 	ldrbvs	r7, [pc, -r9, ror #6]
 67c:	5f6f6970 	svcpl	0x006f6970
 680:	00746e69 	rsbseq	r6, r4, r9, ror #28
 684:	4f495047 	svcmi	0x00495047
 688:	4e55465f 	mrcmi	6, 2, r4, cr5, cr15, {2}
 68c:	4e495f43 	cdpmi	15, 4, cr5, cr9, cr3, {2}
 690:	00545550 	subseq	r5, r4, r0, asr r5
 694:	6f697067 	svcvs	0x00697067
 698:	7465735f 	strbtvc	r7, [r5], #-863	; 0x35f
 69c:	66666f5f 	uqsaxvs	r6, r6, pc	; <UNPREDICTABLE>
 6a0:	2d796d00 	ldclcs	13, cr6, [r9, #-0]
 6a4:	2f637273 	svccs	0x00637273
 6a8:	6f697067 	svcvs	0x00697067
 6ac:	6900632e 	stmdbvs	r0, {r1, r2, r3, r5, r8, r9, sp, lr}
 6b0:	6d5f746e 	cfldrdvs	mvd7, [pc, #-440]	; 500 <_start-0x7b00>
 6b4:	006b7361 	rsbeq	r7, fp, r1, ror #6
 6b8:	5f676572 	svcpl	0x00676572
 6bc:	74617473 	strbtvc	r7, [r1], #-1139	; 0x473
 6c0:	69706700 	ldmdbvs	r0!, {r8, r9, sl, sp, lr}^
 6c4:	65725f6f 	ldrbvs	r5, [r2, #-3951]!	; 0xf6f
 6c8:	65640067 	strbvs	r0, [r4, #-103]!	; 0x67
 6cc:	61625f76 	smcvs	9718	; 0x25f6
 6d0:	65697272 	strbvs	r7, [r9, #-626]!	; 0x272
 6d4:	70670072 	rsbvc	r0, r7, r2, ror r0
 6d8:	695f6f69 	ldmdbvs	pc, {r0, r3, r5, r6, r8, r9, sl, fp, sp, lr}^	; <UNPREDICTABLE>
 6dc:	725f746e 	subsvc	r7, pc, #1845493760	; 0x6e000000
 6e0:	6e697369 	cdpvs	3, 6, cr7, cr9, cr9, {3}
 6e4:	64655f67 	strbtvs	r5, [r5], #-3943	; 0xf67
 6e8:	67006567 	strvs	r6, [r0, -r7, ror #10]
 6ec:	5f6f6970 	svcpl	0x006f6970
 6f0:	5f746573 	svcpl	0x00746573
 6f4:	636e7566 	cmnvs	lr, #427819008	; 0x19800000
 6f8:	6e6f6974 	mcrvs	9, 3, r6, cr15, cr4, {3}
 6fc:	52504700 	subspl	r4, r0, #0, 14
 700:	00304e45 	eorseq	r4, r0, r5, asr #28
 704:	45525047 	ldrbmi	r5, [r2, #-71]	; 0x47
 708:	6700314e 	strvs	r3, [r0, -lr, asr #2]
 70c:	5f6f6970 	svcpl	0x006f6970
 710:	6e657665 	cdpvs	6, 6, cr7, cr5, cr5, {3}
 714:	6c635f74 	stclvs	15, cr5, [r3], #-464	; 0xfffffe30
 718:	00726165 	rsbseq	r6, r2, r5, ror #2
 71c:	5f515249 	svcpl	0x00515249
 720:	444e4550 	strbmi	r4, [lr], #-1360	; 0x550
 724:	5f474e49 	svcpl	0x00474e49
 728:	52490031 	subpl	r0, r9, #49	; 0x31
 72c:	45505f51 	ldrbmi	r5, [r0, #-3921]	; 0xf51
 730:	4e49444e 	cdpmi	4, 4, cr4, cr9, cr14, {2}
 734:	00325f47 	eorseq	r5, r2, r7, asr #30
 738:	6d746962 	ldclvs	9, cr6, [r4, #-392]!	; 0xfffffe78
 73c:	006b7361 	rsbeq	r7, fp, r1, ror #6
 740:	6f697067 	svcvs	0x00697067
 744:	6972775f 	ldmdbvs	r2!, {r0, r1, r2, r3, r4, r6, r8, r9, sl, ip, sp, lr}^
 748:	66006574 			; <UNDEFINED> instruction: 0x66006574
 74c:	00636e75 	rsbeq	r6, r3, r5, ror lr
 750:	6f697067 	svcvs	0x00697067
 754:	676f745f 			; <UNDEFINED> instruction: 0x676f745f
 758:	00656c67 	rsbeq	r6, r5, r7, ror #24
 75c:	44455047 	strbmi	r5, [r5], #-71	; 0x47
 760:	47003053 	smlsdmi	r0, r3, r0, r3
 764:	53444550 	movtpl	r4, #17744	; 0x4550
 768:	70670031 	rsbvc	r0, r7, r1, lsr r0
 76c:	735f6f69 	cmpvc	pc, #420	; 0x1a4
 770:	6f5f7465 	svcvs	0x005f7465
 774:	5047006e 	subpl	r0, r7, lr, rrx
 778:	304e4546 	subcc	r4, lr, r6, asr #10
 77c:	46504700 	ldrbmi	r4, [r0], -r0, lsl #14
 780:	00314e45 	eorseq	r4, r1, r5, asr #28
 784:	6f697067 	svcvs	0x00697067
 788:	7465735f 	strbtvc	r7, [r5], #-863	; 0x35f
 78c:	74756f5f 	ldrbtvc	r6, [r5], #-3935	; 0xf5f
 790:	00747570 	rsbseq	r7, r4, r0, ror r5
 794:	4f495047 	svcmi	0x00495047
 798:	4e55465f 	mrcmi	6, 2, r4, cr5, cr15, {2}
 79c:	554f5f43 	strbpl	r5, [pc, #-3907]	; fffff861 <__bss_end__+0xffff5911>
 7a0:	54555054 	ldrbpl	r5, [r5], #-84	; 0x54
 7a4:	69706700 	ldmdbvs	r0!, {r8, r9, sl, sp, lr}^
 7a8:	6e695f6f 	cdpvs	15, 6, cr5, cr9, cr15, {3}
 7ac:	61665f74 	smcvs	26100	; 0x65f4
 7b0:	6e696c6c 	cdpvs	12, 6, cr6, cr9, cr12, {3}
 7b4:	64655f67 	strbtvs	r5, [r5], #-3943	; 0xf67
 7b8:	67006567 	strvs	r6, [r0, -r7, ror #10]
 7bc:	5f6f6970 	svcpl	0x006f6970
 7c0:	636e7566 	cmnvs	lr, #427819008	; 0x19800000
 7c4:	4700745f 	smlsdmi	r0, pc, r4, r7	; <UNPREDICTABLE>
 7c8:	5f4f4950 	svcpl	0x004f4950
 7cc:	434e5546 	movtmi	r5, #58694	; 0xe546
 7d0:	544c415f 	strbpl	r4, [ip], #-351	; 0x15f
 7d4:	50470030 	subpl	r0, r7, r0, lsr r0
 7d8:	465f4f49 	ldrbmi	r4, [pc], -r9, asr #30
 7dc:	5f434e55 	svcpl	0x00434e55
 7e0:	31544c41 	cmpcc	r4, r1, asr #24
 7e4:	49504700 	ldmdbmi	r0, {r8, r9, sl, lr}^
 7e8:	55465f4f 	strbpl	r5, [r6, #-3919]	; 0xf4f
 7ec:	415f434e 	cmpmi	pc, lr, asr #6
 7f0:	0032544c 	eorseq	r5, r2, ip, asr #8
 7f4:	4f495047 	svcmi	0x00495047
 7f8:	4e55465f 	mrcmi	6, 2, r4, cr5, cr15, {2}
 7fc:	4c415f43 	mcrrmi	15, 4, r5, r1, cr3
 800:	47003354 	smlsdmi	r0, r4, r3, r3
 804:	5f4f4950 	svcpl	0x004f4950
 808:	434e5546 	movtmi	r5, #58694	; 0xe546
 80c:	544c415f 	strbpl	r4, [ip], #-351	; 0x15f
 810:	50470034 	subpl	r0, r7, r4, lsr r0
 814:	465f4f49 	ldrbmi	r4, [pc], -r9, asr #30
 818:	5f434e55 	svcpl	0x00434e55
 81c:	35544c41 	ldrbcc	r4, [r4, #-3137]	; 0xc41
 820:	67657200 	strbvs	r7, [r5, -r0, lsl #4]!
 824:	6c65735f 	stclvs	3, cr7, [r5], #-380	; 0xfffffe84
 828:	00746365 	rsbseq	r6, r4, r5, ror #6
 82c:	5f637963 	svcpl	0x00637963
 830:	5f726570 	svcpl	0x00726570
 834:	00746962 	rsbseq	r6, r4, r2, ror #18
 838:	74697277 	strbtvc	r7, [r9], #-631	; 0x277
 83c:	79635f65 	stmdbvc	r3!, {r0, r2, r5, r6, r8, r9, sl, fp, ip, lr}^
 840:	6e755f63 	cdpvs	15, 7, cr5, cr5, cr3, {3}
 844:	006c6974 	rsbeq	r6, ip, r4, ror r9
 848:	755f7773 	ldrbvc	r7, [pc, #-1907]	; dd <_start-0x7f23>
 84c:	5f747261 	svcpl	0x00747261
 850:	63746567 	cmnvs	r4, #432013312	; 0x19c00000
 854:	6d69745f 	cfstrdvs	mvd7, [r9, #-380]!	; 0xfffffe84
 858:	74756f65 	ldrbtvc	r6, [r5], #-3941	; 0xf65
 85c:	5f777300 	svcpl	0x00777300
 860:	74726175 	ldrbtvc	r6, [r2], #-373	; 0x175
 864:	7465675f 	strbtvc	r6, [r5], #-1887	; 0x75f
 868:	6e755f73 	mrcvs	15, 3, r5, cr5, cr3, {3}
 86c:	006c6974 	rsbeq	r6, ip, r4, ror r9
 870:	755f7773 	ldrbvc	r7, [pc, #-1907]	; 105 <_start-0x7efb>
 874:	5f747261 	svcpl	0x00747261
 878:	63746567 	cmnvs	r4, #432013312	; 0x19c00000
 87c:	72656400 	rsbvc	r6, r5, #0, 8
 880:	64657669 	strbtvs	r7, [r5], #-1641	; 0x669
 884:	6c656400 	cfstrdvs	mvd6, [r5], #-0
 888:	6e5f7961 	cdpvs	9, 5, cr7, cr15, cr1, {3}
 88c:	6c637963 	stclvs	9, cr7, [r3], #-396	; 0xfffffe74
 890:	73007365 	movwvc	r7, #869	; 0x365
 894:	61755f77 	cmnvs	r5, r7, ror pc
 898:	695f7472 	ldmdbvs	pc, {r1, r4, r5, r6, sl, ip, sp, lr}^	; <UNPREDICTABLE>
 89c:	5f74696e 	svcpl	0x0074696e
 8a0:	706c6568 	rsbvc	r6, ip, r8, ror #10
 8a4:	74007265 	strvc	r7, [r0], #-613	; 0x265
 8a8:	6f656d69 	svcvs	0x00656d69
 8ac:	755f7475 	ldrbvc	r7, [pc, #-1141]	; 43f <_start-0x7bc1>
 8b0:	00636573 	rsbeq	r6, r3, r3, ror r5
 8b4:	755f7773 	ldrbvc	r7, [pc, #-1907]	; 149 <_start-0x7eb7>
 8b8:	5f747261 	svcpl	0x00747261
 8bc:	6b747570 	blvs	1d1de84 <__bss_end__+0x1d13f34>
 8c0:	2d796d00 	ldclcs	13, cr6, [r9, #-0]
 8c4:	2f637273 	svccs	0x00637273
 8c8:	752d7773 	strvc	r7, [sp, #-1907]!	; 0x773
 8cc:	2e747261 	cdpcs	2, 7, cr7, cr4, cr1, {3}
 8d0:	68630063 	stmdavs	r3!, {r0, r1, r5, r6}^
 8d4:	695f7261 	ldmdbvs	pc, {r0, r5, r6, r9, ip, sp, lr}^	; <UNPREDICTABLE>
 8d8:	7773006e 	ldrbvc	r0, [r3, -lr, rrx]!
 8dc:	7261755f 	rsbvc	r7, r1, #398458880	; 0x17c00000
 8e0:	65675f74 	strbvs	r5, [r7, #-3956]!	; 0xf74
 8e4:	745f7374 	ldrbvc	r7, [pc], #-884	; 8ec <_start-0x7714>
 8e8:	6f656d69 	svcvs	0x00656d69
 8ec:	6e007475 	mcrvs	4, 0, r7, cr0, cr5, {3}
 8f0:	65747962 	ldrbvs	r7, [r4, #-2402]!	; 0x962
 8f4:	73750073 	cmnvc	r5, #115	; 0x73
 8f8:	745f6365 	ldrbvc	r6, [pc], #-869	; 900 <_start-0x7700>
 8fc:	6f656d69 	svcvs	0x00656d69
 900:	73007475 	movwvc	r7, #1141	; 0x475
 904:	61755f77 	cmnvs	r5, r7, ror pc
 908:	675f7472 			; <UNDEFINED> instruction: 0x675f7472
 90c:	5f737465 	svcpl	0x00737465
 910:	69746e75 	ldmdbvs	r4!, {r0, r2, r4, r5, r6, r9, sl, fp, sp, lr}^
 914:	6c625f6c 	stclvs	15, cr5, [r2], #-432	; 0xfffffe50
 918:	6177006b 	cmnvs	r7, fp, rrx
 91c:	755f7469 	ldrbvc	r7, [pc, #-1129]	; 4bb <_start-0x7b45>
 920:	6c69746e 	cfstrdvs	mvd7, [r9], #-440	; 0xfffffe48
 924:	6573755f 	ldrbvs	r7, [r3, #-1375]!	; 0x55f
 928:	55410063 	strbpl	r0, [r1, #-99]	; 0x63
 92c:	554d5f58 	strbpl	r5, [sp, #-3928]	; 0xf58
 930:	52434d5f 	subpl	r4, r3, #6080	; 0x17c0
 934:	4745525f 	smlsldmi	r5, r5, pc, r2	; <UNPREDICTABLE>
 938:	58554100 	ldmdapl	r5, {r8, lr}^
 93c:	5f554d5f 	svcpl	0x00554d5f
 940:	525f4f49 	subspl	r4, pc, #292	; 0x124
 944:	41004745 	tstmi	r0, r5, asr #14
 948:	4d5f5855 	ldclmi	8, cr5, [pc, #-340]	; 7fc <_start-0x7804>
 94c:	534d5f55 	movtpl	r5, #57173	; 0xdf55
 950:	45525f52 	ldrbmi	r5, [r2, #-3922]	; 0xf52
 954:	61750047 	cmnvs	r5, r7, asr #32
 958:	635f7472 	cmpvs	pc, #1912602624	; 0x72000000
 95c:	675f6e61 	ldrbvs	r6, [pc, -r1, ror #28]
 960:	00637465 	rsbeq	r7, r3, r5, ror #8
 964:	5f585541 	svcpl	0x00585541
 968:	435f554d 	cmpmi	pc, #322961408	; 0x13400000
 96c:	5f4c544e 	svcpl	0x004c544e
 970:	00474552 	subeq	r4, r7, r2, asr r5
 974:	74726175 	ldrbtvc	r6, [r2], #-373	; 0x175
 978:	7361685f 	cmnvc	r1, #6225920	; 0x5f0000
 97c:	7461645f 	strbtvc	r6, [r1], #-1119	; 0x45f
 980:	61750061 	cmnvs	r5, r1, rrx
 984:	695f7472 	ldmdbvs	pc, {r1, r4, r5, r6, sl, ip, sp, lr}^	; <UNPREDICTABLE>
 988:	0074696e 	rsbseq	r6, r4, lr, ror #18
 98c:	5f585541 	svcpl	0x00585541
 990:	495f554d 	ldmdbmi	pc, {r0, r2, r3, r6, r8, sl, ip, lr}^	; <UNPREDICTABLE>
 994:	525f5245 	subspl	r5, pc, #1342177284	; 0x50000004
 998:	41004745 	tstmi	r0, r5, asr #14
 99c:	4d5f5855 	ldclmi	8, cr5, [pc, #-340]	; 850 <_start-0x77b0>
 9a0:	49495f55 	stmdbmi	r9, {r0, r2, r4, r6, r8, r9, sl, fp, ip, lr}^
 9a4:	45525f52 	ldrbmi	r5, [r2, #-3922]	; 0xf52
 9a8:	61750047 	cmnvs	r5, r7, asr #32
 9ac:	635f7472 	cmpvs	pc, #1912602624	; 0x72000000
 9b0:	705f6e61 	subsvc	r6, pc, r1, ror #28
 9b4:	00637475 	rsbeq	r7, r3, r5, ror r4
 9b8:	5f585541 	svcpl	0x00585541
 9bc:	42414e45 	submi	r4, r1, #1104	; 0x450
 9c0:	0053454c 	subseq	r4, r3, ip, asr #10
 9c4:	5f585541 	svcpl	0x00585541
 9c8:	00515249 	subseq	r5, r1, r9, asr #4
 9cc:	5f585541 	svcpl	0x00585541
 9d0:	425f554d 	subsmi	r5, pc, #322961408	; 0x13400000
 9d4:	5f445541 	svcpl	0x00445541
 9d8:	00474552 	subeq	r4, r7, r2, asr r5
 9dc:	5f585541 	svcpl	0x00585541
 9e0:	535f554d 	cmppl	pc, #322961408	; 0x13400000
 9e4:	5f544154 	svcpl	0x00544154
 9e8:	00474552 	subeq	r4, r7, r2, asr r5
 9ec:	5f585541 	svcpl	0x00585541
 9f0:	535f554d 	cmppl	pc, #322961408	; 0x13400000
 9f4:	54415243 	strbpl	r5, [r1], #-579	; 0x243
 9f8:	6d004843 	stcvs	8, cr4, [r0, #-268]	; 0xfffffef4
 9fc:	72732d79 	rsbsvc	r2, r3, #7744	; 0x1e40
 a00:	61752f63 	cmnvs	r5, r3, ror #30
 a04:	632e7472 	teqvs	lr, #1912602624	; 0x72000000
 a08:	58554100 	ldmdapl	r5, {r8, lr}^
 a0c:	5f554d5f 	svcpl	0x00554d5f
 a10:	5f52434c 	svcpl	0x0052434c
 a14:	00474552 	subeq	r4, r7, r2, asr r5
 a18:	5f585541 	svcpl	0x00585541
 a1c:	4c5f554d 	cfldr64mi	mvdx5, [pc], {77}	; 0x4d
 a20:	525f5253 	subspl	r5, pc, #805306373	; 0x30000005
 a24:	75004745 	strvc	r4, [r0, #-1861]	; 0x745
 a28:	5f747261 	svcpl	0x00747261
 a2c:	63746567 	cmnvs	r4, #432013312	; 0x19c00000
 a30:	7973615f 	ldmdbvc	r3!, {r0, r1, r2, r3, r4, r6, r8, sp, lr}^
 a34:	7300636e 	movwvc	r6, #878	; 0x36e
 a38:	5f657a69 	svcpl	0x00657a69
 a3c:	656d0074 	strbvs	r0, [sp, #-116]!	; 0x74
 a40:	7465736d 	strbtvc	r7, [r5], #-877	; 0x36d
 a44:	5f626300 	svcpl	0x00626300
 a48:	0077656e 	rsbseq	r6, r7, lr, ror #10
 a4c:	34317363 	ldrtcc	r7, [r1], #-867	; 0x363
 a50:	732d6530 	teqvc	sp, #48, 10	; 0xc000000
 a54:	632f6372 	teqvs	pc, #-939524095	; 0xc8000001
 a58:	72746e6f 	rsbsvc	r6, r4, #1776	; 0x6f0
 a5c:	622d6c6f 	eorvs	r6, sp, #28416	; 0x6f00
 a60:	6b636f6c 	blvs	18dc818 <__bss_end__+0x18d28c8>
 a64:	6c00632e 	stcvs	3, cr6, [r0], {46}	; 0x2e
 a68:	2f636269 	svccs	0x00636269
 a6c:	736d656d 	cmnvc	sp, #457179136	; 0x1b400000
 a70:	632e7465 	teqvs	lr, #1694498816	; 0x65000000
	...

Disassembly of section .debug_frame:

00000000 <.debug_frame>:
   0:	0000000c 	andeq	r0, r0, ip
   4:	ffffffff 			; <UNDEFINED> instruction: 0xffffffff
   8:	7c020001 	stcvc	0, cr0, [r2], {1}
   c:	000d0c0e 	andeq	r0, sp, lr, lsl #24
  10:	00000014 	andeq	r0, r0, r4, lsl r0
  14:	00000000 	andeq	r0, r0, r0
  18:	00008010 	andeq	r8, r0, r0, lsl r0
  1c:	00000050 	andeq	r0, r0, r0, asr r0
  20:	84080e44 	strhi	r0, [r8], #-3652	; 0xe44
  24:	00018e02 	andeq	r8, r1, r2, lsl #28
  28:	00000020 	andeq	r0, r0, r0, lsr #32
  2c:	00000000 	andeq	r0, r0, r0
  30:	00008060 	andeq	r8, r0, r0, rrx
  34:	00000098 	muleq	r0, r8, r0
  38:	84200e42 	strthi	r0, [r0], #-3650	; 0xe42
  3c:	86078508 	strhi	r8, [r7], -r8, lsl #10
  40:	88058706 	stmdahi	r5, {r1, r2, r8, r9, sl, pc}
  44:	8a038904 	bhi	e245c <__bss_end__+0xd850c>
  48:	00018e02 	andeq	r8, r1, r2, lsl #28
  4c:	00000024 	andeq	r0, r0, r4, lsr #32
  50:	00000000 	andeq	r0, r0, r0
  54:	000080f8 	strdeq	r8, [r0], -r8	; <UNPREDICTABLE>
  58:	00000090 	muleq	r0, r0, r0
  5c:	84200e42 	strthi	r0, [r0], #-3650	; 0xe42
  60:	86078508 	strhi	r8, [r7], -r8, lsl #10
  64:	88058706 	stmdahi	r5, {r1, r2, r8, r9, sl, pc}
  68:	8a038904 	bhi	e2480 <__bss_end__+0xd8530>
  6c:	44018e02 	strmi	r8, [r1], #-3586	; 0xe02
  70:	0000300e 	andeq	r3, r0, lr
  74:	00000014 	andeq	r0, r0, r4, lsl r0
  78:	00000000 	andeq	r0, r0, r0
  7c:	00008188 	andeq	r8, r0, r8, lsl #3
  80:	00000050 	andeq	r0, r0, r0, asr r0
  84:	8e040e42 	cdphi	14, 0, cr0, cr4, cr2, {2}
  88:	580e4201 	stmdapl	lr, {r0, r9, lr}
  8c:	0000000c 	andeq	r0, r0, ip
  90:	ffffffff 			; <UNDEFINED> instruction: 0xffffffff
  94:	7c020001 	stcvc	0, cr0, [r2], {1}
  98:	000d0c0e 	andeq	r0, sp, lr, lsl #24
  9c:	00000024 	andeq	r0, r0, r4, lsr #32
  a0:	0000008c 	andeq	r0, r0, ip, lsl #1
  a4:	000081d8 	ldrdeq	r8, [r0], -r8	; <UNPREDICTABLE>
  a8:	00000058 	andeq	r0, r0, r8, asr r0
  ac:	80100e42 	andshi	r0, r0, r2, asr #28
  b0:	82038104 	andhi	r8, r3, #4, 2
  b4:	42018302 	andmi	r8, r1, #134217728	; 0x8000000
  b8:	07841c0e 	streq	r1, [r4, lr, lsl #24]
  bc:	058e0685 	streq	r0, [lr, #1669]	; 0x685
  c0:	00280e42 	eoreq	r0, r8, r2, asr #28
  c4:	0000000c 	andeq	r0, r0, ip
  c8:	ffffffff 			; <UNDEFINED> instruction: 0xffffffff
  cc:	7c020001 	stcvc	0, cr0, [r2], {1}
  d0:	000d0c0e 	andeq	r0, sp, lr, lsl #24
  d4:	00000014 	andeq	r0, r0, r4, lsl r0
  d8:	000000c4 	andeq	r0, r0, r4, asr #1
  dc:	00008230 	andeq	r8, r0, r0, lsr r2
  e0:	00000014 	andeq	r0, r0, r4, lsl r0
  e4:	84080e42 	strhi	r0, [r8], #-3650	; 0xe42
  e8:	00018e02 	andeq	r8, r1, r2, lsl #28
  ec:	0000000c 	andeq	r0, r0, ip
  f0:	000000c4 	andeq	r0, r0, r4, asr #1
  f4:	00008244 	andeq	r8, r0, r4, asr #4
  f8:	00000018 	andeq	r0, r0, r8, lsl r0
  fc:	0000000c 	andeq	r0, r0, ip
 100:	000000c4 	andeq	r0, r0, r4, asr #1
 104:	0000825c 	andeq	r8, r0, ip, asr r2
 108:	00000010 	andeq	r0, r0, r0, lsl r0
 10c:	0000000c 	andeq	r0, r0, ip
 110:	ffffffff 			; <UNDEFINED> instruction: 0xffffffff
 114:	7c020001 	stcvc	0, cr0, [r2], {1}
 118:	000d0c0e 	andeq	r0, sp, lr, lsl #24
 11c:	00000018 	andeq	r0, r0, r8, lsl r0
 120:	0000010c 	andeq	r0, r0, ip, lsl #2
 124:	0000826c 	andeq	r8, r0, ip, ror #4
 128:	00000034 	andeq	r0, r0, r4, lsr r0
 12c:	83100e42 	tsthi	r0, #1056	; 0x420
 130:	85038404 	strhi	r8, [r3, #-1028]	; 0x404
 134:	00018e02 	andeq	r8, r1, r2, lsl #28
 138:	0000000c 	andeq	r0, r0, ip
 13c:	ffffffff 			; <UNDEFINED> instruction: 0xffffffff
 140:	7c020001 	stcvc	0, cr0, [r2], {1}
 144:	000d0c0e 	andeq	r0, sp, lr, lsl #24
 148:	0000000c 	andeq	r0, r0, ip
 14c:	00000138 	andeq	r0, r0, r8, lsr r1
 150:	000082a0 	andeq	r8, r0, r0, lsr #5
 154:	00000014 	andeq	r0, r0, r4, lsl r0
 158:	0000000c 	andeq	r0, r0, ip
 15c:	00000138 	andeq	r0, r0, r8, lsr r1
 160:	000082b4 			; <UNDEFINED> instruction: 0x000082b4
 164:	0000002c 	andeq	r0, r0, ip, lsr #32
 168:	0000000c 	andeq	r0, r0, ip
 16c:	00000138 	andeq	r0, r0, r8, lsr r1
 170:	000082e0 	andeq	r8, r0, r0, ror #5
 174:	00000040 	andeq	r0, r0, r0, asr #32
 178:	00000020 	andeq	r0, r0, r0, lsr #32
 17c:	00000138 	andeq	r0, r0, r8, lsr r1
 180:	00008320 	andeq	r8, r0, r0, lsr #6
 184:	000001a8 	andeq	r0, r0, r8, lsr #3
 188:	84180e42 	ldrhi	r0, [r8], #-3650	; 0xe42
 18c:	86058506 	strhi	r8, [r5], -r6, lsl #10
 190:	88038704 	stmdahi	r3, {r2, r8, r9, sl, pc}
 194:	42018e02 	andmi	r8, r1, #2, 28
 198:	0000600e 	andeq	r6, r0, lr
 19c:	00000014 	andeq	r0, r0, r4, lsl r0
 1a0:	00000138 	andeq	r0, r0, r8, lsr r1
 1a4:	000084c8 	andeq	r8, r0, r8, asr #9
 1a8:	00000068 	andeq	r0, r0, r8, rrx
 1ac:	8e040e42 	cdphi	14, 0, cr0, cr4, cr2, {2}
 1b0:	100e4201 	andne	r4, lr, r1, lsl #4
 1b4:	00000028 	andeq	r0, r0, r8, lsr #32
 1b8:	00000138 	andeq	r0, r0, r8, lsr r1
 1bc:	00008530 	andeq	r8, r0, r0, lsr r5
 1c0:	00000294 	muleq	r0, r4, r2
 1c4:	84240e42 	strthi	r0, [r4], #-3650	; 0xe42
 1c8:	86088509 	strhi	r8, [r8], -r9, lsl #10
 1cc:	88068707 	stmdahi	r6, {r0, r1, r2, r8, r9, sl, pc}
 1d0:	8a048905 	bhi	1225ec <__bss_end__+0x11869c>
 1d4:	8e028b03 	vmlahi.f64	d8, d2, d3
 1d8:	b00e4201 	andlt	r4, lr, r1, lsl #4
 1dc:	00000001 	andeq	r0, r0, r1
 1e0:	0000000c 	andeq	r0, r0, ip
 1e4:	ffffffff 			; <UNDEFINED> instruction: 0xffffffff
 1e8:	7c020001 	stcvc	0, cr0, [r2], {1}
 1ec:	000d0c0e 	andeq	r0, sp, lr, lsl #24
 1f0:	0000000c 	andeq	r0, r0, ip
 1f4:	000001e0 	andeq	r0, r0, r0, ror #3
 1f8:	000087c4 	andeq	r8, r0, r4, asr #15
 1fc:	00000010 	andeq	r0, r0, r0, lsl r0
 200:	0000000c 	andeq	r0, r0, ip
 204:	000001e0 	andeq	r0, r0, r0, ror #3
 208:	000087d4 	ldrdeq	r8, [r0], -r4
 20c:	00000010 	andeq	r0, r0, r0, lsl r0
 210:	0000000c 	andeq	r0, r0, ip
 214:	ffffffff 			; <UNDEFINED> instruction: 0xffffffff
 218:	7c020001 	stcvc	0, cr0, [r2], {1}
 21c:	000d0c0e 	andeq	r0, sp, lr, lsl #24
 220:	00000014 	andeq	r0, r0, r4, lsl r0
 224:	00000210 	andeq	r0, r0, r0, lsl r2
 228:	000087e4 	andeq	r8, r0, r4, ror #15
 22c:	00000028 	andeq	r0, r0, r8, lsr #32
 230:	83080e42 	movwhi	r0, #36418	; 0x8e42
 234:	00018e02 	andeq	r8, r1, r2, lsl #28
 238:	0000000c 	andeq	r0, r0, ip
 23c:	ffffffff 			; <UNDEFINED> instruction: 0xffffffff
 240:	7c020001 	stcvc	0, cr0, [r2], {1}
 244:	000d0c0e 	andeq	r0, sp, lr, lsl #24
 248:	00000014 	andeq	r0, r0, r4, lsl r0
 24c:	00000238 	andeq	r0, r0, r8, lsr r2
 250:	0000880c 	andeq	r8, r0, ip, lsl #16
 254:	00000020 	andeq	r0, r0, r0, lsr #32
 258:	84080e42 	strhi	r0, [r8], #-3650	; 0xe42
 25c:	00018e02 	andeq	r8, r1, r2, lsl #28
 260:	00000014 	andeq	r0, r0, r4, lsl r0
 264:	00000238 	andeq	r0, r0, r8, lsr r2
 268:	0000882c 	andeq	r8, r0, ip, lsr #16
 26c:	00000090 	muleq	r0, r0, r0
 270:	83080e42 	movwhi	r0, #36418	; 0x8e42
 274:	00018e02 	andeq	r8, r1, r2, lsl #28
 278:	0000000c 	andeq	r0, r0, ip
 27c:	ffffffff 			; <UNDEFINED> instruction: 0xffffffff
 280:	7c020001 	stcvc	0, cr0, [r2], {1}
 284:	000d0c0e 	andeq	r0, sp, lr, lsl #24
 288:	0000000c 	andeq	r0, r0, ip
 28c:	00000278 	andeq	r0, r0, r8, ror r2
 290:	000088bc 			; <UNDEFINED> instruction: 0x000088bc
 294:	00000018 	andeq	r0, r0, r8, lsl r0
 298:	0000000c 	andeq	r0, r0, ip
 29c:	00000278 	andeq	r0, r0, r8, ror r2
 2a0:	000088d4 	ldrdeq	r8, [r0], -r4
 2a4:	00000014 	andeq	r0, r0, r4, lsl r0
 2a8:	00000014 	andeq	r0, r0, r4, lsl r0
 2ac:	00000278 	andeq	r0, r0, r8, ror r2
 2b0:	000088e8 	andeq	r8, r0, r8, ror #17
 2b4:	00000048 	andeq	r0, r0, r8, asr #32
 2b8:	83080e42 	movwhi	r0, #36418	; 0x8e42
 2bc:	00018e02 	andeq	r8, r1, r2, lsl #28
 2c0:	0000000c 	andeq	r0, r0, ip
 2c4:	ffffffff 			; <UNDEFINED> instruction: 0xffffffff
 2c8:	7c020001 	stcvc	0, cr0, [r2], {1}
 2cc:	000d0c0e 	andeq	r0, sp, lr, lsl #24
 2d0:	0000000c 	andeq	r0, r0, ip
 2d4:	000002c0 	andeq	r0, r0, r0, asr #5
 2d8:	00008930 	andeq	r8, r0, r0, lsr r9
 2dc:	0000001c 	andeq	r0, r0, ip, lsl r0
 2e0:	00000014 	andeq	r0, r0, r4, lsl r0
 2e4:	000002c0 	andeq	r0, r0, r0, asr #5
 2e8:	0000894c 	andeq	r8, r0, ip, asr #18
 2ec:	00000014 	andeq	r0, r0, r4, lsl r0
 2f0:	83080e42 	movwhi	r0, #36418	; 0x8e42
 2f4:	00018e02 	andeq	r8, r1, r2, lsl #28
 2f8:	00000014 	andeq	r0, r0, r4, lsl r0
 2fc:	000002c0 	andeq	r0, r0, r0, asr #5
 300:	00008960 	andeq	r8, r0, r0, ror #18
 304:	0000000c 	andeq	r0, r0, ip
 308:	83080e42 	movwhi	r0, #36418	; 0x8e42
 30c:	00018e02 	andeq	r8, r1, r2, lsl #28
 310:	00000018 	andeq	r0, r0, r8, lsl r0
 314:	000002c0 	andeq	r0, r0, r0, asr #5
 318:	0000896c 	andeq	r8, r0, ip, ror #18
 31c:	00000024 	andeq	r0, r0, r4, lsr #32
 320:	83100e42 	tsthi	r0, #1056	; 0x420
 324:	85038404 	strhi	r8, [r3, #-1028]	; 0x404
 328:	00018e02 	andeq	r8, r1, r2, lsl #28
 32c:	00000014 	andeq	r0, r0, r4, lsl r0
 330:	000002c0 	andeq	r0, r0, r0, asr #5
 334:	00008990 	muleq	r0, r0, r9
 338:	00000014 	andeq	r0, r0, r4, lsl r0
 33c:	83080e42 	movwhi	r0, #36418	; 0x8e42
 340:	00018e02 	andeq	r8, r1, r2, lsl #28
 344:	00000014 	andeq	r0, r0, r4, lsl r0
 348:	000002c0 	andeq	r0, r0, r0, asr #5
 34c:	000089a4 	andeq	r8, r0, r4, lsr #19
 350:	00000014 	andeq	r0, r0, r4, lsl r0
 354:	83080e42 	movwhi	r0, #36418	; 0x8e42
 358:	00018e02 	andeq	r8, r1, r2, lsl #28
 35c:	0000000c 	andeq	r0, r0, ip
 360:	ffffffff 			; <UNDEFINED> instruction: 0xffffffff
 364:	7c020001 	stcvc	0, cr0, [r2], {1}
 368:	000d0c0e 	andeq	r0, sp, lr, lsl #24
 36c:	00000018 	andeq	r0, r0, r8, lsl r0
 370:	0000035c 	andeq	r0, r0, ip, asr r3
 374:	000089b8 			; <UNDEFINED> instruction: 0x000089b8
 378:	000000d4 	ldrdeq	r0, [r0], -r4
 37c:	83100e42 	tsthi	r0, #1056	; 0x420
 380:	85038404 	strhi	r8, [r3, #-1028]	; 0x404
 384:	00018e02 	andeq	r8, r1, r2, lsl #28
 388:	00000014 	andeq	r0, r0, r4, lsl r0
 38c:	0000035c 	andeq	r0, r0, ip, asr r3
 390:	00008a8c 	andeq	r8, r0, ip, lsl #21
 394:	00000038 	andeq	r0, r0, r8, lsr r0
 398:	83080e42 	movwhi	r0, #36418	; 0x8e42
 39c:	00018e02 	andeq	r8, r1, r2, lsl #28
 3a0:	00000014 	andeq	r0, r0, r4, lsl r0
 3a4:	0000035c 	andeq	r0, r0, ip, asr r3
 3a8:	00008ac4 	andeq	r8, r0, r4, asr #21
 3ac:	00000038 	andeq	r0, r0, r8, lsr r0
 3b0:	83080e42 	movwhi	r0, #36418	; 0x8e42
 3b4:	00018e02 	andeq	r8, r1, r2, lsl #28
 3b8:	00000018 	andeq	r0, r0, r8, lsl r0
 3bc:	0000035c 	andeq	r0, r0, ip, asr r3
 3c0:	00008afc 	strdeq	r8, [r0], -ip
 3c4:	000000cc 	andeq	r0, r0, ip, asr #1
 3c8:	83100e42 	tsthi	r0, #1056	; 0x420
 3cc:	85038404 	strhi	r8, [r3, #-1028]	; 0x404
 3d0:	00018e02 	andeq	r8, r1, r2, lsl #28
 3d4:	00000014 	andeq	r0, r0, r4, lsl r0
 3d8:	0000035c 	andeq	r0, r0, ip, asr r3
 3dc:	00008bc8 	andeq	r8, r0, r8, asr #23
 3e0:	0000004c 	andeq	r0, r0, ip, asr #32
 3e4:	84080e42 	strhi	r0, [r8], #-3650	; 0xe42
 3e8:	00018e02 	andeq	r8, r1, r2, lsl #28
 3ec:	00000014 	andeq	r0, r0, r4, lsl r0
 3f0:	0000035c 	andeq	r0, r0, ip, asr r3
 3f4:	00008c14 	andeq	r8, r0, r4, lsl ip
 3f8:	00000024 	andeq	r0, r0, r4, lsr #32
 3fc:	83080e42 	movwhi	r0, #36418	; 0x8e42
 400:	00018e02 	andeq	r8, r1, r2, lsl #28
 404:	00000018 	andeq	r0, r0, r8, lsl r0
 408:	0000035c 	andeq	r0, r0, ip, asr r3
 40c:	00008c38 	andeq	r8, r0, r8, lsr ip
 410:	000000d8 	ldrdeq	r0, [r0], -r8
 414:	84100e42 	ldrhi	r0, [r0], #-3650	; 0xe42
 418:	86038504 	strhi	r8, [r3], -r4, lsl #10
 41c:	00018e02 	andeq	r8, r1, r2, lsl #28
 420:	00000014 	andeq	r0, r0, r4, lsl r0
 424:	0000035c 	andeq	r0, r0, ip, asr r3
 428:	00008d10 	andeq	r8, r0, r0, lsl sp
 42c:	00000038 	andeq	r0, r0, r8, lsr r0
 430:	83080e42 	movwhi	r0, #36418	; 0x8e42
 434:	00018e02 	andeq	r8, r1, r2, lsl #28
 438:	00000014 	andeq	r0, r0, r4, lsl r0
 43c:	0000035c 	andeq	r0, r0, ip, asr r3
 440:	00008d48 	andeq	r8, r0, r8, asr #26
 444:	0000002c 	andeq	r0, r0, ip, lsr #32
 448:	83080e42 	movwhi	r0, #36418	; 0x8e42
 44c:	00018e02 	andeq	r8, r1, r2, lsl #28
 450:	00000018 	andeq	r0, r0, r8, lsl r0
 454:	0000035c 	andeq	r0, r0, ip, asr r3
 458:	00008d74 	andeq	r8, r0, r4, ror sp
 45c:	00000084 	andeq	r0, r0, r4, lsl #1
 460:	83100e42 	tsthi	r0, #1056	; 0x420
 464:	85038404 	strhi	r8, [r3, #-1028]	; 0x404
 468:	00018e02 	andeq	r8, r1, r2, lsl #28
 46c:	00000018 	andeq	r0, r0, r8, lsl r0
 470:	0000035c 	andeq	r0, r0, ip, asr r3
 474:	00008df8 	strdeq	r8, [r0], -r8	; <UNPREDICTABLE>
 478:	00000084 	andeq	r0, r0, r4, lsl #1
 47c:	83100e42 	tsthi	r0, #1056	; 0x420
 480:	85038404 	strhi	r8, [r3, #-1028]	; 0x404
 484:	00018e02 	andeq	r8, r1, r2, lsl #28
 488:	00000014 	andeq	r0, r0, r4, lsl r0
 48c:	0000035c 	andeq	r0, r0, ip, asr r3
 490:	00008e7c 	andeq	r8, r0, ip, ror lr
 494:	00000084 	andeq	r0, r0, r4, lsl #1
 498:	84080e42 	strhi	r0, [r8], #-3650	; 0xe42
 49c:	00018e02 	andeq	r8, r1, r2, lsl #28
 4a0:	00000014 	andeq	r0, r0, r4, lsl r0
 4a4:	0000035c 	andeq	r0, r0, ip, asr r3
 4a8:	00008f00 	andeq	r8, r0, r0, lsl #30
 4ac:	00000058 	andeq	r0, r0, r8, asr r0
 4b0:	84080e42 	strhi	r0, [r8], #-3650	; 0xe42
 4b4:	00018e02 	andeq	r8, r1, r2, lsl #28
 4b8:	0000000c 	andeq	r0, r0, ip
 4bc:	ffffffff 			; <UNDEFINED> instruction: 0xffffffff
 4c0:	7c020001 	stcvc	0, cr0, [r2], {1}
 4c4:	000d0c0e 	andeq	r0, sp, lr, lsl #24
 4c8:	0000001c 	andeq	r0, r0, ip, lsl r0
 4cc:	000004b8 			; <UNDEFINED> instruction: 0x000004b8
 4d0:	00008f58 	andeq	r8, r0, r8, asr pc
 4d4:	00000154 	andeq	r0, r0, r4, asr r1
 4d8:	84180e42 	ldrhi	r0, [r8], #-3650	; 0xe42
 4dc:	86058506 	strhi	r8, [r5], -r6, lsl #10
 4e0:	88038704 	stmdahi	r3, {r2, r8, r9, sl, pc}
 4e4:	00018e02 	andeq	r8, r1, r2, lsl #28
 4e8:	00000020 	andeq	r0, r0, r0, lsr #32
 4ec:	000004b8 			; <UNDEFINED> instruction: 0x000004b8
 4f0:	000090ac 	andeq	r9, r0, ip, lsr #1
 4f4:	000001c8 	andeq	r0, r0, r8, asr #3
 4f8:	83200e42 	teqhi	r0, #1056	; 0x420
 4fc:	85078408 	strhi	r8, [r7, #-1032]	; 0x408
 500:	87058606 	strhi	r8, [r5, -r6, lsl #12]
 504:	89038804 	stmdbhi	r3, {r2, fp, pc}
 508:	00018e02 	andeq	r8, r1, r2, lsl #28
 50c:	00000024 	andeq	r0, r0, r4, lsr #32
 510:	000004b8 			; <UNDEFINED> instruction: 0x000004b8
 514:	00009274 	andeq	r9, r0, r4, ror r2
 518:	000000a4 	andeq	r0, r0, r4, lsr #1
 51c:	84200e42 	strthi	r0, [r0], #-3650	; 0xe42
 520:	86078508 	strhi	r8, [r7], -r8, lsl #10
 524:	88058706 	stmdahi	r5, {r1, r2, r8, r9, sl, pc}
 528:	8a038904 	bhi	e2940 <__bss_end__+0xd89f0>
 52c:	42018e02 	andmi	r8, r1, #2, 28
 530:	0000280e 	andeq	r2, r0, lr, lsl #16
 534:	00000020 	andeq	r0, r0, r0, lsr #32
 538:	000004b8 			; <UNDEFINED> instruction: 0x000004b8
 53c:	00009318 	andeq	r9, r0, r8, lsl r3
 540:	00000090 	muleq	r0, r0, r0
 544:	84180e42 	ldrhi	r0, [r8], #-3650	; 0xe42
 548:	86058506 	strhi	r8, [r5], -r6, lsl #10
 54c:	88038704 	stmdahi	r3, {r2, r8, r9, sl, pc}
 550:	42018e02 	andmi	r8, r1, #2, 28
 554:	0000200e 	andeq	r2, r0, lr
 558:	00000020 	andeq	r0, r0, r0, lsr #32
 55c:	000004b8 			; <UNDEFINED> instruction: 0x000004b8
 560:	000093a8 	andeq	r9, r0, r8, lsr #7
 564:	000000d4 	ldrdeq	r0, [r0], -r4
 568:	84180e42 	ldrhi	r0, [r8], #-3650	; 0xe42
 56c:	86058506 	strhi	r8, [r5], -r6, lsl #10
 570:	88038704 	stmdahi	r3, {r2, r8, r9, sl, pc}
 574:	42018e02 	andmi	r8, r1, #2, 28
 578:	0000200e 	andeq	r2, r0, lr
 57c:	00000014 	andeq	r0, r0, r4, lsl r0
 580:	000004b8 			; <UNDEFINED> instruction: 0x000004b8
 584:	0000947c 	andeq	r9, r0, ip, ror r4
 588:	0000003c 	andeq	r0, r0, ip, lsr r0
 58c:	83080e42 	movwhi	r0, #36418	; 0x8e42
 590:	00018e02 	andeq	r8, r1, r2, lsl #28
 594:	00000018 	andeq	r0, r0, r8, lsl r0
 598:	000004b8 			; <UNDEFINED> instruction: 0x000004b8
 59c:	000094b8 			; <UNDEFINED> instruction: 0x000094b8
 5a0:	0000002c 	andeq	r0, r0, ip, lsr #32
 5a4:	83100e42 	tsthi	r0, #1056	; 0x420
 5a8:	85038404 	strhi	r8, [r3, #-1028]	; 0x404
 5ac:	00018e02 	andeq	r8, r1, r2, lsl #28
 5b0:	00000024 	andeq	r0, r0, r4, lsr #32
 5b4:	000004b8 			; <UNDEFINED> instruction: 0x000004b8
 5b8:	000094e4 	andeq	r9, r0, r4, ror #9
 5bc:	00000090 	muleq	r0, r0, r0
 5c0:	810c0e42 	tsthi	ip, r2, asr #28
 5c4:	83028203 	movwhi	r8, #8707	; 0x2203
 5c8:	180e4201 	stmdane	lr, {r0, r9, lr}
 5cc:	05850684 	streq	r0, [r5, #1668]	; 0x684
 5d0:	0e42048e 	cdpeq	4, 4, cr0, cr2, cr14, {4}
 5d4:	000003f0 	strdeq	r0, [r0], -r0	; <UNPREDICTABLE>
 5d8:	00000014 	andeq	r0, r0, r4, lsl r0
 5dc:	000004b8 			; <UNDEFINED> instruction: 0x000004b8
 5e0:	00009574 	andeq	r9, r0, r4, ror r5
 5e4:	0000004c 	andeq	r0, r0, ip, asr #32
 5e8:	8e040e42 	cdphi	14, 0, cr0, cr4, cr2, {2}
 5ec:	100e4201 	andne	r4, lr, r1, lsl #4
 5f0:	0000000c 	andeq	r0, r0, ip
 5f4:	ffffffff 			; <UNDEFINED> instruction: 0xffffffff
 5f8:	7c020001 	stcvc	0, cr0, [r2], {1}
 5fc:	000d0c0e 	andeq	r0, sp, lr, lsl #24
 600:	00000018 	andeq	r0, r0, r8, lsl r0
 604:	000005f0 	strdeq	r0, [r0], -r0	; <UNPREDICTABLE>
 608:	000095c0 	andeq	r9, r0, r0, asr #11
 60c:	0000009c 	muleq	r0, ip, r0
 610:	83100e42 	tsthi	r0, #1056	; 0x420
 614:	85038404 	strhi	r8, [r3, #-1028]	; 0x404
 618:	00018e02 	andeq	r8, r1, r2, lsl #28
 61c:	00000014 	andeq	r0, r0, r4, lsl r0
 620:	000005f0 	strdeq	r0, [r0], -r0	; <UNPREDICTABLE>
 624:	0000965c 	andeq	r9, r0, ip, asr r6
 628:	0000001c 	andeq	r0, r0, ip, lsl r0
 62c:	83080e42 	movwhi	r0, #36418	; 0x8e42
 630:	00018e02 	andeq	r8, r1, r2, lsl #28
 634:	00000014 	andeq	r0, r0, r4, lsl r0
 638:	000005f0 	strdeq	r0, [r0], -r0	; <UNPREDICTABLE>
 63c:	00009678 	andeq	r9, r0, r8, ror r6
 640:	00000028 	andeq	r0, r0, r8, lsr #32
 644:	83080e42 	movwhi	r0, #36418	; 0x8e42
 648:	00018e02 	andeq	r8, r1, r2, lsl #28
 64c:	00000014 	andeq	r0, r0, r4, lsl r0
 650:	000005f0 	strdeq	r0, [r0], -r0	; <UNPREDICTABLE>
 654:	000096a0 	andeq	r9, r0, r0, lsr #13
 658:	0000001c 	andeq	r0, r0, ip, lsl r0
 65c:	83080e42 	movwhi	r0, #36418	; 0x8e42
 660:	00018e02 	andeq	r8, r1, r2, lsl #28
 664:	00000014 	andeq	r0, r0, r4, lsl r0
 668:	000005f0 	strdeq	r0, [r0], -r0	; <UNPREDICTABLE>
 66c:	000096bc 			; <UNDEFINED> instruction: 0x000096bc
 670:	0000002c 	andeq	r0, r0, ip, lsr #32
 674:	84080e42 	strhi	r0, [r8], #-3650	; 0xe42
 678:	00018e02 	andeq	r8, r1, r2, lsl #28
 67c:	00000014 	andeq	r0, r0, r4, lsl r0
 680:	000005f0 	strdeq	r0, [r0], -r0	; <UNPREDICTABLE>
 684:	000096e8 	andeq	r9, r0, r8, ror #13
 688:	0000000c 	andeq	r0, r0, ip
 68c:	83080e42 	movwhi	r0, #36418	; 0x8e42
 690:	00018e02 	andeq	r8, r1, r2, lsl #28
 694:	00000014 	andeq	r0, r0, r4, lsl r0
 698:	000005f0 	strdeq	r0, [r0], -r0	; <UNPREDICTABLE>
 69c:	000096f4 	strdeq	r9, [r0], -r4
 6a0:	00000020 	andeq	r0, r0, r0, lsr #32
 6a4:	83080e42 	movwhi	r0, #36418	; 0x8e42
 6a8:	00018e02 	andeq	r8, r1, r2, lsl #28
 6ac:	0000000c 	andeq	r0, r0, ip
 6b0:	ffffffff 			; <UNDEFINED> instruction: 0xffffffff
 6b4:	7c020001 	stcvc	0, cr0, [r2], {1}
 6b8:	000d0c0e 	andeq	r0, sp, lr, lsl #24
 6bc:	00000014 	andeq	r0, r0, r4, lsl r0
 6c0:	000006ac 	andeq	r0, r0, ip, lsr #13
 6c4:	00009778 	andeq	r9, r0, r8, ror r7
 6c8:	00000028 	andeq	r0, r0, r8, lsr #32
 6cc:	83080e42 	movwhi	r0, #36418	; 0x8e42
 6d0:	00018e02 	andeq	r8, r1, r2, lsl #28
 6d4:	0000000c 	andeq	r0, r0, ip
 6d8:	000006ac 	andeq	r0, r0, ip, lsr #13
 6dc:	000097a0 	andeq	r9, r0, r0, lsr #15
 6e0:	00000028 	andeq	r0, r0, r8, lsr #32
 6e4:	0000000c 	andeq	r0, r0, ip
 6e8:	ffffffff 			; <UNDEFINED> instruction: 0xffffffff
 6ec:	7c020001 	stcvc	0, cr0, [r2], {1}
 6f0:	000d0c0e 	andeq	r0, sp, lr, lsl #24
 6f4:	0000000c 	andeq	r0, r0, ip
 6f8:	000006e4 	andeq	r0, r0, r4, ror #13
 6fc:	000097c8 	andeq	r9, r0, r8, asr #15
 700:	00000020 	andeq	r0, r0, r0, lsr #32
