
scope.elf:     file format elf32-littlearm


Disassembly of section .text:

00008000 <_start>:
    8000:	e3a0d302 	mov	sp, #134217728	; 0x8000000
    8004:	e3a0b000 	mov	fp, #0
    8008:	eb00023a 	bl	88f8 <_cstart>
    800c:	eb000268 	bl	89b4 <rpi_reboot>

00008010 <cycles_per_sec>:
    8010:	e3500001 	cmp	r0, #1
    8014:	e92d4010 	push	{r4, lr}
    8018:	8a000006 	bhi	8038 <cycles_per_sec+0x28>
    801c:	ee1f4f3c 	mrc	15, 0, r4, cr15, cr12, {1}
    8020:	e3a03ffa 	mov	r3, #1000	; 0x3e8
    8024:	e0000093 	mul	r0, r3, r0
    8028:	eb00028b 	bl	8a5c <delay_ms>
    802c:	ee1f0f3c 	mrc	15, 0, r0, cr15, cr12, {1}
    8030:	e0640000 	rsb	r0, r4, r0
    8034:	e8bd8010 	pop	{r4, pc}
    8038:	eb0000b4 	bl	8310 <rpi_reset_putc>
    803c:	e59f1010 	ldr	r1, [pc, #16]	; 8054 <cycles_per_sec+0x44>
    8040:	e59f2010 	ldr	r2, [pc, #16]	; 8058 <cycles_per_sec+0x48>
    8044:	e3a03027 	mov	r3, #39	; 0x27
    8048:	e59f000c 	ldr	r0, [pc, #12]	; 805c <cycles_per_sec+0x4c>
    804c:	eb000094 	bl	82a4 <printk>
    8050:	eb000216 	bl	88b0 <clean_reboot>
    8054:	00009990 	muleq	r0, r0, r9
    8058:	00009950 	andeq	r9, r0, r0, asr r9
    805c:	00009960 	andeq	r9, r0, r0, ror #18

00008060 <scope>:
    8060:	e92d0ff0 	push	{r4, r5, r6, r7, r8, r9, sl, fp}
    8064:	e3a06001 	mov	r6, #1
    8068:	e1a06016 	lsl	r6, r6, r0
    806c:	e59f214c 	ldr	r2, [pc, #332]	; 81c0 <scope+0x160>
    8070:	e24dde32 	sub	sp, sp, #800	; 0x320
    8074:	e5923034 	ldr	r3, [r2, #52]	; 0x34
    8078:	e1a05000 	mov	r5, r0
    807c:	e0063003 	and	r3, r6, r3
    8080:	e1a03053 	asr	r3, r3, r0
    8084:	e5924034 	ldr	r4, [r2, #52]	; 0x34
    8088:	e0064004 	and	r4, r6, r4
    808c:	e1a04554 	asr	r4, r4, r5
    8090:	e1540003 	cmp	r4, r3
    8094:	0afffffa 	beq	8084 <scope+0x24>
    8098:	ee1f8f3c 	mrc	15, 0, r8, cr15, cr12, {1}
    809c:	e59f711c 	ldr	r7, [pc, #284]	; 81c0 <scope+0x160>
    80a0:	e3a02ffa 	mov	r2, #1000	; 0x3e8
    80a4:	e3a00000 	mov	r0, #0
    80a8:	ea000000 	b	80b0 <scope+0x50>
    80ac:	e1a04003 	mov	r4, r3
    80b0:	e5973034 	ldr	r3, [r7, #52]	; 0x34
    80b4:	e28d9e32 	add	r9, sp, #800	; 0x320
    80b8:	e0063003 	and	r3, r6, r3
    80bc:	e1a03553 	asr	r3, r3, r5
    80c0:	e1540003 	cmp	r4, r3
    80c4:	e089c180 	add	ip, r9, r0, lsl #3
    80c8:	0a000005 	beq	80e4 <scope+0x84>
    80cc:	e50c3320 	str	r3, [ip, #-800]	; 0x320
    80d0:	e24cce32 	sub	ip, ip, #800	; 0x320
    80d4:	ee1f4f3c 	mrc	15, 0, r4, cr15, cr12, {1}
    80d8:	e0684004 	rsb	r4, r8, r4
    80dc:	e58c4004 	str	r4, [ip, #4]
    80e0:	e2800001 	add	r0, r0, #1
    80e4:	e2522001 	subs	r2, r2, #1
    80e8:	1affffef 	bne	80ac <scope+0x4c>
    80ec:	e3500000 	cmp	r0, #0
    80f0:	0a00002c 	beq	81a8 <scope+0x148>
    80f4:	e3500002 	cmp	r0, #2
    80f8:	9a00002d 	bls	81b4 <scope+0x154>
    80fc:	e240b003 	sub	fp, r0, #3
    8100:	e3cbb001 	bic	fp, fp, #1
    8104:	e1a0a00d 	mov	sl, sp
    8108:	e59d8004 	ldr	r8, [sp, #4]
    810c:	e28bb002 	add	fp, fp, #2
    8110:	e1a0c002 	mov	ip, r2
    8114:	e1a0300d 	mov	r3, sp
    8118:	e1a04001 	mov	r4, r1
    811c:	ea000000 	b	8124 <scope+0xc4>
    8120:	e1a08006 	mov	r8, r6
    8124:	e593500c 	ldr	r5, [r3, #12]
    8128:	e5936014 	ldr	r6, [r3, #20]
    812c:	e5939000 	ldr	r9, [r3]
    8130:	e28cc002 	add	ip, ip, #2
    8134:	e5937008 	ldr	r7, [r3, #8]
    8138:	e7819182 	str	r9, [r1, r2, lsl #3]
    813c:	e0688005 	rsb	r8, r8, r5
    8140:	e0812182 	add	r2, r1, r2, lsl #3
    8144:	e0655006 	rsb	r5, r5, r6
    8148:	e15c000b 	cmp	ip, fp
    814c:	e5828004 	str	r8, [r2, #4]
    8150:	e2833010 	add	r3, r3, #16
    8154:	e584500c 	str	r5, [r4, #12]
    8158:	e5847008 	str	r7, [r4, #8]
    815c:	e1a0200c 	mov	r2, ip
    8160:	e2844010 	add	r4, r4, #16
    8164:	1affffed 	bne	8120 <scope+0xc0>
    8168:	e28cc001 	add	ip, ip, #1
    816c:	e08a318c 	add	r3, sl, ip, lsl #3
    8170:	e2833004 	add	r3, r3, #4
    8174:	ea000000 	b	817c <scope+0x11c>
    8178:	e28cc001 	add	ip, ip, #1
    817c:	e5134008 	ldr	r4, [r3, #-8]
    8180:	e5935000 	ldr	r5, [r3]
    8184:	e513600c 	ldr	r6, [r3, #-12]
    8188:	e0645005 	rsb	r5, r4, r5
    818c:	e15c0000 	cmp	ip, r0
    8190:	e0814182 	add	r4, r1, r2, lsl #3
    8194:	e7816182 	str	r6, [r1, r2, lsl #3]
    8198:	e2833008 	add	r3, r3, #8
    819c:	e5845004 	str	r5, [r4, #4]
    81a0:	e1a0200c 	mov	r2, ip
    81a4:	3afffff3 	bcc	8178 <scope+0x118>
    81a8:	e28dde32 	add	sp, sp, #800	; 0x320
    81ac:	e8bd0ff0 	pop	{r4, r5, r6, r7, r8, r9, sl, fp}
    81b0:	e12fff1e 	bx	lr
    81b4:	e1a0c002 	mov	ip, r2
    81b8:	e1a0a00d 	mov	sl, sp
    81bc:	eaffffe9 	b	8168 <scope+0x108>
    81c0:	20200000 	eorcs	r0, r0, r0

000081c4 <dump_samples>:
    81c4:	e92d47f0 	push	{r4, r5, r6, r7, r8, r9, sl, lr}
    81c8:	e2519001 	subs	r9, r1, #1
    81cc:	e24dd010 	sub	sp, sp, #16
    81d0:	e1a0a000 	mov	sl, r0
    81d4:	e1a08002 	mov	r8, r2
    81d8:	0a00001a 	beq	8248 <dump_samples+0x84>
    81dc:	e3a02000 	mov	r2, #0
    81e0:	e1a01002 	mov	r1, r2
    81e4:	e1a06002 	mov	r6, r2
    81e8:	e1a05002 	mov	r5, r2
    81ec:	e1a04008 	mov	r4, r8
    81f0:	ea000001 	b	81fc <dump_samples+0x38>
    81f4:	e1a01007 	mov	r1, r7
    81f8:	e1a02007 	mov	r2, r7
    81fc:	e1a02182 	lsl	r2, r2, #3
    8200:	e08a3002 	add	r3, sl, r2
    8204:	e5933004 	ldr	r3, [r3, #4]
    8208:	e79a2002 	ldr	r2, [sl, r2]
    820c:	e0855003 	add	r5, r5, r3
    8210:	e1550004 	cmp	r5, r4
    8214:	80640005 	rsbhi	r0, r4, r5
    8218:	90650004 	rsbls	r0, r5, r4
    821c:	e0866000 	add	r6, r6, r0
    8220:	e2817001 	add	r7, r1, #1
    8224:	e58d4004 	str	r4, [sp, #4]
    8228:	e58d0008 	str	r0, [sp, #8]
    822c:	e58d600c 	str	r6, [sp, #12]
    8230:	e58d5000 	str	r5, [sp]
    8234:	e59f0014 	ldr	r0, [pc, #20]	; 8250 <dump_samples+0x8c>
    8238:	eb000019 	bl	82a4 <printk>
    823c:	e1570009 	cmp	r7, r9
    8240:	e0844008 	add	r4, r4, r8
    8244:	1affffea 	bne	81f4 <dump_samples+0x30>
    8248:	e28dd010 	add	sp, sp, #16
    824c:	e8bd87f0 	pop	{r4, r5, r6, r7, r8, r9, sl, pc}
    8250:	00009998 	muleq	r0, r8, r9

00008254 <notmain>:
    8254:	e52de004 	push	{lr}		; (str lr, [sp, #-4]!)
    8258:	e24dd054 	sub	sp, sp, #84	; 0x54
    825c:	eb00018b 	bl	8890 <enable_cache>
    8260:	e3a00015 	mov	r0, #21
    8264:	eb000257 	bl	8bc8 <gpio_set_input>
    8268:	e3a03001 	mov	r3, #1
    826c:	ee0f3f1c 	mcr	15, 0, r3, cr15, cr12, {0}
    8270:	e3a00001 	mov	r0, #1
    8274:	ebffff65 	bl	8010 <cycles_per_sec>
    8278:	e1a0100d 	mov	r1, sp
    827c:	e1a03000 	mov	r3, r0
    8280:	e3a0200a 	mov	r2, #10
    8284:	e3a00015 	mov	r0, #21
    8288:	ebffff74 	bl	8060 <scope>
    828c:	e59f200c 	ldr	r2, [pc, #12]	; 82a0 <notmain+0x4c>
    8290:	e1a01000 	mov	r1, r0
    8294:	e1a0000d 	mov	r0, sp
    8298:	ebffffc9 	bl	81c4 <dump_samples>
    829c:	eb000183 	bl	88b0 <clean_reboot>
    82a0:	00001770 	andeq	r1, r0, r0, ror r7

000082a4 <printk>:
    82a4:	e92d000f 	push	{r0, r1, r2, r3}
    82a8:	e92d4030 	push	{r4, r5, lr}
    82ac:	e24dd00c 	sub	sp, sp, #12
    82b0:	e28d301c 	add	r3, sp, #28
    82b4:	e58d3004 	str	r3, [sp, #4]
    82b8:	e59f4034 	ldr	r4, [pc, #52]	; 82f4 <printk+0x50>
    82bc:	e1a00004 	mov	r0, r4
    82c0:	e3a01b01 	mov	r1, #1024	; 0x400
    82c4:	e59d2018 	ldr	r2, [sp, #24]
    82c8:	eb0000cb 	bl	85fc <va_printk>
    82cc:	e1a05000 	mov	r5, r0
    82d0:	e59f3020 	ldr	r3, [pc, #32]	; 82f8 <printk+0x54>
    82d4:	e5933000 	ldr	r3, [r3]
    82d8:	e1a00004 	mov	r0, r4
    82dc:	e12fff33 	blx	r3
    82e0:	e1a00005 	mov	r0, r5
    82e4:	e28dd00c 	add	sp, sp, #12
    82e8:	e8bd4030 	pop	{r4, r5, lr}
    82ec:	e28dd010 	add	sp, sp, #16
    82f0:	e12fff1e 	bx	lr
    82f4:	00009c10 	andeq	r9, r0, r0, lsl ip
    82f8:	000098b8 			; <UNDEFINED> instruction: 0x000098b8

000082fc <internal_putchar>:
    82fc:	e92d4010 	push	{r4, lr}
    8300:	e1a04000 	mov	r4, r0
    8304:	eb00051f 	bl	9788 <uart_putc>
    8308:	e1a00004 	mov	r0, r4
    830c:	e8bd8010 	pop	{r4, pc}

00008310 <rpi_reset_putc>:
    8310:	e59f2008 	ldr	r2, [pc, #8]	; 8320 <rpi_reset_putc+0x10>
    8314:	e59f3008 	ldr	r3, [pc, #8]	; 8324 <rpi_reset_putc+0x14>
    8318:	e5832000 	str	r2, [r3]
    831c:	e12fff1e 	bx	lr
    8320:	000082fc 	strdeq	r8, [r0], -ip
    8324:	000098b4 			; <UNDEFINED> instruction: 0x000098b4

00008328 <rpi_set_putc>:
    8328:	e59f3004 	ldr	r3, [pc, #4]	; 8334 <rpi_set_putc+0xc>
    832c:	e5830000 	str	r0, [r3]
    8330:	e12fff1e 	bx	lr
    8334:	000098b4 			; <UNDEFINED> instruction: 0x000098b4

00008338 <internal_putk>:
    8338:	e92d4038 	push	{r3, r4, r5, lr}
    833c:	e1a04000 	mov	r4, r0
    8340:	e59f5020 	ldr	r5, [pc, #32]	; 8368 <internal_putk+0x30>
    8344:	ea000002 	b	8354 <internal_putk+0x1c>
    8348:	e5953000 	ldr	r3, [r5]
    834c:	e12fff33 	blx	r3
    8350:	e2844001 	add	r4, r4, #1
    8354:	e5d40000 	ldrb	r0, [r4]
    8358:	e3500000 	cmp	r0, #0
    835c:	1afffff9 	bne	8348 <internal_putk+0x10>
    8360:	e3a00001 	mov	r0, #1
    8364:	e8bd8038 	pop	{r3, r4, r5, pc}
    8368:	000098b4 			; <UNDEFINED> instruction: 0x000098b4

0000836c <isdigit>:
    836c:	e2400030 	sub	r0, r0, #48	; 0x30
    8370:	e3500009 	cmp	r0, #9
    8374:	83a00000 	movhi	r0, #0
    8378:	93a00001 	movls	r0, #1
    837c:	e12fff1e 	bx	lr

00008380 <pad>:
    8380:	e0611000 	rsb	r1, r1, r0
    8384:	e3a03020 	mov	r3, #32
    8388:	ea000002 	b	8398 <pad+0x18>
    838c:	e5c03000 	strb	r3, [r0]
    8390:	e2811001 	add	r1, r1, #1
    8394:	e2800001 	add	r0, r0, #1
    8398:	e1510002 	cmp	r1, r2
    839c:	bafffffa 	blt	838c <pad+0xc>
    83a0:	e3a03000 	mov	r3, #0
    83a4:	e5c03000 	strb	r3, [r0]
    83a8:	e12fff1e 	bx	lr

000083ac <reverse>:
    83ac:	e063c002 	rsb	ip, r3, r2
    83b0:	e28cc001 	add	ip, ip, #1
    83b4:	e15c0001 	cmp	ip, r1
    83b8:	c061100c 	rsbgt	r1, r1, ip
    83bc:	c0833001 	addgt	r3, r3, r1
    83c0:	e2422001 	sub	r2, r2, #1
    83c4:	e1a01000 	mov	r1, r0
    83c8:	ea000002 	b	83d8 <reverse+0x2c>
    83cc:	e452c001 	ldrb	ip, [r2], #-1
    83d0:	e5c1c000 	strb	ip, [r1]
    83d4:	e2811001 	add	r1, r1, #1
    83d8:	e1520003 	cmp	r2, r3
    83dc:	2afffffa 	bcs	83cc <reverse+0x20>
    83e0:	e3a03000 	mov	r3, #0
    83e4:	e5c13000 	strb	r3, [r1]
    83e8:	e12fff1e 	bx	lr

000083ec <emit>:
    83ec:	e92d41f0 	push	{r4, r5, r6, r7, r8, lr}
    83f0:	e24dd048 	sub	sp, sp, #72	; 0x48
    83f4:	e1a05001 	mov	r5, r1
    83f8:	e1a04002 	mov	r4, r2
    83fc:	e59d2060 	ldr	r2, [sp, #96]	; 0x60
    8400:	e1520004 	cmp	r2, r4
    8404:	c2442001 	subgt	r2, r4, #1
    8408:	e1a0c003 	mov	ip, r3
    840c:	e2400002 	sub	r0, r0, #2
    8410:	e350000e 	cmp	r0, #14
    8414:	979ff100 	ldrls	pc, [pc, r0, lsl #2]
    8418:	ea000042 	b	8528 <emit+0x13c>
    841c:	00008500 	andeq	r8, r0, r0, lsl #10
    8420:	00008528 	andeq	r8, r0, r8, lsr #10
    8424:	00008528 	andeq	r8, r0, r8, lsr #10
    8428:	00008528 	andeq	r8, r0, r8, lsr #10
    842c:	00008528 	andeq	r8, r0, r8, lsr #10
    8430:	00008528 	andeq	r8, r0, r8, lsr #10
    8434:	000084f4 	strdeq	r8, [r0], -r4
    8438:	00008528 	andeq	r8, r0, r8, lsr #10
    843c:	00008458 	andeq	r8, r0, r8, asr r4
    8440:	00008528 	andeq	r8, r0, r8, lsr #10
    8444:	00008528 	andeq	r8, r0, r8, lsr #10
    8448:	00008528 	andeq	r8, r0, r8, lsr #10
    844c:	00008528 	andeq	r8, r0, r8, lsr #10
    8450:	00008528 	andeq	r8, r0, r8, lsr #10
    8454:	000084cc 	andeq	r8, r0, ip, asr #9
    8458:	e59d1064 	ldr	r1, [sp, #100]	; 0x64
    845c:	e2911000 	adds	r1, r1, #0
    8460:	13a01001 	movne	r1, #1
    8464:	e0111fa3 	ands	r1, r1, r3, lsr #31
    8468:	1263c000 	rsbne	ip, r3, #0
    846c:	13a08001 	movne	r8, #1
    8470:	03a08000 	moveq	r8, #0
    8474:	e28d1008 	add	r1, sp, #8
    8478:	e59f70f4 	ldr	r7, [pc, #244]	; 8574 <emit+0x188>
    847c:	e59f60f4 	ldr	r6, [pc, #244]	; 8578 <emit+0x18c>
    8480:	ea000000 	b	8488 <emit+0x9c>
    8484:	e1a01003 	mov	r1, r3
    8488:	e2813001 	add	r3, r1, #1
    848c:	e08e0c97 	umull	r0, lr, r7, ip
    8490:	e1a0e1ae 	lsr	lr, lr, #3
    8494:	e1a0000e 	mov	r0, lr
    8498:	e08ee10e 	add	lr, lr, lr, lsl #2
    849c:	e1a0e08e 	lsl	lr, lr, #1
    84a0:	e06ee00c 	rsb	lr, lr, ip
    84a4:	e7d6c00e 	ldrb	ip, [r6, lr]
    84a8:	e5c1c000 	strb	ip, [r1]
    84ac:	e1a0c000 	mov	ip, r0
    84b0:	e3500000 	cmp	r0, #0
    84b4:	1afffff2 	bne	8484 <emit+0x98>
    84b8:	e3580000 	cmp	r8, #0
    84bc:	12813002 	addne	r3, r1, #2
    84c0:	13a0002d 	movne	r0, #45	; 0x2d
    84c4:	15c10001 	strbne	r0, [r1, #1]
    84c8:	ea00001f 	b	854c <emit+0x160>
    84cc:	e28de008 	add	lr, sp, #8
    84d0:	e59f00a4 	ldr	r0, [pc, #164]	; 857c <emit+0x190>
    84d4:	e28e3001 	add	r3, lr, #1
    84d8:	e20c100f 	and	r1, ip, #15
    84dc:	e7d01001 	ldrb	r1, [r0, r1]
    84e0:	e5ce1000 	strb	r1, [lr]
    84e4:	e1a0e003 	mov	lr, r3
    84e8:	e1b0c22c 	lsrs	ip, ip, #4
    84ec:	1afffff8 	bne	84d4 <emit+0xe8>
    84f0:	ea000015 	b	854c <emit+0x160>
    84f4:	e5cd3008 	strb	r3, [sp, #8]
    84f8:	e28d3009 	add	r3, sp, #9
    84fc:	ea000012 	b	854c <emit+0x160>
    8500:	e28de008 	add	lr, sp, #8
    8504:	e59f0074 	ldr	r0, [pc, #116]	; 8580 <emit+0x194>
    8508:	e28e3001 	add	r3, lr, #1
    850c:	e20c1001 	and	r1, ip, #1
    8510:	e7d01001 	ldrb	r1, [r0, r1]
    8514:	e5ce1000 	strb	r1, [lr]
    8518:	e1a0e003 	mov	lr, r3
    851c:	e1b0c0ac 	lsrs	ip, ip, #1
    8520:	1afffff8 	bne	8508 <emit+0x11c>
    8524:	ea000008 	b	854c <emit+0x160>
    8528:	ebffff78 	bl	8310 <rpi_reset_putc>
    852c:	e59f3050 	ldr	r3, [pc, #80]	; 8584 <emit+0x198>
    8530:	e58d3000 	str	r3, [sp]
    8534:	e59f004c 	ldr	r0, [pc, #76]	; 8588 <emit+0x19c>
    8538:	e59f104c 	ldr	r1, [pc, #76]	; 858c <emit+0x1a0>
    853c:	e59f204c 	ldr	r2, [pc, #76]	; 8590 <emit+0x1a4>
    8540:	e3a03075 	mov	r3, #117	; 0x75
    8544:	ebffff56 	bl	82a4 <printk>
    8548:	eb0000d8 	bl	88b0 <clean_reboot>
    854c:	e1a00003 	mov	r0, r3
    8550:	e28d1008 	add	r1, sp, #8
    8554:	ebffff89 	bl	8380 <pad>
    8558:	e1a02000 	mov	r2, r0
    855c:	e1a00005 	mov	r0, r5
    8560:	e1a01004 	mov	r1, r4
    8564:	e28d3008 	add	r3, sp, #8
    8568:	ebffff8f 	bl	83ac <reverse>
    856c:	e28dd048 	add	sp, sp, #72	; 0x48
    8570:	e8bd81f0 	pop	{r4, r5, r6, r7, r8, pc}
    8574:	cccccccd 	stclgt	12, cr12, [ip], {205}	; 0xcd
    8578:	00009a24 	andeq	r9, r0, r4, lsr #20
    857c:	00009a30 	andeq	r9, r0, r0, lsr sl
    8580:	00009a44 	andeq	r9, r0, r4, asr #20
    8584:	00009a20 	andeq	r9, r0, r0, lsr #20
    8588:	000099f8 	strdeq	r9, [r0], -r8
    858c:	00009a0c 	andeq	r9, r0, ip, lsl #20
    8590:	000099d4 	ldrdeq	r9, [r0], -r4

00008594 <rpi_set_output>:
    8594:	e52de004 	push	{lr}		; (str lr, [sp, #-4]!)
    8598:	e24dd00c 	sub	sp, sp, #12
    859c:	e3500000 	cmp	r0, #0
    85a0:	1a000008 	bne	85c8 <rpi_set_output+0x34>
    85a4:	ebffff59 	bl	8310 <rpi_reset_putc>
    85a8:	e59f3034 	ldr	r3, [pc, #52]	; 85e4 <rpi_set_output+0x50>
    85ac:	e58d3000 	str	r3, [sp]
    85b0:	e59f0030 	ldr	r0, [pc, #48]	; 85e8 <rpi_set_output+0x54>
    85b4:	e59f1030 	ldr	r1, [pc, #48]	; 85ec <rpi_set_output+0x58>
    85b8:	e59f2030 	ldr	r2, [pc, #48]	; 85f0 <rpi_set_output+0x5c>
    85bc:	e3a03020 	mov	r3, #32
    85c0:	ebffff37 	bl	82a4 <printk>
    85c4:	eb0000b9 	bl	88b0 <clean_reboot>
    85c8:	e59f3024 	ldr	r3, [pc, #36]	; 85f4 <rpi_set_output+0x60>
    85cc:	e5830000 	str	r0, [r3]
    85d0:	e3510000 	cmp	r1, #0
    85d4:	159f301c 	ldrne	r3, [pc, #28]	; 85f8 <rpi_set_output+0x64>
    85d8:	15831000 	strne	r1, [r3]
    85dc:	e28dd00c 	add	sp, sp, #12
    85e0:	e49df004 	pop	{pc}		; (ldr pc, [sp], #4)
    85e4:	00009a48 	andeq	r9, r0, r8, asr #20
    85e8:	000099f8 	strdeq	r9, [r0], -r8
    85ec:	00009a0c 	andeq	r9, r0, ip, lsl #20
    85f0:	000099dc 	ldrdeq	r9, [r0], -ip
    85f4:	000098b4 			; <UNDEFINED> instruction: 0x000098b4
    85f8:	000098b8 			; <UNDEFINED> instruction: 0x000098b8

000085fc <va_printk>:
    85fc:	e92d4ff0 	push	{r4, r5, r6, r7, r8, r9, sl, fp, lr}
    8600:	e24dd08c 	sub	sp, sp, #140	; 0x8c
    8604:	e1a0a000 	mov	sl, r0
    8608:	e1a09003 	mov	r9, r3
    860c:	e2411001 	sub	r1, r1, #1
    8610:	e0808001 	add	r8, r0, r1
    8614:	e3a03000 	mov	r3, #0
    8618:	e5c03000 	strb	r3, [r0]
    861c:	e1a04000 	mov	r4, r0
    8620:	e1a0b003 	mov	fp, r3
    8624:	ea000088 	b	884c <va_printk+0x250>
    8628:	e3530025 	cmp	r3, #37	; 0x25
    862c:	12822001 	addne	r2, r2, #1
    8630:	15c43000 	strbne	r3, [r4]
    8634:	12844001 	addne	r4, r4, #1
    8638:	1a000083 	bne	884c <va_printk+0x250>
    863c:	e5d21001 	ldrb	r1, [r2, #1]
    8640:	e3510025 	cmp	r1, #37	; 0x25
    8644:	05c43000 	strbeq	r3, [r4]
    8648:	02822002 	addeq	r2, r2, #2
    864c:	02844001 	addeq	r4, r4, #1
    8650:	0a00007d 	beq	884c <va_printk+0x250>
    8654:	e2826001 	add	r6, r2, #1
    8658:	e1a0700b 	mov	r7, fp
    865c:	ea000004 	b	8674 <va_printk+0x78>
    8660:	e0877107 	add	r7, r7, r7, lsl #2
    8664:	e1a07087 	lsl	r7, r7, #1
    8668:	e0877005 	add	r7, r7, r5
    866c:	e2477030 	sub	r7, r7, #48	; 0x30
    8670:	e2866001 	add	r6, r6, #1
    8674:	e5d65000 	ldrb	r5, [r6]
    8678:	e1a00005 	mov	r0, r5
    867c:	ebffff3a 	bl	836c <isdigit>
    8680:	e3500000 	cmp	r0, #0
    8684:	1afffff5 	bne	8660 <va_printk+0x64>
    8688:	e357001f 	cmp	r7, #31
    868c:	9a000008 	bls	86b4 <va_printk+0xb8>
    8690:	ebffff1e 	bl	8310 <rpi_reset_putc>
    8694:	e59f31dc 	ldr	r3, [pc, #476]	; 8878 <va_printk+0x27c>
    8698:	e58d3000 	str	r3, [sp]
    869c:	e59f01d8 	ldr	r0, [pc, #472]	; 887c <va_printk+0x280>
    86a0:	e59f11d8 	ldr	r1, [pc, #472]	; 8880 <va_printk+0x284>
    86a4:	e59f21d8 	ldr	r2, [pc, #472]	; 8884 <va_printk+0x288>
    86a8:	e3a03092 	mov	r3, #146	; 0x92
    86ac:	ebfffefc 	bl	82a4 <printk>
    86b0:	eb00007e 	bl	88b0 <clean_reboot>
    86b4:	e2455062 	sub	r5, r5, #98	; 0x62
    86b8:	e3550016 	cmp	r5, #22
    86bc:	979ff105 	ldrls	pc, [pc, r5, lsl #2]
    86c0:	ea00004e 	b	8800 <va_printk+0x204>
    86c4:	000087ac 	andeq	r8, r0, ip, lsr #15
    86c8:	000087dc 	ldrdeq	r8, [r0], -ip
    86cc:	0000873c 	andeq	r8, r0, ip, lsr r7
    86d0:	00008800 	andeq	r8, r0, r0, lsl #16
    86d4:	00008720 	andeq	r8, r0, r0, lsr #14
    86d8:	00008800 	andeq	r8, r0, r0, lsl #16
    86dc:	00008800 	andeq	r8, r0, r0, lsl #16
    86e0:	00008800 	andeq	r8, r0, r0, lsl #16
    86e4:	00008800 	andeq	r8, r0, r0, lsl #16
    86e8:	00008800 	andeq	r8, r0, r0, lsl #16
    86ec:	00008800 	andeq	r8, r0, r0, lsl #16
    86f0:	00008800 	andeq	r8, r0, r0, lsl #16
    86f4:	00008800 	andeq	r8, r0, r0, lsl #16
    86f8:	00008800 	andeq	r8, r0, r0, lsl #16
    86fc:	00008788 	andeq	r8, r0, r8, lsl #15
    8700:	00008800 	andeq	r8, r0, r0, lsl #16
    8704:	00008800 	andeq	r8, r0, r0, lsl #16
    8708:	000087d0 	ldrdeq	r8, [r0], -r0
    870c:	00008800 	andeq	r8, r0, r0, lsl #16
    8710:	00008764 	andeq	r8, r0, r4, ror #14
    8714:	00008800 	andeq	r8, r0, r0, lsl #16
    8718:	00008800 	andeq	r8, r0, r0, lsl #16
    871c:	00008788 	andeq	r8, r0, r8, lsl #15
    8720:	ebfffefa 	bl	8310 <rpi_reset_putc>
    8724:	e59f015c 	ldr	r0, [pc, #348]	; 8888 <va_printk+0x28c>
    8728:	e59f1150 	ldr	r1, [pc, #336]	; 8880 <va_printk+0x284>
    872c:	e59f2150 	ldr	r2, [pc, #336]	; 8884 <va_printk+0x288>
    8730:	e3a03098 	mov	r3, #152	; 0x98
    8734:	ebfffeda 	bl	82a4 <printk>
    8738:	eb00005c 	bl	88b0 <clean_reboot>
    873c:	e5993000 	ldr	r3, [r9]
    8740:	e2899004 	add	r9, r9, #4
    8744:	e58d7000 	str	r7, [sp]
    8748:	e3a02001 	mov	r2, #1
    874c:	e58d2004 	str	r2, [sp, #4]
    8750:	e3a0000a 	mov	r0, #10
    8754:	e28d1008 	add	r1, sp, #8
    8758:	e3a02080 	mov	r2, #128	; 0x80
    875c:	ebffff22 	bl	83ec <emit>
    8760:	ea00002f 	b	8824 <va_printk+0x228>
    8764:	e5993000 	ldr	r3, [r9]
    8768:	e2899004 	add	r9, r9, #4
    876c:	e58d7000 	str	r7, [sp]
    8770:	e58db004 	str	fp, [sp, #4]
    8774:	e3a0000a 	mov	r0, #10
    8778:	e28d1008 	add	r1, sp, #8
    877c:	e3a02080 	mov	r2, #128	; 0x80
    8780:	ebffff19 	bl	83ec <emit>
    8784:	ea000026 	b	8824 <va_printk+0x228>
    8788:	e5993000 	ldr	r3, [r9]
    878c:	e2899004 	add	r9, r9, #4
    8790:	e58d7000 	str	r7, [sp]
    8794:	e58db004 	str	fp, [sp, #4]
    8798:	e3a00010 	mov	r0, #16
    879c:	e28d1008 	add	r1, sp, #8
    87a0:	e3a02080 	mov	r2, #128	; 0x80
    87a4:	ebffff10 	bl	83ec <emit>
    87a8:	ea00001d 	b	8824 <va_printk+0x228>
    87ac:	e5993000 	ldr	r3, [r9]
    87b0:	e2899004 	add	r9, r9, #4
    87b4:	e58d7000 	str	r7, [sp]
    87b8:	e58db004 	str	fp, [sp, #4]
    87bc:	e3a00002 	mov	r0, #2
    87c0:	e28d1008 	add	r1, sp, #8
    87c4:	e3a02080 	mov	r2, #128	; 0x80
    87c8:	ebffff07 	bl	83ec <emit>
    87cc:	ea000014 	b	8824 <va_printk+0x228>
    87d0:	e5990000 	ldr	r0, [r9]
    87d4:	e2899004 	add	r9, r9, #4
    87d8:	ea000011 	b	8824 <va_printk+0x228>
    87dc:	e5993000 	ldr	r3, [r9]
    87e0:	e2899004 	add	r9, r9, #4
    87e4:	e58d7000 	str	r7, [sp]
    87e8:	e58db004 	str	fp, [sp, #4]
    87ec:	e3a00008 	mov	r0, #8
    87f0:	e08d1000 	add	r1, sp, r0
    87f4:	e3a02080 	mov	r2, #128	; 0x80
    87f8:	ebfffefb 	bl	83ec <emit>
    87fc:	ea000008 	b	8824 <va_printk+0x228>
    8800:	ebfffec2 	bl	8310 <rpi_reset_putc>
    8804:	e5d63000 	ldrb	r3, [r6]
    8808:	e58d3000 	str	r3, [sp]
    880c:	e59f0078 	ldr	r0, [pc, #120]	; 888c <va_printk+0x290>
    8810:	e59f1068 	ldr	r1, [pc, #104]	; 8880 <va_printk+0x284>
    8814:	e59f2068 	ldr	r2, [pc, #104]	; 8884 <va_printk+0x288>
    8818:	e3a030b9 	mov	r3, #185	; 0xb9
    881c:	ebfffea0 	bl	82a4 <printk>
    8820:	eb000022 	bl	88b0 <clean_reboot>
    8824:	e2862001 	add	r2, r6, #1
    8828:	ea000002 	b	8838 <va_printk+0x23c>
    882c:	e2800001 	add	r0, r0, #1
    8830:	e5c43000 	strb	r3, [r4]
    8834:	e2844001 	add	r4, r4, #1
    8838:	e1540008 	cmp	r4, r8
    883c:	2a000002 	bcs	884c <va_printk+0x250>
    8840:	e5d03000 	ldrb	r3, [r0]
    8844:	e3530000 	cmp	r3, #0
    8848:	1afffff7 	bne	882c <va_printk+0x230>
    884c:	e5d23000 	ldrb	r3, [r2]
    8850:	e3530000 	cmp	r3, #0
    8854:	0a000001 	beq	8860 <va_printk+0x264>
    8858:	e1540008 	cmp	r4, r8
    885c:	3affff71 	bcc	8628 <va_printk+0x2c>
    8860:	e2840001 	add	r0, r4, #1
    8864:	e3a03000 	mov	r3, #0
    8868:	e5c43000 	strb	r3, [r4]
    886c:	e06a0000 	rsb	r0, sl, r0
    8870:	e28dd08c 	add	sp, sp, #140	; 0x8c
    8874:	e8bd8ff0 	pop	{r4, r5, r6, r7, r8, r9, sl, fp, pc}
    8878:	00009a50 	andeq	r9, r0, r0, asr sl
    887c:	000099f8 	strdeq	r9, [r0], -r8
    8880:	00009a0c 	andeq	r9, r0, ip, lsl #20
    8884:	000099ec 	andeq	r9, r0, ip, ror #19
    8888:	00009a5c 	andeq	r9, r0, ip, asr sl
    888c:	00009a84 	andeq	r9, r0, r4, lsl #21

00008890 <enable_cache>:
    8890:	ee113f10 	mrc	15, 0, r3, cr1, cr0, {0}
    8894:	e3833b06 	orr	r3, r3, #6144	; 0x1800
    8898:	ee013f10 	mcr	15, 0, r3, cr1, cr0, {0}
    889c:	e12fff1e 	bx	lr

000088a0 <disable_cache>:
    88a0:	ee113f10 	mrc	15, 0, r3, cr1, cr0, {0}
    88a4:	e3c33b06 	bic	r3, r3, #6144	; 0x1800
    88a8:	ee013f10 	mcr	15, 0, r3, cr1, cr0, {0}
    88ac:	e12fff1e 	bx	lr

000088b0 <clean_reboot>:
    88b0:	e92d4008 	push	{r3, lr}
    88b4:	e59f3014 	ldr	r3, [pc, #20]	; 88d0 <clean_reboot+0x20>
    88b8:	e5933000 	ldr	r3, [r3]
    88bc:	e59f0010 	ldr	r0, [pc, #16]	; 88d4 <clean_reboot+0x24>
    88c0:	e12fff33 	blx	r3
    88c4:	e3a00064 	mov	r0, #100	; 0x64
    88c8:	eb000063 	bl	8a5c <delay_ms>
    88cc:	eb000038 	bl	89b4 <rpi_reboot>
    88d0:	000098b8 			; <UNDEFINED> instruction: 0x000098b8
    88d4:	00009abc 			; <UNDEFINED> instruction: 0x00009abc

000088d8 <internal_sw_putchar>:
    88d8:	e92d4010 	push	{r4, lr}
    88dc:	e1a04000 	mov	r4, r0
    88e0:	e59f000c 	ldr	r0, [pc, #12]	; 88f4 <internal_sw_putchar+0x1c>
    88e4:	e6ef1074 	uxtb	r1, r4
    88e8:	eb0001cd 	bl	9024 <sw_uart_putc>
    88ec:	e1a00004 	mov	r0, r4
    88f0:	e8bd8010 	pop	{r4, pc}
    88f4:	0000a010 	andeq	sl, r0, r0, lsl r0

000088f8 <_cstart>:
    88f8:	e92d4008 	push	{r3, lr}
    88fc:	e59f3068 	ldr	r3, [pc, #104]	; 896c <_cstart+0x74>
    8900:	e59f2068 	ldr	r2, [pc, #104]	; 8970 <_cstart+0x78>
    8904:	e3a01000 	mov	r1, #0
    8908:	ea000001 	b	8914 <_cstart+0x1c>
    890c:	e5831000 	str	r1, [r3]
    8910:	e2833004 	add	r3, r3, #4
    8914:	e1530002 	cmp	r3, r2
    8918:	3afffffb 	bcc	890c <_cstart+0x14>
    891c:	eb0003d2 	bl	986c <cb_get_block>
    8920:	e3500000 	cmp	r0, #0
    8924:	0a00000e 	beq	8964 <_cstart+0x6c>
    8928:	e5d02004 	ldrb	r2, [r0, #4]
    892c:	e3520002 	cmp	r2, #2
    8930:	1a00000b 	bne	8964 <_cstart+0x6c>
    8934:	e59f1038 	ldr	r1, [pc, #56]	; 8974 <_cstart+0x7c>
    8938:	e59f2038 	ldr	r2, [pc, #56]	; 8978 <_cstart+0x80>
    893c:	e5821000 	str	r1, [r2]
    8940:	e59fc034 	ldr	ip, [pc, #52]	; 897c <_cstart+0x84>
    8944:	e2803008 	add	r3, r0, #8
    8948:	e8930007 	ldm	r3, {r0, r1, r2}
    894c:	e88c0007 	stm	ip, {r0, r1, r2}
    8950:	e1a0000c 	mov	r0, ip
    8954:	e59f1024 	ldr	r1, [pc, #36]	; 8980 <_cstart+0x88>
    8958:	eb000314 	bl	95b0 <sw_uart_printk>
    895c:	e59f0020 	ldr	r0, [pc, #32]	; 8984 <_cstart+0x8c>
    8960:	ebfffe4f 	bl	82a4 <printk>
    8964:	ebfffe3a 	bl	8254 <notmain>
    8968:	eb000011 	bl	89b4 <rpi_reboot>
    896c:	00009c10 	andeq	r9, r0, r0, lsl ip
    8970:	0000a020 	andeq	sl, r0, r0, lsr #32
    8974:	000088d8 	ldrdeq	r8, [r0], -r8	; <UNPREDICTABLE>
    8978:	000098b4 			; <UNDEFINED> instruction: 0x000098b4
    897c:	0000a010 	andeq	sl, r0, r0, lsl r0
    8980:	00009ac8 	andeq	r9, r0, r8, asr #21
    8984:	00009aec 	andeq	r9, r0, ip, ror #21

00008988 <at_user_level>:
    8988:	e10f0000 	mrs	r0, CPSR
    898c:	e200001f 	and	r0, r0, #31
    8990:	e3500010 	cmp	r0, #16
    8994:	13a00000 	movne	r0, #0
    8998:	03a00001 	moveq	r0, #1
    899c:	e12fff1e 	bx	lr

000089a0 <set_user_level>:
    89a0:	e10f3000 	mrs	r3, CPSR
    89a4:	e3c3301f 	bic	r3, r3, #31
    89a8:	e3833010 	orr	r3, r3, #16
    89ac:	e129f003 	msr	CPSR_fc, r3
    89b0:	e12fff1e 	bx	lr

000089b4 <rpi_reboot>:
    89b4:	e92d4008 	push	{r3, lr}
    89b8:	ebfffff2 	bl	8988 <at_user_level>
    89bc:	e3500000 	cmp	r0, #0
    89c0:	0a000000 	beq	89c8 <rpi_reboot+0x14>
    89c4:	ebfffff5 	bl	89a0 <set_user_level>
    89c8:	e3a0001e 	mov	r0, #30
    89cc:	eb000022 	bl	8a5c <delay_ms>
    89d0:	e59f0014 	ldr	r0, [pc, #20]	; 89ec <rpi_reboot+0x38>
    89d4:	e59f1014 	ldr	r1, [pc, #20]	; 89f0 <rpi_reboot+0x3c>
    89d8:	eb000388 	bl	9800 <PUT32>
    89dc:	e59f0010 	ldr	r0, [pc, #16]	; 89f4 <rpi_reboot+0x40>
    89e0:	e59f1010 	ldr	r1, [pc, #16]	; 89f8 <rpi_reboot+0x44>
    89e4:	eb000385 	bl	9800 <PUT32>
    89e8:	eafffffe 	b	89e8 <rpi_reboot+0x34>
    89ec:	20100024 	andscs	r0, r0, r4, lsr #32
    89f0:	5a000001 	bpl	89fc <delay_cycles>
    89f4:	2010001c 	andscs	r0, r0, ip, lsl r0
    89f8:	5a000020 	bpl	8a80 <delay_sec+0x10>

000089fc <delay_cycles>:
    89fc:	ea000001 	b	8a08 <delay_cycles+0xc>
    8a00:	e2811000 	add	r1, r1, #0
    8a04:	e1a00003 	mov	r0, r3
    8a08:	e2403001 	sub	r3, r0, #1
    8a0c:	e3500000 	cmp	r0, #0
    8a10:	1afffffa 	bne	8a00 <delay_cycles+0x4>
    8a14:	e12fff1e 	bx	lr

00008a18 <timer_get_usec_raw>:
    8a18:	e92d4008 	push	{r3, lr}
    8a1c:	e59f0004 	ldr	r0, [pc, #4]	; 8a28 <timer_get_usec_raw+0x10>
    8a20:	eb000382 	bl	9830 <GET32>
    8a24:	e8bd8008 	pop	{r3, pc}
    8a28:	20003004 	andcs	r3, r0, r4

00008a2c <timer_get_usec>:
    8a2c:	e92d4008 	push	{r3, lr}
    8a30:	ebfffff8 	bl	8a18 <timer_get_usec_raw>
    8a34:	e8bd8008 	pop	{r3, pc}

00008a38 <delay_us>:
    8a38:	e92d4038 	push	{r3, r4, r5, lr}
    8a3c:	e1a05000 	mov	r5, r0
    8a40:	ebfffff9 	bl	8a2c <timer_get_usec>
    8a44:	e1a04000 	mov	r4, r0
    8a48:	ebfffff7 	bl	8a2c <timer_get_usec>
    8a4c:	e0640000 	rsb	r0, r4, r0
    8a50:	e1500005 	cmp	r0, r5
    8a54:	3afffffb 	bcc	8a48 <delay_us+0x10>
    8a58:	e8bd8038 	pop	{r3, r4, r5, pc}

00008a5c <delay_ms>:
    8a5c:	e92d4008 	push	{r3, lr}
    8a60:	e3a03ffa 	mov	r3, #1000	; 0x3e8
    8a64:	e0000093 	mul	r0, r3, r0
    8a68:	ebfffff2 	bl	8a38 <delay_us>
    8a6c:	e8bd8008 	pop	{r3, pc}

00008a70 <delay_sec>:
    8a70:	e92d4008 	push	{r3, lr}
    8a74:	e3a03ffa 	mov	r3, #1000	; 0x3e8
    8a78:	e0000093 	mul	r0, r3, r0
    8a7c:	ebfffff6 	bl	8a5c <delay_ms>
    8a80:	e8bd8008 	pop	{r3, pc}

00008a84 <gpio_set_output>:
    8a84:	e92d4038 	push	{r3, r4, r5, lr}
    8a88:	e1a04000 	mov	r4, r0
    8a8c:	e350001f 	cmp	r0, #31
    8a90:	88bd8038 	pophi	{r3, r4, r5, pc}
    8a94:	e59f30b4 	ldr	r3, [pc, #180]	; 8b50 <gpio_set_output+0xcc>
    8a98:	e0832093 	umull	r2, r3, r3, r0
    8a9c:	e1a031a3 	lsr	r3, r3, #3
    8aa0:	e3530005 	cmp	r3, #5
    8aa4:	979ff103 	ldrls	pc, [pc, r3, lsl #2]
    8aa8:	ea000017 	b	8b0c <gpio_set_output+0x88>
    8aac:	00008ac4 	andeq	r8, r0, r4, asr #21
    8ab0:	00008ad0 	ldrdeq	r8, [r0], -r0
    8ab4:	00008adc 	ldrdeq	r8, [r0], -ip
    8ab8:	00008ae8 	andeq	r8, r0, r8, ror #21
    8abc:	00008af4 	strdeq	r8, [r0], -r4
    8ac0:	00008b00 	andeq	r8, r0, r0, lsl #22
    8ac4:	e59f3088 	ldr	r3, [pc, #136]	; 8b54 <gpio_set_output+0xd0>
    8ac8:	e5935000 	ldr	r5, [r3]
    8acc:	ea00000f 	b	8b10 <gpio_set_output+0x8c>
    8ad0:	e59f307c 	ldr	r3, [pc, #124]	; 8b54 <gpio_set_output+0xd0>
    8ad4:	e5935004 	ldr	r5, [r3, #4]
    8ad8:	ea00000c 	b	8b10 <gpio_set_output+0x8c>
    8adc:	e59f3070 	ldr	r3, [pc, #112]	; 8b54 <gpio_set_output+0xd0>
    8ae0:	e5935008 	ldr	r5, [r3, #8]
    8ae4:	ea000009 	b	8b10 <gpio_set_output+0x8c>
    8ae8:	e59f3064 	ldr	r3, [pc, #100]	; 8b54 <gpio_set_output+0xd0>
    8aec:	e593500c 	ldr	r5, [r3, #12]
    8af0:	ea000006 	b	8b10 <gpio_set_output+0x8c>
    8af4:	e59f3058 	ldr	r3, [pc, #88]	; 8b54 <gpio_set_output+0xd0>
    8af8:	e5935010 	ldr	r5, [r3, #16]
    8afc:	ea000003 	b	8b10 <gpio_set_output+0x8c>
    8b00:	e59f304c 	ldr	r3, [pc, #76]	; 8b54 <gpio_set_output+0xd0>
    8b04:	e5935014 	ldr	r5, [r3, #20]
    8b08:	ea000000 	b	8b10 <gpio_set_output+0x8c>
    8b0c:	e3a05000 	mov	r5, #0
    8b10:	e1a00005 	mov	r0, r5
    8b14:	eb000343 	bl	9828 <get32>
    8b18:	e59f1030 	ldr	r1, [pc, #48]	; 8b50 <gpio_set_output+0xcc>
    8b1c:	e0813491 	umull	r3, r1, r1, r4
    8b20:	e1a011a1 	lsr	r1, r1, #3
    8b24:	e0811101 	add	r1, r1, r1, lsl #2
    8b28:	e1a01081 	lsl	r1, r1, #1
    8b2c:	e0611004 	rsb	r1, r1, r4
    8b30:	e0811081 	add	r1, r1, r1, lsl #1
    8b34:	e3a03007 	mov	r3, #7
    8b38:	e1c03113 	bic	r3, r0, r3, lsl r1
    8b3c:	e1a00005 	mov	r0, r5
    8b40:	e3a02001 	mov	r2, #1
    8b44:	e1831112 	orr	r1, r3, r2, lsl r1
    8b48:	eb00032a 	bl	97f8 <put32>
    8b4c:	e8bd8038 	pop	{r3, r4, r5, pc}
    8b50:	cccccccd 	stclgt	12, cr12, [ip], {205}	; 0xcd
    8b54:	000098bc 			; <UNDEFINED> instruction: 0x000098bc

00008b58 <gpio_set_on>:
    8b58:	e92d4008 	push	{r3, lr}
    8b5c:	e350001f 	cmp	r0, #31
    8b60:	88bd8008 	pophi	{r3, pc}
    8b64:	959f3020 	ldrls	r3, [pc, #32]	; 8b8c <gpio_set_on+0x34>
    8b68:	95932018 	ldrls	r2, [r3, #24]
    8b6c:	859f3018 	ldrhi	r3, [pc, #24]	; 8b8c <gpio_set_on+0x34>
    8b70:	8593201c 	ldrhi	r2, [r3, #28]
    8b74:	e200301f 	and	r3, r0, #31
    8b78:	e1a00002 	mov	r0, r2
    8b7c:	e3a01001 	mov	r1, #1
    8b80:	e1a01311 	lsl	r1, r1, r3
    8b84:	eb00031b 	bl	97f8 <put32>
    8b88:	e8bd8008 	pop	{r3, pc}
    8b8c:	000098bc 			; <UNDEFINED> instruction: 0x000098bc

00008b90 <gpio_set_off>:
    8b90:	e92d4008 	push	{r3, lr}
    8b94:	e350001f 	cmp	r0, #31
    8b98:	88bd8008 	pophi	{r3, pc}
    8b9c:	959f3020 	ldrls	r3, [pc, #32]	; 8bc4 <gpio_set_off+0x34>
    8ba0:	95932020 	ldrls	r2, [r3, #32]
    8ba4:	859f3018 	ldrhi	r3, [pc, #24]	; 8bc4 <gpio_set_off+0x34>
    8ba8:	85932024 	ldrhi	r2, [r3, #36]	; 0x24
    8bac:	e200301f 	and	r3, r0, #31
    8bb0:	e1a00002 	mov	r0, r2
    8bb4:	e3a01001 	mov	r1, #1
    8bb8:	e1a01311 	lsl	r1, r1, r3
    8bbc:	eb00030d 	bl	97f8 <put32>
    8bc0:	e8bd8008 	pop	{r3, pc}
    8bc4:	000098bc 			; <UNDEFINED> instruction: 0x000098bc

00008bc8 <gpio_set_input>:
    8bc8:	e92d4038 	push	{r3, r4, r5, lr}
    8bcc:	e1a04000 	mov	r4, r0
    8bd0:	e350001f 	cmp	r0, #31
    8bd4:	88bd8038 	pophi	{r3, r4, r5, pc}
    8bd8:	e59f30ac 	ldr	r3, [pc, #172]	; 8c8c <gpio_set_input+0xc4>
    8bdc:	e0832093 	umull	r2, r3, r3, r0
    8be0:	e1a031a3 	lsr	r3, r3, #3
    8be4:	e3530005 	cmp	r3, #5
    8be8:	979ff103 	ldrls	pc, [pc, r3, lsl #2]
    8bec:	ea000017 	b	8c50 <gpio_set_input+0x88>
    8bf0:	00008c08 	andeq	r8, r0, r8, lsl #24
    8bf4:	00008c14 	andeq	r8, r0, r4, lsl ip
    8bf8:	00008c20 	andeq	r8, r0, r0, lsr #24
    8bfc:	00008c2c 	andeq	r8, r0, ip, lsr #24
    8c00:	00008c38 	andeq	r8, r0, r8, lsr ip
    8c04:	00008c44 	andeq	r8, r0, r4, asr #24
    8c08:	e59f3080 	ldr	r3, [pc, #128]	; 8c90 <gpio_set_input+0xc8>
    8c0c:	e5935000 	ldr	r5, [r3]
    8c10:	ea00000f 	b	8c54 <gpio_set_input+0x8c>
    8c14:	e59f3074 	ldr	r3, [pc, #116]	; 8c90 <gpio_set_input+0xc8>
    8c18:	e5935004 	ldr	r5, [r3, #4]
    8c1c:	ea00000c 	b	8c54 <gpio_set_input+0x8c>
    8c20:	e59f3068 	ldr	r3, [pc, #104]	; 8c90 <gpio_set_input+0xc8>
    8c24:	e5935008 	ldr	r5, [r3, #8]
    8c28:	ea000009 	b	8c54 <gpio_set_input+0x8c>
    8c2c:	e59f305c 	ldr	r3, [pc, #92]	; 8c90 <gpio_set_input+0xc8>
    8c30:	e593500c 	ldr	r5, [r3, #12]
    8c34:	ea000006 	b	8c54 <gpio_set_input+0x8c>
    8c38:	e59f3050 	ldr	r3, [pc, #80]	; 8c90 <gpio_set_input+0xc8>
    8c3c:	e5935010 	ldr	r5, [r3, #16]
    8c40:	ea000003 	b	8c54 <gpio_set_input+0x8c>
    8c44:	e59f3044 	ldr	r3, [pc, #68]	; 8c90 <gpio_set_input+0xc8>
    8c48:	e5935014 	ldr	r5, [r3, #20]
    8c4c:	ea000000 	b	8c54 <gpio_set_input+0x8c>
    8c50:	e3a05000 	mov	r5, #0
    8c54:	e1a00005 	mov	r0, r5
    8c58:	eb0002f2 	bl	9828 <get32>
    8c5c:	e59f1028 	ldr	r1, [pc, #40]	; 8c8c <gpio_set_input+0xc4>
    8c60:	e0813491 	umull	r3, r1, r1, r4
    8c64:	e1a011a1 	lsr	r1, r1, #3
    8c68:	e0811101 	add	r1, r1, r1, lsl #2
    8c6c:	e1a01081 	lsl	r1, r1, #1
    8c70:	e0611004 	rsb	r1, r1, r4
    8c74:	e0811081 	add	r1, r1, r1, lsl #1
    8c78:	e3a03007 	mov	r3, #7
    8c7c:	e1c01113 	bic	r1, r0, r3, lsl r1
    8c80:	e1a00005 	mov	r0, r5
    8c84:	eb0002db 	bl	97f8 <put32>
    8c88:	e8bd8038 	pop	{r3, r4, r5, pc}
    8c8c:	cccccccd 	stclgt	12, cr12, [ip], {205}	; 0xcd
    8c90:	000098bc 			; <UNDEFINED> instruction: 0x000098bc

00008c94 <gpio_read>:
    8c94:	e92d4010 	push	{r4, lr}
    8c98:	e1a04000 	mov	r4, r0
    8c9c:	e350001f 	cmp	r0, #31
    8ca0:	8a00000b 	bhi	8cd4 <gpio_read+0x40>
    8ca4:	8a000003 	bhi	8cb8 <gpio_read+0x24>
    8ca8:	e59f302c 	ldr	r3, [pc, #44]	; 8cdc <gpio_read+0x48>
    8cac:	e5930028 	ldr	r0, [r3, #40]	; 0x28
    8cb0:	eb0002dc 	bl	9828 <get32>
    8cb4:	ea000002 	b	8cc4 <gpio_read+0x30>
    8cb8:	e59f301c 	ldr	r3, [pc, #28]	; 8cdc <gpio_read+0x48>
    8cbc:	e593002c 	ldr	r0, [r3, #44]	; 0x2c
    8cc0:	eb0002d8 	bl	9828 <get32>
    8cc4:	e204401f 	and	r4, r4, #31
    8cc8:	e3a03001 	mov	r3, #1
    8ccc:	e0000413 	and	r0, r0, r3, lsl r4
    8cd0:	e8bd8010 	pop	{r4, pc}
    8cd4:	e3e00000 	mvn	r0, #0
    8cd8:	e8bd8010 	pop	{r4, pc}
    8cdc:	000098bc 			; <UNDEFINED> instruction: 0x000098bc

00008ce0 <gpio_write>:
    8ce0:	e92d4008 	push	{r3, lr}
    8ce4:	e350001f 	cmp	r0, #31
    8ce8:	88bd8008 	pophi	{r3, pc}
    8cec:	e3510000 	cmp	r1, #0
    8cf0:	0a000001 	beq	8cfc <gpio_write+0x1c>
    8cf4:	ebffff97 	bl	8b58 <gpio_set_on>
    8cf8:	e8bd8008 	pop	{r3, pc}
    8cfc:	ebffffa3 	bl	8b90 <gpio_set_off>
    8d00:	e8bd8008 	pop	{r3, pc}

00008d04 <gpio_set_function>:
    8d04:	e92d4070 	push	{r4, r5, r6, lr}
    8d08:	e1a04000 	mov	r4, r0
    8d0c:	e1a05001 	mov	r5, r1
    8d10:	e3510007 	cmp	r1, #7
    8d14:	9350001f 	cmpls	r0, #31
    8d18:	88bd8070 	pophi	{r4, r5, r6, pc}
    8d1c:	e59f30b0 	ldr	r3, [pc, #176]	; 8dd4 <gpio_set_function+0xd0>
    8d20:	e0832093 	umull	r2, r3, r3, r0
    8d24:	e1a031a3 	lsr	r3, r3, #3
    8d28:	e3530005 	cmp	r3, #5
    8d2c:	979ff103 	ldrls	pc, [pc, r3, lsl #2]
    8d30:	ea000017 	b	8d94 <gpio_set_function+0x90>
    8d34:	00008d4c 	andeq	r8, r0, ip, asr #26
    8d38:	00008d58 	andeq	r8, r0, r8, asr sp
    8d3c:	00008d64 	andeq	r8, r0, r4, ror #26
    8d40:	00008d70 	andeq	r8, r0, r0, ror sp
    8d44:	00008d7c 	andeq	r8, r0, ip, ror sp
    8d48:	00008d88 	andeq	r8, r0, r8, lsl #27
    8d4c:	e59f3084 	ldr	r3, [pc, #132]	; 8dd8 <gpio_set_function+0xd4>
    8d50:	e5936000 	ldr	r6, [r3]
    8d54:	ea00000f 	b	8d98 <gpio_set_function+0x94>
    8d58:	e59f3078 	ldr	r3, [pc, #120]	; 8dd8 <gpio_set_function+0xd4>
    8d5c:	e5936004 	ldr	r6, [r3, #4]
    8d60:	ea00000c 	b	8d98 <gpio_set_function+0x94>
    8d64:	e59f306c 	ldr	r3, [pc, #108]	; 8dd8 <gpio_set_function+0xd4>
    8d68:	e5936008 	ldr	r6, [r3, #8]
    8d6c:	ea000009 	b	8d98 <gpio_set_function+0x94>
    8d70:	e59f3060 	ldr	r3, [pc, #96]	; 8dd8 <gpio_set_function+0xd4>
    8d74:	e593600c 	ldr	r6, [r3, #12]
    8d78:	ea000006 	b	8d98 <gpio_set_function+0x94>
    8d7c:	e59f3054 	ldr	r3, [pc, #84]	; 8dd8 <gpio_set_function+0xd4>
    8d80:	e5936010 	ldr	r6, [r3, #16]
    8d84:	ea000003 	b	8d98 <gpio_set_function+0x94>
    8d88:	e59f3048 	ldr	r3, [pc, #72]	; 8dd8 <gpio_set_function+0xd4>
    8d8c:	e5936014 	ldr	r6, [r3, #20]
    8d90:	ea000000 	b	8d98 <gpio_set_function+0x94>
    8d94:	e3a06000 	mov	r6, #0
    8d98:	e1a00006 	mov	r0, r6
    8d9c:	eb0002a1 	bl	9828 <get32>
    8da0:	e59f302c 	ldr	r3, [pc, #44]	; 8dd4 <gpio_set_function+0xd0>
    8da4:	e0832493 	umull	r2, r3, r3, r4
    8da8:	e1a031a3 	lsr	r3, r3, #3
    8dac:	e0833103 	add	r3, r3, r3, lsl #2
    8db0:	e1a03083 	lsl	r3, r3, #1
    8db4:	e0633004 	rsb	r3, r3, r4
    8db8:	e0833083 	add	r3, r3, r3, lsl #1
    8dbc:	e3a01007 	mov	r1, #7
    8dc0:	e1c01311 	bic	r1, r0, r1, lsl r3
    8dc4:	e1a00006 	mov	r0, r6
    8dc8:	e1811315 	orr	r1, r1, r5, lsl r3
    8dcc:	eb000289 	bl	97f8 <put32>
    8dd0:	e8bd8070 	pop	{r4, r5, r6, pc}
    8dd4:	cccccccd 	stclgt	12, cr12, [ip], {205}	; 0xcd
    8dd8:	000098bc 			; <UNDEFINED> instruction: 0x000098bc

00008ddc <gpio_toggle>:
    8ddc:	e92d4008 	push	{r3, lr}
    8de0:	e350001f 	cmp	r0, #31
    8de4:	88bd8008 	pophi	{r3, pc}
    8de8:	959f3020 	ldrls	r3, [pc, #32]	; 8e10 <gpio_toggle+0x34>
    8dec:	95932018 	ldrls	r2, [r3, #24]
    8df0:	859f3018 	ldrhi	r3, [pc, #24]	; 8e10 <gpio_toggle+0x34>
    8df4:	8593201c 	ldrhi	r2, [r3, #28]
    8df8:	e200301f 	and	r3, r0, #31
    8dfc:	e1a00002 	mov	r0, r2
    8e00:	e3a01001 	mov	r1, #1
    8e04:	e1a01311 	lsl	r1, r1, r3
    8e08:	eb00027a 	bl	97f8 <put32>
    8e0c:	e8bd8008 	pop	{r3, pc}
    8e10:	000098bc 			; <UNDEFINED> instruction: 0x000098bc

00008e14 <is_gpio_int>:
    8e14:	e92d4008 	push	{r3, lr}
    8e18:	e59f301c 	ldr	r3, [pc, #28]	; 8e3c <is_gpio_int+0x28>
    8e1c:	e5930030 	ldr	r0, [r3, #48]	; 0x30
    8e20:	eb000280 	bl	9828 <get32>
    8e24:	e3500000 	cmp	r0, #0
    8e28:	0a000001 	beq	8e34 <is_gpio_int+0x20>
    8e2c:	e3a00001 	mov	r0, #1
    8e30:	e8bd8008 	pop	{r3, pc}
    8e34:	e3a00000 	mov	r0, #0
    8e38:	e8bd8008 	pop	{r3, pc}
    8e3c:	000098bc 			; <UNDEFINED> instruction: 0x000098bc

00008e40 <gpio_int_rising_edge>:
    8e40:	e92d4038 	push	{r3, r4, r5, lr}
    8e44:	e1a04000 	mov	r4, r0
    8e48:	e350001f 	cmp	r0, #31
    8e4c:	88bd8038 	pophi	{r3, r4, r5, pc}
    8e50:	eb000262 	bl	97e0 <dev_barrier>
    8e54:	e354001f 	cmp	r4, #31
    8e58:	8a000007 	bhi	8e7c <gpio_int_rising_edge+0x3c>
    8e5c:	e59f505c 	ldr	r5, [pc, #92]	; 8ec0 <gpio_int_rising_edge+0x80>
    8e60:	e5950034 	ldr	r0, [r5, #52]	; 0x34
    8e64:	eb00026f 	bl	9828 <get32>
    8e68:	e3a01001 	mov	r1, #1
    8e6c:	e1801411 	orr	r1, r0, r1, lsl r4
    8e70:	e5950034 	ldr	r0, [r5, #52]	; 0x34
    8e74:	eb00025f 	bl	97f8 <put32>
    8e78:	ea000007 	b	8e9c <gpio_int_rising_edge+0x5c>
    8e7c:	e59f503c 	ldr	r5, [pc, #60]	; 8ec0 <gpio_int_rising_edge+0x80>
    8e80:	e5950038 	ldr	r0, [r5, #56]	; 0x38
    8e84:	eb000267 	bl	9828 <get32>
    8e88:	e204401f 	and	r4, r4, #31
    8e8c:	e3a01001 	mov	r1, #1
    8e90:	e1801411 	orr	r1, r0, r1, lsl r4
    8e94:	e5950038 	ldr	r0, [r5, #56]	; 0x38
    8e98:	eb000256 	bl	97f8 <put32>
    8e9c:	eb00024f 	bl	97e0 <dev_barrier>
    8ea0:	e59f4018 	ldr	r4, [pc, #24]	; 8ec0 <gpio_int_rising_edge+0x80>
    8ea4:	e594003c 	ldr	r0, [r4, #60]	; 0x3c
    8ea8:	eb00025e 	bl	9828 <get32>
    8eac:	e3801802 	orr	r1, r0, #131072	; 0x20000
    8eb0:	e594003c 	ldr	r0, [r4, #60]	; 0x3c
    8eb4:	eb00024f 	bl	97f8 <put32>
    8eb8:	eb000248 	bl	97e0 <dev_barrier>
    8ebc:	e8bd8038 	pop	{r3, r4, r5, pc}
    8ec0:	000098bc 			; <UNDEFINED> instruction: 0x000098bc

00008ec4 <gpio_int_falling_edge>:
    8ec4:	e92d4038 	push	{r3, r4, r5, lr}
    8ec8:	e1a04000 	mov	r4, r0
    8ecc:	e350001f 	cmp	r0, #31
    8ed0:	88bd8038 	pophi	{r3, r4, r5, pc}
    8ed4:	eb000241 	bl	97e0 <dev_barrier>
    8ed8:	e354001f 	cmp	r4, #31
    8edc:	8a000007 	bhi	8f00 <gpio_int_falling_edge+0x3c>
    8ee0:	e59f505c 	ldr	r5, [pc, #92]	; 8f44 <gpio_int_falling_edge+0x80>
    8ee4:	e5950040 	ldr	r0, [r5, #64]	; 0x40
    8ee8:	eb00024e 	bl	9828 <get32>
    8eec:	e3a01001 	mov	r1, #1
    8ef0:	e1801411 	orr	r1, r0, r1, lsl r4
    8ef4:	e5950040 	ldr	r0, [r5, #64]	; 0x40
    8ef8:	eb00023e 	bl	97f8 <put32>
    8efc:	ea000007 	b	8f20 <gpio_int_falling_edge+0x5c>
    8f00:	e59f503c 	ldr	r5, [pc, #60]	; 8f44 <gpio_int_falling_edge+0x80>
    8f04:	e5950044 	ldr	r0, [r5, #68]	; 0x44
    8f08:	eb000246 	bl	9828 <get32>
    8f0c:	e204401f 	and	r4, r4, #31
    8f10:	e3a01001 	mov	r1, #1
    8f14:	e1801411 	orr	r1, r0, r1, lsl r4
    8f18:	e5950044 	ldr	r0, [r5, #68]	; 0x44
    8f1c:	eb000235 	bl	97f8 <put32>
    8f20:	eb00022e 	bl	97e0 <dev_barrier>
    8f24:	e59f4018 	ldr	r4, [pc, #24]	; 8f44 <gpio_int_falling_edge+0x80>
    8f28:	e594003c 	ldr	r0, [r4, #60]	; 0x3c
    8f2c:	eb00023d 	bl	9828 <get32>
    8f30:	e3801601 	orr	r1, r0, #1048576	; 0x100000
    8f34:	e594003c 	ldr	r0, [r4, #60]	; 0x3c
    8f38:	eb00022e 	bl	97f8 <put32>
    8f3c:	eb000227 	bl	97e0 <dev_barrier>
    8f40:	e8bd8038 	pop	{r3, r4, r5, pc}
    8f44:	000098bc 			; <UNDEFINED> instruction: 0x000098bc

00008f48 <gpio_event_detected>:
    8f48:	e92d4010 	push	{r4, lr}
    8f4c:	e1a04000 	mov	r4, r0
    8f50:	e350001f 	cmp	r0, #31
    8f54:	8a000019 	bhi	8fc0 <gpio_event_detected+0x78>
    8f58:	eb000220 	bl	97e0 <dev_barrier>
    8f5c:	e354001f 	cmp	r4, #31
    8f60:	8a000008 	bhi	8f88 <gpio_event_detected+0x40>
    8f64:	e59f305c 	ldr	r3, [pc, #92]	; 8fc8 <gpio_event_detected+0x80>
    8f68:	e5930048 	ldr	r0, [r3, #72]	; 0x48
    8f6c:	eb00022d 	bl	9828 <get32>
    8f70:	e3a03001 	mov	r3, #1
    8f74:	e0103413 	ands	r3, r0, r3, lsl r4
    8f78:	0a00000d 	beq	8fb4 <gpio_event_detected+0x6c>
    8f7c:	eb000217 	bl	97e0 <dev_barrier>
    8f80:	e3a00001 	mov	r0, #1
    8f84:	e8bd8010 	pop	{r4, pc}
    8f88:	e59f3038 	ldr	r3, [pc, #56]	; 8fc8 <gpio_event_detected+0x80>
    8f8c:	e593004c 	ldr	r0, [r3, #76]	; 0x4c
    8f90:	eb000224 	bl	9828 <get32>
    8f94:	e3a03001 	mov	r3, #1
    8f98:	e0004413 	and	r4, r0, r3, lsl r4
    8f9c:	eb00020f 	bl	97e0 <dev_barrier>
    8fa0:	e3540000 	cmp	r4, #0
    8fa4:	0a000002 	beq	8fb4 <gpio_event_detected+0x6c>
    8fa8:	eb00020c 	bl	97e0 <dev_barrier>
    8fac:	e3a00001 	mov	r0, #1
    8fb0:	e8bd8010 	pop	{r4, pc}
    8fb4:	eb000209 	bl	97e0 <dev_barrier>
    8fb8:	e3a00000 	mov	r0, #0
    8fbc:	e8bd8010 	pop	{r4, pc}
    8fc0:	e3e00000 	mvn	r0, #0
    8fc4:	e8bd8010 	pop	{r4, pc}
    8fc8:	000098bc 			; <UNDEFINED> instruction: 0x000098bc

00008fcc <gpio_event_clear>:
    8fcc:	e92d4010 	push	{r4, lr}
    8fd0:	e1a04000 	mov	r4, r0
    8fd4:	e350001f 	cmp	r0, #31
    8fd8:	88bd8010 	pophi	{r4, pc}
    8fdc:	eb0001ff 	bl	97e0 <dev_barrier>
    8fe0:	e354001f 	cmp	r4, #31
    8fe4:	8a000005 	bhi	9000 <gpio_event_clear+0x34>
    8fe8:	e59f3030 	ldr	r3, [pc, #48]	; 9020 <gpio_event_clear+0x54>
    8fec:	e5930048 	ldr	r0, [r3, #72]	; 0x48
    8ff0:	e3a01001 	mov	r1, #1
    8ff4:	e1a01411 	lsl	r1, r1, r4
    8ff8:	eb0001fe 	bl	97f8 <put32>
    8ffc:	ea000005 	b	9018 <gpio_event_clear+0x4c>
    9000:	e204401f 	and	r4, r4, #31
    9004:	e59f3014 	ldr	r3, [pc, #20]	; 9020 <gpio_event_clear+0x54>
    9008:	e593004c 	ldr	r0, [r3, #76]	; 0x4c
    900c:	e3a01001 	mov	r1, #1
    9010:	e1a01411 	lsl	r1, r1, r4
    9014:	eb0001f7 	bl	97f8 <put32>
    9018:	eb0001f0 	bl	97e0 <dev_barrier>
    901c:	e8bd8010 	pop	{r4, pc}
    9020:	000098bc 			; <UNDEFINED> instruction: 0x000098bc

00009024 <sw_uart_putc>:
    9024:	e92d41f0 	push	{r4, r5, r6, r7, r8, lr}
    9028:	e1a07001 	mov	r7, r1
    902c:	e5d06000 	ldrb	r6, [r0]
    9030:	e5905008 	ldr	r5, [r0, #8]
    9034:	ee1f4f3c 	mrc	15, 0, r4, cr15, cr12, {1}
    9038:	e1a00006 	mov	r0, r6
    903c:	e3a01000 	mov	r1, #0
    9040:	ebffff26 	bl	8ce0 <gpio_write>
    9044:	ee1f3f3c 	mrc	15, 0, r3, cr15, cr12, {1}
    9048:	e0643003 	rsb	r3, r4, r3
    904c:	e1550003 	cmp	r5, r3
    9050:	8afffffb 	bhi	9044 <sw_uart_putc+0x20>
    9054:	e1a08085 	lsl	r8, r5, #1
    9058:	e1a00006 	mov	r0, r6
    905c:	e2071001 	and	r1, r7, #1
    9060:	ebffff1e 	bl	8ce0 <gpio_write>
    9064:	ee1f3f3c 	mrc	15, 0, r3, cr15, cr12, {1}
    9068:	e0643003 	rsb	r3, r4, r3
    906c:	e1580003 	cmp	r8, r3
    9070:	8afffffb 	bhi	9064 <sw_uart_putc+0x40>
    9074:	e0888005 	add	r8, r8, r5
    9078:	e1a00006 	mov	r0, r6
    907c:	e2071002 	and	r1, r7, #2
    9080:	ebffff16 	bl	8ce0 <gpio_write>
    9084:	ee1f3f3c 	mrc	15, 0, r3, cr15, cr12, {1}
    9088:	e0643003 	rsb	r3, r4, r3
    908c:	e1580003 	cmp	r8, r3
    9090:	8afffffb 	bhi	9084 <sw_uart_putc+0x60>
    9094:	e0888005 	add	r8, r8, r5
    9098:	e1a00006 	mov	r0, r6
    909c:	e2071004 	and	r1, r7, #4
    90a0:	ebffff0e 	bl	8ce0 <gpio_write>
    90a4:	ee1f3f3c 	mrc	15, 0, r3, cr15, cr12, {1}
    90a8:	e0643003 	rsb	r3, r4, r3
    90ac:	e1580003 	cmp	r8, r3
    90b0:	8afffffb 	bhi	90a4 <sw_uart_putc+0x80>
    90b4:	e0888005 	add	r8, r8, r5
    90b8:	e1a00006 	mov	r0, r6
    90bc:	e2071008 	and	r1, r7, #8
    90c0:	ebffff06 	bl	8ce0 <gpio_write>
    90c4:	ee1f3f3c 	mrc	15, 0, r3, cr15, cr12, {1}
    90c8:	e0643003 	rsb	r3, r4, r3
    90cc:	e1580003 	cmp	r8, r3
    90d0:	8afffffb 	bhi	90c4 <sw_uart_putc+0xa0>
    90d4:	e0888005 	add	r8, r8, r5
    90d8:	e1a00006 	mov	r0, r6
    90dc:	e2071010 	and	r1, r7, #16
    90e0:	ebfffefe 	bl	8ce0 <gpio_write>
    90e4:	ee1f3f3c 	mrc	15, 0, r3, cr15, cr12, {1}
    90e8:	e0643003 	rsb	r3, r4, r3
    90ec:	e1580003 	cmp	r8, r3
    90f0:	8afffffb 	bhi	90e4 <sw_uart_putc+0xc0>
    90f4:	e0888005 	add	r8, r8, r5
    90f8:	e1a00006 	mov	r0, r6
    90fc:	e2071020 	and	r1, r7, #32
    9100:	ebfffef6 	bl	8ce0 <gpio_write>
    9104:	ee1f3f3c 	mrc	15, 0, r3, cr15, cr12, {1}
    9108:	e0643003 	rsb	r3, r4, r3
    910c:	e1580003 	cmp	r8, r3
    9110:	8afffffb 	bhi	9104 <sw_uart_putc+0xe0>
    9114:	e0888005 	add	r8, r8, r5
    9118:	e1a00006 	mov	r0, r6
    911c:	e2071040 	and	r1, r7, #64	; 0x40
    9120:	ebfffeee 	bl	8ce0 <gpio_write>
    9124:	ee1f3f3c 	mrc	15, 0, r3, cr15, cr12, {1}
    9128:	e0643003 	rsb	r3, r4, r3
    912c:	e1580003 	cmp	r8, r3
    9130:	8afffffb 	bhi	9124 <sw_uart_putc+0x100>
    9134:	e0888005 	add	r8, r8, r5
    9138:	e1a00006 	mov	r0, r6
    913c:	e2071080 	and	r1, r7, #128	; 0x80
    9140:	ebfffee6 	bl	8ce0 <gpio_write>
    9144:	ee1f3f3c 	mrc	15, 0, r3, cr15, cr12, {1}
    9148:	e0643003 	rsb	r3, r4, r3
    914c:	e1580003 	cmp	r8, r3
    9150:	8afffffb 	bhi	9144 <sw_uart_putc+0x120>
    9154:	e0885005 	add	r5, r8, r5
    9158:	e1a00006 	mov	r0, r6
    915c:	e3a01001 	mov	r1, #1
    9160:	ebfffede 	bl	8ce0 <gpio_write>
    9164:	ee1f3f3c 	mrc	15, 0, r3, cr15, cr12, {1}
    9168:	e0643003 	rsb	r3, r4, r3
    916c:	e1550003 	cmp	r5, r3
    9170:	8afffffb 	bhi	9164 <sw_uart_putc+0x140>
    9174:	e8bd81f0 	pop	{r4, r5, r6, r7, r8, pc}

00009178 <sw_uart_getc_timeout>:
    9178:	e92d43f8 	push	{r3, r4, r5, r6, r7, r8, r9, lr}
    917c:	e1a09000 	mov	r9, r0
    9180:	e5d07001 	ldrb	r7, [r0, #1]
    9184:	e1a05007 	mov	r5, r7
    9188:	e1a06001 	mov	r6, r1
    918c:	ebfffe21 	bl	8a18 <timer_get_usec_raw>
    9190:	e1a04000 	mov	r4, r0
    9194:	e1a00005 	mov	r0, r5
    9198:	ebfffebd 	bl	8c94 <gpio_read>
    919c:	e3500000 	cmp	r0, #0
    91a0:	0a000005 	beq	91bc <sw_uart_getc_timeout+0x44>
    91a4:	ebfffe1b 	bl	8a18 <timer_get_usec_raw>
    91a8:	e0640000 	rsb	r0, r4, r0
    91ac:	e1560000 	cmp	r6, r0
    91b0:	2afffff7 	bcs	9194 <sw_uart_getc_timeout+0x1c>
    91b4:	e3a03000 	mov	r3, #0
    91b8:	ea000000 	b	91c0 <sw_uart_getc_timeout+0x48>
    91bc:	e3a03001 	mov	r3, #1
    91c0:	e3530000 	cmp	r3, #0
    91c4:	0a000059 	beq	9330 <sw_uart_getc_timeout+0x1b8>
    91c8:	ee1f8f3c 	mrc	15, 0, r8, cr15, cr12, {1}
    91cc:	e5994008 	ldr	r4, [r9, #8]
    91d0:	e08420a4 	add	r2, r4, r4, lsr #1
    91d4:	ee1f3f3c 	mrc	15, 0, r3, cr15, cr12, {1}
    91d8:	e0683003 	rsb	r3, r8, r3
    91dc:	e1520003 	cmp	r2, r3
    91e0:	8afffffb 	bhi	91d4 <sw_uart_getc_timeout+0x5c>
    91e4:	e0888004 	add	r8, r8, r4
    91e8:	e1a00007 	mov	r0, r7
    91ec:	ebfffea8 	bl	8c94 <gpio_read>
    91f0:	e1a09750 	asr	r9, r0, r7
    91f4:	ee1f3f3c 	mrc	15, 0, r3, cr15, cr12, {1}
    91f8:	e0683003 	rsb	r3, r8, r3
    91fc:	e1540003 	cmp	r4, r3
    9200:	8afffffb 	bhi	91f4 <sw_uart_getc_timeout+0x7c>
    9204:	e0888004 	add	r8, r8, r4
    9208:	e1a00007 	mov	r0, r7
    920c:	ebfffea0 	bl	8c94 <gpio_read>
    9210:	e1a00750 	asr	r0, r0, r7
    9214:	e1899080 	orr	r9, r9, r0, lsl #1
    9218:	ee1f3f3c 	mrc	15, 0, r3, cr15, cr12, {1}
    921c:	e0683003 	rsb	r3, r8, r3
    9220:	e1540003 	cmp	r4, r3
    9224:	8afffffb 	bhi	9218 <sw_uart_getc_timeout+0xa0>
    9228:	e0888004 	add	r8, r8, r4
    922c:	e1a00007 	mov	r0, r7
    9230:	ebfffe97 	bl	8c94 <gpio_read>
    9234:	e1a00750 	asr	r0, r0, r7
    9238:	e1899100 	orr	r9, r9, r0, lsl #2
    923c:	ee1f3f3c 	mrc	15, 0, r3, cr15, cr12, {1}
    9240:	e0683003 	rsb	r3, r8, r3
    9244:	e1540003 	cmp	r4, r3
    9248:	8afffffb 	bhi	923c <sw_uart_getc_timeout+0xc4>
    924c:	e0888004 	add	r8, r8, r4
    9250:	e1a00007 	mov	r0, r7
    9254:	ebfffe8e 	bl	8c94 <gpio_read>
    9258:	e1a00750 	asr	r0, r0, r7
    925c:	e1899180 	orr	r9, r9, r0, lsl #3
    9260:	ee1f3f3c 	mrc	15, 0, r3, cr15, cr12, {1}
    9264:	e0683003 	rsb	r3, r8, r3
    9268:	e1540003 	cmp	r4, r3
    926c:	8afffffb 	bhi	9260 <sw_uart_getc_timeout+0xe8>
    9270:	e0888004 	add	r8, r8, r4
    9274:	e1a00007 	mov	r0, r7
    9278:	ebfffe85 	bl	8c94 <gpio_read>
    927c:	e1a00750 	asr	r0, r0, r7
    9280:	e1899200 	orr	r9, r9, r0, lsl #4
    9284:	ee1f3f3c 	mrc	15, 0, r3, cr15, cr12, {1}
    9288:	e0683003 	rsb	r3, r8, r3
    928c:	e1540003 	cmp	r4, r3
    9290:	8afffffb 	bhi	9284 <sw_uart_getc_timeout+0x10c>
    9294:	e0888004 	add	r8, r8, r4
    9298:	e1a00007 	mov	r0, r7
    929c:	ebfffe7c 	bl	8c94 <gpio_read>
    92a0:	e1a00750 	asr	r0, r0, r7
    92a4:	e1899280 	orr	r9, r9, r0, lsl #5
    92a8:	ee1f3f3c 	mrc	15, 0, r3, cr15, cr12, {1}
    92ac:	e0683003 	rsb	r3, r8, r3
    92b0:	e1540003 	cmp	r4, r3
    92b4:	8afffffb 	bhi	92a8 <sw_uart_getc_timeout+0x130>
    92b8:	e0888004 	add	r8, r8, r4
    92bc:	e1a00007 	mov	r0, r7
    92c0:	ebfffe73 	bl	8c94 <gpio_read>
    92c4:	e1a00750 	asr	r0, r0, r7
    92c8:	e1899300 	orr	r9, r9, r0, lsl #6
    92cc:	ee1f3f3c 	mrc	15, 0, r3, cr15, cr12, {1}
    92d0:	e0683003 	rsb	r3, r8, r3
    92d4:	e1540003 	cmp	r4, r3
    92d8:	8afffffb 	bhi	92cc <sw_uart_getc_timeout+0x154>
    92dc:	e1a00007 	mov	r0, r7
    92e0:	ebfffe6b 	bl	8c94 <gpio_read>
    92e4:	e1a00750 	asr	r0, r0, r7
    92e8:	e1899380 	orr	r9, r9, r0, lsl #7
    92ec:	ebfffdc9 	bl	8a18 <timer_get_usec_raw>
    92f0:	e1a04000 	mov	r4, r0
    92f4:	e1a00005 	mov	r0, r5
    92f8:	ebfffe65 	bl	8c94 <gpio_read>
    92fc:	e3500000 	cmp	r0, #0
    9300:	0a000005 	beq	931c <sw_uart_getc_timeout+0x1a4>
    9304:	ebfffdc3 	bl	8a18 <timer_get_usec_raw>
    9308:	e0640000 	rsb	r0, r4, r0
    930c:	e1560000 	cmp	r6, r0
    9310:	2afffff7 	bcs	92f4 <sw_uart_getc_timeout+0x17c>
    9314:	e3a03000 	mov	r3, #0
    9318:	ea000000 	b	9320 <sw_uart_getc_timeout+0x1a8>
    931c:	e3a03001 	mov	r3, #1
    9320:	e3530000 	cmp	r3, #0
    9324:	0a000003 	beq	9338 <sw_uart_getc_timeout+0x1c0>
    9328:	e1a00009 	mov	r0, r9
    932c:	e8bd83f8 	pop	{r3, r4, r5, r6, r7, r8, r9, pc}
    9330:	e3e00000 	mvn	r0, #0
    9334:	e8bd83f8 	pop	{r3, r4, r5, r6, r7, r8, r9, pc}
    9338:	e3e00000 	mvn	r0, #0
    933c:	e8bd83f8 	pop	{r3, r4, r5, r6, r7, r8, r9, pc}

00009340 <sw_uart_gets_until>:
    9340:	e92d47f0 	push	{r4, r5, r6, r7, r8, r9, sl, lr}
    9344:	e24dd008 	sub	sp, sp, #8
    9348:	e1a08000 	mov	r8, r0
    934c:	e1a06001 	mov	r6, r1
    9350:	e1a09003 	mov	r9, r3
    9354:	e59da028 	ldr	sl, [sp, #40]	; 0x28
    9358:	e3520000 	cmp	r2, #0
    935c:	1a000008 	bne	9384 <sw_uart_gets_until+0x44>
    9360:	ebfffbea 	bl	8310 <rpi_reset_putc>
    9364:	e59f3068 	ldr	r3, [pc, #104]	; 93d4 <sw_uart_gets_until+0x94>
    9368:	e58d3000 	str	r3, [sp]
    936c:	e59f0064 	ldr	r0, [pc, #100]	; 93d8 <sw_uart_gets_until+0x98>
    9370:	e59f1064 	ldr	r1, [pc, #100]	; 93dc <sw_uart_gets_until+0x9c>
    9374:	e59f2064 	ldr	r2, [pc, #100]	; 93e0 <sw_uart_gets_until+0xa0>
    9378:	e3a0306d 	mov	r3, #109	; 0x6d
    937c:	ebfffbc8 	bl	82a4 <printk>
    9380:	ebfffd4a 	bl	88b0 <clean_reboot>
    9384:	e3a04000 	mov	r4, #0
    9388:	e5c14000 	strb	r4, [r1]
    938c:	e2427001 	sub	r7, r2, #1
    9390:	ea000007 	b	93b4 <sw_uart_gets_until+0x74>
    9394:	e1a00008 	mov	r0, r8
    9398:	e1a0100a 	mov	r1, sl
    939c:	ebffff75 	bl	9178 <sw_uart_getc_timeout>
    93a0:	e6ef0070 	uxtb	r0, r0
    93a4:	e1500009 	cmp	r0, r9
    93a8:	0a000004 	beq	93c0 <sw_uart_gets_until+0x80>
    93ac:	e7c60005 	strb	r0, [r6, r5]
    93b0:	e2844001 	add	r4, r4, #1
    93b4:	e1a05004 	mov	r5, r4
    93b8:	e1540007 	cmp	r4, r7
    93bc:	3afffff4 	bcc	9394 <sw_uart_gets_until+0x54>
    93c0:	e3a03000 	mov	r3, #0
    93c4:	e7c63005 	strb	r3, [r6, r5]
    93c8:	e1a00004 	mov	r0, r4
    93cc:	e28dd008 	add	sp, sp, #8
    93d0:	e8bd87f0 	pop	{r4, r5, r6, r7, r8, r9, sl, pc}
    93d4:	00009b84 	andeq	r9, r0, r4, lsl #23
    93d8:	000099f8 	strdeq	r9, [r0], -r8
    93dc:	00009b70 	andeq	r9, r0, r0, ror fp
    93e0:	00009af8 	strdeq	r9, [r0], -r8

000093e4 <sw_uart_gets_timeout>:
    93e4:	e92d41f0 	push	{r4, r5, r6, r7, r8, lr}
    93e8:	e24dd008 	sub	sp, sp, #8
    93ec:	e1a07000 	mov	r7, r0
    93f0:	e1a05001 	mov	r5, r1
    93f4:	e1a08003 	mov	r8, r3
    93f8:	e3520000 	cmp	r2, #0
    93fc:	1a000008 	bne	9424 <sw_uart_gets_timeout+0x40>
    9400:	ebfffbc2 	bl	8310 <rpi_reset_putc>
    9404:	e59f3058 	ldr	r3, [pc, #88]	; 9464 <sw_uart_gets_timeout+0x80>
    9408:	e58d3000 	str	r3, [sp]
    940c:	e59f0054 	ldr	r0, [pc, #84]	; 9468 <sw_uart_gets_timeout+0x84>
    9410:	e59f1054 	ldr	r1, [pc, #84]	; 946c <sw_uart_gets_timeout+0x88>
    9414:	e59f2054 	ldr	r2, [pc, #84]	; 9470 <sw_uart_gets_timeout+0x8c>
    9418:	e3a03083 	mov	r3, #131	; 0x83
    941c:	ebfffba0 	bl	82a4 <printk>
    9420:	ebfffd22 	bl	88b0 <clean_reboot>
    9424:	e3a04000 	mov	r4, #0
    9428:	e5c14000 	strb	r4, [r1]
    942c:	e2426001 	sub	r6, r2, #1
    9430:	ea000004 	b	9448 <sw_uart_gets_timeout+0x64>
    9434:	e1a00007 	mov	r0, r7
    9438:	e1a01008 	mov	r1, r8
    943c:	ebffff4d 	bl	9178 <sw_uart_getc_timeout>
    9440:	e7c50004 	strb	r0, [r5, r4]
    9444:	e2844001 	add	r4, r4, #1
    9448:	e1540006 	cmp	r4, r6
    944c:	3afffff8 	bcc	9434 <sw_uart_gets_timeout+0x50>
    9450:	e3a03000 	mov	r3, #0
    9454:	e7c53004 	strb	r3, [r5, r4]
    9458:	e1a00004 	mov	r0, r4
    945c:	e28dd008 	add	sp, sp, #8
    9460:	e8bd81f0 	pop	{r4, r5, r6, r7, r8, pc}
    9464:	00009b84 	andeq	r9, r0, r4, lsl #23
    9468:	000099f8 	strdeq	r9, [r0], -r8
    946c:	00009b70 	andeq	r9, r0, r0, ror fp
    9470:	00009b0c 	andeq	r9, r0, ip, lsl #22

00009474 <sw_uart_init_helper>:
    9474:	e92d41f0 	push	{r4, r5, r6, r7, r8, lr}
    9478:	e24dd008 	sub	sp, sp, #8
    947c:	e1a04000 	mov	r4, r0
    9480:	e1a06001 	mov	r6, r1
    9484:	e1a08002 	mov	r8, r2
    9488:	e1a05003 	mov	r5, r3
    948c:	e59d7020 	ldr	r7, [sp, #32]
    9490:	e1a00001 	mov	r0, r1
    9494:	ebfffd7a 	bl	8a84 <gpio_set_output>
    9498:	e1a00008 	mov	r0, r8
    949c:	ebfffdc9 	bl	8bc8 <gpio_set_input>
    94a0:	e3a03001 	mov	r3, #1
    94a4:	ee0f3f1c 	mcr	15, 0, r3, cr15, cr12, {0}
    94a8:	e1a00006 	mov	r0, r6
    94ac:	e3a01001 	mov	r1, #1
    94b0:	ebfffe0a 	bl	8ce0 <gpio_write>
    94b4:	e0020795 	mul	r2, r5, r7
    94b8:	e59f3074 	ldr	r3, [pc, #116]	; 9534 <sw_uart_init_helper+0xc0>
    94bc:	e0653003 	rsb	r3, r5, r3
    94c0:	e1530002 	cmp	r3, r2
    94c4:	8a000005 	bhi	94e0 <sw_uart_init_helper+0x6c>
    94c8:	e59f3064 	ldr	r3, [pc, #100]	; 9534 <sw_uart_init_helper+0xc0>
    94cc:	e0853003 	add	r3, r5, r3
    94d0:	e1530002 	cmp	r3, r2
    94d4:	2a000003 	bcs	94e8 <sw_uart_init_helper+0x74>
    94d8:	e3a03000 	mov	r3, #0
    94dc:	ea000002 	b	94ec <sw_uart_init_helper+0x78>
    94e0:	e3a03000 	mov	r3, #0
    94e4:	ea000000 	b	94ec <sw_uart_init_helper+0x78>
    94e8:	e3a03001 	mov	r3, #1
    94ec:	e3530000 	cmp	r3, #0
    94f0:	1a000008 	bne	9518 <sw_uart_init_helper+0xa4>
    94f4:	ebfffb85 	bl	8310 <rpi_reset_putc>
    94f8:	e59f3038 	ldr	r3, [pc, #56]	; 9538 <sw_uart_init_helper+0xc4>
    94fc:	e58d3000 	str	r3, [sp]
    9500:	e59f0034 	ldr	r0, [pc, #52]	; 953c <sw_uart_init_helper+0xc8>
    9504:	e59f1034 	ldr	r1, [pc, #52]	; 9540 <sw_uart_init_helper+0xcc>
    9508:	e59f2034 	ldr	r2, [pc, #52]	; 9544 <sw_uart_init_helper+0xd0>
    950c:	e3a0309d 	mov	r3, #157	; 0x9d
    9510:	ebfffb63 	bl	82a4 <printk>
    9514:	ebfffce5 	bl	88b0 <clean_reboot>
    9518:	e5c46000 	strb	r6, [r4]
    951c:	e5c48001 	strb	r8, [r4, #1]
    9520:	e5845004 	str	r5, [r4, #4]
    9524:	e5847008 	str	r7, [r4, #8]
    9528:	e1a00004 	mov	r0, r4
    952c:	e28dd008 	add	sp, sp, #8
    9530:	e8bd81f0 	pop	{r4, r5, r6, r7, r8, pc}
    9534:	29b92700 	ldmibcs	r9!, {r8, r9, sl, sp}
    9538:	00009b90 	muleq	r0, r0, fp
    953c:	000099f8 	strdeq	r9, [r0], -r8
    9540:	00009b70 	andeq	r9, r0, r0, ror fp
    9544:	00009b24 	andeq	r9, r0, r4, lsr #22

00009548 <sw_uart_getc>:
    9548:	e92d4008 	push	{r3, lr}
    954c:	e3e01000 	mvn	r1, #0
    9550:	ebffff08 	bl	9178 <sw_uart_getc_timeout>
    9554:	e3500000 	cmp	r0, #0
    9558:	a8bd8008 	popge	{r3, pc}
    955c:	ebfffb6b 	bl	8310 <rpi_reset_putc>
    9560:	e59f0010 	ldr	r0, [pc, #16]	; 9578 <sw_uart_getc+0x30>
    9564:	e59f1010 	ldr	r1, [pc, #16]	; 957c <sw_uart_getc+0x34>
    9568:	e59f2010 	ldr	r2, [pc, #16]	; 9580 <sw_uart_getc+0x38>
    956c:	e3a030ac 	mov	r3, #172	; 0xac
    9570:	ebfffb4b 	bl	82a4 <printk>
    9574:	ebfffccd 	bl	88b0 <clean_reboot>
    9578:	00009bc4 	andeq	r9, r0, r4, asr #23
    957c:	00009b70 	andeq	r9, r0, r0, ror fp
    9580:	00009b38 	andeq	r9, r0, r8, lsr fp

00009584 <sw_uart_putk>:
    9584:	e92d4038 	push	{r3, r4, r5, lr}
    9588:	e1a05000 	mov	r5, r0
    958c:	e1a04001 	mov	r4, r1
    9590:	ea000002 	b	95a0 <sw_uart_putk+0x1c>
    9594:	e1a00005 	mov	r0, r5
    9598:	ebfffea1 	bl	9024 <sw_uart_putc>
    959c:	e2844001 	add	r4, r4, #1
    95a0:	e5d41000 	ldrb	r1, [r4]
    95a4:	e3510000 	cmp	r1, #0
    95a8:	1afffff9 	bne	9594 <sw_uart_putk+0x10>
    95ac:	e8bd8038 	pop	{r3, r4, r5, pc}

000095b0 <sw_uart_printk>:
    95b0:	e92d000e 	push	{r1, r2, r3}
    95b4:	e92d4030 	push	{r4, r5, lr}
    95b8:	e24ddf76 	sub	sp, sp, #472	; 0x1d8
    95bc:	e1a05000 	mov	r5, r0
    95c0:	e28d3f7a 	add	r3, sp, #488	; 0x1e8
    95c4:	e58d3008 	str	r3, [sp, #8]
    95c8:	e28d000c 	add	r0, sp, #12
    95cc:	e3a01f73 	mov	r1, #460	; 0x1cc
    95d0:	e59d21e4 	ldr	r2, [sp, #484]	; 0x1e4
    95d4:	ebfffc08 	bl	85fc <va_printk>
    95d8:	e1a04000 	mov	r4, r0
    95dc:	e59f3048 	ldr	r3, [pc, #72]	; 962c <sw_uart_printk+0x7c>
    95e0:	e1500003 	cmp	r0, r3
    95e4:	9a000008 	bls	960c <sw_uart_printk+0x5c>
    95e8:	ebfffb48 	bl	8310 <rpi_reset_putc>
    95ec:	e59f303c 	ldr	r3, [pc, #60]	; 9630 <sw_uart_printk+0x80>
    95f0:	e58d3000 	str	r3, [sp]
    95f4:	e59f0038 	ldr	r0, [pc, #56]	; 9634 <sw_uart_printk+0x84>
    95f8:	e59f1038 	ldr	r1, [pc, #56]	; 9638 <sw_uart_printk+0x88>
    95fc:	e59f2038 	ldr	r2, [pc, #56]	; 963c <sw_uart_printk+0x8c>
    9600:	e3a030c0 	mov	r3, #192	; 0xc0
    9604:	ebfffb26 	bl	82a4 <printk>
    9608:	ebfffca8 	bl	88b0 <clean_reboot>
    960c:	e1a00005 	mov	r0, r5
    9610:	e28d100c 	add	r1, sp, #12
    9614:	ebffffda 	bl	9584 <sw_uart_putk>
    9618:	e1a00004 	mov	r0, r4
    961c:	e28ddf76 	add	sp, sp, #472	; 0x1d8
    9620:	e8bd4030 	pop	{r4, r5, lr}
    9624:	e28dd00c 	add	sp, sp, #12
    9628:	e12fff1e 	bx	lr
    962c:	000001ca 	andeq	r0, r0, sl, asr #3
    9630:	00009bfc 	strdeq	r9, [r0], -ip
    9634:	000099f8 	strdeq	r9, [r0], -r8
    9638:	00009b70 	andeq	r9, r0, r0, ror fp
    963c:	00009b48 	andeq	r9, r0, r8, asr #22

00009640 <sw_uart_gets_until_blk>:
    9640:	e52de004 	push	{lr}		; (str lr, [sp, #-4]!)
    9644:	e24dd00c 	sub	sp, sp, #12
    9648:	e3e0c000 	mvn	ip, #0
    964c:	e58dc000 	str	ip, [sp]
    9650:	ebffff3a 	bl	9340 <sw_uart_gets_until>
    9654:	e3500000 	cmp	r0, #0
    9658:	aa000006 	bge	9678 <sw_uart_gets_until_blk+0x38>
    965c:	ebfffb2b 	bl	8310 <rpi_reset_putc>
    9660:	e59f0018 	ldr	r0, [pc, #24]	; 9680 <sw_uart_gets_until_blk+0x40>
    9664:	e59f1018 	ldr	r1, [pc, #24]	; 9684 <sw_uart_gets_until_blk+0x44>
    9668:	e59f2018 	ldr	r2, [pc, #24]	; 9688 <sw_uart_gets_until_blk+0x48>
    966c:	e3a030c8 	mov	r3, #200	; 0xc8
    9670:	ebfffb0b 	bl	82a4 <printk>
    9674:	ebfffc8d 	bl	88b0 <clean_reboot>
    9678:	e28dd00c 	add	sp, sp, #12
    967c:	e49df004 	pop	{pc}		; (ldr pc, [sp], #4)
    9680:	00009bc4 	andeq	r9, r0, r4, asr #23
    9684:	00009b70 	andeq	r9, r0, r0, ror fp
    9688:	00009b58 	andeq	r9, r0, r8, asr fp

0000968c <uart_init>:
    968c:	e92d4038 	push	{r3, r4, r5, lr}
    9690:	eb000052 	bl	97e0 <dev_barrier>
    9694:	e3a0000e 	mov	r0, #14
    9698:	e3a01002 	mov	r1, #2
    969c:	ebfffd98 	bl	8d04 <gpio_set_function>
    96a0:	e3a0000f 	mov	r0, #15
    96a4:	e3a01002 	mov	r1, #2
    96a8:	ebfffd95 	bl	8d04 <gpio_set_function>
    96ac:	eb00004b 	bl	97e0 <dev_barrier>
    96b0:	e59f4068 	ldr	r4, [pc, #104]	; 9720 <uart_init+0x94>
    96b4:	e5945000 	ldr	r5, [r4]
    96b8:	e1a00005 	mov	r0, r5
    96bc:	eb000059 	bl	9828 <get32>
    96c0:	e3801001 	orr	r1, r0, #1
    96c4:	e1a00005 	mov	r0, r5
    96c8:	eb00004a 	bl	97f8 <put32>
    96cc:	eb000043 	bl	97e0 <dev_barrier>
    96d0:	e5940004 	ldr	r0, [r4, #4]
    96d4:	e3a01000 	mov	r1, #0
    96d8:	eb000046 	bl	97f8 <put32>
    96dc:	e5940008 	ldr	r0, [r4, #8]
    96e0:	e3a01000 	mov	r1, #0
    96e4:	eb000043 	bl	97f8 <put32>
    96e8:	e594000c 	ldr	r0, [r4, #12]
    96ec:	e3a01006 	mov	r1, #6
    96f0:	eb000040 	bl	97f8 <put32>
    96f4:	e5940010 	ldr	r0, [r4, #16]
    96f8:	e3a01003 	mov	r1, #3
    96fc:	eb00003d 	bl	97f8 <put32>
    9700:	e5940014 	ldr	r0, [r4, #20]
    9704:	e59f1018 	ldr	r1, [pc, #24]	; 9724 <uart_init+0x98>
    9708:	eb00003a 	bl	97f8 <put32>
    970c:	e5940004 	ldr	r0, [r4, #4]
    9710:	e3a01003 	mov	r1, #3
    9714:	eb000037 	bl	97f8 <put32>
    9718:	eb000030 	bl	97e0 <dev_barrier>
    971c:	e8bd8038 	pop	{r3, r4, r5, pc}
    9720:	0000991c 	andeq	r9, r0, ip, lsl r9
    9724:	0000010e 	andeq	r0, r0, lr, lsl #2

00009728 <uart_can_getc>:
    9728:	e92d4008 	push	{r3, lr}
    972c:	e59f300c 	ldr	r3, [pc, #12]	; 9740 <uart_can_getc+0x18>
    9730:	e5930018 	ldr	r0, [r3, #24]
    9734:	eb00003b 	bl	9828 <get32>
    9738:	e2000001 	and	r0, r0, #1
    973c:	e8bd8008 	pop	{r3, pc}
    9740:	0000991c 	andeq	r9, r0, ip, lsl r9

00009744 <uart_getc>:
    9744:	e92d4008 	push	{r3, lr}
    9748:	ebfffff6 	bl	9728 <uart_can_getc>
    974c:	e3500000 	cmp	r0, #0
    9750:	0afffffc 	beq	9748 <uart_getc+0x4>
    9754:	e59f300c 	ldr	r3, [pc, #12]	; 9768 <uart_getc+0x24>
    9758:	e593001c 	ldr	r0, [r3, #28]
    975c:	eb000031 	bl	9828 <get32>
    9760:	e6ef0070 	uxtb	r0, r0
    9764:	e8bd8008 	pop	{r3, pc}
    9768:	0000991c 	andeq	r9, r0, ip, lsl r9

0000976c <uart_can_putc>:
    976c:	e92d4008 	push	{r3, lr}
    9770:	e59f300c 	ldr	r3, [pc, #12]	; 9784 <uart_can_putc+0x18>
    9774:	e5930018 	ldr	r0, [r3, #24]
    9778:	eb00002a 	bl	9828 <get32>
    977c:	e2000020 	and	r0, r0, #32
    9780:	e8bd8008 	pop	{r3, pc}
    9784:	0000991c 	andeq	r9, r0, ip, lsl r9

00009788 <uart_putc>:
    9788:	e92d4010 	push	{r4, lr}
    978c:	e1a04000 	mov	r4, r0
    9790:	ebfffff5 	bl	976c <uart_can_putc>
    9794:	e3500000 	cmp	r0, #0
    9798:	0afffffc 	beq	9790 <uart_putc+0x8>
    979c:	e59f300c 	ldr	r3, [pc, #12]	; 97b0 <uart_putc+0x28>
    97a0:	e593001c 	ldr	r0, [r3, #28]
    97a4:	e1a01004 	mov	r1, r4
    97a8:	eb000012 	bl	97f8 <put32>
    97ac:	e8bd8010 	pop	{r4, pc}
    97b0:	0000991c 	andeq	r9, r0, ip, lsl r9

000097b4 <uart_has_data>:
    97b4:	e92d4008 	push	{r3, lr}
    97b8:	ebffffda 	bl	9728 <uart_can_getc>
    97bc:	e8bd8008 	pop	{r3, pc}

000097c0 <uart_getc_async>:
    97c0:	e92d4008 	push	{r3, lr}
    97c4:	ebfffffa 	bl	97b4 <uart_has_data>
    97c8:	e3500000 	cmp	r0, #0
    97cc:	0a000001 	beq	97d8 <uart_getc_async+0x18>
    97d0:	ebffffdb 	bl	9744 <uart_getc>
    97d4:	e8bd8008 	pop	{r3, pc}
    97d8:	e3e00000 	mvn	r0, #0
    97dc:	e8bd8008 	pop	{r3, pc}

000097e0 <dev_barrier>:
    97e0:	ea000002 	b	97f0 <dsb>

000097e4 <dmb>:
    97e4:	e3a00000 	mov	r0, #0
    97e8:	ee070fba 	mcr	15, 0, r0, cr7, cr10, {5}
    97ec:	e12fff1e 	bx	lr

000097f0 <dsb>:
    97f0:	ee070f9a 	mcr	15, 0, r0, cr7, cr10, {4}
    97f4:	e12fff1e 	bx	lr

000097f8 <put32>:
    97f8:	e5801000 	str	r1, [r0]
    97fc:	e12fff1e 	bx	lr

00009800 <PUT32>:
    9800:	e5801000 	str	r1, [r0]
    9804:	e12fff1e 	bx	lr

00009808 <put16>:
    9808:	e1c010b0 	strh	r1, [r0]
    980c:	e12fff1e 	bx	lr

00009810 <PUT16>:
    9810:	e1c010b0 	strh	r1, [r0]
    9814:	e12fff1e 	bx	lr

00009818 <put8>:
    9818:	e5c01000 	strb	r1, [r0]
    981c:	e12fff1e 	bx	lr

00009820 <PUT8>:
    9820:	e5c01000 	strb	r1, [r0]
    9824:	e12fff1e 	bx	lr

00009828 <get32>:
    9828:	e5900000 	ldr	r0, [r0]
    982c:	e12fff1e 	bx	lr

00009830 <GET32>:
    9830:	e5900000 	ldr	r0, [r0]
    9834:	e12fff1e 	bx	lr

00009838 <GETPC>:
    9838:	e1a0000e 	mov	r0, lr
    983c:	e12fff1e 	bx	lr

00009840 <dummy>:
    9840:	e12fff1e 	bx	lr

00009844 <cb_new>:
    9844:	e92d4008 	push	{r3, lr}
    9848:	e3a00409 	mov	r0, #150994944	; 0x9000000
    984c:	e3a01000 	mov	r1, #0
    9850:	e3a02004 	mov	r2, #4
    9854:	eb00000e 	bl	9894 <memset>
    9858:	e3a00409 	mov	r0, #150994944	; 0x9000000
    985c:	e59f3004 	ldr	r3, [pc, #4]	; 9868 <cb_new+0x24>
    9860:	e5803000 	str	r3, [r0]
    9864:	e8bd8008 	pop	{r3, pc}
    9868:	12345678 	eorsne	r5, r4, #120, 12	; 0x7800000

0000986c <cb_get_block>:
    986c:	e3a03409 	mov	r3, #150994944	; 0x9000000
    9870:	e5932000 	ldr	r2, [r3]
    9874:	e59f3014 	ldr	r3, [pc, #20]	; 9890 <cb_get_block+0x24>
    9878:	e1520003 	cmp	r2, r3
    987c:	0a000001 	beq	9888 <cb_get_block+0x1c>
    9880:	e3a00000 	mov	r0, #0
    9884:	e12fff1e 	bx	lr
    9888:	e3a00409 	mov	r0, #150994944	; 0x9000000
    988c:	e12fff1e 	bx	lr
    9890:	12345678 	eorsne	r5, r4, #120, 12	; 0x7800000

00009894 <memset>:
    9894:	e0802002 	add	r2, r0, r2
    9898:	e1a03000 	mov	r3, r0
    989c:	ea000001 	b	98a8 <memset+0x14>
    98a0:	e5c31000 	strb	r1, [r3]
    98a4:	e2833001 	add	r3, r3, #1
    98a8:	e1530002 	cmp	r3, r2
    98ac:	3afffffb 	bcc	98a0 <memset+0xc>
    98b0:	e12fff1e 	bx	lr

Disassembly of section .data:

000098b4 <rpi_putchar>:
    98b4:	000082fc 	strdeq	r8, [r0], -ip

000098b8 <putk>:
    98b8:	00008338 	andeq	r8, r0, r8, lsr r3

000098bc <GPFSEL0>:
    98bc:	20200000 	eorcs	r0, r0, r0

000098c0 <GPFSEL1>:
    98c0:	20200004 	eorcs	r0, r0, r4

000098c4 <GPFSEL2>:
    98c4:	20200008 	eorcs	r0, r0, r8

000098c8 <GPFSEL3>:
    98c8:	2020000c 	eorcs	r0, r0, ip

000098cc <GPFSEL4>:
    98cc:	20200010 	eorcs	r0, r0, r0, lsl r0

000098d0 <GPFSEL5>:
    98d0:	20200014 	eorcs	r0, r0, r4, lsl r0

000098d4 <GPSET0>:
    98d4:	2020001c 	eorcs	r0, r0, ip, lsl r0

000098d8 <GPSET1>:
    98d8:	20200020 	eorcs	r0, r0, r0, lsr #32

000098dc <GPCLR0>:
    98dc:	20200028 	eorcs	r0, r0, r8, lsr #32

000098e0 <GPCLR1>:
    98e0:	2020002c 	eorcs	r0, r0, ip, lsr #32

000098e4 <GPLEV0>:
    98e4:	20200034 	eorcs	r0, r0, r4, lsr r0

000098e8 <GPLEV1>:
    98e8:	20200038 	eorcs	r0, r0, r8, lsr r0

000098ec <IRQ_PENDING_2>:
    98ec:	2000b208 	andcs	fp, r0, r8, lsl #4

000098f0 <GPREN0>:
    98f0:	2020004c 	eorcs	r0, r0, ip, asr #32

000098f4 <GPREN1>:
    98f4:	20200050 	eorcs	r0, r0, r0, asr r0

000098f8 <ENABLE_IRQS_2>:
    98f8:	2000b214 	andcs	fp, r0, r4, lsl r2

000098fc <GPFEN0>:
    98fc:	20200058 	eorcs	r0, r0, r8, asr r0

00009900 <GPFEN1>:
    9900:	2020005c 	eorcs	r0, r0, ip, asr r0

00009904 <GPEDS0>:
    9904:	20200040 	eorcs	r0, r0, r0, asr #32

00009908 <GPEDS1>:
    9908:	20200044 	eorcs	r0, r0, r4, asr #32

0000990c <IRQ_PENDING_1>:
    990c:	2000b204 	andcs	fp, r0, r4, lsl #4

00009910 <gpio_clr0>:
    9910:	20200028 	eorcs	r0, r0, r8, lsr #32

00009914 <gpio_set0>:
    9914:	2020001c 	eorcs	r0, r0, ip, lsl r0

00009918 <gpio_fsel0>:
    9918:	20200000 	eorcs	r0, r0, r0

0000991c <AUX_ENABLES>:
    991c:	20215004 	eorcs	r5, r1, r4

00009920 <AUX_MU_CNTL_REG>:
    9920:	20215060 	eorcs	r5, r1, r0, rrx

00009924 <AUX_MU_IER_REG>:
    9924:	20215044 	eorcs	r5, r1, r4, asr #32

00009928 <AUX_MU_IIR_REG>:
    9928:	20215048 	eorcs	r5, r1, r8, asr #32

0000992c <AUX_MU_LCR_REG>:
    992c:	2021504c 	eorcs	r5, r1, ip, asr #32

00009930 <AUX_MU_BAUD_REG>:
    9930:	20215068 	eorcs	r5, r1, r8, rrx

00009934 <AUX_MU_LSR_REG>:
    9934:	20215054 	eorcs	r5, r1, r4, asr r0

00009938 <AUX_MU_IO_REG>:
    9938:	20215040 	eorcs	r5, r1, r0, asr #32

0000993c <AUX_MU_STAT_REG>:
    993c:	20215064 	eorcs	r5, r1, r4, rrx

00009940 <AUX_MU_SCRATCH>:
    9940:	2021505c 	eorcs	r5, r1, ip, asr r0

00009944 <AUX_MU_MSR_REG>:
    9944:	20215058 	eorcs	r5, r1, r8, asr r0

00009948 <AUX_MU_MCR_REG>:
    9948:	20215050 	eorcs	r5, r1, r0, asr r0

0000994c <AUX_IRQ>:
    994c:	20215000 	eorcs	r5, r1, r0

Disassembly of section .rodata:

00009950 <__FUNCTION__.4228>:
    9950:	6c637963 	stclvs	9, cr7, [r3], #-396	; 0xfffffe74
    9954:	705f7365 	subsvc	r7, pc, r5, ror #6
    9958:	735f7265 	cmpvc	pc, #1342177286	; 0x50000006
    995c:	00006365 	andeq	r6, r0, r5, ror #6
    9960:	4f525245 	svcmi	0x00525245
    9964:	73253a52 	teqvc	r5, #335872	; 0x52000
    9968:	3a73253a 	bcc	1cd2e58 <__bss_end__+0x1cc8e38>
    996c:	203a6425 	eorscs	r6, sl, r5, lsr #8
    9970:	534c4146 	movtpl	r4, #49478	; 0xc146
    9974:	733c2845 	teqvc	ip, #4521984	; 0x450000
    9978:	32203c20 	eorcc	r3, r0, #32, 24	; 0x2000
    997c:	203a293e 	eorscs	r2, sl, lr, lsr r9
    9980:	6c6c6977 	stclvs	9, cr6, [ip], #-476	; 0xfffffe24
    9984:	65766f20 	ldrbvs	r6, [r6, #-3872]!	; 0xf20
    9988:	6f6c6672 	svcvs	0x006c6672
    998c:	00000a77 	andeq	r0, r0, r7, ror sl
    9990:	706f6373 	rsbvc	r6, pc, r3, ror r3	; <UNPREDICTABLE>
    9994:	00632e65 	rsbeq	r2, r3, r5, ror #28
    9998:	3a642520 	bcc	1912e20 <__bss_end__+0x1908e00>
    999c:	6c617620 	stclvs	6, cr7, [r1], #-128	; 0xffffff80
    99a0:	2c64253d 	cfstr64cs	mvdx2, [r4], #-244	; 0xffffff0c
    99a4:	6d697420 	cfstrdvs	mvd7, [r9, #-128]!	; 0xffffff80
    99a8:	64253d65 	strtvs	r3, [r5], #-3429	; 0xd65
    99ac:	6f74202c 	svcvs	0x0074202c
    99b0:	64253d74 	strtvs	r3, [r5], #-3444	; 0xd74
    99b4:	7865203a 	stmdavc	r5!, {r1, r3, r4, r5, sp}^
    99b8:	64253d70 	strtvs	r3, [r5], #-3440	; 0xd70
    99bc:	72652820 	rsbvc	r2, r5, #32, 16	; 0x200000
    99c0:	64253d72 	strtvs	r3, [r5], #-3442	; 0xd72
    99c4:	6f74202c 	svcvs	0x0074202c
    99c8:	72726574 	rsbsvc	r6, r2, #116, 10	; 0x1d000000
    99cc:	2964253d 	stmdbcs	r4!, {r0, r2, r3, r4, r5, r8, sl, sp}^
    99d0:	0000000a 	andeq	r0, r0, sl

000099d4 <__FUNCTION__.4265>:
    99d4:	74696d65 	strbtvc	r6, [r9], #-3429	; 0xd65
    99d8:	00000000 	andeq	r0, r0, r0

000099dc <__FUNCTION__.4213>:
    99dc:	5f697072 	svcpl	0x00697072
    99e0:	5f746573 	svcpl	0x00746573
    99e4:	7074756f 	rsbsvc	r7, r4, pc, ror #10
    99e8:	00007475 	andeq	r7, r0, r5, ror r4

000099ec <__FUNCTION__.4287>:
    99ec:	705f6176 	subsvc	r6, pc, r6, ror r1	; <UNPREDICTABLE>
    99f0:	746e6972 	strbtvc	r6, [lr], #-2418	; 0x972
    99f4:	0000006b 	andeq	r0, r0, fp, rrx
    99f8:	494e4150 	stmdbmi	lr, {r4, r6, r8, lr}^
    99fc:	73253a43 	teqvc	r5, #274432	; 0x43000
    9a00:	3a73253a 	bcc	1cd2ef0 <__bss_end__+0x1cc8ed0>
    9a04:	253a6425 	ldrcs	r6, [sl, #-1061]!	; 0x425
    9a08:	00000a73 	andeq	r0, r0, r3, ror sl
    9a0c:	6362696c 	cmnvs	r2, #108, 18	; 0x1b0000
    9a10:	2d61762f 	stclcs	6, cr7, [r1, #-188]!	; 0xffffff44
    9a14:	6e697270 	mcrvs	2, 3, r7, cr9, cr0, {3}
    9a18:	632e6b74 	teqvs	lr, #116, 22	; 0x1d000
    9a1c:	00000000 	andeq	r0, r0, r0
    9a20:	00000030 	andeq	r0, r0, r0, lsr r0
    9a24:	33323130 	teqcc	r2, #48, 2
    9a28:	37363534 			; <UNDEFINED> instruction: 0x37363534
    9a2c:	00003938 	andeq	r3, r0, r8, lsr r9
    9a30:	33323130 	teqcc	r2, #48, 2
    9a34:	37363534 			; <UNDEFINED> instruction: 0x37363534
    9a38:	62613938 	rsbvs	r3, r1, #56, 18	; 0xe0000
    9a3c:	66656463 	strbtvs	r6, [r5], -r3, ror #8
    9a40:	00000000 	andeq	r0, r0, r0
    9a44:	00003130 	andeq	r3, r0, r0, lsr r1
    9a48:	63747570 	cmnvs	r4, #112, 10	; 0x1c000000
    9a4c:	0070665f 	rsbseq	r6, r0, pc, asr r6
    9a50:	74646977 	strbtvc	r6, [r4], #-2423	; 0x977
    9a54:	203c2068 	eorscs	r2, ip, r8, rrx
    9a58:	00003233 	andeq	r3, r0, r3, lsr r2
    9a5c:	494e4150 	stmdbmi	lr, {r4, r6, r8, lr}^
    9a60:	73253a43 	teqvc	r5, #274432	; 0x43000
    9a64:	3a73253a 	bcc	1cd2f54 <__bss_end__+0x1cc8f34>
    9a68:	663a6425 	ldrtvs	r6, [sl], -r5, lsr #8
    9a6c:	74616f6c 	strbtvc	r6, [r1], #-3948	; 0xf6c
    9a70:	746f6e20 	strbtvc	r6, [pc], #-3616	; 9a78 <__FUNCTION__.4287+0x8c>
    9a74:	616e6520 	cmnvs	lr, r0, lsr #10
    9a78:	64656c62 	strbtvs	r6, [r5], #-3170	; 0xc62
    9a7c:	0a212121 	beq	851f08 <__bss_end__+0x847ee8>
    9a80:	00000000 	andeq	r0, r0, r0
    9a84:	494e4150 	stmdbmi	lr, {r4, r6, r8, lr}^
    9a88:	73253a43 	teqvc	r5, #274432	; 0x43000
    9a8c:	3a73253a 	bcc	1cd2f7c <__bss_end__+0x1cc8f5c>
    9a90:	703a6425 	eorsvc	r6, sl, r5, lsr #8
    9a94:	746e6972 	strbtvc	r6, [lr], #-2418	; 0x972
    9a98:	6e203a6b 	vnmulvs.f32	s6, s0, s23
    9a9c:	6820746f 	stmdavs	r0!, {r0, r1, r2, r3, r5, r6, sl, ip, sp, lr}
    9aa0:	6c646e61 	stclvs	14, cr6, [r4], #-388	; 0xfffffe7c
    9aa4:	20676e69 	rsbcs	r6, r7, r9, ror #28
    9aa8:	63657073 	cmnvs	r5, #115	; 0x73
    9aac:	65696669 	strbvs	r6, [r9, #-1641]!	; 0x669
    9ab0:	25272072 	strcs	r2, [r7, #-114]!	; 0x72
    9ab4:	0a0a2763 	beq	293848 <__bss_end__+0x289828>
    9ab8:	00000000 	andeq	r0, r0, r0
    9abc:	454e4f44 	strbmi	r4, [lr, #-3908]	; 0xf44
    9ac0:	0a212121 	beq	851f4c <__bss_end__+0x847f2c>
    9ac4:	00000000 	andeq	r0, r0, r0
    9ac8:	756f6261 	strbvc	r6, [pc, #-609]!	; 986f <cb_get_block+0x3>
    9acc:	6f742074 	svcvs	0x00742074
    9ad0:	69727020 	ldmdbvs	r2!, {r5, ip, sp, lr}^
    9ad4:	6f20746e 	svcvs	0x0020746e
    9ad8:	6572206e 	ldrbvs	r2, [r2, #-110]!	; 0x6e
    9adc:	616c7567 	cmnvs	ip, r7, ror #10
    9ae0:	72702072 	rsbsvc	r2, r0, #114	; 0x72
    9ae4:	66746e69 	ldrbtvs	r6, [r4], -r9, ror #28
    9ae8:	0000000a 	andeq	r0, r0, sl
    9aec:	63637573 	cmnvs	r3, #482344960	; 0x1cc00000
    9af0:	21737365 	cmncs	r3, r5, ror #6
    9af4:	0000000a 	andeq	r0, r0, sl

00009af8 <__FUNCTION__.4314>:
    9af8:	755f7773 	ldrbvc	r7, [pc, #-1907]	; 938d <sw_uart_gets_until+0x4d>
    9afc:	5f747261 	svcpl	0x00747261
    9b00:	73746567 	cmnvc	r4, #432013312	; 0x19c00000
    9b04:	746e755f 	strbtvc	r7, [lr], #-1375	; 0x55f
    9b08:	00006c69 	andeq	r6, r0, r9, ror #24

00009b0c <__FUNCTION__.4326>:
    9b0c:	755f7773 	ldrbvc	r7, [pc, #-1907]	; 93a1 <sw_uart_gets_until+0x61>
    9b10:	5f747261 	svcpl	0x00747261
    9b14:	73746567 	cmnvc	r4, #432013312	; 0x19c00000
    9b18:	6d69745f 	cfstrdvs	mvd7, [r9, #-380]!	; 0xfffffe84
    9b1c:	74756f65 	ldrbtvc	r6, [r5], #-3941	; 0xf65
    9b20:	00000000 	andeq	r0, r0, r0

00009b24 <__FUNCTION__.4340>:
    9b24:	755f7773 	ldrbvc	r7, [pc, #-1907]	; 93b9 <sw_uart_gets_until+0x79>
    9b28:	5f747261 	svcpl	0x00747261
    9b2c:	74696e69 	strbtvc	r6, [r9], #-3689	; 0xe69
    9b30:	6c65685f 	stclvs	8, cr6, [r5], #-380	; 0xfffffe84
    9b34:	00726570 	rsbseq	r6, r2, r0, ror r5

00009b38 <__FUNCTION__.4346>:
    9b38:	755f7773 	ldrbvc	r7, [pc, #-1907]	; 93cd <sw_uart_gets_until+0x8d>
    9b3c:	5f747261 	svcpl	0x00747261
    9b40:	63746567 	cmnvs	r4, #432013312	; 0x19c00000
    9b44:	00000000 	andeq	r0, r0, r0

00009b48 <__FUNCTION__.4368>:
    9b48:	755f7773 	ldrbvc	r7, [pc, #-1907]	; 93dd <sw_uart_gets_until+0x9d>
    9b4c:	5f747261 	svcpl	0x00747261
    9b50:	6e697270 	mcrvs	2, 3, r7, cr9, cr0, {3}
    9b54:	00006b74 	andeq	r6, r0, r4, ror fp

00009b58 <__FUNCTION__.4376>:
    9b58:	755f7773 	ldrbvc	r7, [pc, #-1907]	; 93ed <sw_uart_gets_timeout+0x9>
    9b5c:	5f747261 	svcpl	0x00747261
    9b60:	73746567 	cmnvc	r4, #432013312	; 0x19c00000
    9b64:	746e755f 	strbtvc	r7, [lr], #-1375	; 0x55f
    9b68:	625f6c69 	subsvs	r6, pc, #26880	; 0x6900
    9b6c:	00006b6c 	andeq	r6, r0, ip, ror #22
    9b70:	732d796d 	teqvc	sp, #1785856	; 0x1b4000
    9b74:	732f6372 	teqvc	pc, #-939524095	; 0xc8000001
    9b78:	61752d77 	cmnvs	r5, r7, ror sp
    9b7c:	632e7472 	teqvs	lr, #1912602624	; 0x72000000
    9b80:	00000000 	andeq	r0, r0, r0
    9b84:	7479626e 	ldrbtvc	r6, [r9], #-622	; 0x26e
    9b88:	303e7365 	eorscc	r7, lr, r5, ror #6
    9b8c:	00000000 	andeq	r0, r0, r0
    9b90:	7a686d28 	bvc	1a25038 <__bss_end__+0x1a1b018>
    9b94:	62202d20 	eorvs	r2, r0, #32, 26	; 0x800
    9b98:	29647561 	stmdbcs	r4!, {r0, r5, r6, r8, sl, ip, sp, lr}^
    9b9c:	203d3c20 	eorscs	r3, sp, r0, lsr #24
    9ba0:	69726564 	ldmdbvs	r2!, {r2, r5, r6, r8, sl, sp, lr}^
    9ba4:	20646576 	rsbcs	r6, r4, r6, ror r5
    9ba8:	64202626 	strtvs	r2, [r0], #-1574	; 0x626
    9bac:	76697265 	strbtvc	r7, [r9], -r5, ror #4
    9bb0:	3c206465 	cfstrscc	mvf6, [r0], #-404	; 0xfffffe6c
    9bb4:	6d28203d 	stcvs	0, cr2, [r8, #-244]!	; 0xffffff0c
    9bb8:	2b207a68 	blcs	828560 <__bss_end__+0x81e540>
    9bbc:	75616220 	strbvc	r6, [r1, #-544]!	; 0x220
    9bc0:	00002964 	andeq	r2, r0, r4, ror #18
    9bc4:	494e4150 	stmdbmi	lr, {r4, r6, r8, lr}^
    9bc8:	73253a43 	teqvc	r5, #274432	; 0x43000
    9bcc:	3a73253a 	bcc	1cd30bc <__bss_end__+0x1cc909c>
    9bd0:	693a6425 	ldmdbvs	sl!, {r0, r2, r5, sl, sp, lr}
    9bd4:	736f706d 	cmnvc	pc, #109	; 0x6d
    9bd8:	6c626973 	stclvs	9, cr6, [r2], #-460	; 0xfffffe34
    9bdc:	68203a65 	stmdavs	r0!, {r0, r2, r5, r6, r9, fp, ip, sp}
    9be0:	20657661 	rsbcs	r7, r5, r1, ror #12
    9be4:	69206e61 	stmdbvs	r0!, {r0, r5, r6, r9, sl, fp, sp, lr}
    9be8:	6e69666e 	cdpvs	6, 6, cr6, cr9, cr14, {3}
    9bec:	20657469 	rsbcs	r7, r5, r9, ror #8
    9bf0:	656d6974 	strbvs	r6, [sp, #-2420]!	; 0x974
    9bf4:	2174756f 	cmncs	r4, pc, ror #10
    9bf8:	00000a0a 	andeq	r0, r0, sl, lsl #20
    9bfc:	3c207a73 	stccc	10, cr7, [r0], #-460	; 0xfffffe34
    9c00:	7a697320 	bvc	1a66888 <__bss_end__+0x1a5c868>
    9c04:	20666f65 	rsbcs	r6, r6, r5, ror #30
    9c08:	2d667562 	cfstr64cs	mvdx7, [r6, #-392]!	; 0xfffffe78
    9c0c:	00000031 	andeq	r0, r0, r1, lsr r0

Disassembly of section .bss:

00009c10 <__bss_start__>:
	...

0000a010 <console_uart>:
	...

Disassembly of section .ARM.attributes:

00000000 <.ARM.attributes>:
   0:	00002a41 	andeq	r2, r0, r1, asr #20
   4:	61656100 	cmnvs	r5, r0, lsl #2
   8:	01006962 	tsteq	r0, r2, ror #18
   c:	00000020 	andeq	r0, r0, r0, lsr #32
  10:	4b5a3605 	blmi	168d82c <__bss_end__+0x168380c>
  14:	08070600 	stmdaeq	r7, {r9, sl}
  18:	12010901 	andne	r0, r1, #16384	; 0x4000
  1c:	15011404 	strne	r1, [r1, #-1028]	; 0x404
  20:	18031701 	stmdane	r3, {r0, r8, r9, sl, ip}
  24:	22011a01 	andcs	r1, r1, #4096	; 0x1000
  28:	Address 0x0000000000000028 is out of bounds.


Disassembly of section .comment:

00000000 <.comment>:
   0:	3a434347 	bcc	10d0d24 <__bss_end__+0x10c6d04>
   4:	4e472820 	cdpmi	8, 4, cr2, cr7, cr0, {1}
   8:	34202955 	strtcc	r2, [r0], #-2389	; 0x955
   c:	332e382e 	teqcc	lr, #3014656	; 0x2e0000
	...

Disassembly of section .debug_info:

00000000 <.debug_info>:
       0:	0000062b 	andeq	r0, r0, fp, lsr #12
       4:	00000004 	andeq	r0, r0, r4
       8:	01040000 	mrseq	r0, (UNDEF: 4)
       c:	0000007c 	andeq	r0, r0, ip, ror r0
      10:	00027e01 	andeq	r7, r2, r1, lsl #28
      14:	0001a900 	andeq	sl, r1, r0, lsl #18
      18:	00801000 	addeq	r1, r0, r0
      1c:	00029400 	andeq	r9, r2, r0, lsl #8
      20:	00000000 	andeq	r0, r0, r0
      24:	05040200 	streq	r0, [r4, #-512]	; 0x200
      28:	00746e69 	rsbseq	r6, r4, r9, ror #28
      2c:	33070403 	movwcc	r0, #29699	; 0x7403
      30:	03000000 	movweq	r0, #0
      34:	017b0601 	cmneq	fp, r1, lsl #12
      38:	02030000 	andeq	r0, r3, #0
      3c:	00018705 	andeq	r8, r1, r5, lsl #14
      40:	05040300 	streq	r0, [r4, #-768]	; 0x300
      44:	00000045 	andeq	r0, r0, r5, asr #32
      48:	40050803 	andmi	r0, r5, r3, lsl #16
      4c:	03000000 	movweq	r0, #0
      50:	01790801 	cmneq	r9, r1, lsl #16
      54:	02030000 	andeq	r0, r3, #0
      58:	00011c07 	andeq	r1, r1, r7, lsl #24
      5c:	07040300 	streq	r0, [r4, -r0, lsl #6]
      60:	0000002e 	andeq	r0, r0, lr, lsr #32
      64:	29070803 	stmdbcs	r7, {r0, r1, fp}
      68:	03000000 	movweq	r0, #0
      6c:	01660704 	cmneq	r6, r4, lsl #14
      70:	01030000 	mrseq	r0, (UNDEF: 3)
      74:	00018208 	andeq	r8, r1, r8, lsl #4
      78:	7f040400 	svcvc	0x00040400
      7c:	05000000 	streq	r0, [r0, #-0]
      80:	00000072 	andeq	r0, r0, r2, ror r0
      84:	1c010806 	stcne	8, cr0, [r1], {6}
      88:	000000a3 	andeq	r0, r0, r3, lsr #1
      8c:	01007607 	tsteq	r0, r7, lsl #12
      90:	00002c1d 	andeq	r2, r0, sp, lsl ip
      94:	78080000 	stmdavc	r8, {}	; <UNPREDICTABLE>
      98:	01000008 	tsteq	r0, r8
      9c:	00002c1d 	andeq	r2, r0, sp, lsl ip
      a0:	09000400 	stmdbeq	r0, {sl}
      a4:	00000072 	andeq	r0, r0, r2, ror r0
      a8:	00841e01 	addeq	r1, r4, r1, lsl #28
      ac:	500a0000 	andpl	r0, sl, r0
      b0:	01000002 	tsteq	r0, r2
      b4:	00002521 	andeq	r2, r0, r1, lsr #10
      b8:	00ca0300 	sbceq	r0, sl, r0, lsl #6
      bc:	700b0000 	andvc	r0, fp, r0
      c0:	01006e69 	tsteq	r0, r9, ror #28
      c4:	00002c21 	andeq	r2, r0, r1, lsr #24
      c8:	9a0c0000 	bls	3000d0 <__bss_end__+0x2f60b0>
      cc:	01000001 	tsteq	r0, r1
      d0:	00002c26 	andeq	r2, r0, r6, lsr #24
      d4:	00801000 	addeq	r1, r0, r0
      d8:	00005000 	andeq	r5, r0, r0
      dc:	aa9c0100 	bge	fe7004e4 <__bss_end__+0xfe6f64c4>
      e0:	0d000001 	stceq	0, cr0, [r0, #-4]
      e4:	26010073 			; <UNDEFINED> instruction: 0x26010073
      e8:	0000002c 	andeq	r0, r0, ip, lsr #32
      ec:	00000000 	andeq	r0, r0, r0
      f0:	00010f0e 	andeq	r0, r1, lr, lsl #30
      f4:	0001ba00 	andeq	fp, r1, r0, lsl #20
      f8:	50030500 	andpl	r0, r3, r0, lsl #10
      fc:	0f000099 	svceq	0x00000099
     100:	00000214 	andeq	r0, r0, r4, lsl r2
     104:	002c2801 	eoreq	r2, ip, r1, lsl #16
     108:	2f100000 	svccs	0x00100000
     10c:	01000001 	tsteq	r0, r1
     110:	00002c2a 	andeq	r2, r0, sl, lsr #24
     114:	00003a00 	andeq	r3, r0, r0, lsl #20
     118:	801c1100 	andshi	r1, ip, r0, lsl #2
     11c:	00040000 	andeq	r0, r4, r0
     120:	01320000 	teqeq	r2, r0
     124:	6f0f0000 	svcvs	0x000f0000
     128:	01000001 	tsteq	r0, r1
     12c:	00002c28 	andeq	r2, r0, r8, lsr #24
     130:	2c110000 	ldccs	0, cr0, [r1], {-0}
     134:	04000080 	streq	r0, [r0], #-128	; 0x80
     138:	4f000000 	svcmi	0x00000000
     13c:	10000001 	andne	r0, r0, r1
     140:	0000016f 	andeq	r0, r0, pc, ror #2
     144:	002c2a01 	eoreq	r2, ip, r1, lsl #20
     148:	003a0000 	eorseq	r0, sl, r0
     14c:	12000000 	andne	r0, r0, #0
     150:	0000802c 	andeq	r8, r0, ip, lsr #32
     154:	000005e5 	andeq	r0, r0, r5, ror #11
     158:	00000168 	andeq	r0, r0, r8, ror #2
     15c:	07500113 	smmlaeq	r0, r3, r1, r0
     160:	0a5001f3 	beq	1400934 <__bss_end__+0x13f6914>
     164:	001e03e8 	andseq	r0, lr, r8, ror #7
     168:	00803c14 	addeq	r3, r0, r4, lsl ip
     16c:	0005f600 	andeq	pc, r5, r0, lsl #12
     170:	80501200 	subshi	r1, r0, r0, lsl #4
     174:	05fd0000 	ldrbeq	r0, [sp, #0]!
     178:	01a00000 	moveq	r0, r0
     17c:	01130000 	tsteq	r3, r0
     180:	27080253 	smlsdcs	r8, r3, r2, r0
     184:	05520113 	ldrbeq	r0, [r2, #-275]	; 0x113
     188:	00995003 	addseq	r5, r9, r3
     18c:	51011300 	mrspl	r1, SP_irq
     190:	99900305 	ldmibls	r0, {r0, r2, r8, r9}
     194:	01130000 	tsteq	r3, r0
     198:	60030550 	andvs	r0, r3, r0, asr r5
     19c:	00000099 	muleq	r0, r9, r0
     1a0:	00805414 	addeq	r5, r0, r4, lsl r4
     1a4:	00061300 	andeq	r1, r6, r0, lsl #6
     1a8:	72150000 	andsvc	r0, r5, #0
     1ac:	ba000000 	blt	1b4 <_start-0x7e4c>
     1b0:	16000001 	strne	r0, [r0], -r1
     1b4:	0000006b 	andeq	r0, r0, fp, rrx
     1b8:	aa05000e 	bge	1401f8 <__bss_end__+0x1361d8>
     1bc:	0c000001 	stceq	0, cr0, [r0], {1}
     1c0:	00000204 	andeq	r0, r0, r4, lsl #4
     1c4:	002c3401 	eoreq	r3, ip, r1, lsl #8
     1c8:	80600000 	rsbhi	r0, r0, r0
     1cc:	01640000 	cmneq	r4, r0
     1d0:	9c010000 	stcls	0, cr0, [r1], {-0}
     1d4:	00000324 	andeq	r0, r0, r4, lsr #6
     1d8:	6e69700d 	cdpvs	0, 6, cr7, cr9, cr13, {0}
     1dc:	2c340100 	ldfcss	f0, [r4], #-0
     1e0:	4d000000 	stcmi	0, cr0, [r0, #-0]
     1e4:	17000000 	strne	r0, [r0, -r0]
     1e8:	3401006c 	strcc	r0, [r1], #-108	; 0x6c
     1ec:	00000324 	andeq	r0, r0, r4, lsr #6
     1f0:	41185101 	tstmi	r8, r1, lsl #2
     1f4:	01000001 	tsteq	r0, r1
     1f8:	00002c34 	andeq	r2, r0, r4, lsr ip
     1fc:	00008400 	andeq	r8, r0, r0, lsl #8
     200:	025f1800 	subseq	r1, pc, #0, 16
     204:	34010000 	strcc	r0, [r1], #-0
     208:	0000002c 	andeq	r0, r0, ip, lsr #32
     20c:	000000a5 	andeq	r0, r0, r5, lsr #1
     210:	00023710 	andeq	r3, r2, r0, lsl r7
     214:	2c350100 	ldfcss	f0, [r5], #-0
     218:	c6000000 	strgt	r0, [r0], -r0
     21c:	19000000 	stmdbne	r0, {}	; <UNPREDICTABLE>
     220:	000000d3 	ldrdeq	r0, [r0], -r3
     224:	032a3701 	teqeq	sl, #262144	; 0x40000
     228:	91030000 	mrsls	r0, (UNDEF: 3)
     22c:	1a1079c0 	bne	41e934 <__bss_end__+0x414914>
     230:	01000002 	tsteq	r0, r2
     234:	00002c38 	andeq	r2, r0, r8, lsr ip
     238:	0000e500 	andeq	lr, r0, r0, lsl #10
     23c:	00171000 	andseq	r1, r7, r0
     240:	39010000 	stmdbcc	r1, {}	; <UNPREDICTABLE>
     244:	0000002c 	andeq	r0, r0, ip, lsr #32
     248:	00000130 	andeq	r0, r0, r0, lsr r1
     24c:	0004e110 	andeq	lr, r4, r0, lsl r1
     250:	2c3e0100 	ldfcss	f0, [lr], #-0
     254:	43000000 	movwmi	r0, #0
     258:	1a000001 	bne	264 <_start-0x7d9c>
     25c:	000000ae 	andeq	r0, r0, lr, lsr #1
     260:	00008064 	andeq	r8, r0, r4, rrx
     264:	00000000 	andeq	r0, r0, r0
     268:	02783901 	rsbseq	r3, r8, #16384	; 0x4000
     26c:	be1b0000 	cdplt	0, 1, cr0, cr11, cr0, {0}
     270:	4d000000 	stcmi	0, cr0, [r0, #-0]
     274:	00000000 	andeq	r0, r0, r0
     278:	0000ae1c 	andeq	sl, r0, ip, lsl lr
     27c:	00808400 	addeq	r8, r0, r0, lsl #8
     280:	00000800 	andeq	r0, r0, r0, lsl #16
     284:	953d0100 	ldrls	r0, [sp, #-256]!	; 0x100
     288:	1b000002 	blne	298 <_start-0x7d68>
     28c:	000000be 	strheq	r0, [r0], -lr
     290:	00000161 	andeq	r0, r0, r1, ror #2
     294:	00201d00 	eoreq	r1, r0, r0, lsl #26
     298:	02ae0000 	adceq	r0, lr, #0
     29c:	6f100000 	svcvs	0x00100000
     2a0:	01000001 	tsteq	r0, r1
     2a4:	00002c3e 	andeq	r2, r0, lr, lsr ip
     2a8:	00014300 	andeq	r4, r1, r0, lsl #6
     2ac:	381d0000 	ldmdacc	sp, {}	; <UNPREDICTABLE>
     2b0:	10000000 	andne	r0, r0, r0
     2b4:	1e000003 	cdpne	0, 0, cr0, cr0, cr3, {0}
     2b8:	52010069 	andpl	r0, r1, #105	; 0x69
     2bc:	00000025 	andeq	r0, r0, r5, lsr #32
     2c0:	00000198 	muleq	r0, r8, r1
     2c4:	0000501f 	andeq	r5, r0, pc, lsl r0
     2c8:	026a1000 	rsbeq	r1, sl, #0
     2cc:	53010000 	movwpl	r0, #4096	; 0x1000
     2d0:	0000002c 	andeq	r0, r0, ip, lsr #32
     2d4:	000001ac 	andeq	r0, r0, ip, lsr #3
     2d8:	0000ae1a 	andeq	sl, r0, sl, lsl lr
     2dc:	00809c00 	addeq	r9, r0, r0, lsl #24
     2e0:	00006800 	andeq	r6, r0, r0, lsl #16
     2e4:	f5530100 			; <UNDEFINED> instruction: 0xf5530100
     2e8:	1b000002 	blne	2f8 <_start-0x7d08>
     2ec:	000000be 	strheq	r0, [r0], -lr
     2f0:	000001d5 	ldrdeq	r0, [r0], -r5
     2f4:	80d42000 	sbcshi	r2, r4, r0
     2f8:	00040000 	andeq	r0, r4, r0
     2fc:	6f100000 	svcvs	0x00100000
     300:	01000001 	tsteq	r0, r1
     304:	00002c56 	andeq	r2, r0, r6, asr ip
     308:	00020100 	andeq	r0, r2, r0, lsl #2
     30c:	00000000 	andeq	r0, r0, r0
     310:	0000881f 	andeq	r8, r0, pc, lsl r8
     314:	006a1e00 	rsbeq	r1, sl, r0, lsl #28
     318:	00255c01 	eoreq	r5, r5, r1, lsl #24
     31c:	02140000 	andseq	r0, r4, #0
     320:	00000000 	andeq	r0, r0, r0
     324:	00a30404 	adceq	r0, r3, r4, lsl #8
     328:	a3150000 	tstge	r5, #0
     32c:	3a000000 	bcc	334 <_start-0x7ccc>
     330:	16000003 	strne	r0, [r0], -r3
     334:	0000006b 	andeq	r0, r0, fp, rrx
     338:	34210063 	strtcc	r0, [r1], #-99	; 0x63
     33c:	01000001 	tsteq	r0, r1
     340:	0081c466 	addeq	ip, r1, r6, ror #8
     344:	00009000 	andeq	r9, r0, r0
     348:	1c9c0100 	ldfnes	f0, [ip], {0}
     34c:	0d000004 	stceq	0, cr0, [r0, #-16]
     350:	6601006c 	strvs	r0, [r1], -ip, rrx
     354:	00000324 	andeq	r0, r0, r4, lsr #6
     358:	0000024a 	andeq	r0, r0, sl, asr #4
     35c:	01006e0d 	tsteq	r0, sp, lsl #28
     360:	00002c66 	andeq	r2, r0, r6, ror #24
     364:	00027600 	andeq	r7, r2, r0, lsl #12
     368:	00221800 	eoreq	r1, r2, r0, lsl #16
     36c:	66010000 	strvs	r0, [r1], -r0
     370:	0000002c 	andeq	r0, r0, ip, lsr #32
     374:	000002a4 	andeq	r0, r0, r4, lsr #5
     378:	746f741e 	strbtvc	r7, [pc], #-1054	; 380 <_start-0x7c80>
     37c:	2c670100 	stfcse	f0, [r7], #-0
     380:	d0000000 	andle	r0, r0, r0
     384:	10000002 	andne	r0, r0, r2
     388:	0000004e 	andeq	r0, r0, lr, asr #32
     38c:	002c6701 	eoreq	r6, ip, r1, lsl #14
     390:	02ef0000 	rsceq	r0, pc, #0
     394:	a81f0000 	ldmdage	pc, {}	; <UNPREDICTABLE>
     398:	1e000000 	cdpne	0, 0, cr0, cr0, cr0, {0}
     39c:	69010069 	stmdbvs	r1, {r0, r3, r5, r6}
     3a0:	00000025 	andeq	r0, r0, r5, lsr #32
     3a4:	0000030e 	andeq	r0, r0, lr, lsl #6
     3a8:	0081fc20 	addeq	pc, r1, r0, lsr #24
     3ac:	00004000 	andeq	r4, r0, r0
     3b0:	00651e00 	rsbeq	r1, r5, r0, lsl #28
     3b4:	03246a01 	teqeq	r4, #4096	; 0x1000
     3b8:	03500000 	cmpeq	r0, #0
     3bc:	74100000 	ldrvc	r0, [r0], #-0
     3c0:	01000001 	tsteq	r0, r1
     3c4:	00002c6c 	andeq	r2, r0, ip, ror #24
     3c8:	00037300 	andeq	r7, r3, r0, lsl #6
     3cc:	78651e00 	stmdavc	r5!, {r9, sl, fp, ip}^
     3d0:	6f010070 	svcvs	0x00010070
     3d4:	0000002c 	andeq	r0, r0, ip, lsr #32
     3d8:	00000386 	andeq	r0, r0, r6, lsl #7
     3dc:	7272651e 	rsbsvc	r6, r2, #125829120	; 0x7800000
     3e0:	2c700100 	ldfcse	f0, [r0], #-0
     3e4:	99000000 	stmdbls	r0, {}	; <UNPREDICTABLE>
     3e8:	22000003 	andcs	r0, r0, #3
     3ec:	0000823c 	andeq	r8, r0, ip, lsr r2
     3f0:	000005fd 	strdeq	r0, [r0], -sp
     3f4:	02510113 	subseq	r0, r1, #-1073741820	; 0xc0000004
     3f8:	01137f77 	tsteq	r3, r7, ror pc
     3fc:	98030550 	stmdals	r3, {r4, r6, r8, sl}
     400:	13000099 	movwne	r0, #153	; 0x99
     404:	020c7d02 	andeq	r7, ip, #2, 26	; 0x80
     408:	02130076 	andseq	r0, r3, #118	; 0x76
     40c:	7402047d 	strvc	r0, [r2], #-1149	; 0x47d
     410:	7d021300 	stcvc	3, cr1, [r2, #-0]
     414:	00750200 	rsbseq	r0, r5, r0, lsl #4
     418:	00000000 	andeq	r0, r0, r0
     41c:	00000f21 	andeq	r0, r0, r1, lsr #30
     420:	54770100 	ldrbtpl	r0, [r7], #-256	; 0x100
     424:	50000082 	andpl	r0, r0, r2, lsl #1
     428:	01000000 	mrseq	r0, (UNDEF: 0)
     42c:	0004e49c 	muleq	r4, ip, r4
     430:	69702300 	ldmdbvs	r0!, {r8, r9, sp}^
     434:	7801006e 	stmdavc	r1, {r1, r2, r3, r5, r6}
     438:	00000025 	andeq	r0, r0, r5, lsr #32
     43c:	6f6c2415 	svcvs	0x006c2415
     440:	7e010067 	cdpvc	0, 0, cr0, cr1, cr7, {3}
     444:	000004e4 	andeq	r0, r0, r4, ror #9
     448:	7fa89103 	svcvc	0x00a89103
     44c:	01006e1e 	tsteq	r0, lr, lsl lr
     450:	00002c80 	andeq	r2, r0, r0, lsl #25
     454:	0003b800 	andeq	fp, r3, r0, lsl #16
     458:	82681100 	rsbhi	r1, r8, #0, 2
     45c:	00080000 	andeq	r0, r8, r0
     460:	04720000 	ldrbteq	r0, [r2], #-0
     464:	69230000 	stmdbvs	r3!, {}	; <UNPREDICTABLE>
     468:	7b01006e 	blvc	40628 <__bss_end__+0x36608>
     46c:	0000002c 	andeq	r0, r0, ip, lsr #32
     470:	60140001 	andsvs	r0, r4, r1
     474:	1a000082 	bne	684 <_start-0x797c>
     478:	12000006 	andne	r0, r0, #6
     47c:	00008268 	andeq	r8, r0, r8, ror #4
     480:	00000621 	andeq	r0, r0, r1, lsr #12
     484:	0000048e 	andeq	r0, r0, lr, lsl #9
     488:	01500113 	cmpeq	r0, r3, lsl r1
     48c:	78120045 	ldmdavc	r2, {r0, r2, r6}
     490:	ca000082 	bgt	6a0 <_start-0x7960>
     494:	a1000000 	mrsge	r0, (UNDEF: 0)
     498:	13000004 	movwne	r0, #4
     49c:	31015001 	tstcc	r1, r1
     4a0:	828c1200 	addhi	r1, ip, #0, 4
     4a4:	01bf0000 			; <UNDEFINED> instruction: 0x01bf0000
     4a8:	04bf0000 	ldrteq	r0, [pc], #0	; 4b0 <_start-0x7b50>
     4ac:	01130000 	tsteq	r3, r0
     4b0:	133a0152 	teqne	sl, #-2147483628	; 0x80000014
     4b4:	7d025101 	stfvcs	f5, [r2, #-4]
     4b8:	50011300 	andpl	r1, r1, r0, lsl #6
     4bc:	12004501 	andne	r4, r0, #4194304	; 0x400000
     4c0:	0000829c 	muleq	r0, ip, r2
     4c4:	0000033a 	andeq	r0, r0, sl, lsr r3
     4c8:	000004da 	ldrdeq	r0, [r0], -sl
     4cc:	03520113 	cmpeq	r2, #-1073741820	; 0xc0000004
     4d0:	1317700a 	tstne	r7, #10
     4d4:	7d025001 	stcvc	0, cr5, [r2, #-4]
     4d8:	a0140000 	andsge	r0, r4, r0
     4dc:	13000082 	movwne	r0, #130	; 0x82
     4e0:	00000006 	andeq	r0, r0, r6
     4e4:	0000a315 	andeq	sl, r0, r5, lsl r3
     4e8:	0004f400 	andeq	pc, r4, r0, lsl #8
     4ec:	006b1600 	rsbeq	r1, fp, r0, lsl #12
     4f0:	00090000 	andeq	r0, r9, r0
     4f4:	00014725 	andeq	r4, r1, r5, lsr #14
     4f8:	03070100 	movweq	r0, #28928	; 0x7100
     4fc:	00000005 	andeq	r0, r0, r5
     500:	04202000 	strteq	r2, [r0], #-0
     504:	00050904 	andeq	r0, r5, r4, lsl #18
     508:	002c2600 	eoreq	r2, ip, r0, lsl #12
     50c:	0a250000 	beq	940514 <__bss_end__+0x9364f4>
     510:	01000002 	tsteq	r0, r2
     514:	00050308 	andeq	r0, r5, r8, lsl #6
     518:	20001c00 	andcs	r1, r0, r0, lsl #24
     51c:	02742520 	rsbseq	r2, r4, #32, 10	; 0x8000000
     520:	09010000 	stmdbeq	r1, {}	; <UNPREDICTABLE>
     524:	00000503 	andeq	r0, r0, r3, lsl #10
     528:	20200028 	eorcs	r0, r0, r8, lsr #32
     52c:	0000e725 	andeq	lr, r0, r5, lsr #14
     530:	030b0100 	movweq	r0, #45312	; 0xb100
     534:	00000005 	andeq	r0, r0, r5
     538:	25202000 	strcs	r2, [r0, #-0]!
     53c:	000000ef 	andeq	r0, r0, pc, ror #1
     540:	05030c01 	streq	r0, [r3, #-3073]	; 0xc01
     544:	00040000 	andeq	r0, r4, r0
     548:	00252020 	eoreq	r2, r5, r0, lsr #32
     54c:	01000000 	mrseq	r0, (UNDEF: 0)
     550:	0005030d 	andeq	r0, r5, sp, lsl #6
     554:	20000800 	andcs	r0, r0, r0, lsl #16
     558:	00f72520 	rscseq	r2, r7, r0, lsr #10
     55c:	0e010000 	cdpeq	0, 0, cr0, cr1, cr0, {0}
     560:	00000503 	andeq	r0, r0, r3, lsl #10
     564:	2020000c 	eorcs	r0, r0, ip
     568:	0000ff25 	andeq	pc, r0, r5, lsr #30
     56c:	030f0100 	movweq	r0, #61696	; 0xf100
     570:	10000005 	andne	r0, r0, r5
     574:	25202000 	strcs	r2, [r0, #-0]!
     578:	00000107 	andeq	r0, r0, r7, lsl #2
     57c:	05031001 	streq	r1, [r3, #-1]
     580:	00140000 	andseq	r0, r4, r0
     584:	56252020 	strtpl	r2, [r5], -r0, lsr #32
     588:	01000000 	mrseq	r0, (UNDEF: 0)
     58c:	00050312 	andeq	r0, r5, r2, lsl r3
     590:	20001c00 	andcs	r1, r0, r0, lsl #24
     594:	005d2520 	subseq	r2, sp, r0, lsr #10
     598:	13010000 	movwne	r0, #4096	; 0x1000
     59c:	00000503 	andeq	r0, r0, r3, lsl #10
     5a0:	20200020 	eorcs	r0, r0, r0, lsr #32
     5a4:	00000825 	andeq	r0, r0, r5, lsr #16
     5a8:	03150100 	tsteq	r5, #0, 2
     5ac:	28000005 	stmdacs	r0, {r0, r2}
     5b0:	25202000 	strcs	r2, [r0, #-0]!
     5b4:	00000152 	andeq	r0, r0, r2, asr r1
     5b8:	05031601 	streq	r1, [r3, #-1537]	; 0x601
     5bc:	002c0000 	eoreq	r0, ip, r0
     5c0:	64252020 	strtvs	r2, [r5], #-32
     5c4:	01000000 	mrseq	r0, (UNDEF: 0)
     5c8:	0005d118 	andeq	sp, r5, r8, lsl r1
     5cc:	20003400 	andcs	r3, r0, r0, lsl #8
     5d0:	05030520 	streq	r0, [r3, #-1312]	; 0x520
     5d4:	6b250000 	blvs	9405dc <__bss_end__+0x9365bc>
     5d8:	01000000 	mrseq	r0, (UNDEF: 0)
     5dc:	00050319 	andeq	r0, r5, r9, lsl r3
     5e0:	20003800 	andcs	r3, r0, r0, lsl #16
     5e4:	01912720 	orrseq	r2, r1, r0, lsr #14
     5e8:	50020000 	andpl	r0, r2, r0
     5ec:	000005f6 	strdeq	r0, [r0], -r6
     5f0:	00002c28 	andeq	r2, r0, r8, lsr #24
     5f4:	d8290000 	stmdale	r9!, {}	; <UNPREDICTABLE>
     5f8:	02000000 	andeq	r0, r0, #0
     5fc:	02fd2a1e 	rscseq	r2, sp, #122880	; 0x1e000
     600:	29020000 	stmdbcs	r2, {}	; <UNPREDICTABLE>
     604:	00000025 	andeq	r0, r0, r5, lsr #32
     608:	00000613 	andeq	r0, r0, r3, lsl r6
     60c:	00007928 	andeq	r7, r0, r8, lsr #18
     610:	29002b00 	stmdbcs	r0, {r8, r9, fp, sp}
     614:	00000159 	andeq	r0, r0, r9, asr r1
     618:	43296602 	teqmi	r9, #2097152	; 0x200000
     61c:	02000002 	andeq	r0, r0, #2
     620:	02282c8e 	eoreq	r2, r8, #36352	; 0x8e00
     624:	1c030000 	stcne	0, cr0, [r3], {-0}
     628:	00002c28 	andeq	r2, r0, r8, lsr #24
     62c:	91000000 	mrsls	r0, (UNDEF: 0)
     630:	04000001 	streq	r0, [r0], #-1
     634:	00025600 	andeq	r5, r2, r0, lsl #12
     638:	a3010400 	movwge	r0, #5120	; 0x1400
     63c:	01000002 	tsteq	r0, r2
     640:	00000295 	muleq	r0, r5, r2
     644:	0000030e 	andeq	r0, r0, lr, lsl #6
     648:	000082a4 	andeq	r8, r0, r4, lsr #5
     64c:	00000058 	andeq	r0, r0, r8, asr r0
     650:	00000189 	andeq	r0, r0, r9, lsl #3
     654:	00028602 	andeq	r8, r2, r2, lsl #12
     658:	30280200 	eorcc	r0, r8, r0, lsl #4
     65c:	03000000 	movweq	r0, #0
     660:	00000304 	andeq	r0, r0, r4, lsl #6
     664:	47000304 	strmi	r0, [r0, -r4, lsl #6]
     668:	04000000 	streq	r0, [r0], #-0
     66c:	00000357 	andeq	r0, r0, r7, asr r3
     670:	00000047 	andeq	r0, r0, r7, asr #32
     674:	04050000 	streq	r0, [r5], #-0
     678:	00030602 	andeq	r0, r3, r2, lsl #12
     67c:	25620200 	strbcs	r0, [r2, #-512]!	; 0x200
     680:	06000000 	streq	r0, [r0], -r0
     684:	6e690504 	cdpvs	5, 6, cr0, cr9, cr4, {0}
     688:	04070074 	streq	r0, [r7], #-116	; 0x74
     68c:	00003307 	andeq	r3, r0, r7, lsl #6
     690:	06010700 	streq	r0, [r1], -r0, lsl #14
     694:	0000017b 	andeq	r0, r0, fp, ror r1
     698:	87050207 	strhi	r0, [r5, -r7, lsl #4]
     69c:	07000001 	streq	r0, [r0, -r1]
     6a0:	00450504 	subeq	r0, r5, r4, lsl #10
     6a4:	08070000 	stmdaeq	r7, {}	; <UNPREDICTABLE>
     6a8:	00004005 	andeq	r4, r0, r5
     6ac:	08010700 	stmdaeq	r1, {r8, r9, sl}
     6b0:	00000179 	andeq	r0, r0, r9, ror r1
     6b4:	1c070207 	sfmne	f0, 4, [r7], {7}
     6b8:	07000001 	streq	r0, [r0, -r1]
     6bc:	002e0704 	eoreq	r0, lr, r4, lsl #14
     6c0:	08070000 	stmdaeq	r7, {}	; <UNPREDICTABLE>
     6c4:	00002907 	andeq	r2, r0, r7, lsl #18
     6c8:	07040700 	streq	r0, [r4, -r0, lsl #14]
     6cc:	00000166 	andeq	r0, r0, r6, ror #2
     6d0:	00a70408 	adceq	r0, r7, r8, lsl #8
     6d4:	01070000 	mrseq	r0, (UNDEF: 7)
     6d8:	00018208 	andeq	r8, r1, r8, lsl #4
     6dc:	b4040800 	strlt	r0, [r4], #-2048	; 0x800
     6e0:	09000000 	stmdbeq	r0, {}	; <UNPREDICTABLE>
     6e4:	000000a7 	andeq	r0, r0, r7, lsr #1
     6e8:	0002fd0a 	andeq	pc, r2, sl, lsl #26
     6ec:	54060100 	strpl	r0, [r6], #-256	; 0x100
     6f0:	a4000000 	strge	r0, [r0], #-0
     6f4:	58000082 	stmdapl	r0, {r1, r7}
     6f8:	01000000 	mrseq	r0, (UNDEF: 0)
     6fc:	0001439c 	muleq	r1, ip, r3
     700:	6d660b00 	vstmdbvs	r6!, {d16-d15}
     704:	06010074 			; <UNDEFINED> instruction: 0x06010074
     708:	000000ae 	andeq	r0, r0, lr, lsr #1
     70c:	0c709102 	ldfeqp	f1, [r0], #-8
     710:	6675620d 	ldrbtvs	r6, [r5], -sp, lsl #4
     714:	43080100 	movwmi	r0, #33024	; 0x8100
     718:	05000001 	streq	r0, [r0, #-1]
     71c:	009c1003 	addseq	r1, ip, r3
     720:	03520e00 	cmpeq	r2, #0, 28
     724:	09010000 	stmdbeq	r1, {}	; <UNPREDICTABLE>
     728:	00000049 	andeq	r0, r0, r9, asr #32
     72c:	0f5c9102 	svceq	0x005c9102
     730:	01007a73 	tsteq	r0, r3, ror sl
     734:	0000540c 	andeq	r5, r0, ip, lsl #8
     738:	0003d600 	andeq	sp, r3, r0, lsl #12
     73c:	82cc1000 	sbchi	r1, ip, #0
     740:	01740000 	cmneq	r4, r0
     744:	01360000 	teqeq	r6, r0
     748:	01110000 	tsteq	r1, r0
     74c:	4c910253 	lfmmi	f0, 4, [r1], {83}	; 0x53
     750:	03520111 	cmpeq	r2, #1073741828	; 0x40000004
     754:	11064891 			; <UNDEFINED> instruction: 0x11064891
     758:	0a035101 	beq	d4b64 <__bss_end__+0xcab44>
     75c:	01110400 	tsteq	r1, r0, lsl #8
     760:	00740250 	rsbseq	r0, r4, r0, asr r2
     764:	82e01200 	rschi	r1, r0, #0, 4
     768:	01110000 	tsteq	r1, r0
     76c:	00740250 	rsbseq	r0, r4, r0, asr r2
     770:	a7130000 	ldrge	r0, [r3, -r0]
     774:	54000000 	strpl	r0, [r0], #-0
     778:	14000001 	strne	r0, [r0], #-1
     77c:	0000009a 	muleq	r0, sl, r0
     780:	150003ff 	strne	r0, [r0, #-1023]	; 0x3ff
     784:	00000054 	andeq	r0, r0, r4, asr r0
     788:	00000163 	andeq	r0, r0, r3, ror #2
     78c:	0000ae16 	andeq	sl, r0, r6, lsl lr
     790:	aa170000 	bge	5c0798 <__bss_end__+0x5b6778>
     794:	04000003 	streq	r0, [r0], #-3
     798:	00016e22 	andeq	r6, r1, r2, lsr #28
     79c:	54040800 	strpl	r0, [r4], #-2048	; 0x800
     7a0:	18000001 	stmdane	r0, {r0}
     7a4:	000002fa 	strdeq	r0, [r0], -sl
     7a8:	00540205 	subseq	r0, r4, r5, lsl #4
     7ac:	a1160000 	tstge	r6, r0
     7b0:	16000000 	strne	r0, [r0], -r0
     7b4:	00000054 	andeq	r0, r0, r4, asr r0
     7b8:	0000ae16 	andeq	sl, r0, r6, lsl lr
     7bc:	00491600 	subeq	r1, r9, r0, lsl #12
     7c0:	00000000 	andeq	r0, r0, r0
     7c4:	00000113 	andeq	r0, r0, r3, lsl r1
     7c8:	03870004 	orreq	r0, r7, #4
     7cc:	01040000 	mrseq	r0, (UNDEF: 4)
     7d0:	000002a3 	andeq	r0, r0, r3, lsr #5
     7d4:	00037901 	andeq	r7, r3, r1, lsl #18
     7d8:	00030e00 	andeq	r0, r3, r0, lsl #28
     7dc:	0082fc00 	addeq	pc, r2, r0, lsl #24
     7e0:	00003c00 	andeq	r3, r0, r0, lsl #24
     7e4:	00028f00 	andeq	r8, r2, r0, lsl #30
     7e8:	05040200 	streq	r0, [r4, #-512]	; 0x200
     7ec:	00746e69 	rsbseq	r6, r4, r9, ror #28
     7f0:	33070403 	movwcc	r0, #29699	; 0x7403
     7f4:	03000000 	movweq	r0, #0
     7f8:	017b0601 	cmneq	fp, r1, lsl #12
     7fc:	02030000 	andeq	r0, r3, #0
     800:	00018705 	andeq	r8, r1, r5, lsl #14
     804:	05040300 	streq	r0, [r4, #-768]	; 0x300
     808:	00000045 	andeq	r0, r0, r5, asr #32
     80c:	40050803 	andmi	r0, r5, r3, lsl #16
     810:	03000000 	movweq	r0, #0
     814:	01790801 	cmneq	r9, r1, lsl #16
     818:	02030000 	andeq	r0, r3, #0
     81c:	00011c07 	andeq	r1, r1, r7, lsl #24
     820:	07040300 	streq	r0, [r4, -r0, lsl #6]
     824:	0000002e 	andeq	r0, r0, lr, lsr #32
     828:	29070803 	stmdbcs	r7, {r0, r1, fp}
     82c:	03000000 	movweq	r0, #0
     830:	01660704 	cmneq	r6, r4, lsl #14
     834:	01030000 	mrseq	r0, (UNDEF: 3)
     838:	00018208 	andeq	r8, r1, r8, lsl #4
     83c:	035c0400 	cmpeq	ip, #0, 8
     840:	03010000 	movweq	r0, #4096	; 0x1000
     844:	00000025 	andeq	r0, r0, r5, lsr #32
     848:	000082fc 	strdeq	r8, [r0], -ip
     84c:	00000014 	andeq	r0, r0, r4, lsl r0
     850:	00b09c01 	adcseq	r9, r0, r1, lsl #24
     854:	63050000 	movwvs	r0, #20480	; 0x5000
     858:	25030100 	strcs	r0, [r3, #-256]	; 0x100
     85c:	ff000000 			; <UNDEFINED> instruction: 0xff000000
     860:	06000003 	streq	r0, [r0], -r3
     864:	00008308 	andeq	r8, r0, r8, lsl #6
     868:	00000109 	andeq	r0, r0, r9, lsl #2
     86c:	02500107 	subseq	r0, r0, #-1073741823	; 0xc0000001
     870:	00000074 	andeq	r0, r0, r4, ror r0
     874:	0000d808 	andeq	sp, r0, r8, lsl #16
     878:	10080100 	andne	r0, r8, r0, lsl #2
     87c:	18000083 	stmdane	r0, {r0, r1, r7}
     880:	01000000 	mrseq	r0, (UNDEF: 0)
     884:	0388099c 	orreq	r0, r8, #156, 18	; 0x270000
     888:	0b010000 	bleq	40890 <__bss_end__+0x36870>
     88c:	00008328 	andeq	r8, r0, r8, lsr #6
     890:	00000010 	andeq	r0, r0, r0, lsl r0
     894:	00e39c01 	rsceq	r9, r3, r1, lsl #24
     898:	660a0000 	strvs	r0, [sl], -r0
     89c:	0b010070 	bleq	40a64 <__bss_end__+0x36a44>
     8a0:	000000f2 	strdeq	r0, [r0], -r2
     8a4:	0b005001 	bleq	148b0 <__bss_end__+0xa890>
     8a8:	00000025 	andeq	r0, r0, r5, lsr #32
     8ac:	000000f2 	strdeq	r0, [r0], -r2
     8b0:	0000250c 	andeq	r2, r0, ip, lsl #10
     8b4:	040d0000 	streq	r0, [sp], #-0
     8b8:	000000e3 	andeq	r0, r0, r3, ror #1
     8bc:	00036d0e 	andeq	r6, r3, lr, lsl #26
     8c0:	f2060100 	vrhadd.s8	d0, d6, d0
     8c4:	05000000 	streq	r0, [r0, #-0]
     8c8:	0098b403 	addseq	fp, r8, r3, lsl #8
     8cc:	04f50f00 	ldrbteq	r0, [r5], #3840	; 0xf00
     8d0:	3c020000 	stccc	0, cr0, [r2], {-0}
     8d4:	00002c0c 	andeq	r2, r0, ip, lsl #24
     8d8:	ee000000 	cdp	0, 0, cr0, cr0, cr0, {0}
     8dc:	04000000 	streq	r0, [r0], #-0
     8e0:	00046f00 	andeq	r6, r4, r0, lsl #30
     8e4:	a3010400 	movwge	r0, #5120	; 0x1400
     8e8:	01000002 	tsteq	r0, r2
     8ec:	00000395 	muleq	r0, r5, r3
     8f0:	0000030e 	andeq	r0, r0, lr, lsl #6
     8f4:	00008338 	andeq	r8, r0, r8, lsr r3
     8f8:	00000034 	andeq	r0, r0, r4, lsr r0
     8fc:	0000031d 	andeq	r0, r0, sp, lsl r3
     900:	69050402 	stmdbvs	r5, {r1, sl}
     904:	0300746e 	movweq	r7, #1134	; 0x46e
     908:	00330704 	eorseq	r0, r3, r4, lsl #14
     90c:	01030000 	mrseq	r0, (UNDEF: 3)
     910:	00017b06 	andeq	r7, r1, r6, lsl #22
     914:	05020300 	streq	r0, [r2, #-768]	; 0x300
     918:	00000187 	andeq	r0, r0, r7, lsl #3
     91c:	45050403 	strmi	r0, [r5, #-1027]	; 0x403
     920:	03000000 	movweq	r0, #0
     924:	00400508 	subeq	r0, r0, r8, lsl #10
     928:	01030000 	mrseq	r0, (UNDEF: 3)
     92c:	00017908 	andeq	r7, r1, r8, lsl #18
     930:	07020300 	streq	r0, [r2, -r0, lsl #6]
     934:	0000011c 	andeq	r0, r0, ip, lsl r1
     938:	2e070403 	cdpcs	4, 0, cr0, cr7, cr3, {0}
     93c:	03000000 	movweq	r0, #0
     940:	00290708 	eoreq	r0, r9, r8, lsl #14
     944:	04030000 	streq	r0, [r3], #-0
     948:	00016607 	andeq	r6, r1, r7, lsl #12
     94c:	08010300 	stmdaeq	r1, {r8, r9}
     950:	00000182 	andeq	r0, r0, r2, lsl #3
     954:	007f0404 	rsbseq	r0, pc, r4, lsl #8
     958:	72050000 	andvc	r0, r5, #0
     95c:	06000000 	streq	r0, [r0], -r0
     960:	000003a1 	andeq	r0, r0, r1, lsr #7
     964:	00250401 	eoreq	r0, r5, r1, lsl #8
     968:	83380000 	teqhi	r8, #0
     96c:	00340000 	eorseq	r0, r4, r0
     970:	9c010000 	stcls	0, cr0, [r1], {-0}
     974:	000000ab 	andeq	r0, r0, fp, lsr #1
     978:	01007007 	tsteq	r0, r7
     97c:	00007904 	andeq	r7, r0, r4, lsl #18
     980:	00041d00 	andeq	r1, r4, r0, lsl #26
     984:	25080000 	strcs	r0, [r8, #-0]
     988:	ba000000 	blt	990 <_start-0x7670>
     98c:	09000000 	stmdbeq	r0, {}	; <UNPREDICTABLE>
     990:	00000025 	andeq	r0, r0, r5, lsr #32
     994:	036d0a00 	cmneq	sp, #0, 20
     998:	1d020000 	stcne	0, cr0, [r2, #-0]
     99c:	000000c5 	andeq	r0, r0, r5, asr #1
     9a0:	00ab0404 	adceq	r0, fp, r4, lsl #8
     9a4:	25080000 	strcs	r0, [r8, #-0]
     9a8:	da000000 	ble	9b0 <_start-0x7650>
     9ac:	09000000 	stmdbeq	r0, {}	; <UNPREDICTABLE>
     9b0:	00000079 	andeq	r0, r0, r9, ror r0
     9b4:	03aa0b00 			; <UNDEFINED> instruction: 0x03aa0b00
     9b8:	0c010000 	stceq	0, cr0, [r1], {-0}
     9bc:	000000eb 	andeq	r0, r0, fp, ror #1
     9c0:	98b80305 	ldmls	r8!, {r0, r2, r8, r9}
     9c4:	04040000 	streq	r0, [r4], #-0
     9c8:	000000cb 	andeq	r0, r0, fp, asr #1
     9cc:	0006a100 	andeq	sl, r6, r0, lsl #2
     9d0:	08000400 	stmdaeq	r0, {sl}
     9d4:	04000005 	streq	r0, [r0], #-5
     9d8:	0002a301 	andeq	sl, r2, r1, lsl #6
     9dc:	03db0100 	bicseq	r0, fp, #0, 2
     9e0:	030e0000 	movweq	r0, #57344	; 0xe000
     9e4:	836c0000 	cmnhi	ip, #0
     9e8:	05240000 	streq	r0, [r4, #-0]!
     9ec:	03b70000 			; <UNDEFINED> instruction: 0x03b70000
     9f0:	04020000 	streq	r0, [r2], #-0
     9f4:	746e6905 	strbtvc	r6, [lr], #-2309	; 0x905
     9f8:	07040300 	streq	r0, [r4, -r0, lsl #6]
     9fc:	00000033 	andeq	r0, r0, r3, lsr r0
     a00:	7b060103 	blvc	180e14 <__bss_end__+0x176df4>
     a04:	03000001 	movweq	r0, #1
     a08:	01870502 	orreq	r0, r7, r2, lsl #10
     a0c:	04030000 	streq	r0, [r3], #-0
     a10:	00004505 	andeq	r4, r0, r5, lsl #10
     a14:	05080300 	streq	r0, [r8, #-768]	; 0x300
     a18:	00000040 	andeq	r0, r0, r0, asr #32
     a1c:	79080103 	stmdbvc	r8, {r0, r1, r8}
     a20:	03000001 	movweq	r0, #1
     a24:	011c0702 	tsteq	ip, r2, lsl #14
     a28:	04030000 	streq	r0, [r3], #-0
     a2c:	00002e07 	andeq	r2, r0, r7, lsl #28
     a30:	07080300 	streq	r0, [r8, -r0, lsl #6]
     a34:	00000029 	andeq	r0, r0, r9, lsr #32
     a38:	66070403 	strvs	r0, [r7], -r3, lsl #8
     a3c:	04000001 	streq	r0, [r0], #-1
     a40:	7a040504 	bvc	101e58 <__bss_end__+0xf7e38>
     a44:	03000000 	movweq	r0, #0
     a48:	01820801 	orreq	r0, r2, r1, lsl #16
     a4c:	04050000 	streq	r0, [r5], #-0
     a50:	00000087 	andeq	r0, r0, r7, lsl #1
     a54:	00007a06 	andeq	r7, r0, r6, lsl #20
     a58:	02860700 	addeq	r0, r6, #0, 14
     a5c:	28020000 	stmdacs	r2, {}	; <UNPREDICTABLE>
     a60:	00000097 	muleq	r0, r7, r0
     a64:	00030408 	andeq	r0, r3, r8, lsl #8
     a68:	00040400 	andeq	r0, r4, r0, lsl #8
     a6c:	000000ae 	andeq	r0, r0, lr, lsr #1
     a70:	00035709 	andeq	r5, r3, r9, lsl #14
     a74:	00007200 	andeq	r7, r0, r0, lsl #4
     a78:	07000000 	streq	r0, [r0, -r0]
     a7c:	00000306 	andeq	r0, r0, r6, lsl #6
     a80:	008c6202 	addeq	r6, ip, r2, lsl #4
     a84:	bd0a0000 	stclt	0, cr0, [sl, #-0]
     a88:	01000003 	tsteq	r0, r3
     a8c:	00002527 	andeq	r2, r0, r7, lsr #10
     a90:	00836c00 	addeq	r6, r3, r0, lsl #24
     a94:	00001400 	andeq	r1, r0, r0, lsl #8
     a98:	e09c0100 	adds	r0, ip, r0, lsl #2
     a9c:	0b000000 	bleq	aa4 <_start-0x755c>
     aa0:	27010063 	strcs	r0, [r1, -r3, rrx]
     aa4:	00000025 	andeq	r0, r0, r5, lsr #32
     aa8:	0000043b 	andeq	r0, r0, fp, lsr r4
     aac:	61700c00 	cmnvs	r0, r0, lsl #24
     ab0:	2e010064 	cdpcs	0, 0, cr0, cr1, cr4, {3}
     ab4:	00000074 	andeq	r0, r0, r4, ror r0
     ab8:	00008380 	andeq	r8, r0, r0, lsl #7
     abc:	0000002c 	andeq	r0, r0, ip, lsr #32
     ac0:	01309c01 	teqeq	r0, r1, lsl #24
     ac4:	700b0000 	andvc	r0, fp, r0
     ac8:	742e0100 	strtvc	r0, [lr], #-256	; 0x100
     acc:	69000000 	stmdbvs	r0, {}	; <UNPREDICTABLE>
     ad0:	0d000004 	stceq	0, cr0, [r0, #-16]
     ad4:	000003cd 	andeq	r0, r0, sp, asr #7
     ad8:	00742e01 	rsbseq	r2, r4, r1, lsl #28
     adc:	04940000 	ldreq	r0, [r4], #0
     ae0:	fb0e0000 	blx	380aea <__bss_end__+0x376aca>
     ae4:	01000003 	tsteq	r0, r3
     ae8:	0000252e 	andeq	r2, r0, lr, lsr #10
     aec:	0f520100 	svceq	0x00520100
     af0:	006e656c 	rsbeq	r6, lr, ip, ror #10
     af4:	00252f01 	eoreq	r2, r5, r1, lsl #30
     af8:	51010000 	mrspl	r0, (UNDEF: 1)
     afc:	03b50a00 			; <UNDEFINED> instruction: 0x03b50a00
     b00:	37010000 	strcc	r0, [r1, -r0]
     b04:	00000074 	andeq	r0, r0, r4, ror r0
     b08:	000083ac 	andeq	r8, r0, ip, lsr #7
     b0c:	00000040 	andeq	r0, r0, r0, asr #32
     b10:	019c9c01 	orrseq	r9, ip, r1, lsl #24
     b14:	640b0000 	strvs	r0, [fp], #-0
     b18:	01007473 	tsteq	r0, r3, ror r4
     b1c:	00007437 	andeq	r7, r0, r7, lsr r4
     b20:	0004b500 	andeq	fp, r4, r0, lsl #10
     b24:	006e0b00 	rsbeq	r0, lr, r0, lsl #22
     b28:	00253701 	eoreq	r3, r5, r1, lsl #14
     b2c:	04ed0000 	strbteq	r0, [sp], #0
     b30:	700b0000 	andvc	r0, fp, r0
     b34:	74370100 	ldrtvc	r0, [r7], #-256	; 0x100
     b38:	0e000000 	cdpeq	0, 0, cr0, cr0, cr0, {0}
     b3c:	0d000005 	stceq	0, cr0, [r0, #-20]	; 0xffffffec
     b40:	000004e1 	andeq	r0, r0, r1, ror #9
     b44:	00743701 	rsbseq	r3, r4, r1, lsl #14
     b48:	05440000 	strbeq	r0, [r4, #-0]
     b4c:	6c100000 	ldcvs	0, cr0, [r0], {-0}
     b50:	01006e65 	tsteq	r0, r5, ror #28
     b54:	00002539 	andeq	r2, r0, r9, lsr r5
     b58:	00056200 	andeq	r6, r5, r0, lsl #4
     b5c:	00730f00 	rsbseq	r0, r3, r0, lsl #30
     b60:	00743d01 	rsbseq	r3, r4, r1, lsl #26
     b64:	50010000 	andpl	r0, r1, r0
     b68:	04090a00 	streq	r0, [r9], #-2560	; 0xa00
     b6c:	47010000 	strmi	r0, [r1, -r0]
     b70:	00000074 	andeq	r0, r0, r4, ror r0
     b74:	000083ec 	andeq	r8, r0, ip, ror #7
     b78:	000001a8 	andeq	r0, r0, r8, lsr #3
     b7c:	02df9c01 	sbcseq	r9, pc, #256	; 0x100
     b80:	cd0d0000 	stcgt	0, cr0, [sp, #-0]
     b84:	01000003 	tsteq	r0, r3
     b88:	00002c47 	andeq	r2, r0, r7, asr #24
     b8c:	00058900 	andeq	r8, r5, r0, lsl #18
     b90:	73640b00 	cmnvc	r4, #0, 22
     b94:	47010074 	smlsdxmi	r1, r4, r0, r0
     b98:	00000074 	andeq	r0, r0, r4, ror r0
     b9c:	000005b7 			; <UNDEFINED> instruction: 0x000005b7
     ba0:	01006e0b 	tsteq	r0, fp, lsl #28
     ba4:	00002547 	andeq	r2, r0, r7, asr #10
     ba8:	00062500 	andeq	r2, r6, r0, lsl #10
     bac:	61760b00 	cmnvs	r6, r0, lsl #22
     bb0:	4701006c 	strmi	r0, [r1, -ip, rrx]
     bb4:	00000025 	andeq	r0, r0, r5, lsr #32
     bb8:	00000651 	andeq	r0, r0, r1, asr r6
     bbc:	0003fb0d 	andeq	pc, r3, sp, lsl #22
     bc0:	25470100 	strbcs	r0, [r7, #-256]	; 0x100
     bc4:	d0000000 	andle	r0, r0, r0
     bc8:	0e000006 	cdpeq	0, 0, cr0, cr0, cr6, {0}
     bcc:	000003d2 	ldrdeq	r0, [r0], -r2
     bd0:	00254701 	eoreq	r4, r5, r1, lsl #14
     bd4:	91020000 	mrsls	r0, (UNDEF: 2)
     bd8:	75620f04 	strbvc	r0, [r2, #-3844]!	; 0xf04
     bdc:	4c010066 	stcmi	0, cr0, [r1], {102}	; 0x66
     be0:	000002df 	ldrdeq	r0, [r0], -pc	; <UNPREDICTABLE>
     be4:	7fa89103 	svcvc	0x00a89103
     be8:	01007010 	tsteq	r0, r0, lsl r0
     bec:	0000744c 	andeq	r7, r0, ip, asr #8
     bf0:	0006fa00 	andeq	pc, r6, r0, lsl #20
     bf4:	00751000 	rsbseq	r1, r5, r0
     bf8:	002c4d01 	eoreq	r4, ip, r1, lsl #26
     bfc:	07b60000 	ldreq	r0, [r6, r0]!
     c00:	0f110000 	svceq	0x00110000
     c04:	ff000001 			; <UNDEFINED> instruction: 0xff000001
     c08:	05000002 	streq	r0, [r0, #-2]
     c0c:	0099d403 	addseq	sp, r9, r3, lsl #8
     c10:	84581200 	ldrbhi	r1, [r8], #-512	; 0x200
     c14:	00740000 	rsbseq	r0, r4, r0
     c18:	02610000 	rsbeq	r0, r1, #0
     c1c:	af130000 	svcge	0x00130000
     c20:	01000003 	tsteq	r0, r3
     c24:	00002c52 	andeq	r2, r0, r2, asr ip
     c28:	0008bb00 	andeq	fp, r8, r0, lsl #22
     c2c:	2c140000 	ldccs	0, cr0, [r4], {-0}
     c30:	80000085 	andhi	r0, r0, r5, lsl #1
     c34:	15000006 	strne	r0, [r0, #-6]
     c38:	00008548 	andeq	r8, r0, r8, asr #10
     c3c:	00000687 	andeq	r0, r0, r7, lsl #13
     c40:	000002a3 	andeq	r0, r0, r3, lsr #5
     c44:	02530116 	subseq	r0, r3, #-2147483643	; 0x80000005
     c48:	01167508 	tsteq	r6, r8, lsl #10
     c4c:	d4030552 	strle	r0, [r3], #-1362	; 0x552
     c50:	16000099 			; <UNDEFINED> instruction: 0x16000099
     c54:	03055101 	movweq	r5, #20737	; 0x5101
     c58:	00009a0c 	andeq	r9, r0, ip, lsl #20
     c5c:	05500116 	ldrbeq	r0, [r0, #-278]	; 0x116
     c60:	0099f803 	addseq	pc, r9, r3, lsl #16
     c64:	7d021600 	stcvc	6, cr1, [r2, #-0]
     c68:	20030500 	andcs	r0, r3, r0, lsl #10
     c6c:	0000009a 	muleq	r0, sl, r0
     c70:	00854c14 	addeq	r4, r5, r4, lsl ip
     c74:	00069d00 	andeq	r9, r6, r0, lsl #26
     c78:	85581500 	ldrbhi	r1, [r8, #-1280]	; 0x500
     c7c:	00e00000 	rsceq	r0, r0, r0
     c80:	02c10000 	sbceq	r0, r1, #0
     c84:	01160000 	tsteq	r6, r0
     c88:	a0910351 	addsge	r0, r1, r1, asr r3
     c8c:	6c17007f 	ldcvs	0, cr0, [r7], {127}	; 0x7f
     c90:	30000085 	andcc	r0, r0, r5, lsl #1
     c94:	16000001 	strne	r0, [r0], -r1
     c98:	91035301 	tstls	r3, r1, lsl #6
     c9c:	01167fa0 	tsteq	r6, r0, lsr #31
     ca0:	00740251 	rsbseq	r0, r4, r1, asr r2
     ca4:	02500116 	subseq	r0, r0, #-2147483643	; 0x80000005
     ca8:	00000075 	andeq	r0, r0, r5, ror r0
     cac:	00007a18 	andeq	r7, r0, r8, lsl sl
     cb0:	0002ef00 	andeq	lr, r2, r0, lsl #30
     cb4:	006b1900 	rsbeq	r1, fp, r0, lsl #18
     cb8:	003f0000 	eorseq	r0, pc, r0
     cbc:	00007a18 	andeq	r7, r0, r8, lsl sl
     cc0:	0002ff00 	andeq	pc, r2, r0, lsl #30
     cc4:	006b1900 	rsbeq	r1, fp, r0, lsl #18
     cc8:	00040000 	andeq	r0, r4, r0
     ccc:	0002ef06 	andeq	lr, r2, r6, lsl #30
     cd0:	03ec1a00 	mvneq	r1, #0, 20
     cd4:	1f010000 	svcne	0x00010000
     cd8:	00008594 	muleq	r0, r4, r5
     cdc:	00000068 	andeq	r0, r0, r8, rrx
     ce0:	03929c01 	orrseq	r9, r2, #256	; 0x100
     ce4:	010d0000 	mrseq	r0, (UNDEF: 13)
     ce8:	01000004 	tsteq	r0, r4
     cec:	0003a11f 	andeq	sl, r3, pc, lsl r1
     cf0:	0008e700 	andeq	lr, r8, r0, lsl #14
     cf4:	03c50d00 	biceq	r0, r5, #0, 26
     cf8:	1f010000 	svcne	0x00010000
     cfc:	000003b6 			; <UNDEFINED> instruction: 0x000003b6
     d00:	00000913 	andeq	r0, r0, r3, lsl r9
     d04:	00010f11 	andeq	r0, r1, r1, lsl pc
     d08:	0003cc00 	andeq	ip, r3, r0, lsl #24
     d0c:	dc030500 	cfstr32le	mvfx0, [r3], {-0}
     d10:	14000099 	strne	r0, [r0], #-153	; 0x99
     d14:	000085a8 	andeq	r8, r0, r8, lsr #11
     d18:	00000680 	andeq	r0, r0, r0, lsl #13
     d1c:	0085c415 	addeq	ip, r5, r5, lsl r4
     d20:	00068700 	andeq	r8, r6, r0, lsl #14
     d24:	00038800 	andeq	r8, r3, r0, lsl #16
     d28:	53011600 	movwpl	r1, #5632	; 0x1600
     d2c:	16200802 	strtne	r0, [r0], -r2, lsl #16
     d30:	03055201 	movweq	r5, #20993	; 0x5201
     d34:	000099dc 	ldrdeq	r9, [r0], -ip
     d38:	05510116 	ldrbeq	r0, [r1, #-278]	; 0x116
     d3c:	009a0c03 	addseq	r0, sl, r3, lsl #24
     d40:	50011600 	andpl	r1, r1, r0, lsl #12
     d44:	99f80305 	ldmibls	r8!, {r0, r2, r8, r9}^
     d48:	02160000 	andseq	r0, r6, #0
     d4c:	0305007d 	movweq	r0, #20605	; 0x507d
     d50:	00009a48 	andeq	r9, r0, r8, asr #20
     d54:	85c81400 	strbhi	r1, [r8, #1024]	; 0x400
     d58:	069d0000 	ldreq	r0, [sp], r0
     d5c:	1b000000 	blne	d64 <_start-0x729c>
     d60:	00000025 	andeq	r0, r0, r5, lsr #32
     d64:	000003a1 	andeq	r0, r0, r1, lsr #7
     d68:	0000251c 	andeq	r2, r0, ip, lsl r5
     d6c:	04050000 	streq	r0, [r5], #-0
     d70:	00000392 	muleq	r0, r2, r3
     d74:	0000251b 	andeq	r2, r0, fp, lsl r5
     d78:	0003b600 	andeq	fp, r3, r0, lsl #12
     d7c:	00811c00 	addeq	r1, r1, r0, lsl #24
     d80:	05000000 	streq	r0, [r0, #-0]
     d84:	0003a704 	andeq	sl, r3, r4, lsl #14
     d88:	007a1800 	rsbseq	r1, sl, r0, lsl #16
     d8c:	03cc0000 	biceq	r0, ip, #0
     d90:	6b190000 	blvs	640d98 <__bss_end__+0x636d78>
     d94:	0e000000 	cdpeq	0, 0, cr0, cr0, cr0, {0}
     d98:	03bc0600 			; <UNDEFINED> instruction: 0x03bc0600
     d9c:	fa1d0000 	blx	740da4 <__bss_end__+0x736d84>
     da0:	01000002 	tsteq	r0, r2
     da4:	0000257d 	andeq	r2, r0, sp, ror r5
     da8:	0085fc00 	addeq	pc, r5, r0, lsl #24
     dac:	00029400 	andeq	r9, r2, r0, lsl #8
     db0:	459c0100 	ldrmi	r0, [ip, #256]	; 0x100
     db4:	0b000006 	bleq	dd4 <_start-0x722c>
     db8:	00667562 	rsbeq	r7, r6, r2, ror #10
     dbc:	00747d01 	rsbseq	r7, r4, r1, lsl #26
     dc0:	093f0000 	ldmdbeq	pc!, {}	; <UNPREDICTABLE>
     dc4:	6e0b0000 	cdpvs	0, 0, cr0, cr11, cr0, {0}
     dc8:	257d0100 	ldrbcs	r0, [sp, #-256]!	; 0x100
     dcc:	6b000000 	blvs	dd4 <_start-0x722c>
     dd0:	0b000009 	bleq	dfc <_start-0x7204>
     dd4:	00746d66 	rsbseq	r6, r4, r6, ror #26
     dd8:	00817d01 	addeq	r7, r1, r1, lsl #26
     ddc:	09990000 	ldmibeq	r9, {}	; <UNPREDICTABLE>
     de0:	520d0000 	andpl	r0, sp, #0
     de4:	01000003 	tsteq	r0, r3
     de8:	0000ae7d 	andeq	sl, r0, sp, ror lr
     dec:	0009cd00 	andeq	ip, r9, r0, lsl #26
     df0:	00701000 	rsbseq	r1, r0, r0
     df4:	00747e01 	rsbseq	r7, r4, r1, lsl #28
     df8:	09e00000 	stmibeq	r0!, {}^	; <UNPREDICTABLE>
     dfc:	65100000 	ldrvs	r0, [r0, #-0]
     e00:	747e0100 	ldrbtvc	r0, [lr], #-256	; 0x100
     e04:	5e000000 	cdppl	0, 0, cr0, cr0, cr0, {0}
     e08:	1100000a 	tstne	r0, sl
     e0c:	0000010f 	andeq	r0, r0, pc, lsl #2
     e10:	00000655 	andeq	r0, r0, r5, asr r6
     e14:	99ec0305 	stmibls	ip!, {r0, r2, r8, r9}^
     e18:	c81e0000 	ldmdagt	lr, {}	; <UNPREDICTABLE>
     e1c:	10000000 	andne	r0, r0, r0
     e20:	8b010073 	blhi	40ff4 <__bss_end__+0x36fd4>
     e24:	00000074 	andeq	r0, r0, r4, ror r0
     e28:	00000a85 	andeq	r0, r0, r5, lsl #21
     e2c:	6d756e0f 	ldclvs	14, cr6, [r5, #-60]!	; 0xffffffc4
     e30:	5a8b0100 	bpl	fe2c1238 <__bss_end__+0xfe2b7218>
     e34:	03000006 	movweq	r0, #6
     e38:	137ed891 	cmnne	lr, #9502720	; 0x910000
     e3c:	000003fb 	strdeq	r0, [r0], -fp
     e40:	002c8c01 	eoreq	r8, ip, r1, lsl #24
     e44:	0ada0000 	beq	ff680e4c <__bss_end__+0xff676e2c>
     e48:	80150000 	andshi	r0, r5, r0
     e4c:	b9000086 	stmdblt	r0, {r1, r2, r7}
     e50:	91000000 	mrsls	r0, (UNDEF: 0)
     e54:	16000004 	strne	r0, [r0], -r4
     e58:	75025001 	strvc	r5, [r2, #-1]
     e5c:	94140000 	ldrls	r0, [r4], #-0
     e60:	80000086 	andhi	r0, r0, r6, lsl #1
     e64:	15000006 	strne	r0, [r0, #-6]
     e68:	000086b0 			; <UNDEFINED> instruction: 0x000086b0
     e6c:	00000687 	andeq	r0, r0, r7, lsl #13
     e70:	000004d3 	ldrdeq	r0, [r0], -r3
     e74:	02530116 	subseq	r0, r3, #-2147483643	; 0x80000005
     e78:	01169208 	tsteq	r6, r8, lsl #4
     e7c:	ec030552 	cfstr32	mvfx0, [r3], {82}	; 0x52
     e80:	16000099 			; <UNDEFINED> instruction: 0x16000099
     e84:	03055101 	movweq	r5, #20737	; 0x5101
     e88:	00009a0c 	andeq	r9, r0, ip, lsl #20
     e8c:	05500116 	ldrbeq	r0, [r0, #-278]	; 0x116
     e90:	0099f803 	addseq	pc, r9, r3, lsl #16
     e94:	7d021600 	stcvc	6, cr1, [r2, #-0]
     e98:	50030500 	andpl	r0, r3, r0, lsl #10
     e9c:	0000009a 	muleq	r0, sl, r0
     ea0:	0086b414 	addeq	fp, r6, r4, lsl r4
     ea4:	00069d00 	andeq	r9, r6, r0, lsl #26
     ea8:	87241400 	strhi	r1, [r4, -r0, lsl #8]!
     eac:	06800000 	streq	r0, [r0], r0
     eb0:	38150000 	ldmdacc	r5, {}	; <UNPREDICTABLE>
     eb4:	87000087 	strhi	r0, [r0, -r7, lsl #1]
     eb8:	14000006 	strne	r0, [r0], #-6
     ebc:	16000005 	strne	r0, [r0], -r5
     ec0:	08025301 	stmdaeq	r2, {r0, r8, r9, ip, lr}
     ec4:	52011698 	andpl	r1, r1, #152, 12	; 0x9800000
     ec8:	99ec0305 	stmibls	ip!, {r0, r2, r8, r9}^
     ecc:	01160000 	tsteq	r6, r0
     ed0:	0c030551 	cfstr32eq	mvfx0, [r3], {81}	; 0x51
     ed4:	1600009a 			; <UNDEFINED> instruction: 0x1600009a
     ed8:	03055001 	movweq	r5, #20481	; 0x5001
     edc:	00009a5c 	andeq	r9, r0, ip, asr sl
     ee0:	873c1400 	ldrhi	r1, [ip, -r0, lsl #8]!
     ee4:	069d0000 	ldreq	r0, [sp], r0
     ee8:	60150000 	andsvs	r0, r5, r0
     eec:	9c000087 	stcls	0, cr0, [r0], {135}	; 0x87
     ef0:	4a000001 	bmi	efc <_start-0x7104>
     ef4:	16000005 	strne	r0, [r0], -r5
     ef8:	08025201 	stmdaeq	r2, {r0, r9, ip, lr}
     efc:	51011680 	smlabbpl	r1, r0, r6, r1
     f00:	7ed09103 	atnvcs	f1, f3
     f04:	01500116 	cmpeq	r0, r6, lsl r1
     f08:	7d02163a 	stcvc	6, cr1, [r2, #-232]	; 0xffffff18
     f0c:	16310104 	ldrtne	r0, [r1], -r4, lsl #2
     f10:	02007d02 	andeq	r7, r0, #2, 26	; 0x80
     f14:	15000077 	strne	r0, [r0, #-119]	; 0x77
     f18:	00008784 	andeq	r8, r0, r4, lsl #15
     f1c:	0000019c 	muleq	r0, ip, r1
     f20:	00000578 	andeq	r0, r0, r8, ror r5
     f24:	02520116 	subseq	r0, r2, #-2147483643	; 0x80000005
     f28:	01168008 	tsteq	r6, r8
     f2c:	d0910351 	addsle	r0, r1, r1, asr r3
     f30:	5001167e 	andpl	r1, r1, lr, ror r6
     f34:	02163a01 	andseq	r3, r6, #4096	; 0x1000
     f38:	7b02047d 	blvc	82134 <__bss_end__+0x78114>
     f3c:	7d021600 	stcvc	6, cr1, [r2, #-0]
     f40:	00770200 	rsbseq	r0, r7, r0, lsl #4
     f44:	87a81500 	strhi	r1, [r8, r0, lsl #10]!
     f48:	019c0000 	orrseq	r0, ip, r0
     f4c:	05a60000 	streq	r0, [r6, #0]!
     f50:	01160000 	tsteq	r6, r0
     f54:	80080252 	andhi	r0, r8, r2, asr r2
     f58:	03510116 	cmpeq	r1, #-2147483643	; 0x80000005
     f5c:	167ed091 			; <UNDEFINED> instruction: 0x167ed091
     f60:	40015001 	andmi	r5, r1, r1
     f64:	047d0216 	ldrbteq	r0, [sp], #-534	; 0x216
     f68:	16007b02 	strne	r7, [r0], -r2, lsl #22
     f6c:	02007d02 	andeq	r7, r0, #2, 26	; 0x80
     f70:	15000077 	strne	r0, [r0, #-119]	; 0x77
     f74:	000087cc 	andeq	r8, r0, ip, asr #15
     f78:	0000019c 	muleq	r0, ip, r1
     f7c:	000005d4 	ldrdeq	r0, [r0], -r4
     f80:	02520116 	subseq	r0, r2, #-2147483643	; 0x80000005
     f84:	01168008 	tsteq	r6, r8
     f88:	d0910351 	addsle	r0, r1, r1, asr r3
     f8c:	5001167e 	andpl	r1, r1, lr, ror r6
     f90:	02163201 	andseq	r3, r6, #268435456	; 0x10000000
     f94:	7b02047d 	blvc	82190 <__bss_end__+0x78170>
     f98:	7d021600 	stcvc	6, cr1, [r2, #-0]
     f9c:	00770200 	rsbseq	r0, r7, r0, lsl #4
     fa0:	87fc1500 	ldrbhi	r1, [ip, r0, lsl #10]!
     fa4:	019c0000 	orrseq	r0, ip, r0
     fa8:	06020000 	streq	r0, [r2], -r0
     fac:	01160000 	tsteq	r6, r0
     fb0:	80080252 	andhi	r0, r8, r2, asr r2
     fb4:	03510116 	cmpeq	r1, #-2147483643	; 0x80000005
     fb8:	167ed091 			; <UNDEFINED> instruction: 0x167ed091
     fbc:	38015001 	stmdacc	r1, {r0, ip, lr}
     fc0:	047d0216 	ldrbteq	r0, [sp], #-534	; 0x216
     fc4:	16007b02 	strne	r7, [r0], -r2, lsl #22
     fc8:	02007d02 	andeq	r7, r0, #2, 26	; 0x80
     fcc:	14000077 	strne	r0, [r0], #-119	; 0x77
     fd0:	00008804 	andeq	r8, r0, r4, lsl #16
     fd4:	00000680 	andeq	r0, r0, r0, lsl #13
     fd8:	00882015 	addeq	r2, r8, r5, lsl r0
     fdc:	00068700 	andeq	r8, r6, r0, lsl #14
     fe0:	00063a00 	andeq	r3, r6, r0, lsl #20
     fe4:	53011600 	movwpl	r1, #5632	; 0x1600
     fe8:	16b90802 	ldrtne	r0, [r9], r2, lsl #16
     fec:	03055201 	movweq	r5, #20993	; 0x5201
     ff0:	000099ec 	andeq	r9, r0, ip, ror #19
     ff4:	05510116 	ldrbeq	r0, [r1, #-278]	; 0x116
     ff8:	009a0c03 	addseq	r0, sl, r3, lsl #24
     ffc:	50011600 	andpl	r1, r1, r0, lsl #12
    1000:	9a840305 	bls	fe101c1c <__bss_end__+0xfe0f7bfc>
    1004:	14000000 	strne	r0, [r0], #-0
    1008:	00008824 	andeq	r8, r0, r4, lsr #16
    100c:	0000069d 	muleq	r0, sp, r6
    1010:	7a180000 	bvc	601018 <__bss_end__+0x5f6ff8>
    1014:	55000000 	strpl	r0, [r0, #-0]
    1018:	19000006 	stmdbne	r0, {r1, r2}
    101c:	0000006b 	andeq	r0, r0, fp, rrx
    1020:	45060009 	strmi	r0, [r6, #-9]
    1024:	18000006 	stmdane	r0, {r1, r2}
    1028:	0000007a 	andeq	r0, r0, sl, ror r0
    102c:	0000066a 	andeq	r0, r0, sl, ror #12
    1030:	00006b19 	andeq	r6, r0, r9, lsl fp
    1034:	1f007f00 	svcne	0x00007f00
    1038:	0000036d 	andeq	r0, r0, sp, ror #6
    103c:	03a11d03 			; <UNDEFINED> instruction: 0x03a11d03
    1040:	aa1f0000 	bge	7c1048 <__bss_end__+0x7b7028>
    1044:	03000003 	movweq	r0, #3
    1048:	0003b622 	andeq	fp, r3, r2, lsr #12
    104c:	00d82000 	sbcseq	r2, r8, r0
    1050:	1e030000 	cdpne	0, 0, cr0, cr3, cr0, {0}
    1054:	0002fd21 	andeq	pc, r2, r1, lsr #26
    1058:	25290300 	strcs	r0, [r9, #-768]!	; 0x300
    105c:	9d000000 	stcls	0, cr0, [r0, #-0]
    1060:	1c000006 	stcne	0, cr0, [r0], {6}
    1064:	00000081 	andeq	r0, r0, r1, lsl #1
    1068:	59200022 	stmdbpl	r0!, {r1, r5}
    106c:	03000001 	movweq	r0, #1
    1070:	00b80066 	adcseq	r0, r8, r6, rrx
    1074:	00040000 	andeq	r0, r4, r0
    1078:	000006e4 	andeq	r0, r0, r4, ror #13
    107c:	02a30104 	adceq	r0, r3, #4, 2
    1080:	1c010000 	stcne	0, cr0, [r1], {-0}
    1084:	0e000004 	cdpeq	0, 0, cr0, cr0, cr4, {0}
    1088:	90000003 	andls	r0, r0, r3
    108c:	20000088 	andcs	r0, r0, r8, lsl #1
    1090:	9d000000 	stcls	0, cr0, [r0, #-0]
    1094:	02000005 	andeq	r0, r0, #5
    1098:	6e690504 	cdpvs	5, 6, cr0, cr9, cr4, {0}
    109c:	04030074 	streq	r0, [r3], #-116	; 0x74
    10a0:	00003307 	andeq	r3, r0, r7, lsl #6
    10a4:	06010300 	streq	r0, [r1], -r0, lsl #6
    10a8:	0000017b 	andeq	r0, r0, fp, ror r1
    10ac:	87050203 	strhi	r0, [r5, -r3, lsl #4]
    10b0:	03000001 	movweq	r0, #1
    10b4:	00450504 	subeq	r0, r5, r4, lsl #10
    10b8:	08030000 	stmdaeq	r3, {}	; <UNPREDICTABLE>
    10bc:	00004005 	andeq	r4, r0, r5
    10c0:	08010300 	stmdaeq	r1, {r8, r9}
    10c4:	00000179 	andeq	r0, r0, r9, ror r1
    10c8:	1c070203 	sfmne	f0, 4, [r7], {3}
    10cc:	03000001 	movweq	r0, #1
    10d0:	002e0704 	eoreq	r0, lr, r4, lsl #14
    10d4:	08030000 	stmdaeq	r3, {}	; <UNPREDICTABLE>
    10d8:	00002907 	andeq	r2, r0, r7, lsl #18
    10dc:	07040300 	streq	r0, [r4, -r0, lsl #6]
    10e0:	00000166 	andeq	r0, r0, r6, ror #2
    10e4:	82080103 	andhi	r0, r8, #-1073741824	; 0xc0000000
    10e8:	04000001 	streq	r0, [r0], #-1
    10ec:	00000243 	andeq	r0, r0, r3, asr #4
    10f0:	88900301 	ldmhi	r0, {r0, r8, r9}
    10f4:	00100000 	andseq	r0, r0, r0
    10f8:	9c010000 	stcls	0, cr0, [r1], {-0}
    10fc:	0000009c 	muleq	r0, ip, r0
    1100:	01007205 	tsteq	r0, r5, lsl #4
    1104:	00002c04 	andeq	r2, r0, r4, lsl #24
    1108:	000b0400 	andeq	r0, fp, r0, lsl #8
    110c:	0e060000 	cdpeq	0, 0, cr0, cr6, cr0, {0}
    1110:	01000004 	tsteq	r0, r4
    1114:	0088a00c 	addeq	sl, r8, ip
    1118:	00001000 	andeq	r1, r0, r0
    111c:	059c0100 	ldreq	r0, [ip, #256]	; 0x100
    1120:	0d010072 	stceq	0, cr0, [r1, #-456]	; 0xfffffe38
    1124:	0000002c 	andeq	r0, r0, ip, lsr #32
    1128:	00000b28 	andeq	r0, r0, r8, lsr #22
    112c:	00ff0000 	rscseq	r0, pc, r0
    1130:	00040000 	andeq	r0, r4, r0
    1134:	0000074f 	andeq	r0, r0, pc, asr #14
    1138:	02a30104 	adceq	r0, r3, #4, 2
    113c:	3a010000 	bcc	41144 <__bss_end__+0x37124>
    1140:	0e000004 	cdpeq	0, 0, cr0, cr0, cr4, {0}
    1144:	b0000003 	andlt	r0, r0, r3
    1148:	28000088 	stmdacs	r0, {r3, r7}
    114c:	e4000000 	str	r0, [r0], #-0
    1150:	02000005 	andeq	r0, r0, #5
    1154:	6e690504 	cdpvs	5, 6, cr0, cr9, cr4, {0}
    1158:	04030074 	streq	r0, [r3], #-116	; 0x74
    115c:	00003307 	andeq	r3, r0, r7, lsl #6
    1160:	06010300 	streq	r0, [r1], -r0, lsl #6
    1164:	0000017b 	andeq	r0, r0, fp, ror r1
    1168:	87050203 	strhi	r0, [r5, -r3, lsl #4]
    116c:	03000001 	movweq	r0, #1
    1170:	00450504 	subeq	r0, r5, r4, lsl #10
    1174:	08030000 	stmdaeq	r3, {}	; <UNPREDICTABLE>
    1178:	00004005 	andeq	r4, r0, r5
    117c:	08010300 	stmdaeq	r1, {r8, r9}
    1180:	00000179 	andeq	r0, r0, r9, ror r1
    1184:	1c070203 	sfmne	f0, 4, [r7], {3}
    1188:	03000001 	movweq	r0, #1
    118c:	002e0704 	eoreq	r0, lr, r4, lsl #14
    1190:	08030000 	stmdaeq	r3, {}	; <UNPREDICTABLE>
    1194:	00002907 	andeq	r2, r0, r7, lsl #18
    1198:	07040300 	streq	r0, [r4, -r0, lsl #6]
    119c:	00000166 	andeq	r0, r0, r6, ror #2
    11a0:	82080103 	andhi	r0, r8, #-1073741824	; 0xc0000000
    11a4:	04000001 	streq	r0, [r0], #-1
    11a8:	00007f04 	andeq	r7, r0, r4, lsl #30
    11ac:	00720500 	rsbseq	r0, r2, r0, lsl #10
    11b0:	59060000 	stmdbpl	r6, {}	; <UNPREDICTABLE>
    11b4:	01000001 	tsteq	r0, r1
    11b8:	0088b004 	addeq	fp, r8, r4
    11bc:	00002800 	andeq	r2, r0, r0, lsl #16
    11c0:	ca9c0100 	bgt	fe7015c8 <__bss_end__+0xfe6f75a8>
    11c4:	07000000 	streq	r0, [r0, -r0]
    11c8:	000088c4 	andeq	r8, r0, r4, asr #17
    11cc:	000000ac 	andeq	r0, r0, ip, lsr #1
    11d0:	05500108 	ldrbeq	r0, [r0, #-264]	; 0x108
    11d4:	009abc03 	addseq	fp, sl, r3, lsl #24
    11d8:	cc090000 	stcgt	0, cr0, [r9], {-0}
    11dc:	ea000088 	b	1404 <_start-0x6bfc>
    11e0:	c0000000 	andgt	r0, r0, r0
    11e4:	08000000 	stmdaeq	r0, {}	; <UNPREDICTABLE>
    11e8:	08025001 	stmdaeq	r2, {r0, ip, lr}
    11ec:	d00a0064 	andle	r0, sl, r4, rrx
    11f0:	fb000088 	blx	141a <_start-0x6be6>
    11f4:	00000000 	andeq	r0, r0, r0
    11f8:	0000250b 	andeq	r2, r0, fp, lsl #10
    11fc:	0000d900 	andeq	sp, r0, r0, lsl #18
    1200:	00790c00 	rsbseq	r0, r9, r0, lsl #24
    1204:	0d000000 	stceq	0, cr0, [r0, #-0]
    1208:	000003aa 	andeq	r0, r0, sl, lsr #7
    120c:	00e42202 	rsceq	r2, r4, r2, lsl #4
    1210:	04040000 	streq	r0, [r4], #-0
    1214:	000000ca 	andeq	r0, r0, sl, asr #1
    1218:	0001910e 	andeq	r9, r1, lr, lsl #2
    121c:	fb500200 	blx	1401a26 <__bss_end__+0x13f7a06>
    1220:	0c000000 	stceq	0, cr0, [r0], {-0}
    1224:	0000002c 	andeq	r0, r0, ip, lsr #32
    1228:	042f0f00 	strteq	r0, [pc], #-3840	; 1230 <_start-0x6dd0>
    122c:	63020000 	movwvs	r0, #8192	; 0x2000
    1230:	0002dd00 	andeq	sp, r2, r0, lsl #26
    1234:	19000400 	stmdbne	r0, {sl}
    1238:	04000008 	streq	r0, [r0], #-8
    123c:	0002a301 	andeq	sl, r2, r1, lsl #6
    1240:	05360100 	ldreq	r0, [r6, #-256]!	; 0x100
    1244:	030e0000 	movweq	r0, #57344	; 0xe000
    1248:	88d80000 	ldmhi	r8, {}^	; <UNPREDICTABLE>
    124c:	00b00000 	adcseq	r0, r0, r0
    1250:	067b0000 	ldrbteq	r0, [fp], -r0
    1254:	04020000 	streq	r0, [r2], #-0
    1258:	746e6905 	strbtvc	r6, [lr], #-2309	; 0x905
    125c:	07040300 	streq	r0, [r4, -r0, lsl #6]
    1260:	00000033 	andeq	r0, r0, r3, lsr r0
    1264:	7b060103 	blvc	181678 <__bss_end__+0x177658>
    1268:	03000001 	movweq	r0, #1
    126c:	01870502 	orreq	r0, r7, r2, lsl #10
    1270:	04030000 	streq	r0, [r3], #-0
    1274:	00004505 	andeq	r4, r0, r5, lsl #10
    1278:	05080300 	streq	r0, [r8, #-768]	; 0x300
    127c:	00000040 	andeq	r0, r0, r0, asr #32
    1280:	0004ff04 	andeq	pc, r4, r4, lsl #30
    1284:	5a2e0200 	bpl	b81a8c <__bss_end__+0xb77a6c>
    1288:	03000000 	movweq	r0, #0
    128c:	01790801 	cmneq	r9, r1, lsl #16
    1290:	02030000 	andeq	r0, r3, #0
    1294:	00011c07 	andeq	r1, r1, r7, lsl #24
    1298:	05560400 	ldrbeq	r0, [r6, #-1024]	; 0x400
    129c:	34020000 	strcc	r0, [r2], #-0
    12a0:	00000073 	andeq	r0, r0, r3, ror r0
    12a4:	2e070403 	cdpcs	4, 0, cr0, cr7, cr3, {0}
    12a8:	03000000 	movweq	r0, #0
    12ac:	00290708 	eoreq	r0, r9, r8, lsl #14
    12b0:	04030000 	streq	r0, [r3], #-0
    12b4:	00016607 	andeq	r6, r1, r7, lsl #12
    12b8:	08010300 	stmdaeq	r1, {r8, r9}
    12bc:	00000182 	andeq	r0, r0, r2, lsl #3
    12c0:	00950405 	addseq	r0, r5, r5, lsl #8
    12c4:	88060000 	stmdahi	r6, {}	; <UNPREDICTABLE>
    12c8:	07000000 	streq	r0, [r0, -r0]
    12cc:	d10e030c 	tstle	lr, ip, lsl #6
    12d0:	08000000 	stmdaeq	r0, {}	; <UNPREDICTABLE>
    12d4:	03007874 	movweq	r7, #2164	; 0x874
    12d8:	00004f0f 	andeq	r4, r0, pc, lsl #30
    12dc:	72080000 	andvc	r0, r8, #0
    12e0:	0f030078 	svceq	0x00030078
    12e4:	0000004f 	andeq	r0, r0, pc, asr #32
    12e8:	04cd0901 	strbeq	r0, [sp], #2305	; 0x901
    12ec:	10030000 	andne	r0, r3, r0
    12f0:	00000068 	andeq	r0, r0, r8, rrx
    12f4:	047e0904 	ldrbteq	r0, [lr], #-2308	; 0x904
    12f8:	11030000 	mrsne	r0, (UNDEF: 3)
    12fc:	00000068 	andeq	r0, r0, r8, rrx
    1300:	b6040008 	strlt	r0, [r4], -r8
    1304:	03000004 	movweq	r0, #4
    1308:	00009a12 	andeq	r9, r0, r2, lsl sl
    130c:	04010a00 	streq	r0, [r1], #-2560	; 0xa00
    1310:	0000f710 	andeq	pc, r0, r0, lsl r7	; <UNPREDICTABLE>
    1314:	04d20b00 	ldrbeq	r0, [r2], #2816	; 0xb00
    1318:	0b010000 	bleq	41320 <__bss_end__+0x37300>
    131c:	000004c0 	andeq	r0, r0, r0, asr #9
    1320:	04a80b02 	strteq	r0, [r8], #2818	; 0xb02
    1324:	00030000 	andeq	r0, r3, r0
    1328:	0004e704 	andeq	lr, r4, r4, lsl #14
    132c:	dc100400 	cfldrsle	mvf0, [r0], {-0}
    1330:	07000000 	streq	r0, [r0, -r0]
    1334:	2f140414 	svccs	0x00140414
    1338:	09000001 	stmdbeq	r0, {r0}
    133c:	0000055f 	andeq	r0, r0, pc, asr r5
    1340:	002c1504 	eoreq	r1, ip, r4, lsl #10
    1344:	09000000 	stmdbeq	r0, {}	; <UNPREDICTABLE>
    1348:	0000054a 	andeq	r0, r0, sl, asr #10
    134c:	00f71804 	rscseq	r1, r7, r4, lsl #16
    1350:	09040000 	stmdbeq	r4, {}	; <UNPREDICTABLE>
    1354:	00000515 	andeq	r0, r0, r5, lsl r5
    1358:	00d11b04 	sbcseq	r1, r1, r4, lsl #22
    135c:	00080000 	andeq	r0, r8, r0
    1360:	00050704 	andeq	r0, r5, r4, lsl #14
    1364:	02200400 	eoreq	r0, r0, #0, 8
    1368:	0c000001 	stceq	0, cr0, [r0], {1}
    136c:	00000454 	andeq	r0, r0, r4, asr r4
    1370:	00250601 	eoreq	r0, r5, r1, lsl #12
    1374:	88d80000 	ldmhi	r8, {}^	; <UNPREDICTABLE>
    1378:	00200000 	eoreq	r0, r0, r0
    137c:	9c010000 	stcls	0, cr0, [r1], {-0}
    1380:	0000017a 	andeq	r0, r0, sl, ror r1
    1384:	0100630d 	tsteq	r0, sp, lsl #6
    1388:	00002506 	andeq	r2, r0, r6, lsl #10
    138c:	000b4c00 	andeq	r4, fp, r0, lsl #24
    1390:	88ec0e00 	stmiahi	ip!, {r9, sl, fp}^
    1394:	027a0000 	rsbseq	r0, sl, #0
    1398:	010f0000 	mrseq	r0, CPSR
    139c:	00740251 	rsbseq	r0, r4, r1, asr r2
    13a0:	0550010f 	ldrbeq	r0, [r0, #-271]	; 0x10f
    13a4:	00a01003 	adceq	r1, r0, r3
    13a8:	10000000 	andne	r0, r0, r0
    13ac:	000004df 	ldrdeq	r0, [r0], -pc	; <UNPREDICTABLE>
    13b0:	88f80b01 	ldmhi	r8!, {r0, r8, r9, fp}^
    13b4:	00900000 	addseq	r0, r0, r0
    13b8:	9c010000 	stcls	0, cr0, [r1], {-0}
    13bc:	00000227 	andeq	r0, r0, r7, lsr #4
    13c0:	00046811 	andeq	r6, r4, r1, lsl r8
    13c4:	250c0100 	strcs	r0, [ip, #-256]	; 0x100
    13c8:	11000000 	mrsne	r0, (UNDEF: 0)
    13cc:	0000052a 	andeq	r0, r0, sl, lsr #10
    13d0:	00250c01 	eoreq	r0, r5, r1, lsl #24
    13d4:	0f120000 	svceq	0x00120000
    13d8:	01000000 	mrseq	r0, (UNDEF: 0)
    13dc:	7362130d 	cmnvc	r2, #872415232	; 0x34000000
    13e0:	0f010073 	svceq	0x00010073
    13e4:	00000227 	andeq	r0, r0, r7, lsr #4
    13e8:	00000b6a 	andeq	r0, r0, sl, ror #22
    13ec:	00047614 	andeq	r7, r4, r4, lsl r6
    13f0:	27100100 	ldrcs	r0, [r0, -r0, lsl #2]
    13f4:	13000002 	movwne	r0, #2
    13f8:	01006263 	tsteq	r0, r3, ror #4
    13fc:	00022d17 	andeq	r2, r2, r7, lsl sp
    1400:	000b8a00 	andeq	r8, fp, r0, lsl #20
    1404:	89201500 	stmdbhi	r0!, {r8, sl, ip}
    1408:	02960000 	addseq	r0, r6, #0
    140c:	5c160000 	ldcpl	0, cr0, [r6], {-0}
    1410:	a1000089 	smlabbge	r0, r9, r0, r0
    1414:	fd000002 	stc2	0, cr0, [r0, #-8]
    1418:	0f000001 	svceq	0x00000001
    141c:	03055101 	movweq	r5, #20737	; 0x5101
    1420:	00009ac8 	andeq	r9, r0, r8, asr #21
    1424:	0550010f 	ldrbeq	r0, [r0, #-271]	; 0x10f
    1428:	00a01003 	adceq	r1, r0, r3
    142c:	64160000 	ldrvs	r0, [r6], #-0
    1430:	bc000089 	stclt	0, cr0, [r0], {137}	; 0x89
    1434:	14000002 	strne	r0, [r0], #-2
    1438:	0f000002 	svceq	0x00000002
    143c:	03055001 	movweq	r5, #20481	; 0x5001
    1440:	00009aec 	andeq	r9, r0, ip, ror #21
    1444:	89681500 	stmdbhi	r8!, {r8, sl, ip}^
    1448:	02d20000 	sbcseq	r0, r2, #0
    144c:	6c150000 	ldcvs	0, cr0, [r5], {-0}
    1450:	d9000089 	stmdble	r0, {r0, r3, r7}
    1454:	00000002 	andeq	r0, r0, r2
    1458:	00250405 	eoreq	r0, r5, r5, lsl #8
    145c:	04050000 	streq	r0, [r5], #-0
    1460:	0000012f 	andeq	r0, r0, pc, lsr #2
    1464:	00048c17 	andeq	r8, r4, r7, lsl ip
    1468:	d1050100 	mrsle	r0, (UNDEF: 21)
    146c:	05000000 	streq	r0, [r0, #-0]
    1470:	00a01003 	adceq	r1, r0, r3
    1474:	00251800 	eoreq	r1, r5, r0, lsl #16
    1478:	02530000 	subseq	r0, r3, #0
    147c:	25190000 	ldrcs	r0, [r9, #-0]
    1480:	00000000 	andeq	r0, r0, r0
    1484:	00036d11 	andeq	r6, r3, r1, lsl sp
    1488:	5e1d0500 	cfmul32pl	mvfx0, mvfx13, mvfx0
    148c:	05000002 	streq	r0, [r0, #-2]
    1490:	00024404 	andeq	r4, r2, r4, lsl #8
    1494:	04681100 	strbteq	r1, [r8], #-256	; 0x100
    1498:	0c010000 	stceq	0, cr0, [r1], {-0}
    149c:	00000025 	andeq	r0, r0, r5, lsr #32
    14a0:	00052a11 	andeq	r2, r5, r1, lsl sl
    14a4:	250c0100 	strcs	r0, [ip, #-256]	; 0x100
    14a8:	1a000000 	bne	14b0 <_start-0x6b50>
    14ac:	000004f2 	strdeq	r0, [r0], -r2
    14b0:	02904403 	addseq	r4, r0, #50331648	; 0x3000000
    14b4:	90190000 	andsls	r0, r9, r0
    14b8:	19000002 	stmdbne	r0, {r1}
    14bc:	0000005a 	andeq	r0, r0, sl, asr r0
    14c0:	d1040500 	tstle	r4, r0, lsl #10
    14c4:	1b000000 	blne	14cc <_start-0x6b34>
    14c8:	0000051d 	andeq	r0, r0, sp, lsl r5
    14cc:	022d2a04 	eoreq	r2, sp, #4, 20	; 0x4000
    14d0:	991c0000 	ldmdbls	ip, {}	; <UNPREDICTABLE>
    14d4:	03000004 	movweq	r0, #4
    14d8:	00002515 	andeq	r2, r0, r5, lsl r5
    14dc:	0002bc00 	andeq	fp, r2, r0, lsl #24
    14e0:	02901900 	addseq	r1, r0, #0, 18
    14e4:	8f190000 	svchi	0x00190000
    14e8:	1d000000 	stcne	0, cr0, [r0, #-0]
    14ec:	02fd1c00 	rscseq	r1, sp, #0, 24
    14f0:	29050000 	stmdbcs	r5, {}	; <UNPREDICTABLE>
    14f4:	00000025 	andeq	r0, r0, r5, lsr #32
    14f8:	000002d2 	ldrdeq	r0, [r0], -r2
    14fc:	00008f19 	andeq	r8, r0, r9, lsl pc
    1500:	12001d00 	andne	r1, r0, #0, 26
    1504:	0000000f 	andeq	r0, r0, pc
    1508:	2f12d105 	svccs	0x0012d105
    150c:	05000004 	streq	r0, [r0, #-4]
    1510:	01ad0063 			; <UNDEFINED> instruction: 0x01ad0063
    1514:	00040000 	andeq	r0, r4, r0
    1518:	000009b0 			; <UNDEFINED> instruction: 0x000009b0
    151c:	02a30104 	adceq	r0, r3, #4, 2
    1520:	7f010000 	svcvc	0x00010000
    1524:	0e000005 	cdpeq	0, 0, cr0, cr0, cr5, {0}
    1528:	e0000003 	and	r0, r0, r3
    152c:	00000000 	andeq	r0, r0, r0
    1530:	a0000000 	andge	r0, r0, r0
    1534:	02000007 	andeq	r0, r0, #7
    1538:	6e690504 	cdpvs	5, 6, cr0, cr9, cr4, {0}
    153c:	04030074 	streq	r0, [r3], #-116	; 0x74
    1540:	00003307 	andeq	r3, r0, r7, lsl #6
    1544:	06010300 	streq	r0, [r1], -r0, lsl #6
    1548:	0000017b 	andeq	r0, r0, fp, ror r1
    154c:	87050203 	strhi	r0, [r5, -r3, lsl #4]
    1550:	03000001 	movweq	r0, #1
    1554:	00450504 	subeq	r0, r5, r4, lsl #10
    1558:	08030000 	stmdaeq	r3, {}	; <UNPREDICTABLE>
    155c:	00004005 	andeq	r4, r0, r5
    1560:	08010300 	stmdaeq	r1, {r8, r9}
    1564:	00000179 	andeq	r0, r0, r9, ror r1
    1568:	1c070203 	sfmne	f0, 4, [r7], {3}
    156c:	03000001 	movweq	r0, #1
    1570:	002e0704 	eoreq	r0, lr, r4, lsl #14
    1574:	08030000 	stmdaeq	r3, {}	; <UNPREDICTABLE>
    1578:	00002907 	andeq	r2, r0, r7, lsl #18
    157c:	07040300 	streq	r0, [r4, -r0, lsl #6]
    1580:	00000166 	andeq	r0, r0, r6, ror #2
    1584:	82080103 	andhi	r0, r8, #-1073741824	; 0xc0000000
    1588:	04000001 	streq	r0, [r0], #-1
    158c:	00000565 	andeq	r0, r0, r5, ror #10
    1590:	00250e01 	eoreq	r0, r5, r1, lsl #28
    1594:	89880000 	stmibhi	r8, {}	; <UNPREDICTABLE>
    1598:	00180000 	andseq	r0, r8, r0
    159c:	9c010000 	stcls	0, cr0, [r1], {-0}
    15a0:	000000a2 	andeq	r0, r0, r2, lsr #1
    15a4:	0005d105 	andeq	sp, r5, r5, lsl #2
    15a8:	2c0f0100 	stfcss	f0, [pc], {-0}
    15ac:	aa000000 	bge	15b4 <_start-0x6a4c>
    15b0:	0000000b 	andeq	r0, r0, fp
    15b4:	0005b406 	andeq	fp, r5, r6, lsl #8
    15b8:	a0170100 	andsge	r0, r7, r0, lsl #2
    15bc:	14000089 	strne	r0, [r0], #-137	; 0x89
    15c0:	01000000 	mrseq	r0, (UNDEF: 0)
    15c4:	0000c79c 	muleq	r0, ip, r7
    15c8:	05d10500 	ldrbeq	r0, [r1, #1280]	; 0x500
    15cc:	18010000 	stmdane	r1, {}	; <UNPREDICTABLE>
    15d0:	0000002c 	andeq	r0, r0, ip, lsr #32
    15d4:	00000bc9 	andeq	r0, r0, r9, asr #23
    15d8:	042f0600 	strteq	r0, [pc], #-1536	; 15e0 <_start-0x6a20>
    15dc:	1f010000 	svcne	0x00010000
    15e0:	000089b4 			; <UNDEFINED> instruction: 0x000089b4
    15e4:	00000048 	andeq	r0, r0, r8, asr #32
    15e8:	01779c01 	cmneq	r7, r1, lsl #24
    15ec:	c9070000 	stmdbgt	r7, {}	; <UNPREDICTABLE>
    15f0:	01000005 	tsteq	r0, r5
    15f4:	0001772a 	andeq	r7, r1, sl, lsr #14
    15f8:	10001c00 	andne	r1, r0, r0, lsl #24
    15fc:	05ac0720 	streq	r0, [ip, #1824]!	; 0x720
    1600:	2b010000 	blcs	41608 <__bss_end__+0x375e8>
    1604:	00000177 	andeq	r0, r0, r7, ror r1
    1608:	20100024 	andscs	r0, r0, r4, lsr #32
    160c:	00057307 	andeq	r7, r5, r7, lsl #6
    1610:	772c0100 	strvc	r0, [ip, -r0, lsl #2]!
    1614:	00000001 	andeq	r0, r0, r1
    1618:	085a0000 	ldmdaeq	sl, {}^	; <UNPREDICTABLE>
    161c:	00000593 	muleq	r0, r3, r5
    1620:	01772d01 	cmneq	r7, r1, lsl #26
    1624:	09200000 	stmdbeq	r0!, {}	; <UNPREDICTABLE>
    1628:	000089bc 			; <UNDEFINED> instruction: 0x000089bc
    162c:	00000079 	andeq	r0, r0, r9, ror r0
    1630:	0089c809 	addeq	ip, r9, r9, lsl #16
    1634:	0000a200 	andeq	sl, r0, r0, lsl #4
    1638:	89d00a00 	ldmibhi	r0, {r9, fp}^
    163c:	018d0000 	orreq	r0, sp, r0
    1640:	013a0000 	teqeq	sl, r0
    1644:	010b0000 	mrseq	r0, (UNDEF: 11)
    1648:	004e0150 	subeq	r0, lr, r0, asr r1
    164c:	0089dc0a 	addeq	sp, r9, sl, lsl #24
    1650:	00019e00 	andeq	r9, r1, r0, lsl #28
    1654:	00015a00 	andeq	r5, r1, r0, lsl #20
    1658:	51010b00 	tstpl	r1, r0, lsl #22
    165c:	00010c05 	andeq	r0, r1, r5, lsl #24
    1660:	010b5a00 	tsteq	fp, r0, lsl #20
    1664:	240c0550 	strcs	r0, [ip], #-1360	; 0x550
    1668:	00201000 	eoreq	r1, r0, r0
    166c:	0089e80c 	addeq	lr, r9, ip, lsl #16
    1670:	00019e00 	andeq	r9, r1, r0, lsl #28
    1674:	51010b00 	tstpl	r1, r0, lsl #22
    1678:	00200c05 	eoreq	r0, r0, r5, lsl #24
    167c:	010b5a00 	tsteq	fp, r0, lsl #20
    1680:	1c0c0550 	cfstr32ne	mvfx0, [ip], {80}	; 0x50
    1684:	00201000 	eoreq	r1, r0, r0
    1688:	00250d00 	eoreq	r0, r5, r0, lsl #26
    168c:	68080000 	stmdavs	r8, {}	; <UNPREDICTABLE>
    1690:	01000005 	tsteq	r0, r5
    1694:	0001880d 	andeq	r8, r1, sp, lsl #16
    1698:	2c0d1000 	stccs	0, cr1, [sp], {-0}
    169c:	0e000000 	cdpeq	0, 0, cr0, cr0, cr0, {0}
    16a0:	00000191 	muleq	r0, r1, r1
    16a4:	019e5002 	orrseq	r5, lr, r2
    16a8:	2c0f0000 	stccs	0, cr0, [pc], {-0}
    16ac:	00000000 	andeq	r0, r0, r0
    16b0:	0005c310 	andeq	ip, r5, r0, lsl r3
    16b4:	0f9c0200 	svceq	0x009c0200
    16b8:	0000002c 	andeq	r0, r0, ip, lsr #32
    16bc:	00002c0f 	andeq	r2, r0, pc, lsl #24
    16c0:	d8000000 	stmdale	r0, {}	; <UNPREDICTABLE>
    16c4:	04000001 	streq	r0, [r0], #-1
    16c8:	000a9e00 	andeq	r9, sl, r0, lsl #28
    16cc:	a3010400 	movwge	r0, #5120	; 0x1400
    16d0:	01000002 	tsteq	r0, r2
    16d4:	000005f3 	strdeq	r0, [r0], -r3
    16d8:	0000030e 	andeq	r0, r0, lr, lsl #6
    16dc:	000089fc 	strdeq	r8, [r0], -ip
    16e0:	00000088 	andeq	r0, r0, r8, lsl #1
    16e4:	0000083d 	andeq	r0, r0, sp, lsr r8
    16e8:	69050402 	stmdbvs	r5, {r1, sl}
    16ec:	0300746e 	movweq	r7, #1134	; 0x46e
    16f0:	00330704 	eorseq	r0, r3, r4, lsl #14
    16f4:	01030000 	mrseq	r0, (UNDEF: 3)
    16f8:	00017b06 	andeq	r7, r1, r6, lsl #22
    16fc:	05020300 	streq	r0, [r2, #-768]	; 0x300
    1700:	00000187 	andeq	r0, r0, r7, lsl #3
    1704:	45050403 	strmi	r0, [r5, #-1027]	; 0x403
    1708:	03000000 	movweq	r0, #0
    170c:	00400508 	subeq	r0, r0, r8, lsl #10
    1710:	01030000 	mrseq	r0, (UNDEF: 3)
    1714:	00017908 	andeq	r7, r1, r8, lsl #18
    1718:	07020300 	streq	r0, [r2, -r0, lsl #6]
    171c:	0000011c 	andeq	r0, r0, ip, lsl r1
    1720:	2e070403 	cdpcs	4, 0, cr0, cr7, cr3, {0}
    1724:	03000000 	movweq	r0, #0
    1728:	00290708 	eoreq	r0, r9, r8, lsl #14
    172c:	04030000 	streq	r0, [r3], #-0
    1730:	00016607 	andeq	r6, r1, r7, lsl #12
    1734:	08010300 	stmdaeq	r1, {r8, r9}
    1738:	00000182 	andeq	r0, r0, r2, lsl #3
    173c:	00061204 	andeq	r1, r6, r4, lsl #4
    1740:	fc050100 	stc2	1, cr0, [r5], {-0}
    1744:	1c000089 	stcne	0, cr0, [r0], {137}	; 0x89
    1748:	01000000 	mrseq	r0, (UNDEF: 0)
    174c:	00009e9c 	muleq	r0, ip, lr
    1750:	060c0500 	streq	r0, [ip], -r0, lsl #10
    1754:	05010000 	streq	r0, [r1, #-0]
    1758:	0000002c 	andeq	r0, r0, ip, lsr #32
    175c:	00000bf3 	strdeq	r0, [r0], -r3
    1760:	05d60600 	ldrbeq	r0, [r6, #1536]	; 0x600
    1764:	0b010000 	bleq	4176c <__bss_end__+0x3774c>
    1768:	0000002c 	andeq	r0, r0, ip, lsr #32
    176c:	00008a18 	andeq	r8, r0, r8, lsl sl
    1770:	00000014 	andeq	r0, r0, r4, lsl r0
    1774:	00cb9c01 	sbceq	r9, fp, r1, lsl #24
    1778:	24070000 	strcs	r0, [r7], #-0
    177c:	ca00008a 	bgt	19ac <_start-0x6654>
    1780:	08000001 	stmdaeq	r0, {r0}
    1784:	0c055001 	stceq	0, cr5, [r5], {1}
    1788:	20003004 	andcs	r3, r0, r4
    178c:	28060000 	stmdacs	r6, {}	; <UNPREDICTABLE>
    1790:	01000006 	tsteq	r0, r6
    1794:	00002c10 	andeq	r2, r0, r0, lsl ip
    1798:	008a2c00 	addeq	r2, sl, r0, lsl #24
    179c:	00000c00 	andeq	r0, r0, r0, lsl #24
    17a0:	f99c0100 			; <UNDEFINED> instruction: 0xf99c0100
    17a4:	09000000 	stmdbeq	r0, {}	; <UNPREDICTABLE>
    17a8:	14010075 	strne	r0, [r1], #-117	; 0x75
    17ac:	0000002c 	andeq	r0, r0, ip, lsr #32
    17b0:	340a5001 	strcc	r5, [sl], #-1
    17b4:	9e00008a 	cdpls	0, 0, cr0, cr0, cr10, {4}
    17b8:	00000000 	andeq	r0, r0, r0
    17bc:	00061f04 	andeq	r1, r6, r4, lsl #30
    17c0:	38190100 	ldmdacc	r9, {r8}
    17c4:	2400008a 	strcs	r0, [r0], #-138	; 0x8a
    17c8:	01000000 	mrseq	r0, (UNDEF: 0)
    17cc:	0001579c 	muleq	r1, ip, r7
    17d0:	73750b00 	cmnvc	r5, #0, 22
    17d4:	2c190100 	ldfcss	f0, [r9], {-0}
    17d8:	27000000 	strcs	r0, [r0, -r0]
    17dc:	0900000c 	stmdbeq	r0, {r2, r3}
    17e0:	01006272 	tsteq	r0, r2, ror r2
    17e4:	00002c1a 	andeq	r2, r0, sl, lsl ip
    17e8:	0c540100 	ldfeqe	f0, [r4], {-0}
    17ec:	00008a48 	andeq	r8, r0, r8, asr #20
    17f0:	00000010 	andeq	r0, r0, r0, lsl r0
    17f4:	0000014d 	andeq	r0, r0, sp, asr #2
    17f8:	0061720d 	rsbeq	r7, r1, sp, lsl #4
    17fc:	002c1c01 	eoreq	r1, ip, r1, lsl #24
    1800:	0c450000 	mareq	acc0, r0, r5
    1804:	4c0a0000 	stcmi	0, cr0, [sl], {-0}
    1808:	cb00008a 	blgt	1a38 <_start-0x65c8>
    180c:	00000000 	andeq	r0, r0, r0
    1810:	008a440a 	addeq	r4, sl, sl, lsl #8
    1814:	0000cb00 	andeq	ip, r0, r0, lsl #22
    1818:	91040000 	mrsls	r0, (UNDEF: 4)
    181c:	01000001 	tsteq	r0, r1
    1820:	008a5c22 	addeq	r5, sl, r2, lsr #24
    1824:	00001400 	andeq	r1, r0, r0, lsl #8
    1828:	909c0100 	addsls	r0, ip, r0, lsl #2
    182c:	0b000001 	bleq	1838 <_start-0x67c8>
    1830:	0100736d 	tsteq	r0, sp, ror #6
    1834:	00002c22 	andeq	r2, r0, r2, lsr #24
    1838:	000c5800 	andeq	r5, ip, r0, lsl #16
    183c:	8a6c0700 	bhi	1b03444 <__bss_end__+0x1af9424>
    1840:	00f90000 	rscseq	r0, r9, r0
    1844:	01080000 	mrseq	r0, (UNDEF: 8)
    1848:	01f30750 	mvnseq	r0, r0, asr r7
    184c:	03e80a50 	mvneq	r0, #80, 20	; 0x50000
    1850:	0400001e 	streq	r0, [r0], #-30
    1854:	000005e9 	andeq	r0, r0, r9, ror #11
    1858:	8a702501 	bhi	1c0ac64 <__bss_end__+0x1c00c44>
    185c:	00140000 	andseq	r0, r4, r0
    1860:	9c010000 	stcls	0, cr0, [r1], {-0}
    1864:	000001ca 	andeq	r0, r0, sl, asr #3
    1868:	6365730b 	cmnvs	r5, #738197504	; 0x2c000000
    186c:	2c250100 	stfcss	f0, [r5], #-0
    1870:	79000000 	stmdbvc	r0, {}	; <UNPREDICTABLE>
    1874:	0700000c 	streq	r0, [r0, -ip]
    1878:	00008a80 	andeq	r8, r0, r0, lsl #21
    187c:	00000157 	andeq	r0, r0, r7, asr r1
    1880:	07500108 	ldrbeq	r0, [r0, -r8, lsl #2]
    1884:	0a5001f3 	beq	1402058 <__bss_end__+0x13f8038>
    1888:	001e03e8 	andseq	r0, lr, r8, ror #7
    188c:	06060e00 	streq	r0, [r6], -r0, lsl #28
    1890:	a8020000 	stmdage	r2, {}	; <UNPREDICTABLE>
    1894:	0000002c 	andeq	r0, r0, ip, lsr #32
    1898:	00002c0f 	andeq	r2, r0, pc, lsl #24
    189c:	82000000 	andhi	r0, r0, #0
    18a0:	04000008 	streq	r0, [r0], #-8
    18a4:	000b8100 	andeq	r8, fp, r0, lsl #2
    18a8:	a3010400 	movwge	r0, #5120	; 0x1400
    18ac:	01000002 	tsteq	r0, r2
    18b0:	00000688 	andeq	r0, r0, r8, lsl #13
    18b4:	0000030e 	andeq	r0, r0, lr, lsl #6
    18b8:	00008a84 	andeq	r8, r0, r4, lsl #21
    18bc:	000005a0 	andeq	r0, r0, r0, lsr #11
    18c0:	000008e4 	andeq	r0, r0, r4, ror #17
    18c4:	29070802 	stmdbcs	r7, {r1, fp}
    18c8:	02000000 	andeq	r0, r0, #0
    18cc:	00330704 	eorseq	r0, r3, r4, lsl #14
    18d0:	01020000 	mrseq	r0, (UNDEF: 2)
    18d4:	00017b06 	andeq	r7, r1, r6, lsl #22
    18d8:	05020200 	streq	r0, [r2, #-512]	; 0x200
    18dc:	00000187 	andeq	r0, r0, r7, lsl #3
    18e0:	45050402 	strmi	r0, [r5, #-1026]	; 0x402
    18e4:	02000000 	andeq	r0, r0, #0
    18e8:	00400508 	subeq	r0, r0, r8, lsl #10
    18ec:	01020000 	mrseq	r0, (UNDEF: 2)
    18f0:	00017908 	andeq	r7, r1, r8, lsl #18
    18f4:	07020200 	streq	r0, [r2, -r0, lsl #4]
    18f8:	0000011c 	andeq	r0, r0, ip, lsl r1
    18fc:	2e070402 	cdpcs	4, 0, cr0, cr7, cr2, {0}
    1900:	03000000 	movweq	r0, #0
    1904:	6e690504 	cdpvs	5, 6, cr0, cr9, cr4, {0}
    1908:	04020074 	streq	r0, [r2], #-116	; 0x74
    190c:	00016607 	andeq	r6, r1, r7, lsl #12
    1910:	08010200 	stmdaeq	r1, {r9}
    1914:	00000182 	andeq	r0, r0, r2, lsl #3
    1918:	0c020104 	stfeqs	f0, [r2], {4}
    191c:	000000b2 	strheq	r0, [r0], -r2
    1920:	00066b05 	andeq	r6, r6, r5, lsl #22
    1924:	7b050000 	blvc	14192c <__bss_end__+0x13790c>
    1928:	01000007 	tsteq	r0, r7
    192c:	0007b405 	andeq	fp, r7, r5, lsl #8
    1930:	c3050400 	movwgt	r0, #21504	; 0x5400
    1934:	05000007 	streq	r0, [r0, #-7]
    1938:	0007d205 	andeq	sp, r7, r5, lsl #4
    193c:	e1050600 	tst	r5, r0, lsl #12
    1940:	07000007 	streq	r0, [r0, -r7]
    1944:	0007f005 	andeq	pc, r7, r5
    1948:	ff050300 			; <UNDEFINED> instruction: 0xff050300
    194c:	02000007 	andeq	r0, r0, #7
    1950:	07a80600 	streq	r0, [r8, r0, lsl #12]!
    1954:	15020000 	strne	r0, [r2, #-0]
    1958:	00000079 	andeq	r0, r0, r9, ror r0
    195c:	00076b07 	andeq	r6, r7, r7, lsl #22
    1960:	843f0100 	ldrthi	r0, [pc], #-256	; 1968 <_start-0x6698>
    1964:	d400008a 	strle	r0, [r0], #-138	; 0x8a
    1968:	01000000 	mrseq	r0, (UNDEF: 0)
    196c:	0001339c 	muleq	r1, ip, r3
    1970:	69700800 	ldmdbvs	r0!, {fp}^
    1974:	3f01006e 	svccc	0x0001006e
    1978:	0000002c 	andeq	r0, r0, ip, lsr #32
    197c:	00000c9a 	muleq	r0, sl, ip
    1980:	0006a809 	andeq	sl, r6, r9, lsl #16
    1984:	33470100 	movtcc	r0, #28928	; 0x7100
    1988:	b8000001 	stmdalt	r0, {r0}
    198c:	0900000c 	stmdbeq	r0, {r2, r3}
    1990:	0000080e 	andeq	r0, r0, lr, lsl #16
    1994:	002c4901 	eoreq	r4, ip, r1, lsl #18
    1998:	0d0d0000 	stceq	0, cr0, [sp, #-0]
    199c:	1f090000 	svcne	0x00090000
    19a0:	01000007 	tsteq	r0, r7
    19a4:	00002c57 	andeq	r2, r0, r7, asr ip
    19a8:	000ed900 	andeq	sp, lr, r0, lsl #18
    19ac:	8b180a00 	blhi	6041b4 <__bss_end__+0x5fa194>
    19b0:	08410000 	stmdaeq	r1, {}^	; <UNPREDICTABLE>
    19b4:	01220000 	teqeq	r2, r0
    19b8:	010b0000 	mrseq	r0, (UNDEF: 11)
    19bc:	00750250 	rsbseq	r0, r5, r0, asr r2
    19c0:	8b4c0c00 	blhi	13049c8 <__bss_end__+0x12fa9a8>
    19c4:	08620000 	stmdaeq	r2!, {}^	; <UNPREDICTABLE>
    19c8:	010b0000 	mrseq	r0, (UNDEF: 11)
    19cc:	00750250 	rsbseq	r0, r5, r0, asr r2
    19d0:	040d0000 	streq	r0, [sp], #-0
    19d4:	00000139 	andeq	r0, r0, r9, lsr r1
    19d8:	00002c0e 	andeq	r2, r0, lr, lsl #24
    19dc:	07510700 	ldrbeq	r0, [r1, -r0, lsl #14]
    19e0:	60010000 	andvs	r0, r1, r0
    19e4:	00008b58 	andeq	r8, r0, r8, asr fp
    19e8:	00000038 	andeq	r0, r0, r8, lsr r0
    19ec:	01969c01 	orrseq	r9, r6, r1, lsl #24
    19f0:	70080000 	andvc	r0, r8, r0
    19f4:	01006e69 	tsteq	r0, r9, ror #28
    19f8:	00002c60 	andeq	r2, r0, r0, ror #24
    19fc:	000f0900 	andeq	r0, pc, r0, lsl #18
    1a00:	06a80900 	strteq	r0, [r8], r0, lsl #18
    1a04:	67010000 	strvs	r0, [r1, -r0]
    1a08:	00000133 	andeq	r0, r0, r3, lsr r1
    1a0c:	00000f2a 	andeq	r0, r0, sl, lsr #30
    1a10:	00071f09 	andeq	r1, r7, r9, lsl #30
    1a14:	2c680100 	stfcse	f0, [r8], #-0
    1a18:	60000000 	andvs	r0, r0, r0
    1a1c:	0c00000f 	stceq	0, cr0, [r0], {15}
    1a20:	00008b88 	andeq	r8, r0, r8, lsl #23
    1a24:	00000862 	andeq	r0, r0, r2, ror #16
    1a28:	0751010b 	ldrbeq	r0, [r1, -fp, lsl #2]
    1a2c:	5001f331 	andpl	pc, r1, r1, lsr r3	; <UNPREDICTABLE>
    1a30:	00241a4f 	eoreq	r1, r4, pc, asr #20
    1a34:	067b0700 	ldrbteq	r0, [fp], -r0, lsl #14
    1a38:	7b010000 	blvc	41a40 <__bss_end__+0x37a20>
    1a3c:	00008b90 	muleq	r0, r0, fp
    1a40:	00000038 	andeq	r0, r0, r8, lsr r0
    1a44:	01ee9c01 	mvneq	r9, r1, lsl #24
    1a48:	70080000 	andvc	r0, r8, r0
    1a4c:	01006e69 	tsteq	r0, r9, ror #28
    1a50:	00002c7b 	andeq	r2, r0, fp, ror ip
    1a54:	000fa000 	andeq	sl, pc, r0
    1a58:	06a80900 	strteq	r0, [r8], r0, lsl #18
    1a5c:	81010000 	mrshi	r0, (UNDEF: 1)
    1a60:	00000133 	andeq	r0, r0, r3, lsr r1
    1a64:	00000fc1 	andeq	r0, r0, r1, asr #31
    1a68:	00071f09 	andeq	r1, r7, r9, lsl #30
    1a6c:	2c820100 	stfcss	f0, [r2], {0}
    1a70:	f7000000 			; <UNDEFINED> instruction: 0xf7000000
    1a74:	0c00000f 	stceq	0, cr0, [r0], {15}
    1a78:	00008bc0 	andeq	r8, r0, r0, asr #23
    1a7c:	00000862 	andeq	r0, r0, r2, ror #16
    1a80:	0751010b 	ldrbeq	r0, [r1, -fp, lsl #2]
    1a84:	5001f331 	andpl	pc, r1, r1, lsr r3	; <UNPREDICTABLE>
    1a88:	00241a4f 	eoreq	r1, r4, pc, asr #20
    1a8c:	02280700 	eoreq	r0, r8, #0, 14
    1a90:	95010000 	strls	r0, [r1, #-0]
    1a94:	00008bc8 	andeq	r8, r0, r8, asr #23
    1a98:	000000cc 	andeq	r0, r0, ip, asr #1
    1a9c:	02649c01 	rsbeq	r9, r4, #256	; 0x100
    1aa0:	70080000 	andvc	r0, r8, r0
    1aa4:	01006e69 	tsteq	r0, r9, ror #28
    1aa8:	00002c95 	muleq	r0, r5, ip
    1aac:	00103700 	andseq	r3, r0, r0, lsl #14
    1ab0:	06a80900 	strteq	r0, [r8], r0, lsl #18
    1ab4:	9b010000 	blls	41abc <__bss_end__+0x37a9c>
    1ab8:	00000133 	andeq	r0, r0, r3, lsr r1
    1abc:	00001055 	andeq	r1, r0, r5, asr r0
    1ac0:	00080e09 	andeq	r0, r8, r9, lsl #28
    1ac4:	2c9d0100 	ldfcss	f0, [sp], {0}
    1ac8:	aa000000 	bge	1ad0 <_start-0x6530>
    1acc:	09000010 	stmdbeq	r0, {r4}
    1ad0:	0000071f 	andeq	r0, r0, pc, lsl r7
    1ad4:	002cab01 	eoreq	sl, ip, r1, lsl #22
    1ad8:	12760000 	rsbsne	r0, r6, #0
    1adc:	5c0a0000 	stcpl	0, cr0, [sl], {-0}
    1ae0:	4100008c 	smlabbmi	r0, ip, r0, r0
    1ae4:	53000008 	movwpl	r0, #8
    1ae8:	0b000002 	bleq	1af8 <_start-0x6508>
    1aec:	75025001 	strvc	r5, [r2, #-1]
    1af0:	880c0000 	stmdahi	ip, {}	; <UNPREDICTABLE>
    1af4:	6200008c 	andvs	r0, r0, #140	; 0x8c
    1af8:	0b000008 	bleq	1b20 <_start-0x64e0>
    1afc:	75025001 	strvc	r5, [r2, #-1]
    1b00:	0f000000 	svceq	0x00000000
    1b04:	00000255 	andeq	r0, r0, r5, asr r2
    1b08:	0064b301 	rsbeq	fp, r4, r1, lsl #6
    1b0c:	8c940000 	ldchi	0, cr0, [r4], {0}
    1b10:	004c0000 	subeq	r0, ip, r0
    1b14:	9c010000 	stcls	0, cr0, [r1], {-0}
    1b18:	000002ac 	andeq	r0, r0, ip, lsr #5
    1b1c:	6e697008 	cdpvs	0, 6, cr7, cr9, cr8, {0}
    1b20:	2cb30100 	ldfcss	f0, [r3]
    1b24:	94000000 	strls	r0, [r0], #-0
    1b28:	10000012 	andne	r0, r0, r2, lsl r0
    1b2c:	b9010076 	stmdblt	r1, {r1, r2, r4, r5, r6}
    1b30:	0000002c 	andeq	r0, r0, ip, lsr #32
    1b34:	000012ec 	andeq	r1, r0, ip, ror #5
    1b38:	008cb411 	addeq	fp, ip, r1, lsl r4
    1b3c:	00084100 	andeq	r4, r8, r0, lsl #2
    1b40:	8cc41100 	stfhie	f1, [r4], {0}
    1b44:	08410000 	stmdaeq	r1, {}^	; <UNPREDICTABLE>
    1b48:	07000000 	streq	r0, [r0, -r0]
    1b4c:	00000727 	andeq	r0, r0, r7, lsr #14
    1b50:	8ce0c501 	cfstr64hi	mvdx12, [r0], #4
    1b54:	00240000 	eoreq	r0, r4, r0
    1b58:	9c010000 	stcls	0, cr0, [r1], {-0}
    1b5c:	000002fc 	strdeq	r0, [r0], -ip
    1b60:	6e697008 	cdpvs	0, 6, cr7, cr9, cr8, {0}
    1b64:	2cc50100 	stfcse	f0, [r5], {0}
    1b68:	22000000 	andcs	r0, r0, #0
    1b6c:	08000013 	stmdaeq	r0, {r0, r1, r4}
    1b70:	c5010076 	strgt	r0, [r1, #-118]	; 0x76
    1b74:	0000002c 	andeq	r0, r0, ip, lsr #32
    1b78:	0000135c 	andeq	r1, r0, ip, asr r3
    1b7c:	008cf80a 	addeq	pc, ip, sl, lsl #16
    1b80:	00013e00 	andeq	r3, r1, r0, lsl #28
    1b84:	0002f200 	andeq	pc, r2, r0, lsl #4
    1b88:	50010b00 	andpl	r0, r1, r0, lsl #22
    1b8c:	5001f303 	andpl	pc, r1, r3, lsl #6
    1b90:	8d001100 	stfhis	f1, [r0, #-0]
    1b94:	01960000 	orrseq	r0, r6, r0
    1b98:	07000000 	streq	r0, [r0, -r0]
    1b9c:	000006d2 	ldrdeq	r0, [r0], -r2
    1ba0:	8d04d101 	stfhid	f5, [r4, #-4]
    1ba4:	00d80000 	sbcseq	r0, r8, r0
    1ba8:	9c010000 	stcls	0, cr0, [r1], {-0}
    1bac:	00000381 	andeq	r0, r0, r1, lsl #7
    1bb0:	6e697008 	cdpvs	0, 6, cr7, cr9, cr8, {0}
    1bb4:	2cd10100 	ldfcse	f0, [r1], {0}
    1bb8:	96000000 	strls	r0, [r0], -r0
    1bbc:	12000013 	andne	r0, r0, #19
    1bc0:	00000732 	andeq	r0, r0, r2, lsr r7
    1bc4:	00b2d101 	adcseq	sp, r2, r1, lsl #2
    1bc8:	13b40000 			; <UNDEFINED> instruction: 0x13b40000
    1bcc:	a8090000 	stmdage	r9, {}	; <UNPREDICTABLE>
    1bd0:	01000006 	tsteq	r0, r6
    1bd4:	000133d9 	ldrdeq	r3, [r1], -r9
    1bd8:	0013d500 	andseq	sp, r3, r0, lsl #10
    1bdc:	080e0900 	stmdaeq	lr, {r8, fp}
    1be0:	da010000 	ble	41be8 <__bss_end__+0x37bc8>
    1be4:	0000002c 	andeq	r0, r0, ip, lsr #32
    1be8:	0000142a 	andeq	r1, r0, sl, lsr #8
    1bec:	00071f09 	andeq	r1, r7, r9, lsl #30
    1bf0:	2ce80100 	stfcse	f0, [r8]
    1bf4:	f6000000 			; <UNDEFINED> instruction: 0xf6000000
    1bf8:	0a000015 	beq	1c54 <_start-0x63ac>
    1bfc:	00008da0 	andeq	r8, r0, r0, lsr #27
    1c00:	00000841 	andeq	r0, r0, r1, asr #16
    1c04:	00000370 	andeq	r0, r0, r0, ror r3
    1c08:	0250010b 	subseq	r0, r0, #-1073741822	; 0xc0000002
    1c0c:	0c000076 	stceq	0, cr0, [r0], {118}	; 0x76
    1c10:	00008dd0 	ldrdeq	r8, [r0], -r0
    1c14:	00000862 	andeq	r0, r0, r2, ror #16
    1c18:	0250010b 	subseq	r0, r0, #-1073741822	; 0xc0000002
    1c1c:	00000076 	andeq	r0, r0, r6, ror r0
    1c20:	00073707 	andeq	r3, r7, r7, lsl #14
    1c24:	dcf10100 	ldflee	f0, [r1]
    1c28:	3800008d 	stmdacc	r0, {r0, r2, r3, r7}
    1c2c:	01000000 	mrseq	r0, (UNDEF: 0)
    1c30:	0003d99c 	muleq	r3, ip, r9
    1c34:	69700800 	ldmdbvs	r0!, {fp}^
    1c38:	f101006e 	setend	le
    1c3c:	0000002c 	andeq	r0, r0, ip, lsr #32
    1c40:	00001627 	andeq	r1, r0, r7, lsr #12
    1c44:	0006a809 	andeq	sl, r6, r9, lsl #16
    1c48:	33f70100 	mvnscc	r0, #0, 2
    1c4c:	48000001 	stmdami	r0, {r0}
    1c50:	09000016 	stmdbeq	r0, {r1, r2, r4}
    1c54:	0000071f 	andeq	r0, r0, pc, lsl r7
    1c58:	002cf801 	eoreq	pc, ip, r1, lsl #16
    1c5c:	167e0000 	ldrbtne	r0, [lr], -r0
    1c60:	0c0c0000 	stceq	0, cr0, [ip], {-0}
    1c64:	6200008e 	andvs	r0, r0, #142	; 0x8e
    1c68:	0b000008 	bleq	1c90 <_start-0x6370>
    1c6c:	31075101 	tstcc	r7, r1, lsl #2
    1c70:	4f5001f3 	svcmi	0x005001f3
    1c74:	0000241a 	andeq	r2, r0, sl, lsl r4
    1c78:	00065f13 	andeq	r5, r6, r3, lsl pc
    1c7c:	011f0100 	tsteq	pc, r0, lsl #2
    1c80:	00000064 	andeq	r0, r0, r4, rrx
    1c84:	00008e14 	andeq	r8, r0, r4, lsl lr
    1c88:	0000002c 	andeq	r0, r0, ip, lsr #32
    1c8c:	040d9c01 	streq	r9, [sp], #-3073	; 0xc01
    1c90:	62140000 	andsvs	r0, r4, #0
    1c94:	01000006 	tsteq	r0, r6
    1c98:	002c011f 	eoreq	r0, ip, pc, lsl r1
    1c9c:	16be0000 	ldrtne	r0, [lr], r0
    1ca0:	24110000 	ldrcs	r0, [r1], #-0
    1ca4:	4100008e 	smlabbmi	r0, lr, r0, r0
    1ca8:	00000008 	andeq	r0, r0, r8
    1cac:	0006bd15 	andeq	fp, r6, r5, lsl sp
    1cb0:	012e0100 	teqeq	lr, r0, lsl #2
    1cb4:	00008e40 	andeq	r8, r0, r0, asr #28
    1cb8:	00000084 	andeq	r0, r0, r4, lsl #1
    1cbc:	04d19c01 	ldrbeq	r9, [r1], #3073	; 0xc01
    1cc0:	70160000 	andsvc	r0, r6, r0
    1cc4:	01006e69 	tsteq	r0, r9, ror #28
    1cc8:	002c012e 	eoreq	r0, ip, lr, lsr #2
    1ccc:	16df0000 	ldrbne	r0, [pc], r0
    1cd0:	96170000 	ldrls	r0, [r7], -r0
    1cd4:	01000006 	tsteq	r0, r6
    1cd8:	002c0140 	eoreq	r0, ip, r0, asr #2
    1cdc:	170b0000 	strne	r0, [fp, -r0]
    1ce0:	5c180000 	ldcpl	0, cr0, [r8], {-0}
    1ce4:	1c00008e 	stcne	0, cr0, [r0], {142}	; 0x8e
    1ce8:	73000000 	movwvc	r0, #0
    1cec:	17000004 	strne	r0, [r0, -r4]
    1cf0:	0000071f 	andeq	r0, r0, pc, lsl r7
    1cf4:	2c013701 	stccs	7, cr3, [r1], {1}
    1cf8:	29000000 	stmdbcs	r0, {}	; <UNPREDICTABLE>
    1cfc:	11000017 	tstne	r0, r7, lsl r0
    1d00:	00008e68 	andeq	r8, r0, r8, ror #28
    1d04:	00000841 	andeq	r0, r0, r1, asr #16
    1d08:	008e7811 	addeq	r7, lr, r1, lsl r8
    1d0c:	00086200 	andeq	r6, r8, r0, lsl #4
    1d10:	7c180000 	ldcvc	0, cr0, [r8], {-0}
    1d14:	2000008e 	andcs	r0, r0, lr, lsl #1
    1d18:	a3000000 	movwge	r0, #0
    1d1c:	17000004 	strne	r0, [r0, -r4]
    1d20:	0000071f 	andeq	r0, r0, pc, lsl r7
    1d24:	2c013b01 	stccs	11, cr3, [r1], {1}
    1d28:	47000000 	strmi	r0, [r0, -r0]
    1d2c:	11000017 	tstne	r0, r7, lsl r0
    1d30:	00008e88 	andeq	r8, r0, r8, lsl #29
    1d34:	00000841 	andeq	r0, r0, r1, asr #16
    1d38:	008e9c11 	addeq	r9, lr, r1, lsl ip
    1d3c:	00086200 	andeq	r6, r8, r0, lsl #4
    1d40:	54110000 	ldrpl	r0, [r1], #-0
    1d44:	7e00008e 	cdpvc	0, 0, cr0, cr0, cr14, {4}
    1d48:	11000008 	tstne	r0, r8
    1d4c:	00008ea0 	andeq	r8, r0, r0, lsr #29
    1d50:	0000087e 	andeq	r0, r0, lr, ror r8
    1d54:	008eac11 	addeq	sl, lr, r1, lsl ip
    1d58:	00084100 	andeq	r4, r8, r0, lsl #2
    1d5c:	8eb81100 	frdhie	f1, f0, f0
    1d60:	08620000 	stmdaeq	r2!, {}^	; <UNPREDICTABLE>
    1d64:	bc110000 	ldclt	0, cr0, [r1], {-0}
    1d68:	7e00008e 	cdpvc	0, 0, cr0, cr0, cr14, {4}
    1d6c:	00000008 	andeq	r0, r0, r8
    1d70:	00079215 	andeq	r9, r7, r5, lsl r2
    1d74:	014b0100 	mrseq	r0, (UNDEF: 91)
    1d78:	00008ec4 	andeq	r8, r0, r4, asr #29
    1d7c:	00000084 	andeq	r0, r0, r4, lsl #1
    1d80:	05959c01 	ldreq	r9, [r5, #3073]	; 0xc01
    1d84:	70160000 	andsvc	r0, r6, r0
    1d88:	01006e69 	tsteq	r0, r9, ror #28
    1d8c:	002c014b 	eoreq	r0, ip, fp, asr #2
    1d90:	17650000 	strbne	r0, [r5, -r0]!
    1d94:	96170000 	ldrls	r0, [r7], -r0
    1d98:	01000006 	tsteq	r0, r6
    1d9c:	002c015c 	eoreq	r0, ip, ip, asr r1
    1da0:	17910000 	ldrne	r0, [r1, r0]
    1da4:	e0180000 	ands	r0, r8, r0
    1da8:	1c00008e 	stcne	0, cr0, [r0], {142}	; 0x8e
    1dac:	37000000 	strcc	r0, [r0, -r0]
    1db0:	17000005 	strne	r0, [r0, -r5]
    1db4:	0000071f 	andeq	r0, r0, pc, lsl r7
    1db8:	2c015301 	stccs	3, cr5, [r1], {1}
    1dbc:	af000000 	svcge	0x00000000
    1dc0:	11000017 	tstne	r0, r7, lsl r0
    1dc4:	00008eec 	andeq	r8, r0, ip, ror #29
    1dc8:	00000841 	andeq	r0, r0, r1, asr #16
    1dcc:	008efc11 	addeq	pc, lr, r1, lsl ip	; <UNPREDICTABLE>
    1dd0:	00086200 	andeq	r6, r8, r0, lsl #4
    1dd4:	00180000 	andseq	r0, r8, r0
    1dd8:	2000008f 	andcs	r0, r0, pc, lsl #1
    1ddc:	67000000 	strvs	r0, [r0, -r0]
    1de0:	17000005 	strne	r0, [r0, -r5]
    1de4:	0000071f 	andeq	r0, r0, pc, lsl r7
    1de8:	2c015701 	stccs	7, cr5, [r1], {1}
    1dec:	cd000000 	stcgt	0, cr0, [r0, #-0]
    1df0:	11000017 	tstne	r0, r7, lsl r0
    1df4:	00008f0c 	andeq	r8, r0, ip, lsl #30
    1df8:	00000841 	andeq	r0, r0, r1, asr #16
    1dfc:	008f2011 	addeq	r2, pc, r1, lsl r0	; <UNPREDICTABLE>
    1e00:	00086200 	andeq	r6, r8, r0, lsl #4
    1e04:	d8110000 	ldmdale	r1, {}	; <UNPREDICTABLE>
    1e08:	7e00008e 	cdpvc	0, 0, cr0, cr0, cr14, {4}
    1e0c:	11000008 	tstne	r0, r8
    1e10:	00008f24 	andeq	r8, r0, r4, lsr #30
    1e14:	0000087e 	andeq	r0, r0, lr, ror r8
    1e18:	008f3011 	addeq	r3, pc, r1, lsl r0	; <UNPREDICTABLE>
    1e1c:	00084100 	andeq	r4, r8, r0, lsl #2
    1e20:	8f3c1100 	svchi	0x003c1100
    1e24:	08620000 	stmdaeq	r2!, {}^	; <UNPREDICTABLE>
    1e28:	40110000 	andsmi	r0, r1, r0
    1e2c:	7e00008f 	cdpvc	0, 0, cr0, cr0, cr15, {4}
    1e30:	00000008 	andeq	r0, r0, r8
    1e34:	00063713 	andeq	r3, r6, r3, lsl r7
    1e38:	01660100 	cmneq	r6, r0, lsl #2
    1e3c:	00000064 	andeq	r0, r0, r4, rrx
    1e40:	00008f48 	andeq	r8, r0, r8, asr #30
    1e44:	00000084 	andeq	r0, r0, r4, lsl #1
    1e48:	063b9c01 	ldrteq	r9, [fp], -r1, lsl #24
    1e4c:	70160000 	andsvc	r0, r6, r0
    1e50:	01006e69 	tsteq	r0, r9, ror #28
    1e54:	002c0166 	eoreq	r0, ip, r6, ror #2
    1e58:	17eb0000 	strbne	r0, [fp, r0]!
    1e5c:	64180000 	ldrvs	r0, [r8], #-0
    1e60:	2400008f 	strcs	r0, [r0], #-143	; 0x8f
    1e64:	ef000000 	svc	0x00000000
    1e68:	17000005 	strne	r0, [r0, -r5]
    1e6c:	0000069f 	muleq	r0, pc, r6	; <UNPREDICTABLE>
    1e70:	2c016d01 	stccs	13, cr6, [r1], {1}
    1e74:	2d000000 	stccs	0, cr0, [r0, #-0]
    1e78:	11000018 	tstne	r0, r8, lsl r0
    1e7c:	00008f70 	andeq	r8, r0, r0, ror pc
    1e80:	00000841 	andeq	r0, r0, r1, asr #16
    1e84:	008f8011 	addeq	r8, pc, r1, lsl r0	; <UNPREDICTABLE>
    1e88:	00087e00 	andeq	r7, r8, r0, lsl #28
    1e8c:	88180000 	ldmdahi	r8, {}	; <UNPREDICTABLE>
    1e90:	2c00008f 	stccs	0, cr0, [r0], {143}	; 0x8f
    1e94:	28000000 	stmdacs	r0, {}	; <UNPREDICTABLE>
    1e98:	17000006 	strne	r0, [r0, -r6]
    1e9c:	0000069f 	muleq	r0, pc, r6	; <UNPREDICTABLE>
    1ea0:	2c017001 	stccs	0, cr7, [r1], {1}
    1ea4:	47000000 	strmi	r0, [r0, -r0]
    1ea8:	11000018 	tstne	r0, r8, lsl r0
    1eac:	00008f94 	muleq	r0, r4, pc	; <UNPREDICTABLE>
    1eb0:	00000841 	andeq	r0, r0, r1, asr #16
    1eb4:	008fa011 	addeq	sl, pc, r1, lsl r0	; <UNPREDICTABLE>
    1eb8:	00087e00 	andeq	r7, r8, r0, lsl #28
    1ebc:	8fac1100 	svchi	0x00ac1100
    1ec0:	087e0000 	ldmdaeq	lr!, {}^	; <UNPREDICTABLE>
    1ec4:	11000000 	mrsne	r0, (UNDEF: 0)
    1ec8:	00008f5c 	andeq	r8, r0, ip, asr pc
    1ecc:	0000087e 	andeq	r0, r0, lr, ror r8
    1ed0:	008fb811 	addeq	fp, pc, r1, lsl r8	; <UNPREDICTABLE>
    1ed4:	00087e00 	andeq	r7, r8, r0, lsl #28
    1ed8:	f2150000 	vhadd.s16	d0, d5, d0
    1edc:	01000006 	tsteq	r0, r6
    1ee0:	8fcc0179 	svchi	0x00cc0179
    1ee4:	00580000 	subseq	r0, r8, r0
    1ee8:	9c010000 	stcls	0, cr0, [r1], {-0}
    1eec:	000006a0 	andeq	r0, r0, r0, lsr #13
    1ef0:	6e697016 	mcrvs	0, 3, r7, cr9, cr6, {0}
    1ef4:	01790100 	cmneq	r9, r0, lsl #2
    1ef8:	0000002c 	andeq	r0, r0, ip, lsr #32
    1efc:	0000185a 	andeq	r1, r0, sl, asr r8
    1f00:	008fe011 	addeq	lr, pc, r1, lsl r0	; <UNPREDICTABLE>
    1f04:	00087e00 	andeq	r7, r8, r0, lsl #28
    1f08:	8ffc0a00 	svchi	0x00fc0a00
    1f0c:	08620000 	stmdaeq	r2!, {}^	; <UNPREDICTABLE>
    1f10:	06800000 	streq	r0, [r0], r0
    1f14:	010b0000 	mrseq	r0, (UNDEF: 11)
    1f18:	74310451 	ldrtvc	r0, [r1], #-1105	; 0x451
    1f1c:	0a002400 	beq	af24 <__bss_end__+0xf04>
    1f20:	00009018 	andeq	r9, r0, r8, lsl r0
    1f24:	00000862 	andeq	r0, r0, r2, ror #16
    1f28:	00000696 	muleq	r0, r6, r6
    1f2c:	0451010b 	ldrbeq	r0, [r1], #-267	; 0x10b
    1f30:	24007431 	strcs	r7, [r0], #-1073	; 0x431
    1f34:	901c1100 	andsls	r1, ip, r0, lsl #2
    1f38:	087e0000 	ldmdaeq	lr!, {}^	; <UNPREDICTABLE>
    1f3c:	19000000 	stmdbne	r0, {}	; <UNPREDICTABLE>
    1f40:	00000147 	andeq	r0, r0, r7, asr #2
    1f44:	01332801 	teqeq	r3, r1, lsl #16
    1f48:	03050000 	movweq	r0, #20480	; 0x5000
    1f4c:	00009918 	andeq	r9, r0, r8, lsl r9
    1f50:	00020a19 	andeq	r0, r2, r9, lsl sl
    1f54:	33290100 	teqcc	r9, #0, 2
    1f58:	05000001 	streq	r0, [r0, #-1]
    1f5c:	00991403 	addseq	r1, r9, r3, lsl #8
    1f60:	02741900 	rsbseq	r1, r4, #0, 18
    1f64:	2a010000 	bcs	41f6c <__bss_end__+0x37f4c>
    1f68:	00000133 	andeq	r0, r0, r3, lsr r1
    1f6c:	99100305 	ldmdbls	r0, {r0, r2, r8, r9}
    1f70:	e7190000 	ldr	r0, [r9, -r0]
    1f74:	01000000 	mrseq	r0, (UNDEF: 0)
    1f78:	0001332c 	andeq	r3, r1, ip, lsr #6
    1f7c:	bc030500 	cfstr32lt	mvfx0, [r3], {-0}
    1f80:	19000098 	stmdbne	r0, {r3, r4, r7}
    1f84:	000000ef 	andeq	r0, r0, pc, ror #1
    1f88:	01332d01 	teqeq	r3, r1, lsl #26
    1f8c:	03050000 	movweq	r0, #20480	; 0x5000
    1f90:	000098c0 	andeq	r9, r0, r0, asr #17
    1f94:	00000019 	andeq	r0, r0, r9, lsl r0
    1f98:	332e0100 	teqcc	lr, #0, 2
    1f9c:	05000001 	streq	r0, [r0, #-1]
    1fa0:	0098c403 	addseq	ip, r8, r3, lsl #8
    1fa4:	00f71900 	rscseq	r1, r7, r0, lsl #18
    1fa8:	2f010000 	svccs	0x00010000
    1fac:	00000133 	andeq	r0, r0, r3, lsr r1
    1fb0:	98c80305 	stmials	r8, {r0, r2, r8, r9}^
    1fb4:	ff190000 			; <UNDEFINED> instruction: 0xff190000
    1fb8:	01000000 	mrseq	r0, (UNDEF: 0)
    1fbc:	00013330 	andeq	r3, r1, r0, lsr r3
    1fc0:	cc030500 	cfstr32gt	mvfx0, [r3], {-0}
    1fc4:	19000098 	stmdbne	r0, {r3, r4, r7}
    1fc8:	00000107 	andeq	r0, r0, r7, lsl #2
    1fcc:	01333101 	teqeq	r3, r1, lsl #2
    1fd0:	03050000 	movweq	r0, #20480	; 0x5000
    1fd4:	000098d0 	ldrdeq	r9, [r0], -r0
    1fd8:	00005619 	andeq	r5, r0, r9, lsl r6
    1fdc:	33330100 	teqcc	r3, #0, 2
    1fe0:	05000001 	streq	r0, [r0, #-1]
    1fe4:	0098d403 	addseq	sp, r8, r3, lsl #8
    1fe8:	005d1900 	subseq	r1, sp, r0, lsl #18
    1fec:	34010000 	strcc	r0, [r1], #-0
    1ff0:	00000133 	andeq	r0, r0, r3, lsr r1
    1ff4:	98d80305 	ldmls	r8, {r0, r2, r8, r9}^
    1ff8:	08190000 	ldmdaeq	r9, {}	; <UNPREDICTABLE>
    1ffc:	01000000 	mrseq	r0, (UNDEF: 0)
    2000:	00013336 	andeq	r3, r1, r6, lsr r3
    2004:	dc030500 	cfstr32le	mvfx0, [r3], {-0}
    2008:	19000098 	stmdbne	r0, {r3, r4, r7}
    200c:	00000152 	andeq	r0, r0, r2, asr r1
    2010:	01333701 	teqeq	r3, r1, lsl #14
    2014:	03050000 	movweq	r0, #20480	; 0x5000
    2018:	000098e0 	andeq	r9, r0, r0, ror #17
    201c:	00006419 	andeq	r6, r0, r9, lsl r4
    2020:	33390100 	teqcc	r9, #0, 2
    2024:	05000001 	streq	r0, [r0, #-1]
    2028:	0098e403 	addseq	lr, r8, r3, lsl #8
    202c:	006b1900 	rsbeq	r1, fp, r0, lsl #18
    2030:	3a010000 	bcc	42038 <__bss_end__+0x38018>
    2034:	00000133 	andeq	r0, r0, r3, lsr r1
    2038:	98e80305 	stmials	r8!, {r0, r2, r8, r9}^
    203c:	031a0000 	tsteq	sl, #0
    2040:	01000007 	tsteq	r0, r7
    2044:	0133010a 	teqeq	r3, sl, lsl #2
    2048:	03050000 	movweq	r0, #20480	; 0x5000
    204c:	0000990c 	andeq	r9, r0, ip, lsl #18
    2050:	0007111a 	andeq	r1, r7, sl, lsl r1
    2054:	010b0100 	mrseq	r0, (UNDEF: 27)
    2058:	00000133 	andeq	r0, r0, r3, lsr r1
    205c:	98ec0305 	stmials	ip!, {r0, r2, r8, r9}^
    2060:	431a0000 	tstmi	sl, #0
    2064:	01000007 	tsteq	r0, r7
    2068:	0133010d 	teqeq	r3, sp, lsl #2
    206c:	03050000 	movweq	r0, #20480	; 0x5000
    2070:	00009904 	andeq	r9, r0, r4, lsl #18
    2074:	00074a1a 	andeq	r4, r7, sl, lsl sl
    2078:	010e0100 	mrseq	r0, (UNDEF: 30)
    207c:	00000133 	andeq	r0, r0, r3, lsr r1
    2080:	99080305 	stmdbls	r8, {r0, r2, r8, r9}
    2084:	e41a0000 	ldr	r0, [sl], #-0
    2088:	01000006 	tsteq	r0, r6
    208c:	01330110 	teqeq	r3, r0, lsl r1
    2090:	03050000 	movweq	r0, #20480	; 0x5000
    2094:	000098f0 	strdeq	r9, [r0], -r0
    2098:	0006eb1a 	andeq	lr, r6, sl, lsl fp
    209c:	01110100 	tsteq	r1, r0, lsl #2
    20a0:	00000133 	andeq	r0, r0, r3, lsr r1
    20a4:	98f40305 	ldmls	r4!, {r0, r2, r8, r9}^
    20a8:	5d1a0000 	ldcpl	0, cr0, [sl, #-0]
    20ac:	01000007 	tsteq	r0, r7
    20b0:	01330113 	teqeq	r3, r3, lsl r1
    20b4:	03050000 	movweq	r0, #20480	; 0x5000
    20b8:	000098fc 	strdeq	r9, [r0], -ip
    20bc:	0007641a 	andeq	r6, r7, sl, lsl r4
    20c0:	01140100 	tsteq	r4, r0, lsl #2
    20c4:	00000133 	andeq	r0, r0, r3, lsr r1
    20c8:	99000305 	stmdbls	r0, {r0, r2, r8, r9}
    20cc:	511a0000 	tstpl	sl, r0
    20d0:	01000006 	tsteq	r0, r6
    20d4:	01330116 	teqeq	r3, r6, lsl r1
    20d8:	03050000 	movweq	r0, #20480	; 0x5000
    20dc:	000098f8 	strdeq	r9, [r0], -r8
    20e0:	00078c1b 	andeq	r8, r7, fp, lsl ip
    20e4:	2c200100 	stfcss	f0, [r0], #-0
    20e8:	56000000 	strpl	r0, [r0], -r0
    20ec:	1c000008 	stcne	0, cr0, [r0], {8}
    20f0:	00000856 	andeq	r0, r0, r6, asr r8
    20f4:	5c040d00 	stcpl	13, cr0, [r4], {-0}
    20f8:	1d000008 	stcne	0, cr0, [r0, #-32]	; 0xffffffe0
    20fc:	00000861 	andeq	r0, r0, r1, ror #16
    2100:	064b1f1e 			; <UNDEFINED> instruction: 0x064b1f1e
    2104:	1e010000 	cdpne	0, 0, cr0, cr1, cr0, {0}
    2108:	00000878 	andeq	r0, r0, r8, ror r8
    210c:	0008781c 	andeq	r7, r8, ip, lsl r8
    2110:	002c1c00 	eoreq	r1, ip, r0, lsl #24
    2114:	0d000000 	stceq	0, cr0, [r0, #-0]
    2118:	00086104 	andeq	r6, r8, r4, lsl #2
    211c:	06b12000 	ldrteq	r2, [r1], r0
    2120:	8a030000 	bhi	c2128 <__bss_end__+0xb8108>
    2124:	0011f200 	andseq	pc, r1, r0, lsl #4
    2128:	5b000400 	blpl	3130 <_start-0x4ed0>
    212c:	0400000d 	streq	r0, [r0], #-13
    2130:	0002a301 	andeq	sl, r2, r1, lsl #6
    2134:	08ae0100 	stmiaeq	lr!, {r8}
    2138:	030e0000 	movweq	r0, #57344	; 0xe000
    213c:	90240000 	eorls	r0, r4, r0
    2140:	06680000 	strbteq	r0, [r8], -r0
    2144:	0a670000 	beq	19c214c <__bss_end__+0x19b812c>
    2148:	04020000 	streq	r0, [r2], #-0
    214c:	746e6905 	strbtvc	r6, [lr], #-2309	; 0x905
    2150:	07040300 	streq	r0, [r4, -r0, lsl #6]
    2154:	00000033 	andeq	r0, r0, r3, lsr r0
    2158:	7b060103 	blvc	18256c <__bss_end__+0x17854c>
    215c:	03000001 	movweq	r0, #1
    2160:	01870502 	orreq	r0, r7, r2, lsl #10
    2164:	04030000 	streq	r0, [r3], #-0
    2168:	00004505 	andeq	r4, r0, r5, lsl #10
    216c:	05080300 	streq	r0, [r8, #-768]	; 0x300
    2170:	00000040 	andeq	r0, r0, r0, asr #32
    2174:	0004ff04 	andeq	pc, r4, r4, lsl #30
    2178:	5a2e0300 	bpl	b82d80 <__bss_end__+0xb78d60>
    217c:	03000000 	movweq	r0, #0
    2180:	01790801 	cmneq	r9, r1, lsl #16
    2184:	02030000 	andeq	r0, r3, #0
    2188:	00011c07 	andeq	r1, r1, r7, lsl #24
    218c:	05560400 	ldrbeq	r0, [r6, #-1024]	; 0x400
    2190:	34030000 	strcc	r0, [r3], #-0
    2194:	00000073 	andeq	r0, r0, r3, ror r0
    2198:	2e070403 	cdpcs	4, 0, cr0, cr7, cr3, {0}
    219c:	03000000 	movweq	r0, #0
    21a0:	00290708 	eoreq	r0, r9, r8, lsl #14
    21a4:	04030000 	streq	r0, [r3], #-0
    21a8:	00016607 	andeq	r6, r1, r7, lsl #12
    21ac:	06040500 	streq	r0, [r4], -r0, lsl #10
    21b0:	00009004 	andeq	r9, r0, r4
    21b4:	08010300 	stmdaeq	r1, {r8, r9}
    21b8:	00000182 	andeq	r0, r0, r2, lsl #3
    21bc:	009d0406 	addseq	r0, sp, r6, lsl #8
    21c0:	90070000 	andls	r0, r7, r0
    21c4:	08000000 	stmdaeq	r0, {}	; <UNPREDICTABLE>
    21c8:	d90e040c 	stmdble	lr, {r2, r3, sl}
    21cc:	09000000 	stmdbeq	r0, {}	; <UNPREDICTABLE>
    21d0:	04007874 	streq	r7, [r0], #-2164	; 0x874
    21d4:	00004f0f 	andeq	r4, r0, pc, lsl #30
    21d8:	72090000 	andvc	r0, r9, #0
    21dc:	0f040078 	svceq	0x00040078
    21e0:	0000004f 	andeq	r0, r0, pc, asr #32
    21e4:	04cd0a01 	strbeq	r0, [sp], #2561	; 0xa01
    21e8:	10040000 	andne	r0, r4, r0
    21ec:	00000068 	andeq	r0, r0, r8, rrx
    21f0:	047e0a04 	ldrbteq	r0, [lr], #-2564	; 0xa04
    21f4:	11040000 	mrsne	r0, (UNDEF: 4)
    21f8:	00000068 	andeq	r0, r0, r8, rrx
    21fc:	b6040008 	strlt	r0, [r4], -r8
    2200:	04000004 	streq	r0, [r0], #-4
    2204:	0000a212 	andeq	sl, r0, r2, lsl r2
    2208:	02860400 	addeq	r0, r6, #0, 8
    220c:	28050000 	stmdacs	r5, {}	; <UNPREDICTABLE>
    2210:	000000ef 	andeq	r0, r0, pc, ror #1
    2214:	0003040b 	andeq	r0, r3, fp, lsl #8
    2218:	00090400 	andeq	r0, r9, r0, lsl #8
    221c:	00000106 	andeq	r0, r0, r6, lsl #2
    2220:	0003570c 	andeq	r5, r3, ip, lsl #14
    2224:	00008800 	andeq	r8, r0, r0, lsl #16
    2228:	04000000 	streq	r0, [r0], #-0
    222c:	00000306 	andeq	r0, r0, r6, lsl #6
    2230:	00e46205 	rsceq	r6, r4, r5, lsl #4
    2234:	720d0000 	andvc	r0, sp, #0
    2238:	02000008 	andeq	r0, r0, #8
    223c:	013f0309 	teqeq	pc, r9, lsl #6
    2240:	e10e0000 	mrs	r0, (UNDEF: 14)
    2244:	02000004 	andeq	r0, r0, #4
    2248:	00002c09 	andeq	r2, r0, r9, lsl #24
    224c:	006e0f00 	rsbeq	r0, lr, r0, lsl #30
    2250:	002c0902 	eoreq	r0, ip, r2, lsl #18
    2254:	11100000 	tstne	r0, r0
    2258:	0000016f 	andeq	r0, r0, pc, ror #2
    225c:	002c0c02 	eoreq	r0, ip, r2, lsl #24
    2260:	00000000 	andeq	r0, r0, r0
    2264:	0008250d 	andeq	r2, r8, sp, lsl #10
    2268:	03170200 	tsteq	r7, #0, 4
    226c:	00000176 	andeq	r0, r0, r6, ror r1
    2270:	6e69700f 	cdpvs	0, 6, cr7, cr9, cr15, {0}
    2274:	2c170200 	lfmcs	f0, 4, [r7], {-0}
    2278:	0f000000 	svceq	0x00000000
    227c:	17020076 	smlsdxne	r2, r6, r0, r0
    2280:	0000002c 	andeq	r0, r0, ip, lsr #32
    2284:	0004e10e 	andeq	lr, r4, lr, lsl #2
    2288:	2c170200 	lfmcs	f0, 4, [r7], {-0}
    228c:	0e000000 	cdpeq	0, 0, cr0, cr0, cr0, {0}
    2290:	00000878 	andeq	r0, r0, r8, ror r8
    2294:	002c1702 	eoreq	r1, ip, r2, lsl #14
    2298:	12000000 	andne	r0, r0, #0
    229c:	000004f2 	strdeq	r0, [r0], -r2
    22a0:	90240901 	eorls	r0, r4, r1, lsl #18
    22a4:	01540000 	cmpeq	r4, r0
    22a8:	9c010000 	stcls	0, cr0, [r1], {-0}
    22ac:	00000722 	andeq	r0, r0, r2, lsr #14
    22b0:	00049413 	andeq	r9, r4, r3, lsl r4
    22b4:	22090100 	andcs	r0, r9, #0, 2
    22b8:	86000007 	strhi	r0, [r0], -r7
    22bc:	14000018 	strne	r0, [r0], #-24
    22c0:	09010063 	stmdbeq	r1, {r0, r1, r5, r6}
    22c4:	0000005a 	andeq	r0, r0, sl, asr r0
    22c8:	000018a7 	andeq	r1, r0, r7, lsr #17
    22cc:	00787415 	rsbseq	r7, r8, r5, lsl r4
    22d0:	00250b01 	eoreq	r0, r5, r1, lsl #22
    22d4:	76060000 	strvc	r0, [r6], -r0
    22d8:	1aff0800 	bne	fffc42e0 <__bss_end__+0xfffba2c0>
    22dc:	006e169f 	mlseq	lr, pc, r6, r1	; <UNPREDICTABLE>
    22e0:	00680c01 	rsbeq	r0, r8, r1, lsl #24
    22e4:	18c80000 	stmiane	r8, {}^	; <UNPREDICTABLE>
    22e8:	75160000 	ldrvc	r0, [r6, #-0]
    22ec:	680d0100 	stmdavs	sp, {r8}
    22f0:	db000000 	blle	22f8 <_start-0x5d08>
    22f4:	15000018 	strne	r0, [r0, #-24]
    22f8:	0e010073 	mcreq	0, 0, r0, cr1, cr3, {3}
    22fc:	00000068 	andeq	r0, r0, r8, rrx
    2300:	34175401 	ldrcc	r5, [r7], #-1025	; 0x401
    2304:	04000090 	streq	r0, [r0], #-144	; 0x90
    2308:	f8000000 			; <UNDEFINED> instruction: 0xf8000000
    230c:	18000001 	stmdane	r0, {r0}
    2310:	0000016f 	andeq	r0, r0, pc, ror #2
    2314:	002c0e01 	eoreq	r0, ip, r1, lsl #28
    2318:	54010000 	strpl	r0, [r1], #-0
    231c:	013f1900 	teqeq	pc, r0, lsl #18
    2320:	90380000 	eorsls	r0, r8, r0
    2324:	001c0000 	andseq	r0, ip, r0
    2328:	11010000 	mrsne	r0, (UNDEF: 1)
    232c:	00000275 	andeq	r0, r0, r5, ror r2
    2330:	00016a1a 	andeq	r6, r1, sl, lsl sl
    2334:	00190400 	andseq	r0, r9, r0, lsl #8
    2338:	015f1b00 	cmpeq	pc, r0, lsl #22
    233c:	54010000 	strpl	r0, [r1], #-0
    2340:	0001561c 	andeq	r5, r1, ip, lsl r6
    2344:	4b1b0000 	blmi	6c234c <__bss_end__+0x6b832c>
    2348:	01000001 	tsteq	r0, r1
    234c:	01111956 	tsteq	r1, r6, asr r9
    2350:	90440000 	subls	r0, r4, r0
    2354:	00100000 	andseq	r0, r0, r0
    2358:	1a020000 	bne	82360 <__bss_end__+0x78340>
    235c:	0000025f 	andeq	r0, r0, pc, asr r2
    2360:	0001281a 	andeq	r2, r1, sl, lsl r8
    2364:	00191700 	andseq	r1, r9, r0, lsl #14
    2368:	011d1b00 	tsteq	sp, r0, lsl #22
    236c:	54010000 	strpl	r0, [r1], #-0
    2370:	0090441d 	addseq	r4, r0, sp, lsl r4
    2374:	00000400 	andeq	r0, r0, r0, lsl #8
    2378:	01321e00 	teqeq	r2, r0, lsl #28
    237c:	192a0000 	stmdbne	sl!, {}	; <UNPREDICTABLE>
    2380:	00000000 	andeq	r0, r0, r0
    2384:	0090441f 	addseq	r4, r0, pc, lsl r4
    2388:	00115900 	andseq	r5, r1, r0, lsl #18
    238c:	51012000 	mrspl	r2, (UNDEF: 1)
    2390:	01203001 	teqeq	r0, r1
    2394:	00760250 	rsbseq	r0, r6, r0, asr r2
    2398:	3f190000 	svccc	0x00190000
    239c:	58000001 	stmdapl	r0, {r0}
    23a0:	1c000090 	stcne	0, cr0, [r0], {144}	; 0x90
    23a4:	01000000 	mrseq	r0, (UNDEF: 0)
    23a8:	0002f813 	andeq	pc, r2, r3, lsl r8	; <UNPREDICTABLE>
    23ac:	016a1a00 	cmneq	sl, r0, lsl #20
    23b0:	193d0000 	ldmdbne	sp!, {}	; <UNPREDICTABLE>
    23b4:	5f1b0000 	svcpl	0x001b0000
    23b8:	01000001 	tsteq	r0, r1
    23bc:	01561a54 	cmpeq	r6, r4, asr sl
    23c0:	195f0000 	ldmdbne	pc, {}^	; <UNPREDICTABLE>
    23c4:	4b1b0000 	blmi	6c23cc <__bss_end__+0x6b83ac>
    23c8:	01000001 	tsteq	r0, r1
    23cc:	01111956 	tsteq	r1, r6, asr r9
    23d0:	90640000 	rsbls	r0, r4, r0
    23d4:	00100000 	andseq	r0, r0, r0
    23d8:	1a020000 	bne	823e0 <__bss_end__+0x783c0>
    23dc:	000002df 	ldrdeq	r0, [r0], -pc	; <UNPREDICTABLE>
    23e0:	0001281a 	andeq	r2, r1, sl, lsl r8
    23e4:	00199000 	andseq	r9, r9, r0
    23e8:	011d1b00 	tsteq	sp, r0, lsl #22
    23ec:	54010000 	strpl	r0, [r1], #-0
    23f0:	0090641d 	addseq	r6, r0, sp, lsl r4
    23f4:	00000400 	andeq	r0, r0, r0, lsl #8
    23f8:	01321e00 	teqeq	r2, r0, lsl #28
    23fc:	19b20000 	ldmibne	r2!, {}	; <UNPREDICTABLE>
    2400:	00000000 	andeq	r0, r0, r0
    2404:	0090641f 	addseq	r6, r0, pc, lsl r4
    2408:	00115900 	andseq	r5, r1, r0, lsl #18
    240c:	51012000 	mrspl	r2, (UNDEF: 1)
    2410:	31007704 	tstcc	r0, r4, lsl #14
    2414:	5001201a 	andpl	r2, r1, sl, lsl r0
    2418:	00007602 	andeq	r7, r0, r2, lsl #12
    241c:	013f1900 	teqeq	pc, r0, lsl #18
    2420:	90780000 	rsbsls	r0, r8, r0
    2424:	001c0000 	andseq	r0, ip, r0
    2428:	15010000 	strne	r0, [r1, #-0]
    242c:	00000380 	andeq	r0, r0, r0, lsl #7
    2430:	00016a1a 	andeq	r6, r1, sl, lsl sl
    2434:	0019c500 	andseq	ip, r9, r0, lsl #10
    2438:	015f1b00 	cmpeq	pc, r0, lsl #22
    243c:	54010000 	strpl	r0, [r1], #-0
    2440:	0001561b 	andeq	r5, r1, fp, lsl r6
    2444:	00770800 	rsbseq	r0, r7, r0, lsl #16
    2448:	ff081a32 			; <UNDEFINED> instruction: 0xff081a32
    244c:	4b1b9f1a 	blmi	6ea0bc <__bss_end__+0x6e009c>
    2450:	01000001 	tsteq	r0, r1
    2454:	01111956 	tsteq	r1, r6, asr r9
    2458:	90840000 	addls	r0, r4, r0
    245c:	00100000 	andseq	r0, r0, r0
    2460:	1a020000 	bne	82468 <__bss_end__+0x78448>
    2464:	00000367 	andeq	r0, r0, r7, ror #6
    2468:	0001281a 	andeq	r2, r1, sl, lsl r8
    246c:	0019ea00 	andseq	lr, r9, r0, lsl #20
    2470:	011d1b00 	tsteq	sp, r0, lsl #22
    2474:	54010000 	strpl	r0, [r1], #-0
    2478:	0090841d 	addseq	r8, r0, sp, lsl r4
    247c:	00000400 	andeq	r0, r0, r0, lsl #8
    2480:	01321e00 	teqeq	r2, r0, lsl #28
    2484:	1a0f0000 	bne	3c248c <__bss_end__+0x3b846c>
    2488:	00000000 	andeq	r0, r0, r0
    248c:	0090841f 	addseq	r8, r0, pc, lsl r4
    2490:	00115900 	andseq	r5, r1, r0, lsl #18
    2494:	51012000 	mrspl	r2, (UNDEF: 1)
    2498:	32007704 	andcc	r7, r0, #4, 14	; 0x100000
    249c:	5001201a 	andpl	r2, r1, sl, lsl r0
    24a0:	00007602 	andeq	r7, r0, r2, lsl #12
    24a4:	013f1900 	teqeq	pc, r0, lsl #18
    24a8:	90980000 	addsls	r0, r8, r0
    24ac:	001c0000 	andseq	r0, ip, r0
    24b0:	17010000 	strne	r0, [r1, -r0]
    24b4:	00000408 	andeq	r0, r0, r8, lsl #8
    24b8:	00016a1a 	andeq	r6, r1, sl, lsl sl
    24bc:	001a2200 	andseq	r2, sl, r0, lsl #4
    24c0:	015f1b00 	cmpeq	pc, r0, lsl #22
    24c4:	54010000 	strpl	r0, [r1], #-0
    24c8:	0001561b 	andeq	r5, r1, fp, lsl r6
    24cc:	00770800 	rsbseq	r0, r7, r0, lsl #16
    24d0:	ff081a34 			; <UNDEFINED> instruction: 0xff081a34
    24d4:	4b1b9f1a 	blmi	6ea144 <__bss_end__+0x6e0124>
    24d8:	01000001 	tsteq	r0, r1
    24dc:	01111956 	tsteq	r1, r6, asr r9
    24e0:	90a40000 	adcls	r0, r4, r0
    24e4:	00100000 	andseq	r0, r0, r0
    24e8:	1a020000 	bne	824f0 <__bss_end__+0x784d0>
    24ec:	000003ef 	andeq	r0, r0, pc, ror #7
    24f0:	0001281a 	andeq	r2, r1, sl, lsl r8
    24f4:	001a4400 	andseq	r4, sl, r0, lsl #8
    24f8:	011d1b00 	tsteq	sp, r0, lsl #22
    24fc:	54010000 	strpl	r0, [r1], #-0
    2500:	0090a41d 	addseq	sl, r0, sp, lsl r4
    2504:	00000400 	andeq	r0, r0, r0, lsl #8
    2508:	01321e00 	teqeq	r2, r0, lsl #28
    250c:	1a660000 	bne	1982514 <__bss_end__+0x19784f4>
    2510:	00000000 	andeq	r0, r0, r0
    2514:	0090a41f 	addseq	sl, r0, pc, lsl r4
    2518:	00115900 	andseq	r5, r1, r0, lsl #18
    251c:	51012000 	mrspl	r2, (UNDEF: 1)
    2520:	34007704 	strcc	r7, [r0], #-1796	; 0x704
    2524:	5001201a 	andpl	r2, r1, sl, lsl r0
    2528:	00007602 	andeq	r7, r0, r2, lsl #12
    252c:	013f1900 	teqeq	pc, r0, lsl #18
    2530:	90b80000 	adcsls	r0, r8, r0
    2534:	001c0000 	andseq	r0, ip, r0
    2538:	19010000 	stmdbne	r1, {}	; <UNPREDICTABLE>
    253c:	00000490 	muleq	r0, r0, r4
    2540:	00016a1a 	andeq	r6, r1, sl, lsl sl
    2544:	001a7900 	andseq	r7, sl, r0, lsl #18
    2548:	015f1b00 	cmpeq	pc, r0, lsl #22
    254c:	54010000 	strpl	r0, [r1], #-0
    2550:	0001561b 	andeq	r5, r1, fp, lsl r6
    2554:	00770800 	rsbseq	r0, r7, r0, lsl #16
    2558:	ff081a38 			; <UNDEFINED> instruction: 0xff081a38
    255c:	4b1b9f1a 	blmi	6ea1cc <__bss_end__+0x6e01ac>
    2560:	01000001 	tsteq	r0, r1
    2564:	01111956 	tsteq	r1, r6, asr r9
    2568:	90c40000 	sbcls	r0, r4, r0
    256c:	00100000 	andseq	r0, r0, r0
    2570:	1a020000 	bne	82578 <__bss_end__+0x78558>
    2574:	00000477 	andeq	r0, r0, r7, ror r4
    2578:	0001281a 	andeq	r2, r1, sl, lsl r8
    257c:	001a9e00 	andseq	r9, sl, r0, lsl #28
    2580:	011d1b00 	tsteq	sp, r0, lsl #22
    2584:	54010000 	strpl	r0, [r1], #-0
    2588:	0090c41d 	addseq	ip, r0, sp, lsl r4
    258c:	00000400 	andeq	r0, r0, r0, lsl #8
    2590:	01321e00 	teqeq	r2, r0, lsl #28
    2594:	1ac30000 	bne	ff0c259c <__bss_end__+0xff0b857c>
    2598:	00000000 	andeq	r0, r0, r0
    259c:	0090c41f 	addseq	ip, r0, pc, lsl r4
    25a0:	00115900 	andseq	r5, r1, r0, lsl #18
    25a4:	51012000 	mrspl	r2, (UNDEF: 1)
    25a8:	38007704 	stmdacc	r0, {r2, r8, r9, sl, ip, sp, lr}
    25ac:	5001201a 	andpl	r2, r1, sl, lsl r0
    25b0:	00007602 	andeq	r7, r0, r2, lsl #12
    25b4:	013f1900 	teqeq	pc, r0, lsl #18
    25b8:	90d80000 	sbcsls	r0, r8, r0
    25bc:	001c0000 	andseq	r0, ip, r0
    25c0:	1b010000 	blne	425c8 <__bss_end__+0x385a8>
    25c4:	00000518 	andeq	r0, r0, r8, lsl r5
    25c8:	00016a1a 	andeq	r6, r1, sl, lsl sl
    25cc:	001ad600 	andseq	sp, sl, r0, lsl #12
    25d0:	015f1b00 	cmpeq	pc, r0, lsl #22
    25d4:	54010000 	strpl	r0, [r1], #-0
    25d8:	0001561b 	andeq	r5, r1, fp, lsl r6
    25dc:	00770800 	rsbseq	r0, r7, r0, lsl #16
    25e0:	ff081a40 			; <UNDEFINED> instruction: 0xff081a40
    25e4:	4b1b9f1a 	blmi	6ea254 <__bss_end__+0x6e0234>
    25e8:	01000001 	tsteq	r0, r1
    25ec:	01111956 	tsteq	r1, r6, asr r9
    25f0:	90e40000 	rscls	r0, r4, r0
    25f4:	00100000 	andseq	r0, r0, r0
    25f8:	1a020000 	bne	82600 <__bss_end__+0x785e0>
    25fc:	000004ff 	strdeq	r0, [r0], -pc	; <UNPREDICTABLE>
    2600:	0001281a 	andeq	r2, r1, sl, lsl r8
    2604:	001afd00 	andseq	pc, sl, r0, lsl #26
    2608:	011d1b00 	tsteq	sp, r0, lsl #22
    260c:	54010000 	strpl	r0, [r1], #-0
    2610:	0090e41d 	addseq	lr, r0, sp, lsl r4
    2614:	00000400 	andeq	r0, r0, r0, lsl #8
    2618:	01321e00 	teqeq	r2, r0, lsl #28
    261c:	1b240000 	blne	902624 <__bss_end__+0x8f8604>
    2620:	00000000 	andeq	r0, r0, r0
    2624:	0090e41f 	addseq	lr, r0, pc, lsl r4
    2628:	00115900 	andseq	r5, r1, r0, lsl #18
    262c:	51012000 	mrspl	r2, (UNDEF: 1)
    2630:	40007704 	andmi	r7, r0, r4, lsl #14
    2634:	5001201a 	andpl	r2, r1, sl, lsl r0
    2638:	00007602 	andeq	r7, r0, r2, lsl #12
    263c:	013f1900 	teqeq	pc, r0, lsl #18
    2640:	90f80000 	rscsls	r0, r8, r0
    2644:	001c0000 	andseq	r0, ip, r0
    2648:	1d010000 	stcne	0, cr0, [r1, #-0]
    264c:	000005a2 	andeq	r0, r0, r2, lsr #11
    2650:	00016a1a 	andeq	r6, r1, sl, lsl sl
    2654:	001b3700 	andseq	r3, fp, r0, lsl #14
    2658:	015f1b00 	cmpeq	pc, r0, lsl #22
    265c:	54010000 	strpl	r0, [r1], #-0
    2660:	0001561b 	andeq	r5, r1, fp, lsl r6
    2664:	00770900 	rsbseq	r0, r7, r0, lsl #18
    2668:	081a2008 	ldmdaeq	sl, {r3, sp}
    266c:	1b9f1aff 	blne	fe7c9270 <__bss_end__+0xfe7bf250>
    2670:	0000014b 	andeq	r0, r0, fp, asr #2
    2674:	11195601 	tstne	r9, r1, lsl #12
    2678:	04000001 	streq	r0, [r0], #-1
    267c:	10000091 	mulne	r0, r1, r0
    2680:	02000000 	andeq	r0, r0, #0
    2684:	0005881a 	andeq	r8, r5, sl, lsl r8
    2688:	01281a00 	teqeq	r8, r0, lsl #20
    268c:	1b610000 	blne	1842694 <__bss_end__+0x1838674>
    2690:	1d1b0000 	ldcne	0, cr0, [fp, #-0]
    2694:	01000001 	tsteq	r0, r1
    2698:	91041d54 	tstls	r4, r4, asr sp
    269c:	00040000 	andeq	r0, r4, r0
    26a0:	321e0000 	andscc	r0, lr, #0
    26a4:	8b000001 	blhi	26b0 <_start-0x5950>
    26a8:	0000001b 	andeq	r0, r0, fp, lsl r0
    26ac:	91041f00 	tstls	r4, r0, lsl #30
    26b0:	11590000 	cmpne	r9, r0
    26b4:	01200000 	teqeq	r0, r0
    26b8:	00770551 	rsbseq	r0, r7, r1, asr r5
    26bc:	201a2008 	andscs	r2, sl, r8
    26c0:	76025001 	strvc	r5, [r2], -r1
    26c4:	19000000 	stmdbne	r0, {}	; <UNPREDICTABLE>
    26c8:	0000013f 	andeq	r0, r0, pc, lsr r1
    26cc:	00009118 	andeq	r9, r0, r8, lsl r1
    26d0:	0000001c 	andeq	r0, r0, ip, lsl r0
    26d4:	062c1f01 	strteq	r1, [ip], -r1, lsl #30
    26d8:	6a1a0000 	bvs	6826e0 <__bss_end__+0x6786c0>
    26dc:	9e000001 	cdpls	0, 0, cr0, cr0, cr1, {0}
    26e0:	1b00001b 	blne	2754 <_start-0x58ac>
    26e4:	0000015f 	andeq	r0, r0, pc, asr r1
    26e8:	561b5401 	ldrpl	r5, [fp], -r1, lsl #8
    26ec:	09000001 	stmdbeq	r0, {r0}
    26f0:	40080077 	andmi	r0, r8, r7, ror r0
    26f4:	1aff081a 	bne	fffc4764 <__bss_end__+0xfffba744>
    26f8:	014b1b9f 			; <UNDEFINED> instruction: 0x014b1b9f
    26fc:	56010000 	strpl	r0, [r1], -r0
    2700:	00011119 	andeq	r1, r1, r9, lsl r1
    2704:	00912400 	addseq	r2, r1, r0, lsl #8
    2708:	00001000 	andeq	r1, r0, r0
    270c:	121a0200 	andsne	r0, sl, #0, 4
    2710:	1a000006 	bne	2730 <_start-0x58d0>
    2714:	00000128 	andeq	r0, r0, r8, lsr #2
    2718:	00001bc0 	andeq	r1, r0, r0, asr #23
    271c:	00011d1b 	andeq	r1, r1, fp, lsl sp
    2720:	1d540100 	ldfnee	f0, [r4, #-0]
    2724:	00009124 	andeq	r9, r0, r4, lsr #2
    2728:	00000004 	andeq	r0, r0, r4
    272c:	0001321e 	andeq	r3, r1, lr, lsl r2
    2730:	001be200 	andseq	lr, fp, r0, lsl #4
    2734:	1f000000 	svcne	0x00000000
    2738:	00009124 	andeq	r9, r0, r4, lsr #2
    273c:	00001159 	andeq	r1, r0, r9, asr r1
    2740:	05510120 	ldrbeq	r0, [r1, #-288]	; 0x120
    2744:	40080077 	andmi	r0, r8, r7, ror r0
    2748:	5001201a 	andpl	r2, r1, sl, lsl r0
    274c:	00007602 	andeq	r7, r0, r2, lsl #12
    2750:	013f1900 	teqeq	pc, r0, lsl #18
    2754:	91380000 	teqls	r8, r0
    2758:	001c0000 	andseq	r0, ip, r0
    275c:	21010000 	mrscs	r0, (UNDEF: 1)
    2760:	000006ac 	andeq	r0, r0, ip, lsr #13
    2764:	00016a1b 	andeq	r6, r1, fp, lsl sl
    2768:	1b580100 	blne	1602b70 <__bss_end__+0x15f8b50>
    276c:	0000015f 	andeq	r0, r0, pc, asr r1
    2770:	561a5401 	ldrpl	r5, [sl], -r1, lsl #8
    2774:	f5000001 			; <UNDEFINED> instruction: 0xf5000001
    2778:	1b00001b 	blne	27ec <_start-0x5814>
    277c:	0000014b 	andeq	r0, r0, fp, asr #2
    2780:	11195601 	tstne	r9, r1, lsl #12
    2784:	44000001 	strmi	r0, [r0], #-1
    2788:	10000091 	mulne	r0, r1, r0
    278c:	02000000 	andeq	r0, r0, #0
    2790:	0006921a 	andeq	r9, r6, sl, lsl r2
    2794:	01281b00 	teqeq	r8, r0, lsl #22
    2798:	58010000 	stmdapl	r1, {}	; <UNPREDICTABLE>
    279c:	00011d1b 	andeq	r1, r1, fp, lsl sp
    27a0:	1d540100 	ldfnee	f0, [r4, #-0]
    27a4:	00009144 	andeq	r9, r0, r4, asr #2
    27a8:	00000004 	andeq	r0, r0, r4
    27ac:	0001321e 	andeq	r3, r1, lr, lsl r2
    27b0:	001c2800 	andseq	r2, ip, r0, lsl #16
    27b4:	1f000000 	svcne	0x00000000
    27b8:	00009144 	andeq	r9, r0, r4, asr #2
    27bc:	00001159 	andeq	r1, r0, r9, asr r1
    27c0:	05510120 	ldrbeq	r0, [r1, #-288]	; 0x120
    27c4:	80080077 	andhi	r0, r8, r7, ror r0
    27c8:	5001201a 	andpl	r2, r1, sl, lsl r0
    27cc:	00007602 	andeq	r7, r0, r2, lsl #12
    27d0:	013f2100 	teqeq	pc, r0, lsl #2
    27d4:	91580000 	cmpls	r8, r0
    27d8:	001c0000 	andseq	r0, ip, r0
    27dc:	23010000 	movwcs	r0, #4096	; 0x1000
    27e0:	00016a1b 	andeq	r6, r1, fp, lsl sl
    27e4:	1b550100 	blne	1542bec <__bss_end__+0x1538bcc>
    27e8:	0000015f 	andeq	r0, r0, pc, asr r1
    27ec:	561c5401 	ldrpl	r5, [ip], -r1, lsl #8
    27f0:	01000001 	tsteq	r0, r1
    27f4:	00014b1b 	andeq	r4, r1, fp, lsl fp
    27f8:	19560100 	ldmdbne	r6, {r8}^
    27fc:	00000111 	andeq	r0, r0, r1, lsl r1
    2800:	00009164 	andeq	r9, r0, r4, ror #2
    2804:	00000010 	andeq	r0, r0, r0, lsl r0
    2808:	070b1a02 	streq	r1, [fp, -r2, lsl #20]
    280c:	281b0000 	ldmdacs	fp, {}	; <UNPREDICTABLE>
    2810:	01000001 	tsteq	r0, r1
    2814:	011d1b55 	tsteq	sp, r5, asr fp
    2818:	54010000 	strpl	r0, [r1], #-0
    281c:	0091641d 	addseq	r6, r1, sp, lsl r4
    2820:	00000400 	andeq	r0, r0, r0, lsl #8
    2824:	01321e00 	teqeq	r2, r0, lsl #28
    2828:	1c3b0000 	ldcne	0, cr0, [fp], #-0
    282c:	00000000 	andeq	r0, r0, r0
    2830:	0091641f 	addseq	r6, r1, pc, lsl r4
    2834:	00115900 	andseq	r5, r1, r0, lsl #18
    2838:	51012000 	mrspl	r2, (UNDEF: 1)
    283c:	01203101 	teqeq	r0, r1, lsl #2
    2840:	00760250 	rsbseq	r0, r6, r0, asr r2
    2844:	06000000 	streq	r0, [r0], -r0
    2848:	0000d904 	andeq	sp, r0, r4, lsl #18
    284c:	09072200 	stmdbeq	r7, {r9, sp}
    2850:	27010000 	strcs	r0, [r1, -r0]
    2854:	00000025 	andeq	r0, r0, r5, lsr #32
    2858:	00076203 	andeq	r6, r7, r3, lsl #4
    285c:	78720f00 	ldmdavc	r2!, {r8, r9, sl, fp}^
    2860:	25270100 	strcs	r0, [r7, #-256]!	; 0x100
    2864:	0f000000 	svceq	0x00000000
    2868:	27010076 	smlsdxcs	r1, r6, r0, r0
    286c:	00000025 	andeq	r0, r0, r5, lsr #32
    2870:	0008940e 	andeq	r9, r8, lr, lsl #8
    2874:	2c270100 	stfcss	f0, [r7], #-0
    2878:	11000000 	mrsne	r0, (UNDEF: 0)
    287c:	000004e1 	andeq	r0, r0, r1, ror #9
    2880:	002c2801 	eoreq	r2, ip, r1, lsl #16
    2884:	23000000 	movwcs	r0, #0
    2888:	00000835 	andeq	r0, r0, r5, lsr r8
    288c:	00253401 	eoreq	r3, r5, r1, lsl #8
    2890:	91780000 	cmnls	r8, r0
    2894:	01c80000 	biceq	r0, r8, r0
    2898:	9c010000 	stcls	0, cr0, [r1], {-0}
    289c:	00000b1e 	andeq	r0, r0, lr, lsl fp
    28a0:	00049413 	andeq	r9, r4, r3, lsl r4
    28a4:	22340100 	eorscs	r0, r4, #0, 2
    28a8:	4e000007 	cdpmi	0, 0, cr0, cr0, cr7, {0}
    28ac:	1300001c 	movwne	r0, #28
    28b0:	00000894 	muleq	r0, r4, r8
    28b4:	00253401 	eoreq	r3, r5, r1, lsl #8
    28b8:	1c930000 	ldcne	0, cr0, [r3], {0}
    28bc:	72150000 	andsvc	r0, r5, #0
    28c0:	35010078 	strcc	r0, [r1, #-120]	; 0x78
    28c4:	00000025 	andeq	r0, r0, r5, lsr #32
    28c8:	73165501 	tstvc	r6, #4194304	; 0x400000
    28cc:	2c3c0100 	ldfcss	f0, [ip], #-0
    28d0:	b1000000 	mrslt	r0, (UNDEF: 0)
    28d4:	1600001c 			; <UNDEFINED> instruction: 0x1600001c
    28d8:	3f010075 	svccc	0x00010075
    28dc:	00000068 	andeq	r0, r0, r8, rrx
    28e0:	00001cc4 	andeq	r1, r0, r4, asr #25
    28e4:	01006e16 	tsteq	r0, r6, lsl lr
    28e8:	00002c40 	andeq	r2, r0, r0, asr #24
    28ec:	001cd700 	andseq	sp, ip, r0, lsl #14
    28f0:	00631600 	rsbeq	r1, r3, r0, lsl #12
    28f4:	002c4101 	eoreq	r4, ip, r1, lsl #2
    28f8:	1cee0000 	stclne	0, cr0, [lr]
    28fc:	28190000 	ldmdacs	r9, {}	; <UNPREDICTABLE>
    2900:	8c000007 	stchi	0, cr0, [r0], {7}
    2904:	34000091 	strcc	r0, [r0], #-145	; 0x91
    2908:	01000000 	mrseq	r0, (UNDEF: 0)
    290c:	00083c38 	andeq	r3, r8, r8, lsr ip
    2910:	074b1a00 	strbeq	r1, [fp, -r0, lsl #20]
    2914:	1d180000 	ldcne	0, cr0, [r8, #-0]
    2918:	421c0000 	andsmi	r0, ip, #0
    291c:	00000007 	andeq	r0, r0, r7
    2920:	0007381b 	andeq	r3, r7, fp, lsl r8
    2924:	1d550100 	ldfnee	f0, [r5, #-0]
    2928:	0000918c 	andeq	r9, r0, ip, lsl #3
    292c:	00000034 	andeq	r0, r0, r4, lsr r0
    2930:	0007561e 	andeq	r5, r7, lr, lsl r6
    2934:	001d3600 	andseq	r3, sp, r0, lsl #12
    2938:	91902400 	orrsls	r2, r0, r0, lsl #8
    293c:	116f0000 	cmnne	pc, r0
    2940:	9c250000 	stcls	0, cr0, [r5], #-0
    2944:	7a000091 	bvc	2b90 <_start-0x5470>
    2948:	31000011 	tstcc	r0, r1, lsl r0
    294c:	20000008 	andcs	r0, r0, r8
    2950:	75025001 	strvc	r5, [r2, #-1]
    2954:	a8240000 	stmdage	r4!, {}	; <UNPREDICTABLE>
    2958:	6f000091 	svcvs	0x00000091
    295c:	00000011 	andeq	r0, r0, r1, lsl r0
    2960:	91c81700 	bicls	r1, r8, r0, lsl #14
    2964:	00040000 	andeq	r0, r4, r0
    2968:	08590000 	ldmdaeq	r9, {}^	; <UNPREDICTABLE>
    296c:	6f260000 	svcvs	0x00260000
    2970:	01000001 	tsteq	r0, r1
    2974:	00002c3c 	andeq	r2, r0, ip, lsr ip
    2978:	001d5400 	andseq	r5, sp, r0, lsl #8
    297c:	11190000 	tstne	r9, r0
    2980:	d4000001 	strle	r0, [r0], #-1
    2984:	10000091 	mulne	r0, r1, r0
    2988:	01000000 	mrseq	r0, (UNDEF: 0)
    298c:	00089244 	andeq	r9, r8, r4, asr #4
    2990:	01281a00 	teqeq	r8, r0, lsl #20
    2994:	1d670000 	stclne	0, cr0, [r7, #-0]
    2998:	1d1a0000 	ldcne	0, cr0, [sl, #-0]
    299c:	8c000001 	stchi	0, cr0, [r0], {1}
    29a0:	1d00001d 	stcne	0, cr0, [r0, #-116]	; 0xffffff8c
    29a4:	000091d4 	ldrdeq	r9, [r0], -r4
    29a8:	00000004 	andeq	r0, r0, r4
    29ac:	0001321e 	andeq	r3, r1, lr, lsl r2
    29b0:	001d9f00 	andseq	r9, sp, r0, lsl #30
    29b4:	19000000 	stmdbne	r0, {}	; <UNPREDICTABLE>
    29b8:	00000111 	andeq	r0, r0, r1, lsl r1
    29bc:	000091f4 	strdeq	r9, [r0], -r4
    29c0:	00000010 	andeq	r0, r0, r0, lsl r0
    29c4:	08cb4801 	stmiaeq	fp, {r0, fp, lr}^
    29c8:	281a0000 	ldmdacs	sl, {}	; <UNPREDICTABLE>
    29cc:	b2000001 	andlt	r0, r0, #1
    29d0:	1a00001d 	bne	2a4c <_start-0x55b4>
    29d4:	0000011d 	andeq	r0, r0, sp, lsl r1
    29d8:	00001dc5 	andeq	r1, r0, r5, asr #27
    29dc:	0091f41d 	addseq	pc, r1, sp, lsl r4	; <UNPREDICTABLE>
    29e0:	00000400 	andeq	r0, r0, r0, lsl #8
    29e4:	01321e00 	teqeq	r2, r0, lsl #28
    29e8:	1dd80000 	ldclne	0, cr0, [r8]
    29ec:	00000000 	andeq	r0, r0, r0
    29f0:	00011119 	andeq	r1, r1, r9, lsl r1
    29f4:	00921800 	addseq	r1, r2, r0, lsl #16
    29f8:	00001000 	andeq	r1, r0, r0
    29fc:	044b0100 	strbeq	r0, [fp], #-256	; 0x100
    2a00:	1a000009 	bne	2a2c <_start-0x55d4>
    2a04:	00000128 	andeq	r0, r0, r8, lsr #2
    2a08:	00001deb 	andeq	r1, r0, fp, ror #27
    2a0c:	00011d1a 	andeq	r1, r1, sl, lsl sp
    2a10:	001dfe00 	andseq	pc, sp, r0, lsl #28
    2a14:	92181d00 	andsls	r1, r8, #0, 26
    2a18:	00040000 	andeq	r0, r4, r0
    2a1c:	321e0000 	andscc	r0, lr, #0
    2a20:	11000001 	tstne	r0, r1
    2a24:	0000001e 	andeq	r0, r0, lr, lsl r0
    2a28:	01111900 	tsteq	r1, r0, lsl #18
    2a2c:	923c0000 	eorsls	r0, ip, #0
    2a30:	00100000 	andseq	r0, r0, r0
    2a34:	4e010000 	cdpmi	0, 0, cr0, cr1, cr0, {0}
    2a38:	0000093d 	andeq	r0, r0, sp, lsr r9
    2a3c:	0001281a 	andeq	r2, r1, sl, lsl r8
    2a40:	001e2400 	andseq	r2, lr, r0, lsl #8
    2a44:	011d1a00 	tsteq	sp, r0, lsl #20
    2a48:	1e370000 	cdpne	0, 3, cr0, cr7, cr0, {0}
    2a4c:	3c1d0000 	ldccc	0, cr0, [sp], {-0}
    2a50:	04000092 	streq	r0, [r0], #-146	; 0x92
    2a54:	1e000000 	cdpne	0, 0, cr0, cr0, cr0, {0}
    2a58:	00000132 	andeq	r0, r0, r2, lsr r1
    2a5c:	00001e4a 	andeq	r1, r0, sl, asr #28
    2a60:	11190000 	tstne	r9, r0
    2a64:	60000001 	andvs	r0, r0, r1
    2a68:	10000092 	mulne	r0, r2, r0
    2a6c:	01000000 	mrseq	r0, (UNDEF: 0)
    2a70:	00097651 	andeq	r7, r9, r1, asr r6
    2a74:	01281a00 	teqeq	r8, r0, lsl #20
    2a78:	1e5d0000 	cdpne	0, 5, cr0, cr13, cr0, {0}
    2a7c:	1d1a0000 	ldcne	0, cr0, [sl, #-0]
    2a80:	70000001 	andvc	r0, r0, r1
    2a84:	1d00001e 	stcne	0, cr0, [r0, #-120]	; 0xffffff88
    2a88:	00009260 	andeq	r9, r0, r0, ror #4
    2a8c:	00000004 	andeq	r0, r0, r4
    2a90:	0001321e 	andeq	r3, r1, lr, lsl r2
    2a94:	001e8300 	andseq	r8, lr, r0, lsl #6
    2a98:	19000000 	stmdbne	r0, {}	; <UNPREDICTABLE>
    2a9c:	00000111 	andeq	r0, r0, r1, lsl r1
    2aa0:	00009284 	andeq	r9, r0, r4, lsl #5
    2aa4:	00000010 	andeq	r0, r0, r0, lsl r0
    2aa8:	09af5401 	stmibeq	pc!, {r0, sl, ip, lr}	; <UNPREDICTABLE>
    2aac:	281a0000 	ldmdacs	sl, {}	; <UNPREDICTABLE>
    2ab0:	96000001 	strls	r0, [r0], -r1
    2ab4:	1a00001e 	bne	2b34 <_start-0x54cc>
    2ab8:	0000011d 	andeq	r0, r0, sp, lsl r1
    2abc:	00001ea9 	andeq	r1, r0, r9, lsr #29
    2ac0:	0092841d 	addseq	r8, r2, sp, lsl r4
    2ac4:	00000400 	andeq	r0, r0, r0, lsl #8
    2ac8:	01321e00 	teqeq	r2, r0, lsl #28
    2acc:	1ebc0000 	cdpne	0, 11, cr0, cr12, cr0, {0}
    2ad0:	00000000 	andeq	r0, r0, r0
    2ad4:	00011119 	andeq	r1, r1, r9, lsl r1
    2ad8:	0092a800 	addseq	sl, r2, r0, lsl #16
    2adc:	00001000 	andeq	r1, r0, r0
    2ae0:	e8570100 	ldmda	r7, {r8}^
    2ae4:	1a000009 	bne	2b10 <_start-0x54f0>
    2ae8:	00000128 	andeq	r0, r0, r8, lsr #2
    2aec:	00001ecf 	andeq	r1, r0, pc, asr #29
    2af0:	00011d1a 	andeq	r1, r1, sl, lsl sp
    2af4:	001ee200 	andseq	lr, lr, r0, lsl #4
    2af8:	92a81d00 	adcls	r1, r8, #0, 26
    2afc:	00040000 	andeq	r0, r4, r0
    2b00:	321e0000 	andscc	r0, lr, #0
    2b04:	f5000001 			; <UNDEFINED> instruction: 0xf5000001
    2b08:	0000001e 	andeq	r0, r0, lr, lsl r0
    2b0c:	01111900 	tsteq	r1, r0, lsl #18
    2b10:	92cc0000 	sbcls	r0, ip, #0
    2b14:	00100000 	andseq	r0, r0, r0
    2b18:	5a010000 	bpl	42b20 <__bss_end__+0x38b00>
    2b1c:	00000a1d 	andeq	r0, r0, sp, lsl sl
    2b20:	0001281a 	andeq	r2, r1, sl, lsl r8
    2b24:	001f0800 	andseq	r0, pc, r0, lsl #16
    2b28:	011d2700 	tsteq	sp, r0, lsl #14
    2b2c:	cc1d0000 	ldcgt	0, cr0, [sp], {-0}
    2b30:	04000092 	streq	r0, [r0], #-146	; 0x92
    2b34:	1e000000 	cdpne	0, 0, cr0, cr0, cr0, {0}
    2b38:	00000132 	andeq	r0, r0, r2, lsr r1
    2b3c:	00001f1b 	andeq	r1, r0, fp, lsl pc
    2b40:	28190000 	ldmdacs	r9, {}	; <UNPREDICTABLE>
    2b44:	ec000007 	stc	0, cr0, [r0], {7}
    2b48:	34000092 	strcc	r0, [r0], #-146	; 0x92
    2b4c:	01000000 	mrseq	r0, (UNDEF: 0)
    2b50:	000a8161 	andeq	r8, sl, r1, ror #2
    2b54:	074b2700 	strbeq	r2, [fp, -r0, lsl #14]
    2b58:	421a0000 	andsmi	r0, sl, #0
    2b5c:	2e000007 	cdpcs	0, 0, cr0, cr0, cr7, {0}
    2b60:	1a00001f 	bne	2be4 <_start-0x541c>
    2b64:	00000738 	andeq	r0, r0, r8, lsr r7
    2b68:	00001f4e 	andeq	r1, r0, lr, asr #30
    2b6c:	0092ec1d 	addseq	lr, r2, sp, lsl ip
    2b70:	00003400 	andeq	r3, r0, r0, lsl #8
    2b74:	07561e00 	ldrbeq	r1, [r6, -r0, lsl #28]
    2b78:	1f6c0000 	svcne	0x006c0000
    2b7c:	f0240000 			; <UNDEFINED> instruction: 0xf0240000
    2b80:	6f000092 	svcvs	0x00000092
    2b84:	25000011 	strcs	r0, [r0, #-17]
    2b88:	000092fc 	strdeq	r9, [r0], -ip
    2b8c:	0000117a 	andeq	r1, r0, sl, ror r1
    2b90:	00000a76 	andeq	r0, r0, r6, ror sl
    2b94:	02500120 	subseq	r0, r0, #32, 2
    2b98:	24000075 	strcs	r0, [r0], #-117	; 0x75
    2b9c:	00009308 	andeq	r9, r0, r8, lsl #6
    2ba0:	0000116f 	andeq	r1, r0, pc, ror #2
    2ba4:	f0250000 			; <UNDEFINED> instruction: 0xf0250000
    2ba8:	7a000091 	bvc	2df4 <_start-0x520c>
    2bac:	95000011 	strls	r0, [r0, #-17]
    2bb0:	2000000a 	andcs	r0, r0, sl
    2bb4:	75025001 	strvc	r5, [r2, #-1]
    2bb8:	10250000 	eorne	r0, r5, r0
    2bbc:	7a000092 	bvc	2e0c <_start-0x51f4>
    2bc0:	a9000011 	stmdbge	r0, {r0, r4}
    2bc4:	2000000a 	andcs	r0, r0, sl
    2bc8:	75025001 	strvc	r5, [r2, #-1]
    2bcc:	34250000 	strtcc	r0, [r5], #-0
    2bd0:	7a000092 	bvc	2e20 <_start-0x51e0>
    2bd4:	bd000011 	stclt	0, cr0, [r0, #-68]	; 0xffffffbc
    2bd8:	2000000a 	andcs	r0, r0, sl
    2bdc:	75025001 	strvc	r5, [r2, #-1]
    2be0:	58250000 	stmdapl	r5!, {}	; <UNPREDICTABLE>
    2be4:	7a000092 	bvc	2e34 <_start-0x51cc>
    2be8:	d1000011 	tstle	r0, r1, lsl r0
    2bec:	2000000a 	andcs	r0, r0, sl
    2bf0:	75025001 	strvc	r5, [r2, #-1]
    2bf4:	7c250000 	stcvc	0, cr0, [r5], #-0
    2bf8:	7a000092 	bvc	2e48 <_start-0x51b8>
    2bfc:	e5000011 	str	r0, [r0, #-17]
    2c00:	2000000a 	andcs	r0, r0, sl
    2c04:	75025001 	strvc	r5, [r2, #-1]
    2c08:	a0250000 	eorge	r0, r5, r0
    2c0c:	7a000092 	bvc	2e5c <_start-0x51a4>
    2c10:	f9000011 			; <UNDEFINED> instruction: 0xf9000011
    2c14:	2000000a 	andcs	r0, r0, sl
    2c18:	75025001 	strvc	r5, [r2, #-1]
    2c1c:	c4250000 	strtgt	r0, [r5], #-0
    2c20:	7a000092 	bvc	2e70 <_start-0x5190>
    2c24:	0d000011 	stceq	0, cr0, [r0, #-68]	; 0xffffffbc
    2c28:	2000000b 	andcs	r0, r0, fp
    2c2c:	75025001 	strvc	r5, [r2, #-1]
    2c30:	e41f0000 	ldr	r0, [pc], #-0	; 2c38 <_start-0x53c8>
    2c34:	7a000092 	bvc	2e84 <_start-0x517c>
    2c38:	20000011 	andcs	r0, r0, r1, lsl r0
    2c3c:	75025001 	strvc	r5, [r2, #-1]
    2c40:	23000000 	movwcs	r0, #0
    2c44:	0000084a 	andeq	r0, r0, sl, asr #16
    2c48:	00256c01 	eoreq	r6, r5, r1, lsl #24
    2c4c:	93400000 	movtls	r0, #0
    2c50:	00a40000 	adceq	r0, r4, r0
    2c54:	9c010000 	stcls	0, cr0, [r1], {-0}
    2c58:	00000c0c 	andeq	r0, r0, ip, lsl #24
    2c5c:	01007514 	tsteq	r0, r4, lsl r5
    2c60:	0007226c 	andeq	r2, r7, ip, ror #4
    2c64:	001f8a00 	andseq	r8, pc, r0, lsl #20
    2c68:	75621400 	strbvc	r1, [r2, #-1024]!	; 0x400
    2c6c:	6c010066 	stcvs	0, cr0, [r1], {102}	; 0x66
    2c70:	00000c0c 	andeq	r0, r0, ip, lsl #24
    2c74:	00001fcc 	andeq	r1, r0, ip, asr #31
    2c78:	0008dc13 	andeq	sp, r8, r3, lsl ip
    2c7c:	686c0100 	stmdavs	ip!, {r8}^
    2c80:	0e000000 	cdpeq	0, 0, cr0, cr0, cr0, {0}
    2c84:	14000020 	strne	r0, [r0], #-32
    2c88:	00646e65 	rsbeq	r6, r4, r5, ror #28
    2c8c:	004f6c01 	subeq	r6, pc, r1, lsl #24
    2c90:	20550000 	subscs	r0, r5, r0
    2c94:	e3280000 	teq	r8, #0
    2c98:	01000008 	tsteq	r0, r8
    2c9c:	0000686c 	andeq	r6, r0, ip, ror #16
    2ca0:	00910200 	addseq	r0, r1, r0, lsl #4
    2ca4:	00010f29 	andeq	r0, r1, r9, lsr #30
    2ca8:	000c2200 	andeq	r2, ip, r0, lsl #4
    2cac:	f8030500 			; <UNDEFINED> instruction: 0xf8030500
    2cb0:	1600009a 			; <UNDEFINED> instruction: 0x1600009a
    2cb4:	70010069 	andvc	r0, r1, r9, rrx
    2cb8:	00000025 	andeq	r0, r0, r5, lsr #32
    2cbc:	0000208f 	andeq	r2, r0, pc, lsl #1
    2cc0:	0008bf26 	andeq	fp, r8, r6, lsr #30
    2cc4:	4f710100 	svcmi	0x00710100
    2cc8:	b9000000 	stmdblt	r0, {}	; <UNPREDICTABLE>
    2ccc:	24000020 	strcs	r0, [r0], #-32
    2cd0:	00009364 	andeq	r9, r0, r4, ror #6
    2cd4:	0000118f 	andeq	r1, r0, pc, lsl #3
    2cd8:	00938025 	addseq	r8, r3, r5, lsr #32
    2cdc:	00119600 	andseq	r9, r1, r0, lsl #12
    2ce0:	000bec00 	andeq	lr, fp, r0, lsl #24
    2ce4:	53012000 	movwpl	r2, #4096	; 0x1000
    2ce8:	206d0802 	rsbcs	r0, sp, r2, lsl #16
    2cec:	03055201 	movweq	r5, #20993	; 0x5201
    2cf0:	00009af8 	strdeq	r9, [r0], -r8
    2cf4:	05510120 	ldrbeq	r0, [r1, #-288]	; 0x120
    2cf8:	009b7003 	addseq	r7, fp, r3
    2cfc:	50012000 	andpl	r2, r1, r0
    2d00:	99f80305 	ldmibls	r8!, {r0, r2, r8, r9}^
    2d04:	02200000 	eoreq	r0, r0, #0
    2d08:	0305007d 	movweq	r0, #20605	; 0x507d
    2d0c:	00009b84 	andeq	r9, r0, r4, lsl #23
    2d10:	93842400 	orrls	r2, r4, #0, 8
    2d14:	11ac0000 			; <UNDEFINED> instruction: 0x11ac0000
    2d18:	a01f0000 	andsge	r0, pc, r0
    2d1c:	62000093 	andvs	r0, r0, #147	; 0x93
    2d20:	20000007 	andcs	r0, r0, r7
    2d24:	7a025101 	bvc	97130 <__bss_end__+0x8d110>
    2d28:	50012000 	andpl	r2, r1, r0
    2d2c:	00007802 	andeq	r7, r0, r2, lsl #16
    2d30:	4f040600 	svcmi	0x00040600
    2d34:	2a000000 	bcs	2d3c <_start-0x52c4>
    2d38:	00000090 	muleq	r0, r0, r0
    2d3c:	00000c22 	andeq	r0, r0, r2, lsr #24
    2d40:	0000812b 	andeq	r8, r0, fp, lsr #2
    2d44:	07001200 	streq	r1, [r0, -r0, lsl #4]
    2d48:	00000c12 	andeq	r0, r0, r2, lsl ip
    2d4c:	0008c723 	andeq	ip, r8, r3, lsr #14
    2d50:	25800100 	strcs	r0, [r0, #256]	; 0x100
    2d54:	e4000000 	str	r0, [r0], #-0
    2d58:	90000093 	mulls	r0, r3, r0
    2d5c:	01000000 	mrseq	r0, (UNDEF: 0)
    2d60:	000cf89c 	muleq	ip, ip, r8
    2d64:	00751400 	rsbseq	r1, r5, r0, lsl #8
    2d68:	07228001 	streq	r8, [r2, -r1]!
    2d6c:	20cc0000 	sbccs	r0, ip, r0
    2d70:	62140000 	andsvs	r0, r4, #0
    2d74:	01006675 	tsteq	r0, r5, ror r6
    2d78:	000c0c80 	andeq	r0, ip, r0, lsl #25
    2d7c:	00210e00 	eoreq	r0, r1, r0, lsl #28
    2d80:	08dc1300 	ldmeq	ip, {r8, r9, ip}^
    2d84:	81010000 	mrshi	r0, (UNDEF: 1)
    2d88:	00000068 	andeq	r0, r0, r8, rrx
    2d8c:	00002150 	andeq	r2, r0, r0, asr r1
    2d90:	0008e313 	andeq	lr, r8, r3, lsl r3
    2d94:	68810100 	stmvs	r1, {r8}
    2d98:	97000000 	strls	r0, [r0, -r0]
    2d9c:	29000021 	stmdbcs	r0, {r0, r5}
    2da0:	0000010f 	andeq	r0, r0, pc, lsl #2
    2da4:	00000d08 	andeq	r0, r0, r8, lsl #26
    2da8:	9b0c0305 	blls	3039c4 <__bss_end__+0x2f99a4>
    2dac:	69160000 	ldmdbvs	r6, {}	; <UNPREDICTABLE>
    2db0:	25860100 	strcs	r0, [r6, #256]	; 0x100
    2db4:	d9000000 	stmdble	r0, {}	; <UNPREDICTABLE>
    2db8:	24000021 	strcs	r0, [r0], #-33	; 0x21
    2dbc:	00009404 	andeq	r9, r0, r4, lsl #8
    2dc0:	0000118f 	andeq	r1, r0, pc, lsl #3
    2dc4:	00942025 	addseq	r2, r4, r5, lsr #32
    2dc8:	00119600 	andseq	r9, r1, r0, lsl #12
    2dcc:	000cd800 	andeq	sp, ip, r0, lsl #16
    2dd0:	53012000 	movwpl	r2, #4096	; 0x1000
    2dd4:	20830802 	addcs	r0, r3, r2, lsl #16
    2dd8:	03055201 	movweq	r5, #20993	; 0x5201
    2ddc:	00009b0c 	andeq	r9, r0, ip, lsl #22
    2de0:	05510120 	ldrbeq	r0, [r1, #-288]	; 0x120
    2de4:	009b7003 	addseq	r7, fp, r3
    2de8:	50012000 	andpl	r2, r1, r0
    2dec:	99f80305 	ldmibls	r8!, {r0, r2, r8, r9}^
    2df0:	02200000 	eoreq	r0, r0, #0
    2df4:	0305007d 	movweq	r0, #20605	; 0x507d
    2df8:	00009b84 	andeq	r9, r0, r4, lsl #23
    2dfc:	94242400 	strtls	r2, [r4], #-1024	; 0x400
    2e00:	11ac0000 			; <UNDEFINED> instruction: 0x11ac0000
    2e04:	401f0000 	andsmi	r0, pc, r0
    2e08:	62000094 	andvs	r0, r0, #148	; 0x94
    2e0c:	20000007 	andcs	r0, r0, r7
    2e10:	78025101 	stmdavc	r2, {r0, r8, ip, lr}
    2e14:	50012000 	andpl	r2, r1, r0
    2e18:	00007702 	andeq	r7, r0, r2, lsl #14
    2e1c:	00902a00 	addseq	r2, r0, r0, lsl #20
    2e20:	0d080000 	stceq	0, cr0, [r8, #-0]
    2e24:	812b0000 	teqhi	fp, r0
    2e28:	14000000 	strne	r0, [r0], #-0
    2e2c:	0cf80700 	ldcleq	7, cr0, [r8]
    2e30:	80230000 	eorhi	r0, r3, r0
    2e34:	01000008 	tsteq	r0, r8
    2e38:	0000d993 	muleq	r0, r3, r9
    2e3c:	00947400 	addseq	r7, r4, r0, lsl #8
    2e40:	0000d400 	andeq	sp, r0, r0, lsl #8
    2e44:	329c0100 	addscc	r0, ip, #0, 2
    2e48:	1400000e 	strne	r0, [r0], #-14
    2e4c:	01007874 	tsteq	r0, r4, ror r8
    2e50:	00004f93 	muleq	r0, r3, pc	; <UNPREDICTABLE>
    2e54:	00220300 	eoreq	r0, r2, r0, lsl #6
    2e58:	78721400 	ldmdavc	r2!, {sl, ip}^
    2e5c:	4f930100 	svcmi	0x00930100
    2e60:	24000000 	strcs	r0, [r0], #-0
    2e64:	13000022 	movwne	r0, #34	; 0x22
    2e68:	000004cd 	andeq	r0, r0, sp, asr #9
    2e6c:	00689301 	rsbeq	r9, r8, r1, lsl #6
    2e70:	22450000 	subcs	r0, r5, #0
    2e74:	19280000 	stmdbne	r8!, {}	; <UNPREDICTABLE>
    2e78:	01000008 	tsteq	r0, r8
    2e7c:	00006893 	muleq	r0, r3, r8
    2e80:	00910200 	addseq	r0, r1, r0, lsl #4
    2e84:	7a686d2c 	bvc	1a1e33c <__bss_end__+0x1a1431c>
    2e88:	2c9b0100 	ldfcss	f0, [fp], {0}
    2e8c:	00000000 	andeq	r0, r0, r0
    2e90:	2629b927 	strtcs	fp, [r9], -r7, lsr #18
    2e94:	0000086a 	andeq	r0, r0, sl, ror #16
    2e98:	002c9c01 	eoreq	r9, ip, r1, lsl #24
    2e9c:	226f0000 	rsbcs	r0, pc, #0
    2ea0:	0f290000 	svceq	0x00290000
    2ea4:	42000001 	andmi	r0, r0, #1
    2ea8:	0500000e 	streq	r0, [r0, #-14]
    2eac:	009b2403 	addseq	r2, fp, r3, lsl #8
    2eb0:	94a01700 	strtls	r1, [r0], #1792	; 0x700
    2eb4:	00080000 	andeq	r0, r8, r0
    2eb8:	0da50000 	stceq	0, cr0, [r5]
    2ebc:	692d0000 	pushvs	{}	; <UNPREDICTABLE>
    2ec0:	9701006e 	strls	r0, [r1, -lr, rrx]
    2ec4:	0000002c 	andeq	r0, r0, ip, lsr #32
    2ec8:	98250001 	stmdals	r5!, {r0}
    2ecc:	b3000094 	movwlt	r0, #148	; 0x94
    2ed0:	b9000011 	stmdblt	r0, {r0, r4}
    2ed4:	2000000d 	andcs	r0, r0, sp
    2ed8:	76025001 	strvc	r5, [r2], -r1
    2edc:	a0250000 	eorge	r0, r5, r0
    2ee0:	c4000094 	strgt	r0, [r0], #-148	; 0x94
    2ee4:	cd000011 	stcgt	0, cr0, [r0, #-68]	; 0xffffffbc
    2ee8:	2000000d 	andcs	r0, r0, sp
    2eec:	78025001 	stmdavc	r2, {r0, ip, lr}
    2ef0:	b4250000 	strtlt	r0, [r5], #-0
    2ef4:	59000094 	stmdbpl	r0, {r2, r4, r7}
    2ef8:	e6000011 			; <UNDEFINED> instruction: 0xe6000011
    2efc:	2000000d 	andcs	r0, r0, sp
    2f00:	31015101 	tstcc	r1, r1, lsl #2
    2f04:	02500120 	subseq	r0, r0, #32, 2
    2f08:	24000076 	strcs	r0, [r0], #-118	; 0x76
    2f0c:	000094f8 	strdeq	r9, [r0], -r8
    2f10:	0000118f 	andeq	r1, r0, pc, lsl #3
    2f14:	00951425 	addseq	r1, r5, r5, lsr #8
    2f18:	00119600 	andseq	r9, r1, r0, lsl #12
    2f1c:	000e2800 	andeq	r2, lr, r0, lsl #16
    2f20:	53012000 	movwpl	r2, #4096	; 0x1000
    2f24:	209d0802 	addscs	r0, sp, r2, lsl #16
    2f28:	03055201 	movweq	r5, #20993	; 0x5201
    2f2c:	00009b24 	andeq	r9, r0, r4, lsr #22
    2f30:	05510120 	ldrbeq	r0, [r1, #-288]	; 0x120
    2f34:	009b7003 	addseq	r7, fp, r3
    2f38:	50012000 	andpl	r2, r1, r0
    2f3c:	99f80305 	ldmibls	r8!, {r0, r2, r8, r9}^
    2f40:	02200000 	eoreq	r0, r0, #0
    2f44:	0305007d 	movweq	r0, #20605	; 0x507d
    2f48:	00009b90 	muleq	r0, r0, fp
    2f4c:	95182400 	ldrls	r2, [r8, #-1024]	; 0x400
    2f50:	11ac0000 			; <UNDEFINED> instruction: 0x11ac0000
    2f54:	2a000000 	bcs	2f5c <_start-0x50a4>
    2f58:	00000090 	muleq	r0, r0, r0
    2f5c:	00000e42 	andeq	r0, r0, r2, asr #28
    2f60:	0000812b 	andeq	r8, r0, fp, lsr #2
    2f64:	07001300 	streq	r1, [r0, -r0, lsl #6]
    2f68:	00000e32 	andeq	r0, r0, r2, lsr lr
    2f6c:	00085d23 	andeq	r5, r8, r3, lsr #26
    2f70:	25a90100 	strcs	r0, [r9, #256]!	; 0x100
    2f74:	48000000 	stmdami	r0, {}	; <UNPREDICTABLE>
    2f78:	3c000095 	stccc	0, cr0, [r0], {149}	; 0x95
    2f7c:	01000000 	mrseq	r0, (UNDEF: 0)
    2f80:	000eea9c 	muleq	lr, ip, sl
    2f84:	04941300 	ldreq	r1, [r4], #768	; 0x300
    2f88:	a9010000 	stmdbge	r1, {}	; <UNPREDICTABLE>
    2f8c:	00000722 	andeq	r0, r0, r2, lsr #14
    2f90:	0000229d 	muleq	r0, sp, r2
    2f94:	73657216 	cmnvc	r5, #1610612737	; 0x60000001
    2f98:	25aa0100 	strcs	r0, [sl, #256]!	; 0x100
    2f9c:	be000000 	cdplt	0, 0, cr0, cr0, cr0, {0}
    2fa0:	29000022 	stmdbcs	r0, {r1, r5}
    2fa4:	0000010f 	andeq	r0, r0, pc, lsl #2
    2fa8:	00000efa 	strdeq	r0, [r0], -sl
    2fac:	9b380305 	blls	e03bc8 <__bss_end__+0xdf9ba8>
    2fb0:	54250000 	strtpl	r0, [r5], #-0
    2fb4:	62000095 	andvs	r0, r0, #149	; 0x95
    2fb8:	a8000007 	stmdage	r0, {r0, r1, r2}
    2fbc:	2000000e 	andcs	r0, r0, lr
    2fc0:	09025101 	stmdbeq	r2, {r0, r8, ip, lr}
    2fc4:	500120ff 	strdpl	r2, [r1], -pc	; <UNPREDICTABLE>
    2fc8:	5001f303 	andpl	pc, r1, r3, lsl #6
    2fcc:	95602400 	strbls	r2, [r0, #-1024]!	; 0x400
    2fd0:	118f0000 	orrne	r0, pc, r0
    2fd4:	74250000 	strtvc	r0, [r5], #-0
    2fd8:	96000095 			; <UNDEFINED> instruction: 0x96000095
    2fdc:	e0000011 	and	r0, r0, r1, lsl r0
    2fe0:	2000000e 	andcs	r0, r0, lr
    2fe4:	08025301 	stmdaeq	r2, {r0, r8, r9, ip, lr}
    2fe8:	520120ac 	andpl	r2, r1, #172	; 0xac
    2fec:	9b380305 	blls	e03c08 <__bss_end__+0xdf9be8>
    2ff0:	01200000 	teqeq	r0, r0
    2ff4:	70030551 	andvc	r0, r3, r1, asr r5
    2ff8:	2000009b 	mulcs	r0, fp, r0
    2ffc:	03055001 	movweq	r5, #20481	; 0x5001
    3000:	00009bc4 	andeq	r9, r0, r4, asr #23
    3004:	95782400 	ldrbls	r2, [r8, #-1024]!	; 0x400
    3008:	11ac0000 			; <UNDEFINED> instruction: 0x11ac0000
    300c:	2a000000 	bcs	3014 <_start-0x4fec>
    3010:	00000090 	muleq	r0, r0, r0
    3014:	00000efa 	strdeq	r0, [r0], -sl
    3018:	0000812b 	andeq	r8, r0, fp, lsr #2
    301c:	07000c00 	streq	r0, [r0, -r0, lsl #24]
    3020:	00000eea 	andeq	r0, r0, sl, ror #29
    3024:	0008a112 	andeq	sl, r8, r2, lsl r1
    3028:	84b00100 	ldrthi	r0, [r0], #256	; 0x100
    302c:	2c000095 	stccs	0, cr0, [r0], {149}	; 0x95
    3030:	01000000 	mrseq	r0, (UNDEF: 0)
    3034:	000f439c 	muleq	pc, ip, r3	; <UNPREDICTABLE>
    3038:	04941300 	ldreq	r1, [r4], #768	; 0x300
    303c:	b0010000 	andlt	r0, r1, r0
    3040:	00000722 	andeq	r0, r0, r2, lsr #14
    3044:	000022d1 	ldrdeq	r2, [r0], -r1
    3048:	67736d14 			; <UNDEFINED> instruction: 0x67736d14
    304c:	97b00100 	ldrls	r0, [r0, r0, lsl #2]!
    3050:	ef000000 	svc	0x00000000
    3054:	1f000022 	svcne	0x00000022
    3058:	0000959c 	muleq	r0, ip, r5
    305c:	00000176 	andeq	r0, r0, r6, ror r1
    3060:	02500120 	subseq	r0, r0, #32, 2
    3064:	00000075 	andeq	r0, r0, r5, ror r0
    3068:	00049923 	andeq	r9, r4, r3, lsr #18
    306c:	25b90100 	ldrcs	r0, [r9, #256]!	; 0x100
    3070:	b0000000 	andlt	r0, r0, r0
    3074:	90000095 	mulls	r0, r5, r0
    3078:	01000000 	mrseq	r0, (UNDEF: 0)
    307c:	0010419c 	mulseq	r0, ip, r1
    3080:	04941300 	ldreq	r1, [r4], #768	; 0x300
    3084:	b9010000 	stmdblt	r1, {}	; <UNPREDICTABLE>
    3088:	00000722 	andeq	r0, r0, r2, lsr #14
    308c:	0000230d 	andeq	r2, r0, sp, lsl #6
    3090:	746d662e 	strbtvc	r6, [sp], #-1582	; 0x62e
    3094:	97b90100 	ldrls	r0, [r9, r0, lsl #2]!
    3098:	02000000 	andeq	r0, r0, #0
    309c:	152f7491 	strne	r7, [pc, #-1169]!	; 2c13 <_start-0x53ed>
    30a0:	00667562 	rsbeq	r7, r6, r2, ror #10
    30a4:	1041ba01 	subne	fp, r1, r1, lsl #20
    30a8:	91030000 	mrsls	r0, (UNDEF: 3)
    30ac:	52187c9c 	andspl	r7, r8, #156, 24	; 0x9c00
    30b0:	01000003 	tsteq	r0, r3
    30b4:	000106bc 			; <UNDEFINED> instruction: 0x000106bc
    30b8:	98910300 	ldmls	r1, {r8, r9}
    30bc:	7a73167c 	bvc	1cc8ab4 <__bss_end__+0x1cbea94>
    30c0:	25be0100 	ldrcs	r0, [lr, #256]!	; 0x100
    30c4:	39000000 	stmdbcc	r0, {}	; <UNPREDICTABLE>
    30c8:	29000023 	stmdbcs	r0, {r0, r1, r5}
    30cc:	0000010f 	andeq	r0, r0, pc, lsl #2
    30d0:	00001062 	andeq	r1, r0, r2, rrx
    30d4:	9b480305 	blls	1203cf0 <__bss_end__+0x11f9cd0>
    30d8:	d8250000 	stmdale	r5!, {}	; <UNPREDICTABLE>
    30dc:	d5000095 	strle	r0, [r0, #-149]	; 0x95
    30e0:	de000011 	mcrle	0, 0, r0, cr0, cr1, {0}
    30e4:	2000000f 	andcs	r0, r0, pc
    30e8:	91025301 	tstls	r2, r1, lsl #6
    30ec:	52012058 	andpl	r2, r1, #88	; 0x58
    30f0:	06549103 	ldrbeq	r9, [r4], -r3, lsl #2
    30f4:	03510120 	cmpeq	r1, #32, 2
    30f8:	2001cc0a 	andcs	ip, r1, sl, lsl #24
    30fc:	91035001 	tstls	r3, r1
    3100:	24007bfc 	strcs	r7, [r0], #-3068	; 0xbfc
    3104:	000095ec 	andeq	r9, r0, ip, ror #11
    3108:	0000118f 	andeq	r1, r0, pc, lsl #3
    310c:	00960825 	addseq	r0, r6, r5, lsr #16
    3110:	00119600 	andseq	r9, r1, r0, lsl #12
    3114:	00102000 	andseq	r2, r0, r0
    3118:	53012000 	movwpl	r2, #4096	; 0x1000
    311c:	20c00802 	sbccs	r0, r0, r2, lsl #16
    3120:	03055201 	movweq	r5, #20993	; 0x5201
    3124:	00009b48 	andeq	r9, r0, r8, asr #22
    3128:	05510120 	ldrbeq	r0, [r1, #-288]	; 0x120
    312c:	009b7003 	addseq	r7, fp, r3
    3130:	50012000 	andpl	r2, r1, r0
    3134:	99f80305 	ldmibls	r8!, {r0, r2, r8, r9}^
    3138:	02200000 	eoreq	r0, r0, #0
    313c:	0305007d 	movweq	r0, #20605	; 0x507d
    3140:	00009bfc 	strdeq	r9, [r0], -ip
    3144:	960c2400 	strls	r2, [ip], -r0, lsl #8
    3148:	11ac0000 			; <UNDEFINED> instruction: 0x11ac0000
    314c:	181f0000 	ldmdane	pc, {}	; <UNPREDICTABLE>
    3150:	ff000096 			; <UNDEFINED> instruction: 0xff000096
    3154:	2000000e 	andcs	r0, r0, lr
    3158:	91035101 	tstls	r3, r1, lsl #2
    315c:	01207bfc 	strdeq	r7, [r0, -ip]!
    3160:	00750250 	rsbseq	r0, r5, r0, asr r2
    3164:	902a0000 	eorls	r0, sl, r0
    3168:	52000000 	andpl	r0, r0, #0
    316c:	30000010 	andcc	r0, r0, r0, lsl r0
    3170:	00000081 	andeq	r0, r0, r1, lsl #1
    3174:	2a0001cb 	bcs	38a8 <_start-0x4758>
    3178:	00000090 	muleq	r0, r0, r0
    317c:	00001062 	andeq	r1, r0, r2, rrx
    3180:	0000812b 	andeq	r8, r0, fp, lsr #2
    3184:	07000e00 	streq	r0, [r0, -r0, lsl #28]
    3188:	00001052 	andeq	r1, r0, r2, asr r0
    318c:	0008f023 	andeq	pc, r8, r3, lsr #32
    3190:	25c50100 	strbcs	r0, [r5, #256]	; 0x100
    3194:	40000000 	andmi	r0, r0, r0
    3198:	4c000096 	stcmi	0, cr0, [r0], {150}	; 0x96
    319c:	01000000 	mrseq	r0, (UNDEF: 0)
    31a0:	0011449c 	mulseq	r1, ip, r4
    31a4:	00751400 	rsbseq	r1, r5, r0, lsl #8
    31a8:	0722c501 	streq	ip, [r2, -r1, lsl #10]!
    31ac:	23780000 	cmncs	r8, #0
    31b0:	62140000 	andsvs	r0, r4, #0
    31b4:	01006675 	tsteq	r0, r5, ror r6
    31b8:	000c0cc5 	andeq	r0, ip, r5, asr #25
    31bc:	00239900 	eoreq	r9, r3, r0, lsl #18
    31c0:	08dc1300 	ldmeq	ip, {r8, r9, ip}^
    31c4:	c5010000 	strgt	r0, [r1, #-0]
    31c8:	00000068 	andeq	r0, r0, r8, rrx
    31cc:	000023ba 			; <UNDEFINED> instruction: 0x000023ba
    31d0:	646e6514 	strbtvs	r6, [lr], #-1300	; 0x514
    31d4:	4fc50100 	svcmi	0x00c50100
    31d8:	db000000 	blle	31e0 <_start-0x4e20>
    31dc:	16000023 	strne	r0, [r0], -r3, lsr #32
    31e0:	00736572 	rsbseq	r6, r3, r2, ror r5
    31e4:	0025c601 	eoreq	ip, r5, r1, lsl #12
    31e8:	23fc0000 	mvnscs	r0, #0
    31ec:	0f290000 	svceq	0x00290000
    31f0:	54000001 	strpl	r0, [r0], #-1
    31f4:	05000011 	streq	r0, [r0, #-17]
    31f8:	009b5803 	addseq	r5, fp, r3, lsl #16
    31fc:	96542500 	ldrbls	r2, [r4], -r0, lsl #10
    3200:	0b1e0000 	bleq	783208 <__bss_end__+0x7791e8>
    3204:	11020000 	mrsne	r0, (UNDEF: 2)
    3208:	01200000 	teqeq	r0, r0
    320c:	01f30352 	mvnseq	r0, r2, asr r3
    3210:	51012052 	qaddpl	r2, r2, r1
    3214:	5101f303 	tstpl	r1, r3, lsl #6
    3218:	03500120 	cmpeq	r0, #32, 2
    321c:	205001f3 	ldrshcs	r0, [r0], #-19	; 0xffffffed
    3220:	02007d02 	andeq	r7, r0, #2, 26	; 0x80
    3224:	2400ff09 	strcs	pc, [r0], #-3849	; 0xf09
    3228:	00009660 	andeq	r9, r0, r0, ror #12
    322c:	0000118f 	andeq	r1, r0, pc, lsl #3
    3230:	00967425 	addseq	r7, r6, r5, lsr #8
    3234:	00119600 	andseq	r9, r1, r0, lsl #12
    3238:	00113a00 	andseq	r3, r1, r0, lsl #20
    323c:	53012000 	movwpl	r2, #4096	; 0x1000
    3240:	20c80802 	sbccs	r0, r8, r2, lsl #16
    3244:	03055201 	movweq	r5, #20993	; 0x5201
    3248:	00009b58 	andeq	r9, r0, r8, asr fp
    324c:	05510120 	ldrbeq	r0, [r1, #-288]	; 0x120
    3250:	009b7003 	addseq	r7, fp, r3
    3254:	50012000 	andpl	r2, r1, r0
    3258:	9bc40305 	blls	ff103e74 <__bss_end__+0xff0f9e54>
    325c:	24000000 	strcs	r0, [r0], #-0
    3260:	00009678 	andeq	r9, r0, r8, ror r6
    3264:	000011ac 	andeq	r1, r0, ip, lsr #3
    3268:	00902a00 	addseq	r2, r0, r0, lsl #20
    326c:	11540000 	cmpne	r4, r0
    3270:	812b0000 	teqhi	fp, r0
    3274:	16000000 	strne	r0, [r0], -r0
    3278:	11440700 	cmpne	r4, r0, lsl #14
    327c:	27310000 	ldrcs	r0, [r1, -r0]!
    3280:	06000007 	streq	r0, [r0], -r7
    3284:	00116f21 	andseq	r6, r1, r1, lsr #30
    3288:	002c3200 	eoreq	r3, ip, r0, lsl #4
    328c:	2c320000 	ldccs	0, cr0, [r2], #-0
    3290:	00000000 	andeq	r0, r0, r0
    3294:	0005d633 	andeq	sp, r5, r3, lsr r6
    3298:	2c570700 	mrrccs	7, 0, r0, r7, cr0
    329c:	34000000 	strcc	r0, [r0], #-0
    32a0:	00000255 	andeq	r0, r0, r5, asr r2
    32a4:	00252406 	eoreq	r2, r5, r6, lsl #8
    32a8:	118f0000 	orrne	r0, pc, r0
    32ac:	2c320000 	ldccs	0, cr0, [r2], #-0
    32b0:	00000000 	andeq	r0, r0, r0
    32b4:	0000d835 	andeq	sp, r0, r5, lsr r8
    32b8:	341e0700 	ldrcc	r0, [lr], #-1792	; 0x700
    32bc:	000002fd 	strdeq	r0, [r0], -sp
    32c0:	00252907 	eoreq	r2, r5, r7, lsl #18
    32c4:	11ac0000 			; <UNDEFINED> instruction: 0x11ac0000
    32c8:	97320000 	ldrls	r0, [r2, -r0]!
    32cc:	2f000000 	svccs	0x00000000
    32d0:	01593500 	cmpeq	r9, r0, lsl #10
    32d4:	66070000 	strvs	r0, [r7], -r0
    32d8:	00076b31 	andeq	r6, r7, r1, lsr fp
    32dc:	c41d0600 	ldrgt	r0, [sp], #-1536	; 0x600
    32e0:	32000011 	andcc	r0, r0, #17
    32e4:	0000002c 	andeq	r0, r0, ip, lsr #32
    32e8:	02283100 	eoreq	r3, r8, #0, 2
    32ec:	1c060000 	stcne	0, cr0, [r6], {-0}
    32f0:	000011d5 	ldrdeq	r1, [r0], -r5
    32f4:	00002c32 	andeq	r2, r0, r2, lsr ip
    32f8:	fa360000 	blx	d83300 <__bss_end__+0xd792e0>
    32fc:	08000002 	stmdaeq	r0, {r1}
    3300:	00002502 	andeq	r2, r0, r2, lsl #10
    3304:	008a3200 	addeq	r3, sl, r0, lsl #4
    3308:	25320000 	ldrcs	r0, [r2, #-0]!
    330c:	32000000 	andcc	r0, r0, #0
    3310:	00000097 	muleq	r0, r7, r0
    3314:	00010632 	andeq	r0, r1, r2, lsr r6
    3318:	ff000000 			; <UNDEFINED> instruction: 0xff000000
    331c:	04000003 	streq	r0, [r0], #-3
    3320:	00102d00 	andseq	r2, r0, r0, lsl #26
    3324:	a3010400 	movwge	r0, #5120	; 0x1400
    3328:	01000002 	tsteq	r0, r2
    332c:	000009e8 	andeq	r0, r0, r8, ror #19
    3330:	0000030e 	andeq	r0, r0, lr, lsl #6
    3334:	0000968c 	andeq	r9, r0, ip, lsl #13
    3338:	00000154 	andeq	r0, r0, r4, asr r1
    333c:	00000db4 			; <UNDEFINED> instruction: 0x00000db4
    3340:	69050402 	stmdbvs	r5, {r1, sl}
    3344:	0300746e 	movweq	r7, #1134	; 0x46e
    3348:	00330704 	eorseq	r0, r3, r4, lsl #14
    334c:	01030000 	mrseq	r0, (UNDEF: 3)
    3350:	00017b06 	andeq	r7, r1, r6, lsl #22
    3354:	05020300 	streq	r0, [r2, #-768]	; 0x300
    3358:	00000187 	andeq	r0, r0, r7, lsl #3
    335c:	45050403 	strmi	r0, [r5, #-1027]	; 0x403
    3360:	03000000 	movweq	r0, #0
    3364:	00400508 	subeq	r0, r0, r8, lsl #10
    3368:	01030000 	mrseq	r0, (UNDEF: 3)
    336c:	00017908 	andeq	r7, r1, r8, lsl #18
    3370:	07020300 	streq	r0, [r2, -r0, lsl #6]
    3374:	0000011c 	andeq	r0, r0, ip, lsl r1
    3378:	2e070403 	cdpcs	4, 0, cr0, cr7, cr3, {0}
    337c:	03000000 	movweq	r0, #0
    3380:	00290708 	eoreq	r0, r9, r8, lsl #14
    3384:	04030000 	streq	r0, [r3], #-0
    3388:	00016607 	andeq	r6, r1, r7, lsl #12
    338c:	08010300 	stmdaeq	r1, {r8, r9}
    3390:	00000182 	andeq	r0, r0, r2, lsl #3
    3394:	0c020104 	stfeqs	f0, [r2], {4}
    3398:	000000b2 	strheq	r0, [r0], -r2
    339c:	00066b05 	andeq	r6, r6, r5, lsl #22
    33a0:	7b050000 	blvc	1433a8 <__bss_end__+0x139388>
    33a4:	01000007 	tsteq	r0, r7
    33a8:	0007b405 	andeq	fp, r7, r5, lsl #8
    33ac:	c3050400 	movwgt	r0, #21504	; 0x5400
    33b0:	05000007 	streq	r0, [r0, #-7]
    33b4:	0007d205 	andeq	sp, r7, r5, lsl #4
    33b8:	e1050600 	tst	r5, r0, lsl #12
    33bc:	07000007 	streq	r0, [r0, -r7]
    33c0:	0007f005 	andeq	pc, r7, r5
    33c4:	ff050300 			; <UNDEFINED> instruction: 0xff050300
    33c8:	02000007 	andeq	r0, r0, #7
    33cc:	07a80600 	streq	r0, [r8, r0, lsl #12]!
    33d0:	15020000 	strne	r0, [r2, #-0]
    33d4:	00000079 	andeq	r0, r0, r9, ror r0
    33d8:	00096f07 	andeq	r6, r9, r7, lsl #30
    33dc:	8c370100 	ldfhis	f0, [r7], #-0
    33e0:	9c000096 	stcls	0, cr0, [r0], {150}	; 0x96
    33e4:	01000000 	mrseq	r0, (UNDEF: 0)
    33e8:	0001c39c 	muleq	r1, ip, r3
    33ec:	96940800 	ldrls	r0, [r4], r0, lsl #16
    33f0:	03a80000 			; <UNDEFINED> instruction: 0x03a80000
    33f4:	a0090000 	andge	r0, r9, r0
    33f8:	af000096 	svcge	0x00000096
    33fc:	f3000003 	vhadd.u8	d0, d0, d3
    3400:	0a000000 	beq	3408 <_start-0x4bf8>
    3404:	32015101 	andcc	r5, r1, #1073741824	; 0x40000000
    3408:	0150010a 	cmpeq	r0, sl, lsl #2
    340c:	ac09003e 	stcge	0, cr0, [r9], {62}	; 0x3e
    3410:	af000096 	svcge	0x00000096
    3414:	0b000003 	bleq	3428 <_start-0x4bd8>
    3418:	0a000001 	beq	3424 <_start-0x4bdc>
    341c:	32015101 	andcc	r5, r1, #1073741824	; 0x40000000
    3420:	0150010a 	cmpeq	r0, sl, lsl #2
    3424:	b008003f 	andlt	r0, r8, pc, lsr r0
    3428:	a8000096 	stmdage	r0, {r1, r2, r4, r7}
    342c:	09000003 	stmdbeq	r0, {r0, r1}
    3430:	000096c0 	andeq	r9, r0, r0, asr #13
    3434:	000003c5 	andeq	r0, r0, r5, asr #7
    3438:	00000128 	andeq	r0, r0, r8, lsr #2
    343c:	0250010a 	subseq	r0, r0, #-2147483646	; 0x80000002
    3440:	09000075 	stmdbeq	r0, {r0, r2, r4, r5, r6}
    3444:	000096cc 	andeq	r9, r0, ip, asr #13
    3448:	000003e6 	andeq	r0, r0, r6, ror #7
    344c:	0000013c 	andeq	r0, r0, ip, lsr r1
    3450:	0250010a 	subseq	r0, r0, #-2147483646	; 0x80000002
    3454:	08000075 	stmdaeq	r0, {r0, r2, r4, r5, r6}
    3458:	000096d0 	ldrdeq	r9, [r0], -r0
    345c:	000003a8 	andeq	r0, r0, r8, lsr #7
    3460:	0096dc09 	addseq	sp, r6, r9, lsl #24
    3464:	0003e600 	andeq	lr, r3, r0, lsl #12
    3468:	00015800 	andeq	r5, r1, r0, lsl #16
    346c:	51010a00 	tstpl	r1, r0, lsl #20
    3470:	09003001 	stmdbeq	r0, {r0, ip, sp}
    3474:	000096e8 	andeq	r9, r0, r8, ror #13
    3478:	000003e6 	andeq	r0, r0, r6, ror #7
    347c:	0000016b 	andeq	r0, r0, fp, ror #2
    3480:	0151010a 	cmpeq	r1, sl, lsl #2
    3484:	f4090030 	vst4.8	{d0-d3}, [r9 :256], r0
    3488:	e6000096 			; <UNDEFINED> instruction: 0xe6000096
    348c:	7e000003 	cdpvc	0, 0, cr0, cr0, cr3, {0}
    3490:	0a000001 	beq	349c <_start-0x4b64>
    3494:	36015101 	strcc	r5, [r1], -r1, lsl #2
    3498:	97000900 	strls	r0, [r0, -r0, lsl #18]
    349c:	03e60000 	mvneq	r0, #0
    34a0:	01910000 	orrseq	r0, r1, r0
    34a4:	010a0000 	mrseq	r0, (UNDEF: 10)
    34a8:	00330151 	eorseq	r0, r3, r1, asr r1
    34ac:	00970c09 	addseq	r0, r7, r9, lsl #24
    34b0:	0003e600 	andeq	lr, r3, r0, lsl #12
    34b4:	0001a600 	andeq	sl, r1, r0, lsl #12
    34b8:	51010a00 	tstpl	r1, r0, lsl #20
    34bc:	010e0a03 	tsteq	lr, r3, lsl #20
    34c0:	97180900 	ldrls	r0, [r8, -r0, lsl #18]
    34c4:	03e60000 	mvneq	r0, #0
    34c8:	01b90000 			; <UNDEFINED> instruction: 0x01b90000
    34cc:	010a0000 	mrseq	r0, (UNDEF: 10)
    34d0:	00330151 	eorseq	r0, r3, r1, asr r1
    34d4:	00971c08 	addseq	r1, r7, r8, lsl #24
    34d8:	0003a800 	andeq	sl, r3, r0, lsl #16
    34dc:	430b0000 	movwmi	r0, #45056	; 0xb000
    34e0:	01000009 	tsteq	r0, r9
    34e4:	00002557 	andeq	r2, r0, r7, asr r5
    34e8:	00972800 	addseq	r2, r7, r0, lsl #16
    34ec:	00001c00 	andeq	r1, r0, r0, lsl #24
    34f0:	e69c0100 	ldr	r0, [ip], r0, lsl #2
    34f4:	08000001 	stmdaeq	r0, {r0}
    34f8:	00009738 	andeq	r9, r0, r8, lsr r7
    34fc:	000003c5 	andeq	r0, r0, r5, asr #7
    3500:	08600b00 	stmdaeq	r0!, {r8, r9, fp}^
    3504:	5d010000 	stcpl	0, cr0, [r1, #-0]
    3508:	00000025 	andeq	r0, r0, r5, lsr #32
    350c:	00009744 	andeq	r9, r0, r4, asr #14
    3510:	00000028 	andeq	r0, r0, r8, lsr #32
    3514:	02129c01 	andseq	r9, r2, #256	; 0x100
    3518:	4c080000 	stcmi	0, cr0, [r8], {-0}
    351c:	c3000097 	movwgt	r0, #151	; 0x97
    3520:	08000001 	stmdaeq	r0, {r0}
    3524:	00009760 	andeq	r9, r0, r0, ror #14
    3528:	000003c5 	andeq	r0, r0, r5, asr #7
    352c:	09970b00 	ldmibeq	r7, {r8, r9, fp}
    3530:	64010000 	strvs	r0, [r1], #-0
    3534:	00000025 	andeq	r0, r0, r5, lsr #32
    3538:	0000976c 	andeq	r9, r0, ip, ror #14
    353c:	0000001c 	andeq	r0, r0, ip, lsl r0
    3540:	02359c01 	eorseq	r9, r5, #256	; 0x100
    3544:	7c080000 	stcvc	0, cr0, [r8], {-0}
    3548:	c5000097 	strgt	r0, [r0, #-151]	; 0x97
    354c:	00000003 	andeq	r0, r0, r3
    3550:	0004f507 	andeq	pc, r4, r7, lsl #10
    3554:	886a0100 	stmdahi	sl!, {r8}^
    3558:	2c000097 	stccs	0, cr0, [r0], {151}	; 0x97
    355c:	01000000 	mrseq	r0, (UNDEF: 0)
    3560:	0002719c 	muleq	r2, ip, r1
    3564:	00630c00 	rsbeq	r0, r3, r0, lsl #24
    3568:	002c6a01 	eoreq	r6, ip, r1, lsl #20
    356c:	241a0000 	ldrcs	r0, [sl], #-0
    3570:	94080000 	strls	r0, [r8], #-0
    3574:	12000097 	andne	r0, r0, #151	; 0x97
    3578:	0d000002 	stceq	0, cr0, [r0, #-8]
    357c:	000097ac 	andeq	r9, r0, ip, lsr #15
    3580:	000003e6 	andeq	r0, r0, r6, ror #7
    3584:	0251010a 	subseq	r0, r1, #-2147483646	; 0x80000002
    3588:	00000074 	andeq	r0, r0, r4, ror r0
    358c:	0009610b 	andeq	r6, r9, fp, lsl #2
    3590:	25740100 	ldrbcs	r0, [r4, #-256]!	; 0x100
    3594:	b4000000 	strlt	r0, [r0], #-0
    3598:	0c000097 	stceq	0, cr0, [r0], {151}	; 0x97
    359c:	01000000 	mrseq	r0, (UNDEF: 0)
    35a0:	0002949c 	muleq	r2, ip, r4
    35a4:	97bc0800 	ldrls	r0, [ip, r0, lsl #16]!
    35a8:	01c30000 	biceq	r0, r3, r0
    35ac:	0b000000 	bleq	35b4 <_start-0x4a4c>
    35b0:	00000a14 	andeq	r0, r0, r4, lsl sl
    35b4:	00257801 	eoreq	r7, r5, r1, lsl #16
    35b8:	97c00000 	strbls	r0, [r0, r0]
    35bc:	00200000 	eoreq	r0, r0, r0
    35c0:	9c010000 	stcls	0, cr0, [r1], {-0}
    35c4:	000002c0 	andeq	r0, r0, r0, asr #5
    35c8:	0097c808 	addseq	ip, r7, r8, lsl #16
    35cc:	00027100 	andeq	r7, r2, r0, lsl #2
    35d0:	97d40800 	ldrbls	r0, [r4, r0, lsl #16]
    35d4:	01e60000 	mvneq	r0, r0
    35d8:	0e000000 	cdpeq	0, 0, cr0, cr0, cr0, {0}
    35dc:	000009b1 			; <UNDEFINED> instruction: 0x000009b1
    35e0:	02d11601 	sbcseq	r1, r1, #1048576	; 0x100000
    35e4:	03050000 	movweq	r0, #20480	; 0x5000
    35e8:	0000994c 	andeq	r9, r0, ip, asr #18
    35ec:	02d7040f 	sbcseq	r0, r7, #251658240	; 0xf000000
    35f0:	2c100000 	ldccs	0, cr0, [r0], {-0}
    35f4:	0e000000 	cdpeq	0, 0, cr0, cr0, cr0, {0}
    35f8:	000009a5 	andeq	r0, r0, r5, lsr #19
    35fc:	02d11701 	sbcseq	r1, r1, #262144	; 0x40000
    3600:	03050000 	movweq	r0, #20480	; 0x5000
    3604:	0000991c 	andeq	r9, r0, ip, lsl r9
    3608:	0009260e 	andeq	r2, r9, lr, lsl #12
    360c:	d11a0100 	tstle	sl, r0, lsl #2
    3610:	05000002 	streq	r0, [r0, #-2]
    3614:	00993803 	addseq	r3, r9, r3, lsl #16
    3618:	09790e00 	ldmdbeq	r9!, {r9, sl, fp}^
    361c:	1b010000 	blne	43624 <__bss_end__+0x39604>
    3620:	000002d1 	ldrdeq	r0, [r0], -r1
    3624:	99240305 	stmdbls	r4!, {r0, r2, r8, r9}
    3628:	880e0000 	stmdahi	lr, {}	; <UNPREDICTABLE>
    362c:	01000009 	tsteq	r0, r9
    3630:	0002d11c 	andeq	sp, r2, ip, lsl r1
    3634:	28030500 	stmdacs	r3, {r8, sl}
    3638:	0e000099 	mcreq	0, 0, r0, cr0, cr9, {4}
    363c:	000009f6 	strdeq	r0, [r0], -r6
    3640:	02d11d01 	sbcseq	r1, r1, #1, 26	; 0x40
    3644:	03050000 	movweq	r0, #20480	; 0x5000
    3648:	0000992c 	andeq	r9, r0, ip, lsr #18
    364c:	0009170e 	andeq	r1, r9, lr, lsl #14
    3650:	d11e0100 	tstle	lr, r0, lsl #2
    3654:	05000002 	streq	r0, [r0, #-2]
    3658:	00994803 	addseq	r4, r9, r3, lsl #16
    365c:	0a050e00 	beq	146e64 <__bss_end__+0x13ce44>
    3660:	1f010000 	svcne	0x00010000
    3664:	000002d1 	ldrdeq	r0, [r0], -r1
    3668:	99340305 	ldmdbls	r4!, {r0, r2, r8, r9}
    366c:	340e0000 	strcc	r0, [lr], #-0
    3670:	01000009 	tsteq	r0, r9
    3674:	0002d120 	andeq	sp, r2, r0, lsr #2
    3678:	44030500 	strmi	r0, [r3], #-1280	; 0x500
    367c:	0e000099 	mcreq	0, 0, r0, cr0, cr9, {4}
    3680:	000009d9 	ldrdeq	r0, [r0], -r9
    3684:	02d12101 	sbcseq	r2, r1, #1073741824	; 0x40000000
    3688:	03050000 	movweq	r0, #20480	; 0x5000
    368c:	00009940 	andeq	r9, r0, r0, asr #18
    3690:	0009510e 	andeq	r5, r9, lr, lsl #2
    3694:	d1220100 	teqle	r2, r0, lsl #2
    3698:	05000002 	streq	r0, [r0, #-2]
    369c:	00992003 	addseq	r2, r9, r3
    36a0:	09c90e00 	stmibeq	r9, {r9, sl, fp}^
    36a4:	23010000 	movwcs	r0, #4096	; 0x1000
    36a8:	000002d1 	ldrdeq	r0, [r0], -r1
    36ac:	993c0305 	ldmdbls	ip!, {r0, r2, r8, r9}
    36b0:	b90e0000 	stmdblt	lr, {}	; <UNPREDICTABLE>
    36b4:	01000009 	tsteq	r0, r9
    36b8:	0002d124 	andeq	sp, r2, r4, lsr #2
    36bc:	30030500 	andcc	r0, r3, r0, lsl #10
    36c0:	11000099 	swpne	r0, r9, [r0]	; <UNPREDICTABLE>
    36c4:	000006b1 			; <UNDEFINED> instruction: 0x000006b1
    36c8:	d2128a03 	andsle	r8, r2, #12288	; 0x3000
    36cc:	02000006 	andeq	r0, r0, #6
    36d0:	0003c519 	andeq	ip, r3, r9, lsl r5
    36d4:	002c1300 	eoreq	r1, ip, r0, lsl #6
    36d8:	b2130000 	andslt	r0, r3, #0
    36dc:	00000000 	andeq	r0, r0, r0
    36e0:	00078c14 	andeq	r8, r7, r4, lsl ip
    36e4:	2ca90300 	stccs	3, cr0, [r9]
    36e8:	da000000 	ble	36f0 <_start-0x4910>
    36ec:	13000003 	movwne	r0, #3
    36f0:	000003da 	ldrdeq	r0, [r0], -sl
    36f4:	e0040f00 	and	r0, r4, r0, lsl #30
    36f8:	15000003 	strne	r0, [r0, #-3]
    36fc:	000003e5 	andeq	r0, r0, r5, ror #7
    3700:	064b1216 			; <UNDEFINED> instruction: 0x064b1216
    3704:	9d030000 	stcls	0, cr0, [r3, #-0]
    3708:	000003fc 	strdeq	r0, [r0], -ip
    370c:	0003fc13 	andeq	pc, r3, r3, lsl ip	; <UNPREDICTABLE>
    3710:	002c1300 	eoreq	r1, ip, r0, lsl #6
    3714:	0f000000 	svceq	0x00000000
    3718:	0003e504 	andeq	lr, r3, r4, lsl #10
    371c:	01c30000 	biceq	r0, r3, r0
    3720:	00040000 	andeq	r0, r4, r0
    3724:	0000115b 	andeq	r1, r0, fp, asr r1
    3728:	02a30104 	adceq	r0, r3, #4, 2
    372c:	39010000 	stmdbcc	r1, {}	; <UNPREDICTABLE>
    3730:	0e00000a 	cdpeq	0, 0, cr0, cr0, cr10, {0}
    3734:	44000003 	strmi	r0, [r0], #-3
    3738:	50000098 	mulpl	r0, r8, r0
    373c:	b9000000 	stmdblt	r0, {}	; <UNPREDICTABLE>
    3740:	0200000e 	andeq	r0, r0, #14
    3744:	6e690504 	cdpvs	5, 6, cr0, cr9, cr4, {0}
    3748:	24030074 	strcs	r0, [r3], #-116	; 0x74
    374c:	0200000a 	andeq	r0, r0, #10
    3750:	000037d4 	ldrdeq	r3, [r0], -r4
    3754:	07040400 	streq	r0, [r4, -r0, lsl #8]
    3758:	00000033 	andeq	r0, r0, r3, lsr r0
    375c:	7b060104 	blvc	183b74 <__bss_end__+0x179b54>
    3760:	04000001 	streq	r0, [r0], #-1
    3764:	01870502 	orreq	r0, r7, r2, lsl #10
    3768:	04040000 	streq	r0, [r4], #-0
    376c:	00004505 	andeq	r4, r0, r5, lsl #10
    3770:	05080400 	streq	r0, [r8, #-1024]	; 0x400
    3774:	00000040 	andeq	r0, r0, r0, asr #32
    3778:	0004ff03 	andeq	pc, r4, r3, lsl #30
    377c:	652e0300 	strvs	r0, [lr, #-768]!	; 0x300
    3780:	04000000 	streq	r0, [r0], #-0
    3784:	01790801 	cmneq	r9, r1, lsl #16
    3788:	02040000 	andeq	r0, r4, #0
    378c:	00011c07 	andeq	r1, r1, r7, lsl #24
    3790:	05560300 	ldrbeq	r0, [r6, #-768]	; 0x300
    3794:	34030000 	strcc	r0, [r3], #-0
    3798:	0000007e 	andeq	r0, r0, lr, ror r0
    379c:	2e070404 	cdpcs	4, 0, cr0, cr7, cr4, {0}
    37a0:	04000000 	streq	r0, [r0], #-0
    37a4:	00290708 	eoreq	r0, r9, r8, lsl #14
    37a8:	04040000 	streq	r0, [r4], #-0
    37ac:	00016607 	andeq	r6, r1, r7, lsl #12
    37b0:	04040500 	streq	r0, [r4], #-1280	; 0x500
    37b4:	01820801 	orreq	r0, r2, r1, lsl #16
    37b8:	0c060000 	stceq	0, cr0, [r6], {-0}
    37bc:	00d30e04 	sbcseq	r0, r3, r4, lsl #28
    37c0:	74070000 	strvc	r0, [r7], #-0
    37c4:	0f040078 	svceq	0x00040078
    37c8:	0000005a 	andeq	r0, r0, sl, asr r0
    37cc:	78720700 	ldmdavc	r2!, {r8, r9, sl}^
    37d0:	5a0f0400 	bpl	3c47d8 <__bss_end__+0x3ba7b8>
    37d4:	01000000 	mrseq	r0, (UNDEF: 0)
    37d8:	0004cd08 	andeq	ip, r4, r8, lsl #26
    37dc:	73100400 	tstvc	r0, #0, 8
    37e0:	04000000 	streq	r0, [r0], #-0
    37e4:	00047e08 	andeq	r7, r4, r8, lsl #28
    37e8:	73110400 	tstvc	r1, #0, 8
    37ec:	08000000 	stmdaeq	r0, {}	; <UNPREDICTABLE>
    37f0:	04b60300 	ldrteq	r0, [r6], #768	; 0x300
    37f4:	12040000 	andne	r0, r4, #0
    37f8:	0000009c 	muleq	r0, ip, r0
    37fc:	10050109 	andne	r0, r5, r9, lsl #2
    3800:	000000f9 	strdeq	r0, [r0], -r9
    3804:	0004d20a 	andeq	sp, r4, sl, lsl #4
    3808:	c00a0100 	andgt	r0, sl, r0, lsl #2
    380c:	02000004 	andeq	r0, r0, #4
    3810:	0004a80a 	andeq	sl, r4, sl, lsl #16
    3814:	03000300 	movweq	r0, #768	; 0x300
    3818:	000004e7 	andeq	r0, r0, r7, ror #9
    381c:	00de1005 	sbcseq	r1, lr, r5
    3820:	14060000 	strne	r0, [r6], #-0
    3824:	01311405 	teqeq	r1, r5, lsl #8
    3828:	5f080000 	svcpl	0x00080000
    382c:	05000005 	streq	r0, [r0, #-5]
    3830:	00003715 	andeq	r3, r0, r5, lsl r7
    3834:	4a080000 	bmi	20383c <__bss_end__+0x1f981c>
    3838:	05000005 	streq	r0, [r0, #-5]
    383c:	0000f918 	andeq	pc, r0, r8, lsl r9	; <UNPREDICTABLE>
    3840:	15080400 	strne	r0, [r8, #-1024]	; 0x400
    3844:	05000005 	streq	r0, [r0, #-5]
    3848:	0000d31b 	andeq	sp, r0, fp, lsl r3
    384c:	03000800 	movweq	r0, #2048	; 0x800
    3850:	00000507 	andeq	r0, r0, r7, lsl #10
    3854:	01042005 	tsteq	r4, r5
    3858:	320b0000 	andcc	r0, fp, #0
    385c:	0100000a 	tsteq	r0, sl
    3860:	00017e05 	andeq	r7, r1, r5, lsl #28
    3864:	00984400 	addseq	r4, r8, r0, lsl #8
    3868:	00002800 	andeq	r2, r0, r0, lsl #16
    386c:	7e9c0100 	fmlvce	f0, f4, f0
    3870:	0c000001 	stceq	0, cr0, [r0], {1}
    3874:	06010063 	streq	r0, [r1], -r3, rrx
    3878:	0000017e 	andeq	r0, r0, lr, ror r1
    387c:	09000000 	stmdbeq	r0, {}	; <UNPREDICTABLE>
    3880:	0098580d 	addseq	r5, r8, sp, lsl #16
    3884:	0001ab00 	andeq	sl, r1, r0, lsl #22
    3888:	52010e00 	andpl	r0, r1, #0, 28
    388c:	010e3401 	tsteq	lr, r1, lsl #8
    3890:	0e300151 	mrceq	1, 1, r0, cr0, cr1, {2}
    3894:	42035001 	andmi	r5, r3, #1
    3898:	00002447 	andeq	r2, r0, r7, asr #8
    389c:	0131040f 	teqeq	r1, pc, lsl #8
    38a0:	1d0b0000 	stcne	0, cr0, [fp, #-0]
    38a4:	01000005 	tsteq	r0, r5
    38a8:	00017e0c 	andeq	r7, r1, ip, lsl #28
    38ac:	00986c00 	addseq	r6, r8, r0, lsl #24
    38b0:	00002800 	andeq	r2, r0, r0, lsl #16
    38b4:	ab9c0100 	blge	fe703cbc <__bss_end__+0xfe6f9c9c>
    38b8:	0c000001 	stceq	0, cr0, [r0], {1}
    38bc:	0d010063 	stceq	0, cr0, [r1, #-396]	; 0xfffffe74
    38c0:	0000017e 	andeq	r0, r0, lr, ror r1
    38c4:	09000000 	stmdbeq	r0, {}	; <UNPREDICTABLE>
    38c8:	0a2b1000 	beq	ac78d0 <__bss_end__+0xabd8b0>
    38cc:	1b060000 	blne	1838d4 <__bss_end__+0x1798b4>
    38d0:	00000093 	muleq	r0, r3, r0
    38d4:	00009311 	andeq	r9, r0, r1, lsl r3
    38d8:	00251100 	eoreq	r1, r5, r0, lsl #2
    38dc:	2c110000 	ldccs	0, cr0, [r1], {-0}
    38e0:	00000000 	andeq	r0, r0, r0
    38e4:	0000db00 	andeq	sp, r0, r0, lsl #22
    38e8:	3f000400 	svccc	0x00000400
    38ec:	04000012 	streq	r0, [r0], #-18
    38f0:	0002a301 	andeq	sl, r2, r1, lsl #6
    38f4:	0a540100 	beq	1503cfc <__bss_end__+0x14f9cdc>
    38f8:	030e0000 	movweq	r0, #57344	; 0xe000
    38fc:	98940000 	ldmls	r4, {}	; <UNPREDICTABLE>
    3900:	00200000 	eoreq	r0, r0, r0
    3904:	0fe50000 	svceq	0x00e50000
    3908:	01020000 	mrseq	r0, (UNDEF: 2)
    390c:	00017b06 	andeq	r7, r1, r6, lsl #22
    3910:	08010200 	stmdaeq	r1, {r9}
    3914:	00000179 	andeq	r0, r0, r9, ror r1
    3918:	87050202 	strhi	r0, [r5, -r2, lsl #4]
    391c:	02000001 	andeq	r0, r0, #1
    3920:	011c0702 	tsteq	ip, r2, lsl #14
    3924:	04030000 	streq	r0, [r3], #-0
    3928:	746e6905 	strbtvc	r6, [lr], #-2309	; 0x905
    392c:	07040200 	streq	r0, [r4, -r0, lsl #4]
    3930:	00000033 	andeq	r0, r0, r3, lsr r0
    3934:	40050802 	andmi	r0, r5, r2, lsl #16
    3938:	02000000 	andeq	r0, r0, #0
    393c:	00290708 	eoreq	r0, r9, r8, lsl #14
    3940:	04020000 	streq	r0, [r2], #-0
    3944:	00004505 	andeq	r4, r0, r5, lsl #10
    3948:	07040200 	streq	r0, [r4, -r0, lsl #4]
    394c:	00000166 	andeq	r0, r0, r6, ror #2
    3950:	04020404 	streq	r0, [r2], #-1028	; 0x404
    3954:	00002e07 	andeq	r2, r0, r7, lsl #28
    3958:	7a040500 	bvc	104d60 <__bss_end__+0xfad40>
    395c:	02000000 	andeq	r0, r0, #0
    3960:	01820801 	orreq	r0, r2, r1, lsl #16
    3964:	24060000 	strcs	r0, [r6], #-0
    3968:	0200000a 	andeq	r0, r0, #10
    396c:	000048d4 	ldrdeq	r4, [r0], -r4	; <UNPREDICTABLE>
    3970:	0a2b0700 	beq	ac5578 <__bss_end__+0xabb558>
    3974:	1b030000 	blne	c397c <__bss_end__+0xb995c>
    3978:	0000006b 	andeq	r0, r0, fp, rrx
    397c:	00009894 	muleq	r0, r4, r8
    3980:	00000020 	andeq	r0, r0, r0, lsr #32
    3984:	5f089c01 	svcpl	0x00089c01
    3988:	03010070 	movweq	r0, #4208	; 0x1070
    398c:	0000006b 	andeq	r0, r0, fp, rrx
    3990:	63085001 	movwvs	r5, #32769	; 0x8001
    3994:	41030100 	mrsmi	r0, (UNDEF: 19)
    3998:	01000000 	mrseq	r0, (UNDEF: 0)
    399c:	006e0951 	rsbeq	r0, lr, r1, asr r9
    39a0:	00810301 	addeq	r0, r1, r1, lsl #6
    39a4:	24380000 	ldrtcs	r0, [r8], #-0
    39a8:	700a0000 	andvc	r0, sl, r0
    39ac:	74040100 	strvc	r0, [r4], #-256	; 0x100
    39b0:	59000000 	stmdbpl	r0, {}	; <UNPREDICTABLE>
    39b4:	0b000024 	bleq	3a4c <_start-0x45b4>
    39b8:	04010065 	streq	r0, [r1], #-101	; 0x65
    39bc:	00000074 	andeq	r0, r0, r4, ror r0
    39c0:	00005201 	andeq	r5, r0, r1, lsl #4

Disassembly of section .debug_abbrev:

00000000 <.debug_abbrev>:
       0:	25011101 	strcs	r1, [r1, #-257]	; 0x101
       4:	030b130e 	movweq	r1, #45838	; 0xb30e
       8:	110e1b0e 	tstne	lr, lr, lsl #22
       c:	10061201 	andne	r1, r6, r1, lsl #4
      10:	02000017 	andeq	r0, r0, #23
      14:	0b0b0024 	bleq	2c00ac <__bss_end__+0x2b608c>
      18:	08030b3e 	stmdaeq	r3, {r1, r2, r3, r4, r5, r8, r9, fp}
      1c:	24030000 	strcs	r0, [r3], #-0
      20:	3e0b0b00 	vmlacc.f64	d0, d11, d0
      24:	000e030b 	andeq	r0, lr, fp, lsl #6
      28:	000f0400 	andeq	r0, pc, r0, lsl #8
      2c:	13490b0b 	movtne	r0, #39691	; 0x9b0b
      30:	26050000 	strcs	r0, [r5], -r0
      34:	00134900 	andseq	r4, r3, r0, lsl #18
      38:	01130600 	tsteq	r3, r0, lsl #12
      3c:	0b3a0b0b 	bleq	e82c70 <__bss_end__+0xe78c50>
      40:	13010b3b 	movwne	r0, #6971	; 0x1b3b
      44:	0d070000 	stceq	0, cr0, [r7, #-0]
      48:	3a080300 	bcc	200c50 <__bss_end__+0x1f6c30>
      4c:	490b3b0b 	stmdbmi	fp, {r0, r1, r3, r8, r9, fp, ip, sp}
      50:	000b3813 	andeq	r3, fp, r3, lsl r8
      54:	000d0800 	andeq	r0, sp, r0, lsl #16
      58:	0b3a0e03 	bleq	e8386c <__bss_end__+0xe7984c>
      5c:	13490b3b 	movtne	r0, #39739	; 0x9b3b
      60:	00000b38 	andeq	r0, r0, r8, lsr fp
      64:	03001609 	movweq	r1, #1545	; 0x609
      68:	3b0b3a0e 	blcc	2ce8a8 <__bss_end__+0x2c4888>
      6c:	0013490b 	andseq	r4, r3, fp, lsl #18
      70:	012e0a00 	teqeq	lr, r0, lsl #20
      74:	0b3a0e03 	bleq	e83888 <__bss_end__+0xe79868>
      78:	19270b3b 	stmdbne	r7!, {r0, r1, r3, r4, r5, r8, r9, fp}
      7c:	0b201349 	bleq	804da8 <__bss_end__+0x7fad88>
      80:	00001301 	andeq	r1, r0, r1, lsl #6
      84:	0300050b 	movweq	r0, #1291	; 0x50b
      88:	3b0b3a08 	blcc	2ce8b0 <__bss_end__+0x2c4890>
      8c:	0013490b 	andseq	r4, r3, fp, lsl #18
      90:	012e0c00 	teqeq	lr, r0, lsl #24
      94:	0e03193f 	mcreq	9, 0, r1, cr3, cr15, {1}
      98:	0b3b0b3a 	bleq	ec2d88 <__bss_end__+0xeb8d68>
      9c:	13491927 	movtne	r1, #39207	; 0x9927
      a0:	06120111 			; <UNDEFINED> instruction: 0x06120111
      a4:	42971840 	addsmi	r1, r7, #64, 16	; 0x400000
      a8:	00130119 	andseq	r0, r3, r9, lsl r1
      ac:	00050d00 	andeq	r0, r5, r0, lsl #26
      b0:	0b3a0803 	bleq	e820c4 <__bss_end__+0xe780a4>
      b4:	13490b3b 	movtne	r0, #39739	; 0x9b3b
      b8:	00001702 	andeq	r1, r0, r2, lsl #14
      bc:	0300340e 	movweq	r3, #1038	; 0x40e
      c0:	3413490e 	ldrcc	r4, [r3], #-2318	; 0x90e
      c4:	00180219 	andseq	r0, r8, r9, lsl r2
      c8:	00340f00 	eorseq	r0, r4, r0, lsl #30
      cc:	0b3a0e03 	bleq	e838e0 <__bss_end__+0xe798c0>
      d0:	13490b3b 	movtne	r0, #39739	; 0x9b3b
      d4:	34100000 	ldrcc	r0, [r0], #-0
      d8:	3a0e0300 	bcc	380ce0 <__bss_end__+0x376cc0>
      dc:	490b3b0b 	stmdbmi	fp, {r0, r1, r3, r8, r9, fp, ip, sp}
      e0:	00170213 	andseq	r0, r7, r3, lsl r2
      e4:	010b1100 	mrseq	r1, (UNDEF: 27)
      e8:	06120111 			; <UNDEFINED> instruction: 0x06120111
      ec:	00001301 	andeq	r1, r0, r1, lsl #6
      f0:	01828912 	orreq	r8, r2, r2, lsl r9
      f4:	31011101 	tstcc	r1, r1, lsl #2
      f8:	00130113 	andseq	r0, r3, r3, lsl r1
      fc:	828a1300 	addhi	r1, sl, #0, 6
     100:	18020001 	stmdane	r2, {r0}
     104:	00184291 	mulseq	r8, r1, r2
     108:	82891400 	addhi	r1, r9, #0, 8
     10c:	01110001 	tsteq	r1, r1
     110:	00001331 	andeq	r1, r0, r1, lsr r3
     114:	49010115 	stmdbmi	r1, {r0, r2, r4, r8}
     118:	00130113 	andseq	r0, r3, r3, lsl r1
     11c:	00211600 	eoreq	r1, r1, r0, lsl #12
     120:	0b2f1349 	bleq	bc4e4c <__bss_end__+0xbbae2c>
     124:	05170000 	ldreq	r0, [r7, #-0]
     128:	3a080300 	bcc	200d30 <__bss_end__+0x1f6d10>
     12c:	490b3b0b 	stmdbmi	fp, {r0, r1, r3, r8, r9, fp, ip, sp}
     130:	00180213 	andseq	r0, r8, r3, lsl r2
     134:	00051800 	andeq	r1, r5, r0, lsl #16
     138:	0b3a0e03 	bleq	e8394c <__bss_end__+0xe7992c>
     13c:	13490b3b 	movtne	r0, #39739	; 0x9b3b
     140:	00001702 	andeq	r1, r0, r2, lsl #14
     144:	03003419 	movweq	r3, #1049	; 0x419
     148:	3b0b3a0e 	blcc	2ce988 <__bss_end__+0x2c4968>
     14c:	0213490b 	andseq	r4, r3, #180224	; 0x2c000
     150:	1a000018 	bne	1b8 <_start-0x7e48>
     154:	1331011d 	teqne	r1, #1073741831	; 0x40000007
     158:	17550152 			; <UNDEFINED> instruction: 0x17550152
     15c:	0b590b58 	bleq	1642ec4 <__bss_end__+0x1638ea4>
     160:	00001301 	andeq	r1, r0, r1, lsl #6
     164:	3100051b 	tstcc	r0, fp, lsl r5
     168:	00170213 	andseq	r0, r7, r3, lsl r2
     16c:	011d1c00 	tsteq	sp, r0, lsl #24
     170:	01111331 	tsteq	r1, r1, lsr r3
     174:	0b580612 	bleq	16019c4 <__bss_end__+0x15f79a4>
     178:	13010b59 	movwne	r0, #7001	; 0x1b59
     17c:	0b1d0000 	bleq	740184 <__bss_end__+0x736164>
     180:	01175501 	tsteq	r7, r1, lsl #10
     184:	1e000013 	mcrne	0, 0, r0, cr0, cr3, {0}
     188:	08030034 	stmdaeq	r3, {r2, r4, r5}
     18c:	0b3b0b3a 	bleq	ec2e7c <__bss_end__+0xeb8e5c>
     190:	17021349 	strne	r1, [r2, -r9, asr #6]
     194:	0b1f0000 	bleq	7c019c <__bss_end__+0x7b617c>
     198:	00175501 	andseq	r5, r7, r1, lsl #10
     19c:	010b2000 	mrseq	r2, (UNDEF: 11)
     1a0:	06120111 			; <UNDEFINED> instruction: 0x06120111
     1a4:	2e210000 	cdpcs	0, 2, cr0, cr1, cr0, {0}
     1a8:	03193f01 	tsteq	r9, #1, 30
     1ac:	3b0b3a0e 	blcc	2ce9ec <__bss_end__+0x2c49cc>
     1b0:	1119270b 	tstne	r9, fp, lsl #14
     1b4:	40061201 	andmi	r1, r6, r1, lsl #4
     1b8:	19429718 	stmdbne	r2, {r3, r4, r8, r9, sl, ip, pc}^
     1bc:	00001301 	andeq	r1, r0, r1, lsl #6
     1c0:	01828922 	orreq	r8, r2, r2, lsr #18
     1c4:	31011101 	tstcc	r1, r1, lsl #2
     1c8:	23000013 	movwcs	r0, #19
     1cc:	08030034 	stmdaeq	r3, {r2, r4, r5}
     1d0:	0b3b0b3a 	bleq	ec2ec0 <__bss_end__+0xeb8ea0>
     1d4:	0b1c1349 	bleq	704f00 <__bss_end__+0x6faee0>
     1d8:	34240000 	strtcc	r0, [r4], #-0
     1dc:	3a080300 	bcc	200de4 <__bss_end__+0x1f6dc4>
     1e0:	490b3b0b 	stmdbmi	fp, {r0, r1, r3, r8, r9, fp, ip, sp}
     1e4:	00180213 	andseq	r0, r8, r3, lsl r2
     1e8:	00342500 	eorseq	r2, r4, r0, lsl #10
     1ec:	0b3a0e03 	bleq	e83a00 <__bss_end__+0xe799e0>
     1f0:	13490b3b 	movtne	r0, #39739	; 0x9b3b
     1f4:	0000061c 	andeq	r0, r0, ip, lsl r6
     1f8:	49003526 	stmdbmi	r0, {r1, r2, r5, r8, sl, ip, sp}
     1fc:	27000013 	smladcs	r0, r3, r0, r0
     200:	193f012e 	ldmdbne	pc!, {r1, r2, r3, r5, r8}	; <UNPREDICTABLE>
     204:	0b3a0e03 	bleq	e83a18 <__bss_end__+0xe799f8>
     208:	19270b3b 	stmdbne	r7!, {r0, r1, r3, r4, r5, r8, r9, fp}
     20c:	1301193c 	movwne	r1, #6460	; 0x193c
     210:	05280000 	streq	r0, [r8, #-0]!
     214:	00134900 	andseq	r4, r3, r0, lsl #18
     218:	002e2900 	eoreq	r2, lr, r0, lsl #18
     21c:	0e03193f 	mcreq	9, 0, r1, cr3, cr15, {1}
     220:	0b3b0b3a 	bleq	ec2f10 <__bss_end__+0xeb8ef0>
     224:	193c1927 	ldmdbne	ip!, {r0, r1, r2, r5, r8, fp, ip}
     228:	2e2a0000 	cdpcs	0, 2, cr0, cr10, cr0, {0}
     22c:	03193f01 	tsteq	r9, #1, 30
     230:	3b0b3a0e 	blcc	2cea70 <__bss_end__+0x2c4a50>
     234:	4919270b 	ldmdbmi	r9, {r0, r1, r3, r8, r9, sl, sp}
     238:	01193c13 	tsteq	r9, r3, lsl ip
     23c:	2b000013 	blcs	290 <_start-0x7d70>
     240:	00000018 	andeq	r0, r0, r8, lsl r0
     244:	3f012e2c 	svccc	0x00012e2c
     248:	3a0e0319 	bcc	380eb4 <__bss_end__+0x376e94>
     24c:	270b3b0b 	strcs	r3, [fp, -fp, lsl #22]
     250:	00193c19 	andseq	r3, r9, r9, lsl ip
     254:	11010000 	mrsne	r0, (UNDEF: 1)
     258:	130e2501 	movwne	r2, #58625	; 0xe501
     25c:	1b0e030b 	blne	380e90 <__bss_end__+0x376e70>
     260:	1201110e 	andne	r1, r1, #-2147483645	; 0x80000003
     264:	00171006 	andseq	r1, r7, r6
     268:	00160200 	andseq	r0, r6, r0, lsl #4
     26c:	0b3a0e03 	bleq	e83a80 <__bss_end__+0xe79a60>
     270:	13490b3b 	movtne	r0, #39739	; 0x9b3b
     274:	13030000 	movwne	r0, #12288	; 0x3000
     278:	0b0e0301 	bleq	380e84 <__bss_end__+0x376e64>
     27c:	3b0b3a0b 	blcc	2ceab0 <__bss_end__+0x2c4a90>
     280:	0013010b 	andseq	r0, r3, fp, lsl #2
     284:	000d0400 	andeq	r0, sp, r0, lsl #8
     288:	13490e03 	movtne	r0, #40451	; 0x9e03
     28c:	19340b38 	ldmdbne	r4!, {r3, r4, r5, r8, r9, fp}
     290:	0f050000 	svceq	0x00050000
     294:	000b0b00 	andeq	r0, fp, r0, lsl #22
     298:	00240600 	eoreq	r0, r4, r0, lsl #12
     29c:	0b3e0b0b 	bleq	f82ed0 <__bss_end__+0xf78eb0>
     2a0:	00000803 	andeq	r0, r0, r3, lsl #16
     2a4:	0b002407 	bleq	92c8 <sw_uart_getc_timeout+0x150>
     2a8:	030b3e0b 	movweq	r3, #48651	; 0xbe0b
     2ac:	0800000e 	stmdaeq	r0, {r1, r2, r3}
     2b0:	0b0b000f 	bleq	2c02f4 <__bss_end__+0x2b62d4>
     2b4:	00001349 	andeq	r1, r0, r9, asr #6
     2b8:	49002609 	stmdbmi	r0, {r0, r3, r9, sl, sp}
     2bc:	0a000013 	beq	310 <_start-0x7cf0>
     2c0:	193f012e 	ldmdbne	pc!, {r1, r2, r3, r5, r8}	; <UNPREDICTABLE>
     2c4:	0b3a0e03 	bleq	e83ad8 <__bss_end__+0xe79ab8>
     2c8:	19270b3b 	stmdbne	r7!, {r0, r1, r3, r4, r5, r8, r9, fp}
     2cc:	01111349 	tsteq	r1, r9, asr #6
     2d0:	18400612 	stmdane	r0, {r1, r4, r9, sl}^
     2d4:	01194297 			; <UNDEFINED> instruction: 0x01194297
     2d8:	0b000013 	bleq	32c <_start-0x7cd4>
     2dc:	08030005 	stmdaeq	r3, {r0, r2}
     2e0:	0b3b0b3a 	bleq	ec2fd0 <__bss_end__+0xeb8fb0>
     2e4:	18021349 	stmdane	r2, {r0, r3, r6, r8, r9, ip}
     2e8:	180c0000 	stmdane	ip, {}	; <UNPREDICTABLE>
     2ec:	0d000000 	stceq	0, cr0, [r0, #-0]
     2f0:	08030034 	stmdaeq	r3, {r2, r4, r5}
     2f4:	0b3b0b3a 	bleq	ec2fe4 <__bss_end__+0xeb8fc4>
     2f8:	18021349 	stmdane	r2, {r0, r3, r6, r8, r9, ip}
     2fc:	340e0000 	strcc	r0, [lr], #-0
     300:	3a0e0300 	bcc	380f08 <__bss_end__+0x376ee8>
     304:	490b3b0b 	stmdbmi	fp, {r0, r1, r3, r8, r9, fp, ip, sp}
     308:	00180213 	andseq	r0, r8, r3, lsl r2
     30c:	00340f00 	eorseq	r0, r4, r0, lsl #30
     310:	0b3a0803 	bleq	e82324 <__bss_end__+0xe78304>
     314:	13490b3b 	movtne	r0, #39739	; 0x9b3b
     318:	00001702 	andeq	r1, r0, r2, lsl #14
     31c:	01828910 	orreq	r8, r2, r0, lsl r9
     320:	31011101 	tstcc	r1, r1, lsl #2
     324:	00130113 	andseq	r0, r3, r3, lsl r1
     328:	828a1100 	addhi	r1, sl, #0, 2
     32c:	18020001 	stmdane	r2, {r0}
     330:	00184291 	mulseq	r8, r1, r2
     334:	82891200 	addhi	r1, r9, #0, 4
     338:	01110101 	tsteq	r1, r1, lsl #2
     33c:	01130000 	tsteq	r3, r0
     340:	01134901 	tsteq	r3, r1, lsl #18
     344:	14000013 	strne	r0, [r0], #-19
     348:	13490021 	movtne	r0, #36897	; 0x9021
     34c:	0000052f 	andeq	r0, r0, pc, lsr #10
     350:	27011515 	smladcs	r1, r5, r5, r1
     354:	01134919 	tsteq	r3, r9, lsl r9
     358:	16000013 			; <UNDEFINED> instruction: 0x16000013
     35c:	13490005 	movtne	r0, #36869	; 0x9005
     360:	34170000 	ldrcc	r0, [r7], #-0
     364:	3a0e0300 	bcc	380f6c <__bss_end__+0x376f4c>
     368:	490b3b0b 	stmdbmi	fp, {r0, r1, r3, r8, r9, fp, ip, sp}
     36c:	3c193f13 	ldccc	15, cr3, [r9], {19}
     370:	18000019 	stmdane	r0, {r0, r3, r4}
     374:	193f012e 	ldmdbne	pc!, {r1, r2, r3, r5, r8}	; <UNPREDICTABLE>
     378:	0b3a0e03 	bleq	e83b8c <__bss_end__+0xe79b6c>
     37c:	19270b3b 	stmdbne	r7!, {r0, r1, r3, r4, r5, r8, r9, fp}
     380:	193c1349 	ldmdbne	ip!, {r0, r3, r6, r8, r9, ip}
     384:	01000000 	mrseq	r0, (UNDEF: 0)
     388:	0e250111 	mcreq	1, 1, r0, cr5, cr1, {0}
     38c:	0e030b13 	vmoveq.32	d3[0], r0
     390:	01110e1b 	tsteq	r1, fp, lsl lr
     394:	17100612 			; <UNDEFINED> instruction: 0x17100612
     398:	24020000 	strcs	r0, [r2], #-0
     39c:	3e0b0b00 	vmlacc.f64	d0, d11, d0
     3a0:	0008030b 	andeq	r0, r8, fp, lsl #6
     3a4:	00240300 	eoreq	r0, r4, r0, lsl #6
     3a8:	0b3e0b0b 	bleq	f82fdc <__bss_end__+0xf78fbc>
     3ac:	00000e03 	andeq	r0, r0, r3, lsl #28
     3b0:	03012e04 	movweq	r2, #7684	; 0x1e04
     3b4:	3b0b3a0e 	blcc	2cebf4 <__bss_end__+0x2c4bd4>
     3b8:	4919270b 	ldmdbmi	r9, {r0, r1, r3, r8, r9, sl, sp}
     3bc:	12011113 	andne	r1, r1, #-1073741820	; 0xc0000004
     3c0:	97184006 	ldrls	r4, [r8, -r6]
     3c4:	13011942 	movwne	r1, #6466	; 0x1942
     3c8:	05050000 	streq	r0, [r5, #-0]
     3cc:	3a080300 	bcc	200fd4 <__bss_end__+0x1f6fb4>
     3d0:	490b3b0b 	stmdbmi	fp, {r0, r1, r3, r8, r9, fp, ip, sp}
     3d4:	00170213 	andseq	r0, r7, r3, lsl r2
     3d8:	82890600 	addhi	r0, r9, #0, 12
     3dc:	01110101 	tsteq	r1, r1, lsl #2
     3e0:	00001331 	andeq	r1, r0, r1, lsr r3
     3e4:	01828a07 	orreq	r8, r2, r7, lsl #20
     3e8:	91180200 	tstls	r8, r0, lsl #4
     3ec:	00001842 	andeq	r1, r0, r2, asr #16
     3f0:	3f002e08 	svccc	0x00002e08
     3f4:	3a0e0319 	bcc	381060 <__bss_end__+0x377040>
     3f8:	270b3b0b 	strcs	r3, [fp, -fp, lsl #22]
     3fc:	12011119 	andne	r1, r1, #1073741830	; 0x40000006
     400:	97184006 	ldrls	r4, [r8, -r6]
     404:	00001942 	andeq	r1, r0, r2, asr #18
     408:	3f012e09 	svccc	0x00012e09
     40c:	3a0e0319 	bcc	381078 <__bss_end__+0x377058>
     410:	270b3b0b 	strcs	r3, [fp, -fp, lsl #22]
     414:	12011119 	andne	r1, r1, #1073741830	; 0x40000006
     418:	97184006 	ldrls	r4, [r8, -r6]
     41c:	13011942 	movwne	r1, #6466	; 0x1942
     420:	050a0000 	streq	r0, [sl, #-0]
     424:	3a080300 	bcc	20102c <__bss_end__+0x1f700c>
     428:	490b3b0b 	stmdbmi	fp, {r0, r1, r3, r8, r9, fp, ip, sp}
     42c:	00180213 	andseq	r0, r8, r3, lsl r2
     430:	01150b00 	tsteq	r5, r0, lsl #22
     434:	13491927 	movtne	r1, #39207	; 0x9927
     438:	00001301 	andeq	r1, r0, r1, lsl #6
     43c:	4900050c 	stmdbmi	r0, {r2, r3, r8, sl}
     440:	0d000013 	stceq	0, cr0, [r0, #-76]	; 0xffffffb4
     444:	0b0b000f 	bleq	2c0488 <__bss_end__+0x2b6468>
     448:	00001349 	andeq	r1, r0, r9, asr #6
     44c:	0300340e 	movweq	r3, #1038	; 0x40e
     450:	3b0b3a0e 	blcc	2cec90 <__bss_end__+0x2c4c70>
     454:	3f13490b 	svccc	0x0013490b
     458:	00180219 	andseq	r0, r8, r9, lsl r2
     45c:	012e0f00 	teqeq	lr, r0, lsl #30
     460:	0e03193f 	mcreq	9, 0, r1, cr3, cr15, {1}
     464:	0b3b0b3a 	bleq	ec3154 <__bss_end__+0xeb9134>
     468:	193c1927 	ldmdbne	ip!, {r0, r1, r2, r5, r8, fp, ip}
     46c:	01000000 	mrseq	r0, (UNDEF: 0)
     470:	0e250111 	mcreq	1, 1, r0, cr5, cr1, {0}
     474:	0e030b13 	vmoveq.32	d3[0], r0
     478:	01110e1b 	tsteq	r1, fp, lsl lr
     47c:	17100612 			; <UNDEFINED> instruction: 0x17100612
     480:	24020000 	strcs	r0, [r2], #-0
     484:	3e0b0b00 	vmlacc.f64	d0, d11, d0
     488:	0008030b 	andeq	r0, r8, fp, lsl #6
     48c:	00240300 	eoreq	r0, r4, r0, lsl #6
     490:	0b3e0b0b 	bleq	f830c4 <__bss_end__+0xf790a4>
     494:	00000e03 	andeq	r0, r0, r3, lsl #28
     498:	0b000f04 	bleq	40b0 <_start-0x3f50>
     49c:	0013490b 	andseq	r4, r3, fp, lsl #18
     4a0:	00260500 	eoreq	r0, r6, r0, lsl #10
     4a4:	00001349 	andeq	r1, r0, r9, asr #6
     4a8:	3f012e06 	svccc	0x00012e06
     4ac:	3a0e0319 	bcc	381118 <__bss_end__+0x3770f8>
     4b0:	270b3b0b 	strcs	r3, [fp, -fp, lsl #22]
     4b4:	11134919 	tstne	r3, r9, lsl r9
     4b8:	40061201 	andmi	r1, r6, r1, lsl #4
     4bc:	19429618 	stmdbne	r2, {r3, r4, r9, sl, ip, pc}^
     4c0:	00001301 	andeq	r1, r0, r1, lsl #6
     4c4:	03000507 	movweq	r0, #1287	; 0x507
     4c8:	3b0b3a08 	blcc	2cecf0 <__bss_end__+0x2c4cd0>
     4cc:	0213490b 	andseq	r4, r3, #180224	; 0x2c000
     4d0:	08000017 	stmdaeq	r0, {r0, r1, r2, r4}
     4d4:	19270115 	stmdbne	r7!, {r0, r2, r4, r8}
     4d8:	13011349 	movwne	r1, #4937	; 0x1349
     4dc:	05090000 	streq	r0, [r9, #-0]
     4e0:	00134900 	andseq	r4, r3, r0, lsl #18
     4e4:	00340a00 	eorseq	r0, r4, r0, lsl #20
     4e8:	0b3a0e03 	bleq	e83cfc <__bss_end__+0xe79cdc>
     4ec:	13490b3b 	movtne	r0, #39739	; 0x9b3b
     4f0:	193c193f 	ldmdbne	ip!, {r0, r1, r2, r3, r4, r5, r8, fp, ip}
     4f4:	340b0000 	strcc	r0, [fp], #-0
     4f8:	3a0e0300 	bcc	381100 <__bss_end__+0x3770e0>
     4fc:	490b3b0b 	stmdbmi	fp, {r0, r1, r3, r8, r9, fp, ip, sp}
     500:	02193f13 	andseq	r3, r9, #19, 30	; 0x4c
     504:	00000018 	andeq	r0, r0, r8, lsl r0
     508:	25011101 	strcs	r1, [r1, #-257]	; 0x101
     50c:	030b130e 	movweq	r1, #45838	; 0xb30e
     510:	110e1b0e 	tstne	lr, lr, lsl #22
     514:	10061201 	andne	r1, r6, r1, lsl #4
     518:	02000017 	andeq	r0, r0, #23
     51c:	0b0b0024 	bleq	2c05b4 <__bss_end__+0x2b6594>
     520:	08030b3e 	stmdaeq	r3, {r1, r2, r3, r4, r5, r8, r9, fp}
     524:	24030000 	strcs	r0, [r3], #-0
     528:	3e0b0b00 	vmlacc.f64	d0, d11, d0
     52c:	000e030b 	andeq	r0, lr, fp, lsl #6
     530:	000f0400 	andeq	r0, pc, r0, lsl #8
     534:	00000b0b 	andeq	r0, r0, fp, lsl #22
     538:	0b000f05 	bleq	4154 <_start-0x3eac>
     53c:	0013490b 	andseq	r4, r3, fp, lsl #18
     540:	00260600 	eoreq	r0, r6, r0, lsl #12
     544:	00001349 	andeq	r1, r0, r9, asr #6
     548:	03001607 	movweq	r1, #1543	; 0x607
     54c:	3b0b3a0e 	blcc	2ced8c <__bss_end__+0x2c4d6c>
     550:	0013490b 	andseq	r4, r3, fp, lsl #18
     554:	01130800 	tsteq	r3, r0, lsl #16
     558:	0b0b0e03 	bleq	2c3d6c <__bss_end__+0x2b9d4c>
     55c:	0b3b0b3a 	bleq	ec324c <__bss_end__+0xeb922c>
     560:	00001301 	andeq	r1, r0, r1, lsl #6
     564:	03000d09 	movweq	r0, #3337	; 0xd09
     568:	3813490e 	ldmdacc	r3, {r1, r2, r3, r8, fp, lr}
     56c:	0019340b 	andseq	r3, r9, fp, lsl #8
     570:	012e0a00 	teqeq	lr, r0, lsl #20
     574:	0b3a0e03 	bleq	e83d88 <__bss_end__+0xe79d68>
     578:	19270b3b 	stmdbne	r7!, {r0, r1, r3, r4, r5, r8, r9, fp}
     57c:	01111349 	tsteq	r1, r9, asr #6
     580:	18400612 	stmdane	r0, {r1, r4, r9, sl}^
     584:	01194297 			; <UNDEFINED> instruction: 0x01194297
     588:	0b000013 	bleq	5dc <_start-0x7a24>
     58c:	08030005 	stmdaeq	r3, {r0, r2}
     590:	0b3b0b3a 	bleq	ec3280 <__bss_end__+0xeb9260>
     594:	17021349 	strne	r1, [r2, -r9, asr #6]
     598:	2e0c0000 	cdpcs	0, 0, cr0, cr12, cr0, {0}
     59c:	3a080301 	bcc	2011a8 <__bss_end__+0x1f7188>
     5a0:	270b3b0b 	strcs	r3, [fp, -fp, lsl #22]
     5a4:	11134919 	tstne	r3, r9, lsl r9
     5a8:	40061201 	andmi	r1, r6, r1, lsl #4
     5ac:	19429718 	stmdbne	r2, {r3, r4, r8, r9, sl, ip, pc}^
     5b0:	00001301 	andeq	r1, r0, r1, lsl #6
     5b4:	0300050d 	movweq	r0, #1293	; 0x50d
     5b8:	3b0b3a0e 	blcc	2cedf8 <__bss_end__+0x2c4dd8>
     5bc:	0213490b 	andseq	r4, r3, #180224	; 0x2c000
     5c0:	0e000017 	mcreq	0, 0, r0, cr0, cr7, {0}
     5c4:	0e030005 	cdpeq	0, 0, cr0, cr3, cr5, {0}
     5c8:	0b3b0b3a 	bleq	ec32b8 <__bss_end__+0xeb9298>
     5cc:	18021349 	stmdane	r2, {r0, r3, r6, r8, r9, ip}
     5d0:	340f0000 	strcc	r0, [pc], #-0	; 5d8 <_start-0x7a28>
     5d4:	3a080300 	bcc	2011dc <__bss_end__+0x1f71bc>
     5d8:	490b3b0b 	stmdbmi	fp, {r0, r1, r3, r8, r9, fp, ip, sp}
     5dc:	00180213 	andseq	r0, r8, r3, lsl r2
     5e0:	00341000 	eorseq	r1, r4, r0
     5e4:	0b3a0803 	bleq	e825f8 <__bss_end__+0xe785d8>
     5e8:	13490b3b 	movtne	r0, #39739	; 0x9b3b
     5ec:	00001702 	andeq	r1, r0, r2, lsl #14
     5f0:	03003411 	movweq	r3, #1041	; 0x411
     5f4:	3413490e 	ldrcc	r4, [r3], #-2318	; 0x90e
     5f8:	00180219 	andseq	r0, r8, r9, lsl r2
     5fc:	010b1200 	mrseq	r1, R11_fiq
     600:	06120111 			; <UNDEFINED> instruction: 0x06120111
     604:	00001301 	andeq	r1, r0, r1, lsl #6
     608:	03003413 	movweq	r3, #1043	; 0x413
     60c:	3b0b3a0e 	blcc	2cee4c <__bss_end__+0x2c4e2c>
     610:	0213490b 	andseq	r4, r3, #180224	; 0x2c000
     614:	14000017 	strne	r0, [r0], #-23
     618:	00018289 	andeq	r8, r1, r9, lsl #5
     61c:	13310111 	teqne	r1, #1073741828	; 0x40000004
     620:	89150000 	ldmdbhi	r5, {}	; <UNPREDICTABLE>
     624:	11010182 	smlabbne	r1, r2, r1, r0
     628:	01133101 	tsteq	r3, r1, lsl #2
     62c:	16000013 			; <UNDEFINED> instruction: 0x16000013
     630:	0001828a 	andeq	r8, r1, sl, lsl #5
     634:	42911802 	addsmi	r1, r1, #131072	; 0x20000
     638:	17000018 	smladne	r0, r8, r0, r0
     63c:	01018289 	smlabbeq	r1, r9, r2, r8
     640:	13310111 	teqne	r1, #1073741828	; 0x40000004
     644:	01180000 	tsteq	r8, r0
     648:	01134901 	tsteq	r3, r1, lsl #18
     64c:	19000013 	stmdbne	r0, {r0, r1, r4}
     650:	13490021 	movtne	r0, #36897	; 0x9021
     654:	00000b2f 	andeq	r0, r0, pc, lsr #22
     658:	3f012e1a 	svccc	0x00012e1a
     65c:	3a0e0319 	bcc	3812c8 <__bss_end__+0x3772a8>
     660:	270b3b0b 	strcs	r3, [fp, -fp, lsl #22]
     664:	12011119 	andne	r1, r1, #1073741830	; 0x40000006
     668:	97184006 	ldrls	r4, [r8, -r6]
     66c:	13011942 	movwne	r1, #6466	; 0x1942
     670:	151b0000 	ldrne	r0, [fp, #-0]
     674:	49192701 	ldmdbmi	r9, {r0, r8, r9, sl, sp}
     678:	00130113 	andseq	r0, r3, r3, lsl r1
     67c:	00051c00 	andeq	r1, r5, r0, lsl #24
     680:	00001349 	andeq	r1, r0, r9, asr #6
     684:	3f012e1d 	svccc	0x00012e1d
     688:	3a0e0319 	bcc	3812f4 <__bss_end__+0x3772d4>
     68c:	270b3b0b 	strcs	r3, [fp, -fp, lsl #22]
     690:	11134919 	tstne	r3, r9, lsl r9
     694:	40061201 	andmi	r1, r6, r1, lsl #4
     698:	19429718 	stmdbne	r2, {r3, r4, r8, r9, sl, ip, pc}^
     69c:	00001301 	andeq	r1, r0, r1, lsl #6
     6a0:	55010b1e 	strpl	r0, [r1, #-2846]	; 0xb1e
     6a4:	1f000017 	svcne	0x00000017
     6a8:	0e030034 	mcreq	0, 0, r0, cr3, cr4, {1}
     6ac:	0b3b0b3a 	bleq	ec339c <__bss_end__+0xeb937c>
     6b0:	193f1349 	ldmdbne	pc!, {r0, r3, r6, r8, r9, ip}	; <UNPREDICTABLE>
     6b4:	0000193c 	andeq	r1, r0, ip, lsr r9
     6b8:	3f002e20 	svccc	0x00002e20
     6bc:	3a0e0319 	bcc	381328 <__bss_end__+0x377308>
     6c0:	270b3b0b 	strcs	r3, [fp, -fp, lsl #22]
     6c4:	00193c19 	andseq	r3, r9, r9, lsl ip
     6c8:	012e2100 	teqeq	lr, r0, lsl #2
     6cc:	0e03193f 	mcreq	9, 0, r1, cr3, cr15, {1}
     6d0:	0b3b0b3a 	bleq	ec33c0 <__bss_end__+0xeb93a0>
     6d4:	13491927 	movtne	r1, #39207	; 0x9927
     6d8:	1301193c 	movwne	r1, #6460	; 0x193c
     6dc:	18220000 	stmdane	r2!, {}	; <UNPREDICTABLE>
     6e0:	00000000 	andeq	r0, r0, r0
     6e4:	25011101 	strcs	r1, [r1, #-257]	; 0x101
     6e8:	030b130e 	movweq	r1, #45838	; 0xb30e
     6ec:	110e1b0e 	tstne	lr, lr, lsl #22
     6f0:	10061201 	andne	r1, r6, r1, lsl #4
     6f4:	02000017 	andeq	r0, r0, #23
     6f8:	0b0b0024 	bleq	2c0790 <__bss_end__+0x2b6770>
     6fc:	08030b3e 	stmdaeq	r3, {r1, r2, r3, r4, r5, r8, r9, fp}
     700:	24030000 	strcs	r0, [r3], #-0
     704:	3e0b0b00 	vmlacc.f64	d0, d11, d0
     708:	000e030b 	andeq	r0, lr, fp, lsl #6
     70c:	012e0400 	teqeq	lr, r0, lsl #8
     710:	0e03193f 	mcreq	9, 0, r1, cr3, cr15, {1}
     714:	0b3b0b3a 	bleq	ec3404 <__bss_end__+0xeb93e4>
     718:	01111927 	tsteq	r1, r7, lsr #18
     71c:	18400612 	stmdane	r0, {r1, r4, r9, sl}^
     720:	01194297 			; <UNDEFINED> instruction: 0x01194297
     724:	05000013 	streq	r0, [r0, #-19]
     728:	08030034 	stmdaeq	r3, {r2, r4, r5}
     72c:	0b3b0b3a 	bleq	ec341c <__bss_end__+0xeb93fc>
     730:	17021349 	strne	r1, [r2, -r9, asr #6]
     734:	2e060000 	cdpcs	0, 0, cr0, cr6, cr0, {0}
     738:	03193f01 	tsteq	r9, #1, 30
     73c:	3b0b3a0e 	blcc	2cef7c <__bss_end__+0x2c4f5c>
     740:	1119270b 	tstne	r9, fp, lsl #14
     744:	40061201 	andmi	r1, r6, r1, lsl #4
     748:	19429718 	stmdbne	r2, {r3, r4, r8, r9, sl, ip, pc}^
     74c:	01000000 	mrseq	r0, (UNDEF: 0)
     750:	0e250111 	mcreq	1, 1, r0, cr5, cr1, {0}
     754:	0e030b13 	vmoveq.32	d3[0], r0
     758:	01110e1b 	tsteq	r1, fp, lsl lr
     75c:	17100612 			; <UNDEFINED> instruction: 0x17100612
     760:	24020000 	strcs	r0, [r2], #-0
     764:	3e0b0b00 	vmlacc.f64	d0, d11, d0
     768:	0008030b 	andeq	r0, r8, fp, lsl #6
     76c:	00240300 	eoreq	r0, r4, r0, lsl #6
     770:	0b3e0b0b 	bleq	f833a4 <__bss_end__+0xf79384>
     774:	00000e03 	andeq	r0, r0, r3, lsl #28
     778:	0b000f04 	bleq	4390 <_start-0x3c70>
     77c:	0013490b 	andseq	r4, r3, fp, lsl #18
     780:	00260500 	eoreq	r0, r6, r0, lsl #10
     784:	00001349 	andeq	r1, r0, r9, asr #6
     788:	3f012e06 	svccc	0x00012e06
     78c:	3a0e0319 	bcc	3813f8 <__bss_end__+0x3773d8>
     790:	270b3b0b 	strcs	r3, [fp, -fp, lsl #22]
     794:	12011119 	andne	r1, r1, #1073741830	; 0x40000006
     798:	97184006 	ldrls	r4, [r8, -r6]
     79c:	13011942 	movwne	r1, #6466	; 0x1942
     7a0:	89070000 	stmdbhi	r7, {}	; <UNPREDICTABLE>
     7a4:	11010182 	smlabbne	r1, r2, r1, r0
     7a8:	00130101 	andseq	r0, r3, r1, lsl #2
     7ac:	828a0800 	addhi	r0, sl, #0, 16
     7b0:	18020001 	stmdane	r2, {r0}
     7b4:	00184291 	mulseq	r8, r1, r2
     7b8:	82890900 	addhi	r0, r9, #0, 18
     7bc:	01110101 	tsteq	r1, r1, lsl #2
     7c0:	13011331 	movwne	r1, #4913	; 0x1331
     7c4:	890a0000 	stmdbhi	sl, {}	; <UNPREDICTABLE>
     7c8:	11000182 	smlabbne	r0, r2, r1, r0
     7cc:	00133101 	andseq	r3, r3, r1, lsl #2
     7d0:	01150b00 	tsteq	r5, r0, lsl #22
     7d4:	13491927 	movtne	r1, #39207	; 0x9927
     7d8:	00001301 	andeq	r1, r0, r1, lsl #6
     7dc:	4900050c 	stmdbmi	r0, {r2, r3, r8, sl}
     7e0:	0d000013 	stceq	0, cr0, [r0, #-76]	; 0xffffffb4
     7e4:	0e030034 	mcreq	0, 0, r0, cr3, cr4, {1}
     7e8:	0b3b0b3a 	bleq	ec34d8 <__bss_end__+0xeb94b8>
     7ec:	193f1349 	ldmdbne	pc!, {r0, r3, r6, r8, r9, ip}	; <UNPREDICTABLE>
     7f0:	0000193c 	andeq	r1, r0, ip, lsr r9
     7f4:	3f012e0e 	svccc	0x00012e0e
     7f8:	3a0e0319 	bcc	381464 <__bss_end__+0x377444>
     7fc:	270b3b0b 	strcs	r3, [fp, -fp, lsl #22]
     800:	01193c19 	tsteq	r9, r9, lsl ip
     804:	0f000013 	svceq	0x00000013
     808:	193f002e 	ldmdbne	pc!, {r1, r2, r3, r5}	; <UNPREDICTABLE>
     80c:	0b3a0e03 	bleq	e84020 <__bss_end__+0xe7a000>
     810:	19270b3b 	stmdbne	r7!, {r0, r1, r3, r4, r5, r8, r9, fp}
     814:	0000193c 	andeq	r1, r0, ip, lsr r9
     818:	01110100 	tsteq	r1, r0, lsl #2
     81c:	0b130e25 	bleq	4c40b8 <__bss_end__+0x4ba098>
     820:	0e1b0e03 	cdpeq	14, 1, cr0, cr11, cr3, {0}
     824:	06120111 			; <UNDEFINED> instruction: 0x06120111
     828:	00001710 	andeq	r1, r0, r0, lsl r7
     82c:	0b002402 	bleq	983c <GETPC+0x4>
     830:	030b3e0b 	movweq	r3, #48651	; 0xbe0b
     834:	03000008 	movweq	r0, #8
     838:	0b0b0024 	bleq	2c08d0 <__bss_end__+0x2b68b0>
     83c:	0e030b3e 	vmoveq.16	d3[0], r0
     840:	16040000 	strne	r0, [r4], -r0
     844:	3a0e0300 	bcc	38144c <__bss_end__+0x37742c>
     848:	490b3b0b 	stmdbmi	fp, {r0, r1, r3, r8, r9, fp, ip, sp}
     84c:	05000013 	streq	r0, [r0, #-19]
     850:	0b0b000f 	bleq	2c0894 <__bss_end__+0x2b6874>
     854:	00001349 	andeq	r1, r0, r9, asr #6
     858:	49002606 	stmdbmi	r0, {r1, r2, r9, sl, sp}
     85c:	07000013 	smladeq	r0, r3, r0, r0
     860:	0b0b0113 	bleq	2c0cb4 <__bss_end__+0x2b6c94>
     864:	0b3b0b3a 	bleq	ec3554 <__bss_end__+0xeb9534>
     868:	00001301 	andeq	r1, r0, r1, lsl #6
     86c:	03000d08 	movweq	r0, #3336	; 0xd08
     870:	3b0b3a08 	blcc	2cf098 <__bss_end__+0x2c5078>
     874:	3813490b 	ldmdacc	r3, {r0, r1, r3, r8, fp, lr}
     878:	0900000b 	stmdbeq	r0, {r0, r1, r3}
     87c:	0e03000d 	cdpeq	0, 0, cr0, cr3, cr13, {0}
     880:	0b3b0b3a 	bleq	ec3570 <__bss_end__+0xeb9550>
     884:	0b381349 	bleq	e055b0 <__bss_end__+0xdfb590>
     888:	040a0000 	streq	r0, [sl], #-0
     88c:	3a0b0b01 	bcc	2c3498 <__bss_end__+0x2b9478>
     890:	010b3b0b 	tsteq	fp, fp, lsl #22
     894:	0b000013 	bleq	8e8 <_start-0x7718>
     898:	0e030028 	cdpeq	0, 0, cr0, cr3, cr8, {1}
     89c:	00000d1c 	andeq	r0, r0, ip, lsl sp
     8a0:	03012e0c 	movweq	r2, #7692	; 0x1e0c
     8a4:	3b0b3a0e 	blcc	2cf0e4 <__bss_end__+0x2c50c4>
     8a8:	4919270b 	ldmdbmi	r9, {r0, r1, r3, r8, r9, sl, sp}
     8ac:	12011113 	andne	r1, r1, #-1073741820	; 0xc0000004
     8b0:	97184006 	ldrls	r4, [r8, -r6]
     8b4:	13011942 	movwne	r1, #6466	; 0x1942
     8b8:	050d0000 	streq	r0, [sp, #-0]
     8bc:	3a080300 	bcc	2014c4 <__bss_end__+0x1f74a4>
     8c0:	490b3b0b 	stmdbmi	fp, {r0, r1, r3, r8, r9, fp, ip, sp}
     8c4:	00170213 	andseq	r0, r7, r3, lsl r2
     8c8:	82890e00 	addhi	r0, r9, #0, 28
     8cc:	01110101 	tsteq	r1, r1, lsl #2
     8d0:	00001331 	andeq	r1, r0, r1, lsr r3
     8d4:	01828a0f 	orreq	r8, r2, pc, lsl #20
     8d8:	91180200 	tstls	r8, r0, lsl #4
     8dc:	00001842 	andeq	r1, r0, r2, asr #16
     8e0:	3f012e10 	svccc	0x00012e10
     8e4:	3a0e0319 	bcc	381550 <__bss_end__+0x377530>
     8e8:	110b3b0b 	tstne	fp, fp, lsl #22
     8ec:	40061201 	andmi	r1, r6, r1, lsl #4
     8f0:	19429718 	stmdbne	r2, {r3, r4, r8, r9, sl, ip, pc}^
     8f4:	00001301 	andeq	r1, r0, r1, lsl #6
     8f8:	03003411 	movweq	r3, #1041	; 0x411
     8fc:	3b0b3a0e 	blcc	2cf13c <__bss_end__+0x2c511c>
     900:	3f13490b 	svccc	0x0013490b
     904:	00193c19 	andseq	r3, r9, r9, lsl ip
     908:	002e1200 	eoreq	r1, lr, r0, lsl #4
     90c:	0e03193f 	mcreq	9, 0, r1, cr3, cr15, {1}
     910:	0b3b0b3a 	bleq	ec3600 <__bss_end__+0xeb95e0>
     914:	193c1927 	ldmdbne	ip!, {r0, r1, r2, r5, r8, fp, ip}
     918:	34130000 	ldrcc	r0, [r3], #-0
     91c:	3a080300 	bcc	201524 <__bss_end__+0x1f7504>
     920:	490b3b0b 	stmdbmi	fp, {r0, r1, r3, r8, r9, fp, ip, sp}
     924:	00170213 	andseq	r0, r7, r3, lsl r2
     928:	00341400 	eorseq	r1, r4, r0, lsl #8
     92c:	0b3a0e03 	bleq	e84140 <__bss_end__+0xe7a120>
     930:	13490b3b 	movtne	r0, #39739	; 0x9b3b
     934:	89150000 	ldmdbhi	r5, {}	; <UNPREDICTABLE>
     938:	11000182 	smlabbne	r0, r2, r1, r0
     93c:	00133101 	andseq	r3, r3, r1, lsl #2
     940:	82891600 	addhi	r1, r9, #0, 12
     944:	01110101 	tsteq	r1, r1, lsl #2
     948:	13011331 	movwne	r1, #4913	; 0x1331
     94c:	34170000 	ldrcc	r0, [r7], #-0
     950:	3a0e0300 	bcc	381558 <__bss_end__+0x377538>
     954:	490b3b0b 	stmdbmi	fp, {r0, r1, r3, r8, r9, fp, ip, sp}
     958:	00180213 	andseq	r0, r8, r3, lsl r2
     95c:	01151800 	tsteq	r5, r0, lsl #16
     960:	13491927 	movtne	r1, #39207	; 0x9927
     964:	00001301 	andeq	r1, r0, r1, lsl #6
     968:	49000519 	stmdbmi	r0, {r0, r3, r4, r8, sl}
     96c:	1a000013 	bne	9c0 <_start-0x7640>
     970:	193f012e 	ldmdbne	pc!, {r1, r2, r3, r5, r8}	; <UNPREDICTABLE>
     974:	0b3a0e03 	bleq	e84188 <__bss_end__+0xe7a168>
     978:	19270b3b 	stmdbne	r7!, {r0, r1, r3, r4, r5, r8, r9, fp}
     97c:	1301193c 	movwne	r1, #6460	; 0x193c
     980:	2e1b0000 	cdpcs	0, 1, cr0, cr11, cr0, {0}
     984:	03193f00 	tsteq	r9, #0, 30
     988:	3b0b3a0e 	blcc	2cf1c8 <__bss_end__+0x2c51a8>
     98c:	4919270b 	ldmdbmi	r9, {r0, r1, r3, r8, r9, sl, sp}
     990:	00193c13 	andseq	r3, r9, r3, lsl ip
     994:	012e1c00 	teqeq	lr, r0, lsl #24
     998:	0e03193f 	mcreq	9, 0, r1, cr3, cr15, {1}
     99c:	0b3b0b3a 	bleq	ec368c <__bss_end__+0xeb966c>
     9a0:	13491927 	movtne	r1, #39207	; 0x9927
     9a4:	1301193c 	movwne	r1, #6460	; 0x193c
     9a8:	181d0000 	ldmdane	sp, {}	; <UNPREDICTABLE>
     9ac:	00000000 	andeq	r0, r0, r0
     9b0:	25011101 	strcs	r1, [r1, #-257]	; 0x101
     9b4:	030b130e 	movweq	r1, #45838	; 0xb30e
     9b8:	550e1b0e 	strpl	r1, [lr, #-2830]	; 0xb0e
     9bc:	10011117 	andne	r1, r1, r7, lsl r1
     9c0:	02000017 	andeq	r0, r0, #23
     9c4:	0b0b0024 	bleq	2c0a5c <__bss_end__+0x2b6a3c>
     9c8:	08030b3e 	stmdaeq	r3, {r1, r2, r3, r4, r5, r8, r9, fp}
     9cc:	24030000 	strcs	r0, [r3], #-0
     9d0:	3e0b0b00 	vmlacc.f64	d0, d11, d0
     9d4:	000e030b 	andeq	r0, lr, fp, lsl #6
     9d8:	012e0400 	teqeq	lr, r0, lsl #8
     9dc:	0e03193f 	mcreq	9, 0, r1, cr3, cr15, {1}
     9e0:	0b3b0b3a 	bleq	ec36d0 <__bss_end__+0xeb96b0>
     9e4:	13491927 	movtne	r1, #39207	; 0x9927
     9e8:	06120111 			; <UNDEFINED> instruction: 0x06120111
     9ec:	42971840 	addsmi	r1, r7, #64, 16	; 0x400000
     9f0:	00130119 	andseq	r0, r3, r9, lsl r1
     9f4:	00340500 	eorseq	r0, r4, r0, lsl #10
     9f8:	0b3a0e03 	bleq	e8420c <__bss_end__+0xe7a1ec>
     9fc:	13490b3b 	movtne	r0, #39739	; 0x9b3b
     a00:	00001702 	andeq	r1, r0, r2, lsl #14
     a04:	3f012e06 	svccc	0x00012e06
     a08:	3a0e0319 	bcc	381674 <__bss_end__+0x377654>
     a0c:	270b3b0b 	strcs	r3, [fp, -fp, lsl #22]
     a10:	12011119 	andne	r1, r1, #1073741830	; 0x40000006
     a14:	97184006 	ldrls	r4, [r8, -r6]
     a18:	13011942 	movwne	r1, #6466	; 0x1942
     a1c:	34070000 	strcc	r0, [r7], #-0
     a20:	3a0e0300 	bcc	381628 <__bss_end__+0x377608>
     a24:	490b3b0b 	stmdbmi	fp, {r0, r1, r3, r8, r9, fp, ip, sp}
     a28:	00061c13 	andeq	r1, r6, r3, lsl ip
     a2c:	00340800 	eorseq	r0, r4, r0, lsl #16
     a30:	0b3a0e03 	bleq	e84244 <__bss_end__+0xe7a224>
     a34:	13490b3b 	movtne	r0, #39739	; 0x9b3b
     a38:	00000b1c 	andeq	r0, r0, ip, lsl fp
     a3c:	01828909 	orreq	r8, r2, r9, lsl #18
     a40:	31011100 	mrscc	r1, (UNDEF: 17)
     a44:	0a000013 	beq	a98 <_start-0x7568>
     a48:	01018289 	smlabbeq	r1, r9, r2, r8
     a4c:	13310111 	teqne	r1, #1073741828	; 0x40000004
     a50:	00001301 	andeq	r1, r0, r1, lsl #6
     a54:	01828a0b 	orreq	r8, r2, fp, lsl #20
     a58:	91180200 	tstls	r8, r0, lsl #4
     a5c:	00001842 	andeq	r1, r0, r2, asr #16
     a60:	0182890c 	orreq	r8, r2, ip, lsl #18
     a64:	31011101 	tstcc	r1, r1, lsl #2
     a68:	0d000013 	stceq	0, cr0, [r0, #-76]	; 0xffffffb4
     a6c:	13490026 	movtne	r0, #36902	; 0x9026
     a70:	2e0e0000 	cdpcs	0, 0, cr0, cr14, cr0, {0}
     a74:	03193f01 	tsteq	r9, #1, 30
     a78:	3b0b3a0e 	blcc	2cf2b8 <__bss_end__+0x2c5298>
     a7c:	3c19270b 	ldccc	7, cr2, [r9], {11}
     a80:	00130119 	andseq	r0, r3, r9, lsl r1
     a84:	00050f00 	andeq	r0, r5, r0, lsl #30
     a88:	00001349 	andeq	r1, r0, r9, asr #6
     a8c:	3f012e10 	svccc	0x00012e10
     a90:	3a0e0319 	bcc	3816fc <__bss_end__+0x3776dc>
     a94:	270b3b0b 	strcs	r3, [fp, -fp, lsl #22]
     a98:	00193c19 	andseq	r3, r9, r9, lsl ip
     a9c:	11010000 	mrsne	r0, (UNDEF: 1)
     aa0:	130e2501 	movwne	r2, #58625	; 0xe501
     aa4:	1b0e030b 	blne	3816d8 <__bss_end__+0x3776b8>
     aa8:	1201110e 	andne	r1, r1, #-2147483645	; 0x80000003
     aac:	00171006 	andseq	r1, r7, r6
     ab0:	00240200 	eoreq	r0, r4, r0, lsl #4
     ab4:	0b3e0b0b 	bleq	f836e8 <__bss_end__+0xf796c8>
     ab8:	00000803 	andeq	r0, r0, r3, lsl #16
     abc:	0b002403 	bleq	9ad0 <__FUNCTION__.4287+0xe4>
     ac0:	030b3e0b 	movweq	r3, #48651	; 0xbe0b
     ac4:	0400000e 	streq	r0, [r0], #-14
     ac8:	193f012e 	ldmdbne	pc!, {r1, r2, r3, r5, r8}	; <UNPREDICTABLE>
     acc:	0b3a0e03 	bleq	e842e0 <__bss_end__+0xe7a2c0>
     ad0:	19270b3b 	stmdbne	r7!, {r0, r1, r3, r4, r5, r8, r9, fp}
     ad4:	06120111 			; <UNDEFINED> instruction: 0x06120111
     ad8:	42971840 	addsmi	r1, r7, #64, 16	; 0x400000
     adc:	00130119 	andseq	r0, r3, r9, lsl r1
     ae0:	00050500 	andeq	r0, r5, r0, lsl #10
     ae4:	0b3a0e03 	bleq	e842f8 <__bss_end__+0xe7a2d8>
     ae8:	13490b3b 	movtne	r0, #39739	; 0x9b3b
     aec:	00001702 	andeq	r1, r0, r2, lsl #14
     af0:	3f012e06 	svccc	0x00012e06
     af4:	3a0e0319 	bcc	381760 <__bss_end__+0x377740>
     af8:	270b3b0b 	strcs	r3, [fp, -fp, lsl #22]
     afc:	11134919 	tstne	r3, r9, lsl r9
     b00:	40061201 	andmi	r1, r6, r1, lsl #4
     b04:	19429718 	stmdbne	r2, {r3, r4, r8, r9, sl, ip, pc}^
     b08:	00001301 	andeq	r1, r0, r1, lsl #6
     b0c:	01828907 	orreq	r8, r2, r7, lsl #18
     b10:	31011101 	tstcc	r1, r1, lsl #2
     b14:	08000013 	stmdaeq	r0, {r0, r1, r4}
     b18:	0001828a 	andeq	r8, r1, sl, lsl #5
     b1c:	42911802 	addsmi	r1, r1, #131072	; 0x20000
     b20:	09000018 	stmdbeq	r0, {r3, r4}
     b24:	08030034 	stmdaeq	r3, {r2, r4, r5}
     b28:	0b3b0b3a 	bleq	ec3818 <__bss_end__+0xeb97f8>
     b2c:	18021349 	stmdane	r2, {r0, r3, r6, r8, r9, ip}
     b30:	890a0000 	stmdbhi	sl, {}	; <UNPREDICTABLE>
     b34:	11000182 	smlabbne	r0, r2, r1, r0
     b38:	00133101 	andseq	r3, r3, r1, lsl #2
     b3c:	00050b00 	andeq	r0, r5, r0, lsl #22
     b40:	0b3a0803 	bleq	e82b54 <__bss_end__+0xe78b34>
     b44:	13490b3b 	movtne	r0, #39739	; 0x9b3b
     b48:	00001702 	andeq	r1, r0, r2, lsl #14
     b4c:	11010b0c 	tstne	r1, ip, lsl #22
     b50:	01061201 	tsteq	r6, r1, lsl #4
     b54:	0d000013 	stceq	0, cr0, [r0, #-76]	; 0xffffffb4
     b58:	08030034 	stmdaeq	r3, {r2, r4, r5}
     b5c:	0b3b0b3a 	bleq	ec384c <__bss_end__+0xeb982c>
     b60:	17021349 	strne	r1, [r2, -r9, asr #6]
     b64:	2e0e0000 	cdpcs	0, 0, cr0, cr14, cr0, {0}
     b68:	03193f01 	tsteq	r9, #1, 30
     b6c:	3b0b3a0e 	blcc	2cf3ac <__bss_end__+0x2c538c>
     b70:	4919270b 	ldmdbmi	r9, {r0, r1, r3, r8, r9, sl, sp}
     b74:	00193c13 	andseq	r3, r9, r3, lsl ip
     b78:	00050f00 	andeq	r0, r5, r0, lsl #30
     b7c:	00001349 	andeq	r1, r0, r9, asr #6
     b80:	01110100 	tsteq	r1, r0, lsl #2
     b84:	0b130e25 	bleq	4c4420 <__bss_end__+0x4ba400>
     b88:	0e1b0e03 	cdpeq	14, 1, cr0, cr11, cr3, {0}
     b8c:	06120111 			; <UNDEFINED> instruction: 0x06120111
     b90:	00001710 	andeq	r1, r0, r0, lsl r7
     b94:	0b002402 	bleq	9ba4 <__FUNCTION__.4376+0x4c>
     b98:	030b3e0b 	movweq	r3, #48651	; 0xbe0b
     b9c:	0300000e 	movweq	r0, #14
     ba0:	0b0b0024 	bleq	2c0c38 <__bss_end__+0x2b6c18>
     ba4:	08030b3e 	stmdaeq	r3, {r1, r2, r3, r4, r5, r8, r9, fp}
     ba8:	04040000 	streq	r0, [r4], #-0
     bac:	3a0b0b01 	bcc	2c37b8 <__bss_end__+0x2b9798>
     bb0:	010b3b0b 	tsteq	fp, fp, lsl #22
     bb4:	05000013 	streq	r0, [r0, #-19]
     bb8:	0e030028 	cdpeq	0, 0, cr0, cr3, cr8, {1}
     bbc:	00000d1c 	andeq	r0, r0, ip, lsl sp
     bc0:	03001606 	movweq	r1, #1542	; 0x606
     bc4:	3b0b3a0e 	blcc	2cf404 <__bss_end__+0x2c53e4>
     bc8:	0013490b 	andseq	r4, r3, fp, lsl #18
     bcc:	012e0700 	teqeq	lr, r0, lsl #14
     bd0:	0e03193f 	mcreq	9, 0, r1, cr3, cr15, {1}
     bd4:	0b3b0b3a 	bleq	ec38c4 <__bss_end__+0xeb98a4>
     bd8:	01111927 	tsteq	r1, r7, lsr #18
     bdc:	18400612 	stmdane	r0, {r1, r4, r9, sl}^
     be0:	01194297 			; <UNDEFINED> instruction: 0x01194297
     be4:	08000013 	stmdaeq	r0, {r0, r1, r4}
     be8:	08030005 	stmdaeq	r3, {r0, r2}
     bec:	0b3b0b3a 	bleq	ec38dc <__bss_end__+0xeb98bc>
     bf0:	17021349 	strne	r1, [r2, -r9, asr #6]
     bf4:	34090000 	strcc	r0, [r9], #-0
     bf8:	3a0e0300 	bcc	381800 <__bss_end__+0x3777e0>
     bfc:	490b3b0b 	stmdbmi	fp, {r0, r1, r3, r8, r9, fp, ip, sp}
     c00:	00170213 	andseq	r0, r7, r3, lsl r2
     c04:	82890a00 	addhi	r0, r9, #0, 20
     c08:	01110101 	tsteq	r1, r1, lsl #2
     c0c:	13011331 	movwne	r1, #4913	; 0x1331
     c10:	8a0b0000 	bhi	2c0c18 <__bss_end__+0x2b6bf8>
     c14:	02000182 	andeq	r0, r0, #-2147483616	; 0x80000020
     c18:	18429118 	stmdane	r2, {r3, r4, r8, ip, pc}^
     c1c:	890c0000 	stmdbhi	ip, {}	; <UNPREDICTABLE>
     c20:	11010182 	smlabbne	r1, r2, r1, r0
     c24:	00133101 	andseq	r3, r3, r1, lsl #2
     c28:	000f0d00 	andeq	r0, pc, r0, lsl #26
     c2c:	13490b0b 	movtne	r0, #39691	; 0x9b0b
     c30:	350e0000 	strcc	r0, [lr, #-0]
     c34:	00134900 	andseq	r4, r3, r0, lsl #18
     c38:	012e0f00 	teqeq	lr, r0, lsl #30
     c3c:	0e03193f 	mcreq	9, 0, r1, cr3, cr15, {1}
     c40:	0b3b0b3a 	bleq	ec3930 <__bss_end__+0xeb9910>
     c44:	13491927 	movtne	r1, #39207	; 0x9927
     c48:	06120111 			; <UNDEFINED> instruction: 0x06120111
     c4c:	42971840 	addsmi	r1, r7, #64, 16	; 0x400000
     c50:	00130119 	andseq	r0, r3, r9, lsl r1
     c54:	00341000 	eorseq	r1, r4, r0
     c58:	0b3a0803 	bleq	e82c6c <__bss_end__+0xe78c4c>
     c5c:	13490b3b 	movtne	r0, #39739	; 0x9b3b
     c60:	00001702 	andeq	r1, r0, r2, lsl #14
     c64:	01828911 	orreq	r8, r2, r1, lsl r9
     c68:	31011100 	mrscc	r1, (UNDEF: 17)
     c6c:	12000013 	andne	r0, r0, #19
     c70:	0e030005 	cdpeq	0, 0, cr0, cr3, cr5, {0}
     c74:	0b3b0b3a 	bleq	ec3964 <__bss_end__+0xeb9944>
     c78:	17021349 	strne	r1, [r2, -r9, asr #6]
     c7c:	2e130000 	cdpcs	0, 1, cr0, cr3, cr0, {0}
     c80:	03193f01 	tsteq	r9, #1, 30
     c84:	3b0b3a0e 	blcc	2cf4c4 <__bss_end__+0x2c54a4>
     c88:	49192705 	ldmdbmi	r9, {r0, r2, r8, r9, sl, sp}
     c8c:	12011113 	andne	r1, r1, #-1073741820	; 0xc0000004
     c90:	97184006 	ldrls	r4, [r8, -r6]
     c94:	13011942 	movwne	r1, #6466	; 0x1942
     c98:	05140000 	ldreq	r0, [r4, #-0]
     c9c:	3a0e0300 	bcc	3818a4 <__bss_end__+0x377884>
     ca0:	49053b0b 	stmdbmi	r5, {r0, r1, r3, r8, r9, fp, ip, sp}
     ca4:	00170213 	andseq	r0, r7, r3, lsl r2
     ca8:	012e1500 	teqeq	lr, r0, lsl #10
     cac:	0e03193f 	mcreq	9, 0, r1, cr3, cr15, {1}
     cb0:	053b0b3a 	ldreq	r0, [fp, #-2874]!	; 0xb3a
     cb4:	01111927 	tsteq	r1, r7, lsr #18
     cb8:	18400612 	stmdane	r0, {r1, r4, r9, sl}^
     cbc:	01194297 			; <UNDEFINED> instruction: 0x01194297
     cc0:	16000013 			; <UNDEFINED> instruction: 0x16000013
     cc4:	08030005 	stmdaeq	r3, {r0, r2}
     cc8:	053b0b3a 	ldreq	r0, [fp, #-2874]!	; 0xb3a
     ccc:	17021349 	strne	r1, [r2, -r9, asr #6]
     cd0:	34170000 	ldrcc	r0, [r7], #-0
     cd4:	3a0e0300 	bcc	3818dc <__bss_end__+0x3778bc>
     cd8:	49053b0b 	stmdbmi	r5, {r0, r1, r3, r8, r9, fp, ip, sp}
     cdc:	00170213 	andseq	r0, r7, r3, lsl r2
     ce0:	010b1800 	tsteq	fp, r0, lsl #16
     ce4:	06120111 			; <UNDEFINED> instruction: 0x06120111
     ce8:	00001301 	andeq	r1, r0, r1, lsl #6
     cec:	03003419 	movweq	r3, #1049	; 0x419
     cf0:	3b0b3a0e 	blcc	2cf530 <__bss_end__+0x2c5510>
     cf4:	3f13490b 	svccc	0x0013490b
     cf8:	00180219 	andseq	r0, r8, r9, lsl r2
     cfc:	00341a00 	eorseq	r1, r4, r0, lsl #20
     d00:	0b3a0e03 	bleq	e84514 <__bss_end__+0xe7a4f4>
     d04:	1349053b 	movtne	r0, #38203	; 0x953b
     d08:	1802193f 	stmdane	r2, {r0, r1, r2, r3, r4, r5, r8, fp, ip}
     d0c:	2e1b0000 	cdpcs	0, 1, cr0, cr11, cr0, {0}
     d10:	03193f01 	tsteq	r9, #1, 30
     d14:	3b0b3a0e 	blcc	2cf554 <__bss_end__+0x2c5534>
     d18:	4919270b 	ldmdbmi	r9, {r0, r1, r3, r8, r9, sl, sp}
     d1c:	01193c13 	tsteq	r9, r3, lsl ip
     d20:	1c000013 	stcne	0, cr0, [r0], {19}
     d24:	13490005 	movtne	r0, #36869	; 0x9005
     d28:	261d0000 	ldrcs	r0, [sp], -r0
     d2c:	00134900 	andseq	r4, r3, r0, lsl #18
     d30:	00351e00 	eorseq	r1, r5, r0, lsl #28
     d34:	2e1f0000 	cdpcs	0, 1, cr0, cr15, cr0, {0}
     d38:	03193f01 	tsteq	r9, #1, 30
     d3c:	3b0b3a0e 	blcc	2cf57c <__bss_end__+0x2c555c>
     d40:	3c19270b 	ldccc	7, cr2, [r9], {11}
     d44:	00130119 	andseq	r0, r3, r9, lsl r1
     d48:	002e2000 	eoreq	r2, lr, r0
     d4c:	0e03193f 	mcreq	9, 0, r1, cr3, cr15, {1}
     d50:	0b3b0b3a 	bleq	ec3a40 <__bss_end__+0xeb9a20>
     d54:	193c1927 	ldmdbne	ip!, {r0, r1, r2, r5, r8, fp, ip}
     d58:	01000000 	mrseq	r0, (UNDEF: 0)
     d5c:	0e250111 	mcreq	1, 1, r0, cr5, cr1, {0}
     d60:	0e030b13 	vmoveq.32	d3[0], r0
     d64:	01110e1b 	tsteq	r1, fp, lsl lr
     d68:	17100612 			; <UNDEFINED> instruction: 0x17100612
     d6c:	24020000 	strcs	r0, [r2], #-0
     d70:	3e0b0b00 	vmlacc.f64	d0, d11, d0
     d74:	0008030b 	andeq	r0, r8, fp, lsl #6
     d78:	00240300 	eoreq	r0, r4, r0, lsl #6
     d7c:	0b3e0b0b 	bleq	f839b0 <__bss_end__+0xf79990>
     d80:	00000e03 	andeq	r0, r0, r3, lsl #28
     d84:	03001604 	movweq	r1, #1540	; 0x604
     d88:	3b0b3a0e 	blcc	2cf5c8 <__bss_end__+0x2c55a8>
     d8c:	0013490b 	andseq	r4, r3, fp, lsl #18
     d90:	000f0500 	andeq	r0, pc, r0, lsl #10
     d94:	00000b0b 	andeq	r0, r0, fp, lsl #22
     d98:	0b000f06 	bleq	49b8 <_start-0x3648>
     d9c:	0013490b 	andseq	r4, r3, fp, lsl #18
     da0:	00260700 	eoreq	r0, r6, r0, lsl #14
     da4:	00001349 	andeq	r1, r0, r9, asr #6
     da8:	0b011308 	bleq	459d0 <__bss_end__+0x3b9b0>
     dac:	3b0b3a0b 	blcc	2cf5e0 <__bss_end__+0x2c55c0>
     db0:	0013010b 	andseq	r0, r3, fp, lsl #2
     db4:	000d0900 	andeq	r0, sp, r0, lsl #18
     db8:	0b3a0803 	bleq	e82dcc <__bss_end__+0xe78dac>
     dbc:	13490b3b 	movtne	r0, #39739	; 0x9b3b
     dc0:	00000b38 	andeq	r0, r0, r8, lsr fp
     dc4:	03000d0a 	movweq	r0, #3338	; 0xd0a
     dc8:	3b0b3a0e 	blcc	2cf608 <__bss_end__+0x2c55e8>
     dcc:	3813490b 	ldmdacc	r3, {r0, r1, r3, r8, fp, lr}
     dd0:	0b00000b 	bleq	e04 <_start-0x71fc>
     dd4:	0e030113 	mcreq	1, 0, r0, cr3, cr3, {0}
     dd8:	0b3a0b0b 	bleq	e83a0c <__bss_end__+0xe799ec>
     ddc:	13010b3b 	movwne	r0, #6971	; 0x1b3b
     de0:	0d0c0000 	stceq	0, cr0, [ip, #-0]
     de4:	490e0300 	stmdbmi	lr, {r8, r9}
     de8:	340b3813 	strcc	r3, [fp], #-2067	; 0x813
     dec:	0d000019 	stceq	0, cr0, [r0, #-100]	; 0xffffff9c
     df0:	0e03012e 	adfeqsp	f0, f3, #0.5
     df4:	0b3b0b3a 	bleq	ec3ae4 <__bss_end__+0xeb9ac4>
     df8:	0b201927 	bleq	80729c <__bss_end__+0x7fd27c>
     dfc:	00001301 	andeq	r1, r0, r1, lsl #6
     e00:	0300050e 	movweq	r0, #1294	; 0x50e
     e04:	3b0b3a0e 	blcc	2cf644 <__bss_end__+0x2c5624>
     e08:	0013490b 	andseq	r4, r3, fp, lsl #18
     e0c:	00050f00 	andeq	r0, r5, r0, lsl #30
     e10:	0b3a0803 	bleq	e82e24 <__bss_end__+0xe78e04>
     e14:	13490b3b 	movtne	r0, #39739	; 0x9b3b
     e18:	0b100000 	bleq	400e20 <__bss_end__+0x3f6e00>
     e1c:	11000001 	tstne	r0, r1
     e20:	0e030034 	mcreq	0, 0, r0, cr3, cr4, {1}
     e24:	0b3b0b3a 	bleq	ec3b14 <__bss_end__+0xeb9af4>
     e28:	00001349 	andeq	r1, r0, r9, asr #6
     e2c:	3f012e12 	svccc	0x00012e12
     e30:	3a0e0319 	bcc	381a9c <__bss_end__+0x377a7c>
     e34:	270b3b0b 	strcs	r3, [fp, -fp, lsl #22]
     e38:	12011119 	andne	r1, r1, #1073741830	; 0x40000006
     e3c:	97184006 	ldrls	r4, [r8, -r6]
     e40:	13011942 	movwne	r1, #6466	; 0x1942
     e44:	05130000 	ldreq	r0, [r3, #-0]
     e48:	3a0e0300 	bcc	381a50 <__bss_end__+0x377a30>
     e4c:	490b3b0b 	stmdbmi	fp, {r0, r1, r3, r8, r9, fp, ip, sp}
     e50:	00170213 	andseq	r0, r7, r3, lsl r2
     e54:	00051400 	andeq	r1, r5, r0, lsl #8
     e58:	0b3a0803 	bleq	e82e6c <__bss_end__+0xe78e4c>
     e5c:	13490b3b 	movtne	r0, #39739	; 0x9b3b
     e60:	00001702 	andeq	r1, r0, r2, lsl #14
     e64:	03003415 	movweq	r3, #1045	; 0x415
     e68:	3b0b3a08 	blcc	2cf690 <__bss_end__+0x2c5670>
     e6c:	0213490b 	andseq	r4, r3, #180224	; 0x2c000
     e70:	16000018 			; <UNDEFINED> instruction: 0x16000018
     e74:	08030034 	stmdaeq	r3, {r2, r4, r5}
     e78:	0b3b0b3a 	bleq	ec3b68 <__bss_end__+0xeb9b48>
     e7c:	17021349 	strne	r1, [r2, -r9, asr #6]
     e80:	0b170000 	bleq	5c0e88 <__bss_end__+0x5b6e68>
     e84:	12011101 	andne	r1, r1, #1073741824	; 0x40000000
     e88:	00130106 	andseq	r0, r3, r6, lsl #2
     e8c:	00341800 	eorseq	r1, r4, r0, lsl #16
     e90:	0b3a0e03 	bleq	e846a4 <__bss_end__+0xe7a684>
     e94:	13490b3b 	movtne	r0, #39739	; 0x9b3b
     e98:	00001802 	andeq	r1, r0, r2, lsl #16
     e9c:	31011d19 	tstcc	r1, r9, lsl sp
     ea0:	12011113 	andne	r1, r1, #-1073741820	; 0xc0000004
     ea4:	590b5806 	stmdbpl	fp, {r1, r2, fp, ip, lr}
     ea8:	0013010b 	andseq	r0, r3, fp, lsl #2
     eac:	00051a00 	andeq	r1, r5, r0, lsl #20
     eb0:	17021331 	smladxne	r2, r1, r3, r1
     eb4:	051b0000 	ldreq	r0, [fp, #-0]
     eb8:	02133100 	andseq	r3, r3, #0, 2
     ebc:	1c000018 	stcne	0, cr0, [r0], {24}
     ec0:	13310005 	teqne	r1, #5
     ec4:	00000b1c 	andeq	r0, r0, ip, lsl fp
     ec8:	11010b1d 	tstne	r1, sp, lsl fp
     ecc:	00061201 	andeq	r1, r6, r1, lsl #4
     ed0:	00341e00 	eorseq	r1, r4, r0, lsl #28
     ed4:	17021331 	smladxne	r2, r1, r3, r1
     ed8:	891f0000 	ldmdbhi	pc, {}	; <UNPREDICTABLE>
     edc:	11010182 	smlabbne	r1, r2, r1, r0
     ee0:	00133101 	andseq	r3, r3, r1, lsl #2
     ee4:	828a2000 	addhi	r2, sl, #0
     ee8:	18020001 	stmdane	r2, {r0}
     eec:	00184291 	mulseq	r8, r1, r2
     ef0:	011d2100 	tsteq	sp, r0, lsl #2
     ef4:	01111331 	tsteq	r1, r1, lsr r3
     ef8:	0b580612 	bleq	1602748 <__bss_end__+0x15f8728>
     efc:	00000b59 	andeq	r0, r0, r9, asr fp
     f00:	03012e22 	movweq	r2, #7714	; 0x1e22
     f04:	3b0b3a0e 	blcc	2cf744 <__bss_end__+0x2c5724>
     f08:	4919270b 	ldmdbmi	r9, {r0, r1, r3, r8, r9, sl, sp}
     f0c:	010b2013 	tsteq	fp, r3, lsl r0
     f10:	23000013 	movwcs	r0, #19
     f14:	193f012e 	ldmdbne	pc!, {r1, r2, r3, r5, r8}	; <UNPREDICTABLE>
     f18:	0b3a0e03 	bleq	e8472c <__bss_end__+0xe7a70c>
     f1c:	19270b3b 	stmdbne	r7!, {r0, r1, r3, r4, r5, r8, r9, fp}
     f20:	01111349 	tsteq	r1, r9, asr #6
     f24:	18400612 	stmdane	r0, {r1, r4, r9, sl}^
     f28:	01194297 			; <UNDEFINED> instruction: 0x01194297
     f2c:	24000013 	strcs	r0, [r0], #-19
     f30:	00018289 	andeq	r8, r1, r9, lsl #5
     f34:	13310111 	teqne	r1, #1073741828	; 0x40000004
     f38:	89250000 	stmdbhi	r5!, {}	; <UNPREDICTABLE>
     f3c:	11010182 	smlabbne	r1, r2, r1, r0
     f40:	01133101 	tsteq	r3, r1, lsl #2
     f44:	26000013 			; <UNDEFINED> instruction: 0x26000013
     f48:	0e030034 	mcreq	0, 0, r0, cr3, cr4, {1}
     f4c:	0b3b0b3a 	bleq	ec3c3c <__bss_end__+0xeb9c1c>
     f50:	17021349 	strne	r1, [r2, -r9, asr #6]
     f54:	05270000 	streq	r0, [r7, #-0]!
     f58:	00133100 	andseq	r3, r3, r0, lsl #2
     f5c:	00052800 	andeq	r2, r5, r0, lsl #16
     f60:	0b3a0e03 	bleq	e84774 <__bss_end__+0xe7a754>
     f64:	13490b3b 	movtne	r0, #39739	; 0x9b3b
     f68:	00001802 	andeq	r1, r0, r2, lsl #16
     f6c:	03003429 	movweq	r3, #1065	; 0x429
     f70:	3413490e 	ldrcc	r4, [r3], #-2318	; 0x90e
     f74:	00180219 	andseq	r0, r8, r9, lsl r2
     f78:	01012a00 	tsteq	r1, r0, lsl #20
     f7c:	13011349 	movwne	r1, #4937	; 0x1349
     f80:	212b0000 	teqcs	fp, r0
     f84:	2f134900 	svccs	0x00134900
     f88:	2c00000b 	stccs	0, cr0, [r0], {11}
     f8c:	08030034 	stmdaeq	r3, {r2, r4, r5}
     f90:	0b3b0b3a 	bleq	ec3c80 <__bss_end__+0xeb9c60>
     f94:	061c1349 	ldreq	r1, [ip], -r9, asr #6
     f98:	342d0000 	strtcc	r0, [sp], #-0
     f9c:	3a080300 	bcc	201ba4 <__bss_end__+0x1f7b84>
     fa0:	490b3b0b 	stmdbmi	fp, {r0, r1, r3, r8, r9, fp, ip, sp}
     fa4:	000b1c13 	andeq	r1, fp, r3, lsl ip
     fa8:	00052e00 	andeq	r2, r5, r0, lsl #28
     fac:	0b3a0803 	bleq	e82fc0 <__bss_end__+0xe78fa0>
     fb0:	13490b3b 	movtne	r0, #39739	; 0x9b3b
     fb4:	00001802 	andeq	r1, r0, r2, lsl #16
     fb8:	0000182f 	andeq	r1, r0, pc, lsr #16
     fbc:	00213000 	eoreq	r3, r1, r0
     fc0:	052f1349 	streq	r1, [pc, #-841]!	; c7f <_start-0x7381>
     fc4:	2e310000 	cdpcs	0, 3, cr0, cr1, cr0, {0}
     fc8:	03193f01 	tsteq	r9, #1, 30
     fcc:	3b0b3a0e 	blcc	2cf80c <__bss_end__+0x2c57ec>
     fd0:	3c19270b 	ldccc	7, cr2, [r9], {11}
     fd4:	00130119 	andseq	r0, r3, r9, lsl r1
     fd8:	00053200 	andeq	r3, r5, r0, lsl #4
     fdc:	00001349 	andeq	r1, r0, r9, asr #6
     fe0:	3f002e33 	svccc	0x00002e33
     fe4:	3a0e0319 	bcc	381c50 <__bss_end__+0x377c30>
     fe8:	270b3b0b 	strcs	r3, [fp, -fp, lsl #22]
     fec:	3c134919 	ldccc	9, cr4, [r3], {25}
     ff0:	34000019 	strcc	r0, [r0], #-25
     ff4:	193f012e 	ldmdbne	pc!, {r1, r2, r3, r5, r8}	; <UNPREDICTABLE>
     ff8:	0b3a0e03 	bleq	e8480c <__bss_end__+0xe7a7ec>
     ffc:	19270b3b 	stmdbne	r7!, {r0, r1, r3, r4, r5, r8, r9, fp}
    1000:	193c1349 	ldmdbne	ip!, {r0, r3, r6, r8, r9, ip}
    1004:	00001301 	andeq	r1, r0, r1, lsl #6
    1008:	3f002e35 	svccc	0x00002e35
    100c:	3a0e0319 	bcc	381c78 <__bss_end__+0x377c58>
    1010:	270b3b0b 	strcs	r3, [fp, -fp, lsl #22]
    1014:	00193c19 	andseq	r3, r9, r9, lsl ip
    1018:	012e3600 	teqeq	lr, r0, lsl #12
    101c:	0e03193f 	mcreq	9, 0, r1, cr3, cr15, {1}
    1020:	0b3b0b3a 	bleq	ec3d10 <__bss_end__+0xeb9cf0>
    1024:	13491927 	movtne	r1, #39207	; 0x9927
    1028:	0000193c 	andeq	r1, r0, ip, lsr r9
    102c:	01110100 	tsteq	r1, r0, lsl #2
    1030:	0b130e25 	bleq	4c48cc <__bss_end__+0x4ba8ac>
    1034:	0e1b0e03 	cdpeq	14, 1, cr0, cr11, cr3, {0}
    1038:	06120111 			; <UNDEFINED> instruction: 0x06120111
    103c:	00001710 	andeq	r1, r0, r0, lsl r7
    1040:	0b002402 	bleq	a050 <__bss_end__+0x30>
    1044:	030b3e0b 	movweq	r3, #48651	; 0xbe0b
    1048:	03000008 	movweq	r0, #8
    104c:	0b0b0024 	bleq	2c10e4 <__bss_end__+0x2b70c4>
    1050:	0e030b3e 	vmoveq.16	d3[0], r0
    1054:	04040000 	streq	r0, [r4], #-0
    1058:	3a0b0b01 	bcc	2c3c64 <__bss_end__+0x2b9c44>
    105c:	010b3b0b 	tsteq	fp, fp, lsl #22
    1060:	05000013 	streq	r0, [r0, #-19]
    1064:	0e030028 	cdpeq	0, 0, cr0, cr3, cr8, {1}
    1068:	00000d1c 	andeq	r0, r0, ip, lsl sp
    106c:	03001606 	movweq	r1, #1542	; 0x606
    1070:	3b0b3a0e 	blcc	2cf8b0 <__bss_end__+0x2c5890>
    1074:	0013490b 	andseq	r4, r3, fp, lsl #18
    1078:	012e0700 	teqeq	lr, r0, lsl #14
    107c:	0e03193f 	mcreq	9, 0, r1, cr3, cr15, {1}
    1080:	0b3b0b3a 	bleq	ec3d70 <__bss_end__+0xeb9d50>
    1084:	01111927 	tsteq	r1, r7, lsr #18
    1088:	18400612 	stmdane	r0, {r1, r4, r9, sl}^
    108c:	01194297 			; <UNDEFINED> instruction: 0x01194297
    1090:	08000013 	stmdaeq	r0, {r0, r1, r4}
    1094:	00018289 	andeq	r8, r1, r9, lsl #5
    1098:	13310111 	teqne	r1, #1073741828	; 0x40000004
    109c:	89090000 	stmdbhi	r9, {}	; <UNPREDICTABLE>
    10a0:	11010182 	smlabbne	r1, r2, r1, r0
    10a4:	01133101 	tsteq	r3, r1, lsl #2
    10a8:	0a000013 	beq	10fc <_start-0x6f04>
    10ac:	0001828a 	andeq	r8, r1, sl, lsl #5
    10b0:	42911802 	addsmi	r1, r1, #131072	; 0x20000
    10b4:	0b000018 	bleq	111c <_start-0x6ee4>
    10b8:	193f012e 	ldmdbne	pc!, {r1, r2, r3, r5, r8}	; <UNPREDICTABLE>
    10bc:	0b3a0e03 	bleq	e848d0 <__bss_end__+0xe7a8b0>
    10c0:	19270b3b 	stmdbne	r7!, {r0, r1, r3, r4, r5, r8, r9, fp}
    10c4:	01111349 	tsteq	r1, r9, asr #6
    10c8:	18400612 	stmdane	r0, {r1, r4, r9, sl}^
    10cc:	01194297 			; <UNDEFINED> instruction: 0x01194297
    10d0:	0c000013 	stceq	0, cr0, [r0], {19}
    10d4:	08030005 	stmdaeq	r3, {r0, r2}
    10d8:	0b3b0b3a 	bleq	ec3dc8 <__bss_end__+0xeb9da8>
    10dc:	17021349 	strne	r1, [r2, -r9, asr #6]
    10e0:	890d0000 	stmdbhi	sp, {}	; <UNPREDICTABLE>
    10e4:	11010182 	smlabbne	r1, r2, r1, r0
    10e8:	00133101 	andseq	r3, r3, r1, lsl #2
    10ec:	00340e00 	eorseq	r0, r4, r0, lsl #28
    10f0:	0b3a0e03 	bleq	e84904 <__bss_end__+0xe7a8e4>
    10f4:	13490b3b 	movtne	r0, #39739	; 0x9b3b
    10f8:	1802193f 	stmdane	r2, {r0, r1, r2, r3, r4, r5, r8, fp, ip}
    10fc:	0f0f0000 	svceq	0x000f0000
    1100:	490b0b00 	stmdbmi	fp, {r8, r9, fp}
    1104:	10000013 	andne	r0, r0, r3, lsl r0
    1108:	13490035 	movtne	r0, #36917	; 0x9035
    110c:	2e110000 	cdpcs	0, 1, cr0, cr1, cr0, {0}
    1110:	03193f00 	tsteq	r9, #0, 30
    1114:	3b0b3a0e 	blcc	2cf954 <__bss_end__+0x2c5934>
    1118:	3c19270b 	ldccc	7, cr2, [r9], {11}
    111c:	12000019 	andne	r0, r0, #25
    1120:	193f012e 	ldmdbne	pc!, {r1, r2, r3, r5, r8}	; <UNPREDICTABLE>
    1124:	0b3a0e03 	bleq	e84938 <__bss_end__+0xe7a918>
    1128:	19270b3b 	stmdbne	r7!, {r0, r1, r3, r4, r5, r8, r9, fp}
    112c:	1301193c 	movwne	r1, #6460	; 0x193c
    1130:	05130000 	ldreq	r0, [r3, #-0]
    1134:	00134900 	andseq	r4, r3, r0, lsl #18
    1138:	012e1400 	teqeq	lr, r0, lsl #8
    113c:	0e03193f 	mcreq	9, 0, r1, cr3, cr15, {1}
    1140:	0b3b0b3a 	bleq	ec3e30 <__bss_end__+0xeb9e10>
    1144:	13491927 	movtne	r1, #39207	; 0x9927
    1148:	1301193c 	movwne	r1, #6460	; 0x193c
    114c:	26150000 	ldrcs	r0, [r5], -r0
    1150:	00134900 	andseq	r4, r3, r0, lsl #18
    1154:	00351600 	eorseq	r1, r5, r0, lsl #12
    1158:	01000000 	mrseq	r0, (UNDEF: 0)
    115c:	0e250111 	mcreq	1, 1, r0, cr5, cr1, {0}
    1160:	0e030b13 	vmoveq.32	d3[0], r0
    1164:	01110e1b 	tsteq	r1, fp, lsl lr
    1168:	17100612 			; <UNDEFINED> instruction: 0x17100612
    116c:	24020000 	strcs	r0, [r2], #-0
    1170:	3e0b0b00 	vmlacc.f64	d0, d11, d0
    1174:	0008030b 	andeq	r0, r8, fp, lsl #6
    1178:	00160300 	andseq	r0, r6, r0, lsl #6
    117c:	0b3a0e03 	bleq	e84990 <__bss_end__+0xe7a970>
    1180:	13490b3b 	movtne	r0, #39739	; 0x9b3b
    1184:	24040000 	strcs	r0, [r4], #-0
    1188:	3e0b0b00 	vmlacc.f64	d0, d11, d0
    118c:	000e030b 	andeq	r0, lr, fp, lsl #6
    1190:	000f0500 	andeq	r0, pc, r0, lsl #10
    1194:	00000b0b 	andeq	r0, r0, fp, lsl #22
    1198:	0b011306 	bleq	45db8 <__bss_end__+0x3bd98>
    119c:	3b0b3a0b 	blcc	2cf9d0 <__bss_end__+0x2c59b0>
    11a0:	0013010b 	andseq	r0, r3, fp, lsl #2
    11a4:	000d0700 	andeq	r0, sp, r0, lsl #14
    11a8:	0b3a0803 	bleq	e831bc <__bss_end__+0xe7919c>
    11ac:	13490b3b 	movtne	r0, #39739	; 0x9b3b
    11b0:	00000b38 	andeq	r0, r0, r8, lsr fp
    11b4:	03000d08 	movweq	r0, #3336	; 0xd08
    11b8:	3b0b3a0e 	blcc	2cf9f8 <__bss_end__+0x2c59d8>
    11bc:	3813490b 	ldmdacc	r3, {r0, r1, r3, r8, fp, lr}
    11c0:	0900000b 	stmdbeq	r0, {r0, r1, r3}
    11c4:	0b0b0104 	bleq	2c15dc <__bss_end__+0x2b75bc>
    11c8:	0b3b0b3a 	bleq	ec3eb8 <__bss_end__+0xeb9e98>
    11cc:	00001301 	andeq	r1, r0, r1, lsl #6
    11d0:	0300280a 	movweq	r2, #2058	; 0x80a
    11d4:	000d1c0e 	andeq	r1, sp, lr, lsl #24
    11d8:	012e0b00 	teqeq	lr, r0, lsl #22
    11dc:	0e03193f 	mcreq	9, 0, r1, cr3, cr15, {1}
    11e0:	0b3b0b3a 	bleq	ec3ed0 <__bss_end__+0xeb9eb0>
    11e4:	13491927 	movtne	r1, #39207	; 0x9927
    11e8:	06120111 			; <UNDEFINED> instruction: 0x06120111
    11ec:	42971840 	addsmi	r1, r7, #64, 16	; 0x400000
    11f0:	00130119 	andseq	r0, r3, r9, lsl r1
    11f4:	00340c00 	eorseq	r0, r4, r0, lsl #24
    11f8:	0b3a0803 	bleq	e8320c <__bss_end__+0xe791ec>
    11fc:	13490b3b 	movtne	r0, #39739	; 0x9b3b
    1200:	0000061c 	andeq	r0, r0, ip, lsl r6
    1204:	0182890d 	orreq	r8, r2, sp, lsl #18
    1208:	31011101 	tstcc	r1, r1, lsl #2
    120c:	0e000013 	mcreq	0, 0, r0, cr0, cr3, {0}
    1210:	0001828a 	andeq	r8, r1, sl, lsl #5
    1214:	42911802 	addsmi	r1, r1, #131072	; 0x20000
    1218:	0f000018 	svceq	0x00000018
    121c:	0b0b000f 	bleq	2c1260 <__bss_end__+0x2b7240>
    1220:	00001349 	andeq	r1, r0, r9, asr #6
    1224:	3f012e10 	svccc	0x00012e10
    1228:	3a0e0319 	bcc	381e94 <__bss_end__+0x377e74>
    122c:	270b3b0b 	strcs	r3, [fp, -fp, lsl #22]
    1230:	3c134919 	ldccc	9, cr4, [r3], {25}
    1234:	11000019 	tstne	r0, r9, lsl r0
    1238:	13490005 	movtne	r0, #36869	; 0x9005
    123c:	01000000 	mrseq	r0, (UNDEF: 0)
    1240:	0e250111 	mcreq	1, 1, r0, cr5, cr1, {0}
    1244:	0e030b13 	vmoveq.32	d3[0], r0
    1248:	01110e1b 	tsteq	r1, fp, lsl lr
    124c:	17100612 			; <UNDEFINED> instruction: 0x17100612
    1250:	24020000 	strcs	r0, [r2], #-0
    1254:	3e0b0b00 	vmlacc.f64	d0, d11, d0
    1258:	000e030b 	andeq	r0, lr, fp, lsl #6
    125c:	00240300 	eoreq	r0, r4, r0, lsl #6
    1260:	0b3e0b0b 	bleq	f83e94 <__bss_end__+0xf79e74>
    1264:	00000803 	andeq	r0, r0, r3, lsl #16
    1268:	0b000f04 	bleq	4e80 <_start-0x3180>
    126c:	0500000b 	streq	r0, [r0, #-11]
    1270:	0b0b000f 	bleq	2c12b4 <__bss_end__+0x2b7294>
    1274:	00001349 	andeq	r1, r0, r9, asr #6
    1278:	03001606 	movweq	r1, #1542	; 0x606
    127c:	3b0b3a0e 	blcc	2cfabc <__bss_end__+0x2c5a9c>
    1280:	0013490b 	andseq	r4, r3, fp, lsl #18
    1284:	012e0700 	teqeq	lr, r0, lsl #14
    1288:	0e03193f 	mcreq	9, 0, r1, cr3, cr15, {1}
    128c:	0b3b0b3a 	bleq	ec3f7c <__bss_end__+0xeb9f5c>
    1290:	13491927 	movtne	r1, #39207	; 0x9927
    1294:	06120111 			; <UNDEFINED> instruction: 0x06120111
    1298:	42971840 	addsmi	r1, r7, #64, 16	; 0x400000
    129c:	08000019 	stmdaeq	r0, {r0, r3, r4}
    12a0:	08030005 	stmdaeq	r3, {r0, r2}
    12a4:	0b3b0b3a 	bleq	ec3f94 <__bss_end__+0xeb9f74>
    12a8:	18021349 	stmdane	r2, {r0, r3, r6, r8, r9, ip}
    12ac:	05090000 	streq	r0, [r9, #-0]
    12b0:	3a080300 	bcc	201eb8 <__bss_end__+0x1f7e98>
    12b4:	490b3b0b 	stmdbmi	fp, {r0, r1, r3, r8, r9, fp, ip, sp}
    12b8:	00170213 	andseq	r0, r7, r3, lsl r2
    12bc:	00340a00 	eorseq	r0, r4, r0, lsl #20
    12c0:	0b3a0803 	bleq	e832d4 <__bss_end__+0xe792b4>
    12c4:	13490b3b 	movtne	r0, #39739	; 0x9b3b
    12c8:	00001702 	andeq	r1, r0, r2, lsl #14
    12cc:	0300340b 	movweq	r3, #1035	; 0x40b
    12d0:	3b0b3a08 	blcc	2cfaf8 <__bss_end__+0x2c5ad8>
    12d4:	0213490b 	andseq	r4, r3, #180224	; 0x2c000
    12d8:	00000018 	andeq	r0, r0, r8, lsl r0

Disassembly of section .debug_loc:

00000000 <.debug_loc>:
       0:	00000000 	andeq	r0, r0, r0
       4:	00000018 	andeq	r0, r0, r8, lsl r0
       8:	18500001 	ldmdane	r0, {r0}^
       c:	28000000 	stmdacs	r0, {}	; <UNPREDICTABLE>
      10:	04000000 	streq	r0, [r0], #-0
      14:	5001f300 	andpl	pc, r1, r0, lsl #6
      18:	0000289f 	muleq	r0, pc, r8	; <UNPREDICTABLE>
      1c:	00002b00 	andeq	r2, r0, r0, lsl #22
      20:	50000100 	andpl	r0, r0, r0, lsl #2
      24:	0000002b 	andeq	r0, r0, fp, lsr #32
      28:	00000050 	andeq	r0, r0, r0, asr r0
      2c:	01f30004 	mvnseq	r0, r4
      30:	00009f50 	andeq	r9, r0, r0, asr pc
      34:	00000000 	andeq	r0, r0, r0
      38:	00200000 	eoreq	r0, r0, r0
      3c:	00240000 	eoreq	r0, r4, r0
      40:	00010000 	andeq	r0, r1, r0
      44:	00000050 	andeq	r0, r0, r0, asr r0
      48:	00000000 	andeq	r0, r0, r0
      4c:	00005000 	andeq	r5, r0, r0
      50:	00009800 	andeq	r9, r0, r0, lsl #16
      54:	50000100 	andpl	r0, r0, r0, lsl #2
      58:	00000098 	muleq	r0, r8, r0
      5c:	00000110 	andeq	r0, r0, r0, lsl r1
      60:	10550001 	subsne	r0, r5, r1
      64:	a4000001 	strge	r0, [r0], #-1
      68:	04000001 	streq	r0, [r0], #-1
      6c:	5001f300 	andpl	pc, r1, r0, lsl #6
      70:	0001a49f 	muleq	r1, pc, r4	; <UNPREDICTABLE>
      74:	0001b400 	andeq	fp, r1, r0, lsl #8
      78:	55000100 	strpl	r0, [r0, #-256]	; 0x100
	...
      84:	00000050 	andeq	r0, r0, r0, asr r0
      88:	00000060 	andeq	r0, r0, r0, rrx
      8c:	60520001 	subsvs	r0, r2, r1
      90:	b4000000 	strlt	r0, [r0], #-0
      94:	04000001 	streq	r0, [r0], #-1
      98:	5201f300 	andpl	pc, r1, #0, 6
      9c:	0000009f 	muleq	r0, pc, r0	; <UNPREDICTABLE>
      a0:	00000000 	andeq	r0, r0, r0
      a4:	00005000 	andeq	r5, r0, r0
      a8:	00006800 	andeq	r6, r0, r0, lsl #16
      ac:	53000100 	movwpl	r0, #256	; 0x100
      b0:	00000068 	andeq	r0, r0, r8, rrx
      b4:	000001b4 			; <UNDEFINED> instruction: 0x000001b4
      b8:	01f30004 	mvnseq	r0, r4
      bc:	00009f53 	andeq	r9, r0, r3, asr pc
      c0:	00000000 	andeq	r0, r0, r0
      c4:	00500000 	subseq	r0, r0, r0
      c8:	009c0000 	addseq	r0, ip, r0
      cc:	00020000 	andeq	r0, r2, r0
      d0:	009c9f30 	addseq	r9, ip, r0, lsr pc
      d4:	01b40000 			; <UNDEFINED> instruction: 0x01b40000
      d8:	00010000 	andeq	r0, r1, r0
      dc:	00000050 	andeq	r0, r0, r0, asr r0
      e0:	00000000 	andeq	r0, r0, r0
      e4:	00005000 	andeq	r5, r0, r0
      e8:	00007400 	andeq	r7, r0, r0, lsl #8
      ec:	30000200 	andcc	r0, r0, r0, lsl #4
      f0:	0000809f 	muleq	r0, pc, r0	; <UNPREDICTABLE>
      f4:	00009c00 	andeq	r9, r0, r0, lsl #24
      f8:	54000100 	strpl	r0, [r0], #-256	; 0x100
      fc:	0000009c 	muleq	r0, ip, r0
     100:	000000a0 	andeq	r0, r0, r0, lsr #1
     104:	a0530001 	subsge	r0, r3, r1
     108:	c8000000 	stmdagt	r0, {}	; <UNPREDICTABLE>
     10c:	01000000 	mrseq	r0, (UNDEF: 0)
     110:	00d05400 	sbcseq	r5, r0, r0, lsl #8
     114:	01080000 	mrseq	r0, (UNDEF: 8)
     118:	00010000 	andeq	r0, r1, r0
     11c:	0001a453 	andeq	sl, r1, r3, asr r4
     120:	0001b400 	andeq	fp, r1, r0, lsl #8
     124:	53000100 	movwpl	r0, #256	; 0x100
	...
     130:	00000074 	andeq	r0, r0, r4, ror r0
     134:	0000009c 	muleq	r0, ip, r0
     138:	00530001 	subseq	r0, r3, r1
     13c:	00000000 	andeq	r0, r0, r0
     140:	8c000000 	stchi	0, cr0, [r0], {-0}
     144:	fc000000 	stc2	0, cr0, [r0], {-0}
     148:	01000000 	mrseq	r0, (UNDEF: 0)
     14c:	01a45800 			; <UNDEFINED> instruction: 0x01a45800
     150:	01b40000 			; <UNDEFINED> instruction: 0x01b40000
     154:	00010000 	andeq	r0, r1, r0
     158:	00000058 	andeq	r0, r0, r8, asr r0
     15c:	00000000 	andeq	r0, r0, r0
     160:	00007400 	andeq	r7, r0, r0, lsl #8
     164:	00009800 	andeq	r9, r0, r0, lsl #16
     168:	50000100 	andpl	r0, r0, r0, lsl #2
     16c:	00000098 	muleq	r0, r8, r0
     170:	00000110 	andeq	r0, r0, r0, lsl r1
     174:	10550001 	subsne	r0, r5, r1
     178:	a4000001 	strge	r0, [r0], #-1
     17c:	04000001 	streq	r0, [r0], #-1
     180:	5001f300 	andpl	pc, r1, r0, lsl #6
     184:	0001a49f 	muleq	r1, pc, r4	; <UNPREDICTABLE>
     188:	0001b400 	andeq	fp, r1, r0, lsl #8
     18c:	55000100 	strpl	r0, [r0, #-256]	; 0x100
	...
     198:	0000008c 	andeq	r0, r0, ip, lsl #1
     19c:	0000009c 	muleq	r0, ip, r0
     1a0:	9f300002 	svcls	0x00300002
	...
     1ac:	0000009c 	muleq	r0, ip, r0
     1b0:	000000a0 	andeq	r0, r0, r0, lsr #1
     1b4:	b0530001 	subslt	r0, r3, r1
     1b8:	08000000 	stmdaeq	r0, {}	; <UNPREDICTABLE>
     1bc:	01000001 	tsteq	r0, r1
     1c0:	01a45300 			; <UNDEFINED> instruction: 0x01a45300
     1c4:	01b40000 			; <UNDEFINED> instruction: 0x01b40000
     1c8:	00010000 	andeq	r0, r1, r0
     1cc:	00000053 	andeq	r0, r0, r3, asr r0
     1d0:	00000000 	andeq	r0, r0, r0
     1d4:	00009c00 	andeq	r9, r0, r0, lsl #24
     1d8:	00011000 	andeq	r1, r1, r0
     1dc:	55000100 	strpl	r0, [r0, #-256]	; 0x100
     1e0:	00000110 	andeq	r0, r0, r0, lsl r1
     1e4:	000001a4 	andeq	r0, r0, r4, lsr #3
     1e8:	01f30004 	mvnseq	r0, r4
     1ec:	01a49f50 			; <UNDEFINED> instruction: 0x01a49f50
     1f0:	01b40000 			; <UNDEFINED> instruction: 0x01b40000
     1f4:	00010000 	andeq	r0, r1, r0
     1f8:	00000055 	andeq	r0, r0, r5, asr r0
     1fc:	00000000 	andeq	r0, r0, r0
     200:	0000c800 	andeq	ip, r0, r0, lsl #16
     204:	0000cc00 	andeq	ip, r0, r0, lsl #24
     208:	54000100 	strpl	r0, [r0], #-256	; 0x100
	...
     214:	000000dc 	ldrdeq	r0, [r0], -ip
     218:	00000110 	andeq	r0, r0, r0, lsl r1
     21c:	9f300002 	svcls	0x00300002
     220:	00000168 	andeq	r0, r0, r8, ror #2
     224:	0000016c 	andeq	r0, r0, ip, ror #2
     228:	88520001 	ldmdahi	r2, {r0}^
     22c:	98000001 	stmdals	r0, {r0}
     230:	01000001 	tsteq	r0, r1
     234:	01a45c00 			; <UNDEFINED> instruction: 0x01a45c00
     238:	01b40000 			; <UNDEFINED> instruction: 0x01b40000
     23c:	00020000 	andeq	r0, r2, r0
     240:	00009f30 	andeq	r9, r0, r0, lsr pc
     244:	00000000 	andeq	r0, r0, r0
     248:	01b40000 			; <UNDEFINED> instruction: 0x01b40000
     24c:	01e40000 	mvneq	r0, r0
     250:	00010000 	andeq	r0, r1, r0
     254:	0001e450 	andeq	lr, r1, r0, asr r4
     258:	00024000 	andeq	r4, r2, r0
     25c:	5a000100 	bpl	664 <_start-0x799c>
     260:	00000240 	andeq	r0, r0, r0, asr #4
     264:	00000244 	andeq	r0, r0, r4, asr #4
     268:	01f30004 	mvnseq	r0, r4
     26c:	00009f50 	andeq	r9, r0, r0, asr pc
     270:	00000000 	andeq	r0, r0, r0
     274:	01b40000 			; <UNDEFINED> instruction: 0x01b40000
     278:	01d40000 	bicseq	r0, r4, r0
     27c:	00010000 	andeq	r0, r1, r0
     280:	0001d451 	andeq	sp, r1, r1, asr r4
     284:	00024000 	andeq	r4, r2, r0
     288:	79000300 	stmdbvc	r0, {r8, r9}
     28c:	02409f01 	subeq	r9, r0, #1, 30
     290:	02440000 	subeq	r0, r4, #0
     294:	00040000 	andeq	r0, r4, r0
     298:	9f5101f3 	svcls	0x005101f3
	...
     2a4:	000001b4 			; <UNDEFINED> instruction: 0x000001b4
     2a8:	000001d0 	ldrdeq	r0, [r0], -r0	; <UNPREDICTABLE>
     2ac:	d0520001 	subsle	r0, r2, r1
     2b0:	40000001 	andmi	r0, r0, r1
     2b4:	01000002 	tsteq	r0, r2
     2b8:	02405800 	subeq	r5, r0, #0, 16
     2bc:	02440000 	subeq	r0, r4, #0
     2c0:	00040000 	andeq	r0, r4, r0
     2c4:	9f5201f3 	svcls	0x005201f3
	...
     2d0:	000001b4 			; <UNDEFINED> instruction: 0x000001b4
     2d4:	000001e4 	andeq	r0, r0, r4, ror #3
     2d8:	9f300002 	svcls	0x00300002
     2dc:	000001e4 	andeq	r0, r0, r4, ror #3
     2e0:	00000238 	andeq	r0, r0, r8, lsr r2
     2e4:	00550001 	subseq	r0, r5, r1
     2e8:	00000000 	andeq	r0, r0, r0
     2ec:	b4000000 	strlt	r0, [r0], #-0
     2f0:	e4000001 	str	r0, [r0], #-1
     2f4:	02000001 	andeq	r0, r0, #1
     2f8:	e49f3000 	ldr	r3, [pc], #0	; 300 <_start-0x7d00>
     2fc:	38000001 	stmdacc	r0, {r0}
     300:	01000002 	tsteq	r0, r2
     304:	00005600 	andeq	r5, r0, r0, lsl #12
     308:	00000000 	andeq	r0, r0, r0
     30c:	01b40000 			; <UNDEFINED> instruction: 0x01b40000
     310:	01e40000 	mvneq	r0, r0
     314:	00020000 	andeq	r0, r2, r0
     318:	01e49f30 	mvneq	r9, r0, lsr pc
     31c:	01ec0000 	mvneq	r0, r0
     320:	00010000 	andeq	r0, r1, r0
     324:	0001ec57 	andeq	lr, r1, r7, asr ip
     328:	00022b00 	andeq	r2, r2, r0, lsl #22
     32c:	51000100 	mrspl	r0, (UNDEF: 16)
     330:	0000022b 	andeq	r0, r0, fp, lsr #4
     334:	0000022c 	andeq	r0, r0, ip, lsr #4
     338:	7f770003 	svcvc	0x00770003
     33c:	00022c9f 	muleq	r2, pc, ip	; <UNPREDICTABLE>
     340:	00023800 	andeq	r3, r2, r0, lsl #16
     344:	57000100 	strpl	r0, [r0, -r0, lsl #2]
	...
     350:	000001f4 	strdeq	r0, [r0], -r4
     354:	000001f8 	strdeq	r0, [r0], -r8
     358:	f8530001 			; <UNDEFINED> instruction: 0xf8530001
     35c:	fc000001 	stc2	0, cr0, [r0], {1}
     360:	06000001 	streq	r0, [r0], -r1
     364:	72007a00 	andvc	r7, r0, #0, 20
     368:	009f2200 	addseq	r2, pc, r0, lsl #4
     36c:	00000000 	andeq	r0, r0, r0
     370:	f8000000 			; <UNDEFINED> instruction: 0xf8000000
     374:	2b000001 	blcs	380 <_start-0x7c80>
     378:	01000002 	tsteq	r0, r2
     37c:	00005300 	andeq	r5, r0, r0, lsl #6
     380:	00000000 	andeq	r0, r0, r0
     384:	02000000 	andeq	r0, r0, #0
     388:	02340000 	eorseq	r0, r4, #0
     38c:	00010000 	andeq	r0, r1, r0
     390:	00000054 	andeq	r0, r0, r4, asr r0
     394:	00000000 	andeq	r0, r0, r0
     398:	00020c00 	andeq	r0, r2, r0, lsl #24
     39c:	00022800 	andeq	r2, r2, r0, lsl #16
     3a0:	50000100 	andpl	r0, r0, r0, lsl #2
     3a4:	00000228 	andeq	r0, r0, r8, lsr #4
     3a8:	0000022b 	andeq	r0, r0, fp, lsr #4
     3ac:	50910002 	addspl	r0, r1, r2
	...
     3b8:	00000284 	andeq	r0, r0, r4, lsl #5
     3bc:	00000288 	andeq	r0, r0, r8, lsl #5
     3c0:	88500001 	ldmdahi	r0, {r0}^
     3c4:	8b000002 	blhi	3d4 <_start-0x7c2c>
     3c8:	01000002 	tsteq	r0, r2
     3cc:	00005100 	andeq	r5, r0, r0, lsl #2
     3d0:	00000000 	andeq	r0, r0, r0
     3d4:	002c0000 	eoreq	r0, ip, r0
     3d8:	00380000 	eorseq	r0, r8, r0
     3dc:	00010000 	andeq	r0, r1, r0
     3e0:	00003850 	andeq	r3, r0, r0, asr r8
     3e4:	00004800 	andeq	r4, r0, r0, lsl #16
     3e8:	55000100 	strpl	r0, [r0, #-256]	; 0x100
     3ec:	00000048 	andeq	r0, r0, r8, asr #32
     3f0:	00000058 	andeq	r0, r0, r8, asr r0
     3f4:	00500001 	subseq	r0, r0, r1
	...
     400:	0b000000 	bleq	408 <_start-0x7bf8>
     404:	01000000 	mrseq	r0, (UNDEF: 0)
     408:	000b5000 	andeq	r5, fp, r0
     40c:	00140000 	andseq	r0, r4, r0
     410:	00010000 	andeq	r0, r1, r0
     414:	00000054 	andeq	r0, r0, r4, asr r0
	...
     420:	00001000 	andeq	r1, r0, r0
     424:	50000100 	andpl	r0, r0, r0, lsl #2
     428:	00000010 	andeq	r0, r0, r0, lsl r0
     42c:	00000034 	andeq	r0, r0, r4, lsr r0
     430:	00540001 	subseq	r0, r4, r1
	...
     43c:	04000000 	streq	r0, [r0], #-0
     440:	01000000 	mrseq	r0, (UNDEF: 0)
     444:	00045000 	andeq	r5, r4, r0
     448:	000c0000 	andeq	r0, ip, r0
     44c:	00030000 	andeq	r0, r3, r0
     450:	0c9f3070 	ldceq	0, cr3, [pc], {112}	; 0x70
     454:	14000000 	strne	r0, [r0], #-0
     458:	04000000 	streq	r0, [r0], #-0
     45c:	5001f300 	andpl	pc, r1, r0, lsl #6
     460:	0000009f 	muleq	r0, pc, r0	; <UNPREDICTABLE>
     464:	00000000 	andeq	r0, r0, r0
     468:	00001400 	andeq	r1, r0, r0, lsl #8
     46c:	00002000 	andeq	r2, r0, r0
     470:	50000100 	andpl	r0, r0, r0, lsl #2
     474:	00000020 	andeq	r0, r0, r0, lsr #32
     478:	0000002c 	andeq	r0, r0, ip, lsr #32
     47c:	01700003 	cmneq	r0, r3
     480:	00002c9f 	muleq	r0, pc, ip	; <UNPREDICTABLE>
     484:	00004000 	andeq	r4, r0, r0
     488:	50000100 	andpl	r0, r0, r0, lsl #2
	...
     494:	00000014 	andeq	r0, r0, r4, lsl r0
     498:	00000018 	andeq	r0, r0, r8, lsl r0
     49c:	18510001 	ldmdane	r1, {r0}^
     4a0:	40000000 	andmi	r0, r0, r0
     4a4:	04000000 	streq	r0, [r0], #-0
     4a8:	5101f300 	mrspl	pc, SP_irq	; <UNPREDICTABLE>
     4ac:	0000009f 	muleq	r0, pc, r0	; <UNPREDICTABLE>
     4b0:	00000000 	andeq	r0, r0, r0
     4b4:	00004000 	andeq	r4, r0, r0
     4b8:	00006000 	andeq	r6, r0, r0
     4bc:	50000100 	andpl	r0, r0, r0, lsl #2
     4c0:	00000060 	andeq	r0, r0, r0, rrx
     4c4:	0000006c 	andeq	r0, r0, ip, rrx
     4c8:	01710003 	cmneq	r1, r3
     4cc:	00006c9f 	muleq	r0, pc, ip	; <UNPREDICTABLE>
     4d0:	00007400 	andeq	r7, r0, r0, lsl #8
     4d4:	51000100 	mrspl	r0, (UNDEF: 16)
     4d8:	00000074 	andeq	r0, r0, r4, ror r0
     4dc:	00000080 	andeq	r0, r0, r0, lsl #1
     4e0:	01710003 	cmneq	r1, r3
     4e4:	0000009f 	muleq	r0, pc, r0	; <UNPREDICTABLE>
     4e8:	00000000 	andeq	r0, r0, r0
     4ec:	00004000 	andeq	r4, r0, r0
     4f0:	00005000 	andeq	r5, r0, r0
     4f4:	51000100 	mrspl	r0, (UNDEF: 16)
     4f8:	00000050 	andeq	r0, r0, r0, asr r0
     4fc:	00000080 	andeq	r0, r0, r0, lsl #1
     500:	01f30004 	mvnseq	r0, r4
     504:	00009f51 	andeq	r9, r0, r1, asr pc
     508:	00000000 	andeq	r0, r0, r0
     50c:	00400000 	subeq	r0, r0, r0
     510:	00580000 	subseq	r0, r8, r0
     514:	00010000 	andeq	r0, r1, r0
     518:	00005852 	andeq	r5, r0, r2, asr r8
     51c:	00006400 	andeq	r6, r0, r0, lsl #8
     520:	52000100 	andpl	r0, r0, #0, 2
     524:	00000064 	andeq	r0, r0, r4, rrx
     528:	00000068 	andeq	r0, r0, r8, rrx
     52c:	01720003 	cmneq	r2, r3
     530:	0000689f 	muleq	r0, pc, r8	; <UNPREDICTABLE>
     534:	00008000 	andeq	r8, r0, r0
     538:	52000100 	andpl	r0, r0, #0, 2
	...
     544:	00000040 	andeq	r0, r0, r0, asr #32
     548:	00000054 	andeq	r0, r0, r4, asr r0
     54c:	54530001 	ldrbpl	r0, [r3], #-1
     550:	78000000 	stmdavc	r0, {}	; <UNPREDICTABLE>
     554:	01000000 	mrseq	r0, (UNDEF: 0)
     558:	00005300 	andeq	r5, r0, r0, lsl #6
     55c:	00000000 	andeq	r0, r0, r0
     560:	00480000 	subeq	r0, r8, r0
     564:	00600000 	rsbeq	r0, r0, r0
     568:	00010000 	andeq	r0, r1, r0
     56c:	0000605c 	andeq	r6, r0, ip, asr r0
     570:	00008000 	andeq	r8, r0, r0
     574:	f3000a00 	vpmax.u8	d0, d0, d0
     578:	01f35201 	mvnseq	r5, r1, lsl #4
     57c:	01231c53 	teqeq	r3, r3, asr ip
     580:	0000009f 	muleq	r0, pc, r0	; <UNPREDICTABLE>
     584:	00000000 	andeq	r0, r0, r0
     588:	00008000 	andeq	r8, r0, r0
     58c:	0000a400 	andeq	sl, r0, r0, lsl #8
     590:	50000100 	andpl	r0, r0, r0, lsl #2
     594:	000000a4 	andeq	r0, r0, r4, lsr #1
     598:	00000118 	andeq	r0, r0, r8, lsl r1
     59c:	02700003 	rsbseq	r0, r0, #3
     5a0:	0001189f 	muleq	r1, pc, r8	; <UNPREDICTABLE>
     5a4:	00022800 	andeq	r2, r2, r0, lsl #16
     5a8:	f3000400 	vshl.u8	d0, d0, d0
     5ac:	009f5001 	addseq	r5, pc, r1
     5b0:	00000000 	andeq	r0, r0, r0
     5b4:	80000000 	andhi	r0, r0, r0
     5b8:	f0000000 			; <UNDEFINED> instruction: 0xf0000000
     5bc:	01000000 	mrseq	r0, (UNDEF: 0)
     5c0:	00f05100 	rscseq	r5, r0, r0, lsl #2
     5c4:	01600000 	cmneq	r0, r0
     5c8:	00010000 	andeq	r0, r1, r0
     5cc:	00016055 	andeq	r6, r1, r5, asr r0
     5d0:	00016800 	andeq	r6, r1, r0, lsl #16
     5d4:	51000100 	mrspl	r0, (UNDEF: 16)
     5d8:	00000168 	andeq	r0, r0, r8, ror #2
     5dc:	00000188 	andeq	r0, r0, r8, lsl #3
     5e0:	88550001 	ldmdahi	r5, {r0}^
     5e4:	9c000001 	stcls	0, cr0, [r0], {1}
     5e8:	01000001 	tsteq	r0, r1
     5ec:	019c5100 	orrseq	r5, ip, r0, lsl #2
     5f0:	01bc0000 			; <UNDEFINED> instruction: 0x01bc0000
     5f4:	00010000 	andeq	r0, r1, r0
     5f8:	0001bc55 	andeq	fp, r1, r5, asr ip
     5fc:	0001bf00 	andeq	fp, r1, r0, lsl #30
     600:	51000100 	mrspl	r0, (UNDEF: 16)
     604:	000001bf 			; <UNDEFINED> instruction: 0x000001bf
     608:	00000208 	andeq	r0, r0, r8, lsl #4
     60c:	08550001 	ldmdaeq	r5, {r0}^
     610:	28000002 	stmdacs	r0, {r1}
     614:	04000002 	streq	r0, [r0], #-2
     618:	5101f300 	mrspl	pc, SP_irq	; <UNPREDICTABLE>
     61c:	0000009f 	muleq	r0, pc, r0	; <UNPREDICTABLE>
     620:	00000000 	andeq	r0, r0, r0
     624:	00008000 	andeq	r8, r0, r0
     628:	00009400 	andeq	r9, r0, r0, lsl #8
     62c:	52000100 	andpl	r0, r0, #0, 2
     630:	00000094 	muleq	r0, r4, r0
     634:	00000208 	andeq	r0, r0, r8, lsl #4
     638:	08540001 	ldmdaeq	r4, {r0}^
     63c:	28000002 	stmdacs	r0, {r1}
     640:	04000002 	streq	r0, [r0], #-2
     644:	5201f300 	andpl	pc, r1, #0, 6
     648:	0000009f 	muleq	r0, pc, r0	; <UNPREDICTABLE>
     64c:	00000000 	andeq	r0, r0, r0
     650:	00008000 	andeq	r8, r0, r0
     654:	00010000 	andeq	r0, r1, r0
     658:	53000100 	movwpl	r0, #256	; 0x100
     65c:	00000104 	andeq	r0, r0, r4, lsl #2
     660:	00000108 	andeq	r0, r0, r8, lsl #2
     664:	60530001 	subsvs	r0, r3, r1
     668:	68000001 	stmdavs	r0, {r0}
     66c:	01000001 	tsteq	r0, r1
     670:	01685300 	cmneq	r8, r0, lsl #6
     674:	01880000 	orreq	r0, r8, r0
     678:	00040000 	andeq	r0, r4, r0
     67c:	9f5301f3 	svcls	0x005301f3
     680:	00000188 	andeq	r0, r0, r8, lsl #3
     684:	00000190 	muleq	r0, r0, r1
     688:	90530001 	subsls	r0, r3, r1
     68c:	94000001 	strls	r0, [r0], #-1
     690:	01000001 	tsteq	r0, r1
     694:	01945c00 	orrseq	r5, r4, r0, lsl #24
     698:	019c0000 	orrseq	r0, ip, r0
     69c:	00010000 	andeq	r0, r1, r0
     6a0:	00019c53 	andeq	r9, r1, r3, asr ip
     6a4:	0001bc00 	andeq	fp, r1, r0, lsl #24
     6a8:	f3000400 	vshl.u8	d0, d0, d0
     6ac:	bc9f5301 	ldclt	3, cr5, [pc], {1}
     6b0:	bf000001 	svclt	0x00000001
     6b4:	01000001 	tsteq	r0, r1
     6b8:	01bf5300 			; <UNDEFINED> instruction: 0x01bf5300
     6bc:	01e00000 	mvneq	r0, r0
     6c0:	00040000 	andeq	r0, r4, r0
     6c4:	9f5301f3 	svcls	0x005301f3
	...
     6d0:	00000080 	andeq	r0, r0, r0, lsl #1
     6d4:	0000009c 	muleq	r0, ip, r0
     6d8:	00910002 	addseq	r0, r1, r2
     6dc:	0000009c 	muleq	r0, ip, r0
     6e0:	000001bf 			; <UNDEFINED> instruction: 0x000001bf
     6e4:	e0520001 	subs	r0, r2, r1
     6e8:	eb000001 	bl	6f4 <_start-0x790c>
     6ec:	01000001 	tsteq	r0, r1
     6f0:	00005200 	andeq	r5, r0, r0, lsl #4
     6f4:	00000000 	andeq	r0, r0, r0
     6f8:	009c0000 	addseq	r0, ip, r0
     6fc:	010c0000 	mrseq	r0, (UNDEF: 12)
     700:	00040000 	andeq	r0, r4, r0
     704:	9f7fa091 	svcls	0x007fa091
     708:	0000010c 	andeq	r0, r0, ip, lsl #2
     70c:	00000118 	andeq	r0, r0, r8, lsl r1
     710:	18510001 	ldmdane	r1, {r0}^
     714:	1c000001 	stcne	0, cr0, [r0], {1}
     718:	01000001 	tsteq	r0, r1
     71c:	011c5300 	tsteq	ip, r0, lsl #6
     720:	01200000 	teqeq	r0, r0
     724:	00010000 	andeq	r0, r1, r0
     728:	00012051 	andeq	r2, r1, r1, asr r0
     72c:	00016000 	andeq	r6, r1, r0
     730:	53000100 	movwpl	r0, #256	; 0x100
     734:	00000160 	andeq	r0, r0, r0, ror #2
     738:	00000164 	andeq	r0, r0, r4, ror #2
     73c:	a0910004 	addsge	r0, r1, r4
     740:	01649f7f 	smceq	18943	; 0x49ff
     744:	016c0000 	cmneq	ip, r0
     748:	00010000 	andeq	r0, r1, r0
     74c:	00016c5e 	andeq	r6, r1, lr, asr ip
     750:	00018800 	andeq	r8, r1, r0, lsl #16
     754:	53000100 	movwpl	r0, #256	; 0x100
     758:	00000188 	andeq	r0, r0, r8, lsl #3
     75c:	00000190 	muleq	r0, r0, r1
     760:	a1910004 	orrsge	r0, r1, r4
     764:	01909f7f 	orrseq	r9, r0, pc, ror pc
     768:	01940000 	orrseq	r0, r4, r0
     76c:	00010000 	andeq	r0, r1, r0
     770:	00019453 	andeq	r9, r1, r3, asr r4
     774:	00019800 	andeq	r9, r1, r0, lsl #16
     778:	91000400 	tstls	r0, r0, lsl #8
     77c:	989f7fa0 	ldmls	pc, {r5, r7, r8, r9, sl, fp, ip, sp, lr}	; <UNPREDICTABLE>
     780:	a0000001 	andge	r0, r0, r1
     784:	01000001 	tsteq	r0, r1
     788:	01a05e00 	lsleq	r5, r0, #28
     78c:	01bc0000 			; <UNDEFINED> instruction: 0x01bc0000
     790:	00010000 	andeq	r0, r1, r0
     794:	0001bc53 	andeq	fp, r1, r3, asr ip
     798:	0001e000 	andeq	lr, r1, r0
     79c:	91000400 	tstls	r0, r0, lsl #8
     7a0:	e09f7fa0 	adds	r7, pc, r0, lsr #31
     7a4:	eb000001 	bl	7b0 <_start-0x7850>
     7a8:	01000001 	tsteq	r0, r1
     7ac:	00005300 	andeq	r5, r0, r0, lsl #6
     7b0:	00000000 	andeq	r0, r0, r0
     7b4:	00a00000 	adceq	r0, r0, r0
     7b8:	00ec0000 	rsceq	r0, ip, r0
     7bc:	00010000 	andeq	r0, r1, r0
     7c0:	0000ec5c 	andeq	lr, r0, ip, asr ip
     7c4:	00010000 	andeq	r0, r1, r0
     7c8:	53000100 	movwpl	r0, #256	; 0x100
     7cc:	00000100 	andeq	r0, r0, r0, lsl #2
     7d0:	00000104 	andeq	r0, r0, r4, lsl #2
     7d4:	045c0001 	ldrbeq	r0, [ip], #-1
     7d8:	08000001 	stmdaeq	r0, {r0}
     7dc:	01000001 	tsteq	r0, r1
     7e0:	01085300 	mrseq	r5, (UNDEF: 56)
     7e4:	01180000 	tsteq	r8, r0
     7e8:	00010000 	andeq	r0, r1, r0
     7ec:	0001185c 	andeq	r1, r1, ip, asr r8
     7f0:	00011c00 	andeq	r1, r1, r0, lsl #24
     7f4:	50000100 	andpl	r0, r0, r0, lsl #2
     7f8:	0000011c 	andeq	r0, r0, ip, lsl r1
     7fc:	0000013c 	andeq	r0, r0, ip, lsr r1
     800:	445c0001 	ldrbmi	r0, [ip], #-1
     804:	58000001 	stmdapl	r0, {r0}
     808:	01000001 	tsteq	r0, r1
     80c:	01585000 	cmpeq	r8, r0
     810:	01600000 	cmneq	r0, r0
     814:	00010000 	andeq	r0, r1, r0
     818:	0001605c 	andeq	r6, r1, ip, asr r0
     81c:	00016800 	andeq	r6, r1, r0, lsl #16
     820:	53000100 	movwpl	r0, #256	; 0x100
     824:	00000168 	andeq	r0, r0, r8, ror #2
     828:	00000178 	andeq	r0, r0, r8, ror r1
     82c:	785c0001 	ldmdavc	ip, {r0}^
     830:	80000001 	andhi	r0, r0, r1
     834:	05000001 	streq	r0, [r0, #-1]
     838:	34007c00 	strcc	r7, [r0], #-3072	; 0xc00
     83c:	01809f25 	orreq	r9, r0, r5, lsr #30
     840:	01880000 	orreq	r0, r8, r0
     844:	00010000 	andeq	r0, r1, r0
     848:	0001885c 	andeq	r8, r1, ip, asr r8
     84c:	00019000 	andeq	r9, r1, r0
     850:	53000100 	movwpl	r0, #256	; 0x100
     854:	00000190 	muleq	r0, r0, r1
     858:	00000194 	muleq	r0, r4, r1
     85c:	945c0001 	ldrbls	r0, [ip], #-1
     860:	9c000001 	stcls	0, cr0, [r0], {1}
     864:	01000001 	tsteq	r0, r1
     868:	019c5300 	orrseq	r5, ip, r0, lsl #6
     86c:	01ac0000 			; <UNDEFINED> instruction: 0x01ac0000
     870:	00010000 	andeq	r0, r1, r0
     874:	0001ac5c 	andeq	sl, r1, ip, asr ip
     878:	0001b400 	andeq	fp, r1, r0, lsl #8
     87c:	7c000500 	cfstr32vc	mvfx0, [r0], {-0}
     880:	9f253100 	svcls	0x00253100
     884:	000001b4 			; <UNDEFINED> instruction: 0x000001b4
     888:	000001bc 			; <UNDEFINED> instruction: 0x000001bc
     88c:	bc5c0001 	mrrclt	0, 0, r0, ip, cr1
     890:	bf000001 	svclt	0x00000001
     894:	01000001 	tsteq	r0, r1
     898:	01bf5300 			; <UNDEFINED> instruction: 0x01bf5300
     89c:	01e00000 	mvneq	r0, r0
     8a0:	00040000 	andeq	r0, r4, r0
     8a4:	9f5301f3 	svcls	0x005301f3
     8a8:	000001e0 	andeq	r0, r0, r0, ror #3
     8ac:	000001eb 	andeq	r0, r0, fp, ror #3
     8b0:	005c0001 	subseq	r0, ip, r1
     8b4:	00000000 	andeq	r0, r0, r0
     8b8:	ec000000 	stc	0, cr0, [r0], {-0}
     8bc:	fc000000 	stc2	0, cr0, [r0], {-0}
     8c0:	02000000 	andeq	r0, r0, #0
     8c4:	fc9f3000 	ldc2	0, cr3, [pc], {0}
     8c8:	04000000 	streq	r0, [r0], #-0
     8cc:	02000001 	andeq	r0, r0, #1
     8d0:	049f3100 	ldreq	r3, [pc], #256	; 8d8 <_start-0x7728>
     8d4:	08000001 	stmdaeq	r0, {r0}
     8d8:	02000001 	andeq	r0, r0, #1
     8dc:	009f3000 	addseq	r3, pc, r0
     8e0:	00000000 	andeq	r0, r0, r0
     8e4:	28000000 	stmdacs	r0, {}	; <UNPREDICTABLE>
     8e8:	3b000002 	blcc	8f8 <_start-0x7708>
     8ec:	01000002 	tsteq	r0, r2
     8f0:	023b5000 	eorseq	r5, fp, #0
     8f4:	025c0000 	subseq	r0, ip, #0
     8f8:	00040000 	andeq	r0, r4, r0
     8fc:	9f5001f3 	svcls	0x005001f3
     900:	0000025c 	andeq	r0, r0, ip, asr r2
     904:	00000290 	muleq	r0, r0, r2
     908:	00500001 	subseq	r0, r0, r1
     90c:	00000000 	andeq	r0, r0, r0
     910:	28000000 	stmdacs	r0, {}	; <UNPREDICTABLE>
     914:	3b000002 	blcc	924 <_start-0x76dc>
     918:	01000002 	tsteq	r0, r2
     91c:	023b5100 	eorseq	r5, fp, #0, 2
     920:	025c0000 	subseq	r0, ip, #0
     924:	00040000 	andeq	r0, r4, r0
     928:	9f5101f3 	svcls	0x005101f3
     92c:	0000025c 	andeq	r0, r0, ip, asr r2
     930:	00000290 	muleq	r0, r0, r2
     934:	00510001 	subseq	r0, r1, r1
     938:	00000000 	andeq	r0, r0, r0
     93c:	90000000 	andls	r0, r0, r0
     940:	bc000002 	stclt	0, cr0, [r0], {2}
     944:	01000002 	tsteq	r0, r2
     948:	02bc5000 	adcseq	r5, ip, #0
     94c:	050c0000 	streq	r0, [ip, #-0]
     950:	00010000 	andeq	r0, r1, r0
     954:	00050c5a 	andeq	r0, r5, sl, asr ip
     958:	00052400 	andeq	r2, r5, r0, lsl #8
     95c:	f3000400 	vshl.u8	d0, d0, d0
     960:	009f5001 	addseq	r5, pc, r1
     964:	00000000 	andeq	r0, r0, r0
     968:	90000000 	andls	r0, r0, r0
     96c:	a4000002 	strge	r0, [r0], #-2
     970:	01000002 	tsteq	r0, r2
     974:	02a45100 	adceq	r5, r4, #0, 2
     978:	02bc0000 	adcseq	r0, ip, #0
     97c:	00030000 	andeq	r0, r3, r0
     980:	bc9f0171 	ldflts	f0, [pc], {113}	; 0x71
     984:	24000002 	strcs	r0, [r0], #-2
     988:	04000005 	streq	r0, [r0], #-5
     98c:	5101f300 	mrspl	pc, SP_irq	; <UNPREDICTABLE>
     990:	0000009f 	muleq	r0, pc, r0	; <UNPREDICTABLE>
     994:	00000000 	andeq	r0, r0, r0
     998:	00029000 	andeq	r9, r2, r0
     99c:	0002c400 	andeq	ip, r2, r0, lsl #8
     9a0:	52000100 	andpl	r0, r0, #0, 2
     9a4:	000002c4 	andeq	r0, r0, r4, asr #5
     9a8:	000002ec 	andeq	r0, r0, ip, ror #5
     9ac:	ec520001 	mrrc	0, 0, r0, r2, cr1
     9b0:	bc000002 	stclt	0, cr0, [r0], {2}
     9b4:	01000004 	tsteq	r0, r4
     9b8:	04bc5600 	ldrteq	r5, [ip], #1536	; 0x600
     9bc:	05240000 	streq	r0, [r4, #-0]!
     9c0:	00010000 	andeq	r0, r1, r0
     9c4:	00000052 	andeq	r0, r0, r2, asr r0
     9c8:	00000000 	andeq	r0, r0, r0
     9cc:	00029000 	andeq	r9, r2, r0
     9d0:	0002ac00 	andeq	sl, r2, r0, lsl #24
     9d4:	53000100 	movwpl	r0, #256	; 0x100
	...
     9e0:	000002a0 	andeq	r0, r0, r0, lsr #5
     9e4:	000002bc 			; <UNDEFINED> instruction: 0x000002bc
     9e8:	bc500001 	mrrclt	0, 0, r0, r0, cr1	; <UNPREDICTABLE>
     9ec:	c0000002 	andgt	r0, r0, r2
     9f0:	01000002 	tsteq	r0, r2
     9f4:	02c05400 	sbceq	r5, r0, #0, 8
     9f8:	02cc0000 	sbceq	r0, ip, #0
     9fc:	00030000 	andeq	r0, r3, r0
     a00:	cc9f0174 	ldfgts	f0, [pc], {116}	; 0x74
     a04:	d8000002 	stmdale	r0, {r1}
     a08:	01000002 	tsteq	r0, r2
     a0c:	02d85400 	sbcseq	r5, r8, #0, 8
     a10:	02e40000 	rsceq	r0, r4, #0
     a14:	00030000 	andeq	r0, r3, r0
     a18:	e49f0174 	ldr	r0, [pc], #372	; a20 <_start-0x75e0>
     a1c:	c0000002 	andgt	r0, r0, r2
     a20:	01000004 	tsteq	r0, r4
     a24:	04c05400 	strbeq	r5, [r0], #1024	; 0x400
     a28:	04cc0000 	strbeq	r0, [ip], #0
     a2c:	00030000 	andeq	r0, r3, r0
     a30:	cc9f0174 	ldfgts	f0, [pc], {116}	; 0x74
     a34:	f8000004 			; <UNDEFINED> instruction: 0xf8000004
     a38:	01000004 	tsteq	r0, r4
     a3c:	04f85400 	ldrbteq	r5, [r8], #1024	; 0x400
     a40:	05040000 	streq	r0, [r4, #-0]
     a44:	00010000 	andeq	r0, r1, r0
     a48:	00050450 	andeq	r0, r5, r0, asr r4
     a4c:	00050c00 	andeq	r0, r5, r0, lsl #24
     a50:	74000300 	strvc	r0, [r0], #-768	; 0x300
     a54:	00009f01 	andeq	r9, r0, r1, lsl #30
     a58:	00000000 	andeq	r0, r0, r0
     a5c:	02a80000 	adceq	r0, r8, #0
     a60:	050c0000 	streq	r0, [ip, #-0]
     a64:	00010000 	andeq	r0, r1, r0
     a68:	00050c58 	andeq	r0, r5, r8, asr ip
     a6c:	00052400 	andeq	r2, r5, r0, lsl #8
     a70:	f3000a00 	vpmax.u8	d0, d0, d0
     a74:	01f35101 	mvnseq	r5, r1, lsl #2
     a78:	1c312250 	lfmne	f2, 4, [r1], #-320	; 0xfffffec0
     a7c:	0000009f 	muleq	r0, pc, r0	; <UNPREDICTABLE>
     a80:	00000000 	andeq	r0, r0, r0
     a84:	0003f400 	andeq	pc, r3, r0, lsl #8
     a88:	0003f800 	andeq	pc, r3, r0, lsl #16
     a8c:	50000100 	andpl	r0, r0, r0, lsl #2
     a90:	00000418 	andeq	r0, r0, r8, lsl r4
     a94:	0000041c 	andeq	r0, r0, ip, lsl r4
     a98:	3c500001 	mrrccc	0, 0, r0, r0, cr1	; <UNPREDICTABLE>
     a9c:	40000004 	andmi	r0, r0, r4
     aa0:	01000004 	tsteq	r0, r4
     aa4:	04605000 	strbteq	r5, [r0], #-0
     aa8:	04640000 	strbteq	r0, [r4], #-0
     aac:	00010000 	andeq	r0, r1, r0
     ab0:	00046c50 	andeq	r6, r4, r0, asr ip
     ab4:	00047000 	andeq	r7, r4, r0
     ab8:	50000100 	andpl	r0, r0, r0, lsl #2
     abc:	00000490 	muleq	r0, r0, r4
     ac0:	00000494 	muleq	r0, r4, r4
     ac4:	b8500001 	ldmdalt	r0, {r0}^
     ac8:	e0000004 	and	r0, r0, r4
     acc:	01000004 	tsteq	r0, r4
     ad0:	00005000 	andeq	r5, r0, r0
     ad4:	00000000 	andeq	r0, r0, r0
     ad8:	02ec0000 	rsceq	r0, ip, #0
     adc:	02f40000 	rscseq	r0, r4, #0
     ae0:	00020000 	andeq	r0, r2, r0
     ae4:	02f49f30 	rscseq	r9, r4, #48, 30	; 0xc0
     ae8:	02f80000 	rscseq	r0, r8, #0
     aec:	00010000 	andeq	r0, r1, r0
     af0:	00030457 	andeq	r0, r3, r7, asr r4
     af4:	0004e000 	andeq	lr, r4, r0
     af8:	57000100 	strpl	r0, [r0, -r0, lsl #2]
	...
     b04:	00000004 	andeq	r0, r0, r4
     b08:	00000008 	andeq	r0, r0, r8
     b0c:	00730007 	rsbseq	r0, r3, r7
     b10:	2110000a 	tstcs	r0, sl
     b14:	0000089f 	muleq	r0, pc, r8	; <UNPREDICTABLE>
     b18:	00001000 	andeq	r1, r0, r0
     b1c:	53000100 	movwpl	r0, #256	; 0x100
	...
     b28:	00000014 	andeq	r0, r0, r4, lsl r0
     b2c:	00000018 	andeq	r0, r0, r8, lsl r0
     b30:	00730007 	rsbseq	r0, r3, r7
     b34:	1aefff0b 	bne	ffc00768 <__bss_end__+0xffbf6748>
     b38:	0000189f 	muleq	r0, pc, r8	; <UNPREDICTABLE>
     b3c:	00002000 	andeq	r2, r0, r0
     b40:	53000100 	movwpl	r0, #256	; 0x100
	...
     b50:	0000000c 	andeq	r0, r0, ip
     b54:	0c500001 	mrrceq	0, 0, r0, r0, cr1	; <UNPREDICTABLE>
     b58:	20000000 	andcs	r0, r0, r0
     b5c:	01000000 	mrseq	r0, (UNDEF: 0)
     b60:	00005400 	andeq	r5, r0, r0, lsl #8
     b64:	00000000 	andeq	r0, r0, r0
     b68:	00340000 	eorseq	r0, r4, r0
     b6c:	003c0000 	eorseq	r0, ip, r0
     b70:	00030000 	andeq	r0, r3, r0
     b74:	3c9f0473 	cfldrscc	mvf0, [pc], {115}	; 0x73
     b78:	47000000 	strmi	r0, [r0, -r0]
     b7c:	01000000 	mrseq	r0, (UNDEF: 0)
     b80:	00005300 	andeq	r5, r0, r0, lsl #6
     b84:	00000000 	andeq	r0, r0, r0
     b88:	00480000 	subeq	r0, r8, r0
     b8c:	00740000 	rsbseq	r0, r4, r0
     b90:	00010000 	andeq	r0, r1, r0
     b94:	00007450 	andeq	r7, r0, r0, asr r4
     b98:	00008300 	andeq	r8, r0, r0, lsl #6
     b9c:	73000300 	movwvc	r0, #768	; 0x300
     ba0:	00009f78 	andeq	r9, r0, r8, ror pc
     ba4:	00000000 	andeq	r0, r0, r0
     ba8:	89880000 	stmibhi	r8, {}	; <UNPREDICTABLE>
     bac:	898c0000 	stmibhi	ip, {}	; <UNPREDICTABLE>
     bb0:	00020000 	andeq	r0, r2, r0
     bb4:	898c9f30 	stmibhi	ip, {r4, r5, r8, r9, sl, fp, ip, pc}
     bb8:	89900000 	ldmibhi	r0, {}	; <UNPREDICTABLE>
     bbc:	00010000 	andeq	r0, r1, r0
     bc0:	00000050 	andeq	r0, r0, r0, asr r0
     bc4:	00000000 	andeq	r0, r0, r0
     bc8:	0089a000 	addeq	sl, r9, r0
     bcc:	0089a400 	addeq	sl, r9, r0, lsl #8
     bd0:	30000200 	andcc	r0, r0, r0, lsl #4
     bd4:	0089a49f 	umulleq	sl, r9, pc, r4	; <UNPREDICTABLE>
     bd8:	0089a800 	addeq	sl, r9, r0, lsl #16
     bdc:	53000100 	movwpl	r0, #256	; 0x100
     be0:	000089ac 	andeq	r8, r0, ip, lsr #19
     be4:	000089b4 			; <UNDEFINED> instruction: 0x000089b4
     be8:	00530001 	subseq	r0, r3, r1
	...
     bf4:	04000000 	streq	r0, [r0], #-0
     bf8:	01000000 	mrseq	r0, (UNDEF: 0)
     bfc:	00045000 	andeq	r5, r4, r0
     c00:	000c0000 	andeq	r0, ip, r0
     c04:	00010000 	andeq	r0, r1, r0
     c08:	00000c53 	andeq	r0, r0, r3, asr ip
     c0c:	00001000 	andeq	r1, r0, r0
     c10:	50000100 	andpl	r0, r0, r0, lsl #2
     c14:	00000010 	andeq	r0, r0, r0, lsl r0
     c18:	0000001c 	andeq	r0, r0, ip, lsl r0
     c1c:	00530001 	subseq	r0, r3, r1
     c20:	00000000 	andeq	r0, r0, r0
     c24:	3c000000 	stccc	0, cr0, [r0], {-0}
     c28:	47000000 	strmi	r0, [r0, -r0]
     c2c:	01000000 	mrseq	r0, (UNDEF: 0)
     c30:	00475000 	subeq	r5, r7, r0
     c34:	00600000 	rsbeq	r0, r0, r0
     c38:	00010000 	andeq	r0, r1, r0
     c3c:	00000055 	andeq	r0, r0, r5, asr r0
     c40:	00000000 	andeq	r0, r0, r0
     c44:	00005000 	andeq	r5, r0, r0
     c48:	00005400 	andeq	r5, r0, r0, lsl #8
     c4c:	50000100 	andpl	r0, r0, r0, lsl #2
	...
     c58:	00000060 	andeq	r0, r0, r0, rrx
     c5c:	0000006c 	andeq	r0, r0, ip, rrx
     c60:	6c500001 	mrrcvs	0, 0, r0, r0, cr1	; <UNPREDICTABLE>
     c64:	74000000 	strvc	r0, [r0], #-0
     c68:	04000000 	streq	r0, [r0], #-0
     c6c:	5001f300 	andpl	pc, r1, r0, lsl #6
     c70:	0000009f 	muleq	r0, pc, r0	; <UNPREDICTABLE>
     c74:	00000000 	andeq	r0, r0, r0
     c78:	00007400 	andeq	r7, r0, r0, lsl #8
     c7c:	00008000 	andeq	r8, r0, r0
     c80:	50000100 	andpl	r0, r0, r0, lsl #2
     c84:	00000080 	andeq	r0, r0, r0, lsl #1
     c88:	00000088 	andeq	r0, r0, r8, lsl #1
     c8c:	01f30004 	mvnseq	r0, r4
     c90:	00009f50 	andeq	r9, r0, r0, asr pc
	...
     c9c:	00900000 	addseq	r0, r0, r0
     ca0:	00010000 	andeq	r0, r1, r0
     ca4:	00009050 	andeq	r9, r0, r0, asr r0
     ca8:	0000d400 	andeq	sp, r0, r0, lsl #8
     cac:	54000100 	strpl	r0, [r0], #-256	; 0x100
	...
     cb8:	00000048 	andeq	r0, r0, r8, asr #32
     cbc:	0000004c 	andeq	r0, r0, ip, asr #32
     cc0:	54550001 	ldrbpl	r0, [r5], #-1
     cc4:	58000000 	stmdapl	r0, {}	; <UNPREDICTABLE>
     cc8:	01000000 	mrseq	r0, (UNDEF: 0)
     ccc:	00605500 	rsbeq	r5, r0, r0, lsl #10
     cd0:	00640000 	rsbeq	r0, r4, r0
     cd4:	00010000 	andeq	r0, r1, r0
     cd8:	00006c55 	andeq	r6, r0, r5, asr ip
     cdc:	00007000 	andeq	r7, r0, r0
     ce0:	55000100 	strpl	r0, [r0, #-256]	; 0x100
     ce4:	00000078 	andeq	r0, r0, r8, ror r0
     ce8:	0000007c 	andeq	r0, r0, ip, ror r0
     cec:	84550001 	ldrbhi	r0, [r5], #-1
     cf0:	88000000 	stmdahi	r0, {}	; <UNPREDICTABLE>
     cf4:	01000000 	mrseq	r0, (UNDEF: 0)
     cf8:	008c5500 	addeq	r5, ip, r0, lsl #10
     cfc:	00d40000 	sbcseq	r0, r4, r0
     d00:	00010000 	andeq	r0, r1, r0
     d04:	00000055 	andeq	r0, r0, r5, asr r0
     d08:	00000000 	andeq	r0, r0, r0
     d0c:	00001c00 	andeq	r1, r0, r0, lsl #24
     d10:	00004400 	andeq	r4, r0, r0, lsl #8
     d14:	53000100 	movwpl	r0, #256	; 0x100
     d18:	00000044 	andeq	r0, r0, r4, asr #32
     d1c:	0000004c 	andeq	r0, r0, ip, asr #32
     d20:	0070001c 	rsbseq	r0, r0, ip, lsl r0
     d24:	25f72cf7 	ldrbcs	r2, [r7, #3319]!	; 0xcf7
     d28:	cd0825f4 	cfstr32gt	mvfx2, [r8, #-976]	; 0xfffffc30
     d2c:	00cccccc 	sbceq	ip, ip, ip, asr #25
     d30:	1e000000 	cdpne	0, 0, cr0, cr0, cr0, {0}
     d34:	25f72008 	ldrbcs	r2, [r7, #8]!
     d38:	332cf725 	msrcc	CPSR_fs, #9699328	; 0x940000
     d3c:	004c9f25 	subeq	r9, ip, r5, lsr #30
     d40:	00500000 	subseq	r0, r0, r0
     d44:	00010000 	andeq	r0, r1, r0
     d48:	00005053 	andeq	r5, r0, r3, asr r0
     d4c:	00005800 	andeq	r5, r0, r0, lsl #16
     d50:	70001c00 	andvc	r1, r0, r0, lsl #24
     d54:	f72cf700 			; <UNDEFINED> instruction: 0xf72cf700
     d58:	0825f425 	stmdaeq	r5!, {r0, r2, r5, sl, ip, sp, lr, pc}
     d5c:	cccccccd 	stclgt	12, cr12, [ip], {205}	; 0xcd
     d60:	00000000 	andeq	r0, r0, r0
     d64:	f720081e 			; <UNDEFINED> instruction: 0xf720081e
     d68:	2cf72525 	cfldr64cs	mvdx2, [r7], #148	; 0x94
     d6c:	589f2533 	ldmpl	pc, {r0, r1, r4, r5, r8, sl, sp}	; <UNPREDICTABLE>
     d70:	5c000000 	stcpl	0, cr0, [r0], {-0}
     d74:	01000000 	mrseq	r0, (UNDEF: 0)
     d78:	005c5300 	subseq	r5, ip, r0, lsl #6
     d7c:	00640000 	rsbeq	r0, r4, r0
     d80:	001c0000 	andseq	r0, ip, r0
     d84:	2cf70070 	ldclcs	0, cr0, [r7], #448	; 0x1c0
     d88:	25f425f7 	ldrbcs	r2, [r4, #1527]!	; 0x5f7
     d8c:	cccccd08 	stclgt	13, cr12, [ip], {8}
     d90:	000000cc 	andeq	r0, r0, ip, asr #1
     d94:	20081e00 	andcs	r1, r8, r0, lsl #28
     d98:	f72525f7 			; <UNDEFINED> instruction: 0xf72525f7
     d9c:	9f25332c 	svcls	0x0025332c
     da0:	00000064 	andeq	r0, r0, r4, rrx
     da4:	00000068 	andeq	r0, r0, r8, rrx
     da8:	68530001 	ldmdavs	r3, {r0}^
     dac:	70000000 	andvc	r0, r0, r0
     db0:	1c000000 	stcne	0, cr0, [r0], {-0}
     db4:	f7007000 			; <UNDEFINED> instruction: 0xf7007000
     db8:	f425f72c 	vld1.8	{d15}, [r5 :128], ip
     dbc:	cccd0825 	stclgt	8, cr0, [sp], {37}	; 0x25
     dc0:	0000cccc 	andeq	ip, r0, ip, asr #25
     dc4:	081e0000 	ldmdaeq	lr, {}	; <UNPREDICTABLE>
     dc8:	2525f720 	strcs	pc, [r5, #-1824]!	; 0x720
     dcc:	25332cf7 	ldrcs	r2, [r3, #-3319]!	; 0xcf7
     dd0:	0000709f 	muleq	r0, pc, r0	; <UNPREDICTABLE>
     dd4:	00007400 	andeq	r7, r0, r0, lsl #8
     dd8:	53000100 	movwpl	r0, #256	; 0x100
     ddc:	00000074 	andeq	r0, r0, r4, ror r0
     de0:	0000007c 	andeq	r0, r0, ip, ror r0
     de4:	0070001c 	rsbseq	r0, r0, ip, lsl r0
     de8:	25f72cf7 	ldrbcs	r2, [r7, #3319]!	; 0xcf7
     dec:	cd0825f4 	cfstr32gt	mvfx2, [r8, #-976]	; 0xfffffc30
     df0:	00cccccc 	sbceq	ip, ip, ip, asr #25
     df4:	1e000000 	cdpne	0, 0, cr0, cr0, cr0, {0}
     df8:	25f72008 	ldrbcs	r2, [r7, #8]!
     dfc:	332cf725 	msrcc	CPSR_fs, #9699328	; 0x940000
     e00:	007c9f25 	rsbseq	r9, ip, r5, lsr #30
     e04:	00800000 	addeq	r0, r0, r0
     e08:	00010000 	andeq	r0, r1, r0
     e0c:	00008053 	andeq	r8, r0, r3, asr r0
     e10:	00008800 	andeq	r8, r0, r0, lsl #16
     e14:	70001c00 	andvc	r1, r0, r0, lsl #24
     e18:	f72cf700 			; <UNDEFINED> instruction: 0xf72cf700
     e1c:	0825f425 	stmdaeq	r5!, {r0, r2, r5, sl, ip, sp, lr, pc}
     e20:	cccccccd 	stclgt	12, cr12, [ip], {205}	; 0xcd
     e24:	00000000 	andeq	r0, r0, r0
     e28:	f720081e 			; <UNDEFINED> instruction: 0xf720081e
     e2c:	2cf72525 	cfldr64cs	mvdx2, [r7], #148	; 0x94
     e30:	889f2533 	ldmhi	pc, {r0, r1, r4, r5, r8, sl, sp}	; <UNPREDICTABLE>
     e34:	8c000000 	stchi	0, cr0, [r0], {-0}
     e38:	01000000 	mrseq	r0, (UNDEF: 0)
     e3c:	008c5300 	addeq	r5, ip, r0, lsl #6
     e40:	00900000 	addseq	r0, r0, r0
     e44:	001c0000 	andseq	r0, ip, r0
     e48:	2cf70070 	ldclcs	0, cr0, [r7], #448	; 0x1c0
     e4c:	25f425f7 	ldrbcs	r2, [r4, #1527]!	; 0x5f7
     e50:	cccccd08 	stclgt	13, cr12, [ip], {8}
     e54:	000000cc 	andeq	r0, r0, ip, asr #1
     e58:	20081e00 	andcs	r1, r8, r0, lsl #28
     e5c:	f72525f7 			; <UNDEFINED> instruction: 0xf72525f7
     e60:	9f25332c 	svcls	0x0025332c
     e64:	00000090 	muleq	r0, r0, r0
     e68:	00000098 	muleq	r0, r8, r0
     e6c:	0074001c 	rsbseq	r0, r4, ip, lsl r0
     e70:	25f72cf7 	ldrbcs	r2, [r7, #3319]!	; 0xcf7
     e74:	cd0825f4 	cfstr32gt	mvfx2, [r8, #-976]	; 0xfffffc30
     e78:	00cccccc 	sbceq	ip, ip, ip, asr #25
     e7c:	1e000000 	cdpne	0, 0, cr0, cr0, cr0, {0}
     e80:	25f72008 	ldrbcs	r2, [r7, #8]!
     e84:	332cf725 	msrcc	CPSR_fs, #9699328	; 0x940000
     e88:	00989f25 	addseq	r9, r8, r5, lsr #30
     e8c:	009c0000 	addseq	r0, ip, r0
     e90:	00170000 	andseq	r0, r7, r0
     e94:	2cf70074 	ldclcs	0, cr0, [r7], #464	; 0x1d0
     e98:	007125f7 	ldrshteq	r2, [r1], #-87	; 0xffffffa9
     e9c:	25f72cf7 	ldrbcs	r2, [r7, #3319]!	; 0xcf7
     ea0:	f720081e 			; <UNDEFINED> instruction: 0xf720081e
     ea4:	2cf72525 	cfldr64cs	mvdx2, [r7], #148	; 0x94
     ea8:	9c9f2533 	cfldr32ls	mvfx2, [pc], {51}	; 0x33
     eac:	d4000000 	strle	r0, [r0], #-0
     eb0:	1c000000 	stcne	0, cr0, [r0], {-0}
     eb4:	f7007400 			; <UNDEFINED> instruction: 0xf7007400
     eb8:	f425f72c 	vld1.8	{d15}, [r5 :128], ip
     ebc:	cccd0825 	stclgt	8, cr0, [sp], {37}	; 0x25
     ec0:	0000cccc 	andeq	ip, r0, ip, asr #25
     ec4:	081e0000 	ldmdaeq	lr, {}	; <UNPREDICTABLE>
     ec8:	2525f720 	strcs	pc, [r5, #-1824]!	; 0x720
     ecc:	25332cf7 	ldrcs	r2, [r3, #-3319]!	; 0xcf7
     ed0:	0000009f 	muleq	r0, pc, r0	; <UNPREDICTABLE>
     ed4:	00000000 	andeq	r0, r0, r0
     ed8:	00009400 	andeq	r9, r0, r0, lsl #8
     edc:	0000b800 	andeq	fp, r0, r0, lsl #16
     ee0:	50000100 	andpl	r0, r0, r0, lsl #2
     ee4:	000000b8 	strheq	r0, [r0], -r8
     ee8:	000000c4 	andeq	r0, r0, r4, asr #1
     eec:	71310008 	teqvc	r1, r8
     ef0:	00732400 	rsbseq	r2, r3, r0, lsl #8
     ef4:	00c49f21 	sbceq	r9, r4, r1, lsr #30
     ef8:	00c70000 	sbceq	r0, r7, r0
     efc:	00010000 	andeq	r0, r1, r0
     f00:	00000051 	andeq	r0, r0, r1, asr r0
     f04:	00000000 	andeq	r0, r0, r0
     f08:	0000d400 	andeq	sp, r0, r0, lsl #8
     f0c:	0000f800 	andeq	pc, r0, r0, lsl #16
     f10:	50000100 	andpl	r0, r0, r0, lsl #2
     f14:	000000f8 	strdeq	r0, [r0], -r8
     f18:	0000010c 	andeq	r0, r0, ip, lsl #2
     f1c:	01f30004 	mvnseq	r0, r4
     f20:	00009f50 	andeq	r9, r0, r0, asr pc
     f24:	00000000 	andeq	r0, r0, r0
     f28:	00e00000 	rsceq	r0, r0, r0
     f2c:	00e80000 	rsceq	r0, r8, r0
     f30:	00020000 	andeq	r0, r2, r0
     f34:	00e89f30 	rsceq	r9, r8, r0, lsr pc
     f38:	00e80000 	rsceq	r0, r8, r0
     f3c:	00010000 	andeq	r0, r1, r0
     f40:	0000e852 	andeq	lr, r0, r2, asr r8
     f44:	0000f000 	andeq	pc, r0, r0
     f48:	30000200 	andcc	r0, r0, r0, lsl #4
     f4c:	0000f09f 	muleq	r0, pc, r0	; <UNPREDICTABLE>
     f50:	00010300 	andeq	r0, r1, r0, lsl #6
     f54:	52000100 	andpl	r0, r0, #0, 2
	...
     f60:	000000e0 	andeq	r0, r0, r0, ror #1
     f64:	000000f4 	strdeq	r0, [r0], -r4
     f68:	9f300002 	svcls	0x00300002
     f6c:	000000f4 	strdeq	r0, [r0], -r4
     f70:	00000100 	andeq	r0, r0, r0, lsl #2
     f74:	73310005 	teqvc	r1, #5
     f78:	009f2400 	addseq	r2, pc, r0, lsl #8
     f7c:	03000001 	movweq	r0, #1
     f80:	01000001 	tsteq	r0, r1
     f84:	01035100 	mrseq	r5, (UNDEF: 19)
     f88:	010c0000 	mrseq	r0, (UNDEF: 12)
     f8c:	00080000 	andeq	r0, r8, r0
     f90:	5001f331 	andpl	pc, r1, r1, lsr r3	; <UNPREDICTABLE>
     f94:	9f241a4f 	svcls	0x00241a4f
	...
     fa0:	0000010c 	andeq	r0, r0, ip, lsl #2
     fa4:	00000130 	andeq	r0, r0, r0, lsr r1
     fa8:	30500001 	subscc	r0, r0, r1
     fac:	44000001 	strmi	r0, [r0], #-1
     fb0:	04000001 	streq	r0, [r0], #-1
     fb4:	5001f300 	andpl	pc, r1, r0, lsl #6
     fb8:	0000009f 	muleq	r0, pc, r0	; <UNPREDICTABLE>
     fbc:	00000000 	andeq	r0, r0, r0
     fc0:	00011800 	andeq	r1, r1, r0, lsl #16
     fc4:	00012000 	andeq	r2, r1, r0
     fc8:	30000200 	andcc	r0, r0, r0, lsl #4
     fcc:	0001209f 	muleq	r1, pc, r0	; <UNPREDICTABLE>
     fd0:	00012000 	andeq	r2, r1, r0
     fd4:	52000100 	andpl	r0, r0, #0, 2
     fd8:	00000120 	andeq	r0, r0, r0, lsr #2
     fdc:	00000128 	andeq	r0, r0, r8, lsr #2
     fe0:	9f300002 	svcls	0x00300002
     fe4:	00000128 	andeq	r0, r0, r8, lsr #2
     fe8:	0000013b 	andeq	r0, r0, fp, lsr r1
     fec:	00520001 	subseq	r0, r2, r1
     ff0:	00000000 	andeq	r0, r0, r0
     ff4:	18000000 	stmdane	r0, {}	; <UNPREDICTABLE>
     ff8:	2c000001 	stccs	0, cr0, [r0], {1}
     ffc:	02000001 	andeq	r0, r0, #1
    1000:	2c9f3000 	ldccs	0, cr3, [pc], {0}
    1004:	38000001 	stmdacc	r0, {r0}
    1008:	05000001 	streq	r0, [r0, #-1]
    100c:	00733100 	rsbseq	r3, r3, r0, lsl #2
    1010:	01389f24 	teqeq	r8, r4, lsr #30
    1014:	013b0000 	teqeq	fp, r0
    1018:	00010000 	andeq	r0, r1, r0
    101c:	00013b51 	andeq	r3, r1, r1, asr fp
    1020:	00014400 	andeq	r4, r1, r0, lsl #8
    1024:	31000800 	tstcc	r0, r0, lsl #16
    1028:	4f5001f3 	svcmi	0x005001f3
    102c:	009f241a 	addseq	r2, pc, sl, lsl r4	; <UNPREDICTABLE>
    1030:	00000000 	andeq	r0, r0, r0
    1034:	44000000 	strmi	r0, [r0], #-0
    1038:	d4000001 	strle	r0, [r0], #-1
    103c:	01000001 	tsteq	r0, r1
    1040:	01d45000 	bicseq	r5, r4, r0
    1044:	02100000 	andseq	r0, r0, #0
    1048:	00010000 	andeq	r0, r1, r0
    104c:	00000054 	andeq	r0, r0, r4, asr r0
    1050:	00000000 	andeq	r0, r0, r0
    1054:	00018c00 	andeq	r8, r1, r0, lsl #24
    1058:	00019000 	andeq	r9, r1, r0
    105c:	55000100 	strpl	r0, [r0, #-256]	; 0x100
    1060:	00000198 	muleq	r0, r8, r1
    1064:	0000019c 	muleq	r0, ip, r1
    1068:	a4550001 	ldrbge	r0, [r5], #-1
    106c:	a8000001 	stmdage	r0, {r0}
    1070:	01000001 	tsteq	r0, r1
    1074:	01b05500 	lslseq	r5, r0, #10
    1078:	01b40000 			; <UNDEFINED> instruction: 0x01b40000
    107c:	00010000 	andeq	r0, r1, r0
    1080:	0001bc55 	andeq	fp, r1, r5, asr ip
    1084:	0001c000 	andeq	ip, r1, r0
    1088:	55000100 	strpl	r0, [r0, #-256]	; 0x100
    108c:	000001c8 	andeq	r0, r0, r8, asr #3
    1090:	000001cc 	andeq	r0, r0, ip, asr #3
    1094:	d0550001 	subsle	r0, r5, r1
    1098:	10000001 	andne	r0, r0, r1
    109c:	01000002 	tsteq	r0, r2
    10a0:	00005500 	andeq	r5, r0, r0, lsl #10
    10a4:	00000000 	andeq	r0, r0, r0
    10a8:	01600000 	cmneq	r0, r0
    10ac:	01880000 	orreq	r0, r8, r0
    10b0:	00010000 	andeq	r0, r1, r0
    10b4:	00018853 	andeq	r8, r1, r3, asr r8
    10b8:	00019000 	andeq	r9, r1, r0
    10bc:	70001c00 	andvc	r1, r0, r0, lsl #24
    10c0:	f72cf700 			; <UNDEFINED> instruction: 0xf72cf700
    10c4:	0825f425 	stmdaeq	r5!, {r0, r2, r5, sl, ip, sp, lr, pc}
    10c8:	cccccccd 	stclgt	12, cr12, [ip], {205}	; 0xcd
    10cc:	00000000 	andeq	r0, r0, r0
    10d0:	f720081e 			; <UNDEFINED> instruction: 0xf720081e
    10d4:	2cf72525 	cfldr64cs	mvdx2, [r7], #148	; 0x94
    10d8:	909f2533 	addsls	r2, pc, r3, lsr r5	; <UNPREDICTABLE>
    10dc:	94000001 	strls	r0, [r0], #-1
    10e0:	01000001 	tsteq	r0, r1
    10e4:	01945300 	orrseq	r5, r4, r0, lsl #6
    10e8:	019c0000 	orrseq	r0, ip, r0
    10ec:	001c0000 	andseq	r0, ip, r0
    10f0:	2cf70070 	ldclcs	0, cr0, [r7], #448	; 0x1c0
    10f4:	25f425f7 	ldrbcs	r2, [r4, #1527]!	; 0x5f7
    10f8:	cccccd08 	stclgt	13, cr12, [ip], {8}
    10fc:	000000cc 	andeq	r0, r0, ip, asr #1
    1100:	20081e00 	andcs	r1, r8, r0, lsl #28
    1104:	f72525f7 			; <UNDEFINED> instruction: 0xf72525f7
    1108:	9f25332c 	svcls	0x0025332c
    110c:	0000019c 	muleq	r0, ip, r1
    1110:	000001a0 	andeq	r0, r0, r0, lsr #3
    1114:	a0530001 	subsge	r0, r3, r1
    1118:	a8000001 	stmdage	r0, {r0}
    111c:	1c000001 	stcne	0, cr0, [r0], {1}
    1120:	f7007000 			; <UNDEFINED> instruction: 0xf7007000
    1124:	f425f72c 	vld1.8	{d15}, [r5 :128], ip
    1128:	cccd0825 	stclgt	8, cr0, [sp], {37}	; 0x25
    112c:	0000cccc 	andeq	ip, r0, ip, asr #25
    1130:	081e0000 	ldmdaeq	lr, {}	; <UNPREDICTABLE>
    1134:	2525f720 	strcs	pc, [r5, #-1824]!	; 0x720
    1138:	25332cf7 	ldrcs	r2, [r3, #-3319]!	; 0xcf7
    113c:	0001a89f 	muleq	r1, pc, r8	; <UNPREDICTABLE>
    1140:	0001ac00 	andeq	sl, r1, r0, lsl #24
    1144:	53000100 	movwpl	r0, #256	; 0x100
    1148:	000001ac 	andeq	r0, r0, ip, lsr #3
    114c:	000001b4 			; <UNDEFINED> instruction: 0x000001b4
    1150:	0070001c 	rsbseq	r0, r0, ip, lsl r0
    1154:	25f72cf7 	ldrbcs	r2, [r7, #3319]!	; 0xcf7
    1158:	cd0825f4 	cfstr32gt	mvfx2, [r8, #-976]	; 0xfffffc30
    115c:	00cccccc 	sbceq	ip, ip, ip, asr #25
    1160:	1e000000 	cdpne	0, 0, cr0, cr0, cr0, {0}
    1164:	25f72008 	ldrbcs	r2, [r7, #8]!
    1168:	332cf725 	msrcc	CPSR_fs, #9699328	; 0x940000
    116c:	01b49f25 			; <UNDEFINED> instruction: 0x01b49f25
    1170:	01b80000 			; <UNDEFINED> instruction: 0x01b80000
    1174:	00010000 	andeq	r0, r1, r0
    1178:	0001b853 	andeq	fp, r1, r3, asr r8
    117c:	0001c000 	andeq	ip, r1, r0
    1180:	70001c00 	andvc	r1, r0, r0, lsl #24
    1184:	f72cf700 			; <UNDEFINED> instruction: 0xf72cf700
    1188:	0825f425 	stmdaeq	r5!, {r0, r2, r5, sl, ip, sp, lr, pc}
    118c:	cccccccd 	stclgt	12, cr12, [ip], {205}	; 0xcd
    1190:	00000000 	andeq	r0, r0, r0
    1194:	f720081e 			; <UNDEFINED> instruction: 0xf720081e
    1198:	2cf72525 	cfldr64cs	mvdx2, [r7], #148	; 0x94
    119c:	c09f2533 	addsgt	r2, pc, r3, lsr r5	; <UNPREDICTABLE>
    11a0:	c4000001 	strgt	r0, [r0], #-1
    11a4:	01000001 	tsteq	r0, r1
    11a8:	01c45300 	biceq	r5, r4, r0, lsl #6
    11ac:	01cc0000 	biceq	r0, ip, r0
    11b0:	001c0000 	andseq	r0, ip, r0
    11b4:	2cf70070 	ldclcs	0, cr0, [r7], #448	; 0x1c0
    11b8:	25f425f7 	ldrbcs	r2, [r4, #1527]!	; 0x5f7
    11bc:	cccccd08 	stclgt	13, cr12, [ip], {8}
    11c0:	000000cc 	andeq	r0, r0, ip, asr #1
    11c4:	20081e00 	andcs	r1, r8, r0, lsl #28
    11c8:	f72525f7 			; <UNDEFINED> instruction: 0xf72525f7
    11cc:	9f25332c 	svcls	0x0025332c
    11d0:	000001cc 	andeq	r0, r0, ip, asr #3
    11d4:	000001d0 	ldrdeq	r0, [r0], -r0	; <UNPREDICTABLE>
    11d8:	d0530001 	subsle	r0, r3, r1
    11dc:	d4000001 	strle	r0, [r0], #-1
    11e0:	1c000001 	stcne	0, cr0, [r0], {1}
    11e4:	f7007000 			; <UNDEFINED> instruction: 0xf7007000
    11e8:	f425f72c 	vld1.8	{d15}, [r5 :128], ip
    11ec:	cccd0825 	stclgt	8, cr0, [sp], {37}	; 0x25
    11f0:	0000cccc 	andeq	ip, r0, ip, asr #25
    11f4:	081e0000 	ldmdaeq	lr, {}	; <UNPREDICTABLE>
    11f8:	2525f720 	strcs	pc, [r5, #-1824]!	; 0x720
    11fc:	25332cf7 	ldrcs	r2, [r3, #-3319]!	; 0xcf7
    1200:	0001d49f 	muleq	r1, pc, r4	; <UNPREDICTABLE>
    1204:	0001dc00 	andeq	sp, r1, r0, lsl #24
    1208:	74001c00 	strvc	r1, [r0], #-3072	; 0xc00
    120c:	f72cf700 			; <UNDEFINED> instruction: 0xf72cf700
    1210:	0825f425 	stmdaeq	r5!, {r0, r2, r5, sl, ip, sp, lr, pc}
    1214:	cccccccd 	stclgt	12, cr12, [ip], {205}	; 0xcd
    1218:	00000000 	andeq	r0, r0, r0
    121c:	f720081e 			; <UNDEFINED> instruction: 0xf720081e
    1220:	2cf72525 	cfldr64cs	mvdx2, [r7], #148	; 0x94
    1224:	dc9f2533 	cfldr32le	mvfx2, [pc], {51}	; 0x33
    1228:	e0000001 	and	r0, r0, r1
    122c:	17000001 	strne	r0, [r0, -r1]
    1230:	f7007400 			; <UNDEFINED> instruction: 0xf7007400
    1234:	7125f72c 	msrvc	SP_abt, ip
    1238:	f72cf700 			; <UNDEFINED> instruction: 0xf72cf700
    123c:	20081e25 	andcs	r1, r8, r5, lsr #28
    1240:	f72525f7 			; <UNDEFINED> instruction: 0xf72525f7
    1244:	9f25332c 	svcls	0x0025332c
    1248:	000001e0 	andeq	r0, r0, r0, ror #3
    124c:	00000210 	andeq	r0, r0, r0, lsl r2
    1250:	0074001c 	rsbseq	r0, r4, ip, lsl r0
    1254:	25f72cf7 	ldrbcs	r2, [r7, #3319]!	; 0xcf7
    1258:	cd0825f4 	cfstr32gt	mvfx2, [r8, #-976]	; 0xfffffc30
    125c:	00cccccc 	sbceq	ip, ip, ip, asr #25
    1260:	1e000000 	cdpne	0, 0, cr0, cr0, cr0, {0}
    1264:	25f72008 	ldrbcs	r2, [r7, #8]!
    1268:	332cf725 	msrcc	CPSR_fs, #9699328	; 0x940000
    126c:	00009f25 	andeq	r9, r0, r5, lsr #30
    1270:	00000000 	andeq	r0, r0, r0
    1274:	01d80000 	bicseq	r0, r8, r0
    1278:	01fc0000 	mvnseq	r0, r0
    127c:	00010000 	andeq	r0, r1, r0
    1280:	0001fc50 	andeq	pc, r1, r0, asr ip	; <UNPREDICTABLE>
    1284:	00020300 	andeq	r0, r2, r0, lsl #6
    1288:	51000100 	mrspl	r0, (UNDEF: 16)
	...
    1294:	00000210 	andeq	r0, r0, r0, lsl r2
    1298:	0000022c 	andeq	r0, r0, ip, lsr #4
    129c:	2c500001 	mrrccs	0, 0, r0, r0, cr1	; <UNPREDICTABLE>
    12a0:	34000002 	strcc	r0, [r0], #-2
    12a4:	01000002 	tsteq	r0, r2
    12a8:	02345400 	eorseq	r5, r4, #0, 8
    12ac:	023c0000 	eorseq	r0, ip, #0
    12b0:	00010000 	andeq	r0, r1, r0
    12b4:	00023c50 	andeq	r3, r2, r0, asr ip
    12b8:	00024400 	andeq	r4, r2, r0, lsl #8
    12bc:	54000100 	strpl	r0, [r0], #-256	; 0x100
    12c0:	00000244 	andeq	r0, r0, r4, asr #4
    12c4:	00000250 	andeq	r0, r0, r0, asr r2
    12c8:	01f30004 	mvnseq	r0, r4
    12cc:	02509f50 	subseq	r9, r0, #80, 30	; 0x140
    12d0:	02540000 	subseq	r0, r4, #0
    12d4:	00010000 	andeq	r0, r1, r0
    12d8:	00025450 	andeq	r5, r2, r0, asr r4
    12dc:	00025c00 	andeq	r5, r2, r0, lsl #24
    12e0:	54000100 	strpl	r0, [r0], #-256	; 0x100
	...
    12ec:	00000220 	andeq	r0, r0, r0, lsr #4
    12f0:	00000230 	andeq	r0, r0, r0, lsr r2
    12f4:	9f300002 	svcls	0x00300002
    12f8:	00000230 	andeq	r0, r0, r0, lsr r2
    12fc:	00000234 	andeq	r0, r0, r4, lsr r2
    1300:	34500001 	ldrbcc	r0, [r0], #-1
    1304:	40000002 	andmi	r0, r0, r2
    1308:	02000002 	andeq	r0, r0, #2
    130c:	409f3000 	addsmi	r3, pc, r0
    1310:	4c000002 	stcmi	0, cr0, [r0], {2}
    1314:	01000002 	tsteq	r0, r2
    1318:	00005000 	andeq	r5, r0, r0
    131c:	00000000 	andeq	r0, r0, r0
    1320:	025c0000 	subseq	r0, ip, #0
    1324:	02730000 	rsbseq	r0, r3, #0
    1328:	00010000 	andeq	r0, r1, r0
    132c:	00027350 	andeq	r7, r2, r0, asr r3
    1330:	00027800 	andeq	r7, r2, r0, lsl #16
    1334:	f3000400 	vshl.u8	d0, d0, d0
    1338:	789f5001 	ldmvc	pc, {r0, ip, lr}	; <UNPREDICTABLE>
    133c:	7b000002 	blvc	134c <_start-0x6cb4>
    1340:	01000002 	tsteq	r0, r2
    1344:	027b5000 	rsbseq	r5, fp, #0
    1348:	02800000 	addeq	r0, r0, #0
    134c:	00040000 	andeq	r0, r4, r0
    1350:	9f5001f3 	svcls	0x005001f3
	...
    135c:	0000025c 	andeq	r0, r0, ip, asr r2
    1360:	00000273 	andeq	r0, r0, r3, ror r2
    1364:	73510001 	cmpvc	r1, #1
    1368:	78000002 	stmdavc	r0, {r1}
    136c:	04000002 	streq	r0, [r0], #-2
    1370:	5101f300 	mrspl	pc, SP_irq	; <UNPREDICTABLE>
    1374:	0002789f 	muleq	r2, pc, r8	; <UNPREDICTABLE>
    1378:	00027b00 	andeq	r7, r2, r0, lsl #22
    137c:	51000100 	mrspl	r0, (UNDEF: 16)
    1380:	0000027b 	andeq	r0, r0, fp, ror r2
    1384:	00000280 	andeq	r0, r0, r0, lsl #5
    1388:	01f30004 	mvnseq	r0, r4
    138c:	00009f51 	andeq	r9, r0, r1, asr pc
    1390:	00000000 	andeq	r0, r0, r0
    1394:	02800000 	addeq	r0, r0, #0
    1398:	03180000 	tsteq	r8, #0
    139c:	00010000 	andeq	r0, r1, r0
    13a0:	00031850 	andeq	r1, r3, r0, asr r8
    13a4:	00035800 	andeq	r5, r3, r0, lsl #16
    13a8:	54000100 	strpl	r0, [r0], #-256	; 0x100
	...
    13b4:	00000280 	andeq	r0, r0, r0, lsl #5
    13b8:	0000031b 	andeq	r0, r0, fp, lsl r3
    13bc:	1b510001 	blne	14413c8 <__bss_end__+0x14373a8>
    13c0:	58000003 	stmdapl	r0, {r0, r1}
    13c4:	04000003 	streq	r0, [r0], #-3
    13c8:	5101f300 	mrspl	pc, SP_irq	; <UNPREDICTABLE>
    13cc:	0000009f 	muleq	r0, pc, r0	; <UNPREDICTABLE>
    13d0:	00000000 	andeq	r0, r0, r0
    13d4:	0002d000 	andeq	sp, r2, r0
    13d8:	0002d400 	andeq	sp, r2, r0, lsl #8
    13dc:	56000100 	strpl	r0, [r0], -r0, lsl #2
    13e0:	000002dc 	ldrdeq	r0, [r0], -ip
    13e4:	000002e0 	andeq	r0, r0, r0, ror #5
    13e8:	e8560001 	ldmda	r6, {r0}^
    13ec:	ec000002 	stc	0, cr0, [r0], {2}
    13f0:	01000002 	tsteq	r0, r2
    13f4:	02f45600 	rscseq	r5, r4, #0, 12
    13f8:	02f80000 	rscseq	r0, r8, #0
    13fc:	00010000 	andeq	r0, r1, r0
    1400:	00030056 	andeq	r0, r3, r6, asr r0
    1404:	00030400 	andeq	r0, r3, r0, lsl #8
    1408:	56000100 	strpl	r0, [r0], -r0, lsl #2
    140c:	0000030c 	andeq	r0, r0, ip, lsl #6
    1410:	00000310 	andeq	r0, r0, r0, lsl r3
    1414:	14560001 	ldrbne	r0, [r6], #-1
    1418:	58000003 	stmdapl	r0, {r0, r1}
    141c:	01000003 	tsteq	r0, r3
    1420:	00005600 	andeq	r5, r0, r0, lsl #12
    1424:	00000000 	andeq	r0, r0, r0
    1428:	02a40000 	adceq	r0, r4, #0
    142c:	02cc0000 	sbceq	r0, ip, #0
    1430:	00010000 	andeq	r0, r1, r0
    1434:	0002cc53 	andeq	ip, r2, r3, asr ip
    1438:	0002d400 	andeq	sp, r2, r0, lsl #8
    143c:	70001c00 	andvc	r1, r0, r0, lsl #24
    1440:	f72cf700 			; <UNDEFINED> instruction: 0xf72cf700
    1444:	0825f425 	stmdaeq	r5!, {r0, r2, r5, sl, ip, sp, lr, pc}
    1448:	cccccccd 	stclgt	12, cr12, [ip], {205}	; 0xcd
    144c:	00000000 	andeq	r0, r0, r0
    1450:	f720081e 			; <UNDEFINED> instruction: 0xf720081e
    1454:	2cf72525 	cfldr64cs	mvdx2, [r7], #148	; 0x94
    1458:	d49f2533 	ldrle	r2, [pc], #1331	; 1460 <_start-0x6ba0>
    145c:	d8000002 	stmdale	r0, {r1}
    1460:	01000002 	tsteq	r0, r2
    1464:	02d85300 	sbcseq	r5, r8, #0, 6
    1468:	02e00000 	rsceq	r0, r0, #0
    146c:	001c0000 	andseq	r0, ip, r0
    1470:	2cf70070 	ldclcs	0, cr0, [r7], #448	; 0x1c0
    1474:	25f425f7 	ldrbcs	r2, [r4, #1527]!	; 0x5f7
    1478:	cccccd08 	stclgt	13, cr12, [ip], {8}
    147c:	000000cc 	andeq	r0, r0, ip, asr #1
    1480:	20081e00 	andcs	r1, r8, r0, lsl #28
    1484:	f72525f7 			; <UNDEFINED> instruction: 0xf72525f7
    1488:	9f25332c 	svcls	0x0025332c
    148c:	000002e0 	andeq	r0, r0, r0, ror #5
    1490:	000002e4 	andeq	r0, r0, r4, ror #5
    1494:	e4530001 	ldrb	r0, [r3], #-1
    1498:	ec000002 	stc	0, cr0, [r0], {2}
    149c:	1c000002 	stcne	0, cr0, [r0], {2}
    14a0:	f7007000 			; <UNDEFINED> instruction: 0xf7007000
    14a4:	f425f72c 	vld1.8	{d15}, [r5 :128], ip
    14a8:	cccd0825 	stclgt	8, cr0, [sp], {37}	; 0x25
    14ac:	0000cccc 	andeq	ip, r0, ip, asr #25
    14b0:	081e0000 	ldmdaeq	lr, {}	; <UNPREDICTABLE>
    14b4:	2525f720 	strcs	pc, [r5, #-1824]!	; 0x720
    14b8:	25332cf7 	ldrcs	r2, [r3, #-3319]!	; 0xcf7
    14bc:	0002ec9f 	muleq	r2, pc, ip	; <UNPREDICTABLE>
    14c0:	0002f000 	andeq	pc, r2, r0
    14c4:	53000100 	movwpl	r0, #256	; 0x100
    14c8:	000002f0 	strdeq	r0, [r0], -r0	; <UNPREDICTABLE>
    14cc:	000002f8 	strdeq	r0, [r0], -r8
    14d0:	0070001c 	rsbseq	r0, r0, ip, lsl r0
    14d4:	25f72cf7 	ldrbcs	r2, [r7, #3319]!	; 0xcf7
    14d8:	cd0825f4 	cfstr32gt	mvfx2, [r8, #-976]	; 0xfffffc30
    14dc:	00cccccc 	sbceq	ip, ip, ip, asr #25
    14e0:	1e000000 	cdpne	0, 0, cr0, cr0, cr0, {0}
    14e4:	25f72008 	ldrbcs	r2, [r7, #8]!
    14e8:	332cf725 	msrcc	CPSR_fs, #9699328	; 0x940000
    14ec:	02f89f25 	rscseq	r9, r8, #37, 30	; 0x94
    14f0:	02fc0000 	rscseq	r0, ip, #0
    14f4:	00010000 	andeq	r0, r1, r0
    14f8:	0002fc53 	andeq	pc, r2, r3, asr ip	; <UNPREDICTABLE>
    14fc:	00030400 	andeq	r0, r3, r0, lsl #8
    1500:	70001c00 	andvc	r1, r0, r0, lsl #24
    1504:	f72cf700 			; <UNDEFINED> instruction: 0xf72cf700
    1508:	0825f425 	stmdaeq	r5!, {r0, r2, r5, sl, ip, sp, lr, pc}
    150c:	cccccccd 	stclgt	12, cr12, [ip], {205}	; 0xcd
    1510:	00000000 	andeq	r0, r0, r0
    1514:	f720081e 			; <UNDEFINED> instruction: 0xf720081e
    1518:	2cf72525 	cfldr64cs	mvdx2, [r7], #148	; 0x94
    151c:	049f2533 	ldreq	r2, [pc], #1331	; 1524 <_start-0x6adc>
    1520:	08000003 	stmdaeq	r0, {r0, r1}
    1524:	01000003 	tsteq	r0, r3
    1528:	03085300 	movweq	r5, #33536	; 0x8300
    152c:	03100000 	tsteq	r0, #0
    1530:	001c0000 	andseq	r0, ip, r0
    1534:	2cf70070 	ldclcs	0, cr0, [r7], #448	; 0x1c0
    1538:	25f425f7 	ldrbcs	r2, [r4, #1527]!	; 0x5f7
    153c:	cccccd08 	stclgt	13, cr12, [ip], {8}
    1540:	000000cc 	andeq	r0, r0, ip, asr #1
    1544:	20081e00 	andcs	r1, r8, r0, lsl #28
    1548:	f72525f7 			; <UNDEFINED> instruction: 0xf72525f7
    154c:	9f25332c 	svcls	0x0025332c
    1550:	00000310 	andeq	r0, r0, r0, lsl r3
    1554:	00000314 	andeq	r0, r0, r4, lsl r3
    1558:	14530001 	ldrbne	r0, [r3], #-1
    155c:	18000003 	stmdane	r0, {r0, r1}
    1560:	1c000003 	stcne	0, cr0, [r0], {3}
    1564:	f7007000 			; <UNDEFINED> instruction: 0xf7007000
    1568:	f425f72c 	vld1.8	{d15}, [r5 :128], ip
    156c:	cccd0825 	stclgt	8, cr0, [sp], {37}	; 0x25
    1570:	0000cccc 	andeq	ip, r0, ip, asr #25
    1574:	081e0000 	ldmdaeq	lr, {}	; <UNPREDICTABLE>
    1578:	2525f720 	strcs	pc, [r5, #-1824]!	; 0x720
    157c:	25332cf7 	ldrcs	r2, [r3, #-3319]!	; 0xcf7
    1580:	0003189f 	muleq	r3, pc, r8	; <UNPREDICTABLE>
    1584:	00032000 	andeq	r2, r3, r0
    1588:	74001c00 	strvc	r1, [r0], #-3072	; 0xc00
    158c:	f72cf700 			; <UNDEFINED> instruction: 0xf72cf700
    1590:	0825f425 	stmdaeq	r5!, {r0, r2, r5, sl, ip, sp, lr, pc}
    1594:	cccccccd 	stclgt	12, cr12, [ip], {205}	; 0xcd
    1598:	00000000 	andeq	r0, r0, r0
    159c:	f720081e 			; <UNDEFINED> instruction: 0xf720081e
    15a0:	2cf72525 	cfldr64cs	mvdx2, [r7], #148	; 0x94
    15a4:	209f2533 	addscs	r2, pc, r3, lsr r5	; <UNPREDICTABLE>
    15a8:	24000003 	strcs	r0, [r0], #-3
    15ac:	17000003 	strne	r0, [r0, -r3]
    15b0:	f7007400 			; <UNDEFINED> instruction: 0xf7007400
    15b4:	7325f72c 	msrvc	CPSR_sc, #44, 14	; 0xb00000
    15b8:	f72cf700 			; <UNDEFINED> instruction: 0xf72cf700
    15bc:	20081e25 	andcs	r1, r8, r5, lsr #28
    15c0:	f72525f7 			; <UNDEFINED> instruction: 0xf72525f7
    15c4:	9f25332c 	svcls	0x0025332c
    15c8:	00000324 	andeq	r0, r0, r4, lsr #6
    15cc:	00000358 	andeq	r0, r0, r8, asr r3
    15d0:	0074001c 	rsbseq	r0, r4, ip, lsl r0
    15d4:	25f72cf7 	ldrbcs	r2, [r7, #3319]!	; 0xcf7
    15d8:	cd0825f4 	cfstr32gt	mvfx2, [r8, #-976]	; 0xfffffc30
    15dc:	00cccccc 	sbceq	ip, ip, ip, asr #25
    15e0:	1e000000 	cdpne	0, 0, cr0, cr0, cr0, {0}
    15e4:	25f72008 	ldrbcs	r2, [r7, #8]!
    15e8:	332cf725 	msrcc	CPSR_fs, #9699328	; 0x940000
    15ec:	00009f25 	andeq	r9, r0, r5, lsr #30
    15f0:	00000000 	andeq	r0, r0, r0
    15f4:	031c0000 	tsteq	ip, #0
    15f8:	03400000 	movteq	r0, #0
    15fc:	00010000 	andeq	r0, r1, r0
    1600:	00034050 	andeq	r4, r3, r0, asr r0
    1604:	00034800 	andeq	r4, r3, r0, lsl #16
    1608:	75000900 	strvc	r0, [r0, #-2304]	; 0x900
    160c:	24007300 	strcs	r7, [r0], #-768	; 0x300
    1610:	9f210071 	svcls	0x00210071
    1614:	00000348 	andeq	r0, r0, r8, asr #6
    1618:	0000034b 	andeq	r0, r0, fp, asr #6
    161c:	00510001 	subseq	r0, r1, r1
    1620:	00000000 	andeq	r0, r0, r0
    1624:	58000000 	stmdapl	r0, {}	; <UNPREDICTABLE>
    1628:	7c000003 	stcvc	0, cr0, [r0], {3}
    162c:	01000003 	tsteq	r0, r3
    1630:	037c5000 	cmneq	ip, #0
    1634:	03900000 	orrseq	r0, r0, #0
    1638:	00040000 	andeq	r0, r4, r0
    163c:	9f5001f3 	svcls	0x005001f3
	...
    1648:	00000364 	andeq	r0, r0, r4, ror #6
    164c:	0000036c 	andeq	r0, r0, ip, ror #6
    1650:	9f300002 	svcls	0x00300002
    1654:	0000036c 	andeq	r0, r0, ip, ror #6
    1658:	0000036c 	andeq	r0, r0, ip, ror #6
    165c:	6c520001 	mrrcvs	0, 0, r0, r2, cr1
    1660:	74000003 	strvc	r0, [r0], #-3
    1664:	02000003 	andeq	r0, r0, #3
    1668:	749f3000 	ldrvc	r3, [pc], #0	; 1670 <_start-0x6990>
    166c:	87000003 	strhi	r0, [r0, -r3]
    1670:	01000003 	tsteq	r0, r3
    1674:	00005200 	andeq	r5, r0, r0, lsl #4
    1678:	00000000 	andeq	r0, r0, r0
    167c:	03640000 	cmneq	r4, #0
    1680:	03780000 	cmneq	r8, #0
    1684:	00020000 	andeq	r0, r2, r0
    1688:	03789f30 	cmneq	r8, #48, 30	; 0xc0
    168c:	03840000 	orreq	r0, r4, #0
    1690:	00050000 	andeq	r0, r5, r0
    1694:	24007331 	strcs	r7, [r0], #-817	; 0x331
    1698:	0003849f 	muleq	r3, pc, r4	; <UNPREDICTABLE>
    169c:	00038700 	andeq	r8, r3, r0, lsl #14
    16a0:	51000100 	mrspl	r0, (UNDEF: 16)
    16a4:	00000387 	andeq	r0, r0, r7, lsl #7
    16a8:	00000390 	muleq	r0, r0, r3
    16ac:	f3310008 	vhadd.u<illegal width 64>	d0, d1, d8
    16b0:	1a4f5001 	bne	13d56bc <__bss_end__+0x13cb69c>
    16b4:	00009f24 	andeq	r9, r0, r4, lsr #30
    16b8:	00000000 	andeq	r0, r0, r0
    16bc:	03900000 	orrseq	r0, r0, #0
    16c0:	039c0000 	orrseq	r0, ip, #0
    16c4:	00010000 	andeq	r0, r1, r0
    16c8:	00039c50 	andeq	r9, r3, r0, asr ip
    16cc:	0003bc00 	andeq	fp, r3, r0, lsl #24
    16d0:	f3000400 	vshl.u8	d0, d0, d0
    16d4:	009f5001 	addseq	r5, pc, r1
    16d8:	00000000 	andeq	r0, r0, r0
    16dc:	bc000000 	stclt	0, cr0, [r0], {-0}
    16e0:	cf000003 	svcgt	0x00000003
    16e4:	01000003 	tsteq	r0, r3
    16e8:	03cf5000 	biceq	r5, pc, #0
    16ec:	04080000 	streq	r0, [r8], #-0
    16f0:	00010000 	andeq	r0, r1, r0
    16f4:	00040854 	andeq	r0, r4, r4, asr r8
    16f8:	00044000 	andeq	r4, r4, r0
    16fc:	f3000400 	vshl.u8	d0, d0, d0
    1700:	009f5001 	addseq	r5, pc, r1
    1704:	00000000 	andeq	r0, r0, r0
    1708:	28000000 	stmdacs	r0, {}	; <UNPREDICTABLE>
    170c:	2c000004 	stccs	0, cr0, [r0], {4}
    1710:	01000004 	tsteq	r0, r4
    1714:	042c5000 	strteq	r5, [ip], #-0
    1718:	04330000 	ldrteq	r0, [r3], #-0
    171c:	00010000 	andeq	r0, r1, r0
    1720:	00000051 	andeq	r0, r0, r1, asr r0
    1724:	00000000 	andeq	r0, r0, r0
    1728:	0003e400 	andeq	lr, r3, r0, lsl #8
    172c:	0003ec00 	andeq	lr, r3, r0, lsl #24
    1730:	50000100 	andpl	r0, r0, r0, lsl #2
    1734:	000003ec 	andeq	r0, r0, ip, ror #7
    1738:	000003f3 	strdeq	r0, [r0], -r3
    173c:	00510001 	subseq	r0, r1, r1
    1740:	00000000 	andeq	r0, r0, r0
    1744:	04000000 	streq	r0, [r0], #-0
    1748:	10000004 	andne	r0, r0, r4
    174c:	01000004 	tsteq	r0, r4
    1750:	04105000 	ldreq	r5, [r0], #-0
    1754:	04170000 	ldreq	r0, [r7], #-0
    1758:	00010000 	andeq	r0, r1, r0
    175c:	00000051 	andeq	r0, r0, r1, asr r0
    1760:	00000000 	andeq	r0, r0, r0
    1764:	00044000 	andeq	r4, r4, r0
    1768:	00045300 	andeq	r5, r4, r0, lsl #6
    176c:	50000100 	andpl	r0, r0, r0, lsl #2
    1770:	00000453 	andeq	r0, r0, r3, asr r4
    1774:	0000048c 	andeq	r0, r0, ip, lsl #9
    1778:	8c540001 	mrrchi	0, 0, r0, r4, cr1
    177c:	c4000004 	strgt	r0, [r0], #-4
    1780:	04000004 	streq	r0, [r0], #-4
    1784:	5001f300 	andpl	pc, r1, r0, lsl #6
    1788:	0000009f 	muleq	r0, pc, r0	; <UNPREDICTABLE>
    178c:	00000000 	andeq	r0, r0, r0
    1790:	0004ac00 	andeq	sl, r4, r0, lsl #24
    1794:	0004b000 	andeq	fp, r4, r0
    1798:	50000100 	andpl	r0, r0, r0, lsl #2
    179c:	000004b0 			; <UNDEFINED> instruction: 0x000004b0
    17a0:	000004b7 			; <UNDEFINED> instruction: 0x000004b7
    17a4:	00510001 	subseq	r0, r1, r1
    17a8:	00000000 	andeq	r0, r0, r0
    17ac:	68000000 	stmdavs	r0, {}	; <UNPREDICTABLE>
    17b0:	70000004 	andvc	r0, r0, r4
    17b4:	01000004 	tsteq	r0, r4
    17b8:	04705000 	ldrbteq	r5, [r0], #-0
    17bc:	04770000 	ldrbteq	r0, [r7], #-0
    17c0:	00010000 	andeq	r0, r1, r0
    17c4:	00000051 	andeq	r0, r0, r1, asr r0
    17c8:	00000000 	andeq	r0, r0, r0
    17cc:	00048800 	andeq	r8, r4, r0, lsl #16
    17d0:	00049400 	andeq	r9, r4, r0, lsl #8
    17d4:	50000100 	andpl	r0, r0, r0, lsl #2
    17d8:	00000494 	muleq	r0, r4, r4
    17dc:	0000049b 	muleq	r0, fp, r4
    17e0:	00510001 	subseq	r0, r1, r1
    17e4:	00000000 	andeq	r0, r0, r0
    17e8:	c4000000 	strgt	r0, [r0], #-0
    17ec:	d7000004 	strle	r0, [r0, -r4]
    17f0:	01000004 	tsteq	r0, r4
    17f4:	04d75000 	ldrbeq	r5, [r7], #0
    17f8:	05180000 	ldreq	r0, [r8, #-0]
    17fc:	00010000 	andeq	r0, r1, r0
    1800:	00051854 	andeq	r1, r5, r4, asr r8
    1804:	00053c00 	andeq	r3, r5, r0, lsl #24
    1808:	f3000400 	vshl.u8	d0, d0, d0
    180c:	3c9f5001 	ldccc	0, cr5, [pc], {1}
    1810:	40000005 	andmi	r0, r0, r5
    1814:	01000005 	tsteq	r0, r5
    1818:	05405000 	strbeq	r5, [r0, #-0]
    181c:	05480000 	strbeq	r0, [r8, #-0]
    1820:	00010000 	andeq	r0, r1, r0
    1824:	00000054 	andeq	r0, r0, r4, asr r0
    1828:	00000000 	andeq	r0, r0, r0
    182c:	0004ec00 	andeq	lr, r4, r0, lsl #24
    1830:	0004fb00 	andeq	pc, r4, r0, lsl #22
    1834:	31000800 	tstcc	r0, r0, lsl #16
    1838:	70240074 	eorvc	r0, r4, r4, ror r0
    183c:	009f1a00 	addseq	r1, pc, r0, lsl #20
    1840:	00000000 	andeq	r0, r0, r0
    1844:	18000000 	stmdane	r0, {}	; <UNPREDICTABLE>
    1848:	30000005 	andcc	r0, r0, r5
    184c:	01000005 	tsteq	r0, r5
    1850:	00005400 	andeq	r5, r0, r0, lsl #8
    1854:	00000000 	andeq	r0, r0, r0
    1858:	05480000 	strbeq	r0, [r8, #-0]
    185c:	055b0000 	ldrbeq	r0, [fp, #-0]
    1860:	00010000 	andeq	r0, r1, r0
    1864:	00055b50 	andeq	r5, r5, r0, asr fp
    1868:	00058000 	andeq	r8, r5, r0
    186c:	54000100 	strpl	r0, [r0], #-256	; 0x100
    1870:	00000580 	andeq	r0, r0, r0, lsl #11
    1874:	000005a0 	andeq	r0, r0, r0, lsr #11
    1878:	01f30004 	mvnseq	r0, r4
    187c:	00009f50 	andeq	r9, r0, r0, asr pc
	...
    1888:	00180000 	andseq	r0, r8, r0
    188c:	00010000 	andeq	r0, r1, r0
    1890:	00001850 	andeq	r1, r0, r0, asr r8
    1894:	00015400 	andeq	r5, r1, r0, lsl #8
    1898:	f3000400 	vshl.u8	d0, d0, d0
    189c:	009f5001 	addseq	r5, pc, r1
	...
    18a8:	1c000000 	stcne	0, cr0, [r0], {-0}
    18ac:	01000000 	mrseq	r0, (UNDEF: 0)
    18b0:	001c5100 	andseq	r5, ip, r0, lsl #2
    18b4:	01540000 	cmpeq	r4, r0
    18b8:	00040000 	andeq	r0, r4, r0
    18bc:	9f5101f3 	svcls	0x005101f3
	...
    18c8:	00000010 	andeq	r0, r0, r0, lsl r0
    18cc:	00000134 	andeq	r0, r0, r4, lsr r1
    18d0:	00550001 	subseq	r0, r5, r1
    18d4:	00000000 	andeq	r0, r0, r0
    18d8:	10000000 	andne	r0, r0, r0
    18dc:	34000000 	strcc	r0, [r0], #-0
    18e0:	01000000 	mrseq	r0, (UNDEF: 0)
    18e4:	00345500 	eorseq	r5, r4, r0, lsl #10
    18e8:	01340000 	teqeq	r4, r0
    18ec:	00010000 	andeq	r0, r1, r0
    18f0:	00013458 	andeq	r3, r1, r8, asr r4
    18f4:	00015400 	andeq	r5, r1, r0, lsl #8
    18f8:	55000100 	strpl	r0, [r0, #-256]	; 0x100
	...
    1904:	00000014 	andeq	r0, r0, r4, lsl r0
    1908:	00000134 	andeq	r0, r0, r4, lsr r1
    190c:	00550001 	subseq	r0, r5, r1
    1910:	00000000 	andeq	r0, r0, r0
    1914:	20000000 	andcs	r0, r0, r0
    1918:	34000000 	strcc	r0, [r0], #-0
    191c:	01000001 	tsteq	r0, r1
    1920:	00005500 	andeq	r5, r0, r0, lsl #10
    1924:	00000000 	andeq	r0, r0, r0
    1928:	00240000 	eoreq	r0, r4, r0
    192c:	00280000 	eoreq	r0, r8, r0
    1930:	00010000 	andeq	r0, r1, r0
    1934:	00000053 	andeq	r0, r0, r3, asr r0
    1938:	00000000 	andeq	r0, r0, r0
    193c:	00003400 	andeq	r3, r0, r0, lsl #8
    1940:	00005400 	andeq	r5, r0, r0, lsl #8
    1944:	58000100 	stmdapl	r0, {r8}
    1948:	00000054 	andeq	r0, r0, r4, asr r0
    194c:	00000134 	andeq	r0, r0, r4, lsr r1
    1950:	00750005 	rsbseq	r0, r5, r5
    1954:	009f2431 	addseq	r2, pc, r1, lsr r4	; <UNPREDICTABLE>
    1958:	00000000 	andeq	r0, r0, r0
    195c:	34000000 	strcc	r0, [r0], #-0
    1960:	3c000000 	stccc	0, cr0, [r0], {-0}
    1964:	05000000 	streq	r0, [r0, #-0]
    1968:	31007700 	tstcc	r0, r0, lsl #14
    196c:	003c9f1a 	eorseq	r9, ip, sl, lsl pc
    1970:	003f0000 	eorseq	r0, pc, r0
    1974:	00010000 	andeq	r0, r1, r0
    1978:	00003f51 	andeq	r3, r0, r1, asr pc
    197c:	00015400 	andeq	r5, r1, r0, lsl #8
    1980:	77000500 	strvc	r0, [r0, -r0, lsl #10]
    1984:	9f1a3100 	svcls	0x001a3100
	...
    1990:	00000040 	andeq	r0, r0, r0, asr #32
    1994:	00000054 	andeq	r0, r0, r4, asr r0
    1998:	54580001 	ldrbpl	r0, [r8], #-1
    199c:	34000000 	strcc	r0, [r0], #-0
    19a0:	05000001 	streq	r0, [r0, #-1]
    19a4:	31007500 	tstcc	r0, r0, lsl #10
    19a8:	00009f24 	andeq	r9, r0, r4, lsr #30
    19ac:	00000000 	andeq	r0, r0, r0
    19b0:	00440000 	subeq	r0, r4, r0
    19b4:	00480000 	subeq	r0, r8, r0
    19b8:	00010000 	andeq	r0, r1, r0
    19bc:	00000053 	andeq	r0, r0, r3, asr r0
    19c0:	00000000 	andeq	r0, r0, r0
    19c4:	00005400 	andeq	r5, r0, r0, lsl #8
    19c8:	00007400 	andeq	r7, r0, r0, lsl #8
    19cc:	58000100 	stmdapl	r0, {r8}
    19d0:	00000074 	andeq	r0, r0, r4, ror r0
    19d4:	00000134 	andeq	r0, r0, r4, lsr r1
    19d8:	00750008 	rsbseq	r0, r5, r8
    19dc:	00752431 	rsbseq	r2, r5, r1, lsr r4
    19e0:	00009f22 	andeq	r9, r0, r2, lsr #30
    19e4:	00000000 	andeq	r0, r0, r0
    19e8:	00600000 	rsbeq	r0, r0, r0
    19ec:	00740000 	rsbseq	r0, r4, r0
    19f0:	00010000 	andeq	r0, r1, r0
    19f4:	00007458 	andeq	r7, r0, r8, asr r4
    19f8:	00013400 	andeq	r3, r1, r0, lsl #8
    19fc:	75000800 	strvc	r0, [r0, #-2048]	; 0x800
    1a00:	75243100 	strvc	r3, [r4, #-256]!	; 0x100
    1a04:	009f2200 	addseq	r2, pc, r0, lsl #4
    1a08:	00000000 	andeq	r0, r0, r0
    1a0c:	64000000 	strvs	r0, [r0], #-0
    1a10:	68000000 	stmdavs	r0, {}	; <UNPREDICTABLE>
    1a14:	01000000 	mrseq	r0, (UNDEF: 0)
    1a18:	00005300 	andeq	r5, r0, r0, lsl #6
    1a1c:	00000000 	andeq	r0, r0, r0
    1a20:	00740000 	rsbseq	r0, r4, r0
    1a24:	00940000 	addseq	r0, r4, r0
    1a28:	00010000 	andeq	r0, r1, r0
    1a2c:	00009458 	andeq	r9, r0, r8, asr r4
    1a30:	00013400 	andeq	r3, r1, r0, lsl #8
    1a34:	75000500 	strvc	r0, [r0, #-1280]	; 0x500
    1a38:	9f243200 	svcls	0x00243200
	...
    1a44:	00000080 	andeq	r0, r0, r0, lsl #1
    1a48:	00000094 	muleq	r0, r4, r0
    1a4c:	94580001 	ldrbls	r0, [r8], #-1
    1a50:	34000000 	strcc	r0, [r0], #-0
    1a54:	05000001 	streq	r0, [r0, #-1]
    1a58:	32007500 	andcc	r7, r0, #0, 10
    1a5c:	00009f24 	andeq	r9, r0, r4, lsr #30
    1a60:	00000000 	andeq	r0, r0, r0
    1a64:	00840000 	addeq	r0, r4, r0
    1a68:	00880000 	addeq	r0, r8, r0
    1a6c:	00010000 	andeq	r0, r1, r0
    1a70:	00000053 	andeq	r0, r0, r3, asr r0
    1a74:	00000000 	andeq	r0, r0, r0
    1a78:	00009400 	andeq	r9, r0, r0, lsl #8
    1a7c:	0000b400 	andeq	fp, r0, r0, lsl #8
    1a80:	58000100 	stmdapl	r0, {r8}
    1a84:	000000b4 	strheq	r0, [r0], -r4
    1a88:	00000134 	andeq	r0, r0, r4, lsr r1
    1a8c:	00750008 	rsbseq	r0, r5, r8
    1a90:	00752432 	rsbseq	r2, r5, r2, lsr r4
    1a94:	00009f22 	andeq	r9, r0, r2, lsr #30
    1a98:	00000000 	andeq	r0, r0, r0
    1a9c:	00a00000 	adceq	r0, r0, r0
    1aa0:	00b40000 	adcseq	r0, r4, r0
    1aa4:	00010000 	andeq	r0, r1, r0
    1aa8:	0000b458 	andeq	fp, r0, r8, asr r4
    1aac:	00013400 	andeq	r3, r1, r0, lsl #8
    1ab0:	75000800 	strvc	r0, [r0, #-2048]	; 0x800
    1ab4:	75243200 	strvc	r3, [r4, #-512]!	; 0x200
    1ab8:	009f2200 	addseq	r2, pc, r0, lsl #4
    1abc:	00000000 	andeq	r0, r0, r0
    1ac0:	a4000000 	strge	r0, [r0], #-0
    1ac4:	a8000000 	stmdage	r0, {}	; <UNPREDICTABLE>
    1ac8:	01000000 	mrseq	r0, (UNDEF: 0)
    1acc:	00005300 	andeq	r5, r0, r0, lsl #6
    1ad0:	00000000 	andeq	r0, r0, r0
    1ad4:	00b40000 	adcseq	r0, r4, r0
    1ad8:	00d40000 	sbcseq	r0, r4, r0
    1adc:	00010000 	andeq	r0, r1, r0
    1ae0:	0000d458 	andeq	sp, r0, r8, asr r4
    1ae4:	00013400 	andeq	r3, r1, r0, lsl #8
    1ae8:	75000a00 	strvc	r0, [r0, #-2560]	; 0xa00
    1aec:	75243200 	strvc	r3, [r4, #-512]!	; 0x200
    1af0:	22243100 	eorcs	r3, r4, #0, 2
    1af4:	0000009f 	muleq	r0, pc, r0	; <UNPREDICTABLE>
    1af8:	00000000 	andeq	r0, r0, r0
    1afc:	0000c000 	andeq	ip, r0, r0
    1b00:	0000d400 	andeq	sp, r0, r0, lsl #8
    1b04:	58000100 	stmdapl	r0, {r8}
    1b08:	000000d4 	ldrdeq	r0, [r0], -r4
    1b0c:	00000134 	andeq	r0, r0, r4, lsr r1
    1b10:	0075000a 	rsbseq	r0, r5, sl
    1b14:	00752432 	rsbseq	r2, r5, r2, lsr r4
    1b18:	9f222431 	svcls	0x00222431
	...
    1b24:	000000c4 	andeq	r0, r0, r4, asr #1
    1b28:	000000c8 	andeq	r0, r0, r8, asr #1
    1b2c:	00530001 	subseq	r0, r3, r1
    1b30:	00000000 	andeq	r0, r0, r0
    1b34:	d4000000 	strle	r0, [r0], #-0
    1b38:	f4000000 	vst4.8	{d0-d3}, [r0], r0
    1b3c:	01000000 	mrseq	r0, (UNDEF: 0)
    1b40:	00f45800 	rscseq	r5, r4, r0, lsl #16
    1b44:	01340000 	teqeq	r4, r0
    1b48:	000d0000 	andeq	r0, sp, r0
    1b4c:	24320075 	ldrtcs	r0, [r2], #-117	; 0x75
    1b50:	24310075 	ldrtcs	r0, [r1], #-117	; 0x75
    1b54:	22007522 	andcs	r7, r0, #142606336	; 0x8800000
    1b58:	0000009f 	muleq	r0, pc, r0	; <UNPREDICTABLE>
    1b5c:	00000000 	andeq	r0, r0, r0
    1b60:	0000e000 	andeq	lr, r0, r0
    1b64:	0000f400 	andeq	pc, r0, r0, lsl #8
    1b68:	58000100 	stmdapl	r0, {r8}
    1b6c:	000000f4 	strdeq	r0, [r0], -r4
    1b70:	00000134 	andeq	r0, r0, r4, lsr r1
    1b74:	0075000d 	rsbseq	r0, r5, sp
    1b78:	00752432 	rsbseq	r2, r5, r2, lsr r4
    1b7c:	75222431 	strvc	r2, [r2, #-1073]!	; 0x431
    1b80:	009f2200 	addseq	r2, pc, r0, lsl #4
    1b84:	00000000 	andeq	r0, r0, r0
    1b88:	e4000000 	str	r0, [r0], #-0
    1b8c:	e8000000 	stmda	r0, {}	; <UNPREDICTABLE>
    1b90:	01000000 	mrseq	r0, (UNDEF: 0)
    1b94:	00005300 	andeq	r5, r0, r0, lsl #6
    1b98:	00000000 	andeq	r0, r0, r0
    1b9c:	00f40000 	rscseq	r0, r4, r0
    1ba0:	01140000 	tsteq	r4, r0
    1ba4:	00010000 	andeq	r0, r1, r0
    1ba8:	00011458 	andeq	r1, r1, r8, asr r4
    1bac:	00013400 	andeq	r3, r1, r0, lsl #8
    1bb0:	75000500 	strvc	r0, [r0, #-1280]	; 0x500
    1bb4:	9f243300 	svcls	0x00243300
	...
    1bc0:	00000100 	andeq	r0, r0, r0, lsl #2
    1bc4:	00000114 	andeq	r0, r0, r4, lsl r1
    1bc8:	14580001 	ldrbne	r0, [r8], #-1
    1bcc:	34000001 	strcc	r0, [r0], #-1
    1bd0:	05000001 	streq	r0, [r0, #-1]
    1bd4:	33007500 	movwcc	r7, #1280	; 0x500
    1bd8:	00009f24 	andeq	r9, r0, r4, lsr #30
    1bdc:	00000000 	andeq	r0, r0, r0
    1be0:	01040000 	mrseq	r0, (UNDEF: 4)
    1be4:	01080000 	mrseq	r0, (UNDEF: 8)
    1be8:	00010000 	andeq	r0, r1, r0
    1bec:	00000053 	andeq	r0, r0, r3, asr r0
    1bf0:	00000000 	andeq	r0, r0, r0
    1bf4:	00011400 	andeq	r1, r1, r0, lsl #8
    1bf8:	00011c00 	andeq	r1, r1, r0, lsl #24
    1bfc:	77000600 	strvc	r0, [r0, -r0, lsl #12]
    1c00:	1a800800 	bne	fe003c08 <__bss_end__+0xfdff9be8>
    1c04:	00011c9f 	muleq	r1, pc, ip	; <UNPREDICTABLE>
    1c08:	00011f00 	andeq	r1, r1, r0, lsl #30
    1c0c:	51000100 	mrspl	r0, (UNDEF: 16)
    1c10:	0000011f 	andeq	r0, r0, pc, lsl r1
    1c14:	00000154 	andeq	r0, r0, r4, asr r1
    1c18:	00770006 	rsbseq	r0, r7, r6
    1c1c:	9f1a8008 	svcls	0x001a8008
	...
    1c28:	00000124 	andeq	r0, r0, r4, lsr #2
    1c2c:	00000128 	andeq	r0, r0, r8, lsr #2
    1c30:	00530001 	subseq	r0, r3, r1
    1c34:	00000000 	andeq	r0, r0, r0
    1c38:	44000000 	strmi	r0, [r0], #-0
    1c3c:	48000001 	stmdami	r0, {r0}
    1c40:	01000001 	tsteq	r0, r1
    1c44:	00005300 	andeq	r5, r0, r0, lsl #6
    1c48:	00000000 	andeq	r0, r0, r0
    1c4c:	01540000 	cmpeq	r4, r0
    1c50:	016b0000 	cmneq	fp, r0
    1c54:	00010000 	andeq	r0, r1, r0
    1c58:	00016b50 	andeq	r6, r1, r0, asr fp
    1c5c:	0001d000 	andeq	sp, r1, r0
    1c60:	59000100 	stmdbpl	r0, {r8}
    1c64:	000001d0 	ldrdeq	r0, [r0], -r0	; <UNPREDICTABLE>
    1c68:	0000030c 	andeq	r0, r0, ip, lsl #6
    1c6c:	01f30004 	mvnseq	r0, r4
    1c70:	030c9f50 	movweq	r9, #53072	; 0xcf50
    1c74:	03140000 	tsteq	r4, #0
    1c78:	00010000 	andeq	r0, r1, r0
    1c7c:	00031459 	andeq	r1, r3, r9, asr r4
    1c80:	00031c00 	andeq	r1, r3, r0, lsl #24
    1c84:	f3000400 	vshl.u8	d0, d0, d0
    1c88:	009f5001 	addseq	r5, pc, r1
    1c8c:	00000000 	andeq	r0, r0, r0
    1c90:	54000000 	strpl	r0, [r0], #-0
    1c94:	6b000001 	blvs	1ca0 <_start-0x6360>
    1c98:	01000001 	tsteq	r0, r1
    1c9c:	016b5100 	cmneq	fp, r0, lsl #2
    1ca0:	031c0000 	tsteq	ip, #0
    1ca4:	00010000 	andeq	r0, r1, r0
    1ca8:	00000056 	andeq	r0, r0, r6, asr r0
    1cac:	00000000 	andeq	r0, r0, r0
    1cb0:	0001a800 	andeq	sl, r1, r0, lsl #16
    1cb4:	00029800 	andeq	r9, r2, r0, lsl #16
    1cb8:	58000100 	stmdapl	r0, {r8}
	...
    1cc4:	000001ac 	andeq	r0, r0, ip, lsr #3
    1cc8:	000002d0 	ldrdeq	r0, [r0], -r0	; <UNPREDICTABLE>
    1ccc:	00540001 	subseq	r0, r4, r1
    1cd0:	00000000 	andeq	r0, r0, r0
    1cd4:	ac000000 	stcge	0, cr0, [r0], {-0}
    1cd8:	d0000001 	andle	r0, r0, r1
    1cdc:	05000002 	streq	r0, [r0, #-2]
    1ce0:	31007400 	tstcc	r0, r0, lsl #8
    1ce4:	00009f25 	andeq	r9, r0, r5, lsr #30
    1ce8:	00000000 	andeq	r0, r0, r0
    1cec:	01ac0000 			; <UNDEFINED> instruction: 0x01ac0000
    1cf0:	01d00000 	bicseq	r0, r0, r0
    1cf4:	00020000 	andeq	r0, r2, r0
    1cf8:	01d09f30 	bicseq	r9, r0, r0, lsr pc
    1cfc:	030c0000 	movweq	r0, #49152	; 0xc000
    1d00:	00010000 	andeq	r0, r1, r0
    1d04:	00031459 	andeq	r1, r3, r9, asr r4
    1d08:	00031c00 	andeq	r1, r3, r0, lsl #24
    1d0c:	59000100 	stmdbpl	r0, {r8}
	...
    1d18:	00000168 	andeq	r0, r0, r8, ror #2
    1d1c:	0000016b 	andeq	r0, r0, fp, ror #2
    1d20:	6b510001 	blvs	1441d2c <__bss_end__+0x1437d0c>
    1d24:	1c000001 	stcne	0, cr0, [r0], {1}
    1d28:	01000003 	tsteq	r0, r3
    1d2c:	00005600 	andeq	r5, r0, r0, lsl #12
    1d30:	00000000 	andeq	r0, r0, r0
    1d34:	01700000 	cmneq	r0, r0
    1d38:	01ac0000 			; <UNDEFINED> instruction: 0x01ac0000
    1d3c:	00010000 	andeq	r0, r1, r0
    1d40:	00030c54 	andeq	r0, r3, r4, asr ip
    1d44:	00031400 	andeq	r1, r3, r0, lsl #8
    1d48:	54000100 	strpl	r0, [r0], #-256	; 0x100
	...
    1d54:	000001a8 	andeq	r0, r0, r8, lsr #3
    1d58:	000001c4 	andeq	r0, r0, r4, asr #3
    1d5c:	00580001 	subseq	r0, r8, r1
    1d60:	00000000 	andeq	r0, r0, r0
    1d64:	b0000000 	andlt	r0, r0, r0
    1d68:	cb000001 	blgt	1d74 <_start-0x628c>
    1d6c:	01000001 	tsteq	r0, r1
    1d70:	01cb5200 	biceq	r5, fp, r0, lsl #4
    1d74:	02d00000 	sbcseq	r0, r0, #0
    1d78:	00080000 	andeq	r0, r8, r0
    1d7c:	25310074 	ldrcs	r0, [r1, #-116]!	; 0x74
    1d80:	9f220074 	svcls	0x00220074
	...
    1d8c:	000001b0 			; <UNDEFINED> instruction: 0x000001b0
    1d90:	000001c4 	andeq	r0, r0, r4, asr #3
    1d94:	00580001 	subseq	r0, r8, r1
    1d98:	00000000 	andeq	r0, r0, r0
    1d9c:	b4000000 	strlt	r0, [r0], #-0
    1da0:	b8000001 	stmdalt	r0, {r0}
    1da4:	01000001 	tsteq	r0, r1
    1da8:	00005300 	andeq	r5, r0, r0, lsl #6
    1dac:	00000000 	andeq	r0, r0, r0
    1db0:	01d00000 	bicseq	r0, r0, r0
    1db4:	02d00000 	sbcseq	r0, r0, #0
    1db8:	00010000 	andeq	r0, r1, r0
    1dbc:	00000054 	andeq	r0, r0, r4, asr r0
    1dc0:	00000000 	andeq	r0, r0, r0
    1dc4:	0001d000 	andeq	sp, r1, r0
    1dc8:	0001e400 	andeq	lr, r1, r0, lsl #8
    1dcc:	58000100 	stmdapl	r0, {r8}
	...
    1dd8:	000001d4 	ldrdeq	r0, [r0], -r4
    1ddc:	000001d8 	ldrdeq	r0, [r0], -r8
    1de0:	00530001 	subseq	r0, r3, r1
    1de4:	00000000 	andeq	r0, r0, r0
    1de8:	f4000000 	vst4.8	{d0-d3}, [r0], r0
    1dec:	d0000001 	andle	r0, r0, r1
    1df0:	01000002 	tsteq	r0, r2
    1df4:	00005400 	andeq	r5, r0, r0, lsl #8
    1df8:	00000000 	andeq	r0, r0, r0
    1dfc:	01f40000 	mvnseq	r0, r0
    1e00:	02080000 	andeq	r0, r8, #0
    1e04:	00010000 	andeq	r0, r1, r0
    1e08:	00000058 	andeq	r0, r0, r8, asr r0
    1e0c:	00000000 	andeq	r0, r0, r0
    1e10:	0001f800 	andeq	pc, r1, r0, lsl #16
    1e14:	0001fc00 	andeq	pc, r1, r0, lsl #24
    1e18:	53000100 	movwpl	r0, #256	; 0x100
	...
    1e24:	00000218 	andeq	r0, r0, r8, lsl r2
    1e28:	000002d0 	ldrdeq	r0, [r0], -r0	; <UNPREDICTABLE>
    1e2c:	00540001 	subseq	r0, r4, r1
    1e30:	00000000 	andeq	r0, r0, r0
    1e34:	18000000 	stmdane	r0, {}	; <UNPREDICTABLE>
    1e38:	2c000002 	stccs	0, cr0, [r0], {2}
    1e3c:	01000002 	tsteq	r0, r2
    1e40:	00005800 	andeq	r5, r0, r0, lsl #16
    1e44:	00000000 	andeq	r0, r0, r0
    1e48:	021c0000 	andseq	r0, ip, #0
    1e4c:	02200000 	eoreq	r0, r0, #0
    1e50:	00010000 	andeq	r0, r1, r0
    1e54:	00000053 	andeq	r0, r0, r3, asr r0
    1e58:	00000000 	andeq	r0, r0, r0
    1e5c:	00023c00 	andeq	r3, r2, r0, lsl #24
    1e60:	0002d000 	andeq	sp, r2, r0
    1e64:	54000100 	strpl	r0, [r0], #-256	; 0x100
	...
    1e70:	0000023c 	andeq	r0, r0, ip, lsr r2
    1e74:	00000250 	andeq	r0, r0, r0, asr r2
    1e78:	00580001 	subseq	r0, r8, r1
    1e7c:	00000000 	andeq	r0, r0, r0
    1e80:	40000000 	andmi	r0, r0, r0
    1e84:	44000002 	strmi	r0, [r0], #-2
    1e88:	01000002 	tsteq	r0, r2
    1e8c:	00005300 	andeq	r5, r0, r0, lsl #6
    1e90:	00000000 	andeq	r0, r0, r0
    1e94:	02600000 	rsbeq	r0, r0, #0
    1e98:	02d00000 	sbcseq	r0, r0, #0
    1e9c:	00010000 	andeq	r0, r1, r0
    1ea0:	00000054 	andeq	r0, r0, r4, asr r0
    1ea4:	00000000 	andeq	r0, r0, r0
    1ea8:	00026000 	andeq	r6, r2, r0
    1eac:	00027400 	andeq	r7, r2, r0, lsl #8
    1eb0:	58000100 	stmdapl	r0, {r8}
	...
    1ebc:	00000264 	andeq	r0, r0, r4, ror #4
    1ec0:	00000268 	andeq	r0, r0, r8, ror #4
    1ec4:	00530001 	subseq	r0, r3, r1
    1ec8:	00000000 	andeq	r0, r0, r0
    1ecc:	84000000 	strhi	r0, [r0], #-0
    1ed0:	d0000002 	andle	r0, r0, r2
    1ed4:	01000002 	tsteq	r0, r2
    1ed8:	00005400 	andeq	r5, r0, r0, lsl #8
    1edc:	00000000 	andeq	r0, r0, r0
    1ee0:	02840000 	addeq	r0, r4, #0
    1ee4:	02980000 	addseq	r0, r8, #0
    1ee8:	00010000 	andeq	r0, r1, r0
    1eec:	00000058 	andeq	r0, r0, r8, asr r0
    1ef0:	00000000 	andeq	r0, r0, r0
    1ef4:	00028800 	andeq	r8, r2, r0, lsl #16
    1ef8:	00028c00 	andeq	r8, r2, r0, lsl #24
    1efc:	53000100 	movwpl	r0, #256	; 0x100
	...
    1f08:	000002a8 	andeq	r0, r0, r8, lsr #5
    1f0c:	000002d0 	ldrdeq	r0, [r0], -r0	; <UNPREDICTABLE>
    1f10:	00540001 	subseq	r0, r4, r1
    1f14:	00000000 	andeq	r0, r0, r0
    1f18:	ac000000 	stcge	0, cr0, [r0], {-0}
    1f1c:	b0000002 	andlt	r0, r0, r2
    1f20:	01000002 	tsteq	r0, r2
    1f24:	00005300 	andeq	r5, r0, r0, lsl #6
    1f28:	00000000 	andeq	r0, r0, r0
    1f2c:	02c80000 	sbceq	r0, r8, #0
    1f30:	030c0000 	movweq	r0, #49152	; 0xc000
    1f34:	00020000 	andeq	r0, r2, r0
    1f38:	03149f30 	tsteq	r4, #48, 30	; 0xc0
    1f3c:	031c0000 	tsteq	ip, #0
    1f40:	00020000 	andeq	r0, r2, r0
    1f44:	00009f30 	andeq	r9, r0, r0, lsr pc
    1f48:	00000000 	andeq	r0, r0, r0
    1f4c:	02c80000 	sbceq	r0, r8, #0
    1f50:	030c0000 	movweq	r0, #49152	; 0xc000
    1f54:	00010000 	andeq	r0, r1, r0
    1f58:	00031455 	andeq	r1, r3, r5, asr r4
    1f5c:	00031c00 	andeq	r1, r3, r0, lsl #24
    1f60:	55000100 	strpl	r0, [r0, #-256]	; 0x100
	...
    1f6c:	000002d0 	ldrdeq	r0, [r0], -r0	; <UNPREDICTABLE>
    1f70:	0000030c 	andeq	r0, r0, ip, lsl #6
    1f74:	14540001 	ldrbne	r0, [r4], #-1
    1f78:	1c000003 	stcne	0, cr0, [r0], {3}
    1f7c:	01000003 	tsteq	r0, r3
    1f80:	00005400 	andeq	r5, r0, r0, lsl #8
    1f84:	00000000 	andeq	r0, r0, r0
    1f88:	031c0000 	tsteq	ip, #0
    1f8c:	033f0000 	teqeq	pc, #0
    1f90:	00010000 	andeq	r0, r1, r0
    1f94:	00033f50 	andeq	r3, r3, r0, asr pc
    1f98:	00036000 	andeq	r6, r3, r0
    1f9c:	58000100 	stmdapl	r0, {r8}
    1fa0:	00000360 	andeq	r0, r0, r0, ror #6
    1fa4:	00000370 	andeq	r0, r0, r0, ror r3
    1fa8:	70500001 	subsvc	r0, r0, r1
    1fac:	b0000003 	andlt	r0, r0, r3
    1fb0:	01000003 	tsteq	r0, r3
    1fb4:	03b05800 	movseq	r5, #0, 16
    1fb8:	03c00000 	biceq	r0, r0, #0
    1fbc:	00040000 	andeq	r0, r4, r0
    1fc0:	9f5001f3 	svcls	0x005001f3
	...
    1fcc:	0000031c 	andeq	r0, r0, ip, lsl r3
    1fd0:	0000033f 	andeq	r0, r0, pc, lsr r3
    1fd4:	3f510001 	svccc	0x00510001
    1fd8:	60000003 	andvs	r0, r0, r3
    1fdc:	01000003 	tsteq	r0, r3
    1fe0:	03605600 	cmneq	r0, #0, 12
    1fe4:	03700000 	cmneq	r0, #0
    1fe8:	00010000 	andeq	r0, r1, r0
    1fec:	00037051 	andeq	r7, r3, r1, asr r0
    1ff0:	0003b000 	andeq	fp, r3, r0
    1ff4:	56000100 	strpl	r0, [r0], -r0, lsl #2
    1ff8:	000003b0 			; <UNDEFINED> instruction: 0x000003b0
    1ffc:	000003c0 	andeq	r0, r0, r0, asr #7
    2000:	01f30004 	mvnseq	r0, r4
    2004:	00009f51 	andeq	r9, r0, r1, asr pc
    2008:	00000000 	andeq	r0, r0, r0
    200c:	031c0000 	tsteq	ip, #0
    2010:	033f0000 	teqeq	pc, #0
    2014:	00010000 	andeq	r0, r1, r0
    2018:	00033f52 	andeq	r3, r3, r2, asr pc
    201c:	00036000 	andeq	r6, r3, r0
    2020:	f3000400 	vshl.u8	d0, d0, d0
    2024:	609f5201 	addsvs	r5, pc, r1, lsl #4
    2028:	70000003 	andvc	r0, r0, r3
    202c:	01000003 	tsteq	r0, r3
    2030:	03705200 	cmneq	r0, #0, 4
    2034:	03b00000 	movseq	r0, #0
    2038:	00030000 	andeq	r0, r3, r0
    203c:	b09f0177 	addslt	r0, pc, r7, ror r1	; <UNPREDICTABLE>
    2040:	c0000003 	andgt	r0, r0, r3
    2044:	04000003 	streq	r0, [r0], #-3
    2048:	5201f300 	andpl	pc, r1, #0, 6
    204c:	0000009f 	muleq	r0, pc, r0	; <UNPREDICTABLE>
    2050:	00000000 	andeq	r0, r0, r0
    2054:	00031c00 	andeq	r1, r3, r0, lsl #24
    2058:	00033f00 	andeq	r3, r3, r0, lsl #30
    205c:	53000100 	movwpl	r0, #256	; 0x100
    2060:	0000033f 	andeq	r0, r0, pc, lsr r3
    2064:	00000360 	andeq	r0, r0, r0, ror #6
    2068:	01f30004 	mvnseq	r0, r4
    206c:	03609f53 	cmneq	r0, #332	; 0x14c
    2070:	03700000 	cmneq	r0, #0
    2074:	00010000 	andeq	r0, r1, r0
    2078:	00037053 	andeq	r7, r3, r3, asr r0
    207c:	0003c000 	andeq	ip, r3, r0
    2080:	f3000400 	vshl.u8	d0, d0, d0
    2084:	009f5301 	addseq	r5, pc, r1, lsl #6
    2088:	00000000 	andeq	r0, r0, r0
    208c:	68000000 	stmdavs	r0, {}	; <UNPREDICTABLE>
    2090:	70000003 	andvc	r0, r0, r3
    2094:	02000003 	andeq	r0, r0, #3
    2098:	709f3000 	addsvc	r3, pc, r0
    209c:	b0000003 	andlt	r0, r0, r3
    20a0:	01000003 	tsteq	r0, r3
    20a4:	03b05400 	movseq	r5, #0, 8
    20a8:	03c00000 	biceq	r0, r0, #0
    20ac:	00010000 	andeq	r0, r1, r0
    20b0:	00000050 	andeq	r0, r0, r0, asr r0
    20b4:	00000000 	andeq	r0, r0, r0
    20b8:	00038000 	andeq	r8, r3, r0
    20bc:	00039000 	andeq	r9, r3, r0
    20c0:	50000100 	andpl	r0, r0, r0, lsl #2
	...
    20cc:	000003c0 	andeq	r0, r0, r0, asr #7
    20d0:	000003df 	ldrdeq	r0, [r0], -pc	; <UNPREDICTABLE>
    20d4:	df500001 	svcle	0x00500001
    20d8:	00000003 	andeq	r0, r0, r3
    20dc:	01000004 	tsteq	r0, r4
    20e0:	04005700 	streq	r5, [r0], #-1792	; 0x700
    20e4:	04100000 	ldreq	r0, [r0], #-0
    20e8:	00010000 	andeq	r0, r1, r0
    20ec:	00041050 	andeq	r1, r4, r0, asr r0
    20f0:	00044000 	andeq	r4, r4, r0
    20f4:	57000100 	strpl	r0, [r0, -r0, lsl #2]
    20f8:	00000440 	andeq	r0, r0, r0, asr #8
    20fc:	00000450 	andeq	r0, r0, r0, asr r4
    2100:	01f30004 	mvnseq	r0, r4
    2104:	00009f50 	andeq	r9, r0, r0, asr pc
    2108:	00000000 	andeq	r0, r0, r0
    210c:	03c00000 	biceq	r0, r0, #0
    2110:	03df0000 	bicseq	r0, pc, #0
    2114:	00010000 	andeq	r0, r1, r0
    2118:	0003df51 	andeq	sp, r3, r1, asr pc
    211c:	00040000 	andeq	r0, r4, r0
    2120:	55000100 	strpl	r0, [r0, #-256]	; 0x100
    2124:	00000400 	andeq	r0, r0, r0, lsl #8
    2128:	00000410 	andeq	r0, r0, r0, lsl r4
    212c:	10510001 	subsne	r0, r1, r1
    2130:	40000004 	andmi	r0, r0, r4
    2134:	01000004 	tsteq	r0, r4
    2138:	04405500 	strbeq	r5, [r0], #-1280	; 0x500
    213c:	04500000 	ldrbeq	r0, [r0], #-0
    2140:	00040000 	andeq	r0, r4, r0
    2144:	9f5101f3 	svcls	0x005101f3
	...
    2150:	000003c0 	andeq	r0, r0, r0, asr #7
    2154:	000003df 	ldrdeq	r0, [r0], -pc	; <UNPREDICTABLE>
    2158:	df520001 	svcle	0x00520001
    215c:	00000003 	andeq	r0, r0, r3
    2160:	04000004 	streq	r0, [r0], #-4
    2164:	5201f300 	andpl	pc, r1, #0, 6
    2168:	0004009f 	muleq	r4, pc, r0	; <UNPREDICTABLE>
    216c:	00041000 	andeq	r1, r4, r0
    2170:	52000100 	andpl	r0, r0, #0, 2
    2174:	00000410 	andeq	r0, r0, r0, lsl r4
    2178:	00000440 	andeq	r0, r0, r0, asr #8
    217c:	01760003 	cmneq	r6, r3
    2180:	0004409f 	muleq	r4, pc, r0	; <UNPREDICTABLE>
    2184:	00045000 	andeq	r5, r4, r0
    2188:	f3000400 	vshl.u8	d0, d0, d0
    218c:	009f5201 	addseq	r5, pc, r1, lsl #4
    2190:	00000000 	andeq	r0, r0, r0
    2194:	c0000000 	andgt	r0, r0, r0
    2198:	df000003 	svcle	0x00000003
    219c:	01000003 	tsteq	r0, r3
    21a0:	03df5300 	bicseq	r5, pc, #0, 6
    21a4:	04000000 	streq	r0, [r0], #-0
    21a8:	00010000 	andeq	r0, r1, r0
    21ac:	00040058 	andeq	r0, r4, r8, asr r0
    21b0:	00041000 	andeq	r1, r4, r0
    21b4:	53000100 	movwpl	r0, #256	; 0x100
    21b8:	00000410 	andeq	r0, r0, r0, lsl r4
    21bc:	00000440 	andeq	r0, r0, r0, asr #8
    21c0:	40580001 	subsmi	r0, r8, r1
    21c4:	50000004 	andpl	r0, r0, r4
    21c8:	04000004 	streq	r0, [r0], #-4
    21cc:	5301f300 	movwpl	pc, #4864	; 0x1300	; <UNPREDICTABLE>
    21d0:	0000009f 	muleq	r0, pc, r0	; <UNPREDICTABLE>
    21d4:	00000000 	andeq	r0, r0, r0
    21d8:	00040800 	andeq	r0, r4, r0, lsl #16
    21dc:	00041000 	andeq	r1, r4, r0
    21e0:	30000200 	andcc	r0, r0, r0, lsl #4
    21e4:	0004109f 	muleq	r4, pc, r0	; <UNPREDICTABLE>
    21e8:	00044000 	andeq	r4, r4, r0
    21ec:	54000100 	strpl	r0, [r0], #-256	; 0x100
    21f0:	00000440 	andeq	r0, r0, r0, asr #8
    21f4:	00000450 	andeq	r0, r0, r0, asr r4
    21f8:	00500001 	subseq	r0, r0, r1
    21fc:	00000000 	andeq	r0, r0, r0
    2200:	50000000 	andpl	r0, r0, r0
    2204:	73000004 	movwvc	r0, #4
    2208:	01000004 	tsteq	r0, r4
    220c:	04735100 	ldrbteq	r5, [r3], #-256	; 0x100
    2210:	05240000 	streq	r0, [r4, #-0]!
    2214:	00040000 	andeq	r0, r4, r0
    2218:	9f5101f3 	svcls	0x005101f3
	...
    2224:	00000450 	andeq	r0, r0, r0, asr r4
    2228:	00000473 	andeq	r0, r0, r3, ror r4
    222c:	73520001 	cmpvc	r2, #1
    2230:	24000004 	strcs	r0, [r0], #-4
    2234:	04000005 	streq	r0, [r0], #-5
    2238:	5201f300 	andpl	pc, r1, #0, 6
    223c:	0000009f 	muleq	r0, pc, r0	; <UNPREDICTABLE>
    2240:	00000000 	andeq	r0, r0, r0
    2244:	00045000 	andeq	r5, r4, r0
    2248:	00047300 	andeq	r7, r4, r0, lsl #6
    224c:	53000100 	movwpl	r0, #256	; 0x100
    2250:	00000473 	andeq	r0, r0, r3, ror r4
    2254:	00000510 	andeq	r0, r0, r0, lsl r5
    2258:	10550001 	subsne	r0, r5, r1
    225c:	24000005 	strcs	r0, [r0], #-5
    2260:	02000005 	andeq	r0, r0, #5
    2264:	00047000 	andeq	r7, r4, r0
    2268:	00000000 	andeq	r0, r0, r0
    226c:	94000000 	strls	r0, [r0], #-0
    2270:	d3000004 	movwle	r0, #4
    2274:	01000004 	tsteq	r0, r4
    2278:	04d35200 	ldrbeq	r5, [r3], #512	; 0x200
    227c:	04f40000 	ldrbteq	r0, [r4], #0
    2280:	00060000 	andeq	r0, r6, r0
    2284:	00770075 	rsbseq	r0, r7, r5, ror r0
    2288:	04f49f1e 	ldrbteq	r9, [r4], #3870	; 0xf1e
    228c:	05240000 	streq	r0, [r4, #-0]!
    2290:	00010000 	andeq	r0, r1, r0
    2294:	00000052 	andeq	r0, r0, r2, asr r0
    2298:	00000000 	andeq	r0, r0, r0
    229c:	00052400 	andeq	r2, r5, r0, lsl #8
    22a0:	00052f00 	andeq	r2, r5, r0, lsl #30
    22a4:	50000100 	andpl	r0, r0, r0, lsl #2
    22a8:	0000052f 	andeq	r0, r0, pc, lsr #10
    22ac:	00000560 	andeq	r0, r0, r0, ror #10
    22b0:	01f30004 	mvnseq	r0, r4
    22b4:	00009f50 	andeq	r9, r0, r0, asr pc
    22b8:	00000000 	andeq	r0, r0, r0
    22bc:	05300000 	ldreq	r0, [r0, #-0]!
    22c0:	053b0000 	ldreq	r0, [fp, #-0]!
    22c4:	00010000 	andeq	r0, r1, r0
    22c8:	00000050 	andeq	r0, r0, r0, asr r0
    22cc:	00000000 	andeq	r0, r0, r0
    22d0:	00056000 	andeq	r6, r5, r0
    22d4:	00057000 	andeq	r7, r5, r0
    22d8:	50000100 	andpl	r0, r0, r0, lsl #2
    22dc:	00000570 	andeq	r0, r0, r0, ror r5
    22e0:	0000058c 	andeq	r0, r0, ip, lsl #11
    22e4:	00550001 	subseq	r0, r5, r1
    22e8:	00000000 	andeq	r0, r0, r0
    22ec:	60000000 	andvs	r0, r0, r0
    22f0:	70000005 	andvc	r0, r0, r5
    22f4:	01000005 	tsteq	r0, r5
    22f8:	05705100 	ldrbeq	r5, [r0, #-256]!	; 0x100
    22fc:	058c0000 	streq	r0, [ip]
    2300:	00010000 	andeq	r0, r1, r0
    2304:	00000054 	andeq	r0, r0, r4, asr r0
    2308:	00000000 	andeq	r0, r0, r0
    230c:	00058c00 	andeq	r8, r5, r0, lsl #24
    2310:	0005a800 	andeq	sl, r5, r0, lsl #16
    2314:	50000100 	andpl	r0, r0, r0, lsl #2
    2318:	000005a8 	andeq	r0, r0, r8, lsr #11
    231c:	00000600 	andeq	r0, r0, r0, lsl #12
    2320:	00550001 	subseq	r0, r5, r1
    2324:	1c000006 	stcne	0, cr0, [r0], {6}
    2328:	04000006 	streq	r0, [r0], #-6
    232c:	5001f300 	andpl	pc, r1, r0, lsl #6
    2330:	0000009f 	muleq	r0, pc, r0	; <UNPREDICTABLE>
    2334:	00000000 	andeq	r0, r0, r0
    2338:	0005b800 	andeq	fp, r5, r0, lsl #16
    233c:	0005c700 	andeq	ip, r5, r0, lsl #14
    2340:	50000100 	andpl	r0, r0, r0, lsl #2
    2344:	000005c7 	andeq	r0, r0, r7, asr #11
    2348:	000005e8 	andeq	r0, r0, r8, ror #11
    234c:	e8540001 	ldmda	r4, {r0}^
    2350:	ec000005 	stc	0, cr0, [r0], {5}
    2354:	01000005 	tsteq	r0, r5
    2358:	05ec5000 	strbeq	r5, [ip, #0]!
    235c:	06000000 	streq	r0, [r0], -r0
    2360:	00010000 	andeq	r0, r1, r0
    2364:	00060054 	andeq	r0, r6, r4, asr r0
    2368:	00061c00 	andeq	r1, r6, r0, lsl #24
    236c:	50000100 	andpl	r0, r0, r0, lsl #2
	...
    2378:	0000061c 	andeq	r0, r0, ip, lsl r6
    237c:	0000062f 	andeq	r0, r0, pc, lsr #12
    2380:	2f500001 	svccs	0x00500001
    2384:	68000006 	stmdavs	r0, {r1, r2}
    2388:	04000006 	streq	r0, [r0], #-6
    238c:	5001f300 	andpl	pc, r1, r0, lsl #6
    2390:	0000009f 	muleq	r0, pc, r0	; <UNPREDICTABLE>
    2394:	00000000 	andeq	r0, r0, r0
    2398:	00061c00 	andeq	r1, r6, r0, lsl #24
    239c:	00062f00 	andeq	r2, r6, r0, lsl #30
    23a0:	51000100 	mrspl	r0, (UNDEF: 16)
    23a4:	0000062f 	andeq	r0, r0, pc, lsr #12
    23a8:	00000668 	andeq	r0, r0, r8, ror #12
    23ac:	01f30004 	mvnseq	r0, r4
    23b0:	00009f51 	andeq	r9, r0, r1, asr pc
    23b4:	00000000 	andeq	r0, r0, r0
    23b8:	061c0000 	ldreq	r0, [ip], -r0
    23bc:	062f0000 	strteq	r0, [pc], -r0
    23c0:	00010000 	andeq	r0, r1, r0
    23c4:	00062f52 	andeq	r2, r6, r2, asr pc
    23c8:	00066800 	andeq	r6, r6, r0, lsl #16
    23cc:	f3000400 	vshl.u8	d0, d0, d0
    23d0:	009f5201 	addseq	r5, pc, r1, lsl #4
    23d4:	00000000 	andeq	r0, r0, r0
    23d8:	1c000000 	stcne	0, cr0, [r0], {-0}
    23dc:	2f000006 	svccs	0x00000006
    23e0:	01000006 	tsteq	r0, r6
    23e4:	062f5300 	strteq	r5, [pc], -r0, lsl #6
    23e8:	06680000 	strbteq	r0, [r8], -r0
    23ec:	00040000 	andeq	r0, r4, r0
    23f0:	9f5301f3 	svcls	0x005301f3
	...
    23fc:	00000630 	andeq	r0, r0, r0, lsr r6
    2400:	0000063b 	andeq	r0, r0, fp, lsr r6
    2404:	54500001 	ldrbpl	r0, [r0], #-1
    2408:	68000006 	stmdavs	r0, {r1, r2}
    240c:	01000006 	tsteq	r0, r6
    2410:	00005000 	andeq	r5, r0, r0
    2414:	00000000 	andeq	r0, r0, r0
    2418:	00fc0000 	rscseq	r0, ip, r0
    241c:	01040000 	mrseq	r0, (UNDEF: 4)
    2420:	00010000 	andeq	r0, r1, r0
    2424:	00010450 	andeq	r0, r1, r0, asr r4
    2428:	00012800 	andeq	r2, r1, r0, lsl #16
    242c:	54000100 	strpl	r0, [r0], #-256	; 0x100
	...
    243c:	00000004 	andeq	r0, r0, r4
    2440:	04520001 	ldrbeq	r0, [r2], #-1
    2444:	20000000 	andcs	r0, r0, r0
    2448:	04000000 	streq	r0, [r0], #-0
    244c:	5201f300 	andpl	pc, r1, #0, 6
    2450:	0000009f 	muleq	r0, pc, r0	; <UNPREDICTABLE>
	...
    245c:	00000c00 	andeq	r0, r0, r0, lsl #24
    2460:	50000100 	andpl	r0, r0, r0, lsl #2
    2464:	0000000c 	andeq	r0, r0, ip
    2468:	00000014 	andeq	r0, r0, r4, lsl r0
    246c:	01730003 	cmneq	r3, r3
    2470:	0000149f 	muleq	r0, pc, r4	; <UNPREDICTABLE>
    2474:	00002000 	andeq	r2, r0, r0
    2478:	53000100 	movwpl	r0, #256	; 0x100
	...

Disassembly of section .debug_aranges:

00000000 <.debug_aranges>:
   0:	0000001c 	andeq	r0, r0, ip, lsl r0
   4:	00000002 	andeq	r0, r0, r2
   8:	00040000 	andeq	r0, r4, r0
   c:	00000000 	andeq	r0, r0, r0
  10:	00008010 	andeq	r8, r0, r0, lsl r0
  14:	00000294 	muleq	r0, r4, r2
	...
  20:	0000001c 	andeq	r0, r0, ip, lsl r0
  24:	062f0002 	strteq	r0, [pc], -r2
  28:	00040000 	andeq	r0, r4, r0
  2c:	00000000 	andeq	r0, r0, r0
  30:	000082a4 	andeq	r8, r0, r4, lsr #5
  34:	00000058 	andeq	r0, r0, r8, asr r0
	...
  40:	0000001c 	andeq	r0, r0, ip, lsl r0
  44:	07c40002 	strbeq	r0, [r4, r2]
  48:	00040000 	andeq	r0, r4, r0
  4c:	00000000 	andeq	r0, r0, r0
  50:	000082fc 	strdeq	r8, [r0], -ip
  54:	0000003c 	andeq	r0, r0, ip, lsr r0
	...
  60:	0000001c 	andeq	r0, r0, ip, lsl r0
  64:	08db0002 	ldmeq	fp, {r1}^
  68:	00040000 	andeq	r0, r4, r0
  6c:	00000000 	andeq	r0, r0, r0
  70:	00008338 	andeq	r8, r0, r8, lsr r3
  74:	00000034 	andeq	r0, r0, r4, lsr r0
	...
  80:	0000001c 	andeq	r0, r0, ip, lsl r0
  84:	09cd0002 	stmibeq	sp, {r1}^
  88:	00040000 	andeq	r0, r4, r0
  8c:	00000000 	andeq	r0, r0, r0
  90:	0000836c 	andeq	r8, r0, ip, ror #6
  94:	00000524 	andeq	r0, r0, r4, lsr #10
	...
  a0:	0000001c 	andeq	r0, r0, ip, lsl r0
  a4:	10720002 	rsbsne	r0, r2, r2
  a8:	00040000 	andeq	r0, r4, r0
  ac:	00000000 	andeq	r0, r0, r0
  b0:	00008890 	muleq	r0, r0, r8
  b4:	00000020 	andeq	r0, r0, r0, lsr #32
	...
  c0:	0000001c 	andeq	r0, r0, ip, lsl r0
  c4:	112e0002 	teqne	lr, r2
  c8:	00040000 	andeq	r0, r4, r0
  cc:	00000000 	andeq	r0, r0, r0
  d0:	000088b0 			; <UNDEFINED> instruction: 0x000088b0
  d4:	00000028 	andeq	r0, r0, r8, lsr #32
	...
  e0:	0000001c 	andeq	r0, r0, ip, lsl r0
  e4:	12310002 	eorsne	r0, r1, #2
  e8:	00040000 	andeq	r0, r4, r0
  ec:	00000000 	andeq	r0, r0, r0
  f0:	000088d8 	ldrdeq	r8, [r0], -r8	; <UNPREDICTABLE>
  f4:	000000b0 	strheq	r0, [r0], -r0	; <UNPREDICTABLE>
	...
 100:	0000001c 	andeq	r0, r0, ip, lsl r0
 104:	15120002 	ldrne	r0, [r2, #-2]
 108:	00040000 	andeq	r0, r4, r0
 10c:	00000000 	andeq	r0, r0, r0
 110:	00008988 	andeq	r8, r0, r8, lsl #19
 114:	00000074 	andeq	r0, r0, r4, ror r0
	...
 120:	0000001c 	andeq	r0, r0, ip, lsl r0
 124:	16c30002 	strbne	r0, [r3], r2
 128:	00040000 	andeq	r0, r4, r0
 12c:	00000000 	andeq	r0, r0, r0
 130:	000089fc 	strdeq	r8, [r0], -ip
 134:	00000088 	andeq	r0, r0, r8, lsl #1
	...
 140:	0000001c 	andeq	r0, r0, ip, lsl r0
 144:	189f0002 	ldmne	pc, {r1}	; <UNPREDICTABLE>
 148:	00040000 	andeq	r0, r4, r0
 14c:	00000000 	andeq	r0, r0, r0
 150:	00008a84 	andeq	r8, r0, r4, lsl #21
 154:	000005a0 	andeq	r0, r0, r0, lsr #11
	...
 160:	0000001c 	andeq	r0, r0, ip, lsl r0
 164:	21250002 	teqcs	r5, r2
 168:	00040000 	andeq	r0, r4, r0
 16c:	00000000 	andeq	r0, r0, r0
 170:	00009024 	andeq	r9, r0, r4, lsr #32
 174:	00000668 	andeq	r0, r0, r8, ror #12
	...
 180:	0000001c 	andeq	r0, r0, ip, lsl r0
 184:	331b0002 	tstcc	fp, #2
 188:	00040000 	andeq	r0, r4, r0
 18c:	00000000 	andeq	r0, r0, r0
 190:	0000968c 	andeq	r9, r0, ip, lsl #13
 194:	00000154 	andeq	r0, r0, r4, asr r1
	...
 1a0:	0000001c 	andeq	r0, r0, ip, lsl r0
 1a4:	371e0002 	ldrcc	r0, [lr, -r2]
 1a8:	00040000 	andeq	r0, r4, r0
 1ac:	00000000 	andeq	r0, r0, r0
 1b0:	00009844 	andeq	r9, r0, r4, asr #16
 1b4:	00000050 	andeq	r0, r0, r0, asr r0
	...
 1c0:	0000001c 	andeq	r0, r0, ip, lsl r0
 1c4:	38e50002 	stmiacc	r5!, {r1}^
 1c8:	00040000 	andeq	r0, r4, r0
 1cc:	00000000 	andeq	r0, r0, r0
 1d0:	00009894 	muleq	r0, r4, r8
 1d4:	00000020 	andeq	r0, r0, r0, lsr #32
	...

Disassembly of section .debug_ranges:

00000000 <.debug_ranges>:
   0:	00000054 	andeq	r0, r0, r4, asr r0
   4:	00000060 	andeq	r0, r0, r0, rrx
   8:	00000064 	andeq	r0, r0, r4, rrx
   c:	00000068 	andeq	r0, r0, r8, rrx
  10:	0000006c 	andeq	r0, r0, ip, rrx
  14:	00000070 	andeq	r0, r0, r0, ror r0
	...
  20:	00000088 	andeq	r0, r0, r8, lsl #1
  24:	0000008c 	andeq	r0, r0, ip, lsl #1
  28:	00000090 	muleq	r0, r0, r0
  2c:	00000094 	muleq	r0, r4, r0
	...
  38:	0000008c 	andeq	r0, r0, ip, lsl #1
  3c:	00000090 	muleq	r0, r0, r0
  40:	0000009c 	muleq	r0, ip, r0
  44:	000000dc 	ldrdeq	r0, [r0], -ip
	...
  50:	0000008c 	andeq	r0, r0, ip, lsl #1
  54:	00000090 	muleq	r0, r0, r0
  58:	0000009c 	muleq	r0, ip, r0
  5c:	000000d4 	ldrdeq	r0, [r0], -r4
	...
  68:	0000008c 	andeq	r0, r0, ip, lsl #1
  6c:	00000090 	muleq	r0, r0, r0
  70:	000000a0 	andeq	r0, r0, r0, lsr #1
  74:	000000a4 	andeq	r0, r0, r4, lsr #1
  78:	000000a8 	andeq	r0, r0, r8, lsr #1
  7c:	000000ac 	andeq	r0, r0, ip, lsr #1
	...
  88:	000000dc 	ldrdeq	r0, [r0], -ip
  8c:	00000158 	andeq	r0, r0, r8, asr r1
  90:	0000016c 	andeq	r0, r0, ip, ror #2
  94:	00000198 	muleq	r0, r8, r1
  98:	000001a4 	andeq	r0, r0, r4, lsr #3
  9c:	000001b4 			; <UNDEFINED> instruction: 0x000001b4
	...
  a8:	000001b8 			; <UNDEFINED> instruction: 0x000001b8
  ac:	000001bc 			; <UNDEFINED> instruction: 0x000001bc
  b0:	000001c8 	andeq	r0, r0, r8, asr #3
  b4:	000001d4 	ldrdeq	r0, [r0], -r4
  b8:	000001dc 	ldrdeq	r0, [r0], -ip
  bc:	00000238 	andeq	r0, r0, r8, lsr r2
	...
  c8:	000002b4 			; <UNDEFINED> instruction: 0x000002b4
  cc:	000002b8 			; <UNDEFINED> instruction: 0x000002b8
  d0:	000002e8 	andeq	r0, r0, r8, ror #5
  d4:	000004e0 	andeq	r0, r0, r0, ror #9
	...
  e0:	00008988 	andeq	r8, r0, r8, lsl #19
  e4:	000089fc 	strdeq	r8, [r0], -ip
	...

Disassembly of section .debug_line:

00000000 <.debug_line>:
       0:	00000185 	andeq	r0, r0, r5, lsl #3
       4:	00c40002 	sbceq	r0, r4, r2
       8:	01020000 	mrseq	r0, (UNDEF: 2)
       c:	000d0efb 	strdeq	r0, [sp], -fp
      10:	01010101 	tsteq	r1, r1, lsl #2
      14:	01000000 	mrseq	r0, (UNDEF: 0)
      18:	2f010000 	svccs	0x00010000
      1c:	72657355 	rsbvc	r7, r5, #1409286145	; 0x54000001
      20:	72622f73 	rsbvc	r2, r2, #460	; 0x1cc
      24:	6a6e6169 	bvs	1b985d0 <__bss_end__+0x1b8e5b0>
      28:	442f6e75 	strtmi	r6, [pc], #-3701	; 30 <_start-0x7fd0>
      2c:	746b7365 	strbtvc	r7, [fp], #-869	; 0x365
      30:	732f706f 	teqvc	pc, #111	; 0x6f
      34:	6f6f6863 	svcvs	0x006f6863
      38:	69572f6c 	ldmdbvs	r7, {r2, r3, r5, r6, r8, r9, sl, fp, sp}^
      3c:	7265746e 	rsbvc	r7, r5, #1845493760	; 0x6e000000
      40:	30323931 	eorscc	r3, r2, r1, lsr r9
      44:	3153432f 	cmpcc	r3, pc, lsr #6
      48:	2f453034 	svccs	0x00453034
      4c:	34317363 	ldrtcc	r7, [r1], #-867	; 0x363
      50:	322d6530 	eorcc	r6, sp, #48, 10	; 0xc000000
      54:	6e697730 	mcrvs	7, 3, r7, cr9, cr0, {1}
      58:	62696c2f 	rsbvs	r6, r9, #12032	; 0x2f00
      5c:	2f006970 	svccs	0x00006970
      60:	72657355 	rsbvc	r7, r5, #1409286145	; 0x54000001
      64:	72622f73 	rsbvc	r2, r2, #460	; 0x1cc
      68:	6a6e6169 	bvs	1b98614 <__bss_end__+0x1b8e5f4>
      6c:	442f6e75 	strtmi	r6, [pc], #-3701	; 74 <_start-0x7f8c>
      70:	746b7365 	strbtvc	r7, [fp], #-869	; 0x365
      74:	732f706f 	teqvc	pc, #111	; 0x6f
      78:	6f6f6863 	svcvs	0x006f6863
      7c:	69572f6c 	ldmdbvs	r7, {r2, r3, r5, r6, r8, r9, sl, fp, sp}^
      80:	7265746e 	rsbvc	r7, r5, #1845493760	; 0x6e000000
      84:	30323931 	eorscc	r3, r2, r1, lsr r9
      88:	3153432f 	cmpcc	r3, pc, lsr #6
      8c:	2f453034 	svccs	0x00453034
      90:	34317363 	ldrtcc	r7, [r1], #-867	; 0x363
      94:	322d6530 	eorcc	r6, sp, #48, 10	; 0xc000000
      98:	6e697730 	mcrvs	7, 3, r7, cr9, cr0, {1}
      9c:	62696c2f 	rsbvs	r6, r9, #12032	; 0x2f00
      a0:	632f6970 	teqvs	pc, #112, 18	; 0x1c0000
      a4:	30343173 	eorscc	r3, r4, r3, ror r1
      a8:	72732d65 	rsbsvc	r2, r3, #6464	; 0x1940
      ac:	73000063 	movwvc	r0, #99	; 0x63
      b0:	65706f63 	ldrbvs	r6, [r0, #-3939]!	; 0xf63
      b4:	0000632e 	andeq	r6, r0, lr, lsr #6
      b8:	70720000 	rsbsvc	r0, r2, r0
      bc:	00682e69 	rsbeq	r2, r8, r9, ror #28
      c0:	67000001 	strvs	r0, [r0, -r1]
      c4:	2e6f6970 	mcrcs	9, 3, r6, cr15, cr0, {3}
      c8:	00020068 	andeq	r0, r2, r8, rrx
      cc:	05000000 	streq	r0, [r0, #-0]
      d0:	00801002 	addeq	r1, r0, r2
      d4:	01250300 	teqeq	r5, r0, lsl #6
      d8:	2f2f2d13 	svccs	0x002f2d13
      dc:	0030672f 	eorseq	r6, r0, pc, lsr #14
      e0:	45010402 	strmi	r0, [r1, #-1026]	; 0x402
      e4:	3c080d03 	stccc	13, cr0, [r8], {3}
      e8:	032e6e03 	teqeq	lr, #3, 28	; 0x30
      ec:	6e036612 	mcrvs	6, 0, r6, cr3, cr2, {0}
      f0:	2e12032e 	cdpcs	3, 1, cr0, cr2, cr14, {1}
      f4:	032e6e03 	teqeq	lr, #3, 28	; 0x30
      f8:	02002e17 	andeq	r2, r0, #368	; 0x170
      fc:	69030104 	stmdbvs	r3, {r2, r8}
     100:	0402002e 	streq	r0, [r2], #-46	; 0x2e
     104:	4a1b0301 	bmi	6c0d10 <__bss_end__+0x6b6cf0>
     108:	2e640367 	cdpcs	3, 6, cr0, cr4, cr7, {3}
     10c:	032e1c03 	teqeq	lr, #768	; 0x300
     110:	1e032e77 	mcrne	14, 0, r2, cr3, cr7, {3}
     114:	2e4f034a 	cdpcs	3, 4, cr0, cr15, cr10, {2}
     118:	032e3303 	teqeq	lr, #201326592	; 0xc000000
     11c:	31032e4d 	tstcc	r3, sp, asr #28
     120:	2d2f2f2e 	stccs	15, cr2, [pc, #-184]!	; 70 <_start-0x7f90>
     124:	03684b2f 	cmneq	r8, #48128	; 0xbc00
     128:	02002e7a 	andeq	r2, r0, #1952	; 0x7a0
     12c:	0a030104 	beq	c0544 <__bss_end__+0xb6524>
     130:	00d6064a 	sbcseq	r0, r6, sl, asr #12
     134:	06020402 	streq	r0, [r2], -r2, lsl #8
     138:	040200d8 	streq	r0, [r2], #-216	; 0xd8
     13c:	02004902 	andeq	r4, r0, #32768	; 0x8000
     140:	00830204 	addeq	r0, r3, r4, lsl #4
     144:	2d020402 	cfstrscs	mvf0, [r2, #-8]
     148:	02040200 	andeq	r0, r4, #0, 4
     14c:	0402002f 	streq	r0, [r2], #-47	; 0x2f
     150:	02009d02 	andeq	r9, r0, #2, 26	; 0x80
     154:	682d0204 	stmdavs	sp!, {r2, r9}
     158:	2f2c2fd5 	svccs	0x002c2fd5
     15c:	03502c67 	cmpeq	r0, #26368	; 0x6700
     160:	0a03667a 	beq	d9b50 <__bss_end__+0xcfb30>
     164:	2e2b3182 	sufcs<illegal precision>	f3, f3, f2
     168:	834c644d 	movthi	r6, #50253	; 0xc44d
     16c:	7a03354c 	bvc	cd6a4 <__bss_end__+0xc3684>
     170:	2c67312e 	stfcse	f3, [r7], #-184	; 0xffffff48
     174:	ba760332 	blt	1d80e44 <__bss_end__+0x1d76e24>
     178:	68660c03 	stmdavs	r6!, {r0, r1, sl, fp}^
     17c:	4f4b2f4c 	svcmi	0x004b2f4c
     180:	4b312bd9 	blmi	c4b0ec <__bss_end__+0xc410cc>
     184:	01000402 	tsteq	r0, r2, lsl #8
     188:	00010201 	andeq	r0, r1, r1, lsl #4
     18c:	eb000200 	bl	994 <_start-0x766c>
     190:	02000000 	andeq	r0, r0, #0
     194:	0d0efb01 	vstreq	d15, [lr, #-4]
     198:	01010100 	mrseq	r0, (UNDEF: 17)
     19c:	00000001 	andeq	r0, r0, r1
     1a0:	01000001 	tsteq	r0, r1
     1a4:	6362696c 	cmnvs	r2, #108, 18	; 0x1b0000
     1a8:	73752f00 	cmnvc	r5, #0, 30
     1ac:	6f6c2f72 	svcvs	0x006c2f72
     1b0:	2f6c6163 	svccs	0x006c6163
     1b4:	6c6c6543 	cfstr64vs	mvdx6, [ip], #-268	; 0xfffffef4
     1b8:	612f7261 	teqvs	pc, r1, ror #4
     1bc:	6e2d6d72 	mcrvs	13, 1, r6, cr13, cr2, {3}
     1c0:	2d656e6f 	stclcs	14, cr6, [r5, #-444]!	; 0xfffffe44
     1c4:	69626165 	stmdbvs	r2!, {r0, r2, r5, r6, r8, sp, lr}^
     1c8:	382e342f 	stmdacc	lr!, {r0, r1, r2, r3, r5, sl, ip, sp}
     1cc:	632d332e 	teqvs	sp, #-1207959552	; 0xb8000000
     1d0:	30373173 	eorscc	r3, r7, r3, ror r1
     1d4:	696c2f65 	stmdbvs	ip!, {r0, r2, r5, r6, r8, r9, sl, fp, sp}^
     1d8:	63672f62 	cmnvs	r7, #392	; 0x188
     1dc:	72612f63 	rsbvc	r2, r1, #396	; 0x18c
     1e0:	6f6e2d6d 	svcvs	0x006e2d6d
     1e4:	652d656e 	strvs	r6, [sp, #-1390]!	; 0x56e
     1e8:	2f696261 	svccs	0x00696261
     1ec:	2e382e34 	mrccs	14, 1, r2, cr8, cr4, {1}
     1f0:	6e692f33 	mcrvs	15, 3, r2, cr9, cr3, {1}
     1f4:	64756c63 	ldrbtvs	r6, [r5], #-3171	; 0xc63
     1f8:	552f0065 	strpl	r0, [pc, #-101]!	; 19b <_start-0x7e65>
     1fc:	73726573 	cmnvc	r2, #482344960	; 0x1cc00000
     200:	6972622f 	ldmdbvs	r2!, {r0, r1, r2, r3, r5, r9, sp, lr}^
     204:	756a6e61 	strbvc	r6, [sl, #-3681]!	; 0xe61
     208:	65442f6e 	strbvs	r2, [r4, #-3950]	; 0xf6e
     20c:	6f746b73 	svcvs	0x00746b73
     210:	63732f70 	cmnvs	r3, #112, 30	; 0x1c0
     214:	6c6f6f68 	stclvs	15, cr6, [pc], #-416	; 7c <_start-0x7f84>
     218:	6e69572f 	cdpvs	7, 6, cr5, cr9, cr15, {1}
     21c:	31726574 	cmncc	r2, r4, ror r5
     220:	2f303239 	svccs	0x00303239
     224:	34315343 	ldrtcc	r5, [r1], #-835	; 0x343
     228:	632f4530 	teqvs	pc, #48, 10	; 0xc000000
     22c:	30343173 	eorscc	r3, r4, r3, ror r1
     230:	30322d65 	eorscc	r2, r2, r5, ror #26
     234:	2f6e6977 	svccs	0x006e6977
     238:	7062696c 	rsbvc	r6, r2, ip, ror #18
     23c:	70000069 	andvc	r0, r0, r9, rrx
     240:	746e6972 	strbtvc	r6, [lr], #-2418	; 0x972
     244:	00632e6b 	rsbeq	r2, r3, fp, ror #28
     248:	73000001 	movwvc	r0, #1
     24c:	72616474 	rsbvc	r6, r1, #116, 8	; 0x74000000
     250:	00682e67 	rsbeq	r2, r8, r7, ror #28
     254:	3c000002 	stccc	0, cr0, [r0], {2}
     258:	6c697562 	cfstr64vs	mvdx7, [r9], #-392	; 0xfffffe78
     25c:	6e692d74 	mcrvs	13, 3, r2, cr9, cr4, {3}
     260:	0000003e 	andeq	r0, r0, lr, lsr r0
     264:	69707200 	ldmdbvs	r0!, {r9, ip, sp, lr}^
     268:	0300682e 	movweq	r6, #2094	; 0x82e
     26c:	61760000 	cmnvs	r6, r0
     270:	6972702d 	ldmdbvs	r2!, {r0, r2, r3, r5, ip, sp, lr}^
     274:	2e6b746e 	cdpcs	4, 6, cr7, cr11, cr14, {3}
     278:	00010068 	andeq	r0, r1, r8, rrx
     27c:	05000000 	streq	r0, [r0, #-0]
     280:	0082a402 	addeq	sl, r2, r2, lsl #8
     284:	4b6b1700 	blmi	1ac5e8c <__bss_end__+0x1abbe6c>
     288:	0e0289bf 	mcreq	9, 0, r8, cr2, cr15, {5}
     28c:	8a010100 	bhi	40694 <__bss_end__+0x36674>
     290:	02000000 	andeq	r0, r0, #0
     294:	00007200 	andeq	r7, r0, r0, lsl #4
     298:	fb010200 	blx	40aa2 <__bss_end__+0x36a82>
     29c:	01000d0e 	tsteq	r0, lr, lsl #26
     2a0:	00010101 	andeq	r0, r1, r1, lsl #2
     2a4:	00010000 	andeq	r0, r1, r0
     2a8:	696c0100 	stmdbvs	ip!, {r8}^
     2ac:	2f006362 	svccs	0x00006362
     2b0:	72657355 	rsbvc	r7, r5, #1409286145	; 0x54000001
     2b4:	72622f73 	rsbvc	r2, r2, #460	; 0x1cc
     2b8:	6a6e6169 	bvs	1b98864 <__bss_end__+0x1b8e844>
     2bc:	442f6e75 	strtmi	r6, [pc], #-3701	; 2c4 <_start-0x7d3c>
     2c0:	746b7365 	strbtvc	r7, [fp], #-869	; 0x365
     2c4:	732f706f 	teqvc	pc, #111	; 0x6f
     2c8:	6f6f6863 	svcvs	0x006f6863
     2cc:	69572f6c 	ldmdbvs	r7, {r2, r3, r5, r6, r8, r9, sl, fp, sp}^
     2d0:	7265746e 	rsbvc	r7, r5, #1845493760	; 0x6e000000
     2d4:	30323931 	eorscc	r3, r2, r1, lsr r9
     2d8:	3153432f 	cmpcc	r3, pc, lsr #6
     2dc:	2f453034 	svccs	0x00453034
     2e0:	34317363 	ldrtcc	r7, [r1], #-867	; 0x363
     2e4:	322d6530 	eorcc	r6, sp, #48, 10	; 0xc000000
     2e8:	6e697730 	mcrvs	7, 3, r7, cr9, cr0, {1}
     2ec:	62696c2f 	rsbvs	r6, r9, #12032	; 0x2f00
     2f0:	00006970 	andeq	r6, r0, r0, ror r9
     2f4:	63747570 	cmnvs	r4, #112, 10	; 0x1c000000
     2f8:	2e726168 	rpwcssz	f6, f2, #0.0
     2fc:	00010063 	andeq	r0, r1, r3, rrx
     300:	69707200 	ldmdbvs	r0!, {r9, ip, sp, lr}^
     304:	0200682e 	andeq	r6, r0, #3014656	; 0x2e0000
     308:	00000000 	andeq	r0, r0, r0
     30c:	82fc0205 	rscshi	r0, ip, #1342177280	; 0x50000000
     310:	4a140000 	bmi	500318 <__bss_end__+0x4f62f8>
     314:	13bc136b 			; <UNDEFINED> instruction: 0x13bc136b
     318:	01000802 	tsteq	r0, r2, lsl #16
     31c:	00009601 	andeq	r9, r0, r1, lsl #12
     320:	6f000200 	svcvs	0x00000200
     324:	02000000 	andeq	r0, r0, #0
     328:	0d0efb01 	vstreq	d15, [lr, #-4]
     32c:	01010100 	mrseq	r0, (UNDEF: 17)
     330:	00000001 	andeq	r0, r0, r1
     334:	01000001 	tsteq	r0, r1
     338:	6362696c 	cmnvs	r2, #108, 18	; 0x1b0000
     33c:	73552f00 	cmpvc	r5, #0, 30
     340:	2f737265 	svccs	0x00737265
     344:	61697262 	cmnvs	r9, r2, ror #4
     348:	6e756a6e 	vsubvs.f32	s13, s10, s29
     34c:	7365442f 	cmnvc	r5, #788529152	; 0x2f000000
     350:	706f746b 	rsbvc	r7, pc, fp, ror #8
     354:	6863732f 	stmdavs	r3!, {r0, r1, r2, r3, r5, r8, r9, ip, sp, lr}^
     358:	2f6c6f6f 	svccs	0x006c6f6f
     35c:	746e6957 	strbtvc	r6, [lr], #-2391	; 0x957
     360:	39317265 	ldmdbcc	r1!, {r0, r2, r5, r6, r9, ip, sp, lr}
     364:	432f3032 	teqmi	pc, #50	; 0x32
     368:	30343153 	eorscc	r3, r4, r3, asr r1
     36c:	73632f45 	cmnvc	r3, #276	; 0x114
     370:	65303431 	ldrvs	r3, [r0, #-1073]!	; 0x431
     374:	7730322d 	ldrvc	r3, [r0, -sp, lsr #4]!
     378:	6c2f6e69 	stcvs	14, cr6, [pc], #-420	; 1dc <_start-0x7e24>
     37c:	69706269 	ldmdbvs	r0!, {r0, r3, r5, r6, r9, sp, lr}^
     380:	75700000 	ldrbvc	r0, [r0, #-0]!
     384:	632e6b74 	teqvs	lr, #116, 22	; 0x1d000
     388:	00000100 	andeq	r0, r0, r0, lsl #2
     38c:	2e697072 	mcrcs	0, 3, r7, cr9, cr2, {3}
     390:	00020068 	andeq	r0, r2, r8, rrx
     394:	05000000 	streq	r0, [r0, #-0]
     398:	00833802 	addeq	r3, r3, r2, lsl #16
     39c:	2d4c1500 	cfstr64cs	mvdx1, [ip, #-0]
     3a0:	02040200 	andeq	r0, r4, #0, 4
     3a4:	0402002f 	streq	r0, [r2], #-47	; 0x2f
     3a8:	02004902 	andeq	r4, r0, #32768	; 0x8000
     3ac:	2e060104 	adfcss	f0, f6, f4
     3b0:	06026b06 	streq	r6, [r2], -r6, lsl #22
     3b4:	e2010100 	and	r0, r1, #0, 2
     3b8:	02000001 	andeq	r0, r0, #1
     3bc:	0000df00 	andeq	sp, r0, r0, lsl #30
     3c0:	fb010200 	blx	40bca <__bss_end__+0x36baa>
     3c4:	01000d0e 	tsteq	r0, lr, lsl #26
     3c8:	00010101 	andeq	r0, r1, r1, lsl #2
     3cc:	00010000 	andeq	r0, r1, r0
     3d0:	696c0100 	stmdbvs	ip!, {r8}^
     3d4:	2f006362 	svccs	0x00006362
     3d8:	2f727375 	svccs	0x00727375
     3dc:	61636f6c 	cmnvs	r3, ip, ror #30
     3e0:	65432f6c 	strbvs	r2, [r3, #-3948]	; 0xf6c
     3e4:	72616c6c 	rsbvc	r6, r1, #108, 24	; 0x6c00
     3e8:	6d72612f 	ldfvse	f6, [r2, #-188]!	; 0xffffff44
     3ec:	6e6f6e2d 	cdpvs	14, 6, cr6, cr15, cr13, {1}
     3f0:	61652d65 	cmnvs	r5, r5, ror #26
     3f4:	342f6962 	strtcc	r6, [pc], #-2402	; 3fc <_start-0x7c04>
     3f8:	332e382e 	teqcc	lr, #3014656	; 0x2e0000
     3fc:	3173632d 	cmncc	r3, sp, lsr #6
     400:	2f653037 	svccs	0x00653037
     404:	2f62696c 	svccs	0x0062696c
     408:	2f636367 	svccs	0x00636367
     40c:	2d6d7261 	sfmcs	f7, 2, [sp, #-388]!	; 0xfffffe7c
     410:	656e6f6e 	strbvs	r6, [lr, #-3950]!	; 0xf6e
     414:	6261652d 	rsbvs	r6, r1, #188743680	; 0xb400000
     418:	2e342f69 	cdpcs	15, 3, cr2, cr4, cr9, {3}
     41c:	2f332e38 	svccs	0x00332e38
     420:	6c636e69 	stclvs	14, cr6, [r3], #-420	; 0xfffffe5c
     424:	00656475 	rsbeq	r6, r5, r5, ror r4
     428:	6573552f 	ldrbvs	r5, [r3, #-1327]!	; 0x52f
     42c:	622f7372 	eorvs	r7, pc, #-939524095	; 0xc8000001
     430:	6e616972 	mcrvs	9, 3, r6, cr1, cr2, {3}
     434:	2f6e756a 	svccs	0x006e756a
     438:	6b736544 	blvs	1cd9950 <__bss_end__+0x1ccf930>
     43c:	2f706f74 	svccs	0x00706f74
     440:	6f686373 	svcvs	0x00686373
     444:	572f6c6f 	strpl	r6, [pc, -pc, ror #24]!
     448:	65746e69 	ldrbvs	r6, [r4, #-3689]!	; 0xe69
     44c:	32393172 	eorscc	r3, r9, #-2147483620	; 0x8000001c
     450:	53432f30 	movtpl	r2, #16176	; 0x3f30
     454:	45303431 	ldrmi	r3, [r0, #-1073]!	; 0x431
     458:	3173632f 	cmncc	r3, pc, lsr #6
     45c:	2d653034 	stclcs	0, cr3, [r5, #-208]!	; 0xffffff30
     460:	69773032 	ldmdbvs	r7!, {r1, r4, r5, ip, sp}^
     464:	696c2f6e 	stmdbvs	ip!, {r1, r2, r3, r5, r6, r8, r9, sl, fp, sp}^
     468:	00697062 	rsbeq	r7, r9, r2, rrx
     46c:	2d617600 	stclcs	6, cr7, [r1, #-0]
     470:	6e697270 	mcrvs	2, 3, r7, cr9, cr0, {3}
     474:	632e6b74 	teqvs	lr, #116, 22	; 0x1d000
     478:	00000100 	andeq	r0, r0, r0, lsl #2
     47c:	61647473 	smcvs	18243	; 0x4743
     480:	682e6772 	stmdavs	lr!, {r1, r4, r5, r6, r8, r9, sl, sp, lr}
     484:	00000200 	andeq	r0, r0, r0, lsl #4
     488:	2e697072 	mcrcs	0, 3, r7, cr9, cr2, {3}
     48c:	00030068 	andeq	r0, r3, r8, rrx
     490:	75623c00 	strbvc	r3, [r2, #-3072]!	; 0xc00
     494:	2d746c69 	ldclcs	12, cr6, [r4, #-420]!	; 0xfffffe5c
     498:	003e6e69 	eorseq	r6, lr, r9, ror #28
     49c:	00000000 	andeq	r0, r0, r0
     4a0:	6c020500 	cfstr32vs	mvfx0, [r2], {-0}
     4a4:	03000083 	movweq	r0, #131	; 0x83
     4a8:	a5010126 	strge	r0, [r1, #-294]	; 0x126
     4ac:	002d3113 	eoreq	r3, sp, r3, lsl r1
     4b0:	2f020402 	svccs	0x00020402
     4b4:	02040200 	andeq	r0, r4, #0, 4
     4b8:	0402002d 	streq	r0, [r2], #-45	; 0x2d
     4bc:	02002f02 	andeq	r2, r0, #2, 30
     4c0:	4c2d0104 	stfmis	f0, [sp], #-16
     4c4:	4b14304c 	blmi	50c5fc <__bss_end__+0x5025dc>
     4c8:	02004f2f 	andeq	r4, r0, #47, 30	; 0xbc
     4cc:	00670204 	rsbeq	r0, r7, r4, lsl #4
     4d0:	65010402 	strvs	r0, [r1, #-1026]	; 0x402
     4d4:	a0304d4c 	eorsge	r4, r0, ip, asr #26
     4d8:	0230312f 	eorseq	r3, r0, #-1073741813	; 0xc000000b
     4dc:	2d841626 	stccs	6, cr1, [r4, #152]	; 0x98
     4e0:	0402002c 	streq	r0, [r2], #-44	; 0x2c
     4e4:	02003001 	andeq	r3, r0, #1
     4e8:	06330104 	ldrteq	r0, [r3], -r4, lsl #2
     4ec:	04020066 	streq	r0, [r2], #-102	; 0x66
     4f0:	02002e01 	andeq	r2, r0, #1, 28
     4f4:	08060104 	stmdaeq	r6, {r2, r8}
     4f8:	032f6721 	teqeq	pc, #8650752	; 0x840000
     4fc:	13038273 	movwne	r8, #12915	; 0x3273
     500:	0402002e 	streq	r0, [r2], #-46	; 0x2e
     504:	002e0601 	eoreq	r0, lr, r1, lsl #12
     508:	06010402 	streq	r0, [r1], -r2, lsl #8
     50c:	034b6a9f 	movteq	r6, #47775	; 0xba9f
     510:	21032e67 	tstcs	r3, r7, ror #28
     514:	0402002e 	streq	r0, [r2], #-46	; 0x2e
     518:	002e0601 	eoreq	r0, lr, r1, lsl #12
     51c:	06010402 	streq	r0, [r1], -r2, lsl #8
     520:	0402009f 	streq	r0, [r2], #-159	; 0x9f
     524:	23086a01 	movwcs	r6, #35329	; 0x8a01
     528:	7fa603f3 	svcvc	0x00a603f3
     52c:	004b3c08 	subeq	r3, fp, r8, lsl #24
     530:	06010402 	streq	r0, [r1], -r2, lsl #8
     534:	2108064a 	tstcs	r8, sl, asr #12
     538:	034b2f4b 	movteq	r2, #48971	; 0xbf4b
     53c:	83f200d9 	mvnshi	r0, #217	; 0xd9
     540:	0e03484c 	cdpeq	8, 0, cr4, cr3, cr12, {2}
     544:	2e75032e 	cdpcs	3, 7, cr0, cr5, cr14, {1}
     548:	4b842f2f 	blmi	fe10c20c <__bss_end__+0xfe1021ec>
     54c:	314d2d2f 	cmpcc	sp, pc, lsr #26
     550:	00832f30 	addeq	r2, r3, r0, lsr pc
     554:	2c010402 	cfstrscs	mvf0, [r1], {2}
     558:	040200a2 	streq	r0, [r2], #-162	; 0xa2
     55c:	064a0601 	strbeq	r0, [sl], -r1, lsl #12
     560:	36022208 	strcc	r2, [r2], -r8, lsl #4
     564:	d60e0316 			; <UNDEFINED> instruction: 0xd60e0316
     568:	f3302108 	vrhadd.u<illegal width 64>	d2, d0, d8
     56c:	f330f331 	vcge.u<illegal width 64>	d15, d0, d17
     570:	f3304b30 			; <UNDEFINED> instruction: 0xf3304b30
     574:	31230830 	teqcc	r3, r0, lsr r8
     578:	0402002f 	streq	r0, [r2], #-47	; 0x2f
     57c:	02006501 	andeq	r6, r0, #4194304	; 0x400000
     580:	4a060204 	bmi	180d98 <__bss_end__+0x176d78>
     584:	01040200 	mrseq	r0, R12_usr
     588:	66420306 	strbvs	r0, [r2], -r6, lsl #6
     58c:	02040200 	andeq	r0, r4, #0, 4
     590:	03066606 	movweq	r6, #26118	; 0x6606
     594:	684a00c2 	stmdavs	sl, {r1, r6, r7}^
     598:	01001202 	tsteq	r0, r2, lsl #4
     59c:	00004301 	andeq	r4, r0, r1, lsl #6
     5a0:	29000200 	stmdbcs	r0, {r9}
     5a4:	02000000 	andeq	r0, r0, #0
     5a8:	0d0efb01 	vstreq	d15, [lr, #-4]
     5ac:	01010100 	mrseq	r0, (UNDEF: 17)
     5b0:	00000001 	andeq	r0, r0, r1
     5b4:	01000001 	tsteq	r0, r1
     5b8:	34317363 	ldrtcc	r7, [r1], #-867	; 0x363
     5bc:	732d6530 	teqvc	sp, #48, 10	; 0xc000000
     5c0:	00006372 	andeq	r6, r0, r2, ror r3
     5c4:	68636163 	stmdavs	r3!, {r0, r1, r5, r6, r8, sp, lr}^
     5c8:	00632e65 	rsbeq	r2, r3, r5, ror #28
     5cc:	00000001 	andeq	r0, r0, r1
     5d0:	90020500 	andls	r0, r2, r0, lsl #10
     5d4:	14000088 	strne	r0, [r0], #-136	; 0x88
     5d8:	4e2f3014 	miaTTmi	acc0, r4, r3
     5dc:	022f3114 	eoreq	r3, pc, #20, 2
     5e0:	01010004 	tsteq	r1, r4
     5e4:	00000093 	muleq	r0, r3, r0
     5e8:	007d0002 	rsbseq	r0, sp, r2
     5ec:	01020000 	mrseq	r0, (UNDEF: 2)
     5f0:	000d0efb 	strdeq	r0, [sp], -fp
     5f4:	01010101 	tsteq	r1, r1, lsl #2
     5f8:	01000000 	mrseq	r0, (UNDEF: 0)
     5fc:	63010000 	movwvs	r0, #4096	; 0x1000
     600:	30343173 	eorscc	r3, r4, r3, ror r1
     604:	72732d65 	rsbsvc	r2, r3, #6464	; 0x1940
     608:	552f0063 	strpl	r0, [pc, #-99]!	; 5ad <_start-0x7a53>
     60c:	73726573 	cmnvc	r2, #482344960	; 0x1cc00000
     610:	6972622f 	ldmdbvs	r2!, {r0, r1, r2, r3, r5, r9, sp, lr}^
     614:	756a6e61 	strbvc	r6, [sl, #-3681]!	; 0xe61
     618:	65442f6e 	strbvs	r2, [r4, #-3950]	; 0xf6e
     61c:	6f746b73 	svcvs	0x00746b73
     620:	63732f70 	cmnvs	r3, #112, 30	; 0x1c0
     624:	6c6f6f68 	stclvs	15, cr6, [pc], #-416	; 48c <_start-0x7b74>
     628:	6e69572f 	cdpvs	7, 6, cr5, cr9, cr15, {1}
     62c:	31726574 	cmncc	r2, r4, ror r5
     630:	2f303239 	svccs	0x00303239
     634:	34315343 	ldrtcc	r5, [r1], #-835	; 0x343
     638:	632f4530 	teqvs	pc, #48, 10	; 0xc000000
     63c:	30343173 	eorscc	r3, r4, r3, ror r1
     640:	30322d65 	eorscc	r2, r2, r5, ror #26
     644:	2f6e6977 	svccs	0x006e6977
     648:	7062696c 	rsbvc	r6, r2, ip, ror #18
     64c:	63000069 	movwvs	r0, #105	; 0x69
     650:	6e61656c 	cdpvs	5, 6, cr6, cr1, cr12, {3}
     654:	6265722d 	rsbvs	r7, r5, #-805306366	; 0xd0000002
     658:	2e746f6f 	cdpcs	15, 7, cr6, cr4, cr15, {3}
     65c:	00010063 	andeq	r0, r1, r3, rrx
     660:	69707200 	ldmdbvs	r0!, {r9, ip, sp, lr}^
     664:	0200682e 	andeq	r6, r0, #3014656	; 0x2e0000
     668:	00000000 	andeq	r0, r0, r0
     66c:	88b00205 	ldmhi	r0!, {r0, r2, r9}
     670:	2f150000 	svccs	0x00150000
     674:	06024b83 	streq	r4, [r2], -r3, lsl #23
     678:	21010100 	mrscs	r0, (UNDEF: 17)
     67c:	02000001 	andeq	r0, r0, #1
     680:	0000f800 	andeq	pc, r0, r0, lsl #16
     684:	fb010200 	blx	40e8e <__bss_end__+0x36e6e>
     688:	01000d0e 	tsteq	r0, lr, lsl #26
     68c:	00010101 	andeq	r0, r1, r1, lsl #2
     690:	00010000 	andeq	r0, r1, r0
     694:	73630100 	cmnvc	r3, #0, 2
     698:	65303431 	ldrvs	r3, [r0, #-1073]!	; 0x431
     69c:	6372732d 	cmnvs	r2, #-1275068416	; 0xb4000000
     6a0:	73752f00 	cmnvc	r5, #0, 30
     6a4:	6f6c2f72 	svcvs	0x006c2f72
     6a8:	2f6c6163 	svccs	0x006c6163
     6ac:	6c6c6543 	cfstr64vs	mvdx6, [ip], #-268	; 0xfffffef4
     6b0:	612f7261 	teqvs	pc, r1, ror #4
     6b4:	6e2d6d72 	mcrvs	13, 1, r6, cr13, cr2, {3}
     6b8:	2d656e6f 	stclcs	14, cr6, [r5, #-444]!	; 0xfffffe44
     6bc:	69626165 	stmdbvs	r2!, {r0, r2, r5, r6, r8, sp, lr}^
     6c0:	382e342f 	stmdacc	lr!, {r0, r1, r2, r3, r5, sl, ip, sp}
     6c4:	632d332e 	teqvs	sp, #-1207959552	; 0xb8000000
     6c8:	30373173 	eorscc	r3, r7, r3, ror r1
     6cc:	696c2f65 	stmdbvs	ip!, {r0, r2, r5, r6, r8, r9, sl, fp, sp}^
     6d0:	63672f62 	cmnvs	r7, #392	; 0x188
     6d4:	72612f63 	rsbvc	r2, r1, #396	; 0x18c
     6d8:	6f6e2d6d 	svcvs	0x006e2d6d
     6dc:	652d656e 	strvs	r6, [sp, #-1390]!	; 0x56e
     6e0:	2f696261 	svccs	0x00696261
     6e4:	2e382e34 	mrccs	14, 1, r2, cr8, cr4, {1}
     6e8:	6e692f33 	mcrvs	15, 3, r2, cr9, cr3, {1}
     6ec:	64756c63 	ldrbtvs	r6, [r5], #-3171	; 0xc63
     6f0:	552f0065 	strpl	r0, [pc, #-101]!	; 693 <_start-0x796d>
     6f4:	73726573 	cmnvc	r2, #482344960	; 0x1cc00000
     6f8:	6972622f 	ldmdbvs	r2!, {r0, r1, r2, r3, r5, r9, sp, lr}^
     6fc:	756a6e61 	strbvc	r6, [sl, #-3681]!	; 0xe61
     700:	65442f6e 	strbvs	r2, [r4, #-3950]	; 0xf6e
     704:	6f746b73 	svcvs	0x00746b73
     708:	63732f70 	cmnvs	r3, #112, 30	; 0x1c0
     70c:	6c6f6f68 	stclvs	15, cr6, [pc], #-416	; 574 <_start-0x7a8c>
     710:	6e69572f 	cdpvs	7, 6, cr5, cr9, cr15, {1}
     714:	31726574 	cmncc	r2, r4, ror r5
     718:	2f303239 	svccs	0x00303239
     71c:	34315343 	ldrtcc	r5, [r1], #-835	; 0x343
     720:	632f4530 	teqvs	pc, #48, 10	; 0xc000000
     724:	30343173 	eorscc	r3, r4, r3, ror r1
     728:	30322d65 	eorscc	r2, r2, r5, ror #26
     72c:	2f6e6977 	svccs	0x006e6977
     730:	7062696c 	rsbvc	r6, r2, ip, ror #18
     734:	63000069 	movwvs	r0, #105	; 0x69
     738:	72617473 	rsbvc	r7, r1, #1929379840	; 0x73000000
     73c:	00632e74 	rsbeq	r2, r3, r4, ror lr
     740:	73000001 	movwvc	r0, #1
     744:	6e696474 	mcrvs	4, 3, r6, cr9, cr4, {3}
     748:	63672d74 	cmnvs	r7, #116, 26	; 0x1d00
     74c:	00682e63 	rsbeq	r2, r8, r3, ror #28
     750:	73000002 	movwvc	r0, #2
     754:	61752d77 	cmnvs	r5, r7, ror sp
     758:	682e7472 	stmdavs	lr!, {r1, r4, r5, r6, sl, ip, sp, lr}
     75c:	00000100 	andeq	r0, r0, r0, lsl #2
     760:	746e6f63 	strbtvc	r6, [lr], #-3939	; 0xf63
     764:	2d6c6f72 	stclcs	15, cr6, [ip, #-456]!	; 0xfffffe38
     768:	636f6c62 	cmnvs	pc, #25088	; 0x6200
     76c:	00682e6b 	rsbeq	r2, r8, fp, ror #28
     770:	72000001 	andvc	r0, r0, #1
     774:	682e6970 	stmdavs	lr!, {r4, r5, r6, r8, fp, sp, lr}
     778:	00000300 	andeq	r0, r0, r0, lsl #6
     77c:	02050000 	andeq	r0, r5, #0
     780:	000088d8 	ldrdeq	r8, [r0], -r8	; <UNPREDICTABLE>
     784:	68684b17 	stmdavs	r8!, {r0, r1, r2, r4, r8, r9, fp, lr}^
     788:	2d2f3132 	stfcss	f3, [pc, #-200]!	; 6c8 <_start-0x7938>
     78c:	0402002f 	streq	r0, [r2], #-47	; 0x2f
     790:	2f4f4901 	svccs	0x004f4901
     794:	8367674b 	cmnhi	r7, #19660800	; 0x12c0000
     798:	022f4e67 	eoreq	r4, pc, #1648	; 0x670
     79c:	01010010 	tsteq	r1, r0, lsl r0
     7a0:	00000099 	muleq	r0, r9, r0
     7a4:	00770002 	rsbseq	r0, r7, r2
     7a8:	01020000 	mrseq	r0, (UNDEF: 2)
     7ac:	000d0efb 	strdeq	r0, [sp], -fp
     7b0:	01010101 	tsteq	r1, r1, lsl #2
     7b4:	01000000 	mrseq	r0, (UNDEF: 0)
     7b8:	63010000 	movwvs	r0, #4096	; 0x1000
     7bc:	30343173 	eorscc	r3, r4, r3, ror r1
     7c0:	72732d65 	rsbsvc	r2, r3, #6464	; 0x1940
     7c4:	552f0063 	strpl	r0, [pc, #-99]!	; 769 <_start-0x7897>
     7c8:	73726573 	cmnvc	r2, #482344960	; 0x1cc00000
     7cc:	6972622f 	ldmdbvs	r2!, {r0, r1, r2, r3, r5, r9, sp, lr}^
     7d0:	756a6e61 	strbvc	r6, [sl, #-3681]!	; 0xe61
     7d4:	65442f6e 	strbvs	r2, [r4, #-3950]	; 0xf6e
     7d8:	6f746b73 	svcvs	0x00746b73
     7dc:	63732f70 	cmnvs	r3, #112, 30	; 0x1c0
     7e0:	6c6f6f68 	stclvs	15, cr6, [pc], #-416	; 648 <_start-0x79b8>
     7e4:	6e69572f 	cdpvs	7, 6, cr5, cr9, cr15, {1}
     7e8:	31726574 	cmncc	r2, r4, ror r5
     7ec:	2f303239 	svccs	0x00303239
     7f0:	34315343 	ldrtcc	r5, [r1], #-835	; 0x343
     7f4:	632f4530 	teqvs	pc, #48, 10	; 0xc000000
     7f8:	30343173 	eorscc	r3, r4, r3, ror r1
     7fc:	30322d65 	eorscc	r2, r2, r5, ror #26
     800:	2f6e6977 	svccs	0x006e6977
     804:	7062696c 	rsbvc	r6, r2, ip, ror #18
     808:	72000069 	andvc	r0, r0, #105	; 0x69
     80c:	6f6f6265 	svcvs	0x006f6265
     810:	00632e74 	rsbeq	r2, r3, r4, ror lr
     814:	72000001 	andvc	r0, r0, #1
     818:	682e6970 	stmdavs	lr!, {r4, r5, r6, r8, fp, sp, lr}
     81c:	00000200 	andeq	r0, r0, r0, lsl #4
     820:	02050000 	andeq	r0, r5, #0
     824:	00008988 	andeq	r8, r0, r8, lsl #19
     828:	14010d03 	strne	r0, [r1], #-3331	; 0xd03
     82c:	15852f31 	strne	r2, [r5, #3889]	; 0xf31
     830:	2f4d4b2f 	svccs	0x004d4b2f
     834:	67523567 	ldrbvs	r3, [r2, -r7, ror #10]
     838:	01001002 	tsteq	r0, r2
     83c:	0000a301 	andeq	sl, r0, r1, lsl #6
     840:	76000200 	strvc	r0, [r0], -r0, lsl #4
     844:	02000000 	andeq	r0, r0, #0
     848:	0d0efb01 	vstreq	d15, [lr, #-4]
     84c:	01010100 	mrseq	r0, (UNDEF: 17)
     850:	00000001 	andeq	r0, r0, r1
     854:	01000001 	tsteq	r0, r1
     858:	34317363 	ldrtcc	r7, [r1], #-867	; 0x363
     85c:	732d6530 	teqvc	sp, #48, 10	; 0xc000000
     860:	2f006372 	svccs	0x00006372
     864:	72657355 	rsbvc	r7, r5, #1409286145	; 0x54000001
     868:	72622f73 	rsbvc	r2, r2, #460	; 0x1cc
     86c:	6a6e6169 	bvs	1b98e18 <__bss_end__+0x1b8edf8>
     870:	442f6e75 	strtmi	r6, [pc], #-3701	; 878 <_start-0x7788>
     874:	746b7365 	strbtvc	r7, [fp], #-869	; 0x365
     878:	732f706f 	teqvc	pc, #111	; 0x6f
     87c:	6f6f6863 	svcvs	0x006f6863
     880:	69572f6c 	ldmdbvs	r7, {r2, r3, r5, r6, r8, r9, sl, fp, sp}^
     884:	7265746e 	rsbvc	r7, r5, #1845493760	; 0x6e000000
     888:	30323931 	eorscc	r3, r2, r1, lsr r9
     88c:	3153432f 	cmpcc	r3, pc, lsr #6
     890:	2f453034 	svccs	0x00453034
     894:	34317363 	ldrtcc	r7, [r1], #-867	; 0x363
     898:	322d6530 	eorcc	r6, sp, #48, 10	; 0xc000000
     89c:	6e697730 	mcrvs	7, 3, r7, cr9, cr0, {1}
     8a0:	62696c2f 	rsbvs	r6, r9, #12032	; 0x2f00
     8a4:	00006970 	andeq	r6, r0, r0, ror r9
     8a8:	656d6974 	strbvs	r6, [sp, #-2420]!	; 0x974
     8ac:	00632e72 	rsbeq	r2, r3, r2, ror lr
     8b0:	72000001 	andvc	r0, r0, #1
     8b4:	682e6970 	stmdavs	lr!, {r4, r5, r6, r8, fp, sp, lr}
     8b8:	00000200 	andeq	r0, r0, r0, lsl #4
     8bc:	02050000 	andeq	r0, r5, #0
     8c0:	000089fc 	strdeq	r8, [r0], -ip
     8c4:	2d2f1316 	stccs	3, cr1, [pc, #-88]!	; 874 <_start-0x778c>
     8c8:	01040200 	mrseq	r0, R12_usr
     8cc:	68062e06 	stmdavs	r6, {r1, r2, r9, sl, fp, sp}
     8d0:	4d4b2f31 	stclmi	15, cr2, [fp, #-196]	; 0xffffff3c
     8d4:	4b303132 	blmi	c0cda4 <__bss_end__+0xc02d84>
     8d8:	2f6a2f4c 	svccs	0x006a2f4c
     8dc:	022f842f 	eoreq	r8, pc, #788529152	; 0x2f000000
     8e0:	01010008 	tsteq	r1, r8
     8e4:	0000017f 	andeq	r0, r0, pc, ror r1
     8e8:	00ca0002 	sbceq	r0, sl, r2
     8ec:	01020000 	mrseq	r0, (UNDEF: 2)
     8f0:	000d0efb 	strdeq	r0, [sp], -fp
     8f4:	01010101 	tsteq	r1, r1, lsl #2
     8f8:	01000000 	mrseq	r0, (UNDEF: 0)
     8fc:	6d010000 	stcvs	0, cr0, [r1, #-0]
     900:	72732d79 	rsbsvc	r2, r3, #7744	; 0x1e40
     904:	552f0063 	strpl	r0, [pc, #-99]!	; 8a9 <_start-0x7757>
     908:	73726573 	cmnvc	r2, #482344960	; 0x1cc00000
     90c:	6972622f 	ldmdbvs	r2!, {r0, r1, r2, r3, r5, r9, sp, lr}^
     910:	756a6e61 	strbvc	r6, [sl, #-3681]!	; 0xe61
     914:	65442f6e 	strbvs	r2, [r4, #-3950]	; 0xf6e
     918:	6f746b73 	svcvs	0x00746b73
     91c:	63732f70 	cmnvs	r3, #112, 30	; 0x1c0
     920:	6c6f6f68 	stclvs	15, cr6, [pc], #-416	; 788 <_start-0x7878>
     924:	6e69572f 	cdpvs	7, 6, cr5, cr9, cr15, {1}
     928:	31726574 	cmncc	r2, r4, ror r5
     92c:	2f303239 	svccs	0x00303239
     930:	34315343 	ldrtcc	r5, [r1], #-835	; 0x343
     934:	632f4530 	teqvs	pc, #48, 10	; 0xc000000
     938:	30343173 	eorscc	r3, r4, r3, ror r1
     93c:	30322d65 	eorscc	r2, r2, r5, ror #26
     940:	2f6e6977 	svccs	0x006e6977
     944:	7062696c 	rsbvc	r6, r2, ip, ror #18
     948:	73632f69 	cmnvc	r3, #420	; 0x1a4
     94c:	65303431 	ldrvs	r3, [r0, #-1073]!	; 0x431
     950:	6372732d 	cmnvs	r2, #-1275068416	; 0xb4000000
     954:	73552f00 	cmpvc	r5, #0, 30
     958:	2f737265 	svccs	0x00737265
     95c:	61697262 	cmnvs	r9, r2, ror #4
     960:	6e756a6e 	vsubvs.f32	s13, s10, s29
     964:	7365442f 	cmnvc	r5, #788529152	; 0x2f000000
     968:	706f746b 	rsbvc	r7, pc, fp, ror #8
     96c:	6863732f 	stmdavs	r3!, {r0, r1, r2, r3, r5, r8, r9, ip, sp, lr}^
     970:	2f6c6f6f 	svccs	0x006c6f6f
     974:	746e6957 	strbtvc	r6, [lr], #-2391	; 0x957
     978:	39317265 	ldmdbcc	r1!, {r0, r2, r5, r6, r9, ip, sp, lr}
     97c:	432f3032 	teqmi	pc, #50	; 0x32
     980:	30343153 	eorscc	r3, r4, r3, asr r1
     984:	73632f45 	cmnvc	r3, #276	; 0x114
     988:	65303431 	ldrvs	r3, [r0, #-1073]!	; 0x431
     98c:	7730322d 	ldrvc	r3, [r0, -sp, lsr #4]!
     990:	6c2f6e69 	stcvs	14, cr6, [pc], #-420	; 7f4 <_start-0x780c>
     994:	69706269 	ldmdbvs	r0!, {r0, r3, r5, r6, r9, sp, lr}^
     998:	70670000 	rsbvc	r0, r7, r0
     99c:	632e6f69 	teqvs	lr, #420	; 0x1a4
     9a0:	00000100 	andeq	r0, r0, r0, lsl #2
     9a4:	6f697067 	svcvs	0x00697067
     9a8:	0200682e 	andeq	r6, r0, #3014656	; 0x2e0000
     9ac:	70720000 	rsbsvc	r0, r2, r0
     9b0:	00682e69 	rsbeq	r2, r8, r9, ror #28
     9b4:	00000003 	andeq	r0, r0, r3
     9b8:	84020500 	strhi	r0, [r2], #-1280	; 0x500
     9bc:	0300008a 	movweq	r0, #138	; 0x8a
     9c0:	504e013e 	subpl	r0, lr, lr, lsr r1
     9c4:	67210869 	strvs	r0, [r1, -r9, ror #16]!
     9c8:	67676767 	strbvs	r6, [r7, -r7, ror #14]!
     9cc:	084b3267 	stmdaeq	fp, {r0, r1, r2, r5, r6, r9, ip, sp}^
     9d0:	5131dc22 	teqpl	r1, r2, lsr #24
     9d4:	30504e13 	subscc	r4, r0, r3, lsl lr
     9d8:	135031be 	cmpne	r0, #-2147483601	; 0x8000002f
     9dc:	c0304f4d 	eorsgt	r4, r0, sp, asr #30
     9e0:	0869504c 	stmdaeq	r9!, {r2, r3, r6, ip, lr}^
     9e4:	67676721 	strbvs	r6, [r7, -r1, lsr #14]!
     9e8:	32676767 	rsbcc	r6, r7, #27000832	; 0x19c0000
     9ec:	a421084b 	strtge	r0, [r1], #-2123	; 0x84b
     9f0:	842f504c 	strthi	r5, [pc], #-76	; 9f8 <_start-0x7608>
     9f4:	82750369 	rsbshi	r0, r5, #-1543503871	; 0xa4000001
     9f8:	4d2e0c03 	stcmi	12, cr0, [lr, #-12]!
     9fc:	4c4b4e30 	mcrrmi	14, 3, r4, fp, cr0
     a00:	696b6a4d 	stmdbvs	fp!, {r0, r2, r3, r6, r9, fp, sp, lr}^
     a04:	67672108 	strbvs	r2, [r7, -r8, lsl #2]!
     a08:	67676767 	strbvs	r6, [r7, -r7, ror #14]!
     a0c:	22084b32 	andcs	r4, r8, #51200	; 0xc800
     a10:	135130c0 	cmpne	r1, #192	; 0xc0
     a14:	0330504e 	teqeq	r0, #78	; 0x4e
     a18:	9f31ba18 	svcls	0x0031ba18
     a1c:	4d522f4c 	ldclmi	15, cr2, [r2, #-304]	; 0xfffffed0
     a20:	674b2f4e 	strbvs	r2, [fp, -lr, asr #30]
     a24:	6767684b 	strbvs	r6, [r7, -fp, asr #16]!
     a28:	2f672f4c 	svccs	0x00672f4c
     a2c:	4e4c6e4b 	cdpmi	14, 4, cr6, cr12, cr11, {2}
     a30:	4b674b2f 	blmi	19d36f4 <__bss_end__+0x19c96d4>
     a34:	4c676768 	stclmi	7, cr6, [r7], #-416	; 0xfffffe60
     a38:	4b2f672f 	blmi	bda6fc <__bss_end__+0xbd06dc>
     a3c:	2f4e4b6d 	svccs	0x004e4b6d
     a40:	0200674b 	andeq	r6, r0, #19660800	; 0x12c0000
     a44:	66060104 	strvs	r0, [r6], -r4, lsl #2
     a48:	2f9f6806 	svccs	0x009f6806
     a4c:	01040200 	mrseq	r0, R12_usr
     a50:	68064a06 	stmdavs	r6, {r1, r2, r9, fp, lr}
     a54:	4a73032f 	bmi	1cc1718 <__bss_end__+0x1cb76f8>
     a58:	4d2e0e03 	stcmi	14, cr0, [lr, #-12]!
     a5c:	4b2f4e4c 	blmi	bd4394 <__bss_end__+0xbca374>
     a60:	0602bcbc 			; <UNDEFINED> instruction: 0x0602bcbc
     a64:	49010100 	stmdbmi	r1, {r8}
     a68:	02000003 	andeq	r0, r0, #3
     a6c:	0001bd00 	andeq	fp, r1, r0, lsl #26
     a70:	fb010200 	blx	4127a <__bss_end__+0x3725a>
     a74:	01000d0e 	tsteq	r0, lr, lsl #26
     a78:	00010101 	andeq	r0, r1, r1, lsl #2
     a7c:	00010000 	andeq	r0, r1, r0
     a80:	796d0100 	stmdbvc	sp!, {r8}^
     a84:	6372732d 	cmnvs	r2, #-1275068416	; 0xb4000000
     a88:	73552f00 	cmpvc	r5, #0, 30
     a8c:	2f737265 	svccs	0x00737265
     a90:	61697262 	cmnvs	r9, r2, ror #4
     a94:	6e756a6e 	vsubvs.f32	s13, s10, s29
     a98:	7365442f 	cmnvc	r5, #788529152	; 0x2f000000
     a9c:	706f746b 	rsbvc	r7, pc, fp, ror #8
     aa0:	6863732f 	stmdavs	r3!, {r0, r1, r2, r3, r5, r8, r9, ip, sp, lr}^
     aa4:	2f6c6f6f 	svccs	0x006c6f6f
     aa8:	746e6957 	strbtvc	r6, [lr], #-2391	; 0x957
     aac:	39317265 	ldmdbcc	r1!, {r0, r2, r5, r6, r9, ip, sp, lr}
     ab0:	432f3032 	teqmi	pc, #50	; 0x32
     ab4:	30343153 	eorscc	r3, r4, r3, asr r1
     ab8:	73632f45 	cmnvc	r3, #276	; 0x114
     abc:	65303431 	ldrvs	r3, [r0, #-1073]!	; 0x431
     ac0:	7730322d 	ldrvc	r3, [r0, -sp, lsr #4]!
     ac4:	6c2f6e69 	stcvs	14, cr6, [pc], #-420	; 928 <_start-0x76d8>
     ac8:	69706269 	ldmdbvs	r0!, {r0, r3, r5, r6, r9, sp, lr}^
     acc:	3173632f 	cmncc	r3, pc, lsr #6
     ad0:	2d653034 	stclcs	0, cr3, [r5, #-208]!	; 0xffffff30
     ad4:	00637273 	rsbeq	r7, r3, r3, ror r2
     ad8:	7273752f 	rsbsvc	r7, r3, #197132288	; 0xbc00000
     adc:	636f6c2f 	cmnvs	pc, #12032	; 0x2f00
     ae0:	432f6c61 	teqmi	pc, #24832	; 0x6100
     ae4:	616c6c65 	cmnvs	ip, r5, ror #24
     ae8:	72612f72 	rsbvc	r2, r1, #456	; 0x1c8
     aec:	6f6e2d6d 	svcvs	0x006e2d6d
     af0:	652d656e 	strvs	r6, [sp, #-1390]!	; 0x56e
     af4:	2f696261 	svccs	0x00696261
     af8:	2e382e34 	mrccs	14, 1, r2, cr8, cr4, {1}
     afc:	73632d33 	cmnvc	r3, #3264	; 0xcc0
     b00:	65303731 	ldrvs	r3, [r0, #-1841]!	; 0x731
     b04:	62696c2f 	rsbvs	r6, r9, #12032	; 0x2f00
     b08:	6363672f 	cmnvs	r3, #12320768	; 0xbc0000
     b0c:	6d72612f 	ldfvse	f6, [r2, #-188]!	; 0xffffff44
     b10:	6e6f6e2d 	cdpvs	14, 6, cr6, cr15, cr13, {1}
     b14:	61652d65 	cmnvs	r5, r5, ror #26
     b18:	342f6962 	strtcc	r6, [pc], #-2402	; b20 <_start-0x74e0>
     b1c:	332e382e 	teqcc	lr, #3014656	; 0x2e0000
     b20:	636e692f 	cmnvs	lr, #770048	; 0xbc000
     b24:	6564756c 	strbvs	r7, [r4, #-1388]!	; 0x56c
     b28:	73552f00 	cmpvc	r5, #0, 30
     b2c:	2f737265 	svccs	0x00737265
     b30:	61697262 	cmnvs	r9, r2, ror #4
     b34:	6e756a6e 	vsubvs.f32	s13, s10, s29
     b38:	7365442f 	cmnvc	r5, #788529152	; 0x2f000000
     b3c:	706f746b 	rsbvc	r7, pc, fp, ror #8
     b40:	6863732f 	stmdavs	r3!, {r0, r1, r2, r3, r5, r8, r9, ip, sp, lr}^
     b44:	2f6c6f6f 	svccs	0x006c6f6f
     b48:	746e6957 	strbtvc	r6, [lr], #-2391	; 0x957
     b4c:	39317265 	ldmdbcc	r1!, {r0, r2, r5, r6, r9, ip, sp, lr}
     b50:	432f3032 	teqmi	pc, #50	; 0x32
     b54:	30343153 	eorscc	r3, r4, r3, asr r1
     b58:	73632f45 	cmnvc	r3, #276	; 0x114
     b5c:	65303431 	ldrvs	r3, [r0, #-1073]!	; 0x431
     b60:	7730322d 	ldrvc	r3, [r0, -sp, lsr #4]!
     b64:	6c2f6e69 	stcvs	14, cr6, [pc], #-420	; 9c8 <_start-0x7638>
     b68:	69706269 	ldmdbvs	r0!, {r0, r3, r5, r6, r9, sp, lr}^
     b6c:	73552f00 	cmpvc	r5, #0, 30
     b70:	2f737265 	svccs	0x00737265
     b74:	61697262 	cmnvs	r9, r2, ror #4
     b78:	6e756a6e 	vsubvs.f32	s13, s10, s29
     b7c:	7365442f 	cmnvc	r5, #788529152	; 0x2f000000
     b80:	706f746b 	rsbvc	r7, pc, fp, ror #8
     b84:	6863732f 	stmdavs	r3!, {r0, r1, r2, r3, r5, r8, r9, ip, sp, lr}^
     b88:	2f6c6f6f 	svccs	0x006c6f6f
     b8c:	746e6957 	strbtvc	r6, [lr], #-2391	; 0x957
     b90:	39317265 	ldmdbcc	r1!, {r0, r2, r5, r6, r9, ip, sp, lr}
     b94:	432f3032 	teqmi	pc, #50	; 0x32
     b98:	30343153 	eorscc	r3, r4, r3, asr r1
     b9c:	73632f45 	cmnvc	r3, #276	; 0x114
     ba0:	65303431 	ldrvs	r3, [r0, #-1073]!	; 0x431
     ba4:	7730322d 	ldrvc	r3, [r0, -sp, lsr #4]!
     ba8:	6c2f6e69 	stcvs	14, cr6, [pc], #-420	; a0c <_start-0x75f4>
     bac:	69706269 	ldmdbvs	r0!, {r0, r3, r5, r6, r9, sp, lr}^
     bb0:	62696c2f 	rsbvs	r6, r9, #12032	; 0x2f00
     bb4:	73000063 	movwvc	r0, #99	; 0x63
     bb8:	61752d77 	cmnvs	r5, r7, ror sp
     bbc:	632e7472 	teqvs	lr, #1912602624	; 0x72000000
     bc0:	00000100 	andeq	r0, r0, r0, lsl #2
     bc4:	6c637963 	stclvs	9, cr7, [r3], #-396	; 0xfffffe74
     bc8:	74752d65 	ldrbtvc	r2, [r5], #-3429	; 0xd65
     bcc:	682e6c69 	stmdavs	lr!, {r0, r3, r5, r6, sl, fp, sp, lr}
     bd0:	00000200 	andeq	r0, r0, r0, lsl #4
     bd4:	69647473 	stmdbvs	r4!, {r0, r1, r4, r5, r6, sl, ip, sp, lr}^
     bd8:	672d746e 	strvs	r7, [sp, -lr, ror #8]!
     bdc:	682e6363 	stmdavs	lr!, {r0, r1, r5, r6, r8, r9, sp, lr}
     be0:	00000300 	andeq	r0, r0, r0, lsl #6
     be4:	752d7773 	strvc	r7, [sp, #-1907]!	; 0x773
     be8:	2e747261 	cdpcs	2, 7, cr7, cr4, cr1, {3}
     bec:	00020068 	andeq	r0, r2, r8, rrx
     bf0:	64747300 	ldrbtvs	r7, [r4], #-768	; 0x300
     bf4:	2e677261 	cdpcs	2, 6, cr7, cr7, cr1, {3}
     bf8:	00030068 	andeq	r0, r3, r8, rrx
     bfc:	69706700 	ldmdbvs	r0!, {r8, r9, sl, sp, lr}^
     c00:	00682e6f 	rsbeq	r2, r8, pc, ror #28
     c04:	72000002 	andvc	r0, r0, #2
     c08:	682e6970 	stmdavs	lr!, {r4, r5, r6, r8, fp, sp, lr}
     c0c:	00000400 	andeq	r0, r0, r0, lsl #8
     c10:	702d6176 	eorvc	r6, sp, r6, ror r1
     c14:	746e6972 	strbtvc	r6, [lr], #-2418	; 0x972
     c18:	00682e6b 	rsbeq	r2, r8, fp, ror #28
     c1c:	3c000005 	stccc	0, cr0, [r0], {5}
     c20:	6c697562 	cfstr64vs	mvdx7, [r9], #-392	; 0xfffffe78
     c24:	6e692d74 	mcrvs	13, 3, r2, cr9, cr4, {3}
     c28:	0000003e 	andeq	r0, r0, lr, lsr r0
     c2c:	05000000 	streq	r0, [r0, #-0]
     c30:	00902402 	addseq	r2, r0, r2, lsl #8
     c34:	2f4c1a00 	svccs	0x004c1a00
     c38:	03020430 	movweq	r0, #9264	; 0x2430
     c3c:	73032e0b 	movwvc	r2, #15883	; 0x3e0b
     c40:	88010466 	stmdahi	r1, {r1, r2, r5, r6, sl}
     c44:	03350204 	teqeq	r5, #4, 4	; 0x40000000
     c48:	01046673 	tsteq	r4, r3, ror r6
     c4c:	3302048a 	movwcc	r0, #9354	; 0x248a
     c50:	04667303 	strbteq	r7, [r6], #-771	; 0x303
     c54:	820a0301 	andhi	r0, sl, #67108864	; 0x4000000
     c58:	03310204 	teqeq	r1, #4, 4	; 0x40000000
     c5c:	01046673 	tsteq	r4, r3, ror r6
     c60:	04820c03 	streq	r0, [r2], #3075	; 0xc03
     c64:	73032f02 	movwvc	r2, #16130	; 0x3f02
     c68:	03010466 	movweq	r0, #5222	; 0x1466
     c6c:	0204820e 	andeq	r8, r4, #-536870912	; 0xe0000000
     c70:	6673032d 	ldrbtvs	r0, [r3], -sp, lsr #6
     c74:	10030104 	andne	r0, r3, r4, lsl #2
     c78:	2b020482 	blcs	81e88 <__bss_end__+0x77e68>
     c7c:	04667303 	strbteq	r7, [r6], #-771	; 0x303
     c80:	82120301 	andshi	r0, r2, #67108864	; 0x4000000
     c84:	03290204 	teqeq	r9, #4, 4	; 0x40000000
     c88:	01046673 	tsteq	r4, r3, ror r6
     c8c:	04821403 	streq	r1, [r2], #1027	; 0x403
     c90:	2e790302 	cdpcs	3, 7, cr0, cr9, cr2, {0}
     c94:	04667303 	strbteq	r7, [r6], #-771	; 0x303
     c98:	82160301 	andshi	r0, r6, #67108864	; 0x4000000
     c9c:	77030204 	strvc	r0, [r3, -r4, lsl #4]
     ca0:	6673032e 	ldrbtvs	r0, [r3], -lr, lsr #6
     ca4:	18030104 	stmdane	r3, {r2, r8}
     ca8:	2e100382 	cdpcs	3, 1, cr0, cr0, cr2, {4}
     cac:	70034d4b 	andvc	r4, r3, fp, asr #26
     cb0:	83844c2e 	orrhi	r4, r4, #11776	; 0x2e00
     cb4:	2e0d0348 	cdpcs	3, 0, cr0, cr13, cr8, {2}
     cb8:	0433314e 	ldrteq	r3, [r3], #-334	; 0x14e
     cbc:	2e480302 	cdpcs	3, 4, cr0, cr8, cr2, {0}
     cc0:	3a030104 	bcc	c10d8 <__bss_end__+0xb70b8>
     cc4:	02042f82 	andeq	r2, r4, #520	; 0x208
     cc8:	04664503 	strbteq	r4, [r6], #-1283	; 0x503
     ccc:	823d0301 	eorshi	r0, sp, #67108864	; 0x4000000
     cd0:	0302042f 	movweq	r0, #9263	; 0x242f
     cd4:	01048242 	tsteq	r4, r2, asr #4
     cd8:	8200c003 	andhi	ip, r0, #3
     cdc:	0302042f 	movweq	r0, #9263	; 0x242f
     ce0:	04827fbf 	streq	r7, [r2], #4031	; 0xfbf
     ce4:	00c30301 	sbceq	r0, r3, r1, lsl #6
     ce8:	02042f82 	andeq	r2, r4, #520	; 0x208
     cec:	827fbc03 	rsbshi	fp, pc, #768	; 0x300
     cf0:	c6030104 	strgt	r0, [r3], -r4, lsl #2
     cf4:	042f8200 	strteq	r8, [pc], #-512	; cfc <_start-0x7304>
     cf8:	7fb90302 	svcvc	0x00b90302
     cfc:	03010482 	movweq	r0, #5250	; 0x1482
     d00:	2f8200c9 	svccs	0x008200c9
     d04:	b6030204 	strlt	r0, [r3], -r4, lsl #4
     d08:	0104827f 	tsteq	r4, pc, ror r2
     d0c:	8200cc03 	andhi	ip, r0, #768	; 0x300
     d10:	0302042f 	movweq	r0, #9263	; 0x242f
     d14:	04827fb3 	streq	r7, [r2], #4019	; 0xfb3
     d18:	00d00301 	sbcseq	r0, r0, r1, lsl #6
     d1c:	824c0382 	subhi	r0, ip, #134217730	; 0x8000002
     d20:	4883844c 	stmmi	r3, {r2, r3, r6, sl, pc}
     d24:	4e2e3603 	cfmadda32mi	mvax0, mvax3, mvfx14, mvfx3
     d28:	034a5403 	movteq	r5, #41987	; 0xa403
     d2c:	34324a29 	ldrtcc	r4, [r2], #-2601	; 0xa29
     d30:	040200bb 	streq	r0, [r2], #-187	; 0xbb
     d34:	064a0601 	strbeq	r0, [sl], -r1, lsl #12
     d38:	4b4e2108 	blmi	1389160 <__bss_end__+0x137f140>
     d3c:	02002cbb 	andeq	r2, r0, #47872	; 0xbb00
     d40:	2e060104 	adfcss	f0, f6, f4
     d44:	dc4c6d06 	mcrrle	13, 0, r6, ip, cr6
     d48:	040200a0 	streq	r0, [r2], #-160	; 0xa0
     d4c:	064a0601 	strbeq	r0, [sl], -r1, lsl #12
     d50:	004d2108 	subeq	r2, sp, r8, lsl #2
     d54:	4b020402 	blmi	81d64 <__bss_end__+0x77d44>
     d58:	02040200 	andeq	r0, r4, #0, 4
     d5c:	04020081 	streq	r0, [r2], #-129	; 0x81
     d60:	062e0601 	strteq	r0, [lr], -r1, lsl #12
     d64:	d8dd4c4d 	ldmle	sp, {r0, r2, r3, r6, sl, fp, lr}^
     d68:	6a4b4b4b 	bvs	12d3a9c <__bss_end__+0x12c9a7c>
     d6c:	0402002f 	streq	r0, [r2], #-47	; 0x2f
     d70:	82820601 	addhi	r0, r2, #1048576	; 0x100000
     d74:	04040200 	streq	r0, [r4], #-512	; 0x200
     d78:	0402009e 	streq	r0, [r2], #-158	; 0x9e
     d7c:	08064a01 	stmdaeq	r6, {r0, r9, fp, lr}
     d80:	2ff58823 	svccs	0x00f58823
     d84:	40084b4b 	andmi	r4, r8, fp, asr #22
     d88:	04020067 	streq	r0, [r2], #-103	; 0x67
     d8c:	02002f02 	andeq	r2, r0, #2, 30
     d90:	00490204 	subeq	r0, r9, r4, lsl #4
     d94:	06010402 	streq	r0, [r1], -r2, lsl #8
     d98:	3468062e 	strbtcc	r0, [r8], #-1582	; 0x62e
     d9c:	00a04b86 	adceq	r4, r0, r6, lsl #23
     da0:	06010402 	streq	r0, [r1], -r2, lsl #8
     da4:	21080666 	tstcs	r8, r6, ror #12
     da8:	4b3e0868 	blmi	f82f50 <__bss_end__+0xf78f30>
     dac:	02d84b67 	sbcseq	r4, r8, #105472	; 0x19c00
     db0:	0101000a 	tsteq	r1, sl
     db4:	00000101 	andeq	r0, r0, r1, lsl #2
     db8:	00ca0002 	sbceq	r0, sl, r2
     dbc:	01020000 	mrseq	r0, (UNDEF: 2)
     dc0:	000d0efb 	strdeq	r0, [sp], -fp
     dc4:	01010101 	tsteq	r1, r1, lsl #2
     dc8:	01000000 	mrseq	r0, (UNDEF: 0)
     dcc:	6d010000 	stcvs	0, cr0, [r1, #-0]
     dd0:	72732d79 	rsbsvc	r2, r3, #7744	; 0x1e40
     dd4:	552f0063 	strpl	r0, [pc, #-99]!	; d79 <_start-0x7287>
     dd8:	73726573 	cmnvc	r2, #482344960	; 0x1cc00000
     ddc:	6972622f 	ldmdbvs	r2!, {r0, r1, r2, r3, r5, r9, sp, lr}^
     de0:	756a6e61 	strbvc	r6, [sl, #-3681]!	; 0xe61
     de4:	65442f6e 	strbvs	r2, [r4, #-3950]	; 0xf6e
     de8:	6f746b73 	svcvs	0x00746b73
     dec:	63732f70 	cmnvs	r3, #112, 30	; 0x1c0
     df0:	6c6f6f68 	stclvs	15, cr6, [pc], #-416	; c58 <_start-0x73a8>
     df4:	6e69572f 	cdpvs	7, 6, cr5, cr9, cr15, {1}
     df8:	31726574 	cmncc	r2, r4, ror r5
     dfc:	2f303239 	svccs	0x00303239
     e00:	34315343 	ldrtcc	r5, [r1], #-835	; 0x343
     e04:	632f4530 	teqvs	pc, #48, 10	; 0xc000000
     e08:	30343173 	eorscc	r3, r4, r3, ror r1
     e0c:	30322d65 	eorscc	r2, r2, r5, ror #26
     e10:	2f6e6977 	svccs	0x006e6977
     e14:	7062696c 	rsbvc	r6, r2, ip, ror #18
     e18:	73632f69 	cmnvc	r3, #420	; 0x1a4
     e1c:	65303431 	ldrvs	r3, [r0, #-1073]!	; 0x431
     e20:	6372732d 	cmnvs	r2, #-1275068416	; 0xb4000000
     e24:	73552f00 	cmpvc	r5, #0, 30
     e28:	2f737265 	svccs	0x00737265
     e2c:	61697262 	cmnvs	r9, r2, ror #4
     e30:	6e756a6e 	vsubvs.f32	s13, s10, s29
     e34:	7365442f 	cmnvc	r5, #788529152	; 0x2f000000
     e38:	706f746b 	rsbvc	r7, pc, fp, ror #8
     e3c:	6863732f 	stmdavs	r3!, {r0, r1, r2, r3, r5, r8, r9, ip, sp, lr}^
     e40:	2f6c6f6f 	svccs	0x006c6f6f
     e44:	746e6957 	strbtvc	r6, [lr], #-2391	; 0x957
     e48:	39317265 	ldmdbcc	r1!, {r0, r2, r5, r6, r9, ip, sp, lr}
     e4c:	432f3032 	teqmi	pc, #50	; 0x32
     e50:	30343153 	eorscc	r3, r4, r3, asr r1
     e54:	73632f45 	cmnvc	r3, #276	; 0x114
     e58:	65303431 	ldrvs	r3, [r0, #-1073]!	; 0x431
     e5c:	7730322d 	ldrvc	r3, [r0, -sp, lsr #4]!
     e60:	6c2f6e69 	stcvs	14, cr6, [pc], #-420	; cc4 <_start-0x733c>
     e64:	69706269 	ldmdbvs	r0!, {r0, r3, r5, r6, r9, sp, lr}^
     e68:	61750000 	cmnvs	r5, r0
     e6c:	632e7472 	teqvs	lr, #1912602624	; 0x72000000
     e70:	00000100 	andeq	r0, r0, r0, lsl #2
     e74:	6f697067 	svcvs	0x00697067
     e78:	0200682e 	andeq	r6, r0, #3014656	; 0x2e0000
     e7c:	70720000 	rsbsvc	r0, r2, r0
     e80:	00682e69 	rsbeq	r2, r8, r9, ror #28
     e84:	00000003 	andeq	r0, r0, r3
     e88:	8c020500 	cfstr32hi	mvfx0, [r2], {-0}
     e8c:	03000096 	movweq	r0, #150	; 0x96
     e90:	33300136 	teqcc	r0, #-2147483635	; 0x8000000d
     e94:	d8306d67 	ldmdale	r0!, {r0, r1, r2, r5, r6, r8, sl, fp, sp, lr}
     e98:	67676730 			; <UNDEFINED> instruction: 0x67676730
     e9c:	86686767 	strbthi	r6, [r8], -r7, ror #14
     ea0:	306a672f 	rsbcc	r6, sl, pc, lsr #14
     ea4:	2f696767 	svccs	0x00696767
     ea8:	674c6a67 	strbvs	r6, [ip, -r7, ror #20]
     eac:	302f2fc1 	eorcc	r2, pc, r1, asr #31
     eb0:	3049682f 	subcc	r6, r9, pc, lsr #16
     eb4:	01000202 	tsteq	r0, r2, lsl #4
     eb8:	00012801 	andeq	r2, r1, r1, lsl #16
     ebc:	0d000200 	sfmeq	f0, 4, [r0, #-0]
     ec0:	02000001 	andeq	r0, r0, #1
     ec4:	0d0efb01 	vstreq	d15, [lr, #-4]
     ec8:	01010100 	mrseq	r0, (UNDEF: 17)
     ecc:	00000001 	andeq	r0, r0, r1
     ed0:	01000001 	tsteq	r0, r1
     ed4:	34317363 	ldrtcc	r7, [r1], #-867	; 0x363
     ed8:	732d6530 	teqvc	sp, #48, 10	; 0xc000000
     edc:	2f006372 	svccs	0x00006372
     ee0:	2f727375 	svccs	0x00727375
     ee4:	61636f6c 	cmnvs	r3, ip, ror #30
     ee8:	65432f6c 	strbvs	r2, [r3, #-3948]	; 0xf6c
     eec:	72616c6c 	rsbvc	r6, r1, #108, 24	; 0x6c00
     ef0:	6d72612f 	ldfvse	f6, [r2, #-188]!	; 0xffffff44
     ef4:	6e6f6e2d 	cdpvs	14, 6, cr6, cr15, cr13, {1}
     ef8:	61652d65 	cmnvs	r5, r5, ror #26
     efc:	342f6962 	strtcc	r6, [pc], #-2402	; f04 <_start-0x70fc>
     f00:	332e382e 	teqcc	lr, #3014656	; 0x2e0000
     f04:	3173632d 	cmncc	r3, sp, lsr #6
     f08:	2f653037 	svccs	0x00653037
     f0c:	2f62696c 	svccs	0x0062696c
     f10:	2f636367 	svccs	0x00636367
     f14:	2d6d7261 	sfmcs	f7, 2, [sp, #-388]!	; 0xfffffe7c
     f18:	656e6f6e 	strbvs	r6, [lr, #-3950]!	; 0xf6e
     f1c:	6261652d 	rsbvs	r6, r1, #188743680	; 0xb400000
     f20:	2e342f69 	cdpcs	15, 3, cr2, cr4, cr9, {3}
     f24:	2f332e38 	svccs	0x00332e38
     f28:	6c636e69 	stclvs	14, cr6, [r3], #-420	; 0xfffffe5c
     f2c:	00656475 	rsbeq	r6, r5, r5, ror r4
     f30:	7273752f 	rsbsvc	r7, r3, #197132288	; 0xbc00000
     f34:	636f6c2f 	cmnvs	pc, #12032	; 0x2f00
     f38:	432f6c61 	teqmi	pc, #24832	; 0x6100
     f3c:	616c6c65 	cmnvs	ip, r5, ror #24
     f40:	72612f72 	rsbvc	r2, r1, #456	; 0x1c8
     f44:	6f6e2d6d 	svcvs	0x006e2d6d
     f48:	652d656e 	strvs	r6, [sp, #-1390]!	; 0x56e
     f4c:	2f696261 	svccs	0x00696261
     f50:	2e382e34 	mrccs	14, 1, r2, cr8, cr4, {1}
     f54:	73632d33 	cmnvc	r3, #3264	; 0xcc0
     f58:	65303731 	ldrvs	r3, [r0, #-1841]!	; 0x731
     f5c:	6d72612f 	ldfvse	f6, [r2, #-188]!	; 0xffffff44
     f60:	6e6f6e2d 	cdpvs	14, 6, cr6, cr15, cr13, {1}
     f64:	61652d65 	cmnvs	r5, r5, ror #26
     f68:	692f6962 	stmdbvs	pc!, {r1, r5, r6, r8, fp, sp, lr}	; <UNPREDICTABLE>
     f6c:	756c636e 	strbvc	r6, [ip, #-878]!	; 0x36e
     f70:	00006564 	andeq	r6, r0, r4, ror #10
     f74:	746e6f63 	strbtvc	r6, [lr], #-3939	; 0xf63
     f78:	2d6c6f72 	stclcs	15, cr6, [ip, #-456]!	; 0xfffffe38
     f7c:	636f6c62 	cmnvs	pc, #25088	; 0x6200
     f80:	00632e6b 	rsbeq	r2, r3, fp, ror #28
     f84:	73000001 	movwvc	r0, #1
     f88:	65646474 	strbvs	r6, [r4, #-1140]!	; 0x474
     f8c:	00682e66 	rsbeq	r2, r8, r6, ror #28
     f90:	73000002 	movwvc	r0, #2
     f94:	6e696474 	mcrvs	4, 3, r6, cr9, cr4, {3}
     f98:	63672d74 	cmnvs	r7, #116, 26	; 0x1d00
     f9c:	00682e63 	rsbeq	r2, r8, r3, ror #28
     fa0:	73000002 	movwvc	r0, #2
     fa4:	61752d77 	cmnvs	r5, r7, ror sp
     fa8:	682e7472 	stmdavs	lr!, {r1, r4, r5, r6, sl, ip, sp, lr}
     fac:	00000100 	andeq	r0, r0, r0, lsl #2
     fb0:	746e6f63 	strbtvc	r6, [lr], #-3939	; 0xf63
     fb4:	2d6c6f72 	stclcs	15, cr6, [ip, #-456]!	; 0xfffffe38
     fb8:	636f6c62 	cmnvs	pc, #25088	; 0x6200
     fbc:	00682e6b 	rsbeq	r2, r8, fp, ror #28
     fc0:	73000001 	movwvc	r0, #1
     fc4:	6e697274 	mcrvs	2, 3, r7, cr9, cr4, {3}
     fc8:	00682e67 	rsbeq	r2, r8, r7, ror #28
     fcc:	00000003 	andeq	r0, r0, r3
     fd0:	44020500 	strmi	r0, [r2], #-1280	; 0x500
     fd4:	16000098 			; <UNDEFINED> instruction: 0x16000098
     fd8:	4c688330 	stclmi	3, cr8, [r8], #-192	; 0xffffff40
     fdc:	2f4b9f14 	svccs	0x004b9f14
     fe0:	01000402 	tsteq	r0, r2, lsl #8
     fe4:	0000ec01 	andeq	lr, r0, r1, lsl #24
     fe8:	d0000200 	andle	r0, r0, r0, lsl #4
     fec:	02000000 	andeq	r0, r0, #0
     ff0:	0d0efb01 	vstreq	d15, [lr, #-4]
     ff4:	01010100 	mrseq	r0, (UNDEF: 17)
     ff8:	00000001 	andeq	r0, r0, r1
     ffc:	01000001 	tsteq	r0, r1
    1000:	6362696c 	cmnvs	r2, #108, 18	; 0x1b0000
    1004:	73752f00 	cmnvc	r5, #0, 30
    1008:	6f6c2f72 	svcvs	0x006c2f72
    100c:	2f6c6163 	svccs	0x006c6163
    1010:	6c6c6543 	cfstr64vs	mvdx6, [ip], #-268	; 0xfffffef4
    1014:	612f7261 	teqvs	pc, r1, ror #4
    1018:	6e2d6d72 	mcrvs	13, 1, r6, cr13, cr2, {3}
    101c:	2d656e6f 	stclcs	14, cr6, [r5, #-444]!	; 0xfffffe44
    1020:	69626165 	stmdbvs	r2!, {r0, r2, r5, r6, r8, sp, lr}^
    1024:	382e342f 	stmdacc	lr!, {r0, r1, r2, r3, r5, sl, ip, sp}
    1028:	632d332e 	teqvs	sp, #-1207959552	; 0xb8000000
    102c:	30373173 	eorscc	r3, r7, r3, ror r1
    1030:	696c2f65 	stmdbvs	ip!, {r0, r2, r5, r6, r8, r9, sl, fp, sp}^
    1034:	63672f62 	cmnvs	r7, #392	; 0x188
    1038:	72612f63 	rsbvc	r2, r1, #396	; 0x18c
    103c:	6f6e2d6d 	svcvs	0x006e2d6d
    1040:	652d656e 	strvs	r6, [sp, #-1390]!	; 0x56e
    1044:	2f696261 	svccs	0x00696261
    1048:	2e382e34 	mrccs	14, 1, r2, cr8, cr4, {1}
    104c:	6e692f33 	mcrvs	15, 3, r2, cr9, cr3, {1}
    1050:	64756c63 	ldrbtvs	r6, [r5], #-3171	; 0xc63
    1054:	752f0065 	strvc	r0, [pc, #-101]!	; ff7 <_start-0x7009>
    1058:	6c2f7273 	sfmvs	f7, 4, [pc], #-460	; e94 <_start-0x716c>
    105c:	6c61636f 	stclvs	3, cr6, [r1], #-444	; 0xfffffe44
    1060:	6c65432f 	stclvs	3, cr4, [r5], #-188	; 0xffffff44
    1064:	2f72616c 	svccs	0x0072616c
    1068:	2d6d7261 	sfmcs	f7, 2, [sp, #-388]!	; 0xfffffe7c
    106c:	656e6f6e 	strbvs	r6, [lr, #-3950]!	; 0xf6e
    1070:	6261652d 	rsbvs	r6, r1, #188743680	; 0xb400000
    1074:	2e342f69 	cdpcs	15, 3, cr2, cr4, cr9, {3}
    1078:	2d332e38 	ldccs	14, cr2, [r3, #-224]!	; 0xffffff20
    107c:	37317363 	ldrcc	r7, [r1, -r3, ror #6]!
    1080:	612f6530 	teqvs	pc, r0, lsr r5	; <UNPREDICTABLE>
    1084:	6e2d6d72 	mcrvs	13, 1, r6, cr13, cr2, {3}
    1088:	2d656e6f 	stclcs	14, cr6, [r5, #-444]!	; 0xfffffe44
    108c:	69626165 	stmdbvs	r2!, {r0, r2, r5, r6, r8, sp, lr}^
    1090:	636e692f 	cmnvs	lr, #770048	; 0xbc000
    1094:	6564756c 	strbvs	r7, [r4, #-1388]!	; 0x56c
    1098:	656d0000 	strbvs	r0, [sp, #-0]!
    109c:	7465736d 	strbtvc	r7, [r5], #-877	; 0x36d
    10a0:	0100632e 	tsteq	r0, lr, lsr #6
    10a4:	74730000 	ldrbtvc	r0, [r3], #-0
    10a8:	66656464 	strbtvs	r6, [r5], -r4, ror #8
    10ac:	0200682e 	andeq	r6, r0, #3014656	; 0x2e0000
    10b0:	74730000 	ldrbtvc	r0, [r3], #-0
    10b4:	676e6972 			; <UNDEFINED> instruction: 0x676e6972
    10b8:	0300682e 	movweq	r6, #2094	; 0x82e
    10bc:	00000000 	andeq	r0, r0, r0
    10c0:	98940205 	ldmls	r4, {r0, r2, r9}
    10c4:	13140000 	tstne	r4, #0
    10c8:	02002f4c 	andeq	r2, r0, #76, 30	; 0x130
    10cc:	4d490104 	stfmie	f0, [r9, #-16]
    10d0:	01000202 	tsteq	r0, r2, lsl #4
    10d4:	Address 0x00000000000010d4 is out of bounds.


Disassembly of section .debug_str:

00000000 <.debug_str>:
   0:	53465047 	movtpl	r5, #24647	; 0x6047
   4:	00324c45 	eorseq	r4, r2, r5, asr #24
   8:	4c435047 	mcrrmi	0, 4, r5, r3, cr7
   c:	6e003052 	mcrvs	0, 0, r3, cr0, cr2, {2}
  10:	616d746f 	cmnvs	sp, pc, ror #8
  14:	66006e69 	strvs	r6, [r0], -r9, ror #28
  18:	74737269 	ldrbtvc	r7, [r3], #-617	; 0x269
  1c:	6165725f 	cmnvs	r5, pc, asr r2
  20:	65700064 	ldrbvs	r0, [r0, #-100]!	; 0x64
  24:	646f6972 	strbtvs	r6, [pc], #-2418	; 2c <_start-0x7fd4>
  28:	6e6f6c00 	cdpvs	12, 6, cr6, cr15, cr0, {0}
  2c:	6f6c2067 	svcvs	0x006c2067
  30:	7520676e 	strvc	r6, [r0, #-1902]!	; 0x76e
  34:	6769736e 	strbvs	r7, [r9, -lr, ror #6]!
  38:	2064656e 	rsbcs	r6, r4, lr, ror #10
  3c:	00746e69 	rsbseq	r6, r4, r9, ror #28
  40:	676e6f6c 	strbvs	r6, [lr, -ip, ror #30]!
  44:	6e6f6c20 	cdpvs	12, 6, cr6, cr15, cr0, {1}
  48:	6e692067 	cdpvs	0, 6, cr2, cr9, cr7, {3}
  4c:	6f740074 	svcvs	0x00740074
  50:	72655f74 	rsbvc	r5, r5, #116, 30	; 0x1d0
  54:	50470072 	subpl	r0, r7, r2, ror r0
  58:	30544553 	subscc	r4, r4, r3, asr r5
  5c:	53504700 	cmppl	r0, #0, 14
  60:	00315445 	eorseq	r5, r1, r5, asr #8
  64:	454c5047 	strbmi	r5, [ip, #-71]	; 0x47
  68:	47003056 	smlsdmi	r0, r6, r0, r3
  6c:	56454c50 			; <UNDEFINED> instruction: 0x56454c50
  70:	6f6c0031 	svcvs	0x006c0031
  74:	6e655f67 	cdpvs	15, 6, cr5, cr5, cr7, {3}
  78:	00745f74 	rsbseq	r5, r4, r4, ror pc
  7c:	20554e47 	subscs	r4, r5, r7, asr #28
  80:	2e342043 	cdpcs	0, 3, cr2, cr4, cr3, {2}
  84:	20332e38 	eorscs	r2, r3, r8, lsr lr
  88:	70636d2d 	rsbvc	r6, r3, sp, lsr #26
  8c:	72613d75 	rsbvc	r3, r1, #7488	; 0x1d40
  90:	3731316d 	ldrcc	r3, [r1, -sp, ror #2]!
  94:	667a6a36 			; <UNDEFINED> instruction: 0x667a6a36
  98:	2d20732d 	stccs	3, cr7, [r0, #-180]!	; 0xffffff4c
  9c:	6e75746d 	cdpvs	4, 7, cr7, cr5, cr13, {3}
  a0:	72613d65 	rsbvc	r3, r1, #6464	; 0x1940
  a4:	3731316d 	ldrcc	r3, [r1, -sp, ror #2]!
  a8:	667a6a36 			; <UNDEFINED> instruction: 0x667a6a36
  ac:	2d20732d 	stccs	3, cr7, [r0, #-180]!	; 0xffffff4c
  b0:	62646767 	rsbvs	r6, r4, #27000832	; 0x19c0000
  b4:	334f2d20 	movtcc	r2, #64800	; 0xfd20
  b8:	74732d20 	ldrbtvc	r2, [r3], #-3360	; 0xd20
  bc:	6e673d64 	cdpvs	13, 6, cr3, cr7, cr4, {3}
  c0:	20393975 	eorscs	r3, r9, r5, ror r9
  c4:	7266662d 	rsbvc	r6, r6, #47185920	; 0x2d00000
  c8:	74736565 	ldrbtvc	r6, [r3], #-1381	; 0x565
  cc:	69646e61 	stmdbvs	r4!, {r0, r5, r6, r9, sl, fp, sp, lr}^
  d0:	7400676e 	strvc	r6, [r0], #-1902	; 0x76e
  d4:	00706d65 	rsbseq	r6, r0, r5, ror #26
  d8:	5f697072 	svcpl	0x00697072
  dc:	65736572 	ldrbvs	r6, [r3, #-1394]!	; 0x572
  e0:	75705f74 	ldrbvc	r5, [r0, #-3956]!	; 0xf74
  e4:	47006374 	smlsdxmi	r0, r4, r3, r6
  e8:	45534650 	ldrbmi	r4, [r3, #-1616]	; 0x650
  ec:	4700304c 	strmi	r3, [r0, -ip, asr #32]
  f0:	45534650 	ldrbmi	r4, [r3, #-1616]	; 0x650
  f4:	4700314c 	strmi	r3, [r0, -ip, asr #2]
  f8:	45534650 	ldrbmi	r4, [r3, #-1616]	; 0x650
  fc:	4700334c 	strmi	r3, [r0, -ip, asr #6]
 100:	45534650 	ldrbmi	r4, [r3, #-1616]	; 0x650
 104:	4700344c 	strmi	r3, [r0, -ip, asr #8]
 108:	45534650 	ldrbmi	r4, [r3, #-1616]	; 0x650
 10c:	5f00354c 	svcpl	0x0000354c
 110:	4e55465f 	mrcmi	6, 2, r4, cr5, cr15, {2}
 114:	4f495443 	svcmi	0x00495443
 118:	005f5f4e 	subseq	r5, pc, lr, asr #30
 11c:	726f6873 	rsbvc	r6, pc, #7536640	; 0x730000
 120:	6e752074 	mrcvs	0, 3, r2, cr5, cr4, {3}
 124:	6e676973 	mcrvs	9, 3, r6, cr7, cr3, {3}
 128:	69206465 	stmdbvs	r0!, {r0, r2, r5, r6, sl, sp, lr}
 12c:	6c00746e 	cfstrsvs	mvf7, [r0], {110}	; 0x6e
 130:	00747361 	rsbseq	r7, r4, r1, ror #6
 134:	706d7564 	rsbvc	r7, sp, r4, ror #10
 138:	6d61735f 	stclvs	3, cr7, [r1, #-380]!	; 0xfffffe84
 13c:	73656c70 	cmnvc	r5, #112, 24	; 0x7000
 140:	6d5f6e00 	ldclvs	14, cr6, [pc, #-0]	; 148 <_start-0x7eb8>
 144:	67007861 	strvs	r7, [r0, -r1, ror #16]
 148:	5f6f6970 	svcpl	0x006f6970
 14c:	6c657366 	stclvs	3, cr7, [r5], #-408	; 0xfffffe68
 150:	50470030 	subpl	r0, r7, r0, lsr r0
 154:	31524c43 	cmpcc	r2, r3, asr #24
 158:	656c6300 	strbvs	r6, [ip, #-768]!	; 0x300
 15c:	725f6e61 	subsvc	r6, pc, #1552	; 0x610
 160:	6f6f6265 	svcvs	0x006f6265
 164:	69730074 	ldmdbvs	r3!, {r2, r4, r5, r6}^
 168:	7974657a 	ldmdbvc	r4!, {r1, r3, r4, r5, r6, r8, sl, sp, lr}^
 16c:	5f006570 	svcpl	0x00006570
 170:	0074756f 	rsbseq	r7, r4, pc, ror #10
 174:	6379636e 	cmnvs	r9, #-1207959551	; 0xb8000001
 178:	736e7500 	cmnvc	lr, #0, 10
 17c:	656e6769 	strbvs	r6, [lr, #-1897]!	; 0x769
 180:	68632064 	stmdavs	r3!, {r2, r5, r6, sp}^
 184:	73007261 	movwvc	r7, #609	; 0x261
 188:	74726f68 	ldrbtvc	r6, [r2], #-3944	; 0xf68
 18c:	746e6920 	strbtvc	r6, [lr], #-2336	; 0x920
 190:	6c656400 	cfstrdvs	mvd6, [r5], #-0
 194:	6d5f7961 	ldclvs	9, cr7, [pc, #-388]	; 18 <_start-0x7fe8>
 198:	79630073 	stmdbvc	r3!, {r0, r1, r4, r5, r6}^
 19c:	73656c63 	cmnvc	r5, #25344	; 0x6300
 1a0:	7265705f 	rsbvc	r7, r5, #95	; 0x5f
 1a4:	6365735f 	cmnvs	r5, #2080374785	; 0x7c000001
 1a8:	73552f00 	cmpvc	r5, #0, 30
 1ac:	2f737265 	svccs	0x00737265
 1b0:	61697262 	cmnvs	r9, r2, ror #4
 1b4:	6e756a6e 	vsubvs.f32	s13, s10, s29
 1b8:	7365442f 	cmnvc	r5, #788529152	; 0x2f000000
 1bc:	706f746b 	rsbvc	r7, pc, fp, ror #8
 1c0:	6863732f 	stmdavs	r3!, {r0, r1, r2, r3, r5, r8, r9, ip, sp, lr}^
 1c4:	2f6c6f6f 	svccs	0x006c6f6f
 1c8:	69727053 	ldmdbvs	r2!, {r0, r1, r4, r6, ip, sp, lr}^
 1cc:	3931676e 	ldmdbcc	r1!, {r1, r2, r3, r5, r6, r8, r9, sl, sp, lr}
 1d0:	432f3032 	teqmi	pc, #50	; 0x32
 1d4:	30343253 	eorscc	r3, r4, r3, asr r2
 1d8:	632f584c 	teqvs	pc, #76, 16	; 0x4c0000
 1dc:	30343273 	eorscc	r3, r4, r3, ror r2
 1e0:	322d786c 	eorcc	r7, sp, #108, 16	; 0x6c0000
 1e4:	72707330 	rsbsvc	r7, r0, #48, 6	; 0xc0000000
 1e8:	62616c2f 	rsbvs	r6, r1, #12032	; 0x2f00
 1ec:	2d332f73 	ldccs	15, cr2, [r3, #-460]!	; 0xfffffe34
 1f0:	69676f6c 	stmdbvs	r7!, {r2, r3, r5, r6, r8, r9, sl, fp, sp, lr}^
 1f4:	6e612d63 	cdpvs	13, 6, cr2, cr1, cr3, {3}
 1f8:	7a796c61 	bvc	1e5b384 <__bss_end__+0x1e51364>
 1fc:	632f7265 	teqvs	pc, #1342177286	; 0x50000006
 200:	2f65646f 	svccs	0x0065646f
 204:	706f6373 	rsbvc	r6, pc, r3, ror r3	; <UNPREDICTABLE>
 208:	70670065 	rsbvc	r0, r7, r5, rrx
 20c:	735f6f69 	cmpvc	pc, #420	; 0x1a4
 210:	00307465 	eorseq	r7, r0, r5, ror #8
 214:	73726966 	cmnvc	r2, #1671168	; 0x198000
 218:	61620074 	smcvs	8196	; 0x2004
 21c:	696c6573 	stmdbvs	ip!, {r0, r1, r4, r5, r6, r8, sl, sp, lr}^
 220:	725f656e 	subsvc	r6, pc, #461373440	; 0x1b800000
 224:	00646165 	rsbeq	r6, r4, r5, ror #2
 228:	6f697067 	svcvs	0x00697067
 22c:	7465735f 	strbtvc	r7, [r5], #-863	; 0x35f
 230:	706e695f 	rsbvc	r6, lr, pc, asr r9
 234:	6e007475 	mcrvs	4, 0, r7, cr0, cr5, {3}
 238:	735f6d75 	cmpvc	pc, #7488	; 0x1d40
 23c:	6c706d61 	ldclvs	13, cr6, [r0], #-388	; 0xfffffe7c
 240:	65007365 	strvs	r7, [r0, #-869]	; 0x365
 244:	6c62616e 	stfvse	f6, [r2], #-440	; 0xfffffe48
 248:	61635f65 	cmnvs	r3, r5, ror #30
 24c:	00656863 	rsbeq	r6, r5, r3, ror #16
 250:	74736166 	ldrbtvc	r6, [r3], #-358	; 0x166
 254:	6970675f 	ldmdbvs	r0!, {r0, r1, r2, r3, r4, r6, r8, r9, sl, sp, lr}^
 258:	65725f6f 	ldrbvs	r5, [r2, #-3951]!	; 0xf6f
 25c:	6d006461 	cfstrsvs	mvf6, [r0, #-388]	; 0xfffffe7c
 260:	635f7861 	cmpvs	pc, #6356992	; 0x610000
 264:	656c6379 	strbvs	r6, [ip, #-889]!	; 0x379
 268:	75630073 	strbvc	r0, [r3, #-115]!	; 0x73
 26c:	725f7272 	subsvc	r7, pc, #536870919	; 0x20000007
 270:	00646165 	rsbeq	r6, r4, r5, ror #2
 274:	6f697067 	svcvs	0x00697067
 278:	726c635f 	rsbvc	r6, ip, #2080374785	; 0x7c000001
 27c:	63730030 	cmnvs	r3, #48	; 0x30
 280:	2e65706f 	cdpcs	0, 6, cr7, cr5, cr15, {3}
 284:	5f5f0063 	svcpl	0x005f0063
 288:	63756e67 	cmnvs	r5, #1648	; 0x670
 28c:	5f61765f 	svcpl	0x0061765f
 290:	7473696c 	ldrbtvc	r6, [r3], #-2412	; 0x96c
 294:	62696c00 	rsbvs	r6, r9, #0, 24
 298:	72702f63 	rsbsvc	r2, r0, #396	; 0x18c
 29c:	6b746e69 	blvs	1d1bc48 <__bss_end__+0x1d11c28>
 2a0:	4700632e 	strmi	r6, [r0, -lr, lsr #6]
 2a4:	4320554e 	teqmi	r0, #327155712	; 0x13800000
 2a8:	382e3420 	stmdacc	lr!, {r5, sl, ip, sp}
 2ac:	2d20332e 	stccs	3, cr3, [r0, #-184]!	; 0xffffff48
 2b0:	7570636d 	ldrbvc	r6, [r0, #-877]!	; 0x36d
 2b4:	6d72613d 	ldfvse	f6, [r2, #-244]!	; 0xffffff0c
 2b8:	36373131 			; <UNDEFINED> instruction: 0x36373131
 2bc:	2d667a6a 	vstmdbcs	r6!, {s15-s120}
 2c0:	6d2d2073 	stcvs	0, cr2, [sp, #-460]!	; 0xfffffe34
 2c4:	656e7574 	strbvs	r7, [lr, #-1396]!	; 0x574
 2c8:	6d72613d 	ldfvse	f6, [r2, #-244]!	; 0xffffff0c
 2cc:	36373131 			; <UNDEFINED> instruction: 0x36373131
 2d0:	2d667a6a 	vstmdbcs	r6!, {s15-s120}
 2d4:	672d2073 			; <UNDEFINED> instruction: 0x672d2073
 2d8:	20626467 	rsbcs	r6, r2, r7, ror #8
 2dc:	20674f2d 	rsbcs	r4, r7, sp, lsr #30
 2e0:	6474732d 	ldrbtvs	r7, [r4], #-813	; 0x32d
 2e4:	756e673d 	strbvc	r6, [lr, #-1853]!	; 0x73d
 2e8:	2d203939 	stccs	9, cr3, [r0, #-228]!	; 0xffffff1c
 2ec:	65726666 	ldrbvs	r6, [r2, #-1638]!	; 0x666
 2f0:	61747365 	cmnvs	r4, r5, ror #6
 2f4:	6e69646e 	cdpvs	4, 6, cr6, cr9, cr14, {3}
 2f8:	61760067 	cmnvs	r6, r7, rrx
 2fc:	6972705f 	ldmdbvs	r2!, {r0, r1, r2, r3, r4, r6, ip, sp, lr}^
 300:	006b746e 	rsbeq	r7, fp, lr, ror #8
 304:	61765f5f 	cmnvs	r6, pc, asr pc
 308:	73696c5f 	cmnvc	r9, #24320	; 0x5f00
 30c:	552f0074 	strpl	r0, [pc, #-116]!	; 2a0 <_start-0x7d60>
 310:	73726573 	cmnvc	r2, #482344960	; 0x1cc00000
 314:	6972622f 	ldmdbvs	r2!, {r0, r1, r2, r3, r5, r9, sp, lr}^
 318:	756a6e61 	strbvc	r6, [sl, #-3681]!	; 0xe61
 31c:	65442f6e 	strbvs	r2, [r4, #-3950]	; 0xf6e
 320:	6f746b73 	svcvs	0x00746b73
 324:	63732f70 	cmnvs	r3, #112, 30	; 0x1c0
 328:	6c6f6f68 	stclvs	15, cr6, [pc], #-416	; 190 <_start-0x7e70>
 32c:	6e69572f 	cdpvs	7, 6, cr5, cr9, cr15, {1}
 330:	31726574 	cmncc	r2, r4, ror r5
 334:	2f303239 	svccs	0x00303239
 338:	34315343 	ldrtcc	r5, [r1], #-835	; 0x343
 33c:	632f4530 	teqvs	pc, #48, 10	; 0xc000000
 340:	30343173 	eorscc	r3, r4, r3, ror r1
 344:	30322d65 	eorscc	r2, r2, r5, ror #26
 348:	2f6e6977 	svccs	0x006e6977
 34c:	7062696c 	rsbvc	r6, r2, ip, ror #18
 350:	72610069 	rsbvc	r0, r1, #105	; 0x69
 354:	5f007367 	svcpl	0x00007367
 358:	0070615f 	rsbseq	r6, r0, pc, asr r1
 35c:	65746e69 	ldrbvs	r6, [r4, #-3689]!	; 0xe69
 360:	6c616e72 	stclvs	14, cr6, [r1], #-456	; 0xfffffe38
 364:	7475705f 	ldrbtvc	r7, [r5], #-95	; 0x5f
 368:	72616863 	rsbvc	r6, r1, #6488064	; 0x630000
 36c:	69707200 	ldmdbvs	r0!, {r9, ip, sp, lr}^
 370:	7475705f 	ldrbtvc	r7, [r5], #-95	; 0x5f
 374:	72616863 	rsbvc	r6, r1, #6488064	; 0x630000
 378:	62696c00 	rsbvs	r6, r9, #0, 24
 37c:	75702f63 	ldrbvc	r2, [r0, #-3939]!	; 0xf63
 380:	61686374 	smcvs	34356	; 0x8634
 384:	00632e72 	rsbeq	r2, r3, r2, ror lr
 388:	5f697072 	svcpl	0x00697072
 38c:	5f746573 	svcpl	0x00746573
 390:	63747570 	cmnvs	r4, #112, 10	; 0x1c000000
 394:	62696c00 	rsbvs	r6, r9, #0, 24
 398:	75702f63 	ldrbvc	r2, [r0, #-3939]!	; 0xf63
 39c:	632e6b74 	teqvs	lr, #116, 22	; 0x1d000
 3a0:	746e6900 	strbtvc	r6, [lr], #-2304	; 0x900
 3a4:	616e7265 	cmnvs	lr, r5, ror #4
 3a8:	75705f6c 	ldrbvc	r5, [r0, #-3948]!	; 0xf6c
 3ac:	6e006b74 	vmovvs.16	d0[1], r6
 3b0:	705f6765 	subsvc	r6, pc, r5, ror #14
 3b4:	76657200 	strbtvc	r7, [r5], -r0, lsl #4
 3b8:	65737265 	ldrbvs	r7, [r3, #-613]!	; 0x265
 3bc:	64736900 	ldrbtvs	r6, [r3], #-2304	; 0x900
 3c0:	74696769 	strbtvc	r6, [r9], #-1897	; 0x769
 3c4:	74757000 	ldrbtvc	r7, [r5], #-0
 3c8:	70665f73 	rsbvc	r5, r6, r3, ror pc
 3cc:	73616200 	cmnvc	r1, #0, 4
 3d0:	69730065 	ldmdbvs	r3!, {r0, r2, r5, r6}^
 3d4:	64656e67 	strbtvs	r6, [r5], #-3687	; 0xe67
 3d8:	6c00705f 	stcvs	0, cr7, [r0], {95}	; 0x5f
 3dc:	2f636269 	svccs	0x00636269
 3e0:	702d6176 	eorvc	r6, sp, r6, ror r1
 3e4:	746e6972 	strbtvc	r6, [lr], #-2418	; 0x972
 3e8:	00632e6b 	rsbeq	r2, r3, fp, ror #28
 3ec:	5f697072 	svcpl	0x00697072
 3f0:	5f746573 	svcpl	0x00746573
 3f4:	7074756f 	rsbsvc	r7, r4, pc, ror #10
 3f8:	77007475 	smlsdxvc	r0, r5, r4, r7
 3fc:	68746469 	ldmdavs	r4!, {r0, r3, r5, r6, sl, sp, lr}^
 400:	74757000 	ldrbtvc	r7, [r5], #-0
 404:	70665f63 	rsbvc	r5, r6, r3, ror #30
 408:	696d6500 	stmdbvs	sp!, {r8, sl, sp, lr}^
 40c:	69640074 	stmdbvs	r4!, {r2, r4, r5, r6}^
 410:	6c626173 	stfvse	f6, [r2], #-460	; 0xfffffe34
 414:	61635f65 	cmnvs	r3, r5, ror #30
 418:	00656863 	rsbeq	r6, r5, r3, ror #16
 41c:	34317363 	ldrtcc	r7, [r1], #-867	; 0x363
 420:	732d6530 	teqvc	sp, #48, 10	; 0xc000000
 424:	632f6372 	teqvs	pc, #-939524095	; 0xc8000001
 428:	65686361 	strbvs	r6, [r8, #-865]!	; 0x361
 42c:	7200632e 	andvc	r6, r0, #-1207959552	; 0xb8000000
 430:	725f6970 	subsvc	r6, pc, #112, 18	; 0x1c0000
 434:	6f6f6265 	svcvs	0x006f6265
 438:	73630074 	cmnvc	r3, #116	; 0x74
 43c:	65303431 	ldrvs	r3, [r0, #-1073]!	; 0x431
 440:	6372732d 	cmnvs	r2, #-1275068416	; 0xb4000000
 444:	656c632f 	strbvs	r6, [ip, #-815]!	; 0x32f
 448:	722d6e61 	eorvc	r6, sp, #1552	; 0x610
 44c:	6f6f6265 	svcvs	0x006f6265
 450:	00632e74 	rsbeq	r2, r3, r4, ror lr
 454:	65746e69 	ldrbvs	r6, [r4, #-3689]!	; 0xe69
 458:	6c616e72 	stclvs	14, cr6, [r1], #-456	; 0xfffffe38
 45c:	5f77735f 	svcpl	0x0077735f
 460:	63747570 	cmnvs	r4, #112, 10	; 0x1c000000
 464:	00726168 	rsbseq	r6, r2, r8, ror #2
 468:	73625f5f 	cmnvc	r2, #380	; 0x17c
 46c:	74735f73 	ldrbtvc	r5, [r3], #-3955	; 0xf73
 470:	5f747261 	svcpl	0x00747261
 474:	7362005f 	cmnvc	r2, #95	; 0x5f
 478:	6e655f73 	mcrvs	15, 3, r5, cr5, cr3, {3}
 47c:	79630064 	stmdbvc	r3!, {r2, r5, r6}^
 480:	5f656c63 	svcpl	0x00656c63
 484:	5f726570 	svcpl	0x00726570
 488:	00746962 	rsbseq	r6, r4, r2, ror #18
 48c:	736e6f63 	cmnvc	lr, #396	; 0x18c
 490:	5f656c6f 	svcpl	0x00656c6f
 494:	74726175 	ldrbtvc	r6, [r2], #-373	; 0x175
 498:	5f777300 	svcpl	0x00777300
 49c:	74726175 	ldrbtvc	r6, [r2], #-373	; 0x175
 4a0:	6972705f 	ldmdbvs	r2!, {r0, r1, r2, r3, r4, r6, ip, sp, lr}^
 4a4:	006b746e 	rsbeq	r7, fp, lr, ror #8
 4a8:	43545550 	cmpmi	r4, #80, 10	; 0x14000000
 4ac:	5053455f 	subspl	r4, r3, pc, asr r5
 4b0:	5241555f 	subpl	r5, r1, #398458880	; 0x17c00000
 4b4:	77730054 			; <UNDEFINED> instruction: 0x77730054
 4b8:	7261755f 	rsbvc	r7, r1, #398458880	; 0x17c00000
 4bc:	00745f74 	rsbseq	r5, r4, r4, ror pc
 4c0:	43545550 	cmpmi	r4, #80, 10	; 0x14000000
 4c4:	5f57535f 	svcpl	0x0057535f
 4c8:	54524155 	ldrbpl	r4, [r2], #-341	; 0x155
 4cc:	75616200 	strbvc	r6, [r1, #-512]!	; 0x200
 4d0:	55500064 	ldrbpl	r0, [r0, #-100]	; 0x64
 4d4:	485f4354 	ldmdami	pc, {r2, r4, r6, r8, r9, lr}^	; <UNPREDICTABLE>
 4d8:	41555f57 	cmpmi	r5, r7, asr pc
 4dc:	5f005452 	svcpl	0x00005452
 4e0:	61747363 	cmnvs	r4, r3, ror #6
 4e4:	75007472 	strvc	r7, [r0, #-1138]	; 0x472
 4e8:	5f747261 	svcpl	0x00747261
 4ec:	5f766564 	svcpl	0x00766564
 4f0:	77730074 			; <UNDEFINED> instruction: 0x77730074
 4f4:	7261755f 	rsbvc	r7, r1, #398458880	; 0x17c00000
 4f8:	75705f74 	ldrbvc	r5, [r0, #-3956]!	; 0xf74
 4fc:	75006374 	strvc	r6, [r0, #-884]	; 0x374
 500:	38746e69 	ldmdacc	r4!, {r0, r3, r5, r6, r9, sl, fp, sp, lr}^
 504:	6300745f 	movwvs	r7, #1119	; 0x45f
 508:	72746e6f 	rsbsvc	r6, r4, #1776	; 0x6f0
 50c:	625f6c6f 	subsvs	r6, pc, #28416	; 0x6f00
 510:	745f6b6c 	ldrbvc	r6, [pc], #-2924	; 518 <_start-0x7ae8>
 514:	5f777300 	svcpl	0x00777300
 518:	74726175 	ldrbtvc	r6, [r2], #-373	; 0x175
 51c:	5f626300 	svcpl	0x00626300
 520:	5f746567 	svcpl	0x00746567
 524:	636f6c62 	cmnvs	pc, #25088	; 0x6200
 528:	5f5f006b 	svcpl	0x005f006b
 52c:	5f737362 	svcpl	0x00737362
 530:	5f646e65 	svcpl	0x00646e65
 534:	7363005f 	cmnvc	r3, #95	; 0x5f
 538:	65303431 	ldrvs	r3, [r0, #-1073]!	; 0x431
 53c:	6372732d 	cmnvs	r2, #-1275068416	; 0xb4000000
 540:	7473632f 	ldrbtvc	r6, [r3], #-815	; 0x32f
 544:	2e747261 	cdpcs	2, 7, cr7, cr4, cr1, {3}
 548:	6f630063 	svcvs	0x00630063
 54c:	6c6f736e 	stclvs	3, cr7, [pc], #-440	; 39c <_start-0x7c64>
 550:	65645f65 	strbvs	r5, [r4, #-3941]!	; 0xf65
 554:	69750076 	ldmdbvs	r5!, {r1, r2, r4, r5, r6}^
 558:	3233746e 	eorscc	r7, r3, #1845493760	; 0x6e000000
 55c:	6d00745f 	cfstrsvs	mvf7, [r0, #-380]	; 0xfffffe84
 560:	63696761 	cmnvs	r9, #25427968	; 0x1840000
 564:	5f746100 	svcpl	0x00746100
 568:	72657375 	rsbvc	r7, r5, #-738197503	; 0xd4000001
 56c:	76656c5f 			; <UNDEFINED> instruction: 0x76656c5f
 570:	50006c65 	andpl	r6, r0, r5, ror #24
 574:	41505f4d 	cmpmi	r0, sp, asr #30
 578:	4f575353 	svcmi	0x00575353
 57c:	63004452 	movwvs	r4, #1106	; 0x452
 580:	30343173 	eorscc	r3, r4, r3, ror r1
 584:	72732d65 	rsbsvc	r2, r3, #6464	; 0x1940
 588:	65722f63 	ldrbvs	r2, [r2, #-3939]!	; 0xf63
 58c:	746f6f62 	strbtvc	r6, [pc], #-3938	; 594 <_start-0x7a6c>
 590:	5000632e 	andpl	r6, r0, lr, lsr #6
 594:	53525f4d 	cmppl	r2, #308	; 0x134
 598:	575f4354 			; <UNDEFINED> instruction: 0x575f4354
 59c:	47464352 	smlsldmi	r4, r6, r2, r3
 5a0:	4c55465f 	mrrcmi	6, 5, r4, r5, cr15
 5a4:	45525f4c 	ldrbmi	r5, [r2, #-3916]	; 0xf4c
 5a8:	00544553 	subseq	r4, r4, r3, asr r5
 5ac:	575f4d50 			; <UNDEFINED> instruction: 0x575f4d50
 5b0:	00474f44 	subeq	r4, r7, r4, asr #30
 5b4:	5f746573 	svcpl	0x00746573
 5b8:	72657375 	rsbvc	r7, r5, #-738197503	; 0xd4000001
 5bc:	76656c5f 			; <UNDEFINED> instruction: 0x76656c5f
 5c0:	50006c65 	andpl	r6, r0, r5, ror #24
 5c4:	32335455 	eorscc	r5, r3, #1426063360	; 0x55000000
 5c8:	5f4d5000 	svcpl	0x004d5000
 5cc:	43545352 	cmpmi	r4, #1207959553	; 0x48000001
 5d0:	73706300 	cmnvc	r0, #0, 6
 5d4:	69740072 	ldmdbvs	r4!, {r1, r4, r5, r6}^
 5d8:	5f72656d 	svcpl	0x0072656d
 5dc:	5f746567 	svcpl	0x00746567
 5e0:	63657375 	cmnvs	r5, #-738197503	; 0xd4000001
 5e4:	7761725f 			; <UNDEFINED> instruction: 0x7761725f
 5e8:	6c656400 	cfstrdvs	mvd6, [r5], #-0
 5ec:	735f7961 	cmpvc	pc, #1589248	; 0x184000
 5f0:	63006365 	movwvs	r6, #869	; 0x365
 5f4:	30343173 	eorscc	r3, r4, r3, ror r1
 5f8:	72732d65 	rsbsvc	r2, r3, #6464	; 0x1940
 5fc:	69742f63 	ldmdbvs	r4!, {r0, r1, r5, r6, r8, r9, sl, fp, sp}^
 600:	2e72656d 	cdpcs	5, 7, cr6, cr2, cr13, {3}
 604:	45470063 	strbmi	r0, [r7, #-99]	; 0x63
 608:	00323354 	eorseq	r3, r2, r4, asr r3
 60c:	6b636974 	blvs	18dabe4 <__bss_end__+0x18d0bc4>
 610:	65640073 	strbvs	r0, [r4, #-115]!	; 0x73
 614:	5f79616c 	svcpl	0x0079616c
 618:	6c637963 	stclvs	9, cr7, [r3], #-396	; 0xfffffe74
 61c:	64007365 	strvs	r7, [r0], #-869	; 0x365
 620:	79616c65 	stmdbvc	r1!, {r0, r2, r5, r6, sl, fp, sp, lr}^
 624:	0073755f 	rsbseq	r7, r3, pc, asr r5
 628:	656d6974 	strbvs	r6, [sp, #-2420]!	; 0x974
 62c:	65675f72 	strbvs	r5, [r7, #-3954]!	; 0xf72
 630:	73755f74 	cmnvc	r5, #116, 30	; 0x1d0
 634:	67006365 	strvs	r6, [r0, -r5, ror #6]
 638:	5f6f6970 	svcpl	0x006f6970
 63c:	6e657665 	cdpvs	6, 6, cr7, cr5, cr5, {3}
 640:	65645f74 	strbvs	r5, [r4, #-3956]!	; 0xf74
 644:	74636574 	strbtvc	r6, [r3], #-1396	; 0x574
 648:	70006465 	andvc	r6, r0, r5, ror #8
 64c:	32337475 	eorscc	r7, r3, #1962934272	; 0x75000000
 650:	414e4500 	cmpmi	lr, r0, lsl #10
 654:	5f454c42 	svcpl	0x00454c42
 658:	53515249 	cmppl	r1, #-1879048188	; 0x90000004
 65c:	6900325f 	stmdbvs	r0, {r0, r1, r2, r3, r4, r6, r9, ip, sp}
 660:	70675f73 	rsbvc	r5, r7, r3, ror pc
 664:	695f6f69 	ldmdbvs	pc, {r0, r3, r5, r6, r8, r9, sl, fp, sp, lr}^	; <UNPREDICTABLE>
 668:	4700746e 	strmi	r7, [r0, -lr, ror #8]
 66c:	5f4f4950 	svcpl	0x004f4950
 670:	434e5546 	movtmi	r5, #58694	; 0xe546
 674:	504e495f 	subpl	r4, lr, pc, asr r9
 678:	67005455 	smlsdvs	r0, r5, r4, r5
 67c:	5f6f6970 	svcpl	0x006f6970
 680:	5f746573 	svcpl	0x00746573
 684:	0066666f 	rsbeq	r6, r6, pc, ror #12
 688:	732d796d 	teqvc	sp, #1785856	; 0x1b4000
 68c:	672f6372 			; <UNDEFINED> instruction: 0x672f6372
 690:	2e6f6970 	mcrcs	9, 3, r6, cr15, cr0, {3}
 694:	6e690063 	cdpvs	0, 6, cr0, cr9, cr3, {3}
 698:	616d5f74 	smcvs	54772	; 0xd5f4
 69c:	72006b73 	andvc	r6, r0, #117760	; 0x1cc00
 6a0:	735f6765 	cmpvc	pc, #26476544	; 0x1940000
 6a4:	00746174 	rsbseq	r6, r4, r4, ror r1
 6a8:	6f697067 	svcvs	0x00697067
 6ac:	6765725f 			; <UNDEFINED> instruction: 0x6765725f
 6b0:	76656400 	strbtvc	r6, [r5], -r0, lsl #8
 6b4:	7261625f 	rsbvc	r6, r1, #-268435451	; 0xf0000005
 6b8:	72656972 	rsbvc	r6, r5, #1867776	; 0x1c8000
 6bc:	69706700 	ldmdbvs	r0!, {r8, r9, sl, sp, lr}^
 6c0:	6e695f6f 	cdpvs	15, 6, cr5, cr9, cr15, {3}
 6c4:	69725f74 	ldmdbvs	r2!, {r2, r4, r5, r6, r8, r9, sl, fp, ip, lr}^
 6c8:	676e6973 			; <UNDEFINED> instruction: 0x676e6973
 6cc:	6764655f 			; <UNDEFINED> instruction: 0x6764655f
 6d0:	70670065 	rsbvc	r0, r7, r5, rrx
 6d4:	735f6f69 	cmpvc	pc, #420	; 0x1a4
 6d8:	665f7465 	ldrbvs	r7, [pc], -r5, ror #8
 6dc:	74636e75 	strbtvc	r6, [r3], #-3701	; 0xe75
 6e0:	006e6f69 	rsbeq	r6, lr, r9, ror #30
 6e4:	45525047 	ldrbmi	r5, [r2, #-71]	; 0x47
 6e8:	4700304e 	strmi	r3, [r0, -lr, asr #32]
 6ec:	4e455250 	mcrmi	2, 2, r5, cr5, cr0, {2}
 6f0:	70670031 	rsbvc	r0, r7, r1, lsr r0
 6f4:	655f6f69 	ldrbvs	r6, [pc, #-3945]	; fffff793 <__bss_end__+0xffff5773>
 6f8:	746e6576 	strbtvc	r6, [lr], #-1398	; 0x576
 6fc:	656c635f 	strbvs	r6, [ip, #-863]!	; 0x35f
 700:	49007261 	stmdbmi	r0, {r0, r5, r6, r9, ip, sp, lr}
 704:	505f5152 	subspl	r5, pc, r2, asr r1	; <UNPREDICTABLE>
 708:	49444e45 	stmdbmi	r4, {r0, r2, r6, r9, sl, fp, lr}^
 70c:	315f474e 	cmpcc	pc, lr, asr #14
 710:	51524900 	cmppl	r2, r0, lsl #18
 714:	4e45505f 	mcrmi	0, 2, r5, cr5, cr15, {2}
 718:	474e4944 	strbmi	r4, [lr, -r4, asr #18]
 71c:	6200325f 	andvs	r3, r0, #-268435451	; 0xf0000005
 720:	616d7469 	cmnvs	sp, r9, ror #8
 724:	67006b73 	smlsdxvs	r0, r3, fp, r6
 728:	5f6f6970 	svcpl	0x006f6970
 72c:	74697277 	strbtvc	r7, [r9], #-631	; 0x277
 730:	75660065 	strbvc	r0, [r6, #-101]!	; 0x65
 734:	6700636e 	strvs	r6, [r0, -lr, ror #6]
 738:	5f6f6970 	svcpl	0x006f6970
 73c:	67676f74 			; <UNDEFINED> instruction: 0x67676f74
 740:	4700656c 	strmi	r6, [r0, -ip, ror #10]
 744:	53444550 	movtpl	r4, #17744	; 0x4550
 748:	50470030 	subpl	r0, r7, r0, lsr r0
 74c:	31534445 	cmpcc	r3, r5, asr #8
 750:	69706700 	ldmdbvs	r0!, {r8, r9, sl, sp, lr}^
 754:	65735f6f 	ldrbvs	r5, [r3, #-3951]!	; 0xf6f
 758:	6e6f5f74 	mcrvs	15, 3, r5, cr15, cr4, {3}
 75c:	46504700 	ldrbmi	r4, [r0], -r0, lsl #14
 760:	00304e45 	eorseq	r4, r0, r5, asr #28
 764:	45465047 	strbmi	r5, [r6, #-71]	; 0x47
 768:	6700314e 	strvs	r3, [r0, -lr, asr #2]
 76c:	5f6f6970 	svcpl	0x006f6970
 770:	5f746573 	svcpl	0x00746573
 774:	7074756f 	rsbsvc	r7, r4, pc, ror #10
 778:	47007475 	smlsdxmi	r0, r5, r4, r7
 77c:	5f4f4950 	svcpl	0x004f4950
 780:	434e5546 	movtmi	r5, #58694	; 0xe546
 784:	54554f5f 	ldrbpl	r4, [r5], #-3935	; 0xf5f
 788:	00545550 	subseq	r5, r4, r0, asr r5
 78c:	33746567 	cmncc	r4, #432013312	; 0x19c00000
 790:	70670032 	rsbvc	r0, r7, r2, lsr r0
 794:	695f6f69 	ldmdbvs	pc, {r0, r3, r5, r6, r8, r9, sl, fp, sp, lr}^	; <UNPREDICTABLE>
 798:	665f746e 	ldrbvs	r7, [pc], -lr, ror #8
 79c:	696c6c61 	stmdbvs	ip!, {r0, r5, r6, sl, fp, sp, lr}^
 7a0:	655f676e 	ldrbvs	r6, [pc, #-1902]	; 3a <_start-0x7fc6>
 7a4:	00656764 	rsbeq	r6, r5, r4, ror #14
 7a8:	6f697067 	svcvs	0x00697067
 7ac:	6e75665f 	mrcvs	6, 3, r6, cr5, cr15, {2}
 7b0:	00745f63 	rsbseq	r5, r4, r3, ror #30
 7b4:	4f495047 	svcmi	0x00495047
 7b8:	4e55465f 	mrcmi	6, 2, r4, cr5, cr15, {2}
 7bc:	4c415f43 	mcrrmi	15, 4, r5, r1, cr3
 7c0:	47003054 	smlsdmi	r0, r4, r0, r3
 7c4:	5f4f4950 	svcpl	0x004f4950
 7c8:	434e5546 	movtmi	r5, #58694	; 0xe546
 7cc:	544c415f 	strbpl	r4, [ip], #-351	; 0x15f
 7d0:	50470031 	subpl	r0, r7, r1, lsr r0
 7d4:	465f4f49 	ldrbmi	r4, [pc], -r9, asr #30
 7d8:	5f434e55 	svcpl	0x00434e55
 7dc:	32544c41 	subscc	r4, r4, #16640	; 0x4100
 7e0:	49504700 	ldmdbmi	r0, {r8, r9, sl, lr}^
 7e4:	55465f4f 	strbpl	r5, [r6, #-3919]	; 0xf4f
 7e8:	415f434e 	cmpmi	pc, lr, asr #6
 7ec:	0033544c 	eorseq	r5, r3, ip, asr #8
 7f0:	4f495047 	svcmi	0x00495047
 7f4:	4e55465f 	mrcmi	6, 2, r4, cr5, cr15, {2}
 7f8:	4c415f43 	mcrrmi	15, 4, r5, r1, cr3
 7fc:	47003454 	smlsdmi	r0, r4, r4, r3
 800:	5f4f4950 	svcpl	0x004f4950
 804:	434e5546 	movtmi	r5, #58694	; 0xe546
 808:	544c415f 	strbpl	r4, [ip], #-351	; 0x15f
 80c:	65720035 	ldrbvs	r0, [r2, #-53]!	; 0x35
 810:	65735f67 	ldrbvs	r5, [r3, #-3943]!	; 0xf67
 814:	7463656c 	strbtvc	r6, [r3], #-1388	; 0x56c
 818:	63796300 	cmnvs	r9, #0, 6
 81c:	7265705f 	rsbvc	r7, r5, #95	; 0x5f
 820:	7469625f 	strbtvc	r6, [r9], #-607	; 0x25f
 824:	69727700 	ldmdbvs	r2!, {r8, r9, sl, ip, sp, lr}^
 828:	635f6574 	cmpvs	pc, #116, 10	; 0x1d000000
 82c:	755f6379 	ldrbvc	r6, [pc, #-889]	; 4bb <_start-0x7b45>
 830:	6c69746e 	cfstrdvs	mvd7, [r9], #-440	; 0xfffffe48
 834:	5f777300 	svcpl	0x00777300
 838:	74726175 	ldrbtvc	r6, [r2], #-373	; 0x175
 83c:	7465675f 	strbtvc	r6, [r5], #-1887	; 0x75f
 840:	69745f63 	ldmdbvs	r4!, {r0, r1, r5, r6, r8, r9, sl, fp, ip, lr}^
 844:	756f656d 	strbvc	r6, [pc, #-1389]!	; 2df <_start-0x7d21>
 848:	77730074 			; <UNDEFINED> instruction: 0x77730074
 84c:	7261755f 	rsbvc	r7, r1, #398458880	; 0x17c00000
 850:	65675f74 	strbvs	r5, [r7, #-3956]!	; 0xf74
 854:	755f7374 	ldrbvc	r7, [pc, #-884]	; 4e8 <_start-0x7b18>
 858:	6c69746e 	cfstrdvs	mvd7, [r9], #-440	; 0xfffffe48
 85c:	5f777300 	svcpl	0x00777300
 860:	74726175 	ldrbtvc	r6, [r2], #-373	; 0x175
 864:	7465675f 	strbtvc	r6, [r5], #-1887	; 0x75f
 868:	65640063 	strbvs	r0, [r4, #-99]!	; 0x63
 86c:	65766972 	ldrbvs	r6, [r6, #-2418]!	; 0x972
 870:	65640064 	strbvs	r0, [r4, #-100]!	; 0x64
 874:	5f79616c 	svcpl	0x0079616c
 878:	6379636e 	cmnvs	r9, #-1207959551	; 0xb8000001
 87c:	0073656c 	rsbseq	r6, r3, ip, ror #10
 880:	755f7773 	ldrbvc	r7, [pc, #-1907]	; 115 <_start-0x7eeb>
 884:	5f747261 	svcpl	0x00747261
 888:	74696e69 	strbtvc	r6, [r9], #-3689	; 0xe69
 88c:	6c65685f 	stclvs	8, cr6, [r5], #-380	; 0xfffffe84
 890:	00726570 	rsbseq	r6, r2, r0, ror r5
 894:	656d6974 	strbvs	r6, [sp, #-2420]!	; 0x974
 898:	5f74756f 	svcpl	0x0074756f
 89c:	63657375 	cmnvs	r5, #-738197503	; 0xd4000001
 8a0:	5f777300 	svcpl	0x00777300
 8a4:	74726175 	ldrbtvc	r6, [r2], #-373	; 0x175
 8a8:	7475705f 	ldrbtvc	r7, [r5], #-95	; 0x5f
 8ac:	796d006b 	stmdbvc	sp!, {r0, r1, r3, r5, r6}^
 8b0:	6372732d 	cmnvs	r2, #-1275068416	; 0xb4000000
 8b4:	2d77732f 	ldclcs	3, cr7, [r7, #-188]!	; 0xffffff44
 8b8:	74726175 	ldrbtvc	r6, [r2], #-373	; 0x175
 8bc:	6300632e 	movwvs	r6, #814	; 0x32e
 8c0:	5f726168 	svcpl	0x00726168
 8c4:	73006e69 	movwvc	r6, #3689	; 0xe69
 8c8:	61755f77 	cmnvs	r5, r7, ror pc
 8cc:	675f7472 			; <UNDEFINED> instruction: 0x675f7472
 8d0:	5f737465 	svcpl	0x00737465
 8d4:	656d6974 	strbvs	r6, [sp, #-2420]!	; 0x974
 8d8:	0074756f 	rsbseq	r7, r4, pc, ror #10
 8dc:	7479626e 	ldrbtvc	r6, [r9], #-622	; 0x26e
 8e0:	75007365 	strvc	r7, [r0, #-869]	; 0x365
 8e4:	5f636573 	svcpl	0x00636573
 8e8:	656d6974 	strbvs	r6, [sp, #-2420]!	; 0x974
 8ec:	0074756f 	rsbseq	r7, r4, pc, ror #10
 8f0:	755f7773 	ldrbvc	r7, [pc, #-1907]	; 185 <_start-0x7e7b>
 8f4:	5f747261 	svcpl	0x00747261
 8f8:	73746567 	cmnvc	r4, #432013312	; 0x19c00000
 8fc:	746e755f 	strbtvc	r7, [lr], #-1375	; 0x55f
 900:	625f6c69 	subsvs	r6, pc, #26880	; 0x6900
 904:	77006b6c 	strvc	r6, [r0, -ip, ror #22]
 908:	5f746961 	svcpl	0x00746961
 90c:	69746e75 	ldmdbvs	r4!, {r0, r2, r4, r5, r6, r9, sl, fp, sp, lr}^
 910:	73755f6c 	cmnvc	r5, #108, 30	; 0x1b0
 914:	41006365 	tstmi	r0, r5, ror #6
 918:	4d5f5855 	ldclmi	8, cr5, [pc, #-340]	; 7cc <_start-0x7834>
 91c:	434d5f55 	movtmi	r5, #57173	; 0xdf55
 920:	45525f52 	ldrbmi	r5, [r2, #-3922]	; 0xf52
 924:	55410047 	strbpl	r0, [r1, #-71]	; 0x47
 928:	554d5f58 	strbpl	r5, [sp, #-3928]	; 0xf58
 92c:	5f4f495f 	svcpl	0x004f495f
 930:	00474552 	subeq	r4, r7, r2, asr r5
 934:	5f585541 	svcpl	0x00585541
 938:	4d5f554d 	cfldr64mi	mvdx5, [pc, #-308]	; 80c <_start-0x77f4>
 93c:	525f5253 	subspl	r5, pc, #805306373	; 0x30000005
 940:	75004745 	strvc	r4, [r0, #-1861]	; 0x745
 944:	5f747261 	svcpl	0x00747261
 948:	5f6e6163 	svcpl	0x006e6163
 94c:	63746567 	cmnvs	r4, #432013312	; 0x19c00000
 950:	58554100 	ldmdapl	r5, {r8, lr}^
 954:	5f554d5f 	svcpl	0x00554d5f
 958:	4c544e43 	mrrcmi	14, 4, r4, r4, cr3	; <UNPREDICTABLE>
 95c:	4745525f 	smlsldmi	r5, r5, pc, r2	; <UNPREDICTABLE>
 960:	72617500 	rsbvc	r7, r1, #0, 10
 964:	61685f74 	smcvs	34292	; 0x85f4
 968:	61645f73 	smcvs	17907	; 0x45f3
 96c:	75006174 	strvc	r6, [r0, #-372]	; 0x174
 970:	5f747261 	svcpl	0x00747261
 974:	74696e69 	strbtvc	r6, [r9], #-3689	; 0xe69
 978:	58554100 	ldmdapl	r5, {r8, lr}^
 97c:	5f554d5f 	svcpl	0x00554d5f
 980:	5f524549 	svcpl	0x00524549
 984:	00474552 	subeq	r4, r7, r2, asr r5
 988:	5f585541 	svcpl	0x00585541
 98c:	495f554d 	ldmdbmi	pc, {r0, r2, r3, r6, r8, sl, ip, lr}^	; <UNPREDICTABLE>
 990:	525f5249 	subspl	r5, pc, #-1879048188	; 0x90000004
 994:	75004745 	strvc	r4, [r0, #-1861]	; 0x745
 998:	5f747261 	svcpl	0x00747261
 99c:	5f6e6163 	svcpl	0x006e6163
 9a0:	63747570 	cmnvs	r4, #112, 10	; 0x1c000000
 9a4:	58554100 	ldmdapl	r5, {r8, lr}^
 9a8:	414e455f 	cmpmi	lr, pc, asr r5
 9ac:	53454c42 	movtpl	r4, #23618	; 0x5c42
 9b0:	58554100 	ldmdapl	r5, {r8, lr}^
 9b4:	5152495f 	cmppl	r2, pc, asr r9
 9b8:	58554100 	ldmdapl	r5, {r8, lr}^
 9bc:	5f554d5f 	svcpl	0x00554d5f
 9c0:	44554142 	ldrbmi	r4, [r5], #-322	; 0x142
 9c4:	4745525f 	smlsldmi	r5, r5, pc, r2	; <UNPREDICTABLE>
 9c8:	58554100 	ldmdapl	r5, {r8, lr}^
 9cc:	5f554d5f 	svcpl	0x00554d5f
 9d0:	54415453 	strbpl	r5, [r1], #-1107	; 0x453
 9d4:	4745525f 	smlsldmi	r5, r5, pc, r2	; <UNPREDICTABLE>
 9d8:	58554100 	ldmdapl	r5, {r8, lr}^
 9dc:	5f554d5f 	svcpl	0x00554d5f
 9e0:	41524353 	cmpmi	r2, r3, asr r3
 9e4:	00484354 	subeq	r4, r8, r4, asr r3
 9e8:	732d796d 	teqvc	sp, #1785856	; 0x1b4000
 9ec:	752f6372 	strvc	r6, [pc, #-882]!	; 682 <_start-0x797e>
 9f0:	2e747261 	cdpcs	2, 7, cr7, cr4, cr1, {3}
 9f4:	55410063 	strbpl	r0, [r1, #-99]	; 0x63
 9f8:	554d5f58 	strbpl	r5, [sp, #-3928]	; 0xf58
 9fc:	52434c5f 	subpl	r4, r3, #24320	; 0x5f00
 a00:	4745525f 	smlsldmi	r5, r5, pc, r2	; <UNPREDICTABLE>
 a04:	58554100 	ldmdapl	r5, {r8, lr}^
 a08:	5f554d5f 	svcpl	0x00554d5f
 a0c:	5f52534c 	svcpl	0x0052534c
 a10:	00474552 	subeq	r4, r7, r2, asr r5
 a14:	74726175 	ldrbtvc	r6, [r2], #-373	; 0x175
 a18:	7465675f 	strbtvc	r6, [r5], #-1887	; 0x75f
 a1c:	73615f63 	cmnvc	r1, #396	; 0x18c
 a20:	00636e79 	rsbeq	r6, r3, r9, ror lr
 a24:	657a6973 	ldrbvs	r6, [sl, #-2419]!	; 0x973
 a28:	6d00745f 	cfstrsvs	mvf7, [r0, #-380]	; 0xfffffe84
 a2c:	65736d65 	ldrbvs	r6, [r3, #-3429]!	; 0xd65
 a30:	62630074 	rsbvs	r0, r3, #116	; 0x74
 a34:	77656e5f 			; <UNDEFINED> instruction: 0x77656e5f
 a38:	31736300 	cmncc	r3, r0, lsl #6
 a3c:	2d653034 	stclcs	0, cr3, [r5, #-208]!	; 0xffffff30
 a40:	2f637273 	svccs	0x00637273
 a44:	746e6f63 	strbtvc	r6, [lr], #-3939	; 0xf63
 a48:	2d6c6f72 	stclcs	15, cr6, [ip, #-456]!	; 0xfffffe38
 a4c:	636f6c62 	cmnvs	pc, #25088	; 0x6200
 a50:	00632e6b 	rsbeq	r2, r3, fp, ror #28
 a54:	6362696c 	cmnvs	r2, #108, 18	; 0x1b0000
 a58:	6d656d2f 	stclvs	13, cr6, [r5, #-188]!	; 0xffffff44
 a5c:	2e746573 	mrccs	5, 3, r6, cr4, cr3, {3}
 a60:	Address 0x0000000000000a60 is out of bounds.


Disassembly of section .debug_frame:

00000000 <.debug_frame>:
   0:	0000000c 	andeq	r0, r0, ip
   4:	ffffffff 			; <UNDEFINED> instruction: 0xffffffff
   8:	7c020001 	stcvc	0, cr0, [r2], {1}
   c:	000d0c0e 	andeq	r0, sp, lr, lsl #24
  10:	00000014 	andeq	r0, r0, r4, lsl r0
  14:	00000000 	andeq	r0, r0, r0
  18:	00008010 	andeq	r8, r0, r0, lsl r0
  1c:	00000050 	andeq	r0, r0, r0, asr r0
  20:	84080e44 	strhi	r0, [r8], #-3652	; 0xe44
  24:	00018e02 	andeq	r8, r1, r2, lsl #28
  28:	00000024 	andeq	r0, r0, r4, lsr #32
  2c:	00000000 	andeq	r0, r0, r0
  30:	00008060 	andeq	r8, r0, r0, rrx
  34:	00000164 	andeq	r0, r0, r4, ror #2
  38:	84200e42 	strthi	r0, [r0], #-3650	; 0xe42
  3c:	86078508 	strhi	r8, [r7], -r8, lsl #10
  40:	88058706 	stmdahi	r5, {r1, r2, r8, r9, sl, pc}
  44:	8a038904 	bhi	e245c <__bss_end__+0xd843c>
  48:	48018b02 	stmdami	r1, {r1, r8, r9, fp, pc}
  4c:	0006c00e 	andeq	ip, r6, lr
  50:	00000024 	andeq	r0, r0, r4, lsr #32
  54:	00000000 	andeq	r0, r0, r0
  58:	000081c4 	andeq	r8, r0, r4, asr #3
  5c:	00000090 	muleq	r0, r0, r0
  60:	84200e42 	strthi	r0, [r0], #-3650	; 0xe42
  64:	86078508 	strhi	r8, [r7], -r8, lsl #10
  68:	88058706 	stmdahi	r5, {r1, r2, r8, r9, sl, pc}
  6c:	8a038904 	bhi	e2484 <__bss_end__+0xd8464>
  70:	44018e02 	strmi	r8, [r1], #-3586	; 0xe02
  74:	0000300e 	andeq	r3, r0, lr
  78:	00000014 	andeq	r0, r0, r4, lsl r0
  7c:	00000000 	andeq	r0, r0, r0
  80:	00008254 	andeq	r8, r0, r4, asr r2
  84:	00000050 	andeq	r0, r0, r0, asr r0
  88:	8e040e42 	cdphi	14, 0, cr0, cr4, cr2, {2}
  8c:	580e4201 	stmdapl	lr, {r0, r9, lr}
  90:	0000000c 	andeq	r0, r0, ip
  94:	ffffffff 			; <UNDEFINED> instruction: 0xffffffff
  98:	7c020001 	stcvc	0, cr0, [r2], {1}
  9c:	000d0c0e 	andeq	r0, sp, lr, lsl #24
  a0:	00000024 	andeq	r0, r0, r4, lsr #32
  a4:	00000090 	muleq	r0, r0, r0
  a8:	000082a4 	andeq	r8, r0, r4, lsr #5
  ac:	00000058 	andeq	r0, r0, r8, asr r0
  b0:	80100e42 	andshi	r0, r0, r2, asr #28
  b4:	82038104 	andhi	r8, r3, #4, 2
  b8:	42018302 	andmi	r8, r1, #134217728	; 0x8000000
  bc:	07841c0e 	streq	r1, [r4, lr, lsl #24]
  c0:	058e0685 	streq	r0, [lr, #1669]	; 0x685
  c4:	00280e42 	eoreq	r0, r8, r2, asr #28
  c8:	0000000c 	andeq	r0, r0, ip
  cc:	ffffffff 			; <UNDEFINED> instruction: 0xffffffff
  d0:	7c020001 	stcvc	0, cr0, [r2], {1}
  d4:	000d0c0e 	andeq	r0, sp, lr, lsl #24
  d8:	00000014 	andeq	r0, r0, r4, lsl r0
  dc:	000000c8 	andeq	r0, r0, r8, asr #1
  e0:	000082fc 	strdeq	r8, [r0], -ip
  e4:	00000014 	andeq	r0, r0, r4, lsl r0
  e8:	84080e42 	strhi	r0, [r8], #-3650	; 0xe42
  ec:	00018e02 	andeq	r8, r1, r2, lsl #28
  f0:	0000000c 	andeq	r0, r0, ip
  f4:	000000c8 	andeq	r0, r0, r8, asr #1
  f8:	00008310 	andeq	r8, r0, r0, lsl r3
  fc:	00000018 	andeq	r0, r0, r8, lsl r0
 100:	0000000c 	andeq	r0, r0, ip
 104:	000000c8 	andeq	r0, r0, r8, asr #1
 108:	00008328 	andeq	r8, r0, r8, lsr #6
 10c:	00000010 	andeq	r0, r0, r0, lsl r0
 110:	0000000c 	andeq	r0, r0, ip
 114:	ffffffff 			; <UNDEFINED> instruction: 0xffffffff
 118:	7c020001 	stcvc	0, cr0, [r2], {1}
 11c:	000d0c0e 	andeq	r0, sp, lr, lsl #24
 120:	00000018 	andeq	r0, r0, r8, lsl r0
 124:	00000110 	andeq	r0, r0, r0, lsl r1
 128:	00008338 	andeq	r8, r0, r8, lsr r3
 12c:	00000034 	andeq	r0, r0, r4, lsr r0
 130:	83100e42 	tsthi	r0, #1056	; 0x420
 134:	85038404 	strhi	r8, [r3, #-1028]	; 0x404
 138:	00018e02 	andeq	r8, r1, r2, lsl #28
 13c:	0000000c 	andeq	r0, r0, ip
 140:	ffffffff 			; <UNDEFINED> instruction: 0xffffffff
 144:	7c020001 	stcvc	0, cr0, [r2], {1}
 148:	000d0c0e 	andeq	r0, sp, lr, lsl #24
 14c:	0000000c 	andeq	r0, r0, ip
 150:	0000013c 	andeq	r0, r0, ip, lsr r1
 154:	0000836c 	andeq	r8, r0, ip, ror #6
 158:	00000014 	andeq	r0, r0, r4, lsl r0
 15c:	0000000c 	andeq	r0, r0, ip
 160:	0000013c 	andeq	r0, r0, ip, lsr r1
 164:	00008380 	andeq	r8, r0, r0, lsl #7
 168:	0000002c 	andeq	r0, r0, ip, lsr #32
 16c:	0000000c 	andeq	r0, r0, ip
 170:	0000013c 	andeq	r0, r0, ip, lsr r1
 174:	000083ac 	andeq	r8, r0, ip, lsr #7
 178:	00000040 	andeq	r0, r0, r0, asr #32
 17c:	00000020 	andeq	r0, r0, r0, lsr #32
 180:	0000013c 	andeq	r0, r0, ip, lsr r1
 184:	000083ec 	andeq	r8, r0, ip, ror #7
 188:	000001a8 	andeq	r0, r0, r8, lsr #3
 18c:	84180e42 	ldrhi	r0, [r8], #-3650	; 0xe42
 190:	86058506 	strhi	r8, [r5], -r6, lsl #10
 194:	88038704 	stmdahi	r3, {r2, r8, r9, sl, pc}
 198:	42018e02 	andmi	r8, r1, #2, 28
 19c:	0000600e 	andeq	r6, r0, lr
 1a0:	00000014 	andeq	r0, r0, r4, lsl r0
 1a4:	0000013c 	andeq	r0, r0, ip, lsr r1
 1a8:	00008594 	muleq	r0, r4, r5
 1ac:	00000068 	andeq	r0, r0, r8, rrx
 1b0:	8e040e42 	cdphi	14, 0, cr0, cr4, cr2, {2}
 1b4:	100e4201 	andne	r4, lr, r1, lsl #4
 1b8:	00000028 	andeq	r0, r0, r8, lsr #32
 1bc:	0000013c 	andeq	r0, r0, ip, lsr r1
 1c0:	000085fc 	strdeq	r8, [r0], -ip
 1c4:	00000294 	muleq	r0, r4, r2
 1c8:	84240e42 	strthi	r0, [r4], #-3650	; 0xe42
 1cc:	86088509 	strhi	r8, [r8], -r9, lsl #10
 1d0:	88068707 	stmdahi	r6, {r0, r1, r2, r8, r9, sl, pc}
 1d4:	8a048905 	bhi	1225f0 <__bss_end__+0x1185d0>
 1d8:	8e028b03 	vmlahi.f64	d8, d2, d3
 1dc:	b00e4201 	andlt	r4, lr, r1, lsl #4
 1e0:	00000001 	andeq	r0, r0, r1
 1e4:	0000000c 	andeq	r0, r0, ip
 1e8:	ffffffff 			; <UNDEFINED> instruction: 0xffffffff
 1ec:	7c020001 	stcvc	0, cr0, [r2], {1}
 1f0:	000d0c0e 	andeq	r0, sp, lr, lsl #24
 1f4:	0000000c 	andeq	r0, r0, ip
 1f8:	000001e4 	andeq	r0, r0, r4, ror #3
 1fc:	00008890 	muleq	r0, r0, r8
 200:	00000010 	andeq	r0, r0, r0, lsl r0
 204:	0000000c 	andeq	r0, r0, ip
 208:	000001e4 	andeq	r0, r0, r4, ror #3
 20c:	000088a0 	andeq	r8, r0, r0, lsr #17
 210:	00000010 	andeq	r0, r0, r0, lsl r0
 214:	0000000c 	andeq	r0, r0, ip
 218:	ffffffff 			; <UNDEFINED> instruction: 0xffffffff
 21c:	7c020001 	stcvc	0, cr0, [r2], {1}
 220:	000d0c0e 	andeq	r0, sp, lr, lsl #24
 224:	00000014 	andeq	r0, r0, r4, lsl r0
 228:	00000214 	andeq	r0, r0, r4, lsl r2
 22c:	000088b0 			; <UNDEFINED> instruction: 0x000088b0
 230:	00000028 	andeq	r0, r0, r8, lsr #32
 234:	83080e42 	movwhi	r0, #36418	; 0x8e42
 238:	00018e02 	andeq	r8, r1, r2, lsl #28
 23c:	0000000c 	andeq	r0, r0, ip
 240:	ffffffff 			; <UNDEFINED> instruction: 0xffffffff
 244:	7c020001 	stcvc	0, cr0, [r2], {1}
 248:	000d0c0e 	andeq	r0, sp, lr, lsl #24
 24c:	00000014 	andeq	r0, r0, r4, lsl r0
 250:	0000023c 	andeq	r0, r0, ip, lsr r2
 254:	000088d8 	ldrdeq	r8, [r0], -r8	; <UNPREDICTABLE>
 258:	00000020 	andeq	r0, r0, r0, lsr #32
 25c:	84080e42 	strhi	r0, [r8], #-3650	; 0xe42
 260:	00018e02 	andeq	r8, r1, r2, lsl #28
 264:	00000014 	andeq	r0, r0, r4, lsl r0
 268:	0000023c 	andeq	r0, r0, ip, lsr r2
 26c:	000088f8 	strdeq	r8, [r0], -r8	; <UNPREDICTABLE>
 270:	00000090 	muleq	r0, r0, r0
 274:	83080e42 	movwhi	r0, #36418	; 0x8e42
 278:	00018e02 	andeq	r8, r1, r2, lsl #28
 27c:	0000000c 	andeq	r0, r0, ip
 280:	ffffffff 			; <UNDEFINED> instruction: 0xffffffff
 284:	7c020001 	stcvc	0, cr0, [r2], {1}
 288:	000d0c0e 	andeq	r0, sp, lr, lsl #24
 28c:	0000000c 	andeq	r0, r0, ip
 290:	0000027c 	andeq	r0, r0, ip, ror r2
 294:	00008988 	andeq	r8, r0, r8, lsl #19
 298:	00000018 	andeq	r0, r0, r8, lsl r0
 29c:	0000000c 	andeq	r0, r0, ip
 2a0:	0000027c 	andeq	r0, r0, ip, ror r2
 2a4:	000089a0 	andeq	r8, r0, r0, lsr #19
 2a8:	00000014 	andeq	r0, r0, r4, lsl r0
 2ac:	00000014 	andeq	r0, r0, r4, lsl r0
 2b0:	0000027c 	andeq	r0, r0, ip, ror r2
 2b4:	000089b4 			; <UNDEFINED> instruction: 0x000089b4
 2b8:	00000048 	andeq	r0, r0, r8, asr #32
 2bc:	83080e42 	movwhi	r0, #36418	; 0x8e42
 2c0:	00018e02 	andeq	r8, r1, r2, lsl #28
 2c4:	0000000c 	andeq	r0, r0, ip
 2c8:	ffffffff 			; <UNDEFINED> instruction: 0xffffffff
 2cc:	7c020001 	stcvc	0, cr0, [r2], {1}
 2d0:	000d0c0e 	andeq	r0, sp, lr, lsl #24
 2d4:	0000000c 	andeq	r0, r0, ip
 2d8:	000002c4 	andeq	r0, r0, r4, asr #5
 2dc:	000089fc 	strdeq	r8, [r0], -ip
 2e0:	0000001c 	andeq	r0, r0, ip, lsl r0
 2e4:	00000014 	andeq	r0, r0, r4, lsl r0
 2e8:	000002c4 	andeq	r0, r0, r4, asr #5
 2ec:	00008a18 	andeq	r8, r0, r8, lsl sl
 2f0:	00000014 	andeq	r0, r0, r4, lsl r0
 2f4:	83080e42 	movwhi	r0, #36418	; 0x8e42
 2f8:	00018e02 	andeq	r8, r1, r2, lsl #28
 2fc:	00000014 	andeq	r0, r0, r4, lsl r0
 300:	000002c4 	andeq	r0, r0, r4, asr #5
 304:	00008a2c 	andeq	r8, r0, ip, lsr #20
 308:	0000000c 	andeq	r0, r0, ip
 30c:	83080e42 	movwhi	r0, #36418	; 0x8e42
 310:	00018e02 	andeq	r8, r1, r2, lsl #28
 314:	00000018 	andeq	r0, r0, r8, lsl r0
 318:	000002c4 	andeq	r0, r0, r4, asr #5
 31c:	00008a38 	andeq	r8, r0, r8, lsr sl
 320:	00000024 	andeq	r0, r0, r4, lsr #32
 324:	83100e42 	tsthi	r0, #1056	; 0x420
 328:	85038404 	strhi	r8, [r3, #-1028]	; 0x404
 32c:	00018e02 	andeq	r8, r1, r2, lsl #28
 330:	00000014 	andeq	r0, r0, r4, lsl r0
 334:	000002c4 	andeq	r0, r0, r4, asr #5
 338:	00008a5c 	andeq	r8, r0, ip, asr sl
 33c:	00000014 	andeq	r0, r0, r4, lsl r0
 340:	83080e42 	movwhi	r0, #36418	; 0x8e42
 344:	00018e02 	andeq	r8, r1, r2, lsl #28
 348:	00000014 	andeq	r0, r0, r4, lsl r0
 34c:	000002c4 	andeq	r0, r0, r4, asr #5
 350:	00008a70 	andeq	r8, r0, r0, ror sl
 354:	00000014 	andeq	r0, r0, r4, lsl r0
 358:	83080e42 	movwhi	r0, #36418	; 0x8e42
 35c:	00018e02 	andeq	r8, r1, r2, lsl #28
 360:	0000000c 	andeq	r0, r0, ip
 364:	ffffffff 			; <UNDEFINED> instruction: 0xffffffff
 368:	7c020001 	stcvc	0, cr0, [r2], {1}
 36c:	000d0c0e 	andeq	r0, sp, lr, lsl #24
 370:	00000018 	andeq	r0, r0, r8, lsl r0
 374:	00000360 	andeq	r0, r0, r0, ror #6
 378:	00008a84 	andeq	r8, r0, r4, lsl #21
 37c:	000000d4 	ldrdeq	r0, [r0], -r4
 380:	83100e42 	tsthi	r0, #1056	; 0x420
 384:	85038404 	strhi	r8, [r3, #-1028]	; 0x404
 388:	00018e02 	andeq	r8, r1, r2, lsl #28
 38c:	00000014 	andeq	r0, r0, r4, lsl r0
 390:	00000360 	andeq	r0, r0, r0, ror #6
 394:	00008b58 	andeq	r8, r0, r8, asr fp
 398:	00000038 	andeq	r0, r0, r8, lsr r0
 39c:	83080e42 	movwhi	r0, #36418	; 0x8e42
 3a0:	00018e02 	andeq	r8, r1, r2, lsl #28
 3a4:	00000014 	andeq	r0, r0, r4, lsl r0
 3a8:	00000360 	andeq	r0, r0, r0, ror #6
 3ac:	00008b90 	muleq	r0, r0, fp
 3b0:	00000038 	andeq	r0, r0, r8, lsr r0
 3b4:	83080e42 	movwhi	r0, #36418	; 0x8e42
 3b8:	00018e02 	andeq	r8, r1, r2, lsl #28
 3bc:	00000018 	andeq	r0, r0, r8, lsl r0
 3c0:	00000360 	andeq	r0, r0, r0, ror #6
 3c4:	00008bc8 	andeq	r8, r0, r8, asr #23
 3c8:	000000cc 	andeq	r0, r0, ip, asr #1
 3cc:	83100e42 	tsthi	r0, #1056	; 0x420
 3d0:	85038404 	strhi	r8, [r3, #-1028]	; 0x404
 3d4:	00018e02 	andeq	r8, r1, r2, lsl #28
 3d8:	00000014 	andeq	r0, r0, r4, lsl r0
 3dc:	00000360 	andeq	r0, r0, r0, ror #6
 3e0:	00008c94 	muleq	r0, r4, ip
 3e4:	0000004c 	andeq	r0, r0, ip, asr #32
 3e8:	84080e42 	strhi	r0, [r8], #-3650	; 0xe42
 3ec:	00018e02 	andeq	r8, r1, r2, lsl #28
 3f0:	00000014 	andeq	r0, r0, r4, lsl r0
 3f4:	00000360 	andeq	r0, r0, r0, ror #6
 3f8:	00008ce0 	andeq	r8, r0, r0, ror #25
 3fc:	00000024 	andeq	r0, r0, r4, lsr #32
 400:	83080e42 	movwhi	r0, #36418	; 0x8e42
 404:	00018e02 	andeq	r8, r1, r2, lsl #28
 408:	00000018 	andeq	r0, r0, r8, lsl r0
 40c:	00000360 	andeq	r0, r0, r0, ror #6
 410:	00008d04 	andeq	r8, r0, r4, lsl #26
 414:	000000d8 	ldrdeq	r0, [r0], -r8
 418:	84100e42 	ldrhi	r0, [r0], #-3650	; 0xe42
 41c:	86038504 	strhi	r8, [r3], -r4, lsl #10
 420:	00018e02 	andeq	r8, r1, r2, lsl #28
 424:	00000014 	andeq	r0, r0, r4, lsl r0
 428:	00000360 	andeq	r0, r0, r0, ror #6
 42c:	00008ddc 	ldrdeq	r8, [r0], -ip
 430:	00000038 	andeq	r0, r0, r8, lsr r0
 434:	83080e42 	movwhi	r0, #36418	; 0x8e42
 438:	00018e02 	andeq	r8, r1, r2, lsl #28
 43c:	00000014 	andeq	r0, r0, r4, lsl r0
 440:	00000360 	andeq	r0, r0, r0, ror #6
 444:	00008e14 	andeq	r8, r0, r4, lsl lr
 448:	0000002c 	andeq	r0, r0, ip, lsr #32
 44c:	83080e42 	movwhi	r0, #36418	; 0x8e42
 450:	00018e02 	andeq	r8, r1, r2, lsl #28
 454:	00000018 	andeq	r0, r0, r8, lsl r0
 458:	00000360 	andeq	r0, r0, r0, ror #6
 45c:	00008e40 	andeq	r8, r0, r0, asr #28
 460:	00000084 	andeq	r0, r0, r4, lsl #1
 464:	83100e42 	tsthi	r0, #1056	; 0x420
 468:	85038404 	strhi	r8, [r3, #-1028]	; 0x404
 46c:	00018e02 	andeq	r8, r1, r2, lsl #28
 470:	00000018 	andeq	r0, r0, r8, lsl r0
 474:	00000360 	andeq	r0, r0, r0, ror #6
 478:	00008ec4 	andeq	r8, r0, r4, asr #29
 47c:	00000084 	andeq	r0, r0, r4, lsl #1
 480:	83100e42 	tsthi	r0, #1056	; 0x420
 484:	85038404 	strhi	r8, [r3, #-1028]	; 0x404
 488:	00018e02 	andeq	r8, r1, r2, lsl #28
 48c:	00000014 	andeq	r0, r0, r4, lsl r0
 490:	00000360 	andeq	r0, r0, r0, ror #6
 494:	00008f48 	andeq	r8, r0, r8, asr #30
 498:	00000084 	andeq	r0, r0, r4, lsl #1
 49c:	84080e42 	strhi	r0, [r8], #-3650	; 0xe42
 4a0:	00018e02 	andeq	r8, r1, r2, lsl #28
 4a4:	00000014 	andeq	r0, r0, r4, lsl r0
 4a8:	00000360 	andeq	r0, r0, r0, ror #6
 4ac:	00008fcc 	andeq	r8, r0, ip, asr #31
 4b0:	00000058 	andeq	r0, r0, r8, asr r0
 4b4:	84080e42 	strhi	r0, [r8], #-3650	; 0xe42
 4b8:	00018e02 	andeq	r8, r1, r2, lsl #28
 4bc:	0000000c 	andeq	r0, r0, ip
 4c0:	ffffffff 			; <UNDEFINED> instruction: 0xffffffff
 4c4:	7c020001 	stcvc	0, cr0, [r2], {1}
 4c8:	000d0c0e 	andeq	r0, sp, lr, lsl #24
 4cc:	0000001c 	andeq	r0, r0, ip, lsl r0
 4d0:	000004bc 			; <UNDEFINED> instruction: 0x000004bc
 4d4:	00009024 	andeq	r9, r0, r4, lsr #32
 4d8:	00000154 	andeq	r0, r0, r4, asr r1
 4dc:	84180e42 	ldrhi	r0, [r8], #-3650	; 0xe42
 4e0:	86058506 	strhi	r8, [r5], -r6, lsl #10
 4e4:	88038704 	stmdahi	r3, {r2, r8, r9, sl, pc}
 4e8:	00018e02 	andeq	r8, r1, r2, lsl #28
 4ec:	00000020 	andeq	r0, r0, r0, lsr #32
 4f0:	000004bc 			; <UNDEFINED> instruction: 0x000004bc
 4f4:	00009178 	andeq	r9, r0, r8, ror r1
 4f8:	000001c8 	andeq	r0, r0, r8, asr #3
 4fc:	83200e42 	teqhi	r0, #1056	; 0x420
 500:	85078408 	strhi	r8, [r7, #-1032]	; 0x408
 504:	87058606 	strhi	r8, [r5, -r6, lsl #12]
 508:	89038804 	stmdbhi	r3, {r2, fp, pc}
 50c:	00018e02 	andeq	r8, r1, r2, lsl #28
 510:	00000024 	andeq	r0, r0, r4, lsr #32
 514:	000004bc 			; <UNDEFINED> instruction: 0x000004bc
 518:	00009340 	andeq	r9, r0, r0, asr #6
 51c:	000000a4 	andeq	r0, r0, r4, lsr #1
 520:	84200e42 	strthi	r0, [r0], #-3650	; 0xe42
 524:	86078508 	strhi	r8, [r7], -r8, lsl #10
 528:	88058706 	stmdahi	r5, {r1, r2, r8, r9, sl, pc}
 52c:	8a038904 	bhi	e2944 <__bss_end__+0xd8924>
 530:	42018e02 	andmi	r8, r1, #2, 28
 534:	0000280e 	andeq	r2, r0, lr, lsl #16
 538:	00000020 	andeq	r0, r0, r0, lsr #32
 53c:	000004bc 			; <UNDEFINED> instruction: 0x000004bc
 540:	000093e4 	andeq	r9, r0, r4, ror #7
 544:	00000090 	muleq	r0, r0, r0
 548:	84180e42 	ldrhi	r0, [r8], #-3650	; 0xe42
 54c:	86058506 	strhi	r8, [r5], -r6, lsl #10
 550:	88038704 	stmdahi	r3, {r2, r8, r9, sl, pc}
 554:	42018e02 	andmi	r8, r1, #2, 28
 558:	0000200e 	andeq	r2, r0, lr
 55c:	00000020 	andeq	r0, r0, r0, lsr #32
 560:	000004bc 			; <UNDEFINED> instruction: 0x000004bc
 564:	00009474 	andeq	r9, r0, r4, ror r4
 568:	000000d4 	ldrdeq	r0, [r0], -r4
 56c:	84180e42 	ldrhi	r0, [r8], #-3650	; 0xe42
 570:	86058506 	strhi	r8, [r5], -r6, lsl #10
 574:	88038704 	stmdahi	r3, {r2, r8, r9, sl, pc}
 578:	42018e02 	andmi	r8, r1, #2, 28
 57c:	0000200e 	andeq	r2, r0, lr
 580:	00000014 	andeq	r0, r0, r4, lsl r0
 584:	000004bc 			; <UNDEFINED> instruction: 0x000004bc
 588:	00009548 	andeq	r9, r0, r8, asr #10
 58c:	0000003c 	andeq	r0, r0, ip, lsr r0
 590:	83080e42 	movwhi	r0, #36418	; 0x8e42
 594:	00018e02 	andeq	r8, r1, r2, lsl #28
 598:	00000018 	andeq	r0, r0, r8, lsl r0
 59c:	000004bc 			; <UNDEFINED> instruction: 0x000004bc
 5a0:	00009584 	andeq	r9, r0, r4, lsl #11
 5a4:	0000002c 	andeq	r0, r0, ip, lsr #32
 5a8:	83100e42 	tsthi	r0, #1056	; 0x420
 5ac:	85038404 	strhi	r8, [r3, #-1028]	; 0x404
 5b0:	00018e02 	andeq	r8, r1, r2, lsl #28
 5b4:	00000024 	andeq	r0, r0, r4, lsr #32
 5b8:	000004bc 			; <UNDEFINED> instruction: 0x000004bc
 5bc:	000095b0 			; <UNDEFINED> instruction: 0x000095b0
 5c0:	00000090 	muleq	r0, r0, r0
 5c4:	810c0e42 	tsthi	ip, r2, asr #28
 5c8:	83028203 	movwhi	r8, #8707	; 0x2203
 5cc:	180e4201 	stmdane	lr, {r0, r9, lr}
 5d0:	05850684 	streq	r0, [r5, #1668]	; 0x684
 5d4:	0e42048e 	cdpeq	4, 4, cr0, cr2, cr14, {4}
 5d8:	000003f0 	strdeq	r0, [r0], -r0	; <UNPREDICTABLE>
 5dc:	00000014 	andeq	r0, r0, r4, lsl r0
 5e0:	000004bc 			; <UNDEFINED> instruction: 0x000004bc
 5e4:	00009640 	andeq	r9, r0, r0, asr #12
 5e8:	0000004c 	andeq	r0, r0, ip, asr #32
 5ec:	8e040e42 	cdphi	14, 0, cr0, cr4, cr2, {2}
 5f0:	100e4201 	andne	r4, lr, r1, lsl #4
 5f4:	0000000c 	andeq	r0, r0, ip
 5f8:	ffffffff 			; <UNDEFINED> instruction: 0xffffffff
 5fc:	7c020001 	stcvc	0, cr0, [r2], {1}
 600:	000d0c0e 	andeq	r0, sp, lr, lsl #24
 604:	00000018 	andeq	r0, r0, r8, lsl r0
 608:	000005f4 	strdeq	r0, [r0], -r4
 60c:	0000968c 	andeq	r9, r0, ip, lsl #13
 610:	0000009c 	muleq	r0, ip, r0
 614:	83100e42 	tsthi	r0, #1056	; 0x420
 618:	85038404 	strhi	r8, [r3, #-1028]	; 0x404
 61c:	00018e02 	andeq	r8, r1, r2, lsl #28
 620:	00000014 	andeq	r0, r0, r4, lsl r0
 624:	000005f4 	strdeq	r0, [r0], -r4
 628:	00009728 	andeq	r9, r0, r8, lsr #14
 62c:	0000001c 	andeq	r0, r0, ip, lsl r0
 630:	83080e42 	movwhi	r0, #36418	; 0x8e42
 634:	00018e02 	andeq	r8, r1, r2, lsl #28
 638:	00000014 	andeq	r0, r0, r4, lsl r0
 63c:	000005f4 	strdeq	r0, [r0], -r4
 640:	00009744 	andeq	r9, r0, r4, asr #14
 644:	00000028 	andeq	r0, r0, r8, lsr #32
 648:	83080e42 	movwhi	r0, #36418	; 0x8e42
 64c:	00018e02 	andeq	r8, r1, r2, lsl #28
 650:	00000014 	andeq	r0, r0, r4, lsl r0
 654:	000005f4 	strdeq	r0, [r0], -r4
 658:	0000976c 	andeq	r9, r0, ip, ror #14
 65c:	0000001c 	andeq	r0, r0, ip, lsl r0
 660:	83080e42 	movwhi	r0, #36418	; 0x8e42
 664:	00018e02 	andeq	r8, r1, r2, lsl #28
 668:	00000014 	andeq	r0, r0, r4, lsl r0
 66c:	000005f4 	strdeq	r0, [r0], -r4
 670:	00009788 	andeq	r9, r0, r8, lsl #15
 674:	0000002c 	andeq	r0, r0, ip, lsr #32
 678:	84080e42 	strhi	r0, [r8], #-3650	; 0xe42
 67c:	00018e02 	andeq	r8, r1, r2, lsl #28
 680:	00000014 	andeq	r0, r0, r4, lsl r0
 684:	000005f4 	strdeq	r0, [r0], -r4
 688:	000097b4 			; <UNDEFINED> instruction: 0x000097b4
 68c:	0000000c 	andeq	r0, r0, ip
 690:	83080e42 	movwhi	r0, #36418	; 0x8e42
 694:	00018e02 	andeq	r8, r1, r2, lsl #28
 698:	00000014 	andeq	r0, r0, r4, lsl r0
 69c:	000005f4 	strdeq	r0, [r0], -r4
 6a0:	000097c0 	andeq	r9, r0, r0, asr #15
 6a4:	00000020 	andeq	r0, r0, r0, lsr #32
 6a8:	83080e42 	movwhi	r0, #36418	; 0x8e42
 6ac:	00018e02 	andeq	r8, r1, r2, lsl #28
 6b0:	0000000c 	andeq	r0, r0, ip
 6b4:	ffffffff 			; <UNDEFINED> instruction: 0xffffffff
 6b8:	7c020001 	stcvc	0, cr0, [r2], {1}
 6bc:	000d0c0e 	andeq	r0, sp, lr, lsl #24
 6c0:	00000014 	andeq	r0, r0, r4, lsl r0
 6c4:	000006b0 			; <UNDEFINED> instruction: 0x000006b0
 6c8:	00009844 	andeq	r9, r0, r4, asr #16
 6cc:	00000028 	andeq	r0, r0, r8, lsr #32
 6d0:	83080e42 	movwhi	r0, #36418	; 0x8e42
 6d4:	00018e02 	andeq	r8, r1, r2, lsl #28
 6d8:	0000000c 	andeq	r0, r0, ip
 6dc:	000006b0 			; <UNDEFINED> instruction: 0x000006b0
 6e0:	0000986c 	andeq	r9, r0, ip, ror #16
 6e4:	00000028 	andeq	r0, r0, r8, lsr #32
 6e8:	0000000c 	andeq	r0, r0, ip
 6ec:	ffffffff 			; <UNDEFINED> instruction: 0xffffffff
 6f0:	7c020001 	stcvc	0, cr0, [r2], {1}
 6f4:	000d0c0e 	andeq	r0, sp, lr, lsl #24
 6f8:	0000000c 	andeq	r0, r0, ip
 6fc:	000006e8 	andeq	r0, r0, r8, ror #13
 700:	00009894 	muleq	r0, r4, r8
 704:	00000020 	andeq	r0, r0, r0, lsr #32
