
scope.elf:     file format elf32-littlearm


Disassembly of section .text:

00008000 <_start>:
    8000:	e3a0d302 	mov	sp, #134217728	; 0x8000000
    8004:	e3a0b000 	mov	fp, #0
    8008:	eb0001f7 	bl	87ec <_cstart>
    800c:	eb000225 	bl	88a8 <rpi_reboot>

00008010 <cycles_per_sec>:
    8010:	e3500001 	cmp	r0, #1
    8014:	e92d4010 	push	{r4, lr}
    8018:	8a000006 	bhi	8038 <cycles_per_sec+0x28>
    801c:	ee1f4f3c 	mrc	15, 0, r4, cr15, cr12, {1}
    8020:	e3a03ffa 	mov	r3, #1000	; 0x3e8
    8024:	e0000093 	mul	r0, r3, r0
    8028:	eb000248 	bl	8950 <delay_ms>
    802c:	ee1f0f3c 	mrc	15, 0, r0, cr15, cr12, {1}
    8030:	e0640000 	rsb	r0, r4, r0
    8034:	e8bd8010 	pop	{r4, pc}
    8038:	eb000079 	bl	8224 <rpi_reset_putc>
    803c:	e59f1010 	ldr	r1, [pc, #16]	; 8054 <cycles_per_sec+0x44>
    8040:	e59f2010 	ldr	r2, [pc, #16]	; 8058 <cycles_per_sec+0x48>
    8044:	e3a0300e 	mov	r3, #14
    8048:	e59f000c 	ldr	r0, [pc, #12]	; 805c <cycles_per_sec+0x4c>
    804c:	eb000059 	bl	81b8 <printk>
    8050:	eb0001d3 	bl	87a4 <clean_reboot>
    8054:	00009884 	andeq	r9, r0, r4, lsl #17
    8058:	00009844 	andeq	r9, r0, r4, asr #16
    805c:	00009854 	andeq	r9, r0, r4, asr r8

00008060 <scope>:
    8060:	e92d43f8 	push	{r3, r4, r5, r6, r7, r8, r9, lr}
    8064:	e1a04000 	mov	r4, r0
    8068:	e1a07001 	mov	r7, r1
    806c:	e1a08002 	mov	r8, r2
    8070:	eb0002c4 	bl	8b88 <gpio_read>
    8074:	e1a06450 	asr	r6, r0, r4
    8078:	e1a00004 	mov	r0, r4
    807c:	eb0002c1 	bl	8b88 <gpio_read>
    8080:	e1a05450 	asr	r5, r0, r4
    8084:	e1550006 	cmp	r5, r6
    8088:	0afffffa 	beq	8078 <scope+0x18>
    808c:	ee1f9f3c 	mrc	15, 0, r9, cr15, cr12, {1}
    8090:	e3a06000 	mov	r6, #0
    8094:	e1580006 	cmp	r8, r6
    8098:	3a00000d 	bcc	80d4 <scope+0x74>
    809c:	e1a00004 	mov	r0, r4
    80a0:	eb0002b8 	bl	8b88 <gpio_read>
    80a4:	e1a00450 	asr	r0, r0, r4
    80a8:	e1550000 	cmp	r5, r0
    80ac:	0afffffa 	beq	809c <scope+0x3c>
    80b0:	e5870000 	str	r0, [r7]
    80b4:	ee1f2f3c 	mrc	15, 0, r2, cr15, cr12, {1}
    80b8:	e0699002 	rsb	r9, r9, r2
    80bc:	e5879004 	str	r9, [r7, #4]
    80c0:	ee1f9f3c 	mrc	15, 0, r9, cr15, cr12, {1}
    80c4:	e2866001 	add	r6, r6, #1
    80c8:	e2877008 	add	r7, r7, #8
    80cc:	e1a05000 	mov	r5, r0
    80d0:	eaffffef 	b	8094 <scope+0x34>
    80d4:	e1a00006 	mov	r0, r6
    80d8:	e8bd83f8 	pop	{r3, r4, r5, r6, r7, r8, r9, pc}

000080dc <dump_samples>:
    80dc:	e92d47f0 	push	{r4, r5, r6, r7, r8, r9, sl, lr}
    80e0:	e2519001 	subs	r9, r1, #1
    80e4:	e24dd010 	sub	sp, sp, #16
    80e8:	e1a0a000 	mov	sl, r0
    80ec:	e1a08002 	mov	r8, r2
    80f0:	0a00001a 	beq	8160 <dump_samples+0x84>
    80f4:	e3a02000 	mov	r2, #0
    80f8:	e1a01002 	mov	r1, r2
    80fc:	e1a06002 	mov	r6, r2
    8100:	e1a05002 	mov	r5, r2
    8104:	e1a04008 	mov	r4, r8
    8108:	ea000001 	b	8114 <dump_samples+0x38>
    810c:	e1a01007 	mov	r1, r7
    8110:	e1a02007 	mov	r2, r7
    8114:	e1a02182 	lsl	r2, r2, #3
    8118:	e08a3002 	add	r3, sl, r2
    811c:	e5933004 	ldr	r3, [r3, #4]
    8120:	e79a2002 	ldr	r2, [sl, r2]
    8124:	e0855003 	add	r5, r5, r3
    8128:	e1550004 	cmp	r5, r4
    812c:	80640005 	rsbhi	r0, r4, r5
    8130:	90650004 	rsbls	r0, r5, r4
    8134:	e0866000 	add	r6, r6, r0
    8138:	e2817001 	add	r7, r1, #1
    813c:	e58d4004 	str	r4, [sp, #4]
    8140:	e58d0008 	str	r0, [sp, #8]
    8144:	e58d600c 	str	r6, [sp, #12]
    8148:	e58d5000 	str	r5, [sp]
    814c:	e59f0014 	ldr	r0, [pc, #20]	; 8168 <dump_samples+0x8c>
    8150:	eb000018 	bl	81b8 <printk>
    8154:	e1570009 	cmp	r7, r9
    8158:	e0844008 	add	r4, r4, r8
    815c:	1affffea 	bne	810c <dump_samples+0x30>
    8160:	e28dd010 	add	sp, sp, #16
    8164:	e8bd87f0 	pop	{r4, r5, r6, r7, r8, r9, sl, pc}
    8168:	0000988c 	andeq	r9, r0, ip, lsl #17

0000816c <notmain>:
    816c:	e52de004 	push	{lr}		; (str lr, [sp, #-4]!)
    8170:	e3a00015 	mov	r0, #21
    8174:	e24dd054 	sub	sp, sp, #84	; 0x54
    8178:	eb00024f 	bl	8abc <gpio_set_input>
    817c:	e3a03001 	mov	r3, #1
    8180:	ee0f3f1c 	mcr	15, 0, r3, cr15, cr12, {0}
    8184:	e3a00001 	mov	r0, #1
    8188:	ebffffa0 	bl	8010 <cycles_per_sec>
    818c:	e1a0100d 	mov	r1, sp
    8190:	e1a03000 	mov	r3, r0
    8194:	e3a0200a 	mov	r2, #10
    8198:	e3a00015 	mov	r0, #21
    819c:	ebffffaf 	bl	8060 <scope>
    81a0:	e59f200c 	ldr	r2, [pc, #12]	; 81b4 <notmain+0x48>
    81a4:	e1a01000 	mov	r1, r0
    81a8:	e1a0000d 	mov	r0, sp
    81ac:	ebffffca 	bl	80dc <dump_samples>
    81b0:	eb00017b 	bl	87a4 <clean_reboot>
    81b4:	00001770 	andeq	r1, r0, r0, ror r7

000081b8 <printk>:
    81b8:	e92d000f 	push	{r0, r1, r2, r3}
    81bc:	e92d4030 	push	{r4, r5, lr}
    81c0:	e24dd00c 	sub	sp, sp, #12
    81c4:	e28d301c 	add	r3, sp, #28
    81c8:	e58d3004 	str	r3, [sp, #4]
    81cc:	e59f4034 	ldr	r4, [pc, #52]	; 8208 <printk+0x50>
    81d0:	e1a00004 	mov	r0, r4
    81d4:	e3a01b01 	mov	r1, #1024	; 0x400
    81d8:	e59d2018 	ldr	r2, [sp, #24]
    81dc:	eb0000cb 	bl	8510 <va_printk>
    81e0:	e1a05000 	mov	r5, r0
    81e4:	e59f3020 	ldr	r3, [pc, #32]	; 820c <printk+0x54>
    81e8:	e5933000 	ldr	r3, [r3]
    81ec:	e1a00004 	mov	r0, r4
    81f0:	e12fff33 	blx	r3
    81f4:	e1a00005 	mov	r0, r5
    81f8:	e28dd00c 	add	sp, sp, #12
    81fc:	e8bd4030 	pop	{r4, r5, lr}
    8200:	e28dd010 	add	sp, sp, #16
    8204:	e12fff1e 	bx	lr
    8208:	00009b04 	andeq	r9, r0, r4, lsl #22
    820c:	000097ac 	andeq	r9, r0, ip, lsr #15

00008210 <internal_putchar>:
    8210:	e92d4010 	push	{r4, lr}
    8214:	e1a04000 	mov	r4, r0
    8218:	eb000517 	bl	967c <uart_putc>
    821c:	e1a00004 	mov	r0, r4
    8220:	e8bd8010 	pop	{r4, pc}

00008224 <rpi_reset_putc>:
    8224:	e59f2008 	ldr	r2, [pc, #8]	; 8234 <rpi_reset_putc+0x10>
    8228:	e59f3008 	ldr	r3, [pc, #8]	; 8238 <rpi_reset_putc+0x14>
    822c:	e5832000 	str	r2, [r3]
    8230:	e12fff1e 	bx	lr
    8234:	00008210 	andeq	r8, r0, r0, lsl r2
    8238:	000097a8 	andeq	r9, r0, r8, lsr #15

0000823c <rpi_set_putc>:
    823c:	e59f3004 	ldr	r3, [pc, #4]	; 8248 <rpi_set_putc+0xc>
    8240:	e5830000 	str	r0, [r3]
    8244:	e12fff1e 	bx	lr
    8248:	000097a8 	andeq	r9, r0, r8, lsr #15

0000824c <internal_putk>:
    824c:	e92d4038 	push	{r3, r4, r5, lr}
    8250:	e1a04000 	mov	r4, r0
    8254:	e59f5020 	ldr	r5, [pc, #32]	; 827c <internal_putk+0x30>
    8258:	ea000002 	b	8268 <internal_putk+0x1c>
    825c:	e5953000 	ldr	r3, [r5]
    8260:	e12fff33 	blx	r3
    8264:	e2844001 	add	r4, r4, #1
    8268:	e5d40000 	ldrb	r0, [r4]
    826c:	e3500000 	cmp	r0, #0
    8270:	1afffff9 	bne	825c <internal_putk+0x10>
    8274:	e3a00001 	mov	r0, #1
    8278:	e8bd8038 	pop	{r3, r4, r5, pc}
    827c:	000097a8 	andeq	r9, r0, r8, lsr #15

00008280 <isdigit>:
    8280:	e2400030 	sub	r0, r0, #48	; 0x30
    8284:	e3500009 	cmp	r0, #9
    8288:	83a00000 	movhi	r0, #0
    828c:	93a00001 	movls	r0, #1
    8290:	e12fff1e 	bx	lr

00008294 <pad>:
    8294:	e0611000 	rsb	r1, r1, r0
    8298:	e3a03020 	mov	r3, #32
    829c:	ea000002 	b	82ac <pad+0x18>
    82a0:	e5c03000 	strb	r3, [r0]
    82a4:	e2811001 	add	r1, r1, #1
    82a8:	e2800001 	add	r0, r0, #1
    82ac:	e1510002 	cmp	r1, r2
    82b0:	bafffffa 	blt	82a0 <pad+0xc>
    82b4:	e3a03000 	mov	r3, #0
    82b8:	e5c03000 	strb	r3, [r0]
    82bc:	e12fff1e 	bx	lr

000082c0 <reverse>:
    82c0:	e063c002 	rsb	ip, r3, r2
    82c4:	e28cc001 	add	ip, ip, #1
    82c8:	e15c0001 	cmp	ip, r1
    82cc:	c061100c 	rsbgt	r1, r1, ip
    82d0:	c0833001 	addgt	r3, r3, r1
    82d4:	e2422001 	sub	r2, r2, #1
    82d8:	e1a01000 	mov	r1, r0
    82dc:	ea000002 	b	82ec <reverse+0x2c>
    82e0:	e452c001 	ldrb	ip, [r2], #-1
    82e4:	e5c1c000 	strb	ip, [r1]
    82e8:	e2811001 	add	r1, r1, #1
    82ec:	e1520003 	cmp	r2, r3
    82f0:	2afffffa 	bcs	82e0 <reverse+0x20>
    82f4:	e3a03000 	mov	r3, #0
    82f8:	e5c13000 	strb	r3, [r1]
    82fc:	e12fff1e 	bx	lr

00008300 <emit>:
    8300:	e92d41f0 	push	{r4, r5, r6, r7, r8, lr}
    8304:	e24dd048 	sub	sp, sp, #72	; 0x48
    8308:	e1a05001 	mov	r5, r1
    830c:	e1a04002 	mov	r4, r2
    8310:	e59d2060 	ldr	r2, [sp, #96]	; 0x60
    8314:	e1520004 	cmp	r2, r4
    8318:	c2442001 	subgt	r2, r4, #1
    831c:	e1a0c003 	mov	ip, r3
    8320:	e2400002 	sub	r0, r0, #2
    8324:	e350000e 	cmp	r0, #14
    8328:	979ff100 	ldrls	pc, [pc, r0, lsl #2]
    832c:	ea000042 	b	843c <emit+0x13c>
    8330:	00008414 	andeq	r8, r0, r4, lsl r4
    8334:	0000843c 	andeq	r8, r0, ip, lsr r4
    8338:	0000843c 	andeq	r8, r0, ip, lsr r4
    833c:	0000843c 	andeq	r8, r0, ip, lsr r4
    8340:	0000843c 	andeq	r8, r0, ip, lsr r4
    8344:	0000843c 	andeq	r8, r0, ip, lsr r4
    8348:	00008408 	andeq	r8, r0, r8, lsl #8
    834c:	0000843c 	andeq	r8, r0, ip, lsr r4
    8350:	0000836c 	andeq	r8, r0, ip, ror #6
    8354:	0000843c 	andeq	r8, r0, ip, lsr r4
    8358:	0000843c 	andeq	r8, r0, ip, lsr r4
    835c:	0000843c 	andeq	r8, r0, ip, lsr r4
    8360:	0000843c 	andeq	r8, r0, ip, lsr r4
    8364:	0000843c 	andeq	r8, r0, ip, lsr r4
    8368:	000083e0 	andeq	r8, r0, r0, ror #7
    836c:	e59d1064 	ldr	r1, [sp, #100]	; 0x64
    8370:	e2911000 	adds	r1, r1, #0
    8374:	13a01001 	movne	r1, #1
    8378:	e0111fa3 	ands	r1, r1, r3, lsr #31
    837c:	1263c000 	rsbne	ip, r3, #0
    8380:	13a08001 	movne	r8, #1
    8384:	03a08000 	moveq	r8, #0
    8388:	e28d1008 	add	r1, sp, #8
    838c:	e59f70f4 	ldr	r7, [pc, #244]	; 8488 <emit+0x188>
    8390:	e59f60f4 	ldr	r6, [pc, #244]	; 848c <emit+0x18c>
    8394:	ea000000 	b	839c <emit+0x9c>
    8398:	e1a01003 	mov	r1, r3
    839c:	e2813001 	add	r3, r1, #1
    83a0:	e08e0c97 	umull	r0, lr, r7, ip
    83a4:	e1a0e1ae 	lsr	lr, lr, #3
    83a8:	e1a0000e 	mov	r0, lr
    83ac:	e08ee10e 	add	lr, lr, lr, lsl #2
    83b0:	e1a0e08e 	lsl	lr, lr, #1
    83b4:	e06ee00c 	rsb	lr, lr, ip
    83b8:	e7d6c00e 	ldrb	ip, [r6, lr]
    83bc:	e5c1c000 	strb	ip, [r1]
    83c0:	e1a0c000 	mov	ip, r0
    83c4:	e3500000 	cmp	r0, #0
    83c8:	1afffff2 	bne	8398 <emit+0x98>
    83cc:	e3580000 	cmp	r8, #0
    83d0:	12813002 	addne	r3, r1, #2
    83d4:	13a0002d 	movne	r0, #45	; 0x2d
    83d8:	15c10001 	strbne	r0, [r1, #1]
    83dc:	ea00001f 	b	8460 <emit+0x160>
    83e0:	e28de008 	add	lr, sp, #8
    83e4:	e59f00a4 	ldr	r0, [pc, #164]	; 8490 <emit+0x190>
    83e8:	e28e3001 	add	r3, lr, #1
    83ec:	e20c100f 	and	r1, ip, #15
    83f0:	e7d01001 	ldrb	r1, [r0, r1]
    83f4:	e5ce1000 	strb	r1, [lr]
    83f8:	e1a0e003 	mov	lr, r3
    83fc:	e1b0c22c 	lsrs	ip, ip, #4
    8400:	1afffff8 	bne	83e8 <emit+0xe8>
    8404:	ea000015 	b	8460 <emit+0x160>
    8408:	e5cd3008 	strb	r3, [sp, #8]
    840c:	e28d3009 	add	r3, sp, #9
    8410:	ea000012 	b	8460 <emit+0x160>
    8414:	e28de008 	add	lr, sp, #8
    8418:	e59f0074 	ldr	r0, [pc, #116]	; 8494 <emit+0x194>
    841c:	e28e3001 	add	r3, lr, #1
    8420:	e20c1001 	and	r1, ip, #1
    8424:	e7d01001 	ldrb	r1, [r0, r1]
    8428:	e5ce1000 	strb	r1, [lr]
    842c:	e1a0e003 	mov	lr, r3
    8430:	e1b0c0ac 	lsrs	ip, ip, #1
    8434:	1afffff8 	bne	841c <emit+0x11c>
    8438:	ea000008 	b	8460 <emit+0x160>
    843c:	ebffff78 	bl	8224 <rpi_reset_putc>
    8440:	e59f3050 	ldr	r3, [pc, #80]	; 8498 <emit+0x198>
    8444:	e58d3000 	str	r3, [sp]
    8448:	e59f004c 	ldr	r0, [pc, #76]	; 849c <emit+0x19c>
    844c:	e59f104c 	ldr	r1, [pc, #76]	; 84a0 <emit+0x1a0>
    8450:	e59f204c 	ldr	r2, [pc, #76]	; 84a4 <emit+0x1a4>
    8454:	e3a03075 	mov	r3, #117	; 0x75
    8458:	ebffff56 	bl	81b8 <printk>
    845c:	eb0000d0 	bl	87a4 <clean_reboot>
    8460:	e1a00003 	mov	r0, r3
    8464:	e28d1008 	add	r1, sp, #8
    8468:	ebffff89 	bl	8294 <pad>
    846c:	e1a02000 	mov	r2, r0
    8470:	e1a00005 	mov	r0, r5
    8474:	e1a01004 	mov	r1, r4
    8478:	e28d3008 	add	r3, sp, #8
    847c:	ebffff8f 	bl	82c0 <reverse>
    8480:	e28dd048 	add	sp, sp, #72	; 0x48
    8484:	e8bd81f0 	pop	{r4, r5, r6, r7, r8, pc}
    8488:	cccccccd 	stclgt	12, cr12, [ip], {205}	; 0xcd
    848c:	00009918 	andeq	r9, r0, r8, lsl r9
    8490:	00009924 	andeq	r9, r0, r4, lsr #18
    8494:	00009938 	andeq	r9, r0, r8, lsr r9
    8498:	00009914 	andeq	r9, r0, r4, lsl r9
    849c:	000098ec 	andeq	r9, r0, ip, ror #17
    84a0:	00009900 	andeq	r9, r0, r0, lsl #18
    84a4:	000098c8 	andeq	r9, r0, r8, asr #17

000084a8 <rpi_set_output>:
    84a8:	e52de004 	push	{lr}		; (str lr, [sp, #-4]!)
    84ac:	e24dd00c 	sub	sp, sp, #12
    84b0:	e3500000 	cmp	r0, #0
    84b4:	1a000008 	bne	84dc <rpi_set_output+0x34>
    84b8:	ebffff59 	bl	8224 <rpi_reset_putc>
    84bc:	e59f3034 	ldr	r3, [pc, #52]	; 84f8 <rpi_set_output+0x50>
    84c0:	e58d3000 	str	r3, [sp]
    84c4:	e59f0030 	ldr	r0, [pc, #48]	; 84fc <rpi_set_output+0x54>
    84c8:	e59f1030 	ldr	r1, [pc, #48]	; 8500 <rpi_set_output+0x58>
    84cc:	e59f2030 	ldr	r2, [pc, #48]	; 8504 <rpi_set_output+0x5c>
    84d0:	e3a03020 	mov	r3, #32
    84d4:	ebffff37 	bl	81b8 <printk>
    84d8:	eb0000b1 	bl	87a4 <clean_reboot>
    84dc:	e59f3024 	ldr	r3, [pc, #36]	; 8508 <rpi_set_output+0x60>
    84e0:	e5830000 	str	r0, [r3]
    84e4:	e3510000 	cmp	r1, #0
    84e8:	159f301c 	ldrne	r3, [pc, #28]	; 850c <rpi_set_output+0x64>
    84ec:	15831000 	strne	r1, [r3]
    84f0:	e28dd00c 	add	sp, sp, #12
    84f4:	e49df004 	pop	{pc}		; (ldr pc, [sp], #4)
    84f8:	0000993c 	andeq	r9, r0, ip, lsr r9
    84fc:	000098ec 	andeq	r9, r0, ip, ror #17
    8500:	00009900 	andeq	r9, r0, r0, lsl #18
    8504:	000098d0 	ldrdeq	r9, [r0], -r0
    8508:	000097a8 	andeq	r9, r0, r8, lsr #15
    850c:	000097ac 	andeq	r9, r0, ip, lsr #15

00008510 <va_printk>:
    8510:	e92d4ff0 	push	{r4, r5, r6, r7, r8, r9, sl, fp, lr}
    8514:	e24dd08c 	sub	sp, sp, #140	; 0x8c
    8518:	e1a0a000 	mov	sl, r0
    851c:	e1a09003 	mov	r9, r3
    8520:	e2411001 	sub	r1, r1, #1
    8524:	e0808001 	add	r8, r0, r1
    8528:	e3a03000 	mov	r3, #0
    852c:	e5c03000 	strb	r3, [r0]
    8530:	e1a04000 	mov	r4, r0
    8534:	e1a0b003 	mov	fp, r3
    8538:	ea000088 	b	8760 <va_printk+0x250>
    853c:	e3530025 	cmp	r3, #37	; 0x25
    8540:	12822001 	addne	r2, r2, #1
    8544:	15c43000 	strbne	r3, [r4]
    8548:	12844001 	addne	r4, r4, #1
    854c:	1a000083 	bne	8760 <va_printk+0x250>
    8550:	e5d21001 	ldrb	r1, [r2, #1]
    8554:	e3510025 	cmp	r1, #37	; 0x25
    8558:	05c43000 	strbeq	r3, [r4]
    855c:	02822002 	addeq	r2, r2, #2
    8560:	02844001 	addeq	r4, r4, #1
    8564:	0a00007d 	beq	8760 <va_printk+0x250>
    8568:	e2826001 	add	r6, r2, #1
    856c:	e1a0700b 	mov	r7, fp
    8570:	ea000004 	b	8588 <va_printk+0x78>
    8574:	e0877107 	add	r7, r7, r7, lsl #2
    8578:	e1a07087 	lsl	r7, r7, #1
    857c:	e0877005 	add	r7, r7, r5
    8580:	e2477030 	sub	r7, r7, #48	; 0x30
    8584:	e2866001 	add	r6, r6, #1
    8588:	e5d65000 	ldrb	r5, [r6]
    858c:	e1a00005 	mov	r0, r5
    8590:	ebffff3a 	bl	8280 <isdigit>
    8594:	e3500000 	cmp	r0, #0
    8598:	1afffff5 	bne	8574 <va_printk+0x64>
    859c:	e357001f 	cmp	r7, #31
    85a0:	9a000008 	bls	85c8 <va_printk+0xb8>
    85a4:	ebffff1e 	bl	8224 <rpi_reset_putc>
    85a8:	e59f31dc 	ldr	r3, [pc, #476]	; 878c <va_printk+0x27c>
    85ac:	e58d3000 	str	r3, [sp]
    85b0:	e59f01d8 	ldr	r0, [pc, #472]	; 8790 <va_printk+0x280>
    85b4:	e59f11d8 	ldr	r1, [pc, #472]	; 8794 <va_printk+0x284>
    85b8:	e59f21d8 	ldr	r2, [pc, #472]	; 8798 <va_printk+0x288>
    85bc:	e3a03092 	mov	r3, #146	; 0x92
    85c0:	ebfffefc 	bl	81b8 <printk>
    85c4:	eb000076 	bl	87a4 <clean_reboot>
    85c8:	e2455062 	sub	r5, r5, #98	; 0x62
    85cc:	e3550016 	cmp	r5, #22
    85d0:	979ff105 	ldrls	pc, [pc, r5, lsl #2]
    85d4:	ea00004e 	b	8714 <va_printk+0x204>
    85d8:	000086c0 	andeq	r8, r0, r0, asr #13
    85dc:	000086f0 	strdeq	r8, [r0], -r0
    85e0:	00008650 	andeq	r8, r0, r0, asr r6
    85e4:	00008714 	andeq	r8, r0, r4, lsl r7
    85e8:	00008634 	andeq	r8, r0, r4, lsr r6
    85ec:	00008714 	andeq	r8, r0, r4, lsl r7
    85f0:	00008714 	andeq	r8, r0, r4, lsl r7
    85f4:	00008714 	andeq	r8, r0, r4, lsl r7
    85f8:	00008714 	andeq	r8, r0, r4, lsl r7
    85fc:	00008714 	andeq	r8, r0, r4, lsl r7
    8600:	00008714 	andeq	r8, r0, r4, lsl r7
    8604:	00008714 	andeq	r8, r0, r4, lsl r7
    8608:	00008714 	andeq	r8, r0, r4, lsl r7
    860c:	00008714 	andeq	r8, r0, r4, lsl r7
    8610:	0000869c 	muleq	r0, ip, r6
    8614:	00008714 	andeq	r8, r0, r4, lsl r7
    8618:	00008714 	andeq	r8, r0, r4, lsl r7
    861c:	000086e4 	andeq	r8, r0, r4, ror #13
    8620:	00008714 	andeq	r8, r0, r4, lsl r7
    8624:	00008678 	andeq	r8, r0, r8, ror r6
    8628:	00008714 	andeq	r8, r0, r4, lsl r7
    862c:	00008714 	andeq	r8, r0, r4, lsl r7
    8630:	0000869c 	muleq	r0, ip, r6
    8634:	ebfffefa 	bl	8224 <rpi_reset_putc>
    8638:	e59f015c 	ldr	r0, [pc, #348]	; 879c <va_printk+0x28c>
    863c:	e59f1150 	ldr	r1, [pc, #336]	; 8794 <va_printk+0x284>
    8640:	e59f2150 	ldr	r2, [pc, #336]	; 8798 <va_printk+0x288>
    8644:	e3a03098 	mov	r3, #152	; 0x98
    8648:	ebfffeda 	bl	81b8 <printk>
    864c:	eb000054 	bl	87a4 <clean_reboot>
    8650:	e5993000 	ldr	r3, [r9]
    8654:	e2899004 	add	r9, r9, #4
    8658:	e58d7000 	str	r7, [sp]
    865c:	e3a02001 	mov	r2, #1
    8660:	e58d2004 	str	r2, [sp, #4]
    8664:	e3a0000a 	mov	r0, #10
    8668:	e28d1008 	add	r1, sp, #8
    866c:	e3a02080 	mov	r2, #128	; 0x80
    8670:	ebffff22 	bl	8300 <emit>
    8674:	ea00002f 	b	8738 <va_printk+0x228>
    8678:	e5993000 	ldr	r3, [r9]
    867c:	e2899004 	add	r9, r9, #4
    8680:	e58d7000 	str	r7, [sp]
    8684:	e58db004 	str	fp, [sp, #4]
    8688:	e3a0000a 	mov	r0, #10
    868c:	e28d1008 	add	r1, sp, #8
    8690:	e3a02080 	mov	r2, #128	; 0x80
    8694:	ebffff19 	bl	8300 <emit>
    8698:	ea000026 	b	8738 <va_printk+0x228>
    869c:	e5993000 	ldr	r3, [r9]
    86a0:	e2899004 	add	r9, r9, #4
    86a4:	e58d7000 	str	r7, [sp]
    86a8:	e58db004 	str	fp, [sp, #4]
    86ac:	e3a00010 	mov	r0, #16
    86b0:	e28d1008 	add	r1, sp, #8
    86b4:	e3a02080 	mov	r2, #128	; 0x80
    86b8:	ebffff10 	bl	8300 <emit>
    86bc:	ea00001d 	b	8738 <va_printk+0x228>
    86c0:	e5993000 	ldr	r3, [r9]
    86c4:	e2899004 	add	r9, r9, #4
    86c8:	e58d7000 	str	r7, [sp]
    86cc:	e58db004 	str	fp, [sp, #4]
    86d0:	e3a00002 	mov	r0, #2
    86d4:	e28d1008 	add	r1, sp, #8
    86d8:	e3a02080 	mov	r2, #128	; 0x80
    86dc:	ebffff07 	bl	8300 <emit>
    86e0:	ea000014 	b	8738 <va_printk+0x228>
    86e4:	e5990000 	ldr	r0, [r9]
    86e8:	e2899004 	add	r9, r9, #4
    86ec:	ea000011 	b	8738 <va_printk+0x228>
    86f0:	e5993000 	ldr	r3, [r9]
    86f4:	e2899004 	add	r9, r9, #4
    86f8:	e58d7000 	str	r7, [sp]
    86fc:	e58db004 	str	fp, [sp, #4]
    8700:	e3a00008 	mov	r0, #8
    8704:	e08d1000 	add	r1, sp, r0
    8708:	e3a02080 	mov	r2, #128	; 0x80
    870c:	ebfffefb 	bl	8300 <emit>
    8710:	ea000008 	b	8738 <va_printk+0x228>
    8714:	ebfffec2 	bl	8224 <rpi_reset_putc>
    8718:	e5d63000 	ldrb	r3, [r6]
    871c:	e58d3000 	str	r3, [sp]
    8720:	e59f0078 	ldr	r0, [pc, #120]	; 87a0 <va_printk+0x290>
    8724:	e59f1068 	ldr	r1, [pc, #104]	; 8794 <va_printk+0x284>
    8728:	e59f2068 	ldr	r2, [pc, #104]	; 8798 <va_printk+0x288>
    872c:	e3a030b9 	mov	r3, #185	; 0xb9
    8730:	ebfffea0 	bl	81b8 <printk>
    8734:	eb00001a 	bl	87a4 <clean_reboot>
    8738:	e2862001 	add	r2, r6, #1
    873c:	ea000002 	b	874c <va_printk+0x23c>
    8740:	e2800001 	add	r0, r0, #1
    8744:	e5c43000 	strb	r3, [r4]
    8748:	e2844001 	add	r4, r4, #1
    874c:	e1540008 	cmp	r4, r8
    8750:	2a000002 	bcs	8760 <va_printk+0x250>
    8754:	e5d03000 	ldrb	r3, [r0]
    8758:	e3530000 	cmp	r3, #0
    875c:	1afffff7 	bne	8740 <va_printk+0x230>
    8760:	e5d23000 	ldrb	r3, [r2]
    8764:	e3530000 	cmp	r3, #0
    8768:	0a000001 	beq	8774 <va_printk+0x264>
    876c:	e1540008 	cmp	r4, r8
    8770:	3affff71 	bcc	853c <va_printk+0x2c>
    8774:	e2840001 	add	r0, r4, #1
    8778:	e3a03000 	mov	r3, #0
    877c:	e5c43000 	strb	r3, [r4]
    8780:	e06a0000 	rsb	r0, sl, r0
    8784:	e28dd08c 	add	sp, sp, #140	; 0x8c
    8788:	e8bd8ff0 	pop	{r4, r5, r6, r7, r8, r9, sl, fp, pc}
    878c:	00009944 	andeq	r9, r0, r4, asr #18
    8790:	000098ec 	andeq	r9, r0, ip, ror #17
    8794:	00009900 	andeq	r9, r0, r0, lsl #18
    8798:	000098e0 	andeq	r9, r0, r0, ror #17
    879c:	00009950 	andeq	r9, r0, r0, asr r9
    87a0:	00009978 	andeq	r9, r0, r8, ror r9

000087a4 <clean_reboot>:
    87a4:	e92d4008 	push	{r3, lr}
    87a8:	e59f3014 	ldr	r3, [pc, #20]	; 87c4 <clean_reboot+0x20>
    87ac:	e5933000 	ldr	r3, [r3]
    87b0:	e59f0010 	ldr	r0, [pc, #16]	; 87c8 <clean_reboot+0x24>
    87b4:	e12fff33 	blx	r3
    87b8:	e3a00064 	mov	r0, #100	; 0x64
    87bc:	eb000063 	bl	8950 <delay_ms>
    87c0:	eb000038 	bl	88a8 <rpi_reboot>
    87c4:	000097ac 	andeq	r9, r0, ip, lsr #15
    87c8:	000099b0 			; <UNDEFINED> instruction: 0x000099b0

000087cc <internal_sw_putchar>:
    87cc:	e92d4010 	push	{r4, lr}
    87d0:	e1a04000 	mov	r4, r0
    87d4:	e59f000c 	ldr	r0, [pc, #12]	; 87e8 <internal_sw_putchar+0x1c>
    87d8:	e6ef1074 	uxtb	r1, r4
    87dc:	eb0001cd 	bl	8f18 <sw_uart_putc>
    87e0:	e1a00004 	mov	r0, r4
    87e4:	e8bd8010 	pop	{r4, pc}
    87e8:	00009f04 	andeq	r9, r0, r4, lsl #30

000087ec <_cstart>:
    87ec:	e92d4008 	push	{r3, lr}
    87f0:	e59f3068 	ldr	r3, [pc, #104]	; 8860 <_cstart+0x74>
    87f4:	e59f2068 	ldr	r2, [pc, #104]	; 8864 <_cstart+0x78>
    87f8:	e3a01000 	mov	r1, #0
    87fc:	ea000001 	b	8808 <_cstart+0x1c>
    8800:	e5831000 	str	r1, [r3]
    8804:	e2833004 	add	r3, r3, #4
    8808:	e1530002 	cmp	r3, r2
    880c:	3afffffb 	bcc	8800 <_cstart+0x14>
    8810:	eb0003d2 	bl	9760 <cb_get_block>
    8814:	e3500000 	cmp	r0, #0
    8818:	0a00000e 	beq	8858 <_cstart+0x6c>
    881c:	e5d02004 	ldrb	r2, [r0, #4]
    8820:	e3520002 	cmp	r2, #2
    8824:	1a00000b 	bne	8858 <_cstart+0x6c>
    8828:	e59f1038 	ldr	r1, [pc, #56]	; 8868 <_cstart+0x7c>
    882c:	e59f2038 	ldr	r2, [pc, #56]	; 886c <_cstart+0x80>
    8830:	e5821000 	str	r1, [r2]
    8834:	e59fc034 	ldr	ip, [pc, #52]	; 8870 <_cstart+0x84>
    8838:	e2803008 	add	r3, r0, #8
    883c:	e8930007 	ldm	r3, {r0, r1, r2}
    8840:	e88c0007 	stm	ip, {r0, r1, r2}
    8844:	e1a0000c 	mov	r0, ip
    8848:	e59f1024 	ldr	r1, [pc, #36]	; 8874 <_cstart+0x88>
    884c:	eb000314 	bl	94a4 <sw_uart_printk>
    8850:	e59f0020 	ldr	r0, [pc, #32]	; 8878 <_cstart+0x8c>
    8854:	ebfffe57 	bl	81b8 <printk>
    8858:	ebfffe43 	bl	816c <notmain>
    885c:	eb000011 	bl	88a8 <rpi_reboot>
    8860:	00009b04 	andeq	r9, r0, r4, lsl #22
    8864:	00009f10 	andeq	r9, r0, r0, lsl pc
    8868:	000087cc 	andeq	r8, r0, ip, asr #15
    886c:	000097a8 	andeq	r9, r0, r8, lsr #15
    8870:	00009f04 	andeq	r9, r0, r4, lsl #30
    8874:	000099bc 			; <UNDEFINED> instruction: 0x000099bc
    8878:	000099e0 	andeq	r9, r0, r0, ror #19

0000887c <at_user_level>:
    887c:	e10f0000 	mrs	r0, CPSR
    8880:	e200001f 	and	r0, r0, #31
    8884:	e3500010 	cmp	r0, #16
    8888:	13a00000 	movne	r0, #0
    888c:	03a00001 	moveq	r0, #1
    8890:	e12fff1e 	bx	lr

00008894 <set_user_level>:
    8894:	e10f3000 	mrs	r3, CPSR
    8898:	e3c3301f 	bic	r3, r3, #31
    889c:	e3833010 	orr	r3, r3, #16
    88a0:	e129f003 	msr	CPSR_fc, r3
    88a4:	e12fff1e 	bx	lr

000088a8 <rpi_reboot>:
    88a8:	e92d4008 	push	{r3, lr}
    88ac:	ebfffff2 	bl	887c <at_user_level>
    88b0:	e3500000 	cmp	r0, #0
    88b4:	0a000000 	beq	88bc <rpi_reboot+0x14>
    88b8:	ebfffff5 	bl	8894 <set_user_level>
    88bc:	e3a0001e 	mov	r0, #30
    88c0:	eb000022 	bl	8950 <delay_ms>
    88c4:	e59f0014 	ldr	r0, [pc, #20]	; 88e0 <rpi_reboot+0x38>
    88c8:	e59f1014 	ldr	r1, [pc, #20]	; 88e4 <rpi_reboot+0x3c>
    88cc:	eb000388 	bl	96f4 <PUT32>
    88d0:	e59f0010 	ldr	r0, [pc, #16]	; 88e8 <rpi_reboot+0x40>
    88d4:	e59f1010 	ldr	r1, [pc, #16]	; 88ec <rpi_reboot+0x44>
    88d8:	eb000385 	bl	96f4 <PUT32>
    88dc:	eafffffe 	b	88dc <rpi_reboot+0x34>
    88e0:	20100024 	andscs	r0, r0, r4, lsr #32
    88e4:	5a000001 	bpl	88f0 <delay_cycles>
    88e8:	2010001c 	andscs	r0, r0, ip, lsl r0
    88ec:	5a000020 	bpl	8974 <delay_sec+0x10>

000088f0 <delay_cycles>:
    88f0:	ea000001 	b	88fc <delay_cycles+0xc>
    88f4:	e2811000 	add	r1, r1, #0
    88f8:	e1a00003 	mov	r0, r3
    88fc:	e2403001 	sub	r3, r0, #1
    8900:	e3500000 	cmp	r0, #0
    8904:	1afffffa 	bne	88f4 <delay_cycles+0x4>
    8908:	e12fff1e 	bx	lr

0000890c <timer_get_usec_raw>:
    890c:	e92d4008 	push	{r3, lr}
    8910:	e59f0004 	ldr	r0, [pc, #4]	; 891c <timer_get_usec_raw+0x10>
    8914:	eb000382 	bl	9724 <GET32>
    8918:	e8bd8008 	pop	{r3, pc}
    891c:	20003004 	andcs	r3, r0, r4

00008920 <timer_get_usec>:
    8920:	e92d4008 	push	{r3, lr}
    8924:	ebfffff8 	bl	890c <timer_get_usec_raw>
    8928:	e8bd8008 	pop	{r3, pc}

0000892c <delay_us>:
    892c:	e92d4038 	push	{r3, r4, r5, lr}
    8930:	e1a05000 	mov	r5, r0
    8934:	ebfffff9 	bl	8920 <timer_get_usec>
    8938:	e1a04000 	mov	r4, r0
    893c:	ebfffff7 	bl	8920 <timer_get_usec>
    8940:	e0640000 	rsb	r0, r4, r0
    8944:	e1500005 	cmp	r0, r5
    8948:	3afffffb 	bcc	893c <delay_us+0x10>
    894c:	e8bd8038 	pop	{r3, r4, r5, pc}

00008950 <delay_ms>:
    8950:	e92d4008 	push	{r3, lr}
    8954:	e3a03ffa 	mov	r3, #1000	; 0x3e8
    8958:	e0000093 	mul	r0, r3, r0
    895c:	ebfffff2 	bl	892c <delay_us>
    8960:	e8bd8008 	pop	{r3, pc}

00008964 <delay_sec>:
    8964:	e92d4008 	push	{r3, lr}
    8968:	e3a03ffa 	mov	r3, #1000	; 0x3e8
    896c:	e0000093 	mul	r0, r3, r0
    8970:	ebfffff6 	bl	8950 <delay_ms>
    8974:	e8bd8008 	pop	{r3, pc}

00008978 <gpio_set_output>:
    8978:	e92d4038 	push	{r3, r4, r5, lr}
    897c:	e1a04000 	mov	r4, r0
    8980:	e350001f 	cmp	r0, #31
    8984:	88bd8038 	pophi	{r3, r4, r5, pc}
    8988:	e59f30b4 	ldr	r3, [pc, #180]	; 8a44 <gpio_set_output+0xcc>
    898c:	e0832093 	umull	r2, r3, r3, r0
    8990:	e1a031a3 	lsr	r3, r3, #3
    8994:	e3530005 	cmp	r3, #5
    8998:	979ff103 	ldrls	pc, [pc, r3, lsl #2]
    899c:	ea000017 	b	8a00 <gpio_set_output+0x88>
    89a0:	000089b8 			; <UNDEFINED> instruction: 0x000089b8
    89a4:	000089c4 	andeq	r8, r0, r4, asr #19
    89a8:	000089d0 	ldrdeq	r8, [r0], -r0
    89ac:	000089dc 	ldrdeq	r8, [r0], -ip
    89b0:	000089e8 	andeq	r8, r0, r8, ror #19
    89b4:	000089f4 	strdeq	r8, [r0], -r4
    89b8:	e59f3088 	ldr	r3, [pc, #136]	; 8a48 <gpio_set_output+0xd0>
    89bc:	e5935000 	ldr	r5, [r3]
    89c0:	ea00000f 	b	8a04 <gpio_set_output+0x8c>
    89c4:	e59f307c 	ldr	r3, [pc, #124]	; 8a48 <gpio_set_output+0xd0>
    89c8:	e5935004 	ldr	r5, [r3, #4]
    89cc:	ea00000c 	b	8a04 <gpio_set_output+0x8c>
    89d0:	e59f3070 	ldr	r3, [pc, #112]	; 8a48 <gpio_set_output+0xd0>
    89d4:	e5935008 	ldr	r5, [r3, #8]
    89d8:	ea000009 	b	8a04 <gpio_set_output+0x8c>
    89dc:	e59f3064 	ldr	r3, [pc, #100]	; 8a48 <gpio_set_output+0xd0>
    89e0:	e593500c 	ldr	r5, [r3, #12]
    89e4:	ea000006 	b	8a04 <gpio_set_output+0x8c>
    89e8:	e59f3058 	ldr	r3, [pc, #88]	; 8a48 <gpio_set_output+0xd0>
    89ec:	e5935010 	ldr	r5, [r3, #16]
    89f0:	ea000003 	b	8a04 <gpio_set_output+0x8c>
    89f4:	e59f304c 	ldr	r3, [pc, #76]	; 8a48 <gpio_set_output+0xd0>
    89f8:	e5935014 	ldr	r5, [r3, #20]
    89fc:	ea000000 	b	8a04 <gpio_set_output+0x8c>
    8a00:	e3a05000 	mov	r5, #0
    8a04:	e1a00005 	mov	r0, r5
    8a08:	eb000343 	bl	971c <get32>
    8a0c:	e59f1030 	ldr	r1, [pc, #48]	; 8a44 <gpio_set_output+0xcc>
    8a10:	e0813491 	umull	r3, r1, r1, r4
    8a14:	e1a011a1 	lsr	r1, r1, #3
    8a18:	e0811101 	add	r1, r1, r1, lsl #2
    8a1c:	e1a01081 	lsl	r1, r1, #1
    8a20:	e0611004 	rsb	r1, r1, r4
    8a24:	e0811081 	add	r1, r1, r1, lsl #1
    8a28:	e3a03007 	mov	r3, #7
    8a2c:	e1c03113 	bic	r3, r0, r3, lsl r1
    8a30:	e1a00005 	mov	r0, r5
    8a34:	e3a02001 	mov	r2, #1
    8a38:	e1831112 	orr	r1, r3, r2, lsl r1
    8a3c:	eb00032a 	bl	96ec <put32>
    8a40:	e8bd8038 	pop	{r3, r4, r5, pc}
    8a44:	cccccccd 	stclgt	12, cr12, [ip], {205}	; 0xcd
    8a48:	000097b0 			; <UNDEFINED> instruction: 0x000097b0

00008a4c <gpio_set_on>:
    8a4c:	e92d4008 	push	{r3, lr}
    8a50:	e350001f 	cmp	r0, #31
    8a54:	88bd8008 	pophi	{r3, pc}
    8a58:	959f3020 	ldrls	r3, [pc, #32]	; 8a80 <gpio_set_on+0x34>
    8a5c:	95932018 	ldrls	r2, [r3, #24]
    8a60:	859f3018 	ldrhi	r3, [pc, #24]	; 8a80 <gpio_set_on+0x34>
    8a64:	8593201c 	ldrhi	r2, [r3, #28]
    8a68:	e200301f 	and	r3, r0, #31
    8a6c:	e1a00002 	mov	r0, r2
    8a70:	e3a01001 	mov	r1, #1
    8a74:	e1a01311 	lsl	r1, r1, r3
    8a78:	eb00031b 	bl	96ec <put32>
    8a7c:	e8bd8008 	pop	{r3, pc}
    8a80:	000097b0 			; <UNDEFINED> instruction: 0x000097b0

00008a84 <gpio_set_off>:
    8a84:	e92d4008 	push	{r3, lr}
    8a88:	e350001f 	cmp	r0, #31
    8a8c:	88bd8008 	pophi	{r3, pc}
    8a90:	959f3020 	ldrls	r3, [pc, #32]	; 8ab8 <gpio_set_off+0x34>
    8a94:	95932020 	ldrls	r2, [r3, #32]
    8a98:	859f3018 	ldrhi	r3, [pc, #24]	; 8ab8 <gpio_set_off+0x34>
    8a9c:	85932024 	ldrhi	r2, [r3, #36]	; 0x24
    8aa0:	e200301f 	and	r3, r0, #31
    8aa4:	e1a00002 	mov	r0, r2
    8aa8:	e3a01001 	mov	r1, #1
    8aac:	e1a01311 	lsl	r1, r1, r3
    8ab0:	eb00030d 	bl	96ec <put32>
    8ab4:	e8bd8008 	pop	{r3, pc}
    8ab8:	000097b0 			; <UNDEFINED> instruction: 0x000097b0

00008abc <gpio_set_input>:
    8abc:	e92d4038 	push	{r3, r4, r5, lr}
    8ac0:	e1a04000 	mov	r4, r0
    8ac4:	e350001f 	cmp	r0, #31
    8ac8:	88bd8038 	pophi	{r3, r4, r5, pc}
    8acc:	e59f30ac 	ldr	r3, [pc, #172]	; 8b80 <gpio_set_input+0xc4>
    8ad0:	e0832093 	umull	r2, r3, r3, r0
    8ad4:	e1a031a3 	lsr	r3, r3, #3
    8ad8:	e3530005 	cmp	r3, #5
    8adc:	979ff103 	ldrls	pc, [pc, r3, lsl #2]
    8ae0:	ea000017 	b	8b44 <gpio_set_input+0x88>
    8ae4:	00008afc 	strdeq	r8, [r0], -ip
    8ae8:	00008b08 	andeq	r8, r0, r8, lsl #22
    8aec:	00008b14 	andeq	r8, r0, r4, lsl fp
    8af0:	00008b20 	andeq	r8, r0, r0, lsr #22
    8af4:	00008b2c 	andeq	r8, r0, ip, lsr #22
    8af8:	00008b38 	andeq	r8, r0, r8, lsr fp
    8afc:	e59f3080 	ldr	r3, [pc, #128]	; 8b84 <gpio_set_input+0xc8>
    8b00:	e5935000 	ldr	r5, [r3]
    8b04:	ea00000f 	b	8b48 <gpio_set_input+0x8c>
    8b08:	e59f3074 	ldr	r3, [pc, #116]	; 8b84 <gpio_set_input+0xc8>
    8b0c:	e5935004 	ldr	r5, [r3, #4]
    8b10:	ea00000c 	b	8b48 <gpio_set_input+0x8c>
    8b14:	e59f3068 	ldr	r3, [pc, #104]	; 8b84 <gpio_set_input+0xc8>
    8b18:	e5935008 	ldr	r5, [r3, #8]
    8b1c:	ea000009 	b	8b48 <gpio_set_input+0x8c>
    8b20:	e59f305c 	ldr	r3, [pc, #92]	; 8b84 <gpio_set_input+0xc8>
    8b24:	e593500c 	ldr	r5, [r3, #12]
    8b28:	ea000006 	b	8b48 <gpio_set_input+0x8c>
    8b2c:	e59f3050 	ldr	r3, [pc, #80]	; 8b84 <gpio_set_input+0xc8>
    8b30:	e5935010 	ldr	r5, [r3, #16]
    8b34:	ea000003 	b	8b48 <gpio_set_input+0x8c>
    8b38:	e59f3044 	ldr	r3, [pc, #68]	; 8b84 <gpio_set_input+0xc8>
    8b3c:	e5935014 	ldr	r5, [r3, #20]
    8b40:	ea000000 	b	8b48 <gpio_set_input+0x8c>
    8b44:	e3a05000 	mov	r5, #0
    8b48:	e1a00005 	mov	r0, r5
    8b4c:	eb0002f2 	bl	971c <get32>
    8b50:	e59f1028 	ldr	r1, [pc, #40]	; 8b80 <gpio_set_input+0xc4>
    8b54:	e0813491 	umull	r3, r1, r1, r4
    8b58:	e1a011a1 	lsr	r1, r1, #3
    8b5c:	e0811101 	add	r1, r1, r1, lsl #2
    8b60:	e1a01081 	lsl	r1, r1, #1
    8b64:	e0611004 	rsb	r1, r1, r4
    8b68:	e0811081 	add	r1, r1, r1, lsl #1
    8b6c:	e3a03007 	mov	r3, #7
    8b70:	e1c01113 	bic	r1, r0, r3, lsl r1
    8b74:	e1a00005 	mov	r0, r5
    8b78:	eb0002db 	bl	96ec <put32>
    8b7c:	e8bd8038 	pop	{r3, r4, r5, pc}
    8b80:	cccccccd 	stclgt	12, cr12, [ip], {205}	; 0xcd
    8b84:	000097b0 			; <UNDEFINED> instruction: 0x000097b0

00008b88 <gpio_read>:
    8b88:	e92d4010 	push	{r4, lr}
    8b8c:	e1a04000 	mov	r4, r0
    8b90:	e350001f 	cmp	r0, #31
    8b94:	8a00000b 	bhi	8bc8 <gpio_read+0x40>
    8b98:	8a000003 	bhi	8bac <gpio_read+0x24>
    8b9c:	e59f302c 	ldr	r3, [pc, #44]	; 8bd0 <gpio_read+0x48>
    8ba0:	e5930028 	ldr	r0, [r3, #40]	; 0x28
    8ba4:	eb0002dc 	bl	971c <get32>
    8ba8:	ea000002 	b	8bb8 <gpio_read+0x30>
    8bac:	e59f301c 	ldr	r3, [pc, #28]	; 8bd0 <gpio_read+0x48>
    8bb0:	e593002c 	ldr	r0, [r3, #44]	; 0x2c
    8bb4:	eb0002d8 	bl	971c <get32>
    8bb8:	e204401f 	and	r4, r4, #31
    8bbc:	e3a03001 	mov	r3, #1
    8bc0:	e0000413 	and	r0, r0, r3, lsl r4
    8bc4:	e8bd8010 	pop	{r4, pc}
    8bc8:	e3e00000 	mvn	r0, #0
    8bcc:	e8bd8010 	pop	{r4, pc}
    8bd0:	000097b0 			; <UNDEFINED> instruction: 0x000097b0

00008bd4 <gpio_write>:
    8bd4:	e92d4008 	push	{r3, lr}
    8bd8:	e350001f 	cmp	r0, #31
    8bdc:	88bd8008 	pophi	{r3, pc}
    8be0:	e3510000 	cmp	r1, #0
    8be4:	0a000001 	beq	8bf0 <gpio_write+0x1c>
    8be8:	ebffff97 	bl	8a4c <gpio_set_on>
    8bec:	e8bd8008 	pop	{r3, pc}
    8bf0:	ebffffa3 	bl	8a84 <gpio_set_off>
    8bf4:	e8bd8008 	pop	{r3, pc}

00008bf8 <gpio_set_function>:
    8bf8:	e92d4070 	push	{r4, r5, r6, lr}
    8bfc:	e1a04000 	mov	r4, r0
    8c00:	e1a05001 	mov	r5, r1
    8c04:	e3510007 	cmp	r1, #7
    8c08:	9350001f 	cmpls	r0, #31
    8c0c:	88bd8070 	pophi	{r4, r5, r6, pc}
    8c10:	e59f30b0 	ldr	r3, [pc, #176]	; 8cc8 <gpio_set_function+0xd0>
    8c14:	e0832093 	umull	r2, r3, r3, r0
    8c18:	e1a031a3 	lsr	r3, r3, #3
    8c1c:	e3530005 	cmp	r3, #5
    8c20:	979ff103 	ldrls	pc, [pc, r3, lsl #2]
    8c24:	ea000017 	b	8c88 <gpio_set_function+0x90>
    8c28:	00008c40 	andeq	r8, r0, r0, asr #24
    8c2c:	00008c4c 	andeq	r8, r0, ip, asr #24
    8c30:	00008c58 	andeq	r8, r0, r8, asr ip
    8c34:	00008c64 	andeq	r8, r0, r4, ror #24
    8c38:	00008c70 	andeq	r8, r0, r0, ror ip
    8c3c:	00008c7c 	andeq	r8, r0, ip, ror ip
    8c40:	e59f3084 	ldr	r3, [pc, #132]	; 8ccc <gpio_set_function+0xd4>
    8c44:	e5936000 	ldr	r6, [r3]
    8c48:	ea00000f 	b	8c8c <gpio_set_function+0x94>
    8c4c:	e59f3078 	ldr	r3, [pc, #120]	; 8ccc <gpio_set_function+0xd4>
    8c50:	e5936004 	ldr	r6, [r3, #4]
    8c54:	ea00000c 	b	8c8c <gpio_set_function+0x94>
    8c58:	e59f306c 	ldr	r3, [pc, #108]	; 8ccc <gpio_set_function+0xd4>
    8c5c:	e5936008 	ldr	r6, [r3, #8]
    8c60:	ea000009 	b	8c8c <gpio_set_function+0x94>
    8c64:	e59f3060 	ldr	r3, [pc, #96]	; 8ccc <gpio_set_function+0xd4>
    8c68:	e593600c 	ldr	r6, [r3, #12]
    8c6c:	ea000006 	b	8c8c <gpio_set_function+0x94>
    8c70:	e59f3054 	ldr	r3, [pc, #84]	; 8ccc <gpio_set_function+0xd4>
    8c74:	e5936010 	ldr	r6, [r3, #16]
    8c78:	ea000003 	b	8c8c <gpio_set_function+0x94>
    8c7c:	e59f3048 	ldr	r3, [pc, #72]	; 8ccc <gpio_set_function+0xd4>
    8c80:	e5936014 	ldr	r6, [r3, #20]
    8c84:	ea000000 	b	8c8c <gpio_set_function+0x94>
    8c88:	e3a06000 	mov	r6, #0
    8c8c:	e1a00006 	mov	r0, r6
    8c90:	eb0002a1 	bl	971c <get32>
    8c94:	e59f302c 	ldr	r3, [pc, #44]	; 8cc8 <gpio_set_function+0xd0>
    8c98:	e0832493 	umull	r2, r3, r3, r4
    8c9c:	e1a031a3 	lsr	r3, r3, #3
    8ca0:	e0833103 	add	r3, r3, r3, lsl #2
    8ca4:	e1a03083 	lsl	r3, r3, #1
    8ca8:	e0633004 	rsb	r3, r3, r4
    8cac:	e0833083 	add	r3, r3, r3, lsl #1
    8cb0:	e3a01007 	mov	r1, #7
    8cb4:	e1c01311 	bic	r1, r0, r1, lsl r3
    8cb8:	e1a00006 	mov	r0, r6
    8cbc:	e1811315 	orr	r1, r1, r5, lsl r3
    8cc0:	eb000289 	bl	96ec <put32>
    8cc4:	e8bd8070 	pop	{r4, r5, r6, pc}
    8cc8:	cccccccd 	stclgt	12, cr12, [ip], {205}	; 0xcd
    8ccc:	000097b0 			; <UNDEFINED> instruction: 0x000097b0

00008cd0 <gpio_toggle>:
    8cd0:	e92d4008 	push	{r3, lr}
    8cd4:	e350001f 	cmp	r0, #31
    8cd8:	88bd8008 	pophi	{r3, pc}
    8cdc:	959f3020 	ldrls	r3, [pc, #32]	; 8d04 <gpio_toggle+0x34>
    8ce0:	95932018 	ldrls	r2, [r3, #24]
    8ce4:	859f3018 	ldrhi	r3, [pc, #24]	; 8d04 <gpio_toggle+0x34>
    8ce8:	8593201c 	ldrhi	r2, [r3, #28]
    8cec:	e200301f 	and	r3, r0, #31
    8cf0:	e1a00002 	mov	r0, r2
    8cf4:	e3a01001 	mov	r1, #1
    8cf8:	e1a01311 	lsl	r1, r1, r3
    8cfc:	eb00027a 	bl	96ec <put32>
    8d00:	e8bd8008 	pop	{r3, pc}
    8d04:	000097b0 			; <UNDEFINED> instruction: 0x000097b0

00008d08 <is_gpio_int>:
    8d08:	e92d4008 	push	{r3, lr}
    8d0c:	e59f301c 	ldr	r3, [pc, #28]	; 8d30 <is_gpio_int+0x28>
    8d10:	e5930030 	ldr	r0, [r3, #48]	; 0x30
    8d14:	eb000280 	bl	971c <get32>
    8d18:	e3500000 	cmp	r0, #0
    8d1c:	0a000001 	beq	8d28 <is_gpio_int+0x20>
    8d20:	e3a00001 	mov	r0, #1
    8d24:	e8bd8008 	pop	{r3, pc}
    8d28:	e3a00000 	mov	r0, #0
    8d2c:	e8bd8008 	pop	{r3, pc}
    8d30:	000097b0 			; <UNDEFINED> instruction: 0x000097b0

00008d34 <gpio_int_rising_edge>:
    8d34:	e92d4038 	push	{r3, r4, r5, lr}
    8d38:	e1a04000 	mov	r4, r0
    8d3c:	e350001f 	cmp	r0, #31
    8d40:	88bd8038 	pophi	{r3, r4, r5, pc}
    8d44:	eb000262 	bl	96d4 <dev_barrier>
    8d48:	e354001f 	cmp	r4, #31
    8d4c:	8a000007 	bhi	8d70 <gpio_int_rising_edge+0x3c>
    8d50:	e59f505c 	ldr	r5, [pc, #92]	; 8db4 <gpio_int_rising_edge+0x80>
    8d54:	e5950034 	ldr	r0, [r5, #52]	; 0x34
    8d58:	eb00026f 	bl	971c <get32>
    8d5c:	e3a01001 	mov	r1, #1
    8d60:	e1801411 	orr	r1, r0, r1, lsl r4
    8d64:	e5950034 	ldr	r0, [r5, #52]	; 0x34
    8d68:	eb00025f 	bl	96ec <put32>
    8d6c:	ea000007 	b	8d90 <gpio_int_rising_edge+0x5c>
    8d70:	e59f503c 	ldr	r5, [pc, #60]	; 8db4 <gpio_int_rising_edge+0x80>
    8d74:	e5950038 	ldr	r0, [r5, #56]	; 0x38
    8d78:	eb000267 	bl	971c <get32>
    8d7c:	e204401f 	and	r4, r4, #31
    8d80:	e3a01001 	mov	r1, #1
    8d84:	e1801411 	orr	r1, r0, r1, lsl r4
    8d88:	e5950038 	ldr	r0, [r5, #56]	; 0x38
    8d8c:	eb000256 	bl	96ec <put32>
    8d90:	eb00024f 	bl	96d4 <dev_barrier>
    8d94:	e59f4018 	ldr	r4, [pc, #24]	; 8db4 <gpio_int_rising_edge+0x80>
    8d98:	e594003c 	ldr	r0, [r4, #60]	; 0x3c
    8d9c:	eb00025e 	bl	971c <get32>
    8da0:	e3801802 	orr	r1, r0, #131072	; 0x20000
    8da4:	e594003c 	ldr	r0, [r4, #60]	; 0x3c
    8da8:	eb00024f 	bl	96ec <put32>
    8dac:	eb000248 	bl	96d4 <dev_barrier>
    8db0:	e8bd8038 	pop	{r3, r4, r5, pc}
    8db4:	000097b0 			; <UNDEFINED> instruction: 0x000097b0

00008db8 <gpio_int_falling_edge>:
    8db8:	e92d4038 	push	{r3, r4, r5, lr}
    8dbc:	e1a04000 	mov	r4, r0
    8dc0:	e350001f 	cmp	r0, #31
    8dc4:	88bd8038 	pophi	{r3, r4, r5, pc}
    8dc8:	eb000241 	bl	96d4 <dev_barrier>
    8dcc:	e354001f 	cmp	r4, #31
    8dd0:	8a000007 	bhi	8df4 <gpio_int_falling_edge+0x3c>
    8dd4:	e59f505c 	ldr	r5, [pc, #92]	; 8e38 <gpio_int_falling_edge+0x80>
    8dd8:	e5950040 	ldr	r0, [r5, #64]	; 0x40
    8ddc:	eb00024e 	bl	971c <get32>
    8de0:	e3a01001 	mov	r1, #1
    8de4:	e1801411 	orr	r1, r0, r1, lsl r4
    8de8:	e5950040 	ldr	r0, [r5, #64]	; 0x40
    8dec:	eb00023e 	bl	96ec <put32>
    8df0:	ea000007 	b	8e14 <gpio_int_falling_edge+0x5c>
    8df4:	e59f503c 	ldr	r5, [pc, #60]	; 8e38 <gpio_int_falling_edge+0x80>
    8df8:	e5950044 	ldr	r0, [r5, #68]	; 0x44
    8dfc:	eb000246 	bl	971c <get32>
    8e00:	e204401f 	and	r4, r4, #31
    8e04:	e3a01001 	mov	r1, #1
    8e08:	e1801411 	orr	r1, r0, r1, lsl r4
    8e0c:	e5950044 	ldr	r0, [r5, #68]	; 0x44
    8e10:	eb000235 	bl	96ec <put32>
    8e14:	eb00022e 	bl	96d4 <dev_barrier>
    8e18:	e59f4018 	ldr	r4, [pc, #24]	; 8e38 <gpio_int_falling_edge+0x80>
    8e1c:	e594003c 	ldr	r0, [r4, #60]	; 0x3c
    8e20:	eb00023d 	bl	971c <get32>
    8e24:	e3801601 	orr	r1, r0, #1048576	; 0x100000
    8e28:	e594003c 	ldr	r0, [r4, #60]	; 0x3c
    8e2c:	eb00022e 	bl	96ec <put32>
    8e30:	eb000227 	bl	96d4 <dev_barrier>
    8e34:	e8bd8038 	pop	{r3, r4, r5, pc}
    8e38:	000097b0 			; <UNDEFINED> instruction: 0x000097b0

00008e3c <gpio_event_detected>:
    8e3c:	e92d4010 	push	{r4, lr}
    8e40:	e1a04000 	mov	r4, r0
    8e44:	e350001f 	cmp	r0, #31
    8e48:	8a000019 	bhi	8eb4 <gpio_event_detected+0x78>
    8e4c:	eb000220 	bl	96d4 <dev_barrier>
    8e50:	e354001f 	cmp	r4, #31
    8e54:	8a000008 	bhi	8e7c <gpio_event_detected+0x40>
    8e58:	e59f305c 	ldr	r3, [pc, #92]	; 8ebc <gpio_event_detected+0x80>
    8e5c:	e5930048 	ldr	r0, [r3, #72]	; 0x48
    8e60:	eb00022d 	bl	971c <get32>
    8e64:	e3a03001 	mov	r3, #1
    8e68:	e0103413 	ands	r3, r0, r3, lsl r4
    8e6c:	0a00000d 	beq	8ea8 <gpio_event_detected+0x6c>
    8e70:	eb000217 	bl	96d4 <dev_barrier>
    8e74:	e3a00001 	mov	r0, #1
    8e78:	e8bd8010 	pop	{r4, pc}
    8e7c:	e59f3038 	ldr	r3, [pc, #56]	; 8ebc <gpio_event_detected+0x80>
    8e80:	e593004c 	ldr	r0, [r3, #76]	; 0x4c
    8e84:	eb000224 	bl	971c <get32>
    8e88:	e3a03001 	mov	r3, #1
    8e8c:	e0004413 	and	r4, r0, r3, lsl r4
    8e90:	eb00020f 	bl	96d4 <dev_barrier>
    8e94:	e3540000 	cmp	r4, #0
    8e98:	0a000002 	beq	8ea8 <gpio_event_detected+0x6c>
    8e9c:	eb00020c 	bl	96d4 <dev_barrier>
    8ea0:	e3a00001 	mov	r0, #1
    8ea4:	e8bd8010 	pop	{r4, pc}
    8ea8:	eb000209 	bl	96d4 <dev_barrier>
    8eac:	e3a00000 	mov	r0, #0
    8eb0:	e8bd8010 	pop	{r4, pc}
    8eb4:	e3e00000 	mvn	r0, #0
    8eb8:	e8bd8010 	pop	{r4, pc}
    8ebc:	000097b0 			; <UNDEFINED> instruction: 0x000097b0

00008ec0 <gpio_event_clear>:
    8ec0:	e92d4010 	push	{r4, lr}
    8ec4:	e1a04000 	mov	r4, r0
    8ec8:	e350001f 	cmp	r0, #31
    8ecc:	88bd8010 	pophi	{r4, pc}
    8ed0:	eb0001ff 	bl	96d4 <dev_barrier>
    8ed4:	e354001f 	cmp	r4, #31
    8ed8:	8a000005 	bhi	8ef4 <gpio_event_clear+0x34>
    8edc:	e59f3030 	ldr	r3, [pc, #48]	; 8f14 <gpio_event_clear+0x54>
    8ee0:	e5930048 	ldr	r0, [r3, #72]	; 0x48
    8ee4:	e3a01001 	mov	r1, #1
    8ee8:	e1a01411 	lsl	r1, r1, r4
    8eec:	eb0001fe 	bl	96ec <put32>
    8ef0:	ea000005 	b	8f0c <gpio_event_clear+0x4c>
    8ef4:	e204401f 	and	r4, r4, #31
    8ef8:	e59f3014 	ldr	r3, [pc, #20]	; 8f14 <gpio_event_clear+0x54>
    8efc:	e593004c 	ldr	r0, [r3, #76]	; 0x4c
    8f00:	e3a01001 	mov	r1, #1
    8f04:	e1a01411 	lsl	r1, r1, r4
    8f08:	eb0001f7 	bl	96ec <put32>
    8f0c:	eb0001f0 	bl	96d4 <dev_barrier>
    8f10:	e8bd8010 	pop	{r4, pc}
    8f14:	000097b0 			; <UNDEFINED> instruction: 0x000097b0

00008f18 <sw_uart_putc>:
    8f18:	e92d41f0 	push	{r4, r5, r6, r7, r8, lr}
    8f1c:	e1a07001 	mov	r7, r1
    8f20:	e5d06000 	ldrb	r6, [r0]
    8f24:	e5905008 	ldr	r5, [r0, #8]
    8f28:	ee1f4f3c 	mrc	15, 0, r4, cr15, cr12, {1}
    8f2c:	e1a00006 	mov	r0, r6
    8f30:	e3a01000 	mov	r1, #0
    8f34:	ebffff26 	bl	8bd4 <gpio_write>
    8f38:	ee1f3f3c 	mrc	15, 0, r3, cr15, cr12, {1}
    8f3c:	e0643003 	rsb	r3, r4, r3
    8f40:	e1550003 	cmp	r5, r3
    8f44:	8afffffb 	bhi	8f38 <sw_uart_putc+0x20>
    8f48:	e1a08085 	lsl	r8, r5, #1
    8f4c:	e1a00006 	mov	r0, r6
    8f50:	e2071001 	and	r1, r7, #1
    8f54:	ebffff1e 	bl	8bd4 <gpio_write>
    8f58:	ee1f3f3c 	mrc	15, 0, r3, cr15, cr12, {1}
    8f5c:	e0643003 	rsb	r3, r4, r3
    8f60:	e1580003 	cmp	r8, r3
    8f64:	8afffffb 	bhi	8f58 <sw_uart_putc+0x40>
    8f68:	e0888005 	add	r8, r8, r5
    8f6c:	e1a00006 	mov	r0, r6
    8f70:	e2071002 	and	r1, r7, #2
    8f74:	ebffff16 	bl	8bd4 <gpio_write>
    8f78:	ee1f3f3c 	mrc	15, 0, r3, cr15, cr12, {1}
    8f7c:	e0643003 	rsb	r3, r4, r3
    8f80:	e1580003 	cmp	r8, r3
    8f84:	8afffffb 	bhi	8f78 <sw_uart_putc+0x60>
    8f88:	e0888005 	add	r8, r8, r5
    8f8c:	e1a00006 	mov	r0, r6
    8f90:	e2071004 	and	r1, r7, #4
    8f94:	ebffff0e 	bl	8bd4 <gpio_write>
    8f98:	ee1f3f3c 	mrc	15, 0, r3, cr15, cr12, {1}
    8f9c:	e0643003 	rsb	r3, r4, r3
    8fa0:	e1580003 	cmp	r8, r3
    8fa4:	8afffffb 	bhi	8f98 <sw_uart_putc+0x80>
    8fa8:	e0888005 	add	r8, r8, r5
    8fac:	e1a00006 	mov	r0, r6
    8fb0:	e2071008 	and	r1, r7, #8
    8fb4:	ebffff06 	bl	8bd4 <gpio_write>
    8fb8:	ee1f3f3c 	mrc	15, 0, r3, cr15, cr12, {1}
    8fbc:	e0643003 	rsb	r3, r4, r3
    8fc0:	e1580003 	cmp	r8, r3
    8fc4:	8afffffb 	bhi	8fb8 <sw_uart_putc+0xa0>
    8fc8:	e0888005 	add	r8, r8, r5
    8fcc:	e1a00006 	mov	r0, r6
    8fd0:	e2071010 	and	r1, r7, #16
    8fd4:	ebfffefe 	bl	8bd4 <gpio_write>
    8fd8:	ee1f3f3c 	mrc	15, 0, r3, cr15, cr12, {1}
    8fdc:	e0643003 	rsb	r3, r4, r3
    8fe0:	e1580003 	cmp	r8, r3
    8fe4:	8afffffb 	bhi	8fd8 <sw_uart_putc+0xc0>
    8fe8:	e0888005 	add	r8, r8, r5
    8fec:	e1a00006 	mov	r0, r6
    8ff0:	e2071020 	and	r1, r7, #32
    8ff4:	ebfffef6 	bl	8bd4 <gpio_write>
    8ff8:	ee1f3f3c 	mrc	15, 0, r3, cr15, cr12, {1}
    8ffc:	e0643003 	rsb	r3, r4, r3
    9000:	e1580003 	cmp	r8, r3
    9004:	8afffffb 	bhi	8ff8 <sw_uart_putc+0xe0>
    9008:	e0888005 	add	r8, r8, r5
    900c:	e1a00006 	mov	r0, r6
    9010:	e2071040 	and	r1, r7, #64	; 0x40
    9014:	ebfffeee 	bl	8bd4 <gpio_write>
    9018:	ee1f3f3c 	mrc	15, 0, r3, cr15, cr12, {1}
    901c:	e0643003 	rsb	r3, r4, r3
    9020:	e1580003 	cmp	r8, r3
    9024:	8afffffb 	bhi	9018 <sw_uart_putc+0x100>
    9028:	e0888005 	add	r8, r8, r5
    902c:	e1a00006 	mov	r0, r6
    9030:	e2071080 	and	r1, r7, #128	; 0x80
    9034:	ebfffee6 	bl	8bd4 <gpio_write>
    9038:	ee1f3f3c 	mrc	15, 0, r3, cr15, cr12, {1}
    903c:	e0643003 	rsb	r3, r4, r3
    9040:	e1580003 	cmp	r8, r3
    9044:	8afffffb 	bhi	9038 <sw_uart_putc+0x120>
    9048:	e0885005 	add	r5, r8, r5
    904c:	e1a00006 	mov	r0, r6
    9050:	e3a01001 	mov	r1, #1
    9054:	ebfffede 	bl	8bd4 <gpio_write>
    9058:	ee1f3f3c 	mrc	15, 0, r3, cr15, cr12, {1}
    905c:	e0643003 	rsb	r3, r4, r3
    9060:	e1550003 	cmp	r5, r3
    9064:	8afffffb 	bhi	9058 <sw_uart_putc+0x140>
    9068:	e8bd81f0 	pop	{r4, r5, r6, r7, r8, pc}

0000906c <sw_uart_getc_timeout>:
    906c:	e92d43f8 	push	{r3, r4, r5, r6, r7, r8, r9, lr}
    9070:	e1a09000 	mov	r9, r0
    9074:	e5d07001 	ldrb	r7, [r0, #1]
    9078:	e1a05007 	mov	r5, r7
    907c:	e1a06001 	mov	r6, r1
    9080:	ebfffe21 	bl	890c <timer_get_usec_raw>
    9084:	e1a04000 	mov	r4, r0
    9088:	e1a00005 	mov	r0, r5
    908c:	ebfffebd 	bl	8b88 <gpio_read>
    9090:	e3500000 	cmp	r0, #0
    9094:	0a000005 	beq	90b0 <sw_uart_getc_timeout+0x44>
    9098:	ebfffe1b 	bl	890c <timer_get_usec_raw>
    909c:	e0640000 	rsb	r0, r4, r0
    90a0:	e1560000 	cmp	r6, r0
    90a4:	2afffff7 	bcs	9088 <sw_uart_getc_timeout+0x1c>
    90a8:	e3a03000 	mov	r3, #0
    90ac:	ea000000 	b	90b4 <sw_uart_getc_timeout+0x48>
    90b0:	e3a03001 	mov	r3, #1
    90b4:	e3530000 	cmp	r3, #0
    90b8:	0a000059 	beq	9224 <sw_uart_getc_timeout+0x1b8>
    90bc:	ee1f8f3c 	mrc	15, 0, r8, cr15, cr12, {1}
    90c0:	e5994008 	ldr	r4, [r9, #8]
    90c4:	e08420a4 	add	r2, r4, r4, lsr #1
    90c8:	ee1f3f3c 	mrc	15, 0, r3, cr15, cr12, {1}
    90cc:	e0683003 	rsb	r3, r8, r3
    90d0:	e1520003 	cmp	r2, r3
    90d4:	8afffffb 	bhi	90c8 <sw_uart_getc_timeout+0x5c>
    90d8:	e0888004 	add	r8, r8, r4
    90dc:	e1a00007 	mov	r0, r7
    90e0:	ebfffea8 	bl	8b88 <gpio_read>
    90e4:	e1a09750 	asr	r9, r0, r7
    90e8:	ee1f3f3c 	mrc	15, 0, r3, cr15, cr12, {1}
    90ec:	e0683003 	rsb	r3, r8, r3
    90f0:	e1540003 	cmp	r4, r3
    90f4:	8afffffb 	bhi	90e8 <sw_uart_getc_timeout+0x7c>
    90f8:	e0888004 	add	r8, r8, r4
    90fc:	e1a00007 	mov	r0, r7
    9100:	ebfffea0 	bl	8b88 <gpio_read>
    9104:	e1a00750 	asr	r0, r0, r7
    9108:	e1899080 	orr	r9, r9, r0, lsl #1
    910c:	ee1f3f3c 	mrc	15, 0, r3, cr15, cr12, {1}
    9110:	e0683003 	rsb	r3, r8, r3
    9114:	e1540003 	cmp	r4, r3
    9118:	8afffffb 	bhi	910c <sw_uart_getc_timeout+0xa0>
    911c:	e0888004 	add	r8, r8, r4
    9120:	e1a00007 	mov	r0, r7
    9124:	ebfffe97 	bl	8b88 <gpio_read>
    9128:	e1a00750 	asr	r0, r0, r7
    912c:	e1899100 	orr	r9, r9, r0, lsl #2
    9130:	ee1f3f3c 	mrc	15, 0, r3, cr15, cr12, {1}
    9134:	e0683003 	rsb	r3, r8, r3
    9138:	e1540003 	cmp	r4, r3
    913c:	8afffffb 	bhi	9130 <sw_uart_getc_timeout+0xc4>
    9140:	e0888004 	add	r8, r8, r4
    9144:	e1a00007 	mov	r0, r7
    9148:	ebfffe8e 	bl	8b88 <gpio_read>
    914c:	e1a00750 	asr	r0, r0, r7
    9150:	e1899180 	orr	r9, r9, r0, lsl #3
    9154:	ee1f3f3c 	mrc	15, 0, r3, cr15, cr12, {1}
    9158:	e0683003 	rsb	r3, r8, r3
    915c:	e1540003 	cmp	r4, r3
    9160:	8afffffb 	bhi	9154 <sw_uart_getc_timeout+0xe8>
    9164:	e0888004 	add	r8, r8, r4
    9168:	e1a00007 	mov	r0, r7
    916c:	ebfffe85 	bl	8b88 <gpio_read>
    9170:	e1a00750 	asr	r0, r0, r7
    9174:	e1899200 	orr	r9, r9, r0, lsl #4
    9178:	ee1f3f3c 	mrc	15, 0, r3, cr15, cr12, {1}
    917c:	e0683003 	rsb	r3, r8, r3
    9180:	e1540003 	cmp	r4, r3
    9184:	8afffffb 	bhi	9178 <sw_uart_getc_timeout+0x10c>
    9188:	e0888004 	add	r8, r8, r4
    918c:	e1a00007 	mov	r0, r7
    9190:	ebfffe7c 	bl	8b88 <gpio_read>
    9194:	e1a00750 	asr	r0, r0, r7
    9198:	e1899280 	orr	r9, r9, r0, lsl #5
    919c:	ee1f3f3c 	mrc	15, 0, r3, cr15, cr12, {1}
    91a0:	e0683003 	rsb	r3, r8, r3
    91a4:	e1540003 	cmp	r4, r3
    91a8:	8afffffb 	bhi	919c <sw_uart_getc_timeout+0x130>
    91ac:	e0888004 	add	r8, r8, r4
    91b0:	e1a00007 	mov	r0, r7
    91b4:	ebfffe73 	bl	8b88 <gpio_read>
    91b8:	e1a00750 	asr	r0, r0, r7
    91bc:	e1899300 	orr	r9, r9, r0, lsl #6
    91c0:	ee1f3f3c 	mrc	15, 0, r3, cr15, cr12, {1}
    91c4:	e0683003 	rsb	r3, r8, r3
    91c8:	e1540003 	cmp	r4, r3
    91cc:	8afffffb 	bhi	91c0 <sw_uart_getc_timeout+0x154>
    91d0:	e1a00007 	mov	r0, r7
    91d4:	ebfffe6b 	bl	8b88 <gpio_read>
    91d8:	e1a00750 	asr	r0, r0, r7
    91dc:	e1899380 	orr	r9, r9, r0, lsl #7
    91e0:	ebfffdc9 	bl	890c <timer_get_usec_raw>
    91e4:	e1a04000 	mov	r4, r0
    91e8:	e1a00005 	mov	r0, r5
    91ec:	ebfffe65 	bl	8b88 <gpio_read>
    91f0:	e3500000 	cmp	r0, #0
    91f4:	0a000005 	beq	9210 <sw_uart_getc_timeout+0x1a4>
    91f8:	ebfffdc3 	bl	890c <timer_get_usec_raw>
    91fc:	e0640000 	rsb	r0, r4, r0
    9200:	e1560000 	cmp	r6, r0
    9204:	2afffff7 	bcs	91e8 <sw_uart_getc_timeout+0x17c>
    9208:	e3a03000 	mov	r3, #0
    920c:	ea000000 	b	9214 <sw_uart_getc_timeout+0x1a8>
    9210:	e3a03001 	mov	r3, #1
    9214:	e3530000 	cmp	r3, #0
    9218:	0a000003 	beq	922c <sw_uart_getc_timeout+0x1c0>
    921c:	e1a00009 	mov	r0, r9
    9220:	e8bd83f8 	pop	{r3, r4, r5, r6, r7, r8, r9, pc}
    9224:	e3e00000 	mvn	r0, #0
    9228:	e8bd83f8 	pop	{r3, r4, r5, r6, r7, r8, r9, pc}
    922c:	e3e00000 	mvn	r0, #0
    9230:	e8bd83f8 	pop	{r3, r4, r5, r6, r7, r8, r9, pc}

00009234 <sw_uart_gets_until>:
    9234:	e92d47f0 	push	{r4, r5, r6, r7, r8, r9, sl, lr}
    9238:	e24dd008 	sub	sp, sp, #8
    923c:	e1a08000 	mov	r8, r0
    9240:	e1a06001 	mov	r6, r1
    9244:	e1a09003 	mov	r9, r3
    9248:	e59da028 	ldr	sl, [sp, #40]	; 0x28
    924c:	e3520000 	cmp	r2, #0
    9250:	1a000008 	bne	9278 <sw_uart_gets_until+0x44>
    9254:	ebfffbf2 	bl	8224 <rpi_reset_putc>
    9258:	e59f3068 	ldr	r3, [pc, #104]	; 92c8 <sw_uart_gets_until+0x94>
    925c:	e58d3000 	str	r3, [sp]
    9260:	e59f0064 	ldr	r0, [pc, #100]	; 92cc <sw_uart_gets_until+0x98>
    9264:	e59f1064 	ldr	r1, [pc, #100]	; 92d0 <sw_uart_gets_until+0x9c>
    9268:	e59f2064 	ldr	r2, [pc, #100]	; 92d4 <sw_uart_gets_until+0xa0>
    926c:	e3a0306d 	mov	r3, #109	; 0x6d
    9270:	ebfffbd0 	bl	81b8 <printk>
    9274:	ebfffd4a 	bl	87a4 <clean_reboot>
    9278:	e3a04000 	mov	r4, #0
    927c:	e5c14000 	strb	r4, [r1]
    9280:	e2427001 	sub	r7, r2, #1
    9284:	ea000007 	b	92a8 <sw_uart_gets_until+0x74>
    9288:	e1a00008 	mov	r0, r8
    928c:	e1a0100a 	mov	r1, sl
    9290:	ebffff75 	bl	906c <sw_uart_getc_timeout>
    9294:	e6ef0070 	uxtb	r0, r0
    9298:	e1500009 	cmp	r0, r9
    929c:	0a000004 	beq	92b4 <sw_uart_gets_until+0x80>
    92a0:	e7c60005 	strb	r0, [r6, r5]
    92a4:	e2844001 	add	r4, r4, #1
    92a8:	e1a05004 	mov	r5, r4
    92ac:	e1540007 	cmp	r4, r7
    92b0:	3afffff4 	bcc	9288 <sw_uart_gets_until+0x54>
    92b4:	e3a03000 	mov	r3, #0
    92b8:	e7c63005 	strb	r3, [r6, r5]
    92bc:	e1a00004 	mov	r0, r4
    92c0:	e28dd008 	add	sp, sp, #8
    92c4:	e8bd87f0 	pop	{r4, r5, r6, r7, r8, r9, sl, pc}
    92c8:	00009a78 	andeq	r9, r0, r8, ror sl
    92cc:	000098ec 	andeq	r9, r0, ip, ror #17
    92d0:	00009a64 	andeq	r9, r0, r4, ror #20
    92d4:	000099ec 	andeq	r9, r0, ip, ror #19

000092d8 <sw_uart_gets_timeout>:
    92d8:	e92d41f0 	push	{r4, r5, r6, r7, r8, lr}
    92dc:	e24dd008 	sub	sp, sp, #8
    92e0:	e1a07000 	mov	r7, r0
    92e4:	e1a05001 	mov	r5, r1
    92e8:	e1a08003 	mov	r8, r3
    92ec:	e3520000 	cmp	r2, #0
    92f0:	1a000008 	bne	9318 <sw_uart_gets_timeout+0x40>
    92f4:	ebfffbca 	bl	8224 <rpi_reset_putc>
    92f8:	e59f3058 	ldr	r3, [pc, #88]	; 9358 <sw_uart_gets_timeout+0x80>
    92fc:	e58d3000 	str	r3, [sp]
    9300:	e59f0054 	ldr	r0, [pc, #84]	; 935c <sw_uart_gets_timeout+0x84>
    9304:	e59f1054 	ldr	r1, [pc, #84]	; 9360 <sw_uart_gets_timeout+0x88>
    9308:	e59f2054 	ldr	r2, [pc, #84]	; 9364 <sw_uart_gets_timeout+0x8c>
    930c:	e3a03083 	mov	r3, #131	; 0x83
    9310:	ebfffba8 	bl	81b8 <printk>
    9314:	ebfffd22 	bl	87a4 <clean_reboot>
    9318:	e3a04000 	mov	r4, #0
    931c:	e5c14000 	strb	r4, [r1]
    9320:	e2426001 	sub	r6, r2, #1
    9324:	ea000004 	b	933c <sw_uart_gets_timeout+0x64>
    9328:	e1a00007 	mov	r0, r7
    932c:	e1a01008 	mov	r1, r8
    9330:	ebffff4d 	bl	906c <sw_uart_getc_timeout>
    9334:	e7c50004 	strb	r0, [r5, r4]
    9338:	e2844001 	add	r4, r4, #1
    933c:	e1540006 	cmp	r4, r6
    9340:	3afffff8 	bcc	9328 <sw_uart_gets_timeout+0x50>
    9344:	e3a03000 	mov	r3, #0
    9348:	e7c53004 	strb	r3, [r5, r4]
    934c:	e1a00004 	mov	r0, r4
    9350:	e28dd008 	add	sp, sp, #8
    9354:	e8bd81f0 	pop	{r4, r5, r6, r7, r8, pc}
    9358:	00009a78 	andeq	r9, r0, r8, ror sl
    935c:	000098ec 	andeq	r9, r0, ip, ror #17
    9360:	00009a64 	andeq	r9, r0, r4, ror #20
    9364:	00009a00 	andeq	r9, r0, r0, lsl #20

00009368 <sw_uart_init_helper>:
    9368:	e92d41f0 	push	{r4, r5, r6, r7, r8, lr}
    936c:	e24dd008 	sub	sp, sp, #8
    9370:	e1a04000 	mov	r4, r0
    9374:	e1a06001 	mov	r6, r1
    9378:	e1a08002 	mov	r8, r2
    937c:	e1a05003 	mov	r5, r3
    9380:	e59d7020 	ldr	r7, [sp, #32]
    9384:	e1a00001 	mov	r0, r1
    9388:	ebfffd7a 	bl	8978 <gpio_set_output>
    938c:	e1a00008 	mov	r0, r8
    9390:	ebfffdc9 	bl	8abc <gpio_set_input>
    9394:	e3a03001 	mov	r3, #1
    9398:	ee0f3f1c 	mcr	15, 0, r3, cr15, cr12, {0}
    939c:	e1a00006 	mov	r0, r6
    93a0:	e3a01001 	mov	r1, #1
    93a4:	ebfffe0a 	bl	8bd4 <gpio_write>
    93a8:	e0020795 	mul	r2, r5, r7
    93ac:	e59f3074 	ldr	r3, [pc, #116]	; 9428 <sw_uart_init_helper+0xc0>
    93b0:	e0653003 	rsb	r3, r5, r3
    93b4:	e1530002 	cmp	r3, r2
    93b8:	8a000005 	bhi	93d4 <sw_uart_init_helper+0x6c>
    93bc:	e59f3064 	ldr	r3, [pc, #100]	; 9428 <sw_uart_init_helper+0xc0>
    93c0:	e0853003 	add	r3, r5, r3
    93c4:	e1530002 	cmp	r3, r2
    93c8:	2a000003 	bcs	93dc <sw_uart_init_helper+0x74>
    93cc:	e3a03000 	mov	r3, #0
    93d0:	ea000002 	b	93e0 <sw_uart_init_helper+0x78>
    93d4:	e3a03000 	mov	r3, #0
    93d8:	ea000000 	b	93e0 <sw_uart_init_helper+0x78>
    93dc:	e3a03001 	mov	r3, #1
    93e0:	e3530000 	cmp	r3, #0
    93e4:	1a000008 	bne	940c <sw_uart_init_helper+0xa4>
    93e8:	ebfffb8d 	bl	8224 <rpi_reset_putc>
    93ec:	e59f3038 	ldr	r3, [pc, #56]	; 942c <sw_uart_init_helper+0xc4>
    93f0:	e58d3000 	str	r3, [sp]
    93f4:	e59f0034 	ldr	r0, [pc, #52]	; 9430 <sw_uart_init_helper+0xc8>
    93f8:	e59f1034 	ldr	r1, [pc, #52]	; 9434 <sw_uart_init_helper+0xcc>
    93fc:	e59f2034 	ldr	r2, [pc, #52]	; 9438 <sw_uart_init_helper+0xd0>
    9400:	e3a0309d 	mov	r3, #157	; 0x9d
    9404:	ebfffb6b 	bl	81b8 <printk>
    9408:	ebfffce5 	bl	87a4 <clean_reboot>
    940c:	e5c46000 	strb	r6, [r4]
    9410:	e5c48001 	strb	r8, [r4, #1]
    9414:	e5845004 	str	r5, [r4, #4]
    9418:	e5847008 	str	r7, [r4, #8]
    941c:	e1a00004 	mov	r0, r4
    9420:	e28dd008 	add	sp, sp, #8
    9424:	e8bd81f0 	pop	{r4, r5, r6, r7, r8, pc}
    9428:	29b92700 	ldmibcs	r9!, {r8, r9, sl, sp}
    942c:	00009a84 	andeq	r9, r0, r4, lsl #21
    9430:	000098ec 	andeq	r9, r0, ip, ror #17
    9434:	00009a64 	andeq	r9, r0, r4, ror #20
    9438:	00009a18 	andeq	r9, r0, r8, lsl sl

0000943c <sw_uart_getc>:
    943c:	e92d4008 	push	{r3, lr}
    9440:	e3e01000 	mvn	r1, #0
    9444:	ebffff08 	bl	906c <sw_uart_getc_timeout>
    9448:	e3500000 	cmp	r0, #0
    944c:	a8bd8008 	popge	{r3, pc}
    9450:	ebfffb73 	bl	8224 <rpi_reset_putc>
    9454:	e59f0010 	ldr	r0, [pc, #16]	; 946c <sw_uart_getc+0x30>
    9458:	e59f1010 	ldr	r1, [pc, #16]	; 9470 <sw_uart_getc+0x34>
    945c:	e59f2010 	ldr	r2, [pc, #16]	; 9474 <sw_uart_getc+0x38>
    9460:	e3a030ac 	mov	r3, #172	; 0xac
    9464:	ebfffb53 	bl	81b8 <printk>
    9468:	ebfffccd 	bl	87a4 <clean_reboot>
    946c:	00009ab8 			; <UNDEFINED> instruction: 0x00009ab8
    9470:	00009a64 	andeq	r9, r0, r4, ror #20
    9474:	00009a2c 	andeq	r9, r0, ip, lsr #20

00009478 <sw_uart_putk>:
    9478:	e92d4038 	push	{r3, r4, r5, lr}
    947c:	e1a05000 	mov	r5, r0
    9480:	e1a04001 	mov	r4, r1
    9484:	ea000002 	b	9494 <sw_uart_putk+0x1c>
    9488:	e1a00005 	mov	r0, r5
    948c:	ebfffea1 	bl	8f18 <sw_uart_putc>
    9490:	e2844001 	add	r4, r4, #1
    9494:	e5d41000 	ldrb	r1, [r4]
    9498:	e3510000 	cmp	r1, #0
    949c:	1afffff9 	bne	9488 <sw_uart_putk+0x10>
    94a0:	e8bd8038 	pop	{r3, r4, r5, pc}

000094a4 <sw_uart_printk>:
    94a4:	e92d000e 	push	{r1, r2, r3}
    94a8:	e92d4030 	push	{r4, r5, lr}
    94ac:	e24ddf76 	sub	sp, sp, #472	; 0x1d8
    94b0:	e1a05000 	mov	r5, r0
    94b4:	e28d3f7a 	add	r3, sp, #488	; 0x1e8
    94b8:	e58d3008 	str	r3, [sp, #8]
    94bc:	e28d000c 	add	r0, sp, #12
    94c0:	e3a01f73 	mov	r1, #460	; 0x1cc
    94c4:	e59d21e4 	ldr	r2, [sp, #484]	; 0x1e4
    94c8:	ebfffc10 	bl	8510 <va_printk>
    94cc:	e1a04000 	mov	r4, r0
    94d0:	e59f3048 	ldr	r3, [pc, #72]	; 9520 <sw_uart_printk+0x7c>
    94d4:	e1500003 	cmp	r0, r3
    94d8:	9a000008 	bls	9500 <sw_uart_printk+0x5c>
    94dc:	ebfffb50 	bl	8224 <rpi_reset_putc>
    94e0:	e59f303c 	ldr	r3, [pc, #60]	; 9524 <sw_uart_printk+0x80>
    94e4:	e58d3000 	str	r3, [sp]
    94e8:	e59f0038 	ldr	r0, [pc, #56]	; 9528 <sw_uart_printk+0x84>
    94ec:	e59f1038 	ldr	r1, [pc, #56]	; 952c <sw_uart_printk+0x88>
    94f0:	e59f2038 	ldr	r2, [pc, #56]	; 9530 <sw_uart_printk+0x8c>
    94f4:	e3a030c0 	mov	r3, #192	; 0xc0
    94f8:	ebfffb2e 	bl	81b8 <printk>
    94fc:	ebfffca8 	bl	87a4 <clean_reboot>
    9500:	e1a00005 	mov	r0, r5
    9504:	e28d100c 	add	r1, sp, #12
    9508:	ebffffda 	bl	9478 <sw_uart_putk>
    950c:	e1a00004 	mov	r0, r4
    9510:	e28ddf76 	add	sp, sp, #472	; 0x1d8
    9514:	e8bd4030 	pop	{r4, r5, lr}
    9518:	e28dd00c 	add	sp, sp, #12
    951c:	e12fff1e 	bx	lr
    9520:	000001ca 	andeq	r0, r0, sl, asr #3
    9524:	00009af0 	strdeq	r9, [r0], -r0
    9528:	000098ec 	andeq	r9, r0, ip, ror #17
    952c:	00009a64 	andeq	r9, r0, r4, ror #20
    9530:	00009a3c 	andeq	r9, r0, ip, lsr sl

00009534 <sw_uart_gets_until_blk>:
    9534:	e52de004 	push	{lr}		; (str lr, [sp, #-4]!)
    9538:	e24dd00c 	sub	sp, sp, #12
    953c:	e3e0c000 	mvn	ip, #0
    9540:	e58dc000 	str	ip, [sp]
    9544:	ebffff3a 	bl	9234 <sw_uart_gets_until>
    9548:	e3500000 	cmp	r0, #0
    954c:	aa000006 	bge	956c <sw_uart_gets_until_blk+0x38>
    9550:	ebfffb33 	bl	8224 <rpi_reset_putc>
    9554:	e59f0018 	ldr	r0, [pc, #24]	; 9574 <sw_uart_gets_until_blk+0x40>
    9558:	e59f1018 	ldr	r1, [pc, #24]	; 9578 <sw_uart_gets_until_blk+0x44>
    955c:	e59f2018 	ldr	r2, [pc, #24]	; 957c <sw_uart_gets_until_blk+0x48>
    9560:	e3a030c8 	mov	r3, #200	; 0xc8
    9564:	ebfffb13 	bl	81b8 <printk>
    9568:	ebfffc8d 	bl	87a4 <clean_reboot>
    956c:	e28dd00c 	add	sp, sp, #12
    9570:	e49df004 	pop	{pc}		; (ldr pc, [sp], #4)
    9574:	00009ab8 			; <UNDEFINED> instruction: 0x00009ab8
    9578:	00009a64 	andeq	r9, r0, r4, ror #20
    957c:	00009a4c 	andeq	r9, r0, ip, asr #20

00009580 <uart_init>:
    9580:	e92d4038 	push	{r3, r4, r5, lr}
    9584:	eb000052 	bl	96d4 <dev_barrier>
    9588:	e3a0000e 	mov	r0, #14
    958c:	e3a01002 	mov	r1, #2
    9590:	ebfffd98 	bl	8bf8 <gpio_set_function>
    9594:	e3a0000f 	mov	r0, #15
    9598:	e3a01002 	mov	r1, #2
    959c:	ebfffd95 	bl	8bf8 <gpio_set_function>
    95a0:	eb00004b 	bl	96d4 <dev_barrier>
    95a4:	e59f4068 	ldr	r4, [pc, #104]	; 9614 <uart_init+0x94>
    95a8:	e5945000 	ldr	r5, [r4]
    95ac:	e1a00005 	mov	r0, r5
    95b0:	eb000059 	bl	971c <get32>
    95b4:	e3801001 	orr	r1, r0, #1
    95b8:	e1a00005 	mov	r0, r5
    95bc:	eb00004a 	bl	96ec <put32>
    95c0:	eb000043 	bl	96d4 <dev_barrier>
    95c4:	e5940004 	ldr	r0, [r4, #4]
    95c8:	e3a01000 	mov	r1, #0
    95cc:	eb000046 	bl	96ec <put32>
    95d0:	e5940008 	ldr	r0, [r4, #8]
    95d4:	e3a01000 	mov	r1, #0
    95d8:	eb000043 	bl	96ec <put32>
    95dc:	e594000c 	ldr	r0, [r4, #12]
    95e0:	e3a01006 	mov	r1, #6
    95e4:	eb000040 	bl	96ec <put32>
    95e8:	e5940010 	ldr	r0, [r4, #16]
    95ec:	e3a01003 	mov	r1, #3
    95f0:	eb00003d 	bl	96ec <put32>
    95f4:	e5940014 	ldr	r0, [r4, #20]
    95f8:	e59f1018 	ldr	r1, [pc, #24]	; 9618 <uart_init+0x98>
    95fc:	eb00003a 	bl	96ec <put32>
    9600:	e5940004 	ldr	r0, [r4, #4]
    9604:	e3a01003 	mov	r1, #3
    9608:	eb000037 	bl	96ec <put32>
    960c:	eb000030 	bl	96d4 <dev_barrier>
    9610:	e8bd8038 	pop	{r3, r4, r5, pc}
    9614:	00009810 	andeq	r9, r0, r0, lsl r8
    9618:	0000010e 	andeq	r0, r0, lr, lsl #2

0000961c <uart_can_getc>:
    961c:	e92d4008 	push	{r3, lr}
    9620:	e59f300c 	ldr	r3, [pc, #12]	; 9634 <uart_can_getc+0x18>
    9624:	e5930018 	ldr	r0, [r3, #24]
    9628:	eb00003b 	bl	971c <get32>
    962c:	e2000001 	and	r0, r0, #1
    9630:	e8bd8008 	pop	{r3, pc}
    9634:	00009810 	andeq	r9, r0, r0, lsl r8

00009638 <uart_getc>:
    9638:	e92d4008 	push	{r3, lr}
    963c:	ebfffff6 	bl	961c <uart_can_getc>
    9640:	e3500000 	cmp	r0, #0
    9644:	0afffffc 	beq	963c <uart_getc+0x4>
    9648:	e59f300c 	ldr	r3, [pc, #12]	; 965c <uart_getc+0x24>
    964c:	e593001c 	ldr	r0, [r3, #28]
    9650:	eb000031 	bl	971c <get32>
    9654:	e6ef0070 	uxtb	r0, r0
    9658:	e8bd8008 	pop	{r3, pc}
    965c:	00009810 	andeq	r9, r0, r0, lsl r8

00009660 <uart_can_putc>:
    9660:	e92d4008 	push	{r3, lr}
    9664:	e59f300c 	ldr	r3, [pc, #12]	; 9678 <uart_can_putc+0x18>
    9668:	e5930018 	ldr	r0, [r3, #24]
    966c:	eb00002a 	bl	971c <get32>
    9670:	e2000020 	and	r0, r0, #32
    9674:	e8bd8008 	pop	{r3, pc}
    9678:	00009810 	andeq	r9, r0, r0, lsl r8

0000967c <uart_putc>:
    967c:	e92d4010 	push	{r4, lr}
    9680:	e1a04000 	mov	r4, r0
    9684:	ebfffff5 	bl	9660 <uart_can_putc>
    9688:	e3500000 	cmp	r0, #0
    968c:	0afffffc 	beq	9684 <uart_putc+0x8>
    9690:	e59f300c 	ldr	r3, [pc, #12]	; 96a4 <uart_putc+0x28>
    9694:	e593001c 	ldr	r0, [r3, #28]
    9698:	e1a01004 	mov	r1, r4
    969c:	eb000012 	bl	96ec <put32>
    96a0:	e8bd8010 	pop	{r4, pc}
    96a4:	00009810 	andeq	r9, r0, r0, lsl r8

000096a8 <uart_has_data>:
    96a8:	e92d4008 	push	{r3, lr}
    96ac:	ebffffda 	bl	961c <uart_can_getc>
    96b0:	e8bd8008 	pop	{r3, pc}

000096b4 <uart_getc_async>:
    96b4:	e92d4008 	push	{r3, lr}
    96b8:	ebfffffa 	bl	96a8 <uart_has_data>
    96bc:	e3500000 	cmp	r0, #0
    96c0:	0a000001 	beq	96cc <uart_getc_async+0x18>
    96c4:	ebffffdb 	bl	9638 <uart_getc>
    96c8:	e8bd8008 	pop	{r3, pc}
    96cc:	e3e00000 	mvn	r0, #0
    96d0:	e8bd8008 	pop	{r3, pc}

000096d4 <dev_barrier>:
    96d4:	ea000002 	b	96e4 <dsb>

000096d8 <dmb>:
    96d8:	e3a00000 	mov	r0, #0
    96dc:	ee070fba 	mcr	15, 0, r0, cr7, cr10, {5}
    96e0:	e12fff1e 	bx	lr

000096e4 <dsb>:
    96e4:	ee070f9a 	mcr	15, 0, r0, cr7, cr10, {4}
    96e8:	e12fff1e 	bx	lr

000096ec <put32>:
    96ec:	e5801000 	str	r1, [r0]
    96f0:	e12fff1e 	bx	lr

000096f4 <PUT32>:
    96f4:	e5801000 	str	r1, [r0]
    96f8:	e12fff1e 	bx	lr

000096fc <put16>:
    96fc:	e1c010b0 	strh	r1, [r0]
    9700:	e12fff1e 	bx	lr

00009704 <PUT16>:
    9704:	e1c010b0 	strh	r1, [r0]
    9708:	e12fff1e 	bx	lr

0000970c <put8>:
    970c:	e5c01000 	strb	r1, [r0]
    9710:	e12fff1e 	bx	lr

00009714 <PUT8>:
    9714:	e5c01000 	strb	r1, [r0]
    9718:	e12fff1e 	bx	lr

0000971c <get32>:
    971c:	e5900000 	ldr	r0, [r0]
    9720:	e12fff1e 	bx	lr

00009724 <GET32>:
    9724:	e5900000 	ldr	r0, [r0]
    9728:	e12fff1e 	bx	lr

0000972c <GETPC>:
    972c:	e1a0000e 	mov	r0, lr
    9730:	e12fff1e 	bx	lr

00009734 <dummy>:
    9734:	e12fff1e 	bx	lr

00009738 <cb_new>:
    9738:	e92d4008 	push	{r3, lr}
    973c:	e3a00409 	mov	r0, #150994944	; 0x9000000
    9740:	e3a01000 	mov	r1, #0
    9744:	e3a02004 	mov	r2, #4
    9748:	eb00000e 	bl	9788 <memset>
    974c:	e3a00409 	mov	r0, #150994944	; 0x9000000
    9750:	e59f3004 	ldr	r3, [pc, #4]	; 975c <cb_new+0x24>
    9754:	e5803000 	str	r3, [r0]
    9758:	e8bd8008 	pop	{r3, pc}
    975c:	12345678 	eorsne	r5, r4, #120, 12	; 0x7800000

00009760 <cb_get_block>:
    9760:	e3a03409 	mov	r3, #150994944	; 0x9000000
    9764:	e5932000 	ldr	r2, [r3]
    9768:	e59f3014 	ldr	r3, [pc, #20]	; 9784 <cb_get_block+0x24>
    976c:	e1520003 	cmp	r2, r3
    9770:	0a000001 	beq	977c <cb_get_block+0x1c>
    9774:	e3a00000 	mov	r0, #0
    9778:	e12fff1e 	bx	lr
    977c:	e3a00409 	mov	r0, #150994944	; 0x9000000
    9780:	e12fff1e 	bx	lr
    9784:	12345678 	eorsne	r5, r4, #120, 12	; 0x7800000

00009788 <memset>:
    9788:	e0802002 	add	r2, r0, r2
    978c:	e1a03000 	mov	r3, r0
    9790:	ea000001 	b	979c <memset+0x14>
    9794:	e5c31000 	strb	r1, [r3]
    9798:	e2833001 	add	r3, r3, #1
    979c:	e1530002 	cmp	r3, r2
    97a0:	3afffffb 	bcc	9794 <memset+0xc>
    97a4:	e12fff1e 	bx	lr

Disassembly of section .data:

000097a8 <rpi_putchar>:
    97a8:	00008210 	andeq	r8, r0, r0, lsl r2

000097ac <putk>:
    97ac:	0000824c 	andeq	r8, r0, ip, asr #4

000097b0 <GPFSEL0>:
    97b0:	20200000 	eorcs	r0, r0, r0

000097b4 <GPFSEL1>:
    97b4:	20200004 	eorcs	r0, r0, r4

000097b8 <GPFSEL2>:
    97b8:	20200008 	eorcs	r0, r0, r8

000097bc <GPFSEL3>:
    97bc:	2020000c 	eorcs	r0, r0, ip

000097c0 <GPFSEL4>:
    97c0:	20200010 	eorcs	r0, r0, r0, lsl r0

000097c4 <GPFSEL5>:
    97c4:	20200014 	eorcs	r0, r0, r4, lsl r0

000097c8 <GPSET0>:
    97c8:	2020001c 	eorcs	r0, r0, ip, lsl r0

000097cc <GPSET1>:
    97cc:	20200020 	eorcs	r0, r0, r0, lsr #32

000097d0 <GPCLR0>:
    97d0:	20200028 	eorcs	r0, r0, r8, lsr #32

000097d4 <GPCLR1>:
    97d4:	2020002c 	eorcs	r0, r0, ip, lsr #32

000097d8 <GPLEV0>:
    97d8:	20200034 	eorcs	r0, r0, r4, lsr r0

000097dc <GPLEV1>:
    97dc:	20200038 	eorcs	r0, r0, r8, lsr r0

000097e0 <IRQ_PENDING_2>:
    97e0:	2000b208 	andcs	fp, r0, r8, lsl #4

000097e4 <GPREN0>:
    97e4:	2020004c 	eorcs	r0, r0, ip, asr #32

000097e8 <GPREN1>:
    97e8:	20200050 	eorcs	r0, r0, r0, asr r0

000097ec <ENABLE_IRQS_2>:
    97ec:	2000b214 	andcs	fp, r0, r4, lsl r2

000097f0 <GPFEN0>:
    97f0:	20200058 	eorcs	r0, r0, r8, asr r0

000097f4 <GPFEN1>:
    97f4:	2020005c 	eorcs	r0, r0, ip, asr r0

000097f8 <GPEDS0>:
    97f8:	20200040 	eorcs	r0, r0, r0, asr #32

000097fc <GPEDS1>:
    97fc:	20200044 	eorcs	r0, r0, r4, asr #32

00009800 <IRQ_PENDING_1>:
    9800:	2000b204 	andcs	fp, r0, r4, lsl #4

00009804 <gpio_clr0>:
    9804:	20200028 	eorcs	r0, r0, r8, lsr #32

00009808 <gpio_set0>:
    9808:	2020001c 	eorcs	r0, r0, ip, lsl r0

0000980c <gpio_fsel0>:
    980c:	20200000 	eorcs	r0, r0, r0

00009810 <AUX_ENABLES>:
    9810:	20215004 	eorcs	r5, r1, r4

00009814 <AUX_MU_CNTL_REG>:
    9814:	20215060 	eorcs	r5, r1, r0, rrx

00009818 <AUX_MU_IER_REG>:
    9818:	20215044 	eorcs	r5, r1, r4, asr #32

0000981c <AUX_MU_IIR_REG>:
    981c:	20215048 	eorcs	r5, r1, r8, asr #32

00009820 <AUX_MU_LCR_REG>:
    9820:	2021504c 	eorcs	r5, r1, ip, asr #32

00009824 <AUX_MU_BAUD_REG>:
    9824:	20215068 	eorcs	r5, r1, r8, rrx

00009828 <AUX_MU_LSR_REG>:
    9828:	20215054 	eorcs	r5, r1, r4, asr r0

0000982c <AUX_MU_IO_REG>:
    982c:	20215040 	eorcs	r5, r1, r0, asr #32

00009830 <AUX_MU_STAT_REG>:
    9830:	20215064 	eorcs	r5, r1, r4, rrx

00009834 <AUX_MU_SCRATCH>:
    9834:	2021505c 	eorcs	r5, r1, ip, asr r0

00009838 <AUX_MU_MSR_REG>:
    9838:	20215058 	eorcs	r5, r1, r8, asr r0

0000983c <AUX_MU_MCR_REG>:
    983c:	20215050 	eorcs	r5, r1, r0, asr r0

00009840 <AUX_IRQ>:
    9840:	20215000 	eorcs	r5, r1, r0

Disassembly of section .rodata:

00009844 <__FUNCTION__.4210>:
    9844:	6c637963 	stclvs	9, cr7, [r3], #-396	; 0xfffffe74
    9848:	705f7365 	subsvc	r7, pc, r5, ror #6
    984c:	735f7265 	cmpvc	pc, #1342177286	; 0x50000006
    9850:	00006365 	andeq	r6, r0, r5, ror #6
    9854:	4f525245 	svcmi	0x00525245
    9858:	73253a52 	teqvc	r5, #335872	; 0x52000
    985c:	3a73253a 	bcc	1cd2d4c <__bss_end__+0x1cc8e3c>
    9860:	203a6425 	eorscs	r6, sl, r5, lsr #8
    9864:	534c4146 	movtpl	r4, #49478	; 0xc146
    9868:	733c2845 	teqvc	ip, #4521984	; 0x450000
    986c:	32203c20 	eorcc	r3, r0, #32, 24	; 0x2000
    9870:	203a293e 	eorscs	r2, sl, lr, lsr r9
    9874:	6c6c6977 	stclvs	9, cr6, [ip], #-476	; 0xfffffe24
    9878:	65766f20 	ldrbvs	r6, [r6, #-3872]!	; 0xf20
    987c:	6f6c6672 	svcvs	0x006c6672
    9880:	00000a77 	andeq	r0, r0, r7, ror sl
    9884:	706f6373 	rsbvc	r6, pc, r3, ror r3	; <UNPREDICTABLE>
    9888:	00632e65 	rsbeq	r2, r3, r5, ror #28
    988c:	3a642520 	bcc	1912d14 <__bss_end__+0x1908e04>
    9890:	6c617620 	stclvs	6, cr7, [r1], #-128	; 0xffffff80
    9894:	2c64253d 	cfstr64cs	mvdx2, [r4], #-244	; 0xffffff0c
    9898:	6d697420 	cfstrdvs	mvd7, [r9, #-128]!	; 0xffffff80
    989c:	64253d65 	strtvs	r3, [r5], #-3429	; 0xd65
    98a0:	6f74202c 	svcvs	0x0074202c
    98a4:	64253d74 	strtvs	r3, [r5], #-3444	; 0xd74
    98a8:	7865203a 	stmdavc	r5!, {r1, r3, r4, r5, sp}^
    98ac:	64253d70 	strtvs	r3, [r5], #-3440	; 0xd70
    98b0:	72652820 	rsbvc	r2, r5, #32, 16	; 0x200000
    98b4:	64253d72 	strtvs	r3, [r5], #-3442	; 0xd72
    98b8:	6f74202c 	svcvs	0x0074202c
    98bc:	72726574 	rsbsvc	r6, r2, #116, 10	; 0x1d000000
    98c0:	2964253d 	stmdbcs	r4!, {r0, r2, r3, r4, r5, r8, sl, sp}^
    98c4:	0000000a 	andeq	r0, r0, sl

000098c8 <__FUNCTION__.4265>:
    98c8:	74696d65 	strbtvc	r6, [r9], #-3429	; 0xd65
    98cc:	00000000 	andeq	r0, r0, r0

000098d0 <__FUNCTION__.4213>:
    98d0:	5f697072 	svcpl	0x00697072
    98d4:	5f746573 	svcpl	0x00746573
    98d8:	7074756f 	rsbsvc	r7, r4, pc, ror #10
    98dc:	00007475 	andeq	r7, r0, r5, ror r4

000098e0 <__FUNCTION__.4287>:
    98e0:	705f6176 	subsvc	r6, pc, r6, ror r1	; <UNPREDICTABLE>
    98e4:	746e6972 	strbtvc	r6, [lr], #-2418	; 0x972
    98e8:	0000006b 	andeq	r0, r0, fp, rrx
    98ec:	494e4150 	stmdbmi	lr, {r4, r6, r8, lr}^
    98f0:	73253a43 	teqvc	r5, #274432	; 0x43000
    98f4:	3a73253a 	bcc	1cd2de4 <__bss_end__+0x1cc8ed4>
    98f8:	253a6425 	ldrcs	r6, [sl, #-1061]!	; 0x425
    98fc:	00000a73 	andeq	r0, r0, r3, ror sl
    9900:	6362696c 	cmnvs	r2, #108, 18	; 0x1b0000
    9904:	2d61762f 	stclcs	6, cr7, [r1, #-188]!	; 0xffffff44
    9908:	6e697270 	mcrvs	2, 3, r7, cr9, cr0, {3}
    990c:	632e6b74 	teqvs	lr, #116, 22	; 0x1d000
    9910:	00000000 	andeq	r0, r0, r0
    9914:	00000030 	andeq	r0, r0, r0, lsr r0
    9918:	33323130 	teqcc	r2, #48, 2
    991c:	37363534 			; <UNDEFINED> instruction: 0x37363534
    9920:	00003938 	andeq	r3, r0, r8, lsr r9
    9924:	33323130 	teqcc	r2, #48, 2
    9928:	37363534 			; <UNDEFINED> instruction: 0x37363534
    992c:	62613938 	rsbvs	r3, r1, #56, 18	; 0xe0000
    9930:	66656463 	strbtvs	r6, [r5], -r3, ror #8
    9934:	00000000 	andeq	r0, r0, r0
    9938:	00003130 	andeq	r3, r0, r0, lsr r1
    993c:	63747570 	cmnvs	r4, #112, 10	; 0x1c000000
    9940:	0070665f 	rsbseq	r6, r0, pc, asr r6
    9944:	74646977 	strbtvc	r6, [r4], #-2423	; 0x977
    9948:	203c2068 	eorscs	r2, ip, r8, rrx
    994c:	00003233 	andeq	r3, r0, r3, lsr r2
    9950:	494e4150 	stmdbmi	lr, {r4, r6, r8, lr}^
    9954:	73253a43 	teqvc	r5, #274432	; 0x43000
    9958:	3a73253a 	bcc	1cd2e48 <__bss_end__+0x1cc8f38>
    995c:	663a6425 	ldrtvs	r6, [sl], -r5, lsr #8
    9960:	74616f6c 	strbtvc	r6, [r1], #-3948	; 0xf6c
    9964:	746f6e20 	strbtvc	r6, [pc], #-3616	; 996c <__FUNCTION__.4287+0x8c>
    9968:	616e6520 	cmnvs	lr, r0, lsr #10
    996c:	64656c62 	strbtvs	r6, [r5], #-3170	; 0xc62
    9970:	0a212121 	beq	851dfc <__bss_end__+0x847eec>
    9974:	00000000 	andeq	r0, r0, r0
    9978:	494e4150 	stmdbmi	lr, {r4, r6, r8, lr}^
    997c:	73253a43 	teqvc	r5, #274432	; 0x43000
    9980:	3a73253a 	bcc	1cd2e70 <__bss_end__+0x1cc8f60>
    9984:	703a6425 	eorsvc	r6, sl, r5, lsr #8
    9988:	746e6972 	strbtvc	r6, [lr], #-2418	; 0x972
    998c:	6e203a6b 	vnmulvs.f32	s6, s0, s23
    9990:	6820746f 	stmdavs	r0!, {r0, r1, r2, r3, r5, r6, sl, ip, sp, lr}
    9994:	6c646e61 	stclvs	14, cr6, [r4], #-388	; 0xfffffe7c
    9998:	20676e69 	rsbcs	r6, r7, r9, ror #28
    999c:	63657073 	cmnvs	r5, #115	; 0x73
    99a0:	65696669 	strbvs	r6, [r9, #-1641]!	; 0x669
    99a4:	25272072 	strcs	r2, [r7, #-114]!	; 0x72
    99a8:	0a0a2763 	beq	29373c <__bss_end__+0x28982c>
    99ac:	00000000 	andeq	r0, r0, r0
    99b0:	454e4f44 	strbmi	r4, [lr, #-3908]	; 0xf44
    99b4:	0a212121 	beq	851e40 <__bss_end__+0x847f30>
    99b8:	00000000 	andeq	r0, r0, r0
    99bc:	756f6261 	strbvc	r6, [pc, #-609]!	; 9763 <cb_get_block+0x3>
    99c0:	6f742074 	svcvs	0x00742074
    99c4:	69727020 	ldmdbvs	r2!, {r5, ip, sp, lr}^
    99c8:	6f20746e 	svcvs	0x0020746e
    99cc:	6572206e 	ldrbvs	r2, [r2, #-110]!	; 0x6e
    99d0:	616c7567 	cmnvs	ip, r7, ror #10
    99d4:	72702072 	rsbsvc	r2, r0, #114	; 0x72
    99d8:	66746e69 	ldrbtvs	r6, [r4], -r9, ror #28
    99dc:	0000000a 	andeq	r0, r0, sl
    99e0:	63637573 	cmnvs	r3, #482344960	; 0x1cc00000
    99e4:	21737365 	cmncs	r3, r5, ror #6
    99e8:	0000000a 	andeq	r0, r0, sl

000099ec <__FUNCTION__.4314>:
    99ec:	755f7773 	ldrbvc	r7, [pc, #-1907]	; 9281 <sw_uart_gets_until+0x4d>
    99f0:	5f747261 	svcpl	0x00747261
    99f4:	73746567 	cmnvc	r4, #432013312	; 0x19c00000
    99f8:	746e755f 	strbtvc	r7, [lr], #-1375	; 0x55f
    99fc:	00006c69 	andeq	r6, r0, r9, ror #24

00009a00 <__FUNCTION__.4326>:
    9a00:	755f7773 	ldrbvc	r7, [pc, #-1907]	; 9295 <sw_uart_gets_until+0x61>
    9a04:	5f747261 	svcpl	0x00747261
    9a08:	73746567 	cmnvc	r4, #432013312	; 0x19c00000
    9a0c:	6d69745f 	cfstrdvs	mvd7, [r9, #-380]!	; 0xfffffe84
    9a10:	74756f65 	ldrbtvc	r6, [r5], #-3941	; 0xf65
    9a14:	00000000 	andeq	r0, r0, r0

00009a18 <__FUNCTION__.4340>:
    9a18:	755f7773 	ldrbvc	r7, [pc, #-1907]	; 92ad <sw_uart_gets_until+0x79>
    9a1c:	5f747261 	svcpl	0x00747261
    9a20:	74696e69 	strbtvc	r6, [r9], #-3689	; 0xe69
    9a24:	6c65685f 	stclvs	8, cr6, [r5], #-380	; 0xfffffe84
    9a28:	00726570 	rsbseq	r6, r2, r0, ror r5

00009a2c <__FUNCTION__.4346>:
    9a2c:	755f7773 	ldrbvc	r7, [pc, #-1907]	; 92c1 <sw_uart_gets_until+0x8d>
    9a30:	5f747261 	svcpl	0x00747261
    9a34:	63746567 	cmnvs	r4, #432013312	; 0x19c00000
    9a38:	00000000 	andeq	r0, r0, r0

00009a3c <__FUNCTION__.4368>:
    9a3c:	755f7773 	ldrbvc	r7, [pc, #-1907]	; 92d1 <sw_uart_gets_until+0x9d>
    9a40:	5f747261 	svcpl	0x00747261
    9a44:	6e697270 	mcrvs	2, 3, r7, cr9, cr0, {3}
    9a48:	00006b74 	andeq	r6, r0, r4, ror fp

00009a4c <__FUNCTION__.4376>:
    9a4c:	755f7773 	ldrbvc	r7, [pc, #-1907]	; 92e1 <sw_uart_gets_timeout+0x9>
    9a50:	5f747261 	svcpl	0x00747261
    9a54:	73746567 	cmnvc	r4, #432013312	; 0x19c00000
    9a58:	746e755f 	strbtvc	r7, [lr], #-1375	; 0x55f
    9a5c:	625f6c69 	subsvs	r6, pc, #26880	; 0x6900
    9a60:	00006b6c 	andeq	r6, r0, ip, ror #22
    9a64:	732d796d 	teqvc	sp, #1785856	; 0x1b4000
    9a68:	732f6372 	teqvc	pc, #-939524095	; 0xc8000001
    9a6c:	61752d77 	cmnvs	r5, r7, ror sp
    9a70:	632e7472 	teqvs	lr, #1912602624	; 0x72000000
    9a74:	00000000 	andeq	r0, r0, r0
    9a78:	7479626e 	ldrbtvc	r6, [r9], #-622	; 0x26e
    9a7c:	303e7365 	eorscc	r7, lr, r5, ror #6
    9a80:	00000000 	andeq	r0, r0, r0
    9a84:	7a686d28 	bvc	1a24f2c <__bss_end__+0x1a1b01c>
    9a88:	62202d20 	eorvs	r2, r0, #32, 26	; 0x800
    9a8c:	29647561 	stmdbcs	r4!, {r0, r5, r6, r8, sl, ip, sp, lr}^
    9a90:	203d3c20 	eorscs	r3, sp, r0, lsr #24
    9a94:	69726564 	ldmdbvs	r2!, {r2, r5, r6, r8, sl, sp, lr}^
    9a98:	20646576 	rsbcs	r6, r4, r6, ror r5
    9a9c:	64202626 	strtvs	r2, [r0], #-1574	; 0x626
    9aa0:	76697265 	strbtvc	r7, [r9], -r5, ror #4
    9aa4:	3c206465 	cfstrscc	mvf6, [r0], #-404	; 0xfffffe6c
    9aa8:	6d28203d 	stcvs	0, cr2, [r8, #-244]!	; 0xffffff0c
    9aac:	2b207a68 	blcs	828454 <__bss_end__+0x81e544>
    9ab0:	75616220 	strbvc	r6, [r1, #-544]!	; 0x220
    9ab4:	00002964 	andeq	r2, r0, r4, ror #18
    9ab8:	494e4150 	stmdbmi	lr, {r4, r6, r8, lr}^
    9abc:	73253a43 	teqvc	r5, #274432	; 0x43000
    9ac0:	3a73253a 	bcc	1cd2fb0 <__bss_end__+0x1cc90a0>
    9ac4:	693a6425 	ldmdbvs	sl!, {r0, r2, r5, sl, sp, lr}
    9ac8:	736f706d 	cmnvc	pc, #109	; 0x6d
    9acc:	6c626973 	stclvs	9, cr6, [r2], #-460	; 0xfffffe34
    9ad0:	68203a65 	stmdavs	r0!, {r0, r2, r5, r6, r9, fp, ip, sp}
    9ad4:	20657661 	rsbcs	r7, r5, r1, ror #12
    9ad8:	69206e61 	stmdbvs	r0!, {r0, r5, r6, r9, sl, fp, sp, lr}
    9adc:	6e69666e 	cdpvs	6, 6, cr6, cr9, cr14, {3}
    9ae0:	20657469 	rsbcs	r7, r5, r9, ror #8
    9ae4:	656d6974 	strbvs	r6, [sp, #-2420]!	; 0x974
    9ae8:	2174756f 	cmncs	r4, pc, ror #10
    9aec:	00000a0a 	andeq	r0, r0, sl, lsl #20
    9af0:	3c207a73 	stccc	10, cr7, [r0], #-460	; 0xfffffe34
    9af4:	7a697320 	bvc	1a6677c <__bss_end__+0x1a5c86c>
    9af8:	20666f65 	rsbcs	r6, r6, r5, ror #30
    9afc:	2d667562 	cfstr64cs	mvdx7, [r6, #-392]!	; 0xfffffe78
    9b00:	00000031 	andeq	r0, r0, r1, lsr r0

Disassembly of section .bss:

00009b04 <__bss_start__>:
	...

00009f04 <console_uart>:
	...

Disassembly of section .ARM.attributes:

00000000 <.ARM.attributes>:
   0:	00002a41 	andeq	r2, r0, r1, asr #20
   4:	61656100 	cmnvs	r5, r0, lsl #2
   8:	01006962 	tsteq	r0, r2, ror #18
   c:	00000020 	andeq	r0, r0, r0, lsr #32
  10:	4b5a3605 	blmi	168d82c <__bss_end__+0x168391c>
  14:	08070600 	stmdaeq	r7, {r9, sl}
  18:	12010901 	andne	r0, r1, #16384	; 0x4000
  1c:	15011404 	strne	r1, [r1, #-1028]	; 0x404
  20:	18031701 	stmdane	r3, {r0, r8, r9, sl, ip}
  24:	22011a01 	andcs	r1, r1, #4096	; 0x1000
  28:	Address 0x0000000000000028 is out of bounds.


Disassembly of section .comment:

00000000 <.comment>:
   0:	3a434347 	bcc	10d0d24 <__bss_end__+0x10c6e14>
   4:	4e472820 	cdpmi	8, 4, cr2, cr7, cr0, {1}
   8:	34202955 	strtcc	r2, [r0], #-2389	; 0x955
   c:	332e382e 	teqcc	lr, #3014656	; 0x2e0000
	...

Disassembly of section .debug_info:

00000000 <.debug_info>:
       0:	000004e5 	andeq	r0, r0, r5, ror #9
       4:	00000004 	andeq	r0, r0, r4
       8:	01040000 	mrseq	r0, (UNDEF: 4)
       c:	0000016e 	andeq	r0, r0, lr, ror #2
      10:	00010601 	andeq	r0, r1, r1, lsl #12
      14:	00001e00 	andeq	r1, r0, r0, lsl #28
      18:	00801000 	addeq	r1, r0, r0
      1c:	0001a800 	andeq	sl, r1, r0, lsl #16
      20:	00000000 	andeq	r0, r0, r0
      24:	05040200 	streq	r0, [r4, #-512]	; 0x200
      28:	00746e69 	rsbseq	r6, r4, r9, ror #28
      2c:	27070403 	strcs	r0, [r7, -r3, lsl #8]
      30:	03000001 	movweq	r0, #1
      34:	00cd0601 	sbceq	r0, sp, r1, lsl #12
      38:	02030000 	andeq	r0, r3, #0
      3c:	0001cb05 	andeq	ip, r1, r5, lsl #22
      40:	05040300 	streq	r0, [r4, #-768]	; 0x300
      44:	0000015b 	andeq	r0, r0, fp, asr r1
      48:	56050803 	strpl	r0, [r5], -r3, lsl #16
      4c:	03000001 	movweq	r0, #1
      50:	00cb0801 	sbceq	r0, fp, r1, lsl #16
      54:	02030000 	andeq	r0, r3, #0
      58:	0000a907 	andeq	sl, r0, r7, lsl #18
      5c:	07040300 	streq	r0, [r4, -r0, lsl #6]
      60:	00000122 	andeq	r0, r0, r2, lsr #2
      64:	1d070803 	stcne	8, cr0, [r7, #-12]
      68:	03000001 	movweq	r0, #1
      6c:	01420704 	cmpeq	r2, r4, lsl #14
      70:	01030000 	mrseq	r0, (UNDEF: 3)
      74:	0000d408 	andeq	sp, r0, r8, lsl #8
      78:	7f040400 	svcvc	0x00040400
      7c:	05000000 	streq	r0, [r0, #-0]
      80:	00000072 	andeq	r0, r0, r2, ror r0
      84:	07010806 	streq	r0, [r1, -r6, lsl #16]
      88:	000000a3 	andeq	r0, r0, r3, lsr #1
      8c:	01007607 	tsteq	r0, r7, lsl #12
      90:	00002c08 	andeq	r2, r0, r8, lsl #24
      94:	4b080000 	blmi	20009c <__bss_end__+0x1f618c>
      98:	01000008 	tsteq	r0, r8
      9c:	00002c08 	andeq	r2, r0, r8, lsl #24
      a0:	09000400 	stmdbeq	r0, {sl}
      a4:	000001ef 	andeq	r0, r0, pc, ror #3
      a8:	00840901 	addeq	r0, r4, r1, lsl #18
      ac:	0e0a0000 	cdpeq	0, 0, cr0, cr10, cr0, {0}
      b0:	01000001 	tsteq	r0, r1
      b4:	00002c0d 	andeq	r2, r0, sp, lsl #24
      b8:	00801000 	addeq	r1, r0, r0
      bc:	00005000 	andeq	r5, r0, r0
      c0:	8d9c0100 	ldfhis	f0, [ip]
      c4:	0b000001 	bleq	d0 <_start-0x7f30>
      c8:	0d010073 	stceq	0, cr0, [r1, #-460]	; 0xfffffe34
      cc:	0000002c 	andeq	r0, r0, ip, lsr #32
      d0:	00000000 	andeq	r0, r0, r0
      d4:	0000f90c 	andeq	pc, r0, ip, lsl #18
      d8:	00019d00 	andeq	r9, r1, r0, lsl #26
      dc:	44030500 	strmi	r0, [r3], #-1280	; 0x500
      e0:	0d000098 	stceq	0, cr0, [r0, #-608]	; 0xfffffda0
      e4:	0000007f 	andeq	r0, r0, pc, ror r0
      e8:	002c0f01 	eoreq	r0, ip, r1, lsl #30
      ec:	970e0000 	strls	r0, [lr, -r0]
      f0:	01000000 	mrseq	r0, (UNDEF: 0)
      f4:	00002c11 	andeq	r2, r0, r1, lsl ip
      f8:	00003a00 	andeq	r3, r0, r0, lsl #20
      fc:	801c0f00 	andshi	r0, ip, r0, lsl #30
     100:	00040000 	andeq	r0, r4, r0
     104:	01160000 	tsteq	r6, r0
     108:	640d0000 	strvs	r0, [sp], #-0
     10c:	01000001 	tsteq	r0, r1
     110:	00002c0f 	andeq	r2, r0, pc, lsl #24
     114:	2c0f0000 	stccs	0, cr0, [pc], {-0}
     118:	04000080 	streq	r0, [r0], #-128	; 0x80
     11c:	33000000 	movwcc	r0, #0
     120:	0e000001 	cdpeq	0, 0, cr0, cr0, cr1, {0}
     124:	00000164 	andeq	r0, r0, r4, ror #2
     128:	002c1101 	eoreq	r1, ip, r1, lsl #2
     12c:	003a0000 	eorseq	r0, sl, r0
     130:	10000000 	andne	r0, r0, r0
     134:	0000802c 	andeq	r8, r0, ip, lsr #32
     138:	00000491 	muleq	r0, r1, r4
     13c:	0000014c 	andeq	r0, r0, ip, asr #2
     140:	07500111 	smmlaeq	r0, r1, r1, r0
     144:	0a5001f3 	beq	1400918 <__bss_end__+0x13f6a08>
     148:	001e03e8 	andseq	r0, lr, r8, ror #7
     14c:	00803c12 	addeq	r3, r0, r2, lsl ip
     150:	0004a200 	andeq	sl, r4, r0, lsl #4
     154:	80501000 	subshi	r1, r0, r0
     158:	04a90000 	strteq	r0, [r9], #0
     15c:	01830000 	orreq	r0, r3, r0
     160:	01110000 	tsteq	r1, r0
     164:	113e0153 	teqne	lr, r3, asr r1
     168:	03055201 	movweq	r5, #20993	; 0x5201
     16c:	00009844 	andeq	r9, r0, r4, asr #16
     170:	05510111 	ldrbeq	r0, [r1, #-273]	; 0x111
     174:	00988403 	addseq	r8, r8, r3, lsl #8
     178:	50011100 	andpl	r1, r1, r0, lsl #2
     17c:	98540305 	ldmdals	r4, {r0, r2, r8, r9}^
     180:	12000000 	andne	r0, r0, #0
     184:	00008054 	andeq	r8, r0, r4, asr r0
     188:	000004bf 			; <UNDEFINED> instruction: 0x000004bf
     18c:	00721300 	rsbseq	r1, r2, r0, lsl #6
     190:	019d0000 	orrseq	r0, sp, r0
     194:	6b140000 	blvs	50019c <__bss_end__+0x4f628c>
     198:	0e000000 	cdpeq	0, 0, cr0, cr0, cr0, {0}
     19c:	018d0500 	orreq	r0, sp, r0, lsl #10
     1a0:	790a0000 	stmdbvc	sl, {}	; <UNPREDICTABLE>
     1a4:	01000000 	mrseq	r0, (UNDEF: 0)
     1a8:	00002c1b 	andeq	r2, r0, fp, lsl ip
     1ac:	00806000 	addeq	r6, r0, r0
     1b0:	00007c00 	andeq	r7, r0, r0, lsl #24
     1b4:	da9c0100 	ble	fe7005bc <__bss_end__+0xfe6f66ac>
     1b8:	0b000002 	bleq	1c8 <_start-0x7e38>
     1bc:	006e6970 	rsbeq	r6, lr, r0, ror r9
     1c0:	002c1b01 	eoreq	r1, ip, r1, lsl #22
     1c4:	004d0000 	subeq	r0, sp, r0
     1c8:	6c0b0000 	stcvs	0, cr0, [fp], {-0}
     1cc:	da1b0100 	ble	6c05d4 <__bss_end__+0x6b66c4>
     1d0:	6b000002 	blvs	1e0 <_start-0x7e20>
     1d4:	15000000 	strne	r0, [r0, #-0]
     1d8:	000001c5 	andeq	r0, r0, r5, asr #3
     1dc:	002c1b01 	eoreq	r1, ip, r1, lsl #22
     1e0:	00970000 	addseq	r0, r7, r0
     1e4:	0c150000 	ldceq	0, cr0, [r5], {-0}
     1e8:	01000000 	mrseq	r0, (UNDEF: 0)
     1ec:	00002c1b 	andeq	r2, r0, fp, lsl ip
     1f0:	0000b500 	andeq	fp, r0, r0, lsl #10
     1f4:	014b1600 	cmpeq	fp, r0, lsl #12
     1f8:	1c010000 	stcne	0, cr0, [r1], {-0}
     1fc:	00000025 	andeq	r0, r0, r5, lsr #32
     200:	00000e00 	andeq	r0, r0, r0, lsl #28
     204:	1d010000 	stcne	0, cr0, [r1, #-0]
     208:	00000025 	andeq	r0, r0, r5, lsr #32
     20c:	000000d6 	ldrdeq	r0, [r0], -r6
     210:	0001340e 	andeq	r3, r1, lr, lsl #8
     214:	2c1e0100 	ldfcss	f0, [lr], {-0}
     218:	02000000 	andeq	r0, r0, #0
     21c:	0e000001 	cdpeq	0, 0, cr0, cr0, cr1, {0}
     220:	000001d5 	ldrdeq	r0, [r0], -r5
     224:	002c1f01 	eoreq	r1, ip, r1, lsl #30
     228:	01370000 	teqeq	r7, r0
     22c:	3b0d0000 	blcc	340234 <__bss_end__+0x336324>
     230:	01000004 	tsteq	r0, r4
     234:	00002c21 	andeq	r2, r0, r1, lsr #24
     238:	808c0f00 	addhi	r0, ip, r0, lsl #30
     23c:	00040000 	andeq	r0, r4, r0
     240:	02520000 	subseq	r0, r2, #0
     244:	640d0000 	strvs	r0, [sp], #-0
     248:	01000001 	tsteq	r0, r1
     24c:	00002c21 	andeq	r2, r0, r1, lsr #24
     250:	9c0f0000 	stcls	0, cr0, [pc], {-0}
     254:	38000080 	stmdacc	r0, {r7}
     258:	b5000000 	strlt	r0, [r0, #-0]
     25c:	0e000002 	cdpeq	0, 0, cr0, cr0, cr2, {0}
     260:	000000e2 	andeq	r0, r0, r2, ror #1
     264:	002c2401 	eoreq	r2, ip, r1, lsl #8
     268:	014a0000 	mrseq	r0, (UNDEF: 74)
     26c:	b40f0000 	strlt	r0, [pc], #-0	; 274 <_start-0x7d8c>
     270:	04000080 	streq	r0, [r0], #-128	; 0x80
     274:	8b000000 	blhi	27c <_start-0x7d84>
     278:	0e000002 	cdpeq	0, 0, cr0, cr0, cr2, {0}
     27c:	00000164 	andeq	r0, r0, r4, ror #2
     280:	002c2801 	eoreq	r2, ip, r1, lsl #16
     284:	015d0000 	cmpeq	sp, r0
     288:	0f000000 	svceq	0x00000000
     28c:	000080c0 	andeq	r8, r0, r0, asr #1
     290:	00000004 	andeq	r0, r0, r4
     294:	000002a4 	andeq	r0, r0, r4, lsr #5
     298:	0001640d 	andeq	r6, r1, sp, lsl #8
     29c:	2c290100 	stfcss	f0, [r9], #-0
     2a0:	00000000 	andeq	r0, r0, r0
     2a4:	0080a417 	addeq	sl, r0, r7, lsl r4
     2a8:	0004c600 	andeq	ip, r4, r0, lsl #12
     2ac:	50011100 	andpl	r1, r1, r0, lsl #2
     2b0:	00007402 	andeq	r7, r0, r2, lsl #8
     2b4:	80741000 	rsbshi	r1, r4, r0
     2b8:	04c60000 	strbeq	r0, [r6], #0
     2bc:	02c90000 	sbceq	r0, r9, #0
     2c0:	01110000 	tsteq	r1, r0
     2c4:	00740250 	rsbseq	r0, r4, r0, asr r2
     2c8:	80801700 	addhi	r1, r0, r0, lsl #14
     2cc:	04c60000 	strbeq	r0, [r6], #0
     2d0:	01110000 	tsteq	r1, r0
     2d4:	00740250 	rsbseq	r0, r4, r0, asr r2
     2d8:	04040000 	streq	r0, [r4], #-0
     2dc:	000000a3 	andeq	r0, r0, r3, lsr #1
     2e0:	0000ec18 	andeq	lr, r0, r8, lsl ip
     2e4:	dc320100 	ldfles	f0, [r2], #-0
     2e8:	90000080 	andls	r0, r0, r0, lsl #1
     2ec:	01000000 	mrseq	r0, (UNDEF: 0)
     2f0:	0003c29c 	muleq	r3, ip, r2
     2f4:	006c0b00 	rsbeq	r0, ip, r0, lsl #22
     2f8:	02da3201 	sbcseq	r3, sl, #268435456	; 0x10000000
     2fc:	01700000 	cmneq	r0, r0
     300:	6e0b0000 	cdpvs	0, 0, cr0, cr11, cr0, {0}
     304:	2c320100 	ldfcss	f0, [r2], #-0
     308:	9c000000 	stcls	0, cr0, [r0], {-0}
     30c:	15000001 	strne	r0, [r0, #-1]
     310:	00000017 	andeq	r0, r0, r7, lsl r0
     314:	002c3201 	eoreq	r3, ip, r1, lsl #4
     318:	01ca0000 	biceq	r0, sl, r0
     31c:	74190000 	ldrvc	r0, [r9], #-0
     320:	0100746f 	tsteq	r0, pc, ror #8
     324:	00002c33 	andeq	r2, r0, r3, lsr ip
     328:	0001f600 	andeq	pc, r1, r0, lsl #12
     32c:	01f90e00 	mvnseq	r0, r0, lsl #28
     330:	33010000 	movwcc	r0, #4096	; 0x1000
     334:	0000002c 	andeq	r0, r0, ip, lsr #32
     338:	00000215 	andeq	r0, r0, r5, lsl r2
     33c:	0000001a 	andeq	r0, r0, sl, lsl r0
     340:	00691900 	rsbeq	r1, r9, r0, lsl #18
     344:	00253501 	eoreq	r3, r5, r1, lsl #10
     348:	02340000 	eorseq	r0, r4, #0
     34c:	141b0000 	ldrne	r0, [fp], #-0
     350:	40000081 	andmi	r0, r0, r1, lsl #1
     354:	19000000 	stmdbne	r0, {}	; <UNPREDICTABLE>
     358:	36010065 	strcc	r0, [r1], -r5, rrx
     35c:	000002da 	ldrdeq	r0, [r0], -sl
     360:	00000276 	andeq	r0, r0, r6, ror r2
     364:	0001690e 	andeq	r6, r1, lr, lsl #18
     368:	2c380100 	ldfcss	f0, [r8], #-0
     36c:	99000000 	stmdbls	r0, {}	; <UNPREDICTABLE>
     370:	19000002 	stmdbne	r0, {r1}
     374:	00707865 	rsbseq	r7, r0, r5, ror #16
     378:	002c3b01 	eoreq	r3, ip, r1, lsl #22
     37c:	02ac0000 	adceq	r0, ip, #0
     380:	65190000 	ldrvs	r0, [r9, #-0]
     384:	01007272 	tsteq	r0, r2, ror r2
     388:	00002c3c 	andeq	r2, r0, ip, lsr ip
     38c:	0002bf00 	andeq	fp, r2, r0, lsl #30
     390:	81541700 	cmphi	r4, r0, lsl #14
     394:	04a90000 	strteq	r0, [r9], #0
     398:	01110000 	tsteq	r1, r0
     39c:	7f770251 	svcvc	0x00770251
     3a0:	05500111 	ldrbeq	r0, [r0, #-273]	; 0x111
     3a4:	00988c03 	addseq	r8, r8, r3, lsl #24
     3a8:	7d021100 	stfvcs	f1, [r2, #-0]
     3ac:	0076020c 	rsbseq	r0, r6, ip, lsl #4
     3b0:	047d0211 	ldrbteq	r0, [sp], #-529	; 0x211
     3b4:	11007402 	tstne	r0, r2, lsl #8
     3b8:	02007d02 	andeq	r7, r0, #2, 26	; 0x80
     3bc:	00000075 	andeq	r0, r0, r5, ror r0
     3c0:	8f180000 	svchi	0x00180000
     3c4:	01000000 	mrseq	r0, (UNDEF: 0)
     3c8:	00816c43 	addeq	r6, r1, r3, asr #24
     3cc:	00004c00 	andeq	r4, r0, r0, lsl #24
     3d0:	819c0100 	orrshi	r0, ip, r0, lsl #2
     3d4:	1c000004 	stcne	0, cr0, [r0], {4}
     3d8:	006e6970 	rsbeq	r6, lr, r0, ror r9
     3dc:	00254401 	eoreq	r4, r5, r1, lsl #8
     3e0:	1d150000 	ldcne	0, cr0, [r5, #-0]
     3e4:	00676f6c 	rsbeq	r6, r7, ip, ror #30
     3e8:	04814901 	streq	r4, [r1], #2305	; 0x901
     3ec:	91030000 	mrsls	r0, (UNDEF: 3)
     3f0:	6e197fa8 	cdpvs	15, 1, cr7, cr9, cr8, {5}
     3f4:	2c4b0100 	stfcse	f0, [fp], {-0}
     3f8:	de000000 	cdple	0, 0, cr0, cr0, cr0, {0}
     3fc:	0f000002 	svceq	0x00000002
     400:	0000817c 	andeq	r8, r0, ip, ror r1
     404:	00000008 	andeq	r0, r0, r8
     408:	00000418 	andeq	r0, r0, r8, lsl r4
     40c:	006e691c 	rsbeq	r6, lr, ip, lsl r9
     410:	002c4601 	eoreq	r4, ip, r1, lsl #12
     414:	00010000 	andeq	r0, r1, r0
     418:	00817c10 	addeq	r7, r1, r0, lsl ip
     41c:	0004db00 	andeq	sp, r4, r0, lsl #22
     420:	00042b00 	andeq	r2, r4, r0, lsl #22
     424:	50011100 	andpl	r1, r1, r0, lsl #2
     428:	10004501 	andne	r4, r0, r1, lsl #10
     42c:	0000818c 	andeq	r8, r0, ip, lsl #3
     430:	000000ae 	andeq	r0, r0, lr, lsr #1
     434:	0000043e 	andeq	r0, r0, lr, lsr r4
     438:	01500111 	cmpeq	r0, r1, lsl r1
     43c:	a0100031 	andsge	r0, r0, r1, lsr r0
     440:	a2000081 	andge	r0, r0, #129	; 0x81
     444:	5c000001 	stcpl	0, cr0, [r0], {1}
     448:	11000004 	tstne	r0, r4
     44c:	3a015201 	bcc	54c58 <__bss_end__+0x4ad48>
     450:	02510111 	subseq	r0, r1, #1073741828	; 0x40000004
     454:	0111007d 	tsteq	r1, sp, ror r0
     458:	00450150 	subeq	r0, r5, r0, asr r1
     45c:	0081b010 	addeq	fp, r1, r0, lsl r0
     460:	0002e000 	andeq	lr, r2, r0
     464:	00047700 	andeq	r7, r4, r0, lsl #14
     468:	52011100 	andpl	r1, r1, #0, 2
     46c:	17700a03 	ldrbne	r0, [r0, -r3, lsl #20]!
     470:	02500111 	subseq	r0, r0, #1073741828	; 0x40000004
     474:	1200007d 	andne	r0, r0, #125	; 0x7d
     478:	000081b4 			; <UNDEFINED> instruction: 0x000081b4
     47c:	000004bf 			; <UNDEFINED> instruction: 0x000004bf
     480:	00a31300 	adceq	r1, r3, r0, lsl #6
     484:	04910000 	ldreq	r0, [r1], #0
     488:	6b140000 	blvs	500490 <__bss_end__+0x4f6580>
     48c:	09000000 	stmdbeq	r0, {}	; <UNPREDICTABLE>
     490:	00d91e00 	sbcseq	r1, r9, r0, lsl #28
     494:	50020000 	andpl	r0, r2, r0
     498:	000004a2 	andeq	r0, r0, r2, lsr #9
     49c:	00002c1f 	andeq	r2, r0, pc, lsl ip
     4a0:	e0200000 	eor	r0, r0, r0
     4a4:	02000001 	andeq	r0, r0, #1
     4a8:	0278211e 	rsbseq	r2, r8, #-2147483641	; 0x80000007
     4ac:	29020000 	stmdbcs	r2, {}	; <UNPREDICTABLE>
     4b0:	00000025 	andeq	r0, r0, r5, lsr #32
     4b4:	000004bf 			; <UNDEFINED> instruction: 0x000004bf
     4b8:	0000791f 	andeq	r7, r0, pc, lsl r9
     4bc:	20002200 	andcs	r2, r0, r0, lsl #4
     4c0:	0000009c 	muleq	r0, ip, r0
     4c4:	85216602 	strhi	r6, [r1, #-1538]!	; 0x602
     4c8:	03000000 	movweq	r0, #0
     4cc:	00002524 	andeq	r2, r0, r4, lsr #10
     4d0:	0004db00 	andeq	sp, r4, r0, lsl #22
     4d4:	002c1f00 	eoreq	r1, ip, r0, lsl #30
     4d8:	23000000 	movwcs	r0, #0
     4dc:	000000bc 	strheq	r0, [r0], -ip
     4e0:	2c1f1c03 	ldccs	12, cr1, [pc], {3}
     4e4:	00000000 	andeq	r0, r0, r0
     4e8:	00019100 	andeq	r9, r1, r0, lsl #2
     4ec:	dd000400 	cfstrsle	mvf0, [r0, #-0]
     4f0:	04000001 	streq	r0, [r0], #-1
     4f4:	00021e01 	andeq	r1, r2, r1, lsl #28
     4f8:	02100100 	andseq	r0, r0, #0, 2
     4fc:	02890000 	addeq	r0, r9, #0
     500:	81b80000 			; <UNDEFINED> instruction: 0x81b80000
     504:	00580000 	subseq	r0, r8, r0
     508:	012b0000 	teqeq	fp, r0
     50c:	01020000 	mrseq	r0, (UNDEF: 2)
     510:	02000002 	andeq	r0, r0, #2
     514:	00003028 	andeq	r3, r0, r8, lsr #32
     518:	027f0300 	rsbseq	r0, pc, #0, 6
     51c:	03040000 	movweq	r0, #16384	; 0x4000
     520:	00004700 	andeq	r4, r0, r0, lsl #14
     524:	02d20400 	sbcseq	r0, r2, #0, 8
     528:	00470000 	subeq	r0, r7, r0
     52c:	00000000 	andeq	r0, r0, r0
     530:	81020405 	tsthi	r2, r5, lsl #8
     534:	02000002 	andeq	r0, r0, #2
     538:	00002562 	andeq	r2, r0, r2, ror #10
     53c:	05040600 	streq	r0, [r4, #-1536]	; 0x600
     540:	00746e69 	rsbseq	r6, r4, r9, ror #28
     544:	27070407 	strcs	r0, [r7, -r7, lsl #8]
     548:	07000001 	streq	r0, [r0, -r1]
     54c:	00cd0601 	sbceq	r0, sp, r1, lsl #12
     550:	02070000 	andeq	r0, r7, #0
     554:	0001cb05 	andeq	ip, r1, r5, lsl #22
     558:	05040700 	streq	r0, [r4, #-1792]	; 0x700
     55c:	0000015b 	andeq	r0, r0, fp, asr r1
     560:	56050807 	strpl	r0, [r5], -r7, lsl #16
     564:	07000001 	streq	r0, [r0, -r1]
     568:	00cb0801 	sbceq	r0, fp, r1, lsl #16
     56c:	02070000 	andeq	r0, r7, #0
     570:	0000a907 	andeq	sl, r0, r7, lsl #18
     574:	07040700 	streq	r0, [r4, -r0, lsl #14]
     578:	00000122 	andeq	r0, r0, r2, lsr #2
     57c:	1d070807 	stcne	8, cr0, [r7, #-28]	; 0xffffffe4
     580:	07000001 	streq	r0, [r0, -r1]
     584:	01420704 	cmpeq	r2, r4, lsl #14
     588:	04080000 	streq	r0, [r8], #-0
     58c:	000000a7 	andeq	r0, r0, r7, lsr #1
     590:	d4080107 	strle	r0, [r8], #-263	; 0x107
     594:	08000000 	stmdaeq	r0, {}	; <UNPREDICTABLE>
     598:	0000b404 	andeq	fp, r0, r4, lsl #8
     59c:	00a70900 	adceq	r0, r7, r0, lsl #18
     5a0:	780a0000 	stmdavc	sl, {}	; <UNPREDICTABLE>
     5a4:	01000002 	tsteq	r0, r2
     5a8:	00005406 	andeq	r5, r0, r6, lsl #8
     5ac:	0081b800 	addeq	fp, r1, r0, lsl #16
     5b0:	00005800 	andeq	r5, r0, r0, lsl #16
     5b4:	439c0100 	orrsmi	r0, ip, #0, 2
     5b8:	0b000001 	bleq	5c4 <_start-0x7a3c>
     5bc:	00746d66 	rsbseq	r6, r4, r6, ror #26
     5c0:	00ae0601 	adceq	r0, lr, r1, lsl #12
     5c4:	91020000 	mrsls	r0, (UNDEF: 2)
     5c8:	620d0c70 	andvs	r0, sp, #112, 24	; 0x7000
     5cc:	01006675 	tsteq	r0, r5, ror r6
     5d0:	00014308 	andeq	r4, r1, r8, lsl #6
     5d4:	04030500 	streq	r0, [r3], #-1280	; 0x500
     5d8:	0e00009b 	mcreq	0, 0, r0, cr0, cr11, {4}
     5dc:	000002cd 	andeq	r0, r0, sp, asr #5
     5e0:	00490901 	subeq	r0, r9, r1, lsl #18
     5e4:	91020000 	mrsls	r0, (UNDEF: 2)
     5e8:	7a730f5c 	bvc	1cc4360 <__bss_end__+0x1cba450>
     5ec:	540c0100 	strpl	r0, [ip], #-256	; 0x100
     5f0:	fc000000 	stc2	0, cr0, [r0], {-0}
     5f4:	10000002 	andne	r0, r0, r2
     5f8:	000081e0 	andeq	r8, r0, r0, ror #3
     5fc:	00000174 	andeq	r0, r0, r4, ror r1
     600:	00000136 	andeq	r0, r0, r6, lsr r1
     604:	02530111 	subseq	r0, r3, #1073741828	; 0x40000004
     608:	01114c91 			; <UNDEFINED> instruction: 0x01114c91
     60c:	48910352 	ldmmi	r1, {r1, r4, r6, r8, r9}
     610:	51011106 	tstpl	r1, r6, lsl #2
     614:	04000a03 	streq	r0, [r0], #-2563	; 0xa03
     618:	02500111 	subseq	r0, r0, #1073741828	; 0x40000004
     61c:	12000074 	andne	r0, r0, #116	; 0x74
     620:	000081f4 	strdeq	r8, [r0], -r4
     624:	02500111 	subseq	r0, r0, #1073741828	; 0x40000004
     628:	00000074 	andeq	r0, r0, r4, ror r0
     62c:	0000a713 	andeq	sl, r0, r3, lsl r7
     630:	00015400 	andeq	r5, r1, r0, lsl #8
     634:	009a1400 	addseq	r1, sl, r0, lsl #8
     638:	03ff0000 	mvnseq	r0, #0
     63c:	00541500 	subseq	r1, r4, r0, lsl #10
     640:	01630000 	cmneq	r3, r0
     644:	ae160000 	cdpge	0, 1, cr0, cr6, cr0, {0}
     648:	00000000 	andeq	r0, r0, r0
     64c:	00032517 	andeq	r2, r3, r7, lsl r5
     650:	6e220400 	cdpvs	4, 2, cr0, cr2, cr0, {0}
     654:	08000001 	stmdaeq	r0, {r0}
     658:	00015404 	andeq	r5, r1, r4, lsl #8
     65c:	02751800 	rsbseq	r1, r5, #0, 16
     660:	02050000 	andeq	r0, r5, #0
     664:	00000054 	andeq	r0, r0, r4, asr r0
     668:	0000a116 	andeq	sl, r0, r6, lsl r1
     66c:	00541600 	subseq	r1, r4, r0, lsl #12
     670:	ae160000 	cdpge	0, 1, cr0, cr6, cr0, {0}
     674:	16000000 	strne	r0, [r0], -r0
     678:	00000049 	andeq	r0, r0, r9, asr #32
     67c:	01130000 	tsteq	r3, r0
     680:	00040000 	andeq	r0, r4, r0
     684:	0000030e 	andeq	r0, r0, lr, lsl #6
     688:	021e0104 	andseq	r0, lr, #4, 2
     68c:	f4010000 	vst4.8	{d0-d3}, [r1], r0
     690:	89000002 	stmdbhi	r0, {r1}
     694:	10000002 	andne	r0, r0, r2
     698:	3c000082 	stccc	0, cr0, [r0], {130}	; 0x82
     69c:	31000000 	mrscc	r0, (UNDEF: 0)
     6a0:	02000002 	andeq	r0, r0, #2
     6a4:	6e690504 	cdpvs	5, 6, cr0, cr9, cr4, {0}
     6a8:	04030074 	streq	r0, [r3], #-116	; 0x74
     6ac:	00012707 	andeq	r2, r1, r7, lsl #14
     6b0:	06010300 	streq	r0, [r1], -r0, lsl #6
     6b4:	000000cd 	andeq	r0, r0, sp, asr #1
     6b8:	cb050203 	blgt	140ecc <__bss_end__+0x136fbc>
     6bc:	03000001 	movweq	r0, #1
     6c0:	015b0504 	cmpeq	fp, r4, lsl #10
     6c4:	08030000 	stmdaeq	r3, {}	; <UNPREDICTABLE>
     6c8:	00015605 	andeq	r5, r1, r5, lsl #12
     6cc:	08010300 	stmdaeq	r1, {r8, r9}
     6d0:	000000cb 	andeq	r0, r0, fp, asr #1
     6d4:	a9070203 	stmdbge	r7, {r0, r1, r9}
     6d8:	03000000 	movweq	r0, #0
     6dc:	01220704 	teqeq	r2, r4, lsl #14
     6e0:	08030000 	stmdaeq	r3, {}	; <UNPREDICTABLE>
     6e4:	00011d07 	andeq	r1, r1, r7, lsl #26
     6e8:	07040300 	streq	r0, [r4, -r0, lsl #6]
     6ec:	00000142 	andeq	r0, r0, r2, asr #2
     6f0:	d4080103 	strle	r0, [r8], #-259	; 0x103
     6f4:	04000000 	streq	r0, [r0], #-0
     6f8:	000002d7 	ldrdeq	r0, [r0], -r7
     6fc:	00250301 	eoreq	r0, r5, r1, lsl #6
     700:	82100000 	andshi	r0, r0, #0
     704:	00140000 	andseq	r0, r4, r0
     708:	9c010000 	stcls	0, cr0, [r1], {-0}
     70c:	000000b0 	strheq	r0, [r0], -r0	; <UNPREDICTABLE>
     710:	01006305 	tsteq	r0, r5, lsl #6
     714:	00002503 	andeq	r2, r0, r3, lsl #10
     718:	00032500 	andeq	r2, r3, r0, lsl #10
     71c:	821c0600 	andshi	r0, ip, #0, 12
     720:	01090000 	mrseq	r0, (UNDEF: 9)
     724:	01070000 	mrseq	r0, (UNDEF: 7)
     728:	00740250 	rsbseq	r0, r4, r0, asr r2
     72c:	e0080000 	and	r0, r8, r0
     730:	01000001 	tsteq	r0, r1
     734:	00822408 	addeq	r2, r2, r8, lsl #8
     738:	00001800 	andeq	r1, r0, r0, lsl #16
     73c:	099c0100 	ldmibeq	ip, {r8}
     740:	00000303 	andeq	r0, r0, r3, lsl #6
     744:	823c0b01 	eorshi	r0, ip, #1024	; 0x400
     748:	00100000 	andseq	r0, r0, r0
     74c:	9c010000 	stcls	0, cr0, [r1], {-0}
     750:	000000e3 	andeq	r0, r0, r3, ror #1
     754:	0070660a 	rsbseq	r6, r0, sl, lsl #12
     758:	00f20b01 	rscseq	r0, r2, r1, lsl #22
     75c:	50010000 	andpl	r0, r1, r0
     760:	00250b00 	eoreq	r0, r5, r0, lsl #22
     764:	00f20000 	rscseq	r0, r2, r0
     768:	250c0000 	strcs	r0, [ip, #-0]
     76c:	00000000 	andeq	r0, r0, r0
     770:	00e3040d 	rsceq	r0, r3, sp, lsl #8
     774:	e80e0000 	stmda	lr, {}	; <UNPREDICTABLE>
     778:	01000002 	tsteq	r0, r2
     77c:	0000f206 	andeq	pc, r0, r6, lsl #4
     780:	a8030500 	stmdage	r3, {r8, sl}
     784:	0f000097 	svceq	0x00000097
     788:	0000044f 	andeq	r0, r0, pc, asr #8
     78c:	2c0c3c02 	stccs	12, cr3, [ip], {2}
     790:	00000000 	andeq	r0, r0, r0
     794:	0000ee00 	andeq	lr, r0, r0, lsl #28
     798:	f6000400 			; <UNDEFINED> instruction: 0xf6000400
     79c:	04000003 	streq	r0, [r0], #-3
     7a0:	00021e01 	andeq	r1, r2, r1, lsl #28
     7a4:	03100100 	tsteq	r0, #0, 2
     7a8:	02890000 	addeq	r0, r9, #0
     7ac:	824c0000 	subhi	r0, ip, #0
     7b0:	00340000 	eorseq	r0, r4, r0
     7b4:	02bf0000 	adcseq	r0, pc, #0
     7b8:	04020000 	streq	r0, [r2], #-0
     7bc:	746e6905 	strbtvc	r6, [lr], #-2309	; 0x905
     7c0:	07040300 	streq	r0, [r4, -r0, lsl #6]
     7c4:	00000127 	andeq	r0, r0, r7, lsr #2
     7c8:	cd060103 	stfgts	f0, [r6, #-12]
     7cc:	03000000 	movweq	r0, #0
     7d0:	01cb0502 	biceq	r0, fp, r2, lsl #10
     7d4:	04030000 	streq	r0, [r3], #-0
     7d8:	00015b05 	andeq	r5, r1, r5, lsl #22
     7dc:	05080300 	streq	r0, [r8, #-768]	; 0x300
     7e0:	00000156 	andeq	r0, r0, r6, asr r1
     7e4:	cb080103 	blgt	200bf8 <__bss_end__+0x1f6ce8>
     7e8:	03000000 	movweq	r0, #0
     7ec:	00a90702 	adceq	r0, r9, r2, lsl #14
     7f0:	04030000 	streq	r0, [r3], #-0
     7f4:	00012207 	andeq	r2, r1, r7, lsl #4
     7f8:	07080300 	streq	r0, [r8, -r0, lsl #6]
     7fc:	0000011d 	andeq	r0, r0, sp, lsl r1
     800:	42070403 	andmi	r0, r7, #50331648	; 0x3000000
     804:	03000001 	movweq	r0, #1
     808:	00d40801 	sbcseq	r0, r4, r1, lsl #16
     80c:	04040000 	streq	r0, [r4], #-0
     810:	0000007f 	andeq	r0, r0, pc, ror r0
     814:	00007205 	andeq	r7, r0, r5, lsl #4
     818:	031c0600 	tsteq	ip, #0, 12
     81c:	04010000 	streq	r0, [r1], #-0
     820:	00000025 	andeq	r0, r0, r5, lsr #32
     824:	0000824c 	andeq	r8, r0, ip, asr #4
     828:	00000034 	andeq	r0, r0, r4, lsr r0
     82c:	00ab9c01 	adceq	r9, fp, r1, lsl #24
     830:	70070000 	andvc	r0, r7, r0
     834:	79040100 	stmdbvc	r4, {r8}
     838:	43000000 	movwmi	r0, #0
     83c:	00000003 	andeq	r0, r0, r3
     840:	00002508 	andeq	r2, r0, r8, lsl #10
     844:	0000ba00 	andeq	fp, r0, r0, lsl #20
     848:	00250900 	eoreq	r0, r5, r0, lsl #18
     84c:	0a000000 	beq	854 <_start-0x77ac>
     850:	000002e8 	andeq	r0, r0, r8, ror #5
     854:	00c51d02 	sbceq	r1, r5, r2, lsl #26
     858:	04040000 	streq	r0, [r4], #-0
     85c:	000000ab 	andeq	r0, r0, fp, lsr #1
     860:	00002508 	andeq	r2, r0, r8, lsl #10
     864:	0000da00 	andeq	sp, r0, r0, lsl #20
     868:	00790900 	rsbseq	r0, r9, r0, lsl #18
     86c:	0b000000 	bleq	874 <_start-0x778c>
     870:	00000325 	andeq	r0, r0, r5, lsr #6
     874:	00eb0c01 	rsceq	r0, fp, r1, lsl #24
     878:	03050000 	movweq	r0, #20480	; 0x5000
     87c:	000097ac 	andeq	r9, r0, ip, lsr #15
     880:	00cb0404 	sbceq	r0, fp, r4, lsl #8
     884:	a1000000 	mrsge	r0, (UNDEF: 0)
     888:	04000006 	streq	r0, [r0], #-6
     88c:	00048f00 	andeq	r8, r4, r0, lsl #30
     890:	1e010400 	cfcpysne	mvf0, mvf1
     894:	01000002 	tsteq	r0, r2
     898:	00000356 	andeq	r0, r0, r6, asr r3
     89c:	00000289 	andeq	r0, r0, r9, lsl #5
     8a0:	00008280 	andeq	r8, r0, r0, lsl #5
     8a4:	00000524 	andeq	r0, r0, r4, lsr #10
     8a8:	00000359 	andeq	r0, r0, r9, asr r3
     8ac:	69050402 	stmdbvs	r5, {r1, sl}
     8b0:	0300746e 	movweq	r7, #1134	; 0x46e
     8b4:	01270704 	teqeq	r7, r4, lsl #14
     8b8:	01030000 	mrseq	r0, (UNDEF: 3)
     8bc:	0000cd06 	andeq	ip, r0, r6, lsl #26
     8c0:	05020300 	streq	r0, [r2, #-768]	; 0x300
     8c4:	000001cb 	andeq	r0, r0, fp, asr #3
     8c8:	5b050403 	blpl	1418dc <__bss_end__+0x1379cc>
     8cc:	03000001 	movweq	r0, #1
     8d0:	01560508 	cmpeq	r6, r8, lsl #10
     8d4:	01030000 	mrseq	r0, (UNDEF: 3)
     8d8:	0000cb08 	andeq	ip, r0, r8, lsl #22
     8dc:	07020300 	streq	r0, [r2, -r0, lsl #6]
     8e0:	000000a9 	andeq	r0, r0, r9, lsr #1
     8e4:	22070403 	andcs	r0, r7, #50331648	; 0x3000000
     8e8:	03000001 	movweq	r0, #1
     8ec:	011d0708 	tsteq	sp, r8, lsl #14
     8f0:	04030000 	streq	r0, [r3], #-0
     8f4:	00014207 	andeq	r4, r1, r7, lsl #4
     8f8:	05040400 	streq	r0, [r4, #-1024]	; 0x400
     8fc:	00007a04 	andeq	r7, r0, r4, lsl #20
     900:	08010300 	stmdaeq	r1, {r8, r9}
     904:	000000d4 	ldrdeq	r0, [r0], -r4
     908:	00870405 	addeq	r0, r7, r5, lsl #8
     90c:	7a060000 	bvc	180914 <__bss_end__+0x176a04>
     910:	07000000 	streq	r0, [r0, -r0]
     914:	00000201 	andeq	r0, r0, r1, lsl #4
     918:	00972802 	addseq	r2, r7, r2, lsl #16
     91c:	7f080000 	svcvc	0x00080000
     920:	04000002 	streq	r0, [r0], #-2
     924:	00ae0004 	adceq	r0, lr, r4
     928:	d2090000 	andle	r0, r9, #0
     92c:	72000002 	andvc	r0, r0, #2
     930:	00000000 	andeq	r0, r0, r0
     934:	02810700 	addeq	r0, r1, #0, 14
     938:	62020000 	andvs	r0, r2, #0
     93c:	0000008c 	andeq	r0, r0, ip, lsl #1
     940:	0003380a 	andeq	r3, r3, sl, lsl #16
     944:	25270100 	strcs	r0, [r7, #-256]!	; 0x100
     948:	80000000 	andhi	r0, r0, r0
     94c:	14000082 	strne	r0, [r0], #-130	; 0x82
     950:	01000000 	mrseq	r0, (UNDEF: 0)
     954:	0000e09c 	muleq	r0, ip, r0
     958:	00630b00 	rsbeq	r0, r3, r0, lsl #22
     95c:	00252701 	eoreq	r2, r5, r1, lsl #14
     960:	03610000 	cmneq	r1, #0
     964:	0c000000 	stceq	0, cr0, [r0], {-0}
     968:	00646170 	rsbeq	r6, r4, r0, ror r1
     96c:	00742e01 	rsbseq	r2, r4, r1, lsl #28
     970:	82940000 	addshi	r0, r4, #0
     974:	002c0000 	eoreq	r0, ip, r0
     978:	9c010000 	stcls	0, cr0, [r1], {-0}
     97c:	00000130 	andeq	r0, r0, r0, lsr r1
     980:	0100700b 	tsteq	r0, fp
     984:	0000742e 	andeq	r7, r0, lr, lsr #8
     988:	00038f00 	andeq	r8, r3, r0, lsl #30
     98c:	03480d00 	movteq	r0, #36096	; 0x8d00
     990:	2e010000 	cdpcs	0, 0, cr0, cr1, cr0, {0}
     994:	00000074 	andeq	r0, r0, r4, ror r0
     998:	000003ba 			; <UNDEFINED> instruction: 0x000003ba
     99c:	0003760e 	andeq	r7, r3, lr, lsl #12
     9a0:	252e0100 	strcs	r0, [lr, #-256]!	; 0x100
     9a4:	01000000 	mrseq	r0, (UNDEF: 0)
     9a8:	656c0f52 	strbvs	r0, [ip, #-3922]!	; 0xf52
     9ac:	2f01006e 	svccs	0x0001006e
     9b0:	00000025 	andeq	r0, r0, r5, lsr #32
     9b4:	0a005101 	beq	14dc0 <__bss_end__+0xaeb0>
     9b8:	00000330 	andeq	r0, r0, r0, lsr r3
     9bc:	00743701 	rsbseq	r3, r4, r1, lsl #14
     9c0:	82c00000 	sbchi	r0, r0, #0
     9c4:	00400000 	subeq	r0, r0, r0
     9c8:	9c010000 	stcls	0, cr0, [r1], {-0}
     9cc:	0000019c 	muleq	r0, ip, r1
     9d0:	7473640b 	ldrbtvc	r6, [r3], #-1035	; 0x40b
     9d4:	74370100 	ldrtvc	r0, [r7], #-256	; 0x100
     9d8:	db000000 	blle	9e0 <_start-0x7620>
     9dc:	0b000003 	bleq	9f0 <_start-0x7610>
     9e0:	3701006e 	strcc	r0, [r1, -lr, rrx]
     9e4:	00000025 	andeq	r0, r0, r5, lsr #32
     9e8:	00000413 	andeq	r0, r0, r3, lsl r4
     9ec:	0100700b 	tsteq	r0, fp
     9f0:	00007437 	andeq	r7, r0, r7, lsr r4
     9f4:	00043400 	andeq	r3, r4, r0, lsl #8
     9f8:	043b0d00 	ldrteq	r0, [fp], #-3328	; 0xd00
     9fc:	37010000 	strcc	r0, [r1, -r0]
     a00:	00000074 	andeq	r0, r0, r4, ror r0
     a04:	0000046a 	andeq	r0, r0, sl, ror #8
     a08:	6e656c10 	mcrvs	12, 3, r6, cr5, cr0, {0}
     a0c:	25390100 	ldrcs	r0, [r9, #-256]!	; 0x100
     a10:	88000000 	stmdahi	r0, {}	; <UNPREDICTABLE>
     a14:	0f000004 	svceq	0x00000004
     a18:	3d010073 	stccc	0, cr0, [r1, #-460]	; 0xfffffe34
     a1c:	00000074 	andeq	r0, r0, r4, ror r0
     a20:	0a005001 	beq	14a2c <__bss_end__+0xab1c>
     a24:	00000384 	andeq	r0, r0, r4, lsl #7
     a28:	00744701 	rsbseq	r4, r4, r1, lsl #14
     a2c:	83000000 	movwhi	r0, #0
     a30:	01a80000 			; <UNDEFINED> instruction: 0x01a80000
     a34:	9c010000 	stcls	0, cr0, [r1], {-0}
     a38:	000002df 	ldrdeq	r0, [r0], -pc	; <UNPREDICTABLE>
     a3c:	0003480d 	andeq	r4, r3, sp, lsl #16
     a40:	2c470100 	stfcse	f0, [r7], {-0}
     a44:	af000000 	svcge	0x00000000
     a48:	0b000004 	bleq	a60 <_start-0x75a0>
     a4c:	00747364 	rsbseq	r7, r4, r4, ror #6
     a50:	00744701 	rsbseq	r4, r4, r1, lsl #14
     a54:	04dd0000 	ldrbeq	r0, [sp], #0
     a58:	6e0b0000 	cdpvs	0, 0, cr0, cr11, cr0, {0}
     a5c:	25470100 	strbcs	r0, [r7, #-256]	; 0x100
     a60:	4b000000 	blmi	a68 <_start-0x7598>
     a64:	0b000005 	bleq	a80 <_start-0x7580>
     a68:	006c6176 	rsbeq	r6, ip, r6, ror r1
     a6c:	00254701 	eoreq	r4, r5, r1, lsl #14
     a70:	05770000 	ldrbeq	r0, [r7, #-0]!
     a74:	760d0000 	strvc	r0, [sp], -r0
     a78:	01000003 	tsteq	r0, r3
     a7c:	00002547 	andeq	r2, r0, r7, asr #10
     a80:	0005f600 	andeq	pc, r5, r0, lsl #12
     a84:	034d0e00 	movteq	r0, #56832	; 0xde00
     a88:	47010000 	strmi	r0, [r1, -r0]
     a8c:	00000025 	andeq	r0, r0, r5, lsr #32
     a90:	0f049102 	svceq	0x00049102
     a94:	00667562 	rsbeq	r7, r6, r2, ror #10
     a98:	02df4c01 	sbcseq	r4, pc, #256	; 0x100
     a9c:	91030000 	mrsls	r0, (UNDEF: 3)
     aa0:	70107fa8 	andsvc	r7, r0, r8, lsr #31
     aa4:	744c0100 	strbvc	r0, [ip], #-256	; 0x100
     aa8:	20000000 	andcs	r0, r0, r0
     aac:	10000006 	andne	r0, r0, r6
     ab0:	4d010075 	stcmi	0, cr0, [r1, #-468]	; 0xfffffe2c
     ab4:	0000002c 	andeq	r0, r0, ip, lsr #32
     ab8:	000006dc 	ldrdeq	r0, [r0], -ip
     abc:	0000f911 	andeq	pc, r0, r1, lsl r9	; <UNPREDICTABLE>
     ac0:	0002ff00 	andeq	pc, r2, r0, lsl #30
     ac4:	c8030500 	stmdagt	r3, {r8, sl}
     ac8:	12000098 	andne	r0, r0, #152	; 0x98
     acc:	0000836c 	andeq	r8, r0, ip, ror #6
     ad0:	00000074 	andeq	r0, r0, r4, ror r0
     ad4:	00000261 	andeq	r0, r0, r1, ror #4
     ad8:	00032a13 	andeq	r2, r3, r3, lsl sl
     adc:	2c520100 	ldfcse	f0, [r2], {-0}
     ae0:	e1000000 	mrs	r0, (UNDEF: 0)
     ae4:	00000007 	andeq	r0, r0, r7
     ae8:	00844014 	addeq	r4, r4, r4, lsl r0
     aec:	00068000 	andeq	r8, r6, r0
     af0:	845c1500 	ldrbhi	r1, [ip], #-1280	; 0x500
     af4:	06870000 	streq	r0, [r7], r0
     af8:	02a30000 	adceq	r0, r3, #0
     afc:	01160000 	tsteq	r6, r0
     b00:	75080253 	strvc	r0, [r8, #-595]	; 0x253
     b04:	05520116 	ldrbeq	r0, [r2, #-278]	; 0x116
     b08:	0098c803 	addseq	ip, r8, r3, lsl #16
     b0c:	51011600 	tstpl	r1, r0, lsl #12
     b10:	99000305 	stmdbls	r0, {r0, r2, r8, r9}
     b14:	01160000 	tsteq	r6, r0
     b18:	ec030550 	cfstr32	mvfx0, [r3], {80}	; 0x50
     b1c:	16000098 			; <UNDEFINED> instruction: 0x16000098
     b20:	05007d02 	streq	r7, [r0, #-3330]	; 0xd02
     b24:	00991403 	addseq	r1, r9, r3, lsl #8
     b28:	60140000 	andsvs	r0, r4, r0
     b2c:	9d000084 	stcls	0, cr0, [r0, #-528]	; 0xfffffdf0
     b30:	15000006 	strne	r0, [r0, #-6]
     b34:	0000846c 	andeq	r8, r0, ip, ror #8
     b38:	000000e0 	andeq	r0, r0, r0, ror #1
     b3c:	000002c1 	andeq	r0, r0, r1, asr #5
     b40:	03510116 	cmpeq	r1, #-2147483643	; 0x80000005
     b44:	007fa091 			; <UNDEFINED> instruction: 0x007fa091
     b48:	00848017 	addeq	r8, r4, r7, lsl r0
     b4c:	00013000 	andeq	r3, r1, r0
     b50:	53011600 	movwpl	r1, #5632	; 0x1600
     b54:	7fa09103 	svcvc	0x00a09103
     b58:	02510116 	subseq	r0, r1, #-2147483643	; 0x80000005
     b5c:	01160074 	tsteq	r6, r4, ror r0
     b60:	00750250 	rsbseq	r0, r5, r0, asr r2
     b64:	7a180000 	bvc	600b6c <__bss_end__+0x5f6c5c>
     b68:	ef000000 	svc	0x00000000
     b6c:	19000002 	stmdbne	r0, {r1}
     b70:	0000006b 	andeq	r0, r0, fp, rrx
     b74:	7a18003f 	bvc	600c78 <__bss_end__+0x5f6d68>
     b78:	ff000000 			; <UNDEFINED> instruction: 0xff000000
     b7c:	19000002 	stmdbne	r0, {r1}
     b80:	0000006b 	andeq	r0, r0, fp, rrx
     b84:	ef060004 	svc	0x00060004
     b88:	1a000002 	bne	b98 <_start-0x7468>
     b8c:	00000367 	andeq	r0, r0, r7, ror #6
     b90:	84a81f01 	strthi	r1, [r8], #3841	; 0xf01
     b94:	00680000 	rsbeq	r0, r8, r0
     b98:	9c010000 	stcls	0, cr0, [r1], {-0}
     b9c:	00000392 	muleq	r0, r2, r3
     ba0:	00037c0d 	andeq	r7, r3, sp, lsl #24
     ba4:	a11f0100 	tstge	pc, r0, lsl #2
     ba8:	0d000003 	stceq	0, cr0, [r0, #-12]
     bac:	0d000008 	stceq	0, cr0, [r0, #-32]	; 0xffffffe0
     bb0:	00000340 	andeq	r0, r0, r0, asr #6
     bb4:	03b61f01 			; <UNDEFINED> instruction: 0x03b61f01
     bb8:	08390000 	ldmdaeq	r9!, {}	; <UNPREDICTABLE>
     bbc:	f9110000 			; <UNDEFINED> instruction: 0xf9110000
     bc0:	cc000000 	stcgt	0, cr0, [r0], {-0}
     bc4:	05000003 	streq	r0, [r0, #-3]
     bc8:	0098d003 	addseq	sp, r8, r3
     bcc:	84bc1400 	ldrthi	r1, [ip], #1024	; 0x400
     bd0:	06800000 	streq	r0, [r0], r0
     bd4:	d8150000 	ldmdale	r5, {}	; <UNPREDICTABLE>
     bd8:	87000084 	strhi	r0, [r0, -r4, lsl #1]
     bdc:	88000006 	stmdahi	r0, {r1, r2}
     be0:	16000003 	strne	r0, [r0], -r3
     be4:	08025301 	stmdaeq	r2, {r0, r8, r9, ip, lr}
     be8:	52011620 	andpl	r1, r1, #32, 12	; 0x2000000
     bec:	98d00305 	ldmls	r0, {r0, r2, r8, r9}^
     bf0:	01160000 	tsteq	r6, r0
     bf4:	00030551 	andeq	r0, r3, r1, asr r5
     bf8:	16000099 			; <UNDEFINED> instruction: 0x16000099
     bfc:	03055001 	movweq	r5, #20481	; 0x5001
     c00:	000098ec 	andeq	r9, r0, ip, ror #17
     c04:	007d0216 	rsbseq	r0, sp, r6, lsl r2
     c08:	993c0305 	ldmdbls	ip!, {r0, r2, r8, r9}
     c0c:	14000000 	strne	r0, [r0], #-0
     c10:	000084dc 	ldrdeq	r8, [r0], -ip
     c14:	0000069d 	muleq	r0, sp, r6
     c18:	00251b00 	eoreq	r1, r5, r0, lsl #22
     c1c:	03a10000 			; <UNDEFINED> instruction: 0x03a10000
     c20:	251c0000 	ldrcs	r0, [ip, #-0]
     c24:	00000000 	andeq	r0, r0, r0
     c28:	03920405 	orrseq	r0, r2, #83886080	; 0x5000000
     c2c:	251b0000 	ldrcs	r0, [fp, #-0]
     c30:	b6000000 	strlt	r0, [r0], -r0
     c34:	1c000003 	stcne	0, cr0, [r0], {3}
     c38:	00000081 	andeq	r0, r0, r1, lsl #1
     c3c:	a7040500 	strge	r0, [r4, -r0, lsl #10]
     c40:	18000003 	stmdane	r0, {r0, r1}
     c44:	0000007a 	andeq	r0, r0, sl, ror r0
     c48:	000003cc 	andeq	r0, r0, ip, asr #7
     c4c:	00006b19 	andeq	r6, r0, r9, lsl fp
     c50:	06000e00 	streq	r0, [r0], -r0, lsl #28
     c54:	000003bc 			; <UNDEFINED> instruction: 0x000003bc
     c58:	0002751d 	andeq	r7, r2, sp, lsl r5
     c5c:	257d0100 	ldrbcs	r0, [sp, #-256]!	; 0x100
     c60:	10000000 	andne	r0, r0, r0
     c64:	94000085 	strls	r0, [r0], #-133	; 0x85
     c68:	01000002 	tsteq	r0, r2
     c6c:	0006459c 	muleq	r6, ip, r5
     c70:	75620b00 	strbvc	r0, [r2, #-2816]!	; 0xb00
     c74:	7d010066 	stcvc	0, cr0, [r1, #-408]	; 0xfffffe68
     c78:	00000074 	andeq	r0, r0, r4, ror r0
     c7c:	00000865 	andeq	r0, r0, r5, ror #16
     c80:	01006e0b 	tsteq	r0, fp, lsl #28
     c84:	0000257d 	andeq	r2, r0, sp, ror r5
     c88:	00089100 	andeq	r9, r8, r0, lsl #2
     c8c:	6d660b00 	vstmdbvs	r6!, {d16-d15}
     c90:	7d010074 	stcvc	0, cr0, [r1, #-464]	; 0xfffffe30
     c94:	00000081 	andeq	r0, r0, r1, lsl #1
     c98:	000008bf 			; <UNDEFINED> instruction: 0x000008bf
     c9c:	0002cd0d 	andeq	ip, r2, sp, lsl #26
     ca0:	ae7d0100 	rpwgee	f0, f5, f0
     ca4:	f3000000 	vhadd.u8	d0, d0, d0
     ca8:	10000008 	andne	r0, r0, r8
     cac:	7e010070 	mcrvc	0, 0, r0, cr1, cr0, {3}
     cb0:	00000074 	andeq	r0, r0, r4, ror r0
     cb4:	00000906 	andeq	r0, r0, r6, lsl #18
     cb8:	01006510 	tsteq	r0, r0, lsl r5
     cbc:	0000747e 	andeq	r7, r0, lr, ror r4
     cc0:	00098400 	andeq	r8, r9, r0, lsl #8
     cc4:	00f91100 	rscseq	r1, r9, r0, lsl #2
     cc8:	06550000 	ldrbeq	r0, [r5], -r0
     ccc:	03050000 	movweq	r0, #20480	; 0x5000
     cd0:	000098e0 	andeq	r9, r0, r0, ror #17
     cd4:	0000201e 	andeq	r2, r0, lr, lsl r0
     cd8:	00731000 	rsbseq	r1, r3, r0
     cdc:	00748b01 	rsbseq	r8, r4, r1, lsl #22
     ce0:	09ab0000 	stmibeq	fp!, {}	; <UNPREDICTABLE>
     ce4:	6e0f0000 	cdpvs	0, 0, cr0, cr15, cr0, {0}
     ce8:	01006d75 	tsteq	r0, r5, ror sp
     cec:	00065a8b 	andeq	r5, r6, fp, lsl #21
     cf0:	d8910300 	ldmle	r1, {r8, r9}
     cf4:	0376137e 	cmneq	r6, #-134217727	; 0xf8000001
     cf8:	8c010000 	stchi	0, cr0, [r1], {-0}
     cfc:	0000002c 	andeq	r0, r0, ip, lsr #32
     d00:	00000a00 	andeq	r0, r0, r0, lsl #20
     d04:	00859415 	addeq	r9, r5, r5, lsl r4
     d08:	0000b900 	andeq	fp, r0, r0, lsl #18
     d0c:	00049100 	andeq	r9, r4, r0, lsl #2
     d10:	50011600 	andpl	r1, r1, r0, lsl #12
     d14:	00007502 	andeq	r7, r0, r2, lsl #10
     d18:	0085a814 	addeq	sl, r5, r4, lsl r8
     d1c:	00068000 	andeq	r8, r6, r0
     d20:	85c41500 	strbhi	r1, [r4, #1280]	; 0x500
     d24:	06870000 	streq	r0, [r7], r0
     d28:	04d30000 	ldrbeq	r0, [r3], #0
     d2c:	01160000 	tsteq	r6, r0
     d30:	92080253 	andls	r0, r8, #805306373	; 0x30000005
     d34:	05520116 	ldrbeq	r0, [r2, #-278]	; 0x116
     d38:	0098e003 	addseq	lr, r8, r3
     d3c:	51011600 	tstpl	r1, r0, lsl #12
     d40:	99000305 	stmdbls	r0, {r0, r2, r8, r9}
     d44:	01160000 	tsteq	r6, r0
     d48:	ec030550 	cfstr32	mvfx0, [r3], {80}	; 0x50
     d4c:	16000098 			; <UNDEFINED> instruction: 0x16000098
     d50:	05007d02 	streq	r7, [r0, #-3330]	; 0xd02
     d54:	00994403 	addseq	r4, r9, r3, lsl #8
     d58:	c8140000 	ldmdagt	r4, {}	; <UNPREDICTABLE>
     d5c:	9d000085 	stcls	0, cr0, [r0, #-532]	; 0xfffffdec
     d60:	14000006 	strne	r0, [r0], #-6
     d64:	00008638 	andeq	r8, r0, r8, lsr r6
     d68:	00000680 	andeq	r0, r0, r0, lsl #13
     d6c:	00864c15 	addeq	r4, r6, r5, lsl ip
     d70:	00068700 	andeq	r8, r6, r0, lsl #14
     d74:	00051400 	andeq	r1, r5, r0, lsl #8
     d78:	53011600 	movwpl	r1, #5632	; 0x1600
     d7c:	16980802 	ldrne	r0, [r8], r2, lsl #16
     d80:	03055201 	movweq	r5, #20993	; 0x5201
     d84:	000098e0 	andeq	r9, r0, r0, ror #17
     d88:	05510116 	ldrbeq	r0, [r1, #-278]	; 0x116
     d8c:	00990003 	addseq	r0, r9, r3
     d90:	50011600 	andpl	r1, r1, r0, lsl #12
     d94:	99500305 	ldmdbls	r0, {r0, r2, r8, r9}^
     d98:	14000000 	strne	r0, [r0], #-0
     d9c:	00008650 	andeq	r8, r0, r0, asr r6
     da0:	0000069d 	muleq	r0, sp, r6
     da4:	00867415 	addeq	r7, r6, r5, lsl r4
     da8:	00019c00 	andeq	r9, r1, r0, lsl #24
     dac:	00054a00 	andeq	r4, r5, r0, lsl #20
     db0:	52011600 	andpl	r1, r1, #0, 12
     db4:	16800802 	strne	r0, [r0], r2, lsl #16
     db8:	91035101 	tstls	r3, r1, lsl #2
     dbc:	01167ed0 			; <UNDEFINED> instruction: 0x01167ed0
     dc0:	163a0150 			; <UNDEFINED> instruction: 0x163a0150
     dc4:	01047d02 	tsteq	r4, r2, lsl #26
     dc8:	7d021631 	stcvc	6, cr1, [r2, #-196]	; 0xffffff3c
     dcc:	00770200 	rsbseq	r0, r7, r0, lsl #4
     dd0:	86981500 	ldrhi	r1, [r8], r0, lsl #10
     dd4:	019c0000 	orrseq	r0, ip, r0
     dd8:	05780000 	ldrbeq	r0, [r8, #-0]!
     ddc:	01160000 	tsteq	r6, r0
     de0:	80080252 	andhi	r0, r8, r2, asr r2
     de4:	03510116 	cmpeq	r1, #-2147483643	; 0x80000005
     de8:	167ed091 			; <UNDEFINED> instruction: 0x167ed091
     dec:	3a015001 	bcc	54df8 <__bss_end__+0x4aee8>
     df0:	047d0216 	ldrbteq	r0, [sp], #-534	; 0x216
     df4:	16007b02 	strne	r7, [r0], -r2, lsl #22
     df8:	02007d02 	andeq	r7, r0, #2, 26	; 0x80
     dfc:	15000077 	strne	r0, [r0, #-119]	; 0x77
     e00:	000086bc 			; <UNDEFINED> instruction: 0x000086bc
     e04:	0000019c 	muleq	r0, ip, r1
     e08:	000005a6 	andeq	r0, r0, r6, lsr #11
     e0c:	02520116 	subseq	r0, r2, #-2147483643	; 0x80000005
     e10:	01168008 	tsteq	r6, r8
     e14:	d0910351 	addsle	r0, r1, r1, asr r3
     e18:	5001167e 	andpl	r1, r1, lr, ror r6
     e1c:	02164001 	andseq	r4, r6, #1
     e20:	7b02047d 	blvc	8201c <__bss_end__+0x7810c>
     e24:	7d021600 	stcvc	6, cr1, [r2, #-0]
     e28:	00770200 	rsbseq	r0, r7, r0, lsl #4
     e2c:	86e01500 	strbthi	r1, [r0], r0, lsl #10
     e30:	019c0000 	orrseq	r0, ip, r0
     e34:	05d40000 	ldrbeq	r0, [r4]
     e38:	01160000 	tsteq	r6, r0
     e3c:	80080252 	andhi	r0, r8, r2, asr r2
     e40:	03510116 	cmpeq	r1, #-2147483643	; 0x80000005
     e44:	167ed091 			; <UNDEFINED> instruction: 0x167ed091
     e48:	32015001 	andcc	r5, r1, #1
     e4c:	047d0216 	ldrbteq	r0, [sp], #-534	; 0x216
     e50:	16007b02 	strne	r7, [r0], -r2, lsl #22
     e54:	02007d02 	andeq	r7, r0, #2, 26	; 0x80
     e58:	15000077 	strne	r0, [r0, #-119]	; 0x77
     e5c:	00008710 	andeq	r8, r0, r0, lsl r7
     e60:	0000019c 	muleq	r0, ip, r1
     e64:	00000602 	andeq	r0, r0, r2, lsl #12
     e68:	02520116 	subseq	r0, r2, #-2147483643	; 0x80000005
     e6c:	01168008 	tsteq	r6, r8
     e70:	d0910351 	addsle	r0, r1, r1, asr r3
     e74:	5001167e 	andpl	r1, r1, lr, ror r6
     e78:	02163801 	andseq	r3, r6, #65536	; 0x10000
     e7c:	7b02047d 	blvc	82078 <__bss_end__+0x78168>
     e80:	7d021600 	stcvc	6, cr1, [r2, #-0]
     e84:	00770200 	rsbseq	r0, r7, r0, lsl #4
     e88:	87181400 	ldrhi	r1, [r8, -r0, lsl #8]
     e8c:	06800000 	streq	r0, [r0], r0
     e90:	34150000 	ldrcc	r0, [r5], #-0
     e94:	87000087 	strhi	r0, [r0, -r7, lsl #1]
     e98:	3a000006 	bcc	eb8 <_start-0x7148>
     e9c:	16000006 	strne	r0, [r0], -r6
     ea0:	08025301 	stmdaeq	r2, {r0, r8, r9, ip, lr}
     ea4:	520116b9 	andpl	r1, r1, #193986560	; 0xb900000
     ea8:	98e00305 	stmials	r0!, {r0, r2, r8, r9}^
     eac:	01160000 	tsteq	r6, r0
     eb0:	00030551 	andeq	r0, r3, r1, asr r5
     eb4:	16000099 			; <UNDEFINED> instruction: 0x16000099
     eb8:	03055001 	movweq	r5, #20481	; 0x5001
     ebc:	00009978 	andeq	r9, r0, r8, ror r9
     ec0:	87381400 	ldrhi	r1, [r8, -r0, lsl #8]!
     ec4:	069d0000 	ldreq	r0, [sp], r0
     ec8:	00000000 	andeq	r0, r0, r0
     ecc:	00007a18 	andeq	r7, r0, r8, lsl sl
     ed0:	00065500 	andeq	r5, r6, r0, lsl #10
     ed4:	006b1900 	rsbeq	r1, fp, r0, lsl #18
     ed8:	00090000 	andeq	r0, r9, r0
     edc:	00064506 	andeq	r4, r6, r6, lsl #10
     ee0:	007a1800 	rsbseq	r1, sl, r0, lsl #16
     ee4:	066a0000 	strbteq	r0, [sl], -r0
     ee8:	6b190000 	blvs	640ef0 <__bss_end__+0x636fe0>
     eec:	7f000000 	svcvc	0x00000000
     ef0:	02e81f00 	rsceq	r1, r8, #0, 30
     ef4:	1d030000 	stcne	0, cr0, [r3, #-0]
     ef8:	000003a1 	andeq	r0, r0, r1, lsr #7
     efc:	0003251f 	andeq	r2, r3, pc, lsl r5
     f00:	b6220300 	strtlt	r0, [r2], -r0, lsl #6
     f04:	20000003 	andcs	r0, r0, r3
     f08:	000001e0 	andeq	r0, r0, r0, ror #3
     f0c:	78211e03 	stmdavc	r1!, {r0, r1, r9, sl, fp, ip}
     f10:	03000002 	movweq	r0, #2
     f14:	00002529 	andeq	r2, r0, r9, lsr #10
     f18:	00069d00 	andeq	r9, r6, r0, lsl #26
     f1c:	00811c00 	addeq	r1, r1, r0, lsl #24
     f20:	00220000 	eoreq	r0, r2, r0
     f24:	00009c20 	andeq	r9, r0, r0, lsr #24
     f28:	00660300 	rsbeq	r0, r6, r0, lsl #6
     f2c:	000000ff 	strdeq	r0, [r0], -pc	; <UNPREDICTABLE>
     f30:	066b0004 	strbteq	r0, [fp], -r4
     f34:	01040000 	mrseq	r0, (UNDEF: 4)
     f38:	0000021e 	andeq	r0, r0, lr, lsl r2
     f3c:	00039401 	andeq	r9, r3, r1, lsl #8
     f40:	00028900 	andeq	r8, r2, r0, lsl #18
     f44:	0087a400 	addeq	sl, r7, r0, lsl #8
     f48:	00002800 	andeq	r2, r0, r0, lsl #16
     f4c:	00053f00 	andeq	r3, r5, r0, lsl #30
     f50:	05040200 	streq	r0, [r4, #-512]	; 0x200
     f54:	00746e69 	rsbseq	r6, r4, r9, ror #28
     f58:	27070403 	strcs	r0, [r7, -r3, lsl #8]
     f5c:	03000001 	movweq	r0, #1
     f60:	00cd0601 	sbceq	r0, sp, r1, lsl #12
     f64:	02030000 	andeq	r0, r3, #0
     f68:	0001cb05 	andeq	ip, r1, r5, lsl #22
     f6c:	05040300 	streq	r0, [r4, #-768]	; 0x300
     f70:	0000015b 	andeq	r0, r0, fp, asr r1
     f74:	56050803 	strpl	r0, [r5], -r3, lsl #16
     f78:	03000001 	movweq	r0, #1
     f7c:	00cb0801 	sbceq	r0, fp, r1, lsl #16
     f80:	02030000 	andeq	r0, r3, #0
     f84:	0000a907 	andeq	sl, r0, r7, lsl #18
     f88:	07040300 	streq	r0, [r4, -r0, lsl #6]
     f8c:	00000122 	andeq	r0, r0, r2, lsr #2
     f90:	1d070803 	stcne	8, cr0, [r7, #-12]
     f94:	03000001 	movweq	r0, #1
     f98:	01420704 	cmpeq	r2, r4, lsl #14
     f9c:	01030000 	mrseq	r0, (UNDEF: 3)
     fa0:	0000d408 	andeq	sp, r0, r8, lsl #8
     fa4:	7f040400 	svcvc	0x00040400
     fa8:	05000000 	streq	r0, [r0, #-0]
     fac:	00000072 	andeq	r0, r0, r2, ror r0
     fb0:	00009c06 	andeq	r9, r0, r6, lsl #24
     fb4:	a4040100 	strge	r0, [r4], #-256	; 0x100
     fb8:	28000087 	stmdacs	r0, {r0, r1, r2, r7}
     fbc:	01000000 	mrseq	r0, (UNDEF: 0)
     fc0:	0000ca9c 	muleq	r0, ip, sl
     fc4:	87b80700 	ldrhi	r0, [r8, r0, lsl #14]!
     fc8:	00ac0000 	adceq	r0, ip, r0
     fcc:	01080000 	mrseq	r0, (UNDEF: 8)
     fd0:	b0030550 	andlt	r0, r3, r0, asr r5
     fd4:	00000099 	muleq	r0, r9, r0
     fd8:	0087c009 	addeq	ip, r7, r9
     fdc:	0000ea00 	andeq	lr, r0, r0, lsl #20
     fe0:	0000c000 	andeq	ip, r0, r0
     fe4:	50010800 	andpl	r0, r1, r0, lsl #16
     fe8:	00640802 	rsbeq	r0, r4, r2, lsl #16
     fec:	0087c40a 	addeq	ip, r7, sl, lsl #8
     ff0:	0000fb00 	andeq	pc, r0, r0, lsl #22
     ff4:	250b0000 	strcs	r0, [fp, #-0]
     ff8:	d9000000 	stmdble	r0, {}	; <UNPREDICTABLE>
     ffc:	0c000000 	stceq	0, cr0, [r0], {-0}
    1000:	00000079 	andeq	r0, r0, r9, ror r0
    1004:	03250d00 	teqeq	r5, #0, 26
    1008:	22020000 	andcs	r0, r2, #0
    100c:	000000e4 	andeq	r0, r0, r4, ror #1
    1010:	00ca0404 	sbceq	r0, sl, r4, lsl #8
    1014:	d90e0000 	stmdble	lr, {}	; <UNPREDICTABLE>
    1018:	02000000 	andeq	r0, r0, #0
    101c:	0000fb50 	andeq	pc, r0, r0, asr fp	; <UNPREDICTABLE>
    1020:	002c0c00 	eoreq	r0, ip, r0, lsl #24
    1024:	0f000000 	svceq	0x00000000
    1028:	00000389 	andeq	r0, r0, r9, lsl #7
    102c:	dd006302 	stcle	3, cr6, [r0, #-8]
    1030:	04000002 	streq	r0, [r0], #-2
    1034:	00073500 	andeq	r3, r7, r0, lsl #10
    1038:	1e010400 	cfcpysne	mvf0, mvf1
    103c:	01000002 	tsteq	r0, r2
    1040:	00000490 	muleq	r0, r0, r4
    1044:	00000289 	andeq	r0, r0, r9, lsl #5
    1048:	000087cc 	andeq	r8, r0, ip, asr #15
    104c:	000000b0 	strheq	r0, [r0], -r0	; <UNPREDICTABLE>
    1050:	000005d6 	ldrdeq	r0, [r0], -r6
    1054:	69050402 	stmdbvs	r5, {r1, sl}
    1058:	0300746e 	movweq	r7, #1134	; 0x46e
    105c:	01270704 	teqeq	r7, r4, lsl #14
    1060:	01030000 	mrseq	r0, (UNDEF: 3)
    1064:	0000cd06 	andeq	ip, r0, r6, lsl #26
    1068:	05020300 	streq	r0, [r2, #-768]	; 0x300
    106c:	000001cb 	andeq	r0, r0, fp, asr #3
    1070:	5b050403 	blpl	142084 <__bss_end__+0x138174>
    1074:	03000001 	movweq	r0, #1
    1078:	01560508 	cmpeq	r6, r8, lsl #10
    107c:	59040000 	stmdbpl	r4, {}	; <UNPREDICTABLE>
    1080:	02000004 	andeq	r0, r0, #4
    1084:	00005a2e 	andeq	r5, r0, lr, lsr #20
    1088:	08010300 	stmdaeq	r1, {r8, r9}
    108c:	000000cb 	andeq	r0, r0, fp, asr #1
    1090:	a9070203 	stmdbge	r7, {r0, r1, r9}
    1094:	04000000 	streq	r0, [r0], #-0
    1098:	000004b0 			; <UNDEFINED> instruction: 0x000004b0
    109c:	00733402 	rsbseq	r3, r3, r2, lsl #8
    10a0:	04030000 	streq	r0, [r3], #-0
    10a4:	00012207 	andeq	r2, r1, r7, lsl #4
    10a8:	07080300 	streq	r0, [r8, -r0, lsl #6]
    10ac:	0000011d 	andeq	r0, r0, sp, lsl r1
    10b0:	42070403 	andmi	r0, r7, #50331648	; 0x3000000
    10b4:	03000001 	movweq	r0, #1
    10b8:	00d40801 	sbcseq	r0, r4, r1, lsl #16
    10bc:	04050000 	streq	r0, [r5], #-0
    10c0:	00000095 	muleq	r0, r5, r0
    10c4:	00008806 	andeq	r8, r0, r6, lsl #16
    10c8:	030c0700 	movweq	r0, #50944	; 0xc700
    10cc:	0000d10e 	andeq	sp, r0, lr, lsl #2
    10d0:	78740800 	ldmdavc	r4!, {fp}^
    10d4:	4f0f0300 	svcmi	0x000f0300
    10d8:	00000000 	andeq	r0, r0, r0
    10dc:	00787208 	rsbseq	r7, r8, r8, lsl #4
    10e0:	004f0f03 	subeq	r0, pc, r3, lsl #30
    10e4:	09010000 	stmdbeq	r1, {}	; <UNPREDICTABLE>
    10e8:	00000427 	andeq	r0, r0, r7, lsr #8
    10ec:	00681003 	rsbeq	r1, r8, r3
    10f0:	09040000 	stmdbeq	r4, {}	; <UNPREDICTABLE>
    10f4:	000003d8 	ldrdeq	r0, [r0], -r8
    10f8:	00681103 	rsbeq	r1, r8, r3, lsl #2
    10fc:	00080000 	andeq	r0, r8, r0
    1100:	00041004 	andeq	r1, r4, r4
    1104:	9a120300 	bls	481d0c <__bss_end__+0x477dfc>
    1108:	0a000000 	beq	1110 <_start-0x6ef0>
    110c:	f7100401 			; <UNDEFINED> instruction: 0xf7100401
    1110:	0b000000 	bleq	1118 <_start-0x6ee8>
    1114:	0000042c 	andeq	r0, r0, ip, lsr #8
    1118:	041a0b01 	ldreq	r0, [sl], #-2817	; 0xb01
    111c:	0b020000 	bleq	81124 <__bss_end__+0x77214>
    1120:	00000402 	andeq	r0, r0, r2, lsl #8
    1124:	41040003 	tstmi	r4, r3
    1128:	04000004 	streq	r0, [r0], #-4
    112c:	0000dc10 	andeq	sp, r0, r0, lsl ip
    1130:	04140700 	ldreq	r0, [r4], #-1792	; 0x700
    1134:	00012f14 	andeq	r2, r1, r4, lsl pc
    1138:	04b90900 	ldrteq	r0, [r9], #2304	; 0x900
    113c:	15040000 	strne	r0, [r4, #-0]
    1140:	0000002c 	andeq	r0, r0, ip, lsr #32
    1144:	04a40900 	strteq	r0, [r4], #2304	; 0x900
    1148:	18040000 	stmdane	r4, {}	; <UNPREDICTABLE>
    114c:	000000f7 	strdeq	r0, [r0], -r7
    1150:	046f0904 	strbteq	r0, [pc], #-2308	; 1158 <_start-0x6ea8>
    1154:	1b040000 	blne	10115c <__bss_end__+0xf724c>
    1158:	000000d1 	ldrdeq	r0, [r0], -r1
    115c:	61040008 	tstvs	r4, r8
    1160:	04000004 	streq	r0, [r0], #-4
    1164:	00010220 	andeq	r0, r1, r0, lsr #4
    1168:	03ae0c00 			; <UNDEFINED> instruction: 0x03ae0c00
    116c:	06010000 	streq	r0, [r1], -r0
    1170:	00000025 	andeq	r0, r0, r5, lsr #32
    1174:	000087cc 	andeq	r8, r0, ip, asr #15
    1178:	00000020 	andeq	r0, r0, r0, lsr #32
    117c:	017a9c01 	cmneq	sl, r1, lsl #24
    1180:	630d0000 	movwvs	r0, #53248	; 0xd000
    1184:	25060100 	strcs	r0, [r6, #-256]	; 0x100
    1188:	2a000000 	bcs	1190 <_start-0x6e70>
    118c:	0e00000a 	cdpeq	0, 0, cr0, cr0, cr10, {0}
    1190:	000087e0 	andeq	r8, r0, r0, ror #15
    1194:	0000027a 	andeq	r0, r0, sl, ror r2
    1198:	0251010f 	subseq	r0, r1, #-1073741821	; 0xc0000003
    119c:	010f0074 	tsteq	pc, r4, ror r0	; <UNPREDICTABLE>
    11a0:	04030550 	streq	r0, [r3], #-1360	; 0x550
    11a4:	0000009f 	muleq	r0, pc, r0	; <UNPREDICTABLE>
    11a8:	04391000 	ldrteq	r1, [r9], #-0
    11ac:	0b010000 	bleq	411b4 <__bss_end__+0x372a4>
    11b0:	000087ec 	andeq	r8, r0, ip, ror #15
    11b4:	00000090 	muleq	r0, r0, r0
    11b8:	02279c01 	eoreq	r9, r7, #256	; 0x100
    11bc:	c2110000 	andsgt	r0, r1, #0
    11c0:	01000003 	tsteq	r0, r3
    11c4:	0000250c 	andeq	r2, r0, ip, lsl #10
    11c8:	04841100 	streq	r1, [r4], #256	; 0x100
    11cc:	0c010000 	stceq	0, cr0, [r1], {-0}
    11d0:	00000025 	andeq	r0, r0, r5, lsr #32
    11d4:	00008f12 	andeq	r8, r0, r2, lsl pc
    11d8:	130d0100 	movwne	r0, #53504	; 0xd100
    11dc:	00737362 	rsbseq	r7, r3, r2, ror #6
    11e0:	02270f01 	eoreq	r0, r7, #1, 30
    11e4:	0a480000 	beq	12011ec <__bss_end__+0x11f72dc>
    11e8:	d0140000 	andsle	r0, r4, r0
    11ec:	01000003 	tsteq	r0, r3
    11f0:	00022710 	andeq	r2, r2, r0, lsl r7
    11f4:	62631300 	rsbvs	r1, r3, #0, 6
    11f8:	2d170100 	ldfcss	f0, [r7, #-0]
    11fc:	68000002 	stmdavs	r0, {r1}
    1200:	1500000a 	strne	r0, [r0, #-10]
    1204:	00008814 	andeq	r8, r0, r4, lsl r8
    1208:	00000296 	muleq	r0, r6, r2
    120c:	00885016 	addeq	r5, r8, r6, lsl r0
    1210:	0002a100 	andeq	sl, r2, r0, lsl #2
    1214:	0001fd00 	andeq	pc, r1, r0, lsl #26
    1218:	51010f00 	tstpl	r1, r0, lsl #30
    121c:	99bc0305 	ldmibls	ip!, {r0, r2, r8, r9}
    1220:	010f0000 	mrseq	r0, CPSR
    1224:	04030550 	streq	r0, [r3], #-1360	; 0x550
    1228:	0000009f 	muleq	r0, pc, r0	; <UNPREDICTABLE>
    122c:	00885816 	addeq	r5, r8, r6, lsl r8
    1230:	0002bc00 	andeq	fp, r2, r0, lsl #24
    1234:	00021400 	andeq	r1, r2, r0, lsl #8
    1238:	50010f00 	andpl	r0, r1, r0, lsl #30
    123c:	99e00305 	stmibls	r0!, {r0, r2, r8, r9}^
    1240:	15000000 	strne	r0, [r0, #-0]
    1244:	0000885c 	andeq	r8, r0, ip, asr r8
    1248:	000002d2 	ldrdeq	r0, [r0], -r2
    124c:	00886015 	addeq	r6, r8, r5, lsl r0
    1250:	0002d900 	andeq	sp, r2, r0, lsl #18
    1254:	04050000 	streq	r0, [r5], #-0
    1258:	00000025 	andeq	r0, r0, r5, lsr #32
    125c:	012f0405 	teqeq	pc, r5, lsl #8
    1260:	e6170000 	ldr	r0, [r7], -r0
    1264:	01000003 	tsteq	r0, r3
    1268:	0000d105 	andeq	sp, r0, r5, lsl #2
    126c:	04030500 	streq	r0, [r3], #-1280	; 0x500
    1270:	1800009f 	stmdane	r0, {r0, r1, r2, r3, r4, r7}
    1274:	00000025 	andeq	r0, r0, r5, lsr #32
    1278:	00000253 	andeq	r0, r0, r3, asr r2
    127c:	00002519 	andeq	r2, r0, r9, lsl r5
    1280:	e8110000 	ldmda	r1, {}	; <UNPREDICTABLE>
    1284:	05000002 	streq	r0, [r0, #-2]
    1288:	00025e1d 	andeq	r5, r2, sp, lsl lr
    128c:	44040500 	strmi	r0, [r4], #-1280	; 0x500
    1290:	11000002 	tstne	r0, r2
    1294:	000003c2 	andeq	r0, r0, r2, asr #7
    1298:	00250c01 	eoreq	r0, r5, r1, lsl #24
    129c:	84110000 	ldrhi	r0, [r1], #-0
    12a0:	01000004 	tsteq	r0, r4
    12a4:	0000250c 	andeq	r2, r0, ip, lsl #10
    12a8:	044c1a00 	strbeq	r1, [ip], #-2560	; 0xa00
    12ac:	44030000 	strmi	r0, [r3], #-0
    12b0:	00000290 	muleq	r0, r0, r2
    12b4:	00029019 	andeq	r9, r2, r9, lsl r0
    12b8:	005a1900 	subseq	r1, sl, r0, lsl #18
    12bc:	05000000 	streq	r0, [r0, #-0]
    12c0:	0000d104 	andeq	sp, r0, r4, lsl #2
    12c4:	04771b00 	ldrbteq	r1, [r7], #-2816	; 0xb00
    12c8:	2a040000 	bcs	1012d0 <__bss_end__+0xf73c0>
    12cc:	0000022d 	andeq	r0, r0, sp, lsr #4
    12d0:	0003f31c 	andeq	pc, r3, ip, lsl r3	; <UNPREDICTABLE>
    12d4:	25150300 	ldrcs	r0, [r5, #-768]	; 0x300
    12d8:	bc000000 	stclt	0, cr0, [r0], {-0}
    12dc:	19000002 	stmdbne	r0, {r1}
    12e0:	00000290 	muleq	r0, r0, r2
    12e4:	00008f19 	andeq	r8, r0, r9, lsl pc
    12e8:	1c001d00 	stcne	13, cr1, [r0], {-0}
    12ec:	00000278 	andeq	r0, r0, r8, ror r2
    12f0:	00252905 	eoreq	r2, r5, r5, lsl #18
    12f4:	02d20000 	sbcseq	r0, r2, #0
    12f8:	8f190000 	svchi	0x00190000
    12fc:	1d000000 	stcne	0, cr0, [r0, #-0]
    1300:	008f1200 	addeq	r1, pc, r0, lsl #4
    1304:	d1050000 	mrsle	r0, (UNDEF: 5)
    1308:	00038912 	andeq	r8, r3, r2, lsl r9
    130c:	00630500 	rsbeq	r0, r3, r0, lsl #10
    1310:	000001ad 	andeq	r0, r0, sp, lsr #3
    1314:	08cc0004 	stmiaeq	ip, {r2}^
    1318:	01040000 	mrseq	r0, (UNDEF: 4)
    131c:	0000021e 	andeq	r0, r0, lr, lsl r2
    1320:	0004d901 	andeq	sp, r4, r1, lsl #18
    1324:	00028900 	andeq	r8, r2, r0, lsl #18
    1328:	00003800 	andeq	r3, r0, r0, lsl #16
    132c:	00000000 	andeq	r0, r0, r0
    1330:	0006fb00 	andeq	pc, r6, r0, lsl #22
    1334:	05040200 	streq	r0, [r4, #-512]	; 0x200
    1338:	00746e69 	rsbseq	r6, r4, r9, ror #28
    133c:	27070403 	strcs	r0, [r7, -r3, lsl #8]
    1340:	03000001 	movweq	r0, #1
    1344:	00cd0601 	sbceq	r0, sp, r1, lsl #12
    1348:	02030000 	andeq	r0, r3, #0
    134c:	0001cb05 	andeq	ip, r1, r5, lsl #22
    1350:	05040300 	streq	r0, [r4, #-768]	; 0x300
    1354:	0000015b 	andeq	r0, r0, fp, asr r1
    1358:	56050803 	strpl	r0, [r5], -r3, lsl #16
    135c:	03000001 	movweq	r0, #1
    1360:	00cb0801 	sbceq	r0, fp, r1, lsl #16
    1364:	02030000 	andeq	r0, r3, #0
    1368:	0000a907 	andeq	sl, r0, r7, lsl #18
    136c:	07040300 	streq	r0, [r4, -r0, lsl #6]
    1370:	00000122 	andeq	r0, r0, r2, lsr #2
    1374:	1d070803 	stcne	8, cr0, [r7, #-12]
    1378:	03000001 	movweq	r0, #1
    137c:	01420704 	cmpeq	r2, r4, lsl #14
    1380:	01030000 	mrseq	r0, (UNDEF: 3)
    1384:	0000d408 	andeq	sp, r0, r8, lsl #8
    1388:	04bf0400 	ldrteq	r0, [pc], #1024	; 1390 <_start-0x6c70>
    138c:	0e010000 	cdpeq	0, 0, cr0, cr1, cr0, {0}
    1390:	00000025 	andeq	r0, r0, r5, lsr #32
    1394:	0000887c 	andeq	r8, r0, ip, ror r8
    1398:	00000018 	andeq	r0, r0, r8, lsl r0
    139c:	00a29c01 	adceq	r9, r2, r1, lsl #24
    13a0:	2b050000 	blcs	1413a8 <__bss_end__+0x137498>
    13a4:	01000005 	tsteq	r0, r5
    13a8:	00002c0f 	andeq	r2, r0, pc, lsl #24
    13ac:	000a8800 	andeq	r8, sl, r0, lsl #16
    13b0:	0e060000 	cdpeq	0, 0, cr0, cr6, cr0, {0}
    13b4:	01000005 	tsteq	r0, r5
    13b8:	00889417 	addeq	r9, r8, r7, lsl r4
    13bc:	00001400 	andeq	r1, r0, r0, lsl #8
    13c0:	c79c0100 	ldrgt	r0, [ip, r0, lsl #2]
    13c4:	05000000 	streq	r0, [r0, #-0]
    13c8:	0000052b 	andeq	r0, r0, fp, lsr #10
    13cc:	002c1801 	eoreq	r1, ip, r1, lsl #16
    13d0:	0aa70000 	beq	fe9c13d8 <__bss_end__+0xfe9b74c8>
    13d4:	06000000 	streq	r0, [r0], -r0
    13d8:	00000389 	andeq	r0, r0, r9, lsl #7
    13dc:	88a81f01 	stmiahi	r8!, {r0, r8, r9, sl, fp, ip}
    13e0:	00480000 	subeq	r0, r8, r0
    13e4:	9c010000 	stcls	0, cr0, [r1], {-0}
    13e8:	00000177 	andeq	r0, r0, r7, ror r1
    13ec:	00052307 	andeq	r2, r5, r7, lsl #6
    13f0:	772a0100 	strvc	r0, [sl, -r0, lsl #2]!
    13f4:	1c000001 	stcne	0, cr0, [r0], {1}
    13f8:	07201000 	streq	r1, [r0, -r0]!
    13fc:	00000506 	andeq	r0, r0, r6, lsl #10
    1400:	01772b01 	cmneq	r7, r1, lsl #22
    1404:	00240000 	eoreq	r0, r4, r0
    1408:	cd072010 	stcgt	0, cr2, [r7, #-64]	; 0xffffffc0
    140c:	01000004 	tsteq	r0, r4
    1410:	0001772c 	andeq	r7, r1, ip, lsr #14
    1414:	00000000 	andeq	r0, r0, r0
    1418:	04ed085a 	strbteq	r0, [sp], #2138	; 0x85a
    141c:	2d010000 	stccs	0, cr0, [r1, #-0]
    1420:	00000177 	andeq	r0, r0, r7, ror r1
    1424:	88b00920 	ldmhi	r0!, {r5, r8, fp}
    1428:	00790000 	rsbseq	r0, r9, r0
    142c:	bc090000 	stclt	0, cr0, [r9], {-0}
    1430:	a2000088 	andge	r0, r0, #136	; 0x88
    1434:	0a000000 	beq	143c <_start-0x6bc4>
    1438:	000088c4 	andeq	r8, r0, r4, asr #17
    143c:	0000018d 	andeq	r0, r0, sp, lsl #3
    1440:	0000013a 	andeq	r0, r0, sl, lsr r1
    1444:	0150010b 	cmpeq	r0, fp, lsl #2
    1448:	d00a004e 	andle	r0, sl, lr, asr #32
    144c:	9e000088 	cdpls	0, 0, cr0, cr0, cr8, {4}
    1450:	5a000001 	bpl	145c <_start-0x6ba4>
    1454:	0b000001 	bleq	1460 <_start-0x6ba0>
    1458:	0c055101 	stfeqs	f5, [r5], {1}
    145c:	5a000001 	bpl	1468 <_start-0x6b98>
    1460:	0550010b 	ldrbeq	r0, [r0, #-267]	; 0x10b
    1464:	1000240c 	andne	r2, r0, ip, lsl #8
    1468:	dc0c0020 	stcle	0, cr0, [ip], {32}
    146c:	9e000088 	cdpls	0, 0, cr0, cr0, cr8, {4}
    1470:	0b000001 	bleq	147c <_start-0x6b84>
    1474:	0c055101 	stfeqs	f5, [r5], {1}
    1478:	5a000020 	bpl	1500 <_start-0x6b00>
    147c:	0550010b 	ldrbeq	r0, [r0, #-267]	; 0x10b
    1480:	10001c0c 	andne	r1, r0, ip, lsl #24
    1484:	0d000020 	stceq	0, cr0, [r0, #-128]	; 0xffffff80
    1488:	00000025 	andeq	r0, r0, r5, lsr #32
    148c:	0004c208 	andeq	ip, r4, r8, lsl #4
    1490:	880d0100 	stmdahi	sp, {r8}
    1494:	10000001 	andne	r0, r0, r1
    1498:	00002c0d 	andeq	r2, r0, sp, lsl #24
    149c:	00d90e00 	sbcseq	r0, r9, r0, lsl #28
    14a0:	50020000 	andpl	r0, r2, r0
    14a4:	0000019e 	muleq	r0, lr, r1
    14a8:	00002c0f 	andeq	r2, r0, pc, lsl #24
    14ac:	1d100000 	ldcne	0, cr0, [r0, #-0]
    14b0:	02000005 	andeq	r0, r0, #5
    14b4:	002c0f9c 	mlaeq	ip, ip, pc, r0	; <UNPREDICTABLE>
    14b8:	2c0f0000 	stccs	0, cr0, [pc], {-0}
    14bc:	00000000 	andeq	r0, r0, r0
    14c0:	0001d800 	andeq	sp, r1, r0, lsl #16
    14c4:	ba000400 	blt	24cc <_start-0x5b34>
    14c8:	04000009 	streq	r0, [r0], #-9
    14cc:	00021e01 	andeq	r1, r2, r1, lsl #28
    14d0:	054d0100 	strbeq	r0, [sp, #-256]	; 0x100
    14d4:	02890000 	addeq	r0, r9, #0
    14d8:	88f00000 	ldmhi	r0!, {}^	; <UNPREDICTABLE>
    14dc:	00880000 	addeq	r0, r8, r0
    14e0:	07980000 	ldreq	r0, [r8, r0]
    14e4:	04020000 	streq	r0, [r2], #-0
    14e8:	746e6905 	strbtvc	r6, [lr], #-2309	; 0x905
    14ec:	07040300 	streq	r0, [r4, -r0, lsl #6]
    14f0:	00000127 	andeq	r0, r0, r7, lsr #2
    14f4:	cd060103 	stfgts	f0, [r6, #-12]
    14f8:	03000000 	movweq	r0, #0
    14fc:	01cb0502 	biceq	r0, fp, r2, lsl #10
    1500:	04030000 	streq	r0, [r3], #-0
    1504:	00015b05 	andeq	r5, r1, r5, lsl #22
    1508:	05080300 	streq	r0, [r8, #-768]	; 0x300
    150c:	00000156 	andeq	r0, r0, r6, asr r1
    1510:	cb080103 	blgt	201924 <__bss_end__+0x1f7a14>
    1514:	03000000 	movweq	r0, #0
    1518:	00a90702 	adceq	r0, r9, r2, lsl #14
    151c:	04030000 	streq	r0, [r3], #-0
    1520:	00012207 	andeq	r2, r1, r7, lsl #4
    1524:	07080300 	streq	r0, [r8, -r0, lsl #6]
    1528:	0000011d 	andeq	r0, r0, sp, lsl r1
    152c:	42070403 	andmi	r0, r7, #50331648	; 0x3000000
    1530:	03000001 	movweq	r0, #1
    1534:	00d40801 	sbcseq	r0, r4, r1, lsl #16
    1538:	6c040000 	stcvs	0, cr0, [r4], {-0}
    153c:	01000005 	tsteq	r0, r5
    1540:	0088f005 	addeq	pc, r8, r5
    1544:	00001c00 	andeq	r1, r0, r0, lsl #24
    1548:	9e9c0100 	fmllse	f0, f4, f0
    154c:	05000000 	streq	r0, [r0, #-0]
    1550:	00000566 	andeq	r0, r0, r6, ror #10
    1554:	002c0501 	eoreq	r0, ip, r1, lsl #10
    1558:	0ad10000 	beq	ff441560 <__bss_end__+0xff437650>
    155c:	06000000 	streq	r0, [r0], -r0
    1560:	00000530 	andeq	r0, r0, r0, lsr r5
    1564:	002c0b01 	eoreq	r0, ip, r1, lsl #22
    1568:	890c0000 	stmdbhi	ip, {}	; <UNPREDICTABLE>
    156c:	00140000 	andseq	r0, r4, r0
    1570:	9c010000 	stcls	0, cr0, [r1], {-0}
    1574:	000000cb 	andeq	r0, r0, fp, asr #1
    1578:	00891807 	addeq	r1, r9, r7, lsl #16
    157c:	0001ca00 	andeq	ip, r1, r0, lsl #20
    1580:	50010800 	andpl	r0, r1, r0, lsl #16
    1584:	30040c05 	andcc	r0, r4, r5, lsl #24
    1588:	00002000 	andeq	r2, r0, r0
    158c:	00058206 	andeq	r8, r5, r6, lsl #4
    1590:	2c100100 	ldfcss	f0, [r0], {-0}
    1594:	20000000 	andcs	r0, r0, r0
    1598:	0c000089 	stceq	0, cr0, [r0], {137}	; 0x89
    159c:	01000000 	mrseq	r0, (UNDEF: 0)
    15a0:	0000f99c 	muleq	r0, ip, r9
    15a4:	00750900 	rsbseq	r0, r5, r0, lsl #18
    15a8:	002c1401 	eoreq	r1, ip, r1, lsl #8
    15ac:	50010000 	andpl	r0, r1, r0
    15b0:	0089280a 	addeq	r2, r9, sl, lsl #16
    15b4:	00009e00 	andeq	r9, r0, r0, lsl #28
    15b8:	79040000 	stmdbvc	r4, {}	; <UNPREDICTABLE>
    15bc:	01000005 	tsteq	r0, r5
    15c0:	00892c19 	addeq	r2, r9, r9, lsl ip
    15c4:	00002400 	andeq	r2, r0, r0, lsl #8
    15c8:	579c0100 	ldrpl	r0, [ip, r0, lsl #2]
    15cc:	0b000001 	bleq	15d8 <_start-0x6a28>
    15d0:	01007375 	tsteq	r0, r5, ror r3
    15d4:	00002c19 	andeq	r2, r0, r9, lsl ip
    15d8:	000b0500 	andeq	r0, fp, r0, lsl #10
    15dc:	62720900 	rsbsvs	r0, r2, #0, 18
    15e0:	2c1a0100 	ldfcss	f0, [sl], {-0}
    15e4:	01000000 	mrseq	r0, (UNDEF: 0)
    15e8:	893c0c54 	ldmdbhi	ip!, {r2, r4, r6, sl, fp}
    15ec:	00100000 	andseq	r0, r0, r0
    15f0:	014d0000 	mrseq	r0, (UNDEF: 77)
    15f4:	720d0000 	andvc	r0, sp, #0
    15f8:	1c010061 	stcne	0, cr0, [r1], {97}	; 0x61
    15fc:	0000002c 	andeq	r0, r0, ip, lsr #32
    1600:	00000b23 	andeq	r0, r0, r3, lsr #22
    1604:	0089400a 	addeq	r4, r9, sl
    1608:	0000cb00 	andeq	ip, r0, r0, lsl #22
    160c:	380a0000 	stmdacc	sl, {}	; <UNPREDICTABLE>
    1610:	cb000089 	blgt	183c <_start-0x67c4>
    1614:	00000000 	andeq	r0, r0, r0
    1618:	0000d904 	andeq	sp, r0, r4, lsl #18
    161c:	50220100 	eorpl	r0, r2, r0, lsl #2
    1620:	14000089 	strne	r0, [r0], #-137	; 0x89
    1624:	01000000 	mrseq	r0, (UNDEF: 0)
    1628:	0001909c 	muleq	r1, ip, r0
    162c:	736d0b00 	cmnvc	sp, #0, 22
    1630:	2c220100 	stfcss	f0, [r2], #-0
    1634:	36000000 	strcc	r0, [r0], -r0
    1638:	0700000b 	streq	r0, [r0, -fp]
    163c:	00008960 	andeq	r8, r0, r0, ror #18
    1640:	000000f9 	strdeq	r0, [r0], -r9
    1644:	07500108 	ldrbeq	r0, [r0, -r8, lsl #2]
    1648:	0a5001f3 	beq	1401e1c <__bss_end__+0x13f7f0c>
    164c:	001e03e8 	andseq	r0, lr, r8, ror #7
    1650:	05430400 	strbeq	r0, [r3, #-1024]	; 0x400
    1654:	25010000 	strcs	r0, [r1, #-0]
    1658:	00008964 	andeq	r8, r0, r4, ror #18
    165c:	00000014 	andeq	r0, r0, r4, lsl r0
    1660:	01ca9c01 	biceq	r9, sl, r1, lsl #24
    1664:	730b0000 	movwvc	r0, #45056	; 0xb000
    1668:	01006365 	tsteq	r0, r5, ror #6
    166c:	00002c25 	andeq	r2, r0, r5, lsr #24
    1670:	000b5700 	andeq	r5, fp, r0, lsl #14
    1674:	89740700 	ldmdbhi	r4!, {r8, r9, sl}^
    1678:	01570000 	cmpeq	r7, r0
    167c:	01080000 	mrseq	r0, (UNDEF: 8)
    1680:	01f30750 	mvnseq	r0, r0, asr r7
    1684:	03e80a50 	mvneq	r0, #80, 20	; 0x50000
    1688:	0e00001e 	mcreq	0, 0, r0, cr0, cr14, {0}
    168c:	00000560 	andeq	r0, r0, r0, ror #10
    1690:	002ca802 	eoreq	sl, ip, r2, lsl #16
    1694:	2c0f0000 	stccs	0, cr0, [pc], {-0}
    1698:	00000000 	andeq	r0, r0, r0
    169c:	00088200 	andeq	r8, r8, r0, lsl #4
    16a0:	9d000400 	cfstrsls	mvf0, [r0, #-0]
    16a4:	0400000a 	streq	r0, [r0], #-10
    16a8:	00021e01 	andeq	r1, r2, r1, lsl #28
    16ac:	05f10100 	ldrbeq	r0, [r1, #256]!	; 0x100
    16b0:	02890000 	addeq	r0, r9, #0
    16b4:	89780000 	ldmdbhi	r8!, {}^	; <UNPREDICTABLE>
    16b8:	05a00000 	streq	r0, [r0, #0]!
    16bc:	083f0000 	ldmdaeq	pc!, {}	; <UNPREDICTABLE>
    16c0:	08020000 	stmdaeq	r2, {}	; <UNPREDICTABLE>
    16c4:	00011d07 	andeq	r1, r1, r7, lsl #26
    16c8:	07040200 	streq	r0, [r4, -r0, lsl #4]
    16cc:	00000127 	andeq	r0, r0, r7, lsr #2
    16d0:	cd060102 	stfgts	f0, [r6, #-8]
    16d4:	02000000 	andeq	r0, r0, #0
    16d8:	01cb0502 	biceq	r0, fp, r2, lsl #10
    16dc:	04020000 	streq	r0, [r2], #-0
    16e0:	00015b05 	andeq	r5, r1, r5, lsl #22
    16e4:	05080200 	streq	r0, [r8, #-512]	; 0x200
    16e8:	00000156 	andeq	r0, r0, r6, asr r1
    16ec:	cb080102 	blgt	201afc <__bss_end__+0x1f7bec>
    16f0:	02000000 	andeq	r0, r0, #0
    16f4:	00a90702 	adceq	r0, r9, r2, lsl #14
    16f8:	04020000 	streq	r0, [r2], #-0
    16fc:	00012207 	andeq	r2, r1, r7, lsl #4
    1700:	05040300 	streq	r0, [r4, #-768]	; 0x300
    1704:	00746e69 	rsbseq	r6, r4, r9, ror #28
    1708:	42070402 	andmi	r0, r7, #33554432	; 0x2000000
    170c:	02000001 	andeq	r0, r0, #1
    1710:	00d40801 	sbcseq	r0, r4, r1, lsl #16
    1714:	01040000 	mrseq	r0, (UNDEF: 4)
    1718:	00b20c02 	adcseq	r0, r2, r2, lsl #24
    171c:	d4050000 	strle	r0, [r5], #-0
    1720:	00000005 	andeq	r0, r0, r5
    1724:	00074405 	andeq	r4, r7, r5, lsl #8
    1728:	7d050100 	stfvcs	f0, [r5, #-0]
    172c:	04000007 	streq	r0, [r0], #-7
    1730:	00078c05 	andeq	r8, r7, r5, lsl #24
    1734:	9b050500 	blls	142b3c <__bss_end__+0x138c2c>
    1738:	06000007 	streq	r0, [r0], -r7
    173c:	0007aa05 	andeq	sl, r7, r5, lsl #20
    1740:	b9050700 	stmdblt	r5, {r8, r9, sl}
    1744:	03000007 	movweq	r0, #7
    1748:	0007c805 	andeq	ip, r7, r5, lsl #16
    174c:	06000200 	streq	r0, [r0], -r0, lsl #4
    1750:	00000771 	andeq	r0, r0, r1, ror r7
    1754:	00791502 	rsbseq	r1, r9, r2, lsl #10
    1758:	34070000 	strcc	r0, [r7], #-0
    175c:	01000007 	tsteq	r0, r7
    1760:	0089783f 	addeq	r7, r9, pc, lsr r8
    1764:	0000d400 	andeq	sp, r0, r0, lsl #8
    1768:	339c0100 	orrscc	r0, ip, #0, 2
    176c:	08000001 	stmdaeq	r0, {r0}
    1770:	006e6970 	rsbeq	r6, lr, r0, ror r9
    1774:	002c3f01 	eoreq	r3, ip, r1, lsl #30
    1778:	0b780000 	bleq	1e01780 <__bss_end__+0x1df7870>
    177c:	2d090000 	stccs	0, cr0, [r9, #-0]
    1780:	01000006 	tsteq	r0, r6
    1784:	00013347 	andeq	r3, r1, r7, asr #6
    1788:	000b9600 	andeq	r9, fp, r0, lsl #12
    178c:	07d70900 	ldrbeq	r0, [r7, r0, lsl #18]
    1790:	49010000 	stmdbmi	r1, {}	; <UNPREDICTABLE>
    1794:	0000002c 	andeq	r0, r0, ip, lsr #32
    1798:	00000beb 	andeq	r0, r0, fp, ror #23
    179c:	0006de09 	andeq	sp, r6, r9, lsl #28
    17a0:	2c570100 	ldfcse	f0, [r7], {-0}
    17a4:	b7000000 	strlt	r0, [r0, -r0]
    17a8:	0a00000d 	beq	17e4 <_start-0x681c>
    17ac:	00008a0c 	andeq	r8, r0, ip, lsl #20
    17b0:	00000841 	andeq	r0, r0, r1, asr #16
    17b4:	00000122 	andeq	r0, r0, r2, lsr #2
    17b8:	0250010b 	subseq	r0, r0, #-1073741822	; 0xc0000002
    17bc:	0c000075 	stceq	0, cr0, [r0], {117}	; 0x75
    17c0:	00008a40 	andeq	r8, r0, r0, asr #20
    17c4:	00000862 	andeq	r0, r0, r2, ror #16
    17c8:	0250010b 	subseq	r0, r0, #-1073741822	; 0xc0000002
    17cc:	00000075 	andeq	r0, r0, r5, ror r0
    17d0:	0139040d 	teqeq	r9, sp, lsl #8
    17d4:	2c0e0000 	stccs	0, cr0, [lr], {-0}
    17d8:	07000000 	streq	r0, [r0, -r0]
    17dc:	0000071a 	andeq	r0, r0, sl, lsl r7
    17e0:	8a4c6001 	bhi	13197ec <__bss_end__+0x130f8dc>
    17e4:	00380000 	eorseq	r0, r8, r0
    17e8:	9c010000 	stcls	0, cr0, [r1], {-0}
    17ec:	00000196 	muleq	r0, r6, r1
    17f0:	6e697008 	cdpvs	0, 6, cr7, cr9, cr8, {0}
    17f4:	2c600100 	stfcse	f0, [r0], #-0
    17f8:	e7000000 	str	r0, [r0, -r0]
    17fc:	0900000d 	stmdbeq	r0, {r0, r2, r3}
    1800:	0000062d 	andeq	r0, r0, sp, lsr #12
    1804:	01336701 	teqeq	r3, r1, lsl #14
    1808:	0e080000 	cdpeq	0, 0, cr0, cr8, cr0, {0}
    180c:	de090000 	cdple	0, 0, cr0, cr9, cr0, {0}
    1810:	01000006 	tsteq	r0, r6
    1814:	00002c68 	andeq	r2, r0, r8, ror #24
    1818:	000e3e00 	andeq	r3, lr, r0, lsl #28
    181c:	8a7c0c00 	bhi	1f04824 <__bss_end__+0x1efa914>
    1820:	08620000 	stmdaeq	r2!, {}^	; <UNPREDICTABLE>
    1824:	010b0000 	mrseq	r0, (UNDEF: 11)
    1828:	f3310751 	vaba.u<illegal width 64>	q0, <illegal reg q0.5>, <illegal reg q0.5>
    182c:	1a4f5001 	bne	13d5838 <__bss_end__+0x13cb928>
    1830:	07000024 	streq	r0, [r0, -r4, lsr #32]
    1834:	000005e4 	andeq	r0, r0, r4, ror #11
    1838:	8a847b01 	bhi	fe120444 <__bss_end__+0xfe116534>
    183c:	00380000 	eorseq	r0, r8, r0
    1840:	9c010000 	stcls	0, cr0, [r1], {-0}
    1844:	000001ee 	andeq	r0, r0, lr, ror #3
    1848:	6e697008 	cdpvs	0, 6, cr7, cr9, cr8, {0}
    184c:	2c7b0100 	ldfcse	f0, [fp], #-0
    1850:	7e000000 	cdpvc	0, 0, cr0, cr0, cr0, {0}
    1854:	0900000e 	stmdbeq	r0, {r1, r2, r3}
    1858:	0000062d 	andeq	r0, r0, sp, lsr #12
    185c:	01338101 	teqeq	r3, r1, lsl #2
    1860:	0e9f0000 	cdpeq	0, 9, cr0, cr15, cr0, {0}
    1864:	de090000 	cdple	0, 0, cr0, cr9, cr0, {0}
    1868:	01000006 	tsteq	r0, r6
    186c:	00002c82 	andeq	r2, r0, r2, lsl #25
    1870:	000ed500 	andeq	sp, lr, r0, lsl #10
    1874:	8ab40c00 	bhi	fed0487c <__bss_end__+0xfecfa96c>
    1878:	08620000 	stmdaeq	r2!, {}^	; <UNPREDICTABLE>
    187c:	010b0000 	mrseq	r0, (UNDEF: 11)
    1880:	f3310751 	vaba.u<illegal width 64>	q0, <illegal reg q0.5>, <illegal reg q0.5>
    1884:	1a4f5001 	bne	13d5890 <__bss_end__+0x13cb980>
    1888:	07000024 	streq	r0, [r0, -r4, lsr #32]
    188c:	000000bc 	strheq	r0, [r0], -ip
    1890:	8abc9501 	bhi	fef26c9c <__bss_end__+0xfef1cd8c>
    1894:	00cc0000 	sbceq	r0, ip, r0
    1898:	9c010000 	stcls	0, cr0, [r1], {-0}
    189c:	00000264 	andeq	r0, r0, r4, ror #4
    18a0:	6e697008 	cdpvs	0, 6, cr7, cr9, cr8, {0}
    18a4:	2c950100 	ldfcss	f0, [r5], {0}
    18a8:	15000000 	strne	r0, [r0, #-0]
    18ac:	0900000f 	stmdbeq	r0, {r0, r1, r2, r3}
    18b0:	0000062d 	andeq	r0, r0, sp, lsr #12
    18b4:	01339b01 	teqeq	r3, r1, lsl #22
    18b8:	0f330000 	svceq	0x00330000
    18bc:	d7090000 	strle	r0, [r9, -r0]
    18c0:	01000007 	tsteq	r0, r7
    18c4:	00002c9d 	muleq	r0, sp, ip
    18c8:	000f8800 	andeq	r8, pc, r0, lsl #16
    18cc:	06de0900 	ldrbeq	r0, [lr], r0, lsl #18
    18d0:	ab010000 	blge	418d8 <__bss_end__+0x379c8>
    18d4:	0000002c 	andeq	r0, r0, ip, lsr #32
    18d8:	00001154 	andeq	r1, r0, r4, asr r1
    18dc:	008b500a 	addeq	r5, fp, sl
    18e0:	00084100 	andeq	r4, r8, r0, lsl #2
    18e4:	00025300 	andeq	r5, r2, r0, lsl #6
    18e8:	50010b00 	andpl	r0, r1, r0, lsl #22
    18ec:	00007502 	andeq	r7, r0, r2, lsl #10
    18f0:	008b7c0c 	addeq	r7, fp, ip, lsl #24
    18f4:	00086200 	andeq	r6, r8, r0, lsl #4
    18f8:	50010b00 	andpl	r0, r1, r0, lsl #22
    18fc:	00007502 	andeq	r7, r0, r2, lsl #10
    1900:	00850f00 	addeq	r0, r5, r0, lsl #30
    1904:	b3010000 	movwlt	r0, #4096	; 0x1000
    1908:	00000064 	andeq	r0, r0, r4, rrx
    190c:	00008b88 	andeq	r8, r0, r8, lsl #23
    1910:	0000004c 	andeq	r0, r0, ip, asr #32
    1914:	02ac9c01 	adceq	r9, ip, #256	; 0x100
    1918:	70080000 	andvc	r0, r8, r0
    191c:	01006e69 	tsteq	r0, r9, ror #28
    1920:	00002cb3 			; <UNDEFINED> instruction: 0x00002cb3
    1924:	00117200 	andseq	r7, r1, r0, lsl #4
    1928:	00761000 	rsbseq	r1, r6, r0
    192c:	002cb901 	eoreq	fp, ip, r1, lsl #18
    1930:	11ca0000 	bicne	r0, sl, r0
    1934:	a8110000 	ldmdage	r1, {}	; <UNPREDICTABLE>
    1938:	4100008b 	smlabbmi	r0, fp, r0, r0
    193c:	11000008 	tstne	r0, r8
    1940:	00008bb8 			; <UNDEFINED> instruction: 0x00008bb8
    1944:	00000841 	andeq	r0, r0, r1, asr #16
    1948:	06e60700 	strbteq	r0, [r6], r0, lsl #14
    194c:	c5010000 	strgt	r0, [r1, #-0]
    1950:	00008bd4 	ldrdeq	r8, [r0], -r4
    1954:	00000024 	andeq	r0, r0, r4, lsr #32
    1958:	02fc9c01 	rscseq	r9, ip, #256	; 0x100
    195c:	70080000 	andvc	r0, r8, r0
    1960:	01006e69 	tsteq	r0, r9, ror #28
    1964:	00002cc5 	andeq	r2, r0, r5, asr #25
    1968:	00120000 	andseq	r0, r2, r0
    196c:	00760800 	rsbseq	r0, r6, r0, lsl #16
    1970:	002cc501 	eoreq	ip, ip, r1, lsl #10
    1974:	123a0000 	eorsne	r0, sl, #0
    1978:	ec0a0000 	stc	0, cr0, [sl], {-0}
    197c:	3e00008b 	cdpcc	0, 0, cr0, cr0, cr11, {4}
    1980:	f2000001 	vhadd.s8	d0, d0, d1
    1984:	0b000002 	bleq	1994 <_start-0x666c>
    1988:	f3035001 	vhadd.u8	d5, d3, d1
    198c:	11005001 	tstne	r0, r1
    1990:	00008bf4 	strdeq	r8, [r0], -r4
    1994:	00000196 	muleq	r0, r6, r1
    1998:	06910700 	ldreq	r0, [r1], r0, lsl #14
    199c:	d1010000 	mrsle	r0, (UNDEF: 1)
    19a0:	00008bf8 	strdeq	r8, [r0], -r8	; <UNPREDICTABLE>
    19a4:	000000d8 	ldrdeq	r0, [r0], -r8
    19a8:	03819c01 	orreq	r9, r1, #256	; 0x100
    19ac:	70080000 	andvc	r0, r8, r0
    19b0:	01006e69 	tsteq	r0, r9, ror #28
    19b4:	00002cd1 	ldrdeq	r2, [r0], -r1
    19b8:	00127400 	andseq	r7, r2, r0, lsl #8
    19bc:	06fb1200 	ldrbteq	r1, [fp], r0, lsl #4
    19c0:	d1010000 	mrsle	r0, (UNDEF: 1)
    19c4:	000000b2 	strheq	r0, [r0], -r2
    19c8:	00001292 	muleq	r0, r2, r2
    19cc:	00062d09 	andeq	r2, r6, r9, lsl #26
    19d0:	33d90100 	bicscc	r0, r9, #0, 2
    19d4:	b3000001 	movwlt	r0, #1
    19d8:	09000012 	stmdbeq	r0, {r1, r4}
    19dc:	000007d7 	ldrdeq	r0, [r0], -r7
    19e0:	002cda01 	eoreq	sp, ip, r1, lsl #20
    19e4:	13080000 	movwne	r0, #32768	; 0x8000
    19e8:	de090000 	cdple	0, 0, cr0, cr9, cr0, {0}
    19ec:	01000006 	tsteq	r0, r6
    19f0:	00002ce8 	andeq	r2, r0, r8, ror #25
    19f4:	0014d400 	andseq	sp, r4, r0, lsl #8
    19f8:	8c940a00 	vldmiahi	r4, {s0-s-1}
    19fc:	08410000 	stmdaeq	r1, {}^	; <UNPREDICTABLE>
    1a00:	03700000 	cmneq	r0, #0
    1a04:	010b0000 	mrseq	r0, (UNDEF: 11)
    1a08:	00760250 	rsbseq	r0, r6, r0, asr r2
    1a0c:	8cc40c00 	stclhi	12, cr0, [r4], {0}
    1a10:	08620000 	stmdaeq	r2!, {}^	; <UNPREDICTABLE>
    1a14:	010b0000 	mrseq	r0, (UNDEF: 11)
    1a18:	00760250 	rsbseq	r0, r6, r0, asr r2
    1a1c:	00070000 	andeq	r0, r7, r0
    1a20:	01000007 	tsteq	r0, r7
    1a24:	008cd0f1 	strdeq	sp, [ip], r1
    1a28:	00003800 	andeq	r3, r0, r0, lsl #16
    1a2c:	d99c0100 	ldmible	ip, {r8}
    1a30:	08000003 	stmdaeq	r0, {r0, r1}
    1a34:	006e6970 	rsbeq	r6, lr, r0, ror r9
    1a38:	002cf101 	eoreq	pc, ip, r1, lsl #2
    1a3c:	15050000 	strne	r0, [r5, #-0]
    1a40:	2d090000 	stccs	0, cr0, [r9, #-0]
    1a44:	01000006 	tsteq	r0, r6
    1a48:	000133f7 	strdeq	r3, [r1], -r7
    1a4c:	00152600 	andseq	r2, r5, r0, lsl #12
    1a50:	06de0900 	ldrbeq	r0, [lr], r0, lsl #18
    1a54:	f8010000 			; <UNDEFINED> instruction: 0xf8010000
    1a58:	0000002c 	andeq	r0, r0, ip, lsr #32
    1a5c:	0000155c 	andeq	r1, r0, ip, asr r5
    1a60:	008d000c 	addeq	r0, sp, ip
    1a64:	00086200 	andeq	r6, r8, r0, lsl #4
    1a68:	51010b00 	tstpl	r1, r0, lsl #22
    1a6c:	01f33107 	mvnseq	r3, r7, lsl #2
    1a70:	241a4f50 	ldrcs	r4, [sl], #-3920	; 0xf50
    1a74:	c8130000 	ldmdagt	r3, {}	; <UNPREDICTABLE>
    1a78:	01000005 	tsteq	r0, r5
    1a7c:	0064011f 	rsbeq	r0, r4, pc, lsl r1
    1a80:	8d080000 	stchi	0, cr0, [r8, #-0]
    1a84:	002c0000 	eoreq	r0, ip, r0
    1a88:	9c010000 	stcls	0, cr0, [r1], {-0}
    1a8c:	0000040d 	andeq	r0, r0, sp, lsl #8
    1a90:	0005cb14 	andeq	ip, r5, r4, lsl fp
    1a94:	011f0100 	tsteq	pc, r0, lsl #2
    1a98:	0000002c 	andeq	r0, r0, ip, lsr #32
    1a9c:	0000159c 	muleq	r0, ip, r5
    1aa0:	008d1811 	addeq	r1, sp, r1, lsl r8
    1aa4:	00084100 	andeq	r4, r8, r0, lsl #2
    1aa8:	7c150000 	ldcvc	0, cr0, [r5], {-0}
    1aac:	01000006 	tsteq	r0, r6
    1ab0:	8d34012e 	ldfhis	f0, [r4, #-184]!	; 0xffffff48
    1ab4:	00840000 	addeq	r0, r4, r0
    1ab8:	9c010000 	stcls	0, cr0, [r1], {-0}
    1abc:	000004d1 	ldrdeq	r0, [r0], -r1
    1ac0:	6e697016 	mcrvs	0, 3, r7, cr9, cr6, {0}
    1ac4:	012e0100 	teqeq	lr, r0, lsl #2
    1ac8:	0000002c 	andeq	r0, r0, ip, lsr #32
    1acc:	000015bd 			; <UNDEFINED> instruction: 0x000015bd
    1ad0:	0005ff17 	andeq	pc, r5, r7, lsl pc	; <UNPREDICTABLE>
    1ad4:	01400100 	mrseq	r0, (UNDEF: 80)
    1ad8:	0000002c 	andeq	r0, r0, ip, lsr #32
    1adc:	000015e9 	andeq	r1, r0, r9, ror #11
    1ae0:	008d5018 	addeq	r5, sp, r8, lsl r0
    1ae4:	00001c00 	andeq	r1, r0, r0, lsl #24
    1ae8:	00047300 	andeq	r7, r4, r0, lsl #6
    1aec:	06de1700 	ldrbeq	r1, [lr], r0, lsl #14
    1af0:	37010000 	strcc	r0, [r1, -r0]
    1af4:	00002c01 	andeq	r2, r0, r1, lsl #24
    1af8:	00160700 	andseq	r0, r6, r0, lsl #14
    1afc:	8d5c1100 	ldfhie	f1, [ip, #-0]
    1b00:	08410000 	stmdaeq	r1, {}^	; <UNPREDICTABLE>
    1b04:	6c110000 	ldcvs	0, cr0, [r1], {-0}
    1b08:	6200008d 	andvs	r0, r0, #141	; 0x8d
    1b0c:	00000008 	andeq	r0, r0, r8
    1b10:	008d7018 	addeq	r7, sp, r8, lsl r0
    1b14:	00002000 	andeq	r2, r0, r0
    1b18:	0004a300 	andeq	sl, r4, r0, lsl #6
    1b1c:	06de1700 	ldrbeq	r1, [lr], r0, lsl #14
    1b20:	3b010000 	blcc	41b28 <__bss_end__+0x37c18>
    1b24:	00002c01 	andeq	r2, r0, r1, lsl #24
    1b28:	00162500 	andseq	r2, r6, r0, lsl #10
    1b2c:	8d7c1100 	ldfhie	f1, [ip, #-0]
    1b30:	08410000 	stmdaeq	r1, {}^	; <UNPREDICTABLE>
    1b34:	90110000 	andsls	r0, r1, r0
    1b38:	6200008d 	andvs	r0, r0, #141	; 0x8d
    1b3c:	00000008 	andeq	r0, r0, r8
    1b40:	008d4811 	addeq	r4, sp, r1, lsl r8
    1b44:	00087e00 	andeq	r7, r8, r0, lsl #28
    1b48:	8d941100 	ldfhis	f1, [r4]
    1b4c:	087e0000 	ldmdaeq	lr!, {}^	; <UNPREDICTABLE>
    1b50:	a0110000 	andsge	r0, r1, r0
    1b54:	4100008d 	smlabbmi	r0, sp, r0, r0
    1b58:	11000008 	tstne	r0, r8
    1b5c:	00008dac 	andeq	r8, r0, ip, lsr #27
    1b60:	00000862 	andeq	r0, r0, r2, ror #16
    1b64:	008db011 	addeq	fp, sp, r1, lsl r0
    1b68:	00087e00 	andeq	r7, r8, r0, lsl #28
    1b6c:	5b150000 	blpl	541b74 <__bss_end__+0x537c64>
    1b70:	01000007 	tsteq	r0, r7
    1b74:	8db8014b 	ldfhis	f0, [r8, #300]!	; 0x12c
    1b78:	00840000 	addeq	r0, r4, r0
    1b7c:	9c010000 	stcls	0, cr0, [r1], {-0}
    1b80:	00000595 	muleq	r0, r5, r5
    1b84:	6e697016 	mcrvs	0, 3, r7, cr9, cr6, {0}
    1b88:	014b0100 	mrseq	r0, (UNDEF: 91)
    1b8c:	0000002c 	andeq	r0, r0, ip, lsr #32
    1b90:	00001643 	andeq	r1, r0, r3, asr #12
    1b94:	0005ff17 	andeq	pc, r5, r7, lsl pc	; <UNPREDICTABLE>
    1b98:	015c0100 	cmpeq	ip, r0, lsl #2
    1b9c:	0000002c 	andeq	r0, r0, ip, lsr #32
    1ba0:	0000166f 	andeq	r1, r0, pc, ror #12
    1ba4:	008dd418 	addeq	sp, sp, r8, lsl r4
    1ba8:	00001c00 	andeq	r1, r0, r0, lsl #24
    1bac:	00053700 	andeq	r3, r5, r0, lsl #14
    1bb0:	06de1700 	ldrbeq	r1, [lr], r0, lsl #14
    1bb4:	53010000 	movwpl	r0, #4096	; 0x1000
    1bb8:	00002c01 	andeq	r2, r0, r1, lsl #24
    1bbc:	00168d00 	andseq	r8, r6, r0, lsl #26
    1bc0:	8de01100 	stfhie	f1, [r0]
    1bc4:	08410000 	stmdaeq	r1, {}^	; <UNPREDICTABLE>
    1bc8:	f0110000 			; <UNDEFINED> instruction: 0xf0110000
    1bcc:	6200008d 	andvs	r0, r0, #141	; 0x8d
    1bd0:	00000008 	andeq	r0, r0, r8
    1bd4:	008df418 	addeq	pc, sp, r8, lsl r4	; <UNPREDICTABLE>
    1bd8:	00002000 	andeq	r2, r0, r0
    1bdc:	00056700 	andeq	r6, r5, r0, lsl #14
    1be0:	06de1700 	ldrbeq	r1, [lr], r0, lsl #14
    1be4:	57010000 	strpl	r0, [r1, -r0]
    1be8:	00002c01 	andeq	r2, r0, r1, lsl #24
    1bec:	0016ab00 	andseq	sl, r6, r0, lsl #22
    1bf0:	8e001100 	adfhis	f1, f0, f0
    1bf4:	08410000 	stmdaeq	r1, {}^	; <UNPREDICTABLE>
    1bf8:	14110000 	ldrne	r0, [r1], #-0
    1bfc:	6200008e 	andvs	r0, r0, #142	; 0x8e
    1c00:	00000008 	andeq	r0, r0, r8
    1c04:	008dcc11 	addeq	ip, sp, r1, lsl ip
    1c08:	00087e00 	andeq	r7, r8, r0, lsl #28
    1c0c:	8e181100 	mufhie	f1, f0, f0
    1c10:	087e0000 	ldmdaeq	lr!, {}^	; <UNPREDICTABLE>
    1c14:	24110000 	ldrcs	r0, [r1], #-0
    1c18:	4100008e 	smlabbmi	r0, lr, r0, r0
    1c1c:	11000008 	tstne	r0, r8
    1c20:	00008e30 	andeq	r8, r0, r0, lsr lr
    1c24:	00000862 	andeq	r0, r0, r2, ror #16
    1c28:	008e3411 	addeq	r3, lr, r1, lsl r4
    1c2c:	00087e00 	andeq	r7, r8, r0, lsl #28
    1c30:	91130000 	tstls	r3, r0
    1c34:	01000005 	tsteq	r0, r5
    1c38:	00640166 	rsbeq	r0, r4, r6, ror #2
    1c3c:	8e3c0000 	cdphi	0, 3, cr0, cr12, cr0, {0}
    1c40:	00840000 	addeq	r0, r4, r0
    1c44:	9c010000 	stcls	0, cr0, [r1], {-0}
    1c48:	0000063b 	andeq	r0, r0, fp, lsr r6
    1c4c:	6e697016 	mcrvs	0, 3, r7, cr9, cr6, {0}
    1c50:	01660100 	cmneq	r6, r0, lsl #2
    1c54:	0000002c 	andeq	r0, r0, ip, lsr #32
    1c58:	000016c9 	andeq	r1, r0, r9, asr #13
    1c5c:	008e5818 	addeq	r5, lr, r8, lsl r8
    1c60:	00002400 	andeq	r2, r0, r0, lsl #8
    1c64:	0005ef00 	andeq	lr, r5, r0, lsl #30
    1c68:	06161700 	ldreq	r1, [r6], -r0, lsl #14
    1c6c:	6d010000 	stcvs	0, cr0, [r1, #-0]
    1c70:	00002c01 	andeq	r2, r0, r1, lsl #24
    1c74:	00170b00 	andseq	r0, r7, r0, lsl #22
    1c78:	8e641100 	powhis	f1, f4, f0
    1c7c:	08410000 	stmdaeq	r1, {}^	; <UNPREDICTABLE>
    1c80:	74110000 	ldrvc	r0, [r1], #-0
    1c84:	7e00008e 	cdpvc	0, 0, cr0, cr0, cr14, {4}
    1c88:	00000008 	andeq	r0, r0, r8
    1c8c:	008e7c18 	addeq	r7, lr, r8, lsl ip
    1c90:	00002c00 	andeq	r2, r0, r0, lsl #24
    1c94:	00062800 	andeq	r2, r6, r0, lsl #16
    1c98:	06161700 	ldreq	r1, [r6], -r0, lsl #14
    1c9c:	70010000 	andvc	r0, r1, r0
    1ca0:	00002c01 	andeq	r2, r0, r1, lsl #24
    1ca4:	00172500 	andseq	r2, r7, r0, lsl #10
    1ca8:	8e881100 	rmfhie	f1, f0, f0
    1cac:	08410000 	stmdaeq	r1, {}^	; <UNPREDICTABLE>
    1cb0:	94110000 	ldrls	r0, [r1], #-0
    1cb4:	7e00008e 	cdpvc	0, 0, cr0, cr0, cr14, {4}
    1cb8:	11000008 	tstne	r0, r8
    1cbc:	00008ea0 	andeq	r8, r0, r0, lsr #29
    1cc0:	0000087e 	andeq	r0, r0, lr, ror r8
    1cc4:	8e501100 	rdfhis	f1, f0, f0
    1cc8:	087e0000 	ldmdaeq	lr!, {}^	; <UNPREDICTABLE>
    1ccc:	ac110000 	ldcge	0, cr0, [r1], {-0}
    1cd0:	7e00008e 	cdpvc	0, 0, cr0, cr0, cr14, {4}
    1cd4:	00000008 	andeq	r0, r0, r8
    1cd8:	0006b115 	andeq	fp, r6, r5, lsl r1
    1cdc:	01790100 	cmneq	r9, r0, lsl #2
    1ce0:	00008ec0 	andeq	r8, r0, r0, asr #29
    1ce4:	00000058 	andeq	r0, r0, r8, asr r0
    1ce8:	06a09c01 	strteq	r9, [r0], r1, lsl #24
    1cec:	70160000 	andsvc	r0, r6, r0
    1cf0:	01006e69 	tsteq	r0, r9, ror #28
    1cf4:	002c0179 	eoreq	r0, ip, r9, ror r1
    1cf8:	17380000 	ldrne	r0, [r8, -r0]!
    1cfc:	d4110000 	ldrle	r0, [r1], #-0
    1d00:	7e00008e 	cdpvc	0, 0, cr0, cr0, cr14, {4}
    1d04:	0a000008 	beq	1d2c <_start-0x62d4>
    1d08:	00008ef0 	strdeq	r8, [r0], -r0
    1d0c:	00000862 	andeq	r0, r0, r2, ror #16
    1d10:	00000680 	andeq	r0, r0, r0, lsl #13
    1d14:	0451010b 	ldrbeq	r0, [r1], #-267	; 0x10b
    1d18:	24007431 	strcs	r7, [r0], #-1073	; 0x431
    1d1c:	8f0c0a00 	svchi	0x000c0a00
    1d20:	08620000 	stmdaeq	r2!, {}^	; <UNPREDICTABLE>
    1d24:	06960000 	ldreq	r0, [r6], r0
    1d28:	010b0000 	mrseq	r0, (UNDEF: 11)
    1d2c:	74310451 	ldrtvc	r0, [r1], #-1105	; 0x451
    1d30:	11002400 	tstne	r0, r0, lsl #8
    1d34:	00008f10 	andeq	r8, r0, r0, lsl pc
    1d38:	0000087e 	andeq	r0, r0, lr, ror r8
    1d3c:	066a1900 	strbteq	r1, [sl], -r0, lsl #18
    1d40:	28010000 	stmdacs	r1, {}	; <UNPREDICTABLE>
    1d44:	00000133 	andeq	r0, r0, r3, lsr r1
    1d48:	980c0305 	stmdals	ip, {r0, r2, r8, r9}
    1d4c:	f1190000 			; <UNDEFINED> instruction: 0xf1190000
    1d50:	01000006 	tsteq	r0, r6
    1d54:	00013329 	andeq	r3, r1, r9, lsr #6
    1d58:	08030500 	stmdaeq	r3, {r8, sl}
    1d5c:	19000098 	stmdbne	r0, {r3, r4, r7}
    1d60:	000007e2 	andeq	r0, r0, r2, ror #15
    1d64:	01332a01 	teqeq	r3, r1, lsl #20
    1d68:	03050000 	movweq	r0, #20480	; 0x5000
    1d6c:	00009804 	andeq	r9, r0, r4, lsl #16
    1d70:	00063619 	andeq	r3, r6, r9, lsl r6
    1d74:	332c0100 	teqcc	ip, #0, 2
    1d78:	05000001 	streq	r0, [r0, #-1]
    1d7c:	0097b003 	addseq	fp, r7, r3
    1d80:	063e1900 	ldrteq	r1, [lr], -r0, lsl #18
    1d84:	2d010000 	stccs	0, cr0, [r1, #-0]
    1d88:	00000133 	andeq	r0, r0, r3, lsr r1
    1d8c:	97b40305 	ldrls	r0, [r4, r5, lsl #6]!
    1d90:	ab190000 	blge	641d98 <__bss_end__+0x637e88>
    1d94:	01000005 	tsteq	r0, r5
    1d98:	0001332e 	andeq	r3, r1, lr, lsr #6
    1d9c:	b8030500 	stmdalt	r3, {r8, sl}
    1da0:	19000097 	stmdbne	r0, {r0, r1, r2, r4, r7}
    1da4:	00000646 	andeq	r0, r0, r6, asr #12
    1da8:	01332f01 	teqeq	r3, r1, lsl #30
    1dac:	03050000 	movweq	r0, #20480	; 0x5000
    1db0:	000097bc 			; <UNDEFINED> instruction: 0x000097bc
    1db4:	00064e19 	andeq	r4, r6, r9, lsl lr
    1db8:	33300100 	teqcc	r0, #0, 2
    1dbc:	05000001 	streq	r0, [r0, #-1]
    1dc0:	0097c003 	addseq	ip, r7, r3
    1dc4:	06561900 	ldrbeq	r1, [r6], -r0, lsl #18
    1dc8:	31010000 	mrscc	r0, (UNDEF: 1)
    1dcc:	00000133 	andeq	r0, r0, r3, lsr r1
    1dd0:	97c40305 	strbls	r0, [r4, r5, lsl #6]
    1dd4:	08190000 	ldmdaeq	r9, {}	; <UNPREDICTABLE>
    1dd8:	01000006 	tsteq	r0, r6
    1ddc:	00013333 	andeq	r3, r1, r3, lsr r3
    1de0:	c8030500 	stmdagt	r3, {r8, sl}
    1de4:	19000097 	stmdbne	r0, {r0, r1, r2, r4, r7}
    1de8:	0000060f 	andeq	r0, r0, pc, lsl #12
    1dec:	01333401 	teqeq	r3, r1, lsl #8
    1df0:	03050000 	movweq	r0, #20480	; 0x5000
    1df4:	000097cc 	andeq	r9, r0, ip, asr #15
    1df8:	0005b319 	andeq	fp, r5, r9, lsl r3
    1dfc:	33360100 	teqcc	r6, #0, 2
    1e00:	05000001 	streq	r0, [r0, #-1]
    1e04:	0097d003 	addseq	sp, r7, r3
    1e08:	06751900 	ldrbteq	r1, [r5], -r0, lsl #18
    1e0c:	37010000 	strcc	r0, [r1, -r0]
    1e10:	00000133 	andeq	r0, r0, r3, lsr r1
    1e14:	97d40305 	ldrbls	r0, [r4, r5, lsl #6]
    1e18:	1f190000 	svcne	0x00190000
    1e1c:	01000006 	tsteq	r0, r6
    1e20:	00013339 	andeq	r3, r1, r9, lsr r3
    1e24:	d8030500 	stmdale	r3, {r8, sl}
    1e28:	19000097 	stmdbne	r0, {r0, r1, r2, r4, r7}
    1e2c:	00000626 	andeq	r0, r0, r6, lsr #12
    1e30:	01333a01 	teqeq	r3, r1, lsl #20
    1e34:	03050000 	movweq	r0, #20480	; 0x5000
    1e38:	000097dc 	ldrdeq	r9, [r0], -ip
    1e3c:	0006c21a 	andeq	ip, r6, sl, lsl r2
    1e40:	010a0100 	mrseq	r0, (UNDEF: 26)
    1e44:	00000133 	andeq	r0, r0, r3, lsr r1
    1e48:	98000305 	stmdals	r0, {r0, r2, r8, r9}
    1e4c:	d01a0000 	andsle	r0, sl, r0
    1e50:	01000006 	tsteq	r0, r6
    1e54:	0133010b 	teqeq	r3, fp, lsl #2
    1e58:	03050000 	movweq	r0, #20480	; 0x5000
    1e5c:	000097e0 	andeq	r9, r0, r0, ror #15
    1e60:	00070c1a 	andeq	r0, r7, sl, lsl ip
    1e64:	010d0100 	mrseq	r0, (UNDEF: 29)
    1e68:	00000133 	andeq	r0, r0, r3, lsr r1
    1e6c:	97f80305 	ldrbls	r0, [r8, r5, lsl #6]!
    1e70:	131a0000 	tstne	sl, #0
    1e74:	01000007 	tsteq	r0, r7
    1e78:	0133010e 	teqeq	r3, lr, lsl #2
    1e7c:	03050000 	movweq	r0, #20480	; 0x5000
    1e80:	000097fc 	strdeq	r9, [r0], -ip
    1e84:	0006a31a 	andeq	sl, r6, sl, lsl r3
    1e88:	01100100 	tsteq	r0, r0, lsl #2
    1e8c:	00000133 	andeq	r0, r0, r3, lsr r1
    1e90:	97e40305 	strbls	r0, [r4, r5, lsl #6]!
    1e94:	aa1a0000 	bge	681e9c <__bss_end__+0x677f8c>
    1e98:	01000006 	tsteq	r0, r6
    1e9c:	01330111 	teqeq	r3, r1, lsl r1
    1ea0:	03050000 	movweq	r0, #20480	; 0x5000
    1ea4:	000097e8 	andeq	r9, r0, r8, ror #15
    1ea8:	0007261a 	andeq	r2, r7, sl, lsl r6
    1eac:	01130100 	tsteq	r3, r0, lsl #2
    1eb0:	00000133 	andeq	r0, r0, r3, lsr r1
    1eb4:	97f00305 	ldrbls	r0, [r0, r5, lsl #6]!
    1eb8:	2d1a0000 	ldccs	0, cr0, [sl, #-0]
    1ebc:	01000007 	tsteq	r0, r7
    1ec0:	01330114 	teqeq	r3, r4, lsl r1
    1ec4:	03050000 	movweq	r0, #20480	; 0x5000
    1ec8:	000097f4 	strdeq	r9, [r0], -r4
    1ecc:	0005ba1a 	andeq	fp, r5, sl, lsl sl
    1ed0:	01160100 	tsteq	r6, r0, lsl #2
    1ed4:	00000133 	andeq	r0, r0, r3, lsr r1
    1ed8:	97ec0305 	strbls	r0, [ip, r5, lsl #6]!
    1edc:	551b0000 	ldrpl	r0, [fp, #-0]
    1ee0:	01000007 	tsteq	r0, r7
    1ee4:	00002c20 	andeq	r2, r0, r0, lsr #24
    1ee8:	00085600 	andeq	r5, r8, r0, lsl #12
    1eec:	08561c00 	ldmdaeq	r6, {sl, fp, ip}^
    1ef0:	0d000000 	stceq	0, cr0, [r0, #-0]
    1ef4:	00085c04 	andeq	r5, r8, r4, lsl #24
    1ef8:	08611d00 	stmdaeq	r1!, {r8, sl, fp, ip}^
    1efc:	1f1e0000 	svcne	0x001e0000
    1f00:	000005a5 	andeq	r0, r0, r5, lsr #11
    1f04:	08781e01 	ldmdaeq	r8!, {r0, r9, sl, fp, ip}^
    1f08:	781c0000 	ldmdavc	ip, {}	; <UNPREDICTABLE>
    1f0c:	1c000008 	stcne	0, cr0, [r0], {8}
    1f10:	0000002c 	andeq	r0, r0, ip, lsr #32
    1f14:	61040d00 	tstvs	r4, r0, lsl #26
    1f18:	20000008 	andcs	r0, r0, r8
    1f1c:	0000065e 	andeq	r0, r0, lr, asr r6
    1f20:	f2008a03 	vpmax.s8	d8, d0, d3
    1f24:	04000011 	streq	r0, [r0], #-17
    1f28:	000c7700 	andeq	r7, ip, r0, lsl #14
    1f2c:	1e010400 	cfcpysne	mvf0, mvf1
    1f30:	01000002 	tsteq	r0, r2
    1f34:	00000881 	andeq	r0, r0, r1, lsl #17
    1f38:	00000289 	andeq	r0, r0, r9, lsl #5
    1f3c:	00008f18 	andeq	r8, r0, r8, lsl pc
    1f40:	00000668 	andeq	r0, r0, r8, ror #12
    1f44:	000009c2 	andeq	r0, r0, r2, asr #19
    1f48:	69050402 	stmdbvs	r5, {r1, sl}
    1f4c:	0300746e 	movweq	r7, #1134	; 0x46e
    1f50:	01270704 	teqeq	r7, r4, lsl #14
    1f54:	01030000 	mrseq	r0, (UNDEF: 3)
    1f58:	0000cd06 	andeq	ip, r0, r6, lsl #26
    1f5c:	05020300 	streq	r0, [r2, #-768]	; 0x300
    1f60:	000001cb 	andeq	r0, r0, fp, asr #3
    1f64:	5b050403 	blpl	142f78 <__bss_end__+0x139068>
    1f68:	03000001 	movweq	r0, #1
    1f6c:	01560508 	cmpeq	r6, r8, lsl #10
    1f70:	59040000 	stmdbpl	r4, {}	; <UNPREDICTABLE>
    1f74:	03000004 	movweq	r0, #4
    1f78:	00005a2e 	andeq	r5, r0, lr, lsr #20
    1f7c:	08010300 	stmdaeq	r1, {r8, r9}
    1f80:	000000cb 	andeq	r0, r0, fp, asr #1
    1f84:	a9070203 	stmdbge	r7, {r0, r1, r9}
    1f88:	04000000 	streq	r0, [r0], #-0
    1f8c:	000004b0 			; <UNDEFINED> instruction: 0x000004b0
    1f90:	00733403 	rsbseq	r3, r3, r3, lsl #8
    1f94:	04030000 	streq	r0, [r3], #-0
    1f98:	00012207 	andeq	r2, r1, r7, lsl #4
    1f9c:	07080300 	streq	r0, [r8, -r0, lsl #6]
    1fa0:	0000011d 	andeq	r0, r0, sp, lsl r1
    1fa4:	42070403 	andmi	r0, r7, #50331648	; 0x3000000
    1fa8:	05000001 	streq	r0, [r0, #-1]
    1fac:	90040604 	andls	r0, r4, r4, lsl #12
    1fb0:	03000000 	movweq	r0, #0
    1fb4:	00d40801 	sbcseq	r0, r4, r1, lsl #16
    1fb8:	04060000 	streq	r0, [r6], #-0
    1fbc:	0000009d 	muleq	r0, sp, r0
    1fc0:	00009007 	andeq	r9, r0, r7
    1fc4:	040c0800 	streq	r0, [ip], #-2048	; 0x800
    1fc8:	0000d90e 	andeq	sp, r0, lr, lsl #18
    1fcc:	78740900 	ldmdavc	r4!, {r8, fp}^
    1fd0:	4f0f0400 	svcmi	0x000f0400
    1fd4:	00000000 	andeq	r0, r0, r0
    1fd8:	00787209 	rsbseq	r7, r8, r9, lsl #4
    1fdc:	004f0f04 	subeq	r0, pc, r4, lsl #30
    1fe0:	0a010000 	beq	41fe8 <__bss_end__+0x380d8>
    1fe4:	00000427 	andeq	r0, r0, r7, lsr #8
    1fe8:	00681004 	rsbeq	r1, r8, r4
    1fec:	0a040000 	beq	101ff4 <__bss_end__+0xf80e4>
    1ff0:	000003d8 	ldrdeq	r0, [r0], -r8
    1ff4:	00681104 	rsbeq	r1, r8, r4, lsl #2
    1ff8:	00080000 	andeq	r0, r8, r0
    1ffc:	00041004 	andeq	r1, r4, r4
    2000:	a2120400 	andsge	r0, r2, #0, 8
    2004:	04000000 	streq	r0, [r0], #-0
    2008:	00000201 	andeq	r0, r0, r1, lsl #4
    200c:	00ef2805 	rsceq	r2, pc, r5, lsl #16
    2010:	7f0b0000 	svcvc	0x000b0000
    2014:	04000002 	streq	r0, [r0], #-2
    2018:	01060009 	tsteq	r6, r9
    201c:	d20c0000 	andle	r0, ip, #0
    2020:	88000002 	stmdahi	r0, {r1}
    2024:	00000000 	andeq	r0, r0, r0
    2028:	02810400 	addeq	r0, r1, #0, 8
    202c:	62050000 	andvs	r0, r5, #0
    2030:	000000e4 	andeq	r0, r0, r4, ror #1
    2034:	0008450d 	andeq	r4, r8, sp, lsl #10
    2038:	03090200 	movweq	r0, #37376	; 0x9200
    203c:	0000013f 	andeq	r0, r0, pc, lsr r1
    2040:	00043b0e 	andeq	r3, r4, lr, lsl #22
    2044:	2c090200 	sfmcs	f0, 4, [r9], {-0}
    2048:	0f000000 	svceq	0x00000000
    204c:	0902006e 	stmdbeq	r2, {r1, r2, r3, r5, r6}
    2050:	0000002c 	andeq	r0, r0, ip, lsr #32
    2054:	01641110 	cmneq	r4, r0, lsl r1
    2058:	0c020000 	stceq	0, cr0, [r2], {-0}
    205c:	0000002c 	andeq	r0, r0, ip, lsr #32
    2060:	f80d0000 			; <UNDEFINED> instruction: 0xf80d0000
    2064:	02000007 	andeq	r0, r0, #7
    2068:	01760317 	cmneq	r6, r7, lsl r3
    206c:	700f0000 	andvc	r0, pc, r0
    2070:	02006e69 	andeq	r6, r0, #1680	; 0x690
    2074:	00002c17 	andeq	r2, r0, r7, lsl ip
    2078:	00760f00 	rsbseq	r0, r6, r0, lsl #30
    207c:	002c1702 	eoreq	r1, ip, r2, lsl #14
    2080:	3b0e0000 	blcc	382088 <__bss_end__+0x378178>
    2084:	02000004 	andeq	r0, r0, #4
    2088:	00002c17 	andeq	r2, r0, r7, lsl ip
    208c:	084b0e00 	stmdaeq	fp, {r9, sl, fp}^
    2090:	17020000 	strne	r0, [r2, -r0]
    2094:	0000002c 	andeq	r0, r0, ip, lsr #32
    2098:	044c1200 	strbeq	r1, [ip], #-512	; 0x200
    209c:	09010000 	stmdbeq	r1, {}	; <UNPREDICTABLE>
    20a0:	00008f18 	andeq	r8, r0, r8, lsl pc
    20a4:	00000154 	andeq	r0, r0, r4, asr r1
    20a8:	07229c01 	streq	r9, [r2, -r1, lsl #24]!
    20ac:	ee130000 	cdp	0, 1, cr0, cr3, cr0, {0}
    20b0:	01000003 	tsteq	r0, r3
    20b4:	00072209 	andeq	r2, r7, r9, lsl #4
    20b8:	00176400 	andseq	r6, r7, r0, lsl #8
    20bc:	00631400 	rsbeq	r1, r3, r0, lsl #8
    20c0:	005a0901 	subseq	r0, sl, r1, lsl #18
    20c4:	17850000 	strne	r0, [r5, r0]
    20c8:	74150000 	ldrvc	r0, [r5], #-0
    20cc:	0b010078 	bleq	422b4 <__bss_end__+0x383a4>
    20d0:	00000025 	andeq	r0, r0, r5, lsr #32
    20d4:	08007606 	stmdaeq	r0, {r1, r2, r9, sl, ip, sp, lr}
    20d8:	169f1aff 			; <UNDEFINED> instruction: 0x169f1aff
    20dc:	0c01006e 	stceq	0, cr0, [r1], {110}	; 0x6e
    20e0:	00000068 	andeq	r0, r0, r8, rrx
    20e4:	000017a6 	andeq	r1, r0, r6, lsr #15
    20e8:	01007516 	tsteq	r0, r6, lsl r5
    20ec:	0000680d 	andeq	r6, r0, sp, lsl #16
    20f0:	0017b900 	andseq	fp, r7, r0, lsl #18
    20f4:	00731500 	rsbseq	r1, r3, r0, lsl #10
    20f8:	00680e01 	rsbeq	r0, r8, r1, lsl #28
    20fc:	54010000 	strpl	r0, [r1], #-0
    2100:	008f2817 	addeq	r2, pc, r7, lsl r8	; <UNPREDICTABLE>
    2104:	00000400 	andeq	r0, r0, r0, lsl #8
    2108:	0001f800 	andeq	pc, r1, r0, lsl #16
    210c:	01641800 	cmneq	r4, r0, lsl #16
    2110:	0e010000 	cdpeq	0, 0, cr0, cr1, cr0, {0}
    2114:	0000002c 	andeq	r0, r0, ip, lsr #32
    2118:	19005401 	stmdbne	r0, {r0, sl, ip, lr}
    211c:	0000013f 	andeq	r0, r0, pc, lsr r1
    2120:	00008f2c 	andeq	r8, r0, ip, lsr #30
    2124:	0000001c 	andeq	r0, r0, ip, lsl r0
    2128:	02751101 	rsbseq	r1, r5, #1073741824	; 0x40000000
    212c:	6a1a0000 	bvs	682134 <__bss_end__+0x678224>
    2130:	e2000001 	and	r0, r0, #1
    2134:	1b000017 	blne	2198 <_start-0x5e68>
    2138:	0000015f 	andeq	r0, r0, pc, asr r1
    213c:	561c5401 	ldrpl	r5, [ip], -r1, lsl #8
    2140:	00000001 	andeq	r0, r0, r1
    2144:	00014b1b 	andeq	r4, r1, fp, lsl fp
    2148:	19560100 	ldmdbne	r6, {r8}^
    214c:	00000111 	andeq	r0, r0, r1, lsl r1
    2150:	00008f38 	andeq	r8, r0, r8, lsr pc
    2154:	00000010 	andeq	r0, r0, r0, lsl r0
    2158:	025f1a02 	subseq	r1, pc, #8192	; 0x2000
    215c:	281a0000 	ldmdacs	sl, {}	; <UNPREDICTABLE>
    2160:	f5000001 			; <UNDEFINED> instruction: 0xf5000001
    2164:	1b000017 	blne	21c8 <_start-0x5e38>
    2168:	0000011d 	andeq	r0, r0, sp, lsl r1
    216c:	381d5401 	ldmdacc	sp, {r0, sl, ip, lr}
    2170:	0400008f 	streq	r0, [r0], #-143	; 0x8f
    2174:	1e000000 	cdpne	0, 0, cr0, cr0, cr0, {0}
    2178:	00000132 	andeq	r0, r0, r2, lsr r1
    217c:	00001808 	andeq	r1, r0, r8, lsl #16
    2180:	381f0000 	ldmdacc	pc, {}	; <UNPREDICTABLE>
    2184:	5900008f 	stmdbpl	r0, {r0, r1, r2, r3, r7}
    2188:	20000011 	andcs	r0, r0, r1, lsl r0
    218c:	30015101 	andcc	r5, r1, r1, lsl #2
    2190:	02500120 	subseq	r0, r0, #32, 2
    2194:	00000076 	andeq	r0, r0, r6, ror r0
    2198:	00013f19 	andeq	r3, r1, r9, lsl pc
    219c:	008f4c00 	addeq	r4, pc, r0, lsl #24
    21a0:	00001c00 	andeq	r1, r0, r0, lsl #24
    21a4:	f8130100 			; <UNDEFINED> instruction: 0xf8130100
    21a8:	1a000002 	bne	21b8 <_start-0x5e48>
    21ac:	0000016a 	andeq	r0, r0, sl, ror #2
    21b0:	0000181b 	andeq	r1, r0, fp, lsl r8
    21b4:	00015f1b 	andeq	r5, r1, fp, lsl pc
    21b8:	1a540100 	bne	15025c0 <__bss_end__+0x14f86b0>
    21bc:	00000156 	andeq	r0, r0, r6, asr r1
    21c0:	0000183d 	andeq	r1, r0, sp, lsr r8
    21c4:	00014b1b 	andeq	r4, r1, fp, lsl fp
    21c8:	19560100 	ldmdbne	r6, {r8}^
    21cc:	00000111 	andeq	r0, r0, r1, lsl r1
    21d0:	00008f58 	andeq	r8, r0, r8, asr pc
    21d4:	00000010 	andeq	r0, r0, r0, lsl r0
    21d8:	02df1a02 	sbcseq	r1, pc, #8192	; 0x2000
    21dc:	281a0000 	ldmdacs	sl, {}	; <UNPREDICTABLE>
    21e0:	6e000001 	cdpvs	0, 0, cr0, cr0, cr1, {0}
    21e4:	1b000018 	blne	224c <_start-0x5db4>
    21e8:	0000011d 	andeq	r0, r0, sp, lsl r1
    21ec:	581d5401 	ldmdapl	sp, {r0, sl, ip, lr}
    21f0:	0400008f 	streq	r0, [r0], #-143	; 0x8f
    21f4:	1e000000 	cdpne	0, 0, cr0, cr0, cr0, {0}
    21f8:	00000132 	andeq	r0, r0, r2, lsr r1
    21fc:	00001890 	muleq	r0, r0, r8
    2200:	581f0000 	ldmdapl	pc, {}	; <UNPREDICTABLE>
    2204:	5900008f 	stmdbpl	r0, {r0, r1, r2, r3, r7}
    2208:	20000011 	andcs	r0, r0, r1, lsl r0
    220c:	77045101 	strvc	r5, [r4, -r1, lsl #2]
    2210:	201a3100 	andscs	r3, sl, r0, lsl #2
    2214:	76025001 	strvc	r5, [r2], -r1
    2218:	19000000 	stmdbne	r0, {}	; <UNPREDICTABLE>
    221c:	0000013f 	andeq	r0, r0, pc, lsr r1
    2220:	00008f6c 	andeq	r8, r0, ip, ror #30
    2224:	0000001c 	andeq	r0, r0, ip, lsl r0
    2228:	03801501 	orreq	r1, r0, #4194304	; 0x400000
    222c:	6a1a0000 	bvs	682234 <__bss_end__+0x678324>
    2230:	a3000001 	movwge	r0, #1
    2234:	1b000018 	blne	229c <_start-0x5d64>
    2238:	0000015f 	andeq	r0, r0, pc, asr r1
    223c:	561b5401 	ldrpl	r5, [fp], -r1, lsl #8
    2240:	08000001 	stmdaeq	r0, {r0}
    2244:	1a320077 	bne	c82428 <__bss_end__+0xc78518>
    2248:	9f1aff08 	svcls	0x001aff08
    224c:	00014b1b 	andeq	r4, r1, fp, lsl fp
    2250:	19560100 	ldmdbne	r6, {r8}^
    2254:	00000111 	andeq	r0, r0, r1, lsl r1
    2258:	00008f78 	andeq	r8, r0, r8, ror pc
    225c:	00000010 	andeq	r0, r0, r0, lsl r0
    2260:	03671a02 	cmneq	r7, #8192	; 0x2000
    2264:	281a0000 	ldmdacs	sl, {}	; <UNPREDICTABLE>
    2268:	c8000001 	stmdagt	r0, {r0}
    226c:	1b000018 	blne	22d4 <_start-0x5d2c>
    2270:	0000011d 	andeq	r0, r0, sp, lsl r1
    2274:	781d5401 	ldmdavc	sp, {r0, sl, ip, lr}
    2278:	0400008f 	streq	r0, [r0], #-143	; 0x8f
    227c:	1e000000 	cdpne	0, 0, cr0, cr0, cr0, {0}
    2280:	00000132 	andeq	r0, r0, r2, lsr r1
    2284:	000018ed 	andeq	r1, r0, sp, ror #17
    2288:	781f0000 	ldmdavc	pc, {}	; <UNPREDICTABLE>
    228c:	5900008f 	stmdbpl	r0, {r0, r1, r2, r3, r7}
    2290:	20000011 	andcs	r0, r0, r1, lsl r0
    2294:	77045101 	strvc	r5, [r4, -r1, lsl #2]
    2298:	201a3200 	andscs	r3, sl, r0, lsl #4
    229c:	76025001 	strvc	r5, [r2], -r1
    22a0:	19000000 	stmdbne	r0, {}	; <UNPREDICTABLE>
    22a4:	0000013f 	andeq	r0, r0, pc, lsr r1
    22a8:	00008f8c 	andeq	r8, r0, ip, lsl #31
    22ac:	0000001c 	andeq	r0, r0, ip, lsl r0
    22b0:	04081701 	streq	r1, [r8], #-1793	; 0x701
    22b4:	6a1a0000 	bvs	6822bc <__bss_end__+0x6783ac>
    22b8:	00000001 	andeq	r0, r0, r1
    22bc:	1b000019 	blne	2328 <_start-0x5cd8>
    22c0:	0000015f 	andeq	r0, r0, pc, asr r1
    22c4:	561b5401 	ldrpl	r5, [fp], -r1, lsl #8
    22c8:	08000001 	stmdaeq	r0, {r0}
    22cc:	1a340077 	bne	d024b0 <__bss_end__+0xcf85a0>
    22d0:	9f1aff08 	svcls	0x001aff08
    22d4:	00014b1b 	andeq	r4, r1, fp, lsl fp
    22d8:	19560100 	ldmdbne	r6, {r8}^
    22dc:	00000111 	andeq	r0, r0, r1, lsl r1
    22e0:	00008f98 	muleq	r0, r8, pc	; <UNPREDICTABLE>
    22e4:	00000010 	andeq	r0, r0, r0, lsl r0
    22e8:	03ef1a02 	mvneq	r1, #8192	; 0x2000
    22ec:	281a0000 	ldmdacs	sl, {}	; <UNPREDICTABLE>
    22f0:	22000001 	andcs	r0, r0, #1
    22f4:	1b000019 	blne	2360 <_start-0x5ca0>
    22f8:	0000011d 	andeq	r0, r0, sp, lsl r1
    22fc:	981d5401 	ldmdals	sp, {r0, sl, ip, lr}
    2300:	0400008f 	streq	r0, [r0], #-143	; 0x8f
    2304:	1e000000 	cdpne	0, 0, cr0, cr0, cr0, {0}
    2308:	00000132 	andeq	r0, r0, r2, lsr r1
    230c:	00001944 	andeq	r1, r0, r4, asr #18
    2310:	981f0000 	ldmdals	pc, {}	; <UNPREDICTABLE>
    2314:	5900008f 	stmdbpl	r0, {r0, r1, r2, r3, r7}
    2318:	20000011 	andcs	r0, r0, r1, lsl r0
    231c:	77045101 	strvc	r5, [r4, -r1, lsl #2]
    2320:	201a3400 	andscs	r3, sl, r0, lsl #8
    2324:	76025001 	strvc	r5, [r2], -r1
    2328:	19000000 	stmdbne	r0, {}	; <UNPREDICTABLE>
    232c:	0000013f 	andeq	r0, r0, pc, lsr r1
    2330:	00008fac 	andeq	r8, r0, ip, lsr #31
    2334:	0000001c 	andeq	r0, r0, ip, lsl r0
    2338:	04901901 	ldreq	r1, [r0], #2305	; 0x901
    233c:	6a1a0000 	bvs	682344 <__bss_end__+0x678434>
    2340:	57000001 	strpl	r0, [r0, -r1]
    2344:	1b000019 	blne	23b0 <_start-0x5c50>
    2348:	0000015f 	andeq	r0, r0, pc, asr r1
    234c:	561b5401 	ldrpl	r5, [fp], -r1, lsl #8
    2350:	08000001 	stmdaeq	r0, {r0}
    2354:	1a380077 	bne	e02538 <__bss_end__+0xdf8628>
    2358:	9f1aff08 	svcls	0x001aff08
    235c:	00014b1b 	andeq	r4, r1, fp, lsl fp
    2360:	19560100 	ldmdbne	r6, {r8}^
    2364:	00000111 	andeq	r0, r0, r1, lsl r1
    2368:	00008fb8 			; <UNDEFINED> instruction: 0x00008fb8
    236c:	00000010 	andeq	r0, r0, r0, lsl r0
    2370:	04771a02 	ldrbteq	r1, [r7], #-2562	; 0xa02
    2374:	281a0000 	ldmdacs	sl, {}	; <UNPREDICTABLE>
    2378:	7c000001 	stcvc	0, cr0, [r0], {1}
    237c:	1b000019 	blne	23e8 <_start-0x5c18>
    2380:	0000011d 	andeq	r0, r0, sp, lsl r1
    2384:	b81d5401 	ldmdalt	sp, {r0, sl, ip, lr}
    2388:	0400008f 	streq	r0, [r0], #-143	; 0x8f
    238c:	1e000000 	cdpne	0, 0, cr0, cr0, cr0, {0}
    2390:	00000132 	andeq	r0, r0, r2, lsr r1
    2394:	000019a1 	andeq	r1, r0, r1, lsr #19
    2398:	b81f0000 	ldmdalt	pc, {}	; <UNPREDICTABLE>
    239c:	5900008f 	stmdbpl	r0, {r0, r1, r2, r3, r7}
    23a0:	20000011 	andcs	r0, r0, r1, lsl r0
    23a4:	77045101 	strvc	r5, [r4, -r1, lsl #2]
    23a8:	201a3800 	andscs	r3, sl, r0, lsl #16
    23ac:	76025001 	strvc	r5, [r2], -r1
    23b0:	19000000 	stmdbne	r0, {}	; <UNPREDICTABLE>
    23b4:	0000013f 	andeq	r0, r0, pc, lsr r1
    23b8:	00008fcc 	andeq	r8, r0, ip, asr #31
    23bc:	0000001c 	andeq	r0, r0, ip, lsl r0
    23c0:	05181b01 	ldreq	r1, [r8, #-2817]	; 0xb01
    23c4:	6a1a0000 	bvs	6823cc <__bss_end__+0x6784bc>
    23c8:	b4000001 	strlt	r0, [r0], #-1
    23cc:	1b000019 	blne	2438 <_start-0x5bc8>
    23d0:	0000015f 	andeq	r0, r0, pc, asr r1
    23d4:	561b5401 	ldrpl	r5, [fp], -r1, lsl #8
    23d8:	08000001 	stmdaeq	r0, {r0}
    23dc:	1a400077 	bne	10025c0 <__bss_end__+0xff86b0>
    23e0:	9f1aff08 	svcls	0x001aff08
    23e4:	00014b1b 	andeq	r4, r1, fp, lsl fp
    23e8:	19560100 	ldmdbne	r6, {r8}^
    23ec:	00000111 	andeq	r0, r0, r1, lsl r1
    23f0:	00008fd8 	ldrdeq	r8, [r0], -r8	; <UNPREDICTABLE>
    23f4:	00000010 	andeq	r0, r0, r0, lsl r0
    23f8:	04ff1a02 	ldrbteq	r1, [pc], #2562	; 2400 <_start-0x5c00>
    23fc:	281a0000 	ldmdacs	sl, {}	; <UNPREDICTABLE>
    2400:	db000001 	blle	240c <_start-0x5bf4>
    2404:	1b000019 	blne	2470 <_start-0x5b90>
    2408:	0000011d 	andeq	r0, r0, sp, lsl r1
    240c:	d81d5401 	ldmdale	sp, {r0, sl, ip, lr}
    2410:	0400008f 	streq	r0, [r0], #-143	; 0x8f
    2414:	1e000000 	cdpne	0, 0, cr0, cr0, cr0, {0}
    2418:	00000132 	andeq	r0, r0, r2, lsr r1
    241c:	00001a02 	andeq	r1, r0, r2, lsl #20
    2420:	d81f0000 	ldmdale	pc, {}	; <UNPREDICTABLE>
    2424:	5900008f 	stmdbpl	r0, {r0, r1, r2, r3, r7}
    2428:	20000011 	andcs	r0, r0, r1, lsl r0
    242c:	77045101 	strvc	r5, [r4, -r1, lsl #2]
    2430:	201a4000 	andscs	r4, sl, r0
    2434:	76025001 	strvc	r5, [r2], -r1
    2438:	19000000 	stmdbne	r0, {}	; <UNPREDICTABLE>
    243c:	0000013f 	andeq	r0, r0, pc, lsr r1
    2440:	00008fec 	andeq	r8, r0, ip, ror #31
    2444:	0000001c 	andeq	r0, r0, ip, lsl r0
    2448:	05a21d01 	streq	r1, [r2, #3329]!	; 0xd01
    244c:	6a1a0000 	bvs	682454 <__bss_end__+0x678544>
    2450:	15000001 	strne	r0, [r0, #-1]
    2454:	1b00001a 	blne	24c4 <_start-0x5b3c>
    2458:	0000015f 	andeq	r0, r0, pc, asr r1
    245c:	561b5401 	ldrpl	r5, [fp], -r1, lsl #8
    2460:	09000001 	stmdbeq	r0, {r0}
    2464:	20080077 	andcs	r0, r8, r7, ror r0
    2468:	1aff081a 	bne	fffc44d8 <__bss_end__+0xfffba5c8>
    246c:	014b1b9f 			; <UNDEFINED> instruction: 0x014b1b9f
    2470:	56010000 	strpl	r0, [r1], -r0
    2474:	00011119 	andeq	r1, r1, r9, lsl r1
    2478:	008ff800 	addeq	pc, pc, r0, lsl #16
    247c:	00001000 	andeq	r1, r0, r0
    2480:	881a0200 	ldmdahi	sl, {r9}
    2484:	1a000005 	bne	24a0 <_start-0x5b60>
    2488:	00000128 	andeq	r0, r0, r8, lsr #2
    248c:	00001a3f 	andeq	r1, r0, pc, lsr sl
    2490:	00011d1b 	andeq	r1, r1, fp, lsl sp
    2494:	1d540100 	ldfnee	f0, [r4, #-0]
    2498:	00008ff8 	strdeq	r8, [r0], -r8	; <UNPREDICTABLE>
    249c:	00000004 	andeq	r0, r0, r4
    24a0:	0001321e 	andeq	r3, r1, lr, lsl r2
    24a4:	001a6900 	andseq	r6, sl, r0, lsl #18
    24a8:	1f000000 	svcne	0x00000000
    24ac:	00008ff8 	strdeq	r8, [r0], -r8	; <UNPREDICTABLE>
    24b0:	00001159 	andeq	r1, r0, r9, asr r1
    24b4:	05510120 	ldrbeq	r0, [r1, #-288]	; 0x120
    24b8:	20080077 	andcs	r0, r8, r7, ror r0
    24bc:	5001201a 	andpl	r2, r1, sl, lsl r0
    24c0:	00007602 	andeq	r7, r0, r2, lsl #12
    24c4:	013f1900 	teqeq	pc, r0, lsl #18
    24c8:	900c0000 	andls	r0, ip, r0
    24cc:	001c0000 	andseq	r0, ip, r0
    24d0:	1f010000 	svcne	0x00010000
    24d4:	0000062c 	andeq	r0, r0, ip, lsr #12
    24d8:	00016a1a 	andeq	r6, r1, sl, lsl sl
    24dc:	001a7c00 	andseq	r7, sl, r0, lsl #24
    24e0:	015f1b00 	cmpeq	pc, r0, lsl #22
    24e4:	54010000 	strpl	r0, [r1], #-0
    24e8:	0001561b 	andeq	r5, r1, fp, lsl r6
    24ec:	00770900 	rsbseq	r0, r7, r0, lsl #18
    24f0:	081a4008 	ldmdaeq	sl, {r3, lr}
    24f4:	1b9f1aff 	blne	fe7c90f8 <__bss_end__+0xfe7bf1e8>
    24f8:	0000014b 	andeq	r0, r0, fp, asr #2
    24fc:	11195601 	tstne	r9, r1, lsl #12
    2500:	18000001 	stmdane	r0, {r0}
    2504:	10000090 	mulne	r0, r0, r0
    2508:	02000000 	andeq	r0, r0, #0
    250c:	0006121a 	andeq	r1, r6, sl, lsl r2
    2510:	01281a00 	teqeq	r8, r0, lsl #20
    2514:	1a9e0000 	bne	fe78251c <__bss_end__+0xfe77860c>
    2518:	1d1b0000 	ldcne	0, cr0, [fp, #-0]
    251c:	01000001 	tsteq	r0, r1
    2520:	90181d54 	andsls	r1, r8, r4, asr sp
    2524:	00040000 	andeq	r0, r4, r0
    2528:	321e0000 	andscc	r0, lr, #0
    252c:	c0000001 	andgt	r0, r0, r1
    2530:	0000001a 	andeq	r0, r0, sl, lsl r0
    2534:	90181f00 	andsls	r1, r8, r0, lsl #30
    2538:	11590000 	cmpne	r9, r0
    253c:	01200000 	teqeq	r0, r0
    2540:	00770551 	rsbseq	r0, r7, r1, asr r5
    2544:	201a4008 	andscs	r4, sl, r8
    2548:	76025001 	strvc	r5, [r2], -r1
    254c:	19000000 	stmdbne	r0, {}	; <UNPREDICTABLE>
    2550:	0000013f 	andeq	r0, r0, pc, lsr r1
    2554:	0000902c 	andeq	r9, r0, ip, lsr #32
    2558:	0000001c 	andeq	r0, r0, ip, lsl r0
    255c:	06ac2101 	strteq	r2, [ip], r1, lsl #2
    2560:	6a1b0000 	bvs	6c2568 <__bss_end__+0x6b8658>
    2564:	01000001 	tsteq	r0, r1
    2568:	015f1b58 	cmpeq	pc, r8, asr fp	; <UNPREDICTABLE>
    256c:	54010000 	strpl	r0, [r1], #-0
    2570:	0001561a 	andeq	r5, r1, sl, lsl r6
    2574:	001ad300 	andseq	sp, sl, r0, lsl #6
    2578:	014b1b00 	cmpeq	fp, r0, lsl #22
    257c:	56010000 	strpl	r0, [r1], -r0
    2580:	00011119 	andeq	r1, r1, r9, lsl r1
    2584:	00903800 	addseq	r3, r0, r0, lsl #16
    2588:	00001000 	andeq	r1, r0, r0
    258c:	921a0200 	andsls	r0, sl, #0, 4
    2590:	1b000006 	blne	25b0 <_start-0x5a50>
    2594:	00000128 	andeq	r0, r0, r8, lsr #2
    2598:	1d1b5801 	ldcne	8, cr5, [fp, #-4]
    259c:	01000001 	tsteq	r0, r1
    25a0:	90381d54 	eorsls	r1, r8, r4, asr sp
    25a4:	00040000 	andeq	r0, r4, r0
    25a8:	321e0000 	andscc	r0, lr, #0
    25ac:	06000001 	streq	r0, [r0], -r1
    25b0:	0000001b 	andeq	r0, r0, fp, lsl r0
    25b4:	90381f00 	eorsls	r1, r8, r0, lsl #30
    25b8:	11590000 	cmpne	r9, r0
    25bc:	01200000 	teqeq	r0, r0
    25c0:	00770551 	rsbseq	r0, r7, r1, asr r5
    25c4:	201a8008 	andscs	r8, sl, r8
    25c8:	76025001 	strvc	r5, [r2], -r1
    25cc:	21000000 	mrscs	r0, (UNDEF: 0)
    25d0:	0000013f 	andeq	r0, r0, pc, lsr r1
    25d4:	0000904c 	andeq	r9, r0, ip, asr #32
    25d8:	0000001c 	andeq	r0, r0, ip, lsl r0
    25dc:	6a1b2301 	bvs	6cb1e8 <__bss_end__+0x6c12d8>
    25e0:	01000001 	tsteq	r0, r1
    25e4:	015f1b55 	cmpeq	pc, r5, asr fp	; <UNPREDICTABLE>
    25e8:	54010000 	strpl	r0, [r1], #-0
    25ec:	0001561c 	andeq	r5, r1, ip, lsl r6
    25f0:	4b1b0100 	blmi	6c29f8 <__bss_end__+0x6b8ae8>
    25f4:	01000001 	tsteq	r0, r1
    25f8:	01111956 	tsteq	r1, r6, asr r9
    25fc:	90580000 	subsls	r0, r8, r0
    2600:	00100000 	andseq	r0, r0, r0
    2604:	1a020000 	bne	8260c <__bss_end__+0x786fc>
    2608:	0000070b 	andeq	r0, r0, fp, lsl #14
    260c:	0001281b 	andeq	r2, r1, fp, lsl r8
    2610:	1b550100 	blne	1542a18 <__bss_end__+0x1538b08>
    2614:	0000011d 	andeq	r0, r0, sp, lsl r1
    2618:	581d5401 	ldmdapl	sp, {r0, sl, ip, lr}
    261c:	04000090 	streq	r0, [r0], #-144	; 0x90
    2620:	1e000000 	cdpne	0, 0, cr0, cr0, cr0, {0}
    2624:	00000132 	andeq	r0, r0, r2, lsr r1
    2628:	00001b19 	andeq	r1, r0, r9, lsl fp
    262c:	581f0000 	ldmdapl	pc, {}	; <UNPREDICTABLE>
    2630:	59000090 	stmdbpl	r0, {r4, r7}
    2634:	20000011 	andcs	r0, r0, r1, lsl r0
    2638:	31015101 	tstcc	r1, r1, lsl #2
    263c:	02500120 	subseq	r0, r0, #32, 2
    2640:	00000076 	andeq	r0, r0, r6, ror r0
    2644:	d9040600 	stmdble	r4, {r9, sl}
    2648:	22000000 	andcs	r0, r0, #0
    264c:	000008da 	ldrdeq	r0, [r0], -sl
    2650:	00252701 	eoreq	r2, r5, r1, lsl #14
    2654:	62030000 	andvs	r0, r3, #0
    2658:	0f000007 	svceq	0x00000007
    265c:	01007872 	tsteq	r0, r2, ror r8
    2660:	00002527 	andeq	r2, r0, r7, lsr #10
    2664:	00760f00 	rsbseq	r0, r6, r0, lsl #30
    2668:	00252701 	eoreq	r2, r5, r1, lsl #14
    266c:	670e0000 	strvs	r0, [lr, -r0]
    2670:	01000008 	tsteq	r0, r8
    2674:	00002c27 	andeq	r2, r0, r7, lsr #24
    2678:	043b1100 	ldrteq	r1, [fp], #-256	; 0x100
    267c:	28010000 	stmdacs	r1, {}	; <UNPREDICTABLE>
    2680:	0000002c 	andeq	r0, r0, ip, lsr #32
    2684:	08082300 	stmdaeq	r8, {r8, r9, sp}
    2688:	34010000 	strcc	r0, [r1], #-0
    268c:	00000025 	andeq	r0, r0, r5, lsr #32
    2690:	0000906c 	andeq	r9, r0, ip, rrx
    2694:	000001c8 	andeq	r0, r0, r8, asr #3
    2698:	0b1e9c01 	bleq	7a96a4 <__bss_end__+0x79f794>
    269c:	ee130000 	cdp	0, 1, cr0, cr3, cr0, {0}
    26a0:	01000003 	tsteq	r0, r3
    26a4:	00072234 	andeq	r2, r7, r4, lsr r2
    26a8:	001b2c00 	andseq	r2, fp, r0, lsl #24
    26ac:	08671300 	stmdaeq	r7!, {r8, r9, ip}^
    26b0:	34010000 	strcc	r0, [r1], #-0
    26b4:	00000025 	andeq	r0, r0, r5, lsr #32
    26b8:	00001b71 	andeq	r1, r0, r1, ror fp
    26bc:	00787215 	rsbseq	r7, r8, r5, lsl r2
    26c0:	00253501 	eoreq	r3, r5, r1, lsl #10
    26c4:	55010000 	strpl	r0, [r1, #-0]
    26c8:	01007316 	tsteq	r0, r6, lsl r3
    26cc:	00002c3c 	andeq	r2, r0, ip, lsr ip
    26d0:	001b8f00 	andseq	r8, fp, r0, lsl #30
    26d4:	00751600 	rsbseq	r1, r5, r0, lsl #12
    26d8:	00683f01 	rsbeq	r3, r8, r1, lsl #30
    26dc:	1ba20000 	blne	fe8826e4 <__bss_end__+0xfe8787d4>
    26e0:	6e160000 	cdpvs	0, 1, cr0, cr6, cr0, {0}
    26e4:	2c400100 	stfcse	f0, [r0], {-0}
    26e8:	b5000000 	strlt	r0, [r0, #-0]
    26ec:	1600001b 			; <UNDEFINED> instruction: 0x1600001b
    26f0:	41010063 	tstmi	r1, r3, rrx
    26f4:	0000002c 	andeq	r0, r0, ip, lsr #32
    26f8:	00001bcc 	andeq	r1, r0, ip, asr #23
    26fc:	00072819 	andeq	r2, r7, r9, lsl r8
    2700:	00908000 	addseq	r8, r0, r0
    2704:	00003400 	andeq	r3, r0, r0, lsl #8
    2708:	3c380100 	ldfccs	f0, [r8], #-0
    270c:	1a000008 	bne	2734 <_start-0x58cc>
    2710:	0000074b 	andeq	r0, r0, fp, asr #14
    2714:	00001bf6 	strdeq	r1, [r0], -r6
    2718:	0007421c 	andeq	r4, r7, ip, lsl r2
    271c:	381b0000 	ldmdacc	fp, {}	; <UNPREDICTABLE>
    2720:	01000007 	tsteq	r0, r7
    2724:	90801d55 	addls	r1, r0, r5, asr sp
    2728:	00340000 	eorseq	r0, r4, r0
    272c:	561e0000 	ldrpl	r0, [lr], -r0
    2730:	14000007 	strne	r0, [r0], #-7
    2734:	2400001c 	strcs	r0, [r0], #-28
    2738:	00009084 	andeq	r9, r0, r4, lsl #1
    273c:	0000116f 	andeq	r1, r0, pc, ror #2
    2740:	00909025 	addseq	r9, r0, r5, lsr #32
    2744:	00117a00 	andseq	r7, r1, r0, lsl #20
    2748:	00083100 	andeq	r3, r8, r0, lsl #2
    274c:	50012000 	andpl	r2, r1, r0
    2750:	00007502 	andeq	r7, r0, r2, lsl #10
    2754:	00909c24 	addseq	r9, r0, r4, lsr #24
    2758:	00116f00 	andseq	r6, r1, r0, lsl #30
    275c:	17000000 	strne	r0, [r0, -r0]
    2760:	000090bc 	strheq	r9, [r0], -ip
    2764:	00000004 	andeq	r0, r0, r4
    2768:	00000859 	andeq	r0, r0, r9, asr r8
    276c:	00016426 	andeq	r6, r1, r6, lsr #8
    2770:	2c3c0100 	ldfcss	f0, [ip], #-0
    2774:	32000000 	andcc	r0, r0, #0
    2778:	0000001c 	andeq	r0, r0, ip, lsl r0
    277c:	00011119 	andeq	r1, r1, r9, lsl r1
    2780:	0090c800 	addseq	ip, r0, r0, lsl #16
    2784:	00001000 	andeq	r1, r0, r0
    2788:	92440100 	subls	r0, r4, #0, 2
    278c:	1a000008 	bne	27b4 <_start-0x584c>
    2790:	00000128 	andeq	r0, r0, r8, lsr #2
    2794:	00001c45 	andeq	r1, r0, r5, asr #24
    2798:	00011d1a 	andeq	r1, r1, sl, lsl sp
    279c:	001c6a00 	andseq	r6, ip, r0, lsl #20
    27a0:	90c81d00 	sbcls	r1, r8, r0, lsl #26
    27a4:	00040000 	andeq	r0, r4, r0
    27a8:	321e0000 	andscc	r0, lr, #0
    27ac:	7d000001 	stcvc	0, cr0, [r0, #-4]
    27b0:	0000001c 	andeq	r0, r0, ip, lsl r0
    27b4:	01111900 	tsteq	r1, r0, lsl #18
    27b8:	90e80000 	rscls	r0, r8, r0
    27bc:	00100000 	andseq	r0, r0, r0
    27c0:	48010000 	stmdami	r1, {}	; <UNPREDICTABLE>
    27c4:	000008cb 	andeq	r0, r0, fp, asr #17
    27c8:	0001281a 	andeq	r2, r1, sl, lsl r8
    27cc:	001c9000 	andseq	r9, ip, r0
    27d0:	011d1a00 	tsteq	sp, r0, lsl #20
    27d4:	1ca30000 	stcne	0, cr0, [r3]
    27d8:	e81d0000 	ldmda	sp, {}	; <UNPREDICTABLE>
    27dc:	04000090 	streq	r0, [r0], #-144	; 0x90
    27e0:	1e000000 	cdpne	0, 0, cr0, cr0, cr0, {0}
    27e4:	00000132 	andeq	r0, r0, r2, lsr r1
    27e8:	00001cb6 			; <UNDEFINED> instruction: 0x00001cb6
    27ec:	11190000 	tstne	r9, r0
    27f0:	0c000001 	stceq	0, cr0, [r0], {1}
    27f4:	10000091 	mulne	r0, r1, r0
    27f8:	01000000 	mrseq	r0, (UNDEF: 0)
    27fc:	0009044b 	andeq	r0, r9, fp, asr #8
    2800:	01281a00 	teqeq	r8, r0, lsl #20
    2804:	1cc90000 	stclne	0, cr0, [r9], {0}
    2808:	1d1a0000 	ldcne	0, cr0, [sl, #-0]
    280c:	dc000001 	stcle	0, cr0, [r0], {1}
    2810:	1d00001c 	stcne	0, cr0, [r0, #-112]	; 0xffffff90
    2814:	0000910c 	andeq	r9, r0, ip, lsl #2
    2818:	00000004 	andeq	r0, r0, r4
    281c:	0001321e 	andeq	r3, r1, lr, lsl r2
    2820:	001cef00 	andseq	lr, ip, r0, lsl #30
    2824:	19000000 	stmdbne	r0, {}	; <UNPREDICTABLE>
    2828:	00000111 	andeq	r0, r0, r1, lsl r1
    282c:	00009130 	andeq	r9, r0, r0, lsr r1
    2830:	00000010 	andeq	r0, r0, r0, lsl r0
    2834:	093d4e01 	ldmdbeq	sp!, {r0, r9, sl, fp, lr}
    2838:	281a0000 	ldmdacs	sl, {}	; <UNPREDICTABLE>
    283c:	02000001 	andeq	r0, r0, #1
    2840:	1a00001d 	bne	28bc <_start-0x5744>
    2844:	0000011d 	andeq	r0, r0, sp, lsl r1
    2848:	00001d15 	andeq	r1, r0, r5, lsl sp
    284c:	0091301d 	addseq	r3, r1, sp, lsl r0
    2850:	00000400 	andeq	r0, r0, r0, lsl #8
    2854:	01321e00 	teqeq	r2, r0, lsl #28
    2858:	1d280000 	stcne	0, cr0, [r8, #-0]
    285c:	00000000 	andeq	r0, r0, r0
    2860:	00011119 	andeq	r1, r1, r9, lsl r1
    2864:	00915400 	addseq	r5, r1, r0, lsl #8
    2868:	00001000 	andeq	r1, r0, r0
    286c:	76510100 	ldrbvc	r0, [r1], -r0, lsl #2
    2870:	1a000009 	bne	289c <_start-0x5764>
    2874:	00000128 	andeq	r0, r0, r8, lsr #2
    2878:	00001d3b 	andeq	r1, r0, fp, lsr sp
    287c:	00011d1a 	andeq	r1, r1, sl, lsl sp
    2880:	001d4e00 	andseq	r4, sp, r0, lsl #28
    2884:	91541d00 	cmpls	r4, r0, lsl #26
    2888:	00040000 	andeq	r0, r4, r0
    288c:	321e0000 	andscc	r0, lr, #0
    2890:	61000001 	tstvs	r0, r1
    2894:	0000001d 	andeq	r0, r0, sp, lsl r0
    2898:	01111900 	tsteq	r1, r0, lsl #18
    289c:	91780000 	cmnls	r8, r0
    28a0:	00100000 	andseq	r0, r0, r0
    28a4:	54010000 	strpl	r0, [r1], #-0
    28a8:	000009af 	andeq	r0, r0, pc, lsr #19
    28ac:	0001281a 	andeq	r2, r1, sl, lsl r8
    28b0:	001d7400 	andseq	r7, sp, r0, lsl #8
    28b4:	011d1a00 	tsteq	sp, r0, lsl #20
    28b8:	1d870000 	stcne	0, cr0, [r7]
    28bc:	781d0000 	ldmdavc	sp, {}	; <UNPREDICTABLE>
    28c0:	04000091 	streq	r0, [r0], #-145	; 0x91
    28c4:	1e000000 	cdpne	0, 0, cr0, cr0, cr0, {0}
    28c8:	00000132 	andeq	r0, r0, r2, lsr r1
    28cc:	00001d9a 	muleq	r0, sl, sp
    28d0:	11190000 	tstne	r9, r0
    28d4:	9c000001 	stcls	0, cr0, [r0], {1}
    28d8:	10000091 	mulne	r0, r1, r0
    28dc:	01000000 	mrseq	r0, (UNDEF: 0)
    28e0:	0009e857 	andeq	lr, r9, r7, asr r8
    28e4:	01281a00 	teqeq	r8, r0, lsl #20
    28e8:	1dad0000 	stcne	0, cr0, [sp]
    28ec:	1d1a0000 	ldcne	0, cr0, [sl, #-0]
    28f0:	c0000001 	andgt	r0, r0, r1
    28f4:	1d00001d 	stcne	0, cr0, [r0, #-116]	; 0xffffff8c
    28f8:	0000919c 	muleq	r0, ip, r1
    28fc:	00000004 	andeq	r0, r0, r4
    2900:	0001321e 	andeq	r3, r1, lr, lsl r2
    2904:	001dd300 	andseq	sp, sp, r0, lsl #6
    2908:	19000000 	stmdbne	r0, {}	; <UNPREDICTABLE>
    290c:	00000111 	andeq	r0, r0, r1, lsl r1
    2910:	000091c0 	andeq	r9, r0, r0, asr #3
    2914:	00000010 	andeq	r0, r0, r0, lsl r0
    2918:	0a1d5a01 	beq	759124 <__bss_end__+0x74f214>
    291c:	281a0000 	ldmdacs	sl, {}	; <UNPREDICTABLE>
    2920:	e6000001 	str	r0, [r0], -r1
    2924:	2700001d 	smladcs	r0, sp, r0, r0
    2928:	0000011d 	andeq	r0, r0, sp, lsl r1
    292c:	0091c01d 	addseq	ip, r1, sp, lsl r0
    2930:	00000400 	andeq	r0, r0, r0, lsl #8
    2934:	01321e00 	teqeq	r2, r0, lsl #28
    2938:	1df90000 	ldclne	0, cr0, [r9]
    293c:	00000000 	andeq	r0, r0, r0
    2940:	00072819 	andeq	r2, r7, r9, lsl r8
    2944:	0091e000 	addseq	lr, r1, r0
    2948:	00003400 	andeq	r3, r0, r0, lsl #8
    294c:	81610100 	cmnhi	r1, r0, lsl #2
    2950:	2700000a 	strcs	r0, [r0, -sl]
    2954:	0000074b 	andeq	r0, r0, fp, asr #14
    2958:	0007421a 	andeq	r4, r7, sl, lsl r2
    295c:	001e0c00 	andseq	r0, lr, r0, lsl #24
    2960:	07381a00 	ldreq	r1, [r8, -r0, lsl #20]!
    2964:	1e2c0000 	cdpne	0, 2, cr0, cr12, cr0, {0}
    2968:	e01d0000 	ands	r0, sp, r0
    296c:	34000091 	strcc	r0, [r0], #-145	; 0x91
    2970:	1e000000 	cdpne	0, 0, cr0, cr0, cr0, {0}
    2974:	00000756 	andeq	r0, r0, r6, asr r7
    2978:	00001e4a 	andeq	r1, r0, sl, asr #28
    297c:	0091e424 	addseq	lr, r1, r4, lsr #8
    2980:	00116f00 	andseq	r6, r1, r0, lsl #30
    2984:	91f02500 	mvnsls	r2, r0, lsl #10
    2988:	117a0000 	cmnne	sl, r0
    298c:	0a760000 	beq	1d82994 <__bss_end__+0x1d78a84>
    2990:	01200000 	teqeq	r0, r0
    2994:	00750250 	rsbseq	r0, r5, r0, asr r2
    2998:	91fc2400 	mvnsls	r2, r0, lsl #8
    299c:	116f0000 	cmnne	pc, r0
    29a0:	00000000 	andeq	r0, r0, r0
    29a4:	0090e425 	addseq	lr, r0, r5, lsr #8
    29a8:	00117a00 	andseq	r7, r1, r0, lsl #20
    29ac:	000a9500 	andeq	r9, sl, r0, lsl #10
    29b0:	50012000 	andpl	r2, r1, r0
    29b4:	00007502 	andeq	r7, r0, r2, lsl #10
    29b8:	00910425 	addseq	r0, r1, r5, lsr #8
    29bc:	00117a00 	andseq	r7, r1, r0, lsl #20
    29c0:	000aa900 	andeq	sl, sl, r0, lsl #18
    29c4:	50012000 	andpl	r2, r1, r0
    29c8:	00007502 	andeq	r7, r0, r2, lsl #10
    29cc:	00912825 	addseq	r2, r1, r5, lsr #16
    29d0:	00117a00 	andseq	r7, r1, r0, lsl #20
    29d4:	000abd00 	andeq	fp, sl, r0, lsl #26
    29d8:	50012000 	andpl	r2, r1, r0
    29dc:	00007502 	andeq	r7, r0, r2, lsl #10
    29e0:	00914c25 	addseq	r4, r1, r5, lsr #24
    29e4:	00117a00 	andseq	r7, r1, r0, lsl #20
    29e8:	000ad100 	andeq	sp, sl, r0, lsl #2
    29ec:	50012000 	andpl	r2, r1, r0
    29f0:	00007502 	andeq	r7, r0, r2, lsl #10
    29f4:	00917025 	addseq	r7, r1, r5, lsr #32
    29f8:	00117a00 	andseq	r7, r1, r0, lsl #20
    29fc:	000ae500 	andeq	lr, sl, r0, lsl #10
    2a00:	50012000 	andpl	r2, r1, r0
    2a04:	00007502 	andeq	r7, r0, r2, lsl #10
    2a08:	00919425 	addseq	r9, r1, r5, lsr #8
    2a0c:	00117a00 	andseq	r7, r1, r0, lsl #20
    2a10:	000af900 	andeq	pc, sl, r0, lsl #18
    2a14:	50012000 	andpl	r2, r1, r0
    2a18:	00007502 	andeq	r7, r0, r2, lsl #10
    2a1c:	0091b825 	addseq	fp, r1, r5, lsr #16
    2a20:	00117a00 	andseq	r7, r1, r0, lsl #20
    2a24:	000b0d00 	andeq	r0, fp, r0, lsl #26
    2a28:	50012000 	andpl	r2, r1, r0
    2a2c:	00007502 	andeq	r7, r0, r2, lsl #10
    2a30:	0091d81f 	addseq	sp, r1, pc, lsl r8
    2a34:	00117a00 	andseq	r7, r1, r0, lsl #20
    2a38:	50012000 	andpl	r2, r1, r0
    2a3c:	00007502 	andeq	r7, r0, r2, lsl #10
    2a40:	081d2300 	ldmdaeq	sp, {r8, r9, sp}
    2a44:	6c010000 	stcvs	0, cr0, [r1], {-0}
    2a48:	00000025 	andeq	r0, r0, r5, lsr #32
    2a4c:	00009234 	andeq	r9, r0, r4, lsr r2
    2a50:	000000a4 	andeq	r0, r0, r4, lsr #1
    2a54:	0c0c9c01 	stceq	12, cr9, [ip], {1}
    2a58:	75140000 	ldrvc	r0, [r4, #-0]
    2a5c:	226c0100 	rsbcs	r0, ip, #0, 2
    2a60:	68000007 	stmdavs	r0, {r0, r1, r2}
    2a64:	1400001e 	strne	r0, [r0], #-30
    2a68:	00667562 	rsbeq	r7, r6, r2, ror #10
    2a6c:	0c0c6c01 	stceq	12, cr6, [ip], {1}
    2a70:	1eaa0000 	cdpne	0, 10, cr0, cr10, cr0, {0}
    2a74:	af130000 	svcge	0x00130000
    2a78:	01000008 	tsteq	r0, r8
    2a7c:	0000686c 	andeq	r6, r0, ip, ror #16
    2a80:	001eec00 	andseq	lr, lr, r0, lsl #24
    2a84:	6e651400 	cdpvs	4, 6, cr1, cr5, cr0, {0}
    2a88:	6c010064 	stcvs	0, cr0, [r1], {100}	; 0x64
    2a8c:	0000004f 	andeq	r0, r0, pc, asr #32
    2a90:	00001f33 	andeq	r1, r0, r3, lsr pc
    2a94:	0008b628 	andeq	fp, r8, r8, lsr #12
    2a98:	686c0100 	stmdavs	ip!, {r8}^
    2a9c:	02000000 	andeq	r0, r0, #0
    2aa0:	f9290091 			; <UNDEFINED> instruction: 0xf9290091
    2aa4:	22000000 	andcs	r0, r0, #0
    2aa8:	0500000c 	streq	r0, [r0, #-12]
    2aac:	0099ec03 	addseq	lr, r9, r3, lsl #24
    2ab0:	00691600 	rsbeq	r1, r9, r0, lsl #12
    2ab4:	00257001 	eoreq	r7, r5, r1
    2ab8:	1f6d0000 	svcne	0x006d0000
    2abc:	92260000 	eorls	r0, r6, #0
    2ac0:	01000008 	tsteq	r0, r8
    2ac4:	00004f71 	andeq	r4, r0, r1, ror pc
    2ac8:	001f9700 	andseq	r9, pc, r0, lsl #14
    2acc:	92582400 	subsls	r2, r8, #0, 8
    2ad0:	118f0000 	orrne	r0, pc, r0
    2ad4:	74250000 	strtvc	r0, [r5], #-0
    2ad8:	96000092 			; <UNDEFINED> instruction: 0x96000092
    2adc:	ec000011 	stc	0, cr0, [r0], {17}
    2ae0:	2000000b 	andcs	r0, r0, fp
    2ae4:	08025301 	stmdaeq	r2, {r0, r8, r9, ip, lr}
    2ae8:	5201206d 	andpl	r2, r1, #109	; 0x6d
    2aec:	99ec0305 	stmibls	ip!, {r0, r2, r8, r9}^
    2af0:	01200000 	teqeq	r0, r0
    2af4:	64030551 	strvs	r0, [r3], #-1361	; 0x551
    2af8:	2000009a 	mulcs	r0, sl, r0
    2afc:	03055001 	movweq	r5, #20481	; 0x5001
    2b00:	000098ec 	andeq	r9, r0, ip, ror #17
    2b04:	007d0220 	rsbseq	r0, sp, r0, lsr #4
    2b08:	9a780305 	bls	1e03724 <__bss_end__+0x1df9814>
    2b0c:	24000000 	strcs	r0, [r0], #-0
    2b10:	00009278 	andeq	r9, r0, r8, ror r2
    2b14:	000011ac 	andeq	r1, r0, ip, lsr #3
    2b18:	0092941f 	addseq	r9, r2, pc, lsl r4
    2b1c:	00076200 	andeq	r6, r7, r0, lsl #4
    2b20:	51012000 	mrspl	r2, (UNDEF: 1)
    2b24:	20007a02 	andcs	r7, r0, r2, lsl #20
    2b28:	78025001 	stmdavc	r2, {r0, ip, lr}
    2b2c:	06000000 	streq	r0, [r0], -r0
    2b30:	00004f04 	andeq	r4, r0, r4, lsl #30
    2b34:	00902a00 	addseq	r2, r0, r0, lsl #20
    2b38:	0c220000 	stceq	0, cr0, [r2], #-0
    2b3c:	812b0000 	teqhi	fp, r0
    2b40:	12000000 	andne	r0, r0, #0
    2b44:	0c120700 	ldceq	7, cr0, [r2], {-0}
    2b48:	9a230000 	bls	8c2b50 <__bss_end__+0x8b8c40>
    2b4c:	01000008 	tsteq	r0, r8
    2b50:	00002580 	andeq	r2, r0, r0, lsl #11
    2b54:	0092d800 	addseq	sp, r2, r0, lsl #16
    2b58:	00009000 	andeq	r9, r0, r0
    2b5c:	f89c0100 			; <UNDEFINED> instruction: 0xf89c0100
    2b60:	1400000c 	strne	r0, [r0], #-12
    2b64:	80010075 	andhi	r0, r1, r5, ror r0
    2b68:	00000722 	andeq	r0, r0, r2, lsr #14
    2b6c:	00001faa 	andeq	r1, r0, sl, lsr #31
    2b70:	66756214 			; <UNDEFINED> instruction: 0x66756214
    2b74:	0c800100 	stfeqs	f0, [r0], {0}
    2b78:	ec00000c 	stc	0, cr0, [r0], {12}
    2b7c:	1300001f 	movwne	r0, #31
    2b80:	000008af 	andeq	r0, r0, pc, lsr #17
    2b84:	00688101 	rsbeq	r8, r8, r1, lsl #2
    2b88:	202e0000 	eorcs	r0, lr, r0
    2b8c:	b6130000 	ldrlt	r0, [r3], -r0
    2b90:	01000008 	tsteq	r0, r8
    2b94:	00006881 	andeq	r6, r0, r1, lsl #17
    2b98:	00207500 	eoreq	r7, r0, r0, lsl #10
    2b9c:	00f92900 	rscseq	r2, r9, r0, lsl #18
    2ba0:	0d080000 	stceq	0, cr0, [r8, #-0]
    2ba4:	03050000 	movweq	r0, #20480	; 0x5000
    2ba8:	00009a00 	andeq	r9, r0, r0, lsl #20
    2bac:	01006916 	tsteq	r0, r6, lsl r9
    2bb0:	00002586 	andeq	r2, r0, r6, lsl #11
    2bb4:	0020b700 	eoreq	fp, r0, r0, lsl #14
    2bb8:	92f82400 	rscsls	r2, r8, #0, 8
    2bbc:	118f0000 	orrne	r0, pc, r0
    2bc0:	14250000 	strtne	r0, [r5], #-0
    2bc4:	96000093 			; <UNDEFINED> instruction: 0x96000093
    2bc8:	d8000011 	stmdale	r0, {r0, r4}
    2bcc:	2000000c 	andcs	r0, r0, ip
    2bd0:	08025301 	stmdaeq	r2, {r0, r8, r9, ip, lr}
    2bd4:	52012083 	andpl	r2, r1, #131	; 0x83
    2bd8:	9a000305 	bls	37f4 <_start-0x480c>
    2bdc:	01200000 	teqeq	r0, r0
    2be0:	64030551 	strvs	r0, [r3], #-1361	; 0x551
    2be4:	2000009a 	mulcs	r0, sl, r0
    2be8:	03055001 	movweq	r5, #20481	; 0x5001
    2bec:	000098ec 	andeq	r9, r0, ip, ror #17
    2bf0:	007d0220 	rsbseq	r0, sp, r0, lsr #4
    2bf4:	9a780305 	bls	1e03810 <__bss_end__+0x1df9900>
    2bf8:	24000000 	strcs	r0, [r0], #-0
    2bfc:	00009318 	andeq	r9, r0, r8, lsl r3
    2c00:	000011ac 	andeq	r1, r0, ip, lsr #3
    2c04:	0093341f 	addseq	r3, r3, pc, lsl r4
    2c08:	00076200 	andeq	r6, r7, r0, lsl #4
    2c0c:	51012000 	mrspl	r2, (UNDEF: 1)
    2c10:	20007802 	andcs	r7, r0, r2, lsl #16
    2c14:	77025001 	strvc	r5, [r2, -r1]
    2c18:	2a000000 	bcs	2c20 <_start-0x53e0>
    2c1c:	00000090 	muleq	r0, r0, r0
    2c20:	00000d08 	andeq	r0, r0, r8, lsl #26
    2c24:	0000812b 	andeq	r8, r0, fp, lsr #2
    2c28:	07001400 	streq	r1, [r0, -r0, lsl #8]
    2c2c:	00000cf8 	strdeq	r0, [r0], -r8
    2c30:	00085323 	andeq	r5, r8, r3, lsr #6
    2c34:	d9930100 	ldmible	r3, {r8}
    2c38:	68000000 	stmdavs	r0, {}	; <UNPREDICTABLE>
    2c3c:	d4000093 	strle	r0, [r0], #-147	; 0x93
    2c40:	01000000 	mrseq	r0, (UNDEF: 0)
    2c44:	000e329c 	muleq	lr, ip, r2
    2c48:	78741400 	ldmdavc	r4!, {sl, ip}^
    2c4c:	4f930100 	svcmi	0x00930100
    2c50:	e1000000 	mrs	r0, (UNDEF: 0)
    2c54:	14000020 	strne	r0, [r0], #-32
    2c58:	01007872 	tsteq	r0, r2, ror r8
    2c5c:	00004f93 	muleq	r0, r3, pc	; <UNPREDICTABLE>
    2c60:	00210200 	eoreq	r0, r1, r0, lsl #4
    2c64:	04271300 	strteq	r1, [r7], #-768	; 0x300
    2c68:	93010000 	movwls	r0, #4096	; 0x1000
    2c6c:	00000068 	andeq	r0, r0, r8, rrx
    2c70:	00002123 	andeq	r2, r0, r3, lsr #2
    2c74:	0007ec28 	andeq	lr, r7, r8, lsr #24
    2c78:	68930100 	ldmvs	r3, {r8}
    2c7c:	02000000 	andeq	r0, r0, #0
    2c80:	6d2c0091 	stcvs	0, cr0, [ip, #-580]!	; 0xfffffdbc
    2c84:	01007a68 	tsteq	r0, r8, ror #20
    2c88:	00002c9b 	muleq	r0, fp, ip
    2c8c:	b9270000 	stmdblt	r7!, {}	; <UNPREDICTABLE>
    2c90:	083d2629 	ldmdaeq	sp!, {r0, r3, r5, r9, sl, sp}
    2c94:	9c010000 	stcls	0, cr0, [r1], {-0}
    2c98:	0000002c 	andeq	r0, r0, ip, lsr #32
    2c9c:	0000214d 	andeq	r2, r0, sp, asr #2
    2ca0:	0000f929 	andeq	pc, r0, r9, lsr #18
    2ca4:	000e4200 	andeq	r4, lr, r0, lsl #4
    2ca8:	18030500 	stmdane	r3, {r8, sl}
    2cac:	1700009a 			; <UNDEFINED> instruction: 0x1700009a
    2cb0:	00009394 	muleq	r0, r4, r3
    2cb4:	00000008 	andeq	r0, r0, r8
    2cb8:	00000da5 	andeq	r0, r0, r5, lsr #27
    2cbc:	006e692d 	rsbeq	r6, lr, sp, lsr #18
    2cc0:	002c9701 	eoreq	r9, ip, r1, lsl #14
    2cc4:	00010000 	andeq	r0, r1, r0
    2cc8:	00938c25 	addseq	r8, r3, r5, lsr #24
    2ccc:	0011b300 	andseq	fp, r1, r0, lsl #6
    2cd0:	000db900 	andeq	fp, sp, r0, lsl #18
    2cd4:	50012000 	andpl	r2, r1, r0
    2cd8:	00007602 	andeq	r7, r0, r2, lsl #12
    2cdc:	00939425 	addseq	r9, r3, r5, lsr #8
    2ce0:	0011c400 	andseq	ip, r1, r0, lsl #8
    2ce4:	000dcd00 	andeq	ip, sp, r0, lsl #26
    2ce8:	50012000 	andpl	r2, r1, r0
    2cec:	00007802 	andeq	r7, r0, r2, lsl #16
    2cf0:	0093a825 	addseq	sl, r3, r5, lsr #16
    2cf4:	00115900 	andseq	r5, r1, r0, lsl #18
    2cf8:	000de600 	andeq	lr, sp, r0, lsl #12
    2cfc:	51012000 	mrspl	r2, (UNDEF: 1)
    2d00:	01203101 	teqeq	r0, r1, lsl #2
    2d04:	00760250 	rsbseq	r0, r6, r0, asr r2
    2d08:	93ec2400 	mvnls	r2, #0, 8
    2d0c:	118f0000 	orrne	r0, pc, r0
    2d10:	08250000 	stmdaeq	r5!, {}	; <UNPREDICTABLE>
    2d14:	96000094 			; <UNDEFINED> instruction: 0x96000094
    2d18:	28000011 	stmdacs	r0, {r0, r4}
    2d1c:	2000000e 	andcs	r0, r0, lr
    2d20:	08025301 	stmdaeq	r2, {r0, r8, r9, ip, lr}
    2d24:	5201209d 	andpl	r2, r1, #157	; 0x9d
    2d28:	9a180305 	bls	603944 <__bss_end__+0x5f9a34>
    2d2c:	01200000 	teqeq	r0, r0
    2d30:	64030551 	strvs	r0, [r3], #-1361	; 0x551
    2d34:	2000009a 	mulcs	r0, sl, r0
    2d38:	03055001 	movweq	r5, #20481	; 0x5001
    2d3c:	000098ec 	andeq	r9, r0, ip, ror #17
    2d40:	007d0220 	rsbseq	r0, sp, r0, lsr #4
    2d44:	9a840305 	bls	fe103960 <__bss_end__+0xfe0f9a50>
    2d48:	24000000 	strcs	r0, [r0], #-0
    2d4c:	0000940c 	andeq	r9, r0, ip, lsl #8
    2d50:	000011ac 	andeq	r1, r0, ip, lsr #3
    2d54:	00902a00 	addseq	r2, r0, r0, lsl #20
    2d58:	0e420000 	cdpeq	0, 4, cr0, cr2, cr0, {0}
    2d5c:	812b0000 	teqhi	fp, r0
    2d60:	13000000 	movwne	r0, #0
    2d64:	0e320700 	cdpeq	7, 3, cr0, cr2, cr0, {0}
    2d68:	30230000 	eorcc	r0, r3, r0
    2d6c:	01000008 	tsteq	r0, r8
    2d70:	000025a9 	andeq	r2, r0, r9, lsr #11
    2d74:	00943c00 	addseq	r3, r4, r0, lsl #24
    2d78:	00003c00 	andeq	r3, r0, r0, lsl #24
    2d7c:	ea9c0100 	b	fe703184 <__bss_end__+0xfe6f9274>
    2d80:	1300000e 	movwne	r0, #14
    2d84:	000003ee 	andeq	r0, r0, lr, ror #7
    2d88:	0722a901 	streq	sl, [r2, -r1, lsl #18]!
    2d8c:	217b0000 	cmncs	fp, r0
    2d90:	72160000 	andsvc	r0, r6, #0
    2d94:	01007365 	tsteq	r0, r5, ror #6
    2d98:	000025aa 	andeq	r2, r0, sl, lsr #11
    2d9c:	00219c00 	eoreq	r9, r1, r0, lsl #24
    2da0:	00f92900 	rscseq	r2, r9, r0, lsl #18
    2da4:	0efa0000 	cdpeq	0, 15, cr0, cr10, cr0, {0}
    2da8:	03050000 	movweq	r0, #20480	; 0x5000
    2dac:	00009a2c 	andeq	r9, r0, ip, lsr #20
    2db0:	00944825 	addseq	r4, r4, r5, lsr #16
    2db4:	00076200 	andeq	r6, r7, r0, lsl #4
    2db8:	000ea800 	andeq	sl, lr, r0, lsl #16
    2dbc:	51012000 	mrspl	r2, (UNDEF: 1)
    2dc0:	20ff0902 	rscscs	r0, pc, r2, lsl #18
    2dc4:	f3035001 	vhadd.u8	d5, d3, d1
    2dc8:	24005001 	strcs	r5, [r0], #-1
    2dcc:	00009454 	andeq	r9, r0, r4, asr r4
    2dd0:	0000118f 	andeq	r1, r0, pc, lsl #3
    2dd4:	00946825 	addseq	r6, r4, r5, lsr #16
    2dd8:	00119600 	andseq	r9, r1, r0, lsl #12
    2ddc:	000ee000 	andeq	lr, lr, r0
    2de0:	53012000 	movwpl	r2, #4096	; 0x1000
    2de4:	20ac0802 	adccs	r0, ip, r2, lsl #16
    2de8:	03055201 	movweq	r5, #20993	; 0x5201
    2dec:	00009a2c 	andeq	r9, r0, ip, lsr #20
    2df0:	05510120 	ldrbeq	r0, [r1, #-288]	; 0x120
    2df4:	009a6403 	addseq	r6, sl, r3, lsl #8
    2df8:	50012000 	andpl	r2, r1, r0
    2dfc:	9ab80305 	bls	fee03a18 <__bss_end__+0xfedf9b08>
    2e00:	24000000 	strcs	r0, [r0], #-0
    2e04:	0000946c 	andeq	r9, r0, ip, ror #8
    2e08:	000011ac 	andeq	r1, r0, ip, lsr #3
    2e0c:	00902a00 	addseq	r2, r0, r0, lsl #20
    2e10:	0efa0000 	cdpeq	0, 15, cr0, cr10, cr0, {0}
    2e14:	812b0000 	teqhi	fp, r0
    2e18:	0c000000 	stceq	0, cr0, [r0], {-0}
    2e1c:	0eea0700 	cdpeq	7, 14, cr0, cr10, cr0, {0}
    2e20:	74120000 	ldrvc	r0, [r2], #-0
    2e24:	01000008 	tsteq	r0, r8
    2e28:	009478b0 			; <UNDEFINED> instruction: 0x009478b0
    2e2c:	00002c00 	andeq	r2, r0, r0, lsl #24
    2e30:	439c0100 	orrsmi	r0, ip, #0, 2
    2e34:	1300000f 	movwne	r0, #15
    2e38:	000003ee 	andeq	r0, r0, lr, ror #7
    2e3c:	0722b001 	streq	fp, [r2, -r1]!
    2e40:	21af0000 			; <UNDEFINED> instruction: 0x21af0000
    2e44:	6d140000 	ldcvs	0, cr0, [r4, #-0]
    2e48:	01006773 	tsteq	r0, r3, ror r7
    2e4c:	000097b0 			; <UNDEFINED> instruction: 0x000097b0
    2e50:	0021cd00 	eoreq	ip, r1, r0, lsl #26
    2e54:	94901f00 	ldrls	r1, [r0], #3840	; 0xf00
    2e58:	01760000 	cmneq	r6, r0
    2e5c:	01200000 	teqeq	r0, r0
    2e60:	00750250 	rsbseq	r0, r5, r0, asr r2
    2e64:	f3230000 	vhadd.u32	d0, d3, d0
    2e68:	01000003 	tsteq	r0, r3
    2e6c:	000025b9 			; <UNDEFINED> instruction: 0x000025b9
    2e70:	0094a400 	addseq	sl, r4, r0, lsl #8
    2e74:	00009000 	andeq	r9, r0, r0
    2e78:	419c0100 	orrsmi	r0, ip, r0, lsl #2
    2e7c:	13000010 	movwne	r0, #16
    2e80:	000003ee 	andeq	r0, r0, lr, ror #7
    2e84:	0722b901 	streq	fp, [r2, -r1, lsl #18]!
    2e88:	21eb0000 	mvncs	r0, r0
    2e8c:	662e0000 	strtvs	r0, [lr], -r0
    2e90:	0100746d 	tsteq	r0, sp, ror #8
    2e94:	000097b9 			; <UNDEFINED> instruction: 0x000097b9
    2e98:	74910200 	ldrvc	r0, [r1], #512	; 0x200
    2e9c:	7562152f 	strbvc	r1, [r2, #-1327]!	; 0x52f
    2ea0:	ba010066 	blt	43040 <__bss_end__+0x39130>
    2ea4:	00001041 	andeq	r1, r0, r1, asr #32
    2ea8:	7c9c9103 	ldfvcd	f1, [ip], {3}
    2eac:	0002cd18 	andeq	ip, r2, r8, lsl sp
    2eb0:	06bc0100 	ldrteq	r0, [ip], r0, lsl #2
    2eb4:	03000001 	movweq	r0, #1
    2eb8:	167c9891 			; <UNDEFINED> instruction: 0x167c9891
    2ebc:	01007a73 	tsteq	r0, r3, ror sl
    2ec0:	000025be 			; <UNDEFINED> instruction: 0x000025be
    2ec4:	00221700 	eoreq	r1, r2, r0, lsl #14
    2ec8:	00f92900 	rscseq	r2, r9, r0, lsl #18
    2ecc:	10620000 	rsbne	r0, r2, r0
    2ed0:	03050000 	movweq	r0, #20480	; 0x5000
    2ed4:	00009a3c 	andeq	r9, r0, ip, lsr sl
    2ed8:	0094cc25 	addseq	ip, r4, r5, lsr #24
    2edc:	0011d500 	andseq	sp, r1, r0, lsl #10
    2ee0:	000fde00 	andeq	sp, pc, r0, lsl #28
    2ee4:	53012000 	movwpl	r2, #4096	; 0x1000
    2ee8:	20589102 	subscs	r9, r8, r2, lsl #2
    2eec:	91035201 	tstls	r3, r1, lsl #4
    2ef0:	01200654 	teqeq	r0, r4, asr r6
    2ef4:	cc0a0351 	stcgt	3, cr0, [sl], {81}	; 0x51
    2ef8:	50012001 	andpl	r2, r1, r1
    2efc:	7bfc9103 	blvc	fff27310 <__bss_end__+0xfff1d400>
    2f00:	94e02400 	strbtls	r2, [r0], #1024	; 0x400
    2f04:	118f0000 	orrne	r0, pc, r0
    2f08:	fc250000 	stc2	0, cr0, [r5], #-0
    2f0c:	96000094 			; <UNDEFINED> instruction: 0x96000094
    2f10:	20000011 	andcs	r0, r0, r1, lsl r0
    2f14:	20000010 	andcs	r0, r0, r0, lsl r0
    2f18:	08025301 	stmdaeq	r2, {r0, r8, r9, ip, lr}
    2f1c:	520120c0 	andpl	r2, r1, #192	; 0xc0
    2f20:	9a3c0305 	bls	f03b3c <__bss_end__+0xef9c2c>
    2f24:	01200000 	teqeq	r0, r0
    2f28:	64030551 	strvs	r0, [r3], #-1361	; 0x551
    2f2c:	2000009a 	mulcs	r0, sl, r0
    2f30:	03055001 	movweq	r5, #20481	; 0x5001
    2f34:	000098ec 	andeq	r9, r0, ip, ror #17
    2f38:	007d0220 	rsbseq	r0, sp, r0, lsr #4
    2f3c:	9af00305 	bls	ffc03b58 <__bss_end__+0xffbf9c48>
    2f40:	24000000 	strcs	r0, [r0], #-0
    2f44:	00009500 	andeq	r9, r0, r0, lsl #10
    2f48:	000011ac 	andeq	r1, r0, ip, lsr #3
    2f4c:	00950c1f 	addseq	r0, r5, pc, lsl ip
    2f50:	000eff00 	andeq	pc, lr, r0, lsl #30
    2f54:	51012000 	mrspl	r2, (UNDEF: 1)
    2f58:	7bfc9103 	blvc	fff2736c <__bss_end__+0xfff1d45c>
    2f5c:	02500120 	subseq	r0, r0, #32, 2
    2f60:	00000075 	andeq	r0, r0, r5, ror r0
    2f64:	0000902a 	andeq	r9, r0, sl, lsr #32
    2f68:	00105200 	andseq	r5, r0, r0, lsl #4
    2f6c:	00813000 	addeq	r3, r1, r0
    2f70:	01cb0000 	biceq	r0, fp, r0
    2f74:	00902a00 	addseq	r2, r0, r0, lsl #20
    2f78:	10620000 	rsbne	r0, r2, r0
    2f7c:	812b0000 	teqhi	fp, r0
    2f80:	0e000000 	cdpeq	0, 0, cr0, cr0, cr0, {0}
    2f84:	10520700 	subsne	r0, r2, r0, lsl #14
    2f88:	c3230000 	teqgt	r3, #0
    2f8c:	01000008 	tsteq	r0, r8
    2f90:	000025c5 	andeq	r2, r0, r5, asr #11
    2f94:	00953400 	addseq	r3, r5, r0, lsl #8
    2f98:	00004c00 	andeq	r4, r0, r0, lsl #24
    2f9c:	449c0100 	ldrmi	r0, [ip], #256	; 0x100
    2fa0:	14000011 	strne	r0, [r0], #-17
    2fa4:	c5010075 	strgt	r0, [r1, #-117]	; 0x75
    2fa8:	00000722 	andeq	r0, r0, r2, lsr #14
    2fac:	00002256 	andeq	r2, r0, r6, asr r2
    2fb0:	66756214 			; <UNDEFINED> instruction: 0x66756214
    2fb4:	0cc50100 	stfeqe	f0, [r5], {0}
    2fb8:	7700000c 	strvc	r0, [r0, -ip]
    2fbc:	13000022 	movwne	r0, #34	; 0x22
    2fc0:	000008af 	andeq	r0, r0, pc, lsr #17
    2fc4:	0068c501 	rsbeq	ip, r8, r1, lsl #10
    2fc8:	22980000 	addscs	r0, r8, #0
    2fcc:	65140000 	ldrvs	r0, [r4, #-0]
    2fd0:	0100646e 	tsteq	r0, lr, ror #8
    2fd4:	00004fc5 	andeq	r4, r0, r5, asr #31
    2fd8:	0022b900 	eoreq	fp, r2, r0, lsl #18
    2fdc:	65721600 	ldrbvs	r1, [r2, #-1536]!	; 0x600
    2fe0:	c6010073 			; <UNDEFINED> instruction: 0xc6010073
    2fe4:	00000025 	andeq	r0, r0, r5, lsr #32
    2fe8:	000022da 	ldrdeq	r2, [r0], -sl
    2fec:	0000f929 	andeq	pc, r0, r9, lsr #18
    2ff0:	00115400 	andseq	r5, r1, r0, lsl #8
    2ff4:	4c030500 	cfstr32mi	mvfx0, [r3], {-0}
    2ff8:	2500009a 	strcs	r0, [r0, #-154]	; 0x9a
    2ffc:	00009548 	andeq	r9, r0, r8, asr #10
    3000:	00000b1e 	andeq	r0, r0, lr, lsl fp
    3004:	00001102 	andeq	r1, r0, r2, lsl #2
    3008:	03520120 	cmpeq	r2, #32, 2
    300c:	205201f3 	ldrshcs	r0, [r2], #-19	; 0xffffffed
    3010:	f3035101 	vrhadd.u8	d5, d3, d1
    3014:	01205101 	teqeq	r0, r1, lsl #2
    3018:	01f30350 	mvnseq	r0, r0, asr r3
    301c:	7d022050 	stcvc	0, cr2, [r2, #-320]	; 0xfffffec0
    3020:	ff090200 			; <UNDEFINED> instruction: 0xff090200
    3024:	95542400 	ldrbls	r2, [r4, #-1024]	; 0x400
    3028:	118f0000 	orrne	r0, pc, r0
    302c:	68250000 	stmdavs	r5!, {}	; <UNPREDICTABLE>
    3030:	96000095 			; <UNDEFINED> instruction: 0x96000095
    3034:	3a000011 	bcc	3080 <_start-0x4f80>
    3038:	20000011 	andcs	r0, r0, r1, lsl r0
    303c:	08025301 	stmdaeq	r2, {r0, r8, r9, ip, lr}
    3040:	520120c8 	andpl	r2, r1, #200	; 0xc8
    3044:	9a4c0305 	bls	1303c60 <__bss_end__+0x12f9d50>
    3048:	01200000 	teqeq	r0, r0
    304c:	64030551 	strvs	r0, [r3], #-1361	; 0x551
    3050:	2000009a 	mulcs	r0, sl, r0
    3054:	03055001 	movweq	r5, #20481	; 0x5001
    3058:	00009ab8 			; <UNDEFINED> instruction: 0x00009ab8
    305c:	956c2400 	strbls	r2, [ip, #-1024]!	; 0x400
    3060:	11ac0000 			; <UNDEFINED> instruction: 0x11ac0000
    3064:	2a000000 	bcs	306c <_start-0x4f94>
    3068:	00000090 	muleq	r0, r0, r0
    306c:	00001154 	andeq	r1, r0, r4, asr r1
    3070:	0000812b 	andeq	r8, r0, fp, lsr #2
    3074:	07001600 	streq	r1, [r0, -r0, lsl #12]
    3078:	00001144 	andeq	r1, r0, r4, asr #2
    307c:	0006e631 	andeq	lr, r6, r1, lsr r6
    3080:	6f210600 	svcvs	0x00210600
    3084:	32000011 	andcc	r0, r0, #17
    3088:	0000002c 	andeq	r0, r0, ip, lsr #32
    308c:	00002c32 	andeq	r2, r0, r2, lsr ip
    3090:	30330000 	eorscc	r0, r3, r0
    3094:	07000005 	streq	r0, [r0, -r5]
    3098:	00002c57 	andeq	r2, r0, r7, asr ip
    309c:	00853400 	addeq	r3, r5, r0, lsl #8
    30a0:	24060000 	strcs	r0, [r6], #-0
    30a4:	00000025 	andeq	r0, r0, r5, lsr #32
    30a8:	0000118f 	andeq	r1, r0, pc, lsl #3
    30ac:	00002c32 	andeq	r2, r0, r2, lsr ip
    30b0:	e0350000 	eors	r0, r5, r0
    30b4:	07000001 	streq	r0, [r0, -r1]
    30b8:	0278341e 	rsbseq	r3, r8, #503316480	; 0x1e000000
    30bc:	29070000 	stmdbcs	r7, {}	; <UNPREDICTABLE>
    30c0:	00000025 	andeq	r0, r0, r5, lsr #32
    30c4:	000011ac 	andeq	r1, r0, ip, lsr #3
    30c8:	00009732 	andeq	r9, r0, r2, lsr r7
    30cc:	35002f00 	strcc	r2, [r0, #-3840]	; 0xf00
    30d0:	0000009c 	muleq	r0, ip, r0
    30d4:	34316607 	ldrtcc	r6, [r1], #-1543	; 0x607
    30d8:	06000007 	streq	r0, [r0], -r7
    30dc:	0011c41d 	andseq	ip, r1, sp, lsl r4
    30e0:	002c3200 	eoreq	r3, ip, r0, lsl #4
    30e4:	31000000 	mrscc	r0, (UNDEF: 0)
    30e8:	000000bc 	strheq	r0, [r0], -ip
    30ec:	11d51c06 	bicsne	r1, r5, r6, lsl #24
    30f0:	2c320000 	ldccs	0, cr0, [r2], #-0
    30f4:	00000000 	andeq	r0, r0, r0
    30f8:	00027536 	andeq	r7, r2, r6, lsr r5
    30fc:	25020800 	strcs	r0, [r2, #-2048]	; 0x800
    3100:	32000000 	andcc	r0, r0, #0
    3104:	0000008a 	andeq	r0, r0, sl, lsl #1
    3108:	00002532 	andeq	r2, r0, r2, lsr r5
    310c:	00973200 	addseq	r3, r7, r0, lsl #4
    3110:	06320000 	ldrteq	r0, [r2], -r0
    3114:	00000001 	andeq	r0, r0, r1
    3118:	0003ff00 	andeq	pc, r3, r0, lsl #30
    311c:	49000400 	stmdbmi	r0, {sl}
    3120:	0400000f 	streq	r0, [r0], #-15
    3124:	00021e01 	andeq	r1, r2, r1, lsl #28
    3128:	09bb0100 	ldmibeq	fp!, {r8}
    312c:	02890000 	addeq	r0, r9, #0
    3130:	95800000 	strls	r0, [r0]
    3134:	01540000 	cmpeq	r4, r0
    3138:	0d0f0000 	stceq	0, cr0, [pc, #-0]	; 3140 <_start-0x4ec0>
    313c:	04020000 	streq	r0, [r2], #-0
    3140:	746e6905 	strbtvc	r6, [lr], #-2309	; 0x905
    3144:	07040300 	streq	r0, [r4, -r0, lsl #6]
    3148:	00000127 	andeq	r0, r0, r7, lsr #2
    314c:	cd060103 	stfgts	f0, [r6, #-12]
    3150:	03000000 	movweq	r0, #0
    3154:	01cb0502 	biceq	r0, fp, r2, lsl #10
    3158:	04030000 	streq	r0, [r3], #-0
    315c:	00015b05 	andeq	r5, r1, r5, lsl #22
    3160:	05080300 	streq	r0, [r8, #-768]	; 0x300
    3164:	00000156 	andeq	r0, r0, r6, asr r1
    3168:	cb080103 	blgt	20357c <__bss_end__+0x1f966c>
    316c:	03000000 	movweq	r0, #0
    3170:	00a90702 	adceq	r0, r9, r2, lsl #14
    3174:	04030000 	streq	r0, [r3], #-0
    3178:	00012207 	andeq	r2, r1, r7, lsl #4
    317c:	07080300 	streq	r0, [r8, -r0, lsl #6]
    3180:	0000011d 	andeq	r0, r0, sp, lsl r1
    3184:	42070403 	andmi	r0, r7, #50331648	; 0x3000000
    3188:	03000001 	movweq	r0, #1
    318c:	00d40801 	sbcseq	r0, r4, r1, lsl #16
    3190:	01040000 	mrseq	r0, (UNDEF: 4)
    3194:	00b20c02 	adcseq	r0, r2, r2, lsl #24
    3198:	d4050000 	strle	r0, [r5], #-0
    319c:	00000005 	andeq	r0, r0, r5
    31a0:	00074405 	andeq	r4, r7, r5, lsl #8
    31a4:	7d050100 	stfvcs	f0, [r5, #-0]
    31a8:	04000007 	streq	r0, [r0], #-7
    31ac:	00078c05 	andeq	r8, r7, r5, lsl #24
    31b0:	9b050500 	blls	1445b8 <__bss_end__+0x13a6a8>
    31b4:	06000007 	streq	r0, [r0], -r7
    31b8:	0007aa05 	andeq	sl, r7, r5, lsl #20
    31bc:	b9050700 	stmdblt	r5, {r8, r9, sl}
    31c0:	03000007 	movweq	r0, #7
    31c4:	0007c805 	andeq	ip, r7, r5, lsl #16
    31c8:	06000200 	streq	r0, [r0], -r0, lsl #4
    31cc:	00000771 	andeq	r0, r0, r1, ror r7
    31d0:	00791502 	rsbseq	r1, r9, r2, lsl #10
    31d4:	42070000 	andmi	r0, r7, #0
    31d8:	01000009 	tsteq	r0, r9
    31dc:	00958037 	addseq	r8, r5, r7, lsr r0
    31e0:	00009c00 	andeq	r9, r0, r0, lsl #24
    31e4:	c39c0100 	orrsgt	r0, ip, #0, 2
    31e8:	08000001 	stmdaeq	r0, {r0}
    31ec:	00009588 	andeq	r9, r0, r8, lsl #11
    31f0:	000003a8 	andeq	r0, r0, r8, lsr #7
    31f4:	00959409 	addseq	r9, r5, r9, lsl #8
    31f8:	0003af00 	andeq	sl, r3, r0, lsl #30
    31fc:	0000f300 	andeq	pc, r0, r0, lsl #6
    3200:	51010a00 	tstpl	r1, r0, lsl #20
    3204:	010a3201 	tsteq	sl, r1, lsl #4
    3208:	003e0150 	eorseq	r0, lr, r0, asr r1
    320c:	0095a009 	addseq	sl, r5, r9
    3210:	0003af00 	andeq	sl, r3, r0, lsl #30
    3214:	00010b00 	andeq	r0, r1, r0, lsl #22
    3218:	51010a00 	tstpl	r1, r0, lsl #20
    321c:	010a3201 	tsteq	sl, r1, lsl #4
    3220:	003f0150 	eorseq	r0, pc, r0, asr r1	; <UNPREDICTABLE>
    3224:	0095a408 	addseq	sl, r5, r8, lsl #8
    3228:	0003a800 	andeq	sl, r3, r0, lsl #16
    322c:	95b40900 	ldrls	r0, [r4, #2304]!	; 0x900
    3230:	03c50000 	biceq	r0, r5, #0
    3234:	01280000 	teqeq	r8, r0
    3238:	010a0000 	mrseq	r0, (UNDEF: 10)
    323c:	00750250 	rsbseq	r0, r5, r0, asr r2
    3240:	95c00900 	strbls	r0, [r0, #2304]	; 0x900
    3244:	03e60000 	mvneq	r0, #0
    3248:	013c0000 	teqeq	ip, r0
    324c:	010a0000 	mrseq	r0, (UNDEF: 10)
    3250:	00750250 	rsbseq	r0, r5, r0, asr r2
    3254:	95c40800 	strbls	r0, [r4, #2048]	; 0x800
    3258:	03a80000 			; <UNDEFINED> instruction: 0x03a80000
    325c:	d0090000 	andle	r0, r9, r0
    3260:	e6000095 			; <UNDEFINED> instruction: 0xe6000095
    3264:	58000003 	stmdapl	r0, {r0, r1}
    3268:	0a000001 	beq	3274 <_start-0x4d8c>
    326c:	30015101 	andcc	r5, r1, r1, lsl #2
    3270:	95dc0900 	ldrbls	r0, [ip, #2304]	; 0x900
    3274:	03e60000 	mvneq	r0, #0
    3278:	016b0000 	cmneq	fp, r0
    327c:	010a0000 	mrseq	r0, (UNDEF: 10)
    3280:	00300151 	eorseq	r0, r0, r1, asr r1
    3284:	0095e809 	addseq	lr, r5, r9, lsl #16
    3288:	0003e600 	andeq	lr, r3, r0, lsl #12
    328c:	00017e00 	andeq	r7, r1, r0, lsl #28
    3290:	51010a00 	tstpl	r1, r0, lsl #20
    3294:	09003601 	stmdbeq	r0, {r0, r9, sl, ip, sp}
    3298:	000095f4 	strdeq	r9, [r0], -r4
    329c:	000003e6 	andeq	r0, r0, r6, ror #7
    32a0:	00000191 	muleq	r0, r1, r1
    32a4:	0151010a 	cmpeq	r1, sl, lsl #2
    32a8:	00090033 	andeq	r0, r9, r3, lsr r0
    32ac:	e6000096 			; <UNDEFINED> instruction: 0xe6000096
    32b0:	a6000003 	strge	r0, [r0], -r3
    32b4:	0a000001 	beq	32c0 <_start-0x4d40>
    32b8:	0a035101 	beq	d76c4 <__bss_end__+0xcd7b4>
    32bc:	0900010e 	stmdbeq	r0, {r1, r2, r3, r8}
    32c0:	0000960c 	andeq	r9, r0, ip, lsl #12
    32c4:	000003e6 	andeq	r0, r0, r6, ror #7
    32c8:	000001b9 			; <UNDEFINED> instruction: 0x000001b9
    32cc:	0151010a 	cmpeq	r1, sl, lsl #2
    32d0:	10080033 	andne	r0, r8, r3, lsr r0
    32d4:	a8000096 	stmdage	r0, {r1, r2, r4, r7}
    32d8:	00000003 	andeq	r0, r0, r3
    32dc:	0009160b 	andeq	r1, r9, fp, lsl #12
    32e0:	25570100 	ldrbcs	r0, [r7, #-256]	; 0x100
    32e4:	1c000000 	stcne	0, cr0, [r0], {-0}
    32e8:	1c000096 	stcne	0, cr0, [r0], {150}	; 0x96
    32ec:	01000000 	mrseq	r0, (UNDEF: 0)
    32f0:	0001e69c 	muleq	r1, ip, r6
    32f4:	962c0800 	strtls	r0, [ip], -r0, lsl #16
    32f8:	03c50000 	biceq	r0, r5, #0
    32fc:	0b000000 	bleq	3304 <_start-0x4cfc>
    3300:	00000833 	andeq	r0, r0, r3, lsr r8
    3304:	00255d01 	eoreq	r5, r5, r1, lsl #26
    3308:	96380000 	ldrtls	r0, [r8], -r0
    330c:	00280000 	eoreq	r0, r8, r0
    3310:	9c010000 	stcls	0, cr0, [r1], {-0}
    3314:	00000212 	andeq	r0, r0, r2, lsl r2
    3318:	00964008 	addseq	r4, r6, r8
    331c:	0001c300 	andeq	ip, r1, r0, lsl #6
    3320:	96540800 	ldrbls	r0, [r4], -r0, lsl #16
    3324:	03c50000 	biceq	r0, r5, #0
    3328:	0b000000 	bleq	3330 <_start-0x4cd0>
    332c:	0000096a 	andeq	r0, r0, sl, ror #18
    3330:	00256401 	eoreq	r6, r5, r1, lsl #8
    3334:	96600000 	strbtls	r0, [r0], -r0
    3338:	001c0000 	andseq	r0, ip, r0
    333c:	9c010000 	stcls	0, cr0, [r1], {-0}
    3340:	00000235 	andeq	r0, r0, r5, lsr r2
    3344:	00967008 	addseq	r7, r6, r8
    3348:	0003c500 	andeq	ip, r3, r0, lsl #10
    334c:	4f070000 	svcmi	0x00070000
    3350:	01000004 	tsteq	r0, r4
    3354:	00967c6a 	addseq	r7, r6, sl, ror #24
    3358:	00002c00 	andeq	r2, r0, r0, lsl #24
    335c:	719c0100 	orrsvc	r0, ip, r0, lsl #2
    3360:	0c000002 	stceq	0, cr0, [r0], {2}
    3364:	6a010063 	bvs	434f8 <__bss_end__+0x395e8>
    3368:	0000002c 	andeq	r0, r0, ip, lsr #32
    336c:	000022f8 	strdeq	r2, [r0], -r8
    3370:	00968808 	addseq	r8, r6, r8, lsl #16
    3374:	00021200 	andeq	r1, r2, r0, lsl #4
    3378:	96a00d00 	strtls	r0, [r0], r0, lsl #26
    337c:	03e60000 	mvneq	r0, #0
    3380:	010a0000 	mrseq	r0, (UNDEF: 10)
    3384:	00740251 	rsbseq	r0, r4, r1, asr r2
    3388:	340b0000 	strcc	r0, [fp], #-0
    338c:	01000009 	tsteq	r0, r9
    3390:	00002574 	andeq	r2, r0, r4, ror r5
    3394:	0096a800 	addseq	sl, r6, r0, lsl #16
    3398:	00000c00 	andeq	r0, r0, r0, lsl #24
    339c:	949c0100 	ldrls	r0, [ip], #256	; 0x100
    33a0:	08000002 	stmdaeq	r0, {r1}
    33a4:	000096b0 			; <UNDEFINED> instruction: 0x000096b0
    33a8:	000001c3 	andeq	r0, r0, r3, asr #3
    33ac:	09e70b00 	stmibeq	r7!, {r8, r9, fp}^
    33b0:	78010000 	stmdavc	r1, {}	; <UNPREDICTABLE>
    33b4:	00000025 	andeq	r0, r0, r5, lsr #32
    33b8:	000096b4 			; <UNDEFINED> instruction: 0x000096b4
    33bc:	00000020 	andeq	r0, r0, r0, lsr #32
    33c0:	02c09c01 	sbceq	r9, r0, #256	; 0x100
    33c4:	bc080000 	stclt	0, cr0, [r8], {-0}
    33c8:	71000096 	swpvc	r0, r6, [r0]	; <UNPREDICTABLE>
    33cc:	08000002 	stmdaeq	r0, {r1}
    33d0:	000096c8 	andeq	r9, r0, r8, asr #13
    33d4:	000001e6 	andeq	r0, r0, r6, ror #3
    33d8:	09840e00 	stmibeq	r4, {r9, sl, fp}
    33dc:	16010000 	strne	r0, [r1], -r0
    33e0:	000002d1 	ldrdeq	r0, [r0], -r1
    33e4:	98400305 	stmdals	r0, {r0, r2, r8, r9}^
    33e8:	040f0000 	streq	r0, [pc], #-0	; 33f0 <_start-0x4c10>
    33ec:	000002d7 	ldrdeq	r0, [r0], -r7
    33f0:	00002c10 	andeq	r2, r0, r0, lsl ip
    33f4:	09780e00 	ldmdbeq	r8!, {r9, sl, fp}^
    33f8:	17010000 	strne	r0, [r1, -r0]
    33fc:	000002d1 	ldrdeq	r0, [r0], -r1
    3400:	98100305 	ldmdals	r0, {r0, r2, r8, r9}
    3404:	f90e0000 			; <UNDEFINED> instruction: 0xf90e0000
    3408:	01000008 	tsteq	r0, r8
    340c:	0002d11a 	andeq	sp, r2, sl, lsl r1
    3410:	2c030500 	cfstr32cs	mvfx0, [r3], {-0}
    3414:	0e000098 	mcreq	0, 0, r0, cr0, cr8, {4}
    3418:	0000094c 	andeq	r0, r0, ip, asr #18
    341c:	02d11b01 	sbcseq	r1, r1, #1024	; 0x400
    3420:	03050000 	movweq	r0, #20480	; 0x5000
    3424:	00009818 	andeq	r9, r0, r8, lsl r8
    3428:	00095b0e 	andeq	r5, r9, lr, lsl #22
    342c:	d11c0100 	tstle	ip, r0, lsl #2
    3430:	05000002 	streq	r0, [r0, #-2]
    3434:	00981c03 	addseq	r1, r8, r3, lsl #24
    3438:	09c90e00 	stmibeq	r9, {r9, sl, fp}^
    343c:	1d010000 	stcne	0, cr0, [r1, #-0]
    3440:	000002d1 	ldrdeq	r0, [r0], -r1
    3444:	98200305 	stmdals	r0!, {r0, r2, r8, r9}
    3448:	ea0e0000 	b	383450 <__bss_end__+0x379540>
    344c:	01000008 	tsteq	r0, r8
    3450:	0002d11e 	andeq	sp, r2, lr, lsl r1
    3454:	3c030500 	cfstr32cc	mvfx0, [r3], {-0}
    3458:	0e000098 	mcreq	0, 0, r0, cr0, cr8, {4}
    345c:	000009d8 	ldrdeq	r0, [r0], -r8
    3460:	02d11f01 	sbcseq	r1, r1, #1, 30
    3464:	03050000 	movweq	r0, #20480	; 0x5000
    3468:	00009828 	andeq	r9, r0, r8, lsr #16
    346c:	0009070e 	andeq	r0, r9, lr, lsl #14
    3470:	d1200100 	teqle	r0, r0, lsl #2
    3474:	05000002 	streq	r0, [r0, #-2]
    3478:	00983803 	addseq	r3, r8, r3, lsl #16
    347c:	09ac0e00 	stmibeq	ip!, {r9, sl, fp}
    3480:	21010000 	mrscs	r0, (UNDEF: 1)
    3484:	000002d1 	ldrdeq	r0, [r0], -r1
    3488:	98340305 	ldmdals	r4!, {r0, r2, r8, r9}
    348c:	240e0000 	strcs	r0, [lr], #-0
    3490:	01000009 	tsteq	r0, r9
    3494:	0002d122 	andeq	sp, r2, r2, lsr #2
    3498:	14030500 	strne	r0, [r3], #-1280	; 0x500
    349c:	0e000098 	mcreq	0, 0, r0, cr0, cr8, {4}
    34a0:	0000099c 	muleq	r0, ip, r9
    34a4:	02d12301 	sbcseq	r2, r1, #67108864	; 0x4000000
    34a8:	03050000 	movweq	r0, #20480	; 0x5000
    34ac:	00009830 	andeq	r9, r0, r0, lsr r8
    34b0:	00098c0e 	andeq	r8, r9, lr, lsl #24
    34b4:	d1240100 	teqle	r4, r0, lsl #2
    34b8:	05000002 	streq	r0, [r0, #-2]
    34bc:	00982403 	addseq	r2, r8, r3, lsl #8
    34c0:	065e1100 	ldrbeq	r1, [lr], -r0, lsl #2
    34c4:	8a030000 	bhi	c34cc <__bss_end__+0xb95bc>
    34c8:	00069112 	andeq	r9, r6, r2, lsl r1
    34cc:	c5190200 	ldrgt	r0, [r9, #-512]	; 0x200
    34d0:	13000003 	movwne	r0, #3
    34d4:	0000002c 	andeq	r0, r0, ip, lsr #32
    34d8:	0000b213 	andeq	fp, r0, r3, lsl r2
    34dc:	55140000 	ldrpl	r0, [r4, #-0]
    34e0:	03000007 	movweq	r0, #7
    34e4:	00002ca9 	andeq	r2, r0, r9, lsr #25
    34e8:	0003da00 	andeq	sp, r3, r0, lsl #20
    34ec:	03da1300 	bicseq	r1, sl, #0, 6
    34f0:	0f000000 	svceq	0x00000000
    34f4:	0003e004 	andeq	lr, r3, r4
    34f8:	03e51500 	mvneq	r1, #0, 10
    34fc:	12160000 	andsne	r0, r6, #0
    3500:	000005a5 	andeq	r0, r0, r5, lsr #11
    3504:	03fc9d03 	mvnseq	r9, #3, 26	; 0xc0
    3508:	fc130000 	ldc2	0, cr0, [r3], {-0}
    350c:	13000003 	movwne	r0, #3
    3510:	0000002c 	andeq	r0, r0, ip, lsr #32
    3514:	e5040f00 	str	r0, [r4, #-3840]	; 0xf00
    3518:	00000003 	andeq	r0, r0, r3
    351c:	000001c3 	andeq	r0, r0, r3, asr #3
    3520:	10770004 	rsbsne	r0, r7, r4
    3524:	01040000 	mrseq	r0, (UNDEF: 4)
    3528:	0000021e 	andeq	r0, r0, lr, lsl r2
    352c:	000a0c01 	andeq	r0, sl, r1, lsl #24
    3530:	00028900 	andeq	r8, r2, r0, lsl #18
    3534:	00973800 	addseq	r3, r7, r0, lsl #16
    3538:	00005000 	andeq	r5, r0, r0
    353c:	000e1400 	andeq	r1, lr, r0, lsl #8
    3540:	05040200 	streq	r0, [r4, #-512]	; 0x200
    3544:	00746e69 	rsbseq	r6, r4, r9, ror #28
    3548:	0009f703 	andeq	pc, r9, r3, lsl #14
    354c:	37d40200 	ldrbcc	r0, [r4, r0, lsl #4]
    3550:	04000000 	streq	r0, [r0], #-0
    3554:	01270704 	teqeq	r7, r4, lsl #14
    3558:	01040000 	mrseq	r0, (UNDEF: 4)
    355c:	0000cd06 	andeq	ip, r0, r6, lsl #26
    3560:	05020400 	streq	r0, [r2, #-1024]	; 0x400
    3564:	000001cb 	andeq	r0, r0, fp, asr #3
    3568:	5b050404 	blpl	144580 <__bss_end__+0x13a670>
    356c:	04000001 	streq	r0, [r0], #-1
    3570:	01560508 	cmpeq	r6, r8, lsl #10
    3574:	59030000 	stmdbpl	r3, {}	; <UNPREDICTABLE>
    3578:	03000004 	movweq	r0, #4
    357c:	0000652e 	andeq	r6, r0, lr, lsr #10
    3580:	08010400 	stmdaeq	r1, {sl}
    3584:	000000cb 	andeq	r0, r0, fp, asr #1
    3588:	a9070204 	stmdbge	r7, {r2, r9}
    358c:	03000000 	movweq	r0, #0
    3590:	000004b0 			; <UNDEFINED> instruction: 0x000004b0
    3594:	007e3403 	rsbseq	r3, lr, r3, lsl #8
    3598:	04040000 	streq	r0, [r4], #-0
    359c:	00012207 	andeq	r2, r1, r7, lsl #4
    35a0:	07080400 	streq	r0, [r8, -r0, lsl #8]
    35a4:	0000011d 	andeq	r0, r0, sp, lsl r1
    35a8:	42070404 	andmi	r0, r7, #4, 8	; 0x4000000
    35ac:	05000001 	streq	r0, [r0, #-1]
    35b0:	08010404 	stmdaeq	r1, {r2, sl}
    35b4:	000000d4 	ldrdeq	r0, [r0], -r4
    35b8:	0e040c06 	cdpeq	12, 0, cr0, cr4, cr6, {0}
    35bc:	000000d3 	ldrdeq	r0, [r0], -r3
    35c0:	00787407 	rsbseq	r7, r8, r7, lsl #8
    35c4:	005a0f04 	subseq	r0, sl, r4, lsl #30
    35c8:	07000000 	streq	r0, [r0, -r0]
    35cc:	04007872 	streq	r7, [r0], #-2162	; 0x872
    35d0:	00005a0f 	andeq	r5, r0, pc, lsl #20
    35d4:	27080100 	strcs	r0, [r8, -r0, lsl #2]
    35d8:	04000004 	streq	r0, [r0], #-4
    35dc:	00007310 	andeq	r7, r0, r0, lsl r3
    35e0:	d8080400 	stmdale	r8, {sl}
    35e4:	04000003 	streq	r0, [r0], #-3
    35e8:	00007311 	andeq	r7, r0, r1, lsl r3
    35ec:	03000800 	movweq	r0, #2048	; 0x800
    35f0:	00000410 	andeq	r0, r0, r0, lsl r4
    35f4:	009c1204 	addseq	r1, ip, r4, lsl #4
    35f8:	01090000 	mrseq	r0, (UNDEF: 9)
    35fc:	00f91005 	rscseq	r1, r9, r5
    3600:	2c0a0000 	stccs	0, cr0, [sl], {-0}
    3604:	01000004 	tsteq	r0, r4
    3608:	00041a0a 	andeq	r1, r4, sl, lsl #20
    360c:	020a0200 	andeq	r0, sl, #0, 4
    3610:	03000004 	movweq	r0, #4
    3614:	04410300 	strbeq	r0, [r1], #-768	; 0x300
    3618:	10050000 	andne	r0, r5, r0
    361c:	000000de 	ldrdeq	r0, [r0], -lr
    3620:	14051406 	strne	r1, [r5], #-1030	; 0x406
    3624:	00000131 	andeq	r0, r0, r1, lsr r1
    3628:	0004b908 	andeq	fp, r4, r8, lsl #18
    362c:	37150500 	ldrcc	r0, [r5, -r0, lsl #10]
    3630:	00000000 	andeq	r0, r0, r0
    3634:	0004a408 	andeq	sl, r4, r8, lsl #8
    3638:	f9180500 			; <UNDEFINED> instruction: 0xf9180500
    363c:	04000000 	streq	r0, [r0], #-0
    3640:	00046f08 	andeq	r6, r4, r8, lsl #30
    3644:	d31b0500 	tstle	fp, #0, 10
    3648:	08000000 	stmdaeq	r0, {}	; <UNPREDICTABLE>
    364c:	04610300 	strbteq	r0, [r1], #-768	; 0x300
    3650:	20050000 	andcs	r0, r5, r0
    3654:	00000104 	andeq	r0, r0, r4, lsl #2
    3658:	000a050b 	andeq	r0, sl, fp, lsl #10
    365c:	7e050100 	adfvcs	f0, f5, f0
    3660:	38000001 	stmdacc	r0, {r0}
    3664:	28000097 	stmdacs	r0, {r0, r1, r2, r4, r7}
    3668:	01000000 	mrseq	r0, (UNDEF: 0)
    366c:	00017e9c 	muleq	r1, ip, lr
    3670:	00630c00 	rsbeq	r0, r3, r0, lsl #24
    3674:	017e0601 	cmneq	lr, r1, lsl #12
    3678:	00000000 	andeq	r0, r0, r0
    367c:	4c0d0900 	stcmi	9, cr0, [sp], {-0}
    3680:	ab000097 	blge	38e4 <_start-0x471c>
    3684:	0e000001 	cdpeq	0, 0, cr0, cr0, cr1, {0}
    3688:	34015201 	strcc	r5, [r1], #-513	; 0x201
    368c:	0151010e 	cmpeq	r1, lr, lsl #2
    3690:	50010e30 	andpl	r0, r1, r0, lsr lr
    3694:	24474203 	strbcs	r4, [r7], #-515	; 0x203
    3698:	040f0000 	streq	r0, [pc], #-0	; 36a0 <_start-0x4960>
    369c:	00000131 	andeq	r0, r0, r1, lsr r1
    36a0:	0004770b 	andeq	r7, r4, fp, lsl #14
    36a4:	7e0c0100 	adfvce	f0, f4, f0
    36a8:	60000001 	andvs	r0, r0, r1
    36ac:	28000097 	stmdacs	r0, {r0, r1, r2, r4, r7}
    36b0:	01000000 	mrseq	r0, (UNDEF: 0)
    36b4:	0001ab9c 	muleq	r1, ip, fp
    36b8:	00630c00 	rsbeq	r0, r3, r0, lsl #24
    36bc:	017e0d01 	cmneq	lr, r1, lsl #26
    36c0:	00000000 	andeq	r0, r0, r0
    36c4:	10000900 	andne	r0, r0, r0, lsl #18
    36c8:	000009fe 	strdeq	r0, [r0], -lr
    36cc:	00931b06 	addseq	r1, r3, r6, lsl #22
    36d0:	93110000 	tstls	r1, #0
    36d4:	11000000 	mrsne	r0, (UNDEF: 0)
    36d8:	00000025 	andeq	r0, r0, r5, lsr #32
    36dc:	00002c11 	andeq	r2, r0, r1, lsl ip
    36e0:	db000000 	blle	36e8 <_start-0x4918>
    36e4:	04000000 	streq	r0, [r0], #-0
    36e8:	00115b00 	andseq	r5, r1, r0, lsl #22
    36ec:	1e010400 	cfcpysne	mvf0, mvf1
    36f0:	01000002 	tsteq	r0, r2
    36f4:	00000a27 	andeq	r0, r0, r7, lsr #20
    36f8:	00000289 	andeq	r0, r0, r9, lsl #5
    36fc:	00009788 	andeq	r9, r0, r8, lsl #15
    3700:	00000020 	andeq	r0, r0, r0, lsr #32
    3704:	00000f40 	andeq	r0, r0, r0, asr #30
    3708:	cd060102 	stfgts	f0, [r6, #-8]
    370c:	02000000 	andeq	r0, r0, #0
    3710:	00cb0801 	sbceq	r0, fp, r1, lsl #16
    3714:	02020000 	andeq	r0, r2, #0
    3718:	0001cb05 	andeq	ip, r1, r5, lsl #22
    371c:	07020200 	streq	r0, [r2, -r0, lsl #4]
    3720:	000000a9 	andeq	r0, r0, r9, lsr #1
    3724:	69050403 	stmdbvs	r5, {r0, r1, sl}
    3728:	0200746e 	andeq	r7, r0, #1845493760	; 0x6e000000
    372c:	01270704 	teqeq	r7, r4, lsl #14
    3730:	08020000 	stmdaeq	r2, {}	; <UNPREDICTABLE>
    3734:	00015605 	andeq	r5, r1, r5, lsl #12
    3738:	07080200 	streq	r0, [r8, -r0, lsl #4]
    373c:	0000011d 	andeq	r0, r0, sp, lsl r1
    3740:	5b050402 	blpl	144750 <__bss_end__+0x13a840>
    3744:	02000001 	andeq	r0, r0, #1
    3748:	01420704 	cmpeq	r2, r4, lsl #14
    374c:	04040000 	streq	r0, [r4], #-0
    3750:	22070402 	andcs	r0, r7, #33554432	; 0x2000000
    3754:	05000001 	streq	r0, [r0, #-1]
    3758:	00007a04 	andeq	r7, r0, r4, lsl #20
    375c:	08010200 	stmdaeq	r1, {r9}
    3760:	000000d4 	ldrdeq	r0, [r0], -r4
    3764:	0009f706 	andeq	pc, r9, r6, lsl #14
    3768:	48d40200 	ldmmi	r4, {r9}^
    376c:	07000000 	streq	r0, [r0, -r0]
    3770:	000009fe 	strdeq	r0, [r0], -lr
    3774:	006b1b03 	rsbeq	r1, fp, r3, lsl #22
    3778:	97880000 	strls	r0, [r8, r0]
    377c:	00200000 	eoreq	r0, r0, r0
    3780:	9c010000 	stcls	0, cr0, [r1], {-0}
    3784:	00705f08 	rsbseq	r5, r0, r8, lsl #30
    3788:	006b0301 	rsbeq	r0, fp, r1, lsl #6
    378c:	50010000 	andpl	r0, r1, r0
    3790:	01006308 	tsteq	r0, r8, lsl #6
    3794:	00004103 	andeq	r4, r0, r3, lsl #2
    3798:	09510100 	ldmdbeq	r1, {r8}^
    379c:	0301006e 	movweq	r0, #4206	; 0x106e
    37a0:	00000081 	andeq	r0, r0, r1, lsl #1
    37a4:	00002316 	andeq	r2, r0, r6, lsl r3
    37a8:	0100700a 	tsteq	r0, sl
    37ac:	00007404 	andeq	r7, r0, r4, lsl #8
    37b0:	00233700 	eoreq	r3, r3, r0, lsl #14
    37b4:	00650b00 	rsbeq	r0, r5, r0, lsl #22
    37b8:	00740401 	rsbseq	r0, r4, r1, lsl #8
    37bc:	52010000 	andpl	r0, r1, #0
	...

Disassembly of section .debug_abbrev:

00000000 <.debug_abbrev>:
       0:	25011101 	strcs	r1, [r1, #-257]	; 0x101
       4:	030b130e 	movweq	r1, #45838	; 0xb30e
       8:	110e1b0e 	tstne	lr, lr, lsl #22
       c:	10061201 	andne	r1, r6, r1, lsl #4
      10:	02000017 	andeq	r0, r0, #23
      14:	0b0b0024 	bleq	2c00ac <__bss_end__+0x2b619c>
      18:	08030b3e 	stmdaeq	r3, {r1, r2, r3, r4, r5, r8, r9, fp}
      1c:	24030000 	strcs	r0, [r3], #-0
      20:	3e0b0b00 	vmlacc.f64	d0, d11, d0
      24:	000e030b 	andeq	r0, lr, fp, lsl #6
      28:	000f0400 	andeq	r0, pc, r0, lsl #8
      2c:	13490b0b 	movtne	r0, #39691	; 0x9b0b
      30:	26050000 	strcs	r0, [r5], -r0
      34:	00134900 	andseq	r4, r3, r0, lsl #18
      38:	01130600 	tsteq	r3, r0, lsl #12
      3c:	0b3a0b0b 	bleq	e82c70 <__bss_end__+0xe78d60>
      40:	13010b3b 	movwne	r0, #6971	; 0x1b3b
      44:	0d070000 	stceq	0, cr0, [r7, #-0]
      48:	3a080300 	bcc	200c50 <__bss_end__+0x1f6d40>
      4c:	490b3b0b 	stmdbmi	fp, {r0, r1, r3, r8, r9, fp, ip, sp}
      50:	000b3813 	andeq	r3, fp, r3, lsl r8
      54:	000d0800 	andeq	r0, sp, r0, lsl #16
      58:	0b3a0e03 	bleq	e8386c <__bss_end__+0xe7995c>
      5c:	13490b3b 	movtne	r0, #39739	; 0x9b3b
      60:	00000b38 	andeq	r0, r0, r8, lsr fp
      64:	03001609 	movweq	r1, #1545	; 0x609
      68:	3b0b3a0e 	blcc	2ce8a8 <__bss_end__+0x2c4998>
      6c:	0013490b 	andseq	r4, r3, fp, lsl #18
      70:	012e0a00 	teqeq	lr, r0, lsl #20
      74:	0e03193f 	mcreq	9, 0, r1, cr3, cr15, {1}
      78:	0b3b0b3a 	bleq	ec2d68 <__bss_end__+0xeb8e58>
      7c:	13491927 	movtne	r1, #39207	; 0x9927
      80:	06120111 			; <UNDEFINED> instruction: 0x06120111
      84:	42971840 	addsmi	r1, r7, #64, 16	; 0x400000
      88:	00130119 	andseq	r0, r3, r9, lsl r1
      8c:	00050b00 	andeq	r0, r5, r0, lsl #22
      90:	0b3a0803 	bleq	e820a4 <__bss_end__+0xe78194>
      94:	13490b3b 	movtne	r0, #39739	; 0x9b3b
      98:	00001702 	andeq	r1, r0, r2, lsl #14
      9c:	0300340c 	movweq	r3, #1036	; 0x40c
      a0:	3413490e 	ldrcc	r4, [r3], #-2318	; 0x90e
      a4:	00180219 	andseq	r0, r8, r9, lsl r2
      a8:	00340d00 	eorseq	r0, r4, r0, lsl #26
      ac:	0b3a0e03 	bleq	e838c0 <__bss_end__+0xe799b0>
      b0:	13490b3b 	movtne	r0, #39739	; 0x9b3b
      b4:	340e0000 	strcc	r0, [lr], #-0
      b8:	3a0e0300 	bcc	380cc0 <__bss_end__+0x376db0>
      bc:	490b3b0b 	stmdbmi	fp, {r0, r1, r3, r8, r9, fp, ip, sp}
      c0:	00170213 	andseq	r0, r7, r3, lsl r2
      c4:	010b0f00 	tsteq	fp, r0, lsl #30
      c8:	06120111 			; <UNDEFINED> instruction: 0x06120111
      cc:	00001301 	andeq	r1, r0, r1, lsl #6
      d0:	01828910 	orreq	r8, r2, r0, lsl r9
      d4:	31011101 	tstcc	r1, r1, lsl #2
      d8:	00130113 	andseq	r0, r3, r3, lsl r1
      dc:	828a1100 	addhi	r1, sl, #0, 2
      e0:	18020001 	stmdane	r2, {r0}
      e4:	00184291 	mulseq	r8, r1, r2
      e8:	82891200 	addhi	r1, r9, #0, 4
      ec:	01110001 	tsteq	r1, r1
      f0:	00001331 	andeq	r1, r0, r1, lsr r3
      f4:	49010113 	stmdbmi	r1, {r0, r1, r4, r8}
      f8:	00130113 	andseq	r0, r3, r3, lsl r1
      fc:	00211400 	eoreq	r1, r1, r0, lsl #8
     100:	0b2f1349 	bleq	bc4e2c <__bss_end__+0xbbaf1c>
     104:	05150000 	ldreq	r0, [r5, #-0]
     108:	3a0e0300 	bcc	380d10 <__bss_end__+0x376e00>
     10c:	490b3b0b 	stmdbmi	fp, {r0, r1, r3, r8, r9, fp, ip, sp}
     110:	00170213 	andseq	r0, r7, r3, lsl r2
     114:	00341600 	eorseq	r1, r4, r0, lsl #12
     118:	0b3a0e03 	bleq	e8392c <__bss_end__+0xe79a1c>
     11c:	13490b3b 	movtne	r0, #39739	; 0x9b3b
     120:	00000b1c 	andeq	r0, r0, ip, lsl fp
     124:	01828917 	orreq	r8, r2, r7, lsl r9
     128:	31011101 	tstcc	r1, r1, lsl #2
     12c:	18000013 	stmdane	r0, {r0, r1, r4}
     130:	193f012e 	ldmdbne	pc!, {r1, r2, r3, r5, r8}	; <UNPREDICTABLE>
     134:	0b3a0e03 	bleq	e83948 <__bss_end__+0xe79a38>
     138:	19270b3b 	stmdbne	r7!, {r0, r1, r3, r4, r5, r8, r9, fp}
     13c:	06120111 			; <UNDEFINED> instruction: 0x06120111
     140:	42971840 	addsmi	r1, r7, #64, 16	; 0x400000
     144:	00130119 	andseq	r0, r3, r9, lsl r1
     148:	00341900 	eorseq	r1, r4, r0, lsl #18
     14c:	0b3a0803 	bleq	e82160 <__bss_end__+0xe78250>
     150:	13490b3b 	movtne	r0, #39739	; 0x9b3b
     154:	00001702 	andeq	r1, r0, r2, lsl #14
     158:	55010b1a 	strpl	r0, [r1, #-2842]	; 0xb1a
     15c:	1b000017 	blne	1c0 <_start-0x7e40>
     160:	0111010b 	tsteq	r1, fp, lsl #2
     164:	00000612 	andeq	r0, r0, r2, lsl r6
     168:	0300341c 	movweq	r3, #1052	; 0x41c
     16c:	3b0b3a08 	blcc	2ce994 <__bss_end__+0x2c4a84>
     170:	1c13490b 	ldcne	9, cr4, [r3], {11}
     174:	1d00000b 	stcne	0, cr0, [r0, #-44]	; 0xffffffd4
     178:	08030034 	stmdaeq	r3, {r2, r4, r5}
     17c:	0b3b0b3a 	bleq	ec2e6c <__bss_end__+0xeb8f5c>
     180:	18021349 	stmdane	r2, {r0, r3, r6, r8, r9, ip}
     184:	2e1e0000 	cdpcs	0, 1, cr0, cr14, cr0, {0}
     188:	03193f01 	tsteq	r9, #1, 30
     18c:	3b0b3a0e 	blcc	2ce9cc <__bss_end__+0x2c4abc>
     190:	3c19270b 	ldccc	7, cr2, [r9], {11}
     194:	00130119 	andseq	r0, r3, r9, lsl r1
     198:	00051f00 	andeq	r1, r5, r0, lsl #30
     19c:	00001349 	andeq	r1, r0, r9, asr #6
     1a0:	3f002e20 	svccc	0x00002e20
     1a4:	3a0e0319 	bcc	380e10 <__bss_end__+0x376f00>
     1a8:	270b3b0b 	strcs	r3, [fp, -fp, lsl #22]
     1ac:	00193c19 	andseq	r3, r9, r9, lsl ip
     1b0:	012e2100 	teqeq	lr, r0, lsl #2
     1b4:	0e03193f 	mcreq	9, 0, r1, cr3, cr15, {1}
     1b8:	0b3b0b3a 	bleq	ec2ea8 <__bss_end__+0xeb8f98>
     1bc:	13491927 	movtne	r1, #39207	; 0x9927
     1c0:	1301193c 	movwne	r1, #6460	; 0x193c
     1c4:	18220000 	stmdane	r2!, {}	; <UNPREDICTABLE>
     1c8:	23000000 	movwcs	r0, #0
     1cc:	193f012e 	ldmdbne	pc!, {r1, r2, r3, r5, r8}	; <UNPREDICTABLE>
     1d0:	0b3a0e03 	bleq	e839e4 <__bss_end__+0xe79ad4>
     1d4:	19270b3b 	stmdbne	r7!, {r0, r1, r3, r4, r5, r8, r9, fp}
     1d8:	0000193c 	andeq	r1, r0, ip, lsr r9
     1dc:	01110100 	tsteq	r1, r0, lsl #2
     1e0:	0b130e25 	bleq	4c3a7c <__bss_end__+0x4b9b6c>
     1e4:	0e1b0e03 	cdpeq	14, 1, cr0, cr11, cr3, {0}
     1e8:	06120111 			; <UNDEFINED> instruction: 0x06120111
     1ec:	00001710 	andeq	r1, r0, r0, lsl r7
     1f0:	03001602 	movweq	r1, #1538	; 0x602
     1f4:	3b0b3a0e 	blcc	2cea34 <__bss_end__+0x2c4b24>
     1f8:	0013490b 	andseq	r4, r3, fp, lsl #18
     1fc:	01130300 	tsteq	r3, r0, lsl #6
     200:	0b0b0e03 	bleq	2c3a14 <__bss_end__+0x2b9b04>
     204:	0b3b0b3a 	bleq	ec2ef4 <__bss_end__+0xeb8fe4>
     208:	00001301 	andeq	r1, r0, r1, lsl #6
     20c:	03000d04 	movweq	r0, #3332	; 0xd04
     210:	3813490e 	ldmdacc	r3, {r1, r2, r3, r8, fp, lr}
     214:	0019340b 	andseq	r3, r9, fp, lsl #8
     218:	000f0500 	andeq	r0, pc, r0, lsl #10
     21c:	00000b0b 	andeq	r0, r0, fp, lsl #22
     220:	0b002406 	bleq	9240 <sw_uart_gets_until+0xc>
     224:	030b3e0b 	movweq	r3, #48651	; 0xbe0b
     228:	07000008 	streq	r0, [r0, -r8]
     22c:	0b0b0024 	bleq	2c02c4 <__bss_end__+0x2b63b4>
     230:	0e030b3e 	vmoveq.16	d3[0], r0
     234:	0f080000 	svceq	0x00080000
     238:	490b0b00 	stmdbmi	fp, {r8, r9, fp}
     23c:	09000013 	stmdbeq	r0, {r0, r1, r4}
     240:	13490026 	movtne	r0, #36902	; 0x9026
     244:	2e0a0000 	cdpcs	0, 0, cr0, cr10, cr0, {0}
     248:	03193f01 	tsteq	r9, #1, 30
     24c:	3b0b3a0e 	blcc	2cea8c <__bss_end__+0x2c4b7c>
     250:	4919270b 	ldmdbmi	r9, {r0, r1, r3, r8, r9, sl, sp}
     254:	12011113 	andne	r1, r1, #-1073741820	; 0xc0000004
     258:	97184006 	ldrls	r4, [r8, -r6]
     25c:	13011942 	movwne	r1, #6466	; 0x1942
     260:	050b0000 	streq	r0, [fp, #-0]
     264:	3a080300 	bcc	200e6c <__bss_end__+0x1f6f5c>
     268:	490b3b0b 	stmdbmi	fp, {r0, r1, r3, r8, r9, fp, ip, sp}
     26c:	00180213 	andseq	r0, r8, r3, lsl r2
     270:	00180c00 	andseq	r0, r8, r0, lsl #24
     274:	340d0000 	strcc	r0, [sp], #-0
     278:	3a080300 	bcc	200e80 <__bss_end__+0x1f6f70>
     27c:	490b3b0b 	stmdbmi	fp, {r0, r1, r3, r8, r9, fp, ip, sp}
     280:	00180213 	andseq	r0, r8, r3, lsl r2
     284:	00340e00 	eorseq	r0, r4, r0, lsl #28
     288:	0b3a0e03 	bleq	e83a9c <__bss_end__+0xe79b8c>
     28c:	13490b3b 	movtne	r0, #39739	; 0x9b3b
     290:	00001802 	andeq	r1, r0, r2, lsl #16
     294:	0300340f 	movweq	r3, #1039	; 0x40f
     298:	3b0b3a08 	blcc	2ceac0 <__bss_end__+0x2c4bb0>
     29c:	0213490b 	andseq	r4, r3, #180224	; 0x2c000
     2a0:	10000017 	andne	r0, r0, r7, lsl r0
     2a4:	01018289 	smlabbeq	r1, r9, r2, r8
     2a8:	13310111 	teqne	r1, #1073741828	; 0x40000004
     2ac:	00001301 	andeq	r1, r0, r1, lsl #6
     2b0:	01828a11 	orreq	r8, r2, r1, lsl sl
     2b4:	91180200 	tstls	r8, r0, lsl #4
     2b8:	00001842 	andeq	r1, r0, r2, asr #16
     2bc:	01828912 	orreq	r8, r2, r2, lsl r9
     2c0:	00011101 	andeq	r1, r1, r1, lsl #2
     2c4:	01011300 	mrseq	r1, SP_irq
     2c8:	13011349 	movwne	r1, #4937	; 0x1349
     2cc:	21140000 	tstcs	r4, r0
     2d0:	2f134900 	svccs	0x00134900
     2d4:	15000005 	strne	r0, [r0, #-5]
     2d8:	19270115 	stmdbne	r7!, {r0, r2, r4, r8}
     2dc:	13011349 	movwne	r1, #4937	; 0x1349
     2e0:	05160000 	ldreq	r0, [r6, #-0]
     2e4:	00134900 	andseq	r4, r3, r0, lsl #18
     2e8:	00341700 	eorseq	r1, r4, r0, lsl #14
     2ec:	0b3a0e03 	bleq	e83b00 <__bss_end__+0xe79bf0>
     2f0:	13490b3b 	movtne	r0, #39739	; 0x9b3b
     2f4:	193c193f 	ldmdbne	ip!, {r0, r1, r2, r3, r4, r5, r8, fp, ip}
     2f8:	2e180000 	cdpcs	0, 1, cr0, cr8, cr0, {0}
     2fc:	03193f01 	tsteq	r9, #1, 30
     300:	3b0b3a0e 	blcc	2ceb40 <__bss_end__+0x2c4c30>
     304:	4919270b 	ldmdbmi	r9, {r0, r1, r3, r8, r9, sl, sp}
     308:	00193c13 	andseq	r3, r9, r3, lsl ip
     30c:	11010000 	mrsne	r0, (UNDEF: 1)
     310:	130e2501 	movwne	r2, #58625	; 0xe501
     314:	1b0e030b 	blne	380f48 <__bss_end__+0x377038>
     318:	1201110e 	andne	r1, r1, #-2147483645	; 0x80000003
     31c:	00171006 	andseq	r1, r7, r6
     320:	00240200 	eoreq	r0, r4, r0, lsl #4
     324:	0b3e0b0b 	bleq	f82f58 <__bss_end__+0xf79048>
     328:	00000803 	andeq	r0, r0, r3, lsl #16
     32c:	0b002403 	bleq	9340 <sw_uart_gets_timeout+0x68>
     330:	030b3e0b 	movweq	r3, #48651	; 0xbe0b
     334:	0400000e 	streq	r0, [r0], #-14
     338:	0e03012e 	adfeqsp	f0, f3, #0.5
     33c:	0b3b0b3a 	bleq	ec302c <__bss_end__+0xeb911c>
     340:	13491927 	movtne	r1, #39207	; 0x9927
     344:	06120111 			; <UNDEFINED> instruction: 0x06120111
     348:	42971840 	addsmi	r1, r7, #64, 16	; 0x400000
     34c:	00130119 	andseq	r0, r3, r9, lsl r1
     350:	00050500 	andeq	r0, r5, r0, lsl #10
     354:	0b3a0803 	bleq	e82368 <__bss_end__+0xe78458>
     358:	13490b3b 	movtne	r0, #39739	; 0x9b3b
     35c:	00001702 	andeq	r1, r0, r2, lsl #14
     360:	01828906 	orreq	r8, r2, r6, lsl #18
     364:	31011101 	tstcc	r1, r1, lsl #2
     368:	07000013 	smladeq	r0, r3, r0, r0
     36c:	0001828a 	andeq	r8, r1, sl, lsl #5
     370:	42911802 	addsmi	r1, r1, #131072	; 0x20000
     374:	08000018 	stmdaeq	r0, {r3, r4}
     378:	193f002e 	ldmdbne	pc!, {r1, r2, r3, r5}	; <UNPREDICTABLE>
     37c:	0b3a0e03 	bleq	e83b90 <__bss_end__+0xe79c80>
     380:	19270b3b 	stmdbne	r7!, {r0, r1, r3, r4, r5, r8, r9, fp}
     384:	06120111 			; <UNDEFINED> instruction: 0x06120111
     388:	42971840 	addsmi	r1, r7, #64, 16	; 0x400000
     38c:	09000019 	stmdbeq	r0, {r0, r3, r4}
     390:	193f012e 	ldmdbne	pc!, {r1, r2, r3, r5, r8}	; <UNPREDICTABLE>
     394:	0b3a0e03 	bleq	e83ba8 <__bss_end__+0xe79c98>
     398:	19270b3b 	stmdbne	r7!, {r0, r1, r3, r4, r5, r8, r9, fp}
     39c:	06120111 			; <UNDEFINED> instruction: 0x06120111
     3a0:	42971840 	addsmi	r1, r7, #64, 16	; 0x400000
     3a4:	00130119 	andseq	r0, r3, r9, lsl r1
     3a8:	00050a00 	andeq	r0, r5, r0, lsl #20
     3ac:	0b3a0803 	bleq	e823c0 <__bss_end__+0xe784b0>
     3b0:	13490b3b 	movtne	r0, #39739	; 0x9b3b
     3b4:	00001802 	andeq	r1, r0, r2, lsl #16
     3b8:	2701150b 	strcs	r1, [r1, -fp, lsl #10]
     3bc:	01134919 	tsteq	r3, r9, lsl r9
     3c0:	0c000013 	stceq	0, cr0, [r0], {19}
     3c4:	13490005 	movtne	r0, #36869	; 0x9005
     3c8:	0f0d0000 	svceq	0x000d0000
     3cc:	490b0b00 	stmdbmi	fp, {r8, r9, fp}
     3d0:	0e000013 	mcreq	0, 0, r0, cr0, cr3, {0}
     3d4:	0e030034 	mcreq	0, 0, r0, cr3, cr4, {1}
     3d8:	0b3b0b3a 	bleq	ec30c8 <__bss_end__+0xeb91b8>
     3dc:	193f1349 	ldmdbne	pc!, {r0, r3, r6, r8, r9, ip}	; <UNPREDICTABLE>
     3e0:	00001802 	andeq	r1, r0, r2, lsl #16
     3e4:	3f012e0f 	svccc	0x00012e0f
     3e8:	3a0e0319 	bcc	381054 <__bss_end__+0x377144>
     3ec:	270b3b0b 	strcs	r3, [fp, -fp, lsl #22]
     3f0:	00193c19 	andseq	r3, r9, r9, lsl ip
     3f4:	11010000 	mrsne	r0, (UNDEF: 1)
     3f8:	130e2501 	movwne	r2, #58625	; 0xe501
     3fc:	1b0e030b 	blne	381030 <__bss_end__+0x377120>
     400:	1201110e 	andne	r1, r1, #-2147483645	; 0x80000003
     404:	00171006 	andseq	r1, r7, r6
     408:	00240200 	eoreq	r0, r4, r0, lsl #4
     40c:	0b3e0b0b 	bleq	f83040 <__bss_end__+0xf79130>
     410:	00000803 	andeq	r0, r0, r3, lsl #16
     414:	0b002403 	bleq	9428 <sw_uart_init_helper+0xc0>
     418:	030b3e0b 	movweq	r3, #48651	; 0xbe0b
     41c:	0400000e 	streq	r0, [r0], #-14
     420:	0b0b000f 	bleq	2c0464 <__bss_end__+0x2b6554>
     424:	00001349 	andeq	r1, r0, r9, asr #6
     428:	49002605 	stmdbmi	r0, {r0, r2, r9, sl, sp}
     42c:	06000013 			; <UNDEFINED> instruction: 0x06000013
     430:	193f012e 	ldmdbne	pc!, {r1, r2, r3, r5, r8}	; <UNPREDICTABLE>
     434:	0b3a0e03 	bleq	e83c48 <__bss_end__+0xe79d38>
     438:	19270b3b 	stmdbne	r7!, {r0, r1, r3, r4, r5, r8, r9, fp}
     43c:	01111349 	tsteq	r1, r9, asr #6
     440:	18400612 	stmdane	r0, {r1, r4, r9, sl}^
     444:	01194296 			; <UNDEFINED> instruction: 0x01194296
     448:	07000013 	smladeq	r0, r3, r0, r0
     44c:	08030005 	stmdaeq	r3, {r0, r2}
     450:	0b3b0b3a 	bleq	ec3140 <__bss_end__+0xeb9230>
     454:	17021349 	strne	r1, [r2, -r9, asr #6]
     458:	15080000 	strne	r0, [r8, #-0]
     45c:	49192701 	ldmdbmi	r9, {r0, r8, r9, sl, sp}
     460:	00130113 	andseq	r0, r3, r3, lsl r1
     464:	00050900 	andeq	r0, r5, r0, lsl #18
     468:	00001349 	andeq	r1, r0, r9, asr #6
     46c:	0300340a 	movweq	r3, #1034	; 0x40a
     470:	3b0b3a0e 	blcc	2cecb0 <__bss_end__+0x2c4da0>
     474:	3f13490b 	svccc	0x0013490b
     478:	00193c19 	andseq	r3, r9, r9, lsl ip
     47c:	00340b00 	eorseq	r0, r4, r0, lsl #22
     480:	0b3a0e03 	bleq	e83c94 <__bss_end__+0xe79d84>
     484:	13490b3b 	movtne	r0, #39739	; 0x9b3b
     488:	1802193f 	stmdane	r2, {r0, r1, r2, r3, r4, r5, r8, fp, ip}
     48c:	01000000 	mrseq	r0, (UNDEF: 0)
     490:	0e250111 	mcreq	1, 1, r0, cr5, cr1, {0}
     494:	0e030b13 	vmoveq.32	d3[0], r0
     498:	01110e1b 	tsteq	r1, fp, lsl lr
     49c:	17100612 			; <UNDEFINED> instruction: 0x17100612
     4a0:	24020000 	strcs	r0, [r2], #-0
     4a4:	3e0b0b00 	vmlacc.f64	d0, d11, d0
     4a8:	0008030b 	andeq	r0, r8, fp, lsl #6
     4ac:	00240300 	eoreq	r0, r4, r0, lsl #6
     4b0:	0b3e0b0b 	bleq	f830e4 <__bss_end__+0xf791d4>
     4b4:	00000e03 	andeq	r0, r0, r3, lsl #28
     4b8:	0b000f04 	bleq	40d0 <_start-0x3f30>
     4bc:	0500000b 	streq	r0, [r0, #-11]
     4c0:	0b0b000f 	bleq	2c0504 <__bss_end__+0x2b65f4>
     4c4:	00001349 	andeq	r1, r0, r9, asr #6
     4c8:	49002606 	stmdbmi	r0, {r1, r2, r9, sl, sp}
     4cc:	07000013 	smladeq	r0, r3, r0, r0
     4d0:	0e030016 	mcreq	0, 0, r0, cr3, cr6, {0}
     4d4:	0b3b0b3a 	bleq	ec31c4 <__bss_end__+0xeb92b4>
     4d8:	00001349 	andeq	r1, r0, r9, asr #6
     4dc:	03011308 	movweq	r1, #4872	; 0x1308
     4e0:	3a0b0b0e 	bcc	2c3120 <__bss_end__+0x2b9210>
     4e4:	010b3b0b 	tsteq	fp, fp, lsl #22
     4e8:	09000013 	stmdbeq	r0, {r0, r1, r4}
     4ec:	0e03000d 	cdpeq	0, 0, cr0, cr3, cr13, {0}
     4f0:	0b381349 	bleq	e0521c <__bss_end__+0xdfb30c>
     4f4:	00001934 	andeq	r1, r0, r4, lsr r9
     4f8:	03012e0a 	movweq	r2, #7690	; 0x1e0a
     4fc:	3b0b3a0e 	blcc	2ced3c <__bss_end__+0x2c4e2c>
     500:	4919270b 	ldmdbmi	r9, {r0, r1, r3, r8, r9, sl, sp}
     504:	12011113 	andne	r1, r1, #-1073741820	; 0xc0000004
     508:	97184006 	ldrls	r4, [r8, -r6]
     50c:	13011942 	movwne	r1, #6466	; 0x1942
     510:	050b0000 	streq	r0, [fp, #-0]
     514:	3a080300 	bcc	20111c <__bss_end__+0x1f720c>
     518:	490b3b0b 	stmdbmi	fp, {r0, r1, r3, r8, r9, fp, ip, sp}
     51c:	00170213 	andseq	r0, r7, r3, lsl r2
     520:	012e0c00 	teqeq	lr, r0, lsl #24
     524:	0b3a0803 	bleq	e82538 <__bss_end__+0xe78628>
     528:	19270b3b 	stmdbne	r7!, {r0, r1, r3, r4, r5, r8, r9, fp}
     52c:	01111349 	tsteq	r1, r9, asr #6
     530:	18400612 	stmdane	r0, {r1, r4, r9, sl}^
     534:	01194297 			; <UNDEFINED> instruction: 0x01194297
     538:	0d000013 	stceq	0, cr0, [r0, #-76]	; 0xffffffb4
     53c:	0e030005 	cdpeq	0, 0, cr0, cr3, cr5, {0}
     540:	0b3b0b3a 	bleq	ec3230 <__bss_end__+0xeb9320>
     544:	17021349 	strne	r1, [r2, -r9, asr #6]
     548:	050e0000 	streq	r0, [lr, #-0]
     54c:	3a0e0300 	bcc	381154 <__bss_end__+0x377244>
     550:	490b3b0b 	stmdbmi	fp, {r0, r1, r3, r8, r9, fp, ip, sp}
     554:	00180213 	andseq	r0, r8, r3, lsl r2
     558:	00340f00 	eorseq	r0, r4, r0, lsl #30
     55c:	0b3a0803 	bleq	e82570 <__bss_end__+0xe78660>
     560:	13490b3b 	movtne	r0, #39739	; 0x9b3b
     564:	00001802 	andeq	r1, r0, r2, lsl #16
     568:	03003410 	movweq	r3, #1040	; 0x410
     56c:	3b0b3a08 	blcc	2ced94 <__bss_end__+0x2c4e84>
     570:	0213490b 	andseq	r4, r3, #180224	; 0x2c000
     574:	11000017 	tstne	r0, r7, lsl r0
     578:	0e030034 	mcreq	0, 0, r0, cr3, cr4, {1}
     57c:	19341349 	ldmdbne	r4!, {r0, r3, r6, r8, r9, ip}
     580:	00001802 	andeq	r1, r0, r2, lsl #16
     584:	11010b12 	tstne	r1, r2, lsl fp
     588:	01061201 	tsteq	r6, r1, lsl #4
     58c:	13000013 	movwne	r0, #19
     590:	0e030034 	mcreq	0, 0, r0, cr3, cr4, {1}
     594:	0b3b0b3a 	bleq	ec3284 <__bss_end__+0xeb9374>
     598:	17021349 	strne	r1, [r2, -r9, asr #6]
     59c:	89140000 	ldmdbhi	r4, {}	; <UNPREDICTABLE>
     5a0:	11000182 	smlabbne	r0, r2, r1, r0
     5a4:	00133101 	andseq	r3, r3, r1, lsl #2
     5a8:	82891500 	addhi	r1, r9, #0, 10
     5ac:	01110101 	tsteq	r1, r1, lsl #2
     5b0:	13011331 	movwne	r1, #4913	; 0x1331
     5b4:	8a160000 	bhi	5805bc <__bss_end__+0x5766ac>
     5b8:	02000182 	andeq	r0, r0, #-2147483616	; 0x80000020
     5bc:	18429118 	stmdane	r2, {r3, r4, r8, ip, pc}^
     5c0:	89170000 	ldmdbhi	r7, {}	; <UNPREDICTABLE>
     5c4:	11010182 	smlabbne	r1, r2, r1, r0
     5c8:	00133101 	andseq	r3, r3, r1, lsl #2
     5cc:	01011800 	tsteq	r1, r0, lsl #16
     5d0:	13011349 	movwne	r1, #4937	; 0x1349
     5d4:	21190000 	tstcs	r9, r0
     5d8:	2f134900 	svccs	0x00134900
     5dc:	1a00000b 	bne	610 <_start-0x79f0>
     5e0:	193f012e 	ldmdbne	pc!, {r1, r2, r3, r5, r8}	; <UNPREDICTABLE>
     5e4:	0b3a0e03 	bleq	e83df8 <__bss_end__+0xe79ee8>
     5e8:	19270b3b 	stmdbne	r7!, {r0, r1, r3, r4, r5, r8, r9, fp}
     5ec:	06120111 			; <UNDEFINED> instruction: 0x06120111
     5f0:	42971840 	addsmi	r1, r7, #64, 16	; 0x400000
     5f4:	00130119 	andseq	r0, r3, r9, lsl r1
     5f8:	01151b00 	tsteq	r5, r0, lsl #22
     5fc:	13491927 	movtne	r1, #39207	; 0x9927
     600:	00001301 	andeq	r1, r0, r1, lsl #6
     604:	4900051c 	stmdbmi	r0, {r2, r3, r4, r8, sl}
     608:	1d000013 	stcne	0, cr0, [r0, #-76]	; 0xffffffb4
     60c:	193f012e 	ldmdbne	pc!, {r1, r2, r3, r5, r8}	; <UNPREDICTABLE>
     610:	0b3a0e03 	bleq	e83e24 <__bss_end__+0xe79f14>
     614:	19270b3b 	stmdbne	r7!, {r0, r1, r3, r4, r5, r8, r9, fp}
     618:	01111349 	tsteq	r1, r9, asr #6
     61c:	18400612 	stmdane	r0, {r1, r4, r9, sl}^
     620:	01194297 			; <UNDEFINED> instruction: 0x01194297
     624:	1e000013 	mcrne	0, 0, r0, cr0, cr3, {0}
     628:	1755010b 	ldrbne	r0, [r5, -fp, lsl #2]
     62c:	341f0000 	ldrcc	r0, [pc], #-0	; 634 <_start-0x79cc>
     630:	3a0e0300 	bcc	381238 <__bss_end__+0x377328>
     634:	490b3b0b 	stmdbmi	fp, {r0, r1, r3, r8, r9, fp, ip, sp}
     638:	3c193f13 	ldccc	15, cr3, [r9], {19}
     63c:	20000019 	andcs	r0, r0, r9, lsl r0
     640:	193f002e 	ldmdbne	pc!, {r1, r2, r3, r5}	; <UNPREDICTABLE>
     644:	0b3a0e03 	bleq	e83e58 <__bss_end__+0xe79f48>
     648:	19270b3b 	stmdbne	r7!, {r0, r1, r3, r4, r5, r8, r9, fp}
     64c:	0000193c 	andeq	r1, r0, ip, lsr r9
     650:	3f012e21 	svccc	0x00012e21
     654:	3a0e0319 	bcc	3812c0 <__bss_end__+0x3773b0>
     658:	270b3b0b 	strcs	r3, [fp, -fp, lsl #22]
     65c:	3c134919 	ldccc	9, cr4, [r3], {25}
     660:	00130119 	andseq	r0, r3, r9, lsl r1
     664:	00182200 	andseq	r2, r8, r0, lsl #4
     668:	01000000 	mrseq	r0, (UNDEF: 0)
     66c:	0e250111 	mcreq	1, 1, r0, cr5, cr1, {0}
     670:	0e030b13 	vmoveq.32	d3[0], r0
     674:	01110e1b 	tsteq	r1, fp, lsl lr
     678:	17100612 			; <UNDEFINED> instruction: 0x17100612
     67c:	24020000 	strcs	r0, [r2], #-0
     680:	3e0b0b00 	vmlacc.f64	d0, d11, d0
     684:	0008030b 	andeq	r0, r8, fp, lsl #6
     688:	00240300 	eoreq	r0, r4, r0, lsl #6
     68c:	0b3e0b0b 	bleq	f832c0 <__bss_end__+0xf793b0>
     690:	00000e03 	andeq	r0, r0, r3, lsl #28
     694:	0b000f04 	bleq	42ac <_start-0x3d54>
     698:	0013490b 	andseq	r4, r3, fp, lsl #18
     69c:	00260500 	eoreq	r0, r6, r0, lsl #10
     6a0:	00001349 	andeq	r1, r0, r9, asr #6
     6a4:	3f012e06 	svccc	0x00012e06
     6a8:	3a0e0319 	bcc	381314 <__bss_end__+0x377404>
     6ac:	270b3b0b 	strcs	r3, [fp, -fp, lsl #22]
     6b0:	12011119 	andne	r1, r1, #1073741830	; 0x40000006
     6b4:	97184006 	ldrls	r4, [r8, -r6]
     6b8:	13011942 	movwne	r1, #6466	; 0x1942
     6bc:	89070000 	stmdbhi	r7, {}	; <UNPREDICTABLE>
     6c0:	11010182 	smlabbne	r1, r2, r1, r0
     6c4:	00130101 	andseq	r0, r3, r1, lsl #2
     6c8:	828a0800 	addhi	r0, sl, #0, 16
     6cc:	18020001 	stmdane	r2, {r0}
     6d0:	00184291 	mulseq	r8, r1, r2
     6d4:	82890900 	addhi	r0, r9, #0, 18
     6d8:	01110101 	tsteq	r1, r1, lsl #2
     6dc:	13011331 	movwne	r1, #4913	; 0x1331
     6e0:	890a0000 	stmdbhi	sl, {}	; <UNPREDICTABLE>
     6e4:	11000182 	smlabbne	r0, r2, r1, r0
     6e8:	00133101 	andseq	r3, r3, r1, lsl #2
     6ec:	01150b00 	tsteq	r5, r0, lsl #22
     6f0:	13491927 	movtne	r1, #39207	; 0x9927
     6f4:	00001301 	andeq	r1, r0, r1, lsl #6
     6f8:	4900050c 	stmdbmi	r0, {r2, r3, r8, sl}
     6fc:	0d000013 	stceq	0, cr0, [r0, #-76]	; 0xffffffb4
     700:	0e030034 	mcreq	0, 0, r0, cr3, cr4, {1}
     704:	0b3b0b3a 	bleq	ec33f4 <__bss_end__+0xeb94e4>
     708:	193f1349 	ldmdbne	pc!, {r0, r3, r6, r8, r9, ip}	; <UNPREDICTABLE>
     70c:	0000193c 	andeq	r1, r0, ip, lsr r9
     710:	3f012e0e 	svccc	0x00012e0e
     714:	3a0e0319 	bcc	381380 <__bss_end__+0x377470>
     718:	270b3b0b 	strcs	r3, [fp, -fp, lsl #22]
     71c:	01193c19 	tsteq	r9, r9, lsl ip
     720:	0f000013 	svceq	0x00000013
     724:	193f002e 	ldmdbne	pc!, {r1, r2, r3, r5}	; <UNPREDICTABLE>
     728:	0b3a0e03 	bleq	e83f3c <__bss_end__+0xe7a02c>
     72c:	19270b3b 	stmdbne	r7!, {r0, r1, r3, r4, r5, r8, r9, fp}
     730:	0000193c 	andeq	r1, r0, ip, lsr r9
     734:	01110100 	tsteq	r1, r0, lsl #2
     738:	0b130e25 	bleq	4c3fd4 <__bss_end__+0x4ba0c4>
     73c:	0e1b0e03 	cdpeq	14, 1, cr0, cr11, cr3, {0}
     740:	06120111 			; <UNDEFINED> instruction: 0x06120111
     744:	00001710 	andeq	r1, r0, r0, lsl r7
     748:	0b002402 	bleq	9758 <cb_new+0x20>
     74c:	030b3e0b 	movweq	r3, #48651	; 0xbe0b
     750:	03000008 	movweq	r0, #8
     754:	0b0b0024 	bleq	2c07ec <__bss_end__+0x2b68dc>
     758:	0e030b3e 	vmoveq.16	d3[0], r0
     75c:	16040000 	strne	r0, [r4], -r0
     760:	3a0e0300 	bcc	381368 <__bss_end__+0x377458>
     764:	490b3b0b 	stmdbmi	fp, {r0, r1, r3, r8, r9, fp, ip, sp}
     768:	05000013 	streq	r0, [r0, #-19]
     76c:	0b0b000f 	bleq	2c07b0 <__bss_end__+0x2b68a0>
     770:	00001349 	andeq	r1, r0, r9, asr #6
     774:	49002606 	stmdbmi	r0, {r1, r2, r9, sl, sp}
     778:	07000013 	smladeq	r0, r3, r0, r0
     77c:	0b0b0113 	bleq	2c0bd0 <__bss_end__+0x2b6cc0>
     780:	0b3b0b3a 	bleq	ec3470 <__bss_end__+0xeb9560>
     784:	00001301 	andeq	r1, r0, r1, lsl #6
     788:	03000d08 	movweq	r0, #3336	; 0xd08
     78c:	3b0b3a08 	blcc	2cefb4 <__bss_end__+0x2c50a4>
     790:	3813490b 	ldmdacc	r3, {r0, r1, r3, r8, fp, lr}
     794:	0900000b 	stmdbeq	r0, {r0, r1, r3}
     798:	0e03000d 	cdpeq	0, 0, cr0, cr3, cr13, {0}
     79c:	0b3b0b3a 	bleq	ec348c <__bss_end__+0xeb957c>
     7a0:	0b381349 	bleq	e054cc <__bss_end__+0xdfb5bc>
     7a4:	040a0000 	streq	r0, [sl], #-0
     7a8:	3a0b0b01 	bcc	2c33b4 <__bss_end__+0x2b94a4>
     7ac:	010b3b0b 	tsteq	fp, fp, lsl #22
     7b0:	0b000013 	bleq	804 <_start-0x77fc>
     7b4:	0e030028 	cdpeq	0, 0, cr0, cr3, cr8, {1}
     7b8:	00000d1c 	andeq	r0, r0, ip, lsl sp
     7bc:	03012e0c 	movweq	r2, #7692	; 0x1e0c
     7c0:	3b0b3a0e 	blcc	2cf000 <__bss_end__+0x2c50f0>
     7c4:	4919270b 	ldmdbmi	r9, {r0, r1, r3, r8, r9, sl, sp}
     7c8:	12011113 	andne	r1, r1, #-1073741820	; 0xc0000004
     7cc:	97184006 	ldrls	r4, [r8, -r6]
     7d0:	13011942 	movwne	r1, #6466	; 0x1942
     7d4:	050d0000 	streq	r0, [sp, #-0]
     7d8:	3a080300 	bcc	2013e0 <__bss_end__+0x1f74d0>
     7dc:	490b3b0b 	stmdbmi	fp, {r0, r1, r3, r8, r9, fp, ip, sp}
     7e0:	00170213 	andseq	r0, r7, r3, lsl r2
     7e4:	82890e00 	addhi	r0, r9, #0, 28
     7e8:	01110101 	tsteq	r1, r1, lsl #2
     7ec:	00001331 	andeq	r1, r0, r1, lsr r3
     7f0:	01828a0f 	orreq	r8, r2, pc, lsl #20
     7f4:	91180200 	tstls	r8, r0, lsl #4
     7f8:	00001842 	andeq	r1, r0, r2, asr #16
     7fc:	3f012e10 	svccc	0x00012e10
     800:	3a0e0319 	bcc	38146c <__bss_end__+0x37755c>
     804:	110b3b0b 	tstne	fp, fp, lsl #22
     808:	40061201 	andmi	r1, r6, r1, lsl #4
     80c:	19429718 	stmdbne	r2, {r3, r4, r8, r9, sl, ip, pc}^
     810:	00001301 	andeq	r1, r0, r1, lsl #6
     814:	03003411 	movweq	r3, #1041	; 0x411
     818:	3b0b3a0e 	blcc	2cf058 <__bss_end__+0x2c5148>
     81c:	3f13490b 	svccc	0x0013490b
     820:	00193c19 	andseq	r3, r9, r9, lsl ip
     824:	002e1200 	eoreq	r1, lr, r0, lsl #4
     828:	0e03193f 	mcreq	9, 0, r1, cr3, cr15, {1}
     82c:	0b3b0b3a 	bleq	ec351c <__bss_end__+0xeb960c>
     830:	193c1927 	ldmdbne	ip!, {r0, r1, r2, r5, r8, fp, ip}
     834:	34130000 	ldrcc	r0, [r3], #-0
     838:	3a080300 	bcc	201440 <__bss_end__+0x1f7530>
     83c:	490b3b0b 	stmdbmi	fp, {r0, r1, r3, r8, r9, fp, ip, sp}
     840:	00170213 	andseq	r0, r7, r3, lsl r2
     844:	00341400 	eorseq	r1, r4, r0, lsl #8
     848:	0b3a0e03 	bleq	e8405c <__bss_end__+0xe7a14c>
     84c:	13490b3b 	movtne	r0, #39739	; 0x9b3b
     850:	89150000 	ldmdbhi	r5, {}	; <UNPREDICTABLE>
     854:	11000182 	smlabbne	r0, r2, r1, r0
     858:	00133101 	andseq	r3, r3, r1, lsl #2
     85c:	82891600 	addhi	r1, r9, #0, 12
     860:	01110101 	tsteq	r1, r1, lsl #2
     864:	13011331 	movwne	r1, #4913	; 0x1331
     868:	34170000 	ldrcc	r0, [r7], #-0
     86c:	3a0e0300 	bcc	381474 <__bss_end__+0x377564>
     870:	490b3b0b 	stmdbmi	fp, {r0, r1, r3, r8, r9, fp, ip, sp}
     874:	00180213 	andseq	r0, r8, r3, lsl r2
     878:	01151800 	tsteq	r5, r0, lsl #16
     87c:	13491927 	movtne	r1, #39207	; 0x9927
     880:	00001301 	andeq	r1, r0, r1, lsl #6
     884:	49000519 	stmdbmi	r0, {r0, r3, r4, r8, sl}
     888:	1a000013 	bne	8dc <_start-0x7724>
     88c:	193f012e 	ldmdbne	pc!, {r1, r2, r3, r5, r8}	; <UNPREDICTABLE>
     890:	0b3a0e03 	bleq	e840a4 <__bss_end__+0xe7a194>
     894:	19270b3b 	stmdbne	r7!, {r0, r1, r3, r4, r5, r8, r9, fp}
     898:	1301193c 	movwne	r1, #6460	; 0x193c
     89c:	2e1b0000 	cdpcs	0, 1, cr0, cr11, cr0, {0}
     8a0:	03193f00 	tsteq	r9, #0, 30
     8a4:	3b0b3a0e 	blcc	2cf0e4 <__bss_end__+0x2c51d4>
     8a8:	4919270b 	ldmdbmi	r9, {r0, r1, r3, r8, r9, sl, sp}
     8ac:	00193c13 	andseq	r3, r9, r3, lsl ip
     8b0:	012e1c00 	teqeq	lr, r0, lsl #24
     8b4:	0e03193f 	mcreq	9, 0, r1, cr3, cr15, {1}
     8b8:	0b3b0b3a 	bleq	ec35a8 <__bss_end__+0xeb9698>
     8bc:	13491927 	movtne	r1, #39207	; 0x9927
     8c0:	1301193c 	movwne	r1, #6460	; 0x193c
     8c4:	181d0000 	ldmdane	sp, {}	; <UNPREDICTABLE>
     8c8:	00000000 	andeq	r0, r0, r0
     8cc:	25011101 	strcs	r1, [r1, #-257]	; 0x101
     8d0:	030b130e 	movweq	r1, #45838	; 0xb30e
     8d4:	550e1b0e 	strpl	r1, [lr, #-2830]	; 0xb0e
     8d8:	10011117 	andne	r1, r1, r7, lsl r1
     8dc:	02000017 	andeq	r0, r0, #23
     8e0:	0b0b0024 	bleq	2c0978 <__bss_end__+0x2b6a68>
     8e4:	08030b3e 	stmdaeq	r3, {r1, r2, r3, r4, r5, r8, r9, fp}
     8e8:	24030000 	strcs	r0, [r3], #-0
     8ec:	3e0b0b00 	vmlacc.f64	d0, d11, d0
     8f0:	000e030b 	andeq	r0, lr, fp, lsl #6
     8f4:	012e0400 	teqeq	lr, r0, lsl #8
     8f8:	0e03193f 	mcreq	9, 0, r1, cr3, cr15, {1}
     8fc:	0b3b0b3a 	bleq	ec35ec <__bss_end__+0xeb96dc>
     900:	13491927 	movtne	r1, #39207	; 0x9927
     904:	06120111 			; <UNDEFINED> instruction: 0x06120111
     908:	42971840 	addsmi	r1, r7, #64, 16	; 0x400000
     90c:	00130119 	andseq	r0, r3, r9, lsl r1
     910:	00340500 	eorseq	r0, r4, r0, lsl #10
     914:	0b3a0e03 	bleq	e84128 <__bss_end__+0xe7a218>
     918:	13490b3b 	movtne	r0, #39739	; 0x9b3b
     91c:	00001702 	andeq	r1, r0, r2, lsl #14
     920:	3f012e06 	svccc	0x00012e06
     924:	3a0e0319 	bcc	381590 <__bss_end__+0x377680>
     928:	270b3b0b 	strcs	r3, [fp, -fp, lsl #22]
     92c:	12011119 	andne	r1, r1, #1073741830	; 0x40000006
     930:	97184006 	ldrls	r4, [r8, -r6]
     934:	13011942 	movwne	r1, #6466	; 0x1942
     938:	34070000 	strcc	r0, [r7], #-0
     93c:	3a0e0300 	bcc	381544 <__bss_end__+0x377634>
     940:	490b3b0b 	stmdbmi	fp, {r0, r1, r3, r8, r9, fp, ip, sp}
     944:	00061c13 	andeq	r1, r6, r3, lsl ip
     948:	00340800 	eorseq	r0, r4, r0, lsl #16
     94c:	0b3a0e03 	bleq	e84160 <__bss_end__+0xe7a250>
     950:	13490b3b 	movtne	r0, #39739	; 0x9b3b
     954:	00000b1c 	andeq	r0, r0, ip, lsl fp
     958:	01828909 	orreq	r8, r2, r9, lsl #18
     95c:	31011100 	mrscc	r1, (UNDEF: 17)
     960:	0a000013 	beq	9b4 <_start-0x764c>
     964:	01018289 	smlabbeq	r1, r9, r2, r8
     968:	13310111 	teqne	r1, #1073741828	; 0x40000004
     96c:	00001301 	andeq	r1, r0, r1, lsl #6
     970:	01828a0b 	orreq	r8, r2, fp, lsl #20
     974:	91180200 	tstls	r8, r0, lsl #4
     978:	00001842 	andeq	r1, r0, r2, asr #16
     97c:	0182890c 	orreq	r8, r2, ip, lsl #18
     980:	31011101 	tstcc	r1, r1, lsl #2
     984:	0d000013 	stceq	0, cr0, [r0, #-76]	; 0xffffffb4
     988:	13490026 	movtne	r0, #36902	; 0x9026
     98c:	2e0e0000 	cdpcs	0, 0, cr0, cr14, cr0, {0}
     990:	03193f01 	tsteq	r9, #1, 30
     994:	3b0b3a0e 	blcc	2cf1d4 <__bss_end__+0x2c52c4>
     998:	3c19270b 	ldccc	7, cr2, [r9], {11}
     99c:	00130119 	andseq	r0, r3, r9, lsl r1
     9a0:	00050f00 	andeq	r0, r5, r0, lsl #30
     9a4:	00001349 	andeq	r1, r0, r9, asr #6
     9a8:	3f012e10 	svccc	0x00012e10
     9ac:	3a0e0319 	bcc	381618 <__bss_end__+0x377708>
     9b0:	270b3b0b 	strcs	r3, [fp, -fp, lsl #22]
     9b4:	00193c19 	andseq	r3, r9, r9, lsl ip
     9b8:	11010000 	mrsne	r0, (UNDEF: 1)
     9bc:	130e2501 	movwne	r2, #58625	; 0xe501
     9c0:	1b0e030b 	blne	3815f4 <__bss_end__+0x3776e4>
     9c4:	1201110e 	andne	r1, r1, #-2147483645	; 0x80000003
     9c8:	00171006 	andseq	r1, r7, r6
     9cc:	00240200 	eoreq	r0, r4, r0, lsl #4
     9d0:	0b3e0b0b 	bleq	f83604 <__bss_end__+0xf796f4>
     9d4:	00000803 	andeq	r0, r0, r3, lsl #16
     9d8:	0b002403 	bleq	99ec <__FUNCTION__.4314>
     9dc:	030b3e0b 	movweq	r3, #48651	; 0xbe0b
     9e0:	0400000e 	streq	r0, [r0], #-14
     9e4:	193f012e 	ldmdbne	pc!, {r1, r2, r3, r5, r8}	; <UNPREDICTABLE>
     9e8:	0b3a0e03 	bleq	e841fc <__bss_end__+0xe7a2ec>
     9ec:	19270b3b 	stmdbne	r7!, {r0, r1, r3, r4, r5, r8, r9, fp}
     9f0:	06120111 			; <UNDEFINED> instruction: 0x06120111
     9f4:	42971840 	addsmi	r1, r7, #64, 16	; 0x400000
     9f8:	00130119 	andseq	r0, r3, r9, lsl r1
     9fc:	00050500 	andeq	r0, r5, r0, lsl #10
     a00:	0b3a0e03 	bleq	e84214 <__bss_end__+0xe7a304>
     a04:	13490b3b 	movtne	r0, #39739	; 0x9b3b
     a08:	00001702 	andeq	r1, r0, r2, lsl #14
     a0c:	3f012e06 	svccc	0x00012e06
     a10:	3a0e0319 	bcc	38167c <__bss_end__+0x37776c>
     a14:	270b3b0b 	strcs	r3, [fp, -fp, lsl #22]
     a18:	11134919 	tstne	r3, r9, lsl r9
     a1c:	40061201 	andmi	r1, r6, r1, lsl #4
     a20:	19429718 	stmdbne	r2, {r3, r4, r8, r9, sl, ip, pc}^
     a24:	00001301 	andeq	r1, r0, r1, lsl #6
     a28:	01828907 	orreq	r8, r2, r7, lsl #18
     a2c:	31011101 	tstcc	r1, r1, lsl #2
     a30:	08000013 	stmdaeq	r0, {r0, r1, r4}
     a34:	0001828a 	andeq	r8, r1, sl, lsl #5
     a38:	42911802 	addsmi	r1, r1, #131072	; 0x20000
     a3c:	09000018 	stmdbeq	r0, {r3, r4}
     a40:	08030034 	stmdaeq	r3, {r2, r4, r5}
     a44:	0b3b0b3a 	bleq	ec3734 <__bss_end__+0xeb9824>
     a48:	18021349 	stmdane	r2, {r0, r3, r6, r8, r9, ip}
     a4c:	890a0000 	stmdbhi	sl, {}	; <UNPREDICTABLE>
     a50:	11000182 	smlabbne	r0, r2, r1, r0
     a54:	00133101 	andseq	r3, r3, r1, lsl #2
     a58:	00050b00 	andeq	r0, r5, r0, lsl #22
     a5c:	0b3a0803 	bleq	e82a70 <__bss_end__+0xe78b60>
     a60:	13490b3b 	movtne	r0, #39739	; 0x9b3b
     a64:	00001702 	andeq	r1, r0, r2, lsl #14
     a68:	11010b0c 	tstne	r1, ip, lsl #22
     a6c:	01061201 	tsteq	r6, r1, lsl #4
     a70:	0d000013 	stceq	0, cr0, [r0, #-76]	; 0xffffffb4
     a74:	08030034 	stmdaeq	r3, {r2, r4, r5}
     a78:	0b3b0b3a 	bleq	ec3768 <__bss_end__+0xeb9858>
     a7c:	17021349 	strne	r1, [r2, -r9, asr #6]
     a80:	2e0e0000 	cdpcs	0, 0, cr0, cr14, cr0, {0}
     a84:	03193f01 	tsteq	r9, #1, 30
     a88:	3b0b3a0e 	blcc	2cf2c8 <__bss_end__+0x2c53b8>
     a8c:	4919270b 	ldmdbmi	r9, {r0, r1, r3, r8, r9, sl, sp}
     a90:	00193c13 	andseq	r3, r9, r3, lsl ip
     a94:	00050f00 	andeq	r0, r5, r0, lsl #30
     a98:	00001349 	andeq	r1, r0, r9, asr #6
     a9c:	01110100 	tsteq	r1, r0, lsl #2
     aa0:	0b130e25 	bleq	4c433c <__bss_end__+0x4ba42c>
     aa4:	0e1b0e03 	cdpeq	14, 1, cr0, cr11, cr3, {0}
     aa8:	06120111 			; <UNDEFINED> instruction: 0x06120111
     aac:	00001710 	andeq	r1, r0, r0, lsl r7
     ab0:	0b002402 	bleq	9ac0 <__FUNCTION__.4376+0x74>
     ab4:	030b3e0b 	movweq	r3, #48651	; 0xbe0b
     ab8:	0300000e 	movweq	r0, #14
     abc:	0b0b0024 	bleq	2c0b54 <__bss_end__+0x2b6c44>
     ac0:	08030b3e 	stmdaeq	r3, {r1, r2, r3, r4, r5, r8, r9, fp}
     ac4:	04040000 	streq	r0, [r4], #-0
     ac8:	3a0b0b01 	bcc	2c36d4 <__bss_end__+0x2b97c4>
     acc:	010b3b0b 	tsteq	fp, fp, lsl #22
     ad0:	05000013 	streq	r0, [r0, #-19]
     ad4:	0e030028 	cdpeq	0, 0, cr0, cr3, cr8, {1}
     ad8:	00000d1c 	andeq	r0, r0, ip, lsl sp
     adc:	03001606 	movweq	r1, #1542	; 0x606
     ae0:	3b0b3a0e 	blcc	2cf320 <__bss_end__+0x2c5410>
     ae4:	0013490b 	andseq	r4, r3, fp, lsl #18
     ae8:	012e0700 	teqeq	lr, r0, lsl #14
     aec:	0e03193f 	mcreq	9, 0, r1, cr3, cr15, {1}
     af0:	0b3b0b3a 	bleq	ec37e0 <__bss_end__+0xeb98d0>
     af4:	01111927 	tsteq	r1, r7, lsr #18
     af8:	18400612 	stmdane	r0, {r1, r4, r9, sl}^
     afc:	01194297 			; <UNDEFINED> instruction: 0x01194297
     b00:	08000013 	stmdaeq	r0, {r0, r1, r4}
     b04:	08030005 	stmdaeq	r3, {r0, r2}
     b08:	0b3b0b3a 	bleq	ec37f8 <__bss_end__+0xeb98e8>
     b0c:	17021349 	strne	r1, [r2, -r9, asr #6]
     b10:	34090000 	strcc	r0, [r9], #-0
     b14:	3a0e0300 	bcc	38171c <__bss_end__+0x37780c>
     b18:	490b3b0b 	stmdbmi	fp, {r0, r1, r3, r8, r9, fp, ip, sp}
     b1c:	00170213 	andseq	r0, r7, r3, lsl r2
     b20:	82890a00 	addhi	r0, r9, #0, 20
     b24:	01110101 	tsteq	r1, r1, lsl #2
     b28:	13011331 	movwne	r1, #4913	; 0x1331
     b2c:	8a0b0000 	bhi	2c0b34 <__bss_end__+0x2b6c24>
     b30:	02000182 	andeq	r0, r0, #-2147483616	; 0x80000020
     b34:	18429118 	stmdane	r2, {r3, r4, r8, ip, pc}^
     b38:	890c0000 	stmdbhi	ip, {}	; <UNPREDICTABLE>
     b3c:	11010182 	smlabbne	r1, r2, r1, r0
     b40:	00133101 	andseq	r3, r3, r1, lsl #2
     b44:	000f0d00 	andeq	r0, pc, r0, lsl #26
     b48:	13490b0b 	movtne	r0, #39691	; 0x9b0b
     b4c:	350e0000 	strcc	r0, [lr, #-0]
     b50:	00134900 	andseq	r4, r3, r0, lsl #18
     b54:	012e0f00 	teqeq	lr, r0, lsl #30
     b58:	0e03193f 	mcreq	9, 0, r1, cr3, cr15, {1}
     b5c:	0b3b0b3a 	bleq	ec384c <__bss_end__+0xeb993c>
     b60:	13491927 	movtne	r1, #39207	; 0x9927
     b64:	06120111 			; <UNDEFINED> instruction: 0x06120111
     b68:	42971840 	addsmi	r1, r7, #64, 16	; 0x400000
     b6c:	00130119 	andseq	r0, r3, r9, lsl r1
     b70:	00341000 	eorseq	r1, r4, r0
     b74:	0b3a0803 	bleq	e82b88 <__bss_end__+0xe78c78>
     b78:	13490b3b 	movtne	r0, #39739	; 0x9b3b
     b7c:	00001702 	andeq	r1, r0, r2, lsl #14
     b80:	01828911 	orreq	r8, r2, r1, lsl r9
     b84:	31011100 	mrscc	r1, (UNDEF: 17)
     b88:	12000013 	andne	r0, r0, #19
     b8c:	0e030005 	cdpeq	0, 0, cr0, cr3, cr5, {0}
     b90:	0b3b0b3a 	bleq	ec3880 <__bss_end__+0xeb9970>
     b94:	17021349 	strne	r1, [r2, -r9, asr #6]
     b98:	2e130000 	cdpcs	0, 1, cr0, cr3, cr0, {0}
     b9c:	03193f01 	tsteq	r9, #1, 30
     ba0:	3b0b3a0e 	blcc	2cf3e0 <__bss_end__+0x2c54d0>
     ba4:	49192705 	ldmdbmi	r9, {r0, r2, r8, r9, sl, sp}
     ba8:	12011113 	andne	r1, r1, #-1073741820	; 0xc0000004
     bac:	97184006 	ldrls	r4, [r8, -r6]
     bb0:	13011942 	movwne	r1, #6466	; 0x1942
     bb4:	05140000 	ldreq	r0, [r4, #-0]
     bb8:	3a0e0300 	bcc	3817c0 <__bss_end__+0x3778b0>
     bbc:	49053b0b 	stmdbmi	r5, {r0, r1, r3, r8, r9, fp, ip, sp}
     bc0:	00170213 	andseq	r0, r7, r3, lsl r2
     bc4:	012e1500 	teqeq	lr, r0, lsl #10
     bc8:	0e03193f 	mcreq	9, 0, r1, cr3, cr15, {1}
     bcc:	053b0b3a 	ldreq	r0, [fp, #-2874]!	; 0xb3a
     bd0:	01111927 	tsteq	r1, r7, lsr #18
     bd4:	18400612 	stmdane	r0, {r1, r4, r9, sl}^
     bd8:	01194297 			; <UNDEFINED> instruction: 0x01194297
     bdc:	16000013 			; <UNDEFINED> instruction: 0x16000013
     be0:	08030005 	stmdaeq	r3, {r0, r2}
     be4:	053b0b3a 	ldreq	r0, [fp, #-2874]!	; 0xb3a
     be8:	17021349 	strne	r1, [r2, -r9, asr #6]
     bec:	34170000 	ldrcc	r0, [r7], #-0
     bf0:	3a0e0300 	bcc	3817f8 <__bss_end__+0x3778e8>
     bf4:	49053b0b 	stmdbmi	r5, {r0, r1, r3, r8, r9, fp, ip, sp}
     bf8:	00170213 	andseq	r0, r7, r3, lsl r2
     bfc:	010b1800 	tsteq	fp, r0, lsl #16
     c00:	06120111 			; <UNDEFINED> instruction: 0x06120111
     c04:	00001301 	andeq	r1, r0, r1, lsl #6
     c08:	03003419 	movweq	r3, #1049	; 0x419
     c0c:	3b0b3a0e 	blcc	2cf44c <__bss_end__+0x2c553c>
     c10:	3f13490b 	svccc	0x0013490b
     c14:	00180219 	andseq	r0, r8, r9, lsl r2
     c18:	00341a00 	eorseq	r1, r4, r0, lsl #20
     c1c:	0b3a0e03 	bleq	e84430 <__bss_end__+0xe7a520>
     c20:	1349053b 	movtne	r0, #38203	; 0x953b
     c24:	1802193f 	stmdane	r2, {r0, r1, r2, r3, r4, r5, r8, fp, ip}
     c28:	2e1b0000 	cdpcs	0, 1, cr0, cr11, cr0, {0}
     c2c:	03193f01 	tsteq	r9, #1, 30
     c30:	3b0b3a0e 	blcc	2cf470 <__bss_end__+0x2c5560>
     c34:	4919270b 	ldmdbmi	r9, {r0, r1, r3, r8, r9, sl, sp}
     c38:	01193c13 	tsteq	r9, r3, lsl ip
     c3c:	1c000013 	stcne	0, cr0, [r0], {19}
     c40:	13490005 	movtne	r0, #36869	; 0x9005
     c44:	261d0000 	ldrcs	r0, [sp], -r0
     c48:	00134900 	andseq	r4, r3, r0, lsl #18
     c4c:	00351e00 	eorseq	r1, r5, r0, lsl #28
     c50:	2e1f0000 	cdpcs	0, 1, cr0, cr15, cr0, {0}
     c54:	03193f01 	tsteq	r9, #1, 30
     c58:	3b0b3a0e 	blcc	2cf498 <__bss_end__+0x2c5588>
     c5c:	3c19270b 	ldccc	7, cr2, [r9], {11}
     c60:	00130119 	andseq	r0, r3, r9, lsl r1
     c64:	002e2000 	eoreq	r2, lr, r0
     c68:	0e03193f 	mcreq	9, 0, r1, cr3, cr15, {1}
     c6c:	0b3b0b3a 	bleq	ec395c <__bss_end__+0xeb9a4c>
     c70:	193c1927 	ldmdbne	ip!, {r0, r1, r2, r5, r8, fp, ip}
     c74:	01000000 	mrseq	r0, (UNDEF: 0)
     c78:	0e250111 	mcreq	1, 1, r0, cr5, cr1, {0}
     c7c:	0e030b13 	vmoveq.32	d3[0], r0
     c80:	01110e1b 	tsteq	r1, fp, lsl lr
     c84:	17100612 			; <UNDEFINED> instruction: 0x17100612
     c88:	24020000 	strcs	r0, [r2], #-0
     c8c:	3e0b0b00 	vmlacc.f64	d0, d11, d0
     c90:	0008030b 	andeq	r0, r8, fp, lsl #6
     c94:	00240300 	eoreq	r0, r4, r0, lsl #6
     c98:	0b3e0b0b 	bleq	f838cc <__bss_end__+0xf799bc>
     c9c:	00000e03 	andeq	r0, r0, r3, lsl #28
     ca0:	03001604 	movweq	r1, #1540	; 0x604
     ca4:	3b0b3a0e 	blcc	2cf4e4 <__bss_end__+0x2c55d4>
     ca8:	0013490b 	andseq	r4, r3, fp, lsl #18
     cac:	000f0500 	andeq	r0, pc, r0, lsl #10
     cb0:	00000b0b 	andeq	r0, r0, fp, lsl #22
     cb4:	0b000f06 	bleq	48d4 <_start-0x372c>
     cb8:	0013490b 	andseq	r4, r3, fp, lsl #18
     cbc:	00260700 	eoreq	r0, r6, r0, lsl #14
     cc0:	00001349 	andeq	r1, r0, r9, asr #6
     cc4:	0b011308 	bleq	458ec <__bss_end__+0x3b9dc>
     cc8:	3b0b3a0b 	blcc	2cf4fc <__bss_end__+0x2c55ec>
     ccc:	0013010b 	andseq	r0, r3, fp, lsl #2
     cd0:	000d0900 	andeq	r0, sp, r0, lsl #18
     cd4:	0b3a0803 	bleq	e82ce8 <__bss_end__+0xe78dd8>
     cd8:	13490b3b 	movtne	r0, #39739	; 0x9b3b
     cdc:	00000b38 	andeq	r0, r0, r8, lsr fp
     ce0:	03000d0a 	movweq	r0, #3338	; 0xd0a
     ce4:	3b0b3a0e 	blcc	2cf524 <__bss_end__+0x2c5614>
     ce8:	3813490b 	ldmdacc	r3, {r0, r1, r3, r8, fp, lr}
     cec:	0b00000b 	bleq	d20 <_start-0x72e0>
     cf0:	0e030113 	mcreq	1, 0, r0, cr3, cr3, {0}
     cf4:	0b3a0b0b 	bleq	e83928 <__bss_end__+0xe79a18>
     cf8:	13010b3b 	movwne	r0, #6971	; 0x1b3b
     cfc:	0d0c0000 	stceq	0, cr0, [ip, #-0]
     d00:	490e0300 	stmdbmi	lr, {r8, r9}
     d04:	340b3813 	strcc	r3, [fp], #-2067	; 0x813
     d08:	0d000019 	stceq	0, cr0, [r0, #-100]	; 0xffffff9c
     d0c:	0e03012e 	adfeqsp	f0, f3, #0.5
     d10:	0b3b0b3a 	bleq	ec3a00 <__bss_end__+0xeb9af0>
     d14:	0b201927 	bleq	8071b8 <__bss_end__+0x7fd2a8>
     d18:	00001301 	andeq	r1, r0, r1, lsl #6
     d1c:	0300050e 	movweq	r0, #1294	; 0x50e
     d20:	3b0b3a0e 	blcc	2cf560 <__bss_end__+0x2c5650>
     d24:	0013490b 	andseq	r4, r3, fp, lsl #18
     d28:	00050f00 	andeq	r0, r5, r0, lsl #30
     d2c:	0b3a0803 	bleq	e82d40 <__bss_end__+0xe78e30>
     d30:	13490b3b 	movtne	r0, #39739	; 0x9b3b
     d34:	0b100000 	bleq	400d3c <__bss_end__+0x3f6e2c>
     d38:	11000001 	tstne	r0, r1
     d3c:	0e030034 	mcreq	0, 0, r0, cr3, cr4, {1}
     d40:	0b3b0b3a 	bleq	ec3a30 <__bss_end__+0xeb9b20>
     d44:	00001349 	andeq	r1, r0, r9, asr #6
     d48:	3f012e12 	svccc	0x00012e12
     d4c:	3a0e0319 	bcc	3819b8 <__bss_end__+0x377aa8>
     d50:	270b3b0b 	strcs	r3, [fp, -fp, lsl #22]
     d54:	12011119 	andne	r1, r1, #1073741830	; 0x40000006
     d58:	97184006 	ldrls	r4, [r8, -r6]
     d5c:	13011942 	movwne	r1, #6466	; 0x1942
     d60:	05130000 	ldreq	r0, [r3, #-0]
     d64:	3a0e0300 	bcc	38196c <__bss_end__+0x377a5c>
     d68:	490b3b0b 	stmdbmi	fp, {r0, r1, r3, r8, r9, fp, ip, sp}
     d6c:	00170213 	andseq	r0, r7, r3, lsl r2
     d70:	00051400 	andeq	r1, r5, r0, lsl #8
     d74:	0b3a0803 	bleq	e82d88 <__bss_end__+0xe78e78>
     d78:	13490b3b 	movtne	r0, #39739	; 0x9b3b
     d7c:	00001702 	andeq	r1, r0, r2, lsl #14
     d80:	03003415 	movweq	r3, #1045	; 0x415
     d84:	3b0b3a08 	blcc	2cf5ac <__bss_end__+0x2c569c>
     d88:	0213490b 	andseq	r4, r3, #180224	; 0x2c000
     d8c:	16000018 			; <UNDEFINED> instruction: 0x16000018
     d90:	08030034 	stmdaeq	r3, {r2, r4, r5}
     d94:	0b3b0b3a 	bleq	ec3a84 <__bss_end__+0xeb9b74>
     d98:	17021349 	strne	r1, [r2, -r9, asr #6]
     d9c:	0b170000 	bleq	5c0da4 <__bss_end__+0x5b6e94>
     da0:	12011101 	andne	r1, r1, #1073741824	; 0x40000000
     da4:	00130106 	andseq	r0, r3, r6, lsl #2
     da8:	00341800 	eorseq	r1, r4, r0, lsl #16
     dac:	0b3a0e03 	bleq	e845c0 <__bss_end__+0xe7a6b0>
     db0:	13490b3b 	movtne	r0, #39739	; 0x9b3b
     db4:	00001802 	andeq	r1, r0, r2, lsl #16
     db8:	31011d19 	tstcc	r1, r9, lsl sp
     dbc:	12011113 	andne	r1, r1, #-1073741820	; 0xc0000004
     dc0:	590b5806 	stmdbpl	fp, {r1, r2, fp, ip, lr}
     dc4:	0013010b 	andseq	r0, r3, fp, lsl #2
     dc8:	00051a00 	andeq	r1, r5, r0, lsl #20
     dcc:	17021331 	smladxne	r2, r1, r3, r1
     dd0:	051b0000 	ldreq	r0, [fp, #-0]
     dd4:	02133100 	andseq	r3, r3, #0, 2
     dd8:	1c000018 	stcne	0, cr0, [r0], {24}
     ddc:	13310005 	teqne	r1, #5
     de0:	00000b1c 	andeq	r0, r0, ip, lsl fp
     de4:	11010b1d 	tstne	r1, sp, lsl fp
     de8:	00061201 	andeq	r1, r6, r1, lsl #4
     dec:	00341e00 	eorseq	r1, r4, r0, lsl #28
     df0:	17021331 	smladxne	r2, r1, r3, r1
     df4:	891f0000 	ldmdbhi	pc, {}	; <UNPREDICTABLE>
     df8:	11010182 	smlabbne	r1, r2, r1, r0
     dfc:	00133101 	andseq	r3, r3, r1, lsl #2
     e00:	828a2000 	addhi	r2, sl, #0
     e04:	18020001 	stmdane	r2, {r0}
     e08:	00184291 	mulseq	r8, r1, r2
     e0c:	011d2100 	tsteq	sp, r0, lsl #2
     e10:	01111331 	tsteq	r1, r1, lsr r3
     e14:	0b580612 	bleq	1602664 <__bss_end__+0x15f8754>
     e18:	00000b59 	andeq	r0, r0, r9, asr fp
     e1c:	03012e22 	movweq	r2, #7714	; 0x1e22
     e20:	3b0b3a0e 	blcc	2cf660 <__bss_end__+0x2c5750>
     e24:	4919270b 	ldmdbmi	r9, {r0, r1, r3, r8, r9, sl, sp}
     e28:	010b2013 	tsteq	fp, r3, lsl r0
     e2c:	23000013 	movwcs	r0, #19
     e30:	193f012e 	ldmdbne	pc!, {r1, r2, r3, r5, r8}	; <UNPREDICTABLE>
     e34:	0b3a0e03 	bleq	e84648 <__bss_end__+0xe7a738>
     e38:	19270b3b 	stmdbne	r7!, {r0, r1, r3, r4, r5, r8, r9, fp}
     e3c:	01111349 	tsteq	r1, r9, asr #6
     e40:	18400612 	stmdane	r0, {r1, r4, r9, sl}^
     e44:	01194297 			; <UNDEFINED> instruction: 0x01194297
     e48:	24000013 	strcs	r0, [r0], #-19
     e4c:	00018289 	andeq	r8, r1, r9, lsl #5
     e50:	13310111 	teqne	r1, #1073741828	; 0x40000004
     e54:	89250000 	stmdbhi	r5!, {}	; <UNPREDICTABLE>
     e58:	11010182 	smlabbne	r1, r2, r1, r0
     e5c:	01133101 	tsteq	r3, r1, lsl #2
     e60:	26000013 			; <UNDEFINED> instruction: 0x26000013
     e64:	0e030034 	mcreq	0, 0, r0, cr3, cr4, {1}
     e68:	0b3b0b3a 	bleq	ec3b58 <__bss_end__+0xeb9c48>
     e6c:	17021349 	strne	r1, [r2, -r9, asr #6]
     e70:	05270000 	streq	r0, [r7, #-0]!
     e74:	00133100 	andseq	r3, r3, r0, lsl #2
     e78:	00052800 	andeq	r2, r5, r0, lsl #16
     e7c:	0b3a0e03 	bleq	e84690 <__bss_end__+0xe7a780>
     e80:	13490b3b 	movtne	r0, #39739	; 0x9b3b
     e84:	00001802 	andeq	r1, r0, r2, lsl #16
     e88:	03003429 	movweq	r3, #1065	; 0x429
     e8c:	3413490e 	ldrcc	r4, [r3], #-2318	; 0x90e
     e90:	00180219 	andseq	r0, r8, r9, lsl r2
     e94:	01012a00 	tsteq	r1, r0, lsl #20
     e98:	13011349 	movwne	r1, #4937	; 0x1349
     e9c:	212b0000 	teqcs	fp, r0
     ea0:	2f134900 	svccs	0x00134900
     ea4:	2c00000b 	stccs	0, cr0, [r0], {11}
     ea8:	08030034 	stmdaeq	r3, {r2, r4, r5}
     eac:	0b3b0b3a 	bleq	ec3b9c <__bss_end__+0xeb9c8c>
     eb0:	061c1349 	ldreq	r1, [ip], -r9, asr #6
     eb4:	342d0000 	strtcc	r0, [sp], #-0
     eb8:	3a080300 	bcc	201ac0 <__bss_end__+0x1f7bb0>
     ebc:	490b3b0b 	stmdbmi	fp, {r0, r1, r3, r8, r9, fp, ip, sp}
     ec0:	000b1c13 	andeq	r1, fp, r3, lsl ip
     ec4:	00052e00 	andeq	r2, r5, r0, lsl #28
     ec8:	0b3a0803 	bleq	e82edc <__bss_end__+0xe78fcc>
     ecc:	13490b3b 	movtne	r0, #39739	; 0x9b3b
     ed0:	00001802 	andeq	r1, r0, r2, lsl #16
     ed4:	0000182f 	andeq	r1, r0, pc, lsr #16
     ed8:	00213000 	eoreq	r3, r1, r0
     edc:	052f1349 	streq	r1, [pc, #-841]!	; b9b <_start-0x7465>
     ee0:	2e310000 	cdpcs	0, 3, cr0, cr1, cr0, {0}
     ee4:	03193f01 	tsteq	r9, #1, 30
     ee8:	3b0b3a0e 	blcc	2cf728 <__bss_end__+0x2c5818>
     eec:	3c19270b 	ldccc	7, cr2, [r9], {11}
     ef0:	00130119 	andseq	r0, r3, r9, lsl r1
     ef4:	00053200 	andeq	r3, r5, r0, lsl #4
     ef8:	00001349 	andeq	r1, r0, r9, asr #6
     efc:	3f002e33 	svccc	0x00002e33
     f00:	3a0e0319 	bcc	381b6c <__bss_end__+0x377c5c>
     f04:	270b3b0b 	strcs	r3, [fp, -fp, lsl #22]
     f08:	3c134919 	ldccc	9, cr4, [r3], {25}
     f0c:	34000019 	strcc	r0, [r0], #-25
     f10:	193f012e 	ldmdbne	pc!, {r1, r2, r3, r5, r8}	; <UNPREDICTABLE>
     f14:	0b3a0e03 	bleq	e84728 <__bss_end__+0xe7a818>
     f18:	19270b3b 	stmdbne	r7!, {r0, r1, r3, r4, r5, r8, r9, fp}
     f1c:	193c1349 	ldmdbne	ip!, {r0, r3, r6, r8, r9, ip}
     f20:	00001301 	andeq	r1, r0, r1, lsl #6
     f24:	3f002e35 	svccc	0x00002e35
     f28:	3a0e0319 	bcc	381b94 <__bss_end__+0x377c84>
     f2c:	270b3b0b 	strcs	r3, [fp, -fp, lsl #22]
     f30:	00193c19 	andseq	r3, r9, r9, lsl ip
     f34:	012e3600 	teqeq	lr, r0, lsl #12
     f38:	0e03193f 	mcreq	9, 0, r1, cr3, cr15, {1}
     f3c:	0b3b0b3a 	bleq	ec3c2c <__bss_end__+0xeb9d1c>
     f40:	13491927 	movtne	r1, #39207	; 0x9927
     f44:	0000193c 	andeq	r1, r0, ip, lsr r9
     f48:	01110100 	tsteq	r1, r0, lsl #2
     f4c:	0b130e25 	bleq	4c47e8 <__bss_end__+0x4ba8d8>
     f50:	0e1b0e03 	cdpeq	14, 1, cr0, cr11, cr3, {0}
     f54:	06120111 			; <UNDEFINED> instruction: 0x06120111
     f58:	00001710 	andeq	r1, r0, r0, lsl r7
     f5c:	0b002402 	bleq	9f6c <__bss_end__+0x5c>
     f60:	030b3e0b 	movweq	r3, #48651	; 0xbe0b
     f64:	03000008 	movweq	r0, #8
     f68:	0b0b0024 	bleq	2c1000 <__bss_end__+0x2b70f0>
     f6c:	0e030b3e 	vmoveq.16	d3[0], r0
     f70:	04040000 	streq	r0, [r4], #-0
     f74:	3a0b0b01 	bcc	2c3b80 <__bss_end__+0x2b9c70>
     f78:	010b3b0b 	tsteq	fp, fp, lsl #22
     f7c:	05000013 	streq	r0, [r0, #-19]
     f80:	0e030028 	cdpeq	0, 0, cr0, cr3, cr8, {1}
     f84:	00000d1c 	andeq	r0, r0, ip, lsl sp
     f88:	03001606 	movweq	r1, #1542	; 0x606
     f8c:	3b0b3a0e 	blcc	2cf7cc <__bss_end__+0x2c58bc>
     f90:	0013490b 	andseq	r4, r3, fp, lsl #18
     f94:	012e0700 	teqeq	lr, r0, lsl #14
     f98:	0e03193f 	mcreq	9, 0, r1, cr3, cr15, {1}
     f9c:	0b3b0b3a 	bleq	ec3c8c <__bss_end__+0xeb9d7c>
     fa0:	01111927 	tsteq	r1, r7, lsr #18
     fa4:	18400612 	stmdane	r0, {r1, r4, r9, sl}^
     fa8:	01194297 			; <UNDEFINED> instruction: 0x01194297
     fac:	08000013 	stmdaeq	r0, {r0, r1, r4}
     fb0:	00018289 	andeq	r8, r1, r9, lsl #5
     fb4:	13310111 	teqne	r1, #1073741828	; 0x40000004
     fb8:	89090000 	stmdbhi	r9, {}	; <UNPREDICTABLE>
     fbc:	11010182 	smlabbne	r1, r2, r1, r0
     fc0:	01133101 	tsteq	r3, r1, lsl #2
     fc4:	0a000013 	beq	1018 <_start-0x6fe8>
     fc8:	0001828a 	andeq	r8, r1, sl, lsl #5
     fcc:	42911802 	addsmi	r1, r1, #131072	; 0x20000
     fd0:	0b000018 	bleq	1038 <_start-0x6fc8>
     fd4:	193f012e 	ldmdbne	pc!, {r1, r2, r3, r5, r8}	; <UNPREDICTABLE>
     fd8:	0b3a0e03 	bleq	e847ec <__bss_end__+0xe7a8dc>
     fdc:	19270b3b 	stmdbne	r7!, {r0, r1, r3, r4, r5, r8, r9, fp}
     fe0:	01111349 	tsteq	r1, r9, asr #6
     fe4:	18400612 	stmdane	r0, {r1, r4, r9, sl}^
     fe8:	01194297 			; <UNDEFINED> instruction: 0x01194297
     fec:	0c000013 	stceq	0, cr0, [r0], {19}
     ff0:	08030005 	stmdaeq	r3, {r0, r2}
     ff4:	0b3b0b3a 	bleq	ec3ce4 <__bss_end__+0xeb9dd4>
     ff8:	17021349 	strne	r1, [r2, -r9, asr #6]
     ffc:	890d0000 	stmdbhi	sp, {}	; <UNPREDICTABLE>
    1000:	11010182 	smlabbne	r1, r2, r1, r0
    1004:	00133101 	andseq	r3, r3, r1, lsl #2
    1008:	00340e00 	eorseq	r0, r4, r0, lsl #28
    100c:	0b3a0e03 	bleq	e84820 <__bss_end__+0xe7a910>
    1010:	13490b3b 	movtne	r0, #39739	; 0x9b3b
    1014:	1802193f 	stmdane	r2, {r0, r1, r2, r3, r4, r5, r8, fp, ip}
    1018:	0f0f0000 	svceq	0x000f0000
    101c:	490b0b00 	stmdbmi	fp, {r8, r9, fp}
    1020:	10000013 	andne	r0, r0, r3, lsl r0
    1024:	13490035 	movtne	r0, #36917	; 0x9035
    1028:	2e110000 	cdpcs	0, 1, cr0, cr1, cr0, {0}
    102c:	03193f00 	tsteq	r9, #0, 30
    1030:	3b0b3a0e 	blcc	2cf870 <__bss_end__+0x2c5960>
    1034:	3c19270b 	ldccc	7, cr2, [r9], {11}
    1038:	12000019 	andne	r0, r0, #25
    103c:	193f012e 	ldmdbne	pc!, {r1, r2, r3, r5, r8}	; <UNPREDICTABLE>
    1040:	0b3a0e03 	bleq	e84854 <__bss_end__+0xe7a944>
    1044:	19270b3b 	stmdbne	r7!, {r0, r1, r3, r4, r5, r8, r9, fp}
    1048:	1301193c 	movwne	r1, #6460	; 0x193c
    104c:	05130000 	ldreq	r0, [r3, #-0]
    1050:	00134900 	andseq	r4, r3, r0, lsl #18
    1054:	012e1400 	teqeq	lr, r0, lsl #8
    1058:	0e03193f 	mcreq	9, 0, r1, cr3, cr15, {1}
    105c:	0b3b0b3a 	bleq	ec3d4c <__bss_end__+0xeb9e3c>
    1060:	13491927 	movtne	r1, #39207	; 0x9927
    1064:	1301193c 	movwne	r1, #6460	; 0x193c
    1068:	26150000 	ldrcs	r0, [r5], -r0
    106c:	00134900 	andseq	r4, r3, r0, lsl #18
    1070:	00351600 	eorseq	r1, r5, r0, lsl #12
    1074:	01000000 	mrseq	r0, (UNDEF: 0)
    1078:	0e250111 	mcreq	1, 1, r0, cr5, cr1, {0}
    107c:	0e030b13 	vmoveq.32	d3[0], r0
    1080:	01110e1b 	tsteq	r1, fp, lsl lr
    1084:	17100612 			; <UNDEFINED> instruction: 0x17100612
    1088:	24020000 	strcs	r0, [r2], #-0
    108c:	3e0b0b00 	vmlacc.f64	d0, d11, d0
    1090:	0008030b 	andeq	r0, r8, fp, lsl #6
    1094:	00160300 	andseq	r0, r6, r0, lsl #6
    1098:	0b3a0e03 	bleq	e848ac <__bss_end__+0xe7a99c>
    109c:	13490b3b 	movtne	r0, #39739	; 0x9b3b
    10a0:	24040000 	strcs	r0, [r4], #-0
    10a4:	3e0b0b00 	vmlacc.f64	d0, d11, d0
    10a8:	000e030b 	andeq	r0, lr, fp, lsl #6
    10ac:	000f0500 	andeq	r0, pc, r0, lsl #10
    10b0:	00000b0b 	andeq	r0, r0, fp, lsl #22
    10b4:	0b011306 	bleq	45cd4 <__bss_end__+0x3bdc4>
    10b8:	3b0b3a0b 	blcc	2cf8ec <__bss_end__+0x2c59dc>
    10bc:	0013010b 	andseq	r0, r3, fp, lsl #2
    10c0:	000d0700 	andeq	r0, sp, r0, lsl #14
    10c4:	0b3a0803 	bleq	e830d8 <__bss_end__+0xe791c8>
    10c8:	13490b3b 	movtne	r0, #39739	; 0x9b3b
    10cc:	00000b38 	andeq	r0, r0, r8, lsr fp
    10d0:	03000d08 	movweq	r0, #3336	; 0xd08
    10d4:	3b0b3a0e 	blcc	2cf914 <__bss_end__+0x2c5a04>
    10d8:	3813490b 	ldmdacc	r3, {r0, r1, r3, r8, fp, lr}
    10dc:	0900000b 	stmdbeq	r0, {r0, r1, r3}
    10e0:	0b0b0104 	bleq	2c14f8 <__bss_end__+0x2b75e8>
    10e4:	0b3b0b3a 	bleq	ec3dd4 <__bss_end__+0xeb9ec4>
    10e8:	00001301 	andeq	r1, r0, r1, lsl #6
    10ec:	0300280a 	movweq	r2, #2058	; 0x80a
    10f0:	000d1c0e 	andeq	r1, sp, lr, lsl #24
    10f4:	012e0b00 	teqeq	lr, r0, lsl #22
    10f8:	0e03193f 	mcreq	9, 0, r1, cr3, cr15, {1}
    10fc:	0b3b0b3a 	bleq	ec3dec <__bss_end__+0xeb9edc>
    1100:	13491927 	movtne	r1, #39207	; 0x9927
    1104:	06120111 			; <UNDEFINED> instruction: 0x06120111
    1108:	42971840 	addsmi	r1, r7, #64, 16	; 0x400000
    110c:	00130119 	andseq	r0, r3, r9, lsl r1
    1110:	00340c00 	eorseq	r0, r4, r0, lsl #24
    1114:	0b3a0803 	bleq	e83128 <__bss_end__+0xe79218>
    1118:	13490b3b 	movtne	r0, #39739	; 0x9b3b
    111c:	0000061c 	andeq	r0, r0, ip, lsl r6
    1120:	0182890d 	orreq	r8, r2, sp, lsl #18
    1124:	31011101 	tstcc	r1, r1, lsl #2
    1128:	0e000013 	mcreq	0, 0, r0, cr0, cr3, {0}
    112c:	0001828a 	andeq	r8, r1, sl, lsl #5
    1130:	42911802 	addsmi	r1, r1, #131072	; 0x20000
    1134:	0f000018 	svceq	0x00000018
    1138:	0b0b000f 	bleq	2c117c <__bss_end__+0x2b726c>
    113c:	00001349 	andeq	r1, r0, r9, asr #6
    1140:	3f012e10 	svccc	0x00012e10
    1144:	3a0e0319 	bcc	381db0 <__bss_end__+0x377ea0>
    1148:	270b3b0b 	strcs	r3, [fp, -fp, lsl #22]
    114c:	3c134919 	ldccc	9, cr4, [r3], {25}
    1150:	11000019 	tstne	r0, r9, lsl r0
    1154:	13490005 	movtne	r0, #36869	; 0x9005
    1158:	01000000 	mrseq	r0, (UNDEF: 0)
    115c:	0e250111 	mcreq	1, 1, r0, cr5, cr1, {0}
    1160:	0e030b13 	vmoveq.32	d3[0], r0
    1164:	01110e1b 	tsteq	r1, fp, lsl lr
    1168:	17100612 			; <UNDEFINED> instruction: 0x17100612
    116c:	24020000 	strcs	r0, [r2], #-0
    1170:	3e0b0b00 	vmlacc.f64	d0, d11, d0
    1174:	000e030b 	andeq	r0, lr, fp, lsl #6
    1178:	00240300 	eoreq	r0, r4, r0, lsl #6
    117c:	0b3e0b0b 	bleq	f83db0 <__bss_end__+0xf79ea0>
    1180:	00000803 	andeq	r0, r0, r3, lsl #16
    1184:	0b000f04 	bleq	4d9c <_start-0x3264>
    1188:	0500000b 	streq	r0, [r0, #-11]
    118c:	0b0b000f 	bleq	2c11d0 <__bss_end__+0x2b72c0>
    1190:	00001349 	andeq	r1, r0, r9, asr #6
    1194:	03001606 	movweq	r1, #1542	; 0x606
    1198:	3b0b3a0e 	blcc	2cf9d8 <__bss_end__+0x2c5ac8>
    119c:	0013490b 	andseq	r4, r3, fp, lsl #18
    11a0:	012e0700 	teqeq	lr, r0, lsl #14
    11a4:	0e03193f 	mcreq	9, 0, r1, cr3, cr15, {1}
    11a8:	0b3b0b3a 	bleq	ec3e98 <__bss_end__+0xeb9f88>
    11ac:	13491927 	movtne	r1, #39207	; 0x9927
    11b0:	06120111 			; <UNDEFINED> instruction: 0x06120111
    11b4:	42971840 	addsmi	r1, r7, #64, 16	; 0x400000
    11b8:	08000019 	stmdaeq	r0, {r0, r3, r4}
    11bc:	08030005 	stmdaeq	r3, {r0, r2}
    11c0:	0b3b0b3a 	bleq	ec3eb0 <__bss_end__+0xeb9fa0>
    11c4:	18021349 	stmdane	r2, {r0, r3, r6, r8, r9, ip}
    11c8:	05090000 	streq	r0, [r9, #-0]
    11cc:	3a080300 	bcc	201dd4 <__bss_end__+0x1f7ec4>
    11d0:	490b3b0b 	stmdbmi	fp, {r0, r1, r3, r8, r9, fp, ip, sp}
    11d4:	00170213 	andseq	r0, r7, r3, lsl r2
    11d8:	00340a00 	eorseq	r0, r4, r0, lsl #20
    11dc:	0b3a0803 	bleq	e831f0 <__bss_end__+0xe792e0>
    11e0:	13490b3b 	movtne	r0, #39739	; 0x9b3b
    11e4:	00001702 	andeq	r1, r0, r2, lsl #14
    11e8:	0300340b 	movweq	r3, #1035	; 0x40b
    11ec:	3b0b3a08 	blcc	2cfa14 <__bss_end__+0x2c5b04>
    11f0:	0213490b 	andseq	r4, r3, #180224	; 0x2c000
    11f4:	00000018 	andeq	r0, r0, r8, lsl r0

Disassembly of section .debug_loc:

00000000 <.debug_loc>:
       0:	00000000 	andeq	r0, r0, r0
       4:	00000018 	andeq	r0, r0, r8, lsl r0
       8:	18500001 	ldmdane	r0, {r0}^
       c:	28000000 	stmdacs	r0, {}	; <UNPREDICTABLE>
      10:	04000000 	streq	r0, [r0], #-0
      14:	5001f300 	andpl	pc, r1, r0, lsl #6
      18:	0000289f 	muleq	r0, pc, r8	; <UNPREDICTABLE>
      1c:	00002b00 	andeq	r2, r0, r0, lsl #22
      20:	50000100 	andpl	r0, r0, r0, lsl #2
      24:	0000002b 	andeq	r0, r0, fp, lsr #32
      28:	00000050 	andeq	r0, r0, r0, asr r0
      2c:	01f30004 	mvnseq	r0, r4
      30:	00009f50 	andeq	r9, r0, r0, asr pc
      34:	00000000 	andeq	r0, r0, r0
      38:	00200000 	eoreq	r0, r0, r0
      3c:	00240000 	eoreq	r0, r4, r0
      40:	00010000 	andeq	r0, r1, r0
      44:	00000050 	andeq	r0, r0, r0, asr r0
      48:	00000000 	andeq	r0, r0, r0
      4c:	00005000 	andeq	r5, r0, r0
      50:	00006300 	andeq	r6, r0, r0, lsl #6
      54:	50000100 	andpl	r0, r0, r0, lsl #2
      58:	00000063 	andeq	r0, r0, r3, rrx
      5c:	000000cc 	andeq	r0, r0, ip, asr #1
      60:	00540001 	subseq	r0, r4, r1
      64:	00000000 	andeq	r0, r0, r0
      68:	50000000 	andpl	r0, r0, r0
      6c:	63000000 	movwvs	r0, #0
      70:	01000000 	mrseq	r0, (UNDEF: 0)
      74:	00635100 	rsbeq	r5, r3, r0, lsl #2
      78:	00840000 	addeq	r0, r4, r0
      7c:	00010000 	andeq	r0, r1, r0
      80:	00008457 	andeq	r8, r0, r7, asr r4
      84:	0000cc00 	andeq	ip, r0, r0, lsl #24
      88:	f3000400 	vshl.u8	d0, d0, d0
      8c:	009f5101 	addseq	r5, pc, r1, lsl #2
      90:	00000000 	andeq	r0, r0, r0
      94:	50000000 	andpl	r0, r0, r0
      98:	63000000 	movwvs	r0, #0
      9c:	01000000 	mrseq	r0, (UNDEF: 0)
      a0:	00635200 	rsbeq	r5, r3, r0, lsl #4
      a4:	00cc0000 	sbceq	r0, ip, r0
      a8:	00010000 	andeq	r0, r1, r0
      ac:	00000058 	andeq	r0, r0, r8, asr r0
      b0:	00000000 	andeq	r0, r0, r0
      b4:	00005000 	andeq	r5, r0, r0
      b8:	00006300 	andeq	r6, r0, r0, lsl #6
      bc:	53000100 	movwpl	r0, #256	; 0x100
      c0:	00000063 	andeq	r0, r0, r3, rrx
      c4:	000000cc 	andeq	r0, r0, ip, asr #1
      c8:	01f30004 	mvnseq	r0, r4
      cc:	00009f53 	andeq	r9, r0, r3, asr pc
      d0:	00000000 	andeq	r0, r0, r0
      d4:	00500000 	subseq	r0, r0, r0
      d8:	00840000 	addeq	r0, r4, r0
      dc:	00020000 	andeq	r0, r2, r0
      e0:	00b49f30 	adcseq	r9, r4, r0, lsr pc
      e4:	00b80000 	adcseq	r0, r8, r0
      e8:	00030000 	andeq	r0, r3, r0
      ec:	b89f0176 	ldmlt	pc, {r1, r2, r4, r5, r6, r8}	; <UNPREDICTABLE>
      f0:	c4000000 	strgt	r0, [r0], #-0
      f4:	01000000 	mrseq	r0, (UNDEF: 0)
      f8:	00005600 	andeq	r5, r0, r0, lsl #12
      fc:	00000000 	andeq	r0, r0, r0
     100:	00500000 	subseq	r0, r0, r0
     104:	00680000 	rsbeq	r0, r8, r0
     108:	00020000 	andeq	r0, r2, r0
     10c:	00749f30 	rsbseq	r9, r4, r0, lsr pc
     110:	00840000 	addeq	r0, r4, r0
     114:	00010000 	andeq	r0, r1, r0
     118:	00008c55 	andeq	r8, r0, r5, asr ip
     11c:	0000a000 	andeq	sl, r0, r0
     120:	55000100 	strpl	r0, [r0, #-256]	; 0x100
     124:	000000a0 	andeq	r0, r0, r0, lsr #1
     128:	000000c4 	andeq	r0, r0, r4, asr #1
     12c:	00500001 	subseq	r0, r0, r1
     130:	00000000 	andeq	r0, r0, r0
     134:	68000000 	stmdavs	r0, {}	; <UNPREDICTABLE>
     138:	84000000 	strhi	r0, [r0], #-0
     13c:	01000000 	mrseq	r0, (UNDEF: 0)
     140:	00005600 	andeq	r5, r0, r0, lsl #12
     144:	00000000 	andeq	r0, r0, r0
     148:	00980000 	addseq	r0, r8, r0
     14c:	00c40000 	sbceq	r0, r4, r0
     150:	00010000 	andeq	r0, r1, r0
     154:	00000050 	andeq	r0, r0, r0, asr r0
     158:	00000000 	andeq	r0, r0, r0
     15c:	0000a800 	andeq	sl, r0, r0, lsl #16
     160:	0000c400 	andeq	ip, r0, r0, lsl #8
     164:	52000100 	andpl	r0, r0, #0, 2
	...
     170:	000000cc 	andeq	r0, r0, ip, asr #1
     174:	000000fc 	strdeq	r0, [r0], -ip
     178:	fc500001 	mrrc2	0, 0, r0, r0, cr1	; <UNPREDICTABLE>
     17c:	58000000 	stmdapl	r0, {}	; <UNPREDICTABLE>
     180:	01000001 	tsteq	r0, r1
     184:	01585a00 	cmpeq	r8, r0, lsl #20
     188:	015c0000 	cmpeq	ip, r0
     18c:	00040000 	andeq	r0, r4, r0
     190:	9f5001f3 	svcls	0x005001f3
	...
     19c:	000000cc 	andeq	r0, r0, ip, asr #1
     1a0:	000000ec 	andeq	r0, r0, ip, ror #1
     1a4:	ec510001 	mrrc	0, 0, r0, r1, cr1
     1a8:	58000000 	stmdapl	r0, {}	; <UNPREDICTABLE>
     1ac:	03000001 	movweq	r0, #1
     1b0:	9f017900 	svcls	0x00017900
     1b4:	00000158 	andeq	r0, r0, r8, asr r1
     1b8:	0000015c 	andeq	r0, r0, ip, asr r1
     1bc:	01f30004 	mvnseq	r0, r4
     1c0:	00009f51 	andeq	r9, r0, r1, asr pc
     1c4:	00000000 	andeq	r0, r0, r0
     1c8:	00cc0000 	sbceq	r0, ip, r0
     1cc:	00e80000 	rsceq	r0, r8, r0
     1d0:	00010000 	andeq	r0, r1, r0
     1d4:	0000e852 	andeq	lr, r0, r2, asr r8
     1d8:	00015800 	andeq	r5, r1, r0, lsl #16
     1dc:	58000100 	stmdapl	r0, {r8}
     1e0:	00000158 	andeq	r0, r0, r8, asr r1
     1e4:	0000015c 	andeq	r0, r0, ip, asr r1
     1e8:	01f30004 	mvnseq	r0, r4
     1ec:	00009f52 	andeq	r9, r0, r2, asr pc
     1f0:	00000000 	andeq	r0, r0, r0
     1f4:	00cc0000 	sbceq	r0, ip, r0
     1f8:	00fc0000 	rscseq	r0, ip, r0
     1fc:	00020000 	andeq	r0, r2, r0
     200:	00fc9f30 	rscseq	r9, ip, r0, lsr pc
     204:	01500000 	cmpeq	r0, r0
     208:	00010000 	andeq	r0, r1, r0
     20c:	00000055 	andeq	r0, r0, r5, asr r0
     210:	00000000 	andeq	r0, r0, r0
     214:	0000cc00 	andeq	ip, r0, r0, lsl #24
     218:	0000fc00 	andeq	pc, r0, r0, lsl #24
     21c:	30000200 	andcc	r0, r0, r0, lsl #4
     220:	0000fc9f 	muleq	r0, pc, ip	; <UNPREDICTABLE>
     224:	00015000 	andeq	r5, r1, r0
     228:	56000100 	strpl	r0, [r0], -r0, lsl #2
	...
     234:	000000cc 	andeq	r0, r0, ip, asr #1
     238:	000000fc 	strdeq	r0, [r0], -ip
     23c:	9f300002 	svcls	0x00300002
     240:	000000fc 	strdeq	r0, [r0], -ip
     244:	00000104 	andeq	r0, r0, r4, lsl #2
     248:	04570001 	ldrbeq	r0, [r7], #-1
     24c:	43000001 	movwmi	r0, #1
     250:	01000001 	tsteq	r0, r1
     254:	01435100 	mrseq	r5, (UNDEF: 83)
     258:	01440000 	mrseq	r0, (UNDEF: 68)
     25c:	00030000 	andeq	r0, r3, r0
     260:	449f7f77 	ldrmi	r7, [pc], #3959	; 268 <_start-0x7d98>
     264:	50000001 	andpl	r0, r0, r1
     268:	01000001 	tsteq	r0, r1
     26c:	00005700 	andeq	r5, r0, r0, lsl #14
     270:	00000000 	andeq	r0, r0, r0
     274:	010c0000 	mrseq	r0, (UNDEF: 12)
     278:	01100000 	tsteq	r0, r0
     27c:	00010000 	andeq	r0, r1, r0
     280:	00011053 	andeq	r1, r1, r3, asr r0
     284:	00011400 	andeq	r1, r1, r0, lsl #8
     288:	7a000600 	bvc	1a90 <_start-0x6570>
     28c:	22007200 	andcs	r7, r0, #0, 4
     290:	0000009f 	muleq	r0, pc, r0	; <UNPREDICTABLE>
     294:	00000000 	andeq	r0, r0, r0
     298:	00011000 	andeq	r1, r1, r0
     29c:	00014300 	andeq	r4, r1, r0, lsl #6
     2a0:	53000100 	movwpl	r0, #256	; 0x100
	...
     2ac:	00000118 	andeq	r0, r0, r8, lsl r1
     2b0:	0000014c 	andeq	r0, r0, ip, asr #2
     2b4:	00540001 	subseq	r0, r4, r1
     2b8:	00000000 	andeq	r0, r0, r0
     2bc:	24000000 	strcs	r0, [r0], #-0
     2c0:	40000001 	andmi	r0, r0, r1
     2c4:	01000001 	tsteq	r0, r1
     2c8:	01405000 	mrseq	r5, (UNDEF: 64)
     2cc:	01430000 	mrseq	r0, (UNDEF: 67)
     2d0:	00020000 	andeq	r0, r2, r0
     2d4:	00005091 	muleq	r0, r1, r0
     2d8:	00000000 	andeq	r0, r0, r0
     2dc:	01980000 	orrseq	r0, r8, r0
     2e0:	019c0000 	orrseq	r0, ip, r0
     2e4:	00010000 	andeq	r0, r1, r0
     2e8:	00019c50 	andeq	r9, r1, r0, asr ip
     2ec:	00019f00 	andeq	r9, r1, r0, lsl #30
     2f0:	51000100 	mrspl	r0, (UNDEF: 16)
	...
     2fc:	0000002c 	andeq	r0, r0, ip, lsr #32
     300:	00000038 	andeq	r0, r0, r8, lsr r0
     304:	38500001 	ldmdacc	r0, {r0}^
     308:	48000000 	stmdami	r0, {}	; <UNPREDICTABLE>
     30c:	01000000 	mrseq	r0, (UNDEF: 0)
     310:	00485500 	subeq	r5, r8, r0, lsl #10
     314:	00580000 	subseq	r0, r8, r0
     318:	00010000 	andeq	r0, r1, r0
     31c:	00000050 	andeq	r0, r0, r0, asr r0
	...
     328:	00000b00 	andeq	r0, r0, r0, lsl #22
     32c:	50000100 	andpl	r0, r0, r0, lsl #2
     330:	0000000b 	andeq	r0, r0, fp
     334:	00000014 	andeq	r0, r0, r4, lsl r0
     338:	00540001 	subseq	r0, r4, r1
	...
     344:	10000000 	andne	r0, r0, r0
     348:	01000000 	mrseq	r0, (UNDEF: 0)
     34c:	00105000 	andseq	r5, r0, r0
     350:	00340000 	eorseq	r0, r4, r0
     354:	00010000 	andeq	r0, r1, r0
     358:	00000054 	andeq	r0, r0, r4, asr r0
	...
     364:	00000400 	andeq	r0, r0, r0, lsl #8
     368:	50000100 	andpl	r0, r0, r0, lsl #2
     36c:	00000004 	andeq	r0, r0, r4
     370:	0000000c 	andeq	r0, r0, ip
     374:	30700003 	rsbscc	r0, r0, r3
     378:	00000c9f 	muleq	r0, pc, ip	; <UNPREDICTABLE>
     37c:	00001400 	andeq	r1, r0, r0, lsl #8
     380:	f3000400 	vshl.u8	d0, d0, d0
     384:	009f5001 	addseq	r5, pc, r1
     388:	00000000 	andeq	r0, r0, r0
     38c:	14000000 	strne	r0, [r0], #-0
     390:	20000000 	andcs	r0, r0, r0
     394:	01000000 	mrseq	r0, (UNDEF: 0)
     398:	00205000 	eoreq	r5, r0, r0
     39c:	002c0000 	eoreq	r0, ip, r0
     3a0:	00030000 	andeq	r0, r3, r0
     3a4:	2c9f0170 	ldfcss	f0, [pc], {112}	; 0x70
     3a8:	40000000 	andmi	r0, r0, r0
     3ac:	01000000 	mrseq	r0, (UNDEF: 0)
     3b0:	00005000 	andeq	r5, r0, r0
     3b4:	00000000 	andeq	r0, r0, r0
     3b8:	00140000 	andseq	r0, r4, r0
     3bc:	00180000 	andseq	r0, r8, r0
     3c0:	00010000 	andeq	r0, r1, r0
     3c4:	00001851 	andeq	r1, r0, r1, asr r8
     3c8:	00004000 	andeq	r4, r0, r0
     3cc:	f3000400 	vshl.u8	d0, d0, d0
     3d0:	009f5101 	addseq	r5, pc, r1, lsl #2
     3d4:	00000000 	andeq	r0, r0, r0
     3d8:	40000000 	andmi	r0, r0, r0
     3dc:	60000000 	andvs	r0, r0, r0
     3e0:	01000000 	mrseq	r0, (UNDEF: 0)
     3e4:	00605000 	rsbeq	r5, r0, r0
     3e8:	006c0000 	rsbeq	r0, ip, r0
     3ec:	00030000 	andeq	r0, r3, r0
     3f0:	6c9f0171 	ldfvss	f0, [pc], {113}	; 0x71
     3f4:	74000000 	strvc	r0, [r0], #-0
     3f8:	01000000 	mrseq	r0, (UNDEF: 0)
     3fc:	00745100 	rsbseq	r5, r4, r0, lsl #2
     400:	00800000 	addeq	r0, r0, r0
     404:	00030000 	andeq	r0, r3, r0
     408:	009f0171 	addseq	r0, pc, r1, ror r1	; <UNPREDICTABLE>
     40c:	00000000 	andeq	r0, r0, r0
     410:	40000000 	andmi	r0, r0, r0
     414:	50000000 	andpl	r0, r0, r0
     418:	01000000 	mrseq	r0, (UNDEF: 0)
     41c:	00505100 	subseq	r5, r0, r0, lsl #2
     420:	00800000 	addeq	r0, r0, r0
     424:	00040000 	andeq	r0, r4, r0
     428:	9f5101f3 	svcls	0x005101f3
	...
     434:	00000040 	andeq	r0, r0, r0, asr #32
     438:	00000058 	andeq	r0, r0, r8, asr r0
     43c:	58520001 	ldmdapl	r2, {r0}^
     440:	64000000 	strvs	r0, [r0], #-0
     444:	01000000 	mrseq	r0, (UNDEF: 0)
     448:	00645200 	rsbeq	r5, r4, r0, lsl #4
     44c:	00680000 	rsbeq	r0, r8, r0
     450:	00030000 	andeq	r0, r3, r0
     454:	689f0172 	ldmvs	pc, {r1, r4, r5, r6, r8}	; <UNPREDICTABLE>
     458:	80000000 	andhi	r0, r0, r0
     45c:	01000000 	mrseq	r0, (UNDEF: 0)
     460:	00005200 	andeq	r5, r0, r0, lsl #4
     464:	00000000 	andeq	r0, r0, r0
     468:	00400000 	subeq	r0, r0, r0
     46c:	00540000 	subseq	r0, r4, r0
     470:	00010000 	andeq	r0, r1, r0
     474:	00005453 	andeq	r5, r0, r3, asr r4
     478:	00007800 	andeq	r7, r0, r0, lsl #16
     47c:	53000100 	movwpl	r0, #256	; 0x100
	...
     488:	00000048 	andeq	r0, r0, r8, asr #32
     48c:	00000060 	andeq	r0, r0, r0, rrx
     490:	605c0001 	subsvs	r0, ip, r1
     494:	80000000 	andhi	r0, r0, r0
     498:	0a000000 	beq	4a0 <_start-0x7b60>
     49c:	5201f300 	andpl	pc, r1, #0, 6
     4a0:	1c5301f3 	ldfnee	f0, [r3], {243}	; 0xf3
     4a4:	009f0123 	addseq	r0, pc, r3, lsr #2
     4a8:	00000000 	andeq	r0, r0, r0
     4ac:	80000000 	andhi	r0, r0, r0
     4b0:	a4000000 	strge	r0, [r0], #-0
     4b4:	01000000 	mrseq	r0, (UNDEF: 0)
     4b8:	00a45000 	adceq	r5, r4, r0
     4bc:	01180000 	tsteq	r8, r0
     4c0:	00030000 	andeq	r0, r3, r0
     4c4:	189f0270 	ldmne	pc, {r4, r5, r6, r9}	; <UNPREDICTABLE>
     4c8:	28000001 	stmdacs	r0, {r0}
     4cc:	04000002 	streq	r0, [r0], #-2
     4d0:	5001f300 	andpl	pc, r1, r0, lsl #6
     4d4:	0000009f 	muleq	r0, pc, r0	; <UNPREDICTABLE>
     4d8:	00000000 	andeq	r0, r0, r0
     4dc:	00008000 	andeq	r8, r0, r0
     4e0:	0000f000 	andeq	pc, r0, r0
     4e4:	51000100 	mrspl	r0, (UNDEF: 16)
     4e8:	000000f0 	strdeq	r0, [r0], -r0	; <UNPREDICTABLE>
     4ec:	00000160 	andeq	r0, r0, r0, ror #2
     4f0:	60550001 	subsvs	r0, r5, r1
     4f4:	68000001 	stmdavs	r0, {r0}
     4f8:	01000001 	tsteq	r0, r1
     4fc:	01685100 	cmneq	r8, r0, lsl #2
     500:	01880000 	orreq	r0, r8, r0
     504:	00010000 	andeq	r0, r1, r0
     508:	00018855 	andeq	r8, r1, r5, asr r8
     50c:	00019c00 	andeq	r9, r1, r0, lsl #24
     510:	51000100 	mrspl	r0, (UNDEF: 16)
     514:	0000019c 	muleq	r0, ip, r1
     518:	000001bc 			; <UNDEFINED> instruction: 0x000001bc
     51c:	bc550001 	mrrclt	0, 0, r0, r5, cr1
     520:	bf000001 	svclt	0x00000001
     524:	01000001 	tsteq	r0, r1
     528:	01bf5100 			; <UNDEFINED> instruction: 0x01bf5100
     52c:	02080000 	andeq	r0, r8, #0
     530:	00010000 	andeq	r0, r1, r0
     534:	00020855 	andeq	r0, r2, r5, asr r8
     538:	00022800 	andeq	r2, r2, r0, lsl #16
     53c:	f3000400 	vshl.u8	d0, d0, d0
     540:	009f5101 	addseq	r5, pc, r1, lsl #2
     544:	00000000 	andeq	r0, r0, r0
     548:	80000000 	andhi	r0, r0, r0
     54c:	94000000 	strls	r0, [r0], #-0
     550:	01000000 	mrseq	r0, (UNDEF: 0)
     554:	00945200 	addseq	r5, r4, r0, lsl #4
     558:	02080000 	andeq	r0, r8, #0
     55c:	00010000 	andeq	r0, r1, r0
     560:	00020854 	andeq	r0, r2, r4, asr r8
     564:	00022800 	andeq	r2, r2, r0, lsl #16
     568:	f3000400 	vshl.u8	d0, d0, d0
     56c:	009f5201 	addseq	r5, pc, r1, lsl #4
     570:	00000000 	andeq	r0, r0, r0
     574:	80000000 	andhi	r0, r0, r0
     578:	00000000 	andeq	r0, r0, r0
     57c:	01000001 	tsteq	r0, r1
     580:	01045300 	mrseq	r5, LR_abt
     584:	01080000 	mrseq	r0, (UNDEF: 8)
     588:	00010000 	andeq	r0, r1, r0
     58c:	00016053 	andeq	r6, r1, r3, asr r0
     590:	00016800 	andeq	r6, r1, r0, lsl #16
     594:	53000100 	movwpl	r0, #256	; 0x100
     598:	00000168 	andeq	r0, r0, r8, ror #2
     59c:	00000188 	andeq	r0, r0, r8, lsl #3
     5a0:	01f30004 	mvnseq	r0, r4
     5a4:	01889f53 	orreq	r9, r8, r3, asr pc
     5a8:	01900000 	orrseq	r0, r0, r0
     5ac:	00010000 	andeq	r0, r1, r0
     5b0:	00019053 	andeq	r9, r1, r3, asr r0
     5b4:	00019400 	andeq	r9, r1, r0, lsl #8
     5b8:	5c000100 	stfpls	f0, [r0], {-0}
     5bc:	00000194 	muleq	r0, r4, r1
     5c0:	0000019c 	muleq	r0, ip, r1
     5c4:	9c530001 	mrrcls	0, 0, r0, r3, cr1
     5c8:	bc000001 	stclt	0, cr0, [r0], {1}
     5cc:	04000001 	streq	r0, [r0], #-1
     5d0:	5301f300 	movwpl	pc, #4864	; 0x1300	; <UNPREDICTABLE>
     5d4:	0001bc9f 	muleq	r1, pc, ip	; <UNPREDICTABLE>
     5d8:	0001bf00 	andeq	fp, r1, r0, lsl #30
     5dc:	53000100 	movwpl	r0, #256	; 0x100
     5e0:	000001bf 			; <UNDEFINED> instruction: 0x000001bf
     5e4:	000001e0 	andeq	r0, r0, r0, ror #3
     5e8:	01f30004 	mvnseq	r0, r4
     5ec:	00009f53 	andeq	r9, r0, r3, asr pc
     5f0:	00000000 	andeq	r0, r0, r0
     5f4:	00800000 	addeq	r0, r0, r0
     5f8:	009c0000 	addseq	r0, ip, r0
     5fc:	00020000 	andeq	r0, r2, r0
     600:	009c0091 	umullseq	r0, ip, r1, r0
     604:	01bf0000 			; <UNDEFINED> instruction: 0x01bf0000
     608:	00010000 	andeq	r0, r1, r0
     60c:	0001e052 	andeq	lr, r1, r2, asr r0
     610:	0001eb00 	andeq	lr, r1, r0, lsl #22
     614:	52000100 	andpl	r0, r0, #0, 2
	...
     620:	0000009c 	muleq	r0, ip, r0
     624:	0000010c 	andeq	r0, r0, ip, lsl #2
     628:	a0910004 	addsge	r0, r1, r4
     62c:	010c9f7f 	tsteq	ip, pc, ror pc
     630:	01180000 	tsteq	r8, r0
     634:	00010000 	andeq	r0, r1, r0
     638:	00011851 	andeq	r1, r1, r1, asr r8
     63c:	00011c00 	andeq	r1, r1, r0, lsl #24
     640:	53000100 	movwpl	r0, #256	; 0x100
     644:	0000011c 	andeq	r0, r0, ip, lsl r1
     648:	00000120 	andeq	r0, r0, r0, lsr #2
     64c:	20510001 	subscs	r0, r1, r1
     650:	60000001 	andvs	r0, r0, r1
     654:	01000001 	tsteq	r0, r1
     658:	01605300 	cmneq	r0, r0, lsl #6
     65c:	01640000 	cmneq	r4, r0
     660:	00040000 	andeq	r0, r4, r0
     664:	9f7fa091 	svcls	0x007fa091
     668:	00000164 	andeq	r0, r0, r4, ror #2
     66c:	0000016c 	andeq	r0, r0, ip, ror #2
     670:	6c5e0001 	mrrcvs	0, 0, r0, lr, cr1
     674:	88000001 	stmdahi	r0, {r0}
     678:	01000001 	tsteq	r0, r1
     67c:	01885300 	orreq	r5, r8, r0, lsl #6
     680:	01900000 	orrseq	r0, r0, r0
     684:	00040000 	andeq	r0, r4, r0
     688:	9f7fa191 	svcls	0x007fa191
     68c:	00000190 	muleq	r0, r0, r1
     690:	00000194 	muleq	r0, r4, r1
     694:	94530001 	ldrbls	r0, [r3], #-1
     698:	98000001 	stmdals	r0, {r0}
     69c:	04000001 	streq	r0, [r0], #-1
     6a0:	7fa09100 	svcvc	0x00a09100
     6a4:	0001989f 	muleq	r1, pc, r8	; <UNPREDICTABLE>
     6a8:	0001a000 	andeq	sl, r1, r0
     6ac:	5e000100 	adfpls	f0, f0, f0
     6b0:	000001a0 	andeq	r0, r0, r0, lsr #3
     6b4:	000001bc 			; <UNDEFINED> instruction: 0x000001bc
     6b8:	bc530001 	mrrclt	0, 0, r0, r3, cr1
     6bc:	e0000001 	and	r0, r0, r1
     6c0:	04000001 	streq	r0, [r0], #-1
     6c4:	7fa09100 	svcvc	0x00a09100
     6c8:	0001e09f 	muleq	r1, pc, r0	; <UNPREDICTABLE>
     6cc:	0001eb00 	andeq	lr, r1, r0, lsl #22
     6d0:	53000100 	movwpl	r0, #256	; 0x100
	...
     6dc:	000000a0 	andeq	r0, r0, r0, lsr #1
     6e0:	000000ec 	andeq	r0, r0, ip, ror #1
     6e4:	ec5c0001 	mrrc	0, 0, r0, ip, cr1
     6e8:	00000000 	andeq	r0, r0, r0
     6ec:	01000001 	tsteq	r0, r1
     6f0:	01005300 	mrseq	r5, LR_irq
     6f4:	01040000 	mrseq	r0, (UNDEF: 4)
     6f8:	00010000 	andeq	r0, r1, r0
     6fc:	0001045c 	andeq	r0, r1, ip, asr r4
     700:	00010800 	andeq	r0, r1, r0, lsl #16
     704:	53000100 	movwpl	r0, #256	; 0x100
     708:	00000108 	andeq	r0, r0, r8, lsl #2
     70c:	00000118 	andeq	r0, r0, r8, lsl r1
     710:	185c0001 	ldmdane	ip, {r0}^
     714:	1c000001 	stcne	0, cr0, [r0], {1}
     718:	01000001 	tsteq	r0, r1
     71c:	011c5000 	tsteq	ip, r0
     720:	013c0000 	teqeq	ip, r0
     724:	00010000 	andeq	r0, r1, r0
     728:	0001445c 	andeq	r4, r1, ip, asr r4
     72c:	00015800 	andeq	r5, r1, r0, lsl #16
     730:	50000100 	andpl	r0, r0, r0, lsl #2
     734:	00000158 	andeq	r0, r0, r8, asr r1
     738:	00000160 	andeq	r0, r0, r0, ror #2
     73c:	605c0001 	subsvs	r0, ip, r1
     740:	68000001 	stmdavs	r0, {r0}
     744:	01000001 	tsteq	r0, r1
     748:	01685300 	cmneq	r8, r0, lsl #6
     74c:	01780000 	cmneq	r8, r0
     750:	00010000 	andeq	r0, r1, r0
     754:	0001785c 	andeq	r7, r1, ip, asr r8
     758:	00018000 	andeq	r8, r1, r0
     75c:	7c000500 	cfstr32vc	mvfx0, [r0], {-0}
     760:	9f253400 	svcls	0x00253400
     764:	00000180 	andeq	r0, r0, r0, lsl #3
     768:	00000188 	andeq	r0, r0, r8, lsl #3
     76c:	885c0001 	ldmdahi	ip, {r0}^
     770:	90000001 	andls	r0, r0, r1
     774:	01000001 	tsteq	r0, r1
     778:	01905300 	orrseq	r5, r0, r0, lsl #6
     77c:	01940000 	orrseq	r0, r4, r0
     780:	00010000 	andeq	r0, r1, r0
     784:	0001945c 	andeq	r9, r1, ip, asr r4
     788:	00019c00 	andeq	r9, r1, r0, lsl #24
     78c:	53000100 	movwpl	r0, #256	; 0x100
     790:	0000019c 	muleq	r0, ip, r1
     794:	000001ac 	andeq	r0, r0, ip, lsr #3
     798:	ac5c0001 	mrrcge	0, 0, r0, ip, cr1
     79c:	b4000001 	strlt	r0, [r0], #-1
     7a0:	05000001 	streq	r0, [r0, #-1]
     7a4:	31007c00 	tstcc	r0, r0, lsl #24
     7a8:	01b49f25 			; <UNDEFINED> instruction: 0x01b49f25
     7ac:	01bc0000 			; <UNDEFINED> instruction: 0x01bc0000
     7b0:	00010000 	andeq	r0, r1, r0
     7b4:	0001bc5c 	andeq	fp, r1, ip, asr ip
     7b8:	0001bf00 	andeq	fp, r1, r0, lsl #30
     7bc:	53000100 	movwpl	r0, #256	; 0x100
     7c0:	000001bf 			; <UNDEFINED> instruction: 0x000001bf
     7c4:	000001e0 	andeq	r0, r0, r0, ror #3
     7c8:	01f30004 	mvnseq	r0, r4
     7cc:	01e09f53 	mvneq	r9, r3, asr pc
     7d0:	01eb0000 	mvneq	r0, r0
     7d4:	00010000 	andeq	r0, r1, r0
     7d8:	0000005c 	andeq	r0, r0, ip, asr r0
     7dc:	00000000 	andeq	r0, r0, r0
     7e0:	0000ec00 	andeq	lr, r0, r0, lsl #24
     7e4:	0000fc00 	andeq	pc, r0, r0, lsl #24
     7e8:	30000200 	andcc	r0, r0, r0, lsl #4
     7ec:	0000fc9f 	muleq	r0, pc, ip	; <UNPREDICTABLE>
     7f0:	00010400 	andeq	r0, r1, r0, lsl #8
     7f4:	31000200 	mrscc	r0, R8_usr
     7f8:	0001049f 	muleq	r1, pc, r4	; <UNPREDICTABLE>
     7fc:	00010800 	andeq	r0, r1, r0, lsl #16
     800:	30000200 	andcc	r0, r0, r0, lsl #4
     804:	0000009f 	muleq	r0, pc, r0	; <UNPREDICTABLE>
     808:	00000000 	andeq	r0, r0, r0
     80c:	00022800 	andeq	r2, r2, r0, lsl #16
     810:	00023b00 	andeq	r3, r2, r0, lsl #22
     814:	50000100 	andpl	r0, r0, r0, lsl #2
     818:	0000023b 	andeq	r0, r0, fp, lsr r2
     81c:	0000025c 	andeq	r0, r0, ip, asr r2
     820:	01f30004 	mvnseq	r0, r4
     824:	025c9f50 	subseq	r9, ip, #80, 30	; 0x140
     828:	02900000 	addseq	r0, r0, #0
     82c:	00010000 	andeq	r0, r1, r0
     830:	00000050 	andeq	r0, r0, r0, asr r0
     834:	00000000 	andeq	r0, r0, r0
     838:	00022800 	andeq	r2, r2, r0, lsl #16
     83c:	00023b00 	andeq	r3, r2, r0, lsl #22
     840:	51000100 	mrspl	r0, (UNDEF: 16)
     844:	0000023b 	andeq	r0, r0, fp, lsr r2
     848:	0000025c 	andeq	r0, r0, ip, asr r2
     84c:	01f30004 	mvnseq	r0, r4
     850:	025c9f51 	subseq	r9, ip, #324	; 0x144
     854:	02900000 	addseq	r0, r0, #0
     858:	00010000 	andeq	r0, r1, r0
     85c:	00000051 	andeq	r0, r0, r1, asr r0
     860:	00000000 	andeq	r0, r0, r0
     864:	00029000 	andeq	r9, r2, r0
     868:	0002bc00 	andeq	fp, r2, r0, lsl #24
     86c:	50000100 	andpl	r0, r0, r0, lsl #2
     870:	000002bc 			; <UNDEFINED> instruction: 0x000002bc
     874:	0000050c 	andeq	r0, r0, ip, lsl #10
     878:	0c5a0001 	mrrceq	0, 0, r0, sl, cr1
     87c:	24000005 	strcs	r0, [r0], #-5
     880:	04000005 	streq	r0, [r0], #-5
     884:	5001f300 	andpl	pc, r1, r0, lsl #6
     888:	0000009f 	muleq	r0, pc, r0	; <UNPREDICTABLE>
     88c:	00000000 	andeq	r0, r0, r0
     890:	00029000 	andeq	r9, r2, r0
     894:	0002a400 	andeq	sl, r2, r0, lsl #8
     898:	51000100 	mrspl	r0, (UNDEF: 16)
     89c:	000002a4 	andeq	r0, r0, r4, lsr #5
     8a0:	000002bc 			; <UNDEFINED> instruction: 0x000002bc
     8a4:	01710003 	cmneq	r1, r3
     8a8:	0002bc9f 	muleq	r2, pc, ip	; <UNPREDICTABLE>
     8ac:	00052400 	andeq	r2, r5, r0, lsl #8
     8b0:	f3000400 	vshl.u8	d0, d0, d0
     8b4:	009f5101 	addseq	r5, pc, r1, lsl #2
     8b8:	00000000 	andeq	r0, r0, r0
     8bc:	90000000 	andls	r0, r0, r0
     8c0:	c4000002 	strgt	r0, [r0], #-2
     8c4:	01000002 	tsteq	r0, r2
     8c8:	02c45200 	sbceq	r5, r4, #0, 4
     8cc:	02ec0000 	rsceq	r0, ip, #0
     8d0:	00010000 	andeq	r0, r1, r0
     8d4:	0002ec52 	andeq	lr, r2, r2, asr ip
     8d8:	0004bc00 	andeq	fp, r4, r0, lsl #24
     8dc:	56000100 	strpl	r0, [r0], -r0, lsl #2
     8e0:	000004bc 			; <UNDEFINED> instruction: 0x000004bc
     8e4:	00000524 	andeq	r0, r0, r4, lsr #10
     8e8:	00520001 	subseq	r0, r2, r1
     8ec:	00000000 	andeq	r0, r0, r0
     8f0:	90000000 	andls	r0, r0, r0
     8f4:	ac000002 	stcge	0, cr0, [r0], {2}
     8f8:	01000002 	tsteq	r0, r2
     8fc:	00005300 	andeq	r5, r0, r0, lsl #6
     900:	00000000 	andeq	r0, r0, r0
     904:	02a00000 	adceq	r0, r0, #0
     908:	02bc0000 	adcseq	r0, ip, #0
     90c:	00010000 	andeq	r0, r1, r0
     910:	0002bc50 	andeq	fp, r2, r0, asr ip
     914:	0002c000 	andeq	ip, r2, r0
     918:	54000100 	strpl	r0, [r0], #-256	; 0x100
     91c:	000002c0 	andeq	r0, r0, r0, asr #5
     920:	000002cc 	andeq	r0, r0, ip, asr #5
     924:	01740003 	cmneq	r4, r3
     928:	0002cc9f 	muleq	r2, pc, ip	; <UNPREDICTABLE>
     92c:	0002d800 	andeq	sp, r2, r0, lsl #16
     930:	54000100 	strpl	r0, [r0], #-256	; 0x100
     934:	000002d8 	ldrdeq	r0, [r0], -r8
     938:	000002e4 	andeq	r0, r0, r4, ror #5
     93c:	01740003 	cmneq	r4, r3
     940:	0002e49f 	muleq	r2, pc, r4	; <UNPREDICTABLE>
     944:	0004c000 	andeq	ip, r4, r0
     948:	54000100 	strpl	r0, [r0], #-256	; 0x100
     94c:	000004c0 	andeq	r0, r0, r0, asr #9
     950:	000004cc 	andeq	r0, r0, ip, asr #9
     954:	01740003 	cmneq	r4, r3
     958:	0004cc9f 	muleq	r4, pc, ip	; <UNPREDICTABLE>
     95c:	0004f800 	andeq	pc, r4, r0, lsl #16
     960:	54000100 	strpl	r0, [r0], #-256	; 0x100
     964:	000004f8 	strdeq	r0, [r0], -r8
     968:	00000504 	andeq	r0, r0, r4, lsl #10
     96c:	04500001 	ldrbeq	r0, [r0], #-1
     970:	0c000005 	stceq	0, cr0, [r0], {5}
     974:	03000005 	movweq	r0, #5
     978:	9f017400 	svcls	0x00017400
	...
     984:	000002a8 	andeq	r0, r0, r8, lsr #5
     988:	0000050c 	andeq	r0, r0, ip, lsl #10
     98c:	0c580001 	mrrceq	0, 0, r0, r8, cr1
     990:	24000005 	strcs	r0, [r0], #-5
     994:	0a000005 	beq	9b0 <_start-0x7650>
     998:	5101f300 	mrspl	pc, SP_irq	; <UNPREDICTABLE>
     99c:	225001f3 	subscs	r0, r0, #-1073741764	; 0xc000003c
     9a0:	009f1c31 	addseq	r1, pc, r1, lsr ip	; <UNPREDICTABLE>
     9a4:	00000000 	andeq	r0, r0, r0
     9a8:	f4000000 	vst4.8	{d0-d3}, [r0], r0
     9ac:	f8000003 			; <UNDEFINED> instruction: 0xf8000003
     9b0:	01000003 	tsteq	r0, r3
     9b4:	04185000 	ldreq	r5, [r8], #-0
     9b8:	041c0000 	ldreq	r0, [ip], #-0
     9bc:	00010000 	andeq	r0, r1, r0
     9c0:	00043c50 	andeq	r3, r4, r0, asr ip
     9c4:	00044000 	andeq	r4, r4, r0
     9c8:	50000100 	andpl	r0, r0, r0, lsl #2
     9cc:	00000460 	andeq	r0, r0, r0, ror #8
     9d0:	00000464 	andeq	r0, r0, r4, ror #8
     9d4:	6c500001 	mrrcvs	0, 0, r0, r0, cr1	; <UNPREDICTABLE>
     9d8:	70000004 	andvc	r0, r0, r4
     9dc:	01000004 	tsteq	r0, r4
     9e0:	04905000 	ldreq	r5, [r0], #0
     9e4:	04940000 	ldreq	r0, [r4], #0
     9e8:	00010000 	andeq	r0, r1, r0
     9ec:	0004b850 	andeq	fp, r4, r0, asr r8
     9f0:	0004e000 	andeq	lr, r4, r0
     9f4:	50000100 	andpl	r0, r0, r0, lsl #2
	...
     a00:	000002ec 	andeq	r0, r0, ip, ror #5
     a04:	000002f4 	strdeq	r0, [r0], -r4
     a08:	9f300002 	svcls	0x00300002
     a0c:	000002f4 	strdeq	r0, [r0], -r4
     a10:	000002f8 	strdeq	r0, [r0], -r8
     a14:	04570001 	ldrbeq	r0, [r7], #-1
     a18:	e0000003 	and	r0, r0, r3
     a1c:	01000004 	tsteq	r0, r4
     a20:	00005700 	andeq	r5, r0, r0, lsl #14
	...
     a2c:	000c0000 	andeq	r0, ip, r0
     a30:	00010000 	andeq	r0, r1, r0
     a34:	00000c50 	andeq	r0, r0, r0, asr ip
     a38:	00002000 	andeq	r2, r0, r0
     a3c:	54000100 	strpl	r0, [r0], #-256	; 0x100
	...
     a48:	00000034 	andeq	r0, r0, r4, lsr r0
     a4c:	0000003c 	andeq	r0, r0, ip, lsr r0
     a50:	04730003 	ldrbteq	r0, [r3], #-3
     a54:	00003c9f 	muleq	r0, pc, ip	; <UNPREDICTABLE>
     a58:	00004700 	andeq	r4, r0, r0, lsl #14
     a5c:	53000100 	movwpl	r0, #256	; 0x100
	...
     a68:	00000048 	andeq	r0, r0, r8, asr #32
     a6c:	00000074 	andeq	r0, r0, r4, ror r0
     a70:	74500001 	ldrbvc	r0, [r0], #-1
     a74:	83000000 	movwhi	r0, #0
     a78:	03000000 	movweq	r0, #0
     a7c:	9f787300 	svcls	0x00787300
	...
     a88:	0000887c 	andeq	r8, r0, ip, ror r8
     a8c:	00008880 	andeq	r8, r0, r0, lsl #17
     a90:	9f300002 	svcls	0x00300002
     a94:	00008880 	andeq	r8, r0, r0, lsl #17
     a98:	00008884 	andeq	r8, r0, r4, lsl #17
     a9c:	00500001 	subseq	r0, r0, r1
     aa0:	00000000 	andeq	r0, r0, r0
     aa4:	94000000 	strls	r0, [r0], #-0
     aa8:	98000088 	stmdals	r0, {r3, r7}
     aac:	02000088 	andeq	r0, r0, #136	; 0x88
     ab0:	989f3000 	ldmls	pc, {ip, sp}	; <UNPREDICTABLE>
     ab4:	9c000088 	stcls	0, cr0, [r0], {136}	; 0x88
     ab8:	01000088 	smlabbeq	r0, r8, r0, r0
     abc:	88a05300 	stmiahi	r0!, {r8, r9, ip, lr}
     ac0:	88a80000 	stmiahi	r8!, {}	; <UNPREDICTABLE>
     ac4:	00010000 	andeq	r0, r1, r0
     ac8:	00000053 	andeq	r0, r0, r3, asr r0
	...
     ad4:	00000400 	andeq	r0, r0, r0, lsl #8
     ad8:	50000100 	andpl	r0, r0, r0, lsl #2
     adc:	00000004 	andeq	r0, r0, r4
     ae0:	0000000c 	andeq	r0, r0, ip
     ae4:	0c530001 	mrrceq	0, 0, r0, r3, cr1
     ae8:	10000000 	andne	r0, r0, r0
     aec:	01000000 	mrseq	r0, (UNDEF: 0)
     af0:	00105000 	andseq	r5, r0, r0
     af4:	001c0000 	andseq	r0, ip, r0
     af8:	00010000 	andeq	r0, r1, r0
     afc:	00000053 	andeq	r0, r0, r3, asr r0
     b00:	00000000 	andeq	r0, r0, r0
     b04:	00003c00 	andeq	r3, r0, r0, lsl #24
     b08:	00004700 	andeq	r4, r0, r0, lsl #14
     b0c:	50000100 	andpl	r0, r0, r0, lsl #2
     b10:	00000047 	andeq	r0, r0, r7, asr #32
     b14:	00000060 	andeq	r0, r0, r0, rrx
     b18:	00550001 	subseq	r0, r5, r1
     b1c:	00000000 	andeq	r0, r0, r0
     b20:	50000000 	andpl	r0, r0, r0
     b24:	54000000 	strpl	r0, [r0], #-0
     b28:	01000000 	mrseq	r0, (UNDEF: 0)
     b2c:	00005000 	andeq	r5, r0, r0
     b30:	00000000 	andeq	r0, r0, r0
     b34:	00600000 	rsbeq	r0, r0, r0
     b38:	006c0000 	rsbeq	r0, ip, r0
     b3c:	00010000 	andeq	r0, r1, r0
     b40:	00006c50 	andeq	r6, r0, r0, asr ip
     b44:	00007400 	andeq	r7, r0, r0, lsl #8
     b48:	f3000400 	vshl.u8	d0, d0, d0
     b4c:	009f5001 	addseq	r5, pc, r1
     b50:	00000000 	andeq	r0, r0, r0
     b54:	74000000 	strvc	r0, [r0], #-0
     b58:	80000000 	andhi	r0, r0, r0
     b5c:	01000000 	mrseq	r0, (UNDEF: 0)
     b60:	00805000 	addeq	r5, r0, r0
     b64:	00880000 	addeq	r0, r8, r0
     b68:	00040000 	andeq	r0, r4, r0
     b6c:	9f5001f3 	svcls	0x005001f3
	...
     b7c:	00000090 	muleq	r0, r0, r0
     b80:	90500001 	subsls	r0, r0, r1
     b84:	d4000000 	strle	r0, [r0], #-0
     b88:	01000000 	mrseq	r0, (UNDEF: 0)
     b8c:	00005400 	andeq	r5, r0, r0, lsl #8
     b90:	00000000 	andeq	r0, r0, r0
     b94:	00480000 	subeq	r0, r8, r0
     b98:	004c0000 	subeq	r0, ip, r0
     b9c:	00010000 	andeq	r0, r1, r0
     ba0:	00005455 	andeq	r5, r0, r5, asr r4
     ba4:	00005800 	andeq	r5, r0, r0, lsl #16
     ba8:	55000100 	strpl	r0, [r0, #-256]	; 0x100
     bac:	00000060 	andeq	r0, r0, r0, rrx
     bb0:	00000064 	andeq	r0, r0, r4, rrx
     bb4:	6c550001 	mrrcvs	0, 0, r0, r5, cr1
     bb8:	70000000 	andvc	r0, r0, r0
     bbc:	01000000 	mrseq	r0, (UNDEF: 0)
     bc0:	00785500 	rsbseq	r5, r8, r0, lsl #10
     bc4:	007c0000 	rsbseq	r0, ip, r0
     bc8:	00010000 	andeq	r0, r1, r0
     bcc:	00008455 	andeq	r8, r0, r5, asr r4
     bd0:	00008800 	andeq	r8, r0, r0, lsl #16
     bd4:	55000100 	strpl	r0, [r0, #-256]	; 0x100
     bd8:	0000008c 	andeq	r0, r0, ip, lsl #1
     bdc:	000000d4 	ldrdeq	r0, [r0], -r4
     be0:	00550001 	subseq	r0, r5, r1
     be4:	00000000 	andeq	r0, r0, r0
     be8:	1c000000 	stcne	0, cr0, [r0], {-0}
     bec:	44000000 	strmi	r0, [r0], #-0
     bf0:	01000000 	mrseq	r0, (UNDEF: 0)
     bf4:	00445300 	subeq	r5, r4, r0, lsl #6
     bf8:	004c0000 	subeq	r0, ip, r0
     bfc:	001c0000 	andseq	r0, ip, r0
     c00:	2cf70070 	ldclcs	0, cr0, [r7], #448	; 0x1c0
     c04:	25f425f7 	ldrbcs	r2, [r4, #1527]!	; 0x5f7
     c08:	cccccd08 	stclgt	13, cr12, [ip], {8}
     c0c:	000000cc 	andeq	r0, r0, ip, asr #1
     c10:	20081e00 	andcs	r1, r8, r0, lsl #28
     c14:	f72525f7 			; <UNDEFINED> instruction: 0xf72525f7
     c18:	9f25332c 	svcls	0x0025332c
     c1c:	0000004c 	andeq	r0, r0, ip, asr #32
     c20:	00000050 	andeq	r0, r0, r0, asr r0
     c24:	50530001 	subspl	r0, r3, r1
     c28:	58000000 	stmdapl	r0, {}	; <UNPREDICTABLE>
     c2c:	1c000000 	stcne	0, cr0, [r0], {-0}
     c30:	f7007000 			; <UNDEFINED> instruction: 0xf7007000
     c34:	f425f72c 	vld1.8	{d15}, [r5 :128], ip
     c38:	cccd0825 	stclgt	8, cr0, [sp], {37}	; 0x25
     c3c:	0000cccc 	andeq	ip, r0, ip, asr #25
     c40:	081e0000 	ldmdaeq	lr, {}	; <UNPREDICTABLE>
     c44:	2525f720 	strcs	pc, [r5, #-1824]!	; 0x720
     c48:	25332cf7 	ldrcs	r2, [r3, #-3319]!	; 0xcf7
     c4c:	0000589f 	muleq	r0, pc, r8	; <UNPREDICTABLE>
     c50:	00005c00 	andeq	r5, r0, r0, lsl #24
     c54:	53000100 	movwpl	r0, #256	; 0x100
     c58:	0000005c 	andeq	r0, r0, ip, asr r0
     c5c:	00000064 	andeq	r0, r0, r4, rrx
     c60:	0070001c 	rsbseq	r0, r0, ip, lsl r0
     c64:	25f72cf7 	ldrbcs	r2, [r7, #3319]!	; 0xcf7
     c68:	cd0825f4 	cfstr32gt	mvfx2, [r8, #-976]	; 0xfffffc30
     c6c:	00cccccc 	sbceq	ip, ip, ip, asr #25
     c70:	1e000000 	cdpne	0, 0, cr0, cr0, cr0, {0}
     c74:	25f72008 	ldrbcs	r2, [r7, #8]!
     c78:	332cf725 	msrcc	CPSR_fs, #9699328	; 0x940000
     c7c:	00649f25 	rsbeq	r9, r4, r5, lsr #30
     c80:	00680000 	rsbeq	r0, r8, r0
     c84:	00010000 	andeq	r0, r1, r0
     c88:	00006853 	andeq	r6, r0, r3, asr r8
     c8c:	00007000 	andeq	r7, r0, r0
     c90:	70001c00 	andvc	r1, r0, r0, lsl #24
     c94:	f72cf700 			; <UNDEFINED> instruction: 0xf72cf700
     c98:	0825f425 	stmdaeq	r5!, {r0, r2, r5, sl, ip, sp, lr, pc}
     c9c:	cccccccd 	stclgt	12, cr12, [ip], {205}	; 0xcd
     ca0:	00000000 	andeq	r0, r0, r0
     ca4:	f720081e 			; <UNDEFINED> instruction: 0xf720081e
     ca8:	2cf72525 	cfldr64cs	mvdx2, [r7], #148	; 0x94
     cac:	709f2533 	addsvc	r2, pc, r3, lsr r5	; <UNPREDICTABLE>
     cb0:	74000000 	strvc	r0, [r0], #-0
     cb4:	01000000 	mrseq	r0, (UNDEF: 0)
     cb8:	00745300 	rsbseq	r5, r4, r0, lsl #6
     cbc:	007c0000 	rsbseq	r0, ip, r0
     cc0:	001c0000 	andseq	r0, ip, r0
     cc4:	2cf70070 	ldclcs	0, cr0, [r7], #448	; 0x1c0
     cc8:	25f425f7 	ldrbcs	r2, [r4, #1527]!	; 0x5f7
     ccc:	cccccd08 	stclgt	13, cr12, [ip], {8}
     cd0:	000000cc 	andeq	r0, r0, ip, asr #1
     cd4:	20081e00 	andcs	r1, r8, r0, lsl #28
     cd8:	f72525f7 			; <UNDEFINED> instruction: 0xf72525f7
     cdc:	9f25332c 	svcls	0x0025332c
     ce0:	0000007c 	andeq	r0, r0, ip, ror r0
     ce4:	00000080 	andeq	r0, r0, r0, lsl #1
     ce8:	80530001 	subshi	r0, r3, r1
     cec:	88000000 	stmdahi	r0, {}	; <UNPREDICTABLE>
     cf0:	1c000000 	stcne	0, cr0, [r0], {-0}
     cf4:	f7007000 			; <UNDEFINED> instruction: 0xf7007000
     cf8:	f425f72c 	vld1.8	{d15}, [r5 :128], ip
     cfc:	cccd0825 	stclgt	8, cr0, [sp], {37}	; 0x25
     d00:	0000cccc 	andeq	ip, r0, ip, asr #25
     d04:	081e0000 	ldmdaeq	lr, {}	; <UNPREDICTABLE>
     d08:	2525f720 	strcs	pc, [r5, #-1824]!	; 0x720
     d0c:	25332cf7 	ldrcs	r2, [r3, #-3319]!	; 0xcf7
     d10:	0000889f 	muleq	r0, pc, r8	; <UNPREDICTABLE>
     d14:	00008c00 	andeq	r8, r0, r0, lsl #24
     d18:	53000100 	movwpl	r0, #256	; 0x100
     d1c:	0000008c 	andeq	r0, r0, ip, lsl #1
     d20:	00000090 	muleq	r0, r0, r0
     d24:	0070001c 	rsbseq	r0, r0, ip, lsl r0
     d28:	25f72cf7 	ldrbcs	r2, [r7, #3319]!	; 0xcf7
     d2c:	cd0825f4 	cfstr32gt	mvfx2, [r8, #-976]	; 0xfffffc30
     d30:	00cccccc 	sbceq	ip, ip, ip, asr #25
     d34:	1e000000 	cdpne	0, 0, cr0, cr0, cr0, {0}
     d38:	25f72008 	ldrbcs	r2, [r7, #8]!
     d3c:	332cf725 	msrcc	CPSR_fs, #9699328	; 0x940000
     d40:	00909f25 	addseq	r9, r0, r5, lsr #30
     d44:	00980000 	addseq	r0, r8, r0
     d48:	001c0000 	andseq	r0, ip, r0
     d4c:	2cf70074 	ldclcs	0, cr0, [r7], #464	; 0x1d0
     d50:	25f425f7 	ldrbcs	r2, [r4, #1527]!	; 0x5f7
     d54:	cccccd08 	stclgt	13, cr12, [ip], {8}
     d58:	000000cc 	andeq	r0, r0, ip, asr #1
     d5c:	20081e00 	andcs	r1, r8, r0, lsl #28
     d60:	f72525f7 			; <UNDEFINED> instruction: 0xf72525f7
     d64:	9f25332c 	svcls	0x0025332c
     d68:	00000098 	muleq	r0, r8, r0
     d6c:	0000009c 	muleq	r0, ip, r0
     d70:	00740017 	rsbseq	r0, r4, r7, lsl r0
     d74:	25f72cf7 	ldrbcs	r2, [r7, #3319]!	; 0xcf7
     d78:	2cf70071 	ldclcs	0, cr0, [r7], #452	; 0x1c4
     d7c:	081e25f7 	ldmdaeq	lr, {r0, r1, r2, r4, r5, r6, r7, r8, sl, sp}
     d80:	2525f720 	strcs	pc, [r5, #-1824]!	; 0x720
     d84:	25332cf7 	ldrcs	r2, [r3, #-3319]!	; 0xcf7
     d88:	00009c9f 	muleq	r0, pc, ip	; <UNPREDICTABLE>
     d8c:	0000d400 	andeq	sp, r0, r0, lsl #8
     d90:	74001c00 	strvc	r1, [r0], #-3072	; 0xc00
     d94:	f72cf700 			; <UNDEFINED> instruction: 0xf72cf700
     d98:	0825f425 	stmdaeq	r5!, {r0, r2, r5, sl, ip, sp, lr, pc}
     d9c:	cccccccd 	stclgt	12, cr12, [ip], {205}	; 0xcd
     da0:	00000000 	andeq	r0, r0, r0
     da4:	f720081e 			; <UNDEFINED> instruction: 0xf720081e
     da8:	2cf72525 	cfldr64cs	mvdx2, [r7], #148	; 0x94
     dac:	009f2533 	addseq	r2, pc, r3, lsr r5	; <UNPREDICTABLE>
     db0:	00000000 	andeq	r0, r0, r0
     db4:	94000000 	strls	r0, [r0], #-0
     db8:	b8000000 	stmdalt	r0, {}	; <UNPREDICTABLE>
     dbc:	01000000 	mrseq	r0, (UNDEF: 0)
     dc0:	00b85000 	adcseq	r5, r8, r0
     dc4:	00c40000 	sbceq	r0, r4, r0
     dc8:	00080000 	andeq	r0, r8, r0
     dcc:	24007131 	strcs	r7, [r0], #-305	; 0x131
     dd0:	9f210073 	svcls	0x00210073
     dd4:	000000c4 	andeq	r0, r0, r4, asr #1
     dd8:	000000c7 	andeq	r0, r0, r7, asr #1
     ddc:	00510001 	subseq	r0, r1, r1
     de0:	00000000 	andeq	r0, r0, r0
     de4:	d4000000 	strle	r0, [r0], #-0
     de8:	f8000000 			; <UNDEFINED> instruction: 0xf8000000
     dec:	01000000 	mrseq	r0, (UNDEF: 0)
     df0:	00f85000 	rscseq	r5, r8, r0
     df4:	010c0000 	mrseq	r0, (UNDEF: 12)
     df8:	00040000 	andeq	r0, r4, r0
     dfc:	9f5001f3 	svcls	0x005001f3
	...
     e08:	000000e0 	andeq	r0, r0, r0, ror #1
     e0c:	000000e8 	andeq	r0, r0, r8, ror #1
     e10:	9f300002 	svcls	0x00300002
     e14:	000000e8 	andeq	r0, r0, r8, ror #1
     e18:	000000e8 	andeq	r0, r0, r8, ror #1
     e1c:	e8520001 	ldmda	r2, {r0}^
     e20:	f0000000 			; <UNDEFINED> instruction: 0xf0000000
     e24:	02000000 	andeq	r0, r0, #0
     e28:	f09f3000 			; <UNDEFINED> instruction: 0xf09f3000
     e2c:	03000000 	movweq	r0, #0
     e30:	01000001 	tsteq	r0, r1
     e34:	00005200 	andeq	r5, r0, r0, lsl #4
     e38:	00000000 	andeq	r0, r0, r0
     e3c:	00e00000 	rsceq	r0, r0, r0
     e40:	00f40000 	rscseq	r0, r4, r0
     e44:	00020000 	andeq	r0, r2, r0
     e48:	00f49f30 	rscseq	r9, r4, r0, lsr pc
     e4c:	01000000 	mrseq	r0, (UNDEF: 0)
     e50:	00050000 	andeq	r0, r5, r0
     e54:	24007331 	strcs	r7, [r0], #-817	; 0x331
     e58:	0001009f 	muleq	r1, pc, r0	; <UNPREDICTABLE>
     e5c:	00010300 	andeq	r0, r1, r0, lsl #6
     e60:	51000100 	mrspl	r0, (UNDEF: 16)
     e64:	00000103 	andeq	r0, r0, r3, lsl #2
     e68:	0000010c 	andeq	r0, r0, ip, lsl #2
     e6c:	f3310008 	vhadd.u<illegal width 64>	d0, d1, d8
     e70:	1a4f5001 	bne	13d4e7c <__bss_end__+0x13caf6c>
     e74:	00009f24 	andeq	r9, r0, r4, lsr #30
     e78:	00000000 	andeq	r0, r0, r0
     e7c:	010c0000 	mrseq	r0, (UNDEF: 12)
     e80:	01300000 	teqeq	r0, r0
     e84:	00010000 	andeq	r0, r1, r0
     e88:	00013050 	andeq	r3, r1, r0, asr r0
     e8c:	00014400 	andeq	r4, r1, r0, lsl #8
     e90:	f3000400 	vshl.u8	d0, d0, d0
     e94:	009f5001 	addseq	r5, pc, r1
     e98:	00000000 	andeq	r0, r0, r0
     e9c:	18000000 	stmdane	r0, {}	; <UNPREDICTABLE>
     ea0:	20000001 	andcs	r0, r0, r1
     ea4:	02000001 	andeq	r0, r0, #1
     ea8:	209f3000 	addscs	r3, pc, r0
     eac:	20000001 	andcs	r0, r0, r1
     eb0:	01000001 	tsteq	r0, r1
     eb4:	01205200 	teqeq	r0, r0, lsl #4
     eb8:	01280000 	teqeq	r8, r0
     ebc:	00020000 	andeq	r0, r2, r0
     ec0:	01289f30 	teqeq	r8, r0, lsr pc
     ec4:	013b0000 	teqeq	fp, r0
     ec8:	00010000 	andeq	r0, r1, r0
     ecc:	00000052 	andeq	r0, r0, r2, asr r0
     ed0:	00000000 	andeq	r0, r0, r0
     ed4:	00011800 	andeq	r1, r1, r0, lsl #16
     ed8:	00012c00 	andeq	r2, r1, r0, lsl #24
     edc:	30000200 	andcc	r0, r0, r0, lsl #4
     ee0:	00012c9f 	muleq	r1, pc, ip	; <UNPREDICTABLE>
     ee4:	00013800 	andeq	r3, r1, r0, lsl #16
     ee8:	31000500 	tstcc	r0, r0, lsl #10
     eec:	9f240073 	svcls	0x00240073
     ef0:	00000138 	andeq	r0, r0, r8, lsr r1
     ef4:	0000013b 	andeq	r0, r0, fp, lsr r1
     ef8:	3b510001 	blcc	1440f04 <__bss_end__+0x1436ff4>
     efc:	44000001 	strmi	r0, [r0], #-1
     f00:	08000001 	stmdaeq	r0, {r0}
     f04:	01f33100 	mvnseq	r3, r0, lsl #2
     f08:	241a4f50 	ldrcs	r4, [sl], #-3920	; 0xf50
     f0c:	0000009f 	muleq	r0, pc, r0	; <UNPREDICTABLE>
     f10:	00000000 	andeq	r0, r0, r0
     f14:	00014400 	andeq	r4, r1, r0, lsl #8
     f18:	0001d400 	andeq	sp, r1, r0, lsl #8
     f1c:	50000100 	andpl	r0, r0, r0, lsl #2
     f20:	000001d4 	ldrdeq	r0, [r0], -r4
     f24:	00000210 	andeq	r0, r0, r0, lsl r2
     f28:	00540001 	subseq	r0, r4, r1
     f2c:	00000000 	andeq	r0, r0, r0
     f30:	8c000000 	stchi	0, cr0, [r0], {-0}
     f34:	90000001 	andls	r0, r0, r1
     f38:	01000001 	tsteq	r0, r1
     f3c:	01985500 	orrseq	r5, r8, r0, lsl #10
     f40:	019c0000 	orrseq	r0, ip, r0
     f44:	00010000 	andeq	r0, r1, r0
     f48:	0001a455 	andeq	sl, r1, r5, asr r4
     f4c:	0001a800 	andeq	sl, r1, r0, lsl #16
     f50:	55000100 	strpl	r0, [r0, #-256]	; 0x100
     f54:	000001b0 			; <UNDEFINED> instruction: 0x000001b0
     f58:	000001b4 			; <UNDEFINED> instruction: 0x000001b4
     f5c:	bc550001 	mrrclt	0, 0, r0, r5, cr1
     f60:	c0000001 	andgt	r0, r0, r1
     f64:	01000001 	tsteq	r0, r1
     f68:	01c85500 	biceq	r5, r8, r0, lsl #10
     f6c:	01cc0000 	biceq	r0, ip, r0
     f70:	00010000 	andeq	r0, r1, r0
     f74:	0001d055 	andeq	sp, r1, r5, asr r0
     f78:	00021000 	andeq	r1, r2, r0
     f7c:	55000100 	strpl	r0, [r0, #-256]	; 0x100
	...
     f88:	00000160 	andeq	r0, r0, r0, ror #2
     f8c:	00000188 	andeq	r0, r0, r8, lsl #3
     f90:	88530001 	ldmdahi	r3, {r0}^
     f94:	90000001 	andls	r0, r0, r1
     f98:	1c000001 	stcne	0, cr0, [r0], {1}
     f9c:	f7007000 			; <UNDEFINED> instruction: 0xf7007000
     fa0:	f425f72c 	vld1.8	{d15}, [r5 :128], ip
     fa4:	cccd0825 	stclgt	8, cr0, [sp], {37}	; 0x25
     fa8:	0000cccc 	andeq	ip, r0, ip, asr #25
     fac:	081e0000 	ldmdaeq	lr, {}	; <UNPREDICTABLE>
     fb0:	2525f720 	strcs	pc, [r5, #-1824]!	; 0x720
     fb4:	25332cf7 	ldrcs	r2, [r3, #-3319]!	; 0xcf7
     fb8:	0001909f 	muleq	r1, pc, r0	; <UNPREDICTABLE>
     fbc:	00019400 	andeq	r9, r1, r0, lsl #8
     fc0:	53000100 	movwpl	r0, #256	; 0x100
     fc4:	00000194 	muleq	r0, r4, r1
     fc8:	0000019c 	muleq	r0, ip, r1
     fcc:	0070001c 	rsbseq	r0, r0, ip, lsl r0
     fd0:	25f72cf7 	ldrbcs	r2, [r7, #3319]!	; 0xcf7
     fd4:	cd0825f4 	cfstr32gt	mvfx2, [r8, #-976]	; 0xfffffc30
     fd8:	00cccccc 	sbceq	ip, ip, ip, asr #25
     fdc:	1e000000 	cdpne	0, 0, cr0, cr0, cr0, {0}
     fe0:	25f72008 	ldrbcs	r2, [r7, #8]!
     fe4:	332cf725 	msrcc	CPSR_fs, #9699328	; 0x940000
     fe8:	019c9f25 	orrseq	r9, ip, r5, lsr #30
     fec:	01a00000 	moveq	r0, r0
     ff0:	00010000 	andeq	r0, r1, r0
     ff4:	0001a053 	andeq	sl, r1, r3, asr r0
     ff8:	0001a800 	andeq	sl, r1, r0, lsl #16
     ffc:	70001c00 	andvc	r1, r0, r0, lsl #24
    1000:	f72cf700 			; <UNDEFINED> instruction: 0xf72cf700
    1004:	0825f425 	stmdaeq	r5!, {r0, r2, r5, sl, ip, sp, lr, pc}
    1008:	cccccccd 	stclgt	12, cr12, [ip], {205}	; 0xcd
    100c:	00000000 	andeq	r0, r0, r0
    1010:	f720081e 			; <UNDEFINED> instruction: 0xf720081e
    1014:	2cf72525 	cfldr64cs	mvdx2, [r7], #148	; 0x94
    1018:	a89f2533 	ldmge	pc, {r0, r1, r4, r5, r8, sl, sp}	; <UNPREDICTABLE>
    101c:	ac000001 	stcge	0, cr0, [r0], {1}
    1020:	01000001 	tsteq	r0, r1
    1024:	01ac5300 			; <UNDEFINED> instruction: 0x01ac5300
    1028:	01b40000 			; <UNDEFINED> instruction: 0x01b40000
    102c:	001c0000 	andseq	r0, ip, r0
    1030:	2cf70070 	ldclcs	0, cr0, [r7], #448	; 0x1c0
    1034:	25f425f7 	ldrbcs	r2, [r4, #1527]!	; 0x5f7
    1038:	cccccd08 	stclgt	13, cr12, [ip], {8}
    103c:	000000cc 	andeq	r0, r0, ip, asr #1
    1040:	20081e00 	andcs	r1, r8, r0, lsl #28
    1044:	f72525f7 			; <UNDEFINED> instruction: 0xf72525f7
    1048:	9f25332c 	svcls	0x0025332c
    104c:	000001b4 			; <UNDEFINED> instruction: 0x000001b4
    1050:	000001b8 			; <UNDEFINED> instruction: 0x000001b8
    1054:	b8530001 	ldmdalt	r3, {r0}^
    1058:	c0000001 	andgt	r0, r0, r1
    105c:	1c000001 	stcne	0, cr0, [r0], {1}
    1060:	f7007000 			; <UNDEFINED> instruction: 0xf7007000
    1064:	f425f72c 	vld1.8	{d15}, [r5 :128], ip
    1068:	cccd0825 	stclgt	8, cr0, [sp], {37}	; 0x25
    106c:	0000cccc 	andeq	ip, r0, ip, asr #25
    1070:	081e0000 	ldmdaeq	lr, {}	; <UNPREDICTABLE>
    1074:	2525f720 	strcs	pc, [r5, #-1824]!	; 0x720
    1078:	25332cf7 	ldrcs	r2, [r3, #-3319]!	; 0xcf7
    107c:	0001c09f 	muleq	r1, pc, r0	; <UNPREDICTABLE>
    1080:	0001c400 	andeq	ip, r1, r0, lsl #8
    1084:	53000100 	movwpl	r0, #256	; 0x100
    1088:	000001c4 	andeq	r0, r0, r4, asr #3
    108c:	000001cc 	andeq	r0, r0, ip, asr #3
    1090:	0070001c 	rsbseq	r0, r0, ip, lsl r0
    1094:	25f72cf7 	ldrbcs	r2, [r7, #3319]!	; 0xcf7
    1098:	cd0825f4 	cfstr32gt	mvfx2, [r8, #-976]	; 0xfffffc30
    109c:	00cccccc 	sbceq	ip, ip, ip, asr #25
    10a0:	1e000000 	cdpne	0, 0, cr0, cr0, cr0, {0}
    10a4:	25f72008 	ldrbcs	r2, [r7, #8]!
    10a8:	332cf725 	msrcc	CPSR_fs, #9699328	; 0x940000
    10ac:	01cc9f25 	biceq	r9, ip, r5, lsr #30
    10b0:	01d00000 	bicseq	r0, r0, r0
    10b4:	00010000 	andeq	r0, r1, r0
    10b8:	0001d053 	andeq	sp, r1, r3, asr r0
    10bc:	0001d400 	andeq	sp, r1, r0, lsl #8
    10c0:	70001c00 	andvc	r1, r0, r0, lsl #24
    10c4:	f72cf700 			; <UNDEFINED> instruction: 0xf72cf700
    10c8:	0825f425 	stmdaeq	r5!, {r0, r2, r5, sl, ip, sp, lr, pc}
    10cc:	cccccccd 	stclgt	12, cr12, [ip], {205}	; 0xcd
    10d0:	00000000 	andeq	r0, r0, r0
    10d4:	f720081e 			; <UNDEFINED> instruction: 0xf720081e
    10d8:	2cf72525 	cfldr64cs	mvdx2, [r7], #148	; 0x94
    10dc:	d49f2533 	ldrle	r2, [pc], #1331	; 10e4 <_start-0x6f1c>
    10e0:	dc000001 	stcle	0, cr0, [r0], {1}
    10e4:	1c000001 	stcne	0, cr0, [r0], {1}
    10e8:	f7007400 			; <UNDEFINED> instruction: 0xf7007400
    10ec:	f425f72c 	vld1.8	{d15}, [r5 :128], ip
    10f0:	cccd0825 	stclgt	8, cr0, [sp], {37}	; 0x25
    10f4:	0000cccc 	andeq	ip, r0, ip, asr #25
    10f8:	081e0000 	ldmdaeq	lr, {}	; <UNPREDICTABLE>
    10fc:	2525f720 	strcs	pc, [r5, #-1824]!	; 0x720
    1100:	25332cf7 	ldrcs	r2, [r3, #-3319]!	; 0xcf7
    1104:	0001dc9f 	muleq	r1, pc, ip	; <UNPREDICTABLE>
    1108:	0001e000 	andeq	lr, r1, r0
    110c:	74001700 	strvc	r1, [r0], #-1792	; 0x700
    1110:	f72cf700 			; <UNDEFINED> instruction: 0xf72cf700
    1114:	f7007125 			; <UNDEFINED> instruction: 0xf7007125
    1118:	1e25f72c 	cdpne	7, 2, cr15, cr5, cr12, {1}
    111c:	25f72008 	ldrbcs	r2, [r7, #8]!
    1120:	332cf725 	msrcc	CPSR_fs, #9699328	; 0x940000
    1124:	01e09f25 	mvneq	r9, r5, lsr #30
    1128:	02100000 	andseq	r0, r0, #0
    112c:	001c0000 	andseq	r0, ip, r0
    1130:	2cf70074 	ldclcs	0, cr0, [r7], #464	; 0x1d0
    1134:	25f425f7 	ldrbcs	r2, [r4, #1527]!	; 0x5f7
    1138:	cccccd08 	stclgt	13, cr12, [ip], {8}
    113c:	000000cc 	andeq	r0, r0, ip, asr #1
    1140:	20081e00 	andcs	r1, r8, r0, lsl #28
    1144:	f72525f7 			; <UNDEFINED> instruction: 0xf72525f7
    1148:	9f25332c 	svcls	0x0025332c
	...
    1154:	000001d8 	ldrdeq	r0, [r0], -r8
    1158:	000001fc 	strdeq	r0, [r0], -ip
    115c:	fc500001 	mrrc2	0, 0, r0, r0, cr1	; <UNPREDICTABLE>
    1160:	03000001 	movweq	r0, #1
    1164:	01000002 	tsteq	r0, r2
    1168:	00005100 	andeq	r5, r0, r0, lsl #2
    116c:	00000000 	andeq	r0, r0, r0
    1170:	02100000 	andseq	r0, r0, #0
    1174:	022c0000 	eoreq	r0, ip, #0
    1178:	00010000 	andeq	r0, r1, r0
    117c:	00022c50 	andeq	r2, r2, r0, asr ip
    1180:	00023400 	andeq	r3, r2, r0, lsl #8
    1184:	54000100 	strpl	r0, [r0], #-256	; 0x100
    1188:	00000234 	andeq	r0, r0, r4, lsr r2
    118c:	0000023c 	andeq	r0, r0, ip, lsr r2
    1190:	3c500001 	mrrccc	0, 0, r0, r0, cr1	; <UNPREDICTABLE>
    1194:	44000002 	strmi	r0, [r0], #-2
    1198:	01000002 	tsteq	r0, r2
    119c:	02445400 	subeq	r5, r4, #0, 8
    11a0:	02500000 	subseq	r0, r0, #0
    11a4:	00040000 	andeq	r0, r4, r0
    11a8:	9f5001f3 	svcls	0x005001f3
    11ac:	00000250 	andeq	r0, r0, r0, asr r2
    11b0:	00000254 	andeq	r0, r0, r4, asr r2
    11b4:	54500001 	ldrbpl	r0, [r0], #-1
    11b8:	5c000002 	stcpl	0, cr0, [r0], {2}
    11bc:	01000002 	tsteq	r0, r2
    11c0:	00005400 	andeq	r5, r0, r0, lsl #8
    11c4:	00000000 	andeq	r0, r0, r0
    11c8:	02200000 	eoreq	r0, r0, #0
    11cc:	02300000 	eorseq	r0, r0, #0
    11d0:	00020000 	andeq	r0, r2, r0
    11d4:	02309f30 	eorseq	r9, r0, #48, 30	; 0xc0
    11d8:	02340000 	eorseq	r0, r4, #0
    11dc:	00010000 	andeq	r0, r1, r0
    11e0:	00023450 	andeq	r3, r2, r0, asr r4
    11e4:	00024000 	andeq	r4, r2, r0
    11e8:	30000200 	andcc	r0, r0, r0, lsl #4
    11ec:	0002409f 	muleq	r2, pc, r0	; <UNPREDICTABLE>
    11f0:	00024c00 	andeq	r4, r2, r0, lsl #24
    11f4:	50000100 	andpl	r0, r0, r0, lsl #2
	...
    1200:	0000025c 	andeq	r0, r0, ip, asr r2
    1204:	00000273 	andeq	r0, r0, r3, ror r2
    1208:	73500001 	cmpvc	r0, #1
    120c:	78000002 	stmdavc	r0, {r1}
    1210:	04000002 	streq	r0, [r0], #-2
    1214:	5001f300 	andpl	pc, r1, r0, lsl #6
    1218:	0002789f 	muleq	r2, pc, r8	; <UNPREDICTABLE>
    121c:	00027b00 	andeq	r7, r2, r0, lsl #22
    1220:	50000100 	andpl	r0, r0, r0, lsl #2
    1224:	0000027b 	andeq	r0, r0, fp, ror r2
    1228:	00000280 	andeq	r0, r0, r0, lsl #5
    122c:	01f30004 	mvnseq	r0, r4
    1230:	00009f50 	andeq	r9, r0, r0, asr pc
    1234:	00000000 	andeq	r0, r0, r0
    1238:	025c0000 	subseq	r0, ip, #0
    123c:	02730000 	rsbseq	r0, r3, #0
    1240:	00010000 	andeq	r0, r1, r0
    1244:	00027351 	andeq	r7, r2, r1, asr r3
    1248:	00027800 	andeq	r7, r2, r0, lsl #16
    124c:	f3000400 	vshl.u8	d0, d0, d0
    1250:	789f5101 	ldmvc	pc, {r0, r8, ip, lr}	; <UNPREDICTABLE>
    1254:	7b000002 	blvc	1264 <_start-0x6d9c>
    1258:	01000002 	tsteq	r0, r2
    125c:	027b5100 	rsbseq	r5, fp, #0, 2
    1260:	02800000 	addeq	r0, r0, #0
    1264:	00040000 	andeq	r0, r4, r0
    1268:	9f5101f3 	svcls	0x005101f3
	...
    1274:	00000280 	andeq	r0, r0, r0, lsl #5
    1278:	00000318 	andeq	r0, r0, r8, lsl r3
    127c:	18500001 	ldmdane	r0, {r0}^
    1280:	58000003 	stmdapl	r0, {r0, r1}
    1284:	01000003 	tsteq	r0, r3
    1288:	00005400 	andeq	r5, r0, r0, lsl #8
    128c:	00000000 	andeq	r0, r0, r0
    1290:	02800000 	addeq	r0, r0, #0
    1294:	031b0000 	tsteq	fp, #0
    1298:	00010000 	andeq	r0, r1, r0
    129c:	00031b51 	andeq	r1, r3, r1, asr fp
    12a0:	00035800 	andeq	r5, r3, r0, lsl #16
    12a4:	f3000400 	vshl.u8	d0, d0, d0
    12a8:	009f5101 	addseq	r5, pc, r1, lsl #2
    12ac:	00000000 	andeq	r0, r0, r0
    12b0:	d0000000 	andle	r0, r0, r0
    12b4:	d4000002 	strle	r0, [r0], #-2
    12b8:	01000002 	tsteq	r0, r2
    12bc:	02dc5600 	sbcseq	r5, ip, #0, 12
    12c0:	02e00000 	rsceq	r0, r0, #0
    12c4:	00010000 	andeq	r0, r1, r0
    12c8:	0002e856 	andeq	lr, r2, r6, asr r8
    12cc:	0002ec00 	andeq	lr, r2, r0, lsl #24
    12d0:	56000100 	strpl	r0, [r0], -r0, lsl #2
    12d4:	000002f4 	strdeq	r0, [r0], -r4
    12d8:	000002f8 	strdeq	r0, [r0], -r8
    12dc:	00560001 	subseq	r0, r6, r1
    12e0:	04000003 	streq	r0, [r0], #-3
    12e4:	01000003 	tsteq	r0, r3
    12e8:	030c5600 	movweq	r5, #50688	; 0xc600
    12ec:	03100000 	tsteq	r0, #0
    12f0:	00010000 	andeq	r0, r1, r0
    12f4:	00031456 	andeq	r1, r3, r6, asr r4
    12f8:	00035800 	andeq	r5, r3, r0, lsl #16
    12fc:	56000100 	strpl	r0, [r0], -r0, lsl #2
	...
    1308:	000002a4 	andeq	r0, r0, r4, lsr #5
    130c:	000002cc 	andeq	r0, r0, ip, asr #5
    1310:	cc530001 	mrrcgt	0, 0, r0, r3, cr1
    1314:	d4000002 	strle	r0, [r0], #-2
    1318:	1c000002 	stcne	0, cr0, [r0], {2}
    131c:	f7007000 			; <UNDEFINED> instruction: 0xf7007000
    1320:	f425f72c 	vld1.8	{d15}, [r5 :128], ip
    1324:	cccd0825 	stclgt	8, cr0, [sp], {37}	; 0x25
    1328:	0000cccc 	andeq	ip, r0, ip, asr #25
    132c:	081e0000 	ldmdaeq	lr, {}	; <UNPREDICTABLE>
    1330:	2525f720 	strcs	pc, [r5, #-1824]!	; 0x720
    1334:	25332cf7 	ldrcs	r2, [r3, #-3319]!	; 0xcf7
    1338:	0002d49f 	muleq	r2, pc, r4	; <UNPREDICTABLE>
    133c:	0002d800 	andeq	sp, r2, r0, lsl #16
    1340:	53000100 	movwpl	r0, #256	; 0x100
    1344:	000002d8 	ldrdeq	r0, [r0], -r8
    1348:	000002e0 	andeq	r0, r0, r0, ror #5
    134c:	0070001c 	rsbseq	r0, r0, ip, lsl r0
    1350:	25f72cf7 	ldrbcs	r2, [r7, #3319]!	; 0xcf7
    1354:	cd0825f4 	cfstr32gt	mvfx2, [r8, #-976]	; 0xfffffc30
    1358:	00cccccc 	sbceq	ip, ip, ip, asr #25
    135c:	1e000000 	cdpne	0, 0, cr0, cr0, cr0, {0}
    1360:	25f72008 	ldrbcs	r2, [r7, #8]!
    1364:	332cf725 	msrcc	CPSR_fs, #9699328	; 0x940000
    1368:	02e09f25 	rsceq	r9, r0, #37, 30	; 0x94
    136c:	02e40000 	rsceq	r0, r4, #0
    1370:	00010000 	andeq	r0, r1, r0
    1374:	0002e453 	andeq	lr, r2, r3, asr r4
    1378:	0002ec00 	andeq	lr, r2, r0, lsl #24
    137c:	70001c00 	andvc	r1, r0, r0, lsl #24
    1380:	f72cf700 			; <UNDEFINED> instruction: 0xf72cf700
    1384:	0825f425 	stmdaeq	r5!, {r0, r2, r5, sl, ip, sp, lr, pc}
    1388:	cccccccd 	stclgt	12, cr12, [ip], {205}	; 0xcd
    138c:	00000000 	andeq	r0, r0, r0
    1390:	f720081e 			; <UNDEFINED> instruction: 0xf720081e
    1394:	2cf72525 	cfldr64cs	mvdx2, [r7], #148	; 0x94
    1398:	ec9f2533 	cfldr32	mvfx2, [pc], {51}	; 0x33
    139c:	f0000002 			; <UNDEFINED> instruction: 0xf0000002
    13a0:	01000002 	tsteq	r0, r2
    13a4:	02f05300 	rscseq	r5, r0, #0, 6
    13a8:	02f80000 	rscseq	r0, r8, #0
    13ac:	001c0000 	andseq	r0, ip, r0
    13b0:	2cf70070 	ldclcs	0, cr0, [r7], #448	; 0x1c0
    13b4:	25f425f7 	ldrbcs	r2, [r4, #1527]!	; 0x5f7
    13b8:	cccccd08 	stclgt	13, cr12, [ip], {8}
    13bc:	000000cc 	andeq	r0, r0, ip, asr #1
    13c0:	20081e00 	andcs	r1, r8, r0, lsl #28
    13c4:	f72525f7 			; <UNDEFINED> instruction: 0xf72525f7
    13c8:	9f25332c 	svcls	0x0025332c
    13cc:	000002f8 	strdeq	r0, [r0], -r8
    13d0:	000002fc 	strdeq	r0, [r0], -ip
    13d4:	fc530001 	mrrc2	0, 0, r0, r3, cr1
    13d8:	04000002 	streq	r0, [r0], #-2
    13dc:	1c000003 	stcne	0, cr0, [r0], {3}
    13e0:	f7007000 			; <UNDEFINED> instruction: 0xf7007000
    13e4:	f425f72c 	vld1.8	{d15}, [r5 :128], ip
    13e8:	cccd0825 	stclgt	8, cr0, [sp], {37}	; 0x25
    13ec:	0000cccc 	andeq	ip, r0, ip, asr #25
    13f0:	081e0000 	ldmdaeq	lr, {}	; <UNPREDICTABLE>
    13f4:	2525f720 	strcs	pc, [r5, #-1824]!	; 0x720
    13f8:	25332cf7 	ldrcs	r2, [r3, #-3319]!	; 0xcf7
    13fc:	0003049f 	muleq	r3, pc, r4	; <UNPREDICTABLE>
    1400:	00030800 	andeq	r0, r3, r0, lsl #16
    1404:	53000100 	movwpl	r0, #256	; 0x100
    1408:	00000308 	andeq	r0, r0, r8, lsl #6
    140c:	00000310 	andeq	r0, r0, r0, lsl r3
    1410:	0070001c 	rsbseq	r0, r0, ip, lsl r0
    1414:	25f72cf7 	ldrbcs	r2, [r7, #3319]!	; 0xcf7
    1418:	cd0825f4 	cfstr32gt	mvfx2, [r8, #-976]	; 0xfffffc30
    141c:	00cccccc 	sbceq	ip, ip, ip, asr #25
    1420:	1e000000 	cdpne	0, 0, cr0, cr0, cr0, {0}
    1424:	25f72008 	ldrbcs	r2, [r7, #8]!
    1428:	332cf725 	msrcc	CPSR_fs, #9699328	; 0x940000
    142c:	03109f25 	tsteq	r0, #37, 30	; 0x94
    1430:	03140000 	tsteq	r4, #0
    1434:	00010000 	andeq	r0, r1, r0
    1438:	00031453 	andeq	r1, r3, r3, asr r4
    143c:	00031800 	andeq	r1, r3, r0, lsl #16
    1440:	70001c00 	andvc	r1, r0, r0, lsl #24
    1444:	f72cf700 			; <UNDEFINED> instruction: 0xf72cf700
    1448:	0825f425 	stmdaeq	r5!, {r0, r2, r5, sl, ip, sp, lr, pc}
    144c:	cccccccd 	stclgt	12, cr12, [ip], {205}	; 0xcd
    1450:	00000000 	andeq	r0, r0, r0
    1454:	f720081e 			; <UNDEFINED> instruction: 0xf720081e
    1458:	2cf72525 	cfldr64cs	mvdx2, [r7], #148	; 0x94
    145c:	189f2533 	ldmne	pc, {r0, r1, r4, r5, r8, sl, sp}	; <UNPREDICTABLE>
    1460:	20000003 	andcs	r0, r0, r3
    1464:	1c000003 	stcne	0, cr0, [r0], {3}
    1468:	f7007400 			; <UNDEFINED> instruction: 0xf7007400
    146c:	f425f72c 	vld1.8	{d15}, [r5 :128], ip
    1470:	cccd0825 	stclgt	8, cr0, [sp], {37}	; 0x25
    1474:	0000cccc 	andeq	ip, r0, ip, asr #25
    1478:	081e0000 	ldmdaeq	lr, {}	; <UNPREDICTABLE>
    147c:	2525f720 	strcs	pc, [r5, #-1824]!	; 0x720
    1480:	25332cf7 	ldrcs	r2, [r3, #-3319]!	; 0xcf7
    1484:	0003209f 	muleq	r3, pc, r0	; <UNPREDICTABLE>
    1488:	00032400 	andeq	r2, r3, r0, lsl #8
    148c:	74001700 	strvc	r1, [r0], #-1792	; 0x700
    1490:	f72cf700 			; <UNDEFINED> instruction: 0xf72cf700
    1494:	f7007325 			; <UNDEFINED> instruction: 0xf7007325
    1498:	1e25f72c 	cdpne	7, 2, cr15, cr5, cr12, {1}
    149c:	25f72008 	ldrbcs	r2, [r7, #8]!
    14a0:	332cf725 	msrcc	CPSR_fs, #9699328	; 0x940000
    14a4:	03249f25 	teqeq	r4, #37, 30	; 0x94
    14a8:	03580000 	cmpeq	r8, #0
    14ac:	001c0000 	andseq	r0, ip, r0
    14b0:	2cf70074 	ldclcs	0, cr0, [r7], #464	; 0x1d0
    14b4:	25f425f7 	ldrbcs	r2, [r4, #1527]!	; 0x5f7
    14b8:	cccccd08 	stclgt	13, cr12, [ip], {8}
    14bc:	000000cc 	andeq	r0, r0, ip, asr #1
    14c0:	20081e00 	andcs	r1, r8, r0, lsl #28
    14c4:	f72525f7 			; <UNDEFINED> instruction: 0xf72525f7
    14c8:	9f25332c 	svcls	0x0025332c
	...
    14d4:	0000031c 	andeq	r0, r0, ip, lsl r3
    14d8:	00000340 	andeq	r0, r0, r0, asr #6
    14dc:	40500001 	subsmi	r0, r0, r1
    14e0:	48000003 	stmdami	r0, {r0, r1}
    14e4:	09000003 	stmdbeq	r0, {r0, r1}
    14e8:	73007500 	movwvc	r7, #1280	; 0x500
    14ec:	00712400 	rsbseq	r2, r1, r0, lsl #8
    14f0:	03489f21 	movteq	r9, #36641	; 0x8f21
    14f4:	034b0000 	movteq	r0, #45056	; 0xb000
    14f8:	00010000 	andeq	r0, r1, r0
    14fc:	00000051 	andeq	r0, r0, r1, asr r0
    1500:	00000000 	andeq	r0, r0, r0
    1504:	00035800 	andeq	r5, r3, r0, lsl #16
    1508:	00037c00 	andeq	r7, r3, r0, lsl #24
    150c:	50000100 	andpl	r0, r0, r0, lsl #2
    1510:	0000037c 	andeq	r0, r0, ip, ror r3
    1514:	00000390 	muleq	r0, r0, r3
    1518:	01f30004 	mvnseq	r0, r4
    151c:	00009f50 	andeq	r9, r0, r0, asr pc
    1520:	00000000 	andeq	r0, r0, r0
    1524:	03640000 	cmneq	r4, #0
    1528:	036c0000 	cmneq	ip, #0
    152c:	00020000 	andeq	r0, r2, r0
    1530:	036c9f30 	cmneq	ip, #48, 30	; 0xc0
    1534:	036c0000 	cmneq	ip, #0
    1538:	00010000 	andeq	r0, r1, r0
    153c:	00036c52 	andeq	r6, r3, r2, asr ip
    1540:	00037400 	andeq	r7, r3, r0, lsl #8
    1544:	30000200 	andcc	r0, r0, r0, lsl #4
    1548:	0003749f 	muleq	r3, pc, r4	; <UNPREDICTABLE>
    154c:	00038700 	andeq	r8, r3, r0, lsl #14
    1550:	52000100 	andpl	r0, r0, #0, 2
	...
    155c:	00000364 	andeq	r0, r0, r4, ror #6
    1560:	00000378 	andeq	r0, r0, r8, ror r3
    1564:	9f300002 	svcls	0x00300002
    1568:	00000378 	andeq	r0, r0, r8, ror r3
    156c:	00000384 	andeq	r0, r0, r4, lsl #7
    1570:	73310005 	teqvc	r1, #5
    1574:	849f2400 	ldrhi	r2, [pc], #1024	; 157c <_start-0x6a84>
    1578:	87000003 	strhi	r0, [r0, -r3]
    157c:	01000003 	tsteq	r0, r3
    1580:	03875100 	orreq	r5, r7, #0, 2
    1584:	03900000 	orrseq	r0, r0, #0
    1588:	00080000 	andeq	r0, r8, r0
    158c:	5001f331 	andpl	pc, r1, r1, lsr r3	; <UNPREDICTABLE>
    1590:	9f241a4f 	svcls	0x00241a4f
	...
    159c:	00000390 	muleq	r0, r0, r3
    15a0:	0000039c 	muleq	r0, ip, r3
    15a4:	9c500001 	mrrcls	0, 0, r0, r0, cr1	; <UNPREDICTABLE>
    15a8:	bc000003 	stclt	0, cr0, [r0], {3}
    15ac:	04000003 	streq	r0, [r0], #-3
    15b0:	5001f300 	andpl	pc, r1, r0, lsl #6
    15b4:	0000009f 	muleq	r0, pc, r0	; <UNPREDICTABLE>
    15b8:	00000000 	andeq	r0, r0, r0
    15bc:	0003bc00 	andeq	fp, r3, r0, lsl #24
    15c0:	0003cf00 	andeq	ip, r3, r0, lsl #30
    15c4:	50000100 	andpl	r0, r0, r0, lsl #2
    15c8:	000003cf 	andeq	r0, r0, pc, asr #7
    15cc:	00000408 	andeq	r0, r0, r8, lsl #8
    15d0:	08540001 	ldmdaeq	r4, {r0}^
    15d4:	40000004 	andmi	r0, r0, r4
    15d8:	04000004 	streq	r0, [r0], #-4
    15dc:	5001f300 	andpl	pc, r1, r0, lsl #6
    15e0:	0000009f 	muleq	r0, pc, r0	; <UNPREDICTABLE>
    15e4:	00000000 	andeq	r0, r0, r0
    15e8:	00042800 	andeq	r2, r4, r0, lsl #16
    15ec:	00042c00 	andeq	r2, r4, r0, lsl #24
    15f0:	50000100 	andpl	r0, r0, r0, lsl #2
    15f4:	0000042c 	andeq	r0, r0, ip, lsr #8
    15f8:	00000433 	andeq	r0, r0, r3, lsr r4
    15fc:	00510001 	subseq	r0, r1, r1
    1600:	00000000 	andeq	r0, r0, r0
    1604:	e4000000 	str	r0, [r0], #-0
    1608:	ec000003 	stc	0, cr0, [r0], {3}
    160c:	01000003 	tsteq	r0, r3
    1610:	03ec5000 	mvneq	r5, #0
    1614:	03f30000 	mvnseq	r0, #0
    1618:	00010000 	andeq	r0, r1, r0
    161c:	00000051 	andeq	r0, r0, r1, asr r0
    1620:	00000000 	andeq	r0, r0, r0
    1624:	00040400 	andeq	r0, r4, r0, lsl #8
    1628:	00041000 	andeq	r1, r4, r0
    162c:	50000100 	andpl	r0, r0, r0, lsl #2
    1630:	00000410 	andeq	r0, r0, r0, lsl r4
    1634:	00000417 	andeq	r0, r0, r7, lsl r4
    1638:	00510001 	subseq	r0, r1, r1
    163c:	00000000 	andeq	r0, r0, r0
    1640:	40000000 	andmi	r0, r0, r0
    1644:	53000004 	movwpl	r0, #4
    1648:	01000004 	tsteq	r0, r4
    164c:	04535000 	ldrbeq	r5, [r3], #-0
    1650:	048c0000 	streq	r0, [ip], #0
    1654:	00010000 	andeq	r0, r1, r0
    1658:	00048c54 	andeq	r8, r4, r4, asr ip
    165c:	0004c400 	andeq	ip, r4, r0, lsl #8
    1660:	f3000400 	vshl.u8	d0, d0, d0
    1664:	009f5001 	addseq	r5, pc, r1
    1668:	00000000 	andeq	r0, r0, r0
    166c:	ac000000 	stcge	0, cr0, [r0], {-0}
    1670:	b0000004 	andlt	r0, r0, r4
    1674:	01000004 	tsteq	r0, r4
    1678:	04b05000 	ldrteq	r5, [r0], #0
    167c:	04b70000 	ldrteq	r0, [r7], #0
    1680:	00010000 	andeq	r0, r1, r0
    1684:	00000051 	andeq	r0, r0, r1, asr r0
    1688:	00000000 	andeq	r0, r0, r0
    168c:	00046800 	andeq	r6, r4, r0, lsl #16
    1690:	00047000 	andeq	r7, r4, r0
    1694:	50000100 	andpl	r0, r0, r0, lsl #2
    1698:	00000470 	andeq	r0, r0, r0, ror r4
    169c:	00000477 	andeq	r0, r0, r7, ror r4
    16a0:	00510001 	subseq	r0, r1, r1
    16a4:	00000000 	andeq	r0, r0, r0
    16a8:	88000000 	stmdahi	r0, {}	; <UNPREDICTABLE>
    16ac:	94000004 	strls	r0, [r0], #-4
    16b0:	01000004 	tsteq	r0, r4
    16b4:	04945000 	ldreq	r5, [r4], #0
    16b8:	049b0000 	ldreq	r0, [fp], #0
    16bc:	00010000 	andeq	r0, r1, r0
    16c0:	00000051 	andeq	r0, r0, r1, asr r0
    16c4:	00000000 	andeq	r0, r0, r0
    16c8:	0004c400 	andeq	ip, r4, r0, lsl #8
    16cc:	0004d700 	andeq	sp, r4, r0, lsl #14
    16d0:	50000100 	andpl	r0, r0, r0, lsl #2
    16d4:	000004d7 	ldrdeq	r0, [r0], -r7
    16d8:	00000518 	andeq	r0, r0, r8, lsl r5
    16dc:	18540001 	ldmdane	r4, {r0}^
    16e0:	3c000005 	stccc	0, cr0, [r0], {5}
    16e4:	04000005 	streq	r0, [r0], #-5
    16e8:	5001f300 	andpl	pc, r1, r0, lsl #6
    16ec:	00053c9f 	muleq	r5, pc, ip	; <UNPREDICTABLE>
    16f0:	00054000 	andeq	r4, r5, r0
    16f4:	50000100 	andpl	r0, r0, r0, lsl #2
    16f8:	00000540 	andeq	r0, r0, r0, asr #10
    16fc:	00000548 	andeq	r0, r0, r8, asr #10
    1700:	00540001 	subseq	r0, r4, r1
    1704:	00000000 	andeq	r0, r0, r0
    1708:	ec000000 	stc	0, cr0, [r0], {-0}
    170c:	fb000004 	blx	1726 <_start-0x68da>
    1710:	08000004 	stmdaeq	r0, {r2}
    1714:	00743100 	rsbseq	r3, r4, r0, lsl #2
    1718:	1a007024 	bne	1d7b0 <__bss_end__+0x138a0>
    171c:	0000009f 	muleq	r0, pc, r0	; <UNPREDICTABLE>
    1720:	00000000 	andeq	r0, r0, r0
    1724:	00051800 	andeq	r1, r5, r0, lsl #16
    1728:	00053000 	andeq	r3, r5, r0
    172c:	54000100 	strpl	r0, [r0], #-256	; 0x100
	...
    1738:	00000548 	andeq	r0, r0, r8, asr #10
    173c:	0000055b 	andeq	r0, r0, fp, asr r5
    1740:	5b500001 	blpl	140174c <__bss_end__+0x13f783c>
    1744:	80000005 	andhi	r0, r0, r5
    1748:	01000005 	tsteq	r0, r5
    174c:	05805400 	streq	r5, [r0, #1024]	; 0x400
    1750:	05a00000 	streq	r0, [r0, #0]!
    1754:	00040000 	andeq	r0, r4, r0
    1758:	9f5001f3 	svcls	0x005001f3
	...
    1768:	00000018 	andeq	r0, r0, r8, lsl r0
    176c:	18500001 	ldmdane	r0, {r0}^
    1770:	54000000 	strpl	r0, [r0], #-0
    1774:	04000001 	streq	r0, [r0], #-1
    1778:	5001f300 	andpl	pc, r1, r0, lsl #6
    177c:	0000009f 	muleq	r0, pc, r0	; <UNPREDICTABLE>
	...
    1788:	00001c00 	andeq	r1, r0, r0, lsl #24
    178c:	51000100 	mrspl	r0, (UNDEF: 16)
    1790:	0000001c 	andeq	r0, r0, ip, lsl r0
    1794:	00000154 	andeq	r0, r0, r4, asr r1
    1798:	01f30004 	mvnseq	r0, r4
    179c:	00009f51 	andeq	r9, r0, r1, asr pc
    17a0:	00000000 	andeq	r0, r0, r0
    17a4:	00100000 	andseq	r0, r0, r0
    17a8:	01340000 	teqeq	r4, r0
    17ac:	00010000 	andeq	r0, r1, r0
    17b0:	00000055 	andeq	r0, r0, r5, asr r0
    17b4:	00000000 	andeq	r0, r0, r0
    17b8:	00001000 	andeq	r1, r0, r0
    17bc:	00003400 	andeq	r3, r0, r0, lsl #8
    17c0:	55000100 	strpl	r0, [r0, #-256]	; 0x100
    17c4:	00000034 	andeq	r0, r0, r4, lsr r0
    17c8:	00000134 	andeq	r0, r0, r4, lsr r1
    17cc:	34580001 	ldrbcc	r0, [r8], #-1
    17d0:	54000001 	strpl	r0, [r0], #-1
    17d4:	01000001 	tsteq	r0, r1
    17d8:	00005500 	andeq	r5, r0, r0, lsl #10
    17dc:	00000000 	andeq	r0, r0, r0
    17e0:	00140000 	andseq	r0, r4, r0
    17e4:	01340000 	teqeq	r4, r0
    17e8:	00010000 	andeq	r0, r1, r0
    17ec:	00000055 	andeq	r0, r0, r5, asr r0
    17f0:	00000000 	andeq	r0, r0, r0
    17f4:	00002000 	andeq	r2, r0, r0
    17f8:	00013400 	andeq	r3, r1, r0, lsl #8
    17fc:	55000100 	strpl	r0, [r0, #-256]	; 0x100
	...
    1808:	00000024 	andeq	r0, r0, r4, lsr #32
    180c:	00000028 	andeq	r0, r0, r8, lsr #32
    1810:	00530001 	subseq	r0, r3, r1
    1814:	00000000 	andeq	r0, r0, r0
    1818:	34000000 	strcc	r0, [r0], #-0
    181c:	54000000 	strpl	r0, [r0], #-0
    1820:	01000000 	mrseq	r0, (UNDEF: 0)
    1824:	00545800 	subseq	r5, r4, r0, lsl #16
    1828:	01340000 	teqeq	r4, r0
    182c:	00050000 	andeq	r0, r5, r0
    1830:	24310075 	ldrtcs	r0, [r1], #-117	; 0x75
    1834:	0000009f 	muleq	r0, pc, r0	; <UNPREDICTABLE>
    1838:	00000000 	andeq	r0, r0, r0
    183c:	00003400 	andeq	r3, r0, r0, lsl #8
    1840:	00003c00 	andeq	r3, r0, r0, lsl #24
    1844:	77000500 	strvc	r0, [r0, -r0, lsl #10]
    1848:	9f1a3100 	svcls	0x001a3100
    184c:	0000003c 	andeq	r0, r0, ip, lsr r0
    1850:	0000003f 	andeq	r0, r0, pc, lsr r0
    1854:	3f510001 	svccc	0x00510001
    1858:	54000000 	strpl	r0, [r0], #-0
    185c:	05000001 	streq	r0, [r0, #-1]
    1860:	31007700 	tstcc	r0, r0, lsl #14
    1864:	00009f1a 	andeq	r9, r0, sl, lsl pc
    1868:	00000000 	andeq	r0, r0, r0
    186c:	00400000 	subeq	r0, r0, r0
    1870:	00540000 	subseq	r0, r4, r0
    1874:	00010000 	andeq	r0, r1, r0
    1878:	00005458 	andeq	r5, r0, r8, asr r4
    187c:	00013400 	andeq	r3, r1, r0, lsl #8
    1880:	75000500 	strvc	r0, [r0, #-1280]	; 0x500
    1884:	9f243100 	svcls	0x00243100
	...
    1890:	00000044 	andeq	r0, r0, r4, asr #32
    1894:	00000048 	andeq	r0, r0, r8, asr #32
    1898:	00530001 	subseq	r0, r3, r1
    189c:	00000000 	andeq	r0, r0, r0
    18a0:	54000000 	strpl	r0, [r0], #-0
    18a4:	74000000 	strvc	r0, [r0], #-0
    18a8:	01000000 	mrseq	r0, (UNDEF: 0)
    18ac:	00745800 	rsbseq	r5, r4, r0, lsl #16
    18b0:	01340000 	teqeq	r4, r0
    18b4:	00080000 	andeq	r0, r8, r0
    18b8:	24310075 	ldrtcs	r0, [r1], #-117	; 0x75
    18bc:	9f220075 	svcls	0x00220075
	...
    18c8:	00000060 	andeq	r0, r0, r0, rrx
    18cc:	00000074 	andeq	r0, r0, r4, ror r0
    18d0:	74580001 	ldrbvc	r0, [r8], #-1
    18d4:	34000000 	strcc	r0, [r0], #-0
    18d8:	08000001 	stmdaeq	r0, {r0}
    18dc:	31007500 	tstcc	r0, r0, lsl #10
    18e0:	22007524 	andcs	r7, r0, #36, 10	; 0x9000000
    18e4:	0000009f 	muleq	r0, pc, r0	; <UNPREDICTABLE>
    18e8:	00000000 	andeq	r0, r0, r0
    18ec:	00006400 	andeq	r6, r0, r0, lsl #8
    18f0:	00006800 	andeq	r6, r0, r0, lsl #16
    18f4:	53000100 	movwpl	r0, #256	; 0x100
	...
    1900:	00000074 	andeq	r0, r0, r4, ror r0
    1904:	00000094 	muleq	r0, r4, r0
    1908:	94580001 	ldrbls	r0, [r8], #-1
    190c:	34000000 	strcc	r0, [r0], #-0
    1910:	05000001 	streq	r0, [r0, #-1]
    1914:	32007500 	andcc	r7, r0, #0, 10
    1918:	00009f24 	andeq	r9, r0, r4, lsr #30
    191c:	00000000 	andeq	r0, r0, r0
    1920:	00800000 	addeq	r0, r0, r0
    1924:	00940000 	addseq	r0, r4, r0
    1928:	00010000 	andeq	r0, r1, r0
    192c:	00009458 	andeq	r9, r0, r8, asr r4
    1930:	00013400 	andeq	r3, r1, r0, lsl #8
    1934:	75000500 	strvc	r0, [r0, #-1280]	; 0x500
    1938:	9f243200 	svcls	0x00243200
	...
    1944:	00000084 	andeq	r0, r0, r4, lsl #1
    1948:	00000088 	andeq	r0, r0, r8, lsl #1
    194c:	00530001 	subseq	r0, r3, r1
    1950:	00000000 	andeq	r0, r0, r0
    1954:	94000000 	strls	r0, [r0], #-0
    1958:	b4000000 	strlt	r0, [r0], #-0
    195c:	01000000 	mrseq	r0, (UNDEF: 0)
    1960:	00b45800 	adcseq	r5, r4, r0, lsl #16
    1964:	01340000 	teqeq	r4, r0
    1968:	00080000 	andeq	r0, r8, r0
    196c:	24320075 	ldrtcs	r0, [r2], #-117	; 0x75
    1970:	9f220075 	svcls	0x00220075
	...
    197c:	000000a0 	andeq	r0, r0, r0, lsr #1
    1980:	000000b4 	strheq	r0, [r0], -r4
    1984:	b4580001 	ldrblt	r0, [r8], #-1
    1988:	34000000 	strcc	r0, [r0], #-0
    198c:	08000001 	stmdaeq	r0, {r0}
    1990:	32007500 	andcc	r7, r0, #0, 10
    1994:	22007524 	andcs	r7, r0, #36, 10	; 0x9000000
    1998:	0000009f 	muleq	r0, pc, r0	; <UNPREDICTABLE>
    199c:	00000000 	andeq	r0, r0, r0
    19a0:	0000a400 	andeq	sl, r0, r0, lsl #8
    19a4:	0000a800 	andeq	sl, r0, r0, lsl #16
    19a8:	53000100 	movwpl	r0, #256	; 0x100
	...
    19b4:	000000b4 	strheq	r0, [r0], -r4
    19b8:	000000d4 	ldrdeq	r0, [r0], -r4
    19bc:	d4580001 	ldrble	r0, [r8], #-1
    19c0:	34000000 	strcc	r0, [r0], #-0
    19c4:	0a000001 	beq	19d0 <_start-0x6630>
    19c8:	32007500 	andcc	r7, r0, #0, 10
    19cc:	31007524 	tstcc	r0, r4, lsr #10
    19d0:	009f2224 	addseq	r2, pc, r4, lsr #4
    19d4:	00000000 	andeq	r0, r0, r0
    19d8:	c0000000 	andgt	r0, r0, r0
    19dc:	d4000000 	strle	r0, [r0], #-0
    19e0:	01000000 	mrseq	r0, (UNDEF: 0)
    19e4:	00d45800 	sbcseq	r5, r4, r0, lsl #16
    19e8:	01340000 	teqeq	r4, r0
    19ec:	000a0000 	andeq	r0, sl, r0
    19f0:	24320075 	ldrtcs	r0, [r2], #-117	; 0x75
    19f4:	24310075 	ldrtcs	r0, [r1], #-117	; 0x75
    19f8:	00009f22 	andeq	r9, r0, r2, lsr #30
    19fc:	00000000 	andeq	r0, r0, r0
    1a00:	00c40000 	sbceq	r0, r4, r0
    1a04:	00c80000 	sbceq	r0, r8, r0
    1a08:	00010000 	andeq	r0, r1, r0
    1a0c:	00000053 	andeq	r0, r0, r3, asr r0
    1a10:	00000000 	andeq	r0, r0, r0
    1a14:	0000d400 	andeq	sp, r0, r0, lsl #8
    1a18:	0000f400 	andeq	pc, r0, r0, lsl #8
    1a1c:	58000100 	stmdapl	r0, {r8}
    1a20:	000000f4 	strdeq	r0, [r0], -r4
    1a24:	00000134 	andeq	r0, r0, r4, lsr r1
    1a28:	0075000d 	rsbseq	r0, r5, sp
    1a2c:	00752432 	rsbseq	r2, r5, r2, lsr r4
    1a30:	75222431 	strvc	r2, [r2, #-1073]!	; 0x431
    1a34:	009f2200 	addseq	r2, pc, r0, lsl #4
    1a38:	00000000 	andeq	r0, r0, r0
    1a3c:	e0000000 	and	r0, r0, r0
    1a40:	f4000000 	vst4.8	{d0-d3}, [r0], r0
    1a44:	01000000 	mrseq	r0, (UNDEF: 0)
    1a48:	00f45800 	rscseq	r5, r4, r0, lsl #16
    1a4c:	01340000 	teqeq	r4, r0
    1a50:	000d0000 	andeq	r0, sp, r0
    1a54:	24320075 	ldrtcs	r0, [r2], #-117	; 0x75
    1a58:	24310075 	ldrtcs	r0, [r1], #-117	; 0x75
    1a5c:	22007522 	andcs	r7, r0, #142606336	; 0x8800000
    1a60:	0000009f 	muleq	r0, pc, r0	; <UNPREDICTABLE>
    1a64:	00000000 	andeq	r0, r0, r0
    1a68:	0000e400 	andeq	lr, r0, r0, lsl #8
    1a6c:	0000e800 	andeq	lr, r0, r0, lsl #16
    1a70:	53000100 	movwpl	r0, #256	; 0x100
	...
    1a7c:	000000f4 	strdeq	r0, [r0], -r4
    1a80:	00000114 	andeq	r0, r0, r4, lsl r1
    1a84:	14580001 	ldrbne	r0, [r8], #-1
    1a88:	34000001 	strcc	r0, [r0], #-1
    1a8c:	05000001 	streq	r0, [r0, #-1]
    1a90:	33007500 	movwcc	r7, #1280	; 0x500
    1a94:	00009f24 	andeq	r9, r0, r4, lsr #30
    1a98:	00000000 	andeq	r0, r0, r0
    1a9c:	01000000 	mrseq	r0, (UNDEF: 0)
    1aa0:	01140000 	tsteq	r4, r0
    1aa4:	00010000 	andeq	r0, r1, r0
    1aa8:	00011458 	andeq	r1, r1, r8, asr r4
    1aac:	00013400 	andeq	r3, r1, r0, lsl #8
    1ab0:	75000500 	strvc	r0, [r0, #-1280]	; 0x500
    1ab4:	9f243300 	svcls	0x00243300
	...
    1ac0:	00000104 	andeq	r0, r0, r4, lsl #2
    1ac4:	00000108 	andeq	r0, r0, r8, lsl #2
    1ac8:	00530001 	subseq	r0, r3, r1
    1acc:	00000000 	andeq	r0, r0, r0
    1ad0:	14000000 	strne	r0, [r0], #-0
    1ad4:	1c000001 	stcne	0, cr0, [r0], {1}
    1ad8:	06000001 	streq	r0, [r0], -r1
    1adc:	08007700 	stmdaeq	r0, {r8, r9, sl, ip, sp, lr}
    1ae0:	1c9f1a80 	vldmiane	pc, {s2-s129}
    1ae4:	1f000001 	svcne	0x00000001
    1ae8:	01000001 	tsteq	r0, r1
    1aec:	011f5100 	tsteq	pc, r0, lsl #2
    1af0:	01540000 	cmpeq	r4, r0
    1af4:	00060000 	andeq	r0, r6, r0
    1af8:	80080077 	andhi	r0, r8, r7, ror r0
    1afc:	00009f1a 	andeq	r9, r0, sl, lsl pc
    1b00:	00000000 	andeq	r0, r0, r0
    1b04:	01240000 	teqeq	r4, r0
    1b08:	01280000 	teqeq	r8, r0
    1b0c:	00010000 	andeq	r0, r1, r0
    1b10:	00000053 	andeq	r0, r0, r3, asr r0
    1b14:	00000000 	andeq	r0, r0, r0
    1b18:	00014400 	andeq	r4, r1, r0, lsl #8
    1b1c:	00014800 	andeq	r4, r1, r0, lsl #16
    1b20:	53000100 	movwpl	r0, #256	; 0x100
	...
    1b2c:	00000154 	andeq	r0, r0, r4, asr r1
    1b30:	0000016b 	andeq	r0, r0, fp, ror #2
    1b34:	6b500001 	blvs	1401b40 <__bss_end__+0x13f7c30>
    1b38:	d0000001 	andle	r0, r0, r1
    1b3c:	01000001 	tsteq	r0, r1
    1b40:	01d05900 	bicseq	r5, r0, r0, lsl #18
    1b44:	030c0000 	movweq	r0, #49152	; 0xc000
    1b48:	00040000 	andeq	r0, r4, r0
    1b4c:	9f5001f3 	svcls	0x005001f3
    1b50:	0000030c 	andeq	r0, r0, ip, lsl #6
    1b54:	00000314 	andeq	r0, r0, r4, lsl r3
    1b58:	14590001 	ldrbne	r0, [r9], #-1
    1b5c:	1c000003 	stcne	0, cr0, [r0], {3}
    1b60:	04000003 	streq	r0, [r0], #-3
    1b64:	5001f300 	andpl	pc, r1, r0, lsl #6
    1b68:	0000009f 	muleq	r0, pc, r0	; <UNPREDICTABLE>
    1b6c:	00000000 	andeq	r0, r0, r0
    1b70:	00015400 	andeq	r5, r1, r0, lsl #8
    1b74:	00016b00 	andeq	r6, r1, r0, lsl #22
    1b78:	51000100 	mrspl	r0, (UNDEF: 16)
    1b7c:	0000016b 	andeq	r0, r0, fp, ror #2
    1b80:	0000031c 	andeq	r0, r0, ip, lsl r3
    1b84:	00560001 	subseq	r0, r6, r1
    1b88:	00000000 	andeq	r0, r0, r0
    1b8c:	a8000000 	stmdage	r0, {}	; <UNPREDICTABLE>
    1b90:	98000001 	stmdals	r0, {r0}
    1b94:	01000002 	tsteq	r0, r2
    1b98:	00005800 	andeq	r5, r0, r0, lsl #16
    1b9c:	00000000 	andeq	r0, r0, r0
    1ba0:	01ac0000 			; <UNDEFINED> instruction: 0x01ac0000
    1ba4:	02d00000 	sbcseq	r0, r0, #0
    1ba8:	00010000 	andeq	r0, r1, r0
    1bac:	00000054 	andeq	r0, r0, r4, asr r0
    1bb0:	00000000 	andeq	r0, r0, r0
    1bb4:	0001ac00 	andeq	sl, r1, r0, lsl #24
    1bb8:	0002d000 	andeq	sp, r2, r0
    1bbc:	74000500 	strvc	r0, [r0], #-1280	; 0x500
    1bc0:	9f253100 	svcls	0x00253100
	...
    1bcc:	000001ac 	andeq	r0, r0, ip, lsr #3
    1bd0:	000001d0 	ldrdeq	r0, [r0], -r0	; <UNPREDICTABLE>
    1bd4:	9f300002 	svcls	0x00300002
    1bd8:	000001d0 	ldrdeq	r0, [r0], -r0	; <UNPREDICTABLE>
    1bdc:	0000030c 	andeq	r0, r0, ip, lsl #6
    1be0:	14590001 	ldrbne	r0, [r9], #-1
    1be4:	1c000003 	stcne	0, cr0, [r0], {3}
    1be8:	01000003 	tsteq	r0, r3
    1bec:	00005900 	andeq	r5, r0, r0, lsl #18
    1bf0:	00000000 	andeq	r0, r0, r0
    1bf4:	01680000 	cmneq	r8, r0
    1bf8:	016b0000 	cmneq	fp, r0
    1bfc:	00010000 	andeq	r0, r1, r0
    1c00:	00016b51 	andeq	r6, r1, r1, asr fp
    1c04:	00031c00 	andeq	r1, r3, r0, lsl #24
    1c08:	56000100 	strpl	r0, [r0], -r0, lsl #2
	...
    1c14:	00000170 	andeq	r0, r0, r0, ror r1
    1c18:	000001ac 	andeq	r0, r0, ip, lsr #3
    1c1c:	0c540001 	mrrceq	0, 0, r0, r4, cr1
    1c20:	14000003 	strne	r0, [r0], #-3
    1c24:	01000003 	tsteq	r0, r3
    1c28:	00005400 	andeq	r5, r0, r0, lsl #8
    1c2c:	00000000 	andeq	r0, r0, r0
    1c30:	01a80000 			; <UNDEFINED> instruction: 0x01a80000
    1c34:	01c40000 	biceq	r0, r4, r0
    1c38:	00010000 	andeq	r0, r1, r0
    1c3c:	00000058 	andeq	r0, r0, r8, asr r0
    1c40:	00000000 	andeq	r0, r0, r0
    1c44:	0001b000 	andeq	fp, r1, r0
    1c48:	0001cb00 	andeq	ip, r1, r0, lsl #22
    1c4c:	52000100 	andpl	r0, r0, #0, 2
    1c50:	000001cb 	andeq	r0, r0, fp, asr #3
    1c54:	000002d0 	ldrdeq	r0, [r0], -r0	; <UNPREDICTABLE>
    1c58:	00740008 	rsbseq	r0, r4, r8
    1c5c:	00742531 	rsbseq	r2, r4, r1, lsr r5
    1c60:	00009f22 	andeq	r9, r0, r2, lsr #30
    1c64:	00000000 	andeq	r0, r0, r0
    1c68:	01b00000 	movseq	r0, r0
    1c6c:	01c40000 	biceq	r0, r4, r0
    1c70:	00010000 	andeq	r0, r1, r0
    1c74:	00000058 	andeq	r0, r0, r8, asr r0
    1c78:	00000000 	andeq	r0, r0, r0
    1c7c:	0001b400 	andeq	fp, r1, r0, lsl #8
    1c80:	0001b800 	andeq	fp, r1, r0, lsl #16
    1c84:	53000100 	movwpl	r0, #256	; 0x100
	...
    1c90:	000001d0 	ldrdeq	r0, [r0], -r0	; <UNPREDICTABLE>
    1c94:	000002d0 	ldrdeq	r0, [r0], -r0	; <UNPREDICTABLE>
    1c98:	00540001 	subseq	r0, r4, r1
    1c9c:	00000000 	andeq	r0, r0, r0
    1ca0:	d0000000 	andle	r0, r0, r0
    1ca4:	e4000001 	str	r0, [r0], #-1
    1ca8:	01000001 	tsteq	r0, r1
    1cac:	00005800 	andeq	r5, r0, r0, lsl #16
    1cb0:	00000000 	andeq	r0, r0, r0
    1cb4:	01d40000 	bicseq	r0, r4, r0
    1cb8:	01d80000 	bicseq	r0, r8, r0
    1cbc:	00010000 	andeq	r0, r1, r0
    1cc0:	00000053 	andeq	r0, r0, r3, asr r0
    1cc4:	00000000 	andeq	r0, r0, r0
    1cc8:	0001f400 	andeq	pc, r1, r0, lsl #8
    1ccc:	0002d000 	andeq	sp, r2, r0
    1cd0:	54000100 	strpl	r0, [r0], #-256	; 0x100
	...
    1cdc:	000001f4 	strdeq	r0, [r0], -r4
    1ce0:	00000208 	andeq	r0, r0, r8, lsl #4
    1ce4:	00580001 	subseq	r0, r8, r1
    1ce8:	00000000 	andeq	r0, r0, r0
    1cec:	f8000000 			; <UNDEFINED> instruction: 0xf8000000
    1cf0:	fc000001 	stc2	0, cr0, [r0], {1}
    1cf4:	01000001 	tsteq	r0, r1
    1cf8:	00005300 	andeq	r5, r0, r0, lsl #6
    1cfc:	00000000 	andeq	r0, r0, r0
    1d00:	02180000 	andseq	r0, r8, #0
    1d04:	02d00000 	sbcseq	r0, r0, #0
    1d08:	00010000 	andeq	r0, r1, r0
    1d0c:	00000054 	andeq	r0, r0, r4, asr r0
    1d10:	00000000 	andeq	r0, r0, r0
    1d14:	00021800 	andeq	r1, r2, r0, lsl #16
    1d18:	00022c00 	andeq	r2, r2, r0, lsl #24
    1d1c:	58000100 	stmdapl	r0, {r8}
	...
    1d28:	0000021c 	andeq	r0, r0, ip, lsl r2
    1d2c:	00000220 	andeq	r0, r0, r0, lsr #4
    1d30:	00530001 	subseq	r0, r3, r1
    1d34:	00000000 	andeq	r0, r0, r0
    1d38:	3c000000 	stccc	0, cr0, [r0], {-0}
    1d3c:	d0000002 	andle	r0, r0, r2
    1d40:	01000002 	tsteq	r0, r2
    1d44:	00005400 	andeq	r5, r0, r0, lsl #8
    1d48:	00000000 	andeq	r0, r0, r0
    1d4c:	023c0000 	eorseq	r0, ip, #0
    1d50:	02500000 	subseq	r0, r0, #0
    1d54:	00010000 	andeq	r0, r1, r0
    1d58:	00000058 	andeq	r0, r0, r8, asr r0
    1d5c:	00000000 	andeq	r0, r0, r0
    1d60:	00024000 	andeq	r4, r2, r0
    1d64:	00024400 	andeq	r4, r2, r0, lsl #8
    1d68:	53000100 	movwpl	r0, #256	; 0x100
	...
    1d74:	00000260 	andeq	r0, r0, r0, ror #4
    1d78:	000002d0 	ldrdeq	r0, [r0], -r0	; <UNPREDICTABLE>
    1d7c:	00540001 	subseq	r0, r4, r1
    1d80:	00000000 	andeq	r0, r0, r0
    1d84:	60000000 	andvs	r0, r0, r0
    1d88:	74000002 	strvc	r0, [r0], #-2
    1d8c:	01000002 	tsteq	r0, r2
    1d90:	00005800 	andeq	r5, r0, r0, lsl #16
    1d94:	00000000 	andeq	r0, r0, r0
    1d98:	02640000 	rsbeq	r0, r4, #0
    1d9c:	02680000 	rsbeq	r0, r8, #0
    1da0:	00010000 	andeq	r0, r1, r0
    1da4:	00000053 	andeq	r0, r0, r3, asr r0
    1da8:	00000000 	andeq	r0, r0, r0
    1dac:	00028400 	andeq	r8, r2, r0, lsl #8
    1db0:	0002d000 	andeq	sp, r2, r0
    1db4:	54000100 	strpl	r0, [r0], #-256	; 0x100
	...
    1dc0:	00000284 	andeq	r0, r0, r4, lsl #5
    1dc4:	00000298 	muleq	r0, r8, r2
    1dc8:	00580001 	subseq	r0, r8, r1
    1dcc:	00000000 	andeq	r0, r0, r0
    1dd0:	88000000 	stmdahi	r0, {}	; <UNPREDICTABLE>
    1dd4:	8c000002 	stchi	0, cr0, [r0], {2}
    1dd8:	01000002 	tsteq	r0, r2
    1ddc:	00005300 	andeq	r5, r0, r0, lsl #6
    1de0:	00000000 	andeq	r0, r0, r0
    1de4:	02a80000 	adceq	r0, r8, #0
    1de8:	02d00000 	sbcseq	r0, r0, #0
    1dec:	00010000 	andeq	r0, r1, r0
    1df0:	00000054 	andeq	r0, r0, r4, asr r0
    1df4:	00000000 	andeq	r0, r0, r0
    1df8:	0002ac00 	andeq	sl, r2, r0, lsl #24
    1dfc:	0002b000 	andeq	fp, r2, r0
    1e00:	53000100 	movwpl	r0, #256	; 0x100
	...
    1e0c:	000002c8 	andeq	r0, r0, r8, asr #5
    1e10:	0000030c 	andeq	r0, r0, ip, lsl #6
    1e14:	9f300002 	svcls	0x00300002
    1e18:	00000314 	andeq	r0, r0, r4, lsl r3
    1e1c:	0000031c 	andeq	r0, r0, ip, lsl r3
    1e20:	9f300002 	svcls	0x00300002
	...
    1e2c:	000002c8 	andeq	r0, r0, r8, asr #5
    1e30:	0000030c 	andeq	r0, r0, ip, lsl #6
    1e34:	14550001 	ldrbne	r0, [r5], #-1
    1e38:	1c000003 	stcne	0, cr0, [r0], {3}
    1e3c:	01000003 	tsteq	r0, r3
    1e40:	00005500 	andeq	r5, r0, r0, lsl #10
    1e44:	00000000 	andeq	r0, r0, r0
    1e48:	02d00000 	sbcseq	r0, r0, #0
    1e4c:	030c0000 	movweq	r0, #49152	; 0xc000
    1e50:	00010000 	andeq	r0, r1, r0
    1e54:	00031454 	andeq	r1, r3, r4, asr r4
    1e58:	00031c00 	andeq	r1, r3, r0, lsl #24
    1e5c:	54000100 	strpl	r0, [r0], #-256	; 0x100
	...
    1e68:	0000031c 	andeq	r0, r0, ip, lsl r3
    1e6c:	0000033f 	andeq	r0, r0, pc, lsr r3
    1e70:	3f500001 	svccc	0x00500001
    1e74:	60000003 	andvs	r0, r0, r3
    1e78:	01000003 	tsteq	r0, r3
    1e7c:	03605800 	cmneq	r0, #0, 16
    1e80:	03700000 	cmneq	r0, #0
    1e84:	00010000 	andeq	r0, r1, r0
    1e88:	00037050 	andeq	r7, r3, r0, asr r0
    1e8c:	0003b000 	andeq	fp, r3, r0
    1e90:	58000100 	stmdapl	r0, {r8}
    1e94:	000003b0 			; <UNDEFINED> instruction: 0x000003b0
    1e98:	000003c0 	andeq	r0, r0, r0, asr #7
    1e9c:	01f30004 	mvnseq	r0, r4
    1ea0:	00009f50 	andeq	r9, r0, r0, asr pc
    1ea4:	00000000 	andeq	r0, r0, r0
    1ea8:	031c0000 	tsteq	ip, #0
    1eac:	033f0000 	teqeq	pc, #0
    1eb0:	00010000 	andeq	r0, r1, r0
    1eb4:	00033f51 	andeq	r3, r3, r1, asr pc
    1eb8:	00036000 	andeq	r6, r3, r0
    1ebc:	56000100 	strpl	r0, [r0], -r0, lsl #2
    1ec0:	00000360 	andeq	r0, r0, r0, ror #6
    1ec4:	00000370 	andeq	r0, r0, r0, ror r3
    1ec8:	70510001 	subsvc	r0, r1, r1
    1ecc:	b0000003 	andlt	r0, r0, r3
    1ed0:	01000003 	tsteq	r0, r3
    1ed4:	03b05600 	movseq	r5, #0, 12
    1ed8:	03c00000 	biceq	r0, r0, #0
    1edc:	00040000 	andeq	r0, r4, r0
    1ee0:	9f5101f3 	svcls	0x005101f3
	...
    1eec:	0000031c 	andeq	r0, r0, ip, lsl r3
    1ef0:	0000033f 	andeq	r0, r0, pc, lsr r3
    1ef4:	3f520001 	svccc	0x00520001
    1ef8:	60000003 	andvs	r0, r0, r3
    1efc:	04000003 	streq	r0, [r0], #-3
    1f00:	5201f300 	andpl	pc, r1, #0, 6
    1f04:	0003609f 	muleq	r3, pc, r0	; <UNPREDICTABLE>
    1f08:	00037000 	andeq	r7, r3, r0
    1f0c:	52000100 	andpl	r0, r0, #0, 2
    1f10:	00000370 	andeq	r0, r0, r0, ror r3
    1f14:	000003b0 			; <UNDEFINED> instruction: 0x000003b0
    1f18:	01770003 	cmneq	r7, r3
    1f1c:	0003b09f 	muleq	r3, pc, r0	; <UNPREDICTABLE>
    1f20:	0003c000 	andeq	ip, r3, r0
    1f24:	f3000400 	vshl.u8	d0, d0, d0
    1f28:	009f5201 	addseq	r5, pc, r1, lsl #4
    1f2c:	00000000 	andeq	r0, r0, r0
    1f30:	1c000000 	stcne	0, cr0, [r0], {-0}
    1f34:	3f000003 	svccc	0x00000003
    1f38:	01000003 	tsteq	r0, r3
    1f3c:	033f5300 	teqeq	pc, #0, 6
    1f40:	03600000 	cmneq	r0, #0
    1f44:	00040000 	andeq	r0, r4, r0
    1f48:	9f5301f3 	svcls	0x005301f3
    1f4c:	00000360 	andeq	r0, r0, r0, ror #6
    1f50:	00000370 	andeq	r0, r0, r0, ror r3
    1f54:	70530001 	subsvc	r0, r3, r1
    1f58:	c0000003 	andgt	r0, r0, r3
    1f5c:	04000003 	streq	r0, [r0], #-3
    1f60:	5301f300 	movwpl	pc, #4864	; 0x1300	; <UNPREDICTABLE>
    1f64:	0000009f 	muleq	r0, pc, r0	; <UNPREDICTABLE>
    1f68:	00000000 	andeq	r0, r0, r0
    1f6c:	00036800 	andeq	r6, r3, r0, lsl #16
    1f70:	00037000 	andeq	r7, r3, r0
    1f74:	30000200 	andcc	r0, r0, r0, lsl #4
    1f78:	0003709f 	muleq	r3, pc, r0	; <UNPREDICTABLE>
    1f7c:	0003b000 	andeq	fp, r3, r0
    1f80:	54000100 	strpl	r0, [r0], #-256	; 0x100
    1f84:	000003b0 			; <UNDEFINED> instruction: 0x000003b0
    1f88:	000003c0 	andeq	r0, r0, r0, asr #7
    1f8c:	00500001 	subseq	r0, r0, r1
    1f90:	00000000 	andeq	r0, r0, r0
    1f94:	80000000 	andhi	r0, r0, r0
    1f98:	90000003 	andls	r0, r0, r3
    1f9c:	01000003 	tsteq	r0, r3
    1fa0:	00005000 	andeq	r5, r0, r0
    1fa4:	00000000 	andeq	r0, r0, r0
    1fa8:	03c00000 	biceq	r0, r0, #0
    1fac:	03df0000 	bicseq	r0, pc, #0
    1fb0:	00010000 	andeq	r0, r1, r0
    1fb4:	0003df50 	andeq	sp, r3, r0, asr pc
    1fb8:	00040000 	andeq	r0, r4, r0
    1fbc:	57000100 	strpl	r0, [r0, -r0, lsl #2]
    1fc0:	00000400 	andeq	r0, r0, r0, lsl #8
    1fc4:	00000410 	andeq	r0, r0, r0, lsl r4
    1fc8:	10500001 	subsne	r0, r0, r1
    1fcc:	40000004 	andmi	r0, r0, r4
    1fd0:	01000004 	tsteq	r0, r4
    1fd4:	04405700 	strbeq	r5, [r0], #-1792	; 0x700
    1fd8:	04500000 	ldrbeq	r0, [r0], #-0
    1fdc:	00040000 	andeq	r0, r4, r0
    1fe0:	9f5001f3 	svcls	0x005001f3
	...
    1fec:	000003c0 	andeq	r0, r0, r0, asr #7
    1ff0:	000003df 	ldrdeq	r0, [r0], -pc	; <UNPREDICTABLE>
    1ff4:	df510001 	svcle	0x00510001
    1ff8:	00000003 	andeq	r0, r0, r3
    1ffc:	01000004 	tsteq	r0, r4
    2000:	04005500 	streq	r5, [r0], #-1280	; 0x500
    2004:	04100000 	ldreq	r0, [r0], #-0
    2008:	00010000 	andeq	r0, r1, r0
    200c:	00041051 	andeq	r1, r4, r1, asr r0
    2010:	00044000 	andeq	r4, r4, r0
    2014:	55000100 	strpl	r0, [r0, #-256]	; 0x100
    2018:	00000440 	andeq	r0, r0, r0, asr #8
    201c:	00000450 	andeq	r0, r0, r0, asr r4
    2020:	01f30004 	mvnseq	r0, r4
    2024:	00009f51 	andeq	r9, r0, r1, asr pc
    2028:	00000000 	andeq	r0, r0, r0
    202c:	03c00000 	biceq	r0, r0, #0
    2030:	03df0000 	bicseq	r0, pc, #0
    2034:	00010000 	andeq	r0, r1, r0
    2038:	0003df52 	andeq	sp, r3, r2, asr pc
    203c:	00040000 	andeq	r0, r4, r0
    2040:	f3000400 	vshl.u8	d0, d0, d0
    2044:	009f5201 	addseq	r5, pc, r1, lsl #4
    2048:	10000004 	andne	r0, r0, r4
    204c:	01000004 	tsteq	r0, r4
    2050:	04105200 	ldreq	r5, [r0], #-512	; 0x200
    2054:	04400000 	strbeq	r0, [r0], #-0
    2058:	00030000 	andeq	r0, r3, r0
    205c:	409f0176 	addsmi	r0, pc, r6, ror r1	; <UNPREDICTABLE>
    2060:	50000004 	andpl	r0, r0, r4
    2064:	04000004 	streq	r0, [r0], #-4
    2068:	5201f300 	andpl	pc, r1, #0, 6
    206c:	0000009f 	muleq	r0, pc, r0	; <UNPREDICTABLE>
    2070:	00000000 	andeq	r0, r0, r0
    2074:	0003c000 	andeq	ip, r3, r0
    2078:	0003df00 	andeq	sp, r3, r0, lsl #30
    207c:	53000100 	movwpl	r0, #256	; 0x100
    2080:	000003df 	ldrdeq	r0, [r0], -pc	; <UNPREDICTABLE>
    2084:	00000400 	andeq	r0, r0, r0, lsl #8
    2088:	00580001 	subseq	r0, r8, r1
    208c:	10000004 	andne	r0, r0, r4
    2090:	01000004 	tsteq	r0, r4
    2094:	04105300 	ldreq	r5, [r0], #-768	; 0x300
    2098:	04400000 	strbeq	r0, [r0], #-0
    209c:	00010000 	andeq	r0, r1, r0
    20a0:	00044058 	andeq	r4, r4, r8, asr r0
    20a4:	00045000 	andeq	r5, r4, r0
    20a8:	f3000400 	vshl.u8	d0, d0, d0
    20ac:	009f5301 	addseq	r5, pc, r1, lsl #6
    20b0:	00000000 	andeq	r0, r0, r0
    20b4:	08000000 	stmdaeq	r0, {}	; <UNPREDICTABLE>
    20b8:	10000004 	andne	r0, r0, r4
    20bc:	02000004 	andeq	r0, r0, #4
    20c0:	109f3000 	addsne	r3, pc, r0
    20c4:	40000004 	andmi	r0, r0, r4
    20c8:	01000004 	tsteq	r0, r4
    20cc:	04405400 	strbeq	r5, [r0], #-1024	; 0x400
    20d0:	04500000 	ldrbeq	r0, [r0], #-0
    20d4:	00010000 	andeq	r0, r1, r0
    20d8:	00000050 	andeq	r0, r0, r0, asr r0
    20dc:	00000000 	andeq	r0, r0, r0
    20e0:	00045000 	andeq	r5, r4, r0
    20e4:	00047300 	andeq	r7, r4, r0, lsl #6
    20e8:	51000100 	mrspl	r0, (UNDEF: 16)
    20ec:	00000473 	andeq	r0, r0, r3, ror r4
    20f0:	00000524 	andeq	r0, r0, r4, lsr #10
    20f4:	01f30004 	mvnseq	r0, r4
    20f8:	00009f51 	andeq	r9, r0, r1, asr pc
    20fc:	00000000 	andeq	r0, r0, r0
    2100:	04500000 	ldrbeq	r0, [r0], #-0
    2104:	04730000 	ldrbteq	r0, [r3], #-0
    2108:	00010000 	andeq	r0, r1, r0
    210c:	00047352 	andeq	r7, r4, r2, asr r3
    2110:	00052400 	andeq	r2, r5, r0, lsl #8
    2114:	f3000400 	vshl.u8	d0, d0, d0
    2118:	009f5201 	addseq	r5, pc, r1, lsl #4
    211c:	00000000 	andeq	r0, r0, r0
    2120:	50000000 	andpl	r0, r0, r0
    2124:	73000004 	movwvc	r0, #4
    2128:	01000004 	tsteq	r0, r4
    212c:	04735300 	ldrbteq	r5, [r3], #-768	; 0x300
    2130:	05100000 	ldreq	r0, [r0, #-0]
    2134:	00010000 	andeq	r0, r1, r0
    2138:	00051055 	andeq	r1, r5, r5, asr r0
    213c:	00052400 	andeq	r2, r5, r0, lsl #8
    2140:	70000200 	andvc	r0, r0, r0, lsl #4
    2144:	00000004 	andeq	r0, r0, r4
    2148:	00000000 	andeq	r0, r0, r0
    214c:	00049400 	andeq	r9, r4, r0, lsl #8
    2150:	0004d300 	andeq	sp, r4, r0, lsl #6
    2154:	52000100 	andpl	r0, r0, #0, 2
    2158:	000004d3 	ldrdeq	r0, [r0], -r3
    215c:	000004f4 	strdeq	r0, [r0], -r4
    2160:	00750006 	rsbseq	r0, r5, r6
    2164:	9f1e0077 	svcls	0x001e0077
    2168:	000004f4 	strdeq	r0, [r0], -r4
    216c:	00000524 	andeq	r0, r0, r4, lsr #10
    2170:	00520001 	subseq	r0, r2, r1
    2174:	00000000 	andeq	r0, r0, r0
    2178:	24000000 	strcs	r0, [r0], #-0
    217c:	2f000005 	svccs	0x00000005
    2180:	01000005 	tsteq	r0, r5
    2184:	052f5000 	streq	r5, [pc, #-0]!	; 218c <_start-0x5e74>
    2188:	05600000 	strbeq	r0, [r0, #-0]!
    218c:	00040000 	andeq	r0, r4, r0
    2190:	9f5001f3 	svcls	0x005001f3
	...
    219c:	00000530 	andeq	r0, r0, r0, lsr r5
    21a0:	0000053b 	andeq	r0, r0, fp, lsr r5
    21a4:	00500001 	subseq	r0, r0, r1
    21a8:	00000000 	andeq	r0, r0, r0
    21ac:	60000000 	andvs	r0, r0, r0
    21b0:	70000005 	andvc	r0, r0, r5
    21b4:	01000005 	tsteq	r0, r5
    21b8:	05705000 	ldrbeq	r5, [r0, #-0]!
    21bc:	058c0000 	streq	r0, [ip]
    21c0:	00010000 	andeq	r0, r1, r0
    21c4:	00000055 	andeq	r0, r0, r5, asr r0
    21c8:	00000000 	andeq	r0, r0, r0
    21cc:	00056000 	andeq	r6, r5, r0
    21d0:	00057000 	andeq	r7, r5, r0
    21d4:	51000100 	mrspl	r0, (UNDEF: 16)
    21d8:	00000570 	andeq	r0, r0, r0, ror r5
    21dc:	0000058c 	andeq	r0, r0, ip, lsl #11
    21e0:	00540001 	subseq	r0, r4, r1
    21e4:	00000000 	andeq	r0, r0, r0
    21e8:	8c000000 	stchi	0, cr0, [r0], {-0}
    21ec:	a8000005 	stmdage	r0, {r0, r2}
    21f0:	01000005 	tsteq	r0, r5
    21f4:	05a85000 	streq	r5, [r8, #0]!
    21f8:	06000000 	streq	r0, [r0], -r0
    21fc:	00010000 	andeq	r0, r1, r0
    2200:	00060055 	andeq	r0, r6, r5, asr r0
    2204:	00061c00 	andeq	r1, r6, r0, lsl #24
    2208:	f3000400 	vshl.u8	d0, d0, d0
    220c:	009f5001 	addseq	r5, pc, r1
    2210:	00000000 	andeq	r0, r0, r0
    2214:	b8000000 	stmdalt	r0, {}	; <UNPREDICTABLE>
    2218:	c7000005 	strgt	r0, [r0, -r5]
    221c:	01000005 	tsteq	r0, r5
    2220:	05c75000 	strbeq	r5, [r7]
    2224:	05e80000 	strbeq	r0, [r8, #0]!
    2228:	00010000 	andeq	r0, r1, r0
    222c:	0005e854 	andeq	lr, r5, r4, asr r8
    2230:	0005ec00 	andeq	lr, r5, r0, lsl #24
    2234:	50000100 	andpl	r0, r0, r0, lsl #2
    2238:	000005ec 	andeq	r0, r0, ip, ror #11
    223c:	00000600 	andeq	r0, r0, r0, lsl #12
    2240:	00540001 	subseq	r0, r4, r1
    2244:	1c000006 	stcne	0, cr0, [r0], {6}
    2248:	01000006 	tsteq	r0, r6
    224c:	00005000 	andeq	r5, r0, r0
    2250:	00000000 	andeq	r0, r0, r0
    2254:	061c0000 	ldreq	r0, [ip], -r0
    2258:	062f0000 	strteq	r0, [pc], -r0
    225c:	00010000 	andeq	r0, r1, r0
    2260:	00062f50 	andeq	r2, r6, r0, asr pc
    2264:	00066800 	andeq	r6, r6, r0, lsl #16
    2268:	f3000400 	vshl.u8	d0, d0, d0
    226c:	009f5001 	addseq	r5, pc, r1
    2270:	00000000 	andeq	r0, r0, r0
    2274:	1c000000 	stcne	0, cr0, [r0], {-0}
    2278:	2f000006 	svccs	0x00000006
    227c:	01000006 	tsteq	r0, r6
    2280:	062f5100 	strteq	r5, [pc], -r0, lsl #2
    2284:	06680000 	strbteq	r0, [r8], -r0
    2288:	00040000 	andeq	r0, r4, r0
    228c:	9f5101f3 	svcls	0x005101f3
	...
    2298:	0000061c 	andeq	r0, r0, ip, lsl r6
    229c:	0000062f 	andeq	r0, r0, pc, lsr #12
    22a0:	2f520001 	svccs	0x00520001
    22a4:	68000006 	stmdavs	r0, {r1, r2}
    22a8:	04000006 	streq	r0, [r0], #-6
    22ac:	5201f300 	andpl	pc, r1, #0, 6
    22b0:	0000009f 	muleq	r0, pc, r0	; <UNPREDICTABLE>
    22b4:	00000000 	andeq	r0, r0, r0
    22b8:	00061c00 	andeq	r1, r6, r0, lsl #24
    22bc:	00062f00 	andeq	r2, r6, r0, lsl #30
    22c0:	53000100 	movwpl	r0, #256	; 0x100
    22c4:	0000062f 	andeq	r0, r0, pc, lsr #12
    22c8:	00000668 	andeq	r0, r0, r8, ror #12
    22cc:	01f30004 	mvnseq	r0, r4
    22d0:	00009f53 	andeq	r9, r0, r3, asr pc
    22d4:	00000000 	andeq	r0, r0, r0
    22d8:	06300000 	ldrteq	r0, [r0], -r0
    22dc:	063b0000 	ldrteq	r0, [fp], -r0
    22e0:	00010000 	andeq	r0, r1, r0
    22e4:	00065450 	andeq	r5, r6, r0, asr r4
    22e8:	00066800 	andeq	r6, r6, r0, lsl #16
    22ec:	50000100 	andpl	r0, r0, r0, lsl #2
	...
    22f8:	000000fc 	strdeq	r0, [r0], -ip
    22fc:	00000104 	andeq	r0, r0, r4, lsl #2
    2300:	04500001 	ldrbeq	r0, [r0], #-1
    2304:	28000001 	stmdacs	r0, {r0}
    2308:	01000001 	tsteq	r0, r1
    230c:	00005400 	andeq	r5, r0, r0, lsl #8
	...
    2318:	00040000 	andeq	r0, r4, r0
    231c:	00010000 	andeq	r0, r1, r0
    2320:	00000452 	andeq	r0, r0, r2, asr r4
    2324:	00002000 	andeq	r2, r0, r0
    2328:	f3000400 	vshl.u8	d0, d0, d0
    232c:	009f5201 	addseq	r5, pc, r1, lsl #4
	...
    2338:	0c000000 	stceq	0, cr0, [r0], {-0}
    233c:	01000000 	mrseq	r0, (UNDEF: 0)
    2340:	000c5000 	andeq	r5, ip, r0
    2344:	00140000 	andseq	r0, r4, r0
    2348:	00030000 	andeq	r0, r3, r0
    234c:	149f0173 	ldrne	r0, [pc], #371	; 2354 <_start-0x5cac>
    2350:	20000000 	andcs	r0, r0, r0
    2354:	01000000 	mrseq	r0, (UNDEF: 0)
    2358:	00005300 	andeq	r5, r0, r0, lsl #6
    235c:	00000000 	andeq	r0, r0, r0
	...

Disassembly of section .debug_aranges:

00000000 <.debug_aranges>:
   0:	0000001c 	andeq	r0, r0, ip, lsl r0
   4:	00000002 	andeq	r0, r0, r2
   8:	00040000 	andeq	r0, r4, r0
   c:	00000000 	andeq	r0, r0, r0
  10:	00008010 	andeq	r8, r0, r0, lsl r0
  14:	000001a8 	andeq	r0, r0, r8, lsr #3
	...
  20:	0000001c 	andeq	r0, r0, ip, lsl r0
  24:	04e90002 	strbteq	r0, [r9], #2
  28:	00040000 	andeq	r0, r4, r0
  2c:	00000000 	andeq	r0, r0, r0
  30:	000081b8 			; <UNDEFINED> instruction: 0x000081b8
  34:	00000058 	andeq	r0, r0, r8, asr r0
	...
  40:	0000001c 	andeq	r0, r0, ip, lsl r0
  44:	067e0002 	ldrbteq	r0, [lr], -r2
  48:	00040000 	andeq	r0, r4, r0
  4c:	00000000 	andeq	r0, r0, r0
  50:	00008210 	andeq	r8, r0, r0, lsl r2
  54:	0000003c 	andeq	r0, r0, ip, lsr r0
	...
  60:	0000001c 	andeq	r0, r0, ip, lsl r0
  64:	07950002 	ldreq	r0, [r5, r2]
  68:	00040000 	andeq	r0, r4, r0
  6c:	00000000 	andeq	r0, r0, r0
  70:	0000824c 	andeq	r8, r0, ip, asr #4
  74:	00000034 	andeq	r0, r0, r4, lsr r0
	...
  80:	0000001c 	andeq	r0, r0, ip, lsl r0
  84:	08870002 	stmeq	r7, {r1}
  88:	00040000 	andeq	r0, r4, r0
  8c:	00000000 	andeq	r0, r0, r0
  90:	00008280 	andeq	r8, r0, r0, lsl #5
  94:	00000524 	andeq	r0, r0, r4, lsr #10
	...
  a0:	0000001c 	andeq	r0, r0, ip, lsl r0
  a4:	0f2c0002 	svceq	0x002c0002
  a8:	00040000 	andeq	r0, r4, r0
  ac:	00000000 	andeq	r0, r0, r0
  b0:	000087a4 	andeq	r8, r0, r4, lsr #15
  b4:	00000028 	andeq	r0, r0, r8, lsr #32
	...
  c0:	0000001c 	andeq	r0, r0, ip, lsl r0
  c4:	102f0002 	eorne	r0, pc, r2
  c8:	00040000 	andeq	r0, r4, r0
  cc:	00000000 	andeq	r0, r0, r0
  d0:	000087cc 	andeq	r8, r0, ip, asr #15
  d4:	000000b0 	strheq	r0, [r0], -r0	; <UNPREDICTABLE>
	...
  e0:	0000001c 	andeq	r0, r0, ip, lsl r0
  e4:	13100002 	tstne	r0, #2
  e8:	00040000 	andeq	r0, r4, r0
  ec:	00000000 	andeq	r0, r0, r0
  f0:	0000887c 	andeq	r8, r0, ip, ror r8
  f4:	00000074 	andeq	r0, r0, r4, ror r0
	...
 100:	0000001c 	andeq	r0, r0, ip, lsl r0
 104:	14c10002 	strbne	r0, [r1], #2
 108:	00040000 	andeq	r0, r4, r0
 10c:	00000000 	andeq	r0, r0, r0
 110:	000088f0 	strdeq	r8, [r0], -r0
 114:	00000088 	andeq	r0, r0, r8, lsl #1
	...
 120:	0000001c 	andeq	r0, r0, ip, lsl r0
 124:	169d0002 	ldrne	r0, [sp], r2
 128:	00040000 	andeq	r0, r4, r0
 12c:	00000000 	andeq	r0, r0, r0
 130:	00008978 	andeq	r8, r0, r8, ror r9
 134:	000005a0 	andeq	r0, r0, r0, lsr #11
	...
 140:	0000001c 	andeq	r0, r0, ip, lsl r0
 144:	1f230002 	svcne	0x00230002
 148:	00040000 	andeq	r0, r4, r0
 14c:	00000000 	andeq	r0, r0, r0
 150:	00008f18 	andeq	r8, r0, r8, lsl pc
 154:	00000668 	andeq	r0, r0, r8, ror #12
	...
 160:	0000001c 	andeq	r0, r0, ip, lsl r0
 164:	31190002 	tstcc	r9, r2
 168:	00040000 	andeq	r0, r4, r0
 16c:	00000000 	andeq	r0, r0, r0
 170:	00009580 	andeq	r9, r0, r0, lsl #11
 174:	00000154 	andeq	r0, r0, r4, asr r1
	...
 180:	0000001c 	andeq	r0, r0, ip, lsl r0
 184:	351c0002 	ldrcc	r0, [ip, #-2]
 188:	00040000 	andeq	r0, r4, r0
 18c:	00000000 	andeq	r0, r0, r0
 190:	00009738 	andeq	r9, r0, r8, lsr r7
 194:	00000050 	andeq	r0, r0, r0, asr r0
	...
 1a0:	0000001c 	andeq	r0, r0, ip, lsl r0
 1a4:	36e30002 	strbtcc	r0, [r3], r2
 1a8:	00040000 	andeq	r0, r4, r0
 1ac:	00000000 	andeq	r0, r0, r0
 1b0:	00009788 	andeq	r9, r0, r8, lsl #15
 1b4:	00000020 	andeq	r0, r0, r0, lsr #32
	...

Disassembly of section .debug_ranges:

00000000 <.debug_ranges>:
   0:	000000d0 	ldrdeq	r0, [r0], -r0	; <UNPREDICTABLE>
   4:	000000d4 	ldrdeq	r0, [r0], -r4
   8:	000000e0 	andeq	r0, r0, r0, ror #1
   c:	000000ec 	andeq	r0, r0, ip, ror #1
  10:	000000f4 	strdeq	r0, [r0], -r4
  14:	00000150 	andeq	r0, r0, r0, asr r1
	...
  20:	000002b4 			; <UNDEFINED> instruction: 0x000002b4
  24:	000002b8 			; <UNDEFINED> instruction: 0x000002b8
  28:	000002e8 	andeq	r0, r0, r8, ror #5
  2c:	000004e0 	andeq	r0, r0, r0, ror #9
	...
  38:	0000887c 	andeq	r8, r0, ip, ror r8
  3c:	000088f0 	strdeq	r8, [r0], -r0
	...

Disassembly of section .debug_line:

00000000 <.debug_line>:
       0:	00000127 	andeq	r0, r0, r7, lsr #2
       4:	00c40002 	sbceq	r0, r4, r2
       8:	01020000 	mrseq	r0, (UNDEF: 2)
       c:	000d0efb 	strdeq	r0, [sp], -fp
      10:	01010101 	tsteq	r1, r1, lsl #2
      14:	01000000 	mrseq	r0, (UNDEF: 0)
      18:	2f010000 	svccs	0x00010000
      1c:	72657355 	rsbvc	r7, r5, #1409286145	; 0x54000001
      20:	72622f73 	rsbvc	r2, r2, #460	; 0x1cc
      24:	6a6e6169 	bvs	1b985d0 <__bss_end__+0x1b8e6c0>
      28:	442f6e75 	strtmi	r6, [pc], #-3701	; 30 <_start-0x7fd0>
      2c:	746b7365 	strbtvc	r7, [fp], #-869	; 0x365
      30:	732f706f 	teqvc	pc, #111	; 0x6f
      34:	6f6f6863 	svcvs	0x006f6863
      38:	69572f6c 	ldmdbvs	r7, {r2, r3, r5, r6, r8, r9, sl, fp, sp}^
      3c:	7265746e 	rsbvc	r7, r5, #1845493760	; 0x6e000000
      40:	30323931 	eorscc	r3, r2, r1, lsr r9
      44:	3153432f 	cmpcc	r3, pc, lsr #6
      48:	2f453034 	svccs	0x00453034
      4c:	34317363 	ldrtcc	r7, [r1], #-867	; 0x363
      50:	322d6530 	eorcc	r6, sp, #48, 10	; 0xc000000
      54:	6e697730 	mcrvs	7, 3, r7, cr9, cr0, {1}
      58:	62696c2f 	rsbvs	r6, r9, #12032	; 0x2f00
      5c:	2f006970 	svccs	0x00006970
      60:	72657355 	rsbvc	r7, r5, #1409286145	; 0x54000001
      64:	72622f73 	rsbvc	r2, r2, #460	; 0x1cc
      68:	6a6e6169 	bvs	1b98614 <__bss_end__+0x1b8e704>
      6c:	442f6e75 	strtmi	r6, [pc], #-3701	; 74 <_start-0x7f8c>
      70:	746b7365 	strbtvc	r7, [fp], #-869	; 0x365
      74:	732f706f 	teqvc	pc, #111	; 0x6f
      78:	6f6f6863 	svcvs	0x006f6863
      7c:	69572f6c 	ldmdbvs	r7, {r2, r3, r5, r6, r8, r9, sl, fp, sp}^
      80:	7265746e 	rsbvc	r7, r5, #1845493760	; 0x6e000000
      84:	30323931 	eorscc	r3, r2, r1, lsr r9
      88:	3153432f 	cmpcc	r3, pc, lsr #6
      8c:	2f453034 	svccs	0x00453034
      90:	34317363 	ldrtcc	r7, [r1], #-867	; 0x363
      94:	322d6530 	eorcc	r6, sp, #48, 10	; 0xc000000
      98:	6e697730 	mcrvs	7, 3, r7, cr9, cr0, {1}
      9c:	62696c2f 	rsbvs	r6, r9, #12032	; 0x2f00
      a0:	632f6970 	teqvs	pc, #112, 18	; 0x1c0000
      a4:	30343173 	eorscc	r3, r4, r3, ror r1
      a8:	72732d65 	rsbsvc	r2, r3, #6464	; 0x1940
      ac:	73000063 	movwvc	r0, #99	; 0x63
      b0:	65706f63 	ldrbvs	r6, [r0, #-3939]!	; 0xf63
      b4:	0000632e 	andeq	r6, r0, lr, lsr #6
      b8:	70720000 	rsbsvc	r0, r2, r0
      bc:	00682e69 	rsbeq	r2, r8, r9, ror #28
      c0:	67000001 	strvs	r0, [r0, -r1]
      c4:	2e6f6970 	mcrcs	9, 3, r6, cr15, cr0, {3}
      c8:	00020068 	andeq	r0, r2, r8, rrx
      cc:	05000000 	streq	r0, [r0, #-0]
      d0:	00801002 	addeq	r1, r0, r2
      d4:	010c0300 	mrseq	r0, LR_mon
      d8:	2f2f2d13 	svccs	0x002f2d13
      dc:	0030672f 	eorseq	r6, r0, pc, lsr #14
      e0:	45010402 	strmi	r0, [r1, #-1026]	; 0x402
      e4:	3c080d03 	stccc	13, cr0, [r8], {3}
      e8:	02006a2e 	andeq	r6, r0, #188416	; 0x2e000
      ec:	9f4b0104 	svcls	0x004b0104
      f0:	0402002a 	streq	r0, [r2], #-42	; 0x2a
      f4:	02006d01 	andeq	r6, r0, #1, 26	; 0x40
      f8:	4c670104 	stfmie	f0, [r7], #-16
      fc:	032f672f 	teqeq	pc, #12320768	; 0xbc0000
     100:	0a034a7a 	beq	d2af0 <__bss_end__+0xc8be0>
     104:	2b314e4a 	blcs	c53a34 <__bss_end__+0xc49b24>
     108:	4c644d2e 	stclmi	13, cr4, [r4], #-184	; 0xffffff48
     10c:	03354c83 	teqeq	r5, #33536	; 0x8300
     110:	67312e7a 			; <UNDEFINED> instruction: 0x67312e7a
     114:	7603322c 	strvc	r3, [r3], -ip, lsr #4
     118:	660c03ba 			; <UNDEFINED> instruction: 0x660c03ba
     11c:	302c3068 	eorcc	r3, ip, r8, rrx
     120:	2bd94f2f 	blcs	ff653de4 <__bss_end__+0xff649ed4>
     124:	04024b31 	streq	r4, [r2], #-2865	; 0xb31
     128:	02010100 	andeq	r0, r1, #0, 2
     12c:	02000001 	andeq	r0, r0, #1
     130:	0000eb00 	andeq	lr, r0, r0, lsl #22
     134:	fb010200 	blx	4093e <__bss_end__+0x36a2e>
     138:	01000d0e 	tsteq	r0, lr, lsl #26
     13c:	00010101 	andeq	r0, r1, r1, lsl #2
     140:	00010000 	andeq	r0, r1, r0
     144:	696c0100 	stmdbvs	ip!, {r8}^
     148:	2f006362 	svccs	0x00006362
     14c:	2f727375 	svccs	0x00727375
     150:	61636f6c 	cmnvs	r3, ip, ror #30
     154:	65432f6c 	strbvs	r2, [r3, #-3948]	; 0xf6c
     158:	72616c6c 	rsbvc	r6, r1, #108, 24	; 0x6c00
     15c:	6d72612f 	ldfvse	f6, [r2, #-188]!	; 0xffffff44
     160:	6e6f6e2d 	cdpvs	14, 6, cr6, cr15, cr13, {1}
     164:	61652d65 	cmnvs	r5, r5, ror #26
     168:	342f6962 	strtcc	r6, [pc], #-2402	; 170 <_start-0x7e90>
     16c:	332e382e 	teqcc	lr, #3014656	; 0x2e0000
     170:	3173632d 	cmncc	r3, sp, lsr #6
     174:	2f653037 	svccs	0x00653037
     178:	2f62696c 	svccs	0x0062696c
     17c:	2f636367 	svccs	0x00636367
     180:	2d6d7261 	sfmcs	f7, 2, [sp, #-388]!	; 0xfffffe7c
     184:	656e6f6e 	strbvs	r6, [lr, #-3950]!	; 0xf6e
     188:	6261652d 	rsbvs	r6, r1, #188743680	; 0xb400000
     18c:	2e342f69 	cdpcs	15, 3, cr2, cr4, cr9, {3}
     190:	2f332e38 	svccs	0x00332e38
     194:	6c636e69 	stclvs	14, cr6, [r3], #-420	; 0xfffffe5c
     198:	00656475 	rsbeq	r6, r5, r5, ror r4
     19c:	6573552f 	ldrbvs	r5, [r3, #-1327]!	; 0x52f
     1a0:	622f7372 	eorvs	r7, pc, #-939524095	; 0xc8000001
     1a4:	6e616972 	mcrvs	9, 3, r6, cr1, cr2, {3}
     1a8:	2f6e756a 	svccs	0x006e756a
     1ac:	6b736544 	blvs	1cd96c4 <__bss_end__+0x1ccf7b4>
     1b0:	2f706f74 	svccs	0x00706f74
     1b4:	6f686373 	svcvs	0x00686373
     1b8:	572f6c6f 	strpl	r6, [pc, -pc, ror #24]!
     1bc:	65746e69 	ldrbvs	r6, [r4, #-3689]!	; 0xe69
     1c0:	32393172 	eorscc	r3, r9, #-2147483620	; 0x8000001c
     1c4:	53432f30 	movtpl	r2, #16176	; 0x3f30
     1c8:	45303431 	ldrmi	r3, [r0, #-1073]!	; 0x431
     1cc:	3173632f 	cmncc	r3, pc, lsr #6
     1d0:	2d653034 	stclcs	0, cr3, [r5, #-208]!	; 0xffffff30
     1d4:	69773032 	ldmdbvs	r7!, {r1, r4, r5, ip, sp}^
     1d8:	696c2f6e 	stmdbvs	ip!, {r1, r2, r3, r5, r6, r8, r9, sl, fp, sp}^
     1dc:	00697062 	rsbeq	r7, r9, r2, rrx
     1e0:	69727000 	ldmdbvs	r2!, {ip, sp, lr}^
     1e4:	2e6b746e 	cdpcs	4, 6, cr7, cr11, cr14, {3}
     1e8:	00010063 	andeq	r0, r1, r3, rrx
     1ec:	64747300 	ldrbtvs	r7, [r4], #-768	; 0x300
     1f0:	2e677261 	cdpcs	2, 6, cr7, cr7, cr1, {3}
     1f4:	00020068 	andeq	r0, r2, r8, rrx
     1f8:	75623c00 	strbvc	r3, [r2, #-3072]!	; 0xc00
     1fc:	2d746c69 	ldclcs	12, cr6, [r4, #-420]!	; 0xfffffe5c
     200:	003e6e69 	eorseq	r6, lr, r9, ror #28
     204:	72000000 	andvc	r0, r0, #0
     208:	682e6970 	stmdavs	lr!, {r4, r5, r6, r8, fp, sp, lr}
     20c:	00000300 	andeq	r0, r0, r0, lsl #6
     210:	702d6176 	eorvc	r6, sp, r6, ror r1
     214:	746e6972 	strbtvc	r6, [lr], #-2418	; 0x972
     218:	00682e6b 	rsbeq	r2, r8, fp, ror #28
     21c:	00000001 	andeq	r0, r0, r1
     220:	b8020500 	stmdalt	r2, {r8, sl}
     224:	17000081 	strne	r0, [r0, -r1, lsl #1]
     228:	89bf4b6b 	ldmibhi	pc!, {r0, r1, r3, r5, r6, r8, r9, fp, lr}	; <UNPREDICTABLE>
     22c:	01000e02 	tsteq	r0, r2, lsl #28
     230:	00008a01 	andeq	r8, r0, r1, lsl #20
     234:	72000200 	andvc	r0, r0, #0, 4
     238:	02000000 	andeq	r0, r0, #0
     23c:	0d0efb01 	vstreq	d15, [lr, #-4]
     240:	01010100 	mrseq	r0, (UNDEF: 17)
     244:	00000001 	andeq	r0, r0, r1
     248:	01000001 	tsteq	r0, r1
     24c:	6362696c 	cmnvs	r2, #108, 18	; 0x1b0000
     250:	73552f00 	cmpvc	r5, #0, 30
     254:	2f737265 	svccs	0x00737265
     258:	61697262 	cmnvs	r9, r2, ror #4
     25c:	6e756a6e 	vsubvs.f32	s13, s10, s29
     260:	7365442f 	cmnvc	r5, #788529152	; 0x2f000000
     264:	706f746b 	rsbvc	r7, pc, fp, ror #8
     268:	6863732f 	stmdavs	r3!, {r0, r1, r2, r3, r5, r8, r9, ip, sp, lr}^
     26c:	2f6c6f6f 	svccs	0x006c6f6f
     270:	746e6957 	strbtvc	r6, [lr], #-2391	; 0x957
     274:	39317265 	ldmdbcc	r1!, {r0, r2, r5, r6, r9, ip, sp, lr}
     278:	432f3032 	teqmi	pc, #50	; 0x32
     27c:	30343153 	eorscc	r3, r4, r3, asr r1
     280:	73632f45 	cmnvc	r3, #276	; 0x114
     284:	65303431 	ldrvs	r3, [r0, #-1073]!	; 0x431
     288:	7730322d 	ldrvc	r3, [r0, -sp, lsr #4]!
     28c:	6c2f6e69 	stcvs	14, cr6, [pc], #-420	; f0 <_start-0x7f10>
     290:	69706269 	ldmdbvs	r0!, {r0, r3, r5, r6, r9, sp, lr}^
     294:	75700000 	ldrbvc	r0, [r0, #-0]!
     298:	61686374 	smcvs	34356	; 0x8634
     29c:	00632e72 	rsbeq	r2, r3, r2, ror lr
     2a0:	72000001 	andvc	r0, r0, #1
     2a4:	682e6970 	stmdavs	lr!, {r4, r5, r6, r8, fp, sp, lr}
     2a8:	00000200 	andeq	r0, r0, r0, lsl #4
     2ac:	02050000 	andeq	r0, r5, #0
     2b0:	00008210 	andeq	r8, r0, r0, lsl r2
     2b4:	136b4a14 	cmnne	fp, #20, 20	; 0x14000
     2b8:	080213bc 	stmdaeq	r2, {r2, r3, r4, r5, r7, r8, r9, ip}
     2bc:	96010100 	strls	r0, [r1], -r0, lsl #2
     2c0:	02000000 	andeq	r0, r0, #0
     2c4:	00006f00 	andeq	r6, r0, r0, lsl #30
     2c8:	fb010200 	blx	40ad2 <__bss_end__+0x36bc2>
     2cc:	01000d0e 	tsteq	r0, lr, lsl #26
     2d0:	00010101 	andeq	r0, r1, r1, lsl #2
     2d4:	00010000 	andeq	r0, r1, r0
     2d8:	696c0100 	stmdbvs	ip!, {r8}^
     2dc:	2f006362 	svccs	0x00006362
     2e0:	72657355 	rsbvc	r7, r5, #1409286145	; 0x54000001
     2e4:	72622f73 	rsbvc	r2, r2, #460	; 0x1cc
     2e8:	6a6e6169 	bvs	1b98894 <__bss_end__+0x1b8e984>
     2ec:	442f6e75 	strtmi	r6, [pc], #-3701	; 2f4 <_start-0x7d0c>
     2f0:	746b7365 	strbtvc	r7, [fp], #-869	; 0x365
     2f4:	732f706f 	teqvc	pc, #111	; 0x6f
     2f8:	6f6f6863 	svcvs	0x006f6863
     2fc:	69572f6c 	ldmdbvs	r7, {r2, r3, r5, r6, r8, r9, sl, fp, sp}^
     300:	7265746e 	rsbvc	r7, r5, #1845493760	; 0x6e000000
     304:	30323931 	eorscc	r3, r2, r1, lsr r9
     308:	3153432f 	cmpcc	r3, pc, lsr #6
     30c:	2f453034 	svccs	0x00453034
     310:	34317363 	ldrtcc	r7, [r1], #-867	; 0x363
     314:	322d6530 	eorcc	r6, sp, #48, 10	; 0xc000000
     318:	6e697730 	mcrvs	7, 3, r7, cr9, cr0, {1}
     31c:	62696c2f 	rsbvs	r6, r9, #12032	; 0x2f00
     320:	00006970 	andeq	r6, r0, r0, ror r9
     324:	6b747570 	blvs	1d1d8ec <__bss_end__+0x1d139dc>
     328:	0100632e 	tsteq	r0, lr, lsr #6
     32c:	70720000 	rsbsvc	r0, r2, r0
     330:	00682e69 	rsbeq	r2, r8, r9, ror #28
     334:	00000002 	andeq	r0, r0, r2
     338:	4c020500 	cfstr32mi	mvfx0, [r2], {-0}
     33c:	15000082 	strne	r0, [r0, #-130]	; 0x82
     340:	02002d4c 	andeq	r2, r0, #76, 26	; 0x1300
     344:	002f0204 	eoreq	r0, pc, r4, lsl #4
     348:	49020402 	stmdbmi	r2, {r1, sl}
     34c:	01040200 	mrseq	r0, R12_usr
     350:	6b062e06 	blvs	18bb70 <__bss_end__+0x181c60>
     354:	01000602 	tsteq	r0, r2, lsl #12
     358:	0001e201 	andeq	lr, r1, r1, lsl #4
     35c:	df000200 	svcle	0x00000200
     360:	02000000 	andeq	r0, r0, #0
     364:	0d0efb01 	vstreq	d15, [lr, #-4]
     368:	01010100 	mrseq	r0, (UNDEF: 17)
     36c:	00000001 	andeq	r0, r0, r1
     370:	01000001 	tsteq	r0, r1
     374:	6362696c 	cmnvs	r2, #108, 18	; 0x1b0000
     378:	73752f00 	cmnvc	r5, #0, 30
     37c:	6f6c2f72 	svcvs	0x006c2f72
     380:	2f6c6163 	svccs	0x006c6163
     384:	6c6c6543 	cfstr64vs	mvdx6, [ip], #-268	; 0xfffffef4
     388:	612f7261 	teqvs	pc, r1, ror #4
     38c:	6e2d6d72 	mcrvs	13, 1, r6, cr13, cr2, {3}
     390:	2d656e6f 	stclcs	14, cr6, [r5, #-444]!	; 0xfffffe44
     394:	69626165 	stmdbvs	r2!, {r0, r2, r5, r6, r8, sp, lr}^
     398:	382e342f 	stmdacc	lr!, {r0, r1, r2, r3, r5, sl, ip, sp}
     39c:	632d332e 	teqvs	sp, #-1207959552	; 0xb8000000
     3a0:	30373173 	eorscc	r3, r7, r3, ror r1
     3a4:	696c2f65 	stmdbvs	ip!, {r0, r2, r5, r6, r8, r9, sl, fp, sp}^
     3a8:	63672f62 	cmnvs	r7, #392	; 0x188
     3ac:	72612f63 	rsbvc	r2, r1, #396	; 0x18c
     3b0:	6f6e2d6d 	svcvs	0x006e2d6d
     3b4:	652d656e 	strvs	r6, [sp, #-1390]!	; 0x56e
     3b8:	2f696261 	svccs	0x00696261
     3bc:	2e382e34 	mrccs	14, 1, r2, cr8, cr4, {1}
     3c0:	6e692f33 	mcrvs	15, 3, r2, cr9, cr3, {1}
     3c4:	64756c63 	ldrbtvs	r6, [r5], #-3171	; 0xc63
     3c8:	552f0065 	strpl	r0, [pc, #-101]!	; 36b <_start-0x7c95>
     3cc:	73726573 	cmnvc	r2, #482344960	; 0x1cc00000
     3d0:	6972622f 	ldmdbvs	r2!, {r0, r1, r2, r3, r5, r9, sp, lr}^
     3d4:	756a6e61 	strbvc	r6, [sl, #-3681]!	; 0xe61
     3d8:	65442f6e 	strbvs	r2, [r4, #-3950]	; 0xf6e
     3dc:	6f746b73 	svcvs	0x00746b73
     3e0:	63732f70 	cmnvs	r3, #112, 30	; 0x1c0
     3e4:	6c6f6f68 	stclvs	15, cr6, [pc], #-416	; 24c <_start-0x7db4>
     3e8:	6e69572f 	cdpvs	7, 6, cr5, cr9, cr15, {1}
     3ec:	31726574 	cmncc	r2, r4, ror r5
     3f0:	2f303239 	svccs	0x00303239
     3f4:	34315343 	ldrtcc	r5, [r1], #-835	; 0x343
     3f8:	632f4530 	teqvs	pc, #48, 10	; 0xc000000
     3fc:	30343173 	eorscc	r3, r4, r3, ror r1
     400:	30322d65 	eorscc	r2, r2, r5, ror #26
     404:	2f6e6977 	svccs	0x006e6977
     408:	7062696c 	rsbvc	r6, r2, ip, ror #18
     40c:	76000069 	strvc	r0, [r0], -r9, rrx
     410:	72702d61 	rsbsvc	r2, r0, #6208	; 0x1840
     414:	6b746e69 	blvs	1d1bdc0 <__bss_end__+0x1d11eb0>
     418:	0100632e 	tsteq	r0, lr, lsr #6
     41c:	74730000 	ldrbtvc	r0, [r3], #-0
     420:	67726164 	ldrbvs	r6, [r2, -r4, ror #2]!
     424:	0200682e 	andeq	r6, r0, #3014656	; 0x2e0000
     428:	70720000 	rsbsvc	r0, r2, r0
     42c:	00682e69 	rsbeq	r2, r8, r9, ror #28
     430:	3c000003 	stccc	0, cr0, [r0], {3}
     434:	6c697562 	cfstr64vs	mvdx7, [r9], #-392	; 0xfffffe78
     438:	6e692d74 	mcrvs	13, 3, r2, cr9, cr4, {3}
     43c:	0000003e 	andeq	r0, r0, lr, lsr r0
     440:	05000000 	streq	r0, [r0, #-0]
     444:	00828002 	addeq	r8, r2, r2
     448:	01260300 	teqeq	r6, r0, lsl #6
     44c:	3113a501 	tstcc	r3, r1, lsl #10
     450:	0402002d 	streq	r0, [r2], #-45	; 0x2d
     454:	02002f02 	andeq	r2, r0, #2, 30
     458:	002d0204 	eoreq	r0, sp, r4, lsl #4
     45c:	2f020402 	svccs	0x00020402
     460:	01040200 	mrseq	r0, R12_usr
     464:	304c4c2d 	subcc	r4, ip, sp, lsr #24
     468:	4f2f4b14 	svcmi	0x002f4b14
     46c:	02040200 	andeq	r0, r4, #0, 4
     470:	04020067 	streq	r0, [r2], #-103	; 0x67
     474:	4d4c6501 	cfstr64mi	mvdx6, [ip, #-4]
     478:	312fa030 	teqcc	pc, r0, lsr r0	; <UNPREDICTABLE>
     47c:	16260230 			; <UNDEFINED> instruction: 0x16260230
     480:	002c2d84 	eoreq	r2, ip, r4, lsl #27
     484:	30010402 	andcc	r0, r1, r2, lsl #8
     488:	01040200 	mrseq	r0, R12_usr
     48c:	00660633 	rsbeq	r0, r6, r3, lsr r6
     490:	2e010402 	cdpcs	4, 0, cr0, cr1, cr2, {0}
     494:	01040200 	mrseq	r0, R12_usr
     498:	67210806 	strvs	r0, [r1, -r6, lsl #16]!
     49c:	8273032f 	rsbshi	r0, r3, #-1140850688	; 0xbc000000
     4a0:	002e1303 	eoreq	r1, lr, r3, lsl #6
     4a4:	06010402 	streq	r0, [r1], -r2, lsl #8
     4a8:	0402002e 	streq	r0, [r2], #-46	; 0x2e
     4ac:	6a9f0601 	bvs	fe7c1cb8 <__bss_end__+0xfe7b7da8>
     4b0:	2e67034b 	cdpcs	3, 6, cr0, cr7, cr11, {2}
     4b4:	002e2103 	eoreq	r2, lr, r3, lsl #2
     4b8:	06010402 	streq	r0, [r1], -r2, lsl #8
     4bc:	0402002e 	streq	r0, [r2], #-46	; 0x2e
     4c0:	009f0601 	addseq	r0, pc, r1, lsl #12
     4c4:	6a010402 	bvs	414d4 <__bss_end__+0x375c4>
     4c8:	03f32308 	mvnseq	r2, #8, 6	; 0x20000000
     4cc:	3c087fa6 	stccc	15, cr7, [r8], {166}	; 0xa6
     4d0:	0402004b 	streq	r0, [r2], #-75	; 0x4b
     4d4:	064a0601 	strbeq	r0, [sl], -r1, lsl #12
     4d8:	2f4b2108 	svccs	0x004b2108
     4dc:	00d9034b 	sbcseq	r0, r9, fp, asr #6
     4e0:	484c83f2 	stmdami	ip, {r1, r4, r5, r6, r7, r8, r9, pc}^
     4e4:	032e0e03 	teqeq	lr, #3, 28	; 0x30
     4e8:	2f2f2e75 	svccs	0x002f2e75
     4ec:	2d2f4b84 	vstmdbcs	pc!, {d4-d5}
     4f0:	2f30314d 	svccs	0x0030314d
     4f4:	04020083 	streq	r0, [r2], #-131	; 0x83
     4f8:	00a22c01 	adceq	r2, r2, r1, lsl #24
     4fc:	06010402 	streq	r0, [r1], -r2, lsl #8
     500:	2208064a 	andcs	r0, r8, #77594624	; 0x4a00000
     504:	03163602 	tsteq	r6, #2097152	; 0x200000
     508:	2108d60e 	tstcs	r8, lr, lsl #12
     50c:	f331f330 	vcge.u<illegal width 64>	d15, d1, d16
     510:	4b30f330 	blmi	c3d1d8 <__bss_end__+0xc332c8>
     514:	0830f330 	ldmdaeq	r0!, {r4, r5, r8, r9, ip, sp, lr, pc}
     518:	002f3123 	eoreq	r3, pc, r3, lsr #2
     51c:	65010402 	strvs	r0, [r1, #-1026]	; 0x402
     520:	02040200 	andeq	r0, r4, #0, 4
     524:	02004a06 	andeq	r4, r0, #24576	; 0x6000
     528:	03060104 	movweq	r0, #24836	; 0x6104
     52c:	02006642 	andeq	r6, r0, #69206016	; 0x4200000
     530:	66060204 	strvs	r0, [r6], -r4, lsl #4
     534:	00c20306 	sbceq	r0, r2, r6, lsl #6
     538:	1202684a 	andne	r6, r2, #4849664	; 0x4a0000
     53c:	93010100 	movwls	r0, #4352	; 0x1100
     540:	02000000 	andeq	r0, r0, #0
     544:	00007d00 	andeq	r7, r0, r0, lsl #26
     548:	fb010200 	blx	40d52 <__bss_end__+0x36e42>
     54c:	01000d0e 	tsteq	r0, lr, lsl #26
     550:	00010101 	andeq	r0, r1, r1, lsl #2
     554:	00010000 	andeq	r0, r1, r0
     558:	73630100 	cmnvc	r3, #0, 2
     55c:	65303431 	ldrvs	r3, [r0, #-1073]!	; 0x431
     560:	6372732d 	cmnvs	r2, #-1275068416	; 0xb4000000
     564:	73552f00 	cmpvc	r5, #0, 30
     568:	2f737265 	svccs	0x00737265
     56c:	61697262 	cmnvs	r9, r2, ror #4
     570:	6e756a6e 	vsubvs.f32	s13, s10, s29
     574:	7365442f 	cmnvc	r5, #788529152	; 0x2f000000
     578:	706f746b 	rsbvc	r7, pc, fp, ror #8
     57c:	6863732f 	stmdavs	r3!, {r0, r1, r2, r3, r5, r8, r9, ip, sp, lr}^
     580:	2f6c6f6f 	svccs	0x006c6f6f
     584:	746e6957 	strbtvc	r6, [lr], #-2391	; 0x957
     588:	39317265 	ldmdbcc	r1!, {r0, r2, r5, r6, r9, ip, sp, lr}
     58c:	432f3032 	teqmi	pc, #50	; 0x32
     590:	30343153 	eorscc	r3, r4, r3, asr r1
     594:	73632f45 	cmnvc	r3, #276	; 0x114
     598:	65303431 	ldrvs	r3, [r0, #-1073]!	; 0x431
     59c:	7730322d 	ldrvc	r3, [r0, -sp, lsr #4]!
     5a0:	6c2f6e69 	stcvs	14, cr6, [pc], #-420	; 404 <_start-0x7bfc>
     5a4:	69706269 	ldmdbvs	r0!, {r0, r3, r5, r6, r9, sp, lr}^
     5a8:	6c630000 	stclvs	0, cr0, [r3], #-0
     5ac:	2d6e6165 	stfcse	f6, [lr, #-404]!	; 0xfffffe6c
     5b0:	6f626572 	svcvs	0x00626572
     5b4:	632e746f 	teqvs	lr, #1862270976	; 0x6f000000
     5b8:	00000100 	andeq	r0, r0, r0, lsl #2
     5bc:	2e697072 	mcrcs	0, 3, r7, cr9, cr2, {3}
     5c0:	00020068 	andeq	r0, r2, r8, rrx
     5c4:	05000000 	streq	r0, [r0, #-0]
     5c8:	0087a402 	addeq	sl, r7, r2, lsl #8
     5cc:	832f1500 	teqhi	pc, #0, 10
     5d0:	0006024b 	andeq	r0, r6, fp, asr #4
     5d4:	01210101 	teqeq	r1, r1, lsl #2
     5d8:	00020000 	andeq	r0, r2, r0
     5dc:	000000f8 	strdeq	r0, [r0], -r8
     5e0:	0efb0102 	cdpeq	1, 15, cr0, cr11, cr2, {0}
     5e4:	0101000d 	tsteq	r1, sp
     5e8:	00000101 	andeq	r0, r0, r1, lsl #2
     5ec:	00000100 	andeq	r0, r0, r0, lsl #2
     5f0:	31736301 	cmncc	r3, r1, lsl #6
     5f4:	2d653034 	stclcs	0, cr3, [r5, #-208]!	; 0xffffff30
     5f8:	00637273 	rsbeq	r7, r3, r3, ror r2
     5fc:	7273752f 	rsbsvc	r7, r3, #197132288	; 0xbc00000
     600:	636f6c2f 	cmnvs	pc, #12032	; 0x2f00
     604:	432f6c61 	teqmi	pc, #24832	; 0x6100
     608:	616c6c65 	cmnvs	ip, r5, ror #24
     60c:	72612f72 	rsbvc	r2, r1, #456	; 0x1c8
     610:	6f6e2d6d 	svcvs	0x006e2d6d
     614:	652d656e 	strvs	r6, [sp, #-1390]!	; 0x56e
     618:	2f696261 	svccs	0x00696261
     61c:	2e382e34 	mrccs	14, 1, r2, cr8, cr4, {1}
     620:	73632d33 	cmnvc	r3, #3264	; 0xcc0
     624:	65303731 	ldrvs	r3, [r0, #-1841]!	; 0x731
     628:	62696c2f 	rsbvs	r6, r9, #12032	; 0x2f00
     62c:	6363672f 	cmnvs	r3, #12320768	; 0xbc0000
     630:	6d72612f 	ldfvse	f6, [r2, #-188]!	; 0xffffff44
     634:	6e6f6e2d 	cdpvs	14, 6, cr6, cr15, cr13, {1}
     638:	61652d65 	cmnvs	r5, r5, ror #26
     63c:	342f6962 	strtcc	r6, [pc], #-2402	; 644 <_start-0x79bc>
     640:	332e382e 	teqcc	lr, #3014656	; 0x2e0000
     644:	636e692f 	cmnvs	lr, #770048	; 0xbc000
     648:	6564756c 	strbvs	r7, [r4, #-1388]!	; 0x56c
     64c:	73552f00 	cmpvc	r5, #0, 30
     650:	2f737265 	svccs	0x00737265
     654:	61697262 	cmnvs	r9, r2, ror #4
     658:	6e756a6e 	vsubvs.f32	s13, s10, s29
     65c:	7365442f 	cmnvc	r5, #788529152	; 0x2f000000
     660:	706f746b 	rsbvc	r7, pc, fp, ror #8
     664:	6863732f 	stmdavs	r3!, {r0, r1, r2, r3, r5, r8, r9, ip, sp, lr}^
     668:	2f6c6f6f 	svccs	0x006c6f6f
     66c:	746e6957 	strbtvc	r6, [lr], #-2391	; 0x957
     670:	39317265 	ldmdbcc	r1!, {r0, r2, r5, r6, r9, ip, sp, lr}
     674:	432f3032 	teqmi	pc, #50	; 0x32
     678:	30343153 	eorscc	r3, r4, r3, asr r1
     67c:	73632f45 	cmnvc	r3, #276	; 0x114
     680:	65303431 	ldrvs	r3, [r0, #-1073]!	; 0x431
     684:	7730322d 	ldrvc	r3, [r0, -sp, lsr #4]!
     688:	6c2f6e69 	stcvs	14, cr6, [pc], #-420	; 4ec <_start-0x7b14>
     68c:	69706269 	ldmdbvs	r0!, {r0, r3, r5, r6, r9, sp, lr}^
     690:	73630000 	cmnvc	r3, #0
     694:	74726174 	ldrbtvc	r6, [r2], #-372	; 0x174
     698:	0100632e 	tsteq	r0, lr, lsr #6
     69c:	74730000 	ldrbtvc	r0, [r3], #-0
     6a0:	746e6964 	strbtvc	r6, [lr], #-2404	; 0x964
     6a4:	6363672d 	cmnvs	r3, #11796480	; 0xb40000
     6a8:	0200682e 	andeq	r6, r0, #3014656	; 0x2e0000
     6ac:	77730000 	ldrbvc	r0, [r3, -r0]!
     6b0:	7261752d 	rsbvc	r7, r1, #188743680	; 0xb400000
     6b4:	00682e74 	rsbeq	r2, r8, r4, ror lr
     6b8:	63000001 	movwvs	r0, #1
     6bc:	72746e6f 	rsbsvc	r6, r4, #1776	; 0x6f0
     6c0:	622d6c6f 	eorvs	r6, sp, #28416	; 0x6f00
     6c4:	6b636f6c 	blvs	18dc47c <__bss_end__+0x18d256c>
     6c8:	0100682e 	tsteq	r0, lr, lsr #16
     6cc:	70720000 	rsbsvc	r0, r2, r0
     6d0:	00682e69 	rsbeq	r2, r8, r9, ror #28
     6d4:	00000003 	andeq	r0, r0, r3
     6d8:	cc020500 	cfstr32gt	mvfx0, [r2], {-0}
     6dc:	17000087 	strne	r0, [r0, -r7, lsl #1]
     6e0:	3268684b 	rsbcc	r6, r8, #4915200	; 0x4b0000
     6e4:	2f2d2f31 	svccs	0x002d2f31
     6e8:	01040200 	mrseq	r0, R12_usr
     6ec:	4b2f4f49 	blmi	bd4418 <__bss_end__+0xbca508>
     6f0:	67836767 	strvs	r6, [r3, r7, ror #14]
     6f4:	10022f4e 	andne	r2, r2, lr, asr #30
     6f8:	99010100 	stmdbls	r1, {r8}
     6fc:	02000000 	andeq	r0, r0, #0
     700:	00007700 	andeq	r7, r0, r0, lsl #14
     704:	fb010200 	blx	40f0e <__bss_end__+0x36ffe>
     708:	01000d0e 	tsteq	r0, lr, lsl #26
     70c:	00010101 	andeq	r0, r1, r1, lsl #2
     710:	00010000 	andeq	r0, r1, r0
     714:	73630100 	cmnvc	r3, #0, 2
     718:	65303431 	ldrvs	r3, [r0, #-1073]!	; 0x431
     71c:	6372732d 	cmnvs	r2, #-1275068416	; 0xb4000000
     720:	73552f00 	cmpvc	r5, #0, 30
     724:	2f737265 	svccs	0x00737265
     728:	61697262 	cmnvs	r9, r2, ror #4
     72c:	6e756a6e 	vsubvs.f32	s13, s10, s29
     730:	7365442f 	cmnvc	r5, #788529152	; 0x2f000000
     734:	706f746b 	rsbvc	r7, pc, fp, ror #8
     738:	6863732f 	stmdavs	r3!, {r0, r1, r2, r3, r5, r8, r9, ip, sp, lr}^
     73c:	2f6c6f6f 	svccs	0x006c6f6f
     740:	746e6957 	strbtvc	r6, [lr], #-2391	; 0x957
     744:	39317265 	ldmdbcc	r1!, {r0, r2, r5, r6, r9, ip, sp, lr}
     748:	432f3032 	teqmi	pc, #50	; 0x32
     74c:	30343153 	eorscc	r3, r4, r3, asr r1
     750:	73632f45 	cmnvc	r3, #276	; 0x114
     754:	65303431 	ldrvs	r3, [r0, #-1073]!	; 0x431
     758:	7730322d 	ldrvc	r3, [r0, -sp, lsr #4]!
     75c:	6c2f6e69 	stcvs	14, cr6, [pc], #-420	; 5c0 <_start-0x7a40>
     760:	69706269 	ldmdbvs	r0!, {r0, r3, r5, r6, r9, sp, lr}^
     764:	65720000 	ldrbvs	r0, [r2, #-0]!
     768:	746f6f62 	strbtvc	r6, [pc], #-3938	; 770 <_start-0x7890>
     76c:	0100632e 	tsteq	r0, lr, lsr #6
     770:	70720000 	rsbsvc	r0, r2, r0
     774:	00682e69 	rsbeq	r2, r8, r9, ror #28
     778:	00000002 	andeq	r0, r0, r2
     77c:	7c020500 	cfstr32vc	mvfx0, [r2], {-0}
     780:	03000088 	movweq	r0, #136	; 0x88
     784:	3114010d 	tstcc	r4, sp, lsl #2
     788:	2f15852f 	svccs	0x0015852f
     78c:	672f4d4b 	strvs	r4, [pc, -fp, asr #26]!
     790:	02675235 	rsbeq	r5, r7, #1342177283	; 0x50000003
     794:	01010010 	tsteq	r1, r0, lsl r0
     798:	000000a3 	andeq	r0, r0, r3, lsr #1
     79c:	00760002 	rsbseq	r0, r6, r2
     7a0:	01020000 	mrseq	r0, (UNDEF: 2)
     7a4:	000d0efb 	strdeq	r0, [sp], -fp
     7a8:	01010101 	tsteq	r1, r1, lsl #2
     7ac:	01000000 	mrseq	r0, (UNDEF: 0)
     7b0:	63010000 	movwvs	r0, #4096	; 0x1000
     7b4:	30343173 	eorscc	r3, r4, r3, ror r1
     7b8:	72732d65 	rsbsvc	r2, r3, #6464	; 0x1940
     7bc:	552f0063 	strpl	r0, [pc, #-99]!	; 761 <_start-0x789f>
     7c0:	73726573 	cmnvc	r2, #482344960	; 0x1cc00000
     7c4:	6972622f 	ldmdbvs	r2!, {r0, r1, r2, r3, r5, r9, sp, lr}^
     7c8:	756a6e61 	strbvc	r6, [sl, #-3681]!	; 0xe61
     7cc:	65442f6e 	strbvs	r2, [r4, #-3950]	; 0xf6e
     7d0:	6f746b73 	svcvs	0x00746b73
     7d4:	63732f70 	cmnvs	r3, #112, 30	; 0x1c0
     7d8:	6c6f6f68 	stclvs	15, cr6, [pc], #-416	; 640 <_start-0x79c0>
     7dc:	6e69572f 	cdpvs	7, 6, cr5, cr9, cr15, {1}
     7e0:	31726574 	cmncc	r2, r4, ror r5
     7e4:	2f303239 	svccs	0x00303239
     7e8:	34315343 	ldrtcc	r5, [r1], #-835	; 0x343
     7ec:	632f4530 	teqvs	pc, #48, 10	; 0xc000000
     7f0:	30343173 	eorscc	r3, r4, r3, ror r1
     7f4:	30322d65 	eorscc	r2, r2, r5, ror #26
     7f8:	2f6e6977 	svccs	0x006e6977
     7fc:	7062696c 	rsbvc	r6, r2, ip, ror #18
     800:	74000069 	strvc	r0, [r0], #-105	; 0x69
     804:	72656d69 	rsbvc	r6, r5, #6720	; 0x1a40
     808:	0100632e 	tsteq	r0, lr, lsr #6
     80c:	70720000 	rsbsvc	r0, r2, r0
     810:	00682e69 	rsbeq	r2, r8, r9, ror #28
     814:	00000002 	andeq	r0, r0, r2
     818:	f0020500 			; <UNDEFINED> instruction: 0xf0020500
     81c:	16000088 	strne	r0, [r0], -r8, lsl #1
     820:	002d2f13 	eoreq	r2, sp, r3, lsl pc
     824:	06010402 	streq	r0, [r1], -r2, lsl #8
     828:	3168062e 	cmncc	r8, lr, lsr #12
     82c:	324d4b2f 	subcc	r4, sp, #48128	; 0xbc00
     830:	4c4b3031 	mcrrmi	0, 3, r3, fp, cr1
     834:	2f2f6a2f 	svccs	0x002f6a2f
     838:	08022f84 	stmdaeq	r2, {r2, r7, r8, r9, sl, fp, sp}
     83c:	7f010100 	svcvc	0x00010100
     840:	02000001 	andeq	r0, r0, #1
     844:	0000ca00 	andeq	ip, r0, r0, lsl #20
     848:	fb010200 	blx	41052 <__bss_end__+0x37142>
     84c:	01000d0e 	tsteq	r0, lr, lsl #26
     850:	00010101 	andeq	r0, r1, r1, lsl #2
     854:	00010000 	andeq	r0, r1, r0
     858:	796d0100 	stmdbvc	sp!, {r8}^
     85c:	6372732d 	cmnvs	r2, #-1275068416	; 0xb4000000
     860:	73552f00 	cmpvc	r5, #0, 30
     864:	2f737265 	svccs	0x00737265
     868:	61697262 	cmnvs	r9, r2, ror #4
     86c:	6e756a6e 	vsubvs.f32	s13, s10, s29
     870:	7365442f 	cmnvc	r5, #788529152	; 0x2f000000
     874:	706f746b 	rsbvc	r7, pc, fp, ror #8
     878:	6863732f 	stmdavs	r3!, {r0, r1, r2, r3, r5, r8, r9, ip, sp, lr}^
     87c:	2f6c6f6f 	svccs	0x006c6f6f
     880:	746e6957 	strbtvc	r6, [lr], #-2391	; 0x957
     884:	39317265 	ldmdbcc	r1!, {r0, r2, r5, r6, r9, ip, sp, lr}
     888:	432f3032 	teqmi	pc, #50	; 0x32
     88c:	30343153 	eorscc	r3, r4, r3, asr r1
     890:	73632f45 	cmnvc	r3, #276	; 0x114
     894:	65303431 	ldrvs	r3, [r0, #-1073]!	; 0x431
     898:	7730322d 	ldrvc	r3, [r0, -sp, lsr #4]!
     89c:	6c2f6e69 	stcvs	14, cr6, [pc], #-420	; 700 <_start-0x7900>
     8a0:	69706269 	ldmdbvs	r0!, {r0, r3, r5, r6, r9, sp, lr}^
     8a4:	3173632f 	cmncc	r3, pc, lsr #6
     8a8:	2d653034 	stclcs	0, cr3, [r5, #-208]!	; 0xffffff30
     8ac:	00637273 	rsbeq	r7, r3, r3, ror r2
     8b0:	6573552f 	ldrbvs	r5, [r3, #-1327]!	; 0x52f
     8b4:	622f7372 	eorvs	r7, pc, #-939524095	; 0xc8000001
     8b8:	6e616972 	mcrvs	9, 3, r6, cr1, cr2, {3}
     8bc:	2f6e756a 	svccs	0x006e756a
     8c0:	6b736544 	blvs	1cd9dd8 <__bss_end__+0x1ccfec8>
     8c4:	2f706f74 	svccs	0x00706f74
     8c8:	6f686373 	svcvs	0x00686373
     8cc:	572f6c6f 	strpl	r6, [pc, -pc, ror #24]!
     8d0:	65746e69 	ldrbvs	r6, [r4, #-3689]!	; 0xe69
     8d4:	32393172 	eorscc	r3, r9, #-2147483620	; 0x8000001c
     8d8:	53432f30 	movtpl	r2, #16176	; 0x3f30
     8dc:	45303431 	ldrmi	r3, [r0, #-1073]!	; 0x431
     8e0:	3173632f 	cmncc	r3, pc, lsr #6
     8e4:	2d653034 	stclcs	0, cr3, [r5, #-208]!	; 0xffffff30
     8e8:	69773032 	ldmdbvs	r7!, {r1, r4, r5, ip, sp}^
     8ec:	696c2f6e 	stmdbvs	ip!, {r1, r2, r3, r5, r6, r8, r9, sl, fp, sp}^
     8f0:	00697062 	rsbeq	r7, r9, r2, rrx
     8f4:	69706700 	ldmdbvs	r0!, {r8, r9, sl, sp, lr}^
     8f8:	00632e6f 	rsbeq	r2, r3, pc, ror #28
     8fc:	67000001 	strvs	r0, [r0, -r1]
     900:	2e6f6970 	mcrcs	9, 3, r6, cr15, cr0, {3}
     904:	00020068 	andeq	r0, r2, r8, rrx
     908:	69707200 	ldmdbvs	r0!, {r9, ip, sp, lr}^
     90c:	0300682e 	movweq	r6, #2094	; 0x82e
     910:	00000000 	andeq	r0, r0, r0
     914:	89780205 	ldmdbhi	r8!, {r0, r2, r9}^
     918:	3e030000 	cdpcc	0, 0, cr0, cr3, cr0, {0}
     91c:	69504e01 	ldmdbvs	r0, {r0, r9, sl, fp, lr}^
     920:	67672108 	strbvs	r2, [r7, -r8, lsl #2]!
     924:	67676767 	strbvs	r6, [r7, -r7, ror #14]!
     928:	22084b32 	andcs	r4, r8, #51200	; 0xc800
     92c:	135131dc 	cmpne	r1, #220, 2	; 0x37
     930:	be30504e 	cdplt	0, 3, cr5, cr0, cr14, {2}
     934:	4d135031 	ldcmi	0, cr5, [r3, #-196]	; 0xffffff3c
     938:	4cc0304f 	stclmi	0, cr3, [r0], {79}	; 0x4f
     93c:	21086950 	tstcs	r8, r0, asr r9
     940:	67676767 	strbvs	r6, [r7, -r7, ror #14]!
     944:	4b326767 	blmi	c9a6e8 <__bss_end__+0xc907d8>
     948:	4ca42108 	stfmis	f2, [r4], #32
     94c:	69842f50 	stmibvs	r4, {r4, r6, r8, r9, sl, fp, sp}
     950:	03827503 	orreq	r7, r2, #12582912	; 0xc00000
     954:	304d2e0c 	subcc	r2, sp, ip, lsl #28
     958:	4d4c4b4e 	vstrmi	d20, [ip, #-312]	; 0xfffffec8
     95c:	08696b6a 	stmdaeq	r9!, {r1, r3, r5, r6, r8, r9, fp, sp, lr}^
     960:	67676721 	strbvs	r6, [r7, -r1, lsr #14]!
     964:	32676767 	rsbcc	r6, r7, #27000832	; 0x19c0000
     968:	c022084b 	eorgt	r0, r2, fp, asr #16
     96c:	4e135130 	mrcmi	1, 0, r5, cr3, cr0, {1}
     970:	18033050 	stmdane	r3, {r4, r6, ip, sp}
     974:	4c9f31ba 	ldfmis	f3, [pc], {186}	; 0xba
     978:	4e4d522f 	cdpmi	2, 4, cr5, cr13, cr15, {1}
     97c:	4b674b2f 	blmi	19d3640 <__bss_end__+0x19c9730>
     980:	4c676768 	stclmi	7, cr6, [r7], #-416	; 0xfffffe60
     984:	4b2f672f 	blmi	bda648 <__bss_end__+0xbd0738>
     988:	2f4e4c6e 	svccs	0x004e4c6e
     98c:	684b674b 	stmdavs	fp, {r0, r1, r3, r6, r8, r9, sl, sp, lr}^
     990:	2f4c6767 	svccs	0x004c6767
     994:	6d4b2f67 	stclvs	15, cr2, [fp, #-412]	; 0xfffffe64
     998:	4b2f4e4b 	blmi	bd42cc <__bss_end__+0xbca3bc>
     99c:	04020067 	streq	r0, [r2], #-103	; 0x67
     9a0:	06660601 	strbteq	r0, [r6], -r1, lsl #12
     9a4:	002f9f68 	eoreq	r9, pc, r8, ror #30
     9a8:	06010402 	streq	r0, [r1], -r2, lsl #8
     9ac:	2f68064a 	svccs	0x0068064a
     9b0:	034a7303 	movteq	r7, #41731	; 0xa303
     9b4:	4c4d2e0e 	mcrrmi	14, 0, r2, sp, cr14
     9b8:	bc4b2f4e 	mcrrlt	15, 4, r2, fp, cr14
     9bc:	000602bc 			; <UNDEFINED> instruction: 0x000602bc
     9c0:	03490101 	movteq	r0, #37121	; 0x9101
     9c4:	00020000 	andeq	r0, r2, r0
     9c8:	000001bd 			; <UNDEFINED> instruction: 0x000001bd
     9cc:	0efb0102 	cdpeq	1, 15, cr0, cr11, cr2, {0}
     9d0:	0101000d 	tsteq	r1, sp
     9d4:	00000101 	andeq	r0, r0, r1, lsl #2
     9d8:	00000100 	andeq	r0, r0, r0, lsl #2
     9dc:	2d796d01 	ldclcs	13, cr6, [r9, #-4]!
     9e0:	00637273 	rsbeq	r7, r3, r3, ror r2
     9e4:	6573552f 	ldrbvs	r5, [r3, #-1327]!	; 0x52f
     9e8:	622f7372 	eorvs	r7, pc, #-939524095	; 0xc8000001
     9ec:	6e616972 	mcrvs	9, 3, r6, cr1, cr2, {3}
     9f0:	2f6e756a 	svccs	0x006e756a
     9f4:	6b736544 	blvs	1cd9f0c <__bss_end__+0x1ccfffc>
     9f8:	2f706f74 	svccs	0x00706f74
     9fc:	6f686373 	svcvs	0x00686373
     a00:	572f6c6f 	strpl	r6, [pc, -pc, ror #24]!
     a04:	65746e69 	ldrbvs	r6, [r4, #-3689]!	; 0xe69
     a08:	32393172 	eorscc	r3, r9, #-2147483620	; 0x8000001c
     a0c:	53432f30 	movtpl	r2, #16176	; 0x3f30
     a10:	45303431 	ldrmi	r3, [r0, #-1073]!	; 0x431
     a14:	3173632f 	cmncc	r3, pc, lsr #6
     a18:	2d653034 	stclcs	0, cr3, [r5, #-208]!	; 0xffffff30
     a1c:	69773032 	ldmdbvs	r7!, {r1, r4, r5, ip, sp}^
     a20:	696c2f6e 	stmdbvs	ip!, {r1, r2, r3, r5, r6, r8, r9, sl, fp, sp}^
     a24:	2f697062 	svccs	0x00697062
     a28:	34317363 	ldrtcc	r7, [r1], #-867	; 0x363
     a2c:	732d6530 	teqvc	sp, #48, 10	; 0xc000000
     a30:	2f006372 	svccs	0x00006372
     a34:	2f727375 	svccs	0x00727375
     a38:	61636f6c 	cmnvs	r3, ip, ror #30
     a3c:	65432f6c 	strbvs	r2, [r3, #-3948]	; 0xf6c
     a40:	72616c6c 	rsbvc	r6, r1, #108, 24	; 0x6c00
     a44:	6d72612f 	ldfvse	f6, [r2, #-188]!	; 0xffffff44
     a48:	6e6f6e2d 	cdpvs	14, 6, cr6, cr15, cr13, {1}
     a4c:	61652d65 	cmnvs	r5, r5, ror #26
     a50:	342f6962 	strtcc	r6, [pc], #-2402	; a58 <_start-0x75a8>
     a54:	332e382e 	teqcc	lr, #3014656	; 0x2e0000
     a58:	3173632d 	cmncc	r3, sp, lsr #6
     a5c:	2f653037 	svccs	0x00653037
     a60:	2f62696c 	svccs	0x0062696c
     a64:	2f636367 	svccs	0x00636367
     a68:	2d6d7261 	sfmcs	f7, 2, [sp, #-388]!	; 0xfffffe7c
     a6c:	656e6f6e 	strbvs	r6, [lr, #-3950]!	; 0xf6e
     a70:	6261652d 	rsbvs	r6, r1, #188743680	; 0xb400000
     a74:	2e342f69 	cdpcs	15, 3, cr2, cr4, cr9, {3}
     a78:	2f332e38 	svccs	0x00332e38
     a7c:	6c636e69 	stclvs	14, cr6, [r3], #-420	; 0xfffffe5c
     a80:	00656475 	rsbeq	r6, r5, r5, ror r4
     a84:	6573552f 	ldrbvs	r5, [r3, #-1327]!	; 0x52f
     a88:	622f7372 	eorvs	r7, pc, #-939524095	; 0xc8000001
     a8c:	6e616972 	mcrvs	9, 3, r6, cr1, cr2, {3}
     a90:	2f6e756a 	svccs	0x006e756a
     a94:	6b736544 	blvs	1cd9fac <__bss_end__+0x1cd009c>
     a98:	2f706f74 	svccs	0x00706f74
     a9c:	6f686373 	svcvs	0x00686373
     aa0:	572f6c6f 	strpl	r6, [pc, -pc, ror #24]!
     aa4:	65746e69 	ldrbvs	r6, [r4, #-3689]!	; 0xe69
     aa8:	32393172 	eorscc	r3, r9, #-2147483620	; 0x8000001c
     aac:	53432f30 	movtpl	r2, #16176	; 0x3f30
     ab0:	45303431 	ldrmi	r3, [r0, #-1073]!	; 0x431
     ab4:	3173632f 	cmncc	r3, pc, lsr #6
     ab8:	2d653034 	stclcs	0, cr3, [r5, #-208]!	; 0xffffff30
     abc:	69773032 	ldmdbvs	r7!, {r1, r4, r5, ip, sp}^
     ac0:	696c2f6e 	stmdbvs	ip!, {r1, r2, r3, r5, r6, r8, r9, sl, fp, sp}^
     ac4:	00697062 	rsbeq	r7, r9, r2, rrx
     ac8:	6573552f 	ldrbvs	r5, [r3, #-1327]!	; 0x52f
     acc:	622f7372 	eorvs	r7, pc, #-939524095	; 0xc8000001
     ad0:	6e616972 	mcrvs	9, 3, r6, cr1, cr2, {3}
     ad4:	2f6e756a 	svccs	0x006e756a
     ad8:	6b736544 	blvs	1cd9ff0 <__bss_end__+0x1cd00e0>
     adc:	2f706f74 	svccs	0x00706f74
     ae0:	6f686373 	svcvs	0x00686373
     ae4:	572f6c6f 	strpl	r6, [pc, -pc, ror #24]!
     ae8:	65746e69 	ldrbvs	r6, [r4, #-3689]!	; 0xe69
     aec:	32393172 	eorscc	r3, r9, #-2147483620	; 0x8000001c
     af0:	53432f30 	movtpl	r2, #16176	; 0x3f30
     af4:	45303431 	ldrmi	r3, [r0, #-1073]!	; 0x431
     af8:	3173632f 	cmncc	r3, pc, lsr #6
     afc:	2d653034 	stclcs	0, cr3, [r5, #-208]!	; 0xffffff30
     b00:	69773032 	ldmdbvs	r7!, {r1, r4, r5, ip, sp}^
     b04:	696c2f6e 	stmdbvs	ip!, {r1, r2, r3, r5, r6, r8, r9, sl, fp, sp}^
     b08:	2f697062 	svccs	0x00697062
     b0c:	6362696c 	cmnvs	r2, #108, 18	; 0x1b0000
     b10:	77730000 	ldrbvc	r0, [r3, -r0]!
     b14:	7261752d 	rsbvc	r7, r1, #188743680	; 0xb400000
     b18:	00632e74 	rsbeq	r2, r3, r4, ror lr
     b1c:	63000001 	movwvs	r0, #1
     b20:	656c6379 	strbvs	r6, [ip, #-889]!	; 0x379
     b24:	6974752d 	ldmdbvs	r4!, {r0, r2, r3, r5, r8, sl, ip, sp, lr}^
     b28:	00682e6c 	rsbeq	r2, r8, ip, ror #28
     b2c:	73000002 	movwvc	r0, #2
     b30:	6e696474 	mcrvs	4, 3, r6, cr9, cr4, {3}
     b34:	63672d74 	cmnvs	r7, #116, 26	; 0x1d00
     b38:	00682e63 	rsbeq	r2, r8, r3, ror #28
     b3c:	73000003 	movwvc	r0, #3
     b40:	61752d77 	cmnvs	r5, r7, ror sp
     b44:	682e7472 	stmdavs	lr!, {r1, r4, r5, r6, sl, ip, sp, lr}
     b48:	00000200 	andeq	r0, r0, r0, lsl #4
     b4c:	61647473 	smcvs	18243	; 0x4743
     b50:	682e6772 	stmdavs	lr!, {r1, r4, r5, r6, r8, r9, sl, sp, lr}
     b54:	00000300 	andeq	r0, r0, r0, lsl #6
     b58:	6f697067 	svcvs	0x00697067
     b5c:	0200682e 	andeq	r6, r0, #3014656	; 0x2e0000
     b60:	70720000 	rsbsvc	r0, r2, r0
     b64:	00682e69 	rsbeq	r2, r8, r9, ror #28
     b68:	76000004 	strvc	r0, [r0], -r4
     b6c:	72702d61 	rsbsvc	r2, r0, #6208	; 0x1840
     b70:	6b746e69 	blvs	1d1c51c <__bss_end__+0x1d1260c>
     b74:	0500682e 	streq	r6, [r0, #-2094]	; 0x82e
     b78:	623c0000 	eorsvs	r0, ip, #0
     b7c:	746c6975 	strbtvc	r6, [ip], #-2421	; 0x975
     b80:	3e6e692d 	cdpcc	9, 6, cr6, cr14, cr13, {1}
     b84:	00000000 	andeq	r0, r0, r0
     b88:	02050000 	andeq	r0, r5, #0
     b8c:	00008f18 	andeq	r8, r0, r8, lsl pc
     b90:	302f4c1a 	eorcc	r4, pc, sl, lsl ip	; <UNPREDICTABLE>
     b94:	0b030204 	bleq	c13ac <__bss_end__+0xb749c>
     b98:	6673032e 	ldrbtvs	r0, [r3], -lr, lsr #6
     b9c:	04880104 	streq	r0, [r8], #260	; 0x104
     ba0:	73033502 	movwvc	r3, #13570	; 0x3502
     ba4:	8a010466 	bhi	41d44 <__bss_end__+0x37e34>
     ba8:	03330204 	teqeq	r3, #4, 4	; 0x40000000
     bac:	01046673 	tsteq	r4, r3, ror r6
     bb0:	04820a03 	streq	r0, [r2], #2563	; 0xa03
     bb4:	73033102 	movwvc	r3, #12546	; 0x3102
     bb8:	03010466 	movweq	r0, #5222	; 0x1466
     bbc:	0204820c 	andeq	r8, r4, #12, 4	; 0xc0000000
     bc0:	6673032f 	ldrbtvs	r0, [r3], -pc, lsr #6
     bc4:	0e030104 	adfeqs	f0, f3, f4
     bc8:	2d020482 	cfstrscs	mvf0, [r2, #-520]	; 0xfffffdf8
     bcc:	04667303 	strbteq	r7, [r6], #-771	; 0x303
     bd0:	82100301 	andshi	r0, r0, #67108864	; 0x4000000
     bd4:	032b0204 	teqeq	fp, #4, 4	; 0x40000000
     bd8:	01046673 	tsteq	r4, r3, ror r6
     bdc:	04821203 	streq	r1, [r2], #515	; 0x203
     be0:	73032902 	movwvc	r2, #14594	; 0x3902
     be4:	03010466 	movweq	r0, #5222	; 0x1466
     be8:	02048214 	andeq	r8, r4, #20, 4	; 0x40000001
     bec:	032e7903 	teqeq	lr, #49152	; 0xc000
     bf0:	01046673 	tsteq	r4, r3, ror r6
     bf4:	04821603 	streq	r1, [r2], #1539	; 0x603
     bf8:	2e770302 	cdpcs	3, 7, cr0, cr7, cr2, {0}
     bfc:	04667303 	strbteq	r7, [r6], #-771	; 0x303
     c00:	82180301 	andshi	r0, r8, #67108864	; 0x4000000
     c04:	4b2e1003 	blmi	b84c18 <__bss_end__+0xb7ad08>
     c08:	2e70034d 	cdpcs	3, 7, cr0, cr0, cr13, {2}
     c0c:	4883844c 	stmmi	r3, {r2, r3, r6, sl, pc}
     c10:	4e2e0d03 	cdpmi	13, 2, cr0, cr14, cr3, {0}
     c14:	02043331 	andeq	r3, r4, #-1006632960	; 0xc4000000
     c18:	042e4803 	strteq	r4, [lr], #-2051	; 0x803
     c1c:	823a0301 	eorshi	r0, sl, #67108864	; 0x4000000
     c20:	0302042f 	movweq	r0, #9263	; 0x242f
     c24:	01046645 	tsteq	r4, r5, asr #12
     c28:	2f823d03 	svccs	0x00823d03
     c2c:	42030204 	andmi	r0, r3, #4, 4	; 0x40000000
     c30:	03010482 	movweq	r0, #5250	; 0x1482
     c34:	2f8200c0 	svccs	0x008200c0
     c38:	bf030204 	svclt	0x00030204
     c3c:	0104827f 	tsteq	r4, pc, ror r2
     c40:	8200c303 	andhi	ip, r0, #201326592	; 0xc000000
     c44:	0302042f 	movweq	r0, #9263	; 0x242f
     c48:	04827fbc 	streq	r7, [r2], #4028	; 0xfbc
     c4c:	00c60301 	sbceq	r0, r6, r1, lsl #6
     c50:	02042f82 	andeq	r2, r4, #520	; 0x208
     c54:	827fb903 	rsbshi	fp, pc, #49152	; 0xc000
     c58:	c9030104 	stmdbgt	r3, {r2, r8}
     c5c:	042f8200 	strteq	r8, [pc], #-512	; c64 <_start-0x739c>
     c60:	7fb60302 	svcvc	0x00b60302
     c64:	03010482 	movweq	r0, #5250	; 0x1482
     c68:	2f8200cc 	svccs	0x008200cc
     c6c:	b3030204 	movwlt	r0, #12804	; 0x3204
     c70:	0104827f 	tsteq	r4, pc, ror r2
     c74:	8200d003 	andhi	sp, r0, #3
     c78:	4c824c03 	stcmi	12, cr4, [r2], {3}
     c7c:	03488384 	movteq	r8, #33668	; 0x8384
     c80:	034e2e36 	movteq	r2, #60982	; 0xee36
     c84:	29034a54 	stmdbcs	r3, {r2, r4, r6, r9, fp, lr}
     c88:	bb34324a 	bllt	d0d5b8 <__bss_end__+0xd036a8>
     c8c:	01040200 	mrseq	r0, R12_usr
     c90:	08064a06 	stmdaeq	r6, {r1, r2, r9, fp, lr}
     c94:	bb4b4e21 	bllt	12d4520 <__bss_end__+0x12ca610>
     c98:	0402002c 	streq	r0, [r2], #-44	; 0x2c
     c9c:	062e0601 	strteq	r0, [lr], -r1, lsl #12
     ca0:	a0dc4c6d 	sbcsge	r4, ip, sp, ror #24
     ca4:	01040200 	mrseq	r0, R12_usr
     ca8:	08064a06 	stmdaeq	r6, {r1, r2, r9, fp, lr}
     cac:	02004d21 	andeq	r4, r0, #2112	; 0x840
     cb0:	004b0204 	subeq	r0, fp, r4, lsl #4
     cb4:	81020402 	tsthi	r2, r2, lsl #8
     cb8:	01040200 	mrseq	r0, R12_usr
     cbc:	4d062e06 	stcmi	14, cr2, [r6, #-24]	; 0xffffffe8
     cc0:	4bd8dd4c 	blmi	ff6381f8 <__bss_end__+0xff62e2e8>
     cc4:	2f6a4b4b 	svccs	0x006a4b4b
     cc8:	01040200 	mrseq	r0, R12_usr
     ccc:	00828206 	addeq	r8, r2, r6, lsl #4
     cd0:	9e040402 	cdpls	4, 0, cr0, cr4, cr2, {0}
     cd4:	01040200 	mrseq	r0, R12_usr
     cd8:	2308064a 	movwcs	r0, #34378	; 0x864a
     cdc:	4b2ff588 	blmi	bfe304 <__bss_end__+0xbf43f4>
     ce0:	6740084b 	strbvs	r0, [r0, -fp, asr #16]
     ce4:	02040200 	andeq	r0, r4, #0, 4
     ce8:	0402002f 	streq	r0, [r2], #-47	; 0x2f
     cec:	02004902 	andeq	r4, r0, #32768	; 0x8000
     cf0:	2e060104 	adfcss	f0, f6, f4
     cf4:	86346806 	ldrthi	r6, [r4], -r6, lsl #16
     cf8:	0200a04b 	andeq	sl, r0, #75	; 0x4b
     cfc:	66060104 	strvs	r0, [r6], -r4, lsl #2
     d00:	68210806 	stmdavs	r1!, {r1, r2, fp}
     d04:	674b3e08 	strbvs	r3, [fp, -r8, lsl #28]
     d08:	0a02d84b 	beq	b6e3c <__bss_end__+0xacf2c>
     d0c:	01010100 	mrseq	r0, (UNDEF: 17)
     d10:	02000001 	andeq	r0, r0, #1
     d14:	0000ca00 	andeq	ip, r0, r0, lsl #20
     d18:	fb010200 	blx	41522 <__bss_end__+0x37612>
     d1c:	01000d0e 	tsteq	r0, lr, lsl #26
     d20:	00010101 	andeq	r0, r1, r1, lsl #2
     d24:	00010000 	andeq	r0, r1, r0
     d28:	796d0100 	stmdbvc	sp!, {r8}^
     d2c:	6372732d 	cmnvs	r2, #-1275068416	; 0xb4000000
     d30:	73552f00 	cmpvc	r5, #0, 30
     d34:	2f737265 	svccs	0x00737265
     d38:	61697262 	cmnvs	r9, r2, ror #4
     d3c:	6e756a6e 	vsubvs.f32	s13, s10, s29
     d40:	7365442f 	cmnvc	r5, #788529152	; 0x2f000000
     d44:	706f746b 	rsbvc	r7, pc, fp, ror #8
     d48:	6863732f 	stmdavs	r3!, {r0, r1, r2, r3, r5, r8, r9, ip, sp, lr}^
     d4c:	2f6c6f6f 	svccs	0x006c6f6f
     d50:	746e6957 	strbtvc	r6, [lr], #-2391	; 0x957
     d54:	39317265 	ldmdbcc	r1!, {r0, r2, r5, r6, r9, ip, sp, lr}
     d58:	432f3032 	teqmi	pc, #50	; 0x32
     d5c:	30343153 	eorscc	r3, r4, r3, asr r1
     d60:	73632f45 	cmnvc	r3, #276	; 0x114
     d64:	65303431 	ldrvs	r3, [r0, #-1073]!	; 0x431
     d68:	7730322d 	ldrvc	r3, [r0, -sp, lsr #4]!
     d6c:	6c2f6e69 	stcvs	14, cr6, [pc], #-420	; bd0 <_start-0x7430>
     d70:	69706269 	ldmdbvs	r0!, {r0, r3, r5, r6, r9, sp, lr}^
     d74:	3173632f 	cmncc	r3, pc, lsr #6
     d78:	2d653034 	stclcs	0, cr3, [r5, #-208]!	; 0xffffff30
     d7c:	00637273 	rsbeq	r7, r3, r3, ror r2
     d80:	6573552f 	ldrbvs	r5, [r3, #-1327]!	; 0x52f
     d84:	622f7372 	eorvs	r7, pc, #-939524095	; 0xc8000001
     d88:	6e616972 	mcrvs	9, 3, r6, cr1, cr2, {3}
     d8c:	2f6e756a 	svccs	0x006e756a
     d90:	6b736544 	blvs	1cda2a8 <__bss_end__+0x1cd0398>
     d94:	2f706f74 	svccs	0x00706f74
     d98:	6f686373 	svcvs	0x00686373
     d9c:	572f6c6f 	strpl	r6, [pc, -pc, ror #24]!
     da0:	65746e69 	ldrbvs	r6, [r4, #-3689]!	; 0xe69
     da4:	32393172 	eorscc	r3, r9, #-2147483620	; 0x8000001c
     da8:	53432f30 	movtpl	r2, #16176	; 0x3f30
     dac:	45303431 	ldrmi	r3, [r0, #-1073]!	; 0x431
     db0:	3173632f 	cmncc	r3, pc, lsr #6
     db4:	2d653034 	stclcs	0, cr3, [r5, #-208]!	; 0xffffff30
     db8:	69773032 	ldmdbvs	r7!, {r1, r4, r5, ip, sp}^
     dbc:	696c2f6e 	stmdbvs	ip!, {r1, r2, r3, r5, r6, r8, r9, sl, fp, sp}^
     dc0:	00697062 	rsbeq	r7, r9, r2, rrx
     dc4:	72617500 	rsbvc	r7, r1, #0, 10
     dc8:	00632e74 	rsbeq	r2, r3, r4, ror lr
     dcc:	67000001 	strvs	r0, [r0, -r1]
     dd0:	2e6f6970 	mcrcs	9, 3, r6, cr15, cr0, {3}
     dd4:	00020068 	andeq	r0, r2, r8, rrx
     dd8:	69707200 	ldmdbvs	r0!, {r9, ip, sp, lr}^
     ddc:	0300682e 	movweq	r6, #2094	; 0x82e
     de0:	00000000 	andeq	r0, r0, r0
     de4:	95800205 	strls	r0, [r0, #517]	; 0x205
     de8:	36030000 	strcc	r0, [r3], -r0
     dec:	67333001 	ldrvs	r3, [r3, -r1]!
     df0:	30d8306d 	sbcscc	r3, r8, sp, rrx
     df4:	67676767 	strbvs	r6, [r7, -r7, ror #14]!
     df8:	2f866867 	svccs	0x00866867
     dfc:	67306a67 	ldrvs	r6, [r0, -r7, ror #20]!
     e00:	672f6967 	strvs	r6, [pc, -r7, ror #18]!
     e04:	c1674c6a 	cmngt	r7, sl, ror #24
     e08:	2f302f2f 	svccs	0x00302f2f
     e0c:	02304968 	eorseq	r4, r0, #104, 18	; 0x1a0000
     e10:	01010002 	tsteq	r1, r2
     e14:	00000128 	andeq	r0, r0, r8, lsr #2
     e18:	010d0002 	tsteq	sp, r2
     e1c:	01020000 	mrseq	r0, (UNDEF: 2)
     e20:	000d0efb 	strdeq	r0, [sp], -fp
     e24:	01010101 	tsteq	r1, r1, lsl #2
     e28:	01000000 	mrseq	r0, (UNDEF: 0)
     e2c:	63010000 	movwvs	r0, #4096	; 0x1000
     e30:	30343173 	eorscc	r3, r4, r3, ror r1
     e34:	72732d65 	rsbsvc	r2, r3, #6464	; 0x1940
     e38:	752f0063 	strvc	r0, [pc, #-99]!	; ddd <_start-0x7223>
     e3c:	6c2f7273 	sfmvs	f7, 4, [pc], #-460	; c78 <_start-0x7388>
     e40:	6c61636f 	stclvs	3, cr6, [r1], #-444	; 0xfffffe44
     e44:	6c65432f 	stclvs	3, cr4, [r5], #-188	; 0xffffff44
     e48:	2f72616c 	svccs	0x0072616c
     e4c:	2d6d7261 	sfmcs	f7, 2, [sp, #-388]!	; 0xfffffe7c
     e50:	656e6f6e 	strbvs	r6, [lr, #-3950]!	; 0xf6e
     e54:	6261652d 	rsbvs	r6, r1, #188743680	; 0xb400000
     e58:	2e342f69 	cdpcs	15, 3, cr2, cr4, cr9, {3}
     e5c:	2d332e38 	ldccs	14, cr2, [r3, #-224]!	; 0xffffff20
     e60:	37317363 	ldrcc	r7, [r1, -r3, ror #6]!
     e64:	6c2f6530 	cfstr32vs	mvfx6, [pc], #-192	; dac <_start-0x7254>
     e68:	672f6269 	strvs	r6, [pc, -r9, ror #4]!
     e6c:	612f6363 	teqvs	pc, r3, ror #6
     e70:	6e2d6d72 	mcrvs	13, 1, r6, cr13, cr2, {3}
     e74:	2d656e6f 	stclcs	14, cr6, [r5, #-444]!	; 0xfffffe44
     e78:	69626165 	stmdbvs	r2!, {r0, r2, r5, r6, r8, sp, lr}^
     e7c:	382e342f 	stmdacc	lr!, {r0, r1, r2, r3, r5, sl, ip, sp}
     e80:	692f332e 	stmdbvs	pc!, {r1, r2, r3, r5, r8, r9, ip, sp}	; <UNPREDICTABLE>
     e84:	756c636e 	strbvc	r6, [ip, #-878]!	; 0x36e
     e88:	2f006564 	svccs	0x00006564
     e8c:	2f727375 	svccs	0x00727375
     e90:	61636f6c 	cmnvs	r3, ip, ror #30
     e94:	65432f6c 	strbvs	r2, [r3, #-3948]	; 0xf6c
     e98:	72616c6c 	rsbvc	r6, r1, #108, 24	; 0x6c00
     e9c:	6d72612f 	ldfvse	f6, [r2, #-188]!	; 0xffffff44
     ea0:	6e6f6e2d 	cdpvs	14, 6, cr6, cr15, cr13, {1}
     ea4:	61652d65 	cmnvs	r5, r5, ror #26
     ea8:	342f6962 	strtcc	r6, [pc], #-2402	; eb0 <_start-0x7150>
     eac:	332e382e 	teqcc	lr, #3014656	; 0x2e0000
     eb0:	3173632d 	cmncc	r3, sp, lsr #6
     eb4:	2f653037 	svccs	0x00653037
     eb8:	2d6d7261 	sfmcs	f7, 2, [sp, #-388]!	; 0xfffffe7c
     ebc:	656e6f6e 	strbvs	r6, [lr, #-3950]!	; 0xf6e
     ec0:	6261652d 	rsbvs	r6, r1, #188743680	; 0xb400000
     ec4:	6e692f69 	cdpvs	15, 6, cr2, cr9, cr9, {3}
     ec8:	64756c63 	ldrbtvs	r6, [r5], #-3171	; 0xc63
     ecc:	63000065 	movwvs	r0, #101	; 0x65
     ed0:	72746e6f 	rsbsvc	r6, r4, #1776	; 0x6f0
     ed4:	622d6c6f 	eorvs	r6, sp, #28416	; 0x6f00
     ed8:	6b636f6c 	blvs	18dcc90 <__bss_end__+0x18d2d80>
     edc:	0100632e 	tsteq	r0, lr, lsr #6
     ee0:	74730000 	ldrbtvc	r0, [r3], #-0
     ee4:	66656464 	strbtvs	r6, [r5], -r4, ror #8
     ee8:	0200682e 	andeq	r6, r0, #3014656	; 0x2e0000
     eec:	74730000 	ldrbtvc	r0, [r3], #-0
     ef0:	746e6964 	strbtvc	r6, [lr], #-2404	; 0x964
     ef4:	6363672d 	cmnvs	r3, #11796480	; 0xb40000
     ef8:	0200682e 	andeq	r6, r0, #3014656	; 0x2e0000
     efc:	77730000 	ldrbvc	r0, [r3, -r0]!
     f00:	7261752d 	rsbvc	r7, r1, #188743680	; 0xb400000
     f04:	00682e74 	rsbeq	r2, r8, r4, ror lr
     f08:	63000001 	movwvs	r0, #1
     f0c:	72746e6f 	rsbsvc	r6, r4, #1776	; 0x6f0
     f10:	622d6c6f 	eorvs	r6, sp, #28416	; 0x6f00
     f14:	6b636f6c 	blvs	18dcccc <__bss_end__+0x18d2dbc>
     f18:	0100682e 	tsteq	r0, lr, lsr #16
     f1c:	74730000 	ldrbtvc	r0, [r3], #-0
     f20:	676e6972 			; <UNDEFINED> instruction: 0x676e6972
     f24:	0300682e 	movweq	r6, #2094	; 0x82e
     f28:	00000000 	andeq	r0, r0, r0
     f2c:	97380205 	ldrls	r0, [r8, -r5, lsl #4]!
     f30:	30160000 	andscc	r0, r6, r0
     f34:	144c6883 	strbne	r6, [ip], #-2179	; 0x883
     f38:	022f4b9f 	eoreq	r4, pc, #162816	; 0x27c00
     f3c:	01010004 	tsteq	r1, r4
     f40:	000000ec 	andeq	r0, r0, ip, ror #1
     f44:	00d00002 	sbcseq	r0, r0, r2
     f48:	01020000 	mrseq	r0, (UNDEF: 2)
     f4c:	000d0efb 	strdeq	r0, [sp], -fp
     f50:	01010101 	tsteq	r1, r1, lsl #2
     f54:	01000000 	mrseq	r0, (UNDEF: 0)
     f58:	6c010000 	stcvs	0, cr0, [r1], {-0}
     f5c:	00636269 	rsbeq	r6, r3, r9, ror #4
     f60:	7273752f 	rsbsvc	r7, r3, #197132288	; 0xbc00000
     f64:	636f6c2f 	cmnvs	pc, #12032	; 0x2f00
     f68:	432f6c61 	teqmi	pc, #24832	; 0x6100
     f6c:	616c6c65 	cmnvs	ip, r5, ror #24
     f70:	72612f72 	rsbvc	r2, r1, #456	; 0x1c8
     f74:	6f6e2d6d 	svcvs	0x006e2d6d
     f78:	652d656e 	strvs	r6, [sp, #-1390]!	; 0x56e
     f7c:	2f696261 	svccs	0x00696261
     f80:	2e382e34 	mrccs	14, 1, r2, cr8, cr4, {1}
     f84:	73632d33 	cmnvc	r3, #3264	; 0xcc0
     f88:	65303731 	ldrvs	r3, [r0, #-1841]!	; 0x731
     f8c:	62696c2f 	rsbvs	r6, r9, #12032	; 0x2f00
     f90:	6363672f 	cmnvs	r3, #12320768	; 0xbc0000
     f94:	6d72612f 	ldfvse	f6, [r2, #-188]!	; 0xffffff44
     f98:	6e6f6e2d 	cdpvs	14, 6, cr6, cr15, cr13, {1}
     f9c:	61652d65 	cmnvs	r5, r5, ror #26
     fa0:	342f6962 	strtcc	r6, [pc], #-2402	; fa8 <_start-0x7058>
     fa4:	332e382e 	teqcc	lr, #3014656	; 0x2e0000
     fa8:	636e692f 	cmnvs	lr, #770048	; 0xbc000
     fac:	6564756c 	strbvs	r7, [r4, #-1388]!	; 0x56c
     fb0:	73752f00 	cmnvc	r5, #0, 30
     fb4:	6f6c2f72 	svcvs	0x006c2f72
     fb8:	2f6c6163 	svccs	0x006c6163
     fbc:	6c6c6543 	cfstr64vs	mvdx6, [ip], #-268	; 0xfffffef4
     fc0:	612f7261 	teqvs	pc, r1, ror #4
     fc4:	6e2d6d72 	mcrvs	13, 1, r6, cr13, cr2, {3}
     fc8:	2d656e6f 	stclcs	14, cr6, [r5, #-444]!	; 0xfffffe44
     fcc:	69626165 	stmdbvs	r2!, {r0, r2, r5, r6, r8, sp, lr}^
     fd0:	382e342f 	stmdacc	lr!, {r0, r1, r2, r3, r5, sl, ip, sp}
     fd4:	632d332e 	teqvs	sp, #-1207959552	; 0xb8000000
     fd8:	30373173 	eorscc	r3, r7, r3, ror r1
     fdc:	72612f65 	rsbvc	r2, r1, #404	; 0x194
     fe0:	6f6e2d6d 	svcvs	0x006e2d6d
     fe4:	652d656e 	strvs	r6, [sp, #-1390]!	; 0x56e
     fe8:	2f696261 	svccs	0x00696261
     fec:	6c636e69 	stclvs	14, cr6, [r3], #-420	; 0xfffffe5c
     ff0:	00656475 	rsbeq	r6, r5, r5, ror r4
     ff4:	6d656d00 	stclvs	13, cr6, [r5, #-0]
     ff8:	2e746573 	mrccs	5, 3, r6, cr4, cr3, {3}
     ffc:	00010063 	andeq	r0, r1, r3, rrx
    1000:	64747300 	ldrbtvs	r7, [r4], #-768	; 0x300
    1004:	2e666564 	cdpcs	5, 6, cr6, cr6, cr4, {3}
    1008:	00020068 	andeq	r0, r2, r8, rrx
    100c:	72747300 	rsbsvc	r7, r4, #0, 6
    1010:	2e676e69 	cdpcs	14, 6, cr6, cr7, cr9, {3}
    1014:	00030068 	andeq	r0, r3, r8, rrx
    1018:	05000000 	streq	r0, [r0, #-0]
    101c:	00978802 	addseq	r8, r7, r2, lsl #16
    1020:	4c131400 	cfldrsmi	mvf1, [r3], {-0}
    1024:	0402002f 	streq	r0, [r2], #-47	; 0x2f
    1028:	024d4901 	subeq	r4, sp, #16384	; 0x4000
    102c:	01010002 	tsteq	r1, r2

Disassembly of section .debug_str:

00000000 <.debug_str>:
   0:	5f6d756e 	svcpl	0x006d756e
   4:	706d6173 	rsbvc	r6, sp, r3, ror r1
   8:	0073656c 	rsbseq	r6, r3, ip, ror #10
   c:	5f78616d 	svcpl	0x0078616d
  10:	6c637963 	stclvs	9, cr7, [r3], #-396	; 0xfffffe74
  14:	70007365 	andvc	r7, r0, r5, ror #6
  18:	6f697265 	svcvs	0x00697265
  1c:	552f0064 	strpl	r0, [pc, #-100]!	; ffffffc0 <__bss_end__+0xffff60b0>
  20:	73726573 	cmnvc	r2, #482344960	; 0x1cc00000
  24:	6972622f 	ldmdbvs	r2!, {r0, r1, r2, r3, r5, r9, sp, lr}^
  28:	756a6e61 	strbvc	r6, [sl, #-3681]!	; 0xe61
  2c:	65442f6e 	strbvs	r2, [r4, #-3950]	; 0xf6e
  30:	6f746b73 	svcvs	0x00746b73
  34:	63732f70 	cmnvs	r3, #112, 30	; 0x1c0
  38:	6c6f6f68 	stclvs	15, cr6, [pc], #-416	; fffffea0 <__bss_end__+0xffff5f90>
  3c:	7270532f 	rsbsvc	r5, r0, #-1140850688	; 0xbc000000
  40:	31676e69 	cmncc	r7, r9, ror #28
  44:	2f303239 	svccs	0x00303239
  48:	34325343 	ldrtcc	r5, [r2], #-835	; 0x343
  4c:	2f584c30 	svccs	0x00584c30
  50:	34327363 	ldrtcc	r7, [r2], #-867	; 0x363
  54:	2d786c30 	ldclcs	12, cr6, [r8, #-192]!	; 0xffffff40
  58:	70733032 	rsbsvc	r3, r3, r2, lsr r0
  5c:	616c2f72 	smcvs	49906	; 0xc2f2
  60:	332f7362 	teqcc	pc, #-2013265919	; 0x88000001
  64:	676f6c2d 	strbvs	r6, [pc, -sp, lsr #24]!
  68:	612d6369 	teqvs	sp, r9, ror #6
  6c:	796c616e 	stmdbvc	ip!, {r1, r2, r3, r5, r6, r8, sp, lr}^
  70:	2f72657a 	svccs	0x0072657a
  74:	65646f63 	strbvs	r6, [r4, #-3939]!	; 0xf63
  78:	6f63732f 	svcvs	0x0063732f
  7c:	66006570 			; <UNDEFINED> instruction: 0x66006570
  80:	74737269 	ldrbtvc	r7, [r3], #-617	; 0x269
  84:	69706700 	ldmdbvs	r0!, {r8, r9, sl, sp, lr}^
  88:	65725f6f 	ldrbvs	r5, [r2, #-3951]!	; 0xf6f
  8c:	6e006461 	cdpvs	4, 0, cr6, cr0, cr1, {3}
  90:	616d746f 	cmnvs	sp, pc, ror #8
  94:	6c006e69 	stcvs	14, cr6, [r0], {105}	; 0x69
  98:	00747361 	rsbseq	r7, r4, r1, ror #6
  9c:	61656c63 	cmnvs	r5, r3, ror #24
  a0:	65725f6e 	ldrbvs	r5, [r2, #-3950]!	; 0xf6e
  a4:	746f6f62 	strbtvc	r6, [pc], #-3938	; ac <_start-0x7f54>
  a8:	6f687300 	svcvs	0x00687300
  ac:	75207472 	strvc	r7, [r0, #-1138]!	; 0x472
  b0:	6769736e 	strbvs	r7, [r9, -lr, ror #6]!
  b4:	2064656e 	rsbcs	r6, r4, lr, ror #10
  b8:	00746e69 	rsbseq	r6, r4, r9, ror #28
  bc:	6f697067 	svcvs	0x00697067
  c0:	7465735f 	strbtvc	r7, [r5], #-863	; 0x35f
  c4:	706e695f 	rsbvc	r6, lr, pc, asr r9
  c8:	75007475 	strvc	r7, [r0, #-1141]	; 0x475
  cc:	6769736e 	strbvs	r7, [r9, -lr, ror #6]!
  d0:	2064656e 	rsbcs	r6, r4, lr, ror #10
  d4:	72616863 	rsbvc	r6, r1, #6488064	; 0x630000
  d8:	6c656400 	cfstrdvs	mvd6, [r5], #-0
  dc:	6d5f7961 	ldclvs	9, cr7, [pc, #-388]	; ffffff60 <__bss_end__+0xffff6050>
  e0:	75630073 	strbvc	r0, [r3, #-115]!	; 0x73
  e4:	725f7272 	subsvc	r7, pc, #536870919	; 0x20000007
  e8:	00646165 	rsbeq	r6, r4, r5, ror #2
  ec:	706d7564 	rsbvc	r7, sp, r4, ror #10
  f0:	6d61735f 	stclvs	3, cr7, [r1, #-380]!	; 0xfffffe84
  f4:	73656c70 	cmnvc	r5, #112, 24	; 0x7000
  f8:	465f5f00 	ldrbmi	r5, [pc], -r0, lsl #30
  fc:	54434e55 	strbpl	r4, [r3], #-3669	; 0xe55
 100:	5f4e4f49 	svcpl	0x004e4f49
 104:	6373005f 	cmnvs	r3, #95	; 0x5f
 108:	2e65706f 	cdpcs	0, 6, cr7, cr5, cr15, {3}
 10c:	79630063 	stmdbvc	r3!, {r0, r1, r5, r6}^
 110:	73656c63 	cmnvc	r5, #25344	; 0x6300
 114:	7265705f 	rsbvc	r7, r5, #95	; 0x5f
 118:	6365735f 	cmnvs	r5, #2080374785	; 0x7c000001
 11c:	6e6f6c00 	cdpvs	12, 6, cr6, cr15, cr0, {0}
 120:	6f6c2067 	svcvs	0x006c2067
 124:	7520676e 	strvc	r6, [r0, #-1902]!	; 0x76e
 128:	6769736e 	strbvs	r7, [r9, -lr, ror #6]!
 12c:	2064656e 	rsbcs	r6, r4, lr, ror #10
 130:	00746e69 	rsbseq	r6, r4, r9, ror #28
 134:	65736162 	ldrbvs	r6, [r3, #-354]!	; 0x162
 138:	656e696c 	strbvs	r6, [lr, #-2412]!	; 0x96c
 13c:	6165725f 	cmnvs	r5, pc, asr r2
 140:	69730064 	ldmdbvs	r3!, {r2, r5, r6}^
 144:	7974657a 	ldmdbvc	r4!, {r1, r3, r4, r5, r6, r8, sl, sp, lr}^
 148:	6e006570 	cfrshl64vs	mvdx0, mvdx0, r6
 14c:	635f6d75 	cmpvs	pc, #7488	; 0x1d40
 150:	656c6379 	strbvs	r6, [ip, #-889]!	; 0x379
 154:	6f6c0073 	svcvs	0x006c0073
 158:	6c20676e 	stcvs	7, cr6, [r0], #-440	; 0xfffffe48
 15c:	20676e6f 	rsbcs	r6, r7, pc, ror #28
 160:	00746e69 	rsbseq	r6, r4, r9, ror #28
 164:	74756f5f 	ldrbtvc	r6, [r5], #-3935	; 0xf5f
 168:	79636e00 	stmdbvc	r3!, {r9, sl, fp, sp, lr}^
 16c:	4e470063 	cdpmi	0, 4, cr0, cr7, cr3, {3}
 170:	20432055 	subcs	r2, r3, r5, asr r0
 174:	2e382e34 	mrccs	14, 1, r2, cr8, cr4, {1}
 178:	6d2d2033 	stcvs	0, cr2, [sp, #-204]!	; 0xffffff34
 17c:	3d757063 	ldclcc	0, cr7, [r5, #-396]!	; 0xfffffe74
 180:	316d7261 	cmncc	sp, r1, ror #4
 184:	6a363731 	bvs	d8de50 <__bss_end__+0xd83f40>
 188:	732d667a 	teqvc	sp, #127926272	; 0x7a00000
 18c:	746d2d20 	strbtvc	r2, [sp], #-3360	; 0xd20
 190:	3d656e75 	stclcc	14, cr6, [r5, #-468]!	; 0xfffffe2c
 194:	316d7261 	cmncc	sp, r1, ror #4
 198:	6a363731 	bvs	d8de64 <__bss_end__+0xd83f54>
 19c:	732d667a 	teqvc	sp, #127926272	; 0x7a00000
 1a0:	67672d20 	strbvs	r2, [r7, -r0, lsr #26]!
 1a4:	2d206264 	sfmcs	f6, 4, [r0, #-400]!	; 0xfffffe70
 1a8:	2d20334f 	stccs	3, cr3, [r0, #-316]!	; 0xfffffec4
 1ac:	3d647473 	cfstrdcc	mvd7, [r4, #-460]!	; 0xfffffe34
 1b0:	39756e67 	ldmdbcc	r5!, {r0, r1, r2, r5, r6, r9, sl, fp, sp, lr}^
 1b4:	662d2039 			; <UNDEFINED> instruction: 0x662d2039
 1b8:	65657266 	strbvs	r7, [r5, #-614]!	; 0x266
 1bc:	6e617473 	mcrvs	4, 3, r7, cr1, cr3, {3}
 1c0:	676e6964 	strbvs	r6, [lr, -r4, ror #18]!
 1c4:	6d5f6e00 	ldclvs	14, cr6, [pc, #-0]	; 1cc <_start-0x7e34>
 1c8:	73007861 	movwvc	r7, #2145	; 0x861
 1cc:	74726f68 	ldrbtvc	r6, [r2], #-3944	; 0xf68
 1d0:	746e6920 	strbtvc	r6, [lr], #-2336	; 0x920
 1d4:	72696600 	rsbvc	r6, r9, #0, 12
 1d8:	725f7473 	subsvc	r7, pc, #1929379840	; 0x73000000
 1dc:	00646165 	rsbeq	r6, r4, r5, ror #2
 1e0:	5f697072 	svcpl	0x00697072
 1e4:	65736572 	ldrbvs	r6, [r3, #-1394]!	; 0x572
 1e8:	75705f74 	ldrbvc	r5, [r0, #-3956]!	; 0xf74
 1ec:	6c006374 	stcvs	3, cr6, [r0], {116}	; 0x74
 1f0:	655f676f 	ldrbvs	r6, [pc, #-1903]	; fffffa89 <__bss_end__+0xffff5b79>
 1f4:	745f746e 	ldrbvc	r7, [pc], #-1134	; 1fc <_start-0x7e04>
 1f8:	746f7400 	strbtvc	r7, [pc], #-1024	; 200 <_start-0x7e00>
 1fc:	7272655f 	rsbsvc	r6, r2, #398458880	; 0x17c00000
 200:	675f5f00 	ldrbvs	r5, [pc, -r0, lsl #30]
 204:	5f63756e 	svcpl	0x0063756e
 208:	6c5f6176 	ldfvse	f6, [pc], {118}	; 0x76
 20c:	00747369 	rsbseq	r7, r4, r9, ror #6
 210:	6362696c 	cmnvs	r2, #108, 18	; 0x1b0000
 214:	6972702f 	ldmdbvs	r2!, {r0, r1, r2, r3, r5, ip, sp, lr}^
 218:	2e6b746e 	cdpcs	4, 6, cr7, cr11, cr14, {3}
 21c:	4e470063 	cdpmi	0, 4, cr0, cr7, cr3, {3}
 220:	20432055 	subcs	r2, r3, r5, asr r0
 224:	2e382e34 	mrccs	14, 1, r2, cr8, cr4, {1}
 228:	6d2d2033 	stcvs	0, cr2, [sp, #-204]!	; 0xffffff34
 22c:	3d757063 	ldclcc	0, cr7, [r5, #-396]!	; 0xfffffe74
 230:	316d7261 	cmncc	sp, r1, ror #4
 234:	6a363731 	bvs	d8df00 <__bss_end__+0xd83ff0>
 238:	732d667a 	teqvc	sp, #127926272	; 0x7a00000
 23c:	746d2d20 	strbtvc	r2, [sp], #-3360	; 0xd20
 240:	3d656e75 	stclcc	14, cr6, [r5, #-468]!	; 0xfffffe2c
 244:	316d7261 	cmncc	sp, r1, ror #4
 248:	6a363731 	bvs	d8df14 <__bss_end__+0xd84004>
 24c:	732d667a 	teqvc	sp, #127926272	; 0x7a00000
 250:	67672d20 	strbvs	r2, [r7, -r0, lsr #26]!
 254:	2d206264 	sfmcs	f6, 4, [r0, #-400]!	; 0xfffffe70
 258:	2d20674f 	stccs	7, cr6, [r0, #-316]!	; 0xfffffec4
 25c:	3d647473 	cfstrdcc	mvd7, [r4, #-460]!	; 0xfffffe34
 260:	39756e67 	ldmdbcc	r5!, {r0, r1, r2, r5, r6, r9, sl, fp, sp, lr}^
 264:	662d2039 			; <UNDEFINED> instruction: 0x662d2039
 268:	65657266 	strbvs	r7, [r5, #-614]!	; 0x266
 26c:	6e617473 	mcrvs	4, 3, r7, cr1, cr3, {3}
 270:	676e6964 	strbvs	r6, [lr, -r4, ror #18]!
 274:	5f617600 	svcpl	0x00617600
 278:	6e697270 	mcrvs	2, 3, r7, cr9, cr0, {3}
 27c:	5f006b74 	svcpl	0x00006b74
 280:	5f61765f 	svcpl	0x0061765f
 284:	7473696c 	ldrbtvc	r6, [r3], #-2412	; 0x96c
 288:	73552f00 	cmpvc	r5, #0, 30
 28c:	2f737265 	svccs	0x00737265
 290:	61697262 	cmnvs	r9, r2, ror #4
 294:	6e756a6e 	vsubvs.f32	s13, s10, s29
 298:	7365442f 	cmnvc	r5, #788529152	; 0x2f000000
 29c:	706f746b 	rsbvc	r7, pc, fp, ror #8
 2a0:	6863732f 	stmdavs	r3!, {r0, r1, r2, r3, r5, r8, r9, ip, sp, lr}^
 2a4:	2f6c6f6f 	svccs	0x006c6f6f
 2a8:	746e6957 	strbtvc	r6, [lr], #-2391	; 0x957
 2ac:	39317265 	ldmdbcc	r1!, {r0, r2, r5, r6, r9, ip, sp, lr}
 2b0:	432f3032 	teqmi	pc, #50	; 0x32
 2b4:	30343153 	eorscc	r3, r4, r3, asr r1
 2b8:	73632f45 	cmnvc	r3, #276	; 0x114
 2bc:	65303431 	ldrvs	r3, [r0, #-1073]!	; 0x431
 2c0:	7730322d 	ldrvc	r3, [r0, -sp, lsr #4]!
 2c4:	6c2f6e69 	stcvs	14, cr6, [pc], #-420	; 128 <_start-0x7ed8>
 2c8:	69706269 	ldmdbvs	r0!, {r0, r3, r5, r6, r9, sp, lr}^
 2cc:	67726100 	ldrbvs	r6, [r2, -r0, lsl #2]!
 2d0:	5f5f0073 	svcpl	0x005f0073
 2d4:	69007061 	stmdbvs	r0, {r0, r5, r6, ip, sp, lr}
 2d8:	7265746e 	rsbvc	r7, r5, #1845493760	; 0x6e000000
 2dc:	5f6c616e 	svcpl	0x006c616e
 2e0:	63747570 	cmnvs	r4, #112, 10	; 0x1c000000
 2e4:	00726168 	rsbseq	r6, r2, r8, ror #2
 2e8:	5f697072 	svcpl	0x00697072
 2ec:	63747570 	cmnvs	r4, #112, 10	; 0x1c000000
 2f0:	00726168 	rsbseq	r6, r2, r8, ror #2
 2f4:	6362696c 	cmnvs	r2, #108, 18	; 0x1b0000
 2f8:	7475702f 	ldrbtvc	r7, [r5], #-47	; 0x2f
 2fc:	72616863 	rsbvc	r6, r1, #6488064	; 0x630000
 300:	7200632e 	andvc	r6, r0, #-1207959552	; 0xb8000000
 304:	735f6970 	cmpvc	pc, #112, 18	; 0x1c0000
 308:	705f7465 	subsvc	r7, pc, r5, ror #8
 30c:	00637475 	rsbeq	r7, r3, r5, ror r4
 310:	6362696c 	cmnvs	r2, #108, 18	; 0x1b0000
 314:	7475702f 	ldrbtvc	r7, [r5], #-47	; 0x2f
 318:	00632e6b 	rsbeq	r2, r3, fp, ror #28
 31c:	65746e69 	ldrbvs	r6, [r4, #-3689]!	; 0xe69
 320:	6c616e72 	stclvs	14, cr6, [r1], #-456	; 0xfffffe38
 324:	7475705f 	ldrbtvc	r7, [r5], #-95	; 0x5f
 328:	656e006b 	strbvs	r0, [lr, #-107]!	; 0x6b
 32c:	00705f67 	rsbseq	r5, r0, r7, ror #30
 330:	65766572 	ldrbvs	r6, [r6, #-1394]!	; 0x572
 334:	00657372 	rsbeq	r7, r5, r2, ror r3
 338:	69647369 	stmdbvs	r4!, {r0, r3, r5, r6, r8, r9, ip, sp, lr}^
 33c:	00746967 	rsbseq	r6, r4, r7, ror #18
 340:	73747570 	cmnvc	r4, #112, 10	; 0x1c000000
 344:	0070665f 	rsbseq	r6, r0, pc, asr r6
 348:	65736162 	ldrbvs	r6, [r3, #-354]!	; 0x162
 34c:	67697300 	strbvs	r7, [r9, -r0, lsl #6]!
 350:	5f64656e 	svcpl	0x0064656e
 354:	696c0070 	stmdbvs	ip!, {r4, r5, r6}^
 358:	762f6362 	strtvc	r6, [pc], -r2, ror #6
 35c:	72702d61 	rsbsvc	r2, r0, #6208	; 0x1840
 360:	6b746e69 	blvs	1d1bd0c <__bss_end__+0x1d11dfc>
 364:	7200632e 	andvc	r6, r0, #-1207959552	; 0xb8000000
 368:	735f6970 	cmpvc	pc, #112, 18	; 0x1c0000
 36c:	6f5f7465 	svcvs	0x005f7465
 370:	75707475 	ldrbvc	r7, [r0, #-1141]!	; 0x475
 374:	69770074 	ldmdbvs	r7!, {r2, r4, r5, r6}^
 378:	00687464 	rsbeq	r7, r8, r4, ror #8
 37c:	63747570 	cmnvs	r4, #112, 10	; 0x1c000000
 380:	0070665f 	rsbseq	r6, r0, pc, asr r6
 384:	74696d65 	strbtvc	r6, [r9], #-3429	; 0xd65
 388:	69707200 	ldmdbvs	r0!, {r9, ip, sp, lr}^
 38c:	6265725f 	rsbvs	r7, r5, #-268435451	; 0xf0000005
 390:	00746f6f 	rsbseq	r6, r4, pc, ror #30
 394:	34317363 	ldrtcc	r7, [r1], #-867	; 0x363
 398:	732d6530 	teqvc	sp, #48, 10	; 0xc000000
 39c:	632f6372 	teqvs	pc, #-939524095	; 0xc8000001
 3a0:	6e61656c 	cdpvs	5, 6, cr6, cr1, cr12, {3}
 3a4:	6265722d 	rsbvs	r7, r5, #-805306366	; 0xd0000002
 3a8:	2e746f6f 	cdpcs	15, 7, cr6, cr4, cr15, {3}
 3ac:	6e690063 	cdpvs	0, 6, cr0, cr9, cr3, {3}
 3b0:	6e726574 	mrcvs	5, 3, r6, cr2, cr4, {3}
 3b4:	735f6c61 	cmpvc	pc, #24832	; 0x6100
 3b8:	75705f77 	ldrbvc	r5, [r0, #-3959]!	; 0xf77
 3bc:	61686374 	smcvs	34356	; 0x8634
 3c0:	5f5f0072 	svcpl	0x005f0072
 3c4:	5f737362 	svcpl	0x00737362
 3c8:	72617473 	rsbvc	r7, r1, #1929379840	; 0x73000000
 3cc:	005f5f74 	subseq	r5, pc, r4, ror pc	; <UNPREDICTABLE>
 3d0:	5f737362 	svcpl	0x00737362
 3d4:	00646e65 	rsbeq	r6, r4, r5, ror #28
 3d8:	6c637963 	stclvs	9, cr7, [r3], #-396	; 0xfffffe74
 3dc:	65705f65 	ldrbvs	r5, [r0, #-3941]!	; 0xf65
 3e0:	69625f72 	stmdbvs	r2!, {r1, r4, r5, r6, r8, r9, sl, fp, ip, lr}^
 3e4:	6f630074 	svcvs	0x00630074
 3e8:	6c6f736e 	stclvs	3, cr7, [pc], #-440	; 238 <_start-0x7dc8>
 3ec:	61755f65 	cmnvs	r5, r5, ror #30
 3f0:	73007472 	movwvc	r7, #1138	; 0x472
 3f4:	61755f77 	cmnvs	r5, r7, ror pc
 3f8:	705f7472 	subsvc	r7, pc, r2, ror r4	; <UNPREDICTABLE>
 3fc:	746e6972 	strbtvc	r6, [lr], #-2418	; 0x972
 400:	5550006b 	ldrbpl	r0, [r0, #-107]	; 0x6b
 404:	455f4354 	ldrbmi	r4, [pc, #-852]	; b8 <_start-0x7f48>
 408:	555f5053 	ldrbpl	r5, [pc, #-83]	; 3bd <_start-0x7c43>
 40c:	00545241 	subseq	r5, r4, r1, asr #4
 410:	755f7773 	ldrbvc	r7, [pc, #-1907]	; fffffca5 <__bss_end__+0xffff5d95>
 414:	5f747261 	svcpl	0x00747261
 418:	55500074 	ldrbpl	r0, [r0, #-116]	; 0x74
 41c:	535f4354 	cmppl	pc, #84, 6	; 0x50000001
 420:	41555f57 	cmpmi	r5, r7, asr pc
 424:	62005452 	andvs	r5, r0, #1375731712	; 0x52000000
 428:	00647561 	rsbeq	r7, r4, r1, ror #10
 42c:	43545550 	cmpmi	r4, #80, 10	; 0x14000000
 430:	5f57485f 	svcpl	0x0057485f
 434:	54524155 	ldrbpl	r4, [r2], #-341	; 0x155
 438:	73635f00 	cmnvc	r3, #0, 30
 43c:	74726174 	ldrbtvc	r6, [r2], #-372	; 0x174
 440:	72617500 	rsbvc	r7, r1, #0, 10
 444:	65645f74 	strbvs	r5, [r4, #-3956]!	; 0xf74
 448:	00745f76 	rsbseq	r5, r4, r6, ror pc
 44c:	755f7773 	ldrbvc	r7, [pc, #-1907]	; fffffce1 <__bss_end__+0xffff5dd1>
 450:	5f747261 	svcpl	0x00747261
 454:	63747570 	cmnvs	r4, #112, 10	; 0x1c000000
 458:	6e697500 	cdpvs	5, 6, cr7, cr9, cr0, {0}
 45c:	745f3874 	ldrbvc	r3, [pc], #-2164	; 464 <_start-0x7b9c>
 460:	6e6f6300 	cdpvs	3, 6, cr6, cr15, cr0, {0}
 464:	6c6f7274 	sfmvs	f7, 2, [pc], #-464	; 29c <_start-0x7d64>
 468:	6b6c625f 	blvs	1b18dec <__bss_end__+0x1b0eedc>
 46c:	7300745f 	movwvc	r7, #1119	; 0x45f
 470:	61755f77 	cmnvs	r5, r7, ror pc
 474:	63007472 	movwvs	r7, #1138	; 0x472
 478:	65675f62 	strbvs	r5, [r7, #-3938]!	; 0xf62
 47c:	6c625f74 	stclvs	15, cr5, [r2], #-464	; 0xfffffe30
 480:	006b636f 	rsbeq	r6, fp, pc, ror #6
 484:	73625f5f 	cmnvc	r2, #380	; 0x17c
 488:	6e655f73 	mcrvs	15, 3, r5, cr5, cr3, {3}
 48c:	005f5f64 	subseq	r5, pc, r4, ror #30
 490:	34317363 	ldrtcc	r7, [r1], #-867	; 0x363
 494:	732d6530 	teqvc	sp, #48, 10	; 0xc000000
 498:	632f6372 	teqvs	pc, #-939524095	; 0xc8000001
 49c:	72617473 	rsbvc	r7, r1, #1929379840	; 0x73000000
 4a0:	00632e74 	rsbeq	r2, r3, r4, ror lr
 4a4:	736e6f63 	cmnvc	lr, #396	; 0x18c
 4a8:	5f656c6f 	svcpl	0x00656c6f
 4ac:	00766564 	rsbseq	r6, r6, r4, ror #10
 4b0:	746e6975 	strbtvc	r6, [lr], #-2421	; 0x975
 4b4:	745f3233 	ldrbvc	r3, [pc], #-563	; 4bc <_start-0x7b44>
 4b8:	67616d00 	strbvs	r6, [r1, -r0, lsl #26]!
 4bc:	61006369 	tstvs	r0, r9, ror #6
 4c0:	73755f74 	cmnvc	r5, #116, 30	; 0x1d0
 4c4:	6c5f7265 	lfmvs	f7, 2, [pc], {101}	; 0x65
 4c8:	6c657665 	stclvs	6, cr7, [r5], #-404	; 0xfffffe6c
 4cc:	5f4d5000 	svcpl	0x004d5000
 4d0:	53534150 	cmppl	r3, #80, 2
 4d4:	44524f57 	ldrbmi	r4, [r2], #-3927	; 0xf57
 4d8:	31736300 	cmncc	r3, r0, lsl #6
 4dc:	2d653034 	stclcs	0, cr3, [r5, #-208]!	; 0xffffff30
 4e0:	2f637273 	svccs	0x00637273
 4e4:	6f626572 	svcvs	0x00626572
 4e8:	632e746f 	teqvs	lr, #1862270976	; 0x6f000000
 4ec:	5f4d5000 	svcpl	0x004d5000
 4f0:	43545352 	cmpmi	r4, #1207959553	; 0x48000001
 4f4:	4352575f 	cmpmi	r2, #24903680	; 0x17c0000
 4f8:	465f4746 	ldrbmi	r4, [pc], -r6, asr #14
 4fc:	5f4c4c55 	svcpl	0x004c4c55
 500:	45534552 	ldrbmi	r4, [r3, #-1362]	; 0x552
 504:	4d500054 	ldclmi	0, cr0, [r0, #-336]	; 0xfffffeb0
 508:	4f44575f 	svcmi	0x0044575f
 50c:	65730047 	ldrbvs	r0, [r3, #-71]!	; 0x47
 510:	73755f74 	cmnvc	r5, #116, 30	; 0x1d0
 514:	6c5f7265 	lfmvs	f7, 2, [pc], {101}	; 0x65
 518:	6c657665 	stclvs	6, cr7, [r5], #-404	; 0xfffffe6c
 51c:	54555000 	ldrbpl	r5, [r5], #-0
 520:	50003233 	andpl	r3, r0, r3, lsr r2
 524:	53525f4d 	cmppl	r2, #308	; 0x134
 528:	63004354 	movwvs	r4, #852	; 0x354
 52c:	00727370 	rsbseq	r7, r2, r0, ror r3
 530:	656d6974 	strbvs	r6, [sp, #-2420]!	; 0x974
 534:	65675f72 	strbvs	r5, [r7, #-3954]!	; 0xf72
 538:	73755f74 	cmnvc	r5, #116, 30	; 0x1d0
 53c:	725f6365 	subsvc	r6, pc, #-1811939327	; 0x94000001
 540:	64007761 	strvs	r7, [r0], #-1889	; 0x761
 544:	79616c65 	stmdbvc	r1!, {r0, r2, r5, r6, sl, fp, sp, lr}^
 548:	6365735f 	cmnvs	r5, #2080374785	; 0x7c000001
 54c:	31736300 	cmncc	r3, r0, lsl #6
 550:	2d653034 	stclcs	0, cr3, [r5, #-208]!	; 0xffffff30
 554:	2f637273 	svccs	0x00637273
 558:	656d6974 	strbvs	r6, [sp, #-2420]!	; 0x974
 55c:	00632e72 	rsbeq	r2, r3, r2, ror lr
 560:	33544547 	cmpcc	r4, #297795584	; 0x11c00000
 564:	69740032 	ldmdbvs	r4!, {r1, r4, r5}^
 568:	00736b63 	rsbseq	r6, r3, r3, ror #22
 56c:	616c6564 	cmnvs	ip, r4, ror #10
 570:	79635f79 	stmdbvc	r3!, {r0, r3, r4, r5, r6, r8, r9, sl, fp, ip, lr}^
 574:	73656c63 	cmnvc	r5, #25344	; 0x6300
 578:	6c656400 	cfstrdvs	mvd6, [r5], #-0
 57c:	755f7961 	ldrbvc	r7, [pc, #-2401]	; fffffc23 <__bss_end__+0xffff5d13>
 580:	69740073 	ldmdbvs	r4!, {r0, r1, r4, r5, r6}^
 584:	5f72656d 	svcpl	0x0072656d
 588:	5f746567 	svcpl	0x00746567
 58c:	63657375 	cmnvs	r5, #-738197503	; 0xd4000001
 590:	69706700 	ldmdbvs	r0!, {r8, r9, sl, sp, lr}^
 594:	76655f6f 	strbtvc	r5, [r5], -pc, ror #30
 598:	5f746e65 	svcpl	0x00746e65
 59c:	65746564 	ldrbvs	r6, [r4, #-1380]!	; 0x564
 5a0:	64657463 	strbtvs	r7, [r5], #-1123	; 0x463
 5a4:	74757000 	ldrbtvc	r7, [r5], #-0
 5a8:	47003233 	smladxmi	r0, r3, r2, r3
 5ac:	45534650 	ldrbmi	r4, [r3, #-1616]	; 0x650
 5b0:	4700324c 	strmi	r3, [r0, -ip, asr #4]
 5b4:	524c4350 	subpl	r4, ip, #80, 6	; 0x40000001
 5b8:	4e450030 	mcrmi	0, 2, r0, cr5, cr0, {1}
 5bc:	454c4241 	strbmi	r4, [ip, #-577]	; 0x241
 5c0:	5152495f 	cmppl	r2, pc, asr r9
 5c4:	00325f53 	eorseq	r5, r2, r3, asr pc
 5c8:	675f7369 	ldrbvs	r7, [pc, -r9, ror #6]
 5cc:	5f6f6970 	svcpl	0x006f6970
 5d0:	00746e69 	rsbseq	r6, r4, r9, ror #28
 5d4:	4f495047 	svcmi	0x00495047
 5d8:	4e55465f 	mrcmi	6, 2, r4, cr5, cr15, {2}
 5dc:	4e495f43 	cdpmi	15, 4, cr5, cr9, cr3, {2}
 5e0:	00545550 	subseq	r5, r4, r0, asr r5
 5e4:	6f697067 	svcvs	0x00697067
 5e8:	7465735f 	strbtvc	r7, [r5], #-863	; 0x35f
 5ec:	66666f5f 	uqsaxvs	r6, r6, pc	; <UNPREDICTABLE>
 5f0:	2d796d00 	ldclcs	13, cr6, [r9, #-0]
 5f4:	2f637273 	svccs	0x00637273
 5f8:	6f697067 	svcvs	0x00697067
 5fc:	6900632e 	stmdbvs	r0, {r1, r2, r3, r5, r8, r9, sp, lr}
 600:	6d5f746e 	cfldrdvs	mvd7, [pc, #-440]	; 450 <_start-0x7bb0>
 604:	006b7361 	rsbeq	r7, fp, r1, ror #6
 608:	45535047 	ldrbmi	r5, [r3, #-71]	; 0x47
 60c:	47003054 	smlsdmi	r0, r4, r0, r3
 610:	54455350 	strbpl	r5, [r5], #-848	; 0x350
 614:	65720031 	ldrbvs	r0, [r2, #-49]!	; 0x31
 618:	74735f67 	ldrbtvc	r5, [r3], #-3943	; 0xf67
 61c:	47007461 	strmi	r7, [r0, -r1, ror #8]
 620:	56454c50 			; <UNDEFINED> instruction: 0x56454c50
 624:	50470030 	subpl	r0, r7, r0, lsr r0
 628:	3156454c 	cmpcc	r6, ip, asr #10
 62c:	69706700 	ldmdbvs	r0!, {r8, r9, sl, sp, lr}^
 630:	65725f6f 	ldrbvs	r5, [r2, #-3951]!	; 0xf6f
 634:	50470067 	subpl	r0, r7, r7, rrx
 638:	4c455346 	mcrrmi	3, 4, r5, r5, cr6
 63c:	50470030 	subpl	r0, r7, r0, lsr r0
 640:	4c455346 	mcrrmi	3, 4, r5, r5, cr6
 644:	50470031 	subpl	r0, r7, r1, lsr r0
 648:	4c455346 	mcrrmi	3, 4, r5, r5, cr6
 64c:	50470033 	subpl	r0, r7, r3, lsr r0
 650:	4c455346 	mcrrmi	3, 4, r5, r5, cr6
 654:	50470034 	subpl	r0, r7, r4, lsr r0
 658:	4c455346 	mcrrmi	3, 4, r5, r5, cr6
 65c:	65640035 	strbvs	r0, [r4, #-53]!	; 0x35
 660:	61625f76 	smcvs	9718	; 0x25f6
 664:	65697272 	strbvs	r7, [r9, #-626]!	; 0x272
 668:	70670072 	rsbvc	r0, r7, r2, ror r0
 66c:	665f6f69 	ldrbvs	r6, [pc], -r9, ror #30
 670:	306c6573 	rsbcc	r6, ip, r3, ror r5
 674:	43504700 	cmpmi	r0, #0, 14
 678:	0031524c 	eorseq	r5, r1, ip, asr #4
 67c:	6f697067 	svcvs	0x00697067
 680:	746e695f 	strbtvc	r6, [lr], #-2399	; 0x95f
 684:	7369725f 	cmnvc	r9, #-268435451	; 0xf0000005
 688:	5f676e69 	svcpl	0x00676e69
 68c:	65676465 	strbvs	r6, [r7, #-1125]!	; 0x465
 690:	69706700 	ldmdbvs	r0!, {r8, r9, sl, sp, lr}^
 694:	65735f6f 	ldrbvs	r5, [r3, #-3951]!	; 0xf6f
 698:	75665f74 	strbvc	r5, [r6, #-3956]!	; 0xf74
 69c:	6974636e 	ldmdbvs	r4!, {r1, r2, r3, r5, r6, r8, r9, sp, lr}^
 6a0:	47006e6f 	strmi	r6, [r0, -pc, ror #28]
 6a4:	4e455250 	mcrmi	2, 2, r5, cr5, cr0, {2}
 6a8:	50470030 	subpl	r0, r7, r0, lsr r0
 6ac:	314e4552 	cmpcc	lr, r2, asr r5
 6b0:	69706700 	ldmdbvs	r0!, {r8, r9, sl, sp, lr}^
 6b4:	76655f6f 	strbtvc	r5, [r5], -pc, ror #30
 6b8:	5f746e65 	svcpl	0x00746e65
 6bc:	61656c63 	cmnvs	r5, r3, ror #24
 6c0:	52490072 	subpl	r0, r9, #114	; 0x72
 6c4:	45505f51 	ldrbmi	r5, [r0, #-3921]	; 0xf51
 6c8:	4e49444e 	cdpmi	4, 4, cr4, cr9, cr14, {2}
 6cc:	00315f47 	eorseq	r5, r1, r7, asr #30
 6d0:	5f515249 	svcpl	0x00515249
 6d4:	444e4550 	strbmi	r4, [lr], #-1360	; 0x550
 6d8:	5f474e49 	svcpl	0x00474e49
 6dc:	69620032 	stmdbvs	r2!, {r1, r4, r5}^
 6e0:	73616d74 	cmnvc	r1, #116, 26	; 0x1d00
 6e4:	7067006b 	rsbvc	r0, r7, fp, rrx
 6e8:	775f6f69 	ldrbvc	r6, [pc, -r9, ror #30]
 6ec:	65746972 	ldrbvs	r6, [r4, #-2418]!	; 0x972
 6f0:	69706700 	ldmdbvs	r0!, {r8, r9, sl, sp, lr}^
 6f4:	65735f6f 	ldrbvs	r5, [r3, #-3951]!	; 0xf6f
 6f8:	66003074 			; <UNDEFINED> instruction: 0x66003074
 6fc:	00636e75 	rsbeq	r6, r3, r5, ror lr
 700:	6f697067 	svcvs	0x00697067
 704:	676f745f 			; <UNDEFINED> instruction: 0x676f745f
 708:	00656c67 	rsbeq	r6, r5, r7, ror #24
 70c:	44455047 	strbmi	r5, [r5], #-71	; 0x47
 710:	47003053 	smlsdmi	r0, r3, r0, r3
 714:	53444550 	movtpl	r4, #17744	; 0x4550
 718:	70670031 	rsbvc	r0, r7, r1, lsr r0
 71c:	735f6f69 	cmpvc	pc, #420	; 0x1a4
 720:	6f5f7465 	svcvs	0x005f7465
 724:	5047006e 	subpl	r0, r7, lr, rrx
 728:	304e4546 	subcc	r4, lr, r6, asr #10
 72c:	46504700 	ldrbmi	r4, [r0], -r0, lsl #14
 730:	00314e45 	eorseq	r4, r1, r5, asr #28
 734:	6f697067 	svcvs	0x00697067
 738:	7465735f 	strbtvc	r7, [r5], #-863	; 0x35f
 73c:	74756f5f 	ldrbtvc	r6, [r5], #-3935	; 0xf5f
 740:	00747570 	rsbseq	r7, r4, r0, ror r5
 744:	4f495047 	svcmi	0x00495047
 748:	4e55465f 	mrcmi	6, 2, r4, cr5, cr15, {2}
 74c:	554f5f43 	strbpl	r5, [pc, #-3907]	; fffff811 <__bss_end__+0xffff5901>
 750:	54555054 	ldrbpl	r5, [r5], #-84	; 0x54
 754:	74656700 	strbtvc	r6, [r5], #-1792	; 0x700
 758:	67003233 	smladxvs	r0, r3, r2, r3
 75c:	5f6f6970 	svcpl	0x006f6970
 760:	5f746e69 	svcpl	0x00746e69
 764:	6c6c6166 	stfvse	f6, [ip], #-408	; 0xfffffe68
 768:	5f676e69 	svcpl	0x00676e69
 76c:	65676465 	strbvs	r6, [r7, #-1125]!	; 0x465
 770:	69706700 	ldmdbvs	r0!, {r8, r9, sl, sp, lr}^
 774:	75665f6f 	strbvc	r5, [r6, #-3951]!	; 0xf6f
 778:	745f636e 	ldrbvc	r6, [pc], #-878	; 780 <_start-0x7880>
 77c:	49504700 	ldmdbmi	r0, {r8, r9, sl, lr}^
 780:	55465f4f 	strbpl	r5, [r6, #-3919]	; 0xf4f
 784:	415f434e 	cmpmi	pc, lr, asr #6
 788:	0030544c 	eorseq	r5, r0, ip, asr #8
 78c:	4f495047 	svcmi	0x00495047
 790:	4e55465f 	mrcmi	6, 2, r4, cr5, cr15, {2}
 794:	4c415f43 	mcrrmi	15, 4, r5, r1, cr3
 798:	47003154 	smlsdmi	r0, r4, r1, r3
 79c:	5f4f4950 	svcpl	0x004f4950
 7a0:	434e5546 	movtmi	r5, #58694	; 0xe546
 7a4:	544c415f 	strbpl	r4, [ip], #-351	; 0x15f
 7a8:	50470032 	subpl	r0, r7, r2, lsr r0
 7ac:	465f4f49 	ldrbmi	r4, [pc], -r9, asr #30
 7b0:	5f434e55 	svcpl	0x00434e55
 7b4:	33544c41 	cmpcc	r4, #16640	; 0x4100
 7b8:	49504700 	ldmdbmi	r0, {r8, r9, sl, lr}^
 7bc:	55465f4f 	strbpl	r5, [r6, #-3919]	; 0xf4f
 7c0:	415f434e 	cmpmi	pc, lr, asr #6
 7c4:	0034544c 	eorseq	r5, r4, ip, asr #8
 7c8:	4f495047 	svcmi	0x00495047
 7cc:	4e55465f 	mrcmi	6, 2, r4, cr5, cr15, {2}
 7d0:	4c415f43 	mcrrmi	15, 4, r5, r1, cr3
 7d4:	72003554 	andvc	r3, r0, #84, 10	; 0x15000000
 7d8:	735f6765 	cmpvc	pc, #26476544	; 0x1940000
 7dc:	63656c65 	cmnvs	r5, #25856	; 0x6500
 7e0:	70670074 	rsbvc	r0, r7, r4, ror r0
 7e4:	635f6f69 	cmpvs	pc, #420	; 0x1a4
 7e8:	0030726c 	eorseq	r7, r0, ip, ror #4
 7ec:	5f637963 	svcpl	0x00637963
 7f0:	5f726570 	svcpl	0x00726570
 7f4:	00746962 	rsbseq	r6, r4, r2, ror #18
 7f8:	74697277 	strbtvc	r7, [r9], #-631	; 0x277
 7fc:	79635f65 	stmdbvc	r3!, {r0, r2, r5, r6, r8, r9, sl, fp, ip, lr}^
 800:	6e755f63 	cdpvs	15, 7, cr5, cr5, cr3, {3}
 804:	006c6974 	rsbeq	r6, ip, r4, ror r9
 808:	755f7773 	ldrbvc	r7, [pc, #-1907]	; 9d <_start-0x7f63>
 80c:	5f747261 	svcpl	0x00747261
 810:	63746567 	cmnvs	r4, #432013312	; 0x19c00000
 814:	6d69745f 	cfstrdvs	mvd7, [r9, #-380]!	; 0xfffffe84
 818:	74756f65 	ldrbtvc	r6, [r5], #-3941	; 0xf65
 81c:	5f777300 	svcpl	0x00777300
 820:	74726175 	ldrbtvc	r6, [r2], #-373	; 0x175
 824:	7465675f 	strbtvc	r6, [r5], #-1887	; 0x75f
 828:	6e755f73 	mrcvs	15, 3, r5, cr5, cr3, {3}
 82c:	006c6974 	rsbeq	r6, ip, r4, ror r9
 830:	755f7773 	ldrbvc	r7, [pc, #-1907]	; c5 <_start-0x7f3b>
 834:	5f747261 	svcpl	0x00747261
 838:	63746567 	cmnvs	r4, #432013312	; 0x19c00000
 83c:	72656400 	rsbvc	r6, r5, #0, 8
 840:	64657669 	strbtvs	r7, [r5], #-1641	; 0x669
 844:	6c656400 	cfstrdvs	mvd6, [r5], #-0
 848:	6e5f7961 	cdpvs	9, 5, cr7, cr15, cr1, {3}
 84c:	6c637963 	stclvs	9, cr7, [r3], #-396	; 0xfffffe74
 850:	73007365 	movwvc	r7, #869	; 0x365
 854:	61755f77 	cmnvs	r5, r7, ror pc
 858:	695f7472 	ldmdbvs	pc, {r1, r4, r5, r6, sl, ip, sp, lr}^	; <UNPREDICTABLE>
 85c:	5f74696e 	svcpl	0x0074696e
 860:	706c6568 	rsbvc	r6, ip, r8, ror #10
 864:	74007265 	strvc	r7, [r0], #-613	; 0x265
 868:	6f656d69 	svcvs	0x00656d69
 86c:	755f7475 	ldrbvc	r7, [pc, #-1141]	; 3ff <_start-0x7c01>
 870:	00636573 	rsbeq	r6, r3, r3, ror r5
 874:	755f7773 	ldrbvc	r7, [pc, #-1907]	; 109 <_start-0x7ef7>
 878:	5f747261 	svcpl	0x00747261
 87c:	6b747570 	blvs	1d1de44 <__bss_end__+0x1d13f34>
 880:	2d796d00 	ldclcs	13, cr6, [r9, #-0]
 884:	2f637273 	svccs	0x00637273
 888:	752d7773 	strvc	r7, [sp, #-1907]!	; 0x773
 88c:	2e747261 	cdpcs	2, 7, cr7, cr4, cr1, {3}
 890:	68630063 	stmdavs	r3!, {r0, r1, r5, r6}^
 894:	695f7261 	ldmdbvs	pc, {r0, r5, r6, r9, ip, sp, lr}^	; <UNPREDICTABLE>
 898:	7773006e 	ldrbvc	r0, [r3, -lr, rrx]!
 89c:	7261755f 	rsbvc	r7, r1, #398458880	; 0x17c00000
 8a0:	65675f74 	strbvs	r5, [r7, #-3956]!	; 0xf74
 8a4:	745f7374 	ldrbvc	r7, [pc], #-884	; 8ac <_start-0x7754>
 8a8:	6f656d69 	svcvs	0x00656d69
 8ac:	6e007475 	mcrvs	4, 0, r7, cr0, cr5, {3}
 8b0:	65747962 	ldrbvs	r7, [r4, #-2402]!	; 0x962
 8b4:	73750073 	cmnvc	r5, #115	; 0x73
 8b8:	745f6365 	ldrbvc	r6, [pc], #-869	; 8c0 <_start-0x7740>
 8bc:	6f656d69 	svcvs	0x00656d69
 8c0:	73007475 	movwvc	r7, #1141	; 0x475
 8c4:	61755f77 	cmnvs	r5, r7, ror pc
 8c8:	675f7472 			; <UNDEFINED> instruction: 0x675f7472
 8cc:	5f737465 	svcpl	0x00737465
 8d0:	69746e75 	ldmdbvs	r4!, {r0, r2, r4, r5, r6, r9, sl, fp, sp, lr}^
 8d4:	6c625f6c 	stclvs	15, cr5, [r2], #-432	; 0xfffffe50
 8d8:	6177006b 	cmnvs	r7, fp, rrx
 8dc:	755f7469 	ldrbvc	r7, [pc, #-1129]	; 47b <_start-0x7b85>
 8e0:	6c69746e 	cfstrdvs	mvd7, [r9], #-440	; 0xfffffe48
 8e4:	6573755f 	ldrbvs	r7, [r3, #-1375]!	; 0x55f
 8e8:	55410063 	strbpl	r0, [r1, #-99]	; 0x63
 8ec:	554d5f58 	strbpl	r5, [sp, #-3928]	; 0xf58
 8f0:	52434d5f 	subpl	r4, r3, #6080	; 0x17c0
 8f4:	4745525f 	smlsldmi	r5, r5, pc, r2	; <UNPREDICTABLE>
 8f8:	58554100 	ldmdapl	r5, {r8, lr}^
 8fc:	5f554d5f 	svcpl	0x00554d5f
 900:	525f4f49 	subspl	r4, pc, #292	; 0x124
 904:	41004745 	tstmi	r0, r5, asr #14
 908:	4d5f5855 	ldclmi	8, cr5, [pc, #-340]	; 7bc <_start-0x7844>
 90c:	534d5f55 	movtpl	r5, #57173	; 0xdf55
 910:	45525f52 	ldrbmi	r5, [r2, #-3922]	; 0xf52
 914:	61750047 	cmnvs	r5, r7, asr #32
 918:	635f7472 	cmpvs	pc, #1912602624	; 0x72000000
 91c:	675f6e61 	ldrbvs	r6, [pc, -r1, ror #28]
 920:	00637465 	rsbeq	r7, r3, r5, ror #8
 924:	5f585541 	svcpl	0x00585541
 928:	435f554d 	cmpmi	pc, #322961408	; 0x13400000
 92c:	5f4c544e 	svcpl	0x004c544e
 930:	00474552 	subeq	r4, r7, r2, asr r5
 934:	74726175 	ldrbtvc	r6, [r2], #-373	; 0x175
 938:	7361685f 	cmnvc	r1, #6225920	; 0x5f0000
 93c:	7461645f 	strbtvc	r6, [r1], #-1119	; 0x45f
 940:	61750061 	cmnvs	r5, r1, rrx
 944:	695f7472 	ldmdbvs	pc, {r1, r4, r5, r6, sl, ip, sp, lr}^	; <UNPREDICTABLE>
 948:	0074696e 	rsbseq	r6, r4, lr, ror #18
 94c:	5f585541 	svcpl	0x00585541
 950:	495f554d 	ldmdbmi	pc, {r0, r2, r3, r6, r8, sl, ip, lr}^	; <UNPREDICTABLE>
 954:	525f5245 	subspl	r5, pc, #1342177284	; 0x50000004
 958:	41004745 	tstmi	r0, r5, asr #14
 95c:	4d5f5855 	ldclmi	8, cr5, [pc, #-340]	; 810 <_start-0x77f0>
 960:	49495f55 	stmdbmi	r9, {r0, r2, r4, r6, r8, r9, sl, fp, ip, lr}^
 964:	45525f52 	ldrbmi	r5, [r2, #-3922]	; 0xf52
 968:	61750047 	cmnvs	r5, r7, asr #32
 96c:	635f7472 	cmpvs	pc, #1912602624	; 0x72000000
 970:	705f6e61 	subsvc	r6, pc, r1, ror #28
 974:	00637475 	rsbeq	r7, r3, r5, ror r4
 978:	5f585541 	svcpl	0x00585541
 97c:	42414e45 	submi	r4, r1, #1104	; 0x450
 980:	0053454c 	subseq	r4, r3, ip, asr #10
 984:	5f585541 	svcpl	0x00585541
 988:	00515249 	subseq	r5, r1, r9, asr #4
 98c:	5f585541 	svcpl	0x00585541
 990:	425f554d 	subsmi	r5, pc, #322961408	; 0x13400000
 994:	5f445541 	svcpl	0x00445541
 998:	00474552 	subeq	r4, r7, r2, asr r5
 99c:	5f585541 	svcpl	0x00585541
 9a0:	535f554d 	cmppl	pc, #322961408	; 0x13400000
 9a4:	5f544154 	svcpl	0x00544154
 9a8:	00474552 	subeq	r4, r7, r2, asr r5
 9ac:	5f585541 	svcpl	0x00585541
 9b0:	535f554d 	cmppl	pc, #322961408	; 0x13400000
 9b4:	54415243 	strbpl	r5, [r1], #-579	; 0x243
 9b8:	6d004843 	stcvs	8, cr4, [r0, #-268]	; 0xfffffef4
 9bc:	72732d79 	rsbsvc	r2, r3, #7744	; 0x1e40
 9c0:	61752f63 	cmnvs	r5, r3, ror #30
 9c4:	632e7472 	teqvs	lr, #1912602624	; 0x72000000
 9c8:	58554100 	ldmdapl	r5, {r8, lr}^
 9cc:	5f554d5f 	svcpl	0x00554d5f
 9d0:	5f52434c 	svcpl	0x0052434c
 9d4:	00474552 	subeq	r4, r7, r2, asr r5
 9d8:	5f585541 	svcpl	0x00585541
 9dc:	4c5f554d 	cfldr64mi	mvdx5, [pc], {77}	; 0x4d
 9e0:	525f5253 	subspl	r5, pc, #805306373	; 0x30000005
 9e4:	75004745 	strvc	r4, [r0, #-1861]	; 0x745
 9e8:	5f747261 	svcpl	0x00747261
 9ec:	63746567 	cmnvs	r4, #432013312	; 0x19c00000
 9f0:	7973615f 	ldmdbvc	r3!, {r0, r1, r2, r3, r4, r6, r8, sp, lr}^
 9f4:	7300636e 	movwvc	r6, #878	; 0x36e
 9f8:	5f657a69 	svcpl	0x00657a69
 9fc:	656d0074 	strbvs	r0, [sp, #-116]!	; 0x74
 a00:	7465736d 	strbtvc	r7, [r5], #-877	; 0x36d
 a04:	5f626300 	svcpl	0x00626300
 a08:	0077656e 	rsbseq	r6, r7, lr, ror #10
 a0c:	34317363 	ldrtcc	r7, [r1], #-867	; 0x363
 a10:	732d6530 	teqvc	sp, #48, 10	; 0xc000000
 a14:	632f6372 	teqvs	pc, #-939524095	; 0xc8000001
 a18:	72746e6f 	rsbsvc	r6, r4, #1776	; 0x6f0
 a1c:	622d6c6f 	eorvs	r6, sp, #28416	; 0x6f00
 a20:	6b636f6c 	blvs	18dc7d8 <__bss_end__+0x18d28c8>
 a24:	6c00632e 	stcvs	3, cr6, [r0], {46}	; 0x2e
 a28:	2f636269 	svccs	0x00636269
 a2c:	736d656d 	cmnvc	sp, #457179136	; 0x1b400000
 a30:	632e7465 	teqvs	lr, #1694498816	; 0x65000000
	...

Disassembly of section .debug_frame:

00000000 <.debug_frame>:
   0:	0000000c 	andeq	r0, r0, ip
   4:	ffffffff 			; <UNDEFINED> instruction: 0xffffffff
   8:	7c020001 	stcvc	0, cr0, [r2], {1}
   c:	000d0c0e 	andeq	r0, sp, lr, lsl #24
  10:	00000014 	andeq	r0, r0, r4, lsl r0
  14:	00000000 	andeq	r0, r0, r0
  18:	00008010 	andeq	r8, r0, r0, lsl r0
  1c:	00000050 	andeq	r0, r0, r0, asr r0
  20:	84080e44 	strhi	r0, [r8], #-3652	; 0xe44
  24:	00018e02 	andeq	r8, r1, r2, lsl #28
  28:	00000020 	andeq	r0, r0, r0, lsr #32
  2c:	00000000 	andeq	r0, r0, r0
  30:	00008060 	andeq	r8, r0, r0, rrx
  34:	0000007c 	andeq	r0, r0, ip, ror r0
  38:	83200e42 	teqhi	r0, #1056	; 0x420
  3c:	85078408 	strhi	r8, [r7, #-1032]	; 0x408
  40:	87058606 	strhi	r8, [r5, -r6, lsl #12]
  44:	89038804 	stmdbhi	r3, {r2, fp, pc}
  48:	00018e02 	andeq	r8, r1, r2, lsl #28
  4c:	00000024 	andeq	r0, r0, r4, lsr #32
  50:	00000000 	andeq	r0, r0, r0
  54:	000080dc 	ldrdeq	r8, [r0], -ip
  58:	00000090 	muleq	r0, r0, r0
  5c:	84200e42 	strthi	r0, [r0], #-3650	; 0xe42
  60:	86078508 	strhi	r8, [r7], -r8, lsl #10
  64:	88058706 	stmdahi	r5, {r1, r2, r8, r9, sl, pc}
  68:	8a038904 	bhi	e2480 <__bss_end__+0xd8570>
  6c:	44018e02 	strmi	r8, [r1], #-3586	; 0xe02
  70:	0000300e 	andeq	r3, r0, lr
  74:	00000014 	andeq	r0, r0, r4, lsl r0
  78:	00000000 	andeq	r0, r0, r0
  7c:	0000816c 	andeq	r8, r0, ip, ror #2
  80:	0000004c 	andeq	r0, r0, ip, asr #32
  84:	8e040e42 	cdphi	14, 0, cr0, cr4, cr2, {2}
  88:	580e4401 	stmdapl	lr, {r0, sl, lr}
  8c:	0000000c 	andeq	r0, r0, ip
  90:	ffffffff 			; <UNDEFINED> instruction: 0xffffffff
  94:	7c020001 	stcvc	0, cr0, [r2], {1}
  98:	000d0c0e 	andeq	r0, sp, lr, lsl #24
  9c:	00000024 	andeq	r0, r0, r4, lsr #32
  a0:	0000008c 	andeq	r0, r0, ip, lsl #1
  a4:	000081b8 			; <UNDEFINED> instruction: 0x000081b8
  a8:	00000058 	andeq	r0, r0, r8, asr r0
  ac:	80100e42 	andshi	r0, r0, r2, asr #28
  b0:	82038104 	andhi	r8, r3, #4, 2
  b4:	42018302 	andmi	r8, r1, #134217728	; 0x8000000
  b8:	07841c0e 	streq	r1, [r4, lr, lsl #24]
  bc:	058e0685 	streq	r0, [lr, #1669]	; 0x685
  c0:	00280e42 	eoreq	r0, r8, r2, asr #28
  c4:	0000000c 	andeq	r0, r0, ip
  c8:	ffffffff 			; <UNDEFINED> instruction: 0xffffffff
  cc:	7c020001 	stcvc	0, cr0, [r2], {1}
  d0:	000d0c0e 	andeq	r0, sp, lr, lsl #24
  d4:	00000014 	andeq	r0, r0, r4, lsl r0
  d8:	000000c4 	andeq	r0, r0, r4, asr #1
  dc:	00008210 	andeq	r8, r0, r0, lsl r2
  e0:	00000014 	andeq	r0, r0, r4, lsl r0
  e4:	84080e42 	strhi	r0, [r8], #-3650	; 0xe42
  e8:	00018e02 	andeq	r8, r1, r2, lsl #28
  ec:	0000000c 	andeq	r0, r0, ip
  f0:	000000c4 	andeq	r0, r0, r4, asr #1
  f4:	00008224 	andeq	r8, r0, r4, lsr #4
  f8:	00000018 	andeq	r0, r0, r8, lsl r0
  fc:	0000000c 	andeq	r0, r0, ip
 100:	000000c4 	andeq	r0, r0, r4, asr #1
 104:	0000823c 	andeq	r8, r0, ip, lsr r2
 108:	00000010 	andeq	r0, r0, r0, lsl r0
 10c:	0000000c 	andeq	r0, r0, ip
 110:	ffffffff 			; <UNDEFINED> instruction: 0xffffffff
 114:	7c020001 	stcvc	0, cr0, [r2], {1}
 118:	000d0c0e 	andeq	r0, sp, lr, lsl #24
 11c:	00000018 	andeq	r0, r0, r8, lsl r0
 120:	0000010c 	andeq	r0, r0, ip, lsl #2
 124:	0000824c 	andeq	r8, r0, ip, asr #4
 128:	00000034 	andeq	r0, r0, r4, lsr r0
 12c:	83100e42 	tsthi	r0, #1056	; 0x420
 130:	85038404 	strhi	r8, [r3, #-1028]	; 0x404
 134:	00018e02 	andeq	r8, r1, r2, lsl #28
 138:	0000000c 	andeq	r0, r0, ip
 13c:	ffffffff 			; <UNDEFINED> instruction: 0xffffffff
 140:	7c020001 	stcvc	0, cr0, [r2], {1}
 144:	000d0c0e 	andeq	r0, sp, lr, lsl #24
 148:	0000000c 	andeq	r0, r0, ip
 14c:	00000138 	andeq	r0, r0, r8, lsr r1
 150:	00008280 	andeq	r8, r0, r0, lsl #5
 154:	00000014 	andeq	r0, r0, r4, lsl r0
 158:	0000000c 	andeq	r0, r0, ip
 15c:	00000138 	andeq	r0, r0, r8, lsr r1
 160:	00008294 	muleq	r0, r4, r2
 164:	0000002c 	andeq	r0, r0, ip, lsr #32
 168:	0000000c 	andeq	r0, r0, ip
 16c:	00000138 	andeq	r0, r0, r8, lsr r1
 170:	000082c0 	andeq	r8, r0, r0, asr #5
 174:	00000040 	andeq	r0, r0, r0, asr #32
 178:	00000020 	andeq	r0, r0, r0, lsr #32
 17c:	00000138 	andeq	r0, r0, r8, lsr r1
 180:	00008300 	andeq	r8, r0, r0, lsl #6
 184:	000001a8 	andeq	r0, r0, r8, lsr #3
 188:	84180e42 	ldrhi	r0, [r8], #-3650	; 0xe42
 18c:	86058506 	strhi	r8, [r5], -r6, lsl #10
 190:	88038704 	stmdahi	r3, {r2, r8, r9, sl, pc}
 194:	42018e02 	andmi	r8, r1, #2, 28
 198:	0000600e 	andeq	r6, r0, lr
 19c:	00000014 	andeq	r0, r0, r4, lsl r0
 1a0:	00000138 	andeq	r0, r0, r8, lsr r1
 1a4:	000084a8 	andeq	r8, r0, r8, lsr #9
 1a8:	00000068 	andeq	r0, r0, r8, rrx
 1ac:	8e040e42 	cdphi	14, 0, cr0, cr4, cr2, {2}
 1b0:	100e4201 	andne	r4, lr, r1, lsl #4
 1b4:	00000028 	andeq	r0, r0, r8, lsr #32
 1b8:	00000138 	andeq	r0, r0, r8, lsr r1
 1bc:	00008510 	andeq	r8, r0, r0, lsl r5
 1c0:	00000294 	muleq	r0, r4, r2
 1c4:	84240e42 	strthi	r0, [r4], #-3650	; 0xe42
 1c8:	86088509 	strhi	r8, [r8], -r9, lsl #10
 1cc:	88068707 	stmdahi	r6, {r0, r1, r2, r8, r9, sl, pc}
 1d0:	8a048905 	bhi	1225ec <__bss_end__+0x1186dc>
 1d4:	8e028b03 	vmlahi.f64	d8, d2, d3
 1d8:	b00e4201 	andlt	r4, lr, r1, lsl #4
 1dc:	00000001 	andeq	r0, r0, r1
 1e0:	0000000c 	andeq	r0, r0, ip
 1e4:	ffffffff 			; <UNDEFINED> instruction: 0xffffffff
 1e8:	7c020001 	stcvc	0, cr0, [r2], {1}
 1ec:	000d0c0e 	andeq	r0, sp, lr, lsl #24
 1f0:	00000014 	andeq	r0, r0, r4, lsl r0
 1f4:	000001e0 	andeq	r0, r0, r0, ror #3
 1f8:	000087a4 	andeq	r8, r0, r4, lsr #15
 1fc:	00000028 	andeq	r0, r0, r8, lsr #32
 200:	83080e42 	movwhi	r0, #36418	; 0x8e42
 204:	00018e02 	andeq	r8, r1, r2, lsl #28
 208:	0000000c 	andeq	r0, r0, ip
 20c:	ffffffff 			; <UNDEFINED> instruction: 0xffffffff
 210:	7c020001 	stcvc	0, cr0, [r2], {1}
 214:	000d0c0e 	andeq	r0, sp, lr, lsl #24
 218:	00000014 	andeq	r0, r0, r4, lsl r0
 21c:	00000208 	andeq	r0, r0, r8, lsl #4
 220:	000087cc 	andeq	r8, r0, ip, asr #15
 224:	00000020 	andeq	r0, r0, r0, lsr #32
 228:	84080e42 	strhi	r0, [r8], #-3650	; 0xe42
 22c:	00018e02 	andeq	r8, r1, r2, lsl #28
 230:	00000014 	andeq	r0, r0, r4, lsl r0
 234:	00000208 	andeq	r0, r0, r8, lsl #4
 238:	000087ec 	andeq	r8, r0, ip, ror #15
 23c:	00000090 	muleq	r0, r0, r0
 240:	83080e42 	movwhi	r0, #36418	; 0x8e42
 244:	00018e02 	andeq	r8, r1, r2, lsl #28
 248:	0000000c 	andeq	r0, r0, ip
 24c:	ffffffff 			; <UNDEFINED> instruction: 0xffffffff
 250:	7c020001 	stcvc	0, cr0, [r2], {1}
 254:	000d0c0e 	andeq	r0, sp, lr, lsl #24
 258:	0000000c 	andeq	r0, r0, ip
 25c:	00000248 	andeq	r0, r0, r8, asr #4
 260:	0000887c 	andeq	r8, r0, ip, ror r8
 264:	00000018 	andeq	r0, r0, r8, lsl r0
 268:	0000000c 	andeq	r0, r0, ip
 26c:	00000248 	andeq	r0, r0, r8, asr #4
 270:	00008894 	muleq	r0, r4, r8
 274:	00000014 	andeq	r0, r0, r4, lsl r0
 278:	00000014 	andeq	r0, r0, r4, lsl r0
 27c:	00000248 	andeq	r0, r0, r8, asr #4
 280:	000088a8 	andeq	r8, r0, r8, lsr #17
 284:	00000048 	andeq	r0, r0, r8, asr #32
 288:	83080e42 	movwhi	r0, #36418	; 0x8e42
 28c:	00018e02 	andeq	r8, r1, r2, lsl #28
 290:	0000000c 	andeq	r0, r0, ip
 294:	ffffffff 			; <UNDEFINED> instruction: 0xffffffff
 298:	7c020001 	stcvc	0, cr0, [r2], {1}
 29c:	000d0c0e 	andeq	r0, sp, lr, lsl #24
 2a0:	0000000c 	andeq	r0, r0, ip
 2a4:	00000290 	muleq	r0, r0, r2
 2a8:	000088f0 	strdeq	r8, [r0], -r0
 2ac:	0000001c 	andeq	r0, r0, ip, lsl r0
 2b0:	00000014 	andeq	r0, r0, r4, lsl r0
 2b4:	00000290 	muleq	r0, r0, r2
 2b8:	0000890c 	andeq	r8, r0, ip, lsl #18
 2bc:	00000014 	andeq	r0, r0, r4, lsl r0
 2c0:	83080e42 	movwhi	r0, #36418	; 0x8e42
 2c4:	00018e02 	andeq	r8, r1, r2, lsl #28
 2c8:	00000014 	andeq	r0, r0, r4, lsl r0
 2cc:	00000290 	muleq	r0, r0, r2
 2d0:	00008920 	andeq	r8, r0, r0, lsr #18
 2d4:	0000000c 	andeq	r0, r0, ip
 2d8:	83080e42 	movwhi	r0, #36418	; 0x8e42
 2dc:	00018e02 	andeq	r8, r1, r2, lsl #28
 2e0:	00000018 	andeq	r0, r0, r8, lsl r0
 2e4:	00000290 	muleq	r0, r0, r2
 2e8:	0000892c 	andeq	r8, r0, ip, lsr #18
 2ec:	00000024 	andeq	r0, r0, r4, lsr #32
 2f0:	83100e42 	tsthi	r0, #1056	; 0x420
 2f4:	85038404 	strhi	r8, [r3, #-1028]	; 0x404
 2f8:	00018e02 	andeq	r8, r1, r2, lsl #28
 2fc:	00000014 	andeq	r0, r0, r4, lsl r0
 300:	00000290 	muleq	r0, r0, r2
 304:	00008950 	andeq	r8, r0, r0, asr r9
 308:	00000014 	andeq	r0, r0, r4, lsl r0
 30c:	83080e42 	movwhi	r0, #36418	; 0x8e42
 310:	00018e02 	andeq	r8, r1, r2, lsl #28
 314:	00000014 	andeq	r0, r0, r4, lsl r0
 318:	00000290 	muleq	r0, r0, r2
 31c:	00008964 	andeq	r8, r0, r4, ror #18
 320:	00000014 	andeq	r0, r0, r4, lsl r0
 324:	83080e42 	movwhi	r0, #36418	; 0x8e42
 328:	00018e02 	andeq	r8, r1, r2, lsl #28
 32c:	0000000c 	andeq	r0, r0, ip
 330:	ffffffff 			; <UNDEFINED> instruction: 0xffffffff
 334:	7c020001 	stcvc	0, cr0, [r2], {1}
 338:	000d0c0e 	andeq	r0, sp, lr, lsl #24
 33c:	00000018 	andeq	r0, r0, r8, lsl r0
 340:	0000032c 	andeq	r0, r0, ip, lsr #6
 344:	00008978 	andeq	r8, r0, r8, ror r9
 348:	000000d4 	ldrdeq	r0, [r0], -r4
 34c:	83100e42 	tsthi	r0, #1056	; 0x420
 350:	85038404 	strhi	r8, [r3, #-1028]	; 0x404
 354:	00018e02 	andeq	r8, r1, r2, lsl #28
 358:	00000014 	andeq	r0, r0, r4, lsl r0
 35c:	0000032c 	andeq	r0, r0, ip, lsr #6
 360:	00008a4c 	andeq	r8, r0, ip, asr #20
 364:	00000038 	andeq	r0, r0, r8, lsr r0
 368:	83080e42 	movwhi	r0, #36418	; 0x8e42
 36c:	00018e02 	andeq	r8, r1, r2, lsl #28
 370:	00000014 	andeq	r0, r0, r4, lsl r0
 374:	0000032c 	andeq	r0, r0, ip, lsr #6
 378:	00008a84 	andeq	r8, r0, r4, lsl #21
 37c:	00000038 	andeq	r0, r0, r8, lsr r0
 380:	83080e42 	movwhi	r0, #36418	; 0x8e42
 384:	00018e02 	andeq	r8, r1, r2, lsl #28
 388:	00000018 	andeq	r0, r0, r8, lsl r0
 38c:	0000032c 	andeq	r0, r0, ip, lsr #6
 390:	00008abc 			; <UNDEFINED> instruction: 0x00008abc
 394:	000000cc 	andeq	r0, r0, ip, asr #1
 398:	83100e42 	tsthi	r0, #1056	; 0x420
 39c:	85038404 	strhi	r8, [r3, #-1028]	; 0x404
 3a0:	00018e02 	andeq	r8, r1, r2, lsl #28
 3a4:	00000014 	andeq	r0, r0, r4, lsl r0
 3a8:	0000032c 	andeq	r0, r0, ip, lsr #6
 3ac:	00008b88 	andeq	r8, r0, r8, lsl #23
 3b0:	0000004c 	andeq	r0, r0, ip, asr #32
 3b4:	84080e42 	strhi	r0, [r8], #-3650	; 0xe42
 3b8:	00018e02 	andeq	r8, r1, r2, lsl #28
 3bc:	00000014 	andeq	r0, r0, r4, lsl r0
 3c0:	0000032c 	andeq	r0, r0, ip, lsr #6
 3c4:	00008bd4 	ldrdeq	r8, [r0], -r4
 3c8:	00000024 	andeq	r0, r0, r4, lsr #32
 3cc:	83080e42 	movwhi	r0, #36418	; 0x8e42
 3d0:	00018e02 	andeq	r8, r1, r2, lsl #28
 3d4:	00000018 	andeq	r0, r0, r8, lsl r0
 3d8:	0000032c 	andeq	r0, r0, ip, lsr #6
 3dc:	00008bf8 	strdeq	r8, [r0], -r8	; <UNPREDICTABLE>
 3e0:	000000d8 	ldrdeq	r0, [r0], -r8
 3e4:	84100e42 	ldrhi	r0, [r0], #-3650	; 0xe42
 3e8:	86038504 	strhi	r8, [r3], -r4, lsl #10
 3ec:	00018e02 	andeq	r8, r1, r2, lsl #28
 3f0:	00000014 	andeq	r0, r0, r4, lsl r0
 3f4:	0000032c 	andeq	r0, r0, ip, lsr #6
 3f8:	00008cd0 	ldrdeq	r8, [r0], -r0
 3fc:	00000038 	andeq	r0, r0, r8, lsr r0
 400:	83080e42 	movwhi	r0, #36418	; 0x8e42
 404:	00018e02 	andeq	r8, r1, r2, lsl #28
 408:	00000014 	andeq	r0, r0, r4, lsl r0
 40c:	0000032c 	andeq	r0, r0, ip, lsr #6
 410:	00008d08 	andeq	r8, r0, r8, lsl #26
 414:	0000002c 	andeq	r0, r0, ip, lsr #32
 418:	83080e42 	movwhi	r0, #36418	; 0x8e42
 41c:	00018e02 	andeq	r8, r1, r2, lsl #28
 420:	00000018 	andeq	r0, r0, r8, lsl r0
 424:	0000032c 	andeq	r0, r0, ip, lsr #6
 428:	00008d34 	andeq	r8, r0, r4, lsr sp
 42c:	00000084 	andeq	r0, r0, r4, lsl #1
 430:	83100e42 	tsthi	r0, #1056	; 0x420
 434:	85038404 	strhi	r8, [r3, #-1028]	; 0x404
 438:	00018e02 	andeq	r8, r1, r2, lsl #28
 43c:	00000018 	andeq	r0, r0, r8, lsl r0
 440:	0000032c 	andeq	r0, r0, ip, lsr #6
 444:	00008db8 			; <UNDEFINED> instruction: 0x00008db8
 448:	00000084 	andeq	r0, r0, r4, lsl #1
 44c:	83100e42 	tsthi	r0, #1056	; 0x420
 450:	85038404 	strhi	r8, [r3, #-1028]	; 0x404
 454:	00018e02 	andeq	r8, r1, r2, lsl #28
 458:	00000014 	andeq	r0, r0, r4, lsl r0
 45c:	0000032c 	andeq	r0, r0, ip, lsr #6
 460:	00008e3c 	andeq	r8, r0, ip, lsr lr
 464:	00000084 	andeq	r0, r0, r4, lsl #1
 468:	84080e42 	strhi	r0, [r8], #-3650	; 0xe42
 46c:	00018e02 	andeq	r8, r1, r2, lsl #28
 470:	00000014 	andeq	r0, r0, r4, lsl r0
 474:	0000032c 	andeq	r0, r0, ip, lsr #6
 478:	00008ec0 	andeq	r8, r0, r0, asr #29
 47c:	00000058 	andeq	r0, r0, r8, asr r0
 480:	84080e42 	strhi	r0, [r8], #-3650	; 0xe42
 484:	00018e02 	andeq	r8, r1, r2, lsl #28
 488:	0000000c 	andeq	r0, r0, ip
 48c:	ffffffff 			; <UNDEFINED> instruction: 0xffffffff
 490:	7c020001 	stcvc	0, cr0, [r2], {1}
 494:	000d0c0e 	andeq	r0, sp, lr, lsl #24
 498:	0000001c 	andeq	r0, r0, ip, lsl r0
 49c:	00000488 	andeq	r0, r0, r8, lsl #9
 4a0:	00008f18 	andeq	r8, r0, r8, lsl pc
 4a4:	00000154 	andeq	r0, r0, r4, asr r1
 4a8:	84180e42 	ldrhi	r0, [r8], #-3650	; 0xe42
 4ac:	86058506 	strhi	r8, [r5], -r6, lsl #10
 4b0:	88038704 	stmdahi	r3, {r2, r8, r9, sl, pc}
 4b4:	00018e02 	andeq	r8, r1, r2, lsl #28
 4b8:	00000020 	andeq	r0, r0, r0, lsr #32
 4bc:	00000488 	andeq	r0, r0, r8, lsl #9
 4c0:	0000906c 	andeq	r9, r0, ip, rrx
 4c4:	000001c8 	andeq	r0, r0, r8, asr #3
 4c8:	83200e42 	teqhi	r0, #1056	; 0x420
 4cc:	85078408 	strhi	r8, [r7, #-1032]	; 0x408
 4d0:	87058606 	strhi	r8, [r5, -r6, lsl #12]
 4d4:	89038804 	stmdbhi	r3, {r2, fp, pc}
 4d8:	00018e02 	andeq	r8, r1, r2, lsl #28
 4dc:	00000024 	andeq	r0, r0, r4, lsr #32
 4e0:	00000488 	andeq	r0, r0, r8, lsl #9
 4e4:	00009234 	andeq	r9, r0, r4, lsr r2
 4e8:	000000a4 	andeq	r0, r0, r4, lsr #1
 4ec:	84200e42 	strthi	r0, [r0], #-3650	; 0xe42
 4f0:	86078508 	strhi	r8, [r7], -r8, lsl #10
 4f4:	88058706 	stmdahi	r5, {r1, r2, r8, r9, sl, pc}
 4f8:	8a038904 	bhi	e2910 <__bss_end__+0xd8a00>
 4fc:	42018e02 	andmi	r8, r1, #2, 28
 500:	0000280e 	andeq	r2, r0, lr, lsl #16
 504:	00000020 	andeq	r0, r0, r0, lsr #32
 508:	00000488 	andeq	r0, r0, r8, lsl #9
 50c:	000092d8 	ldrdeq	r9, [r0], -r8
 510:	00000090 	muleq	r0, r0, r0
 514:	84180e42 	ldrhi	r0, [r8], #-3650	; 0xe42
 518:	86058506 	strhi	r8, [r5], -r6, lsl #10
 51c:	88038704 	stmdahi	r3, {r2, r8, r9, sl, pc}
 520:	42018e02 	andmi	r8, r1, #2, 28
 524:	0000200e 	andeq	r2, r0, lr
 528:	00000020 	andeq	r0, r0, r0, lsr #32
 52c:	00000488 	andeq	r0, r0, r8, lsl #9
 530:	00009368 	andeq	r9, r0, r8, ror #6
 534:	000000d4 	ldrdeq	r0, [r0], -r4
 538:	84180e42 	ldrhi	r0, [r8], #-3650	; 0xe42
 53c:	86058506 	strhi	r8, [r5], -r6, lsl #10
 540:	88038704 	stmdahi	r3, {r2, r8, r9, sl, pc}
 544:	42018e02 	andmi	r8, r1, #2, 28
 548:	0000200e 	andeq	r2, r0, lr
 54c:	00000014 	andeq	r0, r0, r4, lsl r0
 550:	00000488 	andeq	r0, r0, r8, lsl #9
 554:	0000943c 	andeq	r9, r0, ip, lsr r4
 558:	0000003c 	andeq	r0, r0, ip, lsr r0
 55c:	83080e42 	movwhi	r0, #36418	; 0x8e42
 560:	00018e02 	andeq	r8, r1, r2, lsl #28
 564:	00000018 	andeq	r0, r0, r8, lsl r0
 568:	00000488 	andeq	r0, r0, r8, lsl #9
 56c:	00009478 	andeq	r9, r0, r8, ror r4
 570:	0000002c 	andeq	r0, r0, ip, lsr #32
 574:	83100e42 	tsthi	r0, #1056	; 0x420
 578:	85038404 	strhi	r8, [r3, #-1028]	; 0x404
 57c:	00018e02 	andeq	r8, r1, r2, lsl #28
 580:	00000024 	andeq	r0, r0, r4, lsr #32
 584:	00000488 	andeq	r0, r0, r8, lsl #9
 588:	000094a4 	andeq	r9, r0, r4, lsr #9
 58c:	00000090 	muleq	r0, r0, r0
 590:	810c0e42 	tsthi	ip, r2, asr #28
 594:	83028203 	movwhi	r8, #8707	; 0x2203
 598:	180e4201 	stmdane	lr, {r0, r9, lr}
 59c:	05850684 	streq	r0, [r5, #1668]	; 0x684
 5a0:	0e42048e 	cdpeq	4, 4, cr0, cr2, cr14, {4}
 5a4:	000003f0 	strdeq	r0, [r0], -r0	; <UNPREDICTABLE>
 5a8:	00000014 	andeq	r0, r0, r4, lsl r0
 5ac:	00000488 	andeq	r0, r0, r8, lsl #9
 5b0:	00009534 	andeq	r9, r0, r4, lsr r5
 5b4:	0000004c 	andeq	r0, r0, ip, asr #32
 5b8:	8e040e42 	cdphi	14, 0, cr0, cr4, cr2, {2}
 5bc:	100e4201 	andne	r4, lr, r1, lsl #4
 5c0:	0000000c 	andeq	r0, r0, ip
 5c4:	ffffffff 			; <UNDEFINED> instruction: 0xffffffff
 5c8:	7c020001 	stcvc	0, cr0, [r2], {1}
 5cc:	000d0c0e 	andeq	r0, sp, lr, lsl #24
 5d0:	00000018 	andeq	r0, r0, r8, lsl r0
 5d4:	000005c0 	andeq	r0, r0, r0, asr #11
 5d8:	00009580 	andeq	r9, r0, r0, lsl #11
 5dc:	0000009c 	muleq	r0, ip, r0
 5e0:	83100e42 	tsthi	r0, #1056	; 0x420
 5e4:	85038404 	strhi	r8, [r3, #-1028]	; 0x404
 5e8:	00018e02 	andeq	r8, r1, r2, lsl #28
 5ec:	00000014 	andeq	r0, r0, r4, lsl r0
 5f0:	000005c0 	andeq	r0, r0, r0, asr #11
 5f4:	0000961c 	andeq	r9, r0, ip, lsl r6
 5f8:	0000001c 	andeq	r0, r0, ip, lsl r0
 5fc:	83080e42 	movwhi	r0, #36418	; 0x8e42
 600:	00018e02 	andeq	r8, r1, r2, lsl #28
 604:	00000014 	andeq	r0, r0, r4, lsl r0
 608:	000005c0 	andeq	r0, r0, r0, asr #11
 60c:	00009638 	andeq	r9, r0, r8, lsr r6
 610:	00000028 	andeq	r0, r0, r8, lsr #32
 614:	83080e42 	movwhi	r0, #36418	; 0x8e42
 618:	00018e02 	andeq	r8, r1, r2, lsl #28
 61c:	00000014 	andeq	r0, r0, r4, lsl r0
 620:	000005c0 	andeq	r0, r0, r0, asr #11
 624:	00009660 	andeq	r9, r0, r0, ror #12
 628:	0000001c 	andeq	r0, r0, ip, lsl r0
 62c:	83080e42 	movwhi	r0, #36418	; 0x8e42
 630:	00018e02 	andeq	r8, r1, r2, lsl #28
 634:	00000014 	andeq	r0, r0, r4, lsl r0
 638:	000005c0 	andeq	r0, r0, r0, asr #11
 63c:	0000967c 	andeq	r9, r0, ip, ror r6
 640:	0000002c 	andeq	r0, r0, ip, lsr #32
 644:	84080e42 	strhi	r0, [r8], #-3650	; 0xe42
 648:	00018e02 	andeq	r8, r1, r2, lsl #28
 64c:	00000014 	andeq	r0, r0, r4, lsl r0
 650:	000005c0 	andeq	r0, r0, r0, asr #11
 654:	000096a8 	andeq	r9, r0, r8, lsr #13
 658:	0000000c 	andeq	r0, r0, ip
 65c:	83080e42 	movwhi	r0, #36418	; 0x8e42
 660:	00018e02 	andeq	r8, r1, r2, lsl #28
 664:	00000014 	andeq	r0, r0, r4, lsl r0
 668:	000005c0 	andeq	r0, r0, r0, asr #11
 66c:	000096b4 			; <UNDEFINED> instruction: 0x000096b4
 670:	00000020 	andeq	r0, r0, r0, lsr #32
 674:	83080e42 	movwhi	r0, #36418	; 0x8e42
 678:	00018e02 	andeq	r8, r1, r2, lsl #28
 67c:	0000000c 	andeq	r0, r0, ip
 680:	ffffffff 			; <UNDEFINED> instruction: 0xffffffff
 684:	7c020001 	stcvc	0, cr0, [r2], {1}
 688:	000d0c0e 	andeq	r0, sp, lr, lsl #24
 68c:	00000014 	andeq	r0, r0, r4, lsl r0
 690:	0000067c 	andeq	r0, r0, ip, ror r6
 694:	00009738 	andeq	r9, r0, r8, lsr r7
 698:	00000028 	andeq	r0, r0, r8, lsr #32
 69c:	83080e42 	movwhi	r0, #36418	; 0x8e42
 6a0:	00018e02 	andeq	r8, r1, r2, lsl #28
 6a4:	0000000c 	andeq	r0, r0, ip
 6a8:	0000067c 	andeq	r0, r0, ip, ror r6
 6ac:	00009760 	andeq	r9, r0, r0, ror #14
 6b0:	00000028 	andeq	r0, r0, r8, lsr #32
 6b4:	0000000c 	andeq	r0, r0, ip
 6b8:	ffffffff 			; <UNDEFINED> instruction: 0xffffffff
 6bc:	7c020001 	stcvc	0, cr0, [r2], {1}
 6c0:	000d0c0e 	andeq	r0, sp, lr, lsl #24
 6c4:	0000000c 	andeq	r0, r0, ip
 6c8:	000006b4 			; <UNDEFINED> instruction: 0x000006b4
 6cc:	00009788 	andeq	r9, r0, r8, lsl #15
 6d0:	00000020 	andeq	r0, r0, r0, lsr #32
