
scope.elf:     file format elf32-littlearm


Disassembly of section .text:

00008000 <_start>:
    8000:	e3a0d302 	mov	sp, #134217728	; 0x8000000
    8004:	e3a0b000 	mov	fp, #0
    8008:	eb0002ff 	bl	8c0c <_cstart>
    800c:	eb00032d 	bl	8cc8 <rpi_reboot>

00008010 <cycles_per_sec>:
    8010:	e3500001 	cmp	r0, #1
    8014:	e92d4010 	push	{r4, lr}
    8018:	8a000006 	bhi	8038 <cycles_per_sec+0x28>
    801c:	ee1f4f3c 	mrc	15, 0, r4, cr15, cr12, {1}
    8020:	e3a03ffa 	mov	r3, #1000	; 0x3e8
    8024:	e0000093 	mul	r0, r3, r0
    8028:	eb000350 	bl	8d70 <delay_ms>
    802c:	ee1f0f3c 	mrc	15, 0, r0, cr15, cr12, {1}
    8030:	e0640000 	rsb	r0, r4, r0
    8034:	e8bd8010 	pop	{r4, pc}
    8038:	eb000179 	bl	8624 <rpi_reset_putc>
    803c:	e59f1010 	ldr	r1, [pc, #16]	; 8054 <cycles_per_sec+0x44>
    8040:	e59f2010 	ldr	r2, [pc, #16]	; 8058 <cycles_per_sec+0x48>
    8044:	e3a03027 	mov	r3, #39	; 0x27
    8048:	e59f000c 	ldr	r0, [pc, #12]	; 805c <cycles_per_sec+0x4c>
    804c:	eb000159 	bl	85b8 <printk>
    8050:	eb0002db 	bl	8bc4 <clean_reboot>
    8054:	00009ca4 	andeq	r9, r0, r4, lsr #25
    8058:	00009c64 	andeq	r9, r0, r4, ror #24
    805c:	00009c74 	andeq	r9, r0, r4, ror ip

00008060 <scope>:
    8060:	e92d47f0 	push	{r4, r5, r6, r7, r8, r9, sl, lr}
    8064:	e59f3450 	ldr	r3, [pc, #1104]	; 84bc <scope+0x45c>
    8068:	e24dd058 	sub	sp, sp, #88	; 0x58
    806c:	e5937034 	ldr	r7, [r3, #52]	; 0x34
    8070:	e1a06000 	mov	r6, r0
    8074:	e593e034 	ldr	lr, [r3, #52]	; 0x34
    8078:	e15e0007 	cmp	lr, r7
    807c:	0afffffc 	beq	8074 <scope+0x14>
    8080:	ee1f0f3c 	mrc	15, 0, r0, cr15, cr12, {1}
    8084:	e59f2434 	ldr	r2, [pc, #1076]	; 84c0 <scope+0x460>
    8088:	e59f542c 	ldr	r5, [pc, #1068]	; 84bc <scope+0x45c>
    808c:	e3a04001 	mov	r4, #1
    8090:	ea000000 	b	8098 <scope+0x38>
    8094:	e1a0e003 	mov	lr, r3
    8098:	e5953034 	ldr	r3, [r5, #52]	; 0x34
    809c:	e28d8058 	add	r8, sp, #88	; 0x58
    80a0:	e15e0003 	cmp	lr, r3
    80a4:	e088c184 	add	ip, r8, r4, lsl #3
    80a8:	0a000004 	beq	80c0 <scope+0x60>
    80ac:	e50c3058 	str	r3, [ip, #-88]	; 0x58
    80b0:	e24cc058 	sub	ip, ip, #88	; 0x58
    80b4:	ee1fef3c 	mrc	15, 0, lr, cr15, cr12, {1}
    80b8:	e58ce004 	str	lr, [ip, #4]
    80bc:	e2844001 	add	r4, r4, #1
    80c0:	e2522001 	subs	r2, r2, #1
    80c4:	1afffff2 	bne	8094 <scope+0x34>
    80c8:	e3540000 	cmp	r4, #0
    80cc:	0a0000ec 	beq	8484 <scope+0x424>
    80d0:	e3a0c001 	mov	ip, #1
    80d4:	e1a0c61c 	lsl	ip, ip, r6
    80d8:	e00c5007 	and	r5, ip, r7
    80dc:	e1a05635 	lsr	r5, r5, r6
    80e0:	e1a0e002 	mov	lr, r2
    80e4:	e2657001 	rsb	r7, r5, #1
    80e8:	e35e0000 	cmp	lr, #0
    80ec:	179d3002 	ldrne	r3, [sp, r2]
    80f0:	e28ee001 	add	lr, lr, #1
    80f4:	100c3003 	andne	r3, ip, r3
    80f8:	11a03633 	lsrne	r3, r3, r6
    80fc:	058d7000 	streq	r7, [sp]
    8100:	178d3002 	strne	r3, [sp, r2]
    8104:	058d0004 	streq	r0, [sp, #4]
    8108:	e15e0004 	cmp	lr, r4
    810c:	e2822008 	add	r2, r2, #8
    8110:	1afffff4 	bne	80e8 <scope+0x88>
    8114:	e3540002 	cmp	r4, #2
    8118:	e2443001 	sub	r3, r4, #1
    811c:	9a0000e3 	bls	84b0 <scope+0x450>
    8120:	e59d200c 	ldr	r2, [sp, #12]
    8124:	e59d6004 	ldr	r6, [sp, #4]
    8128:	e59dc014 	ldr	ip, [sp, #20]
    812c:	e59de000 	ldr	lr, [sp]
    8130:	e59d0008 	ldr	r0, [sp, #8]
    8134:	e0666002 	rsb	r6, r6, r2
    8138:	e3530003 	cmp	r3, #3
    813c:	e062200c 	rsb	r2, r2, ip
    8140:	e5816004 	str	r6, [r1, #4]
    8144:	e581200c 	str	r2, [r1, #12]
    8148:	e581e000 	str	lr, [r1]
    814c:	e5810008 	str	r0, [r1, #8]
    8150:	9a0000bf 	bls	8454 <scope+0x3f4>
    8154:	e59d201c 	ldr	r2, [sp, #28]
    8158:	e59d0024 	ldr	r0, [sp, #36]	; 0x24
    815c:	e59d6010 	ldr	r6, [sp, #16]
    8160:	e59de018 	ldr	lr, [sp, #24]
    8164:	e06cc002 	rsb	ip, ip, r2
    8168:	e3530005 	cmp	r3, #5
    816c:	e0622000 	rsb	r2, r2, r0
    8170:	e581c014 	str	ip, [r1, #20]
    8174:	e581201c 	str	r2, [r1, #28]
    8178:	e5816010 	str	r6, [r1, #16]
    817c:	e581e018 	str	lr, [r1, #24]
    8180:	9a0000b6 	bls	8460 <scope+0x400>
    8184:	e59d202c 	ldr	r2, [sp, #44]	; 0x2c
    8188:	e59dc034 	ldr	ip, [sp, #52]	; 0x34
    818c:	e59d6020 	ldr	r6, [sp, #32]
    8190:	e59de028 	ldr	lr, [sp, #40]	; 0x28
    8194:	e0600002 	rsb	r0, r0, r2
    8198:	e3530007 	cmp	r3, #7
    819c:	e062200c 	rsb	r2, r2, ip
    81a0:	e5810024 	str	r0, [r1, #36]	; 0x24
    81a4:	e581202c 	str	r2, [r1, #44]	; 0x2c
    81a8:	e5816020 	str	r6, [r1, #32]
    81ac:	e581e028 	str	lr, [r1, #40]	; 0x28
    81b0:	9a0000ad 	bls	846c <scope+0x40c>
    81b4:	e59d003c 	ldr	r0, [sp, #60]	; 0x3c
    81b8:	e59d2044 	ldr	r2, [sp, #68]	; 0x44
    81bc:	e59d6030 	ldr	r6, [sp, #48]	; 0x30
    81c0:	e59de038 	ldr	lr, [sp, #56]	; 0x38
    81c4:	e06cc000 	rsb	ip, ip, r0
    81c8:	e3530009 	cmp	r3, #9
    81cc:	e0600002 	rsb	r0, r0, r2
    81d0:	e581c034 	str	ip, [r1, #52]	; 0x34
    81d4:	e581003c 	str	r0, [r1, #60]	; 0x3c
    81d8:	e5816030 	str	r6, [r1, #48]	; 0x30
    81dc:	e581e038 	str	lr, [r1, #56]	; 0x38
    81e0:	9a0000a4 	bls	8478 <scope+0x418>
    81e4:	e59d304c 	ldr	r3, [sp, #76]	; 0x4c
    81e8:	e59d6054 	ldr	r6, [sp, #84]	; 0x54
    81ec:	e59dc040 	ldr	ip, [sp, #64]	; 0x40
    81f0:	e59d0048 	ldr	r0, [sp, #72]	; 0x48
    81f4:	e062e003 	rsb	lr, r2, r3
    81f8:	e0633006 	rsb	r3, r3, r6
    81fc:	e3a0200a 	mov	r2, #10
    8200:	e581304c 	str	r3, [r1, #76]	; 0x4c
    8204:	e581e044 	str	lr, [r1, #68]	; 0x44
    8208:	e581c040 	str	ip, [r1, #64]	; 0x40
    820c:	e5810048 	str	r0, [r1, #72]	; 0x48
    8210:	e1a03002 	mov	r3, r2
    8214:	e283c001 	add	ip, r3, #1
    8218:	e28de058 	add	lr, sp, #88	; 0x58
    821c:	e28d7058 	add	r7, sp, #88	; 0x58
    8220:	e1a0618c 	lsl	r6, ip, #3
    8224:	e0870183 	add	r0, r7, r3, lsl #3
    8228:	e08ea006 	add	sl, lr, r6
    822c:	e5107054 	ldr	r7, [r0, #-84]	; 0x54
    8230:	e51ae054 	ldr	lr, [sl, #-84]	; 0x54
    8234:	e5108058 	ldr	r8, [r0, #-88]	; 0x58
    8238:	e067700e 	rsb	r7, r7, lr
    823c:	e0810182 	add	r0, r1, r2, lsl #3
    8240:	e15c0004 	cmp	ip, r4
    8244:	e7818182 	str	r8, [r1, r2, lsl #3]
    8248:	e5807004 	str	r7, [r0, #4]
    824c:	2a000067 	bcs	83f0 <scope+0x390>
    8250:	e2830002 	add	r0, r3, #2
    8254:	e28d2058 	add	r2, sp, #88	; 0x58
    8258:	e1a08180 	lsl	r8, r0, #3
    825c:	e0829008 	add	r9, r2, r8
    8260:	e5197054 	ldr	r7, [r9, #-84]	; 0x54
    8264:	e51a2058 	ldr	r2, [sl, #-88]	; 0x58
    8268:	e0816006 	add	r6, r1, r6
    826c:	e06ee007 	rsb	lr, lr, r7
    8270:	e1540000 	cmp	r4, r0
    8274:	e781218c 	str	r2, [r1, ip, lsl #3]
    8278:	e586e004 	str	lr, [r6, #4]
    827c:	9a00005b 	bls	83f0 <scope+0x390>
    8280:	e2832003 	add	r2, r3, #3
    8284:	e28dc058 	add	ip, sp, #88	; 0x58
    8288:	e1a0e182 	lsl	lr, r2, #3
    828c:	e08c600e 	add	r6, ip, lr
    8290:	e516c054 	ldr	ip, [r6, #-84]	; 0x54
    8294:	e5199058 	ldr	r9, [r9, #-88]	; 0x58
    8298:	e0818008 	add	r8, r1, r8
    829c:	e067700c 	rsb	r7, r7, ip
    82a0:	e1540002 	cmp	r4, r2
    82a4:	e7819180 	str	r9, [r1, r0, lsl #3]
    82a8:	e5887004 	str	r7, [r8, #4]
    82ac:	9a00004f 	bls	83f0 <scope+0x390>
    82b0:	e2830004 	add	r0, r3, #4
    82b4:	e28d7058 	add	r7, sp, #88	; 0x58
    82b8:	e1a08180 	lsl	r8, r0, #3
    82bc:	e0879008 	add	r9, r7, r8
    82c0:	e5197054 	ldr	r7, [r9, #-84]	; 0x54
    82c4:	e5166058 	ldr	r6, [r6, #-88]	; 0x58
    82c8:	e081e00e 	add	lr, r1, lr
    82cc:	e06cc007 	rsb	ip, ip, r7
    82d0:	e1540000 	cmp	r4, r0
    82d4:	e7816182 	str	r6, [r1, r2, lsl #3]
    82d8:	e58ec004 	str	ip, [lr, #4]
    82dc:	9a000043 	bls	83f0 <scope+0x390>
    82e0:	e2832005 	add	r2, r3, #5
    82e4:	e28dc058 	add	ip, sp, #88	; 0x58
    82e8:	e1a0e182 	lsl	lr, r2, #3
    82ec:	e08c600e 	add	r6, ip, lr
    82f0:	e516c054 	ldr	ip, [r6, #-84]	; 0x54
    82f4:	e5199058 	ldr	r9, [r9, #-88]	; 0x58
    82f8:	e0818008 	add	r8, r1, r8
    82fc:	e067700c 	rsb	r7, r7, ip
    8300:	e1540002 	cmp	r4, r2
    8304:	e7819180 	str	r9, [r1, r0, lsl #3]
    8308:	e5887004 	str	r7, [r8, #4]
    830c:	9a000037 	bls	83f0 <scope+0x390>
    8310:	e2830006 	add	r0, r3, #6
    8314:	e28d7058 	add	r7, sp, #88	; 0x58
    8318:	e1a08180 	lsl	r8, r0, #3
    831c:	e0879008 	add	r9, r7, r8
    8320:	e5197054 	ldr	r7, [r9, #-84]	; 0x54
    8324:	e5166058 	ldr	r6, [r6, #-88]	; 0x58
    8328:	e081e00e 	add	lr, r1, lr
    832c:	e06cc007 	rsb	ip, ip, r7
    8330:	e1540000 	cmp	r4, r0
    8334:	e7816182 	str	r6, [r1, r2, lsl #3]
    8338:	e58ec004 	str	ip, [lr, #4]
    833c:	9a00002b 	bls	83f0 <scope+0x390>
    8340:	e2832007 	add	r2, r3, #7
    8344:	e28dc058 	add	ip, sp, #88	; 0x58
    8348:	e1a0e182 	lsl	lr, r2, #3
    834c:	e08c600e 	add	r6, ip, lr
    8350:	e516c054 	ldr	ip, [r6, #-84]	; 0x54
    8354:	e5199058 	ldr	r9, [r9, #-88]	; 0x58
    8358:	e0818008 	add	r8, r1, r8
    835c:	e067700c 	rsb	r7, r7, ip
    8360:	e1540002 	cmp	r4, r2
    8364:	e7819180 	str	r9, [r1, r0, lsl #3]
    8368:	e5887004 	str	r7, [r8, #4]
    836c:	9a00001f 	bls	83f0 <scope+0x390>
    8370:	e2830008 	add	r0, r3, #8
    8374:	e28d7058 	add	r7, sp, #88	; 0x58
    8378:	e1a08180 	lsl	r8, r0, #3
    837c:	e0879008 	add	r9, r7, r8
    8380:	e5197054 	ldr	r7, [r9, #-84]	; 0x54
    8384:	e5166058 	ldr	r6, [r6, #-88]	; 0x58
    8388:	e081e00e 	add	lr, r1, lr
    838c:	e06cc007 	rsb	ip, ip, r7
    8390:	e1540000 	cmp	r4, r0
    8394:	e7816182 	str	r6, [r1, r2, lsl #3]
    8398:	e58ec004 	str	ip, [lr, #4]
    839c:	9a000013 	bls	83f0 <scope+0x390>
    83a0:	e2832009 	add	r2, r3, #9
    83a4:	e28de058 	add	lr, sp, #88	; 0x58
    83a8:	e1a0c182 	lsl	ip, r2, #3
    83ac:	e08e600c 	add	r6, lr, ip
    83b0:	e516e054 	ldr	lr, [r6, #-84]	; 0x54
    83b4:	e5199058 	ldr	r9, [r9, #-88]	; 0x58
    83b8:	e0818008 	add	r8, r1, r8
    83bc:	e067700e 	rsb	r7, r7, lr
    83c0:	e1540002 	cmp	r4, r2
    83c4:	e7819180 	str	r9, [r1, r0, lsl #3]
    83c8:	e5887004 	str	r7, [r8, #4]
    83cc:	9a000007 	bls	83f0 <scope+0x390>
    83d0:	e28d0058 	add	r0, sp, #88	; 0x58
    83d4:	e0803183 	add	r3, r0, r3, lsl #3
    83d8:	e5130004 	ldr	r0, [r3, #-4]
    83dc:	e5163058 	ldr	r3, [r6, #-88]	; 0x58
    83e0:	e06ee000 	rsb	lr, lr, r0
    83e4:	e081c00c 	add	ip, r1, ip
    83e8:	e7813182 	str	r3, [r1, r2, lsl #3]
    83ec:	e58ce004 	str	lr, [ip, #4]
    83f0:	e1a01005 	mov	r1, r5
    83f4:	e59f00c8 	ldr	r0, [pc, #200]	; 84c4 <scope+0x464>
    83f8:	eb00006e 	bl	85b8 <printk>
    83fc:	e1a01004 	mov	r1, r4
    8400:	e59f00c0 	ldr	r0, [pc, #192]	; 84c8 <scope+0x468>
    8404:	eb00006b 	bl	85b8 <printk>
    8408:	e59f00bc 	ldr	r0, [pc, #188]	; 84cc <scope+0x46c>
    840c:	eb000069 	bl	85b8 <printk>
    8410:	e3a06000 	mov	r6, #0
    8414:	e1a05006 	mov	r5, r6
    8418:	e28d3000 	add	r3, sp, #0
    841c:	e7b32006 	ldr	r2, [r3, r6]!
    8420:	e1a01005 	mov	r1, r5
    8424:	e59f00a4 	ldr	r0, [pc, #164]	; 84d0 <scope+0x470>
    8428:	e5933004 	ldr	r3, [r3, #4]
    842c:	e2855001 	add	r5, r5, #1
    8430:	eb000060 	bl	85b8 <printk>
    8434:	e1550004 	cmp	r5, r4
    8438:	e2866008 	add	r6, r6, #8
    843c:	1afffff5 	bne	8418 <scope+0x3b8>
    8440:	e59f008c 	ldr	r0, [pc, #140]	; 84d4 <scope+0x474>
    8444:	eb00005b 	bl	85b8 <printk>
    8448:	e1a00004 	mov	r0, r4
    844c:	e28dd058 	add	sp, sp, #88	; 0x58
    8450:	e8bd87f0 	pop	{r4, r5, r6, r7, r8, r9, sl, pc}
    8454:	e3a02002 	mov	r2, #2
    8458:	e1a03002 	mov	r3, r2
    845c:	eaffff6c 	b	8214 <scope+0x1b4>
    8460:	e3a02004 	mov	r2, #4
    8464:	e1a03002 	mov	r3, r2
    8468:	eaffff69 	b	8214 <scope+0x1b4>
    846c:	e3a02006 	mov	r2, #6
    8470:	e1a03002 	mov	r3, r2
    8474:	eaffff66 	b	8214 <scope+0x1b4>
    8478:	e3a02008 	mov	r2, #8
    847c:	e1a03002 	mov	r3, r2
    8480:	eaffff63 	b	8214 <scope+0x1b4>
    8484:	e3a01001 	mov	r1, #1
    8488:	e0071611 	and	r1, r7, r1, lsl r6
    848c:	e59f0030 	ldr	r0, [pc, #48]	; 84c4 <scope+0x464>
    8490:	e1a01631 	lsr	r1, r1, r6
    8494:	eb000047 	bl	85b8 <printk>
    8498:	e1a01004 	mov	r1, r4
    849c:	e59f0024 	ldr	r0, [pc, #36]	; 84c8 <scope+0x468>
    84a0:	eb000044 	bl	85b8 <printk>
    84a4:	e59f0020 	ldr	r0, [pc, #32]	; 84cc <scope+0x46c>
    84a8:	eb000042 	bl	85b8 <printk>
    84ac:	eaffffe3 	b	8440 <scope+0x3e0>
    84b0:	e3a02000 	mov	r2, #0
    84b4:	e1a03002 	mov	r3, r2
    84b8:	eaffff55 	b	8214 <scope+0x1b4>
    84bc:	20200000 	eorcs	r0, r0, r0
    84c0:	00004e20 	andeq	r4, r0, r0, lsr #28
    84c4:	00009cac 	andeq	r9, r0, ip, lsr #25
    84c8:	00009cbc 			; <UNDEFINED> instruction: 0x00009cbc
    84cc:	00009cd4 	ldrdeq	r9, [r0], -r4
    84d0:	00009ce8 	andeq	r9, r0, r8, ror #25
    84d4:	00009d00 	andeq	r9, r0, r0, lsl #26

000084d8 <dump_samples>:
    84d8:	e92d47f0 	push	{r4, r5, r6, r7, r8, r9, sl, lr}
    84dc:	e2519001 	subs	r9, r1, #1
    84e0:	e24dd010 	sub	sp, sp, #16
    84e4:	e1a0a000 	mov	sl, r0
    84e8:	e1a08002 	mov	r8, r2
    84ec:	0a00001a 	beq	855c <dump_samples+0x84>
    84f0:	e3a02000 	mov	r2, #0
    84f4:	e1a01002 	mov	r1, r2
    84f8:	e1a06002 	mov	r6, r2
    84fc:	e1a05002 	mov	r5, r2
    8500:	e1a04008 	mov	r4, r8
    8504:	ea000001 	b	8510 <dump_samples+0x38>
    8508:	e1a01007 	mov	r1, r7
    850c:	e1a02007 	mov	r2, r7
    8510:	e1a02182 	lsl	r2, r2, #3
    8514:	e08a3002 	add	r3, sl, r2
    8518:	e5933004 	ldr	r3, [r3, #4]
    851c:	e79a2002 	ldr	r2, [sl, r2]
    8520:	e0855003 	add	r5, r5, r3
    8524:	e1550004 	cmp	r5, r4
    8528:	80640005 	rsbhi	r0, r4, r5
    852c:	90650004 	rsbls	r0, r5, r4
    8530:	e0866000 	add	r6, r6, r0
    8534:	e2817001 	add	r7, r1, #1
    8538:	e58d4004 	str	r4, [sp, #4]
    853c:	e58d0008 	str	r0, [sp, #8]
    8540:	e58d600c 	str	r6, [sp, #12]
    8544:	e58d5000 	str	r5, [sp]
    8548:	e59f0014 	ldr	r0, [pc, #20]	; 8564 <dump_samples+0x8c>
    854c:	eb000019 	bl	85b8 <printk>
    8550:	e1570009 	cmp	r7, r9
    8554:	e0844008 	add	r4, r4, r8
    8558:	1affffea 	bne	8508 <dump_samples+0x30>
    855c:	e28dd010 	add	sp, sp, #16
    8560:	e8bd87f0 	pop	{r4, r5, r6, r7, r8, r9, sl, pc}
    8564:	00009d10 	andeq	r9, r0, r0, lsl sp

00008568 <notmain>:
    8568:	e52de004 	push	{lr}		; (str lr, [sp, #-4]!)
    856c:	e24dd054 	sub	sp, sp, #84	; 0x54
    8570:	eb00018b 	bl	8ba4 <enable_cache>
    8574:	e3a00015 	mov	r0, #21
    8578:	eb000257 	bl	8edc <gpio_set_input>
    857c:	e3a03001 	mov	r3, #1
    8580:	ee0f3f1c 	mcr	15, 0, r3, cr15, cr12, {0}
    8584:	e3a00001 	mov	r0, #1
    8588:	ebfffea0 	bl	8010 <cycles_per_sec>
    858c:	e1a0100d 	mov	r1, sp
    8590:	e1a03000 	mov	r3, r0
    8594:	e3a0200a 	mov	r2, #10
    8598:	e3a00015 	mov	r0, #21
    859c:	ebfffeaf 	bl	8060 <scope>
    85a0:	e59f200c 	ldr	r2, [pc, #12]	; 85b4 <notmain+0x4c>
    85a4:	e1a01000 	mov	r1, r0
    85a8:	e1a0000d 	mov	r0, sp
    85ac:	ebffffc9 	bl	84d8 <dump_samples>
    85b0:	eb000183 	bl	8bc4 <clean_reboot>
    85b4:	00001770 	andeq	r1, r0, r0, ror r7

000085b8 <printk>:
    85b8:	e92d000f 	push	{r0, r1, r2, r3}
    85bc:	e92d4030 	push	{r4, r5, lr}
    85c0:	e24dd00c 	sub	sp, sp, #12
    85c4:	e28d301c 	add	r3, sp, #28
    85c8:	e58d3004 	str	r3, [sp, #4]
    85cc:	e59f4034 	ldr	r4, [pc, #52]	; 8608 <printk+0x50>
    85d0:	e1a00004 	mov	r0, r4
    85d4:	e3a01b01 	mov	r1, #1024	; 0x400
    85d8:	e59d2018 	ldr	r2, [sp, #24]
    85dc:	eb0000cb 	bl	8910 <va_printk>
    85e0:	e1a05000 	mov	r5, r0
    85e4:	e59f3020 	ldr	r3, [pc, #32]	; 860c <printk+0x54>
    85e8:	e5933000 	ldr	r3, [r3]
    85ec:	e1a00004 	mov	r0, r4
    85f0:	e12fff33 	blx	r3
    85f4:	e1a00005 	mov	r0, r5
    85f8:	e28dd00c 	add	sp, sp, #12
    85fc:	e8bd4030 	pop	{r4, r5, lr}
    8600:	e28dd010 	add	sp, sp, #16
    8604:	e12fff1e 	bx	lr
    8608:	00009f88 	andeq	r9, r0, r8, lsl #31
    860c:	00009bcc 	andeq	r9, r0, ip, asr #23

00008610 <internal_putchar>:
    8610:	e92d4010 	push	{r4, lr}
    8614:	e1a04000 	mov	r4, r0
    8618:	eb00051f 	bl	9a9c <uart_putc>
    861c:	e1a00004 	mov	r0, r4
    8620:	e8bd8010 	pop	{r4, pc}

00008624 <rpi_reset_putc>:
    8624:	e59f2008 	ldr	r2, [pc, #8]	; 8634 <rpi_reset_putc+0x10>
    8628:	e59f3008 	ldr	r3, [pc, #8]	; 8638 <rpi_reset_putc+0x14>
    862c:	e5832000 	str	r2, [r3]
    8630:	e12fff1e 	bx	lr
    8634:	00008610 	andeq	r8, r0, r0, lsl r6
    8638:	00009bc8 	andeq	r9, r0, r8, asr #23

0000863c <rpi_set_putc>:
    863c:	e59f3004 	ldr	r3, [pc, #4]	; 8648 <rpi_set_putc+0xc>
    8640:	e5830000 	str	r0, [r3]
    8644:	e12fff1e 	bx	lr
    8648:	00009bc8 	andeq	r9, r0, r8, asr #23

0000864c <internal_putk>:
    864c:	e92d4038 	push	{r3, r4, r5, lr}
    8650:	e1a04000 	mov	r4, r0
    8654:	e59f5020 	ldr	r5, [pc, #32]	; 867c <internal_putk+0x30>
    8658:	ea000002 	b	8668 <internal_putk+0x1c>
    865c:	e5953000 	ldr	r3, [r5]
    8660:	e12fff33 	blx	r3
    8664:	e2844001 	add	r4, r4, #1
    8668:	e5d40000 	ldrb	r0, [r4]
    866c:	e3500000 	cmp	r0, #0
    8670:	1afffff9 	bne	865c <internal_putk+0x10>
    8674:	e3a00001 	mov	r0, #1
    8678:	e8bd8038 	pop	{r3, r4, r5, pc}
    867c:	00009bc8 	andeq	r9, r0, r8, asr #23

00008680 <isdigit>:
    8680:	e2400030 	sub	r0, r0, #48	; 0x30
    8684:	e3500009 	cmp	r0, #9
    8688:	83a00000 	movhi	r0, #0
    868c:	93a00001 	movls	r0, #1
    8690:	e12fff1e 	bx	lr

00008694 <pad>:
    8694:	e0611000 	rsb	r1, r1, r0
    8698:	e3a03020 	mov	r3, #32
    869c:	ea000002 	b	86ac <pad+0x18>
    86a0:	e5c03000 	strb	r3, [r0]
    86a4:	e2811001 	add	r1, r1, #1
    86a8:	e2800001 	add	r0, r0, #1
    86ac:	e1510002 	cmp	r1, r2
    86b0:	bafffffa 	blt	86a0 <pad+0xc>
    86b4:	e3a03000 	mov	r3, #0
    86b8:	e5c03000 	strb	r3, [r0]
    86bc:	e12fff1e 	bx	lr

000086c0 <reverse>:
    86c0:	e063c002 	rsb	ip, r3, r2
    86c4:	e28cc001 	add	ip, ip, #1
    86c8:	e15c0001 	cmp	ip, r1
    86cc:	c061100c 	rsbgt	r1, r1, ip
    86d0:	c0833001 	addgt	r3, r3, r1
    86d4:	e2422001 	sub	r2, r2, #1
    86d8:	e1a01000 	mov	r1, r0
    86dc:	ea000002 	b	86ec <reverse+0x2c>
    86e0:	e452c001 	ldrb	ip, [r2], #-1
    86e4:	e5c1c000 	strb	ip, [r1]
    86e8:	e2811001 	add	r1, r1, #1
    86ec:	e1520003 	cmp	r2, r3
    86f0:	2afffffa 	bcs	86e0 <reverse+0x20>
    86f4:	e3a03000 	mov	r3, #0
    86f8:	e5c13000 	strb	r3, [r1]
    86fc:	e12fff1e 	bx	lr

00008700 <emit>:
    8700:	e92d41f0 	push	{r4, r5, r6, r7, r8, lr}
    8704:	e24dd048 	sub	sp, sp, #72	; 0x48
    8708:	e1a05001 	mov	r5, r1
    870c:	e1a04002 	mov	r4, r2
    8710:	e59d2060 	ldr	r2, [sp, #96]	; 0x60
    8714:	e1520004 	cmp	r2, r4
    8718:	c2442001 	subgt	r2, r4, #1
    871c:	e1a0c003 	mov	ip, r3
    8720:	e2400002 	sub	r0, r0, #2
    8724:	e350000e 	cmp	r0, #14
    8728:	979ff100 	ldrls	pc, [pc, r0, lsl #2]
    872c:	ea000042 	b	883c <emit+0x13c>
    8730:	00008814 	andeq	r8, r0, r4, lsl r8
    8734:	0000883c 	andeq	r8, r0, ip, lsr r8
    8738:	0000883c 	andeq	r8, r0, ip, lsr r8
    873c:	0000883c 	andeq	r8, r0, ip, lsr r8
    8740:	0000883c 	andeq	r8, r0, ip, lsr r8
    8744:	0000883c 	andeq	r8, r0, ip, lsr r8
    8748:	00008808 	andeq	r8, r0, r8, lsl #16
    874c:	0000883c 	andeq	r8, r0, ip, lsr r8
    8750:	0000876c 	andeq	r8, r0, ip, ror #14
    8754:	0000883c 	andeq	r8, r0, ip, lsr r8
    8758:	0000883c 	andeq	r8, r0, ip, lsr r8
    875c:	0000883c 	andeq	r8, r0, ip, lsr r8
    8760:	0000883c 	andeq	r8, r0, ip, lsr r8
    8764:	0000883c 	andeq	r8, r0, ip, lsr r8
    8768:	000087e0 	andeq	r8, r0, r0, ror #15
    876c:	e59d1064 	ldr	r1, [sp, #100]	; 0x64
    8770:	e2911000 	adds	r1, r1, #0
    8774:	13a01001 	movne	r1, #1
    8778:	e0111fa3 	ands	r1, r1, r3, lsr #31
    877c:	1263c000 	rsbne	ip, r3, #0
    8780:	13a08001 	movne	r8, #1
    8784:	03a08000 	moveq	r8, #0
    8788:	e28d1008 	add	r1, sp, #8
    878c:	e59f70f4 	ldr	r7, [pc, #244]	; 8888 <emit+0x188>
    8790:	e59f60f4 	ldr	r6, [pc, #244]	; 888c <emit+0x18c>
    8794:	ea000000 	b	879c <emit+0x9c>
    8798:	e1a01003 	mov	r1, r3
    879c:	e2813001 	add	r3, r1, #1
    87a0:	e08e0c97 	umull	r0, lr, r7, ip
    87a4:	e1a0e1ae 	lsr	lr, lr, #3
    87a8:	e1a0000e 	mov	r0, lr
    87ac:	e08ee10e 	add	lr, lr, lr, lsl #2
    87b0:	e1a0e08e 	lsl	lr, lr, #1
    87b4:	e06ee00c 	rsb	lr, lr, ip
    87b8:	e7d6c00e 	ldrb	ip, [r6, lr]
    87bc:	e5c1c000 	strb	ip, [r1]
    87c0:	e1a0c000 	mov	ip, r0
    87c4:	e3500000 	cmp	r0, #0
    87c8:	1afffff2 	bne	8798 <emit+0x98>
    87cc:	e3580000 	cmp	r8, #0
    87d0:	12813002 	addne	r3, r1, #2
    87d4:	13a0002d 	movne	r0, #45	; 0x2d
    87d8:	15c10001 	strbne	r0, [r1, #1]
    87dc:	ea00001f 	b	8860 <emit+0x160>
    87e0:	e28de008 	add	lr, sp, #8
    87e4:	e59f00a4 	ldr	r0, [pc, #164]	; 8890 <emit+0x190>
    87e8:	e28e3001 	add	r3, lr, #1
    87ec:	e20c100f 	and	r1, ip, #15
    87f0:	e7d01001 	ldrb	r1, [r0, r1]
    87f4:	e5ce1000 	strb	r1, [lr]
    87f8:	e1a0e003 	mov	lr, r3
    87fc:	e1b0c22c 	lsrs	ip, ip, #4
    8800:	1afffff8 	bne	87e8 <emit+0xe8>
    8804:	ea000015 	b	8860 <emit+0x160>
    8808:	e5cd3008 	strb	r3, [sp, #8]
    880c:	e28d3009 	add	r3, sp, #9
    8810:	ea000012 	b	8860 <emit+0x160>
    8814:	e28de008 	add	lr, sp, #8
    8818:	e59f0074 	ldr	r0, [pc, #116]	; 8894 <emit+0x194>
    881c:	e28e3001 	add	r3, lr, #1
    8820:	e20c1001 	and	r1, ip, #1
    8824:	e7d01001 	ldrb	r1, [r0, r1]
    8828:	e5ce1000 	strb	r1, [lr]
    882c:	e1a0e003 	mov	lr, r3
    8830:	e1b0c0ac 	lsrs	ip, ip, #1
    8834:	1afffff8 	bne	881c <emit+0x11c>
    8838:	ea000008 	b	8860 <emit+0x160>
    883c:	ebffff78 	bl	8624 <rpi_reset_putc>
    8840:	e59f3050 	ldr	r3, [pc, #80]	; 8898 <emit+0x198>
    8844:	e58d3000 	str	r3, [sp]
    8848:	e59f004c 	ldr	r0, [pc, #76]	; 889c <emit+0x19c>
    884c:	e59f104c 	ldr	r1, [pc, #76]	; 88a0 <emit+0x1a0>
    8850:	e59f204c 	ldr	r2, [pc, #76]	; 88a4 <emit+0x1a4>
    8854:	e3a03075 	mov	r3, #117	; 0x75
    8858:	ebffff56 	bl	85b8 <printk>
    885c:	eb0000d8 	bl	8bc4 <clean_reboot>
    8860:	e1a00003 	mov	r0, r3
    8864:	e28d1008 	add	r1, sp, #8
    8868:	ebffff89 	bl	8694 <pad>
    886c:	e1a02000 	mov	r2, r0
    8870:	e1a00005 	mov	r0, r5
    8874:	e1a01004 	mov	r1, r4
    8878:	e28d3008 	add	r3, sp, #8
    887c:	ebffff8f 	bl	86c0 <reverse>
    8880:	e28dd048 	add	sp, sp, #72	; 0x48
    8884:	e8bd81f0 	pop	{r4, r5, r6, r7, r8, pc}
    8888:	cccccccd 	stclgt	12, cr12, [ip], {205}	; 0xcd
    888c:	00009d9c 	muleq	r0, ip, sp
    8890:	00009da8 	andeq	r9, r0, r8, lsr #27
    8894:	00009dbc 			; <UNDEFINED> instruction: 0x00009dbc
    8898:	00009d98 	muleq	r0, r8, sp
    889c:	00009d70 	andeq	r9, r0, r0, ror sp
    88a0:	00009d84 	andeq	r9, r0, r4, lsl #27
    88a4:	00009d4c 	andeq	r9, r0, ip, asr #26

000088a8 <rpi_set_output>:
    88a8:	e52de004 	push	{lr}		; (str lr, [sp, #-4]!)
    88ac:	e24dd00c 	sub	sp, sp, #12
    88b0:	e3500000 	cmp	r0, #0
    88b4:	1a000008 	bne	88dc <rpi_set_output+0x34>
    88b8:	ebffff59 	bl	8624 <rpi_reset_putc>
    88bc:	e59f3034 	ldr	r3, [pc, #52]	; 88f8 <rpi_set_output+0x50>
    88c0:	e58d3000 	str	r3, [sp]
    88c4:	e59f0030 	ldr	r0, [pc, #48]	; 88fc <rpi_set_output+0x54>
    88c8:	e59f1030 	ldr	r1, [pc, #48]	; 8900 <rpi_set_output+0x58>
    88cc:	e59f2030 	ldr	r2, [pc, #48]	; 8904 <rpi_set_output+0x5c>
    88d0:	e3a03020 	mov	r3, #32
    88d4:	ebffff37 	bl	85b8 <printk>
    88d8:	eb0000b9 	bl	8bc4 <clean_reboot>
    88dc:	e59f3024 	ldr	r3, [pc, #36]	; 8908 <rpi_set_output+0x60>
    88e0:	e5830000 	str	r0, [r3]
    88e4:	e3510000 	cmp	r1, #0
    88e8:	159f301c 	ldrne	r3, [pc, #28]	; 890c <rpi_set_output+0x64>
    88ec:	15831000 	strne	r1, [r3]
    88f0:	e28dd00c 	add	sp, sp, #12
    88f4:	e49df004 	pop	{pc}		; (ldr pc, [sp], #4)
    88f8:	00009dc0 	andeq	r9, r0, r0, asr #27
    88fc:	00009d70 	andeq	r9, r0, r0, ror sp
    8900:	00009d84 	andeq	r9, r0, r4, lsl #27
    8904:	00009d54 	andeq	r9, r0, r4, asr sp
    8908:	00009bc8 	andeq	r9, r0, r8, asr #23
    890c:	00009bcc 	andeq	r9, r0, ip, asr #23

00008910 <va_printk>:
    8910:	e92d4ff0 	push	{r4, r5, r6, r7, r8, r9, sl, fp, lr}
    8914:	e24dd08c 	sub	sp, sp, #140	; 0x8c
    8918:	e1a0a000 	mov	sl, r0
    891c:	e1a09003 	mov	r9, r3
    8920:	e2411001 	sub	r1, r1, #1
    8924:	e0808001 	add	r8, r0, r1
    8928:	e3a03000 	mov	r3, #0
    892c:	e5c03000 	strb	r3, [r0]
    8930:	e1a04000 	mov	r4, r0
    8934:	e1a0b003 	mov	fp, r3
    8938:	ea000088 	b	8b60 <va_printk+0x250>
    893c:	e3530025 	cmp	r3, #37	; 0x25
    8940:	12822001 	addne	r2, r2, #1
    8944:	15c43000 	strbne	r3, [r4]
    8948:	12844001 	addne	r4, r4, #1
    894c:	1a000083 	bne	8b60 <va_printk+0x250>
    8950:	e5d21001 	ldrb	r1, [r2, #1]
    8954:	e3510025 	cmp	r1, #37	; 0x25
    8958:	05c43000 	strbeq	r3, [r4]
    895c:	02822002 	addeq	r2, r2, #2
    8960:	02844001 	addeq	r4, r4, #1
    8964:	0a00007d 	beq	8b60 <va_printk+0x250>
    8968:	e2826001 	add	r6, r2, #1
    896c:	e1a0700b 	mov	r7, fp
    8970:	ea000004 	b	8988 <va_printk+0x78>
    8974:	e0877107 	add	r7, r7, r7, lsl #2
    8978:	e1a07087 	lsl	r7, r7, #1
    897c:	e0877005 	add	r7, r7, r5
    8980:	e2477030 	sub	r7, r7, #48	; 0x30
    8984:	e2866001 	add	r6, r6, #1
    8988:	e5d65000 	ldrb	r5, [r6]
    898c:	e1a00005 	mov	r0, r5
    8990:	ebffff3a 	bl	8680 <isdigit>
    8994:	e3500000 	cmp	r0, #0
    8998:	1afffff5 	bne	8974 <va_printk+0x64>
    899c:	e357001f 	cmp	r7, #31
    89a0:	9a000008 	bls	89c8 <va_printk+0xb8>
    89a4:	ebffff1e 	bl	8624 <rpi_reset_putc>
    89a8:	e59f31dc 	ldr	r3, [pc, #476]	; 8b8c <va_printk+0x27c>
    89ac:	e58d3000 	str	r3, [sp]
    89b0:	e59f01d8 	ldr	r0, [pc, #472]	; 8b90 <va_printk+0x280>
    89b4:	e59f11d8 	ldr	r1, [pc, #472]	; 8b94 <va_printk+0x284>
    89b8:	e59f21d8 	ldr	r2, [pc, #472]	; 8b98 <va_printk+0x288>
    89bc:	e3a03092 	mov	r3, #146	; 0x92
    89c0:	ebfffefc 	bl	85b8 <printk>
    89c4:	eb00007e 	bl	8bc4 <clean_reboot>
    89c8:	e2455062 	sub	r5, r5, #98	; 0x62
    89cc:	e3550016 	cmp	r5, #22
    89d0:	979ff105 	ldrls	pc, [pc, r5, lsl #2]
    89d4:	ea00004e 	b	8b14 <va_printk+0x204>
    89d8:	00008ac0 	andeq	r8, r0, r0, asr #21
    89dc:	00008af0 	strdeq	r8, [r0], -r0
    89e0:	00008a50 	andeq	r8, r0, r0, asr sl
    89e4:	00008b14 	andeq	r8, r0, r4, lsl fp
    89e8:	00008a34 	andeq	r8, r0, r4, lsr sl
    89ec:	00008b14 	andeq	r8, r0, r4, lsl fp
    89f0:	00008b14 	andeq	r8, r0, r4, lsl fp
    89f4:	00008b14 	andeq	r8, r0, r4, lsl fp
    89f8:	00008b14 	andeq	r8, r0, r4, lsl fp
    89fc:	00008b14 	andeq	r8, r0, r4, lsl fp
    8a00:	00008b14 	andeq	r8, r0, r4, lsl fp
    8a04:	00008b14 	andeq	r8, r0, r4, lsl fp
    8a08:	00008b14 	andeq	r8, r0, r4, lsl fp
    8a0c:	00008b14 	andeq	r8, r0, r4, lsl fp
    8a10:	00008a9c 	muleq	r0, ip, sl
    8a14:	00008b14 	andeq	r8, r0, r4, lsl fp
    8a18:	00008b14 	andeq	r8, r0, r4, lsl fp
    8a1c:	00008ae4 	andeq	r8, r0, r4, ror #21
    8a20:	00008b14 	andeq	r8, r0, r4, lsl fp
    8a24:	00008a78 	andeq	r8, r0, r8, ror sl
    8a28:	00008b14 	andeq	r8, r0, r4, lsl fp
    8a2c:	00008b14 	andeq	r8, r0, r4, lsl fp
    8a30:	00008a9c 	muleq	r0, ip, sl
    8a34:	ebfffefa 	bl	8624 <rpi_reset_putc>
    8a38:	e59f015c 	ldr	r0, [pc, #348]	; 8b9c <va_printk+0x28c>
    8a3c:	e59f1150 	ldr	r1, [pc, #336]	; 8b94 <va_printk+0x284>
    8a40:	e59f2150 	ldr	r2, [pc, #336]	; 8b98 <va_printk+0x288>
    8a44:	e3a03098 	mov	r3, #152	; 0x98
    8a48:	ebfffeda 	bl	85b8 <printk>
    8a4c:	eb00005c 	bl	8bc4 <clean_reboot>
    8a50:	e5993000 	ldr	r3, [r9]
    8a54:	e2899004 	add	r9, r9, #4
    8a58:	e58d7000 	str	r7, [sp]
    8a5c:	e3a02001 	mov	r2, #1
    8a60:	e58d2004 	str	r2, [sp, #4]
    8a64:	e3a0000a 	mov	r0, #10
    8a68:	e28d1008 	add	r1, sp, #8
    8a6c:	e3a02080 	mov	r2, #128	; 0x80
    8a70:	ebffff22 	bl	8700 <emit>
    8a74:	ea00002f 	b	8b38 <va_printk+0x228>
    8a78:	e5993000 	ldr	r3, [r9]
    8a7c:	e2899004 	add	r9, r9, #4
    8a80:	e58d7000 	str	r7, [sp]
    8a84:	e58db004 	str	fp, [sp, #4]
    8a88:	e3a0000a 	mov	r0, #10
    8a8c:	e28d1008 	add	r1, sp, #8
    8a90:	e3a02080 	mov	r2, #128	; 0x80
    8a94:	ebffff19 	bl	8700 <emit>
    8a98:	ea000026 	b	8b38 <va_printk+0x228>
    8a9c:	e5993000 	ldr	r3, [r9]
    8aa0:	e2899004 	add	r9, r9, #4
    8aa4:	e58d7000 	str	r7, [sp]
    8aa8:	e58db004 	str	fp, [sp, #4]
    8aac:	e3a00010 	mov	r0, #16
    8ab0:	e28d1008 	add	r1, sp, #8
    8ab4:	e3a02080 	mov	r2, #128	; 0x80
    8ab8:	ebffff10 	bl	8700 <emit>
    8abc:	ea00001d 	b	8b38 <va_printk+0x228>
    8ac0:	e5993000 	ldr	r3, [r9]
    8ac4:	e2899004 	add	r9, r9, #4
    8ac8:	e58d7000 	str	r7, [sp]
    8acc:	e58db004 	str	fp, [sp, #4]
    8ad0:	e3a00002 	mov	r0, #2
    8ad4:	e28d1008 	add	r1, sp, #8
    8ad8:	e3a02080 	mov	r2, #128	; 0x80
    8adc:	ebffff07 	bl	8700 <emit>
    8ae0:	ea000014 	b	8b38 <va_printk+0x228>
    8ae4:	e5990000 	ldr	r0, [r9]
    8ae8:	e2899004 	add	r9, r9, #4
    8aec:	ea000011 	b	8b38 <va_printk+0x228>
    8af0:	e5993000 	ldr	r3, [r9]
    8af4:	e2899004 	add	r9, r9, #4
    8af8:	e58d7000 	str	r7, [sp]
    8afc:	e58db004 	str	fp, [sp, #4]
    8b00:	e3a00008 	mov	r0, #8
    8b04:	e08d1000 	add	r1, sp, r0
    8b08:	e3a02080 	mov	r2, #128	; 0x80
    8b0c:	ebfffefb 	bl	8700 <emit>
    8b10:	ea000008 	b	8b38 <va_printk+0x228>
    8b14:	ebfffec2 	bl	8624 <rpi_reset_putc>
    8b18:	e5d63000 	ldrb	r3, [r6]
    8b1c:	e58d3000 	str	r3, [sp]
    8b20:	e59f0078 	ldr	r0, [pc, #120]	; 8ba0 <va_printk+0x290>
    8b24:	e59f1068 	ldr	r1, [pc, #104]	; 8b94 <va_printk+0x284>
    8b28:	e59f2068 	ldr	r2, [pc, #104]	; 8b98 <va_printk+0x288>
    8b2c:	e3a030b9 	mov	r3, #185	; 0xb9
    8b30:	ebfffea0 	bl	85b8 <printk>
    8b34:	eb000022 	bl	8bc4 <clean_reboot>
    8b38:	e2862001 	add	r2, r6, #1
    8b3c:	ea000002 	b	8b4c <va_printk+0x23c>
    8b40:	e2800001 	add	r0, r0, #1
    8b44:	e5c43000 	strb	r3, [r4]
    8b48:	e2844001 	add	r4, r4, #1
    8b4c:	e1540008 	cmp	r4, r8
    8b50:	2a000002 	bcs	8b60 <va_printk+0x250>
    8b54:	e5d03000 	ldrb	r3, [r0]
    8b58:	e3530000 	cmp	r3, #0
    8b5c:	1afffff7 	bne	8b40 <va_printk+0x230>
    8b60:	e5d23000 	ldrb	r3, [r2]
    8b64:	e3530000 	cmp	r3, #0
    8b68:	0a000001 	beq	8b74 <va_printk+0x264>
    8b6c:	e1540008 	cmp	r4, r8
    8b70:	3affff71 	bcc	893c <va_printk+0x2c>
    8b74:	e2840001 	add	r0, r4, #1
    8b78:	e3a03000 	mov	r3, #0
    8b7c:	e5c43000 	strb	r3, [r4]
    8b80:	e06a0000 	rsb	r0, sl, r0
    8b84:	e28dd08c 	add	sp, sp, #140	; 0x8c
    8b88:	e8bd8ff0 	pop	{r4, r5, r6, r7, r8, r9, sl, fp, pc}
    8b8c:	00009dc8 	andeq	r9, r0, r8, asr #27
    8b90:	00009d70 	andeq	r9, r0, r0, ror sp
    8b94:	00009d84 	andeq	r9, r0, r4, lsl #27
    8b98:	00009d64 	andeq	r9, r0, r4, ror #26
    8b9c:	00009dd4 	ldrdeq	r9, [r0], -r4
    8ba0:	00009dfc 	strdeq	r9, [r0], -ip

00008ba4 <enable_cache>:
    8ba4:	ee113f10 	mrc	15, 0, r3, cr1, cr0, {0}
    8ba8:	e3833b06 	orr	r3, r3, #6144	; 0x1800
    8bac:	ee013f10 	mcr	15, 0, r3, cr1, cr0, {0}
    8bb0:	e12fff1e 	bx	lr

00008bb4 <disable_cache>:
    8bb4:	ee113f10 	mrc	15, 0, r3, cr1, cr0, {0}
    8bb8:	e3c33b06 	bic	r3, r3, #6144	; 0x1800
    8bbc:	ee013f10 	mcr	15, 0, r3, cr1, cr0, {0}
    8bc0:	e12fff1e 	bx	lr

00008bc4 <clean_reboot>:
    8bc4:	e92d4008 	push	{r3, lr}
    8bc8:	e59f3014 	ldr	r3, [pc, #20]	; 8be4 <clean_reboot+0x20>
    8bcc:	e5933000 	ldr	r3, [r3]
    8bd0:	e59f0010 	ldr	r0, [pc, #16]	; 8be8 <clean_reboot+0x24>
    8bd4:	e12fff33 	blx	r3
    8bd8:	e3a00064 	mov	r0, #100	; 0x64
    8bdc:	eb000063 	bl	8d70 <delay_ms>
    8be0:	eb000038 	bl	8cc8 <rpi_reboot>
    8be4:	00009bcc 	andeq	r9, r0, ip, asr #23
    8be8:	00009e34 	andeq	r9, r0, r4, lsr lr

00008bec <internal_sw_putchar>:
    8bec:	e92d4010 	push	{r4, lr}
    8bf0:	e1a04000 	mov	r4, r0
    8bf4:	e59f000c 	ldr	r0, [pc, #12]	; 8c08 <internal_sw_putchar+0x1c>
    8bf8:	e6ef1074 	uxtb	r1, r4
    8bfc:	eb0001cd 	bl	9338 <sw_uart_putc>
    8c00:	e1a00004 	mov	r0, r4
    8c04:	e8bd8010 	pop	{r4, pc}
    8c08:	0000a388 	andeq	sl, r0, r8, lsl #7

00008c0c <_cstart>:
    8c0c:	e92d4008 	push	{r3, lr}
    8c10:	e59f3068 	ldr	r3, [pc, #104]	; 8c80 <_cstart+0x74>
    8c14:	e59f2068 	ldr	r2, [pc, #104]	; 8c84 <_cstart+0x78>
    8c18:	e3a01000 	mov	r1, #0
    8c1c:	ea000001 	b	8c28 <_cstart+0x1c>
    8c20:	e5831000 	str	r1, [r3]
    8c24:	e2833004 	add	r3, r3, #4
    8c28:	e1530002 	cmp	r3, r2
    8c2c:	3afffffb 	bcc	8c20 <_cstart+0x14>
    8c30:	eb0003d2 	bl	9b80 <cb_get_block>
    8c34:	e3500000 	cmp	r0, #0
    8c38:	0a00000e 	beq	8c78 <_cstart+0x6c>
    8c3c:	e5d02004 	ldrb	r2, [r0, #4]
    8c40:	e3520002 	cmp	r2, #2
    8c44:	1a00000b 	bne	8c78 <_cstart+0x6c>
    8c48:	e59f1038 	ldr	r1, [pc, #56]	; 8c88 <_cstart+0x7c>
    8c4c:	e59f2038 	ldr	r2, [pc, #56]	; 8c8c <_cstart+0x80>
    8c50:	e5821000 	str	r1, [r2]
    8c54:	e59fc034 	ldr	ip, [pc, #52]	; 8c90 <_cstart+0x84>
    8c58:	e2803008 	add	r3, r0, #8
    8c5c:	e8930007 	ldm	r3, {r0, r1, r2}
    8c60:	e88c0007 	stm	ip, {r0, r1, r2}
    8c64:	e1a0000c 	mov	r0, ip
    8c68:	e59f1024 	ldr	r1, [pc, #36]	; 8c94 <_cstart+0x88>
    8c6c:	eb000314 	bl	98c4 <sw_uart_printk>
    8c70:	e59f0020 	ldr	r0, [pc, #32]	; 8c98 <_cstart+0x8c>
    8c74:	ebfffe4f 	bl	85b8 <printk>
    8c78:	ebfffe3a 	bl	8568 <notmain>
    8c7c:	eb000011 	bl	8cc8 <rpi_reboot>
    8c80:	00009f88 	andeq	r9, r0, r8, lsl #31
    8c84:	0000a398 	muleq	r0, r8, r3
    8c88:	00008bec 	andeq	r8, r0, ip, ror #23
    8c8c:	00009bc8 	andeq	r9, r0, r8, asr #23
    8c90:	0000a388 	andeq	sl, r0, r8, lsl #7
    8c94:	00009e40 	andeq	r9, r0, r0, asr #28
    8c98:	00009e64 	andeq	r9, r0, r4, ror #28

00008c9c <at_user_level>:
    8c9c:	e10f0000 	mrs	r0, CPSR
    8ca0:	e200001f 	and	r0, r0, #31
    8ca4:	e3500010 	cmp	r0, #16
    8ca8:	13a00000 	movne	r0, #0
    8cac:	03a00001 	moveq	r0, #1
    8cb0:	e12fff1e 	bx	lr

00008cb4 <set_user_level>:
    8cb4:	e10f3000 	mrs	r3, CPSR
    8cb8:	e3c3301f 	bic	r3, r3, #31
    8cbc:	e3833010 	orr	r3, r3, #16
    8cc0:	e129f003 	msr	CPSR_fc, r3
    8cc4:	e12fff1e 	bx	lr

00008cc8 <rpi_reboot>:
    8cc8:	e92d4008 	push	{r3, lr}
    8ccc:	ebfffff2 	bl	8c9c <at_user_level>
    8cd0:	e3500000 	cmp	r0, #0
    8cd4:	0a000000 	beq	8cdc <rpi_reboot+0x14>
    8cd8:	ebfffff5 	bl	8cb4 <set_user_level>
    8cdc:	e3a0001e 	mov	r0, #30
    8ce0:	eb000022 	bl	8d70 <delay_ms>
    8ce4:	e59f0014 	ldr	r0, [pc, #20]	; 8d00 <rpi_reboot+0x38>
    8ce8:	e59f1014 	ldr	r1, [pc, #20]	; 8d04 <rpi_reboot+0x3c>
    8cec:	eb000388 	bl	9b14 <PUT32>
    8cf0:	e59f0010 	ldr	r0, [pc, #16]	; 8d08 <rpi_reboot+0x40>
    8cf4:	e59f1010 	ldr	r1, [pc, #16]	; 8d0c <rpi_reboot+0x44>
    8cf8:	eb000385 	bl	9b14 <PUT32>
    8cfc:	eafffffe 	b	8cfc <rpi_reboot+0x34>
    8d00:	20100024 	andscs	r0, r0, r4, lsr #32
    8d04:	5a000001 	bpl	8d10 <delay_cycles>
    8d08:	2010001c 	andscs	r0, r0, ip, lsl r0
    8d0c:	5a000020 	bpl	8d94 <delay_sec+0x10>

00008d10 <delay_cycles>:
    8d10:	ea000001 	b	8d1c <delay_cycles+0xc>
    8d14:	e2811000 	add	r1, r1, #0
    8d18:	e1a00003 	mov	r0, r3
    8d1c:	e2403001 	sub	r3, r0, #1
    8d20:	e3500000 	cmp	r0, #0
    8d24:	1afffffa 	bne	8d14 <delay_cycles+0x4>
    8d28:	e12fff1e 	bx	lr

00008d2c <timer_get_usec_raw>:
    8d2c:	e92d4008 	push	{r3, lr}
    8d30:	e59f0004 	ldr	r0, [pc, #4]	; 8d3c <timer_get_usec_raw+0x10>
    8d34:	eb000382 	bl	9b44 <GET32>
    8d38:	e8bd8008 	pop	{r3, pc}
    8d3c:	20003004 	andcs	r3, r0, r4

00008d40 <timer_get_usec>:
    8d40:	e92d4008 	push	{r3, lr}
    8d44:	ebfffff8 	bl	8d2c <timer_get_usec_raw>
    8d48:	e8bd8008 	pop	{r3, pc}

00008d4c <delay_us>:
    8d4c:	e92d4038 	push	{r3, r4, r5, lr}
    8d50:	e1a05000 	mov	r5, r0
    8d54:	ebfffff9 	bl	8d40 <timer_get_usec>
    8d58:	e1a04000 	mov	r4, r0
    8d5c:	ebfffff7 	bl	8d40 <timer_get_usec>
    8d60:	e0640000 	rsb	r0, r4, r0
    8d64:	e1500005 	cmp	r0, r5
    8d68:	3afffffb 	bcc	8d5c <delay_us+0x10>
    8d6c:	e8bd8038 	pop	{r3, r4, r5, pc}

00008d70 <delay_ms>:
    8d70:	e92d4008 	push	{r3, lr}
    8d74:	e3a03ffa 	mov	r3, #1000	; 0x3e8
    8d78:	e0000093 	mul	r0, r3, r0
    8d7c:	ebfffff2 	bl	8d4c <delay_us>
    8d80:	e8bd8008 	pop	{r3, pc}

00008d84 <delay_sec>:
    8d84:	e92d4008 	push	{r3, lr}
    8d88:	e3a03ffa 	mov	r3, #1000	; 0x3e8
    8d8c:	e0000093 	mul	r0, r3, r0
    8d90:	ebfffff6 	bl	8d70 <delay_ms>
    8d94:	e8bd8008 	pop	{r3, pc}

00008d98 <gpio_set_output>:
    8d98:	e92d4038 	push	{r3, r4, r5, lr}
    8d9c:	e1a04000 	mov	r4, r0
    8da0:	e350001f 	cmp	r0, #31
    8da4:	88bd8038 	pophi	{r3, r4, r5, pc}
    8da8:	e59f30b4 	ldr	r3, [pc, #180]	; 8e64 <gpio_set_output+0xcc>
    8dac:	e0832093 	umull	r2, r3, r3, r0
    8db0:	e1a031a3 	lsr	r3, r3, #3
    8db4:	e3530005 	cmp	r3, #5
    8db8:	979ff103 	ldrls	pc, [pc, r3, lsl #2]
    8dbc:	ea000017 	b	8e20 <gpio_set_output+0x88>
    8dc0:	00008dd8 	ldrdeq	r8, [r0], -r8	; <UNPREDICTABLE>
    8dc4:	00008de4 	andeq	r8, r0, r4, ror #27
    8dc8:	00008df0 	strdeq	r8, [r0], -r0
    8dcc:	00008dfc 	strdeq	r8, [r0], -ip
    8dd0:	00008e08 	andeq	r8, r0, r8, lsl #28
    8dd4:	00008e14 	andeq	r8, r0, r4, lsl lr
    8dd8:	e59f3088 	ldr	r3, [pc, #136]	; 8e68 <gpio_set_output+0xd0>
    8ddc:	e5935000 	ldr	r5, [r3]
    8de0:	ea00000f 	b	8e24 <gpio_set_output+0x8c>
    8de4:	e59f307c 	ldr	r3, [pc, #124]	; 8e68 <gpio_set_output+0xd0>
    8de8:	e5935004 	ldr	r5, [r3, #4]
    8dec:	ea00000c 	b	8e24 <gpio_set_output+0x8c>
    8df0:	e59f3070 	ldr	r3, [pc, #112]	; 8e68 <gpio_set_output+0xd0>
    8df4:	e5935008 	ldr	r5, [r3, #8]
    8df8:	ea000009 	b	8e24 <gpio_set_output+0x8c>
    8dfc:	e59f3064 	ldr	r3, [pc, #100]	; 8e68 <gpio_set_output+0xd0>
    8e00:	e593500c 	ldr	r5, [r3, #12]
    8e04:	ea000006 	b	8e24 <gpio_set_output+0x8c>
    8e08:	e59f3058 	ldr	r3, [pc, #88]	; 8e68 <gpio_set_output+0xd0>
    8e0c:	e5935010 	ldr	r5, [r3, #16]
    8e10:	ea000003 	b	8e24 <gpio_set_output+0x8c>
    8e14:	e59f304c 	ldr	r3, [pc, #76]	; 8e68 <gpio_set_output+0xd0>
    8e18:	e5935014 	ldr	r5, [r3, #20]
    8e1c:	ea000000 	b	8e24 <gpio_set_output+0x8c>
    8e20:	e3a05000 	mov	r5, #0
    8e24:	e1a00005 	mov	r0, r5
    8e28:	eb000343 	bl	9b3c <get32>
    8e2c:	e59f1030 	ldr	r1, [pc, #48]	; 8e64 <gpio_set_output+0xcc>
    8e30:	e0813491 	umull	r3, r1, r1, r4
    8e34:	e1a011a1 	lsr	r1, r1, #3
    8e38:	e0811101 	add	r1, r1, r1, lsl #2
    8e3c:	e1a01081 	lsl	r1, r1, #1
    8e40:	e0611004 	rsb	r1, r1, r4
    8e44:	e0811081 	add	r1, r1, r1, lsl #1
    8e48:	e3a03007 	mov	r3, #7
    8e4c:	e1c03113 	bic	r3, r0, r3, lsl r1
    8e50:	e1a00005 	mov	r0, r5
    8e54:	e3a02001 	mov	r2, #1
    8e58:	e1831112 	orr	r1, r3, r2, lsl r1
    8e5c:	eb00032a 	bl	9b0c <put32>
    8e60:	e8bd8038 	pop	{r3, r4, r5, pc}
    8e64:	cccccccd 	stclgt	12, cr12, [ip], {205}	; 0xcd
    8e68:	00009bd0 	ldrdeq	r9, [r0], -r0

00008e6c <gpio_set_on>:
    8e6c:	e92d4008 	push	{r3, lr}
    8e70:	e350001f 	cmp	r0, #31
    8e74:	88bd8008 	pophi	{r3, pc}
    8e78:	959f3020 	ldrls	r3, [pc, #32]	; 8ea0 <gpio_set_on+0x34>
    8e7c:	95932018 	ldrls	r2, [r3, #24]
    8e80:	859f3018 	ldrhi	r3, [pc, #24]	; 8ea0 <gpio_set_on+0x34>
    8e84:	8593201c 	ldrhi	r2, [r3, #28]
    8e88:	e200301f 	and	r3, r0, #31
    8e8c:	e1a00002 	mov	r0, r2
    8e90:	e3a01001 	mov	r1, #1
    8e94:	e1a01311 	lsl	r1, r1, r3
    8e98:	eb00031b 	bl	9b0c <put32>
    8e9c:	e8bd8008 	pop	{r3, pc}
    8ea0:	00009bd0 	ldrdeq	r9, [r0], -r0

00008ea4 <gpio_set_off>:
    8ea4:	e92d4008 	push	{r3, lr}
    8ea8:	e350001f 	cmp	r0, #31
    8eac:	88bd8008 	pophi	{r3, pc}
    8eb0:	959f3020 	ldrls	r3, [pc, #32]	; 8ed8 <gpio_set_off+0x34>
    8eb4:	95932020 	ldrls	r2, [r3, #32]
    8eb8:	859f3018 	ldrhi	r3, [pc, #24]	; 8ed8 <gpio_set_off+0x34>
    8ebc:	85932024 	ldrhi	r2, [r3, #36]	; 0x24
    8ec0:	e200301f 	and	r3, r0, #31
    8ec4:	e1a00002 	mov	r0, r2
    8ec8:	e3a01001 	mov	r1, #1
    8ecc:	e1a01311 	lsl	r1, r1, r3
    8ed0:	eb00030d 	bl	9b0c <put32>
    8ed4:	e8bd8008 	pop	{r3, pc}
    8ed8:	00009bd0 	ldrdeq	r9, [r0], -r0

00008edc <gpio_set_input>:
    8edc:	e92d4038 	push	{r3, r4, r5, lr}
    8ee0:	e1a04000 	mov	r4, r0
    8ee4:	e350001f 	cmp	r0, #31
    8ee8:	88bd8038 	pophi	{r3, r4, r5, pc}
    8eec:	e59f30ac 	ldr	r3, [pc, #172]	; 8fa0 <gpio_set_input+0xc4>
    8ef0:	e0832093 	umull	r2, r3, r3, r0
    8ef4:	e1a031a3 	lsr	r3, r3, #3
    8ef8:	e3530005 	cmp	r3, #5
    8efc:	979ff103 	ldrls	pc, [pc, r3, lsl #2]
    8f00:	ea000017 	b	8f64 <gpio_set_input+0x88>
    8f04:	00008f1c 	andeq	r8, r0, ip, lsl pc
    8f08:	00008f28 	andeq	r8, r0, r8, lsr #30
    8f0c:	00008f34 	andeq	r8, r0, r4, lsr pc
    8f10:	00008f40 	andeq	r8, r0, r0, asr #30
    8f14:	00008f4c 	andeq	r8, r0, ip, asr #30
    8f18:	00008f58 	andeq	r8, r0, r8, asr pc
    8f1c:	e59f3080 	ldr	r3, [pc, #128]	; 8fa4 <gpio_set_input+0xc8>
    8f20:	e5935000 	ldr	r5, [r3]
    8f24:	ea00000f 	b	8f68 <gpio_set_input+0x8c>
    8f28:	e59f3074 	ldr	r3, [pc, #116]	; 8fa4 <gpio_set_input+0xc8>
    8f2c:	e5935004 	ldr	r5, [r3, #4]
    8f30:	ea00000c 	b	8f68 <gpio_set_input+0x8c>
    8f34:	e59f3068 	ldr	r3, [pc, #104]	; 8fa4 <gpio_set_input+0xc8>
    8f38:	e5935008 	ldr	r5, [r3, #8]
    8f3c:	ea000009 	b	8f68 <gpio_set_input+0x8c>
    8f40:	e59f305c 	ldr	r3, [pc, #92]	; 8fa4 <gpio_set_input+0xc8>
    8f44:	e593500c 	ldr	r5, [r3, #12]
    8f48:	ea000006 	b	8f68 <gpio_set_input+0x8c>
    8f4c:	e59f3050 	ldr	r3, [pc, #80]	; 8fa4 <gpio_set_input+0xc8>
    8f50:	e5935010 	ldr	r5, [r3, #16]
    8f54:	ea000003 	b	8f68 <gpio_set_input+0x8c>
    8f58:	e59f3044 	ldr	r3, [pc, #68]	; 8fa4 <gpio_set_input+0xc8>
    8f5c:	e5935014 	ldr	r5, [r3, #20]
    8f60:	ea000000 	b	8f68 <gpio_set_input+0x8c>
    8f64:	e3a05000 	mov	r5, #0
    8f68:	e1a00005 	mov	r0, r5
    8f6c:	eb0002f2 	bl	9b3c <get32>
    8f70:	e59f1028 	ldr	r1, [pc, #40]	; 8fa0 <gpio_set_input+0xc4>
    8f74:	e0813491 	umull	r3, r1, r1, r4
    8f78:	e1a011a1 	lsr	r1, r1, #3
    8f7c:	e0811101 	add	r1, r1, r1, lsl #2
    8f80:	e1a01081 	lsl	r1, r1, #1
    8f84:	e0611004 	rsb	r1, r1, r4
    8f88:	e0811081 	add	r1, r1, r1, lsl #1
    8f8c:	e3a03007 	mov	r3, #7
    8f90:	e1c01113 	bic	r1, r0, r3, lsl r1
    8f94:	e1a00005 	mov	r0, r5
    8f98:	eb0002db 	bl	9b0c <put32>
    8f9c:	e8bd8038 	pop	{r3, r4, r5, pc}
    8fa0:	cccccccd 	stclgt	12, cr12, [ip], {205}	; 0xcd
    8fa4:	00009bd0 	ldrdeq	r9, [r0], -r0

00008fa8 <gpio_read>:
    8fa8:	e92d4010 	push	{r4, lr}
    8fac:	e1a04000 	mov	r4, r0
    8fb0:	e350001f 	cmp	r0, #31
    8fb4:	8a00000b 	bhi	8fe8 <gpio_read+0x40>
    8fb8:	8a000003 	bhi	8fcc <gpio_read+0x24>
    8fbc:	e59f302c 	ldr	r3, [pc, #44]	; 8ff0 <gpio_read+0x48>
    8fc0:	e5930028 	ldr	r0, [r3, #40]	; 0x28
    8fc4:	eb0002dc 	bl	9b3c <get32>
    8fc8:	ea000002 	b	8fd8 <gpio_read+0x30>
    8fcc:	e59f301c 	ldr	r3, [pc, #28]	; 8ff0 <gpio_read+0x48>
    8fd0:	e593002c 	ldr	r0, [r3, #44]	; 0x2c
    8fd4:	eb0002d8 	bl	9b3c <get32>
    8fd8:	e204401f 	and	r4, r4, #31
    8fdc:	e3a03001 	mov	r3, #1
    8fe0:	e0000413 	and	r0, r0, r3, lsl r4
    8fe4:	e8bd8010 	pop	{r4, pc}
    8fe8:	e3e00000 	mvn	r0, #0
    8fec:	e8bd8010 	pop	{r4, pc}
    8ff0:	00009bd0 	ldrdeq	r9, [r0], -r0

00008ff4 <gpio_write>:
    8ff4:	e92d4008 	push	{r3, lr}
    8ff8:	e350001f 	cmp	r0, #31
    8ffc:	88bd8008 	pophi	{r3, pc}
    9000:	e3510000 	cmp	r1, #0
    9004:	0a000001 	beq	9010 <gpio_write+0x1c>
    9008:	ebffff97 	bl	8e6c <gpio_set_on>
    900c:	e8bd8008 	pop	{r3, pc}
    9010:	ebffffa3 	bl	8ea4 <gpio_set_off>
    9014:	e8bd8008 	pop	{r3, pc}

00009018 <gpio_set_function>:
    9018:	e92d4070 	push	{r4, r5, r6, lr}
    901c:	e1a04000 	mov	r4, r0
    9020:	e1a05001 	mov	r5, r1
    9024:	e3510007 	cmp	r1, #7
    9028:	9350001f 	cmpls	r0, #31
    902c:	88bd8070 	pophi	{r4, r5, r6, pc}
    9030:	e59f30b0 	ldr	r3, [pc, #176]	; 90e8 <gpio_set_function+0xd0>
    9034:	e0832093 	umull	r2, r3, r3, r0
    9038:	e1a031a3 	lsr	r3, r3, #3
    903c:	e3530005 	cmp	r3, #5
    9040:	979ff103 	ldrls	pc, [pc, r3, lsl #2]
    9044:	ea000017 	b	90a8 <gpio_set_function+0x90>
    9048:	00009060 	andeq	r9, r0, r0, rrx
    904c:	0000906c 	andeq	r9, r0, ip, rrx
    9050:	00009078 	andeq	r9, r0, r8, ror r0
    9054:	00009084 	andeq	r9, r0, r4, lsl #1
    9058:	00009090 	muleq	r0, r0, r0
    905c:	0000909c 	muleq	r0, ip, r0
    9060:	e59f3084 	ldr	r3, [pc, #132]	; 90ec <gpio_set_function+0xd4>
    9064:	e5936000 	ldr	r6, [r3]
    9068:	ea00000f 	b	90ac <gpio_set_function+0x94>
    906c:	e59f3078 	ldr	r3, [pc, #120]	; 90ec <gpio_set_function+0xd4>
    9070:	e5936004 	ldr	r6, [r3, #4]
    9074:	ea00000c 	b	90ac <gpio_set_function+0x94>
    9078:	e59f306c 	ldr	r3, [pc, #108]	; 90ec <gpio_set_function+0xd4>
    907c:	e5936008 	ldr	r6, [r3, #8]
    9080:	ea000009 	b	90ac <gpio_set_function+0x94>
    9084:	e59f3060 	ldr	r3, [pc, #96]	; 90ec <gpio_set_function+0xd4>
    9088:	e593600c 	ldr	r6, [r3, #12]
    908c:	ea000006 	b	90ac <gpio_set_function+0x94>
    9090:	e59f3054 	ldr	r3, [pc, #84]	; 90ec <gpio_set_function+0xd4>
    9094:	e5936010 	ldr	r6, [r3, #16]
    9098:	ea000003 	b	90ac <gpio_set_function+0x94>
    909c:	e59f3048 	ldr	r3, [pc, #72]	; 90ec <gpio_set_function+0xd4>
    90a0:	e5936014 	ldr	r6, [r3, #20]
    90a4:	ea000000 	b	90ac <gpio_set_function+0x94>
    90a8:	e3a06000 	mov	r6, #0
    90ac:	e1a00006 	mov	r0, r6
    90b0:	eb0002a1 	bl	9b3c <get32>
    90b4:	e59f302c 	ldr	r3, [pc, #44]	; 90e8 <gpio_set_function+0xd0>
    90b8:	e0832493 	umull	r2, r3, r3, r4
    90bc:	e1a031a3 	lsr	r3, r3, #3
    90c0:	e0833103 	add	r3, r3, r3, lsl #2
    90c4:	e1a03083 	lsl	r3, r3, #1
    90c8:	e0633004 	rsb	r3, r3, r4
    90cc:	e0833083 	add	r3, r3, r3, lsl #1
    90d0:	e3a01007 	mov	r1, #7
    90d4:	e1c01311 	bic	r1, r0, r1, lsl r3
    90d8:	e1a00006 	mov	r0, r6
    90dc:	e1811315 	orr	r1, r1, r5, lsl r3
    90e0:	eb000289 	bl	9b0c <put32>
    90e4:	e8bd8070 	pop	{r4, r5, r6, pc}
    90e8:	cccccccd 	stclgt	12, cr12, [ip], {205}	; 0xcd
    90ec:	00009bd0 	ldrdeq	r9, [r0], -r0

000090f0 <gpio_toggle>:
    90f0:	e92d4008 	push	{r3, lr}
    90f4:	e350001f 	cmp	r0, #31
    90f8:	88bd8008 	pophi	{r3, pc}
    90fc:	959f3020 	ldrls	r3, [pc, #32]	; 9124 <gpio_toggle+0x34>
    9100:	95932018 	ldrls	r2, [r3, #24]
    9104:	859f3018 	ldrhi	r3, [pc, #24]	; 9124 <gpio_toggle+0x34>
    9108:	8593201c 	ldrhi	r2, [r3, #28]
    910c:	e200301f 	and	r3, r0, #31
    9110:	e1a00002 	mov	r0, r2
    9114:	e3a01001 	mov	r1, #1
    9118:	e1a01311 	lsl	r1, r1, r3
    911c:	eb00027a 	bl	9b0c <put32>
    9120:	e8bd8008 	pop	{r3, pc}
    9124:	00009bd0 	ldrdeq	r9, [r0], -r0

00009128 <is_gpio_int>:
    9128:	e92d4008 	push	{r3, lr}
    912c:	e59f301c 	ldr	r3, [pc, #28]	; 9150 <is_gpio_int+0x28>
    9130:	e5930030 	ldr	r0, [r3, #48]	; 0x30
    9134:	eb000280 	bl	9b3c <get32>
    9138:	e3500000 	cmp	r0, #0
    913c:	0a000001 	beq	9148 <is_gpio_int+0x20>
    9140:	e3a00001 	mov	r0, #1
    9144:	e8bd8008 	pop	{r3, pc}
    9148:	e3a00000 	mov	r0, #0
    914c:	e8bd8008 	pop	{r3, pc}
    9150:	00009bd0 	ldrdeq	r9, [r0], -r0

00009154 <gpio_int_rising_edge>:
    9154:	e92d4038 	push	{r3, r4, r5, lr}
    9158:	e1a04000 	mov	r4, r0
    915c:	e350001f 	cmp	r0, #31
    9160:	88bd8038 	pophi	{r3, r4, r5, pc}
    9164:	eb000262 	bl	9af4 <dev_barrier>
    9168:	e354001f 	cmp	r4, #31
    916c:	8a000007 	bhi	9190 <gpio_int_rising_edge+0x3c>
    9170:	e59f505c 	ldr	r5, [pc, #92]	; 91d4 <gpio_int_rising_edge+0x80>
    9174:	e5950034 	ldr	r0, [r5, #52]	; 0x34
    9178:	eb00026f 	bl	9b3c <get32>
    917c:	e3a01001 	mov	r1, #1
    9180:	e1801411 	orr	r1, r0, r1, lsl r4
    9184:	e5950034 	ldr	r0, [r5, #52]	; 0x34
    9188:	eb00025f 	bl	9b0c <put32>
    918c:	ea000007 	b	91b0 <gpio_int_rising_edge+0x5c>
    9190:	e59f503c 	ldr	r5, [pc, #60]	; 91d4 <gpio_int_rising_edge+0x80>
    9194:	e5950038 	ldr	r0, [r5, #56]	; 0x38
    9198:	eb000267 	bl	9b3c <get32>
    919c:	e204401f 	and	r4, r4, #31
    91a0:	e3a01001 	mov	r1, #1
    91a4:	e1801411 	orr	r1, r0, r1, lsl r4
    91a8:	e5950038 	ldr	r0, [r5, #56]	; 0x38
    91ac:	eb000256 	bl	9b0c <put32>
    91b0:	eb00024f 	bl	9af4 <dev_barrier>
    91b4:	e59f4018 	ldr	r4, [pc, #24]	; 91d4 <gpio_int_rising_edge+0x80>
    91b8:	e594003c 	ldr	r0, [r4, #60]	; 0x3c
    91bc:	eb00025e 	bl	9b3c <get32>
    91c0:	e3801802 	orr	r1, r0, #131072	; 0x20000
    91c4:	e594003c 	ldr	r0, [r4, #60]	; 0x3c
    91c8:	eb00024f 	bl	9b0c <put32>
    91cc:	eb000248 	bl	9af4 <dev_barrier>
    91d0:	e8bd8038 	pop	{r3, r4, r5, pc}
    91d4:	00009bd0 	ldrdeq	r9, [r0], -r0

000091d8 <gpio_int_falling_edge>:
    91d8:	e92d4038 	push	{r3, r4, r5, lr}
    91dc:	e1a04000 	mov	r4, r0
    91e0:	e350001f 	cmp	r0, #31
    91e4:	88bd8038 	pophi	{r3, r4, r5, pc}
    91e8:	eb000241 	bl	9af4 <dev_barrier>
    91ec:	e354001f 	cmp	r4, #31
    91f0:	8a000007 	bhi	9214 <gpio_int_falling_edge+0x3c>
    91f4:	e59f505c 	ldr	r5, [pc, #92]	; 9258 <gpio_int_falling_edge+0x80>
    91f8:	e5950040 	ldr	r0, [r5, #64]	; 0x40
    91fc:	eb00024e 	bl	9b3c <get32>
    9200:	e3a01001 	mov	r1, #1
    9204:	e1801411 	orr	r1, r0, r1, lsl r4
    9208:	e5950040 	ldr	r0, [r5, #64]	; 0x40
    920c:	eb00023e 	bl	9b0c <put32>
    9210:	ea000007 	b	9234 <gpio_int_falling_edge+0x5c>
    9214:	e59f503c 	ldr	r5, [pc, #60]	; 9258 <gpio_int_falling_edge+0x80>
    9218:	e5950044 	ldr	r0, [r5, #68]	; 0x44
    921c:	eb000246 	bl	9b3c <get32>
    9220:	e204401f 	and	r4, r4, #31
    9224:	e3a01001 	mov	r1, #1
    9228:	e1801411 	orr	r1, r0, r1, lsl r4
    922c:	e5950044 	ldr	r0, [r5, #68]	; 0x44
    9230:	eb000235 	bl	9b0c <put32>
    9234:	eb00022e 	bl	9af4 <dev_barrier>
    9238:	e59f4018 	ldr	r4, [pc, #24]	; 9258 <gpio_int_falling_edge+0x80>
    923c:	e594003c 	ldr	r0, [r4, #60]	; 0x3c
    9240:	eb00023d 	bl	9b3c <get32>
    9244:	e3801601 	orr	r1, r0, #1048576	; 0x100000
    9248:	e594003c 	ldr	r0, [r4, #60]	; 0x3c
    924c:	eb00022e 	bl	9b0c <put32>
    9250:	eb000227 	bl	9af4 <dev_barrier>
    9254:	e8bd8038 	pop	{r3, r4, r5, pc}
    9258:	00009bd0 	ldrdeq	r9, [r0], -r0

0000925c <gpio_event_detected>:
    925c:	e92d4010 	push	{r4, lr}
    9260:	e1a04000 	mov	r4, r0
    9264:	e350001f 	cmp	r0, #31
    9268:	8a000019 	bhi	92d4 <gpio_event_detected+0x78>
    926c:	eb000220 	bl	9af4 <dev_barrier>
    9270:	e354001f 	cmp	r4, #31
    9274:	8a000008 	bhi	929c <gpio_event_detected+0x40>
    9278:	e59f305c 	ldr	r3, [pc, #92]	; 92dc <gpio_event_detected+0x80>
    927c:	e5930048 	ldr	r0, [r3, #72]	; 0x48
    9280:	eb00022d 	bl	9b3c <get32>
    9284:	e3a03001 	mov	r3, #1
    9288:	e0103413 	ands	r3, r0, r3, lsl r4
    928c:	0a00000d 	beq	92c8 <gpio_event_detected+0x6c>
    9290:	eb000217 	bl	9af4 <dev_barrier>
    9294:	e3a00001 	mov	r0, #1
    9298:	e8bd8010 	pop	{r4, pc}
    929c:	e59f3038 	ldr	r3, [pc, #56]	; 92dc <gpio_event_detected+0x80>
    92a0:	e593004c 	ldr	r0, [r3, #76]	; 0x4c
    92a4:	eb000224 	bl	9b3c <get32>
    92a8:	e3a03001 	mov	r3, #1
    92ac:	e0004413 	and	r4, r0, r3, lsl r4
    92b0:	eb00020f 	bl	9af4 <dev_barrier>
    92b4:	e3540000 	cmp	r4, #0
    92b8:	0a000002 	beq	92c8 <gpio_event_detected+0x6c>
    92bc:	eb00020c 	bl	9af4 <dev_barrier>
    92c0:	e3a00001 	mov	r0, #1
    92c4:	e8bd8010 	pop	{r4, pc}
    92c8:	eb000209 	bl	9af4 <dev_barrier>
    92cc:	e3a00000 	mov	r0, #0
    92d0:	e8bd8010 	pop	{r4, pc}
    92d4:	e3e00000 	mvn	r0, #0
    92d8:	e8bd8010 	pop	{r4, pc}
    92dc:	00009bd0 	ldrdeq	r9, [r0], -r0

000092e0 <gpio_event_clear>:
    92e0:	e92d4010 	push	{r4, lr}
    92e4:	e1a04000 	mov	r4, r0
    92e8:	e350001f 	cmp	r0, #31
    92ec:	88bd8010 	pophi	{r4, pc}
    92f0:	eb0001ff 	bl	9af4 <dev_barrier>
    92f4:	e354001f 	cmp	r4, #31
    92f8:	8a000005 	bhi	9314 <gpio_event_clear+0x34>
    92fc:	e59f3030 	ldr	r3, [pc, #48]	; 9334 <gpio_event_clear+0x54>
    9300:	e5930048 	ldr	r0, [r3, #72]	; 0x48
    9304:	e3a01001 	mov	r1, #1
    9308:	e1a01411 	lsl	r1, r1, r4
    930c:	eb0001fe 	bl	9b0c <put32>
    9310:	ea000005 	b	932c <gpio_event_clear+0x4c>
    9314:	e204401f 	and	r4, r4, #31
    9318:	e59f3014 	ldr	r3, [pc, #20]	; 9334 <gpio_event_clear+0x54>
    931c:	e593004c 	ldr	r0, [r3, #76]	; 0x4c
    9320:	e3a01001 	mov	r1, #1
    9324:	e1a01411 	lsl	r1, r1, r4
    9328:	eb0001f7 	bl	9b0c <put32>
    932c:	eb0001f0 	bl	9af4 <dev_barrier>
    9330:	e8bd8010 	pop	{r4, pc}
    9334:	00009bd0 	ldrdeq	r9, [r0], -r0

00009338 <sw_uart_putc>:
    9338:	e92d41f0 	push	{r4, r5, r6, r7, r8, lr}
    933c:	e1a07001 	mov	r7, r1
    9340:	e5d06000 	ldrb	r6, [r0]
    9344:	e5905008 	ldr	r5, [r0, #8]
    9348:	ee1f4f3c 	mrc	15, 0, r4, cr15, cr12, {1}
    934c:	e1a00006 	mov	r0, r6
    9350:	e3a01000 	mov	r1, #0
    9354:	ebffff26 	bl	8ff4 <gpio_write>
    9358:	ee1f3f3c 	mrc	15, 0, r3, cr15, cr12, {1}
    935c:	e0643003 	rsb	r3, r4, r3
    9360:	e1550003 	cmp	r5, r3
    9364:	8afffffb 	bhi	9358 <sw_uart_putc+0x20>
    9368:	e1a08085 	lsl	r8, r5, #1
    936c:	e1a00006 	mov	r0, r6
    9370:	e2071001 	and	r1, r7, #1
    9374:	ebffff1e 	bl	8ff4 <gpio_write>
    9378:	ee1f3f3c 	mrc	15, 0, r3, cr15, cr12, {1}
    937c:	e0643003 	rsb	r3, r4, r3
    9380:	e1580003 	cmp	r8, r3
    9384:	8afffffb 	bhi	9378 <sw_uart_putc+0x40>
    9388:	e0888005 	add	r8, r8, r5
    938c:	e1a00006 	mov	r0, r6
    9390:	e2071002 	and	r1, r7, #2
    9394:	ebffff16 	bl	8ff4 <gpio_write>
    9398:	ee1f3f3c 	mrc	15, 0, r3, cr15, cr12, {1}
    939c:	e0643003 	rsb	r3, r4, r3
    93a0:	e1580003 	cmp	r8, r3
    93a4:	8afffffb 	bhi	9398 <sw_uart_putc+0x60>
    93a8:	e0888005 	add	r8, r8, r5
    93ac:	e1a00006 	mov	r0, r6
    93b0:	e2071004 	and	r1, r7, #4
    93b4:	ebffff0e 	bl	8ff4 <gpio_write>
    93b8:	ee1f3f3c 	mrc	15, 0, r3, cr15, cr12, {1}
    93bc:	e0643003 	rsb	r3, r4, r3
    93c0:	e1580003 	cmp	r8, r3
    93c4:	8afffffb 	bhi	93b8 <sw_uart_putc+0x80>
    93c8:	e0888005 	add	r8, r8, r5
    93cc:	e1a00006 	mov	r0, r6
    93d0:	e2071008 	and	r1, r7, #8
    93d4:	ebffff06 	bl	8ff4 <gpio_write>
    93d8:	ee1f3f3c 	mrc	15, 0, r3, cr15, cr12, {1}
    93dc:	e0643003 	rsb	r3, r4, r3
    93e0:	e1580003 	cmp	r8, r3
    93e4:	8afffffb 	bhi	93d8 <sw_uart_putc+0xa0>
    93e8:	e0888005 	add	r8, r8, r5
    93ec:	e1a00006 	mov	r0, r6
    93f0:	e2071010 	and	r1, r7, #16
    93f4:	ebfffefe 	bl	8ff4 <gpio_write>
    93f8:	ee1f3f3c 	mrc	15, 0, r3, cr15, cr12, {1}
    93fc:	e0643003 	rsb	r3, r4, r3
    9400:	e1580003 	cmp	r8, r3
    9404:	8afffffb 	bhi	93f8 <sw_uart_putc+0xc0>
    9408:	e0888005 	add	r8, r8, r5
    940c:	e1a00006 	mov	r0, r6
    9410:	e2071020 	and	r1, r7, #32
    9414:	ebfffef6 	bl	8ff4 <gpio_write>
    9418:	ee1f3f3c 	mrc	15, 0, r3, cr15, cr12, {1}
    941c:	e0643003 	rsb	r3, r4, r3
    9420:	e1580003 	cmp	r8, r3
    9424:	8afffffb 	bhi	9418 <sw_uart_putc+0xe0>
    9428:	e0888005 	add	r8, r8, r5
    942c:	e1a00006 	mov	r0, r6
    9430:	e2071040 	and	r1, r7, #64	; 0x40
    9434:	ebfffeee 	bl	8ff4 <gpio_write>
    9438:	ee1f3f3c 	mrc	15, 0, r3, cr15, cr12, {1}
    943c:	e0643003 	rsb	r3, r4, r3
    9440:	e1580003 	cmp	r8, r3
    9444:	8afffffb 	bhi	9438 <sw_uart_putc+0x100>
    9448:	e0888005 	add	r8, r8, r5
    944c:	e1a00006 	mov	r0, r6
    9450:	e2071080 	and	r1, r7, #128	; 0x80
    9454:	ebfffee6 	bl	8ff4 <gpio_write>
    9458:	ee1f3f3c 	mrc	15, 0, r3, cr15, cr12, {1}
    945c:	e0643003 	rsb	r3, r4, r3
    9460:	e1580003 	cmp	r8, r3
    9464:	8afffffb 	bhi	9458 <sw_uart_putc+0x120>
    9468:	e0885005 	add	r5, r8, r5
    946c:	e1a00006 	mov	r0, r6
    9470:	e3a01001 	mov	r1, #1
    9474:	ebfffede 	bl	8ff4 <gpio_write>
    9478:	ee1f3f3c 	mrc	15, 0, r3, cr15, cr12, {1}
    947c:	e0643003 	rsb	r3, r4, r3
    9480:	e1550003 	cmp	r5, r3
    9484:	8afffffb 	bhi	9478 <sw_uart_putc+0x140>
    9488:	e8bd81f0 	pop	{r4, r5, r6, r7, r8, pc}

0000948c <sw_uart_getc_timeout>:
    948c:	e92d43f8 	push	{r3, r4, r5, r6, r7, r8, r9, lr}
    9490:	e1a09000 	mov	r9, r0
    9494:	e5d07001 	ldrb	r7, [r0, #1]
    9498:	e1a05007 	mov	r5, r7
    949c:	e1a06001 	mov	r6, r1
    94a0:	ebfffe21 	bl	8d2c <timer_get_usec_raw>
    94a4:	e1a04000 	mov	r4, r0
    94a8:	e1a00005 	mov	r0, r5
    94ac:	ebfffebd 	bl	8fa8 <gpio_read>
    94b0:	e3500000 	cmp	r0, #0
    94b4:	0a000005 	beq	94d0 <sw_uart_getc_timeout+0x44>
    94b8:	ebfffe1b 	bl	8d2c <timer_get_usec_raw>
    94bc:	e0640000 	rsb	r0, r4, r0
    94c0:	e1560000 	cmp	r6, r0
    94c4:	2afffff7 	bcs	94a8 <sw_uart_getc_timeout+0x1c>
    94c8:	e3a03000 	mov	r3, #0
    94cc:	ea000000 	b	94d4 <sw_uart_getc_timeout+0x48>
    94d0:	e3a03001 	mov	r3, #1
    94d4:	e3530000 	cmp	r3, #0
    94d8:	0a000059 	beq	9644 <sw_uart_getc_timeout+0x1b8>
    94dc:	ee1f8f3c 	mrc	15, 0, r8, cr15, cr12, {1}
    94e0:	e5994008 	ldr	r4, [r9, #8]
    94e4:	e08420a4 	add	r2, r4, r4, lsr #1
    94e8:	ee1f3f3c 	mrc	15, 0, r3, cr15, cr12, {1}
    94ec:	e0683003 	rsb	r3, r8, r3
    94f0:	e1520003 	cmp	r2, r3
    94f4:	8afffffb 	bhi	94e8 <sw_uart_getc_timeout+0x5c>
    94f8:	e0888004 	add	r8, r8, r4
    94fc:	e1a00007 	mov	r0, r7
    9500:	ebfffea8 	bl	8fa8 <gpio_read>
    9504:	e1a09750 	asr	r9, r0, r7
    9508:	ee1f3f3c 	mrc	15, 0, r3, cr15, cr12, {1}
    950c:	e0683003 	rsb	r3, r8, r3
    9510:	e1540003 	cmp	r4, r3
    9514:	8afffffb 	bhi	9508 <sw_uart_getc_timeout+0x7c>
    9518:	e0888004 	add	r8, r8, r4
    951c:	e1a00007 	mov	r0, r7
    9520:	ebfffea0 	bl	8fa8 <gpio_read>
    9524:	e1a00750 	asr	r0, r0, r7
    9528:	e1899080 	orr	r9, r9, r0, lsl #1
    952c:	ee1f3f3c 	mrc	15, 0, r3, cr15, cr12, {1}
    9530:	e0683003 	rsb	r3, r8, r3
    9534:	e1540003 	cmp	r4, r3
    9538:	8afffffb 	bhi	952c <sw_uart_getc_timeout+0xa0>
    953c:	e0888004 	add	r8, r8, r4
    9540:	e1a00007 	mov	r0, r7
    9544:	ebfffe97 	bl	8fa8 <gpio_read>
    9548:	e1a00750 	asr	r0, r0, r7
    954c:	e1899100 	orr	r9, r9, r0, lsl #2
    9550:	ee1f3f3c 	mrc	15, 0, r3, cr15, cr12, {1}
    9554:	e0683003 	rsb	r3, r8, r3
    9558:	e1540003 	cmp	r4, r3
    955c:	8afffffb 	bhi	9550 <sw_uart_getc_timeout+0xc4>
    9560:	e0888004 	add	r8, r8, r4
    9564:	e1a00007 	mov	r0, r7
    9568:	ebfffe8e 	bl	8fa8 <gpio_read>
    956c:	e1a00750 	asr	r0, r0, r7
    9570:	e1899180 	orr	r9, r9, r0, lsl #3
    9574:	ee1f3f3c 	mrc	15, 0, r3, cr15, cr12, {1}
    9578:	e0683003 	rsb	r3, r8, r3
    957c:	e1540003 	cmp	r4, r3
    9580:	8afffffb 	bhi	9574 <sw_uart_getc_timeout+0xe8>
    9584:	e0888004 	add	r8, r8, r4
    9588:	e1a00007 	mov	r0, r7
    958c:	ebfffe85 	bl	8fa8 <gpio_read>
    9590:	e1a00750 	asr	r0, r0, r7
    9594:	e1899200 	orr	r9, r9, r0, lsl #4
    9598:	ee1f3f3c 	mrc	15, 0, r3, cr15, cr12, {1}
    959c:	e0683003 	rsb	r3, r8, r3
    95a0:	e1540003 	cmp	r4, r3
    95a4:	8afffffb 	bhi	9598 <sw_uart_getc_timeout+0x10c>
    95a8:	e0888004 	add	r8, r8, r4
    95ac:	e1a00007 	mov	r0, r7
    95b0:	ebfffe7c 	bl	8fa8 <gpio_read>
    95b4:	e1a00750 	asr	r0, r0, r7
    95b8:	e1899280 	orr	r9, r9, r0, lsl #5
    95bc:	ee1f3f3c 	mrc	15, 0, r3, cr15, cr12, {1}
    95c0:	e0683003 	rsb	r3, r8, r3
    95c4:	e1540003 	cmp	r4, r3
    95c8:	8afffffb 	bhi	95bc <sw_uart_getc_timeout+0x130>
    95cc:	e0888004 	add	r8, r8, r4
    95d0:	e1a00007 	mov	r0, r7
    95d4:	ebfffe73 	bl	8fa8 <gpio_read>
    95d8:	e1a00750 	asr	r0, r0, r7
    95dc:	e1899300 	orr	r9, r9, r0, lsl #6
    95e0:	ee1f3f3c 	mrc	15, 0, r3, cr15, cr12, {1}
    95e4:	e0683003 	rsb	r3, r8, r3
    95e8:	e1540003 	cmp	r4, r3
    95ec:	8afffffb 	bhi	95e0 <sw_uart_getc_timeout+0x154>
    95f0:	e1a00007 	mov	r0, r7
    95f4:	ebfffe6b 	bl	8fa8 <gpio_read>
    95f8:	e1a00750 	asr	r0, r0, r7
    95fc:	e1899380 	orr	r9, r9, r0, lsl #7
    9600:	ebfffdc9 	bl	8d2c <timer_get_usec_raw>
    9604:	e1a04000 	mov	r4, r0
    9608:	e1a00005 	mov	r0, r5
    960c:	ebfffe65 	bl	8fa8 <gpio_read>
    9610:	e3500000 	cmp	r0, #0
    9614:	0a000005 	beq	9630 <sw_uart_getc_timeout+0x1a4>
    9618:	ebfffdc3 	bl	8d2c <timer_get_usec_raw>
    961c:	e0640000 	rsb	r0, r4, r0
    9620:	e1560000 	cmp	r6, r0
    9624:	2afffff7 	bcs	9608 <sw_uart_getc_timeout+0x17c>
    9628:	e3a03000 	mov	r3, #0
    962c:	ea000000 	b	9634 <sw_uart_getc_timeout+0x1a8>
    9630:	e3a03001 	mov	r3, #1
    9634:	e3530000 	cmp	r3, #0
    9638:	0a000003 	beq	964c <sw_uart_getc_timeout+0x1c0>
    963c:	e1a00009 	mov	r0, r9
    9640:	e8bd83f8 	pop	{r3, r4, r5, r6, r7, r8, r9, pc}
    9644:	e3e00000 	mvn	r0, #0
    9648:	e8bd83f8 	pop	{r3, r4, r5, r6, r7, r8, r9, pc}
    964c:	e3e00000 	mvn	r0, #0
    9650:	e8bd83f8 	pop	{r3, r4, r5, r6, r7, r8, r9, pc}

00009654 <sw_uart_gets_until>:
    9654:	e92d47f0 	push	{r4, r5, r6, r7, r8, r9, sl, lr}
    9658:	e24dd008 	sub	sp, sp, #8
    965c:	e1a08000 	mov	r8, r0
    9660:	e1a06001 	mov	r6, r1
    9664:	e1a09003 	mov	r9, r3
    9668:	e59da028 	ldr	sl, [sp, #40]	; 0x28
    966c:	e3520000 	cmp	r2, #0
    9670:	1a000008 	bne	9698 <sw_uart_gets_until+0x44>
    9674:	ebfffbea 	bl	8624 <rpi_reset_putc>
    9678:	e59f3068 	ldr	r3, [pc, #104]	; 96e8 <sw_uart_gets_until+0x94>
    967c:	e58d3000 	str	r3, [sp]
    9680:	e59f0064 	ldr	r0, [pc, #100]	; 96ec <sw_uart_gets_until+0x98>
    9684:	e59f1064 	ldr	r1, [pc, #100]	; 96f0 <sw_uart_gets_until+0x9c>
    9688:	e59f2064 	ldr	r2, [pc, #100]	; 96f4 <sw_uart_gets_until+0xa0>
    968c:	e3a0306d 	mov	r3, #109	; 0x6d
    9690:	ebfffbc8 	bl	85b8 <printk>
    9694:	ebfffd4a 	bl	8bc4 <clean_reboot>
    9698:	e3a04000 	mov	r4, #0
    969c:	e5c14000 	strb	r4, [r1]
    96a0:	e2427001 	sub	r7, r2, #1
    96a4:	ea000007 	b	96c8 <sw_uart_gets_until+0x74>
    96a8:	e1a00008 	mov	r0, r8
    96ac:	e1a0100a 	mov	r1, sl
    96b0:	ebffff75 	bl	948c <sw_uart_getc_timeout>
    96b4:	e6ef0070 	uxtb	r0, r0
    96b8:	e1500009 	cmp	r0, r9
    96bc:	0a000004 	beq	96d4 <sw_uart_gets_until+0x80>
    96c0:	e7c60005 	strb	r0, [r6, r5]
    96c4:	e2844001 	add	r4, r4, #1
    96c8:	e1a05004 	mov	r5, r4
    96cc:	e1540007 	cmp	r4, r7
    96d0:	3afffff4 	bcc	96a8 <sw_uart_gets_until+0x54>
    96d4:	e3a03000 	mov	r3, #0
    96d8:	e7c63005 	strb	r3, [r6, r5]
    96dc:	e1a00004 	mov	r0, r4
    96e0:	e28dd008 	add	sp, sp, #8
    96e4:	e8bd87f0 	pop	{r4, r5, r6, r7, r8, r9, sl, pc}
    96e8:	00009efc 	strdeq	r9, [r0], -ip
    96ec:	00009d70 	andeq	r9, r0, r0, ror sp
    96f0:	00009ee8 	andeq	r9, r0, r8, ror #29
    96f4:	00009e70 	andeq	r9, r0, r0, ror lr

000096f8 <sw_uart_gets_timeout>:
    96f8:	e92d41f0 	push	{r4, r5, r6, r7, r8, lr}
    96fc:	e24dd008 	sub	sp, sp, #8
    9700:	e1a07000 	mov	r7, r0
    9704:	e1a05001 	mov	r5, r1
    9708:	e1a08003 	mov	r8, r3
    970c:	e3520000 	cmp	r2, #0
    9710:	1a000008 	bne	9738 <sw_uart_gets_timeout+0x40>
    9714:	ebfffbc2 	bl	8624 <rpi_reset_putc>
    9718:	e59f3058 	ldr	r3, [pc, #88]	; 9778 <sw_uart_gets_timeout+0x80>
    971c:	e58d3000 	str	r3, [sp]
    9720:	e59f0054 	ldr	r0, [pc, #84]	; 977c <sw_uart_gets_timeout+0x84>
    9724:	e59f1054 	ldr	r1, [pc, #84]	; 9780 <sw_uart_gets_timeout+0x88>
    9728:	e59f2054 	ldr	r2, [pc, #84]	; 9784 <sw_uart_gets_timeout+0x8c>
    972c:	e3a03083 	mov	r3, #131	; 0x83
    9730:	ebfffba0 	bl	85b8 <printk>
    9734:	ebfffd22 	bl	8bc4 <clean_reboot>
    9738:	e3a04000 	mov	r4, #0
    973c:	e5c14000 	strb	r4, [r1]
    9740:	e2426001 	sub	r6, r2, #1
    9744:	ea000004 	b	975c <sw_uart_gets_timeout+0x64>
    9748:	e1a00007 	mov	r0, r7
    974c:	e1a01008 	mov	r1, r8
    9750:	ebffff4d 	bl	948c <sw_uart_getc_timeout>
    9754:	e7c50004 	strb	r0, [r5, r4]
    9758:	e2844001 	add	r4, r4, #1
    975c:	e1540006 	cmp	r4, r6
    9760:	3afffff8 	bcc	9748 <sw_uart_gets_timeout+0x50>
    9764:	e3a03000 	mov	r3, #0
    9768:	e7c53004 	strb	r3, [r5, r4]
    976c:	e1a00004 	mov	r0, r4
    9770:	e28dd008 	add	sp, sp, #8
    9774:	e8bd81f0 	pop	{r4, r5, r6, r7, r8, pc}
    9778:	00009efc 	strdeq	r9, [r0], -ip
    977c:	00009d70 	andeq	r9, r0, r0, ror sp
    9780:	00009ee8 	andeq	r9, r0, r8, ror #29
    9784:	00009e84 	andeq	r9, r0, r4, lsl #29

00009788 <sw_uart_init_helper>:
    9788:	e92d41f0 	push	{r4, r5, r6, r7, r8, lr}
    978c:	e24dd008 	sub	sp, sp, #8
    9790:	e1a04000 	mov	r4, r0
    9794:	e1a06001 	mov	r6, r1
    9798:	e1a08002 	mov	r8, r2
    979c:	e1a05003 	mov	r5, r3
    97a0:	e59d7020 	ldr	r7, [sp, #32]
    97a4:	e1a00001 	mov	r0, r1
    97a8:	ebfffd7a 	bl	8d98 <gpio_set_output>
    97ac:	e1a00008 	mov	r0, r8
    97b0:	ebfffdc9 	bl	8edc <gpio_set_input>
    97b4:	e3a03001 	mov	r3, #1
    97b8:	ee0f3f1c 	mcr	15, 0, r3, cr15, cr12, {0}
    97bc:	e1a00006 	mov	r0, r6
    97c0:	e3a01001 	mov	r1, #1
    97c4:	ebfffe0a 	bl	8ff4 <gpio_write>
    97c8:	e0020795 	mul	r2, r5, r7
    97cc:	e59f3074 	ldr	r3, [pc, #116]	; 9848 <sw_uart_init_helper+0xc0>
    97d0:	e0653003 	rsb	r3, r5, r3
    97d4:	e1530002 	cmp	r3, r2
    97d8:	8a000005 	bhi	97f4 <sw_uart_init_helper+0x6c>
    97dc:	e59f3064 	ldr	r3, [pc, #100]	; 9848 <sw_uart_init_helper+0xc0>
    97e0:	e0853003 	add	r3, r5, r3
    97e4:	e1530002 	cmp	r3, r2
    97e8:	2a000003 	bcs	97fc <sw_uart_init_helper+0x74>
    97ec:	e3a03000 	mov	r3, #0
    97f0:	ea000002 	b	9800 <sw_uart_init_helper+0x78>
    97f4:	e3a03000 	mov	r3, #0
    97f8:	ea000000 	b	9800 <sw_uart_init_helper+0x78>
    97fc:	e3a03001 	mov	r3, #1
    9800:	e3530000 	cmp	r3, #0
    9804:	1a000008 	bne	982c <sw_uart_init_helper+0xa4>
    9808:	ebfffb85 	bl	8624 <rpi_reset_putc>
    980c:	e59f3038 	ldr	r3, [pc, #56]	; 984c <sw_uart_init_helper+0xc4>
    9810:	e58d3000 	str	r3, [sp]
    9814:	e59f0034 	ldr	r0, [pc, #52]	; 9850 <sw_uart_init_helper+0xc8>
    9818:	e59f1034 	ldr	r1, [pc, #52]	; 9854 <sw_uart_init_helper+0xcc>
    981c:	e59f2034 	ldr	r2, [pc, #52]	; 9858 <sw_uart_init_helper+0xd0>
    9820:	e3a0309d 	mov	r3, #157	; 0x9d
    9824:	ebfffb63 	bl	85b8 <printk>
    9828:	ebfffce5 	bl	8bc4 <clean_reboot>
    982c:	e5c46000 	strb	r6, [r4]
    9830:	e5c48001 	strb	r8, [r4, #1]
    9834:	e5845004 	str	r5, [r4, #4]
    9838:	e5847008 	str	r7, [r4, #8]
    983c:	e1a00004 	mov	r0, r4
    9840:	e28dd008 	add	sp, sp, #8
    9844:	e8bd81f0 	pop	{r4, r5, r6, r7, r8, pc}
    9848:	29b92700 	ldmibcs	r9!, {r8, r9, sl, sp}
    984c:	00009f08 	andeq	r9, r0, r8, lsl #30
    9850:	00009d70 	andeq	r9, r0, r0, ror sp
    9854:	00009ee8 	andeq	r9, r0, r8, ror #29
    9858:	00009e9c 	muleq	r0, ip, lr

0000985c <sw_uart_getc>:
    985c:	e92d4008 	push	{r3, lr}
    9860:	e3e01000 	mvn	r1, #0
    9864:	ebffff08 	bl	948c <sw_uart_getc_timeout>
    9868:	e3500000 	cmp	r0, #0
    986c:	a8bd8008 	popge	{r3, pc}
    9870:	ebfffb6b 	bl	8624 <rpi_reset_putc>
    9874:	e59f0010 	ldr	r0, [pc, #16]	; 988c <sw_uart_getc+0x30>
    9878:	e59f1010 	ldr	r1, [pc, #16]	; 9890 <sw_uart_getc+0x34>
    987c:	e59f2010 	ldr	r2, [pc, #16]	; 9894 <sw_uart_getc+0x38>
    9880:	e3a030ac 	mov	r3, #172	; 0xac
    9884:	ebfffb4b 	bl	85b8 <printk>
    9888:	ebfffccd 	bl	8bc4 <clean_reboot>
    988c:	00009f3c 	andeq	r9, r0, ip, lsr pc
    9890:	00009ee8 	andeq	r9, r0, r8, ror #29
    9894:	00009eb0 			; <UNDEFINED> instruction: 0x00009eb0

00009898 <sw_uart_putk>:
    9898:	e92d4038 	push	{r3, r4, r5, lr}
    989c:	e1a05000 	mov	r5, r0
    98a0:	e1a04001 	mov	r4, r1
    98a4:	ea000002 	b	98b4 <sw_uart_putk+0x1c>
    98a8:	e1a00005 	mov	r0, r5
    98ac:	ebfffea1 	bl	9338 <sw_uart_putc>
    98b0:	e2844001 	add	r4, r4, #1
    98b4:	e5d41000 	ldrb	r1, [r4]
    98b8:	e3510000 	cmp	r1, #0
    98bc:	1afffff9 	bne	98a8 <sw_uart_putk+0x10>
    98c0:	e8bd8038 	pop	{r3, r4, r5, pc}

000098c4 <sw_uart_printk>:
    98c4:	e92d000e 	push	{r1, r2, r3}
    98c8:	e92d4030 	push	{r4, r5, lr}
    98cc:	e24ddf76 	sub	sp, sp, #472	; 0x1d8
    98d0:	e1a05000 	mov	r5, r0
    98d4:	e28d3f7a 	add	r3, sp, #488	; 0x1e8
    98d8:	e58d3008 	str	r3, [sp, #8]
    98dc:	e28d000c 	add	r0, sp, #12
    98e0:	e3a01f73 	mov	r1, #460	; 0x1cc
    98e4:	e59d21e4 	ldr	r2, [sp, #484]	; 0x1e4
    98e8:	ebfffc08 	bl	8910 <va_printk>
    98ec:	e1a04000 	mov	r4, r0
    98f0:	e59f3048 	ldr	r3, [pc, #72]	; 9940 <sw_uart_printk+0x7c>
    98f4:	e1500003 	cmp	r0, r3
    98f8:	9a000008 	bls	9920 <sw_uart_printk+0x5c>
    98fc:	ebfffb48 	bl	8624 <rpi_reset_putc>
    9900:	e59f303c 	ldr	r3, [pc, #60]	; 9944 <sw_uart_printk+0x80>
    9904:	e58d3000 	str	r3, [sp]
    9908:	e59f0038 	ldr	r0, [pc, #56]	; 9948 <sw_uart_printk+0x84>
    990c:	e59f1038 	ldr	r1, [pc, #56]	; 994c <sw_uart_printk+0x88>
    9910:	e59f2038 	ldr	r2, [pc, #56]	; 9950 <sw_uart_printk+0x8c>
    9914:	e3a030c0 	mov	r3, #192	; 0xc0
    9918:	ebfffb26 	bl	85b8 <printk>
    991c:	ebfffca8 	bl	8bc4 <clean_reboot>
    9920:	e1a00005 	mov	r0, r5
    9924:	e28d100c 	add	r1, sp, #12
    9928:	ebffffda 	bl	9898 <sw_uart_putk>
    992c:	e1a00004 	mov	r0, r4
    9930:	e28ddf76 	add	sp, sp, #472	; 0x1d8
    9934:	e8bd4030 	pop	{r4, r5, lr}
    9938:	e28dd00c 	add	sp, sp, #12
    993c:	e12fff1e 	bx	lr
    9940:	000001ca 	andeq	r0, r0, sl, asr #3
    9944:	00009f74 	andeq	r9, r0, r4, ror pc
    9948:	00009d70 	andeq	r9, r0, r0, ror sp
    994c:	00009ee8 	andeq	r9, r0, r8, ror #29
    9950:	00009ec0 	andeq	r9, r0, r0, asr #29

00009954 <sw_uart_gets_until_blk>:
    9954:	e52de004 	push	{lr}		; (str lr, [sp, #-4]!)
    9958:	e24dd00c 	sub	sp, sp, #12
    995c:	e3e0c000 	mvn	ip, #0
    9960:	e58dc000 	str	ip, [sp]
    9964:	ebffff3a 	bl	9654 <sw_uart_gets_until>
    9968:	e3500000 	cmp	r0, #0
    996c:	aa000006 	bge	998c <sw_uart_gets_until_blk+0x38>
    9970:	ebfffb2b 	bl	8624 <rpi_reset_putc>
    9974:	e59f0018 	ldr	r0, [pc, #24]	; 9994 <sw_uart_gets_until_blk+0x40>
    9978:	e59f1018 	ldr	r1, [pc, #24]	; 9998 <sw_uart_gets_until_blk+0x44>
    997c:	e59f2018 	ldr	r2, [pc, #24]	; 999c <sw_uart_gets_until_blk+0x48>
    9980:	e3a030c8 	mov	r3, #200	; 0xc8
    9984:	ebfffb0b 	bl	85b8 <printk>
    9988:	ebfffc8d 	bl	8bc4 <clean_reboot>
    998c:	e28dd00c 	add	sp, sp, #12
    9990:	e49df004 	pop	{pc}		; (ldr pc, [sp], #4)
    9994:	00009f3c 	andeq	r9, r0, ip, lsr pc
    9998:	00009ee8 	andeq	r9, r0, r8, ror #29
    999c:	00009ed0 	ldrdeq	r9, [r0], -r0

000099a0 <uart_init>:
    99a0:	e92d4038 	push	{r3, r4, r5, lr}
    99a4:	eb000052 	bl	9af4 <dev_barrier>
    99a8:	e3a0000e 	mov	r0, #14
    99ac:	e3a01002 	mov	r1, #2
    99b0:	ebfffd98 	bl	9018 <gpio_set_function>
    99b4:	e3a0000f 	mov	r0, #15
    99b8:	e3a01002 	mov	r1, #2
    99bc:	ebfffd95 	bl	9018 <gpio_set_function>
    99c0:	eb00004b 	bl	9af4 <dev_barrier>
    99c4:	e59f4068 	ldr	r4, [pc, #104]	; 9a34 <uart_init+0x94>
    99c8:	e5945000 	ldr	r5, [r4]
    99cc:	e1a00005 	mov	r0, r5
    99d0:	eb000059 	bl	9b3c <get32>
    99d4:	e3801001 	orr	r1, r0, #1
    99d8:	e1a00005 	mov	r0, r5
    99dc:	eb00004a 	bl	9b0c <put32>
    99e0:	eb000043 	bl	9af4 <dev_barrier>
    99e4:	e5940004 	ldr	r0, [r4, #4]
    99e8:	e3a01000 	mov	r1, #0
    99ec:	eb000046 	bl	9b0c <put32>
    99f0:	e5940008 	ldr	r0, [r4, #8]
    99f4:	e3a01000 	mov	r1, #0
    99f8:	eb000043 	bl	9b0c <put32>
    99fc:	e594000c 	ldr	r0, [r4, #12]
    9a00:	e3a01006 	mov	r1, #6
    9a04:	eb000040 	bl	9b0c <put32>
    9a08:	e5940010 	ldr	r0, [r4, #16]
    9a0c:	e3a01003 	mov	r1, #3
    9a10:	eb00003d 	bl	9b0c <put32>
    9a14:	e5940014 	ldr	r0, [r4, #20]
    9a18:	e59f1018 	ldr	r1, [pc, #24]	; 9a38 <uart_init+0x98>
    9a1c:	eb00003a 	bl	9b0c <put32>
    9a20:	e5940004 	ldr	r0, [r4, #4]
    9a24:	e3a01003 	mov	r1, #3
    9a28:	eb000037 	bl	9b0c <put32>
    9a2c:	eb000030 	bl	9af4 <dev_barrier>
    9a30:	e8bd8038 	pop	{r3, r4, r5, pc}
    9a34:	00009c30 	andeq	r9, r0, r0, lsr ip
    9a38:	0000010e 	andeq	r0, r0, lr, lsl #2

00009a3c <uart_can_getc>:
    9a3c:	e92d4008 	push	{r3, lr}
    9a40:	e59f300c 	ldr	r3, [pc, #12]	; 9a54 <uart_can_getc+0x18>
    9a44:	e5930018 	ldr	r0, [r3, #24]
    9a48:	eb00003b 	bl	9b3c <get32>
    9a4c:	e2000001 	and	r0, r0, #1
    9a50:	e8bd8008 	pop	{r3, pc}
    9a54:	00009c30 	andeq	r9, r0, r0, lsr ip

00009a58 <uart_getc>:
    9a58:	e92d4008 	push	{r3, lr}
    9a5c:	ebfffff6 	bl	9a3c <uart_can_getc>
    9a60:	e3500000 	cmp	r0, #0
    9a64:	0afffffc 	beq	9a5c <uart_getc+0x4>
    9a68:	e59f300c 	ldr	r3, [pc, #12]	; 9a7c <uart_getc+0x24>
    9a6c:	e593001c 	ldr	r0, [r3, #28]
    9a70:	eb000031 	bl	9b3c <get32>
    9a74:	e6ef0070 	uxtb	r0, r0
    9a78:	e8bd8008 	pop	{r3, pc}
    9a7c:	00009c30 	andeq	r9, r0, r0, lsr ip

00009a80 <uart_can_putc>:
    9a80:	e92d4008 	push	{r3, lr}
    9a84:	e59f300c 	ldr	r3, [pc, #12]	; 9a98 <uart_can_putc+0x18>
    9a88:	e5930018 	ldr	r0, [r3, #24]
    9a8c:	eb00002a 	bl	9b3c <get32>
    9a90:	e2000020 	and	r0, r0, #32
    9a94:	e8bd8008 	pop	{r3, pc}
    9a98:	00009c30 	andeq	r9, r0, r0, lsr ip

00009a9c <uart_putc>:
    9a9c:	e92d4010 	push	{r4, lr}
    9aa0:	e1a04000 	mov	r4, r0
    9aa4:	ebfffff5 	bl	9a80 <uart_can_putc>
    9aa8:	e3500000 	cmp	r0, #0
    9aac:	0afffffc 	beq	9aa4 <uart_putc+0x8>
    9ab0:	e59f300c 	ldr	r3, [pc, #12]	; 9ac4 <uart_putc+0x28>
    9ab4:	e593001c 	ldr	r0, [r3, #28]
    9ab8:	e1a01004 	mov	r1, r4
    9abc:	eb000012 	bl	9b0c <put32>
    9ac0:	e8bd8010 	pop	{r4, pc}
    9ac4:	00009c30 	andeq	r9, r0, r0, lsr ip

00009ac8 <uart_has_data>:
    9ac8:	e92d4008 	push	{r3, lr}
    9acc:	ebffffda 	bl	9a3c <uart_can_getc>
    9ad0:	e8bd8008 	pop	{r3, pc}

00009ad4 <uart_getc_async>:
    9ad4:	e92d4008 	push	{r3, lr}
    9ad8:	ebfffffa 	bl	9ac8 <uart_has_data>
    9adc:	e3500000 	cmp	r0, #0
    9ae0:	0a000001 	beq	9aec <uart_getc_async+0x18>
    9ae4:	ebffffdb 	bl	9a58 <uart_getc>
    9ae8:	e8bd8008 	pop	{r3, pc}
    9aec:	e3e00000 	mvn	r0, #0
    9af0:	e8bd8008 	pop	{r3, pc}

00009af4 <dev_barrier>:
    9af4:	ea000002 	b	9b04 <dsb>

00009af8 <dmb>:
    9af8:	e3a00000 	mov	r0, #0
    9afc:	ee070fba 	mcr	15, 0, r0, cr7, cr10, {5}
    9b00:	e12fff1e 	bx	lr

00009b04 <dsb>:
    9b04:	ee070f9a 	mcr	15, 0, r0, cr7, cr10, {4}
    9b08:	e12fff1e 	bx	lr

00009b0c <put32>:
    9b0c:	e5801000 	str	r1, [r0]
    9b10:	e12fff1e 	bx	lr

00009b14 <PUT32>:
    9b14:	e5801000 	str	r1, [r0]
    9b18:	e12fff1e 	bx	lr

00009b1c <put16>:
    9b1c:	e1c010b0 	strh	r1, [r0]
    9b20:	e12fff1e 	bx	lr

00009b24 <PUT16>:
    9b24:	e1c010b0 	strh	r1, [r0]
    9b28:	e12fff1e 	bx	lr

00009b2c <put8>:
    9b2c:	e5c01000 	strb	r1, [r0]
    9b30:	e12fff1e 	bx	lr

00009b34 <PUT8>:
    9b34:	e5c01000 	strb	r1, [r0]
    9b38:	e12fff1e 	bx	lr

00009b3c <get32>:
    9b3c:	e5900000 	ldr	r0, [r0]
    9b40:	e12fff1e 	bx	lr

00009b44 <GET32>:
    9b44:	e5900000 	ldr	r0, [r0]
    9b48:	e12fff1e 	bx	lr

00009b4c <GETPC>:
    9b4c:	e1a0000e 	mov	r0, lr
    9b50:	e12fff1e 	bx	lr

00009b54 <dummy>:
    9b54:	e12fff1e 	bx	lr

00009b58 <cb_new>:
    9b58:	e92d4008 	push	{r3, lr}
    9b5c:	e3a00409 	mov	r0, #150994944	; 0x9000000
    9b60:	e3a01000 	mov	r1, #0
    9b64:	e3a02004 	mov	r2, #4
    9b68:	eb00000e 	bl	9ba8 <memset>
    9b6c:	e3a00409 	mov	r0, #150994944	; 0x9000000
    9b70:	e59f3004 	ldr	r3, [pc, #4]	; 9b7c <cb_new+0x24>
    9b74:	e5803000 	str	r3, [r0]
    9b78:	e8bd8008 	pop	{r3, pc}
    9b7c:	12345678 	eorsne	r5, r4, #120, 12	; 0x7800000

00009b80 <cb_get_block>:
    9b80:	e3a03409 	mov	r3, #150994944	; 0x9000000
    9b84:	e5932000 	ldr	r2, [r3]
    9b88:	e59f3014 	ldr	r3, [pc, #20]	; 9ba4 <cb_get_block+0x24>
    9b8c:	e1520003 	cmp	r2, r3
    9b90:	0a000001 	beq	9b9c <cb_get_block+0x1c>
    9b94:	e3a00000 	mov	r0, #0
    9b98:	e12fff1e 	bx	lr
    9b9c:	e3a00409 	mov	r0, #150994944	; 0x9000000
    9ba0:	e12fff1e 	bx	lr
    9ba4:	12345678 	eorsne	r5, r4, #120, 12	; 0x7800000

00009ba8 <memset>:
    9ba8:	e0802002 	add	r2, r0, r2
    9bac:	e1a03000 	mov	r3, r0
    9bb0:	ea000001 	b	9bbc <memset+0x14>
    9bb4:	e5c31000 	strb	r1, [r3]
    9bb8:	e2833001 	add	r3, r3, #1
    9bbc:	e1530002 	cmp	r3, r2
    9bc0:	3afffffb 	bcc	9bb4 <memset+0xc>
    9bc4:	e12fff1e 	bx	lr

Disassembly of section .data:

00009bc8 <rpi_putchar>:
    9bc8:	00008610 	andeq	r8, r0, r0, lsl r6

00009bcc <putk>:
    9bcc:	0000864c 	andeq	r8, r0, ip, asr #12

00009bd0 <GPFSEL0>:
    9bd0:	20200000 	eorcs	r0, r0, r0

00009bd4 <GPFSEL1>:
    9bd4:	20200004 	eorcs	r0, r0, r4

00009bd8 <GPFSEL2>:
    9bd8:	20200008 	eorcs	r0, r0, r8

00009bdc <GPFSEL3>:
    9bdc:	2020000c 	eorcs	r0, r0, ip

00009be0 <GPFSEL4>:
    9be0:	20200010 	eorcs	r0, r0, r0, lsl r0

00009be4 <GPFSEL5>:
    9be4:	20200014 	eorcs	r0, r0, r4, lsl r0

00009be8 <GPSET0>:
    9be8:	2020001c 	eorcs	r0, r0, ip, lsl r0

00009bec <GPSET1>:
    9bec:	20200020 	eorcs	r0, r0, r0, lsr #32

00009bf0 <GPCLR0>:
    9bf0:	20200028 	eorcs	r0, r0, r8, lsr #32

00009bf4 <GPCLR1>:
    9bf4:	2020002c 	eorcs	r0, r0, ip, lsr #32

00009bf8 <GPLEV0>:
    9bf8:	20200034 	eorcs	r0, r0, r4, lsr r0

00009bfc <GPLEV1>:
    9bfc:	20200038 	eorcs	r0, r0, r8, lsr r0

00009c00 <IRQ_PENDING_2>:
    9c00:	2000b208 	andcs	fp, r0, r8, lsl #4

00009c04 <GPREN0>:
    9c04:	2020004c 	eorcs	r0, r0, ip, asr #32

00009c08 <GPREN1>:
    9c08:	20200050 	eorcs	r0, r0, r0, asr r0

00009c0c <ENABLE_IRQS_2>:
    9c0c:	2000b214 	andcs	fp, r0, r4, lsl r2

00009c10 <GPFEN0>:
    9c10:	20200058 	eorcs	r0, r0, r8, asr r0

00009c14 <GPFEN1>:
    9c14:	2020005c 	eorcs	r0, r0, ip, asr r0

00009c18 <GPEDS0>:
    9c18:	20200040 	eorcs	r0, r0, r0, asr #32

00009c1c <GPEDS1>:
    9c1c:	20200044 	eorcs	r0, r0, r4, asr #32

00009c20 <IRQ_PENDING_1>:
    9c20:	2000b204 	andcs	fp, r0, r4, lsl #4

00009c24 <gpio_clr0>:
    9c24:	20200028 	eorcs	r0, r0, r8, lsr #32

00009c28 <gpio_set0>:
    9c28:	2020001c 	eorcs	r0, r0, ip, lsl r0

00009c2c <gpio_fsel0>:
    9c2c:	20200000 	eorcs	r0, r0, r0

00009c30 <AUX_ENABLES>:
    9c30:	20215004 	eorcs	r5, r1, r4

00009c34 <AUX_MU_CNTL_REG>:
    9c34:	20215060 	eorcs	r5, r1, r0, rrx

00009c38 <AUX_MU_IER_REG>:
    9c38:	20215044 	eorcs	r5, r1, r4, asr #32

00009c3c <AUX_MU_IIR_REG>:
    9c3c:	20215048 	eorcs	r5, r1, r8, asr #32

00009c40 <AUX_MU_LCR_REG>:
    9c40:	2021504c 	eorcs	r5, r1, ip, asr #32

00009c44 <AUX_MU_BAUD_REG>:
    9c44:	20215068 	eorcs	r5, r1, r8, rrx

00009c48 <AUX_MU_LSR_REG>:
    9c48:	20215054 	eorcs	r5, r1, r4, asr r0

00009c4c <AUX_MU_IO_REG>:
    9c4c:	20215040 	eorcs	r5, r1, r0, asr #32

00009c50 <AUX_MU_STAT_REG>:
    9c50:	20215064 	eorcs	r5, r1, r4, rrx

00009c54 <AUX_MU_SCRATCH>:
    9c54:	2021505c 	eorcs	r5, r1, ip, asr r0

00009c58 <AUX_MU_MSR_REG>:
    9c58:	20215058 	eorcs	r5, r1, r8, asr r0

00009c5c <AUX_MU_MCR_REG>:
    9c5c:	20215050 	eorcs	r5, r1, r0, asr r0

00009c60 <AUX_IRQ>:
    9c60:	20215000 	eorcs	r5, r1, r0

Disassembly of section .rodata:

00009c64 <__FUNCTION__.4228>:
    9c64:	6c637963 	stclvs	9, cr7, [r3], #-396	; 0xfffffe74
    9c68:	705f7365 	subsvc	r7, pc, r5, ror #6
    9c6c:	735f7265 	cmpvc	pc, #1342177286	; 0x50000006
    9c70:	00006365 	andeq	r6, r0, r5, ror #6
    9c74:	4f525245 	svcmi	0x00525245
    9c78:	73253a52 	teqvc	r5, #335872	; 0x52000
    9c7c:	3a73253a 	bcc	1cd316c <__bss_end__+0x1cc8dd4>
    9c80:	203a6425 	eorscs	r6, sl, r5, lsr #8
    9c84:	534c4146 	movtpl	r4, #49478	; 0xc146
    9c88:	733c2845 	teqvc	ip, #4521984	; 0x450000
    9c8c:	32203c20 	eorcc	r3, r0, #32, 24	; 0x2000
    9c90:	203a293e 	eorscs	r2, sl, lr, lsr r9
    9c94:	6c6c6977 	stclvs	9, cr6, [ip], #-476	; 0xfffffe24
    9c98:	65766f20 	ldrbvs	r6, [r6, #-3872]!	; 0xf20
    9c9c:	6f6c6672 	svcvs	0x006c6672
    9ca0:	00000a77 	andeq	r0, r0, r7, ror sl
    9ca4:	706f6373 	rsbvc	r6, pc, r3, ror r3	; <UNPREDICTABLE>
    9ca8:	00632e65 	rsbeq	r2, r3, r5, ror #28
    9cac:	73726946 	cmnvc	r2, #1146880	; 0x118000
    9cb0:	65722074 	ldrbvs	r2, [r2, #-116]!	; 0x74
    9cb4:	203a6461 	eorscs	r6, sl, r1, ror #8
    9cb8:	000a6425 	andeq	r6, sl, r5, lsr #8
    9cbc:	206d754e 	rsbcs	r7, sp, lr, asr #10
    9cc0:	6e617274 	mcrvs	2, 3, r7, cr1, cr4, {3}
    9cc4:	69746973 	ldmdbvs	r4!, {r0, r1, r4, r5, r6, r8, fp, sp, lr}^
    9cc8:	3a736e6f 	bcc	1ce568c <__bss_end__+0x1cdb2f4>
    9ccc:	0a642520 	beq	1913154 <__bss_end__+0x1908dbc>
    9cd0:	00000000 	andeq	r0, r0, r0
    9cd4:	4e415254 	mcrmi	2, 2, r5, cr1, cr4, {2}
    9cd8:	49544953 	ldmdbmi	r4, {r0, r1, r4, r6, r8, fp, lr}^
    9cdc:	54204e4f 	strtpl	r4, [r0], #-3663	; 0xe4f
    9ce0:	454c4241 	strbmi	r4, [ip, #-577]	; 0x241
    9ce4:	0000000a 	andeq	r0, r0, sl
    9ce8:	3a782520 	bcc	1e13170 <__bss_end__+0x1e08dd8>
    9cec:	6c617620 	stclvs	6, cr7, [r1], #-128	; 0xffffff80
    9cf0:	2c64253d 	cfstr64cs	mvdx2, [r4], #-244	; 0xffffff0c
    9cf4:	6d697420 	cfstrdvs	mvd7, [r9, #-128]!	; 0xffffff80
    9cf8:	64253d65 	strtvs	r3, [r5], #-3429	; 0xd65
    9cfc:	0000000a 	andeq	r0, r0, sl
    9d00:	504d4153 	subpl	r4, sp, r3, asr r1
    9d04:	5420454c 	strtpl	r4, [r0], #-1356	; 0x54c
    9d08:	454c4241 	strbmi	r4, [ip, #-577]	; 0x241
    9d0c:	0000000a 	andeq	r0, r0, sl
    9d10:	3a642520 	bcc	1913198 <__bss_end__+0x1908e00>
    9d14:	6c617620 	stclvs	6, cr7, [r1], #-128	; 0xffffff80
    9d18:	2c64253d 	cfstr64cs	mvdx2, [r4], #-244	; 0xffffff0c
    9d1c:	6d697420 	cfstrdvs	mvd7, [r9, #-128]!	; 0xffffff80
    9d20:	64253d65 	strtvs	r3, [r5], #-3429	; 0xd65
    9d24:	6f74202c 	svcvs	0x0074202c
    9d28:	64253d74 	strtvs	r3, [r5], #-3444	; 0xd74
    9d2c:	7865203a 	stmdavc	r5!, {r1, r3, r4, r5, sp}^
    9d30:	64253d70 	strtvs	r3, [r5], #-3440	; 0xd70
    9d34:	72652820 	rsbvc	r2, r5, #32, 16	; 0x200000
    9d38:	64253d72 	strtvs	r3, [r5], #-3442	; 0xd72
    9d3c:	6f74202c 	svcvs	0x0074202c
    9d40:	72726574 	rsbsvc	r6, r2, #116, 10	; 0x1d000000
    9d44:	2964253d 	stmdbcs	r4!, {r0, r2, r3, r4, r5, r8, sl, sp}^
    9d48:	0000000a 	andeq	r0, r0, sl

00009d4c <__FUNCTION__.4265>:
    9d4c:	74696d65 	strbtvc	r6, [r9], #-3429	; 0xd65
    9d50:	00000000 	andeq	r0, r0, r0

00009d54 <__FUNCTION__.4213>:
    9d54:	5f697072 	svcpl	0x00697072
    9d58:	5f746573 	svcpl	0x00746573
    9d5c:	7074756f 	rsbsvc	r7, r4, pc, ror #10
    9d60:	00007475 	andeq	r7, r0, r5, ror r4

00009d64 <__FUNCTION__.4287>:
    9d64:	705f6176 	subsvc	r6, pc, r6, ror r1	; <UNPREDICTABLE>
    9d68:	746e6972 	strbtvc	r6, [lr], #-2418	; 0x972
    9d6c:	0000006b 	andeq	r0, r0, fp, rrx
    9d70:	494e4150 	stmdbmi	lr, {r4, r6, r8, lr}^
    9d74:	73253a43 	teqvc	r5, #274432	; 0x43000
    9d78:	3a73253a 	bcc	1cd3268 <__bss_end__+0x1cc8ed0>
    9d7c:	253a6425 	ldrcs	r6, [sl, #-1061]!	; 0x425
    9d80:	00000a73 	andeq	r0, r0, r3, ror sl
    9d84:	6362696c 	cmnvs	r2, #108, 18	; 0x1b0000
    9d88:	2d61762f 	stclcs	6, cr7, [r1, #-188]!	; 0xffffff44
    9d8c:	6e697270 	mcrvs	2, 3, r7, cr9, cr0, {3}
    9d90:	632e6b74 	teqvs	lr, #116, 22	; 0x1d000
    9d94:	00000000 	andeq	r0, r0, r0
    9d98:	00000030 	andeq	r0, r0, r0, lsr r0
    9d9c:	33323130 	teqcc	r2, #48, 2
    9da0:	37363534 			; <UNDEFINED> instruction: 0x37363534
    9da4:	00003938 	andeq	r3, r0, r8, lsr r9
    9da8:	33323130 	teqcc	r2, #48, 2
    9dac:	37363534 			; <UNDEFINED> instruction: 0x37363534
    9db0:	62613938 	rsbvs	r3, r1, #56, 18	; 0xe0000
    9db4:	66656463 	strbtvs	r6, [r5], -r3, ror #8
    9db8:	00000000 	andeq	r0, r0, r0
    9dbc:	00003130 	andeq	r3, r0, r0, lsr r1
    9dc0:	63747570 	cmnvs	r4, #112, 10	; 0x1c000000
    9dc4:	0070665f 	rsbseq	r6, r0, pc, asr r6
    9dc8:	74646977 	strbtvc	r6, [r4], #-2423	; 0x977
    9dcc:	203c2068 	eorscs	r2, ip, r8, rrx
    9dd0:	00003233 	andeq	r3, r0, r3, lsr r2
    9dd4:	494e4150 	stmdbmi	lr, {r4, r6, r8, lr}^
    9dd8:	73253a43 	teqvc	r5, #274432	; 0x43000
    9ddc:	3a73253a 	bcc	1cd32cc <__bss_end__+0x1cc8f34>
    9de0:	663a6425 	ldrtvs	r6, [sl], -r5, lsr #8
    9de4:	74616f6c 	strbtvc	r6, [r1], #-3948	; 0xf6c
    9de8:	746f6e20 	strbtvc	r6, [pc], #-3616	; 9df0 <__FUNCTION__.4287+0x8c>
    9dec:	616e6520 	cmnvs	lr, r0, lsr #10
    9df0:	64656c62 	strbtvs	r6, [r5], #-3170	; 0xc62
    9df4:	0a212121 	beq	852280 <__bss_end__+0x847ee8>
    9df8:	00000000 	andeq	r0, r0, r0
    9dfc:	494e4150 	stmdbmi	lr, {r4, r6, r8, lr}^
    9e00:	73253a43 	teqvc	r5, #274432	; 0x43000
    9e04:	3a73253a 	bcc	1cd32f4 <__bss_end__+0x1cc8f5c>
    9e08:	703a6425 	eorsvc	r6, sl, r5, lsr #8
    9e0c:	746e6972 	strbtvc	r6, [lr], #-2418	; 0x972
    9e10:	6e203a6b 	vnmulvs.f32	s6, s0, s23
    9e14:	6820746f 	stmdavs	r0!, {r0, r1, r2, r3, r5, r6, sl, ip, sp, lr}
    9e18:	6c646e61 	stclvs	14, cr6, [r4], #-388	; 0xfffffe7c
    9e1c:	20676e69 	rsbcs	r6, r7, r9, ror #28
    9e20:	63657073 	cmnvs	r5, #115	; 0x73
    9e24:	65696669 	strbvs	r6, [r9, #-1641]!	; 0x669
    9e28:	25272072 	strcs	r2, [r7, #-114]!	; 0x72
    9e2c:	0a0a2763 	beq	293bc0 <__bss_end__+0x289828>
    9e30:	00000000 	andeq	r0, r0, r0
    9e34:	454e4f44 	strbmi	r4, [lr, #-3908]	; 0xf44
    9e38:	0a212121 	beq	8522c4 <__bss_end__+0x847f2c>
    9e3c:	00000000 	andeq	r0, r0, r0
    9e40:	756f6261 	strbvc	r6, [pc, #-609]!	; 9be7 <GPFSEL5+0x3>
    9e44:	6f742074 	svcvs	0x00742074
    9e48:	69727020 	ldmdbvs	r2!, {r5, ip, sp, lr}^
    9e4c:	6f20746e 	svcvs	0x0020746e
    9e50:	6572206e 	ldrbvs	r2, [r2, #-110]!	; 0x6e
    9e54:	616c7567 	cmnvs	ip, r7, ror #10
    9e58:	72702072 	rsbsvc	r2, r0, #114	; 0x72
    9e5c:	66746e69 	ldrbtvs	r6, [r4], -r9, ror #28
    9e60:	0000000a 	andeq	r0, r0, sl
    9e64:	63637573 	cmnvs	r3, #482344960	; 0x1cc00000
    9e68:	21737365 	cmncs	r3, r5, ror #6
    9e6c:	0000000a 	andeq	r0, r0, sl

00009e70 <__FUNCTION__.4314>:
    9e70:	755f7773 	ldrbvc	r7, [pc, #-1907]	; 9705 <sw_uart_gets_timeout+0xd>
    9e74:	5f747261 	svcpl	0x00747261
    9e78:	73746567 	cmnvc	r4, #432013312	; 0x19c00000
    9e7c:	746e755f 	strbtvc	r7, [lr], #-1375	; 0x55f
    9e80:	00006c69 	andeq	r6, r0, r9, ror #24

00009e84 <__FUNCTION__.4326>:
    9e84:	755f7773 	ldrbvc	r7, [pc, #-1907]	; 9719 <sw_uart_gets_timeout+0x21>
    9e88:	5f747261 	svcpl	0x00747261
    9e8c:	73746567 	cmnvc	r4, #432013312	; 0x19c00000
    9e90:	6d69745f 	cfstrdvs	mvd7, [r9, #-380]!	; 0xfffffe84
    9e94:	74756f65 	ldrbtvc	r6, [r5], #-3941	; 0xf65
    9e98:	00000000 	andeq	r0, r0, r0

00009e9c <__FUNCTION__.4340>:
    9e9c:	755f7773 	ldrbvc	r7, [pc, #-1907]	; 9731 <sw_uart_gets_timeout+0x39>
    9ea0:	5f747261 	svcpl	0x00747261
    9ea4:	74696e69 	strbtvc	r6, [r9], #-3689	; 0xe69
    9ea8:	6c65685f 	stclvs	8, cr6, [r5], #-380	; 0xfffffe84
    9eac:	00726570 	rsbseq	r6, r2, r0, ror r5

00009eb0 <__FUNCTION__.4346>:
    9eb0:	755f7773 	ldrbvc	r7, [pc, #-1907]	; 9745 <sw_uart_gets_timeout+0x4d>
    9eb4:	5f747261 	svcpl	0x00747261
    9eb8:	63746567 	cmnvs	r4, #432013312	; 0x19c00000
    9ebc:	00000000 	andeq	r0, r0, r0

00009ec0 <__FUNCTION__.4368>:
    9ec0:	755f7773 	ldrbvc	r7, [pc, #-1907]	; 9755 <sw_uart_gets_timeout+0x5d>
    9ec4:	5f747261 	svcpl	0x00747261
    9ec8:	6e697270 	mcrvs	2, 3, r7, cr9, cr0, {3}
    9ecc:	00006b74 	andeq	r6, r0, r4, ror fp

00009ed0 <__FUNCTION__.4376>:
    9ed0:	755f7773 	ldrbvc	r7, [pc, #-1907]	; 9765 <sw_uart_gets_timeout+0x6d>
    9ed4:	5f747261 	svcpl	0x00747261
    9ed8:	73746567 	cmnvc	r4, #432013312	; 0x19c00000
    9edc:	746e755f 	strbtvc	r7, [lr], #-1375	; 0x55f
    9ee0:	625f6c69 	subsvs	r6, pc, #26880	; 0x6900
    9ee4:	00006b6c 	andeq	r6, r0, ip, ror #22
    9ee8:	732d796d 	teqvc	sp, #1785856	; 0x1b4000
    9eec:	732f6372 	teqvc	pc, #-939524095	; 0xc8000001
    9ef0:	61752d77 	cmnvs	r5, r7, ror sp
    9ef4:	632e7472 	teqvs	lr, #1912602624	; 0x72000000
    9ef8:	00000000 	andeq	r0, r0, r0
    9efc:	7479626e 	ldrbtvc	r6, [r9], #-622	; 0x26e
    9f00:	303e7365 	eorscc	r7, lr, r5, ror #6
    9f04:	00000000 	andeq	r0, r0, r0
    9f08:	7a686d28 	bvc	1a253b0 <__bss_end__+0x1a1b018>
    9f0c:	62202d20 	eorvs	r2, r0, #32, 26	; 0x800
    9f10:	29647561 	stmdbcs	r4!, {r0, r5, r6, r8, sl, ip, sp, lr}^
    9f14:	203d3c20 	eorscs	r3, sp, r0, lsr #24
    9f18:	69726564 	ldmdbvs	r2!, {r2, r5, r6, r8, sl, sp, lr}^
    9f1c:	20646576 	rsbcs	r6, r4, r6, ror r5
    9f20:	64202626 	strtvs	r2, [r0], #-1574	; 0x626
    9f24:	76697265 	strbtvc	r7, [r9], -r5, ror #4
    9f28:	3c206465 	cfstrscc	mvf6, [r0], #-404	; 0xfffffe6c
    9f2c:	6d28203d 	stcvs	0, cr2, [r8, #-244]!	; 0xffffff0c
    9f30:	2b207a68 	blcs	8288d8 <__bss_end__+0x81e540>
    9f34:	75616220 	strbvc	r6, [r1, #-544]!	; 0x220
    9f38:	00002964 	andeq	r2, r0, r4, ror #18
    9f3c:	494e4150 	stmdbmi	lr, {r4, r6, r8, lr}^
    9f40:	73253a43 	teqvc	r5, #274432	; 0x43000
    9f44:	3a73253a 	bcc	1cd3434 <__bss_end__+0x1cc909c>
    9f48:	693a6425 	ldmdbvs	sl!, {r0, r2, r5, sl, sp, lr}
    9f4c:	736f706d 	cmnvc	pc, #109	; 0x6d
    9f50:	6c626973 	stclvs	9, cr6, [r2], #-460	; 0xfffffe34
    9f54:	68203a65 	stmdavs	r0!, {r0, r2, r5, r6, r9, fp, ip, sp}
    9f58:	20657661 	rsbcs	r7, r5, r1, ror #12
    9f5c:	69206e61 	stmdbvs	r0!, {r0, r5, r6, r9, sl, fp, sp, lr}
    9f60:	6e69666e 	cdpvs	6, 6, cr6, cr9, cr14, {3}
    9f64:	20657469 	rsbcs	r7, r5, r9, ror #8
    9f68:	656d6974 	strbvs	r6, [sp, #-2420]!	; 0x974
    9f6c:	2174756f 	cmncs	r4, pc, ror #10
    9f70:	00000a0a 	andeq	r0, r0, sl, lsl #20
    9f74:	3c207a73 	stccc	10, cr7, [r0], #-460	; 0xfffffe34
    9f78:	7a697320 	bvc	1a66c00 <__bss_end__+0x1a5c868>
    9f7c:	20666f65 	rsbcs	r6, r6, r5, ror #30
    9f80:	2d667562 	cfstr64cs	mvdx7, [r6, #-392]!	; 0xfffffe78
    9f84:	00000031 	andeq	r0, r0, r1, lsr r0

Disassembly of section .bss:

00009f88 <__bss_start__>:
	...

0000a388 <console_uart>:
	...

Disassembly of section .ARM.attributes:

00000000 <.ARM.attributes>:
   0:	00002a41 	andeq	r2, r0, r1, asr #20
   4:	61656100 	cmnvs	r5, r0, lsl #2
   8:	01006962 	tsteq	r0, r2, ror #18
   c:	00000020 	andeq	r0, r0, r0, lsr #32
  10:	4b5a3605 	blmi	168d82c <__bss_end__+0x1683494>
  14:	08070600 	stmdaeq	r7, {r9, sl}
  18:	12010901 	andne	r0, r1, #16384	; 0x4000
  1c:	15011404 	strne	r1, [r1, #-1028]	; 0x404
  20:	18031701 	stmdane	r3, {r0, r8, r9, sl, ip}
  24:	22011a01 	andcs	r1, r1, #4096	; 0x1000
  28:	Address 0x0000000000000028 is out of bounds.


Disassembly of section .comment:

00000000 <.comment>:
   0:	3a434347 	bcc	10d0d24 <__bss_end__+0x10c698c>
   4:	4e472820 	cdpmi	8, 4, cr2, cr7, cr0, {1}
   8:	34202955 	strtcc	r2, [r0], #-2389	; 0x955
   c:	332e382e 	teqcc	lr, #3014656	; 0x2e0000
	...

Disassembly of section .debug_info:

00000000 <.debug_info>:
       0:	0000071f 	andeq	r0, r0, pc, lsl r7
       4:	00000004 	andeq	r0, r0, r4
       8:	01040000 	mrseq	r0, (UNDEF: 4)
       c:	0000007c 	andeq	r0, r0, ip, ror r0
      10:	00028c01 	andeq	r8, r2, r1, lsl #24
      14:	0001c300 	andeq	ip, r1, r0, lsl #6
      18:	00801000 	addeq	r1, r0, r0
      1c:	0005a800 	andeq	sl, r5, r0, lsl #16
      20:	00000000 	andeq	r0, r0, r0
      24:	05040200 	streq	r0, [r4, #-512]	; 0x200
      28:	00746e69 	rsbseq	r6, r4, r9, ror #28
      2c:	33070403 	movwcc	r0, #29699	; 0x7403
      30:	03000000 	movweq	r0, #0
      34:	01950601 	orrseq	r0, r5, r1, lsl #12
      38:	02030000 	andeq	r0, r3, #0
      3c:	0001a105 	andeq	sl, r1, r5, lsl #2
      40:	05040300 	streq	r0, [r4, #-768]	; 0x300
      44:	00000045 	andeq	r0, r0, r5, asr #32
      48:	40050803 	andmi	r0, r5, r3, lsl #16
      4c:	03000000 	movweq	r0, #0
      50:	01930801 	orrseq	r0, r3, r1, lsl #16
      54:	02030000 	andeq	r0, r3, #0
      58:	00012707 	andeq	r2, r1, r7, lsl #14
      5c:	07040300 	streq	r0, [r4, -r0, lsl #6]
      60:	0000002e 	andeq	r0, r0, lr, lsr #32
      64:	29070803 	stmdbcs	r7, {r0, r1, fp}
      68:	03000000 	movweq	r0, #0
      6c:	01710704 	cmneq	r1, r4, lsl #14
      70:	01030000 	mrseq	r0, (UNDEF: 3)
      74:	00019c08 	andeq	r9, r1, r8, lsl #24
      78:	7f040400 	svcvc	0x00040400
      7c:	05000000 	streq	r0, [r0, #-0]
      80:	00000072 	andeq	r0, r0, r2, ror r0
      84:	1c010806 	stcne	8, cr0, [r1], {6}
      88:	000000a3 	andeq	r0, r0, r3, lsr #1
      8c:	01007607 	tsteq	r0, r7, lsl #12
      90:	00002c1d 	andeq	r2, r0, sp, lsl ip
      94:	86080000 	strhi	r0, [r8], -r0
      98:	01000008 	tsteq	r0, r8
      9c:	00002c1d 	andeq	r2, r0, sp, lsl ip
      a0:	09000400 	stmdbeq	r0, {sl}
      a4:	00000072 	andeq	r0, r0, r2, ror r0
      a8:	00841e01 	addeq	r1, r4, r1, lsl #28
      ac:	5e0a0000 	cdppl	0, 0, cr0, cr10, cr0, {0}
      b0:	01000002 	tsteq	r0, r2
      b4:	00002521 	andeq	r2, r0, r1, lsr #10
      b8:	00ca0300 	sbceq	r0, sl, r0, lsl #6
      bc:	700b0000 	andvc	r0, fp, r0
      c0:	01006e69 	tsteq	r0, r9, ror #28
      c4:	00002c21 	andeq	r2, r0, r1, lsr #24
      c8:	b40c0000 	strlt	r0, [ip], #-0
      cc:	01000001 	tsteq	r0, r1
      d0:	00002c26 	andeq	r2, r0, r6, lsr #24
      d4:	00801000 	addeq	r1, r0, r0
      d8:	00005000 	andeq	r5, r0, r0
      dc:	aa9c0100 	bge	fe7004e4 <__bss_end__+0xfe6f614c>
      e0:	0d000001 	stceq	0, cr0, [r0, #-4]
      e4:	26010073 			; <UNDEFINED> instruction: 0x26010073
      e8:	0000002c 	andeq	r0, r0, ip, lsr #32
      ec:	00000000 	andeq	r0, r0, r0
      f0:	00010a0e 	andeq	r0, r1, lr, lsl #20
      f4:	0001ba00 	andeq	fp, r1, r0, lsl #20
      f8:	64030500 	strvs	r0, [r3], #-1280	; 0x500
      fc:	0f00009c 	svceq	0x0000009c
     100:	0000022e 	andeq	r0, r0, lr, lsr #4
     104:	002c2801 	eoreq	r2, ip, r1, lsl #16
     108:	3a100000 	bcc	400110 <__bss_end__+0x3f5d78>
     10c:	01000001 	tsteq	r0, r1
     110:	00002c2a 	andeq	r2, r0, sl, lsr #24
     114:	00003a00 	andeq	r3, r0, r0, lsl #20
     118:	801c1100 	andshi	r1, ip, r0, lsl #2
     11c:	00040000 	andeq	r0, r4, r0
     120:	01320000 	teqeq	r2, r0
     124:	890f0000 	stmdbhi	pc, {}	; <UNPREDICTABLE>
     128:	01000001 	tsteq	r0, r1
     12c:	00002c28 	andeq	r2, r0, r8, lsr #24
     130:	2c110000 	ldccs	0, cr0, [r1], {-0}
     134:	04000080 	streq	r0, [r0], #-128	; 0x80
     138:	4f000000 	svcmi	0x00000000
     13c:	10000001 	andne	r0, r0, r1
     140:	00000189 	andeq	r0, r0, r9, lsl #3
     144:	002c2a01 	eoreq	r2, ip, r1, lsl #20
     148:	003a0000 	eorseq	r0, sl, r0
     14c:	12000000 	andne	r0, r0, #0
     150:	0000802c 	andeq	r8, r0, ip, lsr #32
     154:	000006d9 	ldrdeq	r0, [r0], -r9
     158:	00000168 	andeq	r0, r0, r8, ror #2
     15c:	07500113 	smmlaeq	r0, r3, r1, r0
     160:	0a5001f3 	beq	1400934 <__bss_end__+0x13f659c>
     164:	001e03e8 	andseq	r0, lr, r8, ror #7
     168:	00803c14 	addeq	r3, r0, r4, lsl ip
     16c:	0006ea00 	andeq	lr, r6, r0, lsl #20
     170:	80501200 	subshi	r1, r0, r0, lsl #4
     174:	06f10000 	ldrbteq	r0, [r1], r0
     178:	01a00000 	moveq	r0, r0
     17c:	01130000 	tsteq	r3, r0
     180:	27080253 	smlsdcs	r8, r3, r2, r0
     184:	05520113 	ldrbeq	r0, [r2, #-275]	; 0x113
     188:	009c6403 	addseq	r6, ip, r3, lsl #8
     18c:	51011300 	mrspl	r1, SP_irq
     190:	9ca40305 	stcls	3, cr0, [r4], #20
     194:	01130000 	tsteq	r3, r0
     198:	74030550 	strvc	r0, [r3], #-1360	; 0x550
     19c:	0000009c 	muleq	r0, ip, r0
     1a0:	00805414 	addeq	r5, r0, r4, lsl r4
     1a4:	00070700 	andeq	r0, r7, r0, lsl #14
     1a8:	72150000 	andsvc	r0, r5, #0
     1ac:	ba000000 	blt	1b4 <_start-0x7e4c>
     1b0:	16000001 	strne	r0, [r0], -r1
     1b4:	0000006b 	andeq	r0, r0, fp, rrx
     1b8:	aa05000e 	bge	1401f8 <__bss_end__+0x135e60>
     1bc:	0c000001 	stceq	0, cr0, [r0], {1}
     1c0:	0000021e 	andeq	r0, r0, lr, lsl r2
     1c4:	002c3401 	eoreq	r3, ip, r1, lsl #8
     1c8:	80600000 	rsbhi	r0, r0, r0
     1cc:	04780000 	ldrbteq	r0, [r8], #-0
     1d0:	9c010000 	stcls	0, cr0, [r1], {-0}
     1d4:	00000418 	andeq	r0, r0, r8, lsl r4
     1d8:	6e69700d 	cdpvs	0, 6, cr7, cr9, cr13, {0}
     1dc:	2c340100 	ldfcss	f0, [r4], #-0
     1e0:	4d000000 	stcmi	0, cr0, [r0, #-0]
     1e4:	0d000000 	stceq	0, cr0, [r0, #-0]
     1e8:	3401006c 	strcc	r0, [r1], #-108	; 0x6c
     1ec:	00000418 	andeq	r0, r0, r8, lsl r4
     1f0:	00000084 	andeq	r0, r0, r4, lsl #1
     1f4:	00014c17 	andeq	r4, r1, r7, lsl ip
     1f8:	2c340100 	ldfcss	f0, [r4], #-0
     1fc:	c9000000 	stmdbgt	r0, {}	; <UNPREDICTABLE>
     200:	17000000 	strne	r0, [r0, -r0]
     204:	0000026d 	andeq	r0, r0, sp, ror #4
     208:	002c3401 	eoreq	r3, ip, r1, lsl #8
     20c:	00ea0000 	rsceq	r0, sl, r0
     210:	17100000 	ldrne	r0, [r0, -r0]
     214:	01000001 	tsteq	r0, r1
     218:	00002c35 	andeq	r2, r0, r5, lsr ip
     21c:	00010b00 	andeq	r0, r1, r0, lsl #22
     220:	02781000 	rsbseq	r1, r8, #0
     224:	36010000 	strcc	r0, [r1], -r0
     228:	0000002c 	andeq	r0, r0, ip, lsr #32
     22c:	0000012a 	andeq	r0, r0, sl, lsr #2
     230:	00023410 	andeq	r3, r2, r0, lsl r4
     234:	2c370100 	ldfcss	f0, [r7], #-0
     238:	53000000 	movwpl	r0, #0
     23c:	18000001 	stmdane	r0, {r0}
     240:	0000017a 	andeq	r0, r0, sl, ror r1
     244:	041e3801 	ldreq	r3, [lr], #-2049	; 0x801
     248:	91030000 	mrsls	r0, (UNDEF: 3)
     24c:	17107f88 	ldrne	r7, [r0, -r8, lsl #31]
     250:	01000000 	mrseq	r0, (UNDEF: 0)
     254:	00002c3a 	andeq	r2, r0, sl, lsr ip
     258:	00019200 	andeq	r9, r1, r0, lsl #4
     25c:	04ef1000 	strbteq	r1, [pc], #0	; 264 <_start-0x7d9c>
     260:	3f010000 	svccc	0x00010000
     264:	0000002c 	andeq	r0, r0, ip, lsr #32
     268:	000001b0 			; <UNDEFINED> instruction: 0x000001b0
     26c:	0000ae19 	andeq	sl, r0, r9, lsl lr
     270:	00806400 	addeq	r6, r0, r0, lsl #8
     274:	00000000 	andeq	r0, r0, r0
     278:	893a0100 	ldmdbhi	sl!, {r8}
     27c:	1a000002 	bne	28c <_start-0x7d74>
     280:	000000be 	strheq	r0, [r0], -lr
     284:	0000004d 	andeq	r0, r0, sp, asr #32
     288:	80801100 	addhi	r1, r0, r0, lsl #2
     28c:	00080000 	andeq	r0, r8, r0
     290:	02a60000 	adceq	r0, r6, #0
     294:	89100000 	ldmdbhi	r0, {}	; <UNPREDICTABLE>
     298:	01000001 	tsteq	r0, r1
     29c:	00002c3f 	andeq	r2, r0, pc, lsr ip
     2a0:	0001b000 	andeq	fp, r1, r0
     2a4:	181b0000 	ldmdane	fp, {}	; <UNPREDICTABLE>
     2a8:	d6000000 	strle	r0, [r0], -r0
     2ac:	1c000002 	stcne	0, cr0, [r0], {2}
     2b0:	52010069 	andpl	r0, r1, #105	; 0x69
     2b4:	00000025 	andeq	r0, r0, r5, lsr #32
     2b8:	000001d9 	ldrdeq	r0, [r0], -r9
     2bc:	0080b41d 	addeq	fp, r0, sp, lsl r4
     2c0:	00000400 	andeq	r0, r0, r0, lsl #8
     2c4:	01891000 	orreq	r1, r9, r0
     2c8:	56010000 	strpl	r0, [r1], -r0
     2cc:	0000002c 	andeq	r0, r0, ip, lsr #32
     2d0:	000001ed 	andeq	r0, r0, sp, ror #3
     2d4:	301b0000 	andscc	r0, fp, r0
     2d8:	ed000000 	stc	0, cr0, [r0, #-0]
     2dc:	1c000002 	stcne	0, cr0, [r0], {2}
     2e0:	5c010061 	stcpl	0, cr0, [r1], {97}	; 0x61
     2e4:	00000025 	andeq	r0, r0, r5, lsr #32
     2e8:	00000200 	andeq	r0, r0, r0, lsl #4
     2ec:	00481b00 	subeq	r1, r8, r0, lsl #22
     2f0:	03040000 	movweq	r0, #16384	; 0x4000
     2f4:	6a1c0000 	bvs	7002fc <__bss_end__+0x6f5f64>
     2f8:	25660100 	strbcs	r0, [r6, #-256]!	; 0x100
     2fc:	4d000000 	stcmi	0, cr0, [r0, #-0]
     300:	00000002 	andeq	r0, r0, r2
     304:	00841411 	addeq	r1, r4, r1, lsl r4
     308:	00002c00 	andeq	r2, r0, r0, lsl #24
     30c:	00035a00 	andeq	r5, r3, r0, lsl #20
     310:	00691c00 	rsbeq	r1, r9, r0, lsl #24
     314:	00256e01 	eoreq	r6, r5, r1, lsl #28
     318:	03770000 	cmneq	r7, #0
     31c:	601e0000 	andsvs	r0, lr, r0
     320:	1c000000 	stcne	0, cr0, [r0], {-0}
     324:	6f010065 	svcvs	0x00010065
     328:	00000418 	andeq	r0, r0, r8, lsl r4
     32c:	000003c5 	andeq	r0, r0, r5, asr #7
     330:	00018e10 	andeq	r8, r1, r0, lsl lr
     334:	2c710100 	ldfcse	f0, [r1], #-0
     338:	f3000000 	vhadd.u8	d0, d0, d0
     33c:	1f000003 	svcne	0x00000003
     340:	00008434 	andeq	r8, r0, r4, lsr r4
     344:	000006f1 	strdeq	r0, [r0], -r1
     348:	02510113 	subseq	r0, r1, #-1073741820	; 0xc0000004
     34c:	01137f75 	tsteq	r3, r5, ror pc
     350:	e8030550 	stmda	r3, {r4, r6, r8, sl}
     354:	0000009c 	muleq	r0, ip, r0
     358:	fc120000 	ldc2	0, cr0, [r2], {-0}
     35c:	f1000083 	cps	#3
     360:	77000006 	strvc	r0, [r0, -r6]
     364:	13000003 	movwne	r0, #3
     368:	75025101 	strvc	r5, [r2, #-257]	; 0x101
     36c:	50011300 	andpl	r1, r1, r0, lsl #6
     370:	9cac0305 	stcls	3, cr0, [ip], #20
     374:	12000000 	andne	r0, r0, #0
     378:	00008408 	andeq	r8, r0, r8, lsl #8
     37c:	000006f1 	strdeq	r0, [r0], -r1
     380:	00000394 	muleq	r0, r4, r3
     384:	02510113 	subseq	r0, r1, #-1073741820	; 0xc0000004
     388:	01130074 	tsteq	r3, r4, ror r0
     38c:	bc030550 	cfstr32lt	mvfx0, [r3], {80}	; 0x50
     390:	0000009c 	muleq	r0, ip, r0
     394:	00841012 	addeq	r1, r4, r2, lsl r0
     398:	0006f100 	andeq	pc, r6, r0, lsl #2
     39c:	0003ab00 	andeq	sl, r3, r0, lsl #22
     3a0:	50011300 	andpl	r1, r1, r0, lsl #6
     3a4:	9cd40305 	ldclls	3, cr0, [r4], {5}
     3a8:	12000000 	andne	r0, r0, #0
     3ac:	00008448 	andeq	r8, r0, r8, asr #8
     3b0:	000006f1 	strdeq	r0, [r0], -r1
     3b4:	000003c2 	andeq	r0, r0, r2, asr #7
     3b8:	05500113 	ldrbeq	r0, [r0, #-275]	; 0x113
     3bc:	009d0003 	addseq	r0, sp, r3
     3c0:	98120000 	ldmdals	r2, {}	; <UNPREDICTABLE>
     3c4:	f1000084 	cps	#4
     3c8:	e7000006 	str	r0, [r0, -r6]
     3cc:	13000003 	movwne	r0, #3
     3d0:	310a5101 	tstcc	sl, r1, lsl #2
     3d4:	77240076 			; <UNDEFINED> instruction: 0x77240076
     3d8:	00761a00 	rsbseq	r1, r6, r0, lsl #20
     3dc:	50011325 	andpl	r1, r1, r5, lsr #6
     3e0:	9cac0305 	stcls	3, cr0, [ip], #20
     3e4:	12000000 	andne	r0, r0, #0
     3e8:	000084a4 	andeq	r8, r0, r4, lsr #9
     3ec:	000006f1 	strdeq	r0, [r0], -r1
     3f0:	00000404 	andeq	r0, r0, r4, lsl #8
     3f4:	02510113 	subseq	r0, r1, #-1073741820	; 0xc0000004
     3f8:	01130074 	tsteq	r3, r4, ror r0
     3fc:	bc030550 	cfstr32lt	mvfx0, [r3], {80}	; 0x50
     400:	0000009c 	muleq	r0, ip, r0
     404:	0084ac1f 	addeq	sl, r4, pc, lsl ip
     408:	0006f100 	andeq	pc, r6, r0, lsl #2
     40c:	50011300 	andpl	r1, r1, r0, lsl #6
     410:	9cd40305 	ldclls	3, cr0, [r4], {5}
     414:	00000000 	andeq	r0, r0, r0
     418:	00a30404 	adceq	r0, r3, r4, lsl #8
     41c:	a3150000 	tstge	r5, #0
     420:	2e000000 	cdpcs	0, 0, cr0, cr0, cr0, {0}
     424:	16000004 	strne	r0, [r0], -r4
     428:	0000006b 	andeq	r0, r0, fp, rrx
     42c:	3f20000a 	svccc	0x0020000a
     430:	01000001 	tsteq	r0, r1
     434:	0084d87b 	addeq	sp, r4, fp, ror r8
     438:	00009000 	andeq	r9, r0, r0
     43c:	109c0100 	addsne	r0, ip, r0, lsl #2
     440:	0d000005 	stceq	0, cr0, [r0, #-20]	; 0xffffffec
     444:	7b01006c 	blvc	405fc <__bss_end__+0x36264>
     448:	00000418 	andeq	r0, r0, r8, lsl r4
     44c:	0000040d 	andeq	r0, r0, sp, lsl #8
     450:	01006e0d 	tsteq	r0, sp, lsl #28
     454:	00002c7b 	andeq	r2, r0, fp, ror ip
     458:	00043900 	andeq	r3, r4, r0, lsl #18
     45c:	00221700 	eoreq	r1, r2, r0, lsl #14
     460:	7b010000 	blvc	40468 <__bss_end__+0x360d0>
     464:	0000002c 	andeq	r0, r0, ip, lsr #32
     468:	00000467 	andeq	r0, r0, r7, ror #8
     46c:	746f741c 	strbtvc	r7, [pc], #-1052	; 474 <_start-0x7b8c>
     470:	2c7c0100 	ldfcse	f0, [ip], #-0
     474:	93000000 	movwls	r0, #0
     478:	10000004 	andne	r0, r0, r4
     47c:	0000004e 	andeq	r0, r0, lr, asr #32
     480:	002c7c01 	eoreq	r7, ip, r1, lsl #24
     484:	04b20000 	ldrteq	r0, [r2], #0
     488:	781e0000 	ldmdavc	lr, {}	; <UNPREDICTABLE>
     48c:	1c000000 	stcne	0, cr0, [r0], {-0}
     490:	7e010069 	cdpvc	0, 0, cr0, cr1, cr9, {3}
     494:	00000025 	andeq	r0, r0, r5, lsr #32
     498:	000004d1 	ldrdeq	r0, [r0], -r1
     49c:	0085101d 	addeq	r1, r5, sp, lsl r0
     4a0:	00004000 	andeq	r4, r0, r0
     4a4:	00651c00 	rsbeq	r1, r5, r0, lsl #24
     4a8:	04187f01 	ldreq	r7, [r8], #-3841	; 0xf01
     4ac:	05130000 	ldreq	r0, [r3, #-0]
     4b0:	8e100000 	cdphi	0, 1, cr0, cr0, cr0, {0}
     4b4:	01000001 	tsteq	r0, r1
     4b8:	00002c81 	andeq	r2, r0, r1, lsl #25
     4bc:	00053600 	andeq	r3, r5, r0, lsl #12
     4c0:	78651c00 	stmdavc	r5!, {sl, fp, ip}^
     4c4:	84010070 	strhi	r0, [r1], #-112	; 0x70
     4c8:	0000002c 	andeq	r0, r0, ip, lsr #32
     4cc:	00000549 	andeq	r0, r0, r9, asr #10
     4d0:	7272651c 	rsbsvc	r6, r2, #28, 10	; 0x7000000
     4d4:	2c850100 	stfcss	f0, [r5], {0}
     4d8:	5c000000 	stcpl	0, cr0, [r0], {-0}
     4dc:	1f000005 	svcne	0x00000005
     4e0:	00008550 	andeq	r8, r0, r0, asr r5
     4e4:	000006f1 	strdeq	r0, [r0], -r1
     4e8:	02510113 	subseq	r0, r1, #-1073741820	; 0xc0000004
     4ec:	01137f77 	tsteq	r3, r7, ror pc
     4f0:	10030550 	andne	r0, r3, r0, asr r5
     4f4:	1300009d 	movwne	r0, #157	; 0x9d
     4f8:	020c7d02 	andeq	r7, ip, #2, 26	; 0x80
     4fc:	02130076 	andseq	r0, r3, #118	; 0x76
     500:	7402047d 	strvc	r0, [r2], #-1149	; 0x47d
     504:	7d021300 	stcvc	3, cr1, [r2, #-0]
     508:	00750200 	rsbseq	r0, r5, r0, lsl #4
     50c:	00000000 	andeq	r0, r0, r0
     510:	00000f20 	andeq	r0, r0, r0, lsr #30
     514:	688c0100 	stmvs	ip, {r8}
     518:	50000085 	andpl	r0, r0, r5, lsl #1
     51c:	01000000 	mrseq	r0, (UNDEF: 0)
     520:	0005d89c 	muleq	r5, ip, r8
     524:	69702100 	ldmdbvs	r0!, {r8, sp}^
     528:	8d01006e 	stchi	0, cr0, [r1, #-440]	; 0xfffffe48
     52c:	00000025 	andeq	r0, r0, r5, lsr #32
     530:	6f6c2215 	svcvs	0x006c2215
     534:	93010067 	movwls	r0, #4199	; 0x1067
     538:	000005d8 	ldrdeq	r0, [r0], -r8
     53c:	7fa89103 	svcvc	0x00a89103
     540:	01006e1c 	tsteq	r0, ip, lsl lr
     544:	00002c95 	muleq	r0, r5, ip
     548:	00057b00 	andeq	r7, r5, r0, lsl #22
     54c:	857c1100 	ldrbhi	r1, [ip, #-256]!	; 0x100
     550:	00080000 	andeq	r0, r8, r0
     554:	05660000 	strbeq	r0, [r6, #-0]!
     558:	69210000 	stmdbvs	r1!, {}	; <UNPREDICTABLE>
     55c:	9001006e 	andls	r0, r1, lr, rrx
     560:	0000002c 	andeq	r0, r0, ip, lsr #32
     564:	74140001 	ldrvc	r0, [r4], #-1
     568:	0e000085 	cdpeq	0, 0, cr0, cr0, cr5, {4}
     56c:	12000007 	andne	r0, r0, #7
     570:	0000857c 	andeq	r8, r0, ip, ror r5
     574:	00000715 	andeq	r0, r0, r5, lsl r7
     578:	00000582 	andeq	r0, r0, r2, lsl #11
     57c:	01500113 	cmpeq	r0, r3, lsl r1
     580:	8c120045 	ldchi	0, cr0, [r2], {69}	; 0x45
     584:	ca000085 	bgt	7a0 <_start-0x7860>
     588:	95000000 	strls	r0, [r0, #-0]
     58c:	13000005 	movwne	r0, #5
     590:	31015001 	tstcc	r1, r1
     594:	85a01200 	strhi	r1, [r0, #512]!	; 0x200
     598:	01bf0000 			; <UNDEFINED> instruction: 0x01bf0000
     59c:	05b30000 	ldreq	r0, [r3, #0]!
     5a0:	01130000 	tsteq	r3, r0
     5a4:	133a0152 	teqne	sl, #-2147483628	; 0x80000014
     5a8:	7d025101 	stfvcs	f5, [r2, #-4]
     5ac:	50011300 	andpl	r1, r1, r0, lsl #6
     5b0:	12004501 	andne	r4, r0, #4194304	; 0x400000
     5b4:	000085b0 			; <UNDEFINED> instruction: 0x000085b0
     5b8:	0000042e 	andeq	r0, r0, lr, lsr #8
     5bc:	000005ce 	andeq	r0, r0, lr, asr #11
     5c0:	03520113 	cmpeq	r2, #-1073741820	; 0xc0000004
     5c4:	1317700a 	tstne	r7, #10
     5c8:	7d025001 	stcvc	0, cr5, [r2, #-4]
     5cc:	b4140000 	ldrlt	r0, [r4], #-0
     5d0:	07000085 	streq	r0, [r0, -r5, lsl #1]
     5d4:	00000007 	andeq	r0, r0, r7
     5d8:	0000a315 	andeq	sl, r0, r5, lsl r3
     5dc:	0005e800 	andeq	lr, r5, r0, lsl #16
     5e0:	006b1600 	rsbeq	r1, fp, r0, lsl #12
     5e4:	00090000 	andeq	r0, r9, r0
     5e8:	00015223 	andeq	r5, r1, r3, lsr #4
     5ec:	f7070100 			; <UNDEFINED> instruction: 0xf7070100
     5f0:	00000005 	andeq	r0, r0, r5
     5f4:	04202000 	strteq	r2, [r0], #-0
     5f8:	0005fd04 	andeq	pc, r5, r4, lsl #26
     5fc:	002c2400 	eoreq	r2, ip, r0, lsl #8
     600:	24230000 	strtcs	r0, [r3], #-0
     604:	01000002 	tsteq	r0, r2
     608:	0005f708 	andeq	pc, r5, r8, lsl #14
     60c:	20001c00 	andcs	r1, r0, r0, lsl #24
     610:	02822320 	addeq	r2, r2, #32, 6	; 0x80000000
     614:	09010000 	stmdbeq	r1, {}	; <UNPREDICTABLE>
     618:	000005f7 	strdeq	r0, [r0], -r7
     61c:	20200028 	eorcs	r0, r0, r8, lsr #32
     620:	0000e223 	andeq	lr, r0, r3, lsr #4
     624:	f70b0100 			; <UNDEFINED> instruction: 0xf70b0100
     628:	00000005 	andeq	r0, r0, r5
     62c:	23202000 	teqcs	r0, #0
     630:	000000ea 	andeq	r0, r0, sl, ror #1
     634:	05f70c01 	ldrbeq	r0, [r7, #3073]!	; 0xc01
     638:	00040000 	andeq	r0, r4, r0
     63c:	00232020 	eoreq	r2, r3, r0, lsr #32
     640:	01000000 	mrseq	r0, (UNDEF: 0)
     644:	0005f70d 	andeq	pc, r5, sp, lsl #14
     648:	20000800 	andcs	r0, r0, r0, lsl #16
     64c:	00f22320 	rscseq	r2, r2, r0, lsr #6
     650:	0e010000 	cdpeq	0, 0, cr0, cr1, cr0, {0}
     654:	000005f7 	strdeq	r0, [r0], -r7
     658:	2020000c 	eorcs	r0, r0, ip
     65c:	0000fa23 	andeq	pc, r0, r3, lsr #20
     660:	f70f0100 			; <UNDEFINED> instruction: 0xf70f0100
     664:	10000005 	andne	r0, r0, r5
     668:	23202000 	teqcs	r0, #0
     66c:	00000102 	andeq	r0, r0, r2, lsl #2
     670:	05f71001 	ldrbeq	r1, [r7, #1]!
     674:	00140000 	andseq	r0, r4, r0
     678:	56232020 	strtpl	r2, [r3], -r0, lsr #32
     67c:	01000000 	mrseq	r0, (UNDEF: 0)
     680:	0005f712 	andeq	pc, r5, r2, lsl r7	; <UNPREDICTABLE>
     684:	20001c00 	andcs	r1, r0, r0, lsl #24
     688:	005d2320 	subseq	r2, sp, r0, lsr #6
     68c:	13010000 	movwne	r0, #4096	; 0x1000
     690:	000005f7 	strdeq	r0, [r0], -r7
     694:	20200020 	eorcs	r0, r0, r0, lsr #32
     698:	00000823 	andeq	r0, r0, r3, lsr #16
     69c:	f7150100 			; <UNDEFINED> instruction: 0xf7150100
     6a0:	28000005 	stmdacs	r0, {r0, r2}
     6a4:	23202000 	teqcs	r0, #0
     6a8:	0000015d 	andeq	r0, r0, sp, asr r1
     6ac:	05f71601 	ldrbeq	r1, [r7, #1537]!	; 0x601
     6b0:	002c0000 	eoreq	r0, ip, r0
     6b4:	64232020 	strtvs	r2, [r3], #-32
     6b8:	01000000 	mrseq	r0, (UNDEF: 0)
     6bc:	0006c518 	andeq	ip, r6, r8, lsl r5
     6c0:	20003400 	andcs	r3, r0, r0, lsl #8
     6c4:	05f70520 	ldrbeq	r0, [r7, #1312]!	; 0x520
     6c8:	6b230000 	blvs	8c06d0 <__bss_end__+0x8b6338>
     6cc:	01000000 	mrseq	r0, (UNDEF: 0)
     6d0:	0005f719 	andeq	pc, r5, r9, lsl r7	; <UNPREDICTABLE>
     6d4:	20003800 	andcs	r3, r0, r0, lsl #16
     6d8:	01ab2520 			; <UNDEFINED> instruction: 0x01ab2520
     6dc:	50020000 	andpl	r0, r2, r0
     6e0:	000006ea 	andeq	r0, r0, sl, ror #13
     6e4:	00002c26 	andeq	r2, r0, r6, lsr #24
     6e8:	d3270000 	teqle	r7, #0
     6ec:	02000000 	andeq	r0, r0, #0
     6f0:	030b281e 	movweq	r2, #47134	; 0xb81e
     6f4:	29020000 	stmdbcs	r2, {}	; <UNPREDICTABLE>
     6f8:	00000025 	andeq	r0, r0, r5, lsr #32
     6fc:	00000707 	andeq	r0, r0, r7, lsl #14
     700:	00007926 	andeq	r7, r0, r6, lsr #18
     704:	27002900 	strcs	r2, [r0, -r0, lsl #18]
     708:	00000164 	andeq	r0, r0, r4, ror #2
     70c:	51276602 	teqpl	r7, r2, lsl #12
     710:	02000002 	andeq	r0, r0, #2
     714:	02422a8e 	subeq	r2, r2, #581632	; 0x8e000
     718:	1c030000 	stcne	0, cr0, [r3], {-0}
     71c:	00002c26 	andeq	r2, r0, r6, lsr #24
     720:	91000000 	mrsls	r0, (UNDEF: 0)
     724:	04000001 	streq	r0, [r0], #-1
     728:	00023600 	andeq	r3, r2, r0, lsl #12
     72c:	b1010400 	tstlt	r1, r0, lsl #8
     730:	01000002 	tsteq	r0, r2
     734:	000002a3 	andeq	r0, r0, r3, lsr #5
     738:	0000031c 	andeq	r0, r0, ip, lsl r3
     73c:	000085b8 			; <UNDEFINED> instruction: 0x000085b8
     740:	00000058 	andeq	r0, r0, r8, asr r0
     744:	000001f0 	strdeq	r0, [r0], -r0	; <UNPREDICTABLE>
     748:	00029402 	andeq	r9, r2, r2, lsl #8
     74c:	30280200 	eorcc	r0, r8, r0, lsl #4
     750:	03000000 	movweq	r0, #0
     754:	00000312 	andeq	r0, r0, r2, lsl r3
     758:	47000304 	strmi	r0, [r0, -r4, lsl #6]
     75c:	04000000 	streq	r0, [r0], #-0
     760:	00000365 	andeq	r0, r0, r5, ror #6
     764:	00000047 	andeq	r0, r0, r7, asr #32
     768:	04050000 	streq	r0, [r5], #-0
     76c:	00031402 	andeq	r1, r3, r2, lsl #8
     770:	25620200 	strbcs	r0, [r2, #-512]!	; 0x200
     774:	06000000 	streq	r0, [r0], -r0
     778:	6e690504 	cdpvs	5, 6, cr0, cr9, cr4, {0}
     77c:	04070074 	streq	r0, [r7], #-116	; 0x74
     780:	00003307 	andeq	r3, r0, r7, lsl #6
     784:	06010700 	streq	r0, [r1], -r0, lsl #14
     788:	00000195 	muleq	r0, r5, r1
     78c:	a1050207 	tstge	r5, r7, lsl #4
     790:	07000001 	streq	r0, [r0, -r1]
     794:	00450504 	subeq	r0, r5, r4, lsl #10
     798:	08070000 	stmdaeq	r7, {}	; <UNPREDICTABLE>
     79c:	00004005 	andeq	r4, r0, r5
     7a0:	08010700 	stmdaeq	r1, {r8, r9, sl}
     7a4:	00000193 	muleq	r0, r3, r1
     7a8:	27070207 	strcs	r0, [r7, -r7, lsl #4]
     7ac:	07000001 	streq	r0, [r0, -r1]
     7b0:	002e0704 	eoreq	r0, lr, r4, lsl #14
     7b4:	08070000 	stmdaeq	r7, {}	; <UNPREDICTABLE>
     7b8:	00002907 	andeq	r2, r0, r7, lsl #18
     7bc:	07040700 	streq	r0, [r4, -r0, lsl #14]
     7c0:	00000171 	andeq	r0, r0, r1, ror r1
     7c4:	00a70408 	adceq	r0, r7, r8, lsl #8
     7c8:	01070000 	mrseq	r0, (UNDEF: 7)
     7cc:	00019c08 	andeq	r9, r1, r8, lsl #24
     7d0:	b4040800 	strlt	r0, [r4], #-2048	; 0x800
     7d4:	09000000 	stmdbeq	r0, {}	; <UNPREDICTABLE>
     7d8:	000000a7 	andeq	r0, r0, r7, lsr #1
     7dc:	00030b0a 	andeq	r0, r3, sl, lsl #22
     7e0:	54060100 	strpl	r0, [r6], #-256	; 0x100
     7e4:	b8000000 	stmdalt	r0, {}	; <UNPREDICTABLE>
     7e8:	58000085 	stmdapl	r0, {r0, r2, r7}
     7ec:	01000000 	mrseq	r0, (UNDEF: 0)
     7f0:	0001439c 	muleq	r1, ip, r3
     7f4:	6d660b00 	vstmdbvs	r6!, {d16-d15}
     7f8:	06010074 			; <UNDEFINED> instruction: 0x06010074
     7fc:	000000ae 	andeq	r0, r0, lr, lsr #1
     800:	0c709102 	ldfeqp	f1, [r0], #-8
     804:	6675620d 	ldrbtvs	r6, [r5], -sp, lsl #4
     808:	43080100 	movwmi	r0, #33024	; 0x8100
     80c:	05000001 	streq	r0, [r0, #-1]
     810:	009f8803 	addseq	r8, pc, r3, lsl #16
     814:	03600e00 	cmneq	r0, #0, 28
     818:	09010000 	stmdbeq	r1, {}	; <UNPREDICTABLE>
     81c:	00000049 	andeq	r0, r0, r9, asr #32
     820:	0f5c9102 	svceq	0x005c9102
     824:	01007a73 	tsteq	r0, r3, ror sl
     828:	0000540c 	andeq	r5, r0, ip, lsl #8
     82c:	00059900 	andeq	r9, r5, r0, lsl #18
     830:	85e01000 	strbhi	r1, [r0, #0]!
     834:	01740000 	cmneq	r4, r0
     838:	01360000 	teqeq	r6, r0
     83c:	01110000 	tsteq	r1, r0
     840:	4c910253 	lfmmi	f0, 4, [r1], {83}	; 0x53
     844:	03520111 	cmpeq	r2, #1073741828	; 0x40000004
     848:	11064891 			; <UNDEFINED> instruction: 0x11064891
     84c:	0a035101 	beq	d4c58 <__bss_end__+0xca8c0>
     850:	01110400 	tsteq	r1, r0, lsl #8
     854:	00740250 	rsbseq	r0, r4, r0, asr r2
     858:	85f41200 	ldrbhi	r1, [r4, #512]!	; 0x200
     85c:	01110000 	tsteq	r1, r0
     860:	00740250 	rsbseq	r0, r4, r0, asr r2
     864:	a7130000 	ldrge	r0, [r3, -r0]
     868:	54000000 	strpl	r0, [r0], #-0
     86c:	14000001 	strne	r0, [r0], #-1
     870:	0000009a 	muleq	r0, sl, r0
     874:	150003ff 	strne	r0, [r0, #-1023]	; 0x3ff
     878:	00000054 	andeq	r0, r0, r4, asr r0
     87c:	00000163 	andeq	r0, r0, r3, ror #2
     880:	0000ae16 	andeq	sl, r0, r6, lsl lr
     884:	b8170000 	ldmdalt	r7, {}	; <UNPREDICTABLE>
     888:	04000003 	streq	r0, [r0], #-3
     88c:	00016e22 	andeq	r6, r1, r2, lsr #28
     890:	54040800 	strpl	r0, [r4], #-2048	; 0x800
     894:	18000001 	stmdane	r0, {r0}
     898:	00000308 	andeq	r0, r0, r8, lsl #6
     89c:	00540205 	subseq	r0, r4, r5, lsl #4
     8a0:	a1160000 	tstge	r6, r0
     8a4:	16000000 	strne	r0, [r0], -r0
     8a8:	00000054 	andeq	r0, r0, r4, asr r0
     8ac:	0000ae16 	andeq	sl, r0, r6, lsl lr
     8b0:	00491600 	subeq	r1, r9, r0, lsl #12
     8b4:	00000000 	andeq	r0, r0, r0
     8b8:	00000113 	andeq	r0, r0, r3, lsl r1
     8bc:	03670004 	cmneq	r7, #4
     8c0:	01040000 	mrseq	r0, (UNDEF: 4)
     8c4:	000002b1 			; <UNDEFINED> instruction: 0x000002b1
     8c8:	00038701 	andeq	r8, r3, r1, lsl #14
     8cc:	00031c00 	andeq	r1, r3, r0, lsl #24
     8d0:	00861000 	addeq	r1, r6, r0
     8d4:	00003c00 	andeq	r3, r0, r0, lsl #24
     8d8:	0002f600 	andeq	pc, r2, r0, lsl #12
     8dc:	05040200 	streq	r0, [r4, #-512]	; 0x200
     8e0:	00746e69 	rsbseq	r6, r4, r9, ror #28
     8e4:	33070403 	movwcc	r0, #29699	; 0x7403
     8e8:	03000000 	movweq	r0, #0
     8ec:	01950601 	orrseq	r0, r5, r1, lsl #12
     8f0:	02030000 	andeq	r0, r3, #0
     8f4:	0001a105 	andeq	sl, r1, r5, lsl #2
     8f8:	05040300 	streq	r0, [r4, #-768]	; 0x300
     8fc:	00000045 	andeq	r0, r0, r5, asr #32
     900:	40050803 	andmi	r0, r5, r3, lsl #16
     904:	03000000 	movweq	r0, #0
     908:	01930801 	orrseq	r0, r3, r1, lsl #16
     90c:	02030000 	andeq	r0, r3, #0
     910:	00012707 	andeq	r2, r1, r7, lsl #14
     914:	07040300 	streq	r0, [r4, -r0, lsl #6]
     918:	0000002e 	andeq	r0, r0, lr, lsr #32
     91c:	29070803 	stmdbcs	r7, {r0, r1, fp}
     920:	03000000 	movweq	r0, #0
     924:	01710704 	cmneq	r1, r4, lsl #14
     928:	01030000 	mrseq	r0, (UNDEF: 3)
     92c:	00019c08 	andeq	r9, r1, r8, lsl #24
     930:	036a0400 	cmneq	sl, #0, 8
     934:	03010000 	movweq	r0, #4096	; 0x1000
     938:	00000025 	andeq	r0, r0, r5, lsr #32
     93c:	00008610 	andeq	r8, r0, r0, lsl r6
     940:	00000014 	andeq	r0, r0, r4, lsl r0
     944:	00b09c01 	adcseq	r9, r0, r1, lsl #24
     948:	63050000 	movwvs	r0, #20480	; 0x5000
     94c:	25030100 	strcs	r0, [r3, #-256]	; 0x100
     950:	c2000000 	andgt	r0, r0, #0
     954:	06000005 	streq	r0, [r0], -r5
     958:	0000861c 	andeq	r8, r0, ip, lsl r6
     95c:	00000109 	andeq	r0, r0, r9, lsl #2
     960:	02500107 	subseq	r0, r0, #-1073741823	; 0xc0000001
     964:	00000074 	andeq	r0, r0, r4, ror r0
     968:	0000d308 	andeq	sp, r0, r8, lsl #6
     96c:	24080100 	strcs	r0, [r8], #-256	; 0x100
     970:	18000086 	stmdane	r0, {r1, r2, r7}
     974:	01000000 	mrseq	r0, (UNDEF: 0)
     978:	0396099c 	orrseq	r0, r6, #156, 18	; 0x270000
     97c:	0b010000 	bleq	40984 <__bss_end__+0x365ec>
     980:	0000863c 	andeq	r8, r0, ip, lsr r6
     984:	00000010 	andeq	r0, r0, r0, lsl r0
     988:	00e39c01 	rsceq	r9, r3, r1, lsl #24
     98c:	660a0000 	strvs	r0, [sl], -r0
     990:	0b010070 	bleq	40b58 <__bss_end__+0x367c0>
     994:	000000f2 	strdeq	r0, [r0], -r2
     998:	0b005001 	bleq	149a4 <__bss_end__+0xa60c>
     99c:	00000025 	andeq	r0, r0, r5, lsr #32
     9a0:	000000f2 	strdeq	r0, [r0], -r2
     9a4:	0000250c 	andeq	r2, r0, ip, lsl #10
     9a8:	040d0000 	streq	r0, [sp], #-0
     9ac:	000000e3 	andeq	r0, r0, r3, ror #1
     9b0:	00037b0e 	andeq	r7, r3, lr, lsl #22
     9b4:	f2060100 	vrhadd.s8	d0, d6, d0
     9b8:	05000000 	streq	r0, [r0, #-0]
     9bc:	009bc803 	addseq	ip, fp, r3, lsl #16
     9c0:	05030f00 	streq	r0, [r3, #-3840]	; 0xf00
     9c4:	3c020000 	stccc	0, cr0, [r2], {-0}
     9c8:	00002c0c 	andeq	r2, r0, ip, lsl #24
     9cc:	ee000000 	cdp	0, 0, cr0, cr0, cr0, {0}
     9d0:	04000000 	streq	r0, [r0], #-0
     9d4:	00044f00 	andeq	r4, r4, r0, lsl #30
     9d8:	b1010400 	tstlt	r1, r0, lsl #8
     9dc:	01000002 	tsteq	r0, r2
     9e0:	000003a3 	andeq	r0, r0, r3, lsr #7
     9e4:	0000031c 	andeq	r0, r0, ip, lsl r3
     9e8:	0000864c 	andeq	r8, r0, ip, asr #12
     9ec:	00000034 	andeq	r0, r0, r4, lsr r0
     9f0:	00000384 	andeq	r0, r0, r4, lsl #7
     9f4:	69050402 	stmdbvs	r5, {r1, sl}
     9f8:	0300746e 	movweq	r7, #1134	; 0x46e
     9fc:	00330704 	eorseq	r0, r3, r4, lsl #14
     a00:	01030000 	mrseq	r0, (UNDEF: 3)
     a04:	00019506 	andeq	r9, r1, r6, lsl #10
     a08:	05020300 	streq	r0, [r2, #-768]	; 0x300
     a0c:	000001a1 	andeq	r0, r0, r1, lsr #3
     a10:	45050403 	strmi	r0, [r5, #-1027]	; 0x403
     a14:	03000000 	movweq	r0, #0
     a18:	00400508 	subeq	r0, r0, r8, lsl #10
     a1c:	01030000 	mrseq	r0, (UNDEF: 3)
     a20:	00019308 	andeq	r9, r1, r8, lsl #6
     a24:	07020300 	streq	r0, [r2, -r0, lsl #6]
     a28:	00000127 	andeq	r0, r0, r7, lsr #2
     a2c:	2e070403 	cdpcs	4, 0, cr0, cr7, cr3, {0}
     a30:	03000000 	movweq	r0, #0
     a34:	00290708 	eoreq	r0, r9, r8, lsl #14
     a38:	04030000 	streq	r0, [r3], #-0
     a3c:	00017107 	andeq	r7, r1, r7, lsl #2
     a40:	08010300 	stmdaeq	r1, {r8, r9}
     a44:	0000019c 	muleq	r0, ip, r1
     a48:	007f0404 	rsbseq	r0, pc, r4, lsl #8
     a4c:	72050000 	andvc	r0, r5, #0
     a50:	06000000 	streq	r0, [r0], -r0
     a54:	000003af 	andeq	r0, r0, pc, lsr #7
     a58:	00250401 	eoreq	r0, r5, r1, lsl #8
     a5c:	864c0000 	strbhi	r0, [ip], -r0
     a60:	00340000 	eorseq	r0, r4, r0
     a64:	9c010000 	stcls	0, cr0, [r1], {-0}
     a68:	000000ab 	andeq	r0, r0, fp, lsr #1
     a6c:	01007007 	tsteq	r0, r7
     a70:	00007904 	andeq	r7, r0, r4, lsl #18
     a74:	0005e000 	andeq	lr, r5, r0
     a78:	25080000 	strcs	r0, [r8, #-0]
     a7c:	ba000000 	blt	a84 <_start-0x757c>
     a80:	09000000 	stmdbeq	r0, {}	; <UNPREDICTABLE>
     a84:	00000025 	andeq	r0, r0, r5, lsr #32
     a88:	037b0a00 	cmneq	fp, #0, 20
     a8c:	1d020000 	stcne	0, cr0, [r2, #-0]
     a90:	000000c5 	andeq	r0, r0, r5, asr #1
     a94:	00ab0404 	adceq	r0, fp, r4, lsl #8
     a98:	25080000 	strcs	r0, [r8, #-0]
     a9c:	da000000 	ble	aa4 <_start-0x755c>
     aa0:	09000000 	stmdbeq	r0, {}	; <UNPREDICTABLE>
     aa4:	00000079 	andeq	r0, r0, r9, ror r0
     aa8:	03b80b00 			; <UNDEFINED> instruction: 0x03b80b00
     aac:	0c010000 	stceq	0, cr0, [r1], {-0}
     ab0:	000000eb 	andeq	r0, r0, fp, ror #1
     ab4:	9bcc0305 	blls	ff3016d0 <__bss_end__+0xff2f7338>
     ab8:	04040000 	streq	r0, [r4], #-0
     abc:	000000cb 	andeq	r0, r0, fp, asr #1
     ac0:	0006a100 	andeq	sl, r6, r0, lsl #2
     ac4:	e8000400 	stmda	r0, {sl}
     ac8:	04000004 	streq	r0, [r0], #-4
     acc:	0002b101 	andeq	fp, r2, r1, lsl #2
     ad0:	03e90100 	mvneq	r0, #0, 2
     ad4:	031c0000 	tsteq	ip, #0
     ad8:	86800000 	strhi	r0, [r0], r0
     adc:	05240000 	streq	r0, [r4, #-0]!
     ae0:	041e0000 	ldreq	r0, [lr], #-0
     ae4:	04020000 	streq	r0, [r2], #-0
     ae8:	746e6905 	strbtvc	r6, [lr], #-2309	; 0x905
     aec:	07040300 	streq	r0, [r4, -r0, lsl #6]
     af0:	00000033 	andeq	r0, r0, r3, lsr r0
     af4:	95060103 	strls	r0, [r6, #-259]	; 0x103
     af8:	03000001 	movweq	r0, #1
     afc:	01a10502 			; <UNDEFINED> instruction: 0x01a10502
     b00:	04030000 	streq	r0, [r3], #-0
     b04:	00004505 	andeq	r4, r0, r5, lsl #10
     b08:	05080300 	streq	r0, [r8, #-768]	; 0x300
     b0c:	00000040 	andeq	r0, r0, r0, asr #32
     b10:	93080103 	movwls	r0, #33027	; 0x8103
     b14:	03000001 	movweq	r0, #1
     b18:	01270702 	teqeq	r7, r2, lsl #14
     b1c:	04030000 	streq	r0, [r3], #-0
     b20:	00002e07 	andeq	r2, r0, r7, lsl #28
     b24:	07080300 	streq	r0, [r8, -r0, lsl #6]
     b28:	00000029 	andeq	r0, r0, r9, lsr #32
     b2c:	71070403 	tstvc	r7, r3, lsl #8
     b30:	04000001 	streq	r0, [r0], #-1
     b34:	7a040504 	bvc	101f4c <__bss_end__+0xf7bb4>
     b38:	03000000 	movweq	r0, #0
     b3c:	019c0801 	orrseq	r0, ip, r1, lsl #16
     b40:	04050000 	streq	r0, [r5], #-0
     b44:	00000087 	andeq	r0, r0, r7, lsl #1
     b48:	00007a06 	andeq	r7, r0, r6, lsl #20
     b4c:	02940700 	addseq	r0, r4, #0, 14
     b50:	28020000 	stmdacs	r2, {}	; <UNPREDICTABLE>
     b54:	00000097 	muleq	r0, r7, r0
     b58:	00031208 	andeq	r1, r3, r8, lsl #4
     b5c:	00040400 	andeq	r0, r4, r0, lsl #8
     b60:	000000ae 	andeq	r0, r0, lr, lsr #1
     b64:	00036509 	andeq	r6, r3, r9, lsl #10
     b68:	00007200 	andeq	r7, r0, r0, lsl #4
     b6c:	07000000 	streq	r0, [r0, -r0]
     b70:	00000314 	andeq	r0, r0, r4, lsl r3
     b74:	008c6202 	addeq	r6, ip, r2, lsl #4
     b78:	cb0a0000 	blgt	280b80 <__bss_end__+0x2767e8>
     b7c:	01000003 	tsteq	r0, r3
     b80:	00002527 	andeq	r2, r0, r7, lsr #10
     b84:	00868000 	addeq	r8, r6, r0
     b88:	00001400 	andeq	r1, r0, r0, lsl #8
     b8c:	e09c0100 	adds	r0, ip, r0, lsl #2
     b90:	0b000000 	bleq	b98 <_start-0x7468>
     b94:	27010063 	strcs	r0, [r1, -r3, rrx]
     b98:	00000025 	andeq	r0, r0, r5, lsr #32
     b9c:	000005fe 	strdeq	r0, [r0], -lr
     ba0:	61700c00 	cmnvs	r0, r0, lsl #24
     ba4:	2e010064 	cdpcs	0, 0, cr0, cr1, cr4, {3}
     ba8:	00000074 	andeq	r0, r0, r4, ror r0
     bac:	00008694 	muleq	r0, r4, r6
     bb0:	0000002c 	andeq	r0, r0, ip, lsr #32
     bb4:	01309c01 	teqeq	r0, r1, lsl #24
     bb8:	700b0000 	andvc	r0, fp, r0
     bbc:	742e0100 	strtvc	r0, [lr], #-256	; 0x100
     bc0:	2c000000 	stccs	0, cr0, [r0], {-0}
     bc4:	0d000006 	stceq	0, cr0, [r0, #-24]	; 0xffffffe8
     bc8:	000003db 	ldrdeq	r0, [r0], -fp
     bcc:	00742e01 	rsbseq	r2, r4, r1, lsl #28
     bd0:	06570000 	ldrbeq	r0, [r7], -r0
     bd4:	090e0000 	stmdbeq	lr, {}	; <UNPREDICTABLE>
     bd8:	01000004 	tsteq	r0, r4
     bdc:	0000252e 	andeq	r2, r0, lr, lsr #10
     be0:	0f520100 	svceq	0x00520100
     be4:	006e656c 	rsbeq	r6, lr, ip, ror #10
     be8:	00252f01 	eoreq	r2, r5, r1, lsl #30
     bec:	51010000 	mrspl	r0, (UNDEF: 1)
     bf0:	03c30a00 	biceq	r0, r3, #0, 20
     bf4:	37010000 	strcc	r0, [r1, -r0]
     bf8:	00000074 	andeq	r0, r0, r4, ror r0
     bfc:	000086c0 	andeq	r8, r0, r0, asr #13
     c00:	00000040 	andeq	r0, r0, r0, asr #32
     c04:	019c9c01 	orrseq	r9, ip, r1, lsl #24
     c08:	640b0000 	strvs	r0, [fp], #-0
     c0c:	01007473 	tsteq	r0, r3, ror r4
     c10:	00007437 	andeq	r7, r0, r7, lsr r4
     c14:	00067800 	andeq	r7, r6, r0, lsl #16
     c18:	006e0b00 	rsbeq	r0, lr, r0, lsl #22
     c1c:	00253701 	eoreq	r3, r5, r1, lsl #14
     c20:	06b00000 	ldrteq	r0, [r0], r0
     c24:	700b0000 	andvc	r0, fp, r0
     c28:	74370100 	ldrtvc	r0, [r7], #-256	; 0x100
     c2c:	d1000000 	mrsle	r0, (UNDEF: 0)
     c30:	0d000006 	stceq	0, cr0, [r0, #-24]	; 0xffffffe8
     c34:	000004ef 	andeq	r0, r0, pc, ror #9
     c38:	00743701 	rsbseq	r3, r4, r1, lsl #14
     c3c:	07070000 	streq	r0, [r7, -r0]
     c40:	6c100000 	ldcvs	0, cr0, [r0], {-0}
     c44:	01006e65 	tsteq	r0, r5, ror #28
     c48:	00002539 	andeq	r2, r0, r9, lsr r5
     c4c:	00072500 	andeq	r2, r7, r0, lsl #10
     c50:	00730f00 	rsbseq	r0, r3, r0, lsl #30
     c54:	00743d01 	rsbseq	r3, r4, r1, lsl #26
     c58:	50010000 	andpl	r0, r1, r0
     c5c:	04170a00 	ldreq	r0, [r7], #-2560	; 0xa00
     c60:	47010000 	strmi	r0, [r1, -r0]
     c64:	00000074 	andeq	r0, r0, r4, ror r0
     c68:	00008700 	andeq	r8, r0, r0, lsl #14
     c6c:	000001a8 	andeq	r0, r0, r8, lsr #3
     c70:	02df9c01 	sbcseq	r9, pc, #256	; 0x100
     c74:	db0d0000 	blle	340c7c <__bss_end__+0x3368e4>
     c78:	01000003 	tsteq	r0, r3
     c7c:	00002c47 	andeq	r2, r0, r7, asr #24
     c80:	00074c00 	andeq	r4, r7, r0, lsl #24
     c84:	73640b00 	cmnvc	r4, #0, 22
     c88:	47010074 	smlsdxmi	r1, r4, r0, r0
     c8c:	00000074 	andeq	r0, r0, r4, ror r0
     c90:	0000077a 	andeq	r0, r0, sl, ror r7
     c94:	01006e0b 	tsteq	r0, fp, lsl #28
     c98:	00002547 	andeq	r2, r0, r7, asr #10
     c9c:	0007e800 	andeq	lr, r7, r0, lsl #16
     ca0:	61760b00 	cmnvs	r6, r0, lsl #22
     ca4:	4701006c 	strmi	r0, [r1, -ip, rrx]
     ca8:	00000025 	andeq	r0, r0, r5, lsr #32
     cac:	00000814 	andeq	r0, r0, r4, lsl r8
     cb0:	0004090d 	andeq	r0, r4, sp, lsl #18
     cb4:	25470100 	strbcs	r0, [r7, #-256]	; 0x100
     cb8:	93000000 	movwls	r0, #0
     cbc:	0e000008 	cdpeq	0, 0, cr0, cr0, cr8, {0}
     cc0:	000003e0 	andeq	r0, r0, r0, ror #7
     cc4:	00254701 	eoreq	r4, r5, r1, lsl #14
     cc8:	91020000 	mrsls	r0, (UNDEF: 2)
     ccc:	75620f04 	strbvc	r0, [r2, #-3844]!	; 0xf04
     cd0:	4c010066 	stcmi	0, cr0, [r1], {102}	; 0x66
     cd4:	000002df 	ldrdeq	r0, [r0], -pc	; <UNPREDICTABLE>
     cd8:	7fa89103 	svcvc	0x00a89103
     cdc:	01007010 	tsteq	r0, r0, lsl r0
     ce0:	0000744c 	andeq	r7, r0, ip, asr #8
     ce4:	0008bd00 	andeq	fp, r8, r0, lsl #26
     ce8:	00751000 	rsbseq	r1, r5, r0
     cec:	002c4d01 	eoreq	r4, ip, r1, lsl #26
     cf0:	09790000 	ldmdbeq	r9!, {}^	; <UNPREDICTABLE>
     cf4:	0a110000 	beq	440cfc <__bss_end__+0x436964>
     cf8:	ff000001 			; <UNDEFINED> instruction: 0xff000001
     cfc:	05000002 	streq	r0, [r0, #-2]
     d00:	009d4c03 	addseq	r4, sp, r3, lsl #24
     d04:	876c1200 	strbhi	r1, [ip, -r0, lsl #4]!
     d08:	00740000 	rsbseq	r0, r4, r0
     d0c:	02610000 	rsbeq	r0, r1, #0
     d10:	bd130000 	ldclt	0, cr0, [r3, #-0]
     d14:	01000003 	tsteq	r0, r3
     d18:	00002c52 	andeq	r2, r0, r2, asr ip
     d1c:	000a7e00 	andeq	r7, sl, r0, lsl #28
     d20:	40140000 	andsmi	r0, r4, r0
     d24:	80000088 	andhi	r0, r0, r8, lsl #1
     d28:	15000006 	strne	r0, [r0, #-6]
     d2c:	0000885c 	andeq	r8, r0, ip, asr r8
     d30:	00000687 	andeq	r0, r0, r7, lsl #13
     d34:	000002a3 	andeq	r0, r0, r3, lsr #5
     d38:	02530116 	subseq	r0, r3, #-2147483643	; 0x80000005
     d3c:	01167508 	tsteq	r6, r8, lsl #10
     d40:	4c030552 	cfstr32mi	mvfx0, [r3], {82}	; 0x52
     d44:	1600009d 			; <UNDEFINED> instruction: 0x1600009d
     d48:	03055101 	movweq	r5, #20737	; 0x5101
     d4c:	00009d84 	andeq	r9, r0, r4, lsl #27
     d50:	05500116 	ldrbeq	r0, [r0, #-278]	; 0x116
     d54:	009d7003 	addseq	r7, sp, r3
     d58:	7d021600 	stcvc	6, cr1, [r2, #-0]
     d5c:	98030500 	stmdals	r3, {r8, sl}
     d60:	0000009d 	muleq	r0, sp, r0
     d64:	00886014 	addeq	r6, r8, r4, lsl r0
     d68:	00069d00 	andeq	r9, r6, r0, lsl #26
     d6c:	886c1500 	stmdahi	ip!, {r8, sl, ip}^
     d70:	00e00000 	rsceq	r0, r0, r0
     d74:	02c10000 	sbceq	r0, r1, #0
     d78:	01160000 	tsteq	r6, r0
     d7c:	a0910351 	addsge	r0, r1, r1, asr r3
     d80:	8017007f 	andshi	r0, r7, pc, ror r0
     d84:	30000088 	andcc	r0, r0, r8, lsl #1
     d88:	16000001 	strne	r0, [r0], -r1
     d8c:	91035301 	tstls	r3, r1, lsl #6
     d90:	01167fa0 	tsteq	r6, r0, lsr #31
     d94:	00740251 	rsbseq	r0, r4, r1, asr r2
     d98:	02500116 	subseq	r0, r0, #-2147483643	; 0x80000005
     d9c:	00000075 	andeq	r0, r0, r5, ror r0
     da0:	00007a18 	andeq	r7, r0, r8, lsl sl
     da4:	0002ef00 	andeq	lr, r2, r0, lsl #30
     da8:	006b1900 	rsbeq	r1, fp, r0, lsl #18
     dac:	003f0000 	eorseq	r0, pc, r0
     db0:	00007a18 	andeq	r7, r0, r8, lsl sl
     db4:	0002ff00 	andeq	pc, r2, r0, lsl #30
     db8:	006b1900 	rsbeq	r1, fp, r0, lsl #18
     dbc:	00040000 	andeq	r0, r4, r0
     dc0:	0002ef06 	andeq	lr, r2, r6, lsl #30
     dc4:	03fa1a00 	mvnseq	r1, #0, 20
     dc8:	1f010000 	svcne	0x00010000
     dcc:	000088a8 	andeq	r8, r0, r8, lsr #17
     dd0:	00000068 	andeq	r0, r0, r8, rrx
     dd4:	03929c01 	orrseq	r9, r2, #256	; 0x100
     dd8:	0f0d0000 	svceq	0x000d0000
     ddc:	01000004 	tsteq	r0, r4
     de0:	0003a11f 	andeq	sl, r3, pc, lsl r1
     de4:	000aaa00 	andeq	sl, sl, r0, lsl #20
     de8:	03d30d00 	bicseq	r0, r3, #0, 26
     dec:	1f010000 	svcne	0x00010000
     df0:	000003b6 			; <UNDEFINED> instruction: 0x000003b6
     df4:	00000ad6 	ldrdeq	r0, [r0], -r6
     df8:	00010a11 	andeq	r0, r1, r1, lsl sl
     dfc:	0003cc00 	andeq	ip, r3, r0, lsl #24
     e00:	54030500 	strpl	r0, [r3], #-1280	; 0x500
     e04:	1400009d 	strne	r0, [r0], #-157	; 0x9d
     e08:	000088bc 			; <UNDEFINED> instruction: 0x000088bc
     e0c:	00000680 	andeq	r0, r0, r0, lsl #13
     e10:	0088d815 	addeq	sp, r8, r5, lsl r8
     e14:	00068700 	andeq	r8, r6, r0, lsl #14
     e18:	00038800 	andeq	r8, r3, r0, lsl #16
     e1c:	53011600 	movwpl	r1, #5632	; 0x1600
     e20:	16200802 	strtne	r0, [r0], -r2, lsl #16
     e24:	03055201 	movweq	r5, #20993	; 0x5201
     e28:	00009d54 	andeq	r9, r0, r4, asr sp
     e2c:	05510116 	ldrbeq	r0, [r1, #-278]	; 0x116
     e30:	009d8403 	addseq	r8, sp, r3, lsl #8
     e34:	50011600 	andpl	r1, r1, r0, lsl #12
     e38:	9d700305 	ldclls	3, cr0, [r0, #-20]!	; 0xffffffec
     e3c:	02160000 	andseq	r0, r6, #0
     e40:	0305007d 	movweq	r0, #20605	; 0x507d
     e44:	00009dc0 	andeq	r9, r0, r0, asr #27
     e48:	88dc1400 	ldmhi	ip, {sl, ip}^
     e4c:	069d0000 	ldreq	r0, [sp], r0
     e50:	1b000000 	blne	e58 <_start-0x71a8>
     e54:	00000025 	andeq	r0, r0, r5, lsr #32
     e58:	000003a1 	andeq	r0, r0, r1, lsr #7
     e5c:	0000251c 	andeq	r2, r0, ip, lsl r5
     e60:	04050000 	streq	r0, [r5], #-0
     e64:	00000392 	muleq	r0, r2, r3
     e68:	0000251b 	andeq	r2, r0, fp, lsl r5
     e6c:	0003b600 	andeq	fp, r3, r0, lsl #12
     e70:	00811c00 	addeq	r1, r1, r0, lsl #24
     e74:	05000000 	streq	r0, [r0, #-0]
     e78:	0003a704 	andeq	sl, r3, r4, lsl #14
     e7c:	007a1800 	rsbseq	r1, sl, r0, lsl #16
     e80:	03cc0000 	biceq	r0, ip, #0
     e84:	6b190000 	blvs	640e8c <__bss_end__+0x636af4>
     e88:	0e000000 	cdpeq	0, 0, cr0, cr0, cr0, {0}
     e8c:	03bc0600 			; <UNDEFINED> instruction: 0x03bc0600
     e90:	081d0000 	ldmdaeq	sp, {}	; <UNPREDICTABLE>
     e94:	01000003 	tsteq	r0, r3
     e98:	0000257d 	andeq	r2, r0, sp, ror r5
     e9c:	00891000 	addeq	r1, r9, r0
     ea0:	00029400 	andeq	r9, r2, r0, lsl #8
     ea4:	459c0100 	ldrmi	r0, [ip, #256]	; 0x100
     ea8:	0b000006 	bleq	ec8 <_start-0x7138>
     eac:	00667562 	rsbeq	r7, r6, r2, ror #10
     eb0:	00747d01 	rsbseq	r7, r4, r1, lsl #26
     eb4:	0b020000 	bleq	80ebc <__bss_end__+0x76b24>
     eb8:	6e0b0000 	cdpvs	0, 0, cr0, cr11, cr0, {0}
     ebc:	257d0100 	ldrbcs	r0, [sp, #-256]!	; 0x100
     ec0:	2e000000 	cdpcs	0, 0, cr0, cr0, cr0, {0}
     ec4:	0b00000b 	bleq	ef8 <_start-0x7108>
     ec8:	00746d66 	rsbseq	r6, r4, r6, ror #26
     ecc:	00817d01 	addeq	r7, r1, r1, lsl #26
     ed0:	0b5c0000 	bleq	1700ed8 <__bss_end__+0x16f6b40>
     ed4:	600d0000 	andvs	r0, sp, r0
     ed8:	01000003 	tsteq	r0, r3
     edc:	0000ae7d 	andeq	sl, r0, sp, ror lr
     ee0:	000b9000 	andeq	r9, fp, r0
     ee4:	00701000 	rsbseq	r1, r0, r0
     ee8:	00747e01 	rsbseq	r7, r4, r1, lsl #28
     eec:	0ba30000 	bleq	fe8c0ef4 <__bss_end__+0xfe8b6b5c>
     ef0:	65100000 	ldrvs	r0, [r0, #-0]
     ef4:	747e0100 	ldrbtvc	r0, [lr], #-256	; 0x100
     ef8:	21000000 	mrscs	r0, (UNDEF: 0)
     efc:	1100000c 	tstne	r0, ip
     f00:	0000010a 	andeq	r0, r0, sl, lsl #2
     f04:	00000655 	andeq	r0, r0, r5, asr r6
     f08:	9d640305 	stclls	3, cr0, [r4, #-20]!	; 0xffffffec
     f0c:	981e0000 	ldmdals	lr, {}	; <UNPREDICTABLE>
     f10:	10000000 	andne	r0, r0, r0
     f14:	8b010073 	blhi	410e8 <__bss_end__+0x36d50>
     f18:	00000074 	andeq	r0, r0, r4, ror r0
     f1c:	00000c48 	andeq	r0, r0, r8, asr #24
     f20:	6d756e0f 	ldclvs	14, cr6, [r5, #-60]!	; 0xffffffc4
     f24:	5a8b0100 	bpl	fe2c132c <__bss_end__+0xfe2b6f94>
     f28:	03000006 	movweq	r0, #6
     f2c:	137ed891 	cmnne	lr, #9502720	; 0x910000
     f30:	00000409 	andeq	r0, r0, r9, lsl #8
     f34:	002c8c01 	eoreq	r8, ip, r1, lsl #24
     f38:	0c9d0000 	ldceq	0, cr0, [sp], {0}
     f3c:	94150000 	ldrls	r0, [r5], #-0
     f40:	b9000089 	stmdblt	r0, {r0, r3, r7}
     f44:	91000000 	mrsls	r0, (UNDEF: 0)
     f48:	16000004 	strne	r0, [r0], -r4
     f4c:	75025001 	strvc	r5, [r2, #-1]
     f50:	a8140000 	ldmdage	r4, {}	; <UNPREDICTABLE>
     f54:	80000089 	andhi	r0, r0, r9, lsl #1
     f58:	15000006 	strne	r0, [r0, #-6]
     f5c:	000089c4 	andeq	r8, r0, r4, asr #19
     f60:	00000687 	andeq	r0, r0, r7, lsl #13
     f64:	000004d3 	ldrdeq	r0, [r0], -r3
     f68:	02530116 	subseq	r0, r3, #-2147483643	; 0x80000005
     f6c:	01169208 	tsteq	r6, r8, lsl #4
     f70:	64030552 	strvs	r0, [r3], #-1362	; 0x552
     f74:	1600009d 			; <UNDEFINED> instruction: 0x1600009d
     f78:	03055101 	movweq	r5, #20737	; 0x5101
     f7c:	00009d84 	andeq	r9, r0, r4, lsl #27
     f80:	05500116 	ldrbeq	r0, [r0, #-278]	; 0x116
     f84:	009d7003 	addseq	r7, sp, r3
     f88:	7d021600 	stcvc	6, cr1, [r2, #-0]
     f8c:	c8030500 	stmdagt	r3, {r8, sl}
     f90:	0000009d 	muleq	r0, sp, r0
     f94:	0089c814 	addeq	ip, r9, r4, lsl r8
     f98:	00069d00 	andeq	r9, r6, r0, lsl #26
     f9c:	8a381400 	bhi	e05fa4 <__bss_end__+0xdfbc0c>
     fa0:	06800000 	streq	r0, [r0], r0
     fa4:	4c150000 	ldcmi	0, cr0, [r5], {-0}
     fa8:	8700008a 	strhi	r0, [r0, -sl, lsl #1]
     fac:	14000006 	strne	r0, [r0], #-6
     fb0:	16000005 	strne	r0, [r0], -r5
     fb4:	08025301 	stmdaeq	r2, {r0, r8, r9, ip, lr}
     fb8:	52011698 	andpl	r1, r1, #152, 12	; 0x9800000
     fbc:	9d640305 	stclls	3, cr0, [r4, #-20]!	; 0xffffffec
     fc0:	01160000 	tsteq	r6, r0
     fc4:	84030551 	strhi	r0, [r3], #-1361	; 0x551
     fc8:	1600009d 			; <UNDEFINED> instruction: 0x1600009d
     fcc:	03055001 	movweq	r5, #20481	; 0x5001
     fd0:	00009dd4 	ldrdeq	r9, [r0], -r4
     fd4:	8a501400 	bhi	1405fdc <__bss_end__+0x13fbc44>
     fd8:	069d0000 	ldreq	r0, [sp], r0
     fdc:	74150000 	ldrvc	r0, [r5], #-0
     fe0:	9c00008a 	stcls	0, cr0, [r0], {138}	; 0x8a
     fe4:	4a000001 	bmi	ff0 <_start-0x7010>
     fe8:	16000005 	strne	r0, [r0], -r5
     fec:	08025201 	stmdaeq	r2, {r0, r9, ip, lr}
     ff0:	51011680 	smlabbpl	r1, r0, r6, r1
     ff4:	7ed09103 	atnvcs	f1, f3
     ff8:	01500116 	cmpeq	r0, r6, lsl r1
     ffc:	7d02163a 	stcvc	6, cr1, [r2, #-232]	; 0xffffff18
    1000:	16310104 	ldrtne	r0, [r1], -r4, lsl #2
    1004:	02007d02 	andeq	r7, r0, #2, 26	; 0x80
    1008:	15000077 	strne	r0, [r0, #-119]	; 0x77
    100c:	00008a98 	muleq	r0, r8, sl
    1010:	0000019c 	muleq	r0, ip, r1
    1014:	00000578 	andeq	r0, r0, r8, ror r5
    1018:	02520116 	subseq	r0, r2, #-2147483643	; 0x80000005
    101c:	01168008 	tsteq	r6, r8
    1020:	d0910351 	addsle	r0, r1, r1, asr r3
    1024:	5001167e 	andpl	r1, r1, lr, ror r6
    1028:	02163a01 	andseq	r3, r6, #4096	; 0x1000
    102c:	7b02047d 	blvc	82228 <__bss_end__+0x77e90>
    1030:	7d021600 	stcvc	6, cr1, [r2, #-0]
    1034:	00770200 	rsbseq	r0, r7, r0, lsl #4
    1038:	8abc1500 	bhi	fef06440 <__bss_end__+0xfeefc0a8>
    103c:	019c0000 	orrseq	r0, ip, r0
    1040:	05a60000 	streq	r0, [r6, #0]!
    1044:	01160000 	tsteq	r6, r0
    1048:	80080252 	andhi	r0, r8, r2, asr r2
    104c:	03510116 	cmpeq	r1, #-2147483643	; 0x80000005
    1050:	167ed091 			; <UNDEFINED> instruction: 0x167ed091
    1054:	40015001 	andmi	r5, r1, r1
    1058:	047d0216 	ldrbteq	r0, [sp], #-534	; 0x216
    105c:	16007b02 	strne	r7, [r0], -r2, lsl #22
    1060:	02007d02 	andeq	r7, r0, #2, 26	; 0x80
    1064:	15000077 	strne	r0, [r0, #-119]	; 0x77
    1068:	00008ae0 	andeq	r8, r0, r0, ror #21
    106c:	0000019c 	muleq	r0, ip, r1
    1070:	000005d4 	ldrdeq	r0, [r0], -r4
    1074:	02520116 	subseq	r0, r2, #-2147483643	; 0x80000005
    1078:	01168008 	tsteq	r6, r8
    107c:	d0910351 	addsle	r0, r1, r1, asr r3
    1080:	5001167e 	andpl	r1, r1, lr, ror r6
    1084:	02163201 	andseq	r3, r6, #268435456	; 0x10000000
    1088:	7b02047d 	blvc	82284 <__bss_end__+0x77eec>
    108c:	7d021600 	stcvc	6, cr1, [r2, #-0]
    1090:	00770200 	rsbseq	r0, r7, r0, lsl #4
    1094:	8b101500 	blhi	40649c <__bss_end__+0x3fc104>
    1098:	019c0000 	orrseq	r0, ip, r0
    109c:	06020000 	streq	r0, [r2], -r0
    10a0:	01160000 	tsteq	r6, r0
    10a4:	80080252 	andhi	r0, r8, r2, asr r2
    10a8:	03510116 	cmpeq	r1, #-2147483643	; 0x80000005
    10ac:	167ed091 			; <UNDEFINED> instruction: 0x167ed091
    10b0:	38015001 	stmdacc	r1, {r0, ip, lr}
    10b4:	047d0216 	ldrbteq	r0, [sp], #-534	; 0x216
    10b8:	16007b02 	strne	r7, [r0], -r2, lsl #22
    10bc:	02007d02 	andeq	r7, r0, #2, 26	; 0x80
    10c0:	14000077 	strne	r0, [r0], #-119	; 0x77
    10c4:	00008b18 	andeq	r8, r0, r8, lsl fp
    10c8:	00000680 	andeq	r0, r0, r0, lsl #13
    10cc:	008b3415 	addeq	r3, fp, r5, lsl r4
    10d0:	00068700 	andeq	r8, r6, r0, lsl #14
    10d4:	00063a00 	andeq	r3, r6, r0, lsl #20
    10d8:	53011600 	movwpl	r1, #5632	; 0x1600
    10dc:	16b90802 	ldrtne	r0, [r9], r2, lsl #16
    10e0:	03055201 	movweq	r5, #20993	; 0x5201
    10e4:	00009d64 	andeq	r9, r0, r4, ror #26
    10e8:	05510116 	ldrbeq	r0, [r1, #-278]	; 0x116
    10ec:	009d8403 	addseq	r8, sp, r3, lsl #8
    10f0:	50011600 	andpl	r1, r1, r0, lsl #12
    10f4:	9dfc0305 	ldclls	3, cr0, [ip, #20]!
    10f8:	14000000 	strne	r0, [r0], #-0
    10fc:	00008b38 	andeq	r8, r0, r8, lsr fp
    1100:	0000069d 	muleq	r0, sp, r6
    1104:	7a180000 	bvc	60110c <__bss_end__+0x5f6d74>
    1108:	55000000 	strpl	r0, [r0, #-0]
    110c:	19000006 	stmdbne	r0, {r1, r2}
    1110:	0000006b 	andeq	r0, r0, fp, rrx
    1114:	45060009 	strmi	r0, [r6, #-9]
    1118:	18000006 	stmdane	r0, {r1, r2}
    111c:	0000007a 	andeq	r0, r0, sl, ror r0
    1120:	0000066a 	andeq	r0, r0, sl, ror #12
    1124:	00006b19 	andeq	r6, r0, r9, lsl fp
    1128:	1f007f00 	svcne	0x00007f00
    112c:	0000037b 	andeq	r0, r0, fp, ror r3
    1130:	03a11d03 			; <UNDEFINED> instruction: 0x03a11d03
    1134:	b81f0000 	ldmdalt	pc, {}	; <UNPREDICTABLE>
    1138:	03000003 	movweq	r0, #3
    113c:	0003b622 	andeq	fp, r3, r2, lsr #12
    1140:	00d32000 	sbcseq	r2, r3, r0
    1144:	1e030000 	cdpne	0, 0, cr0, cr3, cr0, {0}
    1148:	00030b21 	andeq	r0, r3, r1, lsr #22
    114c:	25290300 	strcs	r0, [r9, #-768]!	; 0x300
    1150:	9d000000 	stcls	0, cr0, [r0, #-0]
    1154:	1c000006 	stcne	0, cr0, [r0], {6}
    1158:	00000081 	andeq	r0, r0, r1, lsl #1
    115c:	64200022 	strtvs	r0, [r0], #-34	; 0x22
    1160:	03000001 	movweq	r0, #1
    1164:	00b80066 	adcseq	r0, r8, r6, rrx
    1168:	00040000 	andeq	r0, r4, r0
    116c:	000006c4 	andeq	r0, r0, r4, asr #13
    1170:	02b10104 	adcseq	r0, r1, #4, 2
    1174:	2a010000 	bcs	4117c <__bss_end__+0x36de4>
    1178:	1c000004 	stcne	0, cr0, [r0], {4}
    117c:	a4000003 	strge	r0, [r0], #-3
    1180:	2000008b 	andcs	r0, r0, fp, lsl #1
    1184:	04000000 	streq	r0, [r0], #-0
    1188:	02000006 	andeq	r0, r0, #6
    118c:	6e690504 	cdpvs	5, 6, cr0, cr9, cr4, {0}
    1190:	04030074 	streq	r0, [r3], #-116	; 0x74
    1194:	00003307 	andeq	r3, r0, r7, lsl #6
    1198:	06010300 	streq	r0, [r1], -r0, lsl #6
    119c:	00000195 	muleq	r0, r5, r1
    11a0:	a1050203 	tstge	r5, r3, lsl #4
    11a4:	03000001 	movweq	r0, #1
    11a8:	00450504 	subeq	r0, r5, r4, lsl #10
    11ac:	08030000 	stmdaeq	r3, {}	; <UNPREDICTABLE>
    11b0:	00004005 	andeq	r4, r0, r5
    11b4:	08010300 	stmdaeq	r1, {r8, r9}
    11b8:	00000193 	muleq	r0, r3, r1
    11bc:	27070203 	strcs	r0, [r7, -r3, lsl #4]
    11c0:	03000001 	movweq	r0, #1
    11c4:	002e0704 	eoreq	r0, lr, r4, lsl #14
    11c8:	08030000 	stmdaeq	r3, {}	; <UNPREDICTABLE>
    11cc:	00002907 	andeq	r2, r0, r7, lsl #18
    11d0:	07040300 	streq	r0, [r4, -r0, lsl #6]
    11d4:	00000171 	andeq	r0, r0, r1, ror r1
    11d8:	9c080103 	stflss	f0, [r8], {3}
    11dc:	04000001 	streq	r0, [r0], #-1
    11e0:	00000251 	andeq	r0, r0, r1, asr r2
    11e4:	8ba40301 	blhi	fe901df0 <__bss_end__+0xfe8f7a58>
    11e8:	00100000 	andseq	r0, r0, r0
    11ec:	9c010000 	stcls	0, cr0, [r1], {-0}
    11f0:	0000009c 	muleq	r0, ip, r0
    11f4:	01007205 	tsteq	r0, r5, lsl #4
    11f8:	00002c04 	andeq	r2, r0, r4, lsl #24
    11fc:	000cc700 	andeq	ip, ip, r0, lsl #14
    1200:	1c060000 	stcne	0, cr0, [r6], {-0}
    1204:	01000004 	tsteq	r0, r4
    1208:	008bb40c 	addeq	fp, fp, ip, lsl #8
    120c:	00001000 	andeq	r1, r0, r0
    1210:	059c0100 	ldreq	r0, [ip, #256]	; 0x100
    1214:	0d010072 	stceq	0, cr0, [r1, #-456]	; 0xfffffe38
    1218:	0000002c 	andeq	r0, r0, ip, lsr #32
    121c:	00000ceb 	andeq	r0, r0, fp, ror #25
    1220:	00ff0000 	rscseq	r0, pc, r0
    1224:	00040000 	andeq	r0, r4, r0
    1228:	0000072f 	andeq	r0, r0, pc, lsr #14
    122c:	02b10104 	adcseq	r0, r1, #4, 2
    1230:	48010000 	stmdami	r1, {}	; <UNPREDICTABLE>
    1234:	1c000004 	stcne	0, cr0, [r0], {4}
    1238:	c4000003 	strgt	r0, [r0], #-3
    123c:	2800008b 	stmdacs	r0, {r0, r1, r3, r7}
    1240:	4b000000 	blmi	1248 <_start-0x6db8>
    1244:	02000006 	andeq	r0, r0, #6
    1248:	6e690504 	cdpvs	5, 6, cr0, cr9, cr4, {0}
    124c:	04030074 	streq	r0, [r3], #-116	; 0x74
    1250:	00003307 	andeq	r3, r0, r7, lsl #6
    1254:	06010300 	streq	r0, [r1], -r0, lsl #6
    1258:	00000195 	muleq	r0, r5, r1
    125c:	a1050203 	tstge	r5, r3, lsl #4
    1260:	03000001 	movweq	r0, #1
    1264:	00450504 	subeq	r0, r5, r4, lsl #10
    1268:	08030000 	stmdaeq	r3, {}	; <UNPREDICTABLE>
    126c:	00004005 	andeq	r4, r0, r5
    1270:	08010300 	stmdaeq	r1, {r8, r9}
    1274:	00000193 	muleq	r0, r3, r1
    1278:	27070203 	strcs	r0, [r7, -r3, lsl #4]
    127c:	03000001 	movweq	r0, #1
    1280:	002e0704 	eoreq	r0, lr, r4, lsl #14
    1284:	08030000 	stmdaeq	r3, {}	; <UNPREDICTABLE>
    1288:	00002907 	andeq	r2, r0, r7, lsl #18
    128c:	07040300 	streq	r0, [r4, -r0, lsl #6]
    1290:	00000171 	andeq	r0, r0, r1, ror r1
    1294:	9c080103 	stflss	f0, [r8], {3}
    1298:	04000001 	streq	r0, [r0], #-1
    129c:	00007f04 	andeq	r7, r0, r4, lsl #30
    12a0:	00720500 	rsbseq	r0, r2, r0, lsl #10
    12a4:	64060000 	strvs	r0, [r6], #-0
    12a8:	01000001 	tsteq	r0, r1
    12ac:	008bc404 	addeq	ip, fp, r4, lsl #8
    12b0:	00002800 	andeq	r2, r0, r0, lsl #16
    12b4:	ca9c0100 	bgt	fe7016bc <__bss_end__+0xfe6f7324>
    12b8:	07000000 	streq	r0, [r0, -r0]
    12bc:	00008bd8 	ldrdeq	r8, [r0], -r8	; <UNPREDICTABLE>
    12c0:	000000ac 	andeq	r0, r0, ip, lsr #1
    12c4:	05500108 	ldrbeq	r0, [r0, #-264]	; 0x108
    12c8:	009e3403 	addseq	r3, lr, r3, lsl #8
    12cc:	e0090000 	and	r0, r9, r0
    12d0:	ea00008b 	b	1504 <_start-0x6afc>
    12d4:	c0000000 	andgt	r0, r0, r0
    12d8:	08000000 	stmdaeq	r0, {}	; <UNPREDICTABLE>
    12dc:	08025001 	stmdaeq	r2, {r0, ip, lr}
    12e0:	e40a0064 	str	r0, [sl], #-100	; 0x64
    12e4:	fb00008b 	blx	151a <_start-0x6ae6>
    12e8:	00000000 	andeq	r0, r0, r0
    12ec:	0000250b 	andeq	r2, r0, fp, lsl #10
    12f0:	0000d900 	andeq	sp, r0, r0, lsl #18
    12f4:	00790c00 	rsbseq	r0, r9, r0, lsl #24
    12f8:	0d000000 	stceq	0, cr0, [r0, #-0]
    12fc:	000003b8 			; <UNDEFINED> instruction: 0x000003b8
    1300:	00e42202 	rsceq	r2, r4, r2, lsl #4
    1304:	04040000 	streq	r0, [r4], #-0
    1308:	000000ca 	andeq	r0, r0, sl, asr #1
    130c:	0001ab0e 	andeq	sl, r1, lr, lsl #22
    1310:	fb500200 	blx	1401b1a <__bss_end__+0x13f7782>
    1314:	0c000000 	stceq	0, cr0, [r0], {-0}
    1318:	0000002c 	andeq	r0, r0, ip, lsr #32
    131c:	043d0f00 	ldrteq	r0, [sp], #-3840	; 0xf00
    1320:	63020000 	movwvs	r0, #8192	; 0x2000
    1324:	0002dd00 	andeq	sp, r2, r0, lsl #26
    1328:	f9000400 			; <UNDEFINED> instruction: 0xf9000400
    132c:	04000007 	streq	r0, [r0], #-7
    1330:	0002b101 	andeq	fp, r2, r1, lsl #2
    1334:	05440100 	strbeq	r0, [r4, #-256]	; 0x100
    1338:	031c0000 	tsteq	ip, #0
    133c:	8bec0000 	blhi	ffb01344 <__bss_end__+0xffaf6fac>
    1340:	00b00000 	adcseq	r0, r0, r0
    1344:	06e20000 	strbteq	r0, [r2], r0
    1348:	04020000 	streq	r0, [r2], #-0
    134c:	746e6905 	strbtvc	r6, [lr], #-2309	; 0x905
    1350:	07040300 	streq	r0, [r4, -r0, lsl #6]
    1354:	00000033 	andeq	r0, r0, r3, lsr r0
    1358:	95060103 	strls	r0, [r6, #-259]	; 0x103
    135c:	03000001 	movweq	r0, #1
    1360:	01a10502 			; <UNDEFINED> instruction: 0x01a10502
    1364:	04030000 	streq	r0, [r3], #-0
    1368:	00004505 	andeq	r4, r0, r5, lsl #10
    136c:	05080300 	streq	r0, [r8, #-768]	; 0x300
    1370:	00000040 	andeq	r0, r0, r0, asr #32
    1374:	00050d04 	andeq	r0, r5, r4, lsl #26
    1378:	5a2e0200 	bpl	b81b80 <__bss_end__+0xb777e8>
    137c:	03000000 	movweq	r0, #0
    1380:	01930801 	orrseq	r0, r3, r1, lsl #16
    1384:	02030000 	andeq	r0, r3, #0
    1388:	00012707 	andeq	r2, r1, r7, lsl #14
    138c:	05640400 	strbeq	r0, [r4, #-1024]!	; 0x400
    1390:	34020000 	strcc	r0, [r2], #-0
    1394:	00000073 	andeq	r0, r0, r3, ror r0
    1398:	2e070403 	cdpcs	4, 0, cr0, cr7, cr3, {0}
    139c:	03000000 	movweq	r0, #0
    13a0:	00290708 	eoreq	r0, r9, r8, lsl #14
    13a4:	04030000 	streq	r0, [r3], #-0
    13a8:	00017107 	andeq	r7, r1, r7, lsl #2
    13ac:	08010300 	stmdaeq	r1, {r8, r9}
    13b0:	0000019c 	muleq	r0, ip, r1
    13b4:	00950405 	addseq	r0, r5, r5, lsl #8
    13b8:	88060000 	stmdahi	r6, {}	; <UNPREDICTABLE>
    13bc:	07000000 	streq	r0, [r0, -r0]
    13c0:	d10e030c 	tstle	lr, ip, lsl #6
    13c4:	08000000 	stmdaeq	r0, {}	; <UNPREDICTABLE>
    13c8:	03007874 	movweq	r7, #2164	; 0x874
    13cc:	00004f0f 	andeq	r4, r0, pc, lsl #30
    13d0:	72080000 	andvc	r0, r8, #0
    13d4:	0f030078 	svceq	0x00030078
    13d8:	0000004f 	andeq	r0, r0, pc, asr #32
    13dc:	04db0901 	ldrbeq	r0, [fp], #2305	; 0x901
    13e0:	10030000 	andne	r0, r3, r0
    13e4:	00000068 	andeq	r0, r0, r8, rrx
    13e8:	048c0904 	streq	r0, [ip], #2308	; 0x904
    13ec:	11030000 	mrsne	r0, (UNDEF: 3)
    13f0:	00000068 	andeq	r0, r0, r8, rrx
    13f4:	c4040008 	strgt	r0, [r4], #-8
    13f8:	03000004 	movweq	r0, #4
    13fc:	00009a12 	andeq	r9, r0, r2, lsl sl
    1400:	04010a00 	streq	r0, [r1], #-2560	; 0xa00
    1404:	0000f710 	andeq	pc, r0, r0, lsl r7	; <UNPREDICTABLE>
    1408:	04e00b00 	strbteq	r0, [r0], #2816	; 0xb00
    140c:	0b010000 	bleq	41414 <__bss_end__+0x3707c>
    1410:	000004ce 	andeq	r0, r0, lr, asr #9
    1414:	04b60b02 	ldrteq	r0, [r6], #2818	; 0xb02
    1418:	00030000 	andeq	r0, r3, r0
    141c:	0004f504 	andeq	pc, r4, r4, lsl #10
    1420:	dc100400 	cfldrsle	mvf0, [r0], {-0}
    1424:	07000000 	streq	r0, [r0, -r0]
    1428:	2f140414 	svccs	0x00140414
    142c:	09000001 	stmdbeq	r0, {r0}
    1430:	0000056d 	andeq	r0, r0, sp, ror #10
    1434:	002c1504 	eoreq	r1, ip, r4, lsl #10
    1438:	09000000 	stmdbeq	r0, {}	; <UNPREDICTABLE>
    143c:	00000558 	andeq	r0, r0, r8, asr r5
    1440:	00f71804 	rscseq	r1, r7, r4, lsl #16
    1444:	09040000 	stmdbeq	r4, {}	; <UNPREDICTABLE>
    1448:	00000523 	andeq	r0, r0, r3, lsr #10
    144c:	00d11b04 	sbcseq	r1, r1, r4, lsl #22
    1450:	00080000 	andeq	r0, r8, r0
    1454:	00051504 	andeq	r1, r5, r4, lsl #10
    1458:	02200400 	eoreq	r0, r0, #0, 8
    145c:	0c000001 	stceq	0, cr0, [r0], {1}
    1460:	00000462 	andeq	r0, r0, r2, ror #8
    1464:	00250601 	eoreq	r0, r5, r1, lsl #12
    1468:	8bec0000 	blhi	ffb01470 <__bss_end__+0xffaf70d8>
    146c:	00200000 	eoreq	r0, r0, r0
    1470:	9c010000 	stcls	0, cr0, [r1], {-0}
    1474:	0000017a 	andeq	r0, r0, sl, ror r1
    1478:	0100630d 	tsteq	r0, sp, lsl #6
    147c:	00002506 	andeq	r2, r0, r6, lsl #10
    1480:	000d0f00 	andeq	r0, sp, r0, lsl #30
    1484:	8c000e00 	stchi	14, cr0, [r0], {-0}
    1488:	027a0000 	rsbseq	r0, sl, #0
    148c:	010f0000 	mrseq	r0, CPSR
    1490:	00740251 	rsbseq	r0, r4, r1, asr r2
    1494:	0550010f 	ldrbeq	r0, [r0, #-271]	; 0x10f
    1498:	00a38803 	adceq	r8, r3, r3, lsl #16
    149c:	10000000 	andne	r0, r0, r0
    14a0:	000004ed 	andeq	r0, r0, sp, ror #9
    14a4:	8c0c0b01 	stchi	11, cr0, [ip], {1}
    14a8:	00900000 	addseq	r0, r0, r0
    14ac:	9c010000 	stcls	0, cr0, [r1], {-0}
    14b0:	00000227 	andeq	r0, r0, r7, lsr #4
    14b4:	00047611 	andeq	r7, r4, r1, lsl r6
    14b8:	250c0100 	strcs	r0, [ip, #-256]	; 0x100
    14bc:	11000000 	mrsne	r0, (UNDEF: 0)
    14c0:	00000538 	andeq	r0, r0, r8, lsr r5
    14c4:	00250c01 	eoreq	r0, r5, r1, lsl #24
    14c8:	0f120000 	svceq	0x00120000
    14cc:	01000000 	mrseq	r0, (UNDEF: 0)
    14d0:	7362130d 	cmnvc	r2, #872415232	; 0x34000000
    14d4:	0f010073 	svceq	0x00010073
    14d8:	00000227 	andeq	r0, r0, r7, lsr #4
    14dc:	00000d2d 	andeq	r0, r0, sp, lsr #26
    14e0:	00048414 	andeq	r8, r4, r4, lsl r4
    14e4:	27100100 	ldrcs	r0, [r0, -r0, lsl #2]
    14e8:	13000002 	movwne	r0, #2
    14ec:	01006263 	tsteq	r0, r3, ror #4
    14f0:	00022d17 	andeq	r2, r2, r7, lsl sp
    14f4:	000d4d00 	andeq	r4, sp, r0, lsl #26
    14f8:	8c341500 	cfldr32hi	mvfx1, [r4], #-0
    14fc:	02960000 	addseq	r0, r6, #0
    1500:	70160000 	andsvc	r0, r6, r0
    1504:	a100008c 	smlabbge	r0, ip, r0, r0
    1508:	fd000002 	stc2	0, cr0, [r0, #-8]
    150c:	0f000001 	svceq	0x00000001
    1510:	03055101 	movweq	r5, #20737	; 0x5101
    1514:	00009e40 	andeq	r9, r0, r0, asr #28
    1518:	0550010f 	ldrbeq	r0, [r0, #-271]	; 0x10f
    151c:	00a38803 	adceq	r8, r3, r3, lsl #16
    1520:	78160000 	ldmdavc	r6, {}	; <UNPREDICTABLE>
    1524:	bc00008c 	stclt	0, cr0, [r0], {140}	; 0x8c
    1528:	14000002 	strne	r0, [r0], #-2
    152c:	0f000002 	svceq	0x00000002
    1530:	03055001 	movweq	r5, #20481	; 0x5001
    1534:	00009e64 	andeq	r9, r0, r4, ror #28
    1538:	8c7c1500 	cfldr64hi	mvdx1, [ip], #-0
    153c:	02d20000 	sbcseq	r0, r2, #0
    1540:	80150000 	andshi	r0, r5, r0
    1544:	d900008c 	stmdble	r0, {r2, r3, r7}
    1548:	00000002 	andeq	r0, r0, r2
    154c:	00250405 	eoreq	r0, r5, r5, lsl #8
    1550:	04050000 	streq	r0, [r5], #-0
    1554:	0000012f 	andeq	r0, r0, pc, lsr #2
    1558:	00049a17 	andeq	r9, r4, r7, lsl sl
    155c:	d1050100 	mrsle	r0, (UNDEF: 21)
    1560:	05000000 	streq	r0, [r0, #-0]
    1564:	00a38803 	adceq	r8, r3, r3, lsl #16
    1568:	00251800 	eoreq	r1, r5, r0, lsl #16
    156c:	02530000 	subseq	r0, r3, #0
    1570:	25190000 	ldrcs	r0, [r9, #-0]
    1574:	00000000 	andeq	r0, r0, r0
    1578:	00037b11 	andeq	r7, r3, r1, lsl fp
    157c:	5e1d0500 	cfmul32pl	mvfx0, mvfx13, mvfx0
    1580:	05000002 	streq	r0, [r0, #-2]
    1584:	00024404 	andeq	r4, r2, r4, lsl #8
    1588:	04761100 	ldrbteq	r1, [r6], #-256	; 0x100
    158c:	0c010000 	stceq	0, cr0, [r1], {-0}
    1590:	00000025 	andeq	r0, r0, r5, lsr #32
    1594:	00053811 	andeq	r3, r5, r1, lsl r8
    1598:	250c0100 	strcs	r0, [ip, #-256]	; 0x100
    159c:	1a000000 	bne	15a4 <_start-0x6a5c>
    15a0:	00000500 	andeq	r0, r0, r0, lsl #10
    15a4:	02904403 	addseq	r4, r0, #50331648	; 0x3000000
    15a8:	90190000 	andsls	r0, r9, r0
    15ac:	19000002 	stmdbne	r0, {r1}
    15b0:	0000005a 	andeq	r0, r0, sl, asr r0
    15b4:	d1040500 	tstle	r4, r0, lsl #10
    15b8:	1b000000 	blne	15c0 <_start-0x6a40>
    15bc:	0000052b 	andeq	r0, r0, fp, lsr #10
    15c0:	022d2a04 	eoreq	r2, sp, #4, 20	; 0x4000
    15c4:	a71c0000 	ldrge	r0, [ip, -r0]
    15c8:	03000004 	movweq	r0, #4
    15cc:	00002515 	andeq	r2, r0, r5, lsl r5
    15d0:	0002bc00 	andeq	fp, r2, r0, lsl #24
    15d4:	02901900 	addseq	r1, r0, #0, 18
    15d8:	8f190000 	svchi	0x00190000
    15dc:	1d000000 	stcne	0, cr0, [r0, #-0]
    15e0:	030b1c00 	movweq	r1, #48128	; 0xbc00
    15e4:	29050000 	stmdbcs	r5, {}	; <UNPREDICTABLE>
    15e8:	00000025 	andeq	r0, r0, r5, lsr #32
    15ec:	000002d2 	ldrdeq	r0, [r0], -r2
    15f0:	00008f19 	andeq	r8, r0, r9, lsl pc
    15f4:	12001d00 	andne	r1, r0, #0, 26
    15f8:	0000000f 	andeq	r0, r0, pc
    15fc:	3d12d105 	ldfccd	f5, [r2, #-20]	; 0xffffffec
    1600:	05000004 	streq	r0, [r0, #-4]
    1604:	01ad0063 			; <UNDEFINED> instruction: 0x01ad0063
    1608:	00040000 	andeq	r0, r4, r0
    160c:	00000990 	muleq	r0, r0, r9
    1610:	02b10104 	adcseq	r0, r1, #4, 2
    1614:	8d010000 	stchi	0, cr0, [r1, #-0]
    1618:	1c000005 	stcne	0, cr0, [r0], {5}
    161c:	b0000003 	andlt	r0, r0, r3
    1620:	00000000 	andeq	r0, r0, r0
    1624:	07000000 	streq	r0, [r0, -r0]
    1628:	02000008 	andeq	r0, r0, #8
    162c:	6e690504 	cdpvs	5, 6, cr0, cr9, cr4, {0}
    1630:	04030074 	streq	r0, [r3], #-116	; 0x74
    1634:	00003307 	andeq	r3, r0, r7, lsl #6
    1638:	06010300 	streq	r0, [r1], -r0, lsl #6
    163c:	00000195 	muleq	r0, r5, r1
    1640:	a1050203 	tstge	r5, r3, lsl #4
    1644:	03000001 	movweq	r0, #1
    1648:	00450504 	subeq	r0, r5, r4, lsl #10
    164c:	08030000 	stmdaeq	r3, {}	; <UNPREDICTABLE>
    1650:	00004005 	andeq	r4, r0, r5
    1654:	08010300 	stmdaeq	r1, {r8, r9}
    1658:	00000193 	muleq	r0, r3, r1
    165c:	27070203 	strcs	r0, [r7, -r3, lsl #4]
    1660:	03000001 	movweq	r0, #1
    1664:	002e0704 	eoreq	r0, lr, r4, lsl #14
    1668:	08030000 	stmdaeq	r3, {}	; <UNPREDICTABLE>
    166c:	00002907 	andeq	r2, r0, r7, lsl #18
    1670:	07040300 	streq	r0, [r4, -r0, lsl #6]
    1674:	00000171 	andeq	r0, r0, r1, ror r1
    1678:	9c080103 	stflss	f0, [r8], {3}
    167c:	04000001 	streq	r0, [r0], #-1
    1680:	00000573 	andeq	r0, r0, r3, ror r5
    1684:	00250e01 	eoreq	r0, r5, r1, lsl #28
    1688:	8c9c0000 	ldchi	0, cr0, [ip], {0}
    168c:	00180000 	andseq	r0, r8, r0
    1690:	9c010000 	stcls	0, cr0, [r1], {-0}
    1694:	000000a2 	andeq	r0, r0, r2, lsr #1
    1698:	0005df05 	andeq	sp, r5, r5, lsl #30
    169c:	2c0f0100 	stfcss	f0, [pc], {-0}
    16a0:	6d000000 	stcvs	0, cr0, [r0, #-0]
    16a4:	0000000d 	andeq	r0, r0, sp
    16a8:	0005c206 	andeq	ip, r5, r6, lsl #4
    16ac:	b4170100 	ldrlt	r0, [r7], #-256	; 0x100
    16b0:	1400008c 	strne	r0, [r0], #-140	; 0x8c
    16b4:	01000000 	mrseq	r0, (UNDEF: 0)
    16b8:	0000c79c 	muleq	r0, ip, r7
    16bc:	05df0500 	ldrbeq	r0, [pc, #1280]	; 1bc4 <_start-0x643c>
    16c0:	18010000 	stmdane	r1, {}	; <UNPREDICTABLE>
    16c4:	0000002c 	andeq	r0, r0, ip, lsr #32
    16c8:	00000d8c 	andeq	r0, r0, ip, lsl #27
    16cc:	043d0600 	ldrteq	r0, [sp], #-1536	; 0x600
    16d0:	1f010000 	svcne	0x00010000
    16d4:	00008cc8 	andeq	r8, r0, r8, asr #25
    16d8:	00000048 	andeq	r0, r0, r8, asr #32
    16dc:	01779c01 	cmneq	r7, r1, lsl #24
    16e0:	d7070000 	strle	r0, [r7, -r0]
    16e4:	01000005 	tsteq	r0, r5
    16e8:	0001772a 	andeq	r7, r1, sl, lsr #14
    16ec:	10001c00 	andne	r1, r0, r0, lsl #24
    16f0:	05ba0720 	ldreq	r0, [sl, #1824]!	; 0x720
    16f4:	2b010000 	blcs	416fc <__bss_end__+0x37364>
    16f8:	00000177 	andeq	r0, r0, r7, ror r1
    16fc:	20100024 	andscs	r0, r0, r4, lsr #32
    1700:	00058107 	andeq	r8, r5, r7, lsl #2
    1704:	772c0100 	strvc	r0, [ip, -r0, lsl #2]!
    1708:	00000001 	andeq	r0, r0, r1
    170c:	085a0000 	ldmdaeq	sl, {}^	; <UNPREDICTABLE>
    1710:	000005a1 	andeq	r0, r0, r1, lsr #11
    1714:	01772d01 	cmneq	r7, r1, lsl #26
    1718:	09200000 	stmdbeq	r0!, {}	; <UNPREDICTABLE>
    171c:	00008cd0 	ldrdeq	r8, [r0], -r0
    1720:	00000079 	andeq	r0, r0, r9, ror r0
    1724:	008cdc09 	addeq	sp, ip, r9, lsl #24
    1728:	0000a200 	andeq	sl, r0, r0, lsl #4
    172c:	8ce40a00 	vstmiahi	r4!, {s1-s0}
    1730:	018d0000 	orreq	r0, sp, r0
    1734:	013a0000 	teqeq	sl, r0
    1738:	010b0000 	mrseq	r0, (UNDEF: 11)
    173c:	004e0150 	subeq	r0, lr, r0, asr r1
    1740:	008cf00a 	addeq	pc, ip, sl
    1744:	00019e00 	andeq	r9, r1, r0, lsl #28
    1748:	00015a00 	andeq	r5, r1, r0, lsl #20
    174c:	51010b00 	tstpl	r1, r0, lsl #22
    1750:	00010c05 	andeq	r0, r1, r5, lsl #24
    1754:	010b5a00 	tsteq	fp, r0, lsl #20
    1758:	240c0550 	strcs	r0, [ip], #-1360	; 0x550
    175c:	00201000 	eoreq	r1, r0, r0
    1760:	008cfc0c 	addeq	pc, ip, ip, lsl #24
    1764:	00019e00 	andeq	r9, r1, r0, lsl #28
    1768:	51010b00 	tstpl	r1, r0, lsl #22
    176c:	00200c05 	eoreq	r0, r0, r5, lsl #24
    1770:	010b5a00 	tsteq	fp, r0, lsl #20
    1774:	1c0c0550 	cfstr32ne	mvfx0, [ip], {80}	; 0x50
    1778:	00201000 	eoreq	r1, r0, r0
    177c:	00250d00 	eoreq	r0, r5, r0, lsl #26
    1780:	76080000 	strvc	r0, [r8], -r0
    1784:	01000005 	tsteq	r0, r5
    1788:	0001880d 	andeq	r8, r1, sp, lsl #16
    178c:	2c0d1000 	stccs	0, cr1, [sp], {-0}
    1790:	0e000000 	cdpeq	0, 0, cr0, cr0, cr0, {0}
    1794:	000001ab 	andeq	r0, r0, fp, lsr #3
    1798:	019e5002 	orrseq	r5, lr, r2
    179c:	2c0f0000 	stccs	0, cr0, [pc], {-0}
    17a0:	00000000 	andeq	r0, r0, r0
    17a4:	0005d110 	andeq	sp, r5, r0, lsl r1
    17a8:	0f9c0200 	svceq	0x009c0200
    17ac:	0000002c 	andeq	r0, r0, ip, lsr #32
    17b0:	00002c0f 	andeq	r2, r0, pc, lsl #24
    17b4:	d8000000 	stmdale	r0, {}	; <UNPREDICTABLE>
    17b8:	04000001 	streq	r0, [r0], #-1
    17bc:	000a7e00 	andeq	r7, sl, r0, lsl #28
    17c0:	b1010400 	tstlt	r1, r0, lsl #8
    17c4:	01000002 	tsteq	r0, r2
    17c8:	00000601 	andeq	r0, r0, r1, lsl #12
    17cc:	0000031c 	andeq	r0, r0, ip, lsl r3
    17d0:	00008d10 	andeq	r8, r0, r0, lsl sp
    17d4:	00000088 	andeq	r0, r0, r8, lsl #1
    17d8:	000008a4 	andeq	r0, r0, r4, lsr #17
    17dc:	69050402 	stmdbvs	r5, {r1, sl}
    17e0:	0300746e 	movweq	r7, #1134	; 0x46e
    17e4:	00330704 	eorseq	r0, r3, r4, lsl #14
    17e8:	01030000 	mrseq	r0, (UNDEF: 3)
    17ec:	00019506 	andeq	r9, r1, r6, lsl #10
    17f0:	05020300 	streq	r0, [r2, #-768]	; 0x300
    17f4:	000001a1 	andeq	r0, r0, r1, lsr #3
    17f8:	45050403 	strmi	r0, [r5, #-1027]	; 0x403
    17fc:	03000000 	movweq	r0, #0
    1800:	00400508 	subeq	r0, r0, r8, lsl #10
    1804:	01030000 	mrseq	r0, (UNDEF: 3)
    1808:	00019308 	andeq	r9, r1, r8, lsl #6
    180c:	07020300 	streq	r0, [r2, -r0, lsl #6]
    1810:	00000127 	andeq	r0, r0, r7, lsr #2
    1814:	2e070403 	cdpcs	4, 0, cr0, cr7, cr3, {0}
    1818:	03000000 	movweq	r0, #0
    181c:	00290708 	eoreq	r0, r9, r8, lsl #14
    1820:	04030000 	streq	r0, [r3], #-0
    1824:	00017107 	andeq	r7, r1, r7, lsl #2
    1828:	08010300 	stmdaeq	r1, {r8, r9}
    182c:	0000019c 	muleq	r0, ip, r1
    1830:	00062004 	andeq	r2, r6, r4
    1834:	10050100 	andne	r0, r5, r0, lsl #2
    1838:	1c00008d 	stcne	0, cr0, [r0], {141}	; 0x8d
    183c:	01000000 	mrseq	r0, (UNDEF: 0)
    1840:	00009e9c 	muleq	r0, ip, lr
    1844:	061a0500 	ldreq	r0, [sl], -r0, lsl #10
    1848:	05010000 	streq	r0, [r1, #-0]
    184c:	0000002c 	andeq	r0, r0, ip, lsr #32
    1850:	00000db6 			; <UNDEFINED> instruction: 0x00000db6
    1854:	05e40600 	strbeq	r0, [r4, #1536]!	; 0x600
    1858:	0b010000 	bleq	41860 <__bss_end__+0x374c8>
    185c:	0000002c 	andeq	r0, r0, ip, lsr #32
    1860:	00008d2c 	andeq	r8, r0, ip, lsr #26
    1864:	00000014 	andeq	r0, r0, r4, lsl r0
    1868:	00cb9c01 	sbceq	r9, fp, r1, lsl #24
    186c:	38070000 	stmdacc	r7, {}	; <UNPREDICTABLE>
    1870:	ca00008d 	bgt	1aac <_start-0x6554>
    1874:	08000001 	stmdaeq	r0, {r0}
    1878:	0c055001 	stceq	0, cr5, [r5], {1}
    187c:	20003004 	andcs	r3, r0, r4
    1880:	36060000 	strcc	r0, [r6], -r0
    1884:	01000006 	tsteq	r0, r6
    1888:	00002c10 	andeq	r2, r0, r0, lsl ip
    188c:	008d4000 	addeq	r4, sp, r0
    1890:	00000c00 	andeq	r0, r0, r0, lsl #24
    1894:	f99c0100 			; <UNDEFINED> instruction: 0xf99c0100
    1898:	09000000 	stmdbeq	r0, {}	; <UNPREDICTABLE>
    189c:	14010075 	strne	r0, [r1], #-117	; 0x75
    18a0:	0000002c 	andeq	r0, r0, ip, lsr #32
    18a4:	480a5001 	stmdami	sl, {r0, ip, lr}
    18a8:	9e00008d 	cdpls	0, 0, cr0, cr0, cr13, {4}
    18ac:	00000000 	andeq	r0, r0, r0
    18b0:	00062d04 	andeq	r2, r6, r4, lsl #26
    18b4:	4c190100 	ldfmis	f0, [r9], {-0}
    18b8:	2400008d 	strcs	r0, [r0], #-141	; 0x8d
    18bc:	01000000 	mrseq	r0, (UNDEF: 0)
    18c0:	0001579c 	muleq	r1, ip, r7
    18c4:	73750b00 	cmnvc	r5, #0, 22
    18c8:	2c190100 	ldfcss	f0, [r9], {-0}
    18cc:	ea000000 	b	18d4 <_start-0x672c>
    18d0:	0900000d 	stmdbeq	r0, {r0, r2, r3}
    18d4:	01006272 	tsteq	r0, r2, ror r2
    18d8:	00002c1a 	andeq	r2, r0, sl, lsl ip
    18dc:	0c540100 	ldfeqe	f0, [r4], {-0}
    18e0:	00008d5c 	andeq	r8, r0, ip, asr sp
    18e4:	00000010 	andeq	r0, r0, r0, lsl r0
    18e8:	0000014d 	andeq	r0, r0, sp, asr #2
    18ec:	0061720d 	rsbeq	r7, r1, sp, lsl #4
    18f0:	002c1c01 	eoreq	r1, ip, r1, lsl #24
    18f4:	0e080000 	cdpeq	0, 0, cr0, cr8, cr0, {0}
    18f8:	600a0000 	andvs	r0, sl, r0
    18fc:	cb00008d 	blgt	1b38 <_start-0x64c8>
    1900:	00000000 	andeq	r0, r0, r0
    1904:	008d580a 	addeq	r5, sp, sl, lsl #16
    1908:	0000cb00 	andeq	ip, r0, r0, lsl #22
    190c:	ab040000 	blge	101914 <__bss_end__+0xf757c>
    1910:	01000001 	tsteq	r0, r1
    1914:	008d7022 	addeq	r7, sp, r2, lsr #32
    1918:	00001400 	andeq	r1, r0, r0, lsl #8
    191c:	909c0100 	addsls	r0, ip, r0, lsl #2
    1920:	0b000001 	bleq	192c <_start-0x66d4>
    1924:	0100736d 	tsteq	r0, sp, ror #6
    1928:	00002c22 	andeq	r2, r0, r2, lsr #24
    192c:	000e1b00 	andeq	r1, lr, r0, lsl #22
    1930:	8d800700 	stchi	7, cr0, [r0]
    1934:	00f90000 	rscseq	r0, r9, r0
    1938:	01080000 	mrseq	r0, (UNDEF: 8)
    193c:	01f30750 	mvnseq	r0, r0, asr r7
    1940:	03e80a50 	mvneq	r0, #80, 20	; 0x50000
    1944:	0400001e 	streq	r0, [r0], #-30
    1948:	000005f7 	strdeq	r0, [r0], -r7
    194c:	8d842501 	cfstr32hi	mvfx2, [r4, #4]
    1950:	00140000 	andseq	r0, r4, r0
    1954:	9c010000 	stcls	0, cr0, [r1], {-0}
    1958:	000001ca 	andeq	r0, r0, sl, asr #3
    195c:	6365730b 	cmnvs	r5, #738197504	; 0x2c000000
    1960:	2c250100 	stfcss	f0, [r5], #-0
    1964:	3c000000 	stccc	0, cr0, [r0], {-0}
    1968:	0700000e 	streq	r0, [r0, -lr]
    196c:	00008d94 	muleq	r0, r4, sp
    1970:	00000157 	andeq	r0, r0, r7, asr r1
    1974:	07500108 	ldrbeq	r0, [r0, -r8, lsl #2]
    1978:	0a5001f3 	beq	140214c <__bss_end__+0x13f7db4>
    197c:	001e03e8 	andseq	r0, lr, r8, ror #7
    1980:	06140e00 	ldreq	r0, [r4], -r0, lsl #28
    1984:	a8020000 	stmdage	r2, {}	; <UNPREDICTABLE>
    1988:	0000002c 	andeq	r0, r0, ip, lsr #32
    198c:	00002c0f 	andeq	r2, r0, pc, lsl #24
    1990:	82000000 	andhi	r0, r0, #0
    1994:	04000008 	streq	r0, [r0], #-8
    1998:	000b6100 	andeq	r6, fp, r0, lsl #2
    199c:	b1010400 	tstlt	r1, r0, lsl #8
    19a0:	01000002 	tsteq	r0, r2
    19a4:	00000696 	muleq	r0, r6, r6
    19a8:	0000031c 	andeq	r0, r0, ip, lsl r3
    19ac:	00008d98 	muleq	r0, r8, sp
    19b0:	000005a0 	andeq	r0, r0, r0, lsr #11
    19b4:	0000094b 	andeq	r0, r0, fp, asr #18
    19b8:	29070802 	stmdbcs	r7, {r1, fp}
    19bc:	02000000 	andeq	r0, r0, #0
    19c0:	00330704 	eorseq	r0, r3, r4, lsl #14
    19c4:	01020000 	mrseq	r0, (UNDEF: 2)
    19c8:	00019506 	andeq	r9, r1, r6, lsl #10
    19cc:	05020200 	streq	r0, [r2, #-512]	; 0x200
    19d0:	000001a1 	andeq	r0, r0, r1, lsr #3
    19d4:	45050402 	strmi	r0, [r5, #-1026]	; 0x402
    19d8:	02000000 	andeq	r0, r0, #0
    19dc:	00400508 	subeq	r0, r0, r8, lsl #10
    19e0:	01020000 	mrseq	r0, (UNDEF: 2)
    19e4:	00019308 	andeq	r9, r1, r8, lsl #6
    19e8:	07020200 	streq	r0, [r2, -r0, lsl #4]
    19ec:	00000127 	andeq	r0, r0, r7, lsr #2
    19f0:	2e070402 	cdpcs	4, 0, cr0, cr7, cr2, {0}
    19f4:	03000000 	movweq	r0, #0
    19f8:	6e690504 	cdpvs	5, 6, cr0, cr9, cr4, {0}
    19fc:	04020074 	streq	r0, [r2], #-116	; 0x74
    1a00:	00017107 	andeq	r7, r1, r7, lsl #2
    1a04:	08010200 	stmdaeq	r1, {r9}
    1a08:	0000019c 	muleq	r0, ip, r1
    1a0c:	0c020104 	stfeqs	f0, [r2], {4}
    1a10:	000000b2 	strheq	r0, [r0], -r2
    1a14:	00067905 	andeq	r7, r6, r5, lsl #18
    1a18:	89050000 	stmdbhi	r5, {}	; <UNPREDICTABLE>
    1a1c:	01000007 	tsteq	r0, r7
    1a20:	0007c205 	andeq	ip, r7, r5, lsl #4
    1a24:	d1050400 	tstle	r5, r0, lsl #8
    1a28:	05000007 	streq	r0, [r0, #-7]
    1a2c:	0007e005 	andeq	lr, r7, r5
    1a30:	ef050600 	svc	0x00050600
    1a34:	07000007 	streq	r0, [r0, -r7]
    1a38:	0007fe05 	andeq	pc, r7, r5, lsl #28
    1a3c:	0d050300 	stceq	3, cr0, [r5, #-0]
    1a40:	02000008 	andeq	r0, r0, #8
    1a44:	07b60600 	ldreq	r0, [r6, r0, lsl #12]!
    1a48:	15020000 	strne	r0, [r2, #-0]
    1a4c:	00000079 	andeq	r0, r0, r9, ror r0
    1a50:	00077907 	andeq	r7, r7, r7, lsl #18
    1a54:	983f0100 	ldmdals	pc!, {r8}	; <UNPREDICTABLE>
    1a58:	d400008d 	strle	r0, [r0], #-141	; 0x8d
    1a5c:	01000000 	mrseq	r0, (UNDEF: 0)
    1a60:	0001339c 	muleq	r1, ip, r3
    1a64:	69700800 	ldmdbvs	r0!, {fp}^
    1a68:	3f01006e 	svccc	0x0001006e
    1a6c:	0000002c 	andeq	r0, r0, ip, lsr #32
    1a70:	00000e5d 	andeq	r0, r0, sp, asr lr
    1a74:	0006b609 	andeq	fp, r6, r9, lsl #12
    1a78:	33470100 	movtcc	r0, #28928	; 0x7100
    1a7c:	7b000001 	blvc	1a88 <_start-0x6578>
    1a80:	0900000e 	stmdbeq	r0, {r1, r2, r3}
    1a84:	0000081c 	andeq	r0, r0, ip, lsl r8
    1a88:	002c4901 	eoreq	r4, ip, r1, lsl #18
    1a8c:	0ed00000 	cdpeq	0, 13, cr0, cr0, cr0, {0}
    1a90:	2d090000 	stccs	0, cr0, [r9, #-0]
    1a94:	01000007 	tsteq	r0, r7
    1a98:	00002c57 	andeq	r2, r0, r7, asr ip
    1a9c:	00109c00 	andseq	r9, r0, r0, lsl #24
    1aa0:	8e2c0a00 	vmulhi.f32	s0, s24, s0
    1aa4:	08410000 	stmdaeq	r1, {}^	; <UNPREDICTABLE>
    1aa8:	01220000 	teqeq	r2, r0
    1aac:	010b0000 	mrseq	r0, (UNDEF: 11)
    1ab0:	00750250 	rsbseq	r0, r5, r0, asr r2
    1ab4:	8e600c00 	cdphi	12, 6, cr0, cr0, cr0, {0}
    1ab8:	08620000 	stmdaeq	r2!, {}^	; <UNPREDICTABLE>
    1abc:	010b0000 	mrseq	r0, (UNDEF: 11)
    1ac0:	00750250 	rsbseq	r0, r5, r0, asr r2
    1ac4:	040d0000 	streq	r0, [sp], #-0
    1ac8:	00000139 	andeq	r0, r0, r9, lsr r1
    1acc:	00002c0e 	andeq	r2, r0, lr, lsl #24
    1ad0:	075f0700 	ldrbeq	r0, [pc, -r0, lsl #14]
    1ad4:	60010000 	andvs	r0, r1, r0
    1ad8:	00008e6c 	andeq	r8, r0, ip, ror #28
    1adc:	00000038 	andeq	r0, r0, r8, lsr r0
    1ae0:	01969c01 	orrseq	r9, r6, r1, lsl #24
    1ae4:	70080000 	andvc	r0, r8, r0
    1ae8:	01006e69 	tsteq	r0, r9, ror #28
    1aec:	00002c60 	andeq	r2, r0, r0, ror #24
    1af0:	0010cc00 	andseq	ip, r0, r0, lsl #24
    1af4:	06b60900 	ldrteq	r0, [r6], r0, lsl #18
    1af8:	67010000 	strvs	r0, [r1, -r0]
    1afc:	00000133 	andeq	r0, r0, r3, lsr r1
    1b00:	000010ed 	andeq	r1, r0, sp, ror #1
    1b04:	00072d09 	andeq	r2, r7, r9, lsl #26
    1b08:	2c680100 	stfcse	f0, [r8], #-0
    1b0c:	23000000 	movwcs	r0, #0
    1b10:	0c000011 	stceq	0, cr0, [r0], {17}
    1b14:	00008e9c 	muleq	r0, ip, lr
    1b18:	00000862 	andeq	r0, r0, r2, ror #16
    1b1c:	0751010b 	ldrbeq	r0, [r1, -fp, lsl #2]
    1b20:	5001f331 	andpl	pc, r1, r1, lsr r3	; <UNPREDICTABLE>
    1b24:	00241a4f 	eoreq	r1, r4, pc, asr #20
    1b28:	06890700 	streq	r0, [r9], r0, lsl #14
    1b2c:	7b010000 	blvc	41b34 <__bss_end__+0x3779c>
    1b30:	00008ea4 	andeq	r8, r0, r4, lsr #29
    1b34:	00000038 	andeq	r0, r0, r8, lsr r0
    1b38:	01ee9c01 	mvneq	r9, r1, lsl #24
    1b3c:	70080000 	andvc	r0, r8, r0
    1b40:	01006e69 	tsteq	r0, r9, ror #28
    1b44:	00002c7b 	andeq	r2, r0, fp, ror ip
    1b48:	00116300 	andseq	r6, r1, r0, lsl #6
    1b4c:	06b60900 	ldrteq	r0, [r6], r0, lsl #18
    1b50:	81010000 	mrshi	r0, (UNDEF: 1)
    1b54:	00000133 	andeq	r0, r0, r3, lsr r1
    1b58:	00001184 	andeq	r1, r0, r4, lsl #3
    1b5c:	00072d09 	andeq	r2, r7, r9, lsl #26
    1b60:	2c820100 	stfcss	f0, [r2], {0}
    1b64:	ba000000 	blt	1b6c <_start-0x6494>
    1b68:	0c000011 	stceq	0, cr0, [r0], {17}
    1b6c:	00008ed4 	ldrdeq	r8, [r0], -r4
    1b70:	00000862 	andeq	r0, r0, r2, ror #16
    1b74:	0751010b 	ldrbeq	r0, [r1, -fp, lsl #2]
    1b78:	5001f331 	andpl	pc, r1, r1, lsr r3	; <UNPREDICTABLE>
    1b7c:	00241a4f 	eoreq	r1, r4, pc, asr #20
    1b80:	02420700 	subeq	r0, r2, #0, 14
    1b84:	95010000 	strls	r0, [r1, #-0]
    1b88:	00008edc 	ldrdeq	r8, [r0], -ip
    1b8c:	000000cc 	andeq	r0, r0, ip, asr #1
    1b90:	02649c01 	rsbeq	r9, r4, #256	; 0x100
    1b94:	70080000 	andvc	r0, r8, r0
    1b98:	01006e69 	tsteq	r0, r9, ror #28
    1b9c:	00002c95 	muleq	r0, r5, ip
    1ba0:	0011fa00 	andseq	pc, r1, r0, lsl #20
    1ba4:	06b60900 	ldrteq	r0, [r6], r0, lsl #18
    1ba8:	9b010000 	blls	41bb0 <__bss_end__+0x37818>
    1bac:	00000133 	andeq	r0, r0, r3, lsr r1
    1bb0:	00001218 	andeq	r1, r0, r8, lsl r2
    1bb4:	00081c09 	andeq	r1, r8, r9, lsl #24
    1bb8:	2c9d0100 	ldfcss	f0, [sp], {0}
    1bbc:	6d000000 	stcvs	0, cr0, [r0, #-0]
    1bc0:	09000012 	stmdbeq	r0, {r1, r4}
    1bc4:	0000072d 	andeq	r0, r0, sp, lsr #14
    1bc8:	002cab01 	eoreq	sl, ip, r1, lsl #22
    1bcc:	14390000 	ldrtne	r0, [r9], #-0
    1bd0:	700a0000 	andvc	r0, sl, r0
    1bd4:	4100008f 	smlabbmi	r0, pc, r0, r0	; <UNPREDICTABLE>
    1bd8:	53000008 	movwpl	r0, #8
    1bdc:	0b000002 	bleq	1bec <_start-0x6414>
    1be0:	75025001 	strvc	r5, [r2, #-1]
    1be4:	9c0c0000 	stcls	0, cr0, [ip], {-0}
    1be8:	6200008f 	andvs	r0, r0, #143	; 0x8f
    1bec:	0b000008 	bleq	1c14 <_start-0x63ec>
    1bf0:	75025001 	strvc	r5, [r2, #-1]
    1bf4:	0f000000 	svceq	0x00000000
    1bf8:	00000263 	andeq	r0, r0, r3, ror #4
    1bfc:	0064b301 	rsbeq	fp, r4, r1, lsl #6
    1c00:	8fa80000 	svchi	0x00a80000
    1c04:	004c0000 	subeq	r0, ip, r0
    1c08:	9c010000 	stcls	0, cr0, [r1], {-0}
    1c0c:	000002ac 	andeq	r0, r0, ip, lsr #5
    1c10:	6e697008 	cdpvs	0, 6, cr7, cr9, cr8, {0}
    1c14:	2cb30100 	ldfcss	f0, [r3]
    1c18:	57000000 	strpl	r0, [r0, -r0]
    1c1c:	10000014 	andne	r0, r0, r4, lsl r0
    1c20:	b9010076 	stmdblt	r1, {r1, r2, r4, r5, r6}
    1c24:	0000002c 	andeq	r0, r0, ip, lsr #32
    1c28:	000014af 	andeq	r1, r0, pc, lsr #9
    1c2c:	008fc811 	addeq	ip, pc, r1, lsl r8	; <UNPREDICTABLE>
    1c30:	00084100 	andeq	r4, r8, r0, lsl #2
    1c34:	8fd81100 	svchi	0x00d81100
    1c38:	08410000 	stmdaeq	r1, {}^	; <UNPREDICTABLE>
    1c3c:	07000000 	streq	r0, [r0, -r0]
    1c40:	00000735 	andeq	r0, r0, r5, lsr r7
    1c44:	8ff4c501 	svchi	0x00f4c501
    1c48:	00240000 	eoreq	r0, r4, r0
    1c4c:	9c010000 	stcls	0, cr0, [r1], {-0}
    1c50:	000002fc 	strdeq	r0, [r0], -ip
    1c54:	6e697008 	cdpvs	0, 6, cr7, cr9, cr8, {0}
    1c58:	2cc50100 	stfcse	f0, [r5], {0}
    1c5c:	e5000000 	str	r0, [r0, #-0]
    1c60:	08000014 	stmdaeq	r0, {r2, r4}
    1c64:	c5010076 	strgt	r0, [r1, #-118]	; 0x76
    1c68:	0000002c 	andeq	r0, r0, ip, lsr #32
    1c6c:	0000151f 	andeq	r1, r0, pc, lsl r5
    1c70:	00900c0a 	addseq	r0, r0, sl, lsl #24
    1c74:	00013e00 	andeq	r3, r1, r0, lsl #28
    1c78:	0002f200 	andeq	pc, r2, r0, lsl #4
    1c7c:	50010b00 	andpl	r0, r1, r0, lsl #22
    1c80:	5001f303 	andpl	pc, r1, r3, lsl #6
    1c84:	90141100 	andsls	r1, r4, r0, lsl #2
    1c88:	01960000 	orrseq	r0, r6, r0
    1c8c:	07000000 	streq	r0, [r0, -r0]
    1c90:	000006e0 	andeq	r0, r0, r0, ror #13
    1c94:	9018d101 	andsls	sp, r8, r1, lsl #2
    1c98:	00d80000 	sbcseq	r0, r8, r0
    1c9c:	9c010000 	stcls	0, cr0, [r1], {-0}
    1ca0:	00000381 	andeq	r0, r0, r1, lsl #7
    1ca4:	6e697008 	cdpvs	0, 6, cr7, cr9, cr8, {0}
    1ca8:	2cd10100 	ldfcse	f0, [r1], {0}
    1cac:	59000000 	stmdbpl	r0, {}	; <UNPREDICTABLE>
    1cb0:	12000015 	andne	r0, r0, #21
    1cb4:	00000740 	andeq	r0, r0, r0, asr #14
    1cb8:	00b2d101 	adcseq	sp, r2, r1, lsl #2
    1cbc:	15770000 	ldrbne	r0, [r7, #-0]!
    1cc0:	b6090000 	strlt	r0, [r9], -r0
    1cc4:	01000006 	tsteq	r0, r6
    1cc8:	000133d9 	ldrdeq	r3, [r1], -r9
    1ccc:	00159800 	andseq	r9, r5, r0, lsl #16
    1cd0:	081c0900 	ldmdaeq	ip, {r8, fp}
    1cd4:	da010000 	ble	41cdc <__bss_end__+0x37944>
    1cd8:	0000002c 	andeq	r0, r0, ip, lsr #32
    1cdc:	000015ed 	andeq	r1, r0, sp, ror #11
    1ce0:	00072d09 	andeq	r2, r7, r9, lsl #26
    1ce4:	2ce80100 	stfcse	f0, [r8]
    1ce8:	b9000000 	stmdblt	r0, {}	; <UNPREDICTABLE>
    1cec:	0a000017 	beq	1d50 <_start-0x62b0>
    1cf0:	000090b4 	strheq	r9, [r0], -r4
    1cf4:	00000841 	andeq	r0, r0, r1, asr #16
    1cf8:	00000370 	andeq	r0, r0, r0, ror r3
    1cfc:	0250010b 	subseq	r0, r0, #-1073741822	; 0xc0000002
    1d00:	0c000076 	stceq	0, cr0, [r0], {118}	; 0x76
    1d04:	000090e4 	andeq	r9, r0, r4, ror #1
    1d08:	00000862 	andeq	r0, r0, r2, ror #16
    1d0c:	0250010b 	subseq	r0, r0, #-1073741822	; 0xc0000002
    1d10:	00000076 	andeq	r0, r0, r6, ror r0
    1d14:	00074507 	andeq	r4, r7, r7, lsl #10
    1d18:	f0f10100 			; <UNDEFINED> instruction: 0xf0f10100
    1d1c:	38000090 	stmdacc	r0, {r4, r7}
    1d20:	01000000 	mrseq	r0, (UNDEF: 0)
    1d24:	0003d99c 	muleq	r3, ip, r9
    1d28:	69700800 	ldmdbvs	r0!, {fp}^
    1d2c:	f101006e 	setend	le
    1d30:	0000002c 	andeq	r0, r0, ip, lsr #32
    1d34:	000017ea 	andeq	r1, r0, sl, ror #15
    1d38:	0006b609 	andeq	fp, r6, r9, lsl #12
    1d3c:	33f70100 	mvnscc	r0, #0, 2
    1d40:	0b000001 	bleq	1d4c <_start-0x62b4>
    1d44:	09000018 	stmdbeq	r0, {r3, r4}
    1d48:	0000072d 	andeq	r0, r0, sp, lsr #14
    1d4c:	002cf801 	eoreq	pc, ip, r1, lsl #16
    1d50:	18410000 	stmdane	r1, {}^	; <UNPREDICTABLE>
    1d54:	200c0000 	andcs	r0, ip, r0
    1d58:	62000091 	andvs	r0, r0, #145	; 0x91
    1d5c:	0b000008 	bleq	1d84 <_start-0x627c>
    1d60:	31075101 	tstcc	r7, r1, lsl #2
    1d64:	4f5001f3 	svcmi	0x005001f3
    1d68:	0000241a 	andeq	r2, r0, sl, lsl r4
    1d6c:	00066d13 	andeq	r6, r6, r3, lsl sp
    1d70:	011f0100 	tsteq	pc, r0, lsl #2
    1d74:	00000064 	andeq	r0, r0, r4, rrx
    1d78:	00009128 	andeq	r9, r0, r8, lsr #2
    1d7c:	0000002c 	andeq	r0, r0, ip, lsr #32
    1d80:	040d9c01 	streq	r9, [sp], #-3073	; 0xc01
    1d84:	70140000 	andsvc	r0, r4, r0
    1d88:	01000006 	tsteq	r0, r6
    1d8c:	002c011f 	eoreq	r0, ip, pc, lsl r1
    1d90:	18810000 	stmne	r1, {}	; <UNPREDICTABLE>
    1d94:	38110000 	ldmdacc	r1, {}	; <UNPREDICTABLE>
    1d98:	41000091 	swpmi	r0, r1, [r0]	; <UNPREDICTABLE>
    1d9c:	00000008 	andeq	r0, r0, r8
    1da0:	0006cb15 	andeq	ip, r6, r5, lsl fp
    1da4:	012e0100 	teqeq	lr, r0, lsl #2
    1da8:	00009154 	andeq	r9, r0, r4, asr r1
    1dac:	00000084 	andeq	r0, r0, r4, lsl #1
    1db0:	04d19c01 	ldrbeq	r9, [r1], #3073	; 0xc01
    1db4:	70160000 	andsvc	r0, r6, r0
    1db8:	01006e69 	tsteq	r0, r9, ror #28
    1dbc:	002c012e 	eoreq	r0, ip, lr, lsr #2
    1dc0:	18a20000 	stmiane	r2!, {}	; <UNPREDICTABLE>
    1dc4:	a4170000 	ldrge	r0, [r7], #-0
    1dc8:	01000006 	tsteq	r0, r6
    1dcc:	002c0140 	eoreq	r0, ip, r0, asr #2
    1dd0:	18ce0000 	stmiane	lr, {}^	; <UNPREDICTABLE>
    1dd4:	70180000 	andsvc	r0, r8, r0
    1dd8:	1c000091 	stcne	0, cr0, [r0], {145}	; 0x91
    1ddc:	73000000 	movwvc	r0, #0
    1de0:	17000004 	strne	r0, [r0, -r4]
    1de4:	0000072d 	andeq	r0, r0, sp, lsr #14
    1de8:	2c013701 	stccs	7, cr3, [r1], {1}
    1dec:	ec000000 	stc	0, cr0, [r0], {-0}
    1df0:	11000018 	tstne	r0, r8, lsl r0
    1df4:	0000917c 	andeq	r9, r0, ip, ror r1
    1df8:	00000841 	andeq	r0, r0, r1, asr #16
    1dfc:	00918c11 	addseq	r8, r1, r1, lsl ip
    1e00:	00086200 	andeq	r6, r8, r0, lsl #4
    1e04:	90180000 	andsls	r0, r8, r0
    1e08:	20000091 	mulcs	r0, r1, r0
    1e0c:	a3000000 	movwge	r0, #0
    1e10:	17000004 	strne	r0, [r0, -r4]
    1e14:	0000072d 	andeq	r0, r0, sp, lsr #14
    1e18:	2c013b01 	stccs	11, cr3, [r1], {1}
    1e1c:	0a000000 	beq	1e24 <_start-0x61dc>
    1e20:	11000019 	tstne	r0, r9, lsl r0
    1e24:	0000919c 	muleq	r0, ip, r1
    1e28:	00000841 	andeq	r0, r0, r1, asr #16
    1e2c:	0091b011 	addseq	fp, r1, r1, lsl r0
    1e30:	00086200 	andeq	r6, r8, r0, lsl #4
    1e34:	68110000 	ldmdavs	r1, {}	; <UNPREDICTABLE>
    1e38:	7e000091 	mcrvc	0, 0, r0, cr0, cr1, {4}
    1e3c:	11000008 	tstne	r0, r8
    1e40:	000091b4 			; <UNDEFINED> instruction: 0x000091b4
    1e44:	0000087e 	andeq	r0, r0, lr, ror r8
    1e48:	0091c011 	addseq	ip, r1, r1, lsl r0
    1e4c:	00084100 	andeq	r4, r8, r0, lsl #2
    1e50:	91cc1100 	bicls	r1, ip, r0, lsl #2
    1e54:	08620000 	stmdaeq	r2!, {}^	; <UNPREDICTABLE>
    1e58:	d0110000 	andsle	r0, r1, r0
    1e5c:	7e000091 	mcrvc	0, 0, r0, cr0, cr1, {4}
    1e60:	00000008 	andeq	r0, r0, r8
    1e64:	0007a015 	andeq	sl, r7, r5, lsl r0
    1e68:	014b0100 	mrseq	r0, (UNDEF: 91)
    1e6c:	000091d8 	ldrdeq	r9, [r0], -r8
    1e70:	00000084 	andeq	r0, r0, r4, lsl #1
    1e74:	05959c01 	ldreq	r9, [r5, #3073]	; 0xc01
    1e78:	70160000 	andsvc	r0, r6, r0
    1e7c:	01006e69 	tsteq	r0, r9, ror #28
    1e80:	002c014b 	eoreq	r0, ip, fp, asr #2
    1e84:	19280000 	stmdbne	r8!, {}	; <UNPREDICTABLE>
    1e88:	a4170000 	ldrge	r0, [r7], #-0
    1e8c:	01000006 	tsteq	r0, r6
    1e90:	002c015c 	eoreq	r0, ip, ip, asr r1
    1e94:	19540000 	ldmdbne	r4, {}^	; <UNPREDICTABLE>
    1e98:	f4180000 			; <UNDEFINED> instruction: 0xf4180000
    1e9c:	1c000091 	stcne	0, cr0, [r0], {145}	; 0x91
    1ea0:	37000000 	strcc	r0, [r0, -r0]
    1ea4:	17000005 	strne	r0, [r0, -r5]
    1ea8:	0000072d 	andeq	r0, r0, sp, lsr #14
    1eac:	2c015301 	stccs	3, cr5, [r1], {1}
    1eb0:	72000000 	andvc	r0, r0, #0
    1eb4:	11000019 	tstne	r0, r9, lsl r0
    1eb8:	00009200 	andeq	r9, r0, r0, lsl #4
    1ebc:	00000841 	andeq	r0, r0, r1, asr #16
    1ec0:	00921011 	addseq	r1, r2, r1, lsl r0
    1ec4:	00086200 	andeq	r6, r8, r0, lsl #4
    1ec8:	14180000 	ldrne	r0, [r8], #-0
    1ecc:	20000092 	mulcs	r0, r2, r0
    1ed0:	67000000 	strvs	r0, [r0, -r0]
    1ed4:	17000005 	strne	r0, [r0, -r5]
    1ed8:	0000072d 	andeq	r0, r0, sp, lsr #14
    1edc:	2c015701 	stccs	7, cr5, [r1], {1}
    1ee0:	90000000 	andls	r0, r0, r0
    1ee4:	11000019 	tstne	r0, r9, lsl r0
    1ee8:	00009220 	andeq	r9, r0, r0, lsr #4
    1eec:	00000841 	andeq	r0, r0, r1, asr #16
    1ef0:	00923411 	addseq	r3, r2, r1, lsl r4
    1ef4:	00086200 	andeq	r6, r8, r0, lsl #4
    1ef8:	ec110000 	ldc	0, cr0, [r1], {-0}
    1efc:	7e000091 	mcrvc	0, 0, r0, cr0, cr1, {4}
    1f00:	11000008 	tstne	r0, r8
    1f04:	00009238 	andeq	r9, r0, r8, lsr r2
    1f08:	0000087e 	andeq	r0, r0, lr, ror r8
    1f0c:	00924411 	addseq	r4, r2, r1, lsl r4
    1f10:	00084100 	andeq	r4, r8, r0, lsl #2
    1f14:	92501100 	subsls	r1, r0, #0, 2
    1f18:	08620000 	stmdaeq	r2!, {}^	; <UNPREDICTABLE>
    1f1c:	54110000 	ldrpl	r0, [r1], #-0
    1f20:	7e000092 	mcrvc	0, 0, r0, cr0, cr2, {4}
    1f24:	00000008 	andeq	r0, r0, r8
    1f28:	00064513 	andeq	r4, r6, r3, lsl r5
    1f2c:	01660100 	cmneq	r6, r0, lsl #2
    1f30:	00000064 	andeq	r0, r0, r4, rrx
    1f34:	0000925c 	andeq	r9, r0, ip, asr r2
    1f38:	00000084 	andeq	r0, r0, r4, lsl #1
    1f3c:	063b9c01 	ldrteq	r9, [fp], -r1, lsl #24
    1f40:	70160000 	andsvc	r0, r6, r0
    1f44:	01006e69 	tsteq	r0, r9, ror #28
    1f48:	002c0166 	eoreq	r0, ip, r6, ror #2
    1f4c:	19ae0000 	stmibne	lr!, {}	; <UNPREDICTABLE>
    1f50:	78180000 	ldmdavc	r8, {}	; <UNPREDICTABLE>
    1f54:	24000092 	strcs	r0, [r0], #-146	; 0x92
    1f58:	ef000000 	svc	0x00000000
    1f5c:	17000005 	strne	r0, [r0, -r5]
    1f60:	000006ad 	andeq	r0, r0, sp, lsr #13
    1f64:	2c016d01 	stccs	13, cr6, [r1], {1}
    1f68:	f0000000 			; <UNDEFINED> instruction: 0xf0000000
    1f6c:	11000019 	tstne	r0, r9, lsl r0
    1f70:	00009284 	andeq	r9, r0, r4, lsl #5
    1f74:	00000841 	andeq	r0, r0, r1, asr #16
    1f78:	00929411 	addseq	r9, r2, r1, lsl r4
    1f7c:	00087e00 	andeq	r7, r8, r0, lsl #28
    1f80:	9c180000 	ldcls	0, cr0, [r8], {-0}
    1f84:	2c000092 	stccs	0, cr0, [r0], {146}	; 0x92
    1f88:	28000000 	stmdacs	r0, {}	; <UNPREDICTABLE>
    1f8c:	17000006 	strne	r0, [r0, -r6]
    1f90:	000006ad 	andeq	r0, r0, sp, lsr #13
    1f94:	2c017001 	stccs	0, cr7, [r1], {1}
    1f98:	0a000000 	beq	1fa0 <_start-0x6060>
    1f9c:	1100001a 	tstne	r0, sl, lsl r0
    1fa0:	000092a8 	andeq	r9, r0, r8, lsr #5
    1fa4:	00000841 	andeq	r0, r0, r1, asr #16
    1fa8:	0092b411 	addseq	fp, r2, r1, lsl r4
    1fac:	00087e00 	andeq	r7, r8, r0, lsl #28
    1fb0:	92c01100 	sbcls	r1, r0, #0, 2
    1fb4:	087e0000 	ldmdaeq	lr!, {}^	; <UNPREDICTABLE>
    1fb8:	11000000 	mrsne	r0, (UNDEF: 0)
    1fbc:	00009270 	andeq	r9, r0, r0, ror r2
    1fc0:	0000087e 	andeq	r0, r0, lr, ror r8
    1fc4:	0092cc11 	addseq	ip, r2, r1, lsl ip
    1fc8:	00087e00 	andeq	r7, r8, r0, lsl #28
    1fcc:	00150000 	andseq	r0, r5, r0
    1fd0:	01000007 	tsteq	r0, r7
    1fd4:	92e00179 	rscls	r0, r0, #1073741854	; 0x4000001e
    1fd8:	00580000 	subseq	r0, r8, r0
    1fdc:	9c010000 	stcls	0, cr0, [r1], {-0}
    1fe0:	000006a0 	andeq	r0, r0, r0, lsr #13
    1fe4:	6e697016 	mcrvs	0, 3, r7, cr9, cr6, {0}
    1fe8:	01790100 	cmneq	r9, r0, lsl #2
    1fec:	0000002c 	andeq	r0, r0, ip, lsr #32
    1ff0:	00001a1d 	andeq	r1, r0, sp, lsl sl
    1ff4:	0092f411 	addseq	pc, r2, r1, lsl r4	; <UNPREDICTABLE>
    1ff8:	00087e00 	andeq	r7, r8, r0, lsl #28
    1ffc:	93100a00 	tstls	r0, #0, 20
    2000:	08620000 	stmdaeq	r2!, {}^	; <UNPREDICTABLE>
    2004:	06800000 	streq	r0, [r0], r0
    2008:	010b0000 	mrseq	r0, (UNDEF: 11)
    200c:	74310451 	ldrtvc	r0, [r1], #-1105	; 0x451
    2010:	0a002400 	beq	b018 <__bss_end__+0xc80>
    2014:	0000932c 	andeq	r9, r0, ip, lsr #6
    2018:	00000862 	andeq	r0, r0, r2, ror #16
    201c:	00000696 	muleq	r0, r6, r6
    2020:	0451010b 	ldrbeq	r0, [r1], #-267	; 0x10b
    2024:	24007431 	strcs	r7, [r0], #-1073	; 0x431
    2028:	93301100 	teqls	r0, #0, 2
    202c:	087e0000 	ldmdaeq	lr!, {}^	; <UNPREDICTABLE>
    2030:	19000000 	stmdbne	r0, {}	; <UNPREDICTABLE>
    2034:	00000152 	andeq	r0, r0, r2, asr r1
    2038:	01332801 	teqeq	r3, r1, lsl #16
    203c:	03050000 	movweq	r0, #20480	; 0x5000
    2040:	00009c2c 	andeq	r9, r0, ip, lsr #24
    2044:	00022419 	andeq	r2, r2, r9, lsl r4
    2048:	33290100 	teqcc	r9, #0, 2
    204c:	05000001 	streq	r0, [r0, #-1]
    2050:	009c2803 	addseq	r2, ip, r3, lsl #16
    2054:	02821900 	addeq	r1, r2, #0, 18
    2058:	2a010000 	bcs	42060 <__bss_end__+0x37cc8>
    205c:	00000133 	andeq	r0, r0, r3, lsr r1
    2060:	9c240305 	stcls	3, cr0, [r4], #-20	; 0xffffffec
    2064:	e2190000 	ands	r0, r9, #0
    2068:	01000000 	mrseq	r0, (UNDEF: 0)
    206c:	0001332c 	andeq	r3, r1, ip, lsr #6
    2070:	d0030500 	andle	r0, r3, r0, lsl #10
    2074:	1900009b 	stmdbne	r0, {r0, r1, r3, r4, r7}
    2078:	000000ea 	andeq	r0, r0, sl, ror #1
    207c:	01332d01 	teqeq	r3, r1, lsl #26
    2080:	03050000 	movweq	r0, #20480	; 0x5000
    2084:	00009bd4 	ldrdeq	r9, [r0], -r4
    2088:	00000019 	andeq	r0, r0, r9, lsl r0
    208c:	332e0100 	teqcc	lr, #0, 2
    2090:	05000001 	streq	r0, [r0, #-1]
    2094:	009bd803 	addseq	sp, fp, r3, lsl #16
    2098:	00f21900 	rscseq	r1, r2, r0, lsl #18
    209c:	2f010000 	svccs	0x00010000
    20a0:	00000133 	andeq	r0, r0, r3, lsr r1
    20a4:	9bdc0305 	blls	ff702cc0 <__bss_end__+0xff6f8928>
    20a8:	fa190000 	blx	6420b0 <__bss_end__+0x637d18>
    20ac:	01000000 	mrseq	r0, (UNDEF: 0)
    20b0:	00013330 	andeq	r3, r1, r0, lsr r3
    20b4:	e0030500 	and	r0, r3, r0, lsl #10
    20b8:	1900009b 	stmdbne	r0, {r0, r1, r3, r4, r7}
    20bc:	00000102 	andeq	r0, r0, r2, lsl #2
    20c0:	01333101 	teqeq	r3, r1, lsl #2
    20c4:	03050000 	movweq	r0, #20480	; 0x5000
    20c8:	00009be4 	andeq	r9, r0, r4, ror #23
    20cc:	00005619 	andeq	r5, r0, r9, lsl r6
    20d0:	33330100 	teqcc	r3, #0, 2
    20d4:	05000001 	streq	r0, [r0, #-1]
    20d8:	009be803 	addseq	lr, fp, r3, lsl #16
    20dc:	005d1900 	subseq	r1, sp, r0, lsl #18
    20e0:	34010000 	strcc	r0, [r1], #-0
    20e4:	00000133 	andeq	r0, r0, r3, lsr r1
    20e8:	9bec0305 	blls	ffb02d04 <__bss_end__+0xffaf896c>
    20ec:	08190000 	ldmdaeq	r9, {}	; <UNPREDICTABLE>
    20f0:	01000000 	mrseq	r0, (UNDEF: 0)
    20f4:	00013336 	andeq	r3, r1, r6, lsr r3
    20f8:	f0030500 			; <UNDEFINED> instruction: 0xf0030500
    20fc:	1900009b 	stmdbne	r0, {r0, r1, r3, r4, r7}
    2100:	0000015d 	andeq	r0, r0, sp, asr r1
    2104:	01333701 	teqeq	r3, r1, lsl #14
    2108:	03050000 	movweq	r0, #20480	; 0x5000
    210c:	00009bf4 	strdeq	r9, [r0], -r4
    2110:	00006419 	andeq	r6, r0, r9, lsl r4
    2114:	33390100 	teqcc	r9, #0, 2
    2118:	05000001 	streq	r0, [r0, #-1]
    211c:	009bf803 	addseq	pc, fp, r3, lsl #16
    2120:	006b1900 	rsbeq	r1, fp, r0, lsl #18
    2124:	3a010000 	bcc	4212c <__bss_end__+0x37d94>
    2128:	00000133 	andeq	r0, r0, r3, lsr r1
    212c:	9bfc0305 	blls	fff02d48 <__bss_end__+0xffef89b0>
    2130:	111a0000 	tstne	sl, r0
    2134:	01000007 	tsteq	r0, r7
    2138:	0133010a 	teqeq	r3, sl, lsl #2
    213c:	03050000 	movweq	r0, #20480	; 0x5000
    2140:	00009c20 	andeq	r9, r0, r0, lsr #24
    2144:	00071f1a 	andeq	r1, r7, sl, lsl pc
    2148:	010b0100 	mrseq	r0, (UNDEF: 27)
    214c:	00000133 	andeq	r0, r0, r3, lsr r1
    2150:	9c000305 	stcls	3, cr0, [r0], {5}
    2154:	511a0000 	tstpl	sl, r0
    2158:	01000007 	tsteq	r0, r7
    215c:	0133010d 	teqeq	r3, sp, lsl #2
    2160:	03050000 	movweq	r0, #20480	; 0x5000
    2164:	00009c18 	andeq	r9, r0, r8, lsl ip
    2168:	0007581a 	andeq	r5, r7, sl, lsl r8
    216c:	010e0100 	mrseq	r0, (UNDEF: 30)
    2170:	00000133 	andeq	r0, r0, r3, lsr r1
    2174:	9c1c0305 	ldcls	3, cr0, [ip], {5}
    2178:	f21a0000 	vhadd.s16	d0, d10, d0
    217c:	01000006 	tsteq	r0, r6
    2180:	01330110 	teqeq	r3, r0, lsl r1
    2184:	03050000 	movweq	r0, #20480	; 0x5000
    2188:	00009c04 	andeq	r9, r0, r4, lsl #24
    218c:	0006f91a 	andeq	pc, r6, sl, lsl r9	; <UNPREDICTABLE>
    2190:	01110100 	tsteq	r1, r0, lsl #2
    2194:	00000133 	andeq	r0, r0, r3, lsr r1
    2198:	9c080305 	stcls	3, cr0, [r8], {5}
    219c:	6b1a0000 	blvs	6821a4 <__bss_end__+0x677e0c>
    21a0:	01000007 	tsteq	r0, r7
    21a4:	01330113 	teqeq	r3, r3, lsl r1
    21a8:	03050000 	movweq	r0, #20480	; 0x5000
    21ac:	00009c10 	andeq	r9, r0, r0, lsl ip
    21b0:	0007721a 	andeq	r7, r7, sl, lsl r2
    21b4:	01140100 	tsteq	r4, r0, lsl #2
    21b8:	00000133 	andeq	r0, r0, r3, lsr r1
    21bc:	9c140305 	ldcls	3, cr0, [r4], {5}
    21c0:	5f1a0000 	svcpl	0x001a0000
    21c4:	01000006 	tsteq	r0, r6
    21c8:	01330116 	teqeq	r3, r6, lsl r1
    21cc:	03050000 	movweq	r0, #20480	; 0x5000
    21d0:	00009c0c 	andeq	r9, r0, ip, lsl #24
    21d4:	00079a1b 	andeq	r9, r7, fp, lsl sl
    21d8:	2c200100 	stfcss	f0, [r0], #-0
    21dc:	56000000 	strpl	r0, [r0], -r0
    21e0:	1c000008 	stcne	0, cr0, [r0], {8}
    21e4:	00000856 	andeq	r0, r0, r6, asr r8
    21e8:	5c040d00 	stcpl	13, cr0, [r4], {-0}
    21ec:	1d000008 	stcne	0, cr0, [r0, #-32]	; 0xffffffe0
    21f0:	00000861 	andeq	r0, r0, r1, ror #16
    21f4:	06591f1e 	uadd16eq	r1, r9, lr
    21f8:	1e010000 	cdpne	0, 0, cr0, cr1, cr0, {0}
    21fc:	00000878 	andeq	r0, r0, r8, ror r8
    2200:	0008781c 	andeq	r7, r8, ip, lsl r8
    2204:	002c1c00 	eoreq	r1, ip, r0, lsl #24
    2208:	0d000000 	stceq	0, cr0, [r0, #-0]
    220c:	00086104 	andeq	r6, r8, r4, lsl #2
    2210:	06bf2000 	ldrteq	r2, [pc], r0
    2214:	8a030000 	bhi	c221c <__bss_end__+0xb7e84>
    2218:	0011f200 	andseq	pc, r1, r0, lsl #4
    221c:	3b000400 	blcc	3224 <_start-0x4ddc>
    2220:	0400000d 	streq	r0, [r0], #-13
    2224:	0002b101 	andeq	fp, r2, r1, lsl #2
    2228:	08bc0100 	ldmeq	ip!, {r8}
    222c:	031c0000 	tsteq	ip, #0
    2230:	93380000 	teqls	r8, #0
    2234:	06680000 	strbteq	r0, [r8], -r0
    2238:	0ace0000 	beq	ff382240 <__bss_end__+0xff377ea8>
    223c:	04020000 	streq	r0, [r2], #-0
    2240:	746e6905 	strbtvc	r6, [lr], #-2309	; 0x905
    2244:	07040300 	streq	r0, [r4, -r0, lsl #6]
    2248:	00000033 	andeq	r0, r0, r3, lsr r0
    224c:	95060103 	strls	r0, [r6, #-259]	; 0x103
    2250:	03000001 	movweq	r0, #1
    2254:	01a10502 			; <UNDEFINED> instruction: 0x01a10502
    2258:	04030000 	streq	r0, [r3], #-0
    225c:	00004505 	andeq	r4, r0, r5, lsl #10
    2260:	05080300 	streq	r0, [r8, #-768]	; 0x300
    2264:	00000040 	andeq	r0, r0, r0, asr #32
    2268:	00050d04 	andeq	r0, r5, r4, lsl #26
    226c:	5a2e0300 	bpl	b82e74 <__bss_end__+0xb78adc>
    2270:	03000000 	movweq	r0, #0
    2274:	01930801 	orrseq	r0, r3, r1, lsl #16
    2278:	02030000 	andeq	r0, r3, #0
    227c:	00012707 	andeq	r2, r1, r7, lsl #14
    2280:	05640400 	strbeq	r0, [r4, #-1024]!	; 0x400
    2284:	34030000 	strcc	r0, [r3], #-0
    2288:	00000073 	andeq	r0, r0, r3, ror r0
    228c:	2e070403 	cdpcs	4, 0, cr0, cr7, cr3, {0}
    2290:	03000000 	movweq	r0, #0
    2294:	00290708 	eoreq	r0, r9, r8, lsl #14
    2298:	04030000 	streq	r0, [r3], #-0
    229c:	00017107 	andeq	r7, r1, r7, lsl #2
    22a0:	06040500 	streq	r0, [r4], -r0, lsl #10
    22a4:	00009004 	andeq	r9, r0, r4
    22a8:	08010300 	stmdaeq	r1, {r8, r9}
    22ac:	0000019c 	muleq	r0, ip, r1
    22b0:	009d0406 	addseq	r0, sp, r6, lsl #8
    22b4:	90070000 	andls	r0, r7, r0
    22b8:	08000000 	stmdaeq	r0, {}	; <UNPREDICTABLE>
    22bc:	d90e040c 	stmdble	lr, {r2, r3, sl}
    22c0:	09000000 	stmdbeq	r0, {}	; <UNPREDICTABLE>
    22c4:	04007874 	streq	r7, [r0], #-2164	; 0x874
    22c8:	00004f0f 	andeq	r4, r0, pc, lsl #30
    22cc:	72090000 	andvc	r0, r9, #0
    22d0:	0f040078 	svceq	0x00040078
    22d4:	0000004f 	andeq	r0, r0, pc, asr #32
    22d8:	04db0a01 	ldrbeq	r0, [fp], #2561	; 0xa01
    22dc:	10040000 	andne	r0, r4, r0
    22e0:	00000068 	andeq	r0, r0, r8, rrx
    22e4:	048c0a04 	streq	r0, [ip], #2564	; 0xa04
    22e8:	11040000 	mrsne	r0, (UNDEF: 4)
    22ec:	00000068 	andeq	r0, r0, r8, rrx
    22f0:	c4040008 	strgt	r0, [r4], #-8
    22f4:	04000004 	streq	r0, [r0], #-4
    22f8:	0000a212 	andeq	sl, r0, r2, lsl r2
    22fc:	02940400 	addseq	r0, r4, #0, 8
    2300:	28050000 	stmdacs	r5, {}	; <UNPREDICTABLE>
    2304:	000000ef 	andeq	r0, r0, pc, ror #1
    2308:	0003120b 	andeq	r1, r3, fp, lsl #4
    230c:	00090400 	andeq	r0, r9, r0, lsl #8
    2310:	00000106 	andeq	r0, r0, r6, lsl #2
    2314:	0003650c 	andeq	r6, r3, ip, lsl #10
    2318:	00008800 	andeq	r8, r0, r0, lsl #16
    231c:	04000000 	streq	r0, [r0], #-0
    2320:	00000314 	andeq	r0, r0, r4, lsl r3
    2324:	00e46205 	rsceq	r6, r4, r5, lsl #4
    2328:	800d0000 	andhi	r0, sp, r0
    232c:	02000008 	andeq	r0, r0, #8
    2330:	013f0309 	teqeq	pc, r9, lsl #6
    2334:	ef0e0000 	svc	0x000e0000
    2338:	02000004 	andeq	r0, r0, #4
    233c:	00002c09 	andeq	r2, r0, r9, lsl #24
    2340:	006e0f00 	rsbeq	r0, lr, r0, lsl #30
    2344:	002c0902 	eoreq	r0, ip, r2, lsl #18
    2348:	11100000 	tstne	r0, r0
    234c:	00000189 	andeq	r0, r0, r9, lsl #3
    2350:	002c0c02 	eoreq	r0, ip, r2, lsl #24
    2354:	00000000 	andeq	r0, r0, r0
    2358:	0008330d 	andeq	r3, r8, sp, lsl #6
    235c:	03170200 	tsteq	r7, #0, 4
    2360:	00000176 	andeq	r0, r0, r6, ror r1
    2364:	6e69700f 	cdpvs	0, 6, cr7, cr9, cr15, {0}
    2368:	2c170200 	lfmcs	f0, 4, [r7], {-0}
    236c:	0f000000 	svceq	0x00000000
    2370:	17020076 	smlsdxne	r2, r6, r0, r0
    2374:	0000002c 	andeq	r0, r0, ip, lsr #32
    2378:	0004ef0e 	andeq	lr, r4, lr, lsl #30
    237c:	2c170200 	lfmcs	f0, 4, [r7], {-0}
    2380:	0e000000 	cdpeq	0, 0, cr0, cr0, cr0, {0}
    2384:	00000886 	andeq	r0, r0, r6, lsl #17
    2388:	002c1702 	eoreq	r1, ip, r2, lsl #14
    238c:	12000000 	andne	r0, r0, #0
    2390:	00000500 	andeq	r0, r0, r0, lsl #10
    2394:	93380901 	teqls	r8, #16384	; 0x4000
    2398:	01540000 	cmpeq	r4, r0
    239c:	9c010000 	stcls	0, cr0, [r1], {-0}
    23a0:	00000722 	andeq	r0, r0, r2, lsr #14
    23a4:	0004a213 	andeq	sl, r4, r3, lsl r2
    23a8:	22090100 	andcs	r0, r9, #0, 2
    23ac:	49000007 	stmdbmi	r0, {r0, r1, r2}
    23b0:	1400001a 	strne	r0, [r0], #-26
    23b4:	09010063 	stmdbeq	r1, {r0, r1, r5, r6}
    23b8:	0000005a 	andeq	r0, r0, sl, asr r0
    23bc:	00001a6a 	andeq	r1, r0, sl, ror #20
    23c0:	00787415 	rsbseq	r7, r8, r5, lsl r4
    23c4:	00250b01 	eoreq	r0, r5, r1, lsl #22
    23c8:	76060000 	strvc	r0, [r6], -r0
    23cc:	1aff0800 	bne	fffc43d4 <__bss_end__+0xfffba03c>
    23d0:	006e169f 	mlseq	lr, pc, r6, r1	; <UNPREDICTABLE>
    23d4:	00680c01 	rsbeq	r0, r8, r1, lsl #24
    23d8:	1a8b0000 	bne	fe2c23e0 <__bss_end__+0xfe2b8048>
    23dc:	75160000 	ldrvc	r0, [r6, #-0]
    23e0:	680d0100 	stmdavs	sp, {r8}
    23e4:	9e000000 	cdpls	0, 0, cr0, cr0, cr0, {0}
    23e8:	1500001a 	strne	r0, [r0, #-26]
    23ec:	0e010073 	mcreq	0, 0, r0, cr1, cr3, {3}
    23f0:	00000068 	andeq	r0, r0, r8, rrx
    23f4:	48175401 	ldmdami	r7, {r0, sl, ip, lr}
    23f8:	04000093 	streq	r0, [r0], #-147	; 0x93
    23fc:	f8000000 			; <UNDEFINED> instruction: 0xf8000000
    2400:	18000001 	stmdane	r0, {r0}
    2404:	00000189 	andeq	r0, r0, r9, lsl #3
    2408:	002c0e01 	eoreq	r0, ip, r1, lsl #28
    240c:	54010000 	strpl	r0, [r1], #-0
    2410:	013f1900 	teqeq	pc, r0, lsl #18
    2414:	934c0000 	movtls	r0, #49152	; 0xc000
    2418:	001c0000 	andseq	r0, ip, r0
    241c:	11010000 	mrsne	r0, (UNDEF: 1)
    2420:	00000275 	andeq	r0, r0, r5, ror r2
    2424:	00016a1a 	andeq	r6, r1, sl, lsl sl
    2428:	001ac700 	andseq	ip, sl, r0, lsl #14
    242c:	015f1b00 	cmpeq	pc, r0, lsl #22
    2430:	54010000 	strpl	r0, [r1], #-0
    2434:	0001561c 	andeq	r5, r1, ip, lsl r6
    2438:	4b1b0000 	blmi	6c2440 <__bss_end__+0x6b80a8>
    243c:	01000001 	tsteq	r0, r1
    2440:	01111956 	tsteq	r1, r6, asr r9
    2444:	93580000 	cmpls	r8, #0
    2448:	00100000 	andseq	r0, r0, r0
    244c:	1a020000 	bne	82454 <__bss_end__+0x780bc>
    2450:	0000025f 	andeq	r0, r0, pc, asr r2
    2454:	0001281a 	andeq	r2, r1, sl, lsl r8
    2458:	001ada00 	andseq	sp, sl, r0, lsl #20
    245c:	011d1b00 	tsteq	sp, r0, lsl #22
    2460:	54010000 	strpl	r0, [r1], #-0
    2464:	0093581d 	addseq	r5, r3, sp, lsl r8
    2468:	00000400 	andeq	r0, r0, r0, lsl #8
    246c:	01321e00 	teqeq	r2, r0, lsl #28
    2470:	1aed0000 	bne	ffb42478 <__bss_end__+0xffb380e0>
    2474:	00000000 	andeq	r0, r0, r0
    2478:	0093581f 	addseq	r5, r3, pc, lsl r8
    247c:	00115900 	andseq	r5, r1, r0, lsl #18
    2480:	51012000 	mrspl	r2, (UNDEF: 1)
    2484:	01203001 	teqeq	r0, r1
    2488:	00760250 	rsbseq	r0, r6, r0, asr r2
    248c:	3f190000 	svccc	0x00190000
    2490:	6c000001 	stcvs	0, cr0, [r0], {1}
    2494:	1c000093 	stcne	0, cr0, [r0], {147}	; 0x93
    2498:	01000000 	mrseq	r0, (UNDEF: 0)
    249c:	0002f813 	andeq	pc, r2, r3, lsl r8	; <UNPREDICTABLE>
    24a0:	016a1a00 	cmneq	sl, r0, lsl #20
    24a4:	1b000000 	blne	24ac <_start-0x5b54>
    24a8:	5f1b0000 	svcpl	0x001b0000
    24ac:	01000001 	tsteq	r0, r1
    24b0:	01561a54 	cmpeq	r6, r4, asr sl
    24b4:	1b220000 	blne	8824bc <__bss_end__+0x878124>
    24b8:	4b1b0000 	blmi	6c24c0 <__bss_end__+0x6b8128>
    24bc:	01000001 	tsteq	r0, r1
    24c0:	01111956 	tsteq	r1, r6, asr r9
    24c4:	93780000 	cmnls	r8, #0
    24c8:	00100000 	andseq	r0, r0, r0
    24cc:	1a020000 	bne	824d4 <__bss_end__+0x7813c>
    24d0:	000002df 	ldrdeq	r0, [r0], -pc	; <UNPREDICTABLE>
    24d4:	0001281a 	andeq	r2, r1, sl, lsl r8
    24d8:	001b5300 	andseq	r5, fp, r0, lsl #6
    24dc:	011d1b00 	tsteq	sp, r0, lsl #22
    24e0:	54010000 	strpl	r0, [r1], #-0
    24e4:	0093781d 	addseq	r7, r3, sp, lsl r8
    24e8:	00000400 	andeq	r0, r0, r0, lsl #8
    24ec:	01321e00 	teqeq	r2, r0, lsl #28
    24f0:	1b750000 	blne	1d424f8 <__bss_end__+0x1d38160>
    24f4:	00000000 	andeq	r0, r0, r0
    24f8:	0093781f 	addseq	r7, r3, pc, lsl r8
    24fc:	00115900 	andseq	r5, r1, r0, lsl #18
    2500:	51012000 	mrspl	r2, (UNDEF: 1)
    2504:	31007704 	tstcc	r0, r4, lsl #14
    2508:	5001201a 	andpl	r2, r1, sl, lsl r0
    250c:	00007602 	andeq	r7, r0, r2, lsl #12
    2510:	013f1900 	teqeq	pc, r0, lsl #18
    2514:	938c0000 	orrls	r0, ip, #0
    2518:	001c0000 	andseq	r0, ip, r0
    251c:	15010000 	strne	r0, [r1, #-0]
    2520:	00000380 	andeq	r0, r0, r0, lsl #7
    2524:	00016a1a 	andeq	r6, r1, sl, lsl sl
    2528:	001b8800 	andseq	r8, fp, r0, lsl #16
    252c:	015f1b00 	cmpeq	pc, r0, lsl #22
    2530:	54010000 	strpl	r0, [r1], #-0
    2534:	0001561b 	andeq	r5, r1, fp, lsl r6
    2538:	00770800 	rsbseq	r0, r7, r0, lsl #16
    253c:	ff081a32 			; <UNDEFINED> instruction: 0xff081a32
    2540:	4b1b9f1a 	blmi	6ea1b0 <__bss_end__+0x6dfe18>
    2544:	01000001 	tsteq	r0, r1
    2548:	01111956 	tsteq	r1, r6, asr r9
    254c:	93980000 	orrsls	r0, r8, #0
    2550:	00100000 	andseq	r0, r0, r0
    2554:	1a020000 	bne	8255c <__bss_end__+0x781c4>
    2558:	00000367 	andeq	r0, r0, r7, ror #6
    255c:	0001281a 	andeq	r2, r1, sl, lsl r8
    2560:	001bad00 	andseq	sl, fp, r0, lsl #26
    2564:	011d1b00 	tsteq	sp, r0, lsl #22
    2568:	54010000 	strpl	r0, [r1], #-0
    256c:	0093981d 	addseq	r9, r3, sp, lsl r8
    2570:	00000400 	andeq	r0, r0, r0, lsl #8
    2574:	01321e00 	teqeq	r2, r0, lsl #28
    2578:	1bd20000 	blne	ff482580 <__bss_end__+0xff4781e8>
    257c:	00000000 	andeq	r0, r0, r0
    2580:	0093981f 	addseq	r9, r3, pc, lsl r8
    2584:	00115900 	andseq	r5, r1, r0, lsl #18
    2588:	51012000 	mrspl	r2, (UNDEF: 1)
    258c:	32007704 	andcc	r7, r0, #4, 14	; 0x100000
    2590:	5001201a 	andpl	r2, r1, sl, lsl r0
    2594:	00007602 	andeq	r7, r0, r2, lsl #12
    2598:	013f1900 	teqeq	pc, r0, lsl #18
    259c:	93ac0000 			; <UNDEFINED> instruction: 0x93ac0000
    25a0:	001c0000 	andseq	r0, ip, r0
    25a4:	17010000 	strne	r0, [r1, -r0]
    25a8:	00000408 	andeq	r0, r0, r8, lsl #8
    25ac:	00016a1a 	andeq	r6, r1, sl, lsl sl
    25b0:	001be500 	andseq	lr, fp, r0, lsl #10
    25b4:	015f1b00 	cmpeq	pc, r0, lsl #22
    25b8:	54010000 	strpl	r0, [r1], #-0
    25bc:	0001561b 	andeq	r5, r1, fp, lsl r6
    25c0:	00770800 	rsbseq	r0, r7, r0, lsl #16
    25c4:	ff081a34 			; <UNDEFINED> instruction: 0xff081a34
    25c8:	4b1b9f1a 	blmi	6ea238 <__bss_end__+0x6dfea0>
    25cc:	01000001 	tsteq	r0, r1
    25d0:	01111956 	tsteq	r1, r6, asr r9
    25d4:	93b80000 			; <UNDEFINED> instruction: 0x93b80000
    25d8:	00100000 	andseq	r0, r0, r0
    25dc:	1a020000 	bne	825e4 <__bss_end__+0x7824c>
    25e0:	000003ef 	andeq	r0, r0, pc, ror #7
    25e4:	0001281a 	andeq	r2, r1, sl, lsl r8
    25e8:	001c0700 	andseq	r0, ip, r0, lsl #14
    25ec:	011d1b00 	tsteq	sp, r0, lsl #22
    25f0:	54010000 	strpl	r0, [r1], #-0
    25f4:	0093b81d 	addseq	fp, r3, sp, lsl r8
    25f8:	00000400 	andeq	r0, r0, r0, lsl #8
    25fc:	01321e00 	teqeq	r2, r0, lsl #28
    2600:	1c290000 	stcne	0, cr0, [r9], #-0
    2604:	00000000 	andeq	r0, r0, r0
    2608:	0093b81f 	addseq	fp, r3, pc, lsl r8
    260c:	00115900 	andseq	r5, r1, r0, lsl #18
    2610:	51012000 	mrspl	r2, (UNDEF: 1)
    2614:	34007704 	strcc	r7, [r0], #-1796	; 0x704
    2618:	5001201a 	andpl	r2, r1, sl, lsl r0
    261c:	00007602 	andeq	r7, r0, r2, lsl #12
    2620:	013f1900 	teqeq	pc, r0, lsl #18
    2624:	93cc0000 	bicls	r0, ip, #0
    2628:	001c0000 	andseq	r0, ip, r0
    262c:	19010000 	stmdbne	r1, {}	; <UNPREDICTABLE>
    2630:	00000490 	muleq	r0, r0, r4
    2634:	00016a1a 	andeq	r6, r1, sl, lsl sl
    2638:	001c3c00 	andseq	r3, ip, r0, lsl #24
    263c:	015f1b00 	cmpeq	pc, r0, lsl #22
    2640:	54010000 	strpl	r0, [r1], #-0
    2644:	0001561b 	andeq	r5, r1, fp, lsl r6
    2648:	00770800 	rsbseq	r0, r7, r0, lsl #16
    264c:	ff081a38 			; <UNDEFINED> instruction: 0xff081a38
    2650:	4b1b9f1a 	blmi	6ea2c0 <__bss_end__+0x6dff28>
    2654:	01000001 	tsteq	r0, r1
    2658:	01111956 	tsteq	r1, r6, asr r9
    265c:	93d80000 	bicsls	r0, r8, #0
    2660:	00100000 	andseq	r0, r0, r0
    2664:	1a020000 	bne	8266c <__bss_end__+0x782d4>
    2668:	00000477 	andeq	r0, r0, r7, ror r4
    266c:	0001281a 	andeq	r2, r1, sl, lsl r8
    2670:	001c6100 	andseq	r6, ip, r0, lsl #2
    2674:	011d1b00 	tsteq	sp, r0, lsl #22
    2678:	54010000 	strpl	r0, [r1], #-0
    267c:	0093d81d 	addseq	sp, r3, sp, lsl r8
    2680:	00000400 	andeq	r0, r0, r0, lsl #8
    2684:	01321e00 	teqeq	r2, r0, lsl #28
    2688:	1c860000 	stcne	0, cr0, [r6], {0}
    268c:	00000000 	andeq	r0, r0, r0
    2690:	0093d81f 	addseq	sp, r3, pc, lsl r8
    2694:	00115900 	andseq	r5, r1, r0, lsl #18
    2698:	51012000 	mrspl	r2, (UNDEF: 1)
    269c:	38007704 	stmdacc	r0, {r2, r8, r9, sl, ip, sp, lr}
    26a0:	5001201a 	andpl	r2, r1, sl, lsl r0
    26a4:	00007602 	andeq	r7, r0, r2, lsl #12
    26a8:	013f1900 	teqeq	pc, r0, lsl #18
    26ac:	93ec0000 	mvnls	r0, #0
    26b0:	001c0000 	andseq	r0, ip, r0
    26b4:	1b010000 	blne	426bc <__bss_end__+0x38324>
    26b8:	00000518 	andeq	r0, r0, r8, lsl r5
    26bc:	00016a1a 	andeq	r6, r1, sl, lsl sl
    26c0:	001c9900 	andseq	r9, ip, r0, lsl #18
    26c4:	015f1b00 	cmpeq	pc, r0, lsl #22
    26c8:	54010000 	strpl	r0, [r1], #-0
    26cc:	0001561b 	andeq	r5, r1, fp, lsl r6
    26d0:	00770800 	rsbseq	r0, r7, r0, lsl #16
    26d4:	ff081a40 			; <UNDEFINED> instruction: 0xff081a40
    26d8:	4b1b9f1a 	blmi	6ea348 <__bss_end__+0x6dffb0>
    26dc:	01000001 	tsteq	r0, r1
    26e0:	01111956 	tsteq	r1, r6, asr r9
    26e4:	93f80000 	mvnsls	r0, #0
    26e8:	00100000 	andseq	r0, r0, r0
    26ec:	1a020000 	bne	826f4 <__bss_end__+0x7835c>
    26f0:	000004ff 	strdeq	r0, [r0], -pc	; <UNPREDICTABLE>
    26f4:	0001281a 	andeq	r2, r1, sl, lsl r8
    26f8:	001cc000 	andseq	ip, ip, r0
    26fc:	011d1b00 	tsteq	sp, r0, lsl #22
    2700:	54010000 	strpl	r0, [r1], #-0
    2704:	0093f81d 	addseq	pc, r3, sp, lsl r8	; <UNPREDICTABLE>
    2708:	00000400 	andeq	r0, r0, r0, lsl #8
    270c:	01321e00 	teqeq	r2, r0, lsl #28
    2710:	1ce70000 	stclne	0, cr0, [r7]
    2714:	00000000 	andeq	r0, r0, r0
    2718:	0093f81f 	addseq	pc, r3, pc, lsl r8	; <UNPREDICTABLE>
    271c:	00115900 	andseq	r5, r1, r0, lsl #18
    2720:	51012000 	mrspl	r2, (UNDEF: 1)
    2724:	40007704 	andmi	r7, r0, r4, lsl #14
    2728:	5001201a 	andpl	r2, r1, sl, lsl r0
    272c:	00007602 	andeq	r7, r0, r2, lsl #12
    2730:	013f1900 	teqeq	pc, r0, lsl #18
    2734:	940c0000 	strls	r0, [ip], #-0
    2738:	001c0000 	andseq	r0, ip, r0
    273c:	1d010000 	stcne	0, cr0, [r1, #-0]
    2740:	000005a2 	andeq	r0, r0, r2, lsr #11
    2744:	00016a1a 	andeq	r6, r1, sl, lsl sl
    2748:	001cfa00 	andseq	pc, ip, r0, lsl #20
    274c:	015f1b00 	cmpeq	pc, r0, lsl #22
    2750:	54010000 	strpl	r0, [r1], #-0
    2754:	0001561b 	andeq	r5, r1, fp, lsl r6
    2758:	00770900 	rsbseq	r0, r7, r0, lsl #18
    275c:	081a2008 	ldmdaeq	sl, {r3, sp}
    2760:	1b9f1aff 	blne	fe7c9364 <__bss_end__+0xfe7befcc>
    2764:	0000014b 	andeq	r0, r0, fp, asr #2
    2768:	11195601 	tstne	r9, r1, lsl #12
    276c:	18000001 	stmdane	r0, {r0}
    2770:	10000094 	mulne	r0, r4, r0
    2774:	02000000 	andeq	r0, r0, #0
    2778:	0005881a 	andeq	r8, r5, sl, lsl r8
    277c:	01281a00 	teqeq	r8, r0, lsl #20
    2780:	1d240000 	stcne	0, cr0, [r4, #-0]
    2784:	1d1b0000 	ldcne	0, cr0, [fp, #-0]
    2788:	01000001 	tsteq	r0, r1
    278c:	94181d54 	ldrls	r1, [r8], #-3412	; 0xd54
    2790:	00040000 	andeq	r0, r4, r0
    2794:	321e0000 	andscc	r0, lr, #0
    2798:	4e000001 	cdpmi	0, 0, cr0, cr0, cr1, {0}
    279c:	0000001d 	andeq	r0, r0, sp, lsl r0
    27a0:	94181f00 	ldrls	r1, [r8], #-3840	; 0xf00
    27a4:	11590000 	cmpne	r9, r0
    27a8:	01200000 	teqeq	r0, r0
    27ac:	00770551 	rsbseq	r0, r7, r1, asr r5
    27b0:	201a2008 	andscs	r2, sl, r8
    27b4:	76025001 	strvc	r5, [r2], -r1
    27b8:	19000000 	stmdbne	r0, {}	; <UNPREDICTABLE>
    27bc:	0000013f 	andeq	r0, r0, pc, lsr r1
    27c0:	0000942c 	andeq	r9, r0, ip, lsr #8
    27c4:	0000001c 	andeq	r0, r0, ip, lsl r0
    27c8:	062c1f01 	strteq	r1, [ip], -r1, lsl #30
    27cc:	6a1a0000 	bvs	6827d4 <__bss_end__+0x67843c>
    27d0:	61000001 	tstvs	r0, r1
    27d4:	1b00001d 	blne	2850 <_start-0x57b0>
    27d8:	0000015f 	andeq	r0, r0, pc, asr r1
    27dc:	561b5401 	ldrpl	r5, [fp], -r1, lsl #8
    27e0:	09000001 	stmdbeq	r0, {r0}
    27e4:	40080077 	andmi	r0, r8, r7, ror r0
    27e8:	1aff081a 	bne	fffc4858 <__bss_end__+0xfffba4c0>
    27ec:	014b1b9f 			; <UNDEFINED> instruction: 0x014b1b9f
    27f0:	56010000 	strpl	r0, [r1], -r0
    27f4:	00011119 	andeq	r1, r1, r9, lsl r1
    27f8:	00943800 	addseq	r3, r4, r0, lsl #16
    27fc:	00001000 	andeq	r1, r0, r0
    2800:	121a0200 	andsne	r0, sl, #0, 4
    2804:	1a000006 	bne	2824 <_start-0x57dc>
    2808:	00000128 	andeq	r0, r0, r8, lsr #2
    280c:	00001d83 	andeq	r1, r0, r3, lsl #27
    2810:	00011d1b 	andeq	r1, r1, fp, lsl sp
    2814:	1d540100 	ldfnee	f0, [r4, #-0]
    2818:	00009438 	andeq	r9, r0, r8, lsr r4
    281c:	00000004 	andeq	r0, r0, r4
    2820:	0001321e 	andeq	r3, r1, lr, lsl r2
    2824:	001da500 	andseq	sl, sp, r0, lsl #10
    2828:	1f000000 	svcne	0x00000000
    282c:	00009438 	andeq	r9, r0, r8, lsr r4
    2830:	00001159 	andeq	r1, r0, r9, asr r1
    2834:	05510120 	ldrbeq	r0, [r1, #-288]	; 0x120
    2838:	40080077 	andmi	r0, r8, r7, ror r0
    283c:	5001201a 	andpl	r2, r1, sl, lsl r0
    2840:	00007602 	andeq	r7, r0, r2, lsl #12
    2844:	013f1900 	teqeq	pc, r0, lsl #18
    2848:	944c0000 	strbls	r0, [ip], #-0
    284c:	001c0000 	andseq	r0, ip, r0
    2850:	21010000 	mrscs	r0, (UNDEF: 1)
    2854:	000006ac 	andeq	r0, r0, ip, lsr #13
    2858:	00016a1b 	andeq	r6, r1, fp, lsl sl
    285c:	1b580100 	blne	1602c64 <__bss_end__+0x15f88cc>
    2860:	0000015f 	andeq	r0, r0, pc, asr r1
    2864:	561a5401 	ldrpl	r5, [sl], -r1, lsl #8
    2868:	b8000001 	stmdalt	r0, {r0}
    286c:	1b00001d 	blne	28e8 <_start-0x5718>
    2870:	0000014b 	andeq	r0, r0, fp, asr #2
    2874:	11195601 	tstne	r9, r1, lsl #12
    2878:	58000001 	stmdapl	r0, {r0}
    287c:	10000094 	mulne	r0, r4, r0
    2880:	02000000 	andeq	r0, r0, #0
    2884:	0006921a 	andeq	r9, r6, sl, lsl r2
    2888:	01281b00 	teqeq	r8, r0, lsl #22
    288c:	58010000 	stmdapl	r1, {}	; <UNPREDICTABLE>
    2890:	00011d1b 	andeq	r1, r1, fp, lsl sp
    2894:	1d540100 	ldfnee	f0, [r4, #-0]
    2898:	00009458 	andeq	r9, r0, r8, asr r4
    289c:	00000004 	andeq	r0, r0, r4
    28a0:	0001321e 	andeq	r3, r1, lr, lsl r2
    28a4:	001deb00 	andseq	lr, sp, r0, lsl #22
    28a8:	1f000000 	svcne	0x00000000
    28ac:	00009458 	andeq	r9, r0, r8, asr r4
    28b0:	00001159 	andeq	r1, r0, r9, asr r1
    28b4:	05510120 	ldrbeq	r0, [r1, #-288]	; 0x120
    28b8:	80080077 	andhi	r0, r8, r7, ror r0
    28bc:	5001201a 	andpl	r2, r1, sl, lsl r0
    28c0:	00007602 	andeq	r7, r0, r2, lsl #12
    28c4:	013f2100 	teqeq	pc, r0, lsl #2
    28c8:	946c0000 	strbtls	r0, [ip], #-0
    28cc:	001c0000 	andseq	r0, ip, r0
    28d0:	23010000 	movwcs	r0, #4096	; 0x1000
    28d4:	00016a1b 	andeq	r6, r1, fp, lsl sl
    28d8:	1b550100 	blne	1542ce0 <__bss_end__+0x1538948>
    28dc:	0000015f 	andeq	r0, r0, pc, asr r1
    28e0:	561c5401 	ldrpl	r5, [ip], -r1, lsl #8
    28e4:	01000001 	tsteq	r0, r1
    28e8:	00014b1b 	andeq	r4, r1, fp, lsl fp
    28ec:	19560100 	ldmdbne	r6, {r8}^
    28f0:	00000111 	andeq	r0, r0, r1, lsl r1
    28f4:	00009478 	andeq	r9, r0, r8, ror r4
    28f8:	00000010 	andeq	r0, r0, r0, lsl r0
    28fc:	070b1a02 	streq	r1, [fp, -r2, lsl #20]
    2900:	281b0000 	ldmdacs	fp, {}	; <UNPREDICTABLE>
    2904:	01000001 	tsteq	r0, r1
    2908:	011d1b55 	tsteq	sp, r5, asr fp
    290c:	54010000 	strpl	r0, [r1], #-0
    2910:	0094781d 	addseq	r7, r4, sp, lsl r8
    2914:	00000400 	andeq	r0, r0, r0, lsl #8
    2918:	01321e00 	teqeq	r2, r0, lsl #28
    291c:	1dfe0000 	ldclne	0, cr0, [lr]
    2920:	00000000 	andeq	r0, r0, r0
    2924:	0094781f 	addseq	r7, r4, pc, lsl r8
    2928:	00115900 	andseq	r5, r1, r0, lsl #18
    292c:	51012000 	mrspl	r2, (UNDEF: 1)
    2930:	01203101 	teqeq	r0, r1, lsl #2
    2934:	00760250 	rsbseq	r0, r6, r0, asr r2
    2938:	06000000 	streq	r0, [r0], -r0
    293c:	0000d904 	andeq	sp, r0, r4, lsl #18
    2940:	09152200 	ldmdbeq	r5, {r9, sp}
    2944:	27010000 	strcs	r0, [r1, -r0]
    2948:	00000025 	andeq	r0, r0, r5, lsr #32
    294c:	00076203 	andeq	r6, r7, r3, lsl #4
    2950:	78720f00 	ldmdavc	r2!, {r8, r9, sl, fp}^
    2954:	25270100 	strcs	r0, [r7, #-256]!	; 0x100
    2958:	0f000000 	svceq	0x00000000
    295c:	27010076 	smlsdxcs	r1, r6, r0, r0
    2960:	00000025 	andeq	r0, r0, r5, lsr #32
    2964:	0008a20e 	andeq	sl, r8, lr, lsl #4
    2968:	2c270100 	stfcss	f0, [r7], #-0
    296c:	11000000 	mrsne	r0, (UNDEF: 0)
    2970:	000004ef 	andeq	r0, r0, pc, ror #9
    2974:	002c2801 	eoreq	r2, ip, r1, lsl #16
    2978:	23000000 	movwcs	r0, #0
    297c:	00000843 	andeq	r0, r0, r3, asr #16
    2980:	00253401 	eoreq	r3, r5, r1, lsl #8
    2984:	948c0000 	strls	r0, [ip], #0
    2988:	01c80000 	biceq	r0, r8, r0
    298c:	9c010000 	stcls	0, cr0, [r1], {-0}
    2990:	00000b1e 	andeq	r0, r0, lr, lsl fp
    2994:	0004a213 	andeq	sl, r4, r3, lsl r2
    2998:	22340100 	eorscs	r0, r4, #0, 2
    299c:	11000007 	tstne	r0, r7
    29a0:	1300001e 	movwne	r0, #30
    29a4:	000008a2 	andeq	r0, r0, r2, lsr #17
    29a8:	00253401 	eoreq	r3, r5, r1, lsl #8
    29ac:	1e560000 	cdpne	0, 5, cr0, cr6, cr0, {0}
    29b0:	72150000 	andsvc	r0, r5, #0
    29b4:	35010078 	strcc	r0, [r1, #-120]	; 0x78
    29b8:	00000025 	andeq	r0, r0, r5, lsr #32
    29bc:	73165501 	tstvc	r6, #4194304	; 0x400000
    29c0:	2c3c0100 	ldfcss	f0, [ip], #-0
    29c4:	74000000 	strvc	r0, [r0], #-0
    29c8:	1600001e 			; <UNDEFINED> instruction: 0x1600001e
    29cc:	3f010075 	svccc	0x00010075
    29d0:	00000068 	andeq	r0, r0, r8, rrx
    29d4:	00001e87 	andeq	r1, r0, r7, lsl #29
    29d8:	01006e16 	tsteq	r0, r6, lsl lr
    29dc:	00002c40 	andeq	r2, r0, r0, asr #24
    29e0:	001e9a00 	andseq	r9, lr, r0, lsl #20
    29e4:	00631600 	rsbeq	r1, r3, r0, lsl #12
    29e8:	002c4101 	eoreq	r4, ip, r1, lsl #2
    29ec:	1eb10000 	cdpne	0, 11, cr0, cr1, cr0, {0}
    29f0:	28190000 	ldmdacs	r9, {}	; <UNPREDICTABLE>
    29f4:	a0000007 	andge	r0, r0, r7
    29f8:	34000094 	strcc	r0, [r0], #-148	; 0x94
    29fc:	01000000 	mrseq	r0, (UNDEF: 0)
    2a00:	00083c38 	andeq	r3, r8, r8, lsr ip
    2a04:	074b1a00 	strbeq	r1, [fp, -r0, lsl #20]
    2a08:	1edb0000 	cdpne	0, 13, cr0, cr11, cr0, {0}
    2a0c:	421c0000 	andsmi	r0, ip, #0
    2a10:	00000007 	andeq	r0, r0, r7
    2a14:	0007381b 	andeq	r3, r7, fp, lsl r8
    2a18:	1d550100 	ldfnee	f0, [r5, #-0]
    2a1c:	000094a0 	andeq	r9, r0, r0, lsr #9
    2a20:	00000034 	andeq	r0, r0, r4, lsr r0
    2a24:	0007561e 	andeq	r5, r7, lr, lsl r6
    2a28:	001ef900 	andseq	pc, lr, r0, lsl #18
    2a2c:	94a42400 	strtls	r2, [r4], #1024	; 0x400
    2a30:	116f0000 	cmnne	pc, r0
    2a34:	b0250000 	eorlt	r0, r5, r0
    2a38:	7a000094 	bvc	2c90 <_start-0x5370>
    2a3c:	31000011 	tstcc	r0, r1, lsl r0
    2a40:	20000008 	andcs	r0, r0, r8
    2a44:	75025001 	strvc	r5, [r2, #-1]
    2a48:	bc240000 	stclt	0, cr0, [r4], #-0
    2a4c:	6f000094 	svcvs	0x00000094
    2a50:	00000011 	andeq	r0, r0, r1, lsl r0
    2a54:	94dc1700 	ldrbls	r1, [ip], #1792	; 0x700
    2a58:	00040000 	andeq	r0, r4, r0
    2a5c:	08590000 	ldmdaeq	r9, {}^	; <UNPREDICTABLE>
    2a60:	89260000 	stmdbhi	r6!, {}	; <UNPREDICTABLE>
    2a64:	01000001 	tsteq	r0, r1
    2a68:	00002c3c 	andeq	r2, r0, ip, lsr ip
    2a6c:	001f1700 	andseq	r1, pc, r0, lsl #14
    2a70:	11190000 	tstne	r9, r0
    2a74:	e8000001 	stmda	r0, {r0}
    2a78:	10000094 	mulne	r0, r4, r0
    2a7c:	01000000 	mrseq	r0, (UNDEF: 0)
    2a80:	00089244 	andeq	r9, r8, r4, asr #4
    2a84:	01281a00 	teqeq	r8, r0, lsl #20
    2a88:	1f2a0000 	svcne	0x002a0000
    2a8c:	1d1a0000 	ldcne	0, cr0, [sl, #-0]
    2a90:	4f000001 	svcmi	0x00000001
    2a94:	1d00001f 	stcne	0, cr0, [r0, #-124]	; 0xffffff84
    2a98:	000094e8 	andeq	r9, r0, r8, ror #9
    2a9c:	00000004 	andeq	r0, r0, r4
    2aa0:	0001321e 	andeq	r3, r1, lr, lsl r2
    2aa4:	001f6200 	andseq	r6, pc, r0, lsl #4
    2aa8:	19000000 	stmdbne	r0, {}	; <UNPREDICTABLE>
    2aac:	00000111 	andeq	r0, r0, r1, lsl r1
    2ab0:	00009508 	andeq	r9, r0, r8, lsl #10
    2ab4:	00000010 	andeq	r0, r0, r0, lsl r0
    2ab8:	08cb4801 	stmiaeq	fp, {r0, fp, lr}^
    2abc:	281a0000 	ldmdacs	sl, {}	; <UNPREDICTABLE>
    2ac0:	75000001 	strvc	r0, [r0, #-1]
    2ac4:	1a00001f 	bne	2b48 <_start-0x54b8>
    2ac8:	0000011d 	andeq	r0, r0, sp, lsl r1
    2acc:	00001f88 	andeq	r1, r0, r8, lsl #31
    2ad0:	0095081d 	addseq	r0, r5, sp, lsl r8
    2ad4:	00000400 	andeq	r0, r0, r0, lsl #8
    2ad8:	01321e00 	teqeq	r2, r0, lsl #28
    2adc:	1f9b0000 	svcne	0x009b0000
    2ae0:	00000000 	andeq	r0, r0, r0
    2ae4:	00011119 	andeq	r1, r1, r9, lsl r1
    2ae8:	00952c00 	addseq	r2, r5, r0, lsl #24
    2aec:	00001000 	andeq	r1, r0, r0
    2af0:	044b0100 	strbeq	r0, [fp], #-256	; 0x100
    2af4:	1a000009 	bne	2b20 <_start-0x54e0>
    2af8:	00000128 	andeq	r0, r0, r8, lsr #2
    2afc:	00001fae 	andeq	r1, r0, lr, lsr #31
    2b00:	00011d1a 	andeq	r1, r1, sl, lsl sp
    2b04:	001fc100 	andseq	ip, pc, r0, lsl #2
    2b08:	952c1d00 	strls	r1, [ip, #-3328]!	; 0xd00
    2b0c:	00040000 	andeq	r0, r4, r0
    2b10:	321e0000 	andscc	r0, lr, #0
    2b14:	d4000001 	strle	r0, [r0], #-1
    2b18:	0000001f 	andeq	r0, r0, pc, lsl r0
    2b1c:	01111900 	tsteq	r1, r0, lsl #18
    2b20:	95500000 	ldrbls	r0, [r0, #-0]
    2b24:	00100000 	andseq	r0, r0, r0
    2b28:	4e010000 	cdpmi	0, 0, cr0, cr1, cr0, {0}
    2b2c:	0000093d 	andeq	r0, r0, sp, lsr r9
    2b30:	0001281a 	andeq	r2, r1, sl, lsl r8
    2b34:	001fe700 	andseq	lr, pc, r0, lsl #14
    2b38:	011d1a00 	tsteq	sp, r0, lsl #20
    2b3c:	1ffa0000 	svcne	0x00fa0000
    2b40:	501d0000 	andspl	r0, sp, r0
    2b44:	04000095 	streq	r0, [r0], #-149	; 0x95
    2b48:	1e000000 	cdpne	0, 0, cr0, cr0, cr0, {0}
    2b4c:	00000132 	andeq	r0, r0, r2, lsr r1
    2b50:	0000200d 	andeq	r2, r0, sp
    2b54:	11190000 	tstne	r9, r0
    2b58:	74000001 	strvc	r0, [r0], #-1
    2b5c:	10000095 	mulne	r0, r5, r0
    2b60:	01000000 	mrseq	r0, (UNDEF: 0)
    2b64:	00097651 	andeq	r7, r9, r1, asr r6
    2b68:	01281a00 	teqeq	r8, r0, lsl #20
    2b6c:	20200000 	eorcs	r0, r0, r0
    2b70:	1d1a0000 	ldcne	0, cr0, [sl, #-0]
    2b74:	33000001 	movwcc	r0, #1
    2b78:	1d000020 	stcne	0, cr0, [r0, #-128]	; 0xffffff80
    2b7c:	00009574 	andeq	r9, r0, r4, ror r5
    2b80:	00000004 	andeq	r0, r0, r4
    2b84:	0001321e 	andeq	r3, r1, lr, lsl r2
    2b88:	00204600 	eoreq	r4, r0, r0, lsl #12
    2b8c:	19000000 	stmdbne	r0, {}	; <UNPREDICTABLE>
    2b90:	00000111 	andeq	r0, r0, r1, lsl r1
    2b94:	00009598 	muleq	r0, r8, r5
    2b98:	00000010 	andeq	r0, r0, r0, lsl r0
    2b9c:	09af5401 	stmibeq	pc!, {r0, sl, ip, lr}	; <UNPREDICTABLE>
    2ba0:	281a0000 	ldmdacs	sl, {}	; <UNPREDICTABLE>
    2ba4:	59000001 	stmdbpl	r0, {r0}
    2ba8:	1a000020 	bne	2c30 <_start-0x53d0>
    2bac:	0000011d 	andeq	r0, r0, sp, lsl r1
    2bb0:	0000206c 	andeq	r2, r0, ip, rrx
    2bb4:	0095981d 	addseq	r9, r5, sp, lsl r8
    2bb8:	00000400 	andeq	r0, r0, r0, lsl #8
    2bbc:	01321e00 	teqeq	r2, r0, lsl #28
    2bc0:	207f0000 	rsbscs	r0, pc, r0
    2bc4:	00000000 	andeq	r0, r0, r0
    2bc8:	00011119 	andeq	r1, r1, r9, lsl r1
    2bcc:	0095bc00 	addseq	fp, r5, r0, lsl #24
    2bd0:	00001000 	andeq	r1, r0, r0
    2bd4:	e8570100 	ldmda	r7, {r8}^
    2bd8:	1a000009 	bne	2c04 <_start-0x53fc>
    2bdc:	00000128 	andeq	r0, r0, r8, lsr #2
    2be0:	00002092 	muleq	r0, r2, r0
    2be4:	00011d1a 	andeq	r1, r1, sl, lsl sp
    2be8:	0020a500 	eoreq	sl, r0, r0, lsl #10
    2bec:	95bc1d00 	ldrls	r1, [ip, #3328]!	; 0xd00
    2bf0:	00040000 	andeq	r0, r4, r0
    2bf4:	321e0000 	andscc	r0, lr, #0
    2bf8:	b8000001 	stmdalt	r0, {r0}
    2bfc:	00000020 	andeq	r0, r0, r0, lsr #32
    2c00:	01111900 	tsteq	r1, r0, lsl #18
    2c04:	95e00000 	strbls	r0, [r0, #0]!
    2c08:	00100000 	andseq	r0, r0, r0
    2c0c:	5a010000 	bpl	42c14 <__bss_end__+0x3887c>
    2c10:	00000a1d 	andeq	r0, r0, sp, lsl sl
    2c14:	0001281a 	andeq	r2, r1, sl, lsl r8
    2c18:	0020cb00 	eoreq	ip, r0, r0, lsl #22
    2c1c:	011d2700 	tsteq	sp, r0, lsl #14
    2c20:	e01d0000 	ands	r0, sp, r0
    2c24:	04000095 	streq	r0, [r0], #-149	; 0x95
    2c28:	1e000000 	cdpne	0, 0, cr0, cr0, cr0, {0}
    2c2c:	00000132 	andeq	r0, r0, r2, lsr r1
    2c30:	000020de 	ldrdeq	r2, [r0], -lr
    2c34:	28190000 	ldmdacs	r9, {}	; <UNPREDICTABLE>
    2c38:	00000007 	andeq	r0, r0, r7
    2c3c:	34000096 	strcc	r0, [r0], #-150	; 0x96
    2c40:	01000000 	mrseq	r0, (UNDEF: 0)
    2c44:	000a8161 	andeq	r8, sl, r1, ror #2
    2c48:	074b2700 	strbeq	r2, [fp, -r0, lsl #14]
    2c4c:	421a0000 	andsmi	r0, sl, #0
    2c50:	f1000007 	cps	#7
    2c54:	1a000020 	bne	2cdc <_start-0x5324>
    2c58:	00000738 	andeq	r0, r0, r8, lsr r7
    2c5c:	00002111 	andeq	r2, r0, r1, lsl r1
    2c60:	0096001d 	addseq	r0, r6, sp, lsl r0
    2c64:	00003400 	andeq	r3, r0, r0, lsl #8
    2c68:	07561e00 	ldrbeq	r1, [r6, -r0, lsl #28]
    2c6c:	212f0000 	teqcs	pc, r0
    2c70:	04240000 	strteq	r0, [r4], #-0
    2c74:	6f000096 	svcvs	0x00000096
    2c78:	25000011 	strcs	r0, [r0, #-17]
    2c7c:	00009610 	andeq	r9, r0, r0, lsl r6
    2c80:	0000117a 	andeq	r1, r0, sl, ror r1
    2c84:	00000a76 	andeq	r0, r0, r6, ror sl
    2c88:	02500120 	subseq	r0, r0, #32, 2
    2c8c:	24000075 	strcs	r0, [r0], #-117	; 0x75
    2c90:	0000961c 	andeq	r9, r0, ip, lsl r6
    2c94:	0000116f 	andeq	r1, r0, pc, ror #2
    2c98:	04250000 	strteq	r0, [r5], #-0
    2c9c:	7a000095 	bvc	2ef8 <_start-0x5108>
    2ca0:	95000011 	strls	r0, [r0, #-17]
    2ca4:	2000000a 	andcs	r0, r0, sl
    2ca8:	75025001 	strvc	r5, [r2, #-1]
    2cac:	24250000 	strtcs	r0, [r5], #-0
    2cb0:	7a000095 	bvc	2f0c <_start-0x50f4>
    2cb4:	a9000011 	stmdbge	r0, {r0, r4}
    2cb8:	2000000a 	andcs	r0, r0, sl
    2cbc:	75025001 	strvc	r5, [r2, #-1]
    2cc0:	48250000 	stmdami	r5!, {}	; <UNPREDICTABLE>
    2cc4:	7a000095 	bvc	2f20 <_start-0x50e0>
    2cc8:	bd000011 	stclt	0, cr0, [r0, #-68]	; 0xffffffbc
    2ccc:	2000000a 	andcs	r0, r0, sl
    2cd0:	75025001 	strvc	r5, [r2, #-1]
    2cd4:	6c250000 	stcvs	0, cr0, [r5], #-0
    2cd8:	7a000095 	bvc	2f34 <_start-0x50cc>
    2cdc:	d1000011 	tstle	r0, r1, lsl r0
    2ce0:	2000000a 	andcs	r0, r0, sl
    2ce4:	75025001 	strvc	r5, [r2, #-1]
    2ce8:	90250000 	eorls	r0, r5, r0
    2cec:	7a000095 	bvc	2f48 <_start-0x50b8>
    2cf0:	e5000011 	str	r0, [r0, #-17]
    2cf4:	2000000a 	andcs	r0, r0, sl
    2cf8:	75025001 	strvc	r5, [r2, #-1]
    2cfc:	b4250000 	strtlt	r0, [r5], #-0
    2d00:	7a000095 	bvc	2f5c <_start-0x50a4>
    2d04:	f9000011 			; <UNDEFINED> instruction: 0xf9000011
    2d08:	2000000a 	andcs	r0, r0, sl
    2d0c:	75025001 	strvc	r5, [r2, #-1]
    2d10:	d8250000 	stmdale	r5!, {}	; <UNPREDICTABLE>
    2d14:	7a000095 	bvc	2f70 <_start-0x5090>
    2d18:	0d000011 	stceq	0, cr0, [r0, #-68]	; 0xffffffbc
    2d1c:	2000000b 	andcs	r0, r0, fp
    2d20:	75025001 	strvc	r5, [r2, #-1]
    2d24:	f81f0000 			; <UNDEFINED> instruction: 0xf81f0000
    2d28:	7a000095 	bvc	2f84 <_start-0x507c>
    2d2c:	20000011 	andcs	r0, r0, r1, lsl r0
    2d30:	75025001 	strvc	r5, [r2, #-1]
    2d34:	23000000 	movwcs	r0, #0
    2d38:	00000858 	andeq	r0, r0, r8, asr r8
    2d3c:	00256c01 	eoreq	r6, r5, r1, lsl #24
    2d40:	96540000 	ldrbls	r0, [r4], -r0
    2d44:	00a40000 	adceq	r0, r4, r0
    2d48:	9c010000 	stcls	0, cr0, [r1], {-0}
    2d4c:	00000c0c 	andeq	r0, r0, ip, lsl #24
    2d50:	01007514 	tsteq	r0, r4, lsl r5
    2d54:	0007226c 	andeq	r2, r7, ip, ror #4
    2d58:	00214d00 	eoreq	r4, r1, r0, lsl #26
    2d5c:	75621400 	strbvc	r1, [r2, #-1024]!	; 0x400
    2d60:	6c010066 	stcvs	0, cr0, [r1], {102}	; 0x66
    2d64:	00000c0c 	andeq	r0, r0, ip, lsl #24
    2d68:	0000218f 	andeq	r2, r0, pc, lsl #3
    2d6c:	0008ea13 	andeq	lr, r8, r3, lsl sl
    2d70:	686c0100 	stmdavs	ip!, {r8}^
    2d74:	d1000000 	mrsle	r0, (UNDEF: 0)
    2d78:	14000021 	strne	r0, [r0], #-33	; 0x21
    2d7c:	00646e65 	rsbeq	r6, r4, r5, ror #28
    2d80:	004f6c01 	subeq	r6, pc, r1, lsl #24
    2d84:	22180000 	andscs	r0, r8, #0
    2d88:	f1280000 			; <UNDEFINED> instruction: 0xf1280000
    2d8c:	01000008 	tsteq	r0, r8
    2d90:	0000686c 	andeq	r6, r0, ip, ror #16
    2d94:	00910200 	addseq	r0, r1, r0, lsl #4
    2d98:	00010a29 	andeq	r0, r1, r9, lsr #20
    2d9c:	000c2200 	andeq	r2, ip, r0, lsl #4
    2da0:	70030500 	andvc	r0, r3, r0, lsl #10
    2da4:	1600009e 			; <UNDEFINED> instruction: 0x1600009e
    2da8:	70010069 	andvc	r0, r1, r9, rrx
    2dac:	00000025 	andeq	r0, r0, r5, lsr #32
    2db0:	00002252 	andeq	r2, r0, r2, asr r2
    2db4:	0008cd26 	andeq	ip, r8, r6, lsr #26
    2db8:	4f710100 	svcmi	0x00710100
    2dbc:	7c000000 	stcvc	0, cr0, [r0], {-0}
    2dc0:	24000022 	strcs	r0, [r0], #-34	; 0x22
    2dc4:	00009678 	andeq	r9, r0, r8, ror r6
    2dc8:	0000118f 	andeq	r1, r0, pc, lsl #3
    2dcc:	00969425 	addseq	r9, r6, r5, lsr #8
    2dd0:	00119600 	andseq	r9, r1, r0, lsl #12
    2dd4:	000bec00 	andeq	lr, fp, r0, lsl #24
    2dd8:	53012000 	movwpl	r2, #4096	; 0x1000
    2ddc:	206d0802 	rsbcs	r0, sp, r2, lsl #16
    2de0:	03055201 	movweq	r5, #20993	; 0x5201
    2de4:	00009e70 	andeq	r9, r0, r0, ror lr
    2de8:	05510120 	ldrbeq	r0, [r1, #-288]	; 0x120
    2dec:	009ee803 	addseq	lr, lr, r3, lsl #16
    2df0:	50012000 	andpl	r2, r1, r0
    2df4:	9d700305 	ldclls	3, cr0, [r0, #-20]!	; 0xffffffec
    2df8:	02200000 	eoreq	r0, r0, #0
    2dfc:	0305007d 	movweq	r0, #20605	; 0x507d
    2e00:	00009efc 	strdeq	r9, [r0], -ip
    2e04:	96982400 	ldrls	r2, [r8], r0, lsl #8
    2e08:	11ac0000 			; <UNDEFINED> instruction: 0x11ac0000
    2e0c:	b41f0000 	ldrlt	r0, [pc], #-0	; 2e14 <_start-0x51ec>
    2e10:	62000096 	andvs	r0, r0, #150	; 0x96
    2e14:	20000007 	andcs	r0, r0, r7
    2e18:	7a025101 	bvc	97224 <__bss_end__+0x8ce8c>
    2e1c:	50012000 	andpl	r2, r1, r0
    2e20:	00007802 	andeq	r7, r0, r2, lsl #16
    2e24:	4f040600 	svcmi	0x00040600
    2e28:	2a000000 	bcs	2e30 <_start-0x51d0>
    2e2c:	00000090 	muleq	r0, r0, r0
    2e30:	00000c22 	andeq	r0, r0, r2, lsr #24
    2e34:	0000812b 	andeq	r8, r0, fp, lsr #2
    2e38:	07001200 	streq	r1, [r0, -r0, lsl #4]
    2e3c:	00000c12 	andeq	r0, r0, r2, lsl ip
    2e40:	0008d523 	andeq	sp, r8, r3, lsr #10
    2e44:	25800100 	strcs	r0, [r0, #256]	; 0x100
    2e48:	f8000000 			; <UNDEFINED> instruction: 0xf8000000
    2e4c:	90000096 	mulls	r0, r6, r0
    2e50:	01000000 	mrseq	r0, (UNDEF: 0)
    2e54:	000cf89c 	muleq	ip, ip, r8
    2e58:	00751400 	rsbseq	r1, r5, r0, lsl #8
    2e5c:	07228001 	streq	r8, [r2, -r1]!
    2e60:	228f0000 	addcs	r0, pc, #0
    2e64:	62140000 	andsvs	r0, r4, #0
    2e68:	01006675 	tsteq	r0, r5, ror r6
    2e6c:	000c0c80 	andeq	r0, ip, r0, lsl #25
    2e70:	0022d100 	eoreq	sp, r2, r0, lsl #2
    2e74:	08ea1300 	stmiaeq	sl!, {r8, r9, ip}^
    2e78:	81010000 	mrshi	r0, (UNDEF: 1)
    2e7c:	00000068 	andeq	r0, r0, r8, rrx
    2e80:	00002313 	andeq	r2, r0, r3, lsl r3
    2e84:	0008f113 	andeq	pc, r8, r3, lsl r1	; <UNPREDICTABLE>
    2e88:	68810100 	stmvs	r1, {r8}
    2e8c:	5a000000 	bpl	2e94 <_start-0x516c>
    2e90:	29000023 	stmdbcs	r0, {r0, r1, r5}
    2e94:	0000010a 	andeq	r0, r0, sl, lsl #2
    2e98:	00000d08 	andeq	r0, r0, r8, lsl #26
    2e9c:	9e840305 	cdpls	3, 8, cr0, cr4, cr5, {0}
    2ea0:	69160000 	ldmdbvs	r6, {}	; <UNPREDICTABLE>
    2ea4:	25860100 	strcs	r0, [r6, #256]	; 0x100
    2ea8:	9c000000 	stcls	0, cr0, [r0], {-0}
    2eac:	24000023 	strcs	r0, [r0], #-35	; 0x23
    2eb0:	00009718 	andeq	r9, r0, r8, lsl r7
    2eb4:	0000118f 	andeq	r1, r0, pc, lsl #3
    2eb8:	00973425 	addseq	r3, r7, r5, lsr #8
    2ebc:	00119600 	andseq	r9, r1, r0, lsl #12
    2ec0:	000cd800 	andeq	sp, ip, r0, lsl #16
    2ec4:	53012000 	movwpl	r2, #4096	; 0x1000
    2ec8:	20830802 	addcs	r0, r3, r2, lsl #16
    2ecc:	03055201 	movweq	r5, #20993	; 0x5201
    2ed0:	00009e84 	andeq	r9, r0, r4, lsl #29
    2ed4:	05510120 	ldrbeq	r0, [r1, #-288]	; 0x120
    2ed8:	009ee803 	addseq	lr, lr, r3, lsl #16
    2edc:	50012000 	andpl	r2, r1, r0
    2ee0:	9d700305 	ldclls	3, cr0, [r0, #-20]!	; 0xffffffec
    2ee4:	02200000 	eoreq	r0, r0, #0
    2ee8:	0305007d 	movweq	r0, #20605	; 0x507d
    2eec:	00009efc 	strdeq	r9, [r0], -ip
    2ef0:	97382400 	ldrls	r2, [r8, -r0, lsl #8]!
    2ef4:	11ac0000 			; <UNDEFINED> instruction: 0x11ac0000
    2ef8:	541f0000 	ldrpl	r0, [pc], #-0	; 2f00 <_start-0x5100>
    2efc:	62000097 	andvs	r0, r0, #151	; 0x97
    2f00:	20000007 	andcs	r0, r0, r7
    2f04:	78025101 	stmdavc	r2, {r0, r8, ip, lr}
    2f08:	50012000 	andpl	r2, r1, r0
    2f0c:	00007702 	andeq	r7, r0, r2, lsl #14
    2f10:	00902a00 	addseq	r2, r0, r0, lsl #20
    2f14:	0d080000 	stceq	0, cr0, [r8, #-0]
    2f18:	812b0000 	teqhi	fp, r0
    2f1c:	14000000 	strne	r0, [r0], #-0
    2f20:	0cf80700 	ldcleq	7, cr0, [r8]
    2f24:	8e230000 	cdphi	0, 2, cr0, cr3, cr0, {0}
    2f28:	01000008 	tsteq	r0, r8
    2f2c:	0000d993 	muleq	r0, r3, r9
    2f30:	00978800 	addseq	r8, r7, r0, lsl #16
    2f34:	0000d400 	andeq	sp, r0, r0, lsl #8
    2f38:	329c0100 	addscc	r0, ip, #0, 2
    2f3c:	1400000e 	strne	r0, [r0], #-14
    2f40:	01007874 	tsteq	r0, r4, ror r8
    2f44:	00004f93 	muleq	r0, r3, pc	; <UNPREDICTABLE>
    2f48:	0023c600 	eoreq	ip, r3, r0, lsl #12
    2f4c:	78721400 	ldmdavc	r2!, {sl, ip}^
    2f50:	4f930100 	svcmi	0x00930100
    2f54:	e7000000 	str	r0, [r0, -r0]
    2f58:	13000023 	movwne	r0, #35	; 0x23
    2f5c:	000004db 	ldrdeq	r0, [r0], -fp
    2f60:	00689301 	rsbeq	r9, r8, r1, lsl #6
    2f64:	24080000 	strcs	r0, [r8], #-0
    2f68:	27280000 	strcs	r0, [r8, -r0]!
    2f6c:	01000008 	tsteq	r0, r8
    2f70:	00006893 	muleq	r0, r3, r8
    2f74:	00910200 	addseq	r0, r1, r0, lsl #4
    2f78:	7a686d2c 	bvc	1a1e430 <__bss_end__+0x1a14098>
    2f7c:	2c9b0100 	ldfcss	f0, [fp], {0}
    2f80:	00000000 	andeq	r0, r0, r0
    2f84:	2629b927 	strtcs	fp, [r9], -r7, lsr #18
    2f88:	00000878 	andeq	r0, r0, r8, ror r8
    2f8c:	002c9c01 	eoreq	r9, ip, r1, lsl #24
    2f90:	24320000 	ldrtcs	r0, [r2], #-0
    2f94:	0a290000 	beq	a42f9c <__bss_end__+0xa38c04>
    2f98:	42000001 	andmi	r0, r0, #1
    2f9c:	0500000e 	streq	r0, [r0, #-14]
    2fa0:	009e9c03 	addseq	r9, lr, r3, lsl #24
    2fa4:	97b41700 	ldrls	r1, [r4, r0, lsl #14]!
    2fa8:	00080000 	andeq	r0, r8, r0
    2fac:	0da50000 	stceq	0, cr0, [r5]
    2fb0:	692d0000 	pushvs	{}	; <UNPREDICTABLE>
    2fb4:	9701006e 	strls	r0, [r1, -lr, rrx]
    2fb8:	0000002c 	andeq	r0, r0, ip, lsr #32
    2fbc:	ac250001 	stcge	0, cr0, [r5], #-4
    2fc0:	b3000097 	movwlt	r0, #151	; 0x97
    2fc4:	b9000011 	stmdblt	r0, {r0, r4}
    2fc8:	2000000d 	andcs	r0, r0, sp
    2fcc:	76025001 	strvc	r5, [r2], -r1
    2fd0:	b4250000 	strtlt	r0, [r5], #-0
    2fd4:	c4000097 	strgt	r0, [r0], #-151	; 0x97
    2fd8:	cd000011 	stcgt	0, cr0, [r0, #-68]	; 0xffffffbc
    2fdc:	2000000d 	andcs	r0, r0, sp
    2fe0:	78025001 	stmdavc	r2, {r0, ip, lr}
    2fe4:	c8250000 	stmdagt	r5!, {}	; <UNPREDICTABLE>
    2fe8:	59000097 	stmdbpl	r0, {r0, r1, r2, r4, r7}
    2fec:	e6000011 			; <UNDEFINED> instruction: 0xe6000011
    2ff0:	2000000d 	andcs	r0, r0, sp
    2ff4:	31015101 	tstcc	r1, r1, lsl #2
    2ff8:	02500120 	subseq	r0, r0, #32, 2
    2ffc:	24000076 	strcs	r0, [r0], #-118	; 0x76
    3000:	0000980c 	andeq	r9, r0, ip, lsl #16
    3004:	0000118f 	andeq	r1, r0, pc, lsl #3
    3008:	00982825 	addseq	r2, r8, r5, lsr #16
    300c:	00119600 	andseq	r9, r1, r0, lsl #12
    3010:	000e2800 	andeq	r2, lr, r0, lsl #16
    3014:	53012000 	movwpl	r2, #4096	; 0x1000
    3018:	209d0802 	addscs	r0, sp, r2, lsl #16
    301c:	03055201 	movweq	r5, #20993	; 0x5201
    3020:	00009e9c 	muleq	r0, ip, lr
    3024:	05510120 	ldrbeq	r0, [r1, #-288]	; 0x120
    3028:	009ee803 	addseq	lr, lr, r3, lsl #16
    302c:	50012000 	andpl	r2, r1, r0
    3030:	9d700305 	ldclls	3, cr0, [r0, #-20]!	; 0xffffffec
    3034:	02200000 	eoreq	r0, r0, #0
    3038:	0305007d 	movweq	r0, #20605	; 0x507d
    303c:	00009f08 	andeq	r9, r0, r8, lsl #30
    3040:	982c2400 	stmdals	ip!, {sl, sp}
    3044:	11ac0000 			; <UNDEFINED> instruction: 0x11ac0000
    3048:	2a000000 	bcs	3050 <_start-0x4fb0>
    304c:	00000090 	muleq	r0, r0, r0
    3050:	00000e42 	andeq	r0, r0, r2, asr #28
    3054:	0000812b 	andeq	r8, r0, fp, lsr #2
    3058:	07001300 	streq	r1, [r0, -r0, lsl #6]
    305c:	00000e32 	andeq	r0, r0, r2, lsr lr
    3060:	00086b23 	andeq	r6, r8, r3, lsr #22
    3064:	25a90100 	strcs	r0, [r9, #256]!	; 0x100
    3068:	5c000000 	stcpl	0, cr0, [r0], {-0}
    306c:	3c000098 	stccc	0, cr0, [r0], {152}	; 0x98
    3070:	01000000 	mrseq	r0, (UNDEF: 0)
    3074:	000eea9c 	muleq	lr, ip, sl
    3078:	04a21300 	strteq	r1, [r2], #768	; 0x300
    307c:	a9010000 	stmdbge	r1, {}	; <UNPREDICTABLE>
    3080:	00000722 	andeq	r0, r0, r2, lsr #14
    3084:	00002460 	andeq	r2, r0, r0, ror #8
    3088:	73657216 	cmnvc	r5, #1610612737	; 0x60000001
    308c:	25aa0100 	strcs	r0, [sl, #256]!	; 0x100
    3090:	81000000 	mrshi	r0, (UNDEF: 0)
    3094:	29000024 	stmdbcs	r0, {r2, r5}
    3098:	0000010a 	andeq	r0, r0, sl, lsl #2
    309c:	00000efa 	strdeq	r0, [r0], -sl
    30a0:	9eb00305 	cdpls	3, 11, cr0, cr0, cr5, {0}
    30a4:	68250000 	stmdavs	r5!, {}	; <UNPREDICTABLE>
    30a8:	62000098 	andvs	r0, r0, #152	; 0x98
    30ac:	a8000007 	stmdage	r0, {r0, r1, r2}
    30b0:	2000000e 	andcs	r0, r0, lr
    30b4:	09025101 	stmdbeq	r2, {r0, r8, ip, lr}
    30b8:	500120ff 	strdpl	r2, [r1], -pc	; <UNPREDICTABLE>
    30bc:	5001f303 	andpl	pc, r1, r3, lsl #6
    30c0:	98742400 	ldmdals	r4!, {sl, sp}^
    30c4:	118f0000 	orrne	r0, pc, r0
    30c8:	88250000 	stmdahi	r5!, {}	; <UNPREDICTABLE>
    30cc:	96000098 			; <UNDEFINED> instruction: 0x96000098
    30d0:	e0000011 	and	r0, r0, r1, lsl r0
    30d4:	2000000e 	andcs	r0, r0, lr
    30d8:	08025301 	stmdaeq	r2, {r0, r8, r9, ip, lr}
    30dc:	520120ac 	andpl	r2, r1, #172	; 0xac
    30e0:	9eb00305 	cdpls	3, 11, cr0, cr0, cr5, {0}
    30e4:	01200000 	teqeq	r0, r0
    30e8:	e8030551 	stmda	r3, {r0, r4, r6, r8, sl}
    30ec:	2000009e 	mulcs	r0, lr, r0
    30f0:	03055001 	movweq	r5, #20481	; 0x5001
    30f4:	00009f3c 	andeq	r9, r0, ip, lsr pc
    30f8:	988c2400 	stmls	ip, {sl, sp}
    30fc:	11ac0000 			; <UNDEFINED> instruction: 0x11ac0000
    3100:	2a000000 	bcs	3108 <_start-0x4ef8>
    3104:	00000090 	muleq	r0, r0, r0
    3108:	00000efa 	strdeq	r0, [r0], -sl
    310c:	0000812b 	andeq	r8, r0, fp, lsr #2
    3110:	07000c00 	streq	r0, [r0, -r0, lsl #24]
    3114:	00000eea 	andeq	r0, r0, sl, ror #29
    3118:	0008af12 	andeq	sl, r8, r2, lsl pc
    311c:	98b00100 	ldmls	r0!, {r8}
    3120:	2c000098 	stccs	0, cr0, [r0], {152}	; 0x98
    3124:	01000000 	mrseq	r0, (UNDEF: 0)
    3128:	000f439c 	muleq	pc, ip, r3	; <UNPREDICTABLE>
    312c:	04a21300 	strteq	r1, [r2], #768	; 0x300
    3130:	b0010000 	andlt	r0, r1, r0
    3134:	00000722 	andeq	r0, r0, r2, lsr #14
    3138:	00002494 	muleq	r0, r4, r4
    313c:	67736d14 			; <UNDEFINED> instruction: 0x67736d14
    3140:	97b00100 	ldrls	r0, [r0, r0, lsl #2]!
    3144:	b2000000 	andlt	r0, r0, #0
    3148:	1f000024 	svcne	0x00000024
    314c:	000098b0 			; <UNDEFINED> instruction: 0x000098b0
    3150:	00000176 	andeq	r0, r0, r6, ror r1
    3154:	02500120 	subseq	r0, r0, #32, 2
    3158:	00000075 	andeq	r0, r0, r5, ror r0
    315c:	0004a723 	andeq	sl, r4, r3, lsr #14
    3160:	25b90100 	ldrcs	r0, [r9, #256]!	; 0x100
    3164:	c4000000 	strgt	r0, [r0], #-0
    3168:	90000098 	mulls	r0, r8, r0
    316c:	01000000 	mrseq	r0, (UNDEF: 0)
    3170:	0010419c 	mulseq	r0, ip, r1
    3174:	04a21300 	strteq	r1, [r2], #768	; 0x300
    3178:	b9010000 	stmdblt	r1, {}	; <UNPREDICTABLE>
    317c:	00000722 	andeq	r0, r0, r2, lsr #14
    3180:	000024d0 	ldrdeq	r2, [r0], -r0
    3184:	746d662e 	strbtvc	r6, [sp], #-1582	; 0x62e
    3188:	97b90100 	ldrls	r0, [r9, r0, lsl #2]!
    318c:	02000000 	andeq	r0, r0, #0
    3190:	152f7491 	strne	r7, [pc, #-1169]!	; 2d07 <_start-0x52f9>
    3194:	00667562 	rsbeq	r7, r6, r2, ror #10
    3198:	1041ba01 	subne	fp, r1, r1, lsl #20
    319c:	91030000 	mrsls	r0, (UNDEF: 3)
    31a0:	60187c9c 	mulsvs	r8, ip, ip
    31a4:	01000003 	tsteq	r0, r3
    31a8:	000106bc 			; <UNDEFINED> instruction: 0x000106bc
    31ac:	98910300 	ldmls	r1, {r8, r9}
    31b0:	7a73167c 	bvc	1cc8ba8 <__bss_end__+0x1cbe810>
    31b4:	25be0100 	ldrcs	r0, [lr, #256]!	; 0x100
    31b8:	fc000000 	stc2	0, cr0, [r0], {-0}
    31bc:	29000024 	stmdbcs	r0, {r2, r5}
    31c0:	0000010a 	andeq	r0, r0, sl, lsl #2
    31c4:	00001062 	andeq	r1, r0, r2, rrx
    31c8:	9ec00305 	cdpls	3, 12, cr0, cr0, cr5, {0}
    31cc:	ec250000 	stc	0, cr0, [r5], #-0
    31d0:	d5000098 	strle	r0, [r0, #-152]	; 0x98
    31d4:	de000011 	mcrle	0, 0, r0, cr0, cr1, {0}
    31d8:	2000000f 	andcs	r0, r0, pc
    31dc:	91025301 	tstls	r2, r1, lsl #6
    31e0:	52012058 	andpl	r2, r1, #88	; 0x58
    31e4:	06549103 	ldrbeq	r9, [r4], -r3, lsl #2
    31e8:	03510120 	cmpeq	r1, #32, 2
    31ec:	2001cc0a 	andcs	ip, r1, sl, lsl #24
    31f0:	91035001 	tstls	r3, r1
    31f4:	24007bfc 	strcs	r7, [r0], #-3068	; 0xbfc
    31f8:	00009900 	andeq	r9, r0, r0, lsl #18
    31fc:	0000118f 	andeq	r1, r0, pc, lsl #3
    3200:	00991c25 	addseq	r1, r9, r5, lsr #24
    3204:	00119600 	andseq	r9, r1, r0, lsl #12
    3208:	00102000 	andseq	r2, r0, r0
    320c:	53012000 	movwpl	r2, #4096	; 0x1000
    3210:	20c00802 	sbccs	r0, r0, r2, lsl #16
    3214:	03055201 	movweq	r5, #20993	; 0x5201
    3218:	00009ec0 	andeq	r9, r0, r0, asr #29
    321c:	05510120 	ldrbeq	r0, [r1, #-288]	; 0x120
    3220:	009ee803 	addseq	lr, lr, r3, lsl #16
    3224:	50012000 	andpl	r2, r1, r0
    3228:	9d700305 	ldclls	3, cr0, [r0, #-20]!	; 0xffffffec
    322c:	02200000 	eoreq	r0, r0, #0
    3230:	0305007d 	movweq	r0, #20605	; 0x507d
    3234:	00009f74 	andeq	r9, r0, r4, ror pc
    3238:	99202400 	stmdbls	r0!, {sl, sp}
    323c:	11ac0000 			; <UNDEFINED> instruction: 0x11ac0000
    3240:	2c1f0000 	ldccs	0, cr0, [pc], {-0}
    3244:	ff000099 			; <UNDEFINED> instruction: 0xff000099
    3248:	2000000e 	andcs	r0, r0, lr
    324c:	91035101 	tstls	r3, r1, lsl #2
    3250:	01207bfc 	strdeq	r7, [r0, -ip]!
    3254:	00750250 	rsbseq	r0, r5, r0, asr r2
    3258:	902a0000 	eorls	r0, sl, r0
    325c:	52000000 	andpl	r0, r0, #0
    3260:	30000010 	andcc	r0, r0, r0, lsl r0
    3264:	00000081 	andeq	r0, r0, r1, lsl #1
    3268:	2a0001cb 	bcs	399c <_start-0x4664>
    326c:	00000090 	muleq	r0, r0, r0
    3270:	00001062 	andeq	r1, r0, r2, rrx
    3274:	0000812b 	andeq	r8, r0, fp, lsr #2
    3278:	07000e00 	streq	r0, [r0, -r0, lsl #28]
    327c:	00001052 	andeq	r1, r0, r2, asr r0
    3280:	0008fe23 	andeq	pc, r8, r3, lsr #28
    3284:	25c50100 	strbcs	r0, [r5, #256]	; 0x100
    3288:	54000000 	strpl	r0, [r0], #-0
    328c:	4c000099 	stcmi	0, cr0, [r0], {153}	; 0x99
    3290:	01000000 	mrseq	r0, (UNDEF: 0)
    3294:	0011449c 	mulseq	r1, ip, r4
    3298:	00751400 	rsbseq	r1, r5, r0, lsl #8
    329c:	0722c501 	streq	ip, [r2, -r1, lsl #10]!
    32a0:	253b0000 	ldrcs	r0, [fp, #-0]!
    32a4:	62140000 	andsvs	r0, r4, #0
    32a8:	01006675 	tsteq	r0, r5, ror r6
    32ac:	000c0cc5 	andeq	r0, ip, r5, asr #25
    32b0:	00255c00 	eoreq	r5, r5, r0, lsl #24
    32b4:	08ea1300 	stmiaeq	sl!, {r8, r9, ip}^
    32b8:	c5010000 	strgt	r0, [r1, #-0]
    32bc:	00000068 	andeq	r0, r0, r8, rrx
    32c0:	0000257d 	andeq	r2, r0, sp, ror r5
    32c4:	646e6514 	strbtvs	r6, [lr], #-1300	; 0x514
    32c8:	4fc50100 	svcmi	0x00c50100
    32cc:	9e000000 	cdpls	0, 0, cr0, cr0, cr0, {0}
    32d0:	16000025 	strne	r0, [r0], -r5, lsr #32
    32d4:	00736572 	rsbseq	r6, r3, r2, ror r5
    32d8:	0025c601 	eoreq	ip, r5, r1, lsl #12
    32dc:	25bf0000 	ldrcs	r0, [pc, #0]!	; 32e4 <_start-0x4d1c>
    32e0:	0a290000 	beq	a432e8 <__bss_end__+0xa38f50>
    32e4:	54000001 	strpl	r0, [r0], #-1
    32e8:	05000011 	streq	r0, [r0, #-17]
    32ec:	009ed003 	addseq	sp, lr, r3
    32f0:	99682500 	stmdbls	r8!, {r8, sl, sp}^
    32f4:	0b1e0000 	bleq	7832fc <__bss_end__+0x778f64>
    32f8:	11020000 	mrsne	r0, (UNDEF: 2)
    32fc:	01200000 	teqeq	r0, r0
    3300:	01f30352 	mvnseq	r0, r2, asr r3
    3304:	51012052 	qaddpl	r2, r2, r1
    3308:	5101f303 	tstpl	r1, r3, lsl #6
    330c:	03500120 	cmpeq	r0, #32, 2
    3310:	205001f3 	ldrshcs	r0, [r0], #-19	; 0xffffffed
    3314:	02007d02 	andeq	r7, r0, #2, 26	; 0x80
    3318:	2400ff09 	strcs	pc, [r0], #-3849	; 0xf09
    331c:	00009974 	andeq	r9, r0, r4, ror r9
    3320:	0000118f 	andeq	r1, r0, pc, lsl #3
    3324:	00998825 	addseq	r8, r9, r5, lsr #16
    3328:	00119600 	andseq	r9, r1, r0, lsl #12
    332c:	00113a00 	andseq	r3, r1, r0, lsl #20
    3330:	53012000 	movwpl	r2, #4096	; 0x1000
    3334:	20c80802 	sbccs	r0, r8, r2, lsl #16
    3338:	03055201 	movweq	r5, #20993	; 0x5201
    333c:	00009ed0 	ldrdeq	r9, [r0], -r0
    3340:	05510120 	ldrbeq	r0, [r1, #-288]	; 0x120
    3344:	009ee803 	addseq	lr, lr, r3, lsl #16
    3348:	50012000 	andpl	r2, r1, r0
    334c:	9f3c0305 	svcls	0x003c0305
    3350:	24000000 	strcs	r0, [r0], #-0
    3354:	0000998c 	andeq	r9, r0, ip, lsl #19
    3358:	000011ac 	andeq	r1, r0, ip, lsr #3
    335c:	00902a00 	addseq	r2, r0, r0, lsl #20
    3360:	11540000 	cmpne	r4, r0
    3364:	812b0000 	teqhi	fp, r0
    3368:	16000000 	strne	r0, [r0], -r0
    336c:	11440700 	cmpne	r4, r0, lsl #14
    3370:	35310000 	ldrcc	r0, [r1, #-0]!
    3374:	06000007 	streq	r0, [r0], -r7
    3378:	00116f21 	andseq	r6, r1, r1, lsr #30
    337c:	002c3200 	eoreq	r3, ip, r0, lsl #4
    3380:	2c320000 	ldccs	0, cr0, [r2], #-0
    3384:	00000000 	andeq	r0, r0, r0
    3388:	0005e433 	andeq	lr, r5, r3, lsr r4
    338c:	2c570700 	mrrccs	7, 0, r0, r7, cr0
    3390:	34000000 	strcc	r0, [r0], #-0
    3394:	00000263 	andeq	r0, r0, r3, ror #4
    3398:	00252406 	eoreq	r2, r5, r6, lsl #8
    339c:	118f0000 	orrne	r0, pc, r0
    33a0:	2c320000 	ldccs	0, cr0, [r2], #-0
    33a4:	00000000 	andeq	r0, r0, r0
    33a8:	0000d335 	andeq	sp, r0, r5, lsr r3
    33ac:	341e0700 	ldrcc	r0, [lr], #-1792	; 0x700
    33b0:	0000030b 	andeq	r0, r0, fp, lsl #6
    33b4:	00252907 	eoreq	r2, r5, r7, lsl #18
    33b8:	11ac0000 			; <UNDEFINED> instruction: 0x11ac0000
    33bc:	97320000 	ldrls	r0, [r2, -r0]!
    33c0:	2f000000 	svccs	0x00000000
    33c4:	01643500 	cmneq	r4, r0, lsl #10
    33c8:	66070000 	strvs	r0, [r7], -r0
    33cc:	00077931 	andeq	r7, r7, r1, lsr r9
    33d0:	c41d0600 	ldrgt	r0, [sp], #-1536	; 0x600
    33d4:	32000011 	andcc	r0, r0, #17
    33d8:	0000002c 	andeq	r0, r0, ip, lsr #32
    33dc:	02423100 	subeq	r3, r2, #0, 2
    33e0:	1c060000 	stcne	0, cr0, [r6], {-0}
    33e4:	000011d5 	ldrdeq	r1, [r0], -r5
    33e8:	00002c32 	andeq	r2, r0, r2, lsr ip
    33ec:	08360000 	ldmdaeq	r6!, {}	; <UNPREDICTABLE>
    33f0:	08000003 	stmdaeq	r0, {r0, r1}
    33f4:	00002502 	andeq	r2, r0, r2, lsl #10
    33f8:	008a3200 	addeq	r3, sl, r0, lsl #4
    33fc:	25320000 	ldrcs	r0, [r2, #-0]!
    3400:	32000000 	andcc	r0, r0, #0
    3404:	00000097 	muleq	r0, r7, r0
    3408:	00010632 	andeq	r0, r1, r2, lsr r6
    340c:	ff000000 			; <UNDEFINED> instruction: 0xff000000
    3410:	04000003 	streq	r0, [r0], #-3
    3414:	00100d00 	andseq	r0, r0, r0, lsl #26
    3418:	b1010400 	tstlt	r1, r0, lsl #8
    341c:	01000002 	tsteq	r0, r2
    3420:	000009f6 	strdeq	r0, [r0], -r6
    3424:	0000031c 	andeq	r0, r0, ip, lsl r3
    3428:	000099a0 	andeq	r9, r0, r0, lsr #19
    342c:	00000154 	andeq	r0, r0, r4, asr r1
    3430:	00000e1b 	andeq	r0, r0, fp, lsl lr
    3434:	69050402 	stmdbvs	r5, {r1, sl}
    3438:	0300746e 	movweq	r7, #1134	; 0x46e
    343c:	00330704 	eorseq	r0, r3, r4, lsl #14
    3440:	01030000 	mrseq	r0, (UNDEF: 3)
    3444:	00019506 	andeq	r9, r1, r6, lsl #10
    3448:	05020300 	streq	r0, [r2, #-768]	; 0x300
    344c:	000001a1 	andeq	r0, r0, r1, lsr #3
    3450:	45050403 	strmi	r0, [r5, #-1027]	; 0x403
    3454:	03000000 	movweq	r0, #0
    3458:	00400508 	subeq	r0, r0, r8, lsl #10
    345c:	01030000 	mrseq	r0, (UNDEF: 3)
    3460:	00019308 	andeq	r9, r1, r8, lsl #6
    3464:	07020300 	streq	r0, [r2, -r0, lsl #6]
    3468:	00000127 	andeq	r0, r0, r7, lsr #2
    346c:	2e070403 	cdpcs	4, 0, cr0, cr7, cr3, {0}
    3470:	03000000 	movweq	r0, #0
    3474:	00290708 	eoreq	r0, r9, r8, lsl #14
    3478:	04030000 	streq	r0, [r3], #-0
    347c:	00017107 	andeq	r7, r1, r7, lsl #2
    3480:	08010300 	stmdaeq	r1, {r8, r9}
    3484:	0000019c 	muleq	r0, ip, r1
    3488:	0c020104 	stfeqs	f0, [r2], {4}
    348c:	000000b2 	strheq	r0, [r0], -r2
    3490:	00067905 	andeq	r7, r6, r5, lsl #18
    3494:	89050000 	stmdbhi	r5, {}	; <UNPREDICTABLE>
    3498:	01000007 	tsteq	r0, r7
    349c:	0007c205 	andeq	ip, r7, r5, lsl #4
    34a0:	d1050400 	tstle	r5, r0, lsl #8
    34a4:	05000007 	streq	r0, [r0, #-7]
    34a8:	0007e005 	andeq	lr, r7, r5
    34ac:	ef050600 	svc	0x00050600
    34b0:	07000007 	streq	r0, [r0, -r7]
    34b4:	0007fe05 	andeq	pc, r7, r5, lsl #28
    34b8:	0d050300 	stceq	3, cr0, [r5, #-0]
    34bc:	02000008 	andeq	r0, r0, #8
    34c0:	07b60600 	ldreq	r0, [r6, r0, lsl #12]!
    34c4:	15020000 	strne	r0, [r2, #-0]
    34c8:	00000079 	andeq	r0, r0, r9, ror r0
    34cc:	00097d07 	andeq	r7, r9, r7, lsl #26
    34d0:	a0370100 	eorsge	r0, r7, r0, lsl #2
    34d4:	9c000099 	stcls	0, cr0, [r0], {153}	; 0x99
    34d8:	01000000 	mrseq	r0, (UNDEF: 0)
    34dc:	0001c39c 	muleq	r1, ip, r3
    34e0:	99a80800 	stmibls	r8!, {fp}
    34e4:	03a80000 			; <UNDEFINED> instruction: 0x03a80000
    34e8:	b4090000 	strlt	r0, [r9], #-0
    34ec:	af000099 	svcge	0x00000099
    34f0:	f3000003 	vhadd.u8	d0, d0, d3
    34f4:	0a000000 	beq	34fc <_start-0x4b04>
    34f8:	32015101 	andcc	r5, r1, #1073741824	; 0x40000000
    34fc:	0150010a 	cmpeq	r0, sl, lsl #2
    3500:	c009003e 	andgt	r0, r9, lr, lsr r0
    3504:	af000099 	svcge	0x00000099
    3508:	0b000003 	bleq	351c <_start-0x4ae4>
    350c:	0a000001 	beq	3518 <_start-0x4ae8>
    3510:	32015101 	andcc	r5, r1, #1073741824	; 0x40000000
    3514:	0150010a 	cmpeq	r0, sl, lsl #2
    3518:	c408003f 	strgt	r0, [r8], #-63	; 0x3f
    351c:	a8000099 	stmdage	r0, {r0, r3, r4, r7}
    3520:	09000003 	stmdbeq	r0, {r0, r1}
    3524:	000099d4 	ldrdeq	r9, [r0], -r4
    3528:	000003c5 	andeq	r0, r0, r5, asr #7
    352c:	00000128 	andeq	r0, r0, r8, lsr #2
    3530:	0250010a 	subseq	r0, r0, #-2147483646	; 0x80000002
    3534:	09000075 	stmdbeq	r0, {r0, r2, r4, r5, r6}
    3538:	000099e0 	andeq	r9, r0, r0, ror #19
    353c:	000003e6 	andeq	r0, r0, r6, ror #7
    3540:	0000013c 	andeq	r0, r0, ip, lsr r1
    3544:	0250010a 	subseq	r0, r0, #-2147483646	; 0x80000002
    3548:	08000075 	stmdaeq	r0, {r0, r2, r4, r5, r6}
    354c:	000099e4 	andeq	r9, r0, r4, ror #19
    3550:	000003a8 	andeq	r0, r0, r8, lsr #7
    3554:	0099f009 	addseq	pc, r9, r9
    3558:	0003e600 	andeq	lr, r3, r0, lsl #12
    355c:	00015800 	andeq	r5, r1, r0, lsl #16
    3560:	51010a00 	tstpl	r1, r0, lsl #20
    3564:	09003001 	stmdbeq	r0, {r0, ip, sp}
    3568:	000099fc 	strdeq	r9, [r0], -ip
    356c:	000003e6 	andeq	r0, r0, r6, ror #7
    3570:	0000016b 	andeq	r0, r0, fp, ror #2
    3574:	0151010a 	cmpeq	r1, sl, lsl #2
    3578:	08090030 	stmdaeq	r9, {r4, r5}
    357c:	e600009a 			; <UNDEFINED> instruction: 0xe600009a
    3580:	7e000003 	cdpvc	0, 0, cr0, cr0, cr3, {0}
    3584:	0a000001 	beq	3590 <_start-0x4a70>
    3588:	36015101 	strcc	r5, [r1], -r1, lsl #2
    358c:	9a140900 	bls	505994 <__bss_end__+0x4fb5fc>
    3590:	03e60000 	mvneq	r0, #0
    3594:	01910000 	orrseq	r0, r1, r0
    3598:	010a0000 	mrseq	r0, (UNDEF: 10)
    359c:	00330151 	eorseq	r0, r3, r1, asr r1
    35a0:	009a2009 	addseq	r2, sl, r9
    35a4:	0003e600 	andeq	lr, r3, r0, lsl #12
    35a8:	0001a600 	andeq	sl, r1, r0, lsl #12
    35ac:	51010a00 	tstpl	r1, r0, lsl #20
    35b0:	010e0a03 	tsteq	lr, r3, lsl #20
    35b4:	9a2c0900 	bls	b059bc <__bss_end__+0xafb624>
    35b8:	03e60000 	mvneq	r0, #0
    35bc:	01b90000 			; <UNDEFINED> instruction: 0x01b90000
    35c0:	010a0000 	mrseq	r0, (UNDEF: 10)
    35c4:	00330151 	eorseq	r0, r3, r1, asr r1
    35c8:	009a3008 	addseq	r3, sl, r8
    35cc:	0003a800 	andeq	sl, r3, r0, lsl #16
    35d0:	510b0000 	mrspl	r0, (UNDEF: 11)
    35d4:	01000009 	tsteq	r0, r9
    35d8:	00002557 	andeq	r2, r0, r7, asr r5
    35dc:	009a3c00 	addseq	r3, sl, r0, lsl #24
    35e0:	00001c00 	andeq	r1, r0, r0, lsl #24
    35e4:	e69c0100 	ldr	r0, [ip], r0, lsl #2
    35e8:	08000001 	stmdaeq	r0, {r0}
    35ec:	00009a4c 	andeq	r9, r0, ip, asr #20
    35f0:	000003c5 	andeq	r0, r0, r5, asr #7
    35f4:	086e0b00 	stmdaeq	lr!, {r8, r9, fp}^
    35f8:	5d010000 	stcpl	0, cr0, [r1, #-0]
    35fc:	00000025 	andeq	r0, r0, r5, lsr #32
    3600:	00009a58 	andeq	r9, r0, r8, asr sl
    3604:	00000028 	andeq	r0, r0, r8, lsr #32
    3608:	02129c01 	andseq	r9, r2, #256	; 0x100
    360c:	60080000 	andvs	r0, r8, r0
    3610:	c300009a 	movwgt	r0, #154	; 0x9a
    3614:	08000001 	stmdaeq	r0, {r0}
    3618:	00009a74 	andeq	r9, r0, r4, ror sl
    361c:	000003c5 	andeq	r0, r0, r5, asr #7
    3620:	09a50b00 	stmibeq	r5!, {r8, r9, fp}
    3624:	64010000 	strvs	r0, [r1], #-0
    3628:	00000025 	andeq	r0, r0, r5, lsr #32
    362c:	00009a80 	andeq	r9, r0, r0, lsl #21
    3630:	0000001c 	andeq	r0, r0, ip, lsl r0
    3634:	02359c01 	eorseq	r9, r5, #256	; 0x100
    3638:	90080000 	andls	r0, r8, r0
    363c:	c500009a 	strgt	r0, [r0, #-154]	; 0x9a
    3640:	00000003 	andeq	r0, r0, r3
    3644:	00050307 	andeq	r0, r5, r7, lsl #6
    3648:	9c6a0100 	stflse	f0, [sl], #-0
    364c:	2c00009a 	stccs	0, cr0, [r0], {154}	; 0x9a
    3650:	01000000 	mrseq	r0, (UNDEF: 0)
    3654:	0002719c 	muleq	r2, ip, r1
    3658:	00630c00 	rsbeq	r0, r3, r0, lsl #24
    365c:	002c6a01 	eoreq	r6, ip, r1, lsl #20
    3660:	25dd0000 	ldrbcs	r0, [sp]
    3664:	a8080000 	stmdage	r8, {}	; <UNPREDICTABLE>
    3668:	1200009a 	andne	r0, r0, #154	; 0x9a
    366c:	0d000002 	stceq	0, cr0, [r0, #-8]
    3670:	00009ac0 	andeq	r9, r0, r0, asr #21
    3674:	000003e6 	andeq	r0, r0, r6, ror #7
    3678:	0251010a 	subseq	r0, r1, #-2147483646	; 0x80000002
    367c:	00000074 	andeq	r0, r0, r4, ror r0
    3680:	00096f0b 	andeq	r6, r9, fp, lsl #30
    3684:	25740100 	ldrbcs	r0, [r4, #-256]!	; 0x100
    3688:	c8000000 	stmdagt	r0, {}	; <UNPREDICTABLE>
    368c:	0c00009a 	stceq	0, cr0, [r0], {154}	; 0x9a
    3690:	01000000 	mrseq	r0, (UNDEF: 0)
    3694:	0002949c 	muleq	r2, ip, r4
    3698:	9ad00800 	bls	ff4056a0 <__bss_end__+0xff3fb308>
    369c:	01c30000 	biceq	r0, r3, r0
    36a0:	0b000000 	bleq	36a8 <_start-0x4958>
    36a4:	00000a22 	andeq	r0, r0, r2, lsr #20
    36a8:	00257801 	eoreq	r7, r5, r1, lsl #16
    36ac:	9ad40000 	bls	ff5036b4 <__bss_end__+0xff4f931c>
    36b0:	00200000 	eoreq	r0, r0, r0
    36b4:	9c010000 	stcls	0, cr0, [r1], {-0}
    36b8:	000002c0 	andeq	r0, r0, r0, asr #5
    36bc:	009adc08 	addseq	sp, sl, r8, lsl #24
    36c0:	00027100 	andeq	r7, r2, r0, lsl #2
    36c4:	9ae80800 	bls	ffa056cc <__bss_end__+0xff9fb334>
    36c8:	01e60000 	mvneq	r0, r0
    36cc:	0e000000 	cdpeq	0, 0, cr0, cr0, cr0, {0}
    36d0:	000009bf 			; <UNDEFINED> instruction: 0x000009bf
    36d4:	02d11601 	sbcseq	r1, r1, #1048576	; 0x100000
    36d8:	03050000 	movweq	r0, #20480	; 0x5000
    36dc:	00009c60 	andeq	r9, r0, r0, ror #24
    36e0:	02d7040f 	sbcseq	r0, r7, #251658240	; 0xf000000
    36e4:	2c100000 	ldccs	0, cr0, [r0], {-0}
    36e8:	0e000000 	cdpeq	0, 0, cr0, cr0, cr0, {0}
    36ec:	000009b3 			; <UNDEFINED> instruction: 0x000009b3
    36f0:	02d11701 	sbcseq	r1, r1, #262144	; 0x40000
    36f4:	03050000 	movweq	r0, #20480	; 0x5000
    36f8:	00009c30 	andeq	r9, r0, r0, lsr ip
    36fc:	0009340e 	andeq	r3, r9, lr, lsl #8
    3700:	d11a0100 	tstle	sl, r0, lsl #2
    3704:	05000002 	streq	r0, [r0, #-2]
    3708:	009c4c03 	addseq	r4, ip, r3, lsl #24
    370c:	09870e00 	stmibeq	r7, {r9, sl, fp}
    3710:	1b010000 	blne	43718 <__bss_end__+0x39380>
    3714:	000002d1 	ldrdeq	r0, [r0], -r1
    3718:	9c380305 	ldcls	3, cr0, [r8], #-20	; 0xffffffec
    371c:	960e0000 	strls	r0, [lr], -r0
    3720:	01000009 	tsteq	r0, r9
    3724:	0002d11c 	andeq	sp, r2, ip, lsl r1
    3728:	3c030500 	cfstr32cc	mvfx0, [r3], {-0}
    372c:	0e00009c 	mcreq	0, 0, r0, cr0, cr12, {4}
    3730:	00000a04 	andeq	r0, r0, r4, lsl #20
    3734:	02d11d01 	sbcseq	r1, r1, #1, 26	; 0x40
    3738:	03050000 	movweq	r0, #20480	; 0x5000
    373c:	00009c40 	andeq	r9, r0, r0, asr #24
    3740:	0009250e 	andeq	r2, r9, lr, lsl #10
    3744:	d11e0100 	tstle	lr, r0, lsl #2
    3748:	05000002 	streq	r0, [r0, #-2]
    374c:	009c5c03 	addseq	r5, ip, r3, lsl #24
    3750:	0a130e00 	beq	4c6f58 <__bss_end__+0x4bcbc0>
    3754:	1f010000 	svcne	0x00010000
    3758:	000002d1 	ldrdeq	r0, [r0], -r1
    375c:	9c480305 	mcrrls	3, 0, r0, r8, cr5
    3760:	420e0000 	andmi	r0, lr, #0
    3764:	01000009 	tsteq	r0, r9
    3768:	0002d120 	andeq	sp, r2, r0, lsr #2
    376c:	58030500 	stmdapl	r3, {r8, sl}
    3770:	0e00009c 	mcreq	0, 0, r0, cr0, cr12, {4}
    3774:	000009e7 	andeq	r0, r0, r7, ror #19
    3778:	02d12101 	sbcseq	r2, r1, #1073741824	; 0x40000000
    377c:	03050000 	movweq	r0, #20480	; 0x5000
    3780:	00009c54 	andeq	r9, r0, r4, asr ip
    3784:	00095f0e 	andeq	r5, r9, lr, lsl #30
    3788:	d1220100 	teqle	r2, r0, lsl #2
    378c:	05000002 	streq	r0, [r0, #-2]
    3790:	009c3403 	addseq	r3, ip, r3, lsl #8
    3794:	09d70e00 	ldmibeq	r7, {r9, sl, fp}^
    3798:	23010000 	movwcs	r0, #4096	; 0x1000
    379c:	000002d1 	ldrdeq	r0, [r0], -r1
    37a0:	9c500305 	mrrcls	3, 0, r0, r0, cr5	; <UNPREDICTABLE>
    37a4:	c70e0000 	strgt	r0, [lr, -r0]
    37a8:	01000009 	tsteq	r0, r9
    37ac:	0002d124 	andeq	sp, r2, r4, lsr #2
    37b0:	44030500 	strmi	r0, [r3], #-1280	; 0x500
    37b4:	1100009c 	swpne	r0, ip, [r0]	; <UNPREDICTABLE>
    37b8:	000006bf 			; <UNDEFINED> instruction: 0x000006bf
    37bc:	e0128a03 	ands	r8, r2, r3, lsl #20
    37c0:	02000006 	andeq	r0, r0, #6
    37c4:	0003c519 	andeq	ip, r3, r9, lsl r5
    37c8:	002c1300 	eoreq	r1, ip, r0, lsl #6
    37cc:	b2130000 	andslt	r0, r3, #0
    37d0:	00000000 	andeq	r0, r0, r0
    37d4:	00079a14 	andeq	r9, r7, r4, lsl sl
    37d8:	2ca90300 	stccs	3, cr0, [r9]
    37dc:	da000000 	ble	37e4 <_start-0x481c>
    37e0:	13000003 	movwne	r0, #3
    37e4:	000003da 	ldrdeq	r0, [r0], -sl
    37e8:	e0040f00 	and	r0, r4, r0, lsl #30
    37ec:	15000003 	strne	r0, [r0, #-3]
    37f0:	000003e5 	andeq	r0, r0, r5, ror #7
    37f4:	06591216 			; <UNDEFINED> instruction: 0x06591216
    37f8:	9d030000 	stcls	0, cr0, [r3, #-0]
    37fc:	000003fc 	strdeq	r0, [r0], -ip
    3800:	0003fc13 	andeq	pc, r3, r3, lsl ip	; <UNPREDICTABLE>
    3804:	002c1300 	eoreq	r1, ip, r0, lsl #6
    3808:	0f000000 	svceq	0x00000000
    380c:	0003e504 	andeq	lr, r3, r4, lsl #10
    3810:	01c30000 	biceq	r0, r3, r0
    3814:	00040000 	andeq	r0, r4, r0
    3818:	0000113b 	andeq	r1, r0, fp, lsr r1
    381c:	02b10104 	adcseq	r0, r1, #4, 2
    3820:	47010000 	strmi	r0, [r1, -r0]
    3824:	1c00000a 	stcne	0, cr0, [r0], {10}
    3828:	58000003 	stmdapl	r0, {r0, r1}
    382c:	5000009b 	mulpl	r0, fp, r0
    3830:	20000000 	andcs	r0, r0, r0
    3834:	0200000f 	andeq	r0, r0, #15
    3838:	6e690504 	cdpvs	5, 6, cr0, cr9, cr4, {0}
    383c:	32030074 	andcc	r0, r3, #116	; 0x74
    3840:	0200000a 	andeq	r0, r0, #10
    3844:	000037d4 	ldrdeq	r3, [r0], -r4
    3848:	07040400 	streq	r0, [r4, -r0, lsl #8]
    384c:	00000033 	andeq	r0, r0, r3, lsr r0
    3850:	95060104 	strls	r0, [r6, #-260]	; 0x104
    3854:	04000001 	streq	r0, [r0], #-1
    3858:	01a10502 			; <UNDEFINED> instruction: 0x01a10502
    385c:	04040000 	streq	r0, [r4], #-0
    3860:	00004505 	andeq	r4, r0, r5, lsl #10
    3864:	05080400 	streq	r0, [r8, #-1024]	; 0x400
    3868:	00000040 	andeq	r0, r0, r0, asr #32
    386c:	00050d03 	andeq	r0, r5, r3, lsl #26
    3870:	652e0300 	strvs	r0, [lr, #-768]!	; 0x300
    3874:	04000000 	streq	r0, [r0], #-0
    3878:	01930801 	orrseq	r0, r3, r1, lsl #16
    387c:	02040000 	andeq	r0, r4, #0
    3880:	00012707 	andeq	r2, r1, r7, lsl #14
    3884:	05640300 	strbeq	r0, [r4, #-768]!	; 0x300
    3888:	34030000 	strcc	r0, [r3], #-0
    388c:	0000007e 	andeq	r0, r0, lr, ror r0
    3890:	2e070404 	cdpcs	4, 0, cr0, cr7, cr4, {0}
    3894:	04000000 	streq	r0, [r0], #-0
    3898:	00290708 	eoreq	r0, r9, r8, lsl #14
    389c:	04040000 	streq	r0, [r4], #-0
    38a0:	00017107 	andeq	r7, r1, r7, lsl #2
    38a4:	04040500 	streq	r0, [r4], #-1280	; 0x500
    38a8:	019c0801 	orrseq	r0, ip, r1, lsl #16
    38ac:	0c060000 	stceq	0, cr0, [r6], {-0}
    38b0:	00d30e04 	sbcseq	r0, r3, r4, lsl #28
    38b4:	74070000 	strvc	r0, [r7], #-0
    38b8:	0f040078 	svceq	0x00040078
    38bc:	0000005a 	andeq	r0, r0, sl, asr r0
    38c0:	78720700 	ldmdavc	r2!, {r8, r9, sl}^
    38c4:	5a0f0400 	bpl	3c48cc <__bss_end__+0x3ba534>
    38c8:	01000000 	mrseq	r0, (UNDEF: 0)
    38cc:	0004db08 	andeq	sp, r4, r8, lsl #22
    38d0:	73100400 	tstvc	r0, #0, 8
    38d4:	04000000 	streq	r0, [r0], #-0
    38d8:	00048c08 	andeq	r8, r4, r8, lsl #24
    38dc:	73110400 	tstvc	r1, #0, 8
    38e0:	08000000 	stmdaeq	r0, {}	; <UNPREDICTABLE>
    38e4:	04c40300 	strbeq	r0, [r4], #768	; 0x300
    38e8:	12040000 	andne	r0, r4, #0
    38ec:	0000009c 	muleq	r0, ip, r0
    38f0:	10050109 	andne	r0, r5, r9, lsl #2
    38f4:	000000f9 	strdeq	r0, [r0], -r9
    38f8:	0004e00a 	andeq	lr, r4, sl
    38fc:	ce0a0100 	adfgte	f0, f2, f0
    3900:	02000004 	andeq	r0, r0, #4
    3904:	0004b60a 	andeq	fp, r4, sl, lsl #12
    3908:	03000300 	movweq	r0, #768	; 0x300
    390c:	000004f5 	strdeq	r0, [r0], -r5
    3910:	00de1005 	sbcseq	r1, lr, r5
    3914:	14060000 	strne	r0, [r6], #-0
    3918:	01311405 	teqeq	r1, r5, lsl #8
    391c:	6d080000 	stcvs	0, cr0, [r8, #-0]
    3920:	05000005 	streq	r0, [r0, #-5]
    3924:	00003715 	andeq	r3, r0, r5, lsl r7
    3928:	58080000 	stmdapl	r8, {}	; <UNPREDICTABLE>
    392c:	05000005 	streq	r0, [r0, #-5]
    3930:	0000f918 	andeq	pc, r0, r8, lsl r9	; <UNPREDICTABLE>
    3934:	23080400 	movwcs	r0, #33792	; 0x8400
    3938:	05000005 	streq	r0, [r0, #-5]
    393c:	0000d31b 	andeq	sp, r0, fp, lsl r3
    3940:	03000800 	movweq	r0, #2048	; 0x800
    3944:	00000515 	andeq	r0, r0, r5, lsl r5
    3948:	01042005 	tsteq	r4, r5
    394c:	400b0000 	andmi	r0, fp, r0
    3950:	0100000a 	tsteq	r0, sl
    3954:	00017e05 	andeq	r7, r1, r5, lsl #28
    3958:	009b5800 	addseq	r5, fp, r0, lsl #16
    395c:	00002800 	andeq	r2, r0, r0, lsl #16
    3960:	7e9c0100 	fmlvce	f0, f4, f0
    3964:	0c000001 	stceq	0, cr0, [r0], {1}
    3968:	06010063 	streq	r0, [r1], -r3, rrx
    396c:	0000017e 	andeq	r0, r0, lr, ror r1
    3970:	09000000 	stmdbeq	r0, {}	; <UNPREDICTABLE>
    3974:	009b6c0d 	addseq	r6, fp, sp, lsl #24
    3978:	0001ab00 	andeq	sl, r1, r0, lsl #22
    397c:	52010e00 	andpl	r0, r1, #0, 28
    3980:	010e3401 	tsteq	lr, r1, lsl #8
    3984:	0e300151 	mrceq	1, 1, r0, cr0, cr1, {2}
    3988:	42035001 	andmi	r5, r3, #1
    398c:	00002447 	andeq	r2, r0, r7, asr #8
    3990:	0131040f 	teqeq	r1, pc, lsl #8
    3994:	2b0b0000 	blcs	2c399c <__bss_end__+0x2b9604>
    3998:	01000005 	tsteq	r0, r5
    399c:	00017e0c 	andeq	r7, r1, ip, lsl #28
    39a0:	009b8000 	addseq	r8, fp, r0
    39a4:	00002800 	andeq	r2, r0, r0, lsl #16
    39a8:	ab9c0100 	blge	fe703db0 <__bss_end__+0xfe6f9a18>
    39ac:	0c000001 	stceq	0, cr0, [r0], {1}
    39b0:	0d010063 	stceq	0, cr0, [r1, #-396]	; 0xfffffe74
    39b4:	0000017e 	andeq	r0, r0, lr, ror r1
    39b8:	09000000 	stmdbeq	r0, {}	; <UNPREDICTABLE>
    39bc:	0a391000 	beq	e479c4 <__bss_end__+0xe3d62c>
    39c0:	1b060000 	blne	1839c8 <__bss_end__+0x179630>
    39c4:	00000093 	muleq	r0, r3, r0
    39c8:	00009311 	andeq	r9, r0, r1, lsl r3
    39cc:	00251100 	eoreq	r1, r5, r0, lsl #2
    39d0:	2c110000 	ldccs	0, cr0, [r1], {-0}
    39d4:	00000000 	andeq	r0, r0, r0
    39d8:	0000db00 	andeq	sp, r0, r0, lsl #22
    39dc:	1f000400 	svcne	0x00000400
    39e0:	04000012 	streq	r0, [r0], #-18
    39e4:	0002b101 	andeq	fp, r2, r1, lsl #2
    39e8:	0a620100 	beq	1883df0 <__bss_end__+0x1879a58>
    39ec:	031c0000 	tsteq	ip, #0
    39f0:	9ba80000 	blls	fea039f8 <__bss_end__+0xfe9f9660>
    39f4:	00200000 	eoreq	r0, r0, r0
    39f8:	104c0000 	subne	r0, ip, r0
    39fc:	01020000 	mrseq	r0, (UNDEF: 2)
    3a00:	00019506 	andeq	r9, r1, r6, lsl #10
    3a04:	08010200 	stmdaeq	r1, {r9}
    3a08:	00000193 	muleq	r0, r3, r1
    3a0c:	a1050202 	tstge	r5, r2, lsl #4
    3a10:	02000001 	andeq	r0, r0, #1
    3a14:	01270702 	teqeq	r7, r2, lsl #14
    3a18:	04030000 	streq	r0, [r3], #-0
    3a1c:	746e6905 	strbtvc	r6, [lr], #-2309	; 0x905
    3a20:	07040200 	streq	r0, [r4, -r0, lsl #4]
    3a24:	00000033 	andeq	r0, r0, r3, lsr r0
    3a28:	40050802 	andmi	r0, r5, r2, lsl #16
    3a2c:	02000000 	andeq	r0, r0, #0
    3a30:	00290708 	eoreq	r0, r9, r8, lsl #14
    3a34:	04020000 	streq	r0, [r2], #-0
    3a38:	00004505 	andeq	r4, r0, r5, lsl #10
    3a3c:	07040200 	streq	r0, [r4, -r0, lsl #4]
    3a40:	00000171 	andeq	r0, r0, r1, ror r1
    3a44:	04020404 	streq	r0, [r2], #-1028	; 0x404
    3a48:	00002e07 	andeq	r2, r0, r7, lsl #28
    3a4c:	7a040500 	bvc	104e54 <__bss_end__+0xfaabc>
    3a50:	02000000 	andeq	r0, r0, #0
    3a54:	019c0801 	orrseq	r0, ip, r1, lsl #16
    3a58:	32060000 	andcc	r0, r6, #0
    3a5c:	0200000a 	andeq	r0, r0, #10
    3a60:	000048d4 	ldrdeq	r4, [r0], -r4	; <UNPREDICTABLE>
    3a64:	0a390700 	beq	e4566c <__bss_end__+0xe3b2d4>
    3a68:	1b030000 	blne	c3a70 <__bss_end__+0xb96d8>
    3a6c:	0000006b 	andeq	r0, r0, fp, rrx
    3a70:	00009ba8 	andeq	r9, r0, r8, lsr #23
    3a74:	00000020 	andeq	r0, r0, r0, lsr #32
    3a78:	5f089c01 	svcpl	0x00089c01
    3a7c:	03010070 	movweq	r0, #4208	; 0x1070
    3a80:	0000006b 	andeq	r0, r0, fp, rrx
    3a84:	63085001 	movwvs	r5, #32769	; 0x8001
    3a88:	41030100 	mrsmi	r0, (UNDEF: 19)
    3a8c:	01000000 	mrseq	r0, (UNDEF: 0)
    3a90:	006e0951 	rsbeq	r0, lr, r1, asr r9
    3a94:	00810301 	addeq	r0, r1, r1, lsl #6
    3a98:	25fb0000 	ldrbcs	r0, [fp, #0]!
    3a9c:	700a0000 	andvc	r0, sl, r0
    3aa0:	74040100 	strvc	r0, [r4], #-256	; 0x100
    3aa4:	1c000000 	stcne	0, cr0, [r0], {-0}
    3aa8:	0b000026 	bleq	3b48 <_start-0x44b8>
    3aac:	04010065 	streq	r0, [r1], #-101	; 0x65
    3ab0:	00000074 	andeq	r0, r0, r4, ror r0
    3ab4:	00005201 	andeq	r5, r0, r1, lsl #4

Disassembly of section .debug_abbrev:

00000000 <.debug_abbrev>:
       0:	25011101 	strcs	r1, [r1, #-257]	; 0x101
       4:	030b130e 	movweq	r1, #45838	; 0xb30e
       8:	110e1b0e 	tstne	lr, lr, lsl #22
       c:	10061201 	andne	r1, r6, r1, lsl #4
      10:	02000017 	andeq	r0, r0, #23
      14:	0b0b0024 	bleq	2c00ac <__bss_end__+0x2b5d14>
      18:	08030b3e 	stmdaeq	r3, {r1, r2, r3, r4, r5, r8, r9, fp}
      1c:	24030000 	strcs	r0, [r3], #-0
      20:	3e0b0b00 	vmlacc.f64	d0, d11, d0
      24:	000e030b 	andeq	r0, lr, fp, lsl #6
      28:	000f0400 	andeq	r0, pc, r0, lsl #8
      2c:	13490b0b 	movtne	r0, #39691	; 0x9b0b
      30:	26050000 	strcs	r0, [r5], -r0
      34:	00134900 	andseq	r4, r3, r0, lsl #18
      38:	01130600 	tsteq	r3, r0, lsl #12
      3c:	0b3a0b0b 	bleq	e82c70 <__bss_end__+0xe788d8>
      40:	13010b3b 	movwne	r0, #6971	; 0x1b3b
      44:	0d070000 	stceq	0, cr0, [r7, #-0]
      48:	3a080300 	bcc	200c50 <__bss_end__+0x1f68b8>
      4c:	490b3b0b 	stmdbmi	fp, {r0, r1, r3, r8, r9, fp, ip, sp}
      50:	000b3813 	andeq	r3, fp, r3, lsl r8
      54:	000d0800 	andeq	r0, sp, r0, lsl #16
      58:	0b3a0e03 	bleq	e8386c <__bss_end__+0xe794d4>
      5c:	13490b3b 	movtne	r0, #39739	; 0x9b3b
      60:	00000b38 	andeq	r0, r0, r8, lsr fp
      64:	03001609 	movweq	r1, #1545	; 0x609
      68:	3b0b3a0e 	blcc	2ce8a8 <__bss_end__+0x2c4510>
      6c:	0013490b 	andseq	r4, r3, fp, lsl #18
      70:	012e0a00 	teqeq	lr, r0, lsl #20
      74:	0b3a0e03 	bleq	e83888 <__bss_end__+0xe794f0>
      78:	19270b3b 	stmdbne	r7!, {r0, r1, r3, r4, r5, r8, r9, fp}
      7c:	0b201349 	bleq	804da8 <__bss_end__+0x7faa10>
      80:	00001301 	andeq	r1, r0, r1, lsl #6
      84:	0300050b 	movweq	r0, #1291	; 0x50b
      88:	3b0b3a08 	blcc	2ce8b0 <__bss_end__+0x2c4518>
      8c:	0013490b 	andseq	r4, r3, fp, lsl #18
      90:	012e0c00 	teqeq	lr, r0, lsl #24
      94:	0e03193f 	mcreq	9, 0, r1, cr3, cr15, {1}
      98:	0b3b0b3a 	bleq	ec2d88 <__bss_end__+0xeb89f0>
      9c:	13491927 	movtne	r1, #39207	; 0x9927
      a0:	06120111 			; <UNDEFINED> instruction: 0x06120111
      a4:	42971840 	addsmi	r1, r7, #64, 16	; 0x400000
      a8:	00130119 	andseq	r0, r3, r9, lsl r1
      ac:	00050d00 	andeq	r0, r5, r0, lsl #26
      b0:	0b3a0803 	bleq	e820c4 <__bss_end__+0xe77d2c>
      b4:	13490b3b 	movtne	r0, #39739	; 0x9b3b
      b8:	00001702 	andeq	r1, r0, r2, lsl #14
      bc:	0300340e 	movweq	r3, #1038	; 0x40e
      c0:	3413490e 	ldrcc	r4, [r3], #-2318	; 0x90e
      c4:	00180219 	andseq	r0, r8, r9, lsl r2
      c8:	00340f00 	eorseq	r0, r4, r0, lsl #30
      cc:	0b3a0e03 	bleq	e838e0 <__bss_end__+0xe79548>
      d0:	13490b3b 	movtne	r0, #39739	; 0x9b3b
      d4:	34100000 	ldrcc	r0, [r0], #-0
      d8:	3a0e0300 	bcc	380ce0 <__bss_end__+0x376948>
      dc:	490b3b0b 	stmdbmi	fp, {r0, r1, r3, r8, r9, fp, ip, sp}
      e0:	00170213 	andseq	r0, r7, r3, lsl r2
      e4:	010b1100 	mrseq	r1, (UNDEF: 27)
      e8:	06120111 			; <UNDEFINED> instruction: 0x06120111
      ec:	00001301 	andeq	r1, r0, r1, lsl #6
      f0:	01828912 	orreq	r8, r2, r2, lsl r9
      f4:	31011101 	tstcc	r1, r1, lsl #2
      f8:	00130113 	andseq	r0, r3, r3, lsl r1
      fc:	828a1300 	addhi	r1, sl, #0, 6
     100:	18020001 	stmdane	r2, {r0}
     104:	00184291 	mulseq	r8, r1, r2
     108:	82891400 	addhi	r1, r9, #0, 8
     10c:	01110001 	tsteq	r1, r1
     110:	00001331 	andeq	r1, r0, r1, lsr r3
     114:	49010115 	stmdbmi	r1, {r0, r2, r4, r8}
     118:	00130113 	andseq	r0, r3, r3, lsl r1
     11c:	00211600 	eoreq	r1, r1, r0, lsl #12
     120:	0b2f1349 	bleq	bc4e4c <__bss_end__+0xbbaab4>
     124:	05170000 	ldreq	r0, [r7, #-0]
     128:	3a0e0300 	bcc	380d30 <__bss_end__+0x376998>
     12c:	490b3b0b 	stmdbmi	fp, {r0, r1, r3, r8, r9, fp, ip, sp}
     130:	00170213 	andseq	r0, r7, r3, lsl r2
     134:	00341800 	eorseq	r1, r4, r0, lsl #16
     138:	0b3a0e03 	bleq	e8394c <__bss_end__+0xe795b4>
     13c:	13490b3b 	movtne	r0, #39739	; 0x9b3b
     140:	00001802 	andeq	r1, r0, r2, lsl #16
     144:	31011d19 	tstcc	r1, r9, lsl sp
     148:	55015213 	strpl	r5, [r1, #-531]	; 0x213
     14c:	590b5817 	stmdbpl	fp, {r0, r1, r2, r4, fp, ip, lr}
     150:	0013010b 	andseq	r0, r3, fp, lsl #2
     154:	00051a00 	andeq	r1, r5, r0, lsl #20
     158:	17021331 	smladxne	r2, r1, r3, r1
     15c:	0b1b0000 	bleq	6c0164 <__bss_end__+0x6b5dcc>
     160:	01175501 	tsteq	r7, r1, lsl #10
     164:	1c000013 	stcne	0, cr0, [r0], {19}
     168:	08030034 	stmdaeq	r3, {r2, r4, r5}
     16c:	0b3b0b3a 	bleq	ec2e5c <__bss_end__+0xeb8ac4>
     170:	17021349 	strne	r1, [r2, -r9, asr #6]
     174:	0b1d0000 	bleq	74017c <__bss_end__+0x735de4>
     178:	12011101 	andne	r1, r1, #1073741824	; 0x40000000
     17c:	1e000006 	cdpne	0, 0, cr0, cr0, cr6, {0}
     180:	1755010b 	ldrbne	r0, [r5, -fp, lsl #2]
     184:	891f0000 	ldmdbhi	pc, {}	; <UNPREDICTABLE>
     188:	11010182 	smlabbne	r1, r2, r1, r0
     18c:	00133101 	andseq	r3, r3, r1, lsl #2
     190:	012e2000 	teqeq	lr, r0
     194:	0e03193f 	mcreq	9, 0, r1, cr3, cr15, {1}
     198:	0b3b0b3a 	bleq	ec2e88 <__bss_end__+0xeb8af0>
     19c:	01111927 	tsteq	r1, r7, lsr #18
     1a0:	18400612 	stmdane	r0, {r1, r4, r9, sl}^
     1a4:	01194297 			; <UNDEFINED> instruction: 0x01194297
     1a8:	21000013 	tstcs	r0, r3, lsl r0
     1ac:	08030034 	stmdaeq	r3, {r2, r4, r5}
     1b0:	0b3b0b3a 	bleq	ec2ea0 <__bss_end__+0xeb8b08>
     1b4:	0b1c1349 	bleq	704ee0 <__bss_end__+0x6fab48>
     1b8:	34220000 	strtcc	r0, [r2], #-0
     1bc:	3a080300 	bcc	200dc4 <__bss_end__+0x1f6a2c>
     1c0:	490b3b0b 	stmdbmi	fp, {r0, r1, r3, r8, r9, fp, ip, sp}
     1c4:	00180213 	andseq	r0, r8, r3, lsl r2
     1c8:	00342300 	eorseq	r2, r4, r0, lsl #6
     1cc:	0b3a0e03 	bleq	e839e0 <__bss_end__+0xe79648>
     1d0:	13490b3b 	movtne	r0, #39739	; 0x9b3b
     1d4:	0000061c 	andeq	r0, r0, ip, lsl r6
     1d8:	49003524 	stmdbmi	r0, {r2, r5, r8, sl, ip, sp}
     1dc:	25000013 	strcs	r0, [r0, #-19]
     1e0:	193f012e 	ldmdbne	pc!, {r1, r2, r3, r5, r8}	; <UNPREDICTABLE>
     1e4:	0b3a0e03 	bleq	e839f8 <__bss_end__+0xe79660>
     1e8:	19270b3b 	stmdbne	r7!, {r0, r1, r3, r4, r5, r8, r9, fp}
     1ec:	1301193c 	movwne	r1, #6460	; 0x193c
     1f0:	05260000 	streq	r0, [r6, #-0]!
     1f4:	00134900 	andseq	r4, r3, r0, lsl #18
     1f8:	002e2700 	eoreq	r2, lr, r0, lsl #14
     1fc:	0e03193f 	mcreq	9, 0, r1, cr3, cr15, {1}
     200:	0b3b0b3a 	bleq	ec2ef0 <__bss_end__+0xeb8b58>
     204:	193c1927 	ldmdbne	ip!, {r0, r1, r2, r5, r8, fp, ip}
     208:	2e280000 	cdpcs	0, 2, cr0, cr8, cr0, {0}
     20c:	03193f01 	tsteq	r9, #1, 30
     210:	3b0b3a0e 	blcc	2cea50 <__bss_end__+0x2c46b8>
     214:	4919270b 	ldmdbmi	r9, {r0, r1, r3, r8, r9, sl, sp}
     218:	01193c13 	tsteq	r9, r3, lsl ip
     21c:	29000013 	stmdbcs	r0, {r0, r1, r4}
     220:	00000018 	andeq	r0, r0, r8, lsl r0
     224:	3f012e2a 	svccc	0x00012e2a
     228:	3a0e0319 	bcc	380e94 <__bss_end__+0x376afc>
     22c:	270b3b0b 	strcs	r3, [fp, -fp, lsl #22]
     230:	00193c19 	andseq	r3, r9, r9, lsl ip
     234:	11010000 	mrsne	r0, (UNDEF: 1)
     238:	130e2501 	movwne	r2, #58625	; 0xe501
     23c:	1b0e030b 	blne	380e70 <__bss_end__+0x376ad8>
     240:	1201110e 	andne	r1, r1, #-2147483645	; 0x80000003
     244:	00171006 	andseq	r1, r7, r6
     248:	00160200 	andseq	r0, r6, r0, lsl #4
     24c:	0b3a0e03 	bleq	e83a60 <__bss_end__+0xe796c8>
     250:	13490b3b 	movtne	r0, #39739	; 0x9b3b
     254:	13030000 	movwne	r0, #12288	; 0x3000
     258:	0b0e0301 	bleq	380e64 <__bss_end__+0x376acc>
     25c:	3b0b3a0b 	blcc	2cea90 <__bss_end__+0x2c46f8>
     260:	0013010b 	andseq	r0, r3, fp, lsl #2
     264:	000d0400 	andeq	r0, sp, r0, lsl #8
     268:	13490e03 	movtne	r0, #40451	; 0x9e03
     26c:	19340b38 	ldmdbne	r4!, {r3, r4, r5, r8, r9, fp}
     270:	0f050000 	svceq	0x00050000
     274:	000b0b00 	andeq	r0, fp, r0, lsl #22
     278:	00240600 	eoreq	r0, r4, r0, lsl #12
     27c:	0b3e0b0b 	bleq	f82eb0 <__bss_end__+0xf78b18>
     280:	00000803 	andeq	r0, r0, r3, lsl #16
     284:	0b002407 	bleq	92a8 <gpio_event_detected+0x4c>
     288:	030b3e0b 	movweq	r3, #48651	; 0xbe0b
     28c:	0800000e 	stmdaeq	r0, {r1, r2, r3}
     290:	0b0b000f 	bleq	2c02d4 <__bss_end__+0x2b5f3c>
     294:	00001349 	andeq	r1, r0, r9, asr #6
     298:	49002609 	stmdbmi	r0, {r0, r3, r9, sl, sp}
     29c:	0a000013 	beq	2f0 <_start-0x7d10>
     2a0:	193f012e 	ldmdbne	pc!, {r1, r2, r3, r5, r8}	; <UNPREDICTABLE>
     2a4:	0b3a0e03 	bleq	e83ab8 <__bss_end__+0xe79720>
     2a8:	19270b3b 	stmdbne	r7!, {r0, r1, r3, r4, r5, r8, r9, fp}
     2ac:	01111349 	tsteq	r1, r9, asr #6
     2b0:	18400612 	stmdane	r0, {r1, r4, r9, sl}^
     2b4:	01194297 			; <UNDEFINED> instruction: 0x01194297
     2b8:	0b000013 	bleq	30c <_start-0x7cf4>
     2bc:	08030005 	stmdaeq	r3, {r0, r2}
     2c0:	0b3b0b3a 	bleq	ec2fb0 <__bss_end__+0xeb8c18>
     2c4:	18021349 	stmdane	r2, {r0, r3, r6, r8, r9, ip}
     2c8:	180c0000 	stmdane	ip, {}	; <UNPREDICTABLE>
     2cc:	0d000000 	stceq	0, cr0, [r0, #-0]
     2d0:	08030034 	stmdaeq	r3, {r2, r4, r5}
     2d4:	0b3b0b3a 	bleq	ec2fc4 <__bss_end__+0xeb8c2c>
     2d8:	18021349 	stmdane	r2, {r0, r3, r6, r8, r9, ip}
     2dc:	340e0000 	strcc	r0, [lr], #-0
     2e0:	3a0e0300 	bcc	380ee8 <__bss_end__+0x376b50>
     2e4:	490b3b0b 	stmdbmi	fp, {r0, r1, r3, r8, r9, fp, ip, sp}
     2e8:	00180213 	andseq	r0, r8, r3, lsl r2
     2ec:	00340f00 	eorseq	r0, r4, r0, lsl #30
     2f0:	0b3a0803 	bleq	e82304 <__bss_end__+0xe77f6c>
     2f4:	13490b3b 	movtne	r0, #39739	; 0x9b3b
     2f8:	00001702 	andeq	r1, r0, r2, lsl #14
     2fc:	01828910 	orreq	r8, r2, r0, lsl r9
     300:	31011101 	tstcc	r1, r1, lsl #2
     304:	00130113 	andseq	r0, r3, r3, lsl r1
     308:	828a1100 	addhi	r1, sl, #0, 2
     30c:	18020001 	stmdane	r2, {r0}
     310:	00184291 	mulseq	r8, r1, r2
     314:	82891200 	addhi	r1, r9, #0, 4
     318:	01110101 	tsteq	r1, r1, lsl #2
     31c:	01130000 	tsteq	r3, r0
     320:	01134901 	tsteq	r3, r1, lsl #18
     324:	14000013 	strne	r0, [r0], #-19
     328:	13490021 	movtne	r0, #36897	; 0x9021
     32c:	0000052f 	andeq	r0, r0, pc, lsr #10
     330:	27011515 	smladcs	r1, r5, r5, r1
     334:	01134919 	tsteq	r3, r9, lsl r9
     338:	16000013 			; <UNDEFINED> instruction: 0x16000013
     33c:	13490005 	movtne	r0, #36869	; 0x9005
     340:	34170000 	ldrcc	r0, [r7], #-0
     344:	3a0e0300 	bcc	380f4c <__bss_end__+0x376bb4>
     348:	490b3b0b 	stmdbmi	fp, {r0, r1, r3, r8, r9, fp, ip, sp}
     34c:	3c193f13 	ldccc	15, cr3, [r9], {19}
     350:	18000019 	stmdane	r0, {r0, r3, r4}
     354:	193f012e 	ldmdbne	pc!, {r1, r2, r3, r5, r8}	; <UNPREDICTABLE>
     358:	0b3a0e03 	bleq	e83b6c <__bss_end__+0xe797d4>
     35c:	19270b3b 	stmdbne	r7!, {r0, r1, r3, r4, r5, r8, r9, fp}
     360:	193c1349 	ldmdbne	ip!, {r0, r3, r6, r8, r9, ip}
     364:	01000000 	mrseq	r0, (UNDEF: 0)
     368:	0e250111 	mcreq	1, 1, r0, cr5, cr1, {0}
     36c:	0e030b13 	vmoveq.32	d3[0], r0
     370:	01110e1b 	tsteq	r1, fp, lsl lr
     374:	17100612 			; <UNDEFINED> instruction: 0x17100612
     378:	24020000 	strcs	r0, [r2], #-0
     37c:	3e0b0b00 	vmlacc.f64	d0, d11, d0
     380:	0008030b 	andeq	r0, r8, fp, lsl #6
     384:	00240300 	eoreq	r0, r4, r0, lsl #6
     388:	0b3e0b0b 	bleq	f82fbc <__bss_end__+0xf78c24>
     38c:	00000e03 	andeq	r0, r0, r3, lsl #28
     390:	03012e04 	movweq	r2, #7684	; 0x1e04
     394:	3b0b3a0e 	blcc	2cebd4 <__bss_end__+0x2c483c>
     398:	4919270b 	ldmdbmi	r9, {r0, r1, r3, r8, r9, sl, sp}
     39c:	12011113 	andne	r1, r1, #-1073741820	; 0xc0000004
     3a0:	97184006 	ldrls	r4, [r8, -r6]
     3a4:	13011942 	movwne	r1, #6466	; 0x1942
     3a8:	05050000 	streq	r0, [r5, #-0]
     3ac:	3a080300 	bcc	200fb4 <__bss_end__+0x1f6c1c>
     3b0:	490b3b0b 	stmdbmi	fp, {r0, r1, r3, r8, r9, fp, ip, sp}
     3b4:	00170213 	andseq	r0, r7, r3, lsl r2
     3b8:	82890600 	addhi	r0, r9, #0, 12
     3bc:	01110101 	tsteq	r1, r1, lsl #2
     3c0:	00001331 	andeq	r1, r0, r1, lsr r3
     3c4:	01828a07 	orreq	r8, r2, r7, lsl #20
     3c8:	91180200 	tstls	r8, r0, lsl #4
     3cc:	00001842 	andeq	r1, r0, r2, asr #16
     3d0:	3f002e08 	svccc	0x00002e08
     3d4:	3a0e0319 	bcc	381040 <__bss_end__+0x376ca8>
     3d8:	270b3b0b 	strcs	r3, [fp, -fp, lsl #22]
     3dc:	12011119 	andne	r1, r1, #1073741830	; 0x40000006
     3e0:	97184006 	ldrls	r4, [r8, -r6]
     3e4:	00001942 	andeq	r1, r0, r2, asr #18
     3e8:	3f012e09 	svccc	0x00012e09
     3ec:	3a0e0319 	bcc	381058 <__bss_end__+0x376cc0>
     3f0:	270b3b0b 	strcs	r3, [fp, -fp, lsl #22]
     3f4:	12011119 	andne	r1, r1, #1073741830	; 0x40000006
     3f8:	97184006 	ldrls	r4, [r8, -r6]
     3fc:	13011942 	movwne	r1, #6466	; 0x1942
     400:	050a0000 	streq	r0, [sl, #-0]
     404:	3a080300 	bcc	20100c <__bss_end__+0x1f6c74>
     408:	490b3b0b 	stmdbmi	fp, {r0, r1, r3, r8, r9, fp, ip, sp}
     40c:	00180213 	andseq	r0, r8, r3, lsl r2
     410:	01150b00 	tsteq	r5, r0, lsl #22
     414:	13491927 	movtne	r1, #39207	; 0x9927
     418:	00001301 	andeq	r1, r0, r1, lsl #6
     41c:	4900050c 	stmdbmi	r0, {r2, r3, r8, sl}
     420:	0d000013 	stceq	0, cr0, [r0, #-76]	; 0xffffffb4
     424:	0b0b000f 	bleq	2c0468 <__bss_end__+0x2b60d0>
     428:	00001349 	andeq	r1, r0, r9, asr #6
     42c:	0300340e 	movweq	r3, #1038	; 0x40e
     430:	3b0b3a0e 	blcc	2cec70 <__bss_end__+0x2c48d8>
     434:	3f13490b 	svccc	0x0013490b
     438:	00180219 	andseq	r0, r8, r9, lsl r2
     43c:	012e0f00 	teqeq	lr, r0, lsl #30
     440:	0e03193f 	mcreq	9, 0, r1, cr3, cr15, {1}
     444:	0b3b0b3a 	bleq	ec3134 <__bss_end__+0xeb8d9c>
     448:	193c1927 	ldmdbne	ip!, {r0, r1, r2, r5, r8, fp, ip}
     44c:	01000000 	mrseq	r0, (UNDEF: 0)
     450:	0e250111 	mcreq	1, 1, r0, cr5, cr1, {0}
     454:	0e030b13 	vmoveq.32	d3[0], r0
     458:	01110e1b 	tsteq	r1, fp, lsl lr
     45c:	17100612 			; <UNDEFINED> instruction: 0x17100612
     460:	24020000 	strcs	r0, [r2], #-0
     464:	3e0b0b00 	vmlacc.f64	d0, d11, d0
     468:	0008030b 	andeq	r0, r8, fp, lsl #6
     46c:	00240300 	eoreq	r0, r4, r0, lsl #6
     470:	0b3e0b0b 	bleq	f830a4 <__bss_end__+0xf78d0c>
     474:	00000e03 	andeq	r0, r0, r3, lsl #28
     478:	0b000f04 	bleq	4090 <_start-0x3f70>
     47c:	0013490b 	andseq	r4, r3, fp, lsl #18
     480:	00260500 	eoreq	r0, r6, r0, lsl #10
     484:	00001349 	andeq	r1, r0, r9, asr #6
     488:	3f012e06 	svccc	0x00012e06
     48c:	3a0e0319 	bcc	3810f8 <__bss_end__+0x376d60>
     490:	270b3b0b 	strcs	r3, [fp, -fp, lsl #22]
     494:	11134919 	tstne	r3, r9, lsl r9
     498:	40061201 	andmi	r1, r6, r1, lsl #4
     49c:	19429618 	stmdbne	r2, {r3, r4, r9, sl, ip, pc}^
     4a0:	00001301 	andeq	r1, r0, r1, lsl #6
     4a4:	03000507 	movweq	r0, #1287	; 0x507
     4a8:	3b0b3a08 	blcc	2cecd0 <__bss_end__+0x2c4938>
     4ac:	0213490b 	andseq	r4, r3, #180224	; 0x2c000
     4b0:	08000017 	stmdaeq	r0, {r0, r1, r2, r4}
     4b4:	19270115 	stmdbne	r7!, {r0, r2, r4, r8}
     4b8:	13011349 	movwne	r1, #4937	; 0x1349
     4bc:	05090000 	streq	r0, [r9, #-0]
     4c0:	00134900 	andseq	r4, r3, r0, lsl #18
     4c4:	00340a00 	eorseq	r0, r4, r0, lsl #20
     4c8:	0b3a0e03 	bleq	e83cdc <__bss_end__+0xe79944>
     4cc:	13490b3b 	movtne	r0, #39739	; 0x9b3b
     4d0:	193c193f 	ldmdbne	ip!, {r0, r1, r2, r3, r4, r5, r8, fp, ip}
     4d4:	340b0000 	strcc	r0, [fp], #-0
     4d8:	3a0e0300 	bcc	3810e0 <__bss_end__+0x376d48>
     4dc:	490b3b0b 	stmdbmi	fp, {r0, r1, r3, r8, r9, fp, ip, sp}
     4e0:	02193f13 	andseq	r3, r9, #19, 30	; 0x4c
     4e4:	00000018 	andeq	r0, r0, r8, lsl r0
     4e8:	25011101 	strcs	r1, [r1, #-257]	; 0x101
     4ec:	030b130e 	movweq	r1, #45838	; 0xb30e
     4f0:	110e1b0e 	tstne	lr, lr, lsl #22
     4f4:	10061201 	andne	r1, r6, r1, lsl #4
     4f8:	02000017 	andeq	r0, r0, #23
     4fc:	0b0b0024 	bleq	2c0594 <__bss_end__+0x2b61fc>
     500:	08030b3e 	stmdaeq	r3, {r1, r2, r3, r4, r5, r8, r9, fp}
     504:	24030000 	strcs	r0, [r3], #-0
     508:	3e0b0b00 	vmlacc.f64	d0, d11, d0
     50c:	000e030b 	andeq	r0, lr, fp, lsl #6
     510:	000f0400 	andeq	r0, pc, r0, lsl #8
     514:	00000b0b 	andeq	r0, r0, fp, lsl #22
     518:	0b000f05 	bleq	4134 <_start-0x3ecc>
     51c:	0013490b 	andseq	r4, r3, fp, lsl #18
     520:	00260600 	eoreq	r0, r6, r0, lsl #12
     524:	00001349 	andeq	r1, r0, r9, asr #6
     528:	03001607 	movweq	r1, #1543	; 0x607
     52c:	3b0b3a0e 	blcc	2ced6c <__bss_end__+0x2c49d4>
     530:	0013490b 	andseq	r4, r3, fp, lsl #18
     534:	01130800 	tsteq	r3, r0, lsl #16
     538:	0b0b0e03 	bleq	2c3d4c <__bss_end__+0x2b99b4>
     53c:	0b3b0b3a 	bleq	ec322c <__bss_end__+0xeb8e94>
     540:	00001301 	andeq	r1, r0, r1, lsl #6
     544:	03000d09 	movweq	r0, #3337	; 0xd09
     548:	3813490e 	ldmdacc	r3, {r1, r2, r3, r8, fp, lr}
     54c:	0019340b 	andseq	r3, r9, fp, lsl #8
     550:	012e0a00 	teqeq	lr, r0, lsl #20
     554:	0b3a0e03 	bleq	e83d68 <__bss_end__+0xe799d0>
     558:	19270b3b 	stmdbne	r7!, {r0, r1, r3, r4, r5, r8, r9, fp}
     55c:	01111349 	tsteq	r1, r9, asr #6
     560:	18400612 	stmdane	r0, {r1, r4, r9, sl}^
     564:	01194297 			; <UNDEFINED> instruction: 0x01194297
     568:	0b000013 	bleq	5bc <_start-0x7a44>
     56c:	08030005 	stmdaeq	r3, {r0, r2}
     570:	0b3b0b3a 	bleq	ec3260 <__bss_end__+0xeb8ec8>
     574:	17021349 	strne	r1, [r2, -r9, asr #6]
     578:	2e0c0000 	cdpcs	0, 0, cr0, cr12, cr0, {0}
     57c:	3a080301 	bcc	201188 <__bss_end__+0x1f6df0>
     580:	270b3b0b 	strcs	r3, [fp, -fp, lsl #22]
     584:	11134919 	tstne	r3, r9, lsl r9
     588:	40061201 	andmi	r1, r6, r1, lsl #4
     58c:	19429718 	stmdbne	r2, {r3, r4, r8, r9, sl, ip, pc}^
     590:	00001301 	andeq	r1, r0, r1, lsl #6
     594:	0300050d 	movweq	r0, #1293	; 0x50d
     598:	3b0b3a0e 	blcc	2cedd8 <__bss_end__+0x2c4a40>
     59c:	0213490b 	andseq	r4, r3, #180224	; 0x2c000
     5a0:	0e000017 	mcreq	0, 0, r0, cr0, cr7, {0}
     5a4:	0e030005 	cdpeq	0, 0, cr0, cr3, cr5, {0}
     5a8:	0b3b0b3a 	bleq	ec3298 <__bss_end__+0xeb8f00>
     5ac:	18021349 	stmdane	r2, {r0, r3, r6, r8, r9, ip}
     5b0:	340f0000 	strcc	r0, [pc], #-0	; 5b8 <_start-0x7a48>
     5b4:	3a080300 	bcc	2011bc <__bss_end__+0x1f6e24>
     5b8:	490b3b0b 	stmdbmi	fp, {r0, r1, r3, r8, r9, fp, ip, sp}
     5bc:	00180213 	andseq	r0, r8, r3, lsl r2
     5c0:	00341000 	eorseq	r1, r4, r0
     5c4:	0b3a0803 	bleq	e825d8 <__bss_end__+0xe78240>
     5c8:	13490b3b 	movtne	r0, #39739	; 0x9b3b
     5cc:	00001702 	andeq	r1, r0, r2, lsl #14
     5d0:	03003411 	movweq	r3, #1041	; 0x411
     5d4:	3413490e 	ldrcc	r4, [r3], #-2318	; 0x90e
     5d8:	00180219 	andseq	r0, r8, r9, lsl r2
     5dc:	010b1200 	mrseq	r1, R11_fiq
     5e0:	06120111 			; <UNDEFINED> instruction: 0x06120111
     5e4:	00001301 	andeq	r1, r0, r1, lsl #6
     5e8:	03003413 	movweq	r3, #1043	; 0x413
     5ec:	3b0b3a0e 	blcc	2cee2c <__bss_end__+0x2c4a94>
     5f0:	0213490b 	andseq	r4, r3, #180224	; 0x2c000
     5f4:	14000017 	strne	r0, [r0], #-23
     5f8:	00018289 	andeq	r8, r1, r9, lsl #5
     5fc:	13310111 	teqne	r1, #1073741828	; 0x40000004
     600:	89150000 	ldmdbhi	r5, {}	; <UNPREDICTABLE>
     604:	11010182 	smlabbne	r1, r2, r1, r0
     608:	01133101 	tsteq	r3, r1, lsl #2
     60c:	16000013 			; <UNDEFINED> instruction: 0x16000013
     610:	0001828a 	andeq	r8, r1, sl, lsl #5
     614:	42911802 	addsmi	r1, r1, #131072	; 0x20000
     618:	17000018 	smladne	r0, r8, r0, r0
     61c:	01018289 	smlabbeq	r1, r9, r2, r8
     620:	13310111 	teqne	r1, #1073741828	; 0x40000004
     624:	01180000 	tsteq	r8, r0
     628:	01134901 	tsteq	r3, r1, lsl #18
     62c:	19000013 	stmdbne	r0, {r0, r1, r4}
     630:	13490021 	movtne	r0, #36897	; 0x9021
     634:	00000b2f 	andeq	r0, r0, pc, lsr #22
     638:	3f012e1a 	svccc	0x00012e1a
     63c:	3a0e0319 	bcc	3812a8 <__bss_end__+0x376f10>
     640:	270b3b0b 	strcs	r3, [fp, -fp, lsl #22]
     644:	12011119 	andne	r1, r1, #1073741830	; 0x40000006
     648:	97184006 	ldrls	r4, [r8, -r6]
     64c:	13011942 	movwne	r1, #6466	; 0x1942
     650:	151b0000 	ldrne	r0, [fp, #-0]
     654:	49192701 	ldmdbmi	r9, {r0, r8, r9, sl, sp}
     658:	00130113 	andseq	r0, r3, r3, lsl r1
     65c:	00051c00 	andeq	r1, r5, r0, lsl #24
     660:	00001349 	andeq	r1, r0, r9, asr #6
     664:	3f012e1d 	svccc	0x00012e1d
     668:	3a0e0319 	bcc	3812d4 <__bss_end__+0x376f3c>
     66c:	270b3b0b 	strcs	r3, [fp, -fp, lsl #22]
     670:	11134919 	tstne	r3, r9, lsl r9
     674:	40061201 	andmi	r1, r6, r1, lsl #4
     678:	19429718 	stmdbne	r2, {r3, r4, r8, r9, sl, ip, pc}^
     67c:	00001301 	andeq	r1, r0, r1, lsl #6
     680:	55010b1e 	strpl	r0, [r1, #-2846]	; 0xb1e
     684:	1f000017 	svcne	0x00000017
     688:	0e030034 	mcreq	0, 0, r0, cr3, cr4, {1}
     68c:	0b3b0b3a 	bleq	ec337c <__bss_end__+0xeb8fe4>
     690:	193f1349 	ldmdbne	pc!, {r0, r3, r6, r8, r9, ip}	; <UNPREDICTABLE>
     694:	0000193c 	andeq	r1, r0, ip, lsr r9
     698:	3f002e20 	svccc	0x00002e20
     69c:	3a0e0319 	bcc	381308 <__bss_end__+0x376f70>
     6a0:	270b3b0b 	strcs	r3, [fp, -fp, lsl #22]
     6a4:	00193c19 	andseq	r3, r9, r9, lsl ip
     6a8:	012e2100 	teqeq	lr, r0, lsl #2
     6ac:	0e03193f 	mcreq	9, 0, r1, cr3, cr15, {1}
     6b0:	0b3b0b3a 	bleq	ec33a0 <__bss_end__+0xeb9008>
     6b4:	13491927 	movtne	r1, #39207	; 0x9927
     6b8:	1301193c 	movwne	r1, #6460	; 0x193c
     6bc:	18220000 	stmdane	r2!, {}	; <UNPREDICTABLE>
     6c0:	00000000 	andeq	r0, r0, r0
     6c4:	25011101 	strcs	r1, [r1, #-257]	; 0x101
     6c8:	030b130e 	movweq	r1, #45838	; 0xb30e
     6cc:	110e1b0e 	tstne	lr, lr, lsl #22
     6d0:	10061201 	andne	r1, r6, r1, lsl #4
     6d4:	02000017 	andeq	r0, r0, #23
     6d8:	0b0b0024 	bleq	2c0770 <__bss_end__+0x2b63d8>
     6dc:	08030b3e 	stmdaeq	r3, {r1, r2, r3, r4, r5, r8, r9, fp}
     6e0:	24030000 	strcs	r0, [r3], #-0
     6e4:	3e0b0b00 	vmlacc.f64	d0, d11, d0
     6e8:	000e030b 	andeq	r0, lr, fp, lsl #6
     6ec:	012e0400 	teqeq	lr, r0, lsl #8
     6f0:	0e03193f 	mcreq	9, 0, r1, cr3, cr15, {1}
     6f4:	0b3b0b3a 	bleq	ec33e4 <__bss_end__+0xeb904c>
     6f8:	01111927 	tsteq	r1, r7, lsr #18
     6fc:	18400612 	stmdane	r0, {r1, r4, r9, sl}^
     700:	01194297 			; <UNDEFINED> instruction: 0x01194297
     704:	05000013 	streq	r0, [r0, #-19]
     708:	08030034 	stmdaeq	r3, {r2, r4, r5}
     70c:	0b3b0b3a 	bleq	ec33fc <__bss_end__+0xeb9064>
     710:	17021349 	strne	r1, [r2, -r9, asr #6]
     714:	2e060000 	cdpcs	0, 0, cr0, cr6, cr0, {0}
     718:	03193f01 	tsteq	r9, #1, 30
     71c:	3b0b3a0e 	blcc	2cef5c <__bss_end__+0x2c4bc4>
     720:	1119270b 	tstne	r9, fp, lsl #14
     724:	40061201 	andmi	r1, r6, r1, lsl #4
     728:	19429718 	stmdbne	r2, {r3, r4, r8, r9, sl, ip, pc}^
     72c:	01000000 	mrseq	r0, (UNDEF: 0)
     730:	0e250111 	mcreq	1, 1, r0, cr5, cr1, {0}
     734:	0e030b13 	vmoveq.32	d3[0], r0
     738:	01110e1b 	tsteq	r1, fp, lsl lr
     73c:	17100612 			; <UNDEFINED> instruction: 0x17100612
     740:	24020000 	strcs	r0, [r2], #-0
     744:	3e0b0b00 	vmlacc.f64	d0, d11, d0
     748:	0008030b 	andeq	r0, r8, fp, lsl #6
     74c:	00240300 	eoreq	r0, r4, r0, lsl #6
     750:	0b3e0b0b 	bleq	f83384 <__bss_end__+0xf78fec>
     754:	00000e03 	andeq	r0, r0, r3, lsl #28
     758:	0b000f04 	bleq	4370 <_start-0x3c90>
     75c:	0013490b 	andseq	r4, r3, fp, lsl #18
     760:	00260500 	eoreq	r0, r6, r0, lsl #10
     764:	00001349 	andeq	r1, r0, r9, asr #6
     768:	3f012e06 	svccc	0x00012e06
     76c:	3a0e0319 	bcc	3813d8 <__bss_end__+0x377040>
     770:	270b3b0b 	strcs	r3, [fp, -fp, lsl #22]
     774:	12011119 	andne	r1, r1, #1073741830	; 0x40000006
     778:	97184006 	ldrls	r4, [r8, -r6]
     77c:	13011942 	movwne	r1, #6466	; 0x1942
     780:	89070000 	stmdbhi	r7, {}	; <UNPREDICTABLE>
     784:	11010182 	smlabbne	r1, r2, r1, r0
     788:	00130101 	andseq	r0, r3, r1, lsl #2
     78c:	828a0800 	addhi	r0, sl, #0, 16
     790:	18020001 	stmdane	r2, {r0}
     794:	00184291 	mulseq	r8, r1, r2
     798:	82890900 	addhi	r0, r9, #0, 18
     79c:	01110101 	tsteq	r1, r1, lsl #2
     7a0:	13011331 	movwne	r1, #4913	; 0x1331
     7a4:	890a0000 	stmdbhi	sl, {}	; <UNPREDICTABLE>
     7a8:	11000182 	smlabbne	r0, r2, r1, r0
     7ac:	00133101 	andseq	r3, r3, r1, lsl #2
     7b0:	01150b00 	tsteq	r5, r0, lsl #22
     7b4:	13491927 	movtne	r1, #39207	; 0x9927
     7b8:	00001301 	andeq	r1, r0, r1, lsl #6
     7bc:	4900050c 	stmdbmi	r0, {r2, r3, r8, sl}
     7c0:	0d000013 	stceq	0, cr0, [r0, #-76]	; 0xffffffb4
     7c4:	0e030034 	mcreq	0, 0, r0, cr3, cr4, {1}
     7c8:	0b3b0b3a 	bleq	ec34b8 <__bss_end__+0xeb9120>
     7cc:	193f1349 	ldmdbne	pc!, {r0, r3, r6, r8, r9, ip}	; <UNPREDICTABLE>
     7d0:	0000193c 	andeq	r1, r0, ip, lsr r9
     7d4:	3f012e0e 	svccc	0x00012e0e
     7d8:	3a0e0319 	bcc	381444 <__bss_end__+0x3770ac>
     7dc:	270b3b0b 	strcs	r3, [fp, -fp, lsl #22]
     7e0:	01193c19 	tsteq	r9, r9, lsl ip
     7e4:	0f000013 	svceq	0x00000013
     7e8:	193f002e 	ldmdbne	pc!, {r1, r2, r3, r5}	; <UNPREDICTABLE>
     7ec:	0b3a0e03 	bleq	e84000 <__bss_end__+0xe79c68>
     7f0:	19270b3b 	stmdbne	r7!, {r0, r1, r3, r4, r5, r8, r9, fp}
     7f4:	0000193c 	andeq	r1, r0, ip, lsr r9
     7f8:	01110100 	tsteq	r1, r0, lsl #2
     7fc:	0b130e25 	bleq	4c4098 <__bss_end__+0x4b9d00>
     800:	0e1b0e03 	cdpeq	14, 1, cr0, cr11, cr3, {0}
     804:	06120111 			; <UNDEFINED> instruction: 0x06120111
     808:	00001710 	andeq	r1, r0, r0, lsl r7
     80c:	0b002402 	bleq	981c <sw_uart_init_helper+0x94>
     810:	030b3e0b 	movweq	r3, #48651	; 0xbe0b
     814:	03000008 	movweq	r0, #8
     818:	0b0b0024 	bleq	2c08b0 <__bss_end__+0x2b6518>
     81c:	0e030b3e 	vmoveq.16	d3[0], r0
     820:	16040000 	strne	r0, [r4], -r0
     824:	3a0e0300 	bcc	38142c <__bss_end__+0x377094>
     828:	490b3b0b 	stmdbmi	fp, {r0, r1, r3, r8, r9, fp, ip, sp}
     82c:	05000013 	streq	r0, [r0, #-19]
     830:	0b0b000f 	bleq	2c0874 <__bss_end__+0x2b64dc>
     834:	00001349 	andeq	r1, r0, r9, asr #6
     838:	49002606 	stmdbmi	r0, {r1, r2, r9, sl, sp}
     83c:	07000013 	smladeq	r0, r3, r0, r0
     840:	0b0b0113 	bleq	2c0c94 <__bss_end__+0x2b68fc>
     844:	0b3b0b3a 	bleq	ec3534 <__bss_end__+0xeb919c>
     848:	00001301 	andeq	r1, r0, r1, lsl #6
     84c:	03000d08 	movweq	r0, #3336	; 0xd08
     850:	3b0b3a08 	blcc	2cf078 <__bss_end__+0x2c4ce0>
     854:	3813490b 	ldmdacc	r3, {r0, r1, r3, r8, fp, lr}
     858:	0900000b 	stmdbeq	r0, {r0, r1, r3}
     85c:	0e03000d 	cdpeq	0, 0, cr0, cr3, cr13, {0}
     860:	0b3b0b3a 	bleq	ec3550 <__bss_end__+0xeb91b8>
     864:	0b381349 	bleq	e05590 <__bss_end__+0xdfb1f8>
     868:	040a0000 	streq	r0, [sl], #-0
     86c:	3a0b0b01 	bcc	2c3478 <__bss_end__+0x2b90e0>
     870:	010b3b0b 	tsteq	fp, fp, lsl #22
     874:	0b000013 	bleq	8c8 <_start-0x7738>
     878:	0e030028 	cdpeq	0, 0, cr0, cr3, cr8, {1}
     87c:	00000d1c 	andeq	r0, r0, ip, lsl sp
     880:	03012e0c 	movweq	r2, #7692	; 0x1e0c
     884:	3b0b3a0e 	blcc	2cf0c4 <__bss_end__+0x2c4d2c>
     888:	4919270b 	ldmdbmi	r9, {r0, r1, r3, r8, r9, sl, sp}
     88c:	12011113 	andne	r1, r1, #-1073741820	; 0xc0000004
     890:	97184006 	ldrls	r4, [r8, -r6]
     894:	13011942 	movwne	r1, #6466	; 0x1942
     898:	050d0000 	streq	r0, [sp, #-0]
     89c:	3a080300 	bcc	2014a4 <__bss_end__+0x1f710c>
     8a0:	490b3b0b 	stmdbmi	fp, {r0, r1, r3, r8, r9, fp, ip, sp}
     8a4:	00170213 	andseq	r0, r7, r3, lsl r2
     8a8:	82890e00 	addhi	r0, r9, #0, 28
     8ac:	01110101 	tsteq	r1, r1, lsl #2
     8b0:	00001331 	andeq	r1, r0, r1, lsr r3
     8b4:	01828a0f 	orreq	r8, r2, pc, lsl #20
     8b8:	91180200 	tstls	r8, r0, lsl #4
     8bc:	00001842 	andeq	r1, r0, r2, asr #16
     8c0:	3f012e10 	svccc	0x00012e10
     8c4:	3a0e0319 	bcc	381530 <__bss_end__+0x377198>
     8c8:	110b3b0b 	tstne	fp, fp, lsl #22
     8cc:	40061201 	andmi	r1, r6, r1, lsl #4
     8d0:	19429718 	stmdbne	r2, {r3, r4, r8, r9, sl, ip, pc}^
     8d4:	00001301 	andeq	r1, r0, r1, lsl #6
     8d8:	03003411 	movweq	r3, #1041	; 0x411
     8dc:	3b0b3a0e 	blcc	2cf11c <__bss_end__+0x2c4d84>
     8e0:	3f13490b 	svccc	0x0013490b
     8e4:	00193c19 	andseq	r3, r9, r9, lsl ip
     8e8:	002e1200 	eoreq	r1, lr, r0, lsl #4
     8ec:	0e03193f 	mcreq	9, 0, r1, cr3, cr15, {1}
     8f0:	0b3b0b3a 	bleq	ec35e0 <__bss_end__+0xeb9248>
     8f4:	193c1927 	ldmdbne	ip!, {r0, r1, r2, r5, r8, fp, ip}
     8f8:	34130000 	ldrcc	r0, [r3], #-0
     8fc:	3a080300 	bcc	201504 <__bss_end__+0x1f716c>
     900:	490b3b0b 	stmdbmi	fp, {r0, r1, r3, r8, r9, fp, ip, sp}
     904:	00170213 	andseq	r0, r7, r3, lsl r2
     908:	00341400 	eorseq	r1, r4, r0, lsl #8
     90c:	0b3a0e03 	bleq	e84120 <__bss_end__+0xe79d88>
     910:	13490b3b 	movtne	r0, #39739	; 0x9b3b
     914:	89150000 	ldmdbhi	r5, {}	; <UNPREDICTABLE>
     918:	11000182 	smlabbne	r0, r2, r1, r0
     91c:	00133101 	andseq	r3, r3, r1, lsl #2
     920:	82891600 	addhi	r1, r9, #0, 12
     924:	01110101 	tsteq	r1, r1, lsl #2
     928:	13011331 	movwne	r1, #4913	; 0x1331
     92c:	34170000 	ldrcc	r0, [r7], #-0
     930:	3a0e0300 	bcc	381538 <__bss_end__+0x3771a0>
     934:	490b3b0b 	stmdbmi	fp, {r0, r1, r3, r8, r9, fp, ip, sp}
     938:	00180213 	andseq	r0, r8, r3, lsl r2
     93c:	01151800 	tsteq	r5, r0, lsl #16
     940:	13491927 	movtne	r1, #39207	; 0x9927
     944:	00001301 	andeq	r1, r0, r1, lsl #6
     948:	49000519 	stmdbmi	r0, {r0, r3, r4, r8, sl}
     94c:	1a000013 	bne	9a0 <_start-0x7660>
     950:	193f012e 	ldmdbne	pc!, {r1, r2, r3, r5, r8}	; <UNPREDICTABLE>
     954:	0b3a0e03 	bleq	e84168 <__bss_end__+0xe79dd0>
     958:	19270b3b 	stmdbne	r7!, {r0, r1, r3, r4, r5, r8, r9, fp}
     95c:	1301193c 	movwne	r1, #6460	; 0x193c
     960:	2e1b0000 	cdpcs	0, 1, cr0, cr11, cr0, {0}
     964:	03193f00 	tsteq	r9, #0, 30
     968:	3b0b3a0e 	blcc	2cf1a8 <__bss_end__+0x2c4e10>
     96c:	4919270b 	ldmdbmi	r9, {r0, r1, r3, r8, r9, sl, sp}
     970:	00193c13 	andseq	r3, r9, r3, lsl ip
     974:	012e1c00 	teqeq	lr, r0, lsl #24
     978:	0e03193f 	mcreq	9, 0, r1, cr3, cr15, {1}
     97c:	0b3b0b3a 	bleq	ec366c <__bss_end__+0xeb92d4>
     980:	13491927 	movtne	r1, #39207	; 0x9927
     984:	1301193c 	movwne	r1, #6460	; 0x193c
     988:	181d0000 	ldmdane	sp, {}	; <UNPREDICTABLE>
     98c:	00000000 	andeq	r0, r0, r0
     990:	25011101 	strcs	r1, [r1, #-257]	; 0x101
     994:	030b130e 	movweq	r1, #45838	; 0xb30e
     998:	550e1b0e 	strpl	r1, [lr, #-2830]	; 0xb0e
     99c:	10011117 	andne	r1, r1, r7, lsl r1
     9a0:	02000017 	andeq	r0, r0, #23
     9a4:	0b0b0024 	bleq	2c0a3c <__bss_end__+0x2b66a4>
     9a8:	08030b3e 	stmdaeq	r3, {r1, r2, r3, r4, r5, r8, r9, fp}
     9ac:	24030000 	strcs	r0, [r3], #-0
     9b0:	3e0b0b00 	vmlacc.f64	d0, d11, d0
     9b4:	000e030b 	andeq	r0, lr, fp, lsl #6
     9b8:	012e0400 	teqeq	lr, r0, lsl #8
     9bc:	0e03193f 	mcreq	9, 0, r1, cr3, cr15, {1}
     9c0:	0b3b0b3a 	bleq	ec36b0 <__bss_end__+0xeb9318>
     9c4:	13491927 	movtne	r1, #39207	; 0x9927
     9c8:	06120111 			; <UNDEFINED> instruction: 0x06120111
     9cc:	42971840 	addsmi	r1, r7, #64, 16	; 0x400000
     9d0:	00130119 	andseq	r0, r3, r9, lsl r1
     9d4:	00340500 	eorseq	r0, r4, r0, lsl #10
     9d8:	0b3a0e03 	bleq	e841ec <__bss_end__+0xe79e54>
     9dc:	13490b3b 	movtne	r0, #39739	; 0x9b3b
     9e0:	00001702 	andeq	r1, r0, r2, lsl #14
     9e4:	3f012e06 	svccc	0x00012e06
     9e8:	3a0e0319 	bcc	381654 <__bss_end__+0x3772bc>
     9ec:	270b3b0b 	strcs	r3, [fp, -fp, lsl #22]
     9f0:	12011119 	andne	r1, r1, #1073741830	; 0x40000006
     9f4:	97184006 	ldrls	r4, [r8, -r6]
     9f8:	13011942 	movwne	r1, #6466	; 0x1942
     9fc:	34070000 	strcc	r0, [r7], #-0
     a00:	3a0e0300 	bcc	381608 <__bss_end__+0x377270>
     a04:	490b3b0b 	stmdbmi	fp, {r0, r1, r3, r8, r9, fp, ip, sp}
     a08:	00061c13 	andeq	r1, r6, r3, lsl ip
     a0c:	00340800 	eorseq	r0, r4, r0, lsl #16
     a10:	0b3a0e03 	bleq	e84224 <__bss_end__+0xe79e8c>
     a14:	13490b3b 	movtne	r0, #39739	; 0x9b3b
     a18:	00000b1c 	andeq	r0, r0, ip, lsl fp
     a1c:	01828909 	orreq	r8, r2, r9, lsl #18
     a20:	31011100 	mrscc	r1, (UNDEF: 17)
     a24:	0a000013 	beq	a78 <_start-0x7588>
     a28:	01018289 	smlabbeq	r1, r9, r2, r8
     a2c:	13310111 	teqne	r1, #1073741828	; 0x40000004
     a30:	00001301 	andeq	r1, r0, r1, lsl #6
     a34:	01828a0b 	orreq	r8, r2, fp, lsl #20
     a38:	91180200 	tstls	r8, r0, lsl #4
     a3c:	00001842 	andeq	r1, r0, r2, asr #16
     a40:	0182890c 	orreq	r8, r2, ip, lsl #18
     a44:	31011101 	tstcc	r1, r1, lsl #2
     a48:	0d000013 	stceq	0, cr0, [r0, #-76]	; 0xffffffb4
     a4c:	13490026 	movtne	r0, #36902	; 0x9026
     a50:	2e0e0000 	cdpcs	0, 0, cr0, cr14, cr0, {0}
     a54:	03193f01 	tsteq	r9, #1, 30
     a58:	3b0b3a0e 	blcc	2cf298 <__bss_end__+0x2c4f00>
     a5c:	3c19270b 	ldccc	7, cr2, [r9], {11}
     a60:	00130119 	andseq	r0, r3, r9, lsl r1
     a64:	00050f00 	andeq	r0, r5, r0, lsl #30
     a68:	00001349 	andeq	r1, r0, r9, asr #6
     a6c:	3f012e10 	svccc	0x00012e10
     a70:	3a0e0319 	bcc	3816dc <__bss_end__+0x377344>
     a74:	270b3b0b 	strcs	r3, [fp, -fp, lsl #22]
     a78:	00193c19 	andseq	r3, r9, r9, lsl ip
     a7c:	11010000 	mrsne	r0, (UNDEF: 1)
     a80:	130e2501 	movwne	r2, #58625	; 0xe501
     a84:	1b0e030b 	blne	3816b8 <__bss_end__+0x377320>
     a88:	1201110e 	andne	r1, r1, #-2147483645	; 0x80000003
     a8c:	00171006 	andseq	r1, r7, r6
     a90:	00240200 	eoreq	r0, r4, r0, lsl #4
     a94:	0b3e0b0b 	bleq	f836c8 <__bss_end__+0xf79330>
     a98:	00000803 	andeq	r0, r0, r3, lsl #16
     a9c:	0b002403 	bleq	9ab0 <uart_putc+0x14>
     aa0:	030b3e0b 	movweq	r3, #48651	; 0xbe0b
     aa4:	0400000e 	streq	r0, [r0], #-14
     aa8:	193f012e 	ldmdbne	pc!, {r1, r2, r3, r5, r8}	; <UNPREDICTABLE>
     aac:	0b3a0e03 	bleq	e842c0 <__bss_end__+0xe79f28>
     ab0:	19270b3b 	stmdbne	r7!, {r0, r1, r3, r4, r5, r8, r9, fp}
     ab4:	06120111 			; <UNDEFINED> instruction: 0x06120111
     ab8:	42971840 	addsmi	r1, r7, #64, 16	; 0x400000
     abc:	00130119 	andseq	r0, r3, r9, lsl r1
     ac0:	00050500 	andeq	r0, r5, r0, lsl #10
     ac4:	0b3a0e03 	bleq	e842d8 <__bss_end__+0xe79f40>
     ac8:	13490b3b 	movtne	r0, #39739	; 0x9b3b
     acc:	00001702 	andeq	r1, r0, r2, lsl #14
     ad0:	3f012e06 	svccc	0x00012e06
     ad4:	3a0e0319 	bcc	381740 <__bss_end__+0x3773a8>
     ad8:	270b3b0b 	strcs	r3, [fp, -fp, lsl #22]
     adc:	11134919 	tstne	r3, r9, lsl r9
     ae0:	40061201 	andmi	r1, r6, r1, lsl #4
     ae4:	19429718 	stmdbne	r2, {r3, r4, r8, r9, sl, ip, pc}^
     ae8:	00001301 	andeq	r1, r0, r1, lsl #6
     aec:	01828907 	orreq	r8, r2, r7, lsl #18
     af0:	31011101 	tstcc	r1, r1, lsl #2
     af4:	08000013 	stmdaeq	r0, {r0, r1, r4}
     af8:	0001828a 	andeq	r8, r1, sl, lsl #5
     afc:	42911802 	addsmi	r1, r1, #131072	; 0x20000
     b00:	09000018 	stmdbeq	r0, {r3, r4}
     b04:	08030034 	stmdaeq	r3, {r2, r4, r5}
     b08:	0b3b0b3a 	bleq	ec37f8 <__bss_end__+0xeb9460>
     b0c:	18021349 	stmdane	r2, {r0, r3, r6, r8, r9, ip}
     b10:	890a0000 	stmdbhi	sl, {}	; <UNPREDICTABLE>
     b14:	11000182 	smlabbne	r0, r2, r1, r0
     b18:	00133101 	andseq	r3, r3, r1, lsl #2
     b1c:	00050b00 	andeq	r0, r5, r0, lsl #22
     b20:	0b3a0803 	bleq	e82b34 <__bss_end__+0xe7879c>
     b24:	13490b3b 	movtne	r0, #39739	; 0x9b3b
     b28:	00001702 	andeq	r1, r0, r2, lsl #14
     b2c:	11010b0c 	tstne	r1, ip, lsl #22
     b30:	01061201 	tsteq	r6, r1, lsl #4
     b34:	0d000013 	stceq	0, cr0, [r0, #-76]	; 0xffffffb4
     b38:	08030034 	stmdaeq	r3, {r2, r4, r5}
     b3c:	0b3b0b3a 	bleq	ec382c <__bss_end__+0xeb9494>
     b40:	17021349 	strne	r1, [r2, -r9, asr #6]
     b44:	2e0e0000 	cdpcs	0, 0, cr0, cr14, cr0, {0}
     b48:	03193f01 	tsteq	r9, #1, 30
     b4c:	3b0b3a0e 	blcc	2cf38c <__bss_end__+0x2c4ff4>
     b50:	4919270b 	ldmdbmi	r9, {r0, r1, r3, r8, r9, sl, sp}
     b54:	00193c13 	andseq	r3, r9, r3, lsl ip
     b58:	00050f00 	andeq	r0, r5, r0, lsl #30
     b5c:	00001349 	andeq	r1, r0, r9, asr #6
     b60:	01110100 	tsteq	r1, r0, lsl #2
     b64:	0b130e25 	bleq	4c4400 <__bss_end__+0x4ba068>
     b68:	0e1b0e03 	cdpeq	14, 1, cr0, cr11, cr3, {0}
     b6c:	06120111 			; <UNDEFINED> instruction: 0x06120111
     b70:	00001710 	andeq	r1, r0, r0, lsl r7
     b74:	0b002402 	bleq	9b84 <cb_get_block+0x4>
     b78:	030b3e0b 	movweq	r3, #48651	; 0xbe0b
     b7c:	0300000e 	movweq	r0, #14
     b80:	0b0b0024 	bleq	2c0c18 <__bss_end__+0x2b6880>
     b84:	08030b3e 	stmdaeq	r3, {r1, r2, r3, r4, r5, r8, r9, fp}
     b88:	04040000 	streq	r0, [r4], #-0
     b8c:	3a0b0b01 	bcc	2c3798 <__bss_end__+0x2b9400>
     b90:	010b3b0b 	tsteq	fp, fp, lsl #22
     b94:	05000013 	streq	r0, [r0, #-19]
     b98:	0e030028 	cdpeq	0, 0, cr0, cr3, cr8, {1}
     b9c:	00000d1c 	andeq	r0, r0, ip, lsl sp
     ba0:	03001606 	movweq	r1, #1542	; 0x606
     ba4:	3b0b3a0e 	blcc	2cf3e4 <__bss_end__+0x2c504c>
     ba8:	0013490b 	andseq	r4, r3, fp, lsl #18
     bac:	012e0700 	teqeq	lr, r0, lsl #14
     bb0:	0e03193f 	mcreq	9, 0, r1, cr3, cr15, {1}
     bb4:	0b3b0b3a 	bleq	ec38a4 <__bss_end__+0xeb950c>
     bb8:	01111927 	tsteq	r1, r7, lsr #18
     bbc:	18400612 	stmdane	r0, {r1, r4, r9, sl}^
     bc0:	01194297 			; <UNDEFINED> instruction: 0x01194297
     bc4:	08000013 	stmdaeq	r0, {r0, r1, r4}
     bc8:	08030005 	stmdaeq	r3, {r0, r2}
     bcc:	0b3b0b3a 	bleq	ec38bc <__bss_end__+0xeb9524>
     bd0:	17021349 	strne	r1, [r2, -r9, asr #6]
     bd4:	34090000 	strcc	r0, [r9], #-0
     bd8:	3a0e0300 	bcc	3817e0 <__bss_end__+0x377448>
     bdc:	490b3b0b 	stmdbmi	fp, {r0, r1, r3, r8, r9, fp, ip, sp}
     be0:	00170213 	andseq	r0, r7, r3, lsl r2
     be4:	82890a00 	addhi	r0, r9, #0, 20
     be8:	01110101 	tsteq	r1, r1, lsl #2
     bec:	13011331 	movwne	r1, #4913	; 0x1331
     bf0:	8a0b0000 	bhi	2c0bf8 <__bss_end__+0x2b6860>
     bf4:	02000182 	andeq	r0, r0, #-2147483616	; 0x80000020
     bf8:	18429118 	stmdane	r2, {r3, r4, r8, ip, pc}^
     bfc:	890c0000 	stmdbhi	ip, {}	; <UNPREDICTABLE>
     c00:	11010182 	smlabbne	r1, r2, r1, r0
     c04:	00133101 	andseq	r3, r3, r1, lsl #2
     c08:	000f0d00 	andeq	r0, pc, r0, lsl #26
     c0c:	13490b0b 	movtne	r0, #39691	; 0x9b0b
     c10:	350e0000 	strcc	r0, [lr, #-0]
     c14:	00134900 	andseq	r4, r3, r0, lsl #18
     c18:	012e0f00 	teqeq	lr, r0, lsl #30
     c1c:	0e03193f 	mcreq	9, 0, r1, cr3, cr15, {1}
     c20:	0b3b0b3a 	bleq	ec3910 <__bss_end__+0xeb9578>
     c24:	13491927 	movtne	r1, #39207	; 0x9927
     c28:	06120111 			; <UNDEFINED> instruction: 0x06120111
     c2c:	42971840 	addsmi	r1, r7, #64, 16	; 0x400000
     c30:	00130119 	andseq	r0, r3, r9, lsl r1
     c34:	00341000 	eorseq	r1, r4, r0
     c38:	0b3a0803 	bleq	e82c4c <__bss_end__+0xe788b4>
     c3c:	13490b3b 	movtne	r0, #39739	; 0x9b3b
     c40:	00001702 	andeq	r1, r0, r2, lsl #14
     c44:	01828911 	orreq	r8, r2, r1, lsl r9
     c48:	31011100 	mrscc	r1, (UNDEF: 17)
     c4c:	12000013 	andne	r0, r0, #19
     c50:	0e030005 	cdpeq	0, 0, cr0, cr3, cr5, {0}
     c54:	0b3b0b3a 	bleq	ec3944 <__bss_end__+0xeb95ac>
     c58:	17021349 	strne	r1, [r2, -r9, asr #6]
     c5c:	2e130000 	cdpcs	0, 1, cr0, cr3, cr0, {0}
     c60:	03193f01 	tsteq	r9, #1, 30
     c64:	3b0b3a0e 	blcc	2cf4a4 <__bss_end__+0x2c510c>
     c68:	49192705 	ldmdbmi	r9, {r0, r2, r8, r9, sl, sp}
     c6c:	12011113 	andne	r1, r1, #-1073741820	; 0xc0000004
     c70:	97184006 	ldrls	r4, [r8, -r6]
     c74:	13011942 	movwne	r1, #6466	; 0x1942
     c78:	05140000 	ldreq	r0, [r4, #-0]
     c7c:	3a0e0300 	bcc	381884 <__bss_end__+0x3774ec>
     c80:	49053b0b 	stmdbmi	r5, {r0, r1, r3, r8, r9, fp, ip, sp}
     c84:	00170213 	andseq	r0, r7, r3, lsl r2
     c88:	012e1500 	teqeq	lr, r0, lsl #10
     c8c:	0e03193f 	mcreq	9, 0, r1, cr3, cr15, {1}
     c90:	053b0b3a 	ldreq	r0, [fp, #-2874]!	; 0xb3a
     c94:	01111927 	tsteq	r1, r7, lsr #18
     c98:	18400612 	stmdane	r0, {r1, r4, r9, sl}^
     c9c:	01194297 			; <UNDEFINED> instruction: 0x01194297
     ca0:	16000013 			; <UNDEFINED> instruction: 0x16000013
     ca4:	08030005 	stmdaeq	r3, {r0, r2}
     ca8:	053b0b3a 	ldreq	r0, [fp, #-2874]!	; 0xb3a
     cac:	17021349 	strne	r1, [r2, -r9, asr #6]
     cb0:	34170000 	ldrcc	r0, [r7], #-0
     cb4:	3a0e0300 	bcc	3818bc <__bss_end__+0x377524>
     cb8:	49053b0b 	stmdbmi	r5, {r0, r1, r3, r8, r9, fp, ip, sp}
     cbc:	00170213 	andseq	r0, r7, r3, lsl r2
     cc0:	010b1800 	tsteq	fp, r0, lsl #16
     cc4:	06120111 			; <UNDEFINED> instruction: 0x06120111
     cc8:	00001301 	andeq	r1, r0, r1, lsl #6
     ccc:	03003419 	movweq	r3, #1049	; 0x419
     cd0:	3b0b3a0e 	blcc	2cf510 <__bss_end__+0x2c5178>
     cd4:	3f13490b 	svccc	0x0013490b
     cd8:	00180219 	andseq	r0, r8, r9, lsl r2
     cdc:	00341a00 	eorseq	r1, r4, r0, lsl #20
     ce0:	0b3a0e03 	bleq	e844f4 <__bss_end__+0xe7a15c>
     ce4:	1349053b 	movtne	r0, #38203	; 0x953b
     ce8:	1802193f 	stmdane	r2, {r0, r1, r2, r3, r4, r5, r8, fp, ip}
     cec:	2e1b0000 	cdpcs	0, 1, cr0, cr11, cr0, {0}
     cf0:	03193f01 	tsteq	r9, #1, 30
     cf4:	3b0b3a0e 	blcc	2cf534 <__bss_end__+0x2c519c>
     cf8:	4919270b 	ldmdbmi	r9, {r0, r1, r3, r8, r9, sl, sp}
     cfc:	01193c13 	tsteq	r9, r3, lsl ip
     d00:	1c000013 	stcne	0, cr0, [r0], {19}
     d04:	13490005 	movtne	r0, #36869	; 0x9005
     d08:	261d0000 	ldrcs	r0, [sp], -r0
     d0c:	00134900 	andseq	r4, r3, r0, lsl #18
     d10:	00351e00 	eorseq	r1, r5, r0, lsl #28
     d14:	2e1f0000 	cdpcs	0, 1, cr0, cr15, cr0, {0}
     d18:	03193f01 	tsteq	r9, #1, 30
     d1c:	3b0b3a0e 	blcc	2cf55c <__bss_end__+0x2c51c4>
     d20:	3c19270b 	ldccc	7, cr2, [r9], {11}
     d24:	00130119 	andseq	r0, r3, r9, lsl r1
     d28:	002e2000 	eoreq	r2, lr, r0
     d2c:	0e03193f 	mcreq	9, 0, r1, cr3, cr15, {1}
     d30:	0b3b0b3a 	bleq	ec3a20 <__bss_end__+0xeb9688>
     d34:	193c1927 	ldmdbne	ip!, {r0, r1, r2, r5, r8, fp, ip}
     d38:	01000000 	mrseq	r0, (UNDEF: 0)
     d3c:	0e250111 	mcreq	1, 1, r0, cr5, cr1, {0}
     d40:	0e030b13 	vmoveq.32	d3[0], r0
     d44:	01110e1b 	tsteq	r1, fp, lsl lr
     d48:	17100612 			; <UNDEFINED> instruction: 0x17100612
     d4c:	24020000 	strcs	r0, [r2], #-0
     d50:	3e0b0b00 	vmlacc.f64	d0, d11, d0
     d54:	0008030b 	andeq	r0, r8, fp, lsl #6
     d58:	00240300 	eoreq	r0, r4, r0, lsl #6
     d5c:	0b3e0b0b 	bleq	f83990 <__bss_end__+0xf795f8>
     d60:	00000e03 	andeq	r0, r0, r3, lsl #28
     d64:	03001604 	movweq	r1, #1540	; 0x604
     d68:	3b0b3a0e 	blcc	2cf5a8 <__bss_end__+0x2c5210>
     d6c:	0013490b 	andseq	r4, r3, fp, lsl #18
     d70:	000f0500 	andeq	r0, pc, r0, lsl #10
     d74:	00000b0b 	andeq	r0, r0, fp, lsl #22
     d78:	0b000f06 	bleq	4998 <_start-0x3668>
     d7c:	0013490b 	andseq	r4, r3, fp, lsl #18
     d80:	00260700 	eoreq	r0, r6, r0, lsl #14
     d84:	00001349 	andeq	r1, r0, r9, asr #6
     d88:	0b011308 	bleq	459b0 <__bss_end__+0x3b618>
     d8c:	3b0b3a0b 	blcc	2cf5c0 <__bss_end__+0x2c5228>
     d90:	0013010b 	andseq	r0, r3, fp, lsl #2
     d94:	000d0900 	andeq	r0, sp, r0, lsl #18
     d98:	0b3a0803 	bleq	e82dac <__bss_end__+0xe78a14>
     d9c:	13490b3b 	movtne	r0, #39739	; 0x9b3b
     da0:	00000b38 	andeq	r0, r0, r8, lsr fp
     da4:	03000d0a 	movweq	r0, #3338	; 0xd0a
     da8:	3b0b3a0e 	blcc	2cf5e8 <__bss_end__+0x2c5250>
     dac:	3813490b 	ldmdacc	r3, {r0, r1, r3, r8, fp, lr}
     db0:	0b00000b 	bleq	de4 <_start-0x721c>
     db4:	0e030113 	mcreq	1, 0, r0, cr3, cr3, {0}
     db8:	0b3a0b0b 	bleq	e839ec <__bss_end__+0xe79654>
     dbc:	13010b3b 	movwne	r0, #6971	; 0x1b3b
     dc0:	0d0c0000 	stceq	0, cr0, [ip, #-0]
     dc4:	490e0300 	stmdbmi	lr, {r8, r9}
     dc8:	340b3813 	strcc	r3, [fp], #-2067	; 0x813
     dcc:	0d000019 	stceq	0, cr0, [r0, #-100]	; 0xffffff9c
     dd0:	0e03012e 	adfeqsp	f0, f3, #0.5
     dd4:	0b3b0b3a 	bleq	ec3ac4 <__bss_end__+0xeb972c>
     dd8:	0b201927 	bleq	80727c <__bss_end__+0x7fcee4>
     ddc:	00001301 	andeq	r1, r0, r1, lsl #6
     de0:	0300050e 	movweq	r0, #1294	; 0x50e
     de4:	3b0b3a0e 	blcc	2cf624 <__bss_end__+0x2c528c>
     de8:	0013490b 	andseq	r4, r3, fp, lsl #18
     dec:	00050f00 	andeq	r0, r5, r0, lsl #30
     df0:	0b3a0803 	bleq	e82e04 <__bss_end__+0xe78a6c>
     df4:	13490b3b 	movtne	r0, #39739	; 0x9b3b
     df8:	0b100000 	bleq	400e00 <__bss_end__+0x3f6a68>
     dfc:	11000001 	tstne	r0, r1
     e00:	0e030034 	mcreq	0, 0, r0, cr3, cr4, {1}
     e04:	0b3b0b3a 	bleq	ec3af4 <__bss_end__+0xeb975c>
     e08:	00001349 	andeq	r1, r0, r9, asr #6
     e0c:	3f012e12 	svccc	0x00012e12
     e10:	3a0e0319 	bcc	381a7c <__bss_end__+0x3776e4>
     e14:	270b3b0b 	strcs	r3, [fp, -fp, lsl #22]
     e18:	12011119 	andne	r1, r1, #1073741830	; 0x40000006
     e1c:	97184006 	ldrls	r4, [r8, -r6]
     e20:	13011942 	movwne	r1, #6466	; 0x1942
     e24:	05130000 	ldreq	r0, [r3, #-0]
     e28:	3a0e0300 	bcc	381a30 <__bss_end__+0x377698>
     e2c:	490b3b0b 	stmdbmi	fp, {r0, r1, r3, r8, r9, fp, ip, sp}
     e30:	00170213 	andseq	r0, r7, r3, lsl r2
     e34:	00051400 	andeq	r1, r5, r0, lsl #8
     e38:	0b3a0803 	bleq	e82e4c <__bss_end__+0xe78ab4>
     e3c:	13490b3b 	movtne	r0, #39739	; 0x9b3b
     e40:	00001702 	andeq	r1, r0, r2, lsl #14
     e44:	03003415 	movweq	r3, #1045	; 0x415
     e48:	3b0b3a08 	blcc	2cf670 <__bss_end__+0x2c52d8>
     e4c:	0213490b 	andseq	r4, r3, #180224	; 0x2c000
     e50:	16000018 			; <UNDEFINED> instruction: 0x16000018
     e54:	08030034 	stmdaeq	r3, {r2, r4, r5}
     e58:	0b3b0b3a 	bleq	ec3b48 <__bss_end__+0xeb97b0>
     e5c:	17021349 	strne	r1, [r2, -r9, asr #6]
     e60:	0b170000 	bleq	5c0e68 <__bss_end__+0x5b6ad0>
     e64:	12011101 	andne	r1, r1, #1073741824	; 0x40000000
     e68:	00130106 	andseq	r0, r3, r6, lsl #2
     e6c:	00341800 	eorseq	r1, r4, r0, lsl #16
     e70:	0b3a0e03 	bleq	e84684 <__bss_end__+0xe7a2ec>
     e74:	13490b3b 	movtne	r0, #39739	; 0x9b3b
     e78:	00001802 	andeq	r1, r0, r2, lsl #16
     e7c:	31011d19 	tstcc	r1, r9, lsl sp
     e80:	12011113 	andne	r1, r1, #-1073741820	; 0xc0000004
     e84:	590b5806 	stmdbpl	fp, {r1, r2, fp, ip, lr}
     e88:	0013010b 	andseq	r0, r3, fp, lsl #2
     e8c:	00051a00 	andeq	r1, r5, r0, lsl #20
     e90:	17021331 	smladxne	r2, r1, r3, r1
     e94:	051b0000 	ldreq	r0, [fp, #-0]
     e98:	02133100 	andseq	r3, r3, #0, 2
     e9c:	1c000018 	stcne	0, cr0, [r0], {24}
     ea0:	13310005 	teqne	r1, #5
     ea4:	00000b1c 	andeq	r0, r0, ip, lsl fp
     ea8:	11010b1d 	tstne	r1, sp, lsl fp
     eac:	00061201 	andeq	r1, r6, r1, lsl #4
     eb0:	00341e00 	eorseq	r1, r4, r0, lsl #28
     eb4:	17021331 	smladxne	r2, r1, r3, r1
     eb8:	891f0000 	ldmdbhi	pc, {}	; <UNPREDICTABLE>
     ebc:	11010182 	smlabbne	r1, r2, r1, r0
     ec0:	00133101 	andseq	r3, r3, r1, lsl #2
     ec4:	828a2000 	addhi	r2, sl, #0
     ec8:	18020001 	stmdane	r2, {r0}
     ecc:	00184291 	mulseq	r8, r1, r2
     ed0:	011d2100 	tsteq	sp, r0, lsl #2
     ed4:	01111331 	tsteq	r1, r1, lsr r3
     ed8:	0b580612 	bleq	1602728 <__bss_end__+0x15f8390>
     edc:	00000b59 	andeq	r0, r0, r9, asr fp
     ee0:	03012e22 	movweq	r2, #7714	; 0x1e22
     ee4:	3b0b3a0e 	blcc	2cf724 <__bss_end__+0x2c538c>
     ee8:	4919270b 	ldmdbmi	r9, {r0, r1, r3, r8, r9, sl, sp}
     eec:	010b2013 	tsteq	fp, r3, lsl r0
     ef0:	23000013 	movwcs	r0, #19
     ef4:	193f012e 	ldmdbne	pc!, {r1, r2, r3, r5, r8}	; <UNPREDICTABLE>
     ef8:	0b3a0e03 	bleq	e8470c <__bss_end__+0xe7a374>
     efc:	19270b3b 	stmdbne	r7!, {r0, r1, r3, r4, r5, r8, r9, fp}
     f00:	01111349 	tsteq	r1, r9, asr #6
     f04:	18400612 	stmdane	r0, {r1, r4, r9, sl}^
     f08:	01194297 			; <UNDEFINED> instruction: 0x01194297
     f0c:	24000013 	strcs	r0, [r0], #-19
     f10:	00018289 	andeq	r8, r1, r9, lsl #5
     f14:	13310111 	teqne	r1, #1073741828	; 0x40000004
     f18:	89250000 	stmdbhi	r5!, {}	; <UNPREDICTABLE>
     f1c:	11010182 	smlabbne	r1, r2, r1, r0
     f20:	01133101 	tsteq	r3, r1, lsl #2
     f24:	26000013 			; <UNDEFINED> instruction: 0x26000013
     f28:	0e030034 	mcreq	0, 0, r0, cr3, cr4, {1}
     f2c:	0b3b0b3a 	bleq	ec3c1c <__bss_end__+0xeb9884>
     f30:	17021349 	strne	r1, [r2, -r9, asr #6]
     f34:	05270000 	streq	r0, [r7, #-0]!
     f38:	00133100 	andseq	r3, r3, r0, lsl #2
     f3c:	00052800 	andeq	r2, r5, r0, lsl #16
     f40:	0b3a0e03 	bleq	e84754 <__bss_end__+0xe7a3bc>
     f44:	13490b3b 	movtne	r0, #39739	; 0x9b3b
     f48:	00001802 	andeq	r1, r0, r2, lsl #16
     f4c:	03003429 	movweq	r3, #1065	; 0x429
     f50:	3413490e 	ldrcc	r4, [r3], #-2318	; 0x90e
     f54:	00180219 	andseq	r0, r8, r9, lsl r2
     f58:	01012a00 	tsteq	r1, r0, lsl #20
     f5c:	13011349 	movwne	r1, #4937	; 0x1349
     f60:	212b0000 	teqcs	fp, r0
     f64:	2f134900 	svccs	0x00134900
     f68:	2c00000b 	stccs	0, cr0, [r0], {11}
     f6c:	08030034 	stmdaeq	r3, {r2, r4, r5}
     f70:	0b3b0b3a 	bleq	ec3c60 <__bss_end__+0xeb98c8>
     f74:	061c1349 	ldreq	r1, [ip], -r9, asr #6
     f78:	342d0000 	strtcc	r0, [sp], #-0
     f7c:	3a080300 	bcc	201b84 <__bss_end__+0x1f77ec>
     f80:	490b3b0b 	stmdbmi	fp, {r0, r1, r3, r8, r9, fp, ip, sp}
     f84:	000b1c13 	andeq	r1, fp, r3, lsl ip
     f88:	00052e00 	andeq	r2, r5, r0, lsl #28
     f8c:	0b3a0803 	bleq	e82fa0 <__bss_end__+0xe78c08>
     f90:	13490b3b 	movtne	r0, #39739	; 0x9b3b
     f94:	00001802 	andeq	r1, r0, r2, lsl #16
     f98:	0000182f 	andeq	r1, r0, pc, lsr #16
     f9c:	00213000 	eoreq	r3, r1, r0
     fa0:	052f1349 	streq	r1, [pc, #-841]!	; c5f <_start-0x73a1>
     fa4:	2e310000 	cdpcs	0, 3, cr0, cr1, cr0, {0}
     fa8:	03193f01 	tsteq	r9, #1, 30
     fac:	3b0b3a0e 	blcc	2cf7ec <__bss_end__+0x2c5454>
     fb0:	3c19270b 	ldccc	7, cr2, [r9], {11}
     fb4:	00130119 	andseq	r0, r3, r9, lsl r1
     fb8:	00053200 	andeq	r3, r5, r0, lsl #4
     fbc:	00001349 	andeq	r1, r0, r9, asr #6
     fc0:	3f002e33 	svccc	0x00002e33
     fc4:	3a0e0319 	bcc	381c30 <__bss_end__+0x377898>
     fc8:	270b3b0b 	strcs	r3, [fp, -fp, lsl #22]
     fcc:	3c134919 	ldccc	9, cr4, [r3], {25}
     fd0:	34000019 	strcc	r0, [r0], #-25
     fd4:	193f012e 	ldmdbne	pc!, {r1, r2, r3, r5, r8}	; <UNPREDICTABLE>
     fd8:	0b3a0e03 	bleq	e847ec <__bss_end__+0xe7a454>
     fdc:	19270b3b 	stmdbne	r7!, {r0, r1, r3, r4, r5, r8, r9, fp}
     fe0:	193c1349 	ldmdbne	ip!, {r0, r3, r6, r8, r9, ip}
     fe4:	00001301 	andeq	r1, r0, r1, lsl #6
     fe8:	3f002e35 	svccc	0x00002e35
     fec:	3a0e0319 	bcc	381c58 <__bss_end__+0x3778c0>
     ff0:	270b3b0b 	strcs	r3, [fp, -fp, lsl #22]
     ff4:	00193c19 	andseq	r3, r9, r9, lsl ip
     ff8:	012e3600 	teqeq	lr, r0, lsl #12
     ffc:	0e03193f 	mcreq	9, 0, r1, cr3, cr15, {1}
    1000:	0b3b0b3a 	bleq	ec3cf0 <__bss_end__+0xeb9958>
    1004:	13491927 	movtne	r1, #39207	; 0x9927
    1008:	0000193c 	andeq	r1, r0, ip, lsr r9
    100c:	01110100 	tsteq	r1, r0, lsl #2
    1010:	0b130e25 	bleq	4c48ac <__bss_end__+0x4ba514>
    1014:	0e1b0e03 	cdpeq	14, 1, cr0, cr11, cr3, {0}
    1018:	06120111 			; <UNDEFINED> instruction: 0x06120111
    101c:	00001710 	andeq	r1, r0, r0, lsl r7
    1020:	0b002402 	bleq	a030 <__bss_start__+0xa8>
    1024:	030b3e0b 	movweq	r3, #48651	; 0xbe0b
    1028:	03000008 	movweq	r0, #8
    102c:	0b0b0024 	bleq	2c10c4 <__bss_end__+0x2b6d2c>
    1030:	0e030b3e 	vmoveq.16	d3[0], r0
    1034:	04040000 	streq	r0, [r4], #-0
    1038:	3a0b0b01 	bcc	2c3c44 <__bss_end__+0x2b98ac>
    103c:	010b3b0b 	tsteq	fp, fp, lsl #22
    1040:	05000013 	streq	r0, [r0, #-19]
    1044:	0e030028 	cdpeq	0, 0, cr0, cr3, cr8, {1}
    1048:	00000d1c 	andeq	r0, r0, ip, lsl sp
    104c:	03001606 	movweq	r1, #1542	; 0x606
    1050:	3b0b3a0e 	blcc	2cf890 <__bss_end__+0x2c54f8>
    1054:	0013490b 	andseq	r4, r3, fp, lsl #18
    1058:	012e0700 	teqeq	lr, r0, lsl #14
    105c:	0e03193f 	mcreq	9, 0, r1, cr3, cr15, {1}
    1060:	0b3b0b3a 	bleq	ec3d50 <__bss_end__+0xeb99b8>
    1064:	01111927 	tsteq	r1, r7, lsr #18
    1068:	18400612 	stmdane	r0, {r1, r4, r9, sl}^
    106c:	01194297 			; <UNDEFINED> instruction: 0x01194297
    1070:	08000013 	stmdaeq	r0, {r0, r1, r4}
    1074:	00018289 	andeq	r8, r1, r9, lsl #5
    1078:	13310111 	teqne	r1, #1073741828	; 0x40000004
    107c:	89090000 	stmdbhi	r9, {}	; <UNPREDICTABLE>
    1080:	11010182 	smlabbne	r1, r2, r1, r0
    1084:	01133101 	tsteq	r3, r1, lsl #2
    1088:	0a000013 	beq	10dc <_start-0x6f24>
    108c:	0001828a 	andeq	r8, r1, sl, lsl #5
    1090:	42911802 	addsmi	r1, r1, #131072	; 0x20000
    1094:	0b000018 	bleq	10fc <_start-0x6f04>
    1098:	193f012e 	ldmdbne	pc!, {r1, r2, r3, r5, r8}	; <UNPREDICTABLE>
    109c:	0b3a0e03 	bleq	e848b0 <__bss_end__+0xe7a518>
    10a0:	19270b3b 	stmdbne	r7!, {r0, r1, r3, r4, r5, r8, r9, fp}
    10a4:	01111349 	tsteq	r1, r9, asr #6
    10a8:	18400612 	stmdane	r0, {r1, r4, r9, sl}^
    10ac:	01194297 			; <UNDEFINED> instruction: 0x01194297
    10b0:	0c000013 	stceq	0, cr0, [r0], {19}
    10b4:	08030005 	stmdaeq	r3, {r0, r2}
    10b8:	0b3b0b3a 	bleq	ec3da8 <__bss_end__+0xeb9a10>
    10bc:	17021349 	strne	r1, [r2, -r9, asr #6]
    10c0:	890d0000 	stmdbhi	sp, {}	; <UNPREDICTABLE>
    10c4:	11010182 	smlabbne	r1, r2, r1, r0
    10c8:	00133101 	andseq	r3, r3, r1, lsl #2
    10cc:	00340e00 	eorseq	r0, r4, r0, lsl #28
    10d0:	0b3a0e03 	bleq	e848e4 <__bss_end__+0xe7a54c>
    10d4:	13490b3b 	movtne	r0, #39739	; 0x9b3b
    10d8:	1802193f 	stmdane	r2, {r0, r1, r2, r3, r4, r5, r8, fp, ip}
    10dc:	0f0f0000 	svceq	0x000f0000
    10e0:	490b0b00 	stmdbmi	fp, {r8, r9, fp}
    10e4:	10000013 	andne	r0, r0, r3, lsl r0
    10e8:	13490035 	movtne	r0, #36917	; 0x9035
    10ec:	2e110000 	cdpcs	0, 1, cr0, cr1, cr0, {0}
    10f0:	03193f00 	tsteq	r9, #0, 30
    10f4:	3b0b3a0e 	blcc	2cf934 <__bss_end__+0x2c559c>
    10f8:	3c19270b 	ldccc	7, cr2, [r9], {11}
    10fc:	12000019 	andne	r0, r0, #25
    1100:	193f012e 	ldmdbne	pc!, {r1, r2, r3, r5, r8}	; <UNPREDICTABLE>
    1104:	0b3a0e03 	bleq	e84918 <__bss_end__+0xe7a580>
    1108:	19270b3b 	stmdbne	r7!, {r0, r1, r3, r4, r5, r8, r9, fp}
    110c:	1301193c 	movwne	r1, #6460	; 0x193c
    1110:	05130000 	ldreq	r0, [r3, #-0]
    1114:	00134900 	andseq	r4, r3, r0, lsl #18
    1118:	012e1400 	teqeq	lr, r0, lsl #8
    111c:	0e03193f 	mcreq	9, 0, r1, cr3, cr15, {1}
    1120:	0b3b0b3a 	bleq	ec3e10 <__bss_end__+0xeb9a78>
    1124:	13491927 	movtne	r1, #39207	; 0x9927
    1128:	1301193c 	movwne	r1, #6460	; 0x193c
    112c:	26150000 	ldrcs	r0, [r5], -r0
    1130:	00134900 	andseq	r4, r3, r0, lsl #18
    1134:	00351600 	eorseq	r1, r5, r0, lsl #12
    1138:	01000000 	mrseq	r0, (UNDEF: 0)
    113c:	0e250111 	mcreq	1, 1, r0, cr5, cr1, {0}
    1140:	0e030b13 	vmoveq.32	d3[0], r0
    1144:	01110e1b 	tsteq	r1, fp, lsl lr
    1148:	17100612 			; <UNDEFINED> instruction: 0x17100612
    114c:	24020000 	strcs	r0, [r2], #-0
    1150:	3e0b0b00 	vmlacc.f64	d0, d11, d0
    1154:	0008030b 	andeq	r0, r8, fp, lsl #6
    1158:	00160300 	andseq	r0, r6, r0, lsl #6
    115c:	0b3a0e03 	bleq	e84970 <__bss_end__+0xe7a5d8>
    1160:	13490b3b 	movtne	r0, #39739	; 0x9b3b
    1164:	24040000 	strcs	r0, [r4], #-0
    1168:	3e0b0b00 	vmlacc.f64	d0, d11, d0
    116c:	000e030b 	andeq	r0, lr, fp, lsl #6
    1170:	000f0500 	andeq	r0, pc, r0, lsl #10
    1174:	00000b0b 	andeq	r0, r0, fp, lsl #22
    1178:	0b011306 	bleq	45d98 <__bss_end__+0x3ba00>
    117c:	3b0b3a0b 	blcc	2cf9b0 <__bss_end__+0x2c5618>
    1180:	0013010b 	andseq	r0, r3, fp, lsl #2
    1184:	000d0700 	andeq	r0, sp, r0, lsl #14
    1188:	0b3a0803 	bleq	e8319c <__bss_end__+0xe78e04>
    118c:	13490b3b 	movtne	r0, #39739	; 0x9b3b
    1190:	00000b38 	andeq	r0, r0, r8, lsr fp
    1194:	03000d08 	movweq	r0, #3336	; 0xd08
    1198:	3b0b3a0e 	blcc	2cf9d8 <__bss_end__+0x2c5640>
    119c:	3813490b 	ldmdacc	r3, {r0, r1, r3, r8, fp, lr}
    11a0:	0900000b 	stmdbeq	r0, {r0, r1, r3}
    11a4:	0b0b0104 	bleq	2c15bc <__bss_end__+0x2b7224>
    11a8:	0b3b0b3a 	bleq	ec3e98 <__bss_end__+0xeb9b00>
    11ac:	00001301 	andeq	r1, r0, r1, lsl #6
    11b0:	0300280a 	movweq	r2, #2058	; 0x80a
    11b4:	000d1c0e 	andeq	r1, sp, lr, lsl #24
    11b8:	012e0b00 	teqeq	lr, r0, lsl #22
    11bc:	0e03193f 	mcreq	9, 0, r1, cr3, cr15, {1}
    11c0:	0b3b0b3a 	bleq	ec3eb0 <__bss_end__+0xeb9b18>
    11c4:	13491927 	movtne	r1, #39207	; 0x9927
    11c8:	06120111 			; <UNDEFINED> instruction: 0x06120111
    11cc:	42971840 	addsmi	r1, r7, #64, 16	; 0x400000
    11d0:	00130119 	andseq	r0, r3, r9, lsl r1
    11d4:	00340c00 	eorseq	r0, r4, r0, lsl #24
    11d8:	0b3a0803 	bleq	e831ec <__bss_end__+0xe78e54>
    11dc:	13490b3b 	movtne	r0, #39739	; 0x9b3b
    11e0:	0000061c 	andeq	r0, r0, ip, lsl r6
    11e4:	0182890d 	orreq	r8, r2, sp, lsl #18
    11e8:	31011101 	tstcc	r1, r1, lsl #2
    11ec:	0e000013 	mcreq	0, 0, r0, cr0, cr3, {0}
    11f0:	0001828a 	andeq	r8, r1, sl, lsl #5
    11f4:	42911802 	addsmi	r1, r1, #131072	; 0x20000
    11f8:	0f000018 	svceq	0x00000018
    11fc:	0b0b000f 	bleq	2c1240 <__bss_end__+0x2b6ea8>
    1200:	00001349 	andeq	r1, r0, r9, asr #6
    1204:	3f012e10 	svccc	0x00012e10
    1208:	3a0e0319 	bcc	381e74 <__bss_end__+0x377adc>
    120c:	270b3b0b 	strcs	r3, [fp, -fp, lsl #22]
    1210:	3c134919 	ldccc	9, cr4, [r3], {25}
    1214:	11000019 	tstne	r0, r9, lsl r0
    1218:	13490005 	movtne	r0, #36869	; 0x9005
    121c:	01000000 	mrseq	r0, (UNDEF: 0)
    1220:	0e250111 	mcreq	1, 1, r0, cr5, cr1, {0}
    1224:	0e030b13 	vmoveq.32	d3[0], r0
    1228:	01110e1b 	tsteq	r1, fp, lsl lr
    122c:	17100612 			; <UNDEFINED> instruction: 0x17100612
    1230:	24020000 	strcs	r0, [r2], #-0
    1234:	3e0b0b00 	vmlacc.f64	d0, d11, d0
    1238:	000e030b 	andeq	r0, lr, fp, lsl #6
    123c:	00240300 	eoreq	r0, r4, r0, lsl #6
    1240:	0b3e0b0b 	bleq	f83e74 <__bss_end__+0xf79adc>
    1244:	00000803 	andeq	r0, r0, r3, lsl #16
    1248:	0b000f04 	bleq	4e60 <_start-0x31a0>
    124c:	0500000b 	streq	r0, [r0, #-11]
    1250:	0b0b000f 	bleq	2c1294 <__bss_end__+0x2b6efc>
    1254:	00001349 	andeq	r1, r0, r9, asr #6
    1258:	03001606 	movweq	r1, #1542	; 0x606
    125c:	3b0b3a0e 	blcc	2cfa9c <__bss_end__+0x2c5704>
    1260:	0013490b 	andseq	r4, r3, fp, lsl #18
    1264:	012e0700 	teqeq	lr, r0, lsl #14
    1268:	0e03193f 	mcreq	9, 0, r1, cr3, cr15, {1}
    126c:	0b3b0b3a 	bleq	ec3f5c <__bss_end__+0xeb9bc4>
    1270:	13491927 	movtne	r1, #39207	; 0x9927
    1274:	06120111 			; <UNDEFINED> instruction: 0x06120111
    1278:	42971840 	addsmi	r1, r7, #64, 16	; 0x400000
    127c:	08000019 	stmdaeq	r0, {r0, r3, r4}
    1280:	08030005 	stmdaeq	r3, {r0, r2}
    1284:	0b3b0b3a 	bleq	ec3f74 <__bss_end__+0xeb9bdc>
    1288:	18021349 	stmdane	r2, {r0, r3, r6, r8, r9, ip}
    128c:	05090000 	streq	r0, [r9, #-0]
    1290:	3a080300 	bcc	201e98 <__bss_end__+0x1f7b00>
    1294:	490b3b0b 	stmdbmi	fp, {r0, r1, r3, r8, r9, fp, ip, sp}
    1298:	00170213 	andseq	r0, r7, r3, lsl r2
    129c:	00340a00 	eorseq	r0, r4, r0, lsl #20
    12a0:	0b3a0803 	bleq	e832b4 <__bss_end__+0xe78f1c>
    12a4:	13490b3b 	movtne	r0, #39739	; 0x9b3b
    12a8:	00001702 	andeq	r1, r0, r2, lsl #14
    12ac:	0300340b 	movweq	r3, #1035	; 0x40b
    12b0:	3b0b3a08 	blcc	2cfad8 <__bss_end__+0x2c5740>
    12b4:	0213490b 	andseq	r4, r3, #180224	; 0x2c000
    12b8:	00000018 	andeq	r0, r0, r8, lsl r0

Disassembly of section .debug_loc:

00000000 <.debug_loc>:
       0:	00000000 	andeq	r0, r0, r0
       4:	00000018 	andeq	r0, r0, r8, lsl r0
       8:	18500001 	ldmdane	r0, {r0}^
       c:	28000000 	stmdacs	r0, {}	; <UNPREDICTABLE>
      10:	04000000 	streq	r0, [r0], #-0
      14:	5001f300 	andpl	pc, r1, r0, lsl #6
      18:	0000289f 	muleq	r0, pc, r8	; <UNPREDICTABLE>
      1c:	00002b00 	andeq	r2, r0, r0, lsl #22
      20:	50000100 	andpl	r0, r0, r0, lsl #2
      24:	0000002b 	andeq	r0, r0, fp, lsr #32
      28:	00000050 	andeq	r0, r0, r0, asr r0
      2c:	01f30004 	mvnseq	r0, r4
      30:	00009f50 	andeq	r9, r0, r0, asr pc
      34:	00000000 	andeq	r0, r0, r0
      38:	00200000 	eoreq	r0, r0, r0
      3c:	00240000 	eoreq	r0, r4, r0
      40:	00010000 	andeq	r0, r1, r0
      44:	00000050 	andeq	r0, r0, r0, asr r0
      48:	00000000 	andeq	r0, r0, r0
      4c:	00005000 	andeq	r5, r0, r0
      50:	00007400 	andeq	r7, r0, r0, lsl #8
      54:	50000100 	andpl	r0, r0, r0, lsl #2
      58:	00000074 	andeq	r0, r0, r4, ror r0
      5c:	00000118 	andeq	r0, r0, r8, lsl r1
      60:	18560001 	ldmdane	r6, {r0}^
      64:	74000001 	strvc	r0, [r0], #-1
      68:	04000004 	streq	r0, [r0], #-4
      6c:	5001f300 	andpl	pc, r1, r0, lsl #6
      70:	0004749f 	muleq	r4, pc, r4	; <UNPREDICTABLE>
      74:	0004c800 	andeq	ip, r4, r0, lsl #16
      78:	56000100 	strpl	r0, [r0], -r0, lsl #2
	...
      84:	00000050 	andeq	r0, r0, r0, asr r0
      88:	000003e4 	andeq	r0, r0, r4, ror #7
      8c:	e4510001 	ldrb	r0, [r1], #-1
      90:	44000003 	strmi	r0, [r0], #-3
      94:	04000004 	streq	r0, [r0], #-4
      98:	5101f300 	mrspl	pc, SP_irq	; <UNPREDICTABLE>
      9c:	0004449f 	muleq	r4, pc, r4	; <UNPREDICTABLE>
      a0:	00047800 	andeq	r7, r4, r0, lsl #16
      a4:	51000100 	mrspl	r0, (UNDEF: 16)
      a8:	00000478 	andeq	r0, r0, r8, ror r4
      ac:	000004a0 	andeq	r0, r0, r0, lsr #9
      b0:	01f30004 	mvnseq	r0, r4
      b4:	04a09f51 	strteq	r9, [r0], #3921	; 0xf51
      b8:	04c80000 	strbeq	r0, [r8], #0
      bc:	00010000 	andeq	r0, r1, r0
      c0:	00000051 	andeq	r0, r0, r1, asr r0
      c4:	00000000 	andeq	r0, r0, r0
      c8:	00005000 	andeq	r5, r0, r0
      cc:	00007800 	andeq	r7, r0, r0, lsl #16
      d0:	52000100 	andpl	r0, r0, #0, 2
      d4:	00000078 	andeq	r0, r0, r8, ror r0
      d8:	000004c8 	andeq	r0, r0, r8, asr #9
      dc:	01f30004 	mvnseq	r0, r4
      e0:	00009f52 	andeq	r9, r0, r2, asr pc
      e4:	00000000 	andeq	r0, r0, r0
      e8:	00500000 	subseq	r0, r0, r0
      ec:	00580000 	subseq	r0, r8, r0
      f0:	00010000 	andeq	r0, r1, r0
      f4:	00005853 	andeq	r5, r0, r3, asr r8
      f8:	0004c800 	andeq	ip, r4, r0, lsl #16
      fc:	f3000400 	vshl.u8	d0, d0, d0
     100:	009f5301 	addseq	r5, pc, r1, lsl #6
     104:	00000000 	andeq	r0, r0, r0
     108:	50000000 	andpl	r0, r0, r0
     10c:	84000000 	strhi	r0, [r0], #-0
     110:	02000000 	andeq	r0, r0, #0
     114:	849f3100 	ldrhi	r3, [pc], #256	; 11c <_start-0x7ee4>
     118:	c8000000 	stmdagt	r0, {}	; <UNPREDICTABLE>
     11c:	01000004 	tsteq	r0, r4
     120:	00005400 	andeq	r5, r0, r0, lsl #8
     124:	00000000 	andeq	r0, r0, r0
     128:	00840000 	addeq	r0, r4, r0
     12c:	00880000 	addeq	r0, r8, r0
     130:	00010000 	andeq	r0, r1, r0
     134:	00008c53 	andeq	r8, r0, r3, asr ip
     138:	0000d800 	andeq	sp, r0, r0, lsl #16
     13c:	53000100 	movwpl	r0, #256	; 0x100
     140:	00000474 	andeq	r0, r0, r4, ror r4
     144:	00000487 	andeq	r0, r0, r7, lsl #9
     148:	00530001 	subseq	r0, r3, r1
     14c:	00000000 	andeq	r0, r0, r0
     150:	68000000 	stmdavs	r0, {}	; <UNPREDICTABLE>
     154:	84000000 	strhi	r0, [r0], #-0
     158:	01000000 	mrseq	r0, (UNDEF: 0)
     15c:	00845e00 	addeq	r5, r4, r0, lsl #28
     160:	00880000 	addeq	r0, r8, r0
     164:	00010000 	andeq	r0, r1, r0
     168:	00008853 	andeq	r8, r0, r3, asr r8
     16c:	00008c00 	andeq	r8, r0, r0, lsl #24
     170:	5e000100 	adfpls	f0, f0, f0
     174:	000000ac 	andeq	r0, r0, ip, lsr #1
     178:	000000d8 	ldrdeq	r0, [r0], -r8
     17c:	74530001 	ldrbvc	r0, [r3], #-1
     180:	87000004 	strhi	r0, [r0, -r4]
     184:	01000004 	tsteq	r0, r4
     188:	00005300 	andeq	r5, r0, r0, lsl #6
     18c:	00000000 	andeq	r0, r0, r0
     190:	00600000 	rsbeq	r0, r0, r0
     194:	00d80000 	sbcseq	r0, r8, r0
     198:	00010000 	andeq	r0, r1, r0
     19c:	00047457 	andeq	r7, r4, r7, asr r4
     1a0:	0004a000 	andeq	sl, r4, r0
     1a4:	57000100 	strpl	r0, [r0, -r0, lsl #2]
	...
     1b0:	00000074 	andeq	r0, r0, r4, ror r0
     1b4:	00000124 	andeq	r0, r0, r4, lsr #2
     1b8:	74500001 	ldrbvc	r0, [r0], #-1
     1bc:	80000004 	andhi	r0, r0, r4
     1c0:	01000004 	tsteq	r0, r4
     1c4:	04a05000 	strteq	r5, [r0], #0
     1c8:	04c80000 	strbeq	r0, [r8], #0
     1cc:	00010000 	andeq	r0, r1, r0
     1d0:	00000050 	andeq	r0, r0, r0, asr r0
     1d4:	00000000 	andeq	r0, r0, r0
     1d8:	00007400 	andeq	r7, r0, r0, lsl #8
     1dc:	00008400 	andeq	r8, r0, r0, lsl #8
     1e0:	30000200 	andcc	r0, r0, r0, lsl #4
     1e4:	0000009f 	muleq	r0, pc, r0	; <UNPREDICTABLE>
     1e8:	00000000 	andeq	r0, r0, r0
     1ec:	0000a800 	andeq	sl, r0, r0, lsl #16
     1f0:	0000b000 	andeq	fp, r0, r0
     1f4:	5e000100 	adfpls	f0, f0, f0
	...
     200:	000000b8 	strheq	r0, [r0], -r8
     204:	000000d8 	ldrdeq	r0, [r0], -r8
     208:	9f300002 	svcls	0x00300002
     20c:	000000d8 	ldrdeq	r0, [r0], -r8
     210:	000000dc 	ldrdeq	r0, [r0], -ip
     214:	dc5e0001 	mrrcle	0, 0, r0, lr, cr1
     218:	e4000000 	str	r0, [r0], #-0
     21c:	02000000 	andeq	r0, r0, #0
     220:	e49f3000 	ldr	r3, [pc], #0	; 228 <_start-0x7dd8>
     224:	20000000 	andcs	r0, r0, r0
     228:	01000001 	tsteq	r0, r1
     22c:	04745e00 	ldrbteq	r5, [r4], #-3584	; 0xe00
     230:	04a00000 	strteq	r0, [r0], #0
     234:	00020000 	andeq	r0, r2, r0
     238:	04a09f30 	strteq	r9, [r0], #3888	; 0xf30
     23c:	04c80000 	strbeq	r0, [r8], #0
     240:	00010000 	andeq	r0, r1, r0
     244:	0000005e 	andeq	r0, r0, lr, asr r0
     248:	00000000 	andeq	r0, r0, r0
     24c:	00010400 	andeq	r0, r1, r0, lsl #8
     250:	00013400 	andeq	r3, r1, r0, lsl #8
     254:	30000200 	andcc	r0, r0, r0, lsl #4
     258:	0001349f 	muleq	r1, pc, r4	; <UNPREDICTABLE>
     25c:	00013800 	andeq	r3, r1, r0, lsl #16
     260:	31000200 	mrscc	r0, R8_usr
     264:	0001389f 	muleq	r1, pc, r8	; <UNPREDICTABLE>
     268:	00016400 	andeq	r6, r1, r0, lsl #8
     26c:	32000200 	andcc	r0, r0, #0, 4
     270:	0001649f 	muleq	r1, pc, r4	; <UNPREDICTABLE>
     274:	00016800 	andeq	r6, r1, r0, lsl #16
     278:	33000200 	movwcc	r0, #512	; 0x200
     27c:	0001689f 	muleq	r1, pc, r8	; <UNPREDICTABLE>
     280:	00019400 	andeq	r9, r1, r0, lsl #8
     284:	34000200 	strcc	r0, [r0], #-512	; 0x200
     288:	0001949f 	muleq	r1, pc, r4	; <UNPREDICTABLE>
     28c:	00019800 	andeq	r9, r1, r0, lsl #16
     290:	35000200 	strcc	r0, [r0, #-512]	; 0x200
     294:	0001989f 	muleq	r1, pc, r8	; <UNPREDICTABLE>
     298:	0001c400 	andeq	ip, r1, r0, lsl #8
     29c:	36000200 	strcc	r0, [r0], -r0, lsl #4
     2a0:	0001c49f 	muleq	r1, pc, r4	; <UNPREDICTABLE>
     2a4:	0001c800 	andeq	ip, r1, r0, lsl #16
     2a8:	37000200 	strcc	r0, [r0, -r0, lsl #4]
     2ac:	0001c89f 	muleq	r1, pc, r8	; <UNPREDICTABLE>
     2b0:	0001f800 	andeq	pc, r1, r0, lsl #16
     2b4:	38000200 	stmdacc	r0, {r9}
     2b8:	0001f89f 	muleq	r1, pc, r8	; <UNPREDICTABLE>
     2bc:	00020400 	andeq	r0, r2, r0, lsl #8
     2c0:	3a000200 	bcc	ac8 <_start-0x7538>
     2c4:	0002049f 	muleq	r2, pc, r4	; <UNPREDICTABLE>
     2c8:	00023c00 	andeq	r3, r2, r0, lsl #24
     2cc:	53000100 	movwpl	r0, #256	; 0x100
     2d0:	0000023c 	andeq	r0, r0, ip, lsr r2
     2d4:	00000240 	andeq	r0, r0, r0, asr #4
     2d8:	6c5c0001 	mrrcvs	0, 0, r0, ip, cr1
     2dc:	70000002 	andvc	r0, r0, r2
     2e0:	01000002 	tsteq	r0, r2
     2e4:	029c5000 	addseq	r5, ip, #0
     2e8:	02a00000 	adceq	r0, r0, #0
     2ec:	00010000 	andeq	r0, r1, r0
     2f0:	0002cc52 	andeq	ip, r2, r2, asr ip
     2f4:	0002d000 	andeq	sp, r2, r0
     2f8:	50000100 	andpl	r0, r0, r0, lsl #2
     2fc:	000002fc 	strdeq	r0, [r0], -ip
     300:	00000300 	andeq	r0, r0, r0, lsl #6
     304:	2c520001 	mrrccs	0, 0, r0, r2, cr1
     308:	30000003 	andcc	r0, r0, r3
     30c:	01000003 	tsteq	r0, r3
     310:	035c5000 	cmpeq	ip, #0
     314:	03600000 	cmneq	r0, #0
     318:	00010000 	andeq	r0, r1, r0
     31c:	00038c52 	andeq	r8, r3, r2, asr ip
     320:	00039000 	andeq	r9, r3, r0
     324:	50000100 	andpl	r0, r0, r0, lsl #2
     328:	000003bc 			; <UNDEFINED> instruction: 0x000003bc
     32c:	000003c0 	andeq	r0, r0, r0, asr #7
     330:	44520001 	ldrbmi	r0, [r2], #-1
     334:	50000004 	andpl	r0, r0, r4
     338:	02000004 	andeq	r0, r0, #4
     33c:	509f3200 	addspl	r3, pc, r0, lsl #4
     340:	5c000004 	stcpl	0, cr0, [r0], {4}
     344:	02000004 	andeq	r0, r0, #4
     348:	5c9f3400 	cfldrspl	mvf3, [pc], {0}
     34c:	68000004 	stmdavs	r0, {r2}
     350:	02000004 	andeq	r0, r0, #4
     354:	689f3600 	ldmvs	pc, {r9, sl, ip, sp}	; <UNPREDICTABLE>
     358:	74000004 	strvc	r0, [r0], #-4
     35c:	02000004 	andeq	r0, r0, #4
     360:	a09f3800 	addsge	r3, pc, r0, lsl #16
     364:	c8000004 	stmdagt	r0, {r2}
     368:	02000004 	andeq	r0, r0, #4
     36c:	009f3000 	addseq	r3, pc, r0
	...
     378:	08000004 	stmdaeq	r0, {r2}
     37c:	02000004 	andeq	r0, r0, #4
     380:	089f3000 	ldmeq	pc, {ip, sp}	; <UNPREDICTABLE>
     384:	20000004 	andcs	r0, r0, r4
     388:	01000004 	tsteq	r0, r4
     38c:	04205500 	strteq	r5, [r0], #-1280	; 0x500
     390:	04230000 	strteq	r0, [r3], #-0
     394:	00010000 	andeq	r0, r1, r0
     398:	00042351 	andeq	r2, r4, r1, asr r3
     39c:	00042400 	andeq	r2, r4, r0, lsl #8
     3a0:	75000300 	strvc	r0, [r0, #-768]	; 0x300
     3a4:	04249f7f 	strteq	r9, [r4], #-3967	; 0xf7f
     3a8:	04300000 	ldrteq	r0, [r0], #-0
     3ac:	00010000 	andeq	r0, r1, r0
     3b0:	00049c55 	andeq	r9, r4, r5, asr ip
     3b4:	0004a000 	andeq	sl, r4, r0
     3b8:	30000200 	andcc	r0, r0, r0, lsl #4
     3bc:	0000009f 	muleq	r0, pc, r0	; <UNPREDICTABLE>
     3c0:	00000000 	andeq	r0, r0, r0
     3c4:	00040800 	andeq	r0, r4, r0, lsl #16
     3c8:	00042c00 	andeq	r2, r4, r0, lsl #24
     3cc:	91000900 	tstls	r0, r0, lsl #18
     3d0:	2200767c 	andcs	r7, r0, #124, 12	; 0x7c00000
     3d4:	9f1c7c08 	svcls	0x001c7c08
     3d8:	0000042c 	andeq	r0, r0, ip, lsr #8
     3dc:	00000430 	andeq	r0, r0, r0, lsr r4
     3e0:	7c910009 	ldcvc	0, cr0, [r1], {9}
     3e4:	08220076 	stmdaeq	r2!, {r1, r2, r4, r5, r6}
     3e8:	009f1c84 	addseq	r1, pc, r4, lsl #25
     3ec:	00000000 	andeq	r0, r0, r0
     3f0:	08000000 	stmdaeq	r0, {}	; <UNPREDICTABLE>
     3f4:	23000004 	movwcs	r0, #4
     3f8:	08000004 	stmdaeq	r0, {r2}
     3fc:	767c9100 	ldrbtvc	r9, [ip], -r0, lsl #2
     400:	78082200 	stmdavc	r8, {r9, sp}
     404:	0000001c 	andeq	r0, r0, ip, lsl r0
     408:	00000000 	andeq	r0, r0, r0
     40c:	0004c800 	andeq	ip, r4, r0, lsl #16
     410:	0004f800 	andeq	pc, r4, r0, lsl #16
     414:	50000100 	andpl	r0, r0, r0, lsl #2
     418:	000004f8 	strdeq	r0, [r0], -r8
     41c:	00000554 	andeq	r0, r0, r4, asr r5
     420:	545a0001 	ldrbpl	r0, [sl], #-1
     424:	58000005 	stmdapl	r0, {r0, r2}
     428:	04000005 	streq	r0, [r0], #-5
     42c:	5001f300 	andpl	pc, r1, r0, lsl #6
     430:	0000009f 	muleq	r0, pc, r0	; <UNPREDICTABLE>
     434:	00000000 	andeq	r0, r0, r0
     438:	0004c800 	andeq	ip, r4, r0, lsl #16
     43c:	0004e800 	andeq	lr, r4, r0, lsl #16
     440:	51000100 	mrspl	r0, (UNDEF: 16)
     444:	000004e8 	andeq	r0, r0, r8, ror #9
     448:	00000554 	andeq	r0, r0, r4, asr r5
     44c:	01790003 	cmneq	r9, r3
     450:	0005549f 	muleq	r5, pc, r4	; <UNPREDICTABLE>
     454:	00055800 	andeq	r5, r5, r0, lsl #16
     458:	f3000400 	vshl.u8	d0, d0, d0
     45c:	009f5101 	addseq	r5, pc, r1, lsl #2
     460:	00000000 	andeq	r0, r0, r0
     464:	c8000000 	stmdagt	r0, {}	; <UNPREDICTABLE>
     468:	e4000004 	str	r0, [r0], #-4
     46c:	01000004 	tsteq	r0, r4
     470:	04e45200 	strbteq	r5, [r4], #512	; 0x200
     474:	05540000 	ldrbeq	r0, [r4, #-0]
     478:	00010000 	andeq	r0, r1, r0
     47c:	00055458 	andeq	r5, r5, r8, asr r4
     480:	00055800 	andeq	r5, r5, r0, lsl #16
     484:	f3000400 	vshl.u8	d0, d0, d0
     488:	009f5201 	addseq	r5, pc, r1, lsl #4
     48c:	00000000 	andeq	r0, r0, r0
     490:	c8000000 	stmdagt	r0, {}	; <UNPREDICTABLE>
     494:	f8000004 			; <UNDEFINED> instruction: 0xf8000004
     498:	02000004 	andeq	r0, r0, #4
     49c:	f89f3000 			; <UNDEFINED> instruction: 0xf89f3000
     4a0:	4c000004 	stcmi	0, cr0, [r0], {4}
     4a4:	01000005 	tsteq	r0, r5
     4a8:	00005500 	andeq	r5, r0, r0, lsl #10
     4ac:	00000000 	andeq	r0, r0, r0
     4b0:	04c80000 	strbeq	r0, [r8], #0
     4b4:	04f80000 	ldrbteq	r0, [r8], #0
     4b8:	00020000 	andeq	r0, r2, r0
     4bc:	04f89f30 	ldrbteq	r9, [r8], #3888	; 0xf30
     4c0:	054c0000 	strbeq	r0, [ip, #-0]
     4c4:	00010000 	andeq	r0, r1, r0
     4c8:	00000056 	andeq	r0, r0, r6, asr r0
     4cc:	00000000 	andeq	r0, r0, r0
     4d0:	0004c800 	andeq	ip, r4, r0, lsl #16
     4d4:	0004f800 	andeq	pc, r4, r0, lsl #16
     4d8:	30000200 	andcc	r0, r0, r0, lsl #4
     4dc:	0004f89f 	muleq	r4, pc, r8	; <UNPREDICTABLE>
     4e0:	00050000 	andeq	r0, r5, r0
     4e4:	57000100 	strpl	r0, [r0, -r0, lsl #2]
     4e8:	00000500 	andeq	r0, r0, r0, lsl #10
     4ec:	0000053f 	andeq	r0, r0, pc, lsr r5
     4f0:	3f510001 	svccc	0x00510001
     4f4:	40000005 	andmi	r0, r0, r5
     4f8:	03000005 	movweq	r0, #5
     4fc:	9f7f7700 	svcls	0x007f7700
     500:	00000540 	andeq	r0, r0, r0, asr #10
     504:	0000054c 	andeq	r0, r0, ip, asr #10
     508:	00570001 	subseq	r0, r7, r1
     50c:	00000000 	andeq	r0, r0, r0
     510:	08000000 	stmdaeq	r0, {}	; <UNPREDICTABLE>
     514:	0c000005 	stceq	0, cr0, [r0], {5}
     518:	01000005 	tsteq	r0, r5
     51c:	050c5300 	streq	r5, [ip, #-768]	; 0x300
     520:	05100000 	ldreq	r0, [r0, #-0]
     524:	00060000 	andeq	r0, r6, r0
     528:	0072007a 	rsbseq	r0, r2, sl, ror r0
     52c:	00009f22 	andeq	r9, r0, r2, lsr #30
     530:	00000000 	andeq	r0, r0, r0
     534:	050c0000 	streq	r0, [ip, #-0]
     538:	053f0000 	ldreq	r0, [pc, #-0]!	; 540 <_start-0x7ac0>
     53c:	00010000 	andeq	r0, r1, r0
     540:	00000053 	andeq	r0, r0, r3, asr r0
     544:	00000000 	andeq	r0, r0, r0
     548:	00051400 	andeq	r1, r5, r0, lsl #8
     54c:	00054800 	andeq	r4, r5, r0, lsl #16
     550:	54000100 	strpl	r0, [r0], #-256	; 0x100
	...
     55c:	00000520 	andeq	r0, r0, r0, lsr #10
     560:	0000053c 	andeq	r0, r0, ip, lsr r5
     564:	3c500001 	mrrccc	0, 0, r0, r0, cr1	; <UNPREDICTABLE>
     568:	3f000005 	svccc	0x00000005
     56c:	02000005 	andeq	r0, r0, #5
     570:	00509100 	subseq	r9, r0, r0, lsl #2
     574:	00000000 	andeq	r0, r0, r0
     578:	98000000 	stmdals	r0, {}	; <UNPREDICTABLE>
     57c:	9c000005 	stcls	0, cr0, [r0], {5}
     580:	01000005 	tsteq	r0, r5
     584:	059c5000 	ldreq	r5, [ip]
     588:	059f0000 	ldreq	r0, [pc]	; 590 <_start-0x7a70>
     58c:	00010000 	andeq	r0, r1, r0
     590:	00000051 	andeq	r0, r0, r1, asr r0
     594:	00000000 	andeq	r0, r0, r0
     598:	00002c00 	andeq	r2, r0, r0, lsl #24
     59c:	00003800 	andeq	r3, r0, r0, lsl #16
     5a0:	50000100 	andpl	r0, r0, r0, lsl #2
     5a4:	00000038 	andeq	r0, r0, r8, lsr r0
     5a8:	00000048 	andeq	r0, r0, r8, asr #32
     5ac:	48550001 	ldmdami	r5, {r0}^
     5b0:	58000000 	stmdapl	r0, {}	; <UNPREDICTABLE>
     5b4:	01000000 	mrseq	r0, (UNDEF: 0)
     5b8:	00005000 	andeq	r5, r0, r0
	...
     5c4:	000b0000 	andeq	r0, fp, r0
     5c8:	00010000 	andeq	r0, r1, r0
     5cc:	00000b50 	andeq	r0, r0, r0, asr fp
     5d0:	00001400 	andeq	r1, r0, r0, lsl #8
     5d4:	54000100 	strpl	r0, [r0], #-256	; 0x100
	...
     5e4:	00000010 	andeq	r0, r0, r0, lsl r0
     5e8:	10500001 	subsne	r0, r0, r1
     5ec:	34000000 	strcc	r0, [r0], #-0
     5f0:	01000000 	mrseq	r0, (UNDEF: 0)
     5f4:	00005400 	andeq	r5, r0, r0, lsl #8
	...
     600:	00040000 	andeq	r0, r4, r0
     604:	00010000 	andeq	r0, r1, r0
     608:	00000450 	andeq	r0, r0, r0, asr r4
     60c:	00000c00 	andeq	r0, r0, r0, lsl #24
     610:	70000300 	andvc	r0, r0, r0, lsl #6
     614:	000c9f30 	andeq	r9, ip, r0, lsr pc
     618:	00140000 	andseq	r0, r4, r0
     61c:	00040000 	andeq	r0, r4, r0
     620:	9f5001f3 	svcls	0x005001f3
	...
     62c:	00000014 	andeq	r0, r0, r4, lsl r0
     630:	00000020 	andeq	r0, r0, r0, lsr #32
     634:	20500001 	subscs	r0, r0, r1
     638:	2c000000 	stccs	0, cr0, [r0], {-0}
     63c:	03000000 	movweq	r0, #0
     640:	9f017000 	svcls	0x00017000
     644:	0000002c 	andeq	r0, r0, ip, lsr #32
     648:	00000040 	andeq	r0, r0, r0, asr #32
     64c:	00500001 	subseq	r0, r0, r1
     650:	00000000 	andeq	r0, r0, r0
     654:	14000000 	strne	r0, [r0], #-0
     658:	18000000 	stmdane	r0, {}	; <UNPREDICTABLE>
     65c:	01000000 	mrseq	r0, (UNDEF: 0)
     660:	00185100 	andseq	r5, r8, r0, lsl #2
     664:	00400000 	subeq	r0, r0, r0
     668:	00040000 	andeq	r0, r4, r0
     66c:	9f5101f3 	svcls	0x005101f3
	...
     678:	00000040 	andeq	r0, r0, r0, asr #32
     67c:	00000060 	andeq	r0, r0, r0, rrx
     680:	60500001 	subsvs	r0, r0, r1
     684:	6c000000 	stcvs	0, cr0, [r0], {-0}
     688:	03000000 	movweq	r0, #0
     68c:	9f017100 	svcls	0x00017100
     690:	0000006c 	andeq	r0, r0, ip, rrx
     694:	00000074 	andeq	r0, r0, r4, ror r0
     698:	74510001 	ldrbvc	r0, [r1], #-1
     69c:	80000000 	andhi	r0, r0, r0
     6a0:	03000000 	movweq	r0, #0
     6a4:	9f017100 	svcls	0x00017100
	...
     6b0:	00000040 	andeq	r0, r0, r0, asr #32
     6b4:	00000050 	andeq	r0, r0, r0, asr r0
     6b8:	50510001 	subspl	r0, r1, r1
     6bc:	80000000 	andhi	r0, r0, r0
     6c0:	04000000 	streq	r0, [r0], #-0
     6c4:	5101f300 	mrspl	pc, SP_irq	; <UNPREDICTABLE>
     6c8:	0000009f 	muleq	r0, pc, r0	; <UNPREDICTABLE>
     6cc:	00000000 	andeq	r0, r0, r0
     6d0:	00004000 	andeq	r4, r0, r0
     6d4:	00005800 	andeq	r5, r0, r0, lsl #16
     6d8:	52000100 	andpl	r0, r0, #0, 2
     6dc:	00000058 	andeq	r0, r0, r8, asr r0
     6e0:	00000064 	andeq	r0, r0, r4, rrx
     6e4:	64520001 	ldrbvs	r0, [r2], #-1
     6e8:	68000000 	stmdavs	r0, {}	; <UNPREDICTABLE>
     6ec:	03000000 	movweq	r0, #0
     6f0:	9f017200 	svcls	0x00017200
     6f4:	00000068 	andeq	r0, r0, r8, rrx
     6f8:	00000080 	andeq	r0, r0, r0, lsl #1
     6fc:	00520001 	subseq	r0, r2, r1
     700:	00000000 	andeq	r0, r0, r0
     704:	40000000 	andmi	r0, r0, r0
     708:	54000000 	strpl	r0, [r0], #-0
     70c:	01000000 	mrseq	r0, (UNDEF: 0)
     710:	00545300 	subseq	r5, r4, r0, lsl #6
     714:	00780000 	rsbseq	r0, r8, r0
     718:	00010000 	andeq	r0, r1, r0
     71c:	00000053 	andeq	r0, r0, r3, asr r0
     720:	00000000 	andeq	r0, r0, r0
     724:	00004800 	andeq	r4, r0, r0, lsl #16
     728:	00006000 	andeq	r6, r0, r0
     72c:	5c000100 	stfpls	f0, [r0], {-0}
     730:	00000060 	andeq	r0, r0, r0, rrx
     734:	00000080 	andeq	r0, r0, r0, lsl #1
     738:	01f3000a 	mvnseq	r0, sl
     73c:	5301f352 	movwpl	pc, #4946	; 0x1352	; <UNPREDICTABLE>
     740:	9f01231c 	svcls	0x0001231c
	...
     74c:	00000080 	andeq	r0, r0, r0, lsl #1
     750:	000000a4 	andeq	r0, r0, r4, lsr #1
     754:	a4500001 	ldrbge	r0, [r0], #-1
     758:	18000000 	stmdane	r0, {}	; <UNPREDICTABLE>
     75c:	03000001 	movweq	r0, #1
     760:	9f027000 	svcls	0x00027000
     764:	00000118 	andeq	r0, r0, r8, lsl r1
     768:	00000228 	andeq	r0, r0, r8, lsr #4
     76c:	01f30004 	mvnseq	r0, r4
     770:	00009f50 	andeq	r9, r0, r0, asr pc
     774:	00000000 	andeq	r0, r0, r0
     778:	00800000 	addeq	r0, r0, r0
     77c:	00f00000 	rscseq	r0, r0, r0
     780:	00010000 	andeq	r0, r1, r0
     784:	0000f051 	andeq	pc, r0, r1, asr r0	; <UNPREDICTABLE>
     788:	00016000 	andeq	r6, r1, r0
     78c:	55000100 	strpl	r0, [r0, #-256]	; 0x100
     790:	00000160 	andeq	r0, r0, r0, ror #2
     794:	00000168 	andeq	r0, r0, r8, ror #2
     798:	68510001 	ldmdavs	r1, {r0}^
     79c:	88000001 	stmdahi	r0, {r0}
     7a0:	01000001 	tsteq	r0, r1
     7a4:	01885500 	orreq	r5, r8, r0, lsl #10
     7a8:	019c0000 	orrseq	r0, ip, r0
     7ac:	00010000 	andeq	r0, r1, r0
     7b0:	00019c51 	andeq	r9, r1, r1, asr ip
     7b4:	0001bc00 	andeq	fp, r1, r0, lsl #24
     7b8:	55000100 	strpl	r0, [r0, #-256]	; 0x100
     7bc:	000001bc 			; <UNDEFINED> instruction: 0x000001bc
     7c0:	000001bf 			; <UNDEFINED> instruction: 0x000001bf
     7c4:	bf510001 	svclt	0x00510001
     7c8:	08000001 	stmdaeq	r0, {r0}
     7cc:	01000002 	tsteq	r0, r2
     7d0:	02085500 	andeq	r5, r8, #0, 10
     7d4:	02280000 	eoreq	r0, r8, #0
     7d8:	00040000 	andeq	r0, r4, r0
     7dc:	9f5101f3 	svcls	0x005101f3
	...
     7e8:	00000080 	andeq	r0, r0, r0, lsl #1
     7ec:	00000094 	muleq	r0, r4, r0
     7f0:	94520001 	ldrbls	r0, [r2], #-1
     7f4:	08000000 	stmdaeq	r0, {}	; <UNPREDICTABLE>
     7f8:	01000002 	tsteq	r0, r2
     7fc:	02085400 	andeq	r5, r8, #0, 8
     800:	02280000 	eoreq	r0, r8, #0
     804:	00040000 	andeq	r0, r4, r0
     808:	9f5201f3 	svcls	0x005201f3
	...
     814:	00000080 	andeq	r0, r0, r0, lsl #1
     818:	00000100 	andeq	r0, r0, r0, lsl #2
     81c:	04530001 	ldrbeq	r0, [r3], #-1
     820:	08000001 	stmdaeq	r0, {r0}
     824:	01000001 	tsteq	r0, r1
     828:	01605300 	cmneq	r0, r0, lsl #6
     82c:	01680000 	cmneq	r8, r0
     830:	00010000 	andeq	r0, r1, r0
     834:	00016853 	andeq	r6, r1, r3, asr r8
     838:	00018800 	andeq	r8, r1, r0, lsl #16
     83c:	f3000400 	vshl.u8	d0, d0, d0
     840:	889f5301 	ldmhi	pc, {r0, r8, r9, ip, lr}	; <UNPREDICTABLE>
     844:	90000001 	andls	r0, r0, r1
     848:	01000001 	tsteq	r0, r1
     84c:	01905300 	orrseq	r5, r0, r0, lsl #6
     850:	01940000 	orrseq	r0, r4, r0
     854:	00010000 	andeq	r0, r1, r0
     858:	0001945c 	andeq	r9, r1, ip, asr r4
     85c:	00019c00 	andeq	r9, r1, r0, lsl #24
     860:	53000100 	movwpl	r0, #256	; 0x100
     864:	0000019c 	muleq	r0, ip, r1
     868:	000001bc 			; <UNDEFINED> instruction: 0x000001bc
     86c:	01f30004 	mvnseq	r0, r4
     870:	01bc9f53 			; <UNDEFINED> instruction: 0x01bc9f53
     874:	01bf0000 			; <UNDEFINED> instruction: 0x01bf0000
     878:	00010000 	andeq	r0, r1, r0
     87c:	0001bf53 	andeq	fp, r1, r3, asr pc
     880:	0001e000 	andeq	lr, r1, r0
     884:	f3000400 	vshl.u8	d0, d0, d0
     888:	009f5301 	addseq	r5, pc, r1, lsl #6
     88c:	00000000 	andeq	r0, r0, r0
     890:	80000000 	andhi	r0, r0, r0
     894:	9c000000 	stcls	0, cr0, [r0], {-0}
     898:	02000000 	andeq	r0, r0, #0
     89c:	9c009100 	stflsd	f1, [r0], {-0}
     8a0:	bf000000 	svclt	0x00000000
     8a4:	01000001 	tsteq	r0, r1
     8a8:	01e05200 	mvneq	r5, r0, lsl #4
     8ac:	01eb0000 	mvneq	r0, r0
     8b0:	00010000 	andeq	r0, r1, r0
     8b4:	00000052 	andeq	r0, r0, r2, asr r0
     8b8:	00000000 	andeq	r0, r0, r0
     8bc:	00009c00 	andeq	r9, r0, r0, lsl #24
     8c0:	00010c00 	andeq	r0, r1, r0, lsl #24
     8c4:	91000400 	tstls	r0, r0, lsl #8
     8c8:	0c9f7fa0 	ldceq	15, cr7, [pc], {160}	; 0xa0
     8cc:	18000001 	stmdane	r0, {r0}
     8d0:	01000001 	tsteq	r0, r1
     8d4:	01185100 	tsteq	r8, r0, lsl #2
     8d8:	011c0000 	tsteq	ip, r0
     8dc:	00010000 	andeq	r0, r1, r0
     8e0:	00011c53 	andeq	r1, r1, r3, asr ip
     8e4:	00012000 	andeq	r2, r1, r0
     8e8:	51000100 	mrspl	r0, (UNDEF: 16)
     8ec:	00000120 	andeq	r0, r0, r0, lsr #2
     8f0:	00000160 	andeq	r0, r0, r0, ror #2
     8f4:	60530001 	subsvs	r0, r3, r1
     8f8:	64000001 	strvs	r0, [r0], #-1
     8fc:	04000001 	streq	r0, [r0], #-1
     900:	7fa09100 	svcvc	0x00a09100
     904:	0001649f 	muleq	r1, pc, r4	; <UNPREDICTABLE>
     908:	00016c00 	andeq	r6, r1, r0, lsl #24
     90c:	5e000100 	adfpls	f0, f0, f0
     910:	0000016c 	andeq	r0, r0, ip, ror #2
     914:	00000188 	andeq	r0, r0, r8, lsl #3
     918:	88530001 	ldmdahi	r3, {r0}^
     91c:	90000001 	andls	r0, r0, r1
     920:	04000001 	streq	r0, [r0], #-1
     924:	7fa19100 	svcvc	0x00a19100
     928:	0001909f 	muleq	r1, pc, r0	; <UNPREDICTABLE>
     92c:	00019400 	andeq	r9, r1, r0, lsl #8
     930:	53000100 	movwpl	r0, #256	; 0x100
     934:	00000194 	muleq	r0, r4, r1
     938:	00000198 	muleq	r0, r8, r1
     93c:	a0910004 	addsge	r0, r1, r4
     940:	01989f7f 	orrseq	r9, r8, pc, ror pc
     944:	01a00000 	moveq	r0, r0
     948:	00010000 	andeq	r0, r1, r0
     94c:	0001a05e 	andeq	sl, r1, lr, asr r0
     950:	0001bc00 	andeq	fp, r1, r0, lsl #24
     954:	53000100 	movwpl	r0, #256	; 0x100
     958:	000001bc 			; <UNDEFINED> instruction: 0x000001bc
     95c:	000001e0 	andeq	r0, r0, r0, ror #3
     960:	a0910004 	addsge	r0, r1, r4
     964:	01e09f7f 	mvneq	r9, pc, ror pc
     968:	01eb0000 	mvneq	r0, r0
     96c:	00010000 	andeq	r0, r1, r0
     970:	00000053 	andeq	r0, r0, r3, asr r0
     974:	00000000 	andeq	r0, r0, r0
     978:	0000a000 	andeq	sl, r0, r0
     97c:	0000ec00 	andeq	lr, r0, r0, lsl #24
     980:	5c000100 	stfpls	f0, [r0], {-0}
     984:	000000ec 	andeq	r0, r0, ip, ror #1
     988:	00000100 	andeq	r0, r0, r0, lsl #2
     98c:	00530001 	subseq	r0, r3, r1
     990:	04000001 	streq	r0, [r0], #-1
     994:	01000001 	tsteq	r0, r1
     998:	01045c00 	tsteq	r4, r0, lsl #24
     99c:	01080000 	mrseq	r0, (UNDEF: 8)
     9a0:	00010000 	andeq	r0, r1, r0
     9a4:	00010853 	andeq	r0, r1, r3, asr r8
     9a8:	00011800 	andeq	r1, r1, r0, lsl #16
     9ac:	5c000100 	stfpls	f0, [r0], {-0}
     9b0:	00000118 	andeq	r0, r0, r8, lsl r1
     9b4:	0000011c 	andeq	r0, r0, ip, lsl r1
     9b8:	1c500001 	mrrcne	0, 0, r0, r0, cr1	; <UNPREDICTABLE>
     9bc:	3c000001 	stccc	0, cr0, [r0], {1}
     9c0:	01000001 	tsteq	r0, r1
     9c4:	01445c00 	cmpeq	r4, r0, lsl #24
     9c8:	01580000 	cmpeq	r8, r0
     9cc:	00010000 	andeq	r0, r1, r0
     9d0:	00015850 	andeq	r5, r1, r0, asr r8
     9d4:	00016000 	andeq	r6, r1, r0
     9d8:	5c000100 	stfpls	f0, [r0], {-0}
     9dc:	00000160 	andeq	r0, r0, r0, ror #2
     9e0:	00000168 	andeq	r0, r0, r8, ror #2
     9e4:	68530001 	ldmdavs	r3, {r0}^
     9e8:	78000001 	stmdavc	r0, {r0}
     9ec:	01000001 	tsteq	r0, r1
     9f0:	01785c00 	cmneq	r8, r0, lsl #24
     9f4:	01800000 	orreq	r0, r0, r0
     9f8:	00050000 	andeq	r0, r5, r0
     9fc:	2534007c 	ldrcs	r0, [r4, #-124]!	; 0x7c
     a00:	0001809f 	muleq	r1, pc, r0	; <UNPREDICTABLE>
     a04:	00018800 	andeq	r8, r1, r0, lsl #16
     a08:	5c000100 	stfpls	f0, [r0], {-0}
     a0c:	00000188 	andeq	r0, r0, r8, lsl #3
     a10:	00000190 	muleq	r0, r0, r1
     a14:	90530001 	subsls	r0, r3, r1
     a18:	94000001 	strls	r0, [r0], #-1
     a1c:	01000001 	tsteq	r0, r1
     a20:	01945c00 	orrseq	r5, r4, r0, lsl #24
     a24:	019c0000 	orrseq	r0, ip, r0
     a28:	00010000 	andeq	r0, r1, r0
     a2c:	00019c53 	andeq	r9, r1, r3, asr ip
     a30:	0001ac00 	andeq	sl, r1, r0, lsl #24
     a34:	5c000100 	stfpls	f0, [r0], {-0}
     a38:	000001ac 	andeq	r0, r0, ip, lsr #3
     a3c:	000001b4 			; <UNDEFINED> instruction: 0x000001b4
     a40:	007c0005 	rsbseq	r0, ip, r5
     a44:	b49f2531 	ldrlt	r2, [pc], #1329	; a4c <_start-0x75b4>
     a48:	bc000001 	stclt	0, cr0, [r0], {1}
     a4c:	01000001 	tsteq	r0, r1
     a50:	01bc5c00 			; <UNDEFINED> instruction: 0x01bc5c00
     a54:	01bf0000 			; <UNDEFINED> instruction: 0x01bf0000
     a58:	00010000 	andeq	r0, r1, r0
     a5c:	0001bf53 	andeq	fp, r1, r3, asr pc
     a60:	0001e000 	andeq	lr, r1, r0
     a64:	f3000400 	vshl.u8	d0, d0, d0
     a68:	e09f5301 	adds	r5, pc, r1, lsl #6
     a6c:	eb000001 	bl	a78 <_start-0x7588>
     a70:	01000001 	tsteq	r0, r1
     a74:	00005c00 	andeq	r5, r0, r0, lsl #24
     a78:	00000000 	andeq	r0, r0, r0
     a7c:	00ec0000 	rsceq	r0, ip, r0
     a80:	00fc0000 	rscseq	r0, ip, r0
     a84:	00020000 	andeq	r0, r2, r0
     a88:	00fc9f30 	rscseq	r9, ip, r0, lsr pc
     a8c:	01040000 	mrseq	r0, (UNDEF: 4)
     a90:	00020000 	andeq	r0, r2, r0
     a94:	01049f31 	tsteq	r4, r1, lsr pc
     a98:	01080000 	mrseq	r0, (UNDEF: 8)
     a9c:	00020000 	andeq	r0, r2, r0
     aa0:	00009f30 	andeq	r9, r0, r0, lsr pc
     aa4:	00000000 	andeq	r0, r0, r0
     aa8:	02280000 	eoreq	r0, r8, #0
     aac:	023b0000 	eorseq	r0, fp, #0
     ab0:	00010000 	andeq	r0, r1, r0
     ab4:	00023b50 	andeq	r3, r2, r0, asr fp
     ab8:	00025c00 	andeq	r5, r2, r0, lsl #24
     abc:	f3000400 	vshl.u8	d0, d0, d0
     ac0:	5c9f5001 	ldcpl	0, cr5, [pc], {1}
     ac4:	90000002 	andls	r0, r0, r2
     ac8:	01000002 	tsteq	r0, r2
     acc:	00005000 	andeq	r5, r0, r0
     ad0:	00000000 	andeq	r0, r0, r0
     ad4:	02280000 	eoreq	r0, r8, #0
     ad8:	023b0000 	eorseq	r0, fp, #0
     adc:	00010000 	andeq	r0, r1, r0
     ae0:	00023b51 	andeq	r3, r2, r1, asr fp
     ae4:	00025c00 	andeq	r5, r2, r0, lsl #24
     ae8:	f3000400 	vshl.u8	d0, d0, d0
     aec:	5c9f5101 	ldfpls	f5, [pc], {1}
     af0:	90000002 	andls	r0, r0, r2
     af4:	01000002 	tsteq	r0, r2
     af8:	00005100 	andeq	r5, r0, r0, lsl #2
     afc:	00000000 	andeq	r0, r0, r0
     b00:	02900000 	addseq	r0, r0, #0
     b04:	02bc0000 	adcseq	r0, ip, #0
     b08:	00010000 	andeq	r0, r1, r0
     b0c:	0002bc50 	andeq	fp, r2, r0, asr ip
     b10:	00050c00 	andeq	r0, r5, r0, lsl #24
     b14:	5a000100 	bpl	f1c <_start-0x70e4>
     b18:	0000050c 	andeq	r0, r0, ip, lsl #10
     b1c:	00000524 	andeq	r0, r0, r4, lsr #10
     b20:	01f30004 	mvnseq	r0, r4
     b24:	00009f50 	andeq	r9, r0, r0, asr pc
     b28:	00000000 	andeq	r0, r0, r0
     b2c:	02900000 	addseq	r0, r0, #0
     b30:	02a40000 	adceq	r0, r4, #0
     b34:	00010000 	andeq	r0, r1, r0
     b38:	0002a451 	andeq	sl, r2, r1, asr r4
     b3c:	0002bc00 	andeq	fp, r2, r0, lsl #24
     b40:	71000300 	mrsvc	r0, LR_irq
     b44:	02bc9f01 	adcseq	r9, ip, #1, 30
     b48:	05240000 	streq	r0, [r4, #-0]!
     b4c:	00040000 	andeq	r0, r4, r0
     b50:	9f5101f3 	svcls	0x005101f3
	...
     b5c:	00000290 	muleq	r0, r0, r2
     b60:	000002c4 	andeq	r0, r0, r4, asr #5
     b64:	c4520001 	ldrbgt	r0, [r2], #-1
     b68:	ec000002 	stc	0, cr0, [r0], {2}
     b6c:	01000002 	tsteq	r0, r2
     b70:	02ec5200 	rsceq	r5, ip, #0, 4
     b74:	04bc0000 	ldrteq	r0, [ip], #0
     b78:	00010000 	andeq	r0, r1, r0
     b7c:	0004bc56 	andeq	fp, r4, r6, asr ip
     b80:	00052400 	andeq	r2, r5, r0, lsl #8
     b84:	52000100 	andpl	r0, r0, #0, 2
	...
     b90:	00000290 	muleq	r0, r0, r2
     b94:	000002ac 	andeq	r0, r0, ip, lsr #5
     b98:	00530001 	subseq	r0, r3, r1
     b9c:	00000000 	andeq	r0, r0, r0
     ba0:	a0000000 	andge	r0, r0, r0
     ba4:	bc000002 	stclt	0, cr0, [r0], {2}
     ba8:	01000002 	tsteq	r0, r2
     bac:	02bc5000 	adcseq	r5, ip, #0
     bb0:	02c00000 	sbceq	r0, r0, #0
     bb4:	00010000 	andeq	r0, r1, r0
     bb8:	0002c054 	andeq	ip, r2, r4, asr r0
     bbc:	0002cc00 	andeq	ip, r2, r0, lsl #24
     bc0:	74000300 	strvc	r0, [r0], #-768	; 0x300
     bc4:	02cc9f01 	sbceq	r9, ip, #1, 30
     bc8:	02d80000 	sbcseq	r0, r8, #0
     bcc:	00010000 	andeq	r0, r1, r0
     bd0:	0002d854 	andeq	sp, r2, r4, asr r8
     bd4:	0002e400 	andeq	lr, r2, r0, lsl #8
     bd8:	74000300 	strvc	r0, [r0], #-768	; 0x300
     bdc:	02e49f01 	rsceq	r9, r4, #1, 30
     be0:	04c00000 	strbeq	r0, [r0], #0
     be4:	00010000 	andeq	r0, r1, r0
     be8:	0004c054 	andeq	ip, r4, r4, asr r0
     bec:	0004cc00 	andeq	ip, r4, r0, lsl #24
     bf0:	74000300 	strvc	r0, [r0], #-768	; 0x300
     bf4:	04cc9f01 	strbeq	r9, [ip], #3841	; 0xf01
     bf8:	04f80000 	ldrbteq	r0, [r8], #0
     bfc:	00010000 	andeq	r0, r1, r0
     c00:	0004f854 	andeq	pc, r4, r4, asr r8	; <UNPREDICTABLE>
     c04:	00050400 	andeq	r0, r5, r0, lsl #8
     c08:	50000100 	andpl	r0, r0, r0, lsl #2
     c0c:	00000504 	andeq	r0, r0, r4, lsl #10
     c10:	0000050c 	andeq	r0, r0, ip, lsl #10
     c14:	01740003 	cmneq	r4, r3
     c18:	0000009f 	muleq	r0, pc, r0	; <UNPREDICTABLE>
     c1c:	00000000 	andeq	r0, r0, r0
     c20:	0002a800 	andeq	sl, r2, r0, lsl #16
     c24:	00050c00 	andeq	r0, r5, r0, lsl #24
     c28:	58000100 	stmdapl	r0, {r8}
     c2c:	0000050c 	andeq	r0, r0, ip, lsl #10
     c30:	00000524 	andeq	r0, r0, r4, lsr #10
     c34:	01f3000a 	mvnseq	r0, sl
     c38:	5001f351 	andpl	pc, r1, r1, asr r3	; <UNPREDICTABLE>
     c3c:	9f1c3122 	svcls	0x001c3122
	...
     c48:	000003f4 	strdeq	r0, [r0], -r4
     c4c:	000003f8 	strdeq	r0, [r0], -r8
     c50:	18500001 	ldmdane	r0, {r0}^
     c54:	1c000004 	stcne	0, cr0, [r0], {4}
     c58:	01000004 	tsteq	r0, r4
     c5c:	043c5000 	ldrteq	r5, [ip], #-0
     c60:	04400000 	strbeq	r0, [r0], #-0
     c64:	00010000 	andeq	r0, r1, r0
     c68:	00046050 	andeq	r6, r4, r0, asr r0
     c6c:	00046400 	andeq	r6, r4, r0, lsl #8
     c70:	50000100 	andpl	r0, r0, r0, lsl #2
     c74:	0000046c 	andeq	r0, r0, ip, ror #8
     c78:	00000470 	andeq	r0, r0, r0, ror r4
     c7c:	90500001 	subsls	r0, r0, r1
     c80:	94000004 	strls	r0, [r0], #-4
     c84:	01000004 	tsteq	r0, r4
     c88:	04b85000 	ldrteq	r5, [r8], #0
     c8c:	04e00000 	strbteq	r0, [r0], #0
     c90:	00010000 	andeq	r0, r1, r0
     c94:	00000050 	andeq	r0, r0, r0, asr r0
     c98:	00000000 	andeq	r0, r0, r0
     c9c:	0002ec00 	andeq	lr, r2, r0, lsl #24
     ca0:	0002f400 	andeq	pc, r2, r0, lsl #8
     ca4:	30000200 	andcc	r0, r0, r0, lsl #4
     ca8:	0002f49f 	muleq	r2, pc, r4	; <UNPREDICTABLE>
     cac:	0002f800 	andeq	pc, r2, r0, lsl #16
     cb0:	57000100 	strpl	r0, [r0, -r0, lsl #2]
     cb4:	00000304 	andeq	r0, r0, r4, lsl #6
     cb8:	000004e0 	andeq	r0, r0, r0, ror #9
     cbc:	00570001 	subseq	r0, r7, r1
     cc0:	00000000 	andeq	r0, r0, r0
     cc4:	04000000 	streq	r0, [r0], #-0
     cc8:	08000000 	stmdaeq	r0, {}	; <UNPREDICTABLE>
     ccc:	07000000 	streq	r0, [r0, -r0]
     cd0:	0a007300 	beq	1d8d8 <__bss_end__+0x13540>
     cd4:	9f211000 	svcls	0x00211000
     cd8:	00000008 	andeq	r0, r0, r8
     cdc:	00000010 	andeq	r0, r0, r0, lsl r0
     ce0:	00530001 	subseq	r0, r3, r1
     ce4:	00000000 	andeq	r0, r0, r0
     ce8:	14000000 	strne	r0, [r0], #-0
     cec:	18000000 	stmdane	r0, {}	; <UNPREDICTABLE>
     cf0:	07000000 	streq	r0, [r0, -r0]
     cf4:	0b007300 	bleq	1d8fc <__bss_end__+0x13564>
     cf8:	9f1aefff 	svcls	0x001aefff
     cfc:	00000018 	andeq	r0, r0, r8, lsl r0
     d00:	00000020 	andeq	r0, r0, r0, lsr #32
     d04:	00530001 	subseq	r0, r3, r1
	...
     d10:	0c000000 	stceq	0, cr0, [r0], {-0}
     d14:	01000000 	mrseq	r0, (UNDEF: 0)
     d18:	000c5000 	andeq	r5, ip, r0
     d1c:	00200000 	eoreq	r0, r0, r0
     d20:	00010000 	andeq	r0, r1, r0
     d24:	00000054 	andeq	r0, r0, r4, asr r0
     d28:	00000000 	andeq	r0, r0, r0
     d2c:	00003400 	andeq	r3, r0, r0, lsl #8
     d30:	00003c00 	andeq	r3, r0, r0, lsl #24
     d34:	73000300 	movwvc	r0, #768	; 0x300
     d38:	003c9f04 	eorseq	r9, ip, r4, lsl #30
     d3c:	00470000 	subeq	r0, r7, r0
     d40:	00010000 	andeq	r0, r1, r0
     d44:	00000053 	andeq	r0, r0, r3, asr r0
     d48:	00000000 	andeq	r0, r0, r0
     d4c:	00004800 	andeq	r4, r0, r0, lsl #16
     d50:	00007400 	andeq	r7, r0, r0, lsl #8
     d54:	50000100 	andpl	r0, r0, r0, lsl #2
     d58:	00000074 	andeq	r0, r0, r4, ror r0
     d5c:	00000083 	andeq	r0, r0, r3, lsl #1
     d60:	78730003 	ldmdavc	r3!, {r0, r1}^
     d64:	0000009f 	muleq	r0, pc, r0	; <UNPREDICTABLE>
     d68:	00000000 	andeq	r0, r0, r0
     d6c:	008c9c00 	addeq	r9, ip, r0, lsl #24
     d70:	008ca000 	addeq	sl, ip, r0
     d74:	30000200 	andcc	r0, r0, r0, lsl #4
     d78:	008ca09f 	umulleq	sl, ip, pc, r0	; <UNPREDICTABLE>
     d7c:	008ca400 	addeq	sl, ip, r0, lsl #8
     d80:	50000100 	andpl	r0, r0, r0, lsl #2
	...
     d8c:	00008cb4 			; <UNDEFINED> instruction: 0x00008cb4
     d90:	00008cb8 			; <UNDEFINED> instruction: 0x00008cb8
     d94:	9f300002 	svcls	0x00300002
     d98:	00008cb8 			; <UNDEFINED> instruction: 0x00008cb8
     d9c:	00008cbc 			; <UNDEFINED> instruction: 0x00008cbc
     da0:	c0530001 	subsgt	r0, r3, r1
     da4:	c800008c 	stmdagt	r0, {r2, r3, r7}
     da8:	0100008c 	smlabbeq	r0, ip, r0, r0
     dac:	00005300 	andeq	r5, r0, r0, lsl #6
	...
     db8:	00040000 	andeq	r0, r4, r0
     dbc:	00010000 	andeq	r0, r1, r0
     dc0:	00000450 	andeq	r0, r0, r0, asr r4
     dc4:	00000c00 	andeq	r0, r0, r0, lsl #24
     dc8:	53000100 	movwpl	r0, #256	; 0x100
     dcc:	0000000c 	andeq	r0, r0, ip
     dd0:	00000010 	andeq	r0, r0, r0, lsl r0
     dd4:	10500001 	subsne	r0, r0, r1
     dd8:	1c000000 	stcne	0, cr0, [r0], {-0}
     ddc:	01000000 	mrseq	r0, (UNDEF: 0)
     de0:	00005300 	andeq	r5, r0, r0, lsl #6
     de4:	00000000 	andeq	r0, r0, r0
     de8:	003c0000 	eorseq	r0, ip, r0
     dec:	00470000 	subeq	r0, r7, r0
     df0:	00010000 	andeq	r0, r1, r0
     df4:	00004750 	andeq	r4, r0, r0, asr r7
     df8:	00006000 	andeq	r6, r0, r0
     dfc:	55000100 	strpl	r0, [r0, #-256]	; 0x100
	...
     e08:	00000050 	andeq	r0, r0, r0, asr r0
     e0c:	00000054 	andeq	r0, r0, r4, asr r0
     e10:	00500001 	subseq	r0, r0, r1
     e14:	00000000 	andeq	r0, r0, r0
     e18:	60000000 	andvs	r0, r0, r0
     e1c:	6c000000 	stcvs	0, cr0, [r0], {-0}
     e20:	01000000 	mrseq	r0, (UNDEF: 0)
     e24:	006c5000 	rsbeq	r5, ip, r0
     e28:	00740000 	rsbseq	r0, r4, r0
     e2c:	00040000 	andeq	r0, r4, r0
     e30:	9f5001f3 	svcls	0x005001f3
	...
     e3c:	00000074 	andeq	r0, r0, r4, ror r0
     e40:	00000080 	andeq	r0, r0, r0, lsl #1
     e44:	80500001 	subshi	r0, r0, r1
     e48:	88000000 	stmdahi	r0, {}	; <UNPREDICTABLE>
     e4c:	04000000 	streq	r0, [r0], #-0
     e50:	5001f300 	andpl	pc, r1, r0, lsl #6
     e54:	0000009f 	muleq	r0, pc, r0	; <UNPREDICTABLE>
	...
     e60:	00009000 	andeq	r9, r0, r0
     e64:	50000100 	andpl	r0, r0, r0, lsl #2
     e68:	00000090 	muleq	r0, r0, r0
     e6c:	000000d4 	ldrdeq	r0, [r0], -r4
     e70:	00540001 	subseq	r0, r4, r1
     e74:	00000000 	andeq	r0, r0, r0
     e78:	48000000 	stmdami	r0, {}	; <UNPREDICTABLE>
     e7c:	4c000000 	stcmi	0, cr0, [r0], {-0}
     e80:	01000000 	mrseq	r0, (UNDEF: 0)
     e84:	00545500 	subseq	r5, r4, r0, lsl #10
     e88:	00580000 	subseq	r0, r8, r0
     e8c:	00010000 	andeq	r0, r1, r0
     e90:	00006055 	andeq	r6, r0, r5, asr r0
     e94:	00006400 	andeq	r6, r0, r0, lsl #8
     e98:	55000100 	strpl	r0, [r0, #-256]	; 0x100
     e9c:	0000006c 	andeq	r0, r0, ip, rrx
     ea0:	00000070 	andeq	r0, r0, r0, ror r0
     ea4:	78550001 	ldmdavc	r5, {r0}^
     ea8:	7c000000 	stcvc	0, cr0, [r0], {-0}
     eac:	01000000 	mrseq	r0, (UNDEF: 0)
     eb0:	00845500 	addeq	r5, r4, r0, lsl #10
     eb4:	00880000 	addeq	r0, r8, r0
     eb8:	00010000 	andeq	r0, r1, r0
     ebc:	00008c55 	andeq	r8, r0, r5, asr ip
     ec0:	0000d400 	andeq	sp, r0, r0, lsl #8
     ec4:	55000100 	strpl	r0, [r0, #-256]	; 0x100
	...
     ed0:	0000001c 	andeq	r0, r0, ip, lsl r0
     ed4:	00000044 	andeq	r0, r0, r4, asr #32
     ed8:	44530001 	ldrbmi	r0, [r3], #-1
     edc:	4c000000 	stcmi	0, cr0, [r0], {-0}
     ee0:	1c000000 	stcne	0, cr0, [r0], {-0}
     ee4:	f7007000 			; <UNDEFINED> instruction: 0xf7007000
     ee8:	f425f72c 	vld1.8	{d15}, [r5 :128], ip
     eec:	cccd0825 	stclgt	8, cr0, [sp], {37}	; 0x25
     ef0:	0000cccc 	andeq	ip, r0, ip, asr #25
     ef4:	081e0000 	ldmdaeq	lr, {}	; <UNPREDICTABLE>
     ef8:	2525f720 	strcs	pc, [r5, #-1824]!	; 0x720
     efc:	25332cf7 	ldrcs	r2, [r3, #-3319]!	; 0xcf7
     f00:	00004c9f 	muleq	r0, pc, ip	; <UNPREDICTABLE>
     f04:	00005000 	andeq	r5, r0, r0
     f08:	53000100 	movwpl	r0, #256	; 0x100
     f0c:	00000050 	andeq	r0, r0, r0, asr r0
     f10:	00000058 	andeq	r0, r0, r8, asr r0
     f14:	0070001c 	rsbseq	r0, r0, ip, lsl r0
     f18:	25f72cf7 	ldrbcs	r2, [r7, #3319]!	; 0xcf7
     f1c:	cd0825f4 	cfstr32gt	mvfx2, [r8, #-976]	; 0xfffffc30
     f20:	00cccccc 	sbceq	ip, ip, ip, asr #25
     f24:	1e000000 	cdpne	0, 0, cr0, cr0, cr0, {0}
     f28:	25f72008 	ldrbcs	r2, [r7, #8]!
     f2c:	332cf725 	msrcc	CPSR_fs, #9699328	; 0x940000
     f30:	00589f25 	subseq	r9, r8, r5, lsr #30
     f34:	005c0000 	subseq	r0, ip, r0
     f38:	00010000 	andeq	r0, r1, r0
     f3c:	00005c53 	andeq	r5, r0, r3, asr ip
     f40:	00006400 	andeq	r6, r0, r0, lsl #8
     f44:	70001c00 	andvc	r1, r0, r0, lsl #24
     f48:	f72cf700 			; <UNDEFINED> instruction: 0xf72cf700
     f4c:	0825f425 	stmdaeq	r5!, {r0, r2, r5, sl, ip, sp, lr, pc}
     f50:	cccccccd 	stclgt	12, cr12, [ip], {205}	; 0xcd
     f54:	00000000 	andeq	r0, r0, r0
     f58:	f720081e 			; <UNDEFINED> instruction: 0xf720081e
     f5c:	2cf72525 	cfldr64cs	mvdx2, [r7], #148	; 0x94
     f60:	649f2533 	ldrvs	r2, [pc], #1331	; f68 <_start-0x7098>
     f64:	68000000 	stmdavs	r0, {}	; <UNPREDICTABLE>
     f68:	01000000 	mrseq	r0, (UNDEF: 0)
     f6c:	00685300 	rsbeq	r5, r8, r0, lsl #6
     f70:	00700000 	rsbseq	r0, r0, r0
     f74:	001c0000 	andseq	r0, ip, r0
     f78:	2cf70070 	ldclcs	0, cr0, [r7], #448	; 0x1c0
     f7c:	25f425f7 	ldrbcs	r2, [r4, #1527]!	; 0x5f7
     f80:	cccccd08 	stclgt	13, cr12, [ip], {8}
     f84:	000000cc 	andeq	r0, r0, ip, asr #1
     f88:	20081e00 	andcs	r1, r8, r0, lsl #28
     f8c:	f72525f7 			; <UNDEFINED> instruction: 0xf72525f7
     f90:	9f25332c 	svcls	0x0025332c
     f94:	00000070 	andeq	r0, r0, r0, ror r0
     f98:	00000074 	andeq	r0, r0, r4, ror r0
     f9c:	74530001 	ldrbvc	r0, [r3], #-1
     fa0:	7c000000 	stcvc	0, cr0, [r0], {-0}
     fa4:	1c000000 	stcne	0, cr0, [r0], {-0}
     fa8:	f7007000 			; <UNDEFINED> instruction: 0xf7007000
     fac:	f425f72c 	vld1.8	{d15}, [r5 :128], ip
     fb0:	cccd0825 	stclgt	8, cr0, [sp], {37}	; 0x25
     fb4:	0000cccc 	andeq	ip, r0, ip, asr #25
     fb8:	081e0000 	ldmdaeq	lr, {}	; <UNPREDICTABLE>
     fbc:	2525f720 	strcs	pc, [r5, #-1824]!	; 0x720
     fc0:	25332cf7 	ldrcs	r2, [r3, #-3319]!	; 0xcf7
     fc4:	00007c9f 	muleq	r0, pc, ip	; <UNPREDICTABLE>
     fc8:	00008000 	andeq	r8, r0, r0
     fcc:	53000100 	movwpl	r0, #256	; 0x100
     fd0:	00000080 	andeq	r0, r0, r0, lsl #1
     fd4:	00000088 	andeq	r0, r0, r8, lsl #1
     fd8:	0070001c 	rsbseq	r0, r0, ip, lsl r0
     fdc:	25f72cf7 	ldrbcs	r2, [r7, #3319]!	; 0xcf7
     fe0:	cd0825f4 	cfstr32gt	mvfx2, [r8, #-976]	; 0xfffffc30
     fe4:	00cccccc 	sbceq	ip, ip, ip, asr #25
     fe8:	1e000000 	cdpne	0, 0, cr0, cr0, cr0, {0}
     fec:	25f72008 	ldrbcs	r2, [r7, #8]!
     ff0:	332cf725 	msrcc	CPSR_fs, #9699328	; 0x940000
     ff4:	00889f25 	addeq	r9, r8, r5, lsr #30
     ff8:	008c0000 	addeq	r0, ip, r0
     ffc:	00010000 	andeq	r0, r1, r0
    1000:	00008c53 	andeq	r8, r0, r3, asr ip
    1004:	00009000 	andeq	r9, r0, r0
    1008:	70001c00 	andvc	r1, r0, r0, lsl #24
    100c:	f72cf700 			; <UNDEFINED> instruction: 0xf72cf700
    1010:	0825f425 	stmdaeq	r5!, {r0, r2, r5, sl, ip, sp, lr, pc}
    1014:	cccccccd 	stclgt	12, cr12, [ip], {205}	; 0xcd
    1018:	00000000 	andeq	r0, r0, r0
    101c:	f720081e 			; <UNDEFINED> instruction: 0xf720081e
    1020:	2cf72525 	cfldr64cs	mvdx2, [r7], #148	; 0x94
    1024:	909f2533 	addsls	r2, pc, r3, lsr r5	; <UNPREDICTABLE>
    1028:	98000000 	stmdals	r0, {}	; <UNPREDICTABLE>
    102c:	1c000000 	stcne	0, cr0, [r0], {-0}
    1030:	f7007400 			; <UNDEFINED> instruction: 0xf7007400
    1034:	f425f72c 	vld1.8	{d15}, [r5 :128], ip
    1038:	cccd0825 	stclgt	8, cr0, [sp], {37}	; 0x25
    103c:	0000cccc 	andeq	ip, r0, ip, asr #25
    1040:	081e0000 	ldmdaeq	lr, {}	; <UNPREDICTABLE>
    1044:	2525f720 	strcs	pc, [r5, #-1824]!	; 0x720
    1048:	25332cf7 	ldrcs	r2, [r3, #-3319]!	; 0xcf7
    104c:	0000989f 	muleq	r0, pc, r8	; <UNPREDICTABLE>
    1050:	00009c00 	andeq	r9, r0, r0, lsl #24
    1054:	74001700 	strvc	r1, [r0], #-1792	; 0x700
    1058:	f72cf700 			; <UNDEFINED> instruction: 0xf72cf700
    105c:	f7007125 			; <UNDEFINED> instruction: 0xf7007125
    1060:	1e25f72c 	cdpne	7, 2, cr15, cr5, cr12, {1}
    1064:	25f72008 	ldrbcs	r2, [r7, #8]!
    1068:	332cf725 	msrcc	CPSR_fs, #9699328	; 0x940000
    106c:	009c9f25 	addseq	r9, ip, r5, lsr #30
    1070:	00d40000 	sbcseq	r0, r4, r0
    1074:	001c0000 	andseq	r0, ip, r0
    1078:	2cf70074 	ldclcs	0, cr0, [r7], #464	; 0x1d0
    107c:	25f425f7 	ldrbcs	r2, [r4, #1527]!	; 0x5f7
    1080:	cccccd08 	stclgt	13, cr12, [ip], {8}
    1084:	000000cc 	andeq	r0, r0, ip, asr #1
    1088:	20081e00 	andcs	r1, r8, r0, lsl #28
    108c:	f72525f7 			; <UNDEFINED> instruction: 0xf72525f7
    1090:	9f25332c 	svcls	0x0025332c
	...
    109c:	00000094 	muleq	r0, r4, r0
    10a0:	000000b8 	strheq	r0, [r0], -r8
    10a4:	b8500001 	ldmdalt	r0, {r0}^
    10a8:	c4000000 	strgt	r0, [r0], #-0
    10ac:	08000000 	stmdaeq	r0, {}	; <UNPREDICTABLE>
    10b0:	00713100 	rsbseq	r3, r1, r0, lsl #2
    10b4:	21007324 	tstcs	r0, r4, lsr #6
    10b8:	0000c49f 	muleq	r0, pc, r4	; <UNPREDICTABLE>
    10bc:	0000c700 	andeq	ip, r0, r0, lsl #14
    10c0:	51000100 	mrspl	r0, (UNDEF: 16)
	...
    10cc:	000000d4 	ldrdeq	r0, [r0], -r4
    10d0:	000000f8 	strdeq	r0, [r0], -r8
    10d4:	f8500001 			; <UNDEFINED> instruction: 0xf8500001
    10d8:	0c000000 	stceq	0, cr0, [r0], {-0}
    10dc:	04000001 	streq	r0, [r0], #-1
    10e0:	5001f300 	andpl	pc, r1, r0, lsl #6
    10e4:	0000009f 	muleq	r0, pc, r0	; <UNPREDICTABLE>
    10e8:	00000000 	andeq	r0, r0, r0
    10ec:	0000e000 	andeq	lr, r0, r0
    10f0:	0000e800 	andeq	lr, r0, r0, lsl #16
    10f4:	30000200 	andcc	r0, r0, r0, lsl #4
    10f8:	0000e89f 	muleq	r0, pc, r8	; <UNPREDICTABLE>
    10fc:	0000e800 	andeq	lr, r0, r0, lsl #16
    1100:	52000100 	andpl	r0, r0, #0, 2
    1104:	000000e8 	andeq	r0, r0, r8, ror #1
    1108:	000000f0 	strdeq	r0, [r0], -r0	; <UNPREDICTABLE>
    110c:	9f300002 	svcls	0x00300002
    1110:	000000f0 	strdeq	r0, [r0], -r0	; <UNPREDICTABLE>
    1114:	00000103 	andeq	r0, r0, r3, lsl #2
    1118:	00520001 	subseq	r0, r2, r1
    111c:	00000000 	andeq	r0, r0, r0
    1120:	e0000000 	and	r0, r0, r0
    1124:	f4000000 	vst4.8	{d0-d3}, [r0], r0
    1128:	02000000 	andeq	r0, r0, #0
    112c:	f49f3000 			; <UNDEFINED> instruction: 0xf49f3000
    1130:	00000000 	andeq	r0, r0, r0
    1134:	05000001 	streq	r0, [r0, #-1]
    1138:	00733100 	rsbseq	r3, r3, r0, lsl #2
    113c:	01009f24 	tsteq	r0, r4, lsr #30
    1140:	01030000 	mrseq	r0, (UNDEF: 3)
    1144:	00010000 	andeq	r0, r1, r0
    1148:	00010351 	andeq	r0, r1, r1, asr r3
    114c:	00010c00 	andeq	r0, r1, r0, lsl #24
    1150:	31000800 	tstcc	r0, r0, lsl #16
    1154:	4f5001f3 	svcmi	0x005001f3
    1158:	009f241a 	addseq	r2, pc, sl, lsl r4	; <UNPREDICTABLE>
    115c:	00000000 	andeq	r0, r0, r0
    1160:	0c000000 	stceq	0, cr0, [r0], {-0}
    1164:	30000001 	andcc	r0, r0, r1
    1168:	01000001 	tsteq	r0, r1
    116c:	01305000 	teqeq	r0, r0
    1170:	01440000 	mrseq	r0, (UNDEF: 68)
    1174:	00040000 	andeq	r0, r4, r0
    1178:	9f5001f3 	svcls	0x005001f3
	...
    1184:	00000118 	andeq	r0, r0, r8, lsl r1
    1188:	00000120 	andeq	r0, r0, r0, lsr #2
    118c:	9f300002 	svcls	0x00300002
    1190:	00000120 	andeq	r0, r0, r0, lsr #2
    1194:	00000120 	andeq	r0, r0, r0, lsr #2
    1198:	20520001 	subscs	r0, r2, r1
    119c:	28000001 	stmdacs	r0, {r0}
    11a0:	02000001 	andeq	r0, r0, #1
    11a4:	289f3000 	ldmcs	pc, {ip, sp}	; <UNPREDICTABLE>
    11a8:	3b000001 	blcc	11b4 <_start-0x6e4c>
    11ac:	01000001 	tsteq	r0, r1
    11b0:	00005200 	andeq	r5, r0, r0, lsl #4
    11b4:	00000000 	andeq	r0, r0, r0
    11b8:	01180000 	tsteq	r8, r0
    11bc:	012c0000 	teqeq	ip, r0
    11c0:	00020000 	andeq	r0, r2, r0
    11c4:	012c9f30 	teqeq	ip, r0, lsr pc
    11c8:	01380000 	teqeq	r8, r0
    11cc:	00050000 	andeq	r0, r5, r0
    11d0:	24007331 	strcs	r7, [r0], #-817	; 0x331
    11d4:	0001389f 	muleq	r1, pc, r8	; <UNPREDICTABLE>
    11d8:	00013b00 	andeq	r3, r1, r0, lsl #22
    11dc:	51000100 	mrspl	r0, (UNDEF: 16)
    11e0:	0000013b 	andeq	r0, r0, fp, lsr r1
    11e4:	00000144 	andeq	r0, r0, r4, asr #2
    11e8:	f3310008 	vhadd.u<illegal width 64>	d0, d1, d8
    11ec:	1a4f5001 	bne	13d51f8 <__bss_end__+0x13cae60>
    11f0:	00009f24 	andeq	r9, r0, r4, lsr #30
    11f4:	00000000 	andeq	r0, r0, r0
    11f8:	01440000 	mrseq	r0, (UNDEF: 68)
    11fc:	01d40000 	bicseq	r0, r4, r0
    1200:	00010000 	andeq	r0, r1, r0
    1204:	0001d450 	andeq	sp, r1, r0, asr r4
    1208:	00021000 	andeq	r1, r2, r0
    120c:	54000100 	strpl	r0, [r0], #-256	; 0x100
	...
    1218:	0000018c 	andeq	r0, r0, ip, lsl #3
    121c:	00000190 	muleq	r0, r0, r1
    1220:	98550001 	ldmdals	r5, {r0}^
    1224:	9c000001 	stcls	0, cr0, [r0], {1}
    1228:	01000001 	tsteq	r0, r1
    122c:	01a45500 			; <UNDEFINED> instruction: 0x01a45500
    1230:	01a80000 			; <UNDEFINED> instruction: 0x01a80000
    1234:	00010000 	andeq	r0, r1, r0
    1238:	0001b055 	andeq	fp, r1, r5, asr r0
    123c:	0001b400 	andeq	fp, r1, r0, lsl #8
    1240:	55000100 	strpl	r0, [r0, #-256]	; 0x100
    1244:	000001bc 			; <UNDEFINED> instruction: 0x000001bc
    1248:	000001c0 	andeq	r0, r0, r0, asr #3
    124c:	c8550001 	ldmdagt	r5, {r0}^
    1250:	cc000001 	stcgt	0, cr0, [r0], {1}
    1254:	01000001 	tsteq	r0, r1
    1258:	01d05500 	bicseq	r5, r0, r0, lsl #10
    125c:	02100000 	andseq	r0, r0, #0
    1260:	00010000 	andeq	r0, r1, r0
    1264:	00000055 	andeq	r0, r0, r5, asr r0
    1268:	00000000 	andeq	r0, r0, r0
    126c:	00016000 	andeq	r6, r1, r0
    1270:	00018800 	andeq	r8, r1, r0, lsl #16
    1274:	53000100 	movwpl	r0, #256	; 0x100
    1278:	00000188 	andeq	r0, r0, r8, lsl #3
    127c:	00000190 	muleq	r0, r0, r1
    1280:	0070001c 	rsbseq	r0, r0, ip, lsl r0
    1284:	25f72cf7 	ldrbcs	r2, [r7, #3319]!	; 0xcf7
    1288:	cd0825f4 	cfstr32gt	mvfx2, [r8, #-976]	; 0xfffffc30
    128c:	00cccccc 	sbceq	ip, ip, ip, asr #25
    1290:	1e000000 	cdpne	0, 0, cr0, cr0, cr0, {0}
    1294:	25f72008 	ldrbcs	r2, [r7, #8]!
    1298:	332cf725 	msrcc	CPSR_fs, #9699328	; 0x940000
    129c:	01909f25 	orrseq	r9, r0, r5, lsr #30
    12a0:	01940000 	orrseq	r0, r4, r0
    12a4:	00010000 	andeq	r0, r1, r0
    12a8:	00019453 	andeq	r9, r1, r3, asr r4
    12ac:	00019c00 	andeq	r9, r1, r0, lsl #24
    12b0:	70001c00 	andvc	r1, r0, r0, lsl #24
    12b4:	f72cf700 			; <UNDEFINED> instruction: 0xf72cf700
    12b8:	0825f425 	stmdaeq	r5!, {r0, r2, r5, sl, ip, sp, lr, pc}
    12bc:	cccccccd 	stclgt	12, cr12, [ip], {205}	; 0xcd
    12c0:	00000000 	andeq	r0, r0, r0
    12c4:	f720081e 			; <UNDEFINED> instruction: 0xf720081e
    12c8:	2cf72525 	cfldr64cs	mvdx2, [r7], #148	; 0x94
    12cc:	9c9f2533 	cfldr32ls	mvfx2, [pc], {51}	; 0x33
    12d0:	a0000001 	andge	r0, r0, r1
    12d4:	01000001 	tsteq	r0, r1
    12d8:	01a05300 	lsleq	r5, r0, #6
    12dc:	01a80000 			; <UNDEFINED> instruction: 0x01a80000
    12e0:	001c0000 	andseq	r0, ip, r0
    12e4:	2cf70070 	ldclcs	0, cr0, [r7], #448	; 0x1c0
    12e8:	25f425f7 	ldrbcs	r2, [r4, #1527]!	; 0x5f7
    12ec:	cccccd08 	stclgt	13, cr12, [ip], {8}
    12f0:	000000cc 	andeq	r0, r0, ip, asr #1
    12f4:	20081e00 	andcs	r1, r8, r0, lsl #28
    12f8:	f72525f7 			; <UNDEFINED> instruction: 0xf72525f7
    12fc:	9f25332c 	svcls	0x0025332c
    1300:	000001a8 	andeq	r0, r0, r8, lsr #3
    1304:	000001ac 	andeq	r0, r0, ip, lsr #3
    1308:	ac530001 	mrrcge	0, 0, r0, r3, cr1
    130c:	b4000001 	strlt	r0, [r0], #-1
    1310:	1c000001 	stcne	0, cr0, [r0], {1}
    1314:	f7007000 			; <UNDEFINED> instruction: 0xf7007000
    1318:	f425f72c 	vld1.8	{d15}, [r5 :128], ip
    131c:	cccd0825 	stclgt	8, cr0, [sp], {37}	; 0x25
    1320:	0000cccc 	andeq	ip, r0, ip, asr #25
    1324:	081e0000 	ldmdaeq	lr, {}	; <UNPREDICTABLE>
    1328:	2525f720 	strcs	pc, [r5, #-1824]!	; 0x720
    132c:	25332cf7 	ldrcs	r2, [r3, #-3319]!	; 0xcf7
    1330:	0001b49f 	muleq	r1, pc, r4	; <UNPREDICTABLE>
    1334:	0001b800 	andeq	fp, r1, r0, lsl #16
    1338:	53000100 	movwpl	r0, #256	; 0x100
    133c:	000001b8 			; <UNDEFINED> instruction: 0x000001b8
    1340:	000001c0 	andeq	r0, r0, r0, asr #3
    1344:	0070001c 	rsbseq	r0, r0, ip, lsl r0
    1348:	25f72cf7 	ldrbcs	r2, [r7, #3319]!	; 0xcf7
    134c:	cd0825f4 	cfstr32gt	mvfx2, [r8, #-976]	; 0xfffffc30
    1350:	00cccccc 	sbceq	ip, ip, ip, asr #25
    1354:	1e000000 	cdpne	0, 0, cr0, cr0, cr0, {0}
    1358:	25f72008 	ldrbcs	r2, [r7, #8]!
    135c:	332cf725 	msrcc	CPSR_fs, #9699328	; 0x940000
    1360:	01c09f25 	biceq	r9, r0, r5, lsr #30
    1364:	01c40000 	biceq	r0, r4, r0
    1368:	00010000 	andeq	r0, r1, r0
    136c:	0001c453 	andeq	ip, r1, r3, asr r4
    1370:	0001cc00 	andeq	ip, r1, r0, lsl #24
    1374:	70001c00 	andvc	r1, r0, r0, lsl #24
    1378:	f72cf700 			; <UNDEFINED> instruction: 0xf72cf700
    137c:	0825f425 	stmdaeq	r5!, {r0, r2, r5, sl, ip, sp, lr, pc}
    1380:	cccccccd 	stclgt	12, cr12, [ip], {205}	; 0xcd
    1384:	00000000 	andeq	r0, r0, r0
    1388:	f720081e 			; <UNDEFINED> instruction: 0xf720081e
    138c:	2cf72525 	cfldr64cs	mvdx2, [r7], #148	; 0x94
    1390:	cc9f2533 	cfldr32gt	mvfx2, [pc], {51}	; 0x33
    1394:	d0000001 	andle	r0, r0, r1
    1398:	01000001 	tsteq	r0, r1
    139c:	01d05300 	bicseq	r5, r0, r0, lsl #6
    13a0:	01d40000 	bicseq	r0, r4, r0
    13a4:	001c0000 	andseq	r0, ip, r0
    13a8:	2cf70070 	ldclcs	0, cr0, [r7], #448	; 0x1c0
    13ac:	25f425f7 	ldrbcs	r2, [r4, #1527]!	; 0x5f7
    13b0:	cccccd08 	stclgt	13, cr12, [ip], {8}
    13b4:	000000cc 	andeq	r0, r0, ip, asr #1
    13b8:	20081e00 	andcs	r1, r8, r0, lsl #28
    13bc:	f72525f7 			; <UNDEFINED> instruction: 0xf72525f7
    13c0:	9f25332c 	svcls	0x0025332c
    13c4:	000001d4 	ldrdeq	r0, [r0], -r4
    13c8:	000001dc 	ldrdeq	r0, [r0], -ip
    13cc:	0074001c 	rsbseq	r0, r4, ip, lsl r0
    13d0:	25f72cf7 	ldrbcs	r2, [r7, #3319]!	; 0xcf7
    13d4:	cd0825f4 	cfstr32gt	mvfx2, [r8, #-976]	; 0xfffffc30
    13d8:	00cccccc 	sbceq	ip, ip, ip, asr #25
    13dc:	1e000000 	cdpne	0, 0, cr0, cr0, cr0, {0}
    13e0:	25f72008 	ldrbcs	r2, [r7, #8]!
    13e4:	332cf725 	msrcc	CPSR_fs, #9699328	; 0x940000
    13e8:	01dc9f25 	bicseq	r9, ip, r5, lsr #30
    13ec:	01e00000 	mvneq	r0, r0
    13f0:	00170000 	andseq	r0, r7, r0
    13f4:	2cf70074 	ldclcs	0, cr0, [r7], #464	; 0x1d0
    13f8:	007125f7 	ldrshteq	r2, [r1], #-87	; 0xffffffa9
    13fc:	25f72cf7 	ldrbcs	r2, [r7, #3319]!	; 0xcf7
    1400:	f720081e 			; <UNDEFINED> instruction: 0xf720081e
    1404:	2cf72525 	cfldr64cs	mvdx2, [r7], #148	; 0x94
    1408:	e09f2533 	adds	r2, pc, r3, lsr r5	; <UNPREDICTABLE>
    140c:	10000001 	andne	r0, r0, r1
    1410:	1c000002 	stcne	0, cr0, [r0], {2}
    1414:	f7007400 			; <UNDEFINED> instruction: 0xf7007400
    1418:	f425f72c 	vld1.8	{d15}, [r5 :128], ip
    141c:	cccd0825 	stclgt	8, cr0, [sp], {37}	; 0x25
    1420:	0000cccc 	andeq	ip, r0, ip, asr #25
    1424:	081e0000 	ldmdaeq	lr, {}	; <UNPREDICTABLE>
    1428:	2525f720 	strcs	pc, [r5, #-1824]!	; 0x720
    142c:	25332cf7 	ldrcs	r2, [r3, #-3319]!	; 0xcf7
    1430:	0000009f 	muleq	r0, pc, r0	; <UNPREDICTABLE>
    1434:	00000000 	andeq	r0, r0, r0
    1438:	0001d800 	andeq	sp, r1, r0, lsl #16
    143c:	0001fc00 	andeq	pc, r1, r0, lsl #24
    1440:	50000100 	andpl	r0, r0, r0, lsl #2
    1444:	000001fc 	strdeq	r0, [r0], -ip
    1448:	00000203 	andeq	r0, r0, r3, lsl #4
    144c:	00510001 	subseq	r0, r1, r1
    1450:	00000000 	andeq	r0, r0, r0
    1454:	10000000 	andne	r0, r0, r0
    1458:	2c000002 	stccs	0, cr0, [r0], {2}
    145c:	01000002 	tsteq	r0, r2
    1460:	022c5000 	eoreq	r5, ip, #0
    1464:	02340000 	eorseq	r0, r4, #0
    1468:	00010000 	andeq	r0, r1, r0
    146c:	00023454 	andeq	r3, r2, r4, asr r4
    1470:	00023c00 	andeq	r3, r2, r0, lsl #24
    1474:	50000100 	andpl	r0, r0, r0, lsl #2
    1478:	0000023c 	andeq	r0, r0, ip, lsr r2
    147c:	00000244 	andeq	r0, r0, r4, asr #4
    1480:	44540001 	ldrbmi	r0, [r4], #-1
    1484:	50000002 	andpl	r0, r0, r2
    1488:	04000002 	streq	r0, [r0], #-2
    148c:	5001f300 	andpl	pc, r1, r0, lsl #6
    1490:	0002509f 	muleq	r2, pc, r0	; <UNPREDICTABLE>
    1494:	00025400 	andeq	r5, r2, r0, lsl #8
    1498:	50000100 	andpl	r0, r0, r0, lsl #2
    149c:	00000254 	andeq	r0, r0, r4, asr r2
    14a0:	0000025c 	andeq	r0, r0, ip, asr r2
    14a4:	00540001 	subseq	r0, r4, r1
    14a8:	00000000 	andeq	r0, r0, r0
    14ac:	20000000 	andcs	r0, r0, r0
    14b0:	30000002 	andcc	r0, r0, r2
    14b4:	02000002 	andeq	r0, r0, #2
    14b8:	309f3000 	addscc	r3, pc, r0
    14bc:	34000002 	strcc	r0, [r0], #-2
    14c0:	01000002 	tsteq	r0, r2
    14c4:	02345000 	eorseq	r5, r4, #0
    14c8:	02400000 	subeq	r0, r0, #0
    14cc:	00020000 	andeq	r0, r2, r0
    14d0:	02409f30 	subeq	r9, r0, #48, 30	; 0xc0
    14d4:	024c0000 	subeq	r0, ip, #0
    14d8:	00010000 	andeq	r0, r1, r0
    14dc:	00000050 	andeq	r0, r0, r0, asr r0
    14e0:	00000000 	andeq	r0, r0, r0
    14e4:	00025c00 	andeq	r5, r2, r0, lsl #24
    14e8:	00027300 	andeq	r7, r2, r0, lsl #6
    14ec:	50000100 	andpl	r0, r0, r0, lsl #2
    14f0:	00000273 	andeq	r0, r0, r3, ror r2
    14f4:	00000278 	andeq	r0, r0, r8, ror r2
    14f8:	01f30004 	mvnseq	r0, r4
    14fc:	02789f50 	rsbseq	r9, r8, #80, 30	; 0x140
    1500:	027b0000 	rsbseq	r0, fp, #0
    1504:	00010000 	andeq	r0, r1, r0
    1508:	00027b50 	andeq	r7, r2, r0, asr fp
    150c:	00028000 	andeq	r8, r2, r0
    1510:	f3000400 	vshl.u8	d0, d0, d0
    1514:	009f5001 	addseq	r5, pc, r1
    1518:	00000000 	andeq	r0, r0, r0
    151c:	5c000000 	stcpl	0, cr0, [r0], {-0}
    1520:	73000002 	movwvc	r0, #2
    1524:	01000002 	tsteq	r0, r2
    1528:	02735100 	rsbseq	r5, r3, #0, 2
    152c:	02780000 	rsbseq	r0, r8, #0
    1530:	00040000 	andeq	r0, r4, r0
    1534:	9f5101f3 	svcls	0x005101f3
    1538:	00000278 	andeq	r0, r0, r8, ror r2
    153c:	0000027b 	andeq	r0, r0, fp, ror r2
    1540:	7b510001 	blvc	144154c <__bss_end__+0x14371b4>
    1544:	80000002 	andhi	r0, r0, r2
    1548:	04000002 	streq	r0, [r0], #-2
    154c:	5101f300 	mrspl	pc, SP_irq	; <UNPREDICTABLE>
    1550:	0000009f 	muleq	r0, pc, r0	; <UNPREDICTABLE>
    1554:	00000000 	andeq	r0, r0, r0
    1558:	00028000 	andeq	r8, r2, r0
    155c:	00031800 	andeq	r1, r3, r0, lsl #16
    1560:	50000100 	andpl	r0, r0, r0, lsl #2
    1564:	00000318 	andeq	r0, r0, r8, lsl r3
    1568:	00000358 	andeq	r0, r0, r8, asr r3
    156c:	00540001 	subseq	r0, r4, r1
    1570:	00000000 	andeq	r0, r0, r0
    1574:	80000000 	andhi	r0, r0, r0
    1578:	1b000002 	blne	1588 <_start-0x6a78>
    157c:	01000003 	tsteq	r0, r3
    1580:	031b5100 	tsteq	fp, #0, 2
    1584:	03580000 	cmpeq	r8, #0
    1588:	00040000 	andeq	r0, r4, r0
    158c:	9f5101f3 	svcls	0x005101f3
	...
    1598:	000002d0 	ldrdeq	r0, [r0], -r0	; <UNPREDICTABLE>
    159c:	000002d4 	ldrdeq	r0, [r0], -r4
    15a0:	dc560001 	mrrcle	0, 0, r0, r6, cr1
    15a4:	e0000002 	and	r0, r0, r2
    15a8:	01000002 	tsteq	r0, r2
    15ac:	02e85600 	rsceq	r5, r8, #0, 12
    15b0:	02ec0000 	rsceq	r0, ip, #0
    15b4:	00010000 	andeq	r0, r1, r0
    15b8:	0002f456 	andeq	pc, r2, r6, asr r4	; <UNPREDICTABLE>
    15bc:	0002f800 	andeq	pc, r2, r0, lsl #16
    15c0:	56000100 	strpl	r0, [r0], -r0, lsl #2
    15c4:	00000300 	andeq	r0, r0, r0, lsl #6
    15c8:	00000304 	andeq	r0, r0, r4, lsl #6
    15cc:	0c560001 	mrrceq	0, 0, r0, r6, cr1
    15d0:	10000003 	andne	r0, r0, r3
    15d4:	01000003 	tsteq	r0, r3
    15d8:	03145600 	tsteq	r4, #0, 12
    15dc:	03580000 	cmpeq	r8, #0
    15e0:	00010000 	andeq	r0, r1, r0
    15e4:	00000056 	andeq	r0, r0, r6, asr r0
    15e8:	00000000 	andeq	r0, r0, r0
    15ec:	0002a400 	andeq	sl, r2, r0, lsl #8
    15f0:	0002cc00 	andeq	ip, r2, r0, lsl #24
    15f4:	53000100 	movwpl	r0, #256	; 0x100
    15f8:	000002cc 	andeq	r0, r0, ip, asr #5
    15fc:	000002d4 	ldrdeq	r0, [r0], -r4
    1600:	0070001c 	rsbseq	r0, r0, ip, lsl r0
    1604:	25f72cf7 	ldrbcs	r2, [r7, #3319]!	; 0xcf7
    1608:	cd0825f4 	cfstr32gt	mvfx2, [r8, #-976]	; 0xfffffc30
    160c:	00cccccc 	sbceq	ip, ip, ip, asr #25
    1610:	1e000000 	cdpne	0, 0, cr0, cr0, cr0, {0}
    1614:	25f72008 	ldrbcs	r2, [r7, #8]!
    1618:	332cf725 	msrcc	CPSR_fs, #9699328	; 0x940000
    161c:	02d49f25 	sbcseq	r9, r4, #37, 30	; 0x94
    1620:	02d80000 	sbcseq	r0, r8, #0
    1624:	00010000 	andeq	r0, r1, r0
    1628:	0002d853 	andeq	sp, r2, r3, asr r8
    162c:	0002e000 	andeq	lr, r2, r0
    1630:	70001c00 	andvc	r1, r0, r0, lsl #24
    1634:	f72cf700 			; <UNDEFINED> instruction: 0xf72cf700
    1638:	0825f425 	stmdaeq	r5!, {r0, r2, r5, sl, ip, sp, lr, pc}
    163c:	cccccccd 	stclgt	12, cr12, [ip], {205}	; 0xcd
    1640:	00000000 	andeq	r0, r0, r0
    1644:	f720081e 			; <UNDEFINED> instruction: 0xf720081e
    1648:	2cf72525 	cfldr64cs	mvdx2, [r7], #148	; 0x94
    164c:	e09f2533 	adds	r2, pc, r3, lsr r5	; <UNPREDICTABLE>
    1650:	e4000002 	str	r0, [r0], #-2
    1654:	01000002 	tsteq	r0, r2
    1658:	02e45300 	rsceq	r5, r4, #0, 6
    165c:	02ec0000 	rsceq	r0, ip, #0
    1660:	001c0000 	andseq	r0, ip, r0
    1664:	2cf70070 	ldclcs	0, cr0, [r7], #448	; 0x1c0
    1668:	25f425f7 	ldrbcs	r2, [r4, #1527]!	; 0x5f7
    166c:	cccccd08 	stclgt	13, cr12, [ip], {8}
    1670:	000000cc 	andeq	r0, r0, ip, asr #1
    1674:	20081e00 	andcs	r1, r8, r0, lsl #28
    1678:	f72525f7 			; <UNDEFINED> instruction: 0xf72525f7
    167c:	9f25332c 	svcls	0x0025332c
    1680:	000002ec 	andeq	r0, r0, ip, ror #5
    1684:	000002f0 	strdeq	r0, [r0], -r0	; <UNPREDICTABLE>
    1688:	f0530001 			; <UNDEFINED> instruction: 0xf0530001
    168c:	f8000002 			; <UNDEFINED> instruction: 0xf8000002
    1690:	1c000002 	stcne	0, cr0, [r0], {2}
    1694:	f7007000 			; <UNDEFINED> instruction: 0xf7007000
    1698:	f425f72c 	vld1.8	{d15}, [r5 :128], ip
    169c:	cccd0825 	stclgt	8, cr0, [sp], {37}	; 0x25
    16a0:	0000cccc 	andeq	ip, r0, ip, asr #25
    16a4:	081e0000 	ldmdaeq	lr, {}	; <UNPREDICTABLE>
    16a8:	2525f720 	strcs	pc, [r5, #-1824]!	; 0x720
    16ac:	25332cf7 	ldrcs	r2, [r3, #-3319]!	; 0xcf7
    16b0:	0002f89f 	muleq	r2, pc, r8	; <UNPREDICTABLE>
    16b4:	0002fc00 	andeq	pc, r2, r0, lsl #24
    16b8:	53000100 	movwpl	r0, #256	; 0x100
    16bc:	000002fc 	strdeq	r0, [r0], -ip
    16c0:	00000304 	andeq	r0, r0, r4, lsl #6
    16c4:	0070001c 	rsbseq	r0, r0, ip, lsl r0
    16c8:	25f72cf7 	ldrbcs	r2, [r7, #3319]!	; 0xcf7
    16cc:	cd0825f4 	cfstr32gt	mvfx2, [r8, #-976]	; 0xfffffc30
    16d0:	00cccccc 	sbceq	ip, ip, ip, asr #25
    16d4:	1e000000 	cdpne	0, 0, cr0, cr0, cr0, {0}
    16d8:	25f72008 	ldrbcs	r2, [r7, #8]!
    16dc:	332cf725 	msrcc	CPSR_fs, #9699328	; 0x940000
    16e0:	03049f25 	movweq	r9, #20261	; 0x4f25
    16e4:	03080000 	movweq	r0, #32768	; 0x8000
    16e8:	00010000 	andeq	r0, r1, r0
    16ec:	00030853 	andeq	r0, r3, r3, asr r8
    16f0:	00031000 	andeq	r1, r3, r0
    16f4:	70001c00 	andvc	r1, r0, r0, lsl #24
    16f8:	f72cf700 			; <UNDEFINED> instruction: 0xf72cf700
    16fc:	0825f425 	stmdaeq	r5!, {r0, r2, r5, sl, ip, sp, lr, pc}
    1700:	cccccccd 	stclgt	12, cr12, [ip], {205}	; 0xcd
    1704:	00000000 	andeq	r0, r0, r0
    1708:	f720081e 			; <UNDEFINED> instruction: 0xf720081e
    170c:	2cf72525 	cfldr64cs	mvdx2, [r7], #148	; 0x94
    1710:	109f2533 	addsne	r2, pc, r3, lsr r5	; <UNPREDICTABLE>
    1714:	14000003 	strne	r0, [r0], #-3
    1718:	01000003 	tsteq	r0, r3
    171c:	03145300 	tsteq	r4, #0, 6
    1720:	03180000 	tsteq	r8, #0
    1724:	001c0000 	andseq	r0, ip, r0
    1728:	2cf70070 	ldclcs	0, cr0, [r7], #448	; 0x1c0
    172c:	25f425f7 	ldrbcs	r2, [r4, #1527]!	; 0x5f7
    1730:	cccccd08 	stclgt	13, cr12, [ip], {8}
    1734:	000000cc 	andeq	r0, r0, ip, asr #1
    1738:	20081e00 	andcs	r1, r8, r0, lsl #28
    173c:	f72525f7 			; <UNDEFINED> instruction: 0xf72525f7
    1740:	9f25332c 	svcls	0x0025332c
    1744:	00000318 	andeq	r0, r0, r8, lsl r3
    1748:	00000320 	andeq	r0, r0, r0, lsr #6
    174c:	0074001c 	rsbseq	r0, r4, ip, lsl r0
    1750:	25f72cf7 	ldrbcs	r2, [r7, #3319]!	; 0xcf7
    1754:	cd0825f4 	cfstr32gt	mvfx2, [r8, #-976]	; 0xfffffc30
    1758:	00cccccc 	sbceq	ip, ip, ip, asr #25
    175c:	1e000000 	cdpne	0, 0, cr0, cr0, cr0, {0}
    1760:	25f72008 	ldrbcs	r2, [r7, #8]!
    1764:	332cf725 	msrcc	CPSR_fs, #9699328	; 0x940000
    1768:	03209f25 	teqeq	r0, #37, 30	; 0x94
    176c:	03240000 	teqeq	r4, #0
    1770:	00170000 	andseq	r0, r7, r0
    1774:	2cf70074 	ldclcs	0, cr0, [r7], #464	; 0x1d0
    1778:	007325f7 	ldrshteq	r2, [r3], #-87	; 0xffffffa9
    177c:	25f72cf7 	ldrbcs	r2, [r7, #3319]!	; 0xcf7
    1780:	f720081e 			; <UNDEFINED> instruction: 0xf720081e
    1784:	2cf72525 	cfldr64cs	mvdx2, [r7], #148	; 0x94
    1788:	249f2533 	ldrcs	r2, [pc], #1331	; 1790 <_start-0x6870>
    178c:	58000003 	stmdapl	r0, {r0, r1}
    1790:	1c000003 	stcne	0, cr0, [r0], {3}
    1794:	f7007400 			; <UNDEFINED> instruction: 0xf7007400
    1798:	f425f72c 	vld1.8	{d15}, [r5 :128], ip
    179c:	cccd0825 	stclgt	8, cr0, [sp], {37}	; 0x25
    17a0:	0000cccc 	andeq	ip, r0, ip, asr #25
    17a4:	081e0000 	ldmdaeq	lr, {}	; <UNPREDICTABLE>
    17a8:	2525f720 	strcs	pc, [r5, #-1824]!	; 0x720
    17ac:	25332cf7 	ldrcs	r2, [r3, #-3319]!	; 0xcf7
    17b0:	0000009f 	muleq	r0, pc, r0	; <UNPREDICTABLE>
    17b4:	00000000 	andeq	r0, r0, r0
    17b8:	00031c00 	andeq	r1, r3, r0, lsl #24
    17bc:	00034000 	andeq	r4, r3, r0
    17c0:	50000100 	andpl	r0, r0, r0, lsl #2
    17c4:	00000340 	andeq	r0, r0, r0, asr #6
    17c8:	00000348 	andeq	r0, r0, r8, asr #6
    17cc:	00750009 	rsbseq	r0, r5, r9
    17d0:	71240073 	teqvc	r4, r3, ror r0
    17d4:	489f2100 	ldmmi	pc, {r8, sp}	; <UNPREDICTABLE>
    17d8:	4b000003 	blmi	17ec <_start-0x6814>
    17dc:	01000003 	tsteq	r0, r3
    17e0:	00005100 	andeq	r5, r0, r0, lsl #2
    17e4:	00000000 	andeq	r0, r0, r0
    17e8:	03580000 	cmpeq	r8, #0
    17ec:	037c0000 	cmneq	ip, #0
    17f0:	00010000 	andeq	r0, r1, r0
    17f4:	00037c50 	andeq	r7, r3, r0, asr ip
    17f8:	00039000 	andeq	r9, r3, r0
    17fc:	f3000400 	vshl.u8	d0, d0, d0
    1800:	009f5001 	addseq	r5, pc, r1
    1804:	00000000 	andeq	r0, r0, r0
    1808:	64000000 	strvs	r0, [r0], #-0
    180c:	6c000003 	stcvs	0, cr0, [r0], {3}
    1810:	02000003 	andeq	r0, r0, #3
    1814:	6c9f3000 	ldcvs	0, cr3, [pc], {0}
    1818:	6c000003 	stcvs	0, cr0, [r0], {3}
    181c:	01000003 	tsteq	r0, r3
    1820:	036c5200 	cmneq	ip, #0, 4
    1824:	03740000 	cmneq	r4, #0
    1828:	00020000 	andeq	r0, r2, r0
    182c:	03749f30 	cmneq	r4, #48, 30	; 0xc0
    1830:	03870000 	orreq	r0, r7, #0
    1834:	00010000 	andeq	r0, r1, r0
    1838:	00000052 	andeq	r0, r0, r2, asr r0
    183c:	00000000 	andeq	r0, r0, r0
    1840:	00036400 	andeq	r6, r3, r0, lsl #8
    1844:	00037800 	andeq	r7, r3, r0, lsl #16
    1848:	30000200 	andcc	r0, r0, r0, lsl #4
    184c:	0003789f 	muleq	r3, pc, r8	; <UNPREDICTABLE>
    1850:	00038400 	andeq	r8, r3, r0, lsl #8
    1854:	31000500 	tstcc	r0, r0, lsl #10
    1858:	9f240073 	svcls	0x00240073
    185c:	00000384 	andeq	r0, r0, r4, lsl #7
    1860:	00000387 	andeq	r0, r0, r7, lsl #7
    1864:	87510001 	ldrbhi	r0, [r1, -r1]
    1868:	90000003 	andls	r0, r0, r3
    186c:	08000003 	stmdaeq	r0, {r0, r1}
    1870:	01f33100 	mvnseq	r3, r0, lsl #2
    1874:	241a4f50 	ldrcs	r4, [sl], #-3920	; 0xf50
    1878:	0000009f 	muleq	r0, pc, r0	; <UNPREDICTABLE>
    187c:	00000000 	andeq	r0, r0, r0
    1880:	00039000 	andeq	r9, r3, r0
    1884:	00039c00 	andeq	r9, r3, r0, lsl #24
    1888:	50000100 	andpl	r0, r0, r0, lsl #2
    188c:	0000039c 	muleq	r0, ip, r3
    1890:	000003bc 			; <UNDEFINED> instruction: 0x000003bc
    1894:	01f30004 	mvnseq	r0, r4
    1898:	00009f50 	andeq	r9, r0, r0, asr pc
    189c:	00000000 	andeq	r0, r0, r0
    18a0:	03bc0000 			; <UNDEFINED> instruction: 0x03bc0000
    18a4:	03cf0000 	biceq	r0, pc, #0
    18a8:	00010000 	andeq	r0, r1, r0
    18ac:	0003cf50 	andeq	ip, r3, r0, asr pc
    18b0:	00040800 	andeq	r0, r4, r0, lsl #16
    18b4:	54000100 	strpl	r0, [r0], #-256	; 0x100
    18b8:	00000408 	andeq	r0, r0, r8, lsl #8
    18bc:	00000440 	andeq	r0, r0, r0, asr #8
    18c0:	01f30004 	mvnseq	r0, r4
    18c4:	00009f50 	andeq	r9, r0, r0, asr pc
    18c8:	00000000 	andeq	r0, r0, r0
    18cc:	04280000 	strteq	r0, [r8], #-0
    18d0:	042c0000 	strteq	r0, [ip], #-0
    18d4:	00010000 	andeq	r0, r1, r0
    18d8:	00042c50 	andeq	r2, r4, r0, asr ip
    18dc:	00043300 	andeq	r3, r4, r0, lsl #6
    18e0:	51000100 	mrspl	r0, (UNDEF: 16)
	...
    18ec:	000003e4 	andeq	r0, r0, r4, ror #7
    18f0:	000003ec 	andeq	r0, r0, ip, ror #7
    18f4:	ec500001 	mrrc	0, 0, r0, r0, cr1	; <UNPREDICTABLE>
    18f8:	f3000003 	vhadd.u8	d0, d0, d3
    18fc:	01000003 	tsteq	r0, r3
    1900:	00005100 	andeq	r5, r0, r0, lsl #2
    1904:	00000000 	andeq	r0, r0, r0
    1908:	04040000 	streq	r0, [r4], #-0
    190c:	04100000 	ldreq	r0, [r0], #-0
    1910:	00010000 	andeq	r0, r1, r0
    1914:	00041050 	andeq	r1, r4, r0, asr r0
    1918:	00041700 	andeq	r1, r4, r0, lsl #14
    191c:	51000100 	mrspl	r0, (UNDEF: 16)
	...
    1928:	00000440 	andeq	r0, r0, r0, asr #8
    192c:	00000453 	andeq	r0, r0, r3, asr r4
    1930:	53500001 	cmppl	r0, #1
    1934:	8c000004 	stchi	0, cr0, [r0], {4}
    1938:	01000004 	tsteq	r0, r4
    193c:	048c5400 	streq	r5, [ip], #1024	; 0x400
    1940:	04c40000 	strbeq	r0, [r4], #0
    1944:	00040000 	andeq	r0, r4, r0
    1948:	9f5001f3 	svcls	0x005001f3
	...
    1954:	000004ac 	andeq	r0, r0, ip, lsr #9
    1958:	000004b0 			; <UNDEFINED> instruction: 0x000004b0
    195c:	b0500001 	subslt	r0, r0, r1
    1960:	b7000004 	strlt	r0, [r0, -r4]
    1964:	01000004 	tsteq	r0, r4
    1968:	00005100 	andeq	r5, r0, r0, lsl #2
    196c:	00000000 	andeq	r0, r0, r0
    1970:	04680000 	strbteq	r0, [r8], #-0
    1974:	04700000 	ldrbteq	r0, [r0], #-0
    1978:	00010000 	andeq	r0, r1, r0
    197c:	00047050 	andeq	r7, r4, r0, asr r0
    1980:	00047700 	andeq	r7, r4, r0, lsl #14
    1984:	51000100 	mrspl	r0, (UNDEF: 16)
	...
    1990:	00000488 	andeq	r0, r0, r8, lsl #9
    1994:	00000494 	muleq	r0, r4, r4
    1998:	94500001 	ldrbls	r0, [r0], #-1
    199c:	9b000004 	blls	19b4 <_start-0x664c>
    19a0:	01000004 	tsteq	r0, r4
    19a4:	00005100 	andeq	r5, r0, r0, lsl #2
    19a8:	00000000 	andeq	r0, r0, r0
    19ac:	04c40000 	strbeq	r0, [r4], #0
    19b0:	04d70000 	ldrbeq	r0, [r7], #0
    19b4:	00010000 	andeq	r0, r1, r0
    19b8:	0004d750 	andeq	sp, r4, r0, asr r7
    19bc:	00051800 	andeq	r1, r5, r0, lsl #16
    19c0:	54000100 	strpl	r0, [r0], #-256	; 0x100
    19c4:	00000518 	andeq	r0, r0, r8, lsl r5
    19c8:	0000053c 	andeq	r0, r0, ip, lsr r5
    19cc:	01f30004 	mvnseq	r0, r4
    19d0:	053c9f50 	ldreq	r9, [ip, #-3920]!	; 0xf50
    19d4:	05400000 	strbeq	r0, [r0, #-0]
    19d8:	00010000 	andeq	r0, r1, r0
    19dc:	00054050 	andeq	r4, r5, r0, asr r0
    19e0:	00054800 	andeq	r4, r5, r0, lsl #16
    19e4:	54000100 	strpl	r0, [r0], #-256	; 0x100
	...
    19f0:	000004ec 	andeq	r0, r0, ip, ror #9
    19f4:	000004fb 	strdeq	r0, [r0], -fp
    19f8:	74310008 	ldrtvc	r0, [r1], #-8
    19fc:	00702400 	rsbseq	r2, r0, r0, lsl #8
    1a00:	00009f1a 	andeq	r9, r0, sl, lsl pc
    1a04:	00000000 	andeq	r0, r0, r0
    1a08:	05180000 	ldreq	r0, [r8, #-0]
    1a0c:	05300000 	ldreq	r0, [r0, #-0]!
    1a10:	00010000 	andeq	r0, r1, r0
    1a14:	00000054 	andeq	r0, r0, r4, asr r0
    1a18:	00000000 	andeq	r0, r0, r0
    1a1c:	00054800 	andeq	r4, r5, r0, lsl #16
    1a20:	00055b00 	andeq	r5, r5, r0, lsl #22
    1a24:	50000100 	andpl	r0, r0, r0, lsl #2
    1a28:	0000055b 	andeq	r0, r0, fp, asr r5
    1a2c:	00000580 	andeq	r0, r0, r0, lsl #11
    1a30:	80540001 	subshi	r0, r4, r1
    1a34:	a0000005 	andge	r0, r0, r5
    1a38:	04000005 	streq	r0, [r0], #-5
    1a3c:	5001f300 	andpl	pc, r1, r0, lsl #6
    1a40:	0000009f 	muleq	r0, pc, r0	; <UNPREDICTABLE>
	...
    1a4c:	00001800 	andeq	r1, r0, r0, lsl #16
    1a50:	50000100 	andpl	r0, r0, r0, lsl #2
    1a54:	00000018 	andeq	r0, r0, r8, lsl r0
    1a58:	00000154 	andeq	r0, r0, r4, asr r1
    1a5c:	01f30004 	mvnseq	r0, r4
    1a60:	00009f50 	andeq	r9, r0, r0, asr pc
	...
    1a6c:	001c0000 	andseq	r0, ip, r0
    1a70:	00010000 	andeq	r0, r1, r0
    1a74:	00001c51 	andeq	r1, r0, r1, asr ip
    1a78:	00015400 	andeq	r5, r1, r0, lsl #8
    1a7c:	f3000400 	vshl.u8	d0, d0, d0
    1a80:	009f5101 	addseq	r5, pc, r1, lsl #2
    1a84:	00000000 	andeq	r0, r0, r0
    1a88:	10000000 	andne	r0, r0, r0
    1a8c:	34000000 	strcc	r0, [r0], #-0
    1a90:	01000001 	tsteq	r0, r1
    1a94:	00005500 	andeq	r5, r0, r0, lsl #10
    1a98:	00000000 	andeq	r0, r0, r0
    1a9c:	00100000 	andseq	r0, r0, r0
    1aa0:	00340000 	eorseq	r0, r4, r0
    1aa4:	00010000 	andeq	r0, r1, r0
    1aa8:	00003455 	andeq	r3, r0, r5, asr r4
    1aac:	00013400 	andeq	r3, r1, r0, lsl #8
    1ab0:	58000100 	stmdapl	r0, {r8}
    1ab4:	00000134 	andeq	r0, r0, r4, lsr r1
    1ab8:	00000154 	andeq	r0, r0, r4, asr r1
    1abc:	00550001 	subseq	r0, r5, r1
    1ac0:	00000000 	andeq	r0, r0, r0
    1ac4:	14000000 	strne	r0, [r0], #-0
    1ac8:	34000000 	strcc	r0, [r0], #-0
    1acc:	01000001 	tsteq	r0, r1
    1ad0:	00005500 	andeq	r5, r0, r0, lsl #10
    1ad4:	00000000 	andeq	r0, r0, r0
    1ad8:	00200000 	eoreq	r0, r0, r0
    1adc:	01340000 	teqeq	r4, r0
    1ae0:	00010000 	andeq	r0, r1, r0
    1ae4:	00000055 	andeq	r0, r0, r5, asr r0
    1ae8:	00000000 	andeq	r0, r0, r0
    1aec:	00002400 	andeq	r2, r0, r0, lsl #8
    1af0:	00002800 	andeq	r2, r0, r0, lsl #16
    1af4:	53000100 	movwpl	r0, #256	; 0x100
	...
    1b00:	00000034 	andeq	r0, r0, r4, lsr r0
    1b04:	00000054 	andeq	r0, r0, r4, asr r0
    1b08:	54580001 	ldrbpl	r0, [r8], #-1
    1b0c:	34000000 	strcc	r0, [r0], #-0
    1b10:	05000001 	streq	r0, [r0, #-1]
    1b14:	31007500 	tstcc	r0, r0, lsl #10
    1b18:	00009f24 	andeq	r9, r0, r4, lsr #30
    1b1c:	00000000 	andeq	r0, r0, r0
    1b20:	00340000 	eorseq	r0, r4, r0
    1b24:	003c0000 	eorseq	r0, ip, r0
    1b28:	00050000 	andeq	r0, r5, r0
    1b2c:	1a310077 	bne	c41d10 <__bss_end__+0xc37978>
    1b30:	00003c9f 	muleq	r0, pc, ip	; <UNPREDICTABLE>
    1b34:	00003f00 	andeq	r3, r0, r0, lsl #30
    1b38:	51000100 	mrspl	r0, (UNDEF: 16)
    1b3c:	0000003f 	andeq	r0, r0, pc, lsr r0
    1b40:	00000154 	andeq	r0, r0, r4, asr r1
    1b44:	00770005 	rsbseq	r0, r7, r5
    1b48:	009f1a31 	addseq	r1, pc, r1, lsr sl	; <UNPREDICTABLE>
    1b4c:	00000000 	andeq	r0, r0, r0
    1b50:	40000000 	andmi	r0, r0, r0
    1b54:	54000000 	strpl	r0, [r0], #-0
    1b58:	01000000 	mrseq	r0, (UNDEF: 0)
    1b5c:	00545800 	subseq	r5, r4, r0, lsl #16
    1b60:	01340000 	teqeq	r4, r0
    1b64:	00050000 	andeq	r0, r5, r0
    1b68:	24310075 	ldrtcs	r0, [r1], #-117	; 0x75
    1b6c:	0000009f 	muleq	r0, pc, r0	; <UNPREDICTABLE>
    1b70:	00000000 	andeq	r0, r0, r0
    1b74:	00004400 	andeq	r4, r0, r0, lsl #8
    1b78:	00004800 	andeq	r4, r0, r0, lsl #16
    1b7c:	53000100 	movwpl	r0, #256	; 0x100
	...
    1b88:	00000054 	andeq	r0, r0, r4, asr r0
    1b8c:	00000074 	andeq	r0, r0, r4, ror r0
    1b90:	74580001 	ldrbvc	r0, [r8], #-1
    1b94:	34000000 	strcc	r0, [r0], #-0
    1b98:	08000001 	stmdaeq	r0, {r0}
    1b9c:	31007500 	tstcc	r0, r0, lsl #10
    1ba0:	22007524 	andcs	r7, r0, #36, 10	; 0x9000000
    1ba4:	0000009f 	muleq	r0, pc, r0	; <UNPREDICTABLE>
    1ba8:	00000000 	andeq	r0, r0, r0
    1bac:	00006000 	andeq	r6, r0, r0
    1bb0:	00007400 	andeq	r7, r0, r0, lsl #8
    1bb4:	58000100 	stmdapl	r0, {r8}
    1bb8:	00000074 	andeq	r0, r0, r4, ror r0
    1bbc:	00000134 	andeq	r0, r0, r4, lsr r1
    1bc0:	00750008 	rsbseq	r0, r5, r8
    1bc4:	00752431 	rsbseq	r2, r5, r1, lsr r4
    1bc8:	00009f22 	andeq	r9, r0, r2, lsr #30
    1bcc:	00000000 	andeq	r0, r0, r0
    1bd0:	00640000 	rsbeq	r0, r4, r0
    1bd4:	00680000 	rsbeq	r0, r8, r0
    1bd8:	00010000 	andeq	r0, r1, r0
    1bdc:	00000053 	andeq	r0, r0, r3, asr r0
    1be0:	00000000 	andeq	r0, r0, r0
    1be4:	00007400 	andeq	r7, r0, r0, lsl #8
    1be8:	00009400 	andeq	r9, r0, r0, lsl #8
    1bec:	58000100 	stmdapl	r0, {r8}
    1bf0:	00000094 	muleq	r0, r4, r0
    1bf4:	00000134 	andeq	r0, r0, r4, lsr r1
    1bf8:	00750005 	rsbseq	r0, r5, r5
    1bfc:	009f2432 	addseq	r2, pc, r2, lsr r4	; <UNPREDICTABLE>
    1c00:	00000000 	andeq	r0, r0, r0
    1c04:	80000000 	andhi	r0, r0, r0
    1c08:	94000000 	strls	r0, [r0], #-0
    1c0c:	01000000 	mrseq	r0, (UNDEF: 0)
    1c10:	00945800 	addseq	r5, r4, r0, lsl #16
    1c14:	01340000 	teqeq	r4, r0
    1c18:	00050000 	andeq	r0, r5, r0
    1c1c:	24320075 	ldrtcs	r0, [r2], #-117	; 0x75
    1c20:	0000009f 	muleq	r0, pc, r0	; <UNPREDICTABLE>
    1c24:	00000000 	andeq	r0, r0, r0
    1c28:	00008400 	andeq	r8, r0, r0, lsl #8
    1c2c:	00008800 	andeq	r8, r0, r0, lsl #16
    1c30:	53000100 	movwpl	r0, #256	; 0x100
	...
    1c3c:	00000094 	muleq	r0, r4, r0
    1c40:	000000b4 	strheq	r0, [r0], -r4
    1c44:	b4580001 	ldrblt	r0, [r8], #-1
    1c48:	34000000 	strcc	r0, [r0], #-0
    1c4c:	08000001 	stmdaeq	r0, {r0}
    1c50:	32007500 	andcc	r7, r0, #0, 10
    1c54:	22007524 	andcs	r7, r0, #36, 10	; 0x9000000
    1c58:	0000009f 	muleq	r0, pc, r0	; <UNPREDICTABLE>
    1c5c:	00000000 	andeq	r0, r0, r0
    1c60:	0000a000 	andeq	sl, r0, r0
    1c64:	0000b400 	andeq	fp, r0, r0, lsl #8
    1c68:	58000100 	stmdapl	r0, {r8}
    1c6c:	000000b4 	strheq	r0, [r0], -r4
    1c70:	00000134 	andeq	r0, r0, r4, lsr r1
    1c74:	00750008 	rsbseq	r0, r5, r8
    1c78:	00752432 	rsbseq	r2, r5, r2, lsr r4
    1c7c:	00009f22 	andeq	r9, r0, r2, lsr #30
    1c80:	00000000 	andeq	r0, r0, r0
    1c84:	00a40000 	adceq	r0, r4, r0
    1c88:	00a80000 	adceq	r0, r8, r0
    1c8c:	00010000 	andeq	r0, r1, r0
    1c90:	00000053 	andeq	r0, r0, r3, asr r0
    1c94:	00000000 	andeq	r0, r0, r0
    1c98:	0000b400 	andeq	fp, r0, r0, lsl #8
    1c9c:	0000d400 	andeq	sp, r0, r0, lsl #8
    1ca0:	58000100 	stmdapl	r0, {r8}
    1ca4:	000000d4 	ldrdeq	r0, [r0], -r4
    1ca8:	00000134 	andeq	r0, r0, r4, lsr r1
    1cac:	0075000a 	rsbseq	r0, r5, sl
    1cb0:	00752432 	rsbseq	r2, r5, r2, lsr r4
    1cb4:	9f222431 	svcls	0x00222431
	...
    1cc0:	000000c0 	andeq	r0, r0, r0, asr #1
    1cc4:	000000d4 	ldrdeq	r0, [r0], -r4
    1cc8:	d4580001 	ldrble	r0, [r8], #-1
    1ccc:	34000000 	strcc	r0, [r0], #-0
    1cd0:	0a000001 	beq	1cdc <_start-0x6324>
    1cd4:	32007500 	andcc	r7, r0, #0, 10
    1cd8:	31007524 	tstcc	r0, r4, lsr #10
    1cdc:	009f2224 	addseq	r2, pc, r4, lsr #4
    1ce0:	00000000 	andeq	r0, r0, r0
    1ce4:	c4000000 	strgt	r0, [r0], #-0
    1ce8:	c8000000 	stmdagt	r0, {}	; <UNPREDICTABLE>
    1cec:	01000000 	mrseq	r0, (UNDEF: 0)
    1cf0:	00005300 	andeq	r5, r0, r0, lsl #6
    1cf4:	00000000 	andeq	r0, r0, r0
    1cf8:	00d40000 	sbcseq	r0, r4, r0
    1cfc:	00f40000 	rscseq	r0, r4, r0
    1d00:	00010000 	andeq	r0, r1, r0
    1d04:	0000f458 	andeq	pc, r0, r8, asr r4	; <UNPREDICTABLE>
    1d08:	00013400 	andeq	r3, r1, r0, lsl #8
    1d0c:	75000d00 	strvc	r0, [r0, #-3328]	; 0xd00
    1d10:	75243200 	strvc	r3, [r4, #-512]!	; 0x200
    1d14:	22243100 	eorcs	r3, r4, #0, 2
    1d18:	9f220075 	svcls	0x00220075
	...
    1d24:	000000e0 	andeq	r0, r0, r0, ror #1
    1d28:	000000f4 	strdeq	r0, [r0], -r4
    1d2c:	f4580001 			; <UNDEFINED> instruction: 0xf4580001
    1d30:	34000000 	strcc	r0, [r0], #-0
    1d34:	0d000001 	stceq	0, cr0, [r0, #-4]
    1d38:	32007500 	andcc	r7, r0, #0, 10
    1d3c:	31007524 	tstcc	r0, r4, lsr #10
    1d40:	00752224 	rsbseq	r2, r5, r4, lsr #4
    1d44:	00009f22 	andeq	r9, r0, r2, lsr #30
    1d48:	00000000 	andeq	r0, r0, r0
    1d4c:	00e40000 	rsceq	r0, r4, r0
    1d50:	00e80000 	rsceq	r0, r8, r0
    1d54:	00010000 	andeq	r0, r1, r0
    1d58:	00000053 	andeq	r0, r0, r3, asr r0
    1d5c:	00000000 	andeq	r0, r0, r0
    1d60:	0000f400 	andeq	pc, r0, r0, lsl #8
    1d64:	00011400 	andeq	r1, r1, r0, lsl #8
    1d68:	58000100 	stmdapl	r0, {r8}
    1d6c:	00000114 	andeq	r0, r0, r4, lsl r1
    1d70:	00000134 	andeq	r0, r0, r4, lsr r1
    1d74:	00750005 	rsbseq	r0, r5, r5
    1d78:	009f2433 	addseq	r2, pc, r3, lsr r4	; <UNPREDICTABLE>
	...
    1d84:	14000001 	strne	r0, [r0], #-1
    1d88:	01000001 	tsteq	r0, r1
    1d8c:	01145800 	tsteq	r4, r0, lsl #16
    1d90:	01340000 	teqeq	r4, r0
    1d94:	00050000 	andeq	r0, r5, r0
    1d98:	24330075 	ldrtcs	r0, [r3], #-117	; 0x75
    1d9c:	0000009f 	muleq	r0, pc, r0	; <UNPREDICTABLE>
    1da0:	00000000 	andeq	r0, r0, r0
    1da4:	00010400 	andeq	r0, r1, r0, lsl #8
    1da8:	00010800 	andeq	r0, r1, r0, lsl #16
    1dac:	53000100 	movwpl	r0, #256	; 0x100
	...
    1db8:	00000114 	andeq	r0, r0, r4, lsl r1
    1dbc:	0000011c 	andeq	r0, r0, ip, lsl r1
    1dc0:	00770006 	rsbseq	r0, r7, r6
    1dc4:	9f1a8008 	svcls	0x001a8008
    1dc8:	0000011c 	andeq	r0, r0, ip, lsl r1
    1dcc:	0000011f 	andeq	r0, r0, pc, lsl r1
    1dd0:	1f510001 	svcne	0x00510001
    1dd4:	54000001 	strpl	r0, [r0], #-1
    1dd8:	06000001 	streq	r0, [r0], -r1
    1ddc:	08007700 	stmdaeq	r0, {r8, r9, sl, ip, sp, lr}
    1de0:	009f1a80 	addseq	r1, pc, r0, lsl #21
    1de4:	00000000 	andeq	r0, r0, r0
    1de8:	24000000 	strcs	r0, [r0], #-0
    1dec:	28000001 	stmdacs	r0, {r0}
    1df0:	01000001 	tsteq	r0, r1
    1df4:	00005300 	andeq	r5, r0, r0, lsl #6
    1df8:	00000000 	andeq	r0, r0, r0
    1dfc:	01440000 	mrseq	r0, (UNDEF: 68)
    1e00:	01480000 	mrseq	r0, (UNDEF: 72)
    1e04:	00010000 	andeq	r0, r1, r0
    1e08:	00000053 	andeq	r0, r0, r3, asr r0
    1e0c:	00000000 	andeq	r0, r0, r0
    1e10:	00015400 	andeq	r5, r1, r0, lsl #8
    1e14:	00016b00 	andeq	r6, r1, r0, lsl #22
    1e18:	50000100 	andpl	r0, r0, r0, lsl #2
    1e1c:	0000016b 	andeq	r0, r0, fp, ror #2
    1e20:	000001d0 	ldrdeq	r0, [r0], -r0	; <UNPREDICTABLE>
    1e24:	d0590001 	subsle	r0, r9, r1
    1e28:	0c000001 	stceq	0, cr0, [r0], {1}
    1e2c:	04000003 	streq	r0, [r0], #-3
    1e30:	5001f300 	andpl	pc, r1, r0, lsl #6
    1e34:	00030c9f 	muleq	r3, pc, ip	; <UNPREDICTABLE>
    1e38:	00031400 	andeq	r1, r3, r0, lsl #8
    1e3c:	59000100 	stmdbpl	r0, {r8}
    1e40:	00000314 	andeq	r0, r0, r4, lsl r3
    1e44:	0000031c 	andeq	r0, r0, ip, lsl r3
    1e48:	01f30004 	mvnseq	r0, r4
    1e4c:	00009f50 	andeq	r9, r0, r0, asr pc
    1e50:	00000000 	andeq	r0, r0, r0
    1e54:	01540000 	cmpeq	r4, r0
    1e58:	016b0000 	cmneq	fp, r0
    1e5c:	00010000 	andeq	r0, r1, r0
    1e60:	00016b51 	andeq	r6, r1, r1, asr fp
    1e64:	00031c00 	andeq	r1, r3, r0, lsl #24
    1e68:	56000100 	strpl	r0, [r0], -r0, lsl #2
	...
    1e74:	000001a8 	andeq	r0, r0, r8, lsr #3
    1e78:	00000298 	muleq	r0, r8, r2
    1e7c:	00580001 	subseq	r0, r8, r1
    1e80:	00000000 	andeq	r0, r0, r0
    1e84:	ac000000 	stcge	0, cr0, [r0], {-0}
    1e88:	d0000001 	andle	r0, r0, r1
    1e8c:	01000002 	tsteq	r0, r2
    1e90:	00005400 	andeq	r5, r0, r0, lsl #8
    1e94:	00000000 	andeq	r0, r0, r0
    1e98:	01ac0000 			; <UNDEFINED> instruction: 0x01ac0000
    1e9c:	02d00000 	sbcseq	r0, r0, #0
    1ea0:	00050000 	andeq	r0, r5, r0
    1ea4:	25310074 	ldrcs	r0, [r1, #-116]!	; 0x74
    1ea8:	0000009f 	muleq	r0, pc, r0	; <UNPREDICTABLE>
    1eac:	00000000 	andeq	r0, r0, r0
    1eb0:	0001ac00 	andeq	sl, r1, r0, lsl #24
    1eb4:	0001d000 	andeq	sp, r1, r0
    1eb8:	30000200 	andcc	r0, r0, r0, lsl #4
    1ebc:	0001d09f 	muleq	r1, pc, r0	; <UNPREDICTABLE>
    1ec0:	00030c00 	andeq	r0, r3, r0, lsl #24
    1ec4:	59000100 	stmdbpl	r0, {r8}
    1ec8:	00000314 	andeq	r0, r0, r4, lsl r3
    1ecc:	0000031c 	andeq	r0, r0, ip, lsl r3
    1ed0:	00590001 	subseq	r0, r9, r1
    1ed4:	00000000 	andeq	r0, r0, r0
    1ed8:	68000000 	stmdavs	r0, {}	; <UNPREDICTABLE>
    1edc:	6b000001 	blvs	1ee8 <_start-0x6118>
    1ee0:	01000001 	tsteq	r0, r1
    1ee4:	016b5100 	cmneq	fp, r0, lsl #2
    1ee8:	031c0000 	tsteq	ip, #0
    1eec:	00010000 	andeq	r0, r1, r0
    1ef0:	00000056 	andeq	r0, r0, r6, asr r0
    1ef4:	00000000 	andeq	r0, r0, r0
    1ef8:	00017000 	andeq	r7, r1, r0
    1efc:	0001ac00 	andeq	sl, r1, r0, lsl #24
    1f00:	54000100 	strpl	r0, [r0], #-256	; 0x100
    1f04:	0000030c 	andeq	r0, r0, ip, lsl #6
    1f08:	00000314 	andeq	r0, r0, r4, lsl r3
    1f0c:	00540001 	subseq	r0, r4, r1
    1f10:	00000000 	andeq	r0, r0, r0
    1f14:	a8000000 	stmdage	r0, {}	; <UNPREDICTABLE>
    1f18:	c4000001 	strgt	r0, [r0], #-1
    1f1c:	01000001 	tsteq	r0, r1
    1f20:	00005800 	andeq	r5, r0, r0, lsl #16
    1f24:	00000000 	andeq	r0, r0, r0
    1f28:	01b00000 	movseq	r0, r0
    1f2c:	01cb0000 	biceq	r0, fp, r0
    1f30:	00010000 	andeq	r0, r1, r0
    1f34:	0001cb52 	andeq	ip, r1, r2, asr fp
    1f38:	0002d000 	andeq	sp, r2, r0
    1f3c:	74000800 	strvc	r0, [r0], #-2048	; 0x800
    1f40:	74253100 	strtvc	r3, [r5], #-256	; 0x100
    1f44:	009f2200 	addseq	r2, pc, r0, lsl #4
    1f48:	00000000 	andeq	r0, r0, r0
    1f4c:	b0000000 	andlt	r0, r0, r0
    1f50:	c4000001 	strgt	r0, [r0], #-1
    1f54:	01000001 	tsteq	r0, r1
    1f58:	00005800 	andeq	r5, r0, r0, lsl #16
    1f5c:	00000000 	andeq	r0, r0, r0
    1f60:	01b40000 			; <UNDEFINED> instruction: 0x01b40000
    1f64:	01b80000 			; <UNDEFINED> instruction: 0x01b80000
    1f68:	00010000 	andeq	r0, r1, r0
    1f6c:	00000053 	andeq	r0, r0, r3, asr r0
    1f70:	00000000 	andeq	r0, r0, r0
    1f74:	0001d000 	andeq	sp, r1, r0
    1f78:	0002d000 	andeq	sp, r2, r0
    1f7c:	54000100 	strpl	r0, [r0], #-256	; 0x100
	...
    1f88:	000001d0 	ldrdeq	r0, [r0], -r0	; <UNPREDICTABLE>
    1f8c:	000001e4 	andeq	r0, r0, r4, ror #3
    1f90:	00580001 	subseq	r0, r8, r1
    1f94:	00000000 	andeq	r0, r0, r0
    1f98:	d4000000 	strle	r0, [r0], #-0
    1f9c:	d8000001 	stmdale	r0, {r0}
    1fa0:	01000001 	tsteq	r0, r1
    1fa4:	00005300 	andeq	r5, r0, r0, lsl #6
    1fa8:	00000000 	andeq	r0, r0, r0
    1fac:	01f40000 	mvnseq	r0, r0
    1fb0:	02d00000 	sbcseq	r0, r0, #0
    1fb4:	00010000 	andeq	r0, r1, r0
    1fb8:	00000054 	andeq	r0, r0, r4, asr r0
    1fbc:	00000000 	andeq	r0, r0, r0
    1fc0:	0001f400 	andeq	pc, r1, r0, lsl #8
    1fc4:	00020800 	andeq	r0, r2, r0, lsl #16
    1fc8:	58000100 	stmdapl	r0, {r8}
	...
    1fd4:	000001f8 	strdeq	r0, [r0], -r8
    1fd8:	000001fc 	strdeq	r0, [r0], -ip
    1fdc:	00530001 	subseq	r0, r3, r1
    1fe0:	00000000 	andeq	r0, r0, r0
    1fe4:	18000000 	stmdane	r0, {}	; <UNPREDICTABLE>
    1fe8:	d0000002 	andle	r0, r0, r2
    1fec:	01000002 	tsteq	r0, r2
    1ff0:	00005400 	andeq	r5, r0, r0, lsl #8
    1ff4:	00000000 	andeq	r0, r0, r0
    1ff8:	02180000 	andseq	r0, r8, #0
    1ffc:	022c0000 	eoreq	r0, ip, #0
    2000:	00010000 	andeq	r0, r1, r0
    2004:	00000058 	andeq	r0, r0, r8, asr r0
    2008:	00000000 	andeq	r0, r0, r0
    200c:	00021c00 	andeq	r1, r2, r0, lsl #24
    2010:	00022000 	andeq	r2, r2, r0
    2014:	53000100 	movwpl	r0, #256	; 0x100
	...
    2020:	0000023c 	andeq	r0, r0, ip, lsr r2
    2024:	000002d0 	ldrdeq	r0, [r0], -r0	; <UNPREDICTABLE>
    2028:	00540001 	subseq	r0, r4, r1
    202c:	00000000 	andeq	r0, r0, r0
    2030:	3c000000 	stccc	0, cr0, [r0], {-0}
    2034:	50000002 	andpl	r0, r0, r2
    2038:	01000002 	tsteq	r0, r2
    203c:	00005800 	andeq	r5, r0, r0, lsl #16
    2040:	00000000 	andeq	r0, r0, r0
    2044:	02400000 	subeq	r0, r0, #0
    2048:	02440000 	subeq	r0, r4, #0
    204c:	00010000 	andeq	r0, r1, r0
    2050:	00000053 	andeq	r0, r0, r3, asr r0
    2054:	00000000 	andeq	r0, r0, r0
    2058:	00026000 	andeq	r6, r2, r0
    205c:	0002d000 	andeq	sp, r2, r0
    2060:	54000100 	strpl	r0, [r0], #-256	; 0x100
	...
    206c:	00000260 	andeq	r0, r0, r0, ror #4
    2070:	00000274 	andeq	r0, r0, r4, ror r2
    2074:	00580001 	subseq	r0, r8, r1
    2078:	00000000 	andeq	r0, r0, r0
    207c:	64000000 	strvs	r0, [r0], #-0
    2080:	68000002 	stmdavs	r0, {r1}
    2084:	01000002 	tsteq	r0, r2
    2088:	00005300 	andeq	r5, r0, r0, lsl #6
    208c:	00000000 	andeq	r0, r0, r0
    2090:	02840000 	addeq	r0, r4, #0
    2094:	02d00000 	sbcseq	r0, r0, #0
    2098:	00010000 	andeq	r0, r1, r0
    209c:	00000054 	andeq	r0, r0, r4, asr r0
    20a0:	00000000 	andeq	r0, r0, r0
    20a4:	00028400 	andeq	r8, r2, r0, lsl #8
    20a8:	00029800 	andeq	r9, r2, r0, lsl #16
    20ac:	58000100 	stmdapl	r0, {r8}
	...
    20b8:	00000288 	andeq	r0, r0, r8, lsl #5
    20bc:	0000028c 	andeq	r0, r0, ip, lsl #5
    20c0:	00530001 	subseq	r0, r3, r1
    20c4:	00000000 	andeq	r0, r0, r0
    20c8:	a8000000 	stmdage	r0, {}	; <UNPREDICTABLE>
    20cc:	d0000002 	andle	r0, r0, r2
    20d0:	01000002 	tsteq	r0, r2
    20d4:	00005400 	andeq	r5, r0, r0, lsl #8
    20d8:	00000000 	andeq	r0, r0, r0
    20dc:	02ac0000 	adceq	r0, ip, #0
    20e0:	02b00000 	adcseq	r0, r0, #0
    20e4:	00010000 	andeq	r0, r1, r0
    20e8:	00000053 	andeq	r0, r0, r3, asr r0
    20ec:	00000000 	andeq	r0, r0, r0
    20f0:	0002c800 	andeq	ip, r2, r0, lsl #16
    20f4:	00030c00 	andeq	r0, r3, r0, lsl #24
    20f8:	30000200 	andcc	r0, r0, r0, lsl #4
    20fc:	0003149f 	muleq	r3, pc, r4	; <UNPREDICTABLE>
    2100:	00031c00 	andeq	r1, r3, r0, lsl #24
    2104:	30000200 	andcc	r0, r0, r0, lsl #4
    2108:	0000009f 	muleq	r0, pc, r0	; <UNPREDICTABLE>
    210c:	00000000 	andeq	r0, r0, r0
    2110:	0002c800 	andeq	ip, r2, r0, lsl #16
    2114:	00030c00 	andeq	r0, r3, r0, lsl #24
    2118:	55000100 	strpl	r0, [r0, #-256]	; 0x100
    211c:	00000314 	andeq	r0, r0, r4, lsl r3
    2120:	0000031c 	andeq	r0, r0, ip, lsl r3
    2124:	00550001 	subseq	r0, r5, r1
    2128:	00000000 	andeq	r0, r0, r0
    212c:	d0000000 	andle	r0, r0, r0
    2130:	0c000002 	stceq	0, cr0, [r0], {2}
    2134:	01000003 	tsteq	r0, r3
    2138:	03145400 	tsteq	r4, #0, 8
    213c:	031c0000 	tsteq	ip, #0
    2140:	00010000 	andeq	r0, r1, r0
    2144:	00000054 	andeq	r0, r0, r4, asr r0
    2148:	00000000 	andeq	r0, r0, r0
    214c:	00031c00 	andeq	r1, r3, r0, lsl #24
    2150:	00033f00 	andeq	r3, r3, r0, lsl #30
    2154:	50000100 	andpl	r0, r0, r0, lsl #2
    2158:	0000033f 	andeq	r0, r0, pc, lsr r3
    215c:	00000360 	andeq	r0, r0, r0, ror #6
    2160:	60580001 	subsvs	r0, r8, r1
    2164:	70000003 	andvc	r0, r0, r3
    2168:	01000003 	tsteq	r0, r3
    216c:	03705000 	cmneq	r0, #0
    2170:	03b00000 	movseq	r0, #0
    2174:	00010000 	andeq	r0, r1, r0
    2178:	0003b058 	andeq	fp, r3, r8, asr r0
    217c:	0003c000 	andeq	ip, r3, r0
    2180:	f3000400 	vshl.u8	d0, d0, d0
    2184:	009f5001 	addseq	r5, pc, r1
    2188:	00000000 	andeq	r0, r0, r0
    218c:	1c000000 	stcne	0, cr0, [r0], {-0}
    2190:	3f000003 	svccc	0x00000003
    2194:	01000003 	tsteq	r0, r3
    2198:	033f5100 	teqeq	pc, #0, 2
    219c:	03600000 	cmneq	r0, #0
    21a0:	00010000 	andeq	r0, r1, r0
    21a4:	00036056 	andeq	r6, r3, r6, asr r0
    21a8:	00037000 	andeq	r7, r3, r0
    21ac:	51000100 	mrspl	r0, (UNDEF: 16)
    21b0:	00000370 	andeq	r0, r0, r0, ror r3
    21b4:	000003b0 			; <UNDEFINED> instruction: 0x000003b0
    21b8:	b0560001 	subslt	r0, r6, r1
    21bc:	c0000003 	andgt	r0, r0, r3
    21c0:	04000003 	streq	r0, [r0], #-3
    21c4:	5101f300 	mrspl	pc, SP_irq	; <UNPREDICTABLE>
    21c8:	0000009f 	muleq	r0, pc, r0	; <UNPREDICTABLE>
    21cc:	00000000 	andeq	r0, r0, r0
    21d0:	00031c00 	andeq	r1, r3, r0, lsl #24
    21d4:	00033f00 	andeq	r3, r3, r0, lsl #30
    21d8:	52000100 	andpl	r0, r0, #0, 2
    21dc:	0000033f 	andeq	r0, r0, pc, lsr r3
    21e0:	00000360 	andeq	r0, r0, r0, ror #6
    21e4:	01f30004 	mvnseq	r0, r4
    21e8:	03609f52 	cmneq	r0, #328	; 0x148
    21ec:	03700000 	cmneq	r0, #0
    21f0:	00010000 	andeq	r0, r1, r0
    21f4:	00037052 	andeq	r7, r3, r2, asr r0
    21f8:	0003b000 	andeq	fp, r3, r0
    21fc:	77000300 	strvc	r0, [r0, -r0, lsl #6]
    2200:	03b09f01 	movseq	r9, #1, 30
    2204:	03c00000 	biceq	r0, r0, #0
    2208:	00040000 	andeq	r0, r4, r0
    220c:	9f5201f3 	svcls	0x005201f3
	...
    2218:	0000031c 	andeq	r0, r0, ip, lsl r3
    221c:	0000033f 	andeq	r0, r0, pc, lsr r3
    2220:	3f530001 	svccc	0x00530001
    2224:	60000003 	andvs	r0, r0, r3
    2228:	04000003 	streq	r0, [r0], #-3
    222c:	5301f300 	movwpl	pc, #4864	; 0x1300	; <UNPREDICTABLE>
    2230:	0003609f 	muleq	r3, pc, r0	; <UNPREDICTABLE>
    2234:	00037000 	andeq	r7, r3, r0
    2238:	53000100 	movwpl	r0, #256	; 0x100
    223c:	00000370 	andeq	r0, r0, r0, ror r3
    2240:	000003c0 	andeq	r0, r0, r0, asr #7
    2244:	01f30004 	mvnseq	r0, r4
    2248:	00009f53 	andeq	r9, r0, r3, asr pc
    224c:	00000000 	andeq	r0, r0, r0
    2250:	03680000 	cmneq	r8, #0
    2254:	03700000 	cmneq	r0, #0
    2258:	00020000 	andeq	r0, r2, r0
    225c:	03709f30 	cmneq	r0, #48, 30	; 0xc0
    2260:	03b00000 	movseq	r0, #0
    2264:	00010000 	andeq	r0, r1, r0
    2268:	0003b054 	andeq	fp, r3, r4, asr r0
    226c:	0003c000 	andeq	ip, r3, r0
    2270:	50000100 	andpl	r0, r0, r0, lsl #2
	...
    227c:	00000380 	andeq	r0, r0, r0, lsl #7
    2280:	00000390 	muleq	r0, r0, r3
    2284:	00500001 	subseq	r0, r0, r1
    2288:	00000000 	andeq	r0, r0, r0
    228c:	c0000000 	andgt	r0, r0, r0
    2290:	df000003 	svcle	0x00000003
    2294:	01000003 	tsteq	r0, r3
    2298:	03df5000 	bicseq	r5, pc, #0
    229c:	04000000 	streq	r0, [r0], #-0
    22a0:	00010000 	andeq	r0, r1, r0
    22a4:	00040057 	andeq	r0, r4, r7, asr r0
    22a8:	00041000 	andeq	r1, r4, r0
    22ac:	50000100 	andpl	r0, r0, r0, lsl #2
    22b0:	00000410 	andeq	r0, r0, r0, lsl r4
    22b4:	00000440 	andeq	r0, r0, r0, asr #8
    22b8:	40570001 	subsmi	r0, r7, r1
    22bc:	50000004 	andpl	r0, r0, r4
    22c0:	04000004 	streq	r0, [r0], #-4
    22c4:	5001f300 	andpl	pc, r1, r0, lsl #6
    22c8:	0000009f 	muleq	r0, pc, r0	; <UNPREDICTABLE>
    22cc:	00000000 	andeq	r0, r0, r0
    22d0:	0003c000 	andeq	ip, r3, r0
    22d4:	0003df00 	andeq	sp, r3, r0, lsl #30
    22d8:	51000100 	mrspl	r0, (UNDEF: 16)
    22dc:	000003df 	ldrdeq	r0, [r0], -pc	; <UNPREDICTABLE>
    22e0:	00000400 	andeq	r0, r0, r0, lsl #8
    22e4:	00550001 	subseq	r0, r5, r1
    22e8:	10000004 	andne	r0, r0, r4
    22ec:	01000004 	tsteq	r0, r4
    22f0:	04105100 	ldreq	r5, [r0], #-256	; 0x100
    22f4:	04400000 	strbeq	r0, [r0], #-0
    22f8:	00010000 	andeq	r0, r1, r0
    22fc:	00044055 	andeq	r4, r4, r5, asr r0
    2300:	00045000 	andeq	r5, r4, r0
    2304:	f3000400 	vshl.u8	d0, d0, d0
    2308:	009f5101 	addseq	r5, pc, r1, lsl #2
    230c:	00000000 	andeq	r0, r0, r0
    2310:	c0000000 	andgt	r0, r0, r0
    2314:	df000003 	svcle	0x00000003
    2318:	01000003 	tsteq	r0, r3
    231c:	03df5200 	bicseq	r5, pc, #0, 4
    2320:	04000000 	streq	r0, [r0], #-0
    2324:	00040000 	andeq	r0, r4, r0
    2328:	9f5201f3 	svcls	0x005201f3
    232c:	00000400 	andeq	r0, r0, r0, lsl #8
    2330:	00000410 	andeq	r0, r0, r0, lsl r4
    2334:	10520001 	subsne	r0, r2, r1
    2338:	40000004 	andmi	r0, r0, r4
    233c:	03000004 	movweq	r0, #4
    2340:	9f017600 	svcls	0x00017600
    2344:	00000440 	andeq	r0, r0, r0, asr #8
    2348:	00000450 	andeq	r0, r0, r0, asr r4
    234c:	01f30004 	mvnseq	r0, r4
    2350:	00009f52 	andeq	r9, r0, r2, asr pc
    2354:	00000000 	andeq	r0, r0, r0
    2358:	03c00000 	biceq	r0, r0, #0
    235c:	03df0000 	bicseq	r0, pc, #0
    2360:	00010000 	andeq	r0, r1, r0
    2364:	0003df53 	andeq	sp, r3, r3, asr pc
    2368:	00040000 	andeq	r0, r4, r0
    236c:	58000100 	stmdapl	r0, {r8}
    2370:	00000400 	andeq	r0, r0, r0, lsl #8
    2374:	00000410 	andeq	r0, r0, r0, lsl r4
    2378:	10530001 	subsne	r0, r3, r1
    237c:	40000004 	andmi	r0, r0, r4
    2380:	01000004 	tsteq	r0, r4
    2384:	04405800 	strbeq	r5, [r0], #-2048	; 0x800
    2388:	04500000 	ldrbeq	r0, [r0], #-0
    238c:	00040000 	andeq	r0, r4, r0
    2390:	9f5301f3 	svcls	0x005301f3
	...
    239c:	00000408 	andeq	r0, r0, r8, lsl #8
    23a0:	00000410 	andeq	r0, r0, r0, lsl r4
    23a4:	9f300002 	svcls	0x00300002
    23a8:	00000410 	andeq	r0, r0, r0, lsl r4
    23ac:	00000440 	andeq	r0, r0, r0, asr #8
    23b0:	40540001 	subsmi	r0, r4, r1
    23b4:	50000004 	andpl	r0, r0, r4
    23b8:	01000004 	tsteq	r0, r4
    23bc:	00005000 	andeq	r5, r0, r0
    23c0:	00000000 	andeq	r0, r0, r0
    23c4:	04500000 	ldrbeq	r0, [r0], #-0
    23c8:	04730000 	ldrbteq	r0, [r3], #-0
    23cc:	00010000 	andeq	r0, r1, r0
    23d0:	00047351 	andeq	r7, r4, r1, asr r3
    23d4:	00052400 	andeq	r2, r5, r0, lsl #8
    23d8:	f3000400 	vshl.u8	d0, d0, d0
    23dc:	009f5101 	addseq	r5, pc, r1, lsl #2
    23e0:	00000000 	andeq	r0, r0, r0
    23e4:	50000000 	andpl	r0, r0, r0
    23e8:	73000004 	movwvc	r0, #4
    23ec:	01000004 	tsteq	r0, r4
    23f0:	04735200 	ldrbteq	r5, [r3], #-512	; 0x200
    23f4:	05240000 	streq	r0, [r4, #-0]!
    23f8:	00040000 	andeq	r0, r4, r0
    23fc:	9f5201f3 	svcls	0x005201f3
	...
    2408:	00000450 	andeq	r0, r0, r0, asr r4
    240c:	00000473 	andeq	r0, r0, r3, ror r4
    2410:	73530001 	cmpvc	r3, #1
    2414:	10000004 	andne	r0, r0, r4
    2418:	01000005 	tsteq	r0, r5
    241c:	05105500 	ldreq	r5, [r0, #-1280]	; 0x500
    2420:	05240000 	streq	r0, [r4, #-0]!
    2424:	00020000 	andeq	r0, r2, r0
    2428:	00000470 	andeq	r0, r0, r0, ror r4
    242c:	00000000 	andeq	r0, r0, r0
    2430:	04940000 	ldreq	r0, [r4], #0
    2434:	04d30000 	ldrbeq	r0, [r3], #0
    2438:	00010000 	andeq	r0, r1, r0
    243c:	0004d352 	andeq	sp, r4, r2, asr r3
    2440:	0004f400 	andeq	pc, r4, r0, lsl #8
    2444:	75000600 	strvc	r0, [r0, #-1536]	; 0x600
    2448:	1e007700 	cdpne	7, 0, cr7, cr0, cr0, {0}
    244c:	0004f49f 	muleq	r4, pc, r4	; <UNPREDICTABLE>
    2450:	00052400 	andeq	r2, r5, r0, lsl #8
    2454:	52000100 	andpl	r0, r0, #0, 2
	...
    2460:	00000524 	andeq	r0, r0, r4, lsr #10
    2464:	0000052f 	andeq	r0, r0, pc, lsr #10
    2468:	2f500001 	svccs	0x00500001
    246c:	60000005 	andvs	r0, r0, r5
    2470:	04000005 	streq	r0, [r0], #-5
    2474:	5001f300 	andpl	pc, r1, r0, lsl #6
    2478:	0000009f 	muleq	r0, pc, r0	; <UNPREDICTABLE>
    247c:	00000000 	andeq	r0, r0, r0
    2480:	00053000 	andeq	r3, r5, r0
    2484:	00053b00 	andeq	r3, r5, r0, lsl #22
    2488:	50000100 	andpl	r0, r0, r0, lsl #2
	...
    2494:	00000560 	andeq	r0, r0, r0, ror #10
    2498:	00000570 	andeq	r0, r0, r0, ror r5
    249c:	70500001 	subsvc	r0, r0, r1
    24a0:	8c000005 	stchi	0, cr0, [r0], {5}
    24a4:	01000005 	tsteq	r0, r5
    24a8:	00005500 	andeq	r5, r0, r0, lsl #10
    24ac:	00000000 	andeq	r0, r0, r0
    24b0:	05600000 	strbeq	r0, [r0, #-0]!
    24b4:	05700000 	ldrbeq	r0, [r0, #-0]!
    24b8:	00010000 	andeq	r0, r1, r0
    24bc:	00057051 	andeq	r7, r5, r1, asr r0
    24c0:	00058c00 	andeq	r8, r5, r0, lsl #24
    24c4:	54000100 	strpl	r0, [r0], #-256	; 0x100
	...
    24d0:	0000058c 	andeq	r0, r0, ip, lsl #11
    24d4:	000005a8 	andeq	r0, r0, r8, lsr #11
    24d8:	a8500001 	ldmdage	r0, {r0}^
    24dc:	00000005 	andeq	r0, r0, r5
    24e0:	01000006 	tsteq	r0, r6
    24e4:	06005500 	streq	r5, [r0], -r0, lsl #10
    24e8:	061c0000 	ldreq	r0, [ip], -r0
    24ec:	00040000 	andeq	r0, r4, r0
    24f0:	9f5001f3 	svcls	0x005001f3
	...
    24fc:	000005b8 			; <UNDEFINED> instruction: 0x000005b8
    2500:	000005c7 	andeq	r0, r0, r7, asr #11
    2504:	c7500001 	ldrbgt	r0, [r0, -r1]
    2508:	e8000005 	stmda	r0, {r0, r2}
    250c:	01000005 	tsteq	r0, r5
    2510:	05e85400 	strbeq	r5, [r8, #1024]!	; 0x400
    2514:	05ec0000 	strbeq	r0, [ip, #0]!
    2518:	00010000 	andeq	r0, r1, r0
    251c:	0005ec50 	andeq	lr, r5, r0, asr ip
    2520:	00060000 	andeq	r0, r6, r0
    2524:	54000100 	strpl	r0, [r0], #-256	; 0x100
    2528:	00000600 	andeq	r0, r0, r0, lsl #12
    252c:	0000061c 	andeq	r0, r0, ip, lsl r6
    2530:	00500001 	subseq	r0, r0, r1
    2534:	00000000 	andeq	r0, r0, r0
    2538:	1c000000 	stcne	0, cr0, [r0], {-0}
    253c:	2f000006 	svccs	0x00000006
    2540:	01000006 	tsteq	r0, r6
    2544:	062f5000 	strteq	r5, [pc], -r0
    2548:	06680000 	strbteq	r0, [r8], -r0
    254c:	00040000 	andeq	r0, r4, r0
    2550:	9f5001f3 	svcls	0x005001f3
	...
    255c:	0000061c 	andeq	r0, r0, ip, lsl r6
    2560:	0000062f 	andeq	r0, r0, pc, lsr #12
    2564:	2f510001 	svccs	0x00510001
    2568:	68000006 	stmdavs	r0, {r1, r2}
    256c:	04000006 	streq	r0, [r0], #-6
    2570:	5101f300 	mrspl	pc, SP_irq	; <UNPREDICTABLE>
    2574:	0000009f 	muleq	r0, pc, r0	; <UNPREDICTABLE>
    2578:	00000000 	andeq	r0, r0, r0
    257c:	00061c00 	andeq	r1, r6, r0, lsl #24
    2580:	00062f00 	andeq	r2, r6, r0, lsl #30
    2584:	52000100 	andpl	r0, r0, #0, 2
    2588:	0000062f 	andeq	r0, r0, pc, lsr #12
    258c:	00000668 	andeq	r0, r0, r8, ror #12
    2590:	01f30004 	mvnseq	r0, r4
    2594:	00009f52 	andeq	r9, r0, r2, asr pc
    2598:	00000000 	andeq	r0, r0, r0
    259c:	061c0000 	ldreq	r0, [ip], -r0
    25a0:	062f0000 	strteq	r0, [pc], -r0
    25a4:	00010000 	andeq	r0, r1, r0
    25a8:	00062f53 	andeq	r2, r6, r3, asr pc
    25ac:	00066800 	andeq	r6, r6, r0, lsl #16
    25b0:	f3000400 	vshl.u8	d0, d0, d0
    25b4:	009f5301 	addseq	r5, pc, r1, lsl #6
    25b8:	00000000 	andeq	r0, r0, r0
    25bc:	30000000 	andcc	r0, r0, r0
    25c0:	3b000006 	blcc	25e0 <_start-0x5a20>
    25c4:	01000006 	tsteq	r0, r6
    25c8:	06545000 	ldrbeq	r5, [r4], -r0
    25cc:	06680000 	strbteq	r0, [r8], -r0
    25d0:	00010000 	andeq	r0, r1, r0
    25d4:	00000050 	andeq	r0, r0, r0, asr r0
    25d8:	00000000 	andeq	r0, r0, r0
    25dc:	0000fc00 	andeq	pc, r0, r0, lsl #24
    25e0:	00010400 	andeq	r0, r1, r0, lsl #8
    25e4:	50000100 	andpl	r0, r0, r0, lsl #2
    25e8:	00000104 	andeq	r0, r0, r4, lsl #2
    25ec:	00000128 	andeq	r0, r0, r8, lsr #2
    25f0:	00540001 	subseq	r0, r4, r1
	...
    25fc:	04000000 	streq	r0, [r0], #-0
    2600:	01000000 	mrseq	r0, (UNDEF: 0)
    2604:	00045200 	andeq	r5, r4, r0, lsl #4
    2608:	00200000 	eoreq	r0, r0, r0
    260c:	00040000 	andeq	r0, r4, r0
    2610:	9f5201f3 	svcls	0x005201f3
	...
    2620:	0000000c 	andeq	r0, r0, ip
    2624:	0c500001 	mrrceq	0, 0, r0, r0, cr1	; <UNPREDICTABLE>
    2628:	14000000 	strne	r0, [r0], #-0
    262c:	03000000 	movweq	r0, #0
    2630:	9f017300 	svcls	0x00017300
    2634:	00000014 	andeq	r0, r0, r4, lsl r0
    2638:	00000020 	andeq	r0, r0, r0, lsr #32
    263c:	00530001 	subseq	r0, r3, r1
    2640:	00000000 	andeq	r0, r0, r0
    2644:	Address 0x0000000000002644 is out of bounds.


Disassembly of section .debug_aranges:

00000000 <.debug_aranges>:
   0:	0000001c 	andeq	r0, r0, ip, lsl r0
   4:	00000002 	andeq	r0, r0, r2
   8:	00040000 	andeq	r0, r4, r0
   c:	00000000 	andeq	r0, r0, r0
  10:	00008010 	andeq	r8, r0, r0, lsl r0
  14:	000005a8 	andeq	r0, r0, r8, lsr #11
	...
  20:	0000001c 	andeq	r0, r0, ip, lsl r0
  24:	07230002 	streq	r0, [r3, -r2]!
  28:	00040000 	andeq	r0, r4, r0
  2c:	00000000 	andeq	r0, r0, r0
  30:	000085b8 			; <UNDEFINED> instruction: 0x000085b8
  34:	00000058 	andeq	r0, r0, r8, asr r0
	...
  40:	0000001c 	andeq	r0, r0, ip, lsl r0
  44:	08b80002 	ldmeq	r8!, {r1}
  48:	00040000 	andeq	r0, r4, r0
  4c:	00000000 	andeq	r0, r0, r0
  50:	00008610 	andeq	r8, r0, r0, lsl r6
  54:	0000003c 	andeq	r0, r0, ip, lsr r0
	...
  60:	0000001c 	andeq	r0, r0, ip, lsl r0
  64:	09cf0002 	stmibeq	pc, {r1}^	; <UNPREDICTABLE>
  68:	00040000 	andeq	r0, r4, r0
  6c:	00000000 	andeq	r0, r0, r0
  70:	0000864c 	andeq	r8, r0, ip, asr #12
  74:	00000034 	andeq	r0, r0, r4, lsr r0
	...
  80:	0000001c 	andeq	r0, r0, ip, lsl r0
  84:	0ac10002 	beq	ff040094 <__bss_end__+0xff035cfc>
  88:	00040000 	andeq	r0, r4, r0
  8c:	00000000 	andeq	r0, r0, r0
  90:	00008680 	andeq	r8, r0, r0, lsl #13
  94:	00000524 	andeq	r0, r0, r4, lsr #10
	...
  a0:	0000001c 	andeq	r0, r0, ip, lsl r0
  a4:	11660002 	cmnne	r6, r2
  a8:	00040000 	andeq	r0, r4, r0
  ac:	00000000 	andeq	r0, r0, r0
  b0:	00008ba4 	andeq	r8, r0, r4, lsr #23
  b4:	00000020 	andeq	r0, r0, r0, lsr #32
	...
  c0:	0000001c 	andeq	r0, r0, ip, lsl r0
  c4:	12220002 	eorne	r0, r2, #2
  c8:	00040000 	andeq	r0, r4, r0
  cc:	00000000 	andeq	r0, r0, r0
  d0:	00008bc4 	andeq	r8, r0, r4, asr #23
  d4:	00000028 	andeq	r0, r0, r8, lsr #32
	...
  e0:	0000001c 	andeq	r0, r0, ip, lsl r0
  e4:	13250002 	teqne	r5, #2
  e8:	00040000 	andeq	r0, r4, r0
  ec:	00000000 	andeq	r0, r0, r0
  f0:	00008bec 	andeq	r8, r0, ip, ror #23
  f4:	000000b0 	strheq	r0, [r0], -r0	; <UNPREDICTABLE>
	...
 100:	0000001c 	andeq	r0, r0, ip, lsl r0
 104:	16060002 	strne	r0, [r6], -r2
 108:	00040000 	andeq	r0, r4, r0
 10c:	00000000 	andeq	r0, r0, r0
 110:	00008c9c 	muleq	r0, ip, ip
 114:	00000074 	andeq	r0, r0, r4, ror r0
	...
 120:	0000001c 	andeq	r0, r0, ip, lsl r0
 124:	17b70002 	ldrne	r0, [r7, r2]!
 128:	00040000 	andeq	r0, r4, r0
 12c:	00000000 	andeq	r0, r0, r0
 130:	00008d10 	andeq	r8, r0, r0, lsl sp
 134:	00000088 	andeq	r0, r0, r8, lsl #1
	...
 140:	0000001c 	andeq	r0, r0, ip, lsl r0
 144:	19930002 	ldmibne	r3, {r1}
 148:	00040000 	andeq	r0, r4, r0
 14c:	00000000 	andeq	r0, r0, r0
 150:	00008d98 	muleq	r0, r8, sp
 154:	000005a0 	andeq	r0, r0, r0, lsr #11
	...
 160:	0000001c 	andeq	r0, r0, ip, lsl r0
 164:	22190002 	andscs	r0, r9, #2
 168:	00040000 	andeq	r0, r4, r0
 16c:	00000000 	andeq	r0, r0, r0
 170:	00009338 	andeq	r9, r0, r8, lsr r3
 174:	00000668 	andeq	r0, r0, r8, ror #12
	...
 180:	0000001c 	andeq	r0, r0, ip, lsl r0
 184:	340f0002 	strcc	r0, [pc], #-2	; 18c <_start-0x7e74>
 188:	00040000 	andeq	r0, r4, r0
 18c:	00000000 	andeq	r0, r0, r0
 190:	000099a0 	andeq	r9, r0, r0, lsr #19
 194:	00000154 	andeq	r0, r0, r4, asr r1
	...
 1a0:	0000001c 	andeq	r0, r0, ip, lsl r0
 1a4:	38120002 	ldmdacc	r2, {r1}
 1a8:	00040000 	andeq	r0, r4, r0
 1ac:	00000000 	andeq	r0, r0, r0
 1b0:	00009b58 	andeq	r9, r0, r8, asr fp
 1b4:	00000050 	andeq	r0, r0, r0, asr r0
	...
 1c0:	0000001c 	andeq	r0, r0, ip, lsl r0
 1c4:	39d90002 	ldmibcc	r9, {r1}^
 1c8:	00040000 	andeq	r0, r4, r0
 1cc:	00000000 	andeq	r0, r0, r0
 1d0:	00009ba8 	andeq	r9, r0, r8, lsr #23
 1d4:	00000020 	andeq	r0, r0, r0, lsr #32
	...

Disassembly of section .debug_ranges:

00000000 <.debug_ranges>:
   0:	00000054 	andeq	r0, r0, r4, asr r0
   4:	00000058 	andeq	r0, r0, r8, asr r0
   8:	0000005c 	andeq	r0, r0, ip, asr r0
   c:	00000060 	andeq	r0, r0, r0, rrx
	...
  18:	00000078 	andeq	r0, r0, r8, ror r0
  1c:	0000007c 	andeq	r0, r0, ip, ror r0
  20:	00000084 	andeq	r0, r0, r4, lsl #1
  24:	000000b8 	strheq	r0, [r0], -r8
	...
  30:	000000b8 	strheq	r0, [r0], -r8
  34:	00000110 	andeq	r0, r0, r0, lsl r1
  38:	000004a0 	andeq	r0, r0, r0, lsr #9
  3c:	000004c8 	andeq	r0, r0, r8, asr #9
	...
  48:	00000110 	andeq	r0, r0, r0, lsl r1
  4c:	000003e0 	andeq	r0, r0, r0, ror #7
  50:	00000444 	andeq	r0, r0, r4, asr #8
  54:	0000047c 	andeq	r0, r0, ip, ror r4
	...
  60:	00000408 	andeq	r0, r0, r8, lsl #8
  64:	0000041c 	andeq	r0, r0, ip, lsl r4
  68:	00000420 	andeq	r0, r0, r0, lsr #8
  6c:	00000424 	andeq	r0, r0, r4, lsr #8
	...
  78:	000004cc 	andeq	r0, r0, ip, asr #9
  7c:	000004d0 	ldrdeq	r0, [r0], -r0	; <UNPREDICTABLE>
  80:	000004dc 	ldrdeq	r0, [r0], -ip
  84:	000004e8 	andeq	r0, r0, r8, ror #9
  88:	000004f0 	strdeq	r0, [r0], -r0	; <UNPREDICTABLE>
  8c:	0000054c 	andeq	r0, r0, ip, asr #10
	...
  98:	000002b4 			; <UNDEFINED> instruction: 0x000002b4
  9c:	000002b8 			; <UNDEFINED> instruction: 0x000002b8
  a0:	000002e8 	andeq	r0, r0, r8, ror #5
  a4:	000004e0 	andeq	r0, r0, r0, ror #9
	...
  b0:	00008c9c 	muleq	r0, ip, ip
  b4:	00008d10 	andeq	r8, r0, r0, lsl sp
	...

Disassembly of section .debug_line:

00000000 <.debug_line>:
       0:	000001ec 	andeq	r0, r0, ip, ror #3
       4:	00c40002 	sbceq	r0, r4, r2
       8:	01020000 	mrseq	r0, (UNDEF: 2)
       c:	000d0efb 	strdeq	r0, [sp], -fp
      10:	01010101 	tsteq	r1, r1, lsl #2
      14:	01000000 	mrseq	r0, (UNDEF: 0)
      18:	2f010000 	svccs	0x00010000
      1c:	72657355 	rsbvc	r7, r5, #1409286145	; 0x54000001
      20:	72622f73 	rsbvc	r2, r2, #460	; 0x1cc
      24:	6a6e6169 	bvs	1b985d0 <__bss_end__+0x1b8e238>
      28:	442f6e75 	strtmi	r6, [pc], #-3701	; 30 <_start-0x7fd0>
      2c:	746b7365 	strbtvc	r7, [fp], #-869	; 0x365
      30:	732f706f 	teqvc	pc, #111	; 0x6f
      34:	6f6f6863 	svcvs	0x006f6863
      38:	69572f6c 	ldmdbvs	r7, {r2, r3, r5, r6, r8, r9, sl, fp, sp}^
      3c:	7265746e 	rsbvc	r7, r5, #1845493760	; 0x6e000000
      40:	30323931 	eorscc	r3, r2, r1, lsr r9
      44:	3153432f 	cmpcc	r3, pc, lsr #6
      48:	2f453034 	svccs	0x00453034
      4c:	34317363 	ldrtcc	r7, [r1], #-867	; 0x363
      50:	322d6530 	eorcc	r6, sp, #48, 10	; 0xc000000
      54:	6e697730 	mcrvs	7, 3, r7, cr9, cr0, {1}
      58:	62696c2f 	rsbvs	r6, r9, #12032	; 0x2f00
      5c:	2f006970 	svccs	0x00006970
      60:	72657355 	rsbvc	r7, r5, #1409286145	; 0x54000001
      64:	72622f73 	rsbvc	r2, r2, #460	; 0x1cc
      68:	6a6e6169 	bvs	1b98614 <__bss_end__+0x1b8e27c>
      6c:	442f6e75 	strtmi	r6, [pc], #-3701	; 74 <_start-0x7f8c>
      70:	746b7365 	strbtvc	r7, [fp], #-869	; 0x365
      74:	732f706f 	teqvc	pc, #111	; 0x6f
      78:	6f6f6863 	svcvs	0x006f6863
      7c:	69572f6c 	ldmdbvs	r7, {r2, r3, r5, r6, r8, r9, sl, fp, sp}^
      80:	7265746e 	rsbvc	r7, r5, #1845493760	; 0x6e000000
      84:	30323931 	eorscc	r3, r2, r1, lsr r9
      88:	3153432f 	cmpcc	r3, pc, lsr #6
      8c:	2f453034 	svccs	0x00453034
      90:	34317363 	ldrtcc	r7, [r1], #-867	; 0x363
      94:	322d6530 	eorcc	r6, sp, #48, 10	; 0xc000000
      98:	6e697730 	mcrvs	7, 3, r7, cr9, cr0, {1}
      9c:	62696c2f 	rsbvs	r6, r9, #12032	; 0x2f00
      a0:	632f6970 	teqvs	pc, #112, 18	; 0x1c0000
      a4:	30343173 	eorscc	r3, r4, r3, ror r1
      a8:	72732d65 	rsbsvc	r2, r3, #6464	; 0x1940
      ac:	73000063 	movwvc	r0, #99	; 0x63
      b0:	65706f63 	ldrbvs	r6, [r0, #-3939]!	; 0xf63
      b4:	0000632e 	andeq	r6, r0, lr, lsr #6
      b8:	70720000 	rsbsvc	r0, r2, r0
      bc:	00682e69 	rsbeq	r2, r8, r9, ror #28
      c0:	67000001 	strvs	r0, [r0, -r1]
      c4:	2e6f6970 	mcrcs	9, 3, r6, cr15, cr0, {3}
      c8:	00020068 	andeq	r0, r2, r8, rrx
      cc:	05000000 	streq	r0, [r0, #-0]
      d0:	00801002 	addeq	r1, r0, r2
      d4:	01250300 	teqeq	r5, r0, lsl #6
      d8:	2f2f2d13 	svccs	0x002f2d13
      dc:	0030672f 	eorseq	r6, r0, pc, lsr #14
      e0:	45010402 	strmi	r0, [r1, #-1026]	; 0x402
      e4:	3c080d03 	stccc	13, cr0, [r8], {3}
      e8:	032e6e03 	teqeq	lr, #3, 28	; 0x30
      ec:	6e032e12 	mcrvs	14, 0, r2, cr3, cr2, {0}
      f0:	2e12032e 	cdpcs	3, 1, cr0, cr2, cr14, {1}
      f4:	01040200 	mrseq	r0, R12_usr
      f8:	672e0a03 	strvs	r0, [lr, -r3, lsl #20]!
      fc:	034a1403 	movteq	r1, #41987	; 0xa403
     100:	1e032e62 	cdpne	14, 0, cr2, cr3, cr2, {3}
     104:	2f2d4c4a 	svccs	0x002d4c4a
     108:	4c4b2f2d 	mcrrmi	15, 2, r2, fp, cr13
     10c:	002e7a03 	eoreq	r7, lr, r3, lsl #20
     110:	03010402 	movweq	r0, #5122	; 0x1402
     114:	ba064a0a 	blt	192944 <__bss_end__+0x1885ac>
     118:	322d3006 	eorcc	r3, sp, #6
     11c:	31473329 	cmpcc	r7, r9, lsr #6
     120:	0c032b2c 	stceq	11, cr2, [r3], {44}	; 0x2c
     124:	9d4b65ba 	cfstr64ls	mvdx6, [fp, #-744]	; 0xfffffd18
     128:	9d4b4967 	stclls	9, cr4, [fp, #-412]	; 0xfffffe64
     12c:	9d4b4967 	stclls	9, cr4, [fp, #-412]	; 0xfffffe64
     130:	9d4b4967 	stclls	9, cr4, [fp, #-412]	; 0xfffffe64
     134:	02040200 	andeq	r0, r4, #0, 4
     138:	04020067 	streq	r0, [r2], #-103	; 0x67
     13c:	02004902 	andeq	r4, r0, #32768	; 0x8000
     140:	004b0204 	subeq	r0, fp, r4, lsl #4
     144:	48020402 	stmdami	r2, {r1, sl}
     148:	02040200 	andeq	r0, r4, #0, 4
     14c:	04020030 	streq	r0, [r2], #-48	; 0x30
     150:	02004902 	andeq	r4, r0, #32768	; 0x8000
     154:	064b0204 	strbeq	r0, [fp], -r4, lsl #4
     158:	2ff1062e 	svccs	0x00f1062e
     15c:	2f2f2d2d 	svccs	0x002f2d2d
     160:	4b9d302c 	blmi	fe74c218 <__bss_end__+0xfe741e80>
     164:	2c2f2f2c 	stccs	15, cr2, [pc], #-176	; bc <_start-0x7f44>
     168:	2c4b9d30 	mcrrcs	13, 3, r9, fp, cr0
     16c:	302c2f2f 	eorcc	r2, ip, pc, lsr #30
     170:	2f2c4b9d 	svccs	0x002c4b9d
     174:	9d302c2f 	ldcls	12, cr2, [r0, #-188]!	; 0xffffff44
     178:	2f2f2c4b 	svccs	0x002f2c4b
     17c:	4b9d302c 	blmi	fe74c234 <__bss_end__+0xfe741e9c>
     180:	2c2f2f2c 	stccs	15, cr2, [pc], #-176	; d8 <_start-0x7f28>
     184:	2c4b9d30 	mcrrcs	13, 3, r9, fp, cr0
     188:	302c2f2f 	eorcc	r2, ip, pc, lsr #30
     18c:	2f2c4b9d 	svccs	0x002c4b9d
     190:	9d302c2f 	ldcls	12, cr2, [r0, #-188]!	; 0xffffff44
     194:	2f2f2c4b 	svccs	0x002f2c4b
     198:	2f65302c 	svccs	0x0065302c
     19c:	67314b2d 	ldrvs	r4, [r1, -sp, lsr #22]!
     1a0:	02006767 	andeq	r6, r0, #27000832	; 0x19c0000
     1a4:	00330204 	eorseq	r0, r3, r4, lsl #4
     1a8:	99020402 	stmdbls	r2, {r1, sl}
     1ac:	02040200 	andeq	r0, r4, #0, 4
     1b0:	04020033 	streq	r0, [r2], #-51	; 0x33
     1b4:	4c6d2902 	stclmi	9, cr2, [sp], #-8
     1b8:	30666f03 	rsbcc	r6, r6, r3, lsl #30
     1bc:	30483048 	subcc	r3, r8, r8, asr #32
     1c0:	67853048 	strvs	r3, [r5, r8, asr #32]
     1c4:	666f0367 	strbtvs	r0, [pc], -r7, ror #6
     1c8:	3c081f03 	stccc	15, cr1, [r8], {3}
     1cc:	4d2e2b31 	fstmdbxmi	lr!, {d2-d25}	;@ Deprecated
     1d0:	4c834c64 	stcmi	12, cr4, [r3], {100}	; 0x64
     1d4:	2e7a0335 	mrccs	3, 3, r0, cr10, cr5, {1}
     1d8:	322c6731 	eorcc	r6, ip, #12845056	; 0xc40000
     1dc:	03ba7603 			; <UNDEFINED> instruction: 0x03ba7603
     1e0:	4c68660c 	stclmi	6, cr6, [r8], #-48	; 0xffffffd0
     1e4:	d94f4b2f 	stmdble	pc, {r0, r1, r2, r3, r5, r8, r9, fp, lr}^	; <UNPREDICTABLE>
     1e8:	024b312b 	subeq	r3, fp, #-1073741814	; 0xc000000a
     1ec:	01010004 	tsteq	r1, r4
     1f0:	00000102 	andeq	r0, r0, r2, lsl #2
     1f4:	00eb0002 	rsceq	r0, fp, r2
     1f8:	01020000 	mrseq	r0, (UNDEF: 2)
     1fc:	000d0efb 	strdeq	r0, [sp], -fp
     200:	01010101 	tsteq	r1, r1, lsl #2
     204:	01000000 	mrseq	r0, (UNDEF: 0)
     208:	6c010000 	stcvs	0, cr0, [r1], {-0}
     20c:	00636269 	rsbeq	r6, r3, r9, ror #4
     210:	7273752f 	rsbsvc	r7, r3, #197132288	; 0xbc00000
     214:	636f6c2f 	cmnvs	pc, #12032	; 0x2f00
     218:	432f6c61 	teqmi	pc, #24832	; 0x6100
     21c:	616c6c65 	cmnvs	ip, r5, ror #24
     220:	72612f72 	rsbvc	r2, r1, #456	; 0x1c8
     224:	6f6e2d6d 	svcvs	0x006e2d6d
     228:	652d656e 	strvs	r6, [sp, #-1390]!	; 0x56e
     22c:	2f696261 	svccs	0x00696261
     230:	2e382e34 	mrccs	14, 1, r2, cr8, cr4, {1}
     234:	73632d33 	cmnvc	r3, #3264	; 0xcc0
     238:	65303731 	ldrvs	r3, [r0, #-1841]!	; 0x731
     23c:	62696c2f 	rsbvs	r6, r9, #12032	; 0x2f00
     240:	6363672f 	cmnvs	r3, #12320768	; 0xbc0000
     244:	6d72612f 	ldfvse	f6, [r2, #-188]!	; 0xffffff44
     248:	6e6f6e2d 	cdpvs	14, 6, cr6, cr15, cr13, {1}
     24c:	61652d65 	cmnvs	r5, r5, ror #26
     250:	342f6962 	strtcc	r6, [pc], #-2402	; 258 <_start-0x7da8>
     254:	332e382e 	teqcc	lr, #3014656	; 0x2e0000
     258:	636e692f 	cmnvs	lr, #770048	; 0xbc000
     25c:	6564756c 	strbvs	r7, [r4, #-1388]!	; 0x56c
     260:	73552f00 	cmpvc	r5, #0, 30
     264:	2f737265 	svccs	0x00737265
     268:	61697262 	cmnvs	r9, r2, ror #4
     26c:	6e756a6e 	vsubvs.f32	s13, s10, s29
     270:	7365442f 	cmnvc	r5, #788529152	; 0x2f000000
     274:	706f746b 	rsbvc	r7, pc, fp, ror #8
     278:	6863732f 	stmdavs	r3!, {r0, r1, r2, r3, r5, r8, r9, ip, sp, lr}^
     27c:	2f6c6f6f 	svccs	0x006c6f6f
     280:	746e6957 	strbtvc	r6, [lr], #-2391	; 0x957
     284:	39317265 	ldmdbcc	r1!, {r0, r2, r5, r6, r9, ip, sp, lr}
     288:	432f3032 	teqmi	pc, #50	; 0x32
     28c:	30343153 	eorscc	r3, r4, r3, asr r1
     290:	73632f45 	cmnvc	r3, #276	; 0x114
     294:	65303431 	ldrvs	r3, [r0, #-1073]!	; 0x431
     298:	7730322d 	ldrvc	r3, [r0, -sp, lsr #4]!
     29c:	6c2f6e69 	stcvs	14, cr6, [pc], #-420	; 100 <_start-0x7f00>
     2a0:	69706269 	ldmdbvs	r0!, {r0, r3, r5, r6, r9, sp, lr}^
     2a4:	72700000 	rsbsvc	r0, r0, #0
     2a8:	6b746e69 	blvs	1d1bc54 <__bss_end__+0x1d118bc>
     2ac:	0100632e 	tsteq	r0, lr, lsr #6
     2b0:	74730000 	ldrbtvc	r0, [r3], #-0
     2b4:	67726164 	ldrbvs	r6, [r2, -r4, ror #2]!
     2b8:	0200682e 	andeq	r6, r0, #3014656	; 0x2e0000
     2bc:	623c0000 	eorsvs	r0, ip, #0
     2c0:	746c6975 	strbtvc	r6, [ip], #-2421	; 0x975
     2c4:	3e6e692d 	cdpcc	9, 6, cr6, cr14, cr13, {1}
     2c8:	00000000 	andeq	r0, r0, r0
     2cc:	2e697072 	mcrcs	0, 3, r7, cr9, cr2, {3}
     2d0:	00030068 	andeq	r0, r3, r8, rrx
     2d4:	2d617600 	stclcs	6, cr7, [r1, #-0]
     2d8:	6e697270 	mcrvs	2, 3, r7, cr9, cr0, {3}
     2dc:	682e6b74 	stmdavs	lr!, {r2, r4, r5, r6, r8, r9, fp, sp, lr}
     2e0:	00000100 	andeq	r0, r0, r0, lsl #2
     2e4:	02050000 	andeq	r0, r5, #0
     2e8:	000085b8 			; <UNDEFINED> instruction: 0x000085b8
     2ec:	bf4b6b17 	svclt	0x004b6b17
     2f0:	000e0289 	andeq	r0, lr, r9, lsl #5
     2f4:	008a0101 	addeq	r0, sl, r1, lsl #2
     2f8:	00020000 	andeq	r0, r2, r0
     2fc:	00000072 	andeq	r0, r0, r2, ror r0
     300:	0efb0102 	cdpeq	1, 15, cr0, cr11, cr2, {0}
     304:	0101000d 	tsteq	r1, sp
     308:	00000101 	andeq	r0, r0, r1, lsl #2
     30c:	00000100 	andeq	r0, r0, r0, lsl #2
     310:	62696c01 	rsbvs	r6, r9, #256	; 0x100
     314:	552f0063 	strpl	r0, [pc, #-99]!	; 2b9 <_start-0x7d47>
     318:	73726573 	cmnvc	r2, #482344960	; 0x1cc00000
     31c:	6972622f 	ldmdbvs	r2!, {r0, r1, r2, r3, r5, r9, sp, lr}^
     320:	756a6e61 	strbvc	r6, [sl, #-3681]!	; 0xe61
     324:	65442f6e 	strbvs	r2, [r4, #-3950]	; 0xf6e
     328:	6f746b73 	svcvs	0x00746b73
     32c:	63732f70 	cmnvs	r3, #112, 30	; 0x1c0
     330:	6c6f6f68 	stclvs	15, cr6, [pc], #-416	; 198 <_start-0x7e68>
     334:	6e69572f 	cdpvs	7, 6, cr5, cr9, cr15, {1}
     338:	31726574 	cmncc	r2, r4, ror r5
     33c:	2f303239 	svccs	0x00303239
     340:	34315343 	ldrtcc	r5, [r1], #-835	; 0x343
     344:	632f4530 	teqvs	pc, #48, 10	; 0xc000000
     348:	30343173 	eorscc	r3, r4, r3, ror r1
     34c:	30322d65 	eorscc	r2, r2, r5, ror #26
     350:	2f6e6977 	svccs	0x006e6977
     354:	7062696c 	rsbvc	r6, r2, ip, ror #18
     358:	70000069 	andvc	r0, r0, r9, rrx
     35c:	68637475 	stmdavs	r3!, {r0, r2, r4, r5, r6, sl, ip, sp, lr}^
     360:	632e7261 	teqvs	lr, #268435462	; 0x10000006
     364:	00000100 	andeq	r0, r0, r0, lsl #2
     368:	2e697072 	mcrcs	0, 3, r7, cr9, cr2, {3}
     36c:	00020068 	andeq	r0, r2, r8, rrx
     370:	05000000 	streq	r0, [r0, #-0]
     374:	00861002 	addeq	r1, r6, r2
     378:	6b4a1400 	blvs	1285380 <__bss_end__+0x127afe8>
     37c:	0213bc13 	andseq	fp, r3, #4864	; 0x1300
     380:	01010008 	tsteq	r1, r8
     384:	00000096 	muleq	r0, r6, r0
     388:	006f0002 	rsbeq	r0, pc, r2
     38c:	01020000 	mrseq	r0, (UNDEF: 2)
     390:	000d0efb 	strdeq	r0, [sp], -fp
     394:	01010101 	tsteq	r1, r1, lsl #2
     398:	01000000 	mrseq	r0, (UNDEF: 0)
     39c:	6c010000 	stcvs	0, cr0, [r1], {-0}
     3a0:	00636269 	rsbeq	r6, r3, r9, ror #4
     3a4:	6573552f 	ldrbvs	r5, [r3, #-1327]!	; 0x52f
     3a8:	622f7372 	eorvs	r7, pc, #-939524095	; 0xc8000001
     3ac:	6e616972 	mcrvs	9, 3, r6, cr1, cr2, {3}
     3b0:	2f6e756a 	svccs	0x006e756a
     3b4:	6b736544 	blvs	1cd98cc <__bss_end__+0x1ccf534>
     3b8:	2f706f74 	svccs	0x00706f74
     3bc:	6f686373 	svcvs	0x00686373
     3c0:	572f6c6f 	strpl	r6, [pc, -pc, ror #24]!
     3c4:	65746e69 	ldrbvs	r6, [r4, #-3689]!	; 0xe69
     3c8:	32393172 	eorscc	r3, r9, #-2147483620	; 0x8000001c
     3cc:	53432f30 	movtpl	r2, #16176	; 0x3f30
     3d0:	45303431 	ldrmi	r3, [r0, #-1073]!	; 0x431
     3d4:	3173632f 	cmncc	r3, pc, lsr #6
     3d8:	2d653034 	stclcs	0, cr3, [r5, #-208]!	; 0xffffff30
     3dc:	69773032 	ldmdbvs	r7!, {r1, r4, r5, ip, sp}^
     3e0:	696c2f6e 	stmdbvs	ip!, {r1, r2, r3, r5, r6, r8, r9, sl, fp, sp}^
     3e4:	00697062 	rsbeq	r7, r9, r2, rrx
     3e8:	74757000 	ldrbtvc	r7, [r5], #-0
     3ec:	00632e6b 	rsbeq	r2, r3, fp, ror #28
     3f0:	72000001 	andvc	r0, r0, #1
     3f4:	682e6970 	stmdavs	lr!, {r4, r5, r6, r8, fp, sp, lr}
     3f8:	00000200 	andeq	r0, r0, r0, lsl #4
     3fc:	02050000 	andeq	r0, r5, #0
     400:	0000864c 	andeq	r8, r0, ip, asr #12
     404:	002d4c15 	eoreq	r4, sp, r5, lsl ip
     408:	2f020402 	svccs	0x00020402
     40c:	02040200 	andeq	r0, r4, #0, 4
     410:	04020049 	streq	r0, [r2], #-73	; 0x49
     414:	062e0601 	strteq	r0, [lr], -r1, lsl #12
     418:	0006026b 	andeq	r0, r6, fp, ror #4
     41c:	01e20101 	mvneq	r0, r1, lsl #2
     420:	00020000 	andeq	r0, r2, r0
     424:	000000df 	ldrdeq	r0, [r0], -pc	; <UNPREDICTABLE>
     428:	0efb0102 	cdpeq	1, 15, cr0, cr11, cr2, {0}
     42c:	0101000d 	tsteq	r1, sp
     430:	00000101 	andeq	r0, r0, r1, lsl #2
     434:	00000100 	andeq	r0, r0, r0, lsl #2
     438:	62696c01 	rsbvs	r6, r9, #256	; 0x100
     43c:	752f0063 	strvc	r0, [pc, #-99]!	; 3e1 <_start-0x7c1f>
     440:	6c2f7273 	sfmvs	f7, 4, [pc], #-460	; 27c <_start-0x7d84>
     444:	6c61636f 	stclvs	3, cr6, [r1], #-444	; 0xfffffe44
     448:	6c65432f 	stclvs	3, cr4, [r5], #-188	; 0xffffff44
     44c:	2f72616c 	svccs	0x0072616c
     450:	2d6d7261 	sfmcs	f7, 2, [sp, #-388]!	; 0xfffffe7c
     454:	656e6f6e 	strbvs	r6, [lr, #-3950]!	; 0xf6e
     458:	6261652d 	rsbvs	r6, r1, #188743680	; 0xb400000
     45c:	2e342f69 	cdpcs	15, 3, cr2, cr4, cr9, {3}
     460:	2d332e38 	ldccs	14, cr2, [r3, #-224]!	; 0xffffff20
     464:	37317363 	ldrcc	r7, [r1, -r3, ror #6]!
     468:	6c2f6530 	cfstr32vs	mvfx6, [pc], #-192	; 3b0 <_start-0x7c50>
     46c:	672f6269 	strvs	r6, [pc, -r9, ror #4]!
     470:	612f6363 	teqvs	pc, r3, ror #6
     474:	6e2d6d72 	mcrvs	13, 1, r6, cr13, cr2, {3}
     478:	2d656e6f 	stclcs	14, cr6, [r5, #-444]!	; 0xfffffe44
     47c:	69626165 	stmdbvs	r2!, {r0, r2, r5, r6, r8, sp, lr}^
     480:	382e342f 	stmdacc	lr!, {r0, r1, r2, r3, r5, sl, ip, sp}
     484:	692f332e 	stmdbvs	pc!, {r1, r2, r3, r5, r8, r9, ip, sp}	; <UNPREDICTABLE>
     488:	756c636e 	strbvc	r6, [ip, #-878]!	; 0x36e
     48c:	2f006564 	svccs	0x00006564
     490:	72657355 	rsbvc	r7, r5, #1409286145	; 0x54000001
     494:	72622f73 	rsbvc	r2, r2, #460	; 0x1cc
     498:	6a6e6169 	bvs	1b98a44 <__bss_end__+0x1b8e6ac>
     49c:	442f6e75 	strtmi	r6, [pc], #-3701	; 4a4 <_start-0x7b5c>
     4a0:	746b7365 	strbtvc	r7, [fp], #-869	; 0x365
     4a4:	732f706f 	teqvc	pc, #111	; 0x6f
     4a8:	6f6f6863 	svcvs	0x006f6863
     4ac:	69572f6c 	ldmdbvs	r7, {r2, r3, r5, r6, r8, r9, sl, fp, sp}^
     4b0:	7265746e 	rsbvc	r7, r5, #1845493760	; 0x6e000000
     4b4:	30323931 	eorscc	r3, r2, r1, lsr r9
     4b8:	3153432f 	cmpcc	r3, pc, lsr #6
     4bc:	2f453034 	svccs	0x00453034
     4c0:	34317363 	ldrtcc	r7, [r1], #-867	; 0x363
     4c4:	322d6530 	eorcc	r6, sp, #48, 10	; 0xc000000
     4c8:	6e697730 	mcrvs	7, 3, r7, cr9, cr0, {1}
     4cc:	62696c2f 	rsbvs	r6, r9, #12032	; 0x2f00
     4d0:	00006970 	andeq	r6, r0, r0, ror r9
     4d4:	702d6176 	eorvc	r6, sp, r6, ror r1
     4d8:	746e6972 	strbtvc	r6, [lr], #-2418	; 0x972
     4dc:	00632e6b 	rsbeq	r2, r3, fp, ror #28
     4e0:	73000001 	movwvc	r0, #1
     4e4:	72616474 	rsbvc	r6, r1, #116, 8	; 0x74000000
     4e8:	00682e67 	rsbeq	r2, r8, r7, ror #28
     4ec:	72000002 	andvc	r0, r0, #2
     4f0:	682e6970 	stmdavs	lr!, {r4, r5, r6, r8, fp, sp, lr}
     4f4:	00000300 	andeq	r0, r0, r0, lsl #6
     4f8:	6975623c 	ldmdbvs	r5!, {r2, r3, r4, r5, r9, sp, lr}^
     4fc:	692d746c 	pushvs	{r2, r3, r5, r6, sl, ip, sp, lr}
     500:	00003e6e 	andeq	r3, r0, lr, ror #28
     504:	00000000 	andeq	r0, r0, r0
     508:	86800205 	strhi	r0, [r0], r5, lsl #4
     50c:	26030000 	strcs	r0, [r3], -r0
     510:	13a50101 			; <UNDEFINED> instruction: 0x13a50101
     514:	02002d31 	andeq	r2, r0, #3136	; 0xc40
     518:	002f0204 	eoreq	r0, pc, r4, lsl #4
     51c:	2d020402 	cfstrscs	mvf0, [r2, #-8]
     520:	02040200 	andeq	r0, r4, #0, 4
     524:	0402002f 	streq	r0, [r2], #-47	; 0x2f
     528:	4c4c2d01 	mcrrmi	13, 0, r2, ip, cr1
     52c:	2f4b1430 	svccs	0x004b1430
     530:	0402004f 	streq	r0, [r2], #-79	; 0x4f
     534:	02006702 	andeq	r6, r0, #524288	; 0x80000
     538:	4c650104 	stfmie	f0, [r5], #-16
     53c:	2fa0304d 	svccs	0x00a0304d
     540:	26023031 			; <UNDEFINED> instruction: 0x26023031
     544:	2c2d8416 	cfstrscs	mvf8, [sp], #-88	; 0xffffffa8
     548:	01040200 	mrseq	r0, R12_usr
     54c:	04020030 	streq	r0, [r2], #-48	; 0x30
     550:	66063301 	strvs	r3, [r6], -r1, lsl #6
     554:	01040200 	mrseq	r0, R12_usr
     558:	0402002e 	streq	r0, [r2], #-46	; 0x2e
     55c:	21080601 	tstcs	r8, r1, lsl #12
     560:	73032f67 	movwvc	r2, #16231	; 0x3f67
     564:	2e130382 	cdpcs	3, 1, cr0, cr3, cr2, {4}
     568:	01040200 	mrseq	r0, R12_usr
     56c:	02002e06 	andeq	r2, r0, #6, 28	; 0x60
     570:	9f060104 	svcls	0x00060104
     574:	67034b6a 	strvs	r4, [r3, -sl, ror #22]
     578:	2e21032e 	cdpcs	3, 2, cr0, cr1, cr14, {1}
     57c:	01040200 	mrseq	r0, R12_usr
     580:	02002e06 	andeq	r2, r0, #6, 28	; 0x60
     584:	9f060104 	svcls	0x00060104
     588:	01040200 	mrseq	r0, R12_usr
     58c:	f323086a 	vsub.i32	q0, <illegal reg q1.5>, q13
     590:	087fa603 	ldmdaeq	pc!, {r0, r1, r9, sl, sp, pc}^	; <UNPREDICTABLE>
     594:	02004b3c 	andeq	r4, r0, #60, 22	; 0xf000
     598:	4a060104 	bmi	1809b0 <__bss_end__+0x176618>
     59c:	4b210806 	blmi	8425bc <__bss_end__+0x838224>
     5a0:	d9034b2f 	stmdble	r3, {r0, r1, r2, r3, r5, r8, r9, fp, lr}
     5a4:	4c83f200 	sfmmi	f7, 1, [r3], {0}
     5a8:	2e0e0348 	cdpcs	3, 0, cr0, cr14, cr8, {2}
     5ac:	2f2e7503 	svccs	0x002e7503
     5b0:	2f4b842f 	svccs	0x004b842f
     5b4:	30314d2d 	eorscc	r4, r1, sp, lsr #26
     5b8:	0200832f 	andeq	r8, r0, #-1140850688	; 0xbc000000
     5bc:	a22c0104 	eorge	r0, ip, #4, 2
     5c0:	01040200 	mrseq	r0, R12_usr
     5c4:	08064a06 	stmdaeq	r6, {r1, r2, r9, fp, lr}
     5c8:	16360222 	ldrtne	r0, [r6], -r2, lsr #4
     5cc:	08d60e03 	ldmeq	r6, {r0, r1, r9, sl, fp}^
     5d0:	31f33021 	mvnscc	r3, r1, lsr #32
     5d4:	30f330f3 	ldrshtcc	r3, [r3], #3
     5d8:	30f3304b 	rscscc	r3, r3, fp, asr #32
     5dc:	2f312308 	svccs	0x00312308
     5e0:	01040200 	mrseq	r0, R12_usr
     5e4:	04020065 	streq	r0, [r2], #-101	; 0x65
     5e8:	004a0602 	subeq	r0, sl, r2, lsl #12
     5ec:	06010402 	streq	r0, [r1], -r2, lsl #8
     5f0:	00664203 	rsbeq	r4, r6, r3, lsl #4
     5f4:	06020402 	streq	r0, [r2], -r2, lsl #8
     5f8:	c2030666 	andgt	r0, r3, #106954752	; 0x6600000
     5fc:	02684a00 	rsbeq	r4, r8, #0, 20
     600:	01010012 	tsteq	r1, r2, lsl r0
     604:	00000043 	andeq	r0, r0, r3, asr #32
     608:	00290002 	eoreq	r0, r9, r2
     60c:	01020000 	mrseq	r0, (UNDEF: 2)
     610:	000d0efb 	strdeq	r0, [sp], -fp
     614:	01010101 	tsteq	r1, r1, lsl #2
     618:	01000000 	mrseq	r0, (UNDEF: 0)
     61c:	63010000 	movwvs	r0, #4096	; 0x1000
     620:	30343173 	eorscc	r3, r4, r3, ror r1
     624:	72732d65 	rsbsvc	r2, r3, #6464	; 0x1940
     628:	63000063 	movwvs	r0, #99	; 0x63
     62c:	65686361 	strbvs	r6, [r8, #-865]!	; 0x361
     630:	0100632e 	tsteq	r0, lr, lsr #6
     634:	00000000 	andeq	r0, r0, r0
     638:	8ba40205 	blhi	fe900e54 <__bss_end__+0xfe8f6abc>
     63c:	14140000 	ldrne	r0, [r4], #-0
     640:	144e2f30 	strbne	r2, [lr], #-3888	; 0xf30
     644:	04022f31 	streq	r2, [r2], #-3889	; 0xf31
     648:	93010100 	movwls	r0, #4352	; 0x1100
     64c:	02000000 	andeq	r0, r0, #0
     650:	00007d00 	andeq	r7, r0, r0, lsl #26
     654:	fb010200 	blx	40e5e <__bss_end__+0x36ac6>
     658:	01000d0e 	tsteq	r0, lr, lsl #26
     65c:	00010101 	andeq	r0, r1, r1, lsl #2
     660:	00010000 	andeq	r0, r1, r0
     664:	73630100 	cmnvc	r3, #0, 2
     668:	65303431 	ldrvs	r3, [r0, #-1073]!	; 0x431
     66c:	6372732d 	cmnvs	r2, #-1275068416	; 0xb4000000
     670:	73552f00 	cmpvc	r5, #0, 30
     674:	2f737265 	svccs	0x00737265
     678:	61697262 	cmnvs	r9, r2, ror #4
     67c:	6e756a6e 	vsubvs.f32	s13, s10, s29
     680:	7365442f 	cmnvc	r5, #788529152	; 0x2f000000
     684:	706f746b 	rsbvc	r7, pc, fp, ror #8
     688:	6863732f 	stmdavs	r3!, {r0, r1, r2, r3, r5, r8, r9, ip, sp, lr}^
     68c:	2f6c6f6f 	svccs	0x006c6f6f
     690:	746e6957 	strbtvc	r6, [lr], #-2391	; 0x957
     694:	39317265 	ldmdbcc	r1!, {r0, r2, r5, r6, r9, ip, sp, lr}
     698:	432f3032 	teqmi	pc, #50	; 0x32
     69c:	30343153 	eorscc	r3, r4, r3, asr r1
     6a0:	73632f45 	cmnvc	r3, #276	; 0x114
     6a4:	65303431 	ldrvs	r3, [r0, #-1073]!	; 0x431
     6a8:	7730322d 	ldrvc	r3, [r0, -sp, lsr #4]!
     6ac:	6c2f6e69 	stcvs	14, cr6, [pc], #-420	; 510 <_start-0x7af0>
     6b0:	69706269 	ldmdbvs	r0!, {r0, r3, r5, r6, r9, sp, lr}^
     6b4:	6c630000 	stclvs	0, cr0, [r3], #-0
     6b8:	2d6e6165 	stfcse	f6, [lr, #-404]!	; 0xfffffe6c
     6bc:	6f626572 	svcvs	0x00626572
     6c0:	632e746f 	teqvs	lr, #1862270976	; 0x6f000000
     6c4:	00000100 	andeq	r0, r0, r0, lsl #2
     6c8:	2e697072 	mcrcs	0, 3, r7, cr9, cr2, {3}
     6cc:	00020068 	andeq	r0, r2, r8, rrx
     6d0:	05000000 	streq	r0, [r0, #-0]
     6d4:	008bc402 	addeq	ip, fp, r2, lsl #8
     6d8:	832f1500 	teqhi	pc, #0, 10
     6dc:	0006024b 	andeq	r0, r6, fp, asr #4
     6e0:	01210101 	teqeq	r1, r1, lsl #2
     6e4:	00020000 	andeq	r0, r2, r0
     6e8:	000000f8 	strdeq	r0, [r0], -r8
     6ec:	0efb0102 	cdpeq	1, 15, cr0, cr11, cr2, {0}
     6f0:	0101000d 	tsteq	r1, sp
     6f4:	00000101 	andeq	r0, r0, r1, lsl #2
     6f8:	00000100 	andeq	r0, r0, r0, lsl #2
     6fc:	31736301 	cmncc	r3, r1, lsl #6
     700:	2d653034 	stclcs	0, cr3, [r5, #-208]!	; 0xffffff30
     704:	00637273 	rsbeq	r7, r3, r3, ror r2
     708:	7273752f 	rsbsvc	r7, r3, #197132288	; 0xbc00000
     70c:	636f6c2f 	cmnvs	pc, #12032	; 0x2f00
     710:	432f6c61 	teqmi	pc, #24832	; 0x6100
     714:	616c6c65 	cmnvs	ip, r5, ror #24
     718:	72612f72 	rsbvc	r2, r1, #456	; 0x1c8
     71c:	6f6e2d6d 	svcvs	0x006e2d6d
     720:	652d656e 	strvs	r6, [sp, #-1390]!	; 0x56e
     724:	2f696261 	svccs	0x00696261
     728:	2e382e34 	mrccs	14, 1, r2, cr8, cr4, {1}
     72c:	73632d33 	cmnvc	r3, #3264	; 0xcc0
     730:	65303731 	ldrvs	r3, [r0, #-1841]!	; 0x731
     734:	62696c2f 	rsbvs	r6, r9, #12032	; 0x2f00
     738:	6363672f 	cmnvs	r3, #12320768	; 0xbc0000
     73c:	6d72612f 	ldfvse	f6, [r2, #-188]!	; 0xffffff44
     740:	6e6f6e2d 	cdpvs	14, 6, cr6, cr15, cr13, {1}
     744:	61652d65 	cmnvs	r5, r5, ror #26
     748:	342f6962 	strtcc	r6, [pc], #-2402	; 750 <_start-0x78b0>
     74c:	332e382e 	teqcc	lr, #3014656	; 0x2e0000
     750:	636e692f 	cmnvs	lr, #770048	; 0xbc000
     754:	6564756c 	strbvs	r7, [r4, #-1388]!	; 0x56c
     758:	73552f00 	cmpvc	r5, #0, 30
     75c:	2f737265 	svccs	0x00737265
     760:	61697262 	cmnvs	r9, r2, ror #4
     764:	6e756a6e 	vsubvs.f32	s13, s10, s29
     768:	7365442f 	cmnvc	r5, #788529152	; 0x2f000000
     76c:	706f746b 	rsbvc	r7, pc, fp, ror #8
     770:	6863732f 	stmdavs	r3!, {r0, r1, r2, r3, r5, r8, r9, ip, sp, lr}^
     774:	2f6c6f6f 	svccs	0x006c6f6f
     778:	746e6957 	strbtvc	r6, [lr], #-2391	; 0x957
     77c:	39317265 	ldmdbcc	r1!, {r0, r2, r5, r6, r9, ip, sp, lr}
     780:	432f3032 	teqmi	pc, #50	; 0x32
     784:	30343153 	eorscc	r3, r4, r3, asr r1
     788:	73632f45 	cmnvc	r3, #276	; 0x114
     78c:	65303431 	ldrvs	r3, [r0, #-1073]!	; 0x431
     790:	7730322d 	ldrvc	r3, [r0, -sp, lsr #4]!
     794:	6c2f6e69 	stcvs	14, cr6, [pc], #-420	; 5f8 <_start-0x7a08>
     798:	69706269 	ldmdbvs	r0!, {r0, r3, r5, r6, r9, sp, lr}^
     79c:	73630000 	cmnvc	r3, #0
     7a0:	74726174 	ldrbtvc	r6, [r2], #-372	; 0x174
     7a4:	0100632e 	tsteq	r0, lr, lsr #6
     7a8:	74730000 	ldrbtvc	r0, [r3], #-0
     7ac:	746e6964 	strbtvc	r6, [lr], #-2404	; 0x964
     7b0:	6363672d 	cmnvs	r3, #11796480	; 0xb40000
     7b4:	0200682e 	andeq	r6, r0, #3014656	; 0x2e0000
     7b8:	77730000 	ldrbvc	r0, [r3, -r0]!
     7bc:	7261752d 	rsbvc	r7, r1, #188743680	; 0xb400000
     7c0:	00682e74 	rsbeq	r2, r8, r4, ror lr
     7c4:	63000001 	movwvs	r0, #1
     7c8:	72746e6f 	rsbsvc	r6, r4, #1776	; 0x6f0
     7cc:	622d6c6f 	eorvs	r6, sp, #28416	; 0x6f00
     7d0:	6b636f6c 	blvs	18dc588 <__bss_end__+0x18d21f0>
     7d4:	0100682e 	tsteq	r0, lr, lsr #16
     7d8:	70720000 	rsbsvc	r0, r2, r0
     7dc:	00682e69 	rsbeq	r2, r8, r9, ror #28
     7e0:	00000003 	andeq	r0, r0, r3
     7e4:	ec020500 	cfstr32	mvfx0, [r2], {-0}
     7e8:	1700008b 	strne	r0, [r0, -fp, lsl #1]
     7ec:	3268684b 	rsbcc	r6, r8, #4915200	; 0x4b0000
     7f0:	2f2d2f31 	svccs	0x002d2f31
     7f4:	01040200 	mrseq	r0, R12_usr
     7f8:	4b2f4f49 	blmi	bd4524 <__bss_end__+0xbca18c>
     7fc:	67836767 	strvs	r6, [r3, r7, ror #14]
     800:	10022f4e 	andne	r2, r2, lr, asr #30
     804:	99010100 	stmdbls	r1, {r8}
     808:	02000000 	andeq	r0, r0, #0
     80c:	00007700 	andeq	r7, r0, r0, lsl #14
     810:	fb010200 	blx	4101a <__bss_end__+0x36c82>
     814:	01000d0e 	tsteq	r0, lr, lsl #26
     818:	00010101 	andeq	r0, r1, r1, lsl #2
     81c:	00010000 	andeq	r0, r1, r0
     820:	73630100 	cmnvc	r3, #0, 2
     824:	65303431 	ldrvs	r3, [r0, #-1073]!	; 0x431
     828:	6372732d 	cmnvs	r2, #-1275068416	; 0xb4000000
     82c:	73552f00 	cmpvc	r5, #0, 30
     830:	2f737265 	svccs	0x00737265
     834:	61697262 	cmnvs	r9, r2, ror #4
     838:	6e756a6e 	vsubvs.f32	s13, s10, s29
     83c:	7365442f 	cmnvc	r5, #788529152	; 0x2f000000
     840:	706f746b 	rsbvc	r7, pc, fp, ror #8
     844:	6863732f 	stmdavs	r3!, {r0, r1, r2, r3, r5, r8, r9, ip, sp, lr}^
     848:	2f6c6f6f 	svccs	0x006c6f6f
     84c:	746e6957 	strbtvc	r6, [lr], #-2391	; 0x957
     850:	39317265 	ldmdbcc	r1!, {r0, r2, r5, r6, r9, ip, sp, lr}
     854:	432f3032 	teqmi	pc, #50	; 0x32
     858:	30343153 	eorscc	r3, r4, r3, asr r1
     85c:	73632f45 	cmnvc	r3, #276	; 0x114
     860:	65303431 	ldrvs	r3, [r0, #-1073]!	; 0x431
     864:	7730322d 	ldrvc	r3, [r0, -sp, lsr #4]!
     868:	6c2f6e69 	stcvs	14, cr6, [pc], #-420	; 6cc <_start-0x7934>
     86c:	69706269 	ldmdbvs	r0!, {r0, r3, r5, r6, r9, sp, lr}^
     870:	65720000 	ldrbvs	r0, [r2, #-0]!
     874:	746f6f62 	strbtvc	r6, [pc], #-3938	; 87c <_start-0x7784>
     878:	0100632e 	tsteq	r0, lr, lsr #6
     87c:	70720000 	rsbsvc	r0, r2, r0
     880:	00682e69 	rsbeq	r2, r8, r9, ror #28
     884:	00000002 	andeq	r0, r0, r2
     888:	9c020500 	cfstr32ls	mvfx0, [r2], {-0}
     88c:	0300008c 	movweq	r0, #140	; 0x8c
     890:	3114010d 	tstcc	r4, sp, lsl #2
     894:	2f15852f 	svccs	0x0015852f
     898:	672f4d4b 	strvs	r4, [pc, -fp, asr #26]!
     89c:	02675235 	rsbeq	r5, r7, #1342177283	; 0x50000003
     8a0:	01010010 	tsteq	r1, r0, lsl r0
     8a4:	000000a3 	andeq	r0, r0, r3, lsr #1
     8a8:	00760002 	rsbseq	r0, r6, r2
     8ac:	01020000 	mrseq	r0, (UNDEF: 2)
     8b0:	000d0efb 	strdeq	r0, [sp], -fp
     8b4:	01010101 	tsteq	r1, r1, lsl #2
     8b8:	01000000 	mrseq	r0, (UNDEF: 0)
     8bc:	63010000 	movwvs	r0, #4096	; 0x1000
     8c0:	30343173 	eorscc	r3, r4, r3, ror r1
     8c4:	72732d65 	rsbsvc	r2, r3, #6464	; 0x1940
     8c8:	552f0063 	strpl	r0, [pc, #-99]!	; 86d <_start-0x7793>
     8cc:	73726573 	cmnvc	r2, #482344960	; 0x1cc00000
     8d0:	6972622f 	ldmdbvs	r2!, {r0, r1, r2, r3, r5, r9, sp, lr}^
     8d4:	756a6e61 	strbvc	r6, [sl, #-3681]!	; 0xe61
     8d8:	65442f6e 	strbvs	r2, [r4, #-3950]	; 0xf6e
     8dc:	6f746b73 	svcvs	0x00746b73
     8e0:	63732f70 	cmnvs	r3, #112, 30	; 0x1c0
     8e4:	6c6f6f68 	stclvs	15, cr6, [pc], #-416	; 74c <_start-0x78b4>
     8e8:	6e69572f 	cdpvs	7, 6, cr5, cr9, cr15, {1}
     8ec:	31726574 	cmncc	r2, r4, ror r5
     8f0:	2f303239 	svccs	0x00303239
     8f4:	34315343 	ldrtcc	r5, [r1], #-835	; 0x343
     8f8:	632f4530 	teqvs	pc, #48, 10	; 0xc000000
     8fc:	30343173 	eorscc	r3, r4, r3, ror r1
     900:	30322d65 	eorscc	r2, r2, r5, ror #26
     904:	2f6e6977 	svccs	0x006e6977
     908:	7062696c 	rsbvc	r6, r2, ip, ror #18
     90c:	74000069 	strvc	r0, [r0], #-105	; 0x69
     910:	72656d69 	rsbvc	r6, r5, #6720	; 0x1a40
     914:	0100632e 	tsteq	r0, lr, lsr #6
     918:	70720000 	rsbsvc	r0, r2, r0
     91c:	00682e69 	rsbeq	r2, r8, r9, ror #28
     920:	00000002 	andeq	r0, r0, r2
     924:	10020500 	andne	r0, r2, r0, lsl #10
     928:	1600008d 	strne	r0, [r0], -sp, lsl #1
     92c:	002d2f13 	eoreq	r2, sp, r3, lsl pc
     930:	06010402 	streq	r0, [r1], -r2, lsl #8
     934:	3168062e 	cmncc	r8, lr, lsr #12
     938:	324d4b2f 	subcc	r4, sp, #48128	; 0xbc00
     93c:	4c4b3031 	mcrrmi	0, 3, r3, fp, cr1
     940:	2f2f6a2f 	svccs	0x002f6a2f
     944:	08022f84 	stmdaeq	r2, {r2, r7, r8, r9, sl, fp, sp}
     948:	7f010100 	svcvc	0x00010100
     94c:	02000001 	andeq	r0, r0, #1
     950:	0000ca00 	andeq	ip, r0, r0, lsl #20
     954:	fb010200 	blx	4115e <__bss_end__+0x36dc6>
     958:	01000d0e 	tsteq	r0, lr, lsl #26
     95c:	00010101 	andeq	r0, r1, r1, lsl #2
     960:	00010000 	andeq	r0, r1, r0
     964:	796d0100 	stmdbvc	sp!, {r8}^
     968:	6372732d 	cmnvs	r2, #-1275068416	; 0xb4000000
     96c:	73552f00 	cmpvc	r5, #0, 30
     970:	2f737265 	svccs	0x00737265
     974:	61697262 	cmnvs	r9, r2, ror #4
     978:	6e756a6e 	vsubvs.f32	s13, s10, s29
     97c:	7365442f 	cmnvc	r5, #788529152	; 0x2f000000
     980:	706f746b 	rsbvc	r7, pc, fp, ror #8
     984:	6863732f 	stmdavs	r3!, {r0, r1, r2, r3, r5, r8, r9, ip, sp, lr}^
     988:	2f6c6f6f 	svccs	0x006c6f6f
     98c:	746e6957 	strbtvc	r6, [lr], #-2391	; 0x957
     990:	39317265 	ldmdbcc	r1!, {r0, r2, r5, r6, r9, ip, sp, lr}
     994:	432f3032 	teqmi	pc, #50	; 0x32
     998:	30343153 	eorscc	r3, r4, r3, asr r1
     99c:	73632f45 	cmnvc	r3, #276	; 0x114
     9a0:	65303431 	ldrvs	r3, [r0, #-1073]!	; 0x431
     9a4:	7730322d 	ldrvc	r3, [r0, -sp, lsr #4]!
     9a8:	6c2f6e69 	stcvs	14, cr6, [pc], #-420	; 80c <_start-0x77f4>
     9ac:	69706269 	ldmdbvs	r0!, {r0, r3, r5, r6, r9, sp, lr}^
     9b0:	3173632f 	cmncc	r3, pc, lsr #6
     9b4:	2d653034 	stclcs	0, cr3, [r5, #-208]!	; 0xffffff30
     9b8:	00637273 	rsbeq	r7, r3, r3, ror r2
     9bc:	6573552f 	ldrbvs	r5, [r3, #-1327]!	; 0x52f
     9c0:	622f7372 	eorvs	r7, pc, #-939524095	; 0xc8000001
     9c4:	6e616972 	mcrvs	9, 3, r6, cr1, cr2, {3}
     9c8:	2f6e756a 	svccs	0x006e756a
     9cc:	6b736544 	blvs	1cd9ee4 <__bss_end__+0x1ccfb4c>
     9d0:	2f706f74 	svccs	0x00706f74
     9d4:	6f686373 	svcvs	0x00686373
     9d8:	572f6c6f 	strpl	r6, [pc, -pc, ror #24]!
     9dc:	65746e69 	ldrbvs	r6, [r4, #-3689]!	; 0xe69
     9e0:	32393172 	eorscc	r3, r9, #-2147483620	; 0x8000001c
     9e4:	53432f30 	movtpl	r2, #16176	; 0x3f30
     9e8:	45303431 	ldrmi	r3, [r0, #-1073]!	; 0x431
     9ec:	3173632f 	cmncc	r3, pc, lsr #6
     9f0:	2d653034 	stclcs	0, cr3, [r5, #-208]!	; 0xffffff30
     9f4:	69773032 	ldmdbvs	r7!, {r1, r4, r5, ip, sp}^
     9f8:	696c2f6e 	stmdbvs	ip!, {r1, r2, r3, r5, r6, r8, r9, sl, fp, sp}^
     9fc:	00697062 	rsbeq	r7, r9, r2, rrx
     a00:	69706700 	ldmdbvs	r0!, {r8, r9, sl, sp, lr}^
     a04:	00632e6f 	rsbeq	r2, r3, pc, ror #28
     a08:	67000001 	strvs	r0, [r0, -r1]
     a0c:	2e6f6970 	mcrcs	9, 3, r6, cr15, cr0, {3}
     a10:	00020068 	andeq	r0, r2, r8, rrx
     a14:	69707200 	ldmdbvs	r0!, {r9, ip, sp, lr}^
     a18:	0300682e 	movweq	r6, #2094	; 0x82e
     a1c:	00000000 	andeq	r0, r0, r0
     a20:	8d980205 	lfmhi	f0, 4, [r8, #20]
     a24:	3e030000 	cdpcc	0, 0, cr0, cr3, cr0, {0}
     a28:	69504e01 	ldmdbvs	r0, {r0, r9, sl, fp, lr}^
     a2c:	67672108 	strbvs	r2, [r7, -r8, lsl #2]!
     a30:	67676767 	strbvs	r6, [r7, -r7, ror #14]!
     a34:	22084b32 	andcs	r4, r8, #51200	; 0xc800
     a38:	135131dc 	cmpne	r1, #220, 2	; 0x37
     a3c:	be30504e 	cdplt	0, 3, cr5, cr0, cr14, {2}
     a40:	4d135031 	ldcmi	0, cr5, [r3, #-196]	; 0xffffff3c
     a44:	4cc0304f 	stclmi	0, cr3, [r0], {79}	; 0x4f
     a48:	21086950 	tstcs	r8, r0, asr r9
     a4c:	67676767 	strbvs	r6, [r7, -r7, ror #14]!
     a50:	4b326767 	blmi	c9a7f4 <__bss_end__+0xc9045c>
     a54:	4ca42108 	stfmis	f2, [r4], #32
     a58:	69842f50 	stmibvs	r4, {r4, r6, r8, r9, sl, fp, sp}
     a5c:	03827503 	orreq	r7, r2, #12582912	; 0xc00000
     a60:	304d2e0c 	subcc	r2, sp, ip, lsl #28
     a64:	4d4c4b4e 	vstrmi	d20, [ip, #-312]	; 0xfffffec8
     a68:	08696b6a 	stmdaeq	r9!, {r1, r3, r5, r6, r8, r9, fp, sp, lr}^
     a6c:	67676721 	strbvs	r6, [r7, -r1, lsr #14]!
     a70:	32676767 	rsbcc	r6, r7, #27000832	; 0x19c0000
     a74:	c022084b 	eorgt	r0, r2, fp, asr #16
     a78:	4e135130 	mrcmi	1, 0, r5, cr3, cr0, {1}
     a7c:	18033050 	stmdane	r3, {r4, r6, ip, sp}
     a80:	4c9f31ba 	ldfmis	f3, [pc], {186}	; 0xba
     a84:	4e4d522f 	cdpmi	2, 4, cr5, cr13, cr15, {1}
     a88:	4b674b2f 	blmi	19d374c <__bss_end__+0x19c93b4>
     a8c:	4c676768 	stclmi	7, cr6, [r7], #-416	; 0xfffffe60
     a90:	4b2f672f 	blmi	bda754 <__bss_end__+0xbd03bc>
     a94:	2f4e4c6e 	svccs	0x004e4c6e
     a98:	684b674b 	stmdavs	fp, {r0, r1, r3, r6, r8, r9, sl, sp, lr}^
     a9c:	2f4c6767 	svccs	0x004c6767
     aa0:	6d4b2f67 	stclvs	15, cr2, [fp, #-412]	; 0xfffffe64
     aa4:	4b2f4e4b 	blmi	bd43d8 <__bss_end__+0xbca040>
     aa8:	04020067 	streq	r0, [r2], #-103	; 0x67
     aac:	06660601 	strbteq	r0, [r6], -r1, lsl #12
     ab0:	002f9f68 	eoreq	r9, pc, r8, ror #30
     ab4:	06010402 	streq	r0, [r1], -r2, lsl #8
     ab8:	2f68064a 	svccs	0x0068064a
     abc:	034a7303 	movteq	r7, #41731	; 0xa303
     ac0:	4c4d2e0e 	mcrrmi	14, 0, r2, sp, cr14
     ac4:	bc4b2f4e 	mcrrlt	15, 4, r2, fp, cr14
     ac8:	000602bc 			; <UNDEFINED> instruction: 0x000602bc
     acc:	03490101 	movteq	r0, #37121	; 0x9101
     ad0:	00020000 	andeq	r0, r2, r0
     ad4:	000001bd 			; <UNDEFINED> instruction: 0x000001bd
     ad8:	0efb0102 	cdpeq	1, 15, cr0, cr11, cr2, {0}
     adc:	0101000d 	tsteq	r1, sp
     ae0:	00000101 	andeq	r0, r0, r1, lsl #2
     ae4:	00000100 	andeq	r0, r0, r0, lsl #2
     ae8:	2d796d01 	ldclcs	13, cr6, [r9, #-4]!
     aec:	00637273 	rsbeq	r7, r3, r3, ror r2
     af0:	6573552f 	ldrbvs	r5, [r3, #-1327]!	; 0x52f
     af4:	622f7372 	eorvs	r7, pc, #-939524095	; 0xc8000001
     af8:	6e616972 	mcrvs	9, 3, r6, cr1, cr2, {3}
     afc:	2f6e756a 	svccs	0x006e756a
     b00:	6b736544 	blvs	1cda018 <__bss_end__+0x1ccfc80>
     b04:	2f706f74 	svccs	0x00706f74
     b08:	6f686373 	svcvs	0x00686373
     b0c:	572f6c6f 	strpl	r6, [pc, -pc, ror #24]!
     b10:	65746e69 	ldrbvs	r6, [r4, #-3689]!	; 0xe69
     b14:	32393172 	eorscc	r3, r9, #-2147483620	; 0x8000001c
     b18:	53432f30 	movtpl	r2, #16176	; 0x3f30
     b1c:	45303431 	ldrmi	r3, [r0, #-1073]!	; 0x431
     b20:	3173632f 	cmncc	r3, pc, lsr #6
     b24:	2d653034 	stclcs	0, cr3, [r5, #-208]!	; 0xffffff30
     b28:	69773032 	ldmdbvs	r7!, {r1, r4, r5, ip, sp}^
     b2c:	696c2f6e 	stmdbvs	ip!, {r1, r2, r3, r5, r6, r8, r9, sl, fp, sp}^
     b30:	2f697062 	svccs	0x00697062
     b34:	34317363 	ldrtcc	r7, [r1], #-867	; 0x363
     b38:	732d6530 	teqvc	sp, #48, 10	; 0xc000000
     b3c:	2f006372 	svccs	0x00006372
     b40:	2f727375 	svccs	0x00727375
     b44:	61636f6c 	cmnvs	r3, ip, ror #30
     b48:	65432f6c 	strbvs	r2, [r3, #-3948]	; 0xf6c
     b4c:	72616c6c 	rsbvc	r6, r1, #108, 24	; 0x6c00
     b50:	6d72612f 	ldfvse	f6, [r2, #-188]!	; 0xffffff44
     b54:	6e6f6e2d 	cdpvs	14, 6, cr6, cr15, cr13, {1}
     b58:	61652d65 	cmnvs	r5, r5, ror #26
     b5c:	342f6962 	strtcc	r6, [pc], #-2402	; b64 <_start-0x749c>
     b60:	332e382e 	teqcc	lr, #3014656	; 0x2e0000
     b64:	3173632d 	cmncc	r3, sp, lsr #6
     b68:	2f653037 	svccs	0x00653037
     b6c:	2f62696c 	svccs	0x0062696c
     b70:	2f636367 	svccs	0x00636367
     b74:	2d6d7261 	sfmcs	f7, 2, [sp, #-388]!	; 0xfffffe7c
     b78:	656e6f6e 	strbvs	r6, [lr, #-3950]!	; 0xf6e
     b7c:	6261652d 	rsbvs	r6, r1, #188743680	; 0xb400000
     b80:	2e342f69 	cdpcs	15, 3, cr2, cr4, cr9, {3}
     b84:	2f332e38 	svccs	0x00332e38
     b88:	6c636e69 	stclvs	14, cr6, [r3], #-420	; 0xfffffe5c
     b8c:	00656475 	rsbeq	r6, r5, r5, ror r4
     b90:	6573552f 	ldrbvs	r5, [r3, #-1327]!	; 0x52f
     b94:	622f7372 	eorvs	r7, pc, #-939524095	; 0xc8000001
     b98:	6e616972 	mcrvs	9, 3, r6, cr1, cr2, {3}
     b9c:	2f6e756a 	svccs	0x006e756a
     ba0:	6b736544 	blvs	1cda0b8 <__bss_end__+0x1ccfd20>
     ba4:	2f706f74 	svccs	0x00706f74
     ba8:	6f686373 	svcvs	0x00686373
     bac:	572f6c6f 	strpl	r6, [pc, -pc, ror #24]!
     bb0:	65746e69 	ldrbvs	r6, [r4, #-3689]!	; 0xe69
     bb4:	32393172 	eorscc	r3, r9, #-2147483620	; 0x8000001c
     bb8:	53432f30 	movtpl	r2, #16176	; 0x3f30
     bbc:	45303431 	ldrmi	r3, [r0, #-1073]!	; 0x431
     bc0:	3173632f 	cmncc	r3, pc, lsr #6
     bc4:	2d653034 	stclcs	0, cr3, [r5, #-208]!	; 0xffffff30
     bc8:	69773032 	ldmdbvs	r7!, {r1, r4, r5, ip, sp}^
     bcc:	696c2f6e 	stmdbvs	ip!, {r1, r2, r3, r5, r6, r8, r9, sl, fp, sp}^
     bd0:	00697062 	rsbeq	r7, r9, r2, rrx
     bd4:	6573552f 	ldrbvs	r5, [r3, #-1327]!	; 0x52f
     bd8:	622f7372 	eorvs	r7, pc, #-939524095	; 0xc8000001
     bdc:	6e616972 	mcrvs	9, 3, r6, cr1, cr2, {3}
     be0:	2f6e756a 	svccs	0x006e756a
     be4:	6b736544 	blvs	1cda0fc <__bss_end__+0x1ccfd64>
     be8:	2f706f74 	svccs	0x00706f74
     bec:	6f686373 	svcvs	0x00686373
     bf0:	572f6c6f 	strpl	r6, [pc, -pc, ror #24]!
     bf4:	65746e69 	ldrbvs	r6, [r4, #-3689]!	; 0xe69
     bf8:	32393172 	eorscc	r3, r9, #-2147483620	; 0x8000001c
     bfc:	53432f30 	movtpl	r2, #16176	; 0x3f30
     c00:	45303431 	ldrmi	r3, [r0, #-1073]!	; 0x431
     c04:	3173632f 	cmncc	r3, pc, lsr #6
     c08:	2d653034 	stclcs	0, cr3, [r5, #-208]!	; 0xffffff30
     c0c:	69773032 	ldmdbvs	r7!, {r1, r4, r5, ip, sp}^
     c10:	696c2f6e 	stmdbvs	ip!, {r1, r2, r3, r5, r6, r8, r9, sl, fp, sp}^
     c14:	2f697062 	svccs	0x00697062
     c18:	6362696c 	cmnvs	r2, #108, 18	; 0x1b0000
     c1c:	77730000 	ldrbvc	r0, [r3, -r0]!
     c20:	7261752d 	rsbvc	r7, r1, #188743680	; 0xb400000
     c24:	00632e74 	rsbeq	r2, r3, r4, ror lr
     c28:	63000001 	movwvs	r0, #1
     c2c:	656c6379 	strbvs	r6, [ip, #-889]!	; 0x379
     c30:	6974752d 	ldmdbvs	r4!, {r0, r2, r3, r5, r8, sl, ip, sp, lr}^
     c34:	00682e6c 	rsbeq	r2, r8, ip, ror #28
     c38:	73000002 	movwvc	r0, #2
     c3c:	6e696474 	mcrvs	4, 3, r6, cr9, cr4, {3}
     c40:	63672d74 	cmnvs	r7, #116, 26	; 0x1d00
     c44:	00682e63 	rsbeq	r2, r8, r3, ror #28
     c48:	73000003 	movwvc	r0, #3
     c4c:	61752d77 	cmnvs	r5, r7, ror sp
     c50:	682e7472 	stmdavs	lr!, {r1, r4, r5, r6, sl, ip, sp, lr}
     c54:	00000200 	andeq	r0, r0, r0, lsl #4
     c58:	61647473 	smcvs	18243	; 0x4743
     c5c:	682e6772 	stmdavs	lr!, {r1, r4, r5, r6, r8, r9, sl, sp, lr}
     c60:	00000300 	andeq	r0, r0, r0, lsl #6
     c64:	6f697067 	svcvs	0x00697067
     c68:	0200682e 	andeq	r6, r0, #3014656	; 0x2e0000
     c6c:	70720000 	rsbsvc	r0, r2, r0
     c70:	00682e69 	rsbeq	r2, r8, r9, ror #28
     c74:	76000004 	strvc	r0, [r0], -r4
     c78:	72702d61 	rsbsvc	r2, r0, #6208	; 0x1840
     c7c:	6b746e69 	blvs	1d1c628 <__bss_end__+0x1d12290>
     c80:	0500682e 	streq	r6, [r0, #-2094]	; 0x82e
     c84:	623c0000 	eorsvs	r0, ip, #0
     c88:	746c6975 	strbtvc	r6, [ip], #-2421	; 0x975
     c8c:	3e6e692d 	cdpcc	9, 6, cr6, cr14, cr13, {1}
     c90:	00000000 	andeq	r0, r0, r0
     c94:	02050000 	andeq	r0, r5, #0
     c98:	00009338 	andeq	r9, r0, r8, lsr r3
     c9c:	302f4c1a 	eorcc	r4, pc, sl, lsl ip	; <UNPREDICTABLE>
     ca0:	0b030204 	bleq	c14b8 <__bss_end__+0xb7120>
     ca4:	6673032e 	ldrbtvs	r0, [r3], -lr, lsr #6
     ca8:	04880104 	streq	r0, [r8], #260	; 0x104
     cac:	73033502 	movwvc	r3, #13570	; 0x3502
     cb0:	8a010466 	bhi	41e50 <__bss_end__+0x37ab8>
     cb4:	03330204 	teqeq	r3, #4, 4	; 0x40000000
     cb8:	01046673 	tsteq	r4, r3, ror r6
     cbc:	04820a03 	streq	r0, [r2], #2563	; 0xa03
     cc0:	73033102 	movwvc	r3, #12546	; 0x3102
     cc4:	03010466 	movweq	r0, #5222	; 0x1466
     cc8:	0204820c 	andeq	r8, r4, #12, 4	; 0xc0000000
     ccc:	6673032f 	ldrbtvs	r0, [r3], -pc, lsr #6
     cd0:	0e030104 	adfeqs	f0, f3, f4
     cd4:	2d020482 	cfstrscs	mvf0, [r2, #-520]	; 0xfffffdf8
     cd8:	04667303 	strbteq	r7, [r6], #-771	; 0x303
     cdc:	82100301 	andshi	r0, r0, #67108864	; 0x4000000
     ce0:	032b0204 	teqeq	fp, #4, 4	; 0x40000000
     ce4:	01046673 	tsteq	r4, r3, ror r6
     ce8:	04821203 	streq	r1, [r2], #515	; 0x203
     cec:	73032902 	movwvc	r2, #14594	; 0x3902
     cf0:	03010466 	movweq	r0, #5222	; 0x1466
     cf4:	02048214 	andeq	r8, r4, #20, 4	; 0x40000001
     cf8:	032e7903 	teqeq	lr, #49152	; 0xc000
     cfc:	01046673 	tsteq	r4, r3, ror r6
     d00:	04821603 	streq	r1, [r2], #1539	; 0x603
     d04:	2e770302 	cdpcs	3, 7, cr0, cr7, cr2, {0}
     d08:	04667303 	strbteq	r7, [r6], #-771	; 0x303
     d0c:	82180301 	andshi	r0, r8, #67108864	; 0x4000000
     d10:	4b2e1003 	blmi	b84d24 <__bss_end__+0xb7a98c>
     d14:	2e70034d 	cdpcs	3, 7, cr0, cr0, cr13, {2}
     d18:	4883844c 	stmmi	r3, {r2, r3, r6, sl, pc}
     d1c:	4e2e0d03 	cdpmi	13, 2, cr0, cr14, cr3, {0}
     d20:	02043331 	andeq	r3, r4, #-1006632960	; 0xc4000000
     d24:	042e4803 	strteq	r4, [lr], #-2051	; 0x803
     d28:	823a0301 	eorshi	r0, sl, #67108864	; 0x4000000
     d2c:	0302042f 	movweq	r0, #9263	; 0x242f
     d30:	01046645 	tsteq	r4, r5, asr #12
     d34:	2f823d03 	svccs	0x00823d03
     d38:	42030204 	andmi	r0, r3, #4, 4	; 0x40000000
     d3c:	03010482 	movweq	r0, #5250	; 0x1482
     d40:	2f8200c0 	svccs	0x008200c0
     d44:	bf030204 	svclt	0x00030204
     d48:	0104827f 	tsteq	r4, pc, ror r2
     d4c:	8200c303 	andhi	ip, r0, #201326592	; 0xc000000
     d50:	0302042f 	movweq	r0, #9263	; 0x242f
     d54:	04827fbc 	streq	r7, [r2], #4028	; 0xfbc
     d58:	00c60301 	sbceq	r0, r6, r1, lsl #6
     d5c:	02042f82 	andeq	r2, r4, #520	; 0x208
     d60:	827fb903 	rsbshi	fp, pc, #49152	; 0xc000
     d64:	c9030104 	stmdbgt	r3, {r2, r8}
     d68:	042f8200 	strteq	r8, [pc], #-512	; d70 <_start-0x7290>
     d6c:	7fb60302 	svcvc	0x00b60302
     d70:	03010482 	movweq	r0, #5250	; 0x1482
     d74:	2f8200cc 	svccs	0x008200cc
     d78:	b3030204 	movwlt	r0, #12804	; 0x3204
     d7c:	0104827f 	tsteq	r4, pc, ror r2
     d80:	8200d003 	andhi	sp, r0, #3
     d84:	4c824c03 	stcmi	12, cr4, [r2], {3}
     d88:	03488384 	movteq	r8, #33668	; 0x8384
     d8c:	034e2e36 	movteq	r2, #60982	; 0xee36
     d90:	29034a54 	stmdbcs	r3, {r2, r4, r6, r9, fp, lr}
     d94:	bb34324a 	bllt	d0d6c4 <__bss_end__+0xd0332c>
     d98:	01040200 	mrseq	r0, R12_usr
     d9c:	08064a06 	stmdaeq	r6, {r1, r2, r9, fp, lr}
     da0:	bb4b4e21 	bllt	12d462c <__bss_end__+0x12ca294>
     da4:	0402002c 	streq	r0, [r2], #-44	; 0x2c
     da8:	062e0601 	strteq	r0, [lr], -r1, lsl #12
     dac:	a0dc4c6d 	sbcsge	r4, ip, sp, ror #24
     db0:	01040200 	mrseq	r0, R12_usr
     db4:	08064a06 	stmdaeq	r6, {r1, r2, r9, fp, lr}
     db8:	02004d21 	andeq	r4, r0, #2112	; 0x840
     dbc:	004b0204 	subeq	r0, fp, r4, lsl #4
     dc0:	81020402 	tsthi	r2, r2, lsl #8
     dc4:	01040200 	mrseq	r0, R12_usr
     dc8:	4d062e06 	stcmi	14, cr2, [r6, #-24]	; 0xffffffe8
     dcc:	4bd8dd4c 	blmi	ff638304 <__bss_end__+0xff62df6c>
     dd0:	2f6a4b4b 	svccs	0x006a4b4b
     dd4:	01040200 	mrseq	r0, R12_usr
     dd8:	00828206 	addeq	r8, r2, r6, lsl #4
     ddc:	9e040402 	cdpls	4, 0, cr0, cr4, cr2, {0}
     de0:	01040200 	mrseq	r0, R12_usr
     de4:	2308064a 	movwcs	r0, #34378	; 0x864a
     de8:	4b2ff588 	blmi	bfe410 <__bss_end__+0xbf4078>
     dec:	6740084b 	strbvs	r0, [r0, -fp, asr #16]
     df0:	02040200 	andeq	r0, r4, #0, 4
     df4:	0402002f 	streq	r0, [r2], #-47	; 0x2f
     df8:	02004902 	andeq	r4, r0, #32768	; 0x8000
     dfc:	2e060104 	adfcss	f0, f6, f4
     e00:	86346806 	ldrthi	r6, [r4], -r6, lsl #16
     e04:	0200a04b 	andeq	sl, r0, #75	; 0x4b
     e08:	66060104 	strvs	r0, [r6], -r4, lsl #2
     e0c:	68210806 	stmdavs	r1!, {r1, r2, fp}
     e10:	674b3e08 	strbvs	r3, [fp, -r8, lsl #28]
     e14:	0a02d84b 	beq	b6f48 <__bss_end__+0xacbb0>
     e18:	01010100 	mrseq	r0, (UNDEF: 17)
     e1c:	02000001 	andeq	r0, r0, #1
     e20:	0000ca00 	andeq	ip, r0, r0, lsl #20
     e24:	fb010200 	blx	4162e <__bss_end__+0x37296>
     e28:	01000d0e 	tsteq	r0, lr, lsl #26
     e2c:	00010101 	andeq	r0, r1, r1, lsl #2
     e30:	00010000 	andeq	r0, r1, r0
     e34:	796d0100 	stmdbvc	sp!, {r8}^
     e38:	6372732d 	cmnvs	r2, #-1275068416	; 0xb4000000
     e3c:	73552f00 	cmpvc	r5, #0, 30
     e40:	2f737265 	svccs	0x00737265
     e44:	61697262 	cmnvs	r9, r2, ror #4
     e48:	6e756a6e 	vsubvs.f32	s13, s10, s29
     e4c:	7365442f 	cmnvc	r5, #788529152	; 0x2f000000
     e50:	706f746b 	rsbvc	r7, pc, fp, ror #8
     e54:	6863732f 	stmdavs	r3!, {r0, r1, r2, r3, r5, r8, r9, ip, sp, lr}^
     e58:	2f6c6f6f 	svccs	0x006c6f6f
     e5c:	746e6957 	strbtvc	r6, [lr], #-2391	; 0x957
     e60:	39317265 	ldmdbcc	r1!, {r0, r2, r5, r6, r9, ip, sp, lr}
     e64:	432f3032 	teqmi	pc, #50	; 0x32
     e68:	30343153 	eorscc	r3, r4, r3, asr r1
     e6c:	73632f45 	cmnvc	r3, #276	; 0x114
     e70:	65303431 	ldrvs	r3, [r0, #-1073]!	; 0x431
     e74:	7730322d 	ldrvc	r3, [r0, -sp, lsr #4]!
     e78:	6c2f6e69 	stcvs	14, cr6, [pc], #-420	; cdc <_start-0x7324>
     e7c:	69706269 	ldmdbvs	r0!, {r0, r3, r5, r6, r9, sp, lr}^
     e80:	3173632f 	cmncc	r3, pc, lsr #6
     e84:	2d653034 	stclcs	0, cr3, [r5, #-208]!	; 0xffffff30
     e88:	00637273 	rsbeq	r7, r3, r3, ror r2
     e8c:	6573552f 	ldrbvs	r5, [r3, #-1327]!	; 0x52f
     e90:	622f7372 	eorvs	r7, pc, #-939524095	; 0xc8000001
     e94:	6e616972 	mcrvs	9, 3, r6, cr1, cr2, {3}
     e98:	2f6e756a 	svccs	0x006e756a
     e9c:	6b736544 	blvs	1cda3b4 <__bss_end__+0x1cd001c>
     ea0:	2f706f74 	svccs	0x00706f74
     ea4:	6f686373 	svcvs	0x00686373
     ea8:	572f6c6f 	strpl	r6, [pc, -pc, ror #24]!
     eac:	65746e69 	ldrbvs	r6, [r4, #-3689]!	; 0xe69
     eb0:	32393172 	eorscc	r3, r9, #-2147483620	; 0x8000001c
     eb4:	53432f30 	movtpl	r2, #16176	; 0x3f30
     eb8:	45303431 	ldrmi	r3, [r0, #-1073]!	; 0x431
     ebc:	3173632f 	cmncc	r3, pc, lsr #6
     ec0:	2d653034 	stclcs	0, cr3, [r5, #-208]!	; 0xffffff30
     ec4:	69773032 	ldmdbvs	r7!, {r1, r4, r5, ip, sp}^
     ec8:	696c2f6e 	stmdbvs	ip!, {r1, r2, r3, r5, r6, r8, r9, sl, fp, sp}^
     ecc:	00697062 	rsbeq	r7, r9, r2, rrx
     ed0:	72617500 	rsbvc	r7, r1, #0, 10
     ed4:	00632e74 	rsbeq	r2, r3, r4, ror lr
     ed8:	67000001 	strvs	r0, [r0, -r1]
     edc:	2e6f6970 	mcrcs	9, 3, r6, cr15, cr0, {3}
     ee0:	00020068 	andeq	r0, r2, r8, rrx
     ee4:	69707200 	ldmdbvs	r0!, {r9, ip, sp, lr}^
     ee8:	0300682e 	movweq	r6, #2094	; 0x82e
     eec:	00000000 	andeq	r0, r0, r0
     ef0:	99a00205 	stmibls	r0!, {r0, r2, r9}
     ef4:	36030000 	strcc	r0, [r3], -r0
     ef8:	67333001 	ldrvs	r3, [r3, -r1]!
     efc:	30d8306d 	sbcscc	r3, r8, sp, rrx
     f00:	67676767 	strbvs	r6, [r7, -r7, ror #14]!
     f04:	2f866867 	svccs	0x00866867
     f08:	67306a67 	ldrvs	r6, [r0, -r7, ror #20]!
     f0c:	672f6967 	strvs	r6, [pc, -r7, ror #18]!
     f10:	c1674c6a 	cmngt	r7, sl, ror #24
     f14:	2f302f2f 	svccs	0x00302f2f
     f18:	02304968 	eorseq	r4, r0, #104, 18	; 0x1a0000
     f1c:	01010002 	tsteq	r1, r2
     f20:	00000128 	andeq	r0, r0, r8, lsr #2
     f24:	010d0002 	tsteq	sp, r2
     f28:	01020000 	mrseq	r0, (UNDEF: 2)
     f2c:	000d0efb 	strdeq	r0, [sp], -fp
     f30:	01010101 	tsteq	r1, r1, lsl #2
     f34:	01000000 	mrseq	r0, (UNDEF: 0)
     f38:	63010000 	movwvs	r0, #4096	; 0x1000
     f3c:	30343173 	eorscc	r3, r4, r3, ror r1
     f40:	72732d65 	rsbsvc	r2, r3, #6464	; 0x1940
     f44:	752f0063 	strvc	r0, [pc, #-99]!	; ee9 <_start-0x7117>
     f48:	6c2f7273 	sfmvs	f7, 4, [pc], #-460	; d84 <_start-0x727c>
     f4c:	6c61636f 	stclvs	3, cr6, [r1], #-444	; 0xfffffe44
     f50:	6c65432f 	stclvs	3, cr4, [r5], #-188	; 0xffffff44
     f54:	2f72616c 	svccs	0x0072616c
     f58:	2d6d7261 	sfmcs	f7, 2, [sp, #-388]!	; 0xfffffe7c
     f5c:	656e6f6e 	strbvs	r6, [lr, #-3950]!	; 0xf6e
     f60:	6261652d 	rsbvs	r6, r1, #188743680	; 0xb400000
     f64:	2e342f69 	cdpcs	15, 3, cr2, cr4, cr9, {3}
     f68:	2d332e38 	ldccs	14, cr2, [r3, #-224]!	; 0xffffff20
     f6c:	37317363 	ldrcc	r7, [r1, -r3, ror #6]!
     f70:	6c2f6530 	cfstr32vs	mvfx6, [pc], #-192	; eb8 <_start-0x7148>
     f74:	672f6269 	strvs	r6, [pc, -r9, ror #4]!
     f78:	612f6363 	teqvs	pc, r3, ror #6
     f7c:	6e2d6d72 	mcrvs	13, 1, r6, cr13, cr2, {3}
     f80:	2d656e6f 	stclcs	14, cr6, [r5, #-444]!	; 0xfffffe44
     f84:	69626165 	stmdbvs	r2!, {r0, r2, r5, r6, r8, sp, lr}^
     f88:	382e342f 	stmdacc	lr!, {r0, r1, r2, r3, r5, sl, ip, sp}
     f8c:	692f332e 	stmdbvs	pc!, {r1, r2, r3, r5, r8, r9, ip, sp}	; <UNPREDICTABLE>
     f90:	756c636e 	strbvc	r6, [ip, #-878]!	; 0x36e
     f94:	2f006564 	svccs	0x00006564
     f98:	2f727375 	svccs	0x00727375
     f9c:	61636f6c 	cmnvs	r3, ip, ror #30
     fa0:	65432f6c 	strbvs	r2, [r3, #-3948]	; 0xf6c
     fa4:	72616c6c 	rsbvc	r6, r1, #108, 24	; 0x6c00
     fa8:	6d72612f 	ldfvse	f6, [r2, #-188]!	; 0xffffff44
     fac:	6e6f6e2d 	cdpvs	14, 6, cr6, cr15, cr13, {1}
     fb0:	61652d65 	cmnvs	r5, r5, ror #26
     fb4:	342f6962 	strtcc	r6, [pc], #-2402	; fbc <_start-0x7044>
     fb8:	332e382e 	teqcc	lr, #3014656	; 0x2e0000
     fbc:	3173632d 	cmncc	r3, sp, lsr #6
     fc0:	2f653037 	svccs	0x00653037
     fc4:	2d6d7261 	sfmcs	f7, 2, [sp, #-388]!	; 0xfffffe7c
     fc8:	656e6f6e 	strbvs	r6, [lr, #-3950]!	; 0xf6e
     fcc:	6261652d 	rsbvs	r6, r1, #188743680	; 0xb400000
     fd0:	6e692f69 	cdpvs	15, 6, cr2, cr9, cr9, {3}
     fd4:	64756c63 	ldrbtvs	r6, [r5], #-3171	; 0xc63
     fd8:	63000065 	movwvs	r0, #101	; 0x65
     fdc:	72746e6f 	rsbsvc	r6, r4, #1776	; 0x6f0
     fe0:	622d6c6f 	eorvs	r6, sp, #28416	; 0x6f00
     fe4:	6b636f6c 	blvs	18dcd9c <__bss_end__+0x18d2a04>
     fe8:	0100632e 	tsteq	r0, lr, lsr #6
     fec:	74730000 	ldrbtvc	r0, [r3], #-0
     ff0:	66656464 	strbtvs	r6, [r5], -r4, ror #8
     ff4:	0200682e 	andeq	r6, r0, #3014656	; 0x2e0000
     ff8:	74730000 	ldrbtvc	r0, [r3], #-0
     ffc:	746e6964 	strbtvc	r6, [lr], #-2404	; 0x964
    1000:	6363672d 	cmnvs	r3, #11796480	; 0xb40000
    1004:	0200682e 	andeq	r6, r0, #3014656	; 0x2e0000
    1008:	77730000 	ldrbvc	r0, [r3, -r0]!
    100c:	7261752d 	rsbvc	r7, r1, #188743680	; 0xb400000
    1010:	00682e74 	rsbeq	r2, r8, r4, ror lr
    1014:	63000001 	movwvs	r0, #1
    1018:	72746e6f 	rsbsvc	r6, r4, #1776	; 0x6f0
    101c:	622d6c6f 	eorvs	r6, sp, #28416	; 0x6f00
    1020:	6b636f6c 	blvs	18dcdd8 <__bss_end__+0x18d2a40>
    1024:	0100682e 	tsteq	r0, lr, lsr #16
    1028:	74730000 	ldrbtvc	r0, [r3], #-0
    102c:	676e6972 			; <UNDEFINED> instruction: 0x676e6972
    1030:	0300682e 	movweq	r6, #2094	; 0x82e
    1034:	00000000 	andeq	r0, r0, r0
    1038:	9b580205 	blls	1601854 <__bss_end__+0x15f74bc>
    103c:	30160000 	andscc	r0, r6, r0
    1040:	144c6883 	strbne	r6, [ip], #-2179	; 0x883
    1044:	022f4b9f 	eoreq	r4, pc, #162816	; 0x27c00
    1048:	01010004 	tsteq	r1, r4
    104c:	000000ec 	andeq	r0, r0, ip, ror #1
    1050:	00d00002 	sbcseq	r0, r0, r2
    1054:	01020000 	mrseq	r0, (UNDEF: 2)
    1058:	000d0efb 	strdeq	r0, [sp], -fp
    105c:	01010101 	tsteq	r1, r1, lsl #2
    1060:	01000000 	mrseq	r0, (UNDEF: 0)
    1064:	6c010000 	stcvs	0, cr0, [r1], {-0}
    1068:	00636269 	rsbeq	r6, r3, r9, ror #4
    106c:	7273752f 	rsbsvc	r7, r3, #197132288	; 0xbc00000
    1070:	636f6c2f 	cmnvs	pc, #12032	; 0x2f00
    1074:	432f6c61 	teqmi	pc, #24832	; 0x6100
    1078:	616c6c65 	cmnvs	ip, r5, ror #24
    107c:	72612f72 	rsbvc	r2, r1, #456	; 0x1c8
    1080:	6f6e2d6d 	svcvs	0x006e2d6d
    1084:	652d656e 	strvs	r6, [sp, #-1390]!	; 0x56e
    1088:	2f696261 	svccs	0x00696261
    108c:	2e382e34 	mrccs	14, 1, r2, cr8, cr4, {1}
    1090:	73632d33 	cmnvc	r3, #3264	; 0xcc0
    1094:	65303731 	ldrvs	r3, [r0, #-1841]!	; 0x731
    1098:	62696c2f 	rsbvs	r6, r9, #12032	; 0x2f00
    109c:	6363672f 	cmnvs	r3, #12320768	; 0xbc0000
    10a0:	6d72612f 	ldfvse	f6, [r2, #-188]!	; 0xffffff44
    10a4:	6e6f6e2d 	cdpvs	14, 6, cr6, cr15, cr13, {1}
    10a8:	61652d65 	cmnvs	r5, r5, ror #26
    10ac:	342f6962 	strtcc	r6, [pc], #-2402	; 10b4 <_start-0x6f4c>
    10b0:	332e382e 	teqcc	lr, #3014656	; 0x2e0000
    10b4:	636e692f 	cmnvs	lr, #770048	; 0xbc000
    10b8:	6564756c 	strbvs	r7, [r4, #-1388]!	; 0x56c
    10bc:	73752f00 	cmnvc	r5, #0, 30
    10c0:	6f6c2f72 	svcvs	0x006c2f72
    10c4:	2f6c6163 	svccs	0x006c6163
    10c8:	6c6c6543 	cfstr64vs	mvdx6, [ip], #-268	; 0xfffffef4
    10cc:	612f7261 	teqvs	pc, r1, ror #4
    10d0:	6e2d6d72 	mcrvs	13, 1, r6, cr13, cr2, {3}
    10d4:	2d656e6f 	stclcs	14, cr6, [r5, #-444]!	; 0xfffffe44
    10d8:	69626165 	stmdbvs	r2!, {r0, r2, r5, r6, r8, sp, lr}^
    10dc:	382e342f 	stmdacc	lr!, {r0, r1, r2, r3, r5, sl, ip, sp}
    10e0:	632d332e 	teqvs	sp, #-1207959552	; 0xb8000000
    10e4:	30373173 	eorscc	r3, r7, r3, ror r1
    10e8:	72612f65 	rsbvc	r2, r1, #404	; 0x194
    10ec:	6f6e2d6d 	svcvs	0x006e2d6d
    10f0:	652d656e 	strvs	r6, [sp, #-1390]!	; 0x56e
    10f4:	2f696261 	svccs	0x00696261
    10f8:	6c636e69 	stclvs	14, cr6, [r3], #-420	; 0xfffffe5c
    10fc:	00656475 	rsbeq	r6, r5, r5, ror r4
    1100:	6d656d00 	stclvs	13, cr6, [r5, #-0]
    1104:	2e746573 	mrccs	5, 3, r6, cr4, cr3, {3}
    1108:	00010063 	andeq	r0, r1, r3, rrx
    110c:	64747300 	ldrbtvs	r7, [r4], #-768	; 0x300
    1110:	2e666564 	cdpcs	5, 6, cr6, cr6, cr4, {3}
    1114:	00020068 	andeq	r0, r2, r8, rrx
    1118:	72747300 	rsbsvc	r7, r4, #0, 6
    111c:	2e676e69 	cdpcs	14, 6, cr6, cr7, cr9, {3}
    1120:	00030068 	andeq	r0, r3, r8, rrx
    1124:	05000000 	streq	r0, [r0, #-0]
    1128:	009ba802 	addseq	sl, fp, r2, lsl #16
    112c:	4c131400 	cfldrsmi	mvf1, [r3], {-0}
    1130:	0402002f 	streq	r0, [r2], #-47	; 0x2f
    1134:	024d4901 	subeq	r4, sp, #16384	; 0x4000
    1138:	01010002 	tsteq	r1, r2

Disassembly of section .debug_str:

00000000 <.debug_str>:
   0:	53465047 	movtpl	r5, #24647	; 0x6047
   4:	00324c45 	eorseq	r4, r2, r5, asr #24
   8:	4c435047 	mcrrmi	0, 4, r5, r3, cr7
   c:	6e003052 	mcrvs	0, 0, r3, cr0, cr2, {2}
  10:	616d746f 	cmnvs	sp, pc, ror #8
  14:	66006e69 	strvs	r6, [r0], -r9, ror #28
  18:	74737269 	ldrbtvc	r7, [r3], #-617	; 0x269
  1c:	6165725f 	cmnvs	r5, pc, asr r2
  20:	65700064 	ldrbvs	r0, [r0, #-100]!	; 0x64
  24:	646f6972 	strbtvs	r6, [pc], #-2418	; 2c <_start-0x7fd4>
  28:	6e6f6c00 	cdpvs	12, 6, cr6, cr15, cr0, {0}
  2c:	6f6c2067 	svcvs	0x006c2067
  30:	7520676e 	strvc	r6, [r0, #-1902]!	; 0x76e
  34:	6769736e 	strbvs	r7, [r9, -lr, ror #6]!
  38:	2064656e 	rsbcs	r6, r4, lr, ror #10
  3c:	00746e69 	rsbseq	r6, r4, r9, ror #28
  40:	676e6f6c 	strbvs	r6, [lr, -ip, ror #30]!
  44:	6e6f6c20 	cdpvs	12, 6, cr6, cr15, cr0, {1}
  48:	6e692067 	cdpvs	0, 6, cr2, cr9, cr7, {3}
  4c:	6f740074 	svcvs	0x00740074
  50:	72655f74 	rsbvc	r5, r5, #116, 30	; 0x1d0
  54:	50470072 	subpl	r0, r7, r2, ror r0
  58:	30544553 	subscc	r4, r4, r3, asr r5
  5c:	53504700 	cmppl	r0, #0, 14
  60:	00315445 	eorseq	r5, r1, r5, asr #8
  64:	454c5047 	strbmi	r5, [ip, #-71]	; 0x47
  68:	47003056 	smlsdmi	r0, r6, r0, r3
  6c:	56454c50 			; <UNDEFINED> instruction: 0x56454c50
  70:	6f6c0031 	svcvs	0x006c0031
  74:	6e655f67 	cdpvs	15, 6, cr5, cr5, cr7, {3}
  78:	00745f74 	rsbseq	r5, r4, r4, ror pc
  7c:	20554e47 	subscs	r4, r5, r7, asr #28
  80:	2e342043 	cdpcs	0, 3, cr2, cr4, cr3, {2}
  84:	20332e38 	eorscs	r2, r3, r8, lsr lr
  88:	70636d2d 	rsbvc	r6, r3, sp, lsr #26
  8c:	72613d75 	rsbvc	r3, r1, #7488	; 0x1d40
  90:	3731316d 	ldrcc	r3, [r1, -sp, ror #2]!
  94:	667a6a36 			; <UNDEFINED> instruction: 0x667a6a36
  98:	2d20732d 	stccs	3, cr7, [r0, #-180]!	; 0xffffff4c
  9c:	6e75746d 	cdpvs	4, 7, cr7, cr5, cr13, {3}
  a0:	72613d65 	rsbvc	r3, r1, #6464	; 0x1940
  a4:	3731316d 	ldrcc	r3, [r1, -sp, ror #2]!
  a8:	667a6a36 			; <UNDEFINED> instruction: 0x667a6a36
  ac:	2d20732d 	stccs	3, cr7, [r0, #-180]!	; 0xffffff4c
  b0:	62646767 	rsbvs	r6, r4, #27000832	; 0x19c0000
  b4:	334f2d20 	movtcc	r2, #64800	; 0xfd20
  b8:	74732d20 	ldrbtvc	r2, [r3], #-3360	; 0xd20
  bc:	6e673d64 	cdpvs	13, 6, cr3, cr7, cr4, {3}
  c0:	20393975 	eorscs	r3, r9, r5, ror r9
  c4:	7266662d 	rsbvc	r6, r6, #47185920	; 0x2d00000
  c8:	74736565 	ldrbtvc	r6, [r3], #-1381	; 0x565
  cc:	69646e61 	stmdbvs	r4!, {r0, r5, r6, r9, sl, fp, sp, lr}^
  d0:	7200676e 	andvc	r6, r0, #28835840	; 0x1b80000
  d4:	725f6970 	subsvc	r6, pc, #112, 18	; 0x1c0000
  d8:	74657365 	strbtvc	r7, [r5], #-869	; 0x365
  dc:	7475705f 	ldrbtvc	r7, [r5], #-95	; 0x5f
  e0:	50470063 	subpl	r0, r7, r3, rrx
  e4:	4c455346 	mcrrmi	3, 4, r5, r5, cr6
  e8:	50470030 	subpl	r0, r7, r0, lsr r0
  ec:	4c455346 	mcrrmi	3, 4, r5, r5, cr6
  f0:	50470031 	subpl	r0, r7, r1, lsr r0
  f4:	4c455346 	mcrrmi	3, 4, r5, r5, cr6
  f8:	50470033 	subpl	r0, r7, r3, lsr r0
  fc:	4c455346 	mcrrmi	3, 4, r5, r5, cr6
 100:	50470034 	subpl	r0, r7, r4, lsr r0
 104:	4c455346 	mcrrmi	3, 4, r5, r5, cr6
 108:	5f5f0035 	svcpl	0x005f0035
 10c:	434e5546 	movtmi	r5, #58694	; 0xe546
 110:	4e4f4954 	mcrmi	9, 2, r4, cr15, cr4, {2}
 114:	6e005f5f 	mcrvs	15, 0, r5, cr0, cr15, {2}
 118:	745f6d75 	ldrbvc	r6, [pc], #-3445	; 120 <_start-0x7ee0>
 11c:	736e6172 	cmnvc	lr, #-2147483620	; 0x8000001c
 120:	6f697469 	svcvs	0x00697469
 124:	7300736e 	movwvc	r7, #878	; 0x36e
 128:	74726f68 	ldrbtvc	r6, [r2], #-3944	; 0xf68
 12c:	736e7520 	cmnvc	lr, #32, 10	; 0x8000000
 130:	656e6769 	strbvs	r6, [lr, #-1897]!	; 0x769
 134:	6e692064 	cdpvs	0, 6, cr2, cr9, cr4, {3}
 138:	616c0074 	smcvs	49156	; 0xc004
 13c:	64007473 	strvs	r7, [r0], #-1139	; 0x473
 140:	5f706d75 	svcpl	0x00706d75
 144:	706d6173 	rsbvc	r6, sp, r3, ror r1
 148:	0073656c 	rsbseq	r6, r3, ip, ror #10
 14c:	616d5f6e 	cmnvs	sp, lr, ror #30
 150:	70670078 	rsbvc	r0, r7, r8, ror r0
 154:	665f6f69 	ldrbvs	r6, [pc], -r9, ror #30
 158:	306c6573 	rsbcc	r6, ip, r3, ror r5
 15c:	43504700 	cmpmi	r0, #0, 14
 160:	0031524c 	eorseq	r5, r1, ip, asr #4
 164:	61656c63 	cmnvs	r5, r3, ror #24
 168:	65725f6e 	ldrbvs	r5, [r2, #-3950]!	; 0xf6e
 16c:	746f6f62 	strbtvc	r6, [pc], #-3938	; 174 <_start-0x7e8c>
 170:	7a697300 	bvc	1a5cd78 <__bss_end__+0x1a529e0>
 174:	70797465 	rsbsvc	r7, r9, r5, ror #8
 178:	72740065 	rsbsvc	r0, r4, #101	; 0x65
 17c:	69736e61 	ldmdbvs	r3!, {r0, r5, r6, r9, sl, fp, sp, lr}^
 180:	6e6f6974 	mcrvs	9, 3, r6, cr15, cr4, {3}
 184:	6675625f 			; <UNDEFINED> instruction: 0x6675625f
 188:	756f5f00 	strbvc	r5, [pc, #-3840]!	; fffff290 <__bss_end__+0xffff4ef8>
 18c:	636e0074 	cmnvs	lr, #116	; 0x74
 190:	75006379 	strvc	r6, [r0, #-889]	; 0x379
 194:	6769736e 	strbvs	r7, [r9, -lr, ror #6]!
 198:	2064656e 	rsbcs	r6, r4, lr, ror #10
 19c:	72616863 	rsbvc	r6, r1, #6488064	; 0x630000
 1a0:	6f687300 	svcvs	0x00687300
 1a4:	69207472 	stmdbvs	r0!, {r1, r4, r5, r6, sl, ip, sp, lr}
 1a8:	6400746e 	strvs	r7, [r0], #-1134	; 0x46e
 1ac:	79616c65 	stmdbvc	r1!, {r0, r2, r5, r6, sl, fp, sp, lr}^
 1b0:	00736d5f 	rsbseq	r6, r3, pc, asr sp
 1b4:	6c637963 	stclvs	9, cr7, [r3], #-396	; 0xfffffe74
 1b8:	705f7365 	subsvc	r7, pc, r5, ror #6
 1bc:	735f7265 	cmpvc	pc, #1342177286	; 0x50000006
 1c0:	2f006365 	svccs	0x00006365
 1c4:	72657355 	rsbvc	r7, r5, #1409286145	; 0x54000001
 1c8:	72622f73 	rsbvc	r2, r2, #460	; 0x1cc
 1cc:	6a6e6169 	bvs	1b98778 <__bss_end__+0x1b8e3e0>
 1d0:	442f6e75 	strtmi	r6, [pc], #-3701	; 1d8 <_start-0x7e28>
 1d4:	746b7365 	strbtvc	r7, [fp], #-869	; 0x365
 1d8:	732f706f 	teqvc	pc, #111	; 0x6f
 1dc:	6f6f6863 	svcvs	0x006f6863
 1e0:	70532f6c 	subsvc	r2, r3, ip, ror #30
 1e4:	676e6972 			; <UNDEFINED> instruction: 0x676e6972
 1e8:	30323931 	eorscc	r3, r2, r1, lsr r9
 1ec:	3253432f 	subscc	r4, r3, #-1140850688	; 0xbc000000
 1f0:	584c3034 	stmdapl	ip, {r2, r4, r5, ip, sp}^
 1f4:	3273632f 	rsbscc	r6, r3, #-1140850688	; 0xbc000000
 1f8:	786c3034 	stmdavc	ip!, {r2, r4, r5, ip, sp}^
 1fc:	7330322d 	teqvc	r0, #-805306366	; 0xd0000002
 200:	6c2f7270 	sfmvs	f7, 4, [pc], #-448	; 48 <_start-0x7fb8>
 204:	2f736261 	svccs	0x00736261
 208:	6f6c2d33 	svcvs	0x006c2d33
 20c:	2d636967 	stclcs	9, cr6, [r3, #-412]!	; 0xfffffe64
 210:	6c616e61 	stclvs	14, cr6, [r1], #-388	; 0xfffffe7c
 214:	72657a79 	rsbvc	r7, r5, #495616	; 0x79000
 218:	646f632f 	strbtvs	r6, [pc], #-815	; 220 <_start-0x7de0>
 21c:	63732f65 	cmnvs	r3, #404	; 0x194
 220:	0065706f 	rsbeq	r7, r5, pc, rrx
 224:	6f697067 	svcvs	0x00697067
 228:	7465735f 	strbtvc	r7, [r5], #-863	; 0x35f
 22c:	69660030 	stmdbvs	r6!, {r4, r5}^
 230:	00747372 	rsbseq	r7, r4, r2, ror r3
 234:	65736162 	ldrbvs	r6, [r3, #-354]!	; 0x162
 238:	656e696c 	strbvs	r6, [lr, #-2412]!	; 0x96c
 23c:	6165725f 	cmnvs	r5, pc, asr r2
 240:	70670064 	rsbvc	r0, r7, r4, rrx
 244:	735f6f69 	cmpvc	pc, #420	; 0x1a4
 248:	695f7465 	ldmdbvs	pc, {r0, r2, r5, r6, sl, ip, sp, lr}^	; <UNPREDICTABLE>
 24c:	7475706e 	ldrbtvc	r7, [r5], #-110	; 0x6e
 250:	616e6500 	cmnvs	lr, r0, lsl #10
 254:	5f656c62 	svcpl	0x00656c62
 258:	68636163 	stmdavs	r3!, {r0, r1, r5, r6, r8, sp, lr}^
 25c:	61660065 	cmnvs	r6, r5, rrx
 260:	675f7473 			; <UNDEFINED> instruction: 0x675f7473
 264:	5f6f6970 	svcpl	0x006f6970
 268:	64616572 	strbtvs	r6, [r1], #-1394	; 0x572
 26c:	78616d00 	stmdavc	r1!, {r8, sl, fp, sp, lr}^
 270:	6379635f 	cmnvs	r9, #2080374785	; 0x7c000001
 274:	0073656c 	rsbseq	r6, r3, ip, ror #10
 278:	72727563 	rsbsvc	r7, r2, #415236096	; 0x18c00000
 27c:	6165725f 	cmnvs	r5, pc, asr r2
 280:	70670064 	rsbvc	r0, r7, r4, rrx
 284:	635f6f69 	cmpvs	pc, #420	; 0x1a4
 288:	0030726c 	eorseq	r7, r0, ip, ror #4
 28c:	706f6373 	rsbvc	r6, pc, r3, ror r3	; <UNPREDICTABLE>
 290:	00632e65 	rsbeq	r2, r3, r5, ror #28
 294:	6e675f5f 	mcrvs	15, 3, r5, cr7, cr15, {2}
 298:	765f6375 			; <UNDEFINED> instruction: 0x765f6375
 29c:	696c5f61 	stmdbvs	ip!, {r0, r5, r6, r8, r9, sl, fp, ip, lr}^
 2a0:	6c007473 	cfstrsvs	mvf7, [r0], {115}	; 0x73
 2a4:	2f636269 	svccs	0x00636269
 2a8:	6e697270 	mcrvs	2, 3, r7, cr9, cr0, {3}
 2ac:	632e6b74 	teqvs	lr, #116, 22	; 0x1d000
 2b0:	554e4700 	strbpl	r4, [lr, #-1792]	; 0x700
 2b4:	34204320 	strtcc	r4, [r0], #-800	; 0x320
 2b8:	332e382e 	teqcc	lr, #3014656	; 0x2e0000
 2bc:	636d2d20 	cmnvs	sp, #32, 26	; 0x800
 2c0:	613d7570 	teqvs	sp, r0, ror r5
 2c4:	31316d72 	teqcc	r1, r2, ror sp
 2c8:	7a6a3637 	bvc	1a8dbac <__bss_end__+0x1a83814>
 2cc:	20732d66 	rsbscs	r2, r3, r6, ror #26
 2d0:	75746d2d 	ldrbvc	r6, [r4, #-3373]!	; 0xd2d
 2d4:	613d656e 	teqvs	sp, lr, ror #10
 2d8:	31316d72 	teqcc	r1, r2, ror sp
 2dc:	7a6a3637 	bvc	1a8dbc0 <__bss_end__+0x1a83828>
 2e0:	20732d66 	rsbscs	r2, r3, r6, ror #26
 2e4:	6467672d 	strbtvs	r6, [r7], #-1837	; 0x72d
 2e8:	4f2d2062 	svcmi	0x002d2062
 2ec:	732d2067 	teqvc	sp, #103	; 0x67
 2f0:	673d6474 			; <UNDEFINED> instruction: 0x673d6474
 2f4:	3939756e 	ldmdbcc	r9!, {r1, r2, r3, r5, r6, r8, sl, ip, sp, lr}
 2f8:	66662d20 	strbtvs	r2, [r6], -r0, lsr #26
 2fc:	73656572 	cmnvc	r5, #478150656	; 0x1c800000
 300:	646e6174 	strbtvs	r6, [lr], #-372	; 0x174
 304:	00676e69 	rsbeq	r6, r7, r9, ror #28
 308:	705f6176 	subsvc	r6, pc, r6, ror r1	; <UNPREDICTABLE>
 30c:	746e6972 	strbtvc	r6, [lr], #-2418	; 0x972
 310:	5f5f006b 	svcpl	0x005f006b
 314:	6c5f6176 	ldfvse	f6, [pc], {118}	; 0x76
 318:	00747369 	rsbseq	r7, r4, r9, ror #6
 31c:	6573552f 	ldrbvs	r5, [r3, #-1327]!	; 0x52f
 320:	622f7372 	eorvs	r7, pc, #-939524095	; 0xc8000001
 324:	6e616972 	mcrvs	9, 3, r6, cr1, cr2, {3}
 328:	2f6e756a 	svccs	0x006e756a
 32c:	6b736544 	blvs	1cd9844 <__bss_end__+0x1ccf4ac>
 330:	2f706f74 	svccs	0x00706f74
 334:	6f686373 	svcvs	0x00686373
 338:	572f6c6f 	strpl	r6, [pc, -pc, ror #24]!
 33c:	65746e69 	ldrbvs	r6, [r4, #-3689]!	; 0xe69
 340:	32393172 	eorscc	r3, r9, #-2147483620	; 0x8000001c
 344:	53432f30 	movtpl	r2, #16176	; 0x3f30
 348:	45303431 	ldrmi	r3, [r0, #-1073]!	; 0x431
 34c:	3173632f 	cmncc	r3, pc, lsr #6
 350:	2d653034 	stclcs	0, cr3, [r5, #-208]!	; 0xffffff30
 354:	69773032 	ldmdbvs	r7!, {r1, r4, r5, ip, sp}^
 358:	696c2f6e 	stmdbvs	ip!, {r1, r2, r3, r5, r6, r8, r9, sl, fp, sp}^
 35c:	00697062 	rsbeq	r7, r9, r2, rrx
 360:	73677261 	cmnvc	r7, #268435462	; 0x10000006
 364:	615f5f00 	cmpvs	pc, r0, lsl #30
 368:	6e690070 	mcrvs	0, 3, r0, cr9, cr0, {3}
 36c:	6e726574 	mrcvs	5, 3, r6, cr2, cr4, {3}
 370:	705f6c61 	subsvc	r6, pc, r1, ror #24
 374:	68637475 	stmdavs	r3!, {r0, r2, r4, r5, r6, sl, ip, sp, lr}^
 378:	72007261 	andvc	r7, r0, #268435462	; 0x10000006
 37c:	705f6970 	subsvc	r6, pc, r0, ror r9	; <UNPREDICTABLE>
 380:	68637475 	stmdavs	r3!, {r0, r2, r4, r5, r6, sl, ip, sp, lr}^
 384:	6c007261 	sfmvs	f7, 4, [r0], {97}	; 0x61
 388:	2f636269 	svccs	0x00636269
 38c:	63747570 	cmnvs	r4, #112, 10	; 0x1c000000
 390:	2e726168 	rpwcssz	f6, f2, #0.0
 394:	70720063 	rsbsvc	r0, r2, r3, rrx
 398:	65735f69 	ldrbvs	r5, [r3, #-3945]!	; 0xf69
 39c:	75705f74 	ldrbvc	r5, [r0, #-3956]!	; 0xf74
 3a0:	6c006374 	stcvs	3, cr6, [r0], {116}	; 0x74
 3a4:	2f636269 	svccs	0x00636269
 3a8:	6b747570 	blvs	1d1d970 <__bss_end__+0x1d135d8>
 3ac:	6900632e 	stmdbvs	r0, {r1, r2, r3, r5, r8, r9, sp, lr}
 3b0:	7265746e 	rsbvc	r7, r5, #1845493760	; 0x6e000000
 3b4:	5f6c616e 	svcpl	0x006c616e
 3b8:	6b747570 	blvs	1d1d980 <__bss_end__+0x1d135e8>
 3bc:	67656e00 	strbvs	r6, [r5, -r0, lsl #28]!
 3c0:	7200705f 	andvc	r7, r0, #95	; 0x5f
 3c4:	72657665 	rsbvc	r7, r5, #105906176	; 0x6500000
 3c8:	69006573 	stmdbvs	r0, {r0, r1, r4, r5, r6, r8, sl, sp, lr}
 3cc:	67696473 			; <UNDEFINED> instruction: 0x67696473
 3d0:	70007469 	andvc	r7, r0, r9, ror #8
 3d4:	5f737475 	svcpl	0x00737475
 3d8:	62007066 	andvs	r7, r0, #102	; 0x66
 3dc:	00657361 	rsbeq	r7, r5, r1, ror #6
 3e0:	6e676973 	mcrvs	9, 3, r6, cr7, cr3, {3}
 3e4:	705f6465 	subsvc	r6, pc, r5, ror #8
 3e8:	62696c00 	rsbvs	r6, r9, #0, 24
 3ec:	61762f63 	cmnvs	r6, r3, ror #30
 3f0:	6972702d 	ldmdbvs	r2!, {r0, r2, r3, r5, ip, sp, lr}^
 3f4:	2e6b746e 	cdpcs	4, 6, cr7, cr11, cr14, {3}
 3f8:	70720063 	rsbsvc	r0, r2, r3, rrx
 3fc:	65735f69 	ldrbvs	r5, [r3, #-3945]!	; 0xf69
 400:	756f5f74 	strbvc	r5, [pc, #-3956]!	; fffff494 <__bss_end__+0xffff50fc>
 404:	74757074 	ldrbtvc	r7, [r5], #-116	; 0x74
 408:	64697700 	strbtvs	r7, [r9], #-1792	; 0x700
 40c:	70006874 	andvc	r6, r0, r4, ror r8
 410:	5f637475 	svcpl	0x00637475
 414:	65007066 	strvs	r7, [r0, #-102]	; 0x66
 418:	0074696d 	rsbseq	r6, r4, sp, ror #18
 41c:	61736964 	cmnvs	r3, r4, ror #18
 420:	5f656c62 	svcpl	0x00656c62
 424:	68636163 	stmdavs	r3!, {r0, r1, r5, r6, r8, sp, lr}^
 428:	73630065 	cmnvc	r3, #101	; 0x65
 42c:	65303431 	ldrvs	r3, [r0, #-1073]!	; 0x431
 430:	6372732d 	cmnvs	r2, #-1275068416	; 0xb4000000
 434:	6361632f 	cmnvs	r1, #-1140850688	; 0xbc000000
 438:	632e6568 	teqvs	lr, #104, 10	; 0x1a000000
 43c:	69707200 	ldmdbvs	r0!, {r9, ip, sp, lr}^
 440:	6265725f 	rsbvs	r7, r5, #-268435451	; 0xf0000005
 444:	00746f6f 	rsbseq	r6, r4, pc, ror #30
 448:	34317363 	ldrtcc	r7, [r1], #-867	; 0x363
 44c:	732d6530 	teqvc	sp, #48, 10	; 0xc000000
 450:	632f6372 	teqvs	pc, #-939524095	; 0xc8000001
 454:	6e61656c 	cdpvs	5, 6, cr6, cr1, cr12, {3}
 458:	6265722d 	rsbvs	r7, r5, #-805306366	; 0xd0000002
 45c:	2e746f6f 	cdpcs	15, 7, cr6, cr4, cr15, {3}
 460:	6e690063 	cdpvs	0, 6, cr0, cr9, cr3, {3}
 464:	6e726574 	mrcvs	5, 3, r6, cr2, cr4, {3}
 468:	735f6c61 	cmpvc	pc, #24832	; 0x6100
 46c:	75705f77 	ldrbvc	r5, [r0, #-3959]!	; 0xf77
 470:	61686374 	smcvs	34356	; 0x8634
 474:	5f5f0072 	svcpl	0x005f0072
 478:	5f737362 	svcpl	0x00737362
 47c:	72617473 	rsbvc	r7, r1, #1929379840	; 0x73000000
 480:	005f5f74 	subseq	r5, pc, r4, ror pc	; <UNPREDICTABLE>
 484:	5f737362 	svcpl	0x00737362
 488:	00646e65 	rsbeq	r6, r4, r5, ror #28
 48c:	6c637963 	stclvs	9, cr7, [r3], #-396	; 0xfffffe74
 490:	65705f65 	ldrbvs	r5, [r0, #-3941]!	; 0xf65
 494:	69625f72 	stmdbvs	r2!, {r1, r4, r5, r6, r8, r9, sl, fp, ip, lr}^
 498:	6f630074 	svcvs	0x00630074
 49c:	6c6f736e 	stclvs	3, cr7, [pc], #-440	; 2ec <_start-0x7d14>
 4a0:	61755f65 	cmnvs	r5, r5, ror #30
 4a4:	73007472 	movwvc	r7, #1138	; 0x472
 4a8:	61755f77 	cmnvs	r5, r7, ror pc
 4ac:	705f7472 	subsvc	r7, pc, r2, ror r4	; <UNPREDICTABLE>
 4b0:	746e6972 	strbtvc	r6, [lr], #-2418	; 0x972
 4b4:	5550006b 	ldrbpl	r0, [r0, #-107]	; 0x6b
 4b8:	455f4354 	ldrbmi	r4, [pc, #-852]	; 16c <_start-0x7e94>
 4bc:	555f5053 	ldrbpl	r5, [pc, #-83]	; 471 <_start-0x7b8f>
 4c0:	00545241 	subseq	r5, r4, r1, asr #4
 4c4:	755f7773 	ldrbvc	r7, [pc, #-1907]	; fffffd59 <__bss_end__+0xffff59c1>
 4c8:	5f747261 	svcpl	0x00747261
 4cc:	55500074 	ldrbpl	r0, [r0, #-116]	; 0x74
 4d0:	535f4354 	cmppl	pc, #84, 6	; 0x50000001
 4d4:	41555f57 	cmpmi	r5, r7, asr pc
 4d8:	62005452 	andvs	r5, r0, #1375731712	; 0x52000000
 4dc:	00647561 	rsbeq	r7, r4, r1, ror #10
 4e0:	43545550 	cmpmi	r4, #80, 10	; 0x14000000
 4e4:	5f57485f 	svcpl	0x0057485f
 4e8:	54524155 	ldrbpl	r4, [r2], #-341	; 0x155
 4ec:	73635f00 	cmnvc	r3, #0, 30
 4f0:	74726174 	ldrbtvc	r6, [r2], #-372	; 0x174
 4f4:	72617500 	rsbvc	r7, r1, #0, 10
 4f8:	65645f74 	strbvs	r5, [r4, #-3956]!	; 0xf74
 4fc:	00745f76 	rsbseq	r5, r4, r6, ror pc
 500:	755f7773 	ldrbvc	r7, [pc, #-1907]	; fffffd95 <__bss_end__+0xffff59fd>
 504:	5f747261 	svcpl	0x00747261
 508:	63747570 	cmnvs	r4, #112, 10	; 0x1c000000
 50c:	6e697500 	cdpvs	5, 6, cr7, cr9, cr0, {0}
 510:	745f3874 	ldrbvc	r3, [pc], #-2164	; 518 <_start-0x7ae8>
 514:	6e6f6300 	cdpvs	3, 6, cr6, cr15, cr0, {0}
 518:	6c6f7274 	sfmvs	f7, 2, [pc], #-464	; 350 <_start-0x7cb0>
 51c:	6b6c625f 	blvs	1b18ea0 <__bss_end__+0x1b0eb08>
 520:	7300745f 	movwvc	r7, #1119	; 0x45f
 524:	61755f77 	cmnvs	r5, r7, ror pc
 528:	63007472 	movwvs	r7, #1138	; 0x472
 52c:	65675f62 	strbvs	r5, [r7, #-3938]!	; 0xf62
 530:	6c625f74 	stclvs	15, cr5, [r2], #-464	; 0xfffffe30
 534:	006b636f 	rsbeq	r6, fp, pc, ror #6
 538:	73625f5f 	cmnvc	r2, #380	; 0x17c
 53c:	6e655f73 	mcrvs	15, 3, r5, cr5, cr3, {3}
 540:	005f5f64 	subseq	r5, pc, r4, ror #30
 544:	34317363 	ldrtcc	r7, [r1], #-867	; 0x363
 548:	732d6530 	teqvc	sp, #48, 10	; 0xc000000
 54c:	632f6372 	teqvs	pc, #-939524095	; 0xc8000001
 550:	72617473 	rsbvc	r7, r1, #1929379840	; 0x73000000
 554:	00632e74 	rsbeq	r2, r3, r4, ror lr
 558:	736e6f63 	cmnvc	lr, #396	; 0x18c
 55c:	5f656c6f 	svcpl	0x00656c6f
 560:	00766564 	rsbseq	r6, r6, r4, ror #10
 564:	746e6975 	strbtvc	r6, [lr], #-2421	; 0x975
 568:	745f3233 	ldrbvc	r3, [pc], #-563	; 570 <_start-0x7a90>
 56c:	67616d00 	strbvs	r6, [r1, -r0, lsl #26]!
 570:	61006369 	tstvs	r0, r9, ror #6
 574:	73755f74 	cmnvc	r5, #116, 30	; 0x1d0
 578:	6c5f7265 	lfmvs	f7, 2, [pc], {101}	; 0x65
 57c:	6c657665 	stclvs	6, cr7, [r5], #-404	; 0xfffffe6c
 580:	5f4d5000 	svcpl	0x004d5000
 584:	53534150 	cmppl	r3, #80, 2
 588:	44524f57 	ldrbmi	r4, [r2], #-3927	; 0xf57
 58c:	31736300 	cmncc	r3, r0, lsl #6
 590:	2d653034 	stclcs	0, cr3, [r5, #-208]!	; 0xffffff30
 594:	2f637273 	svccs	0x00637273
 598:	6f626572 	svcvs	0x00626572
 59c:	632e746f 	teqvs	lr, #1862270976	; 0x6f000000
 5a0:	5f4d5000 	svcpl	0x004d5000
 5a4:	43545352 	cmpmi	r4, #1207959553	; 0x48000001
 5a8:	4352575f 	cmpmi	r2, #24903680	; 0x17c0000
 5ac:	465f4746 	ldrbmi	r4, [pc], -r6, asr #14
 5b0:	5f4c4c55 	svcpl	0x004c4c55
 5b4:	45534552 	ldrbmi	r4, [r3, #-1362]	; 0x552
 5b8:	4d500054 	ldclmi	0, cr0, [r0, #-336]	; 0xfffffeb0
 5bc:	4f44575f 	svcmi	0x0044575f
 5c0:	65730047 	ldrbvs	r0, [r3, #-71]!	; 0x47
 5c4:	73755f74 	cmnvc	r5, #116, 30	; 0x1d0
 5c8:	6c5f7265 	lfmvs	f7, 2, [pc], {101}	; 0x65
 5cc:	6c657665 	stclvs	6, cr7, [r5], #-404	; 0xfffffe6c
 5d0:	54555000 	ldrbpl	r5, [r5], #-0
 5d4:	50003233 	andpl	r3, r0, r3, lsr r2
 5d8:	53525f4d 	cmppl	r2, #308	; 0x134
 5dc:	63004354 	movwvs	r4, #852	; 0x354
 5e0:	00727370 	rsbseq	r7, r2, r0, ror r3
 5e4:	656d6974 	strbvs	r6, [sp, #-2420]!	; 0x974
 5e8:	65675f72 	strbvs	r5, [r7, #-3954]!	; 0xf72
 5ec:	73755f74 	cmnvc	r5, #116, 30	; 0x1d0
 5f0:	725f6365 	subsvc	r6, pc, #-1811939327	; 0x94000001
 5f4:	64007761 	strvs	r7, [r0], #-1889	; 0x761
 5f8:	79616c65 	stmdbvc	r1!, {r0, r2, r5, r6, sl, fp, sp, lr}^
 5fc:	6365735f 	cmnvs	r5, #2080374785	; 0x7c000001
 600:	31736300 	cmncc	r3, r0, lsl #6
 604:	2d653034 	stclcs	0, cr3, [r5, #-208]!	; 0xffffff30
 608:	2f637273 	svccs	0x00637273
 60c:	656d6974 	strbvs	r6, [sp, #-2420]!	; 0x974
 610:	00632e72 	rsbeq	r2, r3, r2, ror lr
 614:	33544547 	cmpcc	r4, #297795584	; 0x11c00000
 618:	69740032 	ldmdbvs	r4!, {r1, r4, r5}^
 61c:	00736b63 	rsbseq	r6, r3, r3, ror #22
 620:	616c6564 	cmnvs	ip, r4, ror #10
 624:	79635f79 	stmdbvc	r3!, {r0, r3, r4, r5, r6, r8, r9, sl, fp, ip, lr}^
 628:	73656c63 	cmnvc	r5, #25344	; 0x6300
 62c:	6c656400 	cfstrdvs	mvd6, [r5], #-0
 630:	755f7961 	ldrbvc	r7, [pc, #-2401]	; fffffcd7 <__bss_end__+0xffff593f>
 634:	69740073 	ldmdbvs	r4!, {r0, r1, r4, r5, r6}^
 638:	5f72656d 	svcpl	0x0072656d
 63c:	5f746567 	svcpl	0x00746567
 640:	63657375 	cmnvs	r5, #-738197503	; 0xd4000001
 644:	69706700 	ldmdbvs	r0!, {r8, r9, sl, sp, lr}^
 648:	76655f6f 	strbtvc	r5, [r5], -pc, ror #30
 64c:	5f746e65 	svcpl	0x00746e65
 650:	65746564 	ldrbvs	r6, [r4, #-1380]!	; 0x564
 654:	64657463 	strbtvs	r7, [r5], #-1123	; 0x463
 658:	74757000 	ldrbtvc	r7, [r5], #-0
 65c:	45003233 	strmi	r3, [r0, #-563]	; 0x233
 660:	4c42414e 	stfmie	f4, [r2], {78}	; 0x4e
 664:	52495f45 	subpl	r5, r9, #276	; 0x114
 668:	325f5351 	subscc	r5, pc, #1140850689	; 0x44000001
 66c:	5f736900 	svcpl	0x00736900
 670:	6f697067 	svcvs	0x00697067
 674:	746e695f 	strbtvc	r6, [lr], #-2399	; 0x95f
 678:	49504700 	ldmdbmi	r0, {r8, r9, sl, lr}^
 67c:	55465f4f 	strbpl	r5, [r6, #-3919]	; 0xf4f
 680:	495f434e 	ldmdbmi	pc, {r1, r2, r3, r6, r8, r9, lr}^	; <UNPREDICTABLE>
 684:	5455504e 	ldrbpl	r5, [r5], #-78	; 0x4e
 688:	69706700 	ldmdbvs	r0!, {r8, r9, sl, sp, lr}^
 68c:	65735f6f 	ldrbvs	r5, [r3, #-3951]!	; 0xf6f
 690:	666f5f74 	uqsub16vs	r5, pc, r4	; <UNPREDICTABLE>
 694:	796d0066 	stmdbvc	sp!, {r1, r2, r5, r6}^
 698:	6372732d 	cmnvs	r2, #-1275068416	; 0xb4000000
 69c:	6970672f 	ldmdbvs	r0!, {r0, r1, r2, r3, r5, r8, r9, sl, sp, lr}^
 6a0:	00632e6f 	rsbeq	r2, r3, pc, ror #28
 6a4:	5f746e69 	svcpl	0x00746e69
 6a8:	6b73616d 	blvs	1cd8c64 <__bss_end__+0x1cce8cc>
 6ac:	67657200 	strbvs	r7, [r5, -r0, lsl #4]!
 6b0:	6174735f 	cmnvs	r4, pc, asr r3
 6b4:	70670074 	rsbvc	r0, r7, r4, ror r0
 6b8:	725f6f69 	subsvc	r6, pc, #420	; 0x1a4
 6bc:	64006765 	strvs	r6, [r0], #-1893	; 0x765
 6c0:	625f7665 	subsvs	r7, pc, #105906176	; 0x6500000
 6c4:	69727261 	ldmdbvs	r2!, {r0, r5, r6, r9, ip, sp, lr}^
 6c8:	67007265 	strvs	r7, [r0, -r5, ror #4]
 6cc:	5f6f6970 	svcpl	0x006f6970
 6d0:	5f746e69 	svcpl	0x00746e69
 6d4:	69736972 	ldmdbvs	r3!, {r1, r4, r5, r6, r8, fp, sp, lr}^
 6d8:	655f676e 	ldrbvs	r6, [pc, #-1902]	; ffffff72 <__bss_end__+0xffff5bda>
 6dc:	00656764 	rsbeq	r6, r5, r4, ror #14
 6e0:	6f697067 	svcvs	0x00697067
 6e4:	7465735f 	strbtvc	r7, [r5], #-863	; 0x35f
 6e8:	6e75665f 	mrcvs	6, 3, r6, cr5, cr15, {2}
 6ec:	6f697463 	svcvs	0x00697463
 6f0:	5047006e 	subpl	r0, r7, lr, rrx
 6f4:	304e4552 	subcc	r4, lr, r2, asr r5
 6f8:	52504700 	subspl	r4, r0, #0, 14
 6fc:	00314e45 	eorseq	r4, r1, r5, asr #28
 700:	6f697067 	svcvs	0x00697067
 704:	6576655f 	ldrbvs	r6, [r6, #-1375]!	; 0x55f
 708:	635f746e 	cmpvs	pc, #1845493760	; 0x6e000000
 70c:	7261656c 	rsbvc	r6, r1, #108, 10	; 0x1b000000
 710:	51524900 	cmppl	r2, r0, lsl #18
 714:	4e45505f 	mcrmi	0, 2, r5, cr5, cr15, {2}
 718:	474e4944 	strbmi	r4, [lr, -r4, asr #18]
 71c:	4900315f 	stmdbmi	r0, {r0, r1, r2, r3, r4, r6, r8, ip, sp}
 720:	505f5152 	subspl	r5, pc, r2, asr r1	; <UNPREDICTABLE>
 724:	49444e45 	stmdbmi	r4, {r0, r2, r6, r9, sl, fp, lr}^
 728:	325f474e 	subscc	r4, pc, #20447232	; 0x1380000
 72c:	74696200 	strbtvc	r6, [r9], #-512	; 0x200
 730:	6b73616d 	blvs	1cd8cec <__bss_end__+0x1cce954>
 734:	69706700 	ldmdbvs	r0!, {r8, r9, sl, sp, lr}^
 738:	72775f6f 	rsbsvc	r5, r7, #444	; 0x1bc
 73c:	00657469 	rsbeq	r7, r5, r9, ror #8
 740:	636e7566 	cmnvs	lr, #427819008	; 0x19800000
 744:	69706700 	ldmdbvs	r0!, {r8, r9, sl, sp, lr}^
 748:	6f745f6f 	svcvs	0x00745f6f
 74c:	656c6767 	strbvs	r6, [ip, #-1895]!	; 0x767
 750:	45504700 	ldrbmi	r4, [r0, #-1792]	; 0x700
 754:	00305344 	eorseq	r5, r0, r4, asr #6
 758:	44455047 	strbmi	r5, [r5], #-71	; 0x47
 75c:	67003153 	smlsdvs	r0, r3, r1, r3
 760:	5f6f6970 	svcpl	0x006f6970
 764:	5f746573 	svcpl	0x00746573
 768:	47006e6f 	strmi	r6, [r0, -pc, ror #28]
 76c:	4e454650 	mcrmi	6, 2, r4, cr5, cr0, {2}
 770:	50470030 	subpl	r0, r7, r0, lsr r0
 774:	314e4546 	cmpcc	lr, r6, asr #10
 778:	69706700 	ldmdbvs	r0!, {r8, r9, sl, sp, lr}^
 77c:	65735f6f 	ldrbvs	r5, [r3, #-3951]!	; 0xf6f
 780:	756f5f74 	strbvc	r5, [pc, #-3956]!	; fffff814 <__bss_end__+0xffff547c>
 784:	74757074 	ldrbtvc	r7, [r5], #-116	; 0x74
 788:	49504700 	ldmdbmi	r0, {r8, r9, sl, lr}^
 78c:	55465f4f 	strbpl	r5, [r6, #-3919]	; 0xf4f
 790:	4f5f434e 	svcmi	0x005f434e
 794:	55505455 	ldrbpl	r5, [r0, #-1109]	; 0x455
 798:	65670054 	strbvs	r0, [r7, #-84]!	; 0x54
 79c:	00323374 	eorseq	r3, r2, r4, ror r3
 7a0:	6f697067 	svcvs	0x00697067
 7a4:	746e695f 	strbtvc	r6, [lr], #-2399	; 0x95f
 7a8:	6c61665f 	stclvs	6, cr6, [r1], #-380	; 0xfffffe84
 7ac:	676e696c 	strbvs	r6, [lr, -ip, ror #18]!
 7b0:	6764655f 			; <UNDEFINED> instruction: 0x6764655f
 7b4:	70670065 	rsbvc	r0, r7, r5, rrx
 7b8:	665f6f69 	ldrbvs	r6, [pc], -r9, ror #30
 7bc:	5f636e75 	svcpl	0x00636e75
 7c0:	50470074 	subpl	r0, r7, r4, ror r0
 7c4:	465f4f49 	ldrbmi	r4, [pc], -r9, asr #30
 7c8:	5f434e55 	svcpl	0x00434e55
 7cc:	30544c41 	subscc	r4, r4, r1, asr #24
 7d0:	49504700 	ldmdbmi	r0, {r8, r9, sl, lr}^
 7d4:	55465f4f 	strbpl	r5, [r6, #-3919]	; 0xf4f
 7d8:	415f434e 	cmpmi	pc, lr, asr #6
 7dc:	0031544c 	eorseq	r5, r1, ip, asr #8
 7e0:	4f495047 	svcmi	0x00495047
 7e4:	4e55465f 	mrcmi	6, 2, r4, cr5, cr15, {2}
 7e8:	4c415f43 	mcrrmi	15, 4, r5, r1, cr3
 7ec:	47003254 	smlsdmi	r0, r4, r2, r3
 7f0:	5f4f4950 	svcpl	0x004f4950
 7f4:	434e5546 	movtmi	r5, #58694	; 0xe546
 7f8:	544c415f 	strbpl	r4, [ip], #-351	; 0x15f
 7fc:	50470033 	subpl	r0, r7, r3, lsr r0
 800:	465f4f49 	ldrbmi	r4, [pc], -r9, asr #30
 804:	5f434e55 	svcpl	0x00434e55
 808:	34544c41 	ldrbcc	r4, [r4], #-3137	; 0xc41
 80c:	49504700 	ldmdbmi	r0, {r8, r9, sl, lr}^
 810:	55465f4f 	strbpl	r5, [r6, #-3919]	; 0xf4f
 814:	415f434e 	cmpmi	pc, lr, asr #6
 818:	0035544c 	eorseq	r5, r5, ip, asr #8
 81c:	5f676572 	svcpl	0x00676572
 820:	656c6573 	strbvs	r6, [ip, #-1395]!	; 0x573
 824:	63007463 	movwvs	r7, #1123	; 0x463
 828:	705f6379 	subsvc	r6, pc, r9, ror r3	; <UNPREDICTABLE>
 82c:	625f7265 	subsvs	r7, pc, #1342177286	; 0x50000006
 830:	77007469 	strvc	r7, [r0, -r9, ror #8]
 834:	65746972 	ldrbvs	r6, [r4, #-2418]!	; 0x972
 838:	6379635f 	cmnvs	r9, #2080374785	; 0x7c000001
 83c:	746e755f 	strbtvc	r7, [lr], #-1375	; 0x55f
 840:	73006c69 	movwvc	r6, #3177	; 0xc69
 844:	61755f77 	cmnvs	r5, r7, ror pc
 848:	675f7472 			; <UNDEFINED> instruction: 0x675f7472
 84c:	5f637465 	svcpl	0x00637465
 850:	656d6974 	strbvs	r6, [sp, #-2420]!	; 0x974
 854:	0074756f 	rsbseq	r7, r4, pc, ror #10
 858:	755f7773 	ldrbvc	r7, [pc, #-1907]	; ed <_start-0x7f13>
 85c:	5f747261 	svcpl	0x00747261
 860:	73746567 	cmnvc	r4, #432013312	; 0x19c00000
 864:	746e755f 	strbtvc	r7, [lr], #-1375	; 0x55f
 868:	73006c69 	movwvc	r6, #3177	; 0xc69
 86c:	61755f77 	cmnvs	r5, r7, ror pc
 870:	675f7472 			; <UNDEFINED> instruction: 0x675f7472
 874:	00637465 	rsbeq	r7, r3, r5, ror #8
 878:	69726564 	ldmdbvs	r2!, {r2, r5, r6, r8, sl, sp, lr}^
 87c:	00646576 	rsbeq	r6, r4, r6, ror r5
 880:	616c6564 	cmnvs	ip, r4, ror #10
 884:	636e5f79 	cmnvs	lr, #484	; 0x1e4
 888:	656c6379 	strbvs	r6, [ip, #-889]!	; 0x379
 88c:	77730073 			; <UNDEFINED> instruction: 0x77730073
 890:	7261755f 	rsbvc	r7, r1, #398458880	; 0x17c00000
 894:	6e695f74 	mcrvs	15, 3, r5, cr9, cr4, {3}
 898:	685f7469 	ldmdavs	pc, {r0, r3, r5, r6, sl, ip, sp, lr}^	; <UNPREDICTABLE>
 89c:	65706c65 	ldrbvs	r6, [r0, #-3173]!	; 0xc65
 8a0:	69740072 	ldmdbvs	r4!, {r1, r4, r5, r6}^
 8a4:	756f656d 	strbvc	r6, [pc, #-1389]!	; 33f <_start-0x7cc1>
 8a8:	73755f74 	cmnvc	r5, #116, 30	; 0x1d0
 8ac:	73006365 	movwvc	r6, #869	; 0x365
 8b0:	61755f77 	cmnvs	r5, r7, ror pc
 8b4:	705f7472 	subsvc	r7, pc, r2, ror r4	; <UNPREDICTABLE>
 8b8:	006b7475 	rsbeq	r7, fp, r5, ror r4
 8bc:	732d796d 	teqvc	sp, #1785856	; 0x1b4000
 8c0:	732f6372 	teqvc	pc, #-939524095	; 0xc8000001
 8c4:	61752d77 	cmnvs	r5, r7, ror sp
 8c8:	632e7472 	teqvs	lr, #1912602624	; 0x72000000
 8cc:	61686300 	cmnvs	r8, r0, lsl #6
 8d0:	6e695f72 	mcrvs	15, 3, r5, cr9, cr2, {3}
 8d4:	5f777300 	svcpl	0x00777300
 8d8:	74726175 	ldrbtvc	r6, [r2], #-373	; 0x175
 8dc:	7465675f 	strbtvc	r6, [r5], #-1887	; 0x75f
 8e0:	69745f73 	ldmdbvs	r4!, {r0, r1, r4, r5, r6, r8, r9, sl, fp, ip, lr}^
 8e4:	756f656d 	strbvc	r6, [pc, #-1389]!	; 37f <_start-0x7c81>
 8e8:	626e0074 	rsbvs	r0, lr, #116	; 0x74
 8ec:	73657479 	cmnvc	r5, #2030043136	; 0x79000000
 8f0:	65737500 	ldrbvs	r7, [r3, #-1280]!	; 0x500
 8f4:	69745f63 	ldmdbvs	r4!, {r0, r1, r5, r6, r8, r9, sl, fp, ip, lr}^
 8f8:	756f656d 	strbvc	r6, [pc, #-1389]!	; 393 <_start-0x7c6d>
 8fc:	77730074 			; <UNDEFINED> instruction: 0x77730074
 900:	7261755f 	rsbvc	r7, r1, #398458880	; 0x17c00000
 904:	65675f74 	strbvs	r5, [r7, #-3956]!	; 0xf74
 908:	755f7374 	ldrbvc	r7, [pc, #-884]	; 59c <_start-0x7a64>
 90c:	6c69746e 	cfstrdvs	mvd7, [r9], #-440	; 0xfffffe48
 910:	6b6c625f 	blvs	1b19294 <__bss_end__+0x1b0eefc>
 914:	69617700 	stmdbvs	r1!, {r8, r9, sl, ip, sp, lr}^
 918:	6e755f74 	mrcvs	15, 3, r5, cr5, cr4, {3}
 91c:	5f6c6974 	svcpl	0x006c6974
 920:	63657375 	cmnvs	r5, #-738197503	; 0xd4000001
 924:	58554100 	ldmdapl	r5, {r8, lr}^
 928:	5f554d5f 	svcpl	0x00554d5f
 92c:	5f52434d 	svcpl	0x0052434d
 930:	00474552 	subeq	r4, r7, r2, asr r5
 934:	5f585541 	svcpl	0x00585541
 938:	495f554d 	ldmdbmi	pc, {r0, r2, r3, r6, r8, sl, ip, lr}^	; <UNPREDICTABLE>
 93c:	45525f4f 	ldrbmi	r5, [r2, #-3919]	; 0xf4f
 940:	55410047 	strbpl	r0, [r1, #-71]	; 0x47
 944:	554d5f58 	strbpl	r5, [sp, #-3928]	; 0xf58
 948:	52534d5f 	subspl	r4, r3, #6080	; 0x17c0
 94c:	4745525f 	smlsldmi	r5, r5, pc, r2	; <UNPREDICTABLE>
 950:	72617500 	rsbvc	r7, r1, #0, 10
 954:	61635f74 	smcvs	13812	; 0x35f4
 958:	65675f6e 	strbvs	r5, [r7, #-3950]!	; 0xf6e
 95c:	41006374 	tstmi	r0, r4, ror r3
 960:	4d5f5855 	ldclmi	8, cr5, [pc, #-340]	; 814 <_start-0x77ec>
 964:	4e435f55 	mcrmi	15, 2, r5, cr3, cr5, {2}
 968:	525f4c54 	subspl	r4, pc, #84, 24	; 0x5400
 96c:	75004745 	strvc	r4, [r0, #-1861]	; 0x745
 970:	5f747261 	svcpl	0x00747261
 974:	5f736168 	svcpl	0x00736168
 978:	61746164 	cmnvs	r4, r4, ror #2
 97c:	72617500 	rsbvc	r7, r1, #0, 10
 980:	6e695f74 	mcrvs	15, 3, r5, cr9, cr4, {3}
 984:	41007469 	tstmi	r0, r9, ror #8
 988:	4d5f5855 	ldclmi	8, cr5, [pc, #-340]	; 83c <_start-0x77c4>
 98c:	45495f55 	strbmi	r5, [r9, #-3925]	; 0xf55
 990:	45525f52 	ldrbmi	r5, [r2, #-3922]	; 0xf52
 994:	55410047 	strbpl	r0, [r1, #-71]	; 0x47
 998:	554d5f58 	strbpl	r5, [sp, #-3928]	; 0xf58
 99c:	5249495f 	subpl	r4, r9, #1556480	; 0x17c000
 9a0:	4745525f 	smlsldmi	r5, r5, pc, r2	; <UNPREDICTABLE>
 9a4:	72617500 	rsbvc	r7, r1, #0, 10
 9a8:	61635f74 	smcvs	13812	; 0x35f4
 9ac:	75705f6e 	ldrbvc	r5, [r0, #-3950]!	; 0xf6e
 9b0:	41006374 	tstmi	r0, r4, ror r3
 9b4:	455f5855 	ldrbmi	r5, [pc, #-2133]	; 167 <_start-0x7e99>
 9b8:	4c42414e 	stfmie	f4, [r2], {78}	; 0x4e
 9bc:	41005345 	tstmi	r0, r5, asr #6
 9c0:	495f5855 	ldmdbmi	pc, {r0, r2, r4, r6, fp, ip, lr}^	; <UNPREDICTABLE>
 9c4:	41005152 	tstmi	r0, r2, asr r1
 9c8:	4d5f5855 	ldclmi	8, cr5, [pc, #-340]	; 87c <_start-0x7784>
 9cc:	41425f55 	cmpmi	r2, r5, asr pc
 9d0:	525f4455 	subspl	r4, pc, #1426063360	; 0x55000000
 9d4:	41004745 	tstmi	r0, r5, asr #14
 9d8:	4d5f5855 	ldclmi	8, cr5, [pc, #-340]	; 88c <_start-0x7774>
 9dc:	54535f55 	ldrbpl	r5, [r3], #-3925	; 0xf55
 9e0:	525f5441 	subspl	r5, pc, #1090519040	; 0x41000000
 9e4:	41004745 	tstmi	r0, r5, asr #14
 9e8:	4d5f5855 	ldclmi	8, cr5, [pc, #-340]	; 89c <_start-0x7764>
 9ec:	43535f55 	cmpmi	r3, #340	; 0x154
 9f0:	43544152 	cmpmi	r4, #-2147483628	; 0x80000014
 9f4:	796d0048 	stmdbvc	sp!, {r3, r6}^
 9f8:	6372732d 	cmnvs	r2, #-1275068416	; 0xb4000000
 9fc:	7261752f 	rsbvc	r7, r1, #197132288	; 0xbc00000
 a00:	00632e74 	rsbeq	r2, r3, r4, ror lr
 a04:	5f585541 	svcpl	0x00585541
 a08:	4c5f554d 	cfldr64mi	mvdx5, [pc], {77}	; 0x4d
 a0c:	525f5243 	subspl	r5, pc, #805306372	; 0x30000004
 a10:	41004745 	tstmi	r0, r5, asr #14
 a14:	4d5f5855 	ldclmi	8, cr5, [pc, #-340]	; 8c8 <_start-0x7738>
 a18:	534c5f55 	movtpl	r5, #53077	; 0xcf55
 a1c:	45525f52 	ldrbmi	r5, [r2, #-3922]	; 0xf52
 a20:	61750047 	cmnvs	r5, r7, asr #32
 a24:	675f7472 			; <UNDEFINED> instruction: 0x675f7472
 a28:	5f637465 	svcpl	0x00637465
 a2c:	6e797361 	cdpvs	3, 7, cr7, cr9, cr1, {3}
 a30:	69730063 	ldmdbvs	r3!, {r0, r1, r5, r6}^
 a34:	745f657a 	ldrbvc	r6, [pc], #-1402	; a3c <_start-0x75c4>
 a38:	6d656d00 	stclvs	13, cr6, [r5, #-0]
 a3c:	00746573 	rsbseq	r6, r4, r3, ror r5
 a40:	6e5f6263 	cdpvs	2, 5, cr6, cr15, cr3, {3}
 a44:	63007765 	movwvs	r7, #1893	; 0x765
 a48:	30343173 	eorscc	r3, r4, r3, ror r1
 a4c:	72732d65 	rsbsvc	r2, r3, #6464	; 0x1940
 a50:	6f632f63 	svcvs	0x00632f63
 a54:	6f72746e 	svcvs	0x0072746e
 a58:	6c622d6c 	stclvs	13, cr2, [r2], #-432	; 0xfffffe50
 a5c:	2e6b636f 	cdpcs	3, 6, cr6, cr11, cr15, {3}
 a60:	696c0063 	stmdbvs	ip!, {r0, r1, r5, r6}^
 a64:	6d2f6362 	stcvs	3, cr6, [pc, #-392]!	; 8e4 <_start-0x771c>
 a68:	65736d65 	ldrbvs	r6, [r3, #-3429]!	; 0xd65
 a6c:	00632e74 	rsbeq	r2, r3, r4, ror lr

Disassembly of section .debug_frame:

00000000 <.debug_frame>:
   0:	0000000c 	andeq	r0, r0, ip
   4:	ffffffff 			; <UNDEFINED> instruction: 0xffffffff
   8:	7c020001 	stcvc	0, cr0, [r2], {1}
   c:	000d0c0e 	andeq	r0, sp, lr, lsl #24
  10:	00000014 	andeq	r0, r0, r4, lsl r0
  14:	00000000 	andeq	r0, r0, r0
  18:	00008010 	andeq	r8, r0, r0, lsl r0
  1c:	00000050 	andeq	r0, r0, r0, asr r0
  20:	84080e44 	strhi	r0, [r8], #-3652	; 0xe44
  24:	00018e02 	andeq	r8, r1, r2, lsl #28
  28:	00000024 	andeq	r0, r0, r4, lsr #32
  2c:	00000000 	andeq	r0, r0, r0
  30:	00008060 	andeq	r8, r0, r0, rrx
  34:	00000478 	andeq	r0, r0, r8, ror r4
  38:	84200e42 	strthi	r0, [r0], #-3650	; 0xe42
  3c:	86078508 	strhi	r8, [r7], -r8, lsl #10
  40:	88058706 	stmdahi	r5, {r1, r2, r8, r9, sl, pc}
  44:	8a038904 	bhi	e245c <__bss_end__+0xd80c4>
  48:	44018e02 	strmi	r8, [r1], #-3586	; 0xe02
  4c:	0000780e 	andeq	r7, r0, lr, lsl #16
  50:	00000024 	andeq	r0, r0, r4, lsr #32
  54:	00000000 	andeq	r0, r0, r0
  58:	000084d8 	ldrdeq	r8, [r0], -r8	; <UNPREDICTABLE>
  5c:	00000090 	muleq	r0, r0, r0
  60:	84200e42 	strthi	r0, [r0], #-3650	; 0xe42
  64:	86078508 	strhi	r8, [r7], -r8, lsl #10
  68:	88058706 	stmdahi	r5, {r1, r2, r8, r9, sl, pc}
  6c:	8a038904 	bhi	e2484 <__bss_end__+0xd80ec>
  70:	44018e02 	strmi	r8, [r1], #-3586	; 0xe02
  74:	0000300e 	andeq	r3, r0, lr
  78:	00000014 	andeq	r0, r0, r4, lsl r0
  7c:	00000000 	andeq	r0, r0, r0
  80:	00008568 	andeq	r8, r0, r8, ror #10
  84:	00000050 	andeq	r0, r0, r0, asr r0
  88:	8e040e42 	cdphi	14, 0, cr0, cr4, cr2, {2}
  8c:	580e4201 	stmdapl	lr, {r0, r9, lr}
  90:	0000000c 	andeq	r0, r0, ip
  94:	ffffffff 			; <UNDEFINED> instruction: 0xffffffff
  98:	7c020001 	stcvc	0, cr0, [r2], {1}
  9c:	000d0c0e 	andeq	r0, sp, lr, lsl #24
  a0:	00000024 	andeq	r0, r0, r4, lsr #32
  a4:	00000090 	muleq	r0, r0, r0
  a8:	000085b8 			; <UNDEFINED> instruction: 0x000085b8
  ac:	00000058 	andeq	r0, r0, r8, asr r0
  b0:	80100e42 	andshi	r0, r0, r2, asr #28
  b4:	82038104 	andhi	r8, r3, #4, 2
  b8:	42018302 	andmi	r8, r1, #134217728	; 0x8000000
  bc:	07841c0e 	streq	r1, [r4, lr, lsl #24]
  c0:	058e0685 	streq	r0, [lr, #1669]	; 0x685
  c4:	00280e42 	eoreq	r0, r8, r2, asr #28
  c8:	0000000c 	andeq	r0, r0, ip
  cc:	ffffffff 			; <UNDEFINED> instruction: 0xffffffff
  d0:	7c020001 	stcvc	0, cr0, [r2], {1}
  d4:	000d0c0e 	andeq	r0, sp, lr, lsl #24
  d8:	00000014 	andeq	r0, r0, r4, lsl r0
  dc:	000000c8 	andeq	r0, r0, r8, asr #1
  e0:	00008610 	andeq	r8, r0, r0, lsl r6
  e4:	00000014 	andeq	r0, r0, r4, lsl r0
  e8:	84080e42 	strhi	r0, [r8], #-3650	; 0xe42
  ec:	00018e02 	andeq	r8, r1, r2, lsl #28
  f0:	0000000c 	andeq	r0, r0, ip
  f4:	000000c8 	andeq	r0, r0, r8, asr #1
  f8:	00008624 	andeq	r8, r0, r4, lsr #12
  fc:	00000018 	andeq	r0, r0, r8, lsl r0
 100:	0000000c 	andeq	r0, r0, ip
 104:	000000c8 	andeq	r0, r0, r8, asr #1
 108:	0000863c 	andeq	r8, r0, ip, lsr r6
 10c:	00000010 	andeq	r0, r0, r0, lsl r0
 110:	0000000c 	andeq	r0, r0, ip
 114:	ffffffff 			; <UNDEFINED> instruction: 0xffffffff
 118:	7c020001 	stcvc	0, cr0, [r2], {1}
 11c:	000d0c0e 	andeq	r0, sp, lr, lsl #24
 120:	00000018 	andeq	r0, r0, r8, lsl r0
 124:	00000110 	andeq	r0, r0, r0, lsl r1
 128:	0000864c 	andeq	r8, r0, ip, asr #12
 12c:	00000034 	andeq	r0, r0, r4, lsr r0
 130:	83100e42 	tsthi	r0, #1056	; 0x420
 134:	85038404 	strhi	r8, [r3, #-1028]	; 0x404
 138:	00018e02 	andeq	r8, r1, r2, lsl #28
 13c:	0000000c 	andeq	r0, r0, ip
 140:	ffffffff 			; <UNDEFINED> instruction: 0xffffffff
 144:	7c020001 	stcvc	0, cr0, [r2], {1}
 148:	000d0c0e 	andeq	r0, sp, lr, lsl #24
 14c:	0000000c 	andeq	r0, r0, ip
 150:	0000013c 	andeq	r0, r0, ip, lsr r1
 154:	00008680 	andeq	r8, r0, r0, lsl #13
 158:	00000014 	andeq	r0, r0, r4, lsl r0
 15c:	0000000c 	andeq	r0, r0, ip
 160:	0000013c 	andeq	r0, r0, ip, lsr r1
 164:	00008694 	muleq	r0, r4, r6
 168:	0000002c 	andeq	r0, r0, ip, lsr #32
 16c:	0000000c 	andeq	r0, r0, ip
 170:	0000013c 	andeq	r0, r0, ip, lsr r1
 174:	000086c0 	andeq	r8, r0, r0, asr #13
 178:	00000040 	andeq	r0, r0, r0, asr #32
 17c:	00000020 	andeq	r0, r0, r0, lsr #32
 180:	0000013c 	andeq	r0, r0, ip, lsr r1
 184:	00008700 	andeq	r8, r0, r0, lsl #14
 188:	000001a8 	andeq	r0, r0, r8, lsr #3
 18c:	84180e42 	ldrhi	r0, [r8], #-3650	; 0xe42
 190:	86058506 	strhi	r8, [r5], -r6, lsl #10
 194:	88038704 	stmdahi	r3, {r2, r8, r9, sl, pc}
 198:	42018e02 	andmi	r8, r1, #2, 28
 19c:	0000600e 	andeq	r6, r0, lr
 1a0:	00000014 	andeq	r0, r0, r4, lsl r0
 1a4:	0000013c 	andeq	r0, r0, ip, lsr r1
 1a8:	000088a8 	andeq	r8, r0, r8, lsr #17
 1ac:	00000068 	andeq	r0, r0, r8, rrx
 1b0:	8e040e42 	cdphi	14, 0, cr0, cr4, cr2, {2}
 1b4:	100e4201 	andne	r4, lr, r1, lsl #4
 1b8:	00000028 	andeq	r0, r0, r8, lsr #32
 1bc:	0000013c 	andeq	r0, r0, ip, lsr r1
 1c0:	00008910 	andeq	r8, r0, r0, lsl r9
 1c4:	00000294 	muleq	r0, r4, r2
 1c8:	84240e42 	strthi	r0, [r4], #-3650	; 0xe42
 1cc:	86088509 	strhi	r8, [r8], -r9, lsl #10
 1d0:	88068707 	stmdahi	r6, {r0, r1, r2, r8, r9, sl, pc}
 1d4:	8a048905 	bhi	1225f0 <__bss_end__+0x118258>
 1d8:	8e028b03 	vmlahi.f64	d8, d2, d3
 1dc:	b00e4201 	andlt	r4, lr, r1, lsl #4
 1e0:	00000001 	andeq	r0, r0, r1
 1e4:	0000000c 	andeq	r0, r0, ip
 1e8:	ffffffff 			; <UNDEFINED> instruction: 0xffffffff
 1ec:	7c020001 	stcvc	0, cr0, [r2], {1}
 1f0:	000d0c0e 	andeq	r0, sp, lr, lsl #24
 1f4:	0000000c 	andeq	r0, r0, ip
 1f8:	000001e4 	andeq	r0, r0, r4, ror #3
 1fc:	00008ba4 	andeq	r8, r0, r4, lsr #23
 200:	00000010 	andeq	r0, r0, r0, lsl r0
 204:	0000000c 	andeq	r0, r0, ip
 208:	000001e4 	andeq	r0, r0, r4, ror #3
 20c:	00008bb4 			; <UNDEFINED> instruction: 0x00008bb4
 210:	00000010 	andeq	r0, r0, r0, lsl r0
 214:	0000000c 	andeq	r0, r0, ip
 218:	ffffffff 			; <UNDEFINED> instruction: 0xffffffff
 21c:	7c020001 	stcvc	0, cr0, [r2], {1}
 220:	000d0c0e 	andeq	r0, sp, lr, lsl #24
 224:	00000014 	andeq	r0, r0, r4, lsl r0
 228:	00000214 	andeq	r0, r0, r4, lsl r2
 22c:	00008bc4 	andeq	r8, r0, r4, asr #23
 230:	00000028 	andeq	r0, r0, r8, lsr #32
 234:	83080e42 	movwhi	r0, #36418	; 0x8e42
 238:	00018e02 	andeq	r8, r1, r2, lsl #28
 23c:	0000000c 	andeq	r0, r0, ip
 240:	ffffffff 			; <UNDEFINED> instruction: 0xffffffff
 244:	7c020001 	stcvc	0, cr0, [r2], {1}
 248:	000d0c0e 	andeq	r0, sp, lr, lsl #24
 24c:	00000014 	andeq	r0, r0, r4, lsl r0
 250:	0000023c 	andeq	r0, r0, ip, lsr r2
 254:	00008bec 	andeq	r8, r0, ip, ror #23
 258:	00000020 	andeq	r0, r0, r0, lsr #32
 25c:	84080e42 	strhi	r0, [r8], #-3650	; 0xe42
 260:	00018e02 	andeq	r8, r1, r2, lsl #28
 264:	00000014 	andeq	r0, r0, r4, lsl r0
 268:	0000023c 	andeq	r0, r0, ip, lsr r2
 26c:	00008c0c 	andeq	r8, r0, ip, lsl #24
 270:	00000090 	muleq	r0, r0, r0
 274:	83080e42 	movwhi	r0, #36418	; 0x8e42
 278:	00018e02 	andeq	r8, r1, r2, lsl #28
 27c:	0000000c 	andeq	r0, r0, ip
 280:	ffffffff 			; <UNDEFINED> instruction: 0xffffffff
 284:	7c020001 	stcvc	0, cr0, [r2], {1}
 288:	000d0c0e 	andeq	r0, sp, lr, lsl #24
 28c:	0000000c 	andeq	r0, r0, ip
 290:	0000027c 	andeq	r0, r0, ip, ror r2
 294:	00008c9c 	muleq	r0, ip, ip
 298:	00000018 	andeq	r0, r0, r8, lsl r0
 29c:	0000000c 	andeq	r0, r0, ip
 2a0:	0000027c 	andeq	r0, r0, ip, ror r2
 2a4:	00008cb4 			; <UNDEFINED> instruction: 0x00008cb4
 2a8:	00000014 	andeq	r0, r0, r4, lsl r0
 2ac:	00000014 	andeq	r0, r0, r4, lsl r0
 2b0:	0000027c 	andeq	r0, r0, ip, ror r2
 2b4:	00008cc8 	andeq	r8, r0, r8, asr #25
 2b8:	00000048 	andeq	r0, r0, r8, asr #32
 2bc:	83080e42 	movwhi	r0, #36418	; 0x8e42
 2c0:	00018e02 	andeq	r8, r1, r2, lsl #28
 2c4:	0000000c 	andeq	r0, r0, ip
 2c8:	ffffffff 			; <UNDEFINED> instruction: 0xffffffff
 2cc:	7c020001 	stcvc	0, cr0, [r2], {1}
 2d0:	000d0c0e 	andeq	r0, sp, lr, lsl #24
 2d4:	0000000c 	andeq	r0, r0, ip
 2d8:	000002c4 	andeq	r0, r0, r4, asr #5
 2dc:	00008d10 	andeq	r8, r0, r0, lsl sp
 2e0:	0000001c 	andeq	r0, r0, ip, lsl r0
 2e4:	00000014 	andeq	r0, r0, r4, lsl r0
 2e8:	000002c4 	andeq	r0, r0, r4, asr #5
 2ec:	00008d2c 	andeq	r8, r0, ip, lsr #26
 2f0:	00000014 	andeq	r0, r0, r4, lsl r0
 2f4:	83080e42 	movwhi	r0, #36418	; 0x8e42
 2f8:	00018e02 	andeq	r8, r1, r2, lsl #28
 2fc:	00000014 	andeq	r0, r0, r4, lsl r0
 300:	000002c4 	andeq	r0, r0, r4, asr #5
 304:	00008d40 	andeq	r8, r0, r0, asr #26
 308:	0000000c 	andeq	r0, r0, ip
 30c:	83080e42 	movwhi	r0, #36418	; 0x8e42
 310:	00018e02 	andeq	r8, r1, r2, lsl #28
 314:	00000018 	andeq	r0, r0, r8, lsl r0
 318:	000002c4 	andeq	r0, r0, r4, asr #5
 31c:	00008d4c 	andeq	r8, r0, ip, asr #26
 320:	00000024 	andeq	r0, r0, r4, lsr #32
 324:	83100e42 	tsthi	r0, #1056	; 0x420
 328:	85038404 	strhi	r8, [r3, #-1028]	; 0x404
 32c:	00018e02 	andeq	r8, r1, r2, lsl #28
 330:	00000014 	andeq	r0, r0, r4, lsl r0
 334:	000002c4 	andeq	r0, r0, r4, asr #5
 338:	00008d70 	andeq	r8, r0, r0, ror sp
 33c:	00000014 	andeq	r0, r0, r4, lsl r0
 340:	83080e42 	movwhi	r0, #36418	; 0x8e42
 344:	00018e02 	andeq	r8, r1, r2, lsl #28
 348:	00000014 	andeq	r0, r0, r4, lsl r0
 34c:	000002c4 	andeq	r0, r0, r4, asr #5
 350:	00008d84 	andeq	r8, r0, r4, lsl #27
 354:	00000014 	andeq	r0, r0, r4, lsl r0
 358:	83080e42 	movwhi	r0, #36418	; 0x8e42
 35c:	00018e02 	andeq	r8, r1, r2, lsl #28
 360:	0000000c 	andeq	r0, r0, ip
 364:	ffffffff 			; <UNDEFINED> instruction: 0xffffffff
 368:	7c020001 	stcvc	0, cr0, [r2], {1}
 36c:	000d0c0e 	andeq	r0, sp, lr, lsl #24
 370:	00000018 	andeq	r0, r0, r8, lsl r0
 374:	00000360 	andeq	r0, r0, r0, ror #6
 378:	00008d98 	muleq	r0, r8, sp
 37c:	000000d4 	ldrdeq	r0, [r0], -r4
 380:	83100e42 	tsthi	r0, #1056	; 0x420
 384:	85038404 	strhi	r8, [r3, #-1028]	; 0x404
 388:	00018e02 	andeq	r8, r1, r2, lsl #28
 38c:	00000014 	andeq	r0, r0, r4, lsl r0
 390:	00000360 	andeq	r0, r0, r0, ror #6
 394:	00008e6c 	andeq	r8, r0, ip, ror #28
 398:	00000038 	andeq	r0, r0, r8, lsr r0
 39c:	83080e42 	movwhi	r0, #36418	; 0x8e42
 3a0:	00018e02 	andeq	r8, r1, r2, lsl #28
 3a4:	00000014 	andeq	r0, r0, r4, lsl r0
 3a8:	00000360 	andeq	r0, r0, r0, ror #6
 3ac:	00008ea4 	andeq	r8, r0, r4, lsr #29
 3b0:	00000038 	andeq	r0, r0, r8, lsr r0
 3b4:	83080e42 	movwhi	r0, #36418	; 0x8e42
 3b8:	00018e02 	andeq	r8, r1, r2, lsl #28
 3bc:	00000018 	andeq	r0, r0, r8, lsl r0
 3c0:	00000360 	andeq	r0, r0, r0, ror #6
 3c4:	00008edc 	ldrdeq	r8, [r0], -ip
 3c8:	000000cc 	andeq	r0, r0, ip, asr #1
 3cc:	83100e42 	tsthi	r0, #1056	; 0x420
 3d0:	85038404 	strhi	r8, [r3, #-1028]	; 0x404
 3d4:	00018e02 	andeq	r8, r1, r2, lsl #28
 3d8:	00000014 	andeq	r0, r0, r4, lsl r0
 3dc:	00000360 	andeq	r0, r0, r0, ror #6
 3e0:	00008fa8 	andeq	r8, r0, r8, lsr #31
 3e4:	0000004c 	andeq	r0, r0, ip, asr #32
 3e8:	84080e42 	strhi	r0, [r8], #-3650	; 0xe42
 3ec:	00018e02 	andeq	r8, r1, r2, lsl #28
 3f0:	00000014 	andeq	r0, r0, r4, lsl r0
 3f4:	00000360 	andeq	r0, r0, r0, ror #6
 3f8:	00008ff4 	strdeq	r8, [r0], -r4
 3fc:	00000024 	andeq	r0, r0, r4, lsr #32
 400:	83080e42 	movwhi	r0, #36418	; 0x8e42
 404:	00018e02 	andeq	r8, r1, r2, lsl #28
 408:	00000018 	andeq	r0, r0, r8, lsl r0
 40c:	00000360 	andeq	r0, r0, r0, ror #6
 410:	00009018 	andeq	r9, r0, r8, lsl r0
 414:	000000d8 	ldrdeq	r0, [r0], -r8
 418:	84100e42 	ldrhi	r0, [r0], #-3650	; 0xe42
 41c:	86038504 	strhi	r8, [r3], -r4, lsl #10
 420:	00018e02 	andeq	r8, r1, r2, lsl #28
 424:	00000014 	andeq	r0, r0, r4, lsl r0
 428:	00000360 	andeq	r0, r0, r0, ror #6
 42c:	000090f0 	strdeq	r9, [r0], -r0
 430:	00000038 	andeq	r0, r0, r8, lsr r0
 434:	83080e42 	movwhi	r0, #36418	; 0x8e42
 438:	00018e02 	andeq	r8, r1, r2, lsl #28
 43c:	00000014 	andeq	r0, r0, r4, lsl r0
 440:	00000360 	andeq	r0, r0, r0, ror #6
 444:	00009128 	andeq	r9, r0, r8, lsr #2
 448:	0000002c 	andeq	r0, r0, ip, lsr #32
 44c:	83080e42 	movwhi	r0, #36418	; 0x8e42
 450:	00018e02 	andeq	r8, r1, r2, lsl #28
 454:	00000018 	andeq	r0, r0, r8, lsl r0
 458:	00000360 	andeq	r0, r0, r0, ror #6
 45c:	00009154 	andeq	r9, r0, r4, asr r1
 460:	00000084 	andeq	r0, r0, r4, lsl #1
 464:	83100e42 	tsthi	r0, #1056	; 0x420
 468:	85038404 	strhi	r8, [r3, #-1028]	; 0x404
 46c:	00018e02 	andeq	r8, r1, r2, lsl #28
 470:	00000018 	andeq	r0, r0, r8, lsl r0
 474:	00000360 	andeq	r0, r0, r0, ror #6
 478:	000091d8 	ldrdeq	r9, [r0], -r8
 47c:	00000084 	andeq	r0, r0, r4, lsl #1
 480:	83100e42 	tsthi	r0, #1056	; 0x420
 484:	85038404 	strhi	r8, [r3, #-1028]	; 0x404
 488:	00018e02 	andeq	r8, r1, r2, lsl #28
 48c:	00000014 	andeq	r0, r0, r4, lsl r0
 490:	00000360 	andeq	r0, r0, r0, ror #6
 494:	0000925c 	andeq	r9, r0, ip, asr r2
 498:	00000084 	andeq	r0, r0, r4, lsl #1
 49c:	84080e42 	strhi	r0, [r8], #-3650	; 0xe42
 4a0:	00018e02 	andeq	r8, r1, r2, lsl #28
 4a4:	00000014 	andeq	r0, r0, r4, lsl r0
 4a8:	00000360 	andeq	r0, r0, r0, ror #6
 4ac:	000092e0 	andeq	r9, r0, r0, ror #5
 4b0:	00000058 	andeq	r0, r0, r8, asr r0
 4b4:	84080e42 	strhi	r0, [r8], #-3650	; 0xe42
 4b8:	00018e02 	andeq	r8, r1, r2, lsl #28
 4bc:	0000000c 	andeq	r0, r0, ip
 4c0:	ffffffff 			; <UNDEFINED> instruction: 0xffffffff
 4c4:	7c020001 	stcvc	0, cr0, [r2], {1}
 4c8:	000d0c0e 	andeq	r0, sp, lr, lsl #24
 4cc:	0000001c 	andeq	r0, r0, ip, lsl r0
 4d0:	000004bc 			; <UNDEFINED> instruction: 0x000004bc
 4d4:	00009338 	andeq	r9, r0, r8, lsr r3
 4d8:	00000154 	andeq	r0, r0, r4, asr r1
 4dc:	84180e42 	ldrhi	r0, [r8], #-3650	; 0xe42
 4e0:	86058506 	strhi	r8, [r5], -r6, lsl #10
 4e4:	88038704 	stmdahi	r3, {r2, r8, r9, sl, pc}
 4e8:	00018e02 	andeq	r8, r1, r2, lsl #28
 4ec:	00000020 	andeq	r0, r0, r0, lsr #32
 4f0:	000004bc 			; <UNDEFINED> instruction: 0x000004bc
 4f4:	0000948c 	andeq	r9, r0, ip, lsl #9
 4f8:	000001c8 	andeq	r0, r0, r8, asr #3
 4fc:	83200e42 	teqhi	r0, #1056	; 0x420
 500:	85078408 	strhi	r8, [r7, #-1032]	; 0x408
 504:	87058606 	strhi	r8, [r5, -r6, lsl #12]
 508:	89038804 	stmdbhi	r3, {r2, fp, pc}
 50c:	00018e02 	andeq	r8, r1, r2, lsl #28
 510:	00000024 	andeq	r0, r0, r4, lsr #32
 514:	000004bc 			; <UNDEFINED> instruction: 0x000004bc
 518:	00009654 	andeq	r9, r0, r4, asr r6
 51c:	000000a4 	andeq	r0, r0, r4, lsr #1
 520:	84200e42 	strthi	r0, [r0], #-3650	; 0xe42
 524:	86078508 	strhi	r8, [r7], -r8, lsl #10
 528:	88058706 	stmdahi	r5, {r1, r2, r8, r9, sl, pc}
 52c:	8a038904 	bhi	e2944 <__bss_end__+0xd85ac>
 530:	42018e02 	andmi	r8, r1, #2, 28
 534:	0000280e 	andeq	r2, r0, lr, lsl #16
 538:	00000020 	andeq	r0, r0, r0, lsr #32
 53c:	000004bc 			; <UNDEFINED> instruction: 0x000004bc
 540:	000096f8 	strdeq	r9, [r0], -r8
 544:	00000090 	muleq	r0, r0, r0
 548:	84180e42 	ldrhi	r0, [r8], #-3650	; 0xe42
 54c:	86058506 	strhi	r8, [r5], -r6, lsl #10
 550:	88038704 	stmdahi	r3, {r2, r8, r9, sl, pc}
 554:	42018e02 	andmi	r8, r1, #2, 28
 558:	0000200e 	andeq	r2, r0, lr
 55c:	00000020 	andeq	r0, r0, r0, lsr #32
 560:	000004bc 			; <UNDEFINED> instruction: 0x000004bc
 564:	00009788 	andeq	r9, r0, r8, lsl #15
 568:	000000d4 	ldrdeq	r0, [r0], -r4
 56c:	84180e42 	ldrhi	r0, [r8], #-3650	; 0xe42
 570:	86058506 	strhi	r8, [r5], -r6, lsl #10
 574:	88038704 	stmdahi	r3, {r2, r8, r9, sl, pc}
 578:	42018e02 	andmi	r8, r1, #2, 28
 57c:	0000200e 	andeq	r2, r0, lr
 580:	00000014 	andeq	r0, r0, r4, lsl r0
 584:	000004bc 			; <UNDEFINED> instruction: 0x000004bc
 588:	0000985c 	andeq	r9, r0, ip, asr r8
 58c:	0000003c 	andeq	r0, r0, ip, lsr r0
 590:	83080e42 	movwhi	r0, #36418	; 0x8e42
 594:	00018e02 	andeq	r8, r1, r2, lsl #28
 598:	00000018 	andeq	r0, r0, r8, lsl r0
 59c:	000004bc 			; <UNDEFINED> instruction: 0x000004bc
 5a0:	00009898 	muleq	r0, r8, r8
 5a4:	0000002c 	andeq	r0, r0, ip, lsr #32
 5a8:	83100e42 	tsthi	r0, #1056	; 0x420
 5ac:	85038404 	strhi	r8, [r3, #-1028]	; 0x404
 5b0:	00018e02 	andeq	r8, r1, r2, lsl #28
 5b4:	00000024 	andeq	r0, r0, r4, lsr #32
 5b8:	000004bc 			; <UNDEFINED> instruction: 0x000004bc
 5bc:	000098c4 	andeq	r9, r0, r4, asr #17
 5c0:	00000090 	muleq	r0, r0, r0
 5c4:	810c0e42 	tsthi	ip, r2, asr #28
 5c8:	83028203 	movwhi	r8, #8707	; 0x2203
 5cc:	180e4201 	stmdane	lr, {r0, r9, lr}
 5d0:	05850684 	streq	r0, [r5, #1668]	; 0x684
 5d4:	0e42048e 	cdpeq	4, 4, cr0, cr2, cr14, {4}
 5d8:	000003f0 	strdeq	r0, [r0], -r0	; <UNPREDICTABLE>
 5dc:	00000014 	andeq	r0, r0, r4, lsl r0
 5e0:	000004bc 			; <UNDEFINED> instruction: 0x000004bc
 5e4:	00009954 	andeq	r9, r0, r4, asr r9
 5e8:	0000004c 	andeq	r0, r0, ip, asr #32
 5ec:	8e040e42 	cdphi	14, 0, cr0, cr4, cr2, {2}
 5f0:	100e4201 	andne	r4, lr, r1, lsl #4
 5f4:	0000000c 	andeq	r0, r0, ip
 5f8:	ffffffff 			; <UNDEFINED> instruction: 0xffffffff
 5fc:	7c020001 	stcvc	0, cr0, [r2], {1}
 600:	000d0c0e 	andeq	r0, sp, lr, lsl #24
 604:	00000018 	andeq	r0, r0, r8, lsl r0
 608:	000005f4 	strdeq	r0, [r0], -r4
 60c:	000099a0 	andeq	r9, r0, r0, lsr #19
 610:	0000009c 	muleq	r0, ip, r0
 614:	83100e42 	tsthi	r0, #1056	; 0x420
 618:	85038404 	strhi	r8, [r3, #-1028]	; 0x404
 61c:	00018e02 	andeq	r8, r1, r2, lsl #28
 620:	00000014 	andeq	r0, r0, r4, lsl r0
 624:	000005f4 	strdeq	r0, [r0], -r4
 628:	00009a3c 	andeq	r9, r0, ip, lsr sl
 62c:	0000001c 	andeq	r0, r0, ip, lsl r0
 630:	83080e42 	movwhi	r0, #36418	; 0x8e42
 634:	00018e02 	andeq	r8, r1, r2, lsl #28
 638:	00000014 	andeq	r0, r0, r4, lsl r0
 63c:	000005f4 	strdeq	r0, [r0], -r4
 640:	00009a58 	andeq	r9, r0, r8, asr sl
 644:	00000028 	andeq	r0, r0, r8, lsr #32
 648:	83080e42 	movwhi	r0, #36418	; 0x8e42
 64c:	00018e02 	andeq	r8, r1, r2, lsl #28
 650:	00000014 	andeq	r0, r0, r4, lsl r0
 654:	000005f4 	strdeq	r0, [r0], -r4
 658:	00009a80 	andeq	r9, r0, r0, lsl #21
 65c:	0000001c 	andeq	r0, r0, ip, lsl r0
 660:	83080e42 	movwhi	r0, #36418	; 0x8e42
 664:	00018e02 	andeq	r8, r1, r2, lsl #28
 668:	00000014 	andeq	r0, r0, r4, lsl r0
 66c:	000005f4 	strdeq	r0, [r0], -r4
 670:	00009a9c 	muleq	r0, ip, sl
 674:	0000002c 	andeq	r0, r0, ip, lsr #32
 678:	84080e42 	strhi	r0, [r8], #-3650	; 0xe42
 67c:	00018e02 	andeq	r8, r1, r2, lsl #28
 680:	00000014 	andeq	r0, r0, r4, lsl r0
 684:	000005f4 	strdeq	r0, [r0], -r4
 688:	00009ac8 	andeq	r9, r0, r8, asr #21
 68c:	0000000c 	andeq	r0, r0, ip
 690:	83080e42 	movwhi	r0, #36418	; 0x8e42
 694:	00018e02 	andeq	r8, r1, r2, lsl #28
 698:	00000014 	andeq	r0, r0, r4, lsl r0
 69c:	000005f4 	strdeq	r0, [r0], -r4
 6a0:	00009ad4 	ldrdeq	r9, [r0], -r4
 6a4:	00000020 	andeq	r0, r0, r0, lsr #32
 6a8:	83080e42 	movwhi	r0, #36418	; 0x8e42
 6ac:	00018e02 	andeq	r8, r1, r2, lsl #28
 6b0:	0000000c 	andeq	r0, r0, ip
 6b4:	ffffffff 			; <UNDEFINED> instruction: 0xffffffff
 6b8:	7c020001 	stcvc	0, cr0, [r2], {1}
 6bc:	000d0c0e 	andeq	r0, sp, lr, lsl #24
 6c0:	00000014 	andeq	r0, r0, r4, lsl r0
 6c4:	000006b0 			; <UNDEFINED> instruction: 0x000006b0
 6c8:	00009b58 	andeq	r9, r0, r8, asr fp
 6cc:	00000028 	andeq	r0, r0, r8, lsr #32
 6d0:	83080e42 	movwhi	r0, #36418	; 0x8e42
 6d4:	00018e02 	andeq	r8, r1, r2, lsl #28
 6d8:	0000000c 	andeq	r0, r0, ip
 6dc:	000006b0 			; <UNDEFINED> instruction: 0x000006b0
 6e0:	00009b80 	andeq	r9, r0, r0, lsl #23
 6e4:	00000028 	andeq	r0, r0, r8, lsr #32
 6e8:	0000000c 	andeq	r0, r0, ip
 6ec:	ffffffff 			; <UNDEFINED> instruction: 0xffffffff
 6f0:	7c020001 	stcvc	0, cr0, [r2], {1}
 6f4:	000d0c0e 	andeq	r0, sp, lr, lsl #24
 6f8:	0000000c 	andeq	r0, r0, ip
 6fc:	000006e8 	andeq	r0, r0, r8, ror #13
 700:	00009ba8 	andeq	r9, r0, r8, lsr #23
 704:	00000020 	andeq	r0, r0, r0, lsr #32
