
tests/test0.elf:     file format elf32-littlearm


Disassembly of section .text:

00008000 <__code_start__>:
    8000:	e3a00013 	mov	r0, #19
    8004:	e129f000 	msr	CPSR_fc, r0
    8008:	e3a01000 	mov	r1, #0
    800c:	ee073f95 	mcr	15, 0, r3, cr7, cr5, {4}
    8010:	e3a0d302 	mov	sp, #134217728	; 0x8000000
    8014:	e3a0b000 	mov	fp, #0
    8018:	eb000a5d 	bl	a994 <_cstart>
    801c:	eb000ad6 	bl	ab7c <rpi_reboot>

00008020 <notmain_client>:
    8020:	e59f0000 	ldr	r0, [pc]	; 8028 <notmain_client+0x8>
    8024:	e12fff1e 	bx	lr
    8028:	12345678 	eorsne	r5, r4, #120, 12	; 0x7800000

0000802c <notmain>:
    802c:	e52de004 	push	{lr}		; (str lr, [sp, #-4]!)
    8030:	e24dd00c 	sub	sp, sp, #12
    8034:	eb000083 	bl	8248 <mmu_is_enabled>
    8038:	e3500000 	cmp	r0, #0
    803c:	0a000008 	beq	8064 <notmain+0x38>
    8040:	eb0008d3 	bl	a394 <rpi_reset_putc>
    8044:	e59f3094 	ldr	r3, [pc, #148]	; 80e0 <notmain+0xb4>
    8048:	e58d3000 	str	r3, [sp]
    804c:	e59f0090 	ldr	r0, [pc, #144]	; 80e4 <notmain+0xb8>
    8050:	e59f1090 	ldr	r1, [pc, #144]	; 80e8 <notmain+0xbc>
    8054:	e59f2090 	ldr	r2, [pc, #144]	; 80ec <notmain+0xc0>
    8058:	e3a03009 	mov	r3, #9
    805c:	eb0008b1 	bl	a328 <printk>
    8060:	eb000a40 	bl	a968 <clean_reboot>
    8064:	e59f0084 	ldr	r0, [pc, #132]	; 80f0 <notmain+0xc4>
    8068:	eb000782 	bl	9e78 <memcheck_fn>
    806c:	e59f3080 	ldr	r3, [pc, #128]	; 80f4 <notmain+0xc8>
    8070:	e1500003 	cmp	r0, r3
    8074:	0a000008 	beq	809c <notmain+0x70>
    8078:	eb0008c5 	bl	a394 <rpi_reset_putc>
    807c:	e59f3074 	ldr	r3, [pc, #116]	; 80f8 <notmain+0xcc>
    8080:	e58d3000 	str	r3, [sp]
    8084:	e59f0058 	ldr	r0, [pc, #88]	; 80e4 <notmain+0xb8>
    8088:	e59f1058 	ldr	r1, [pc, #88]	; 80e8 <notmain+0xbc>
    808c:	e59f2058 	ldr	r2, [pc, #88]	; 80ec <notmain+0xc0>
    8090:	e3a0300b 	mov	r3, #11
    8094:	eb0008a3 	bl	a328 <printk>
    8098:	eb000a32 	bl	a968 <clean_reboot>
    809c:	eb000069 	bl	8248 <mmu_is_enabled>
    80a0:	e3500000 	cmp	r0, #0
    80a4:	0a000008 	beq	80cc <notmain+0xa0>
    80a8:	eb0008b9 	bl	a394 <rpi_reset_putc>
    80ac:	e59f302c 	ldr	r3, [pc, #44]	; 80e0 <notmain+0xb4>
    80b0:	e58d3000 	str	r3, [sp]
    80b4:	e59f0028 	ldr	r0, [pc, #40]	; 80e4 <notmain+0xb8>
    80b8:	e59f1028 	ldr	r1, [pc, #40]	; 80e8 <notmain+0xbc>
    80bc:	e59f2028 	ldr	r2, [pc, #40]	; 80ec <notmain+0xc0>
    80c0:	e3a0300c 	mov	r3, #12
    80c4:	eb000897 	bl	a328 <printk>
    80c8:	eb000a26 	bl	a968 <clean_reboot>
    80cc:	e59f0028 	ldr	r0, [pc, #40]	; 80fc <notmain+0xd0>
    80d0:	eb000894 	bl	a328 <printk>
    80d4:	e59f0024 	ldr	r0, [pc, #36]	; 8100 <notmain+0xd4>
    80d8:	eb000892 	bl	a328 <printk>
    80dc:	eb000a21 	bl	a968 <clean_reboot>
    80e0:	0000b164 	andeq	fp, r0, r4, ror #2
    80e4:	0000b140 	andeq	fp, r0, r0, asr #2
    80e8:	0000b154 	andeq	fp, r0, r4, asr r1
    80ec:	0000b19c 	muleq	r0, ip, r1
    80f0:	00008020 	andeq	r8, r0, r0, lsr #32
    80f4:	12345678 	eorsne	r5, r4, #120, 12	; 0x7800000
    80f8:	0000b178 	andeq	fp, r0, r8, ror r1
    80fc:	0000b188 	andeq	fp, r0, r8, lsl #3
    8100:	0000b190 	muleq	r0, r0, r1

00008104 <_interrupt_table>:
    8104:	e59ff020 	ldr	pc, [pc, #32]	; 812c <_reset_asm>
    8108:	e59ff020 	ldr	pc, [pc, #32]	; 8130 <_undefined_instruction_asm>
    810c:	e59ff020 	ldr	pc, [pc, #32]	; 8134 <_software_interrupt_asm>
    8110:	e59ff020 	ldr	pc, [pc, #32]	; 8138 <_prefetch_abort_asm>
    8114:	e59ff020 	ldr	pc, [pc, #32]	; 813c <_data_abort_asm>
    8118:	e59ff00c 	ldr	pc, [pc, #12]	; 812c <_reset_asm>
    811c:	e59ff01c 	ldr	pc, [pc, #28]	; 8140 <_interrupt_asm>

00008120 <fast_interrupt_asm>:
    8120:	e3a0d409 	mov	sp, #150994944	; 0x9000000
    8124:	e24ee004 	sub	lr, lr, #4
    8128:	eb000a27 	bl	a9cc <fast_interrupt_vector>

0000812c <_reset_asm>:
    812c:	0000815c 	andeq	r8, r0, ip, asr r1

00008130 <_undefined_instruction_asm>:
    8130:	000081a0 	andeq	r8, r0, r0, lsr #3

00008134 <_software_interrupt_asm>:
    8134:	000081ac 	andeq	r8, r0, ip, lsr #3

00008138 <_prefetch_abort_asm>:
    8138:	00008184 	andeq	r8, r0, r4, lsl #3

0000813c <_data_abort_asm>:
    813c:	00008168 	andeq	r8, r0, r8, ror #2

00008140 <_interrupt_asm>:
    8140:	00008144 	andeq	r8, r0, r4, asr #2

00008144 <_interrupt_table_end>:
    8144:	e3a0d409 	mov	sp, #150994944	; 0x9000000
    8148:	e24ee004 	sub	lr, lr, #4
    814c:	e92d5fff 	push	{r0, r1, r2, r3, r4, r5, r6, r7, r8, r9, sl, fp, ip, lr}
    8150:	e1a0000e 	mov	r0, lr
    8154:	e8bd5fff 	pop	{r0, r1, r2, r3, r4, r5, r6, r7, r8, r9, sl, fp, ip, lr}
    8158:	e1b0f00e 	movs	pc, lr

0000815c <reset_asm>:
    815c:	e3a0d409 	mov	sp, #150994944	; 0x9000000
    8160:	e24ee004 	sub	lr, lr, #4
    8164:	eb000a3a 	bl	aa54 <reset_vector>

00008168 <data_abort_asm>:
    8168:	e24ee008 	sub	lr, lr, #8
    816c:	e3a0d409 	mov	sp, #150994944	; 0x9000000
    8170:	e92d5fff 	push	{r0, r1, r2, r3, r4, r5, r6, r7, r8, r9, sl, fp, ip, lr}
    8174:	e1a0000e 	mov	r0, lr
    8178:	eb00054c 	bl	96b0 <data_abort_vector>
    817c:	e8bd5fff 	pop	{r0, r1, r2, r3, r4, r5, r6, r7, r8, r9, sl, fp, ip, lr}
    8180:	e1b0f00e 	movs	pc, lr

00008184 <prefetch_abort_asm>:
    8184:	e24ee004 	sub	lr, lr, #4
    8188:	e3a0d409 	mov	sp, #150994944	; 0x9000000
    818c:	e92d5fff 	push	{r0, r1, r2, r3, r4, r5, r6, r7, r8, r9, sl, fp, ip, lr}
    8190:	e1a0000e 	mov	r0, lr
    8194:	eb000a1d 	bl	aa10 <prefetch_abort_vector>
    8198:	e8bd5fff 	pop	{r0, r1, r2, r3, r4, r5, r6, r7, r8, r9, sl, fp, ip, lr}
    819c:	e1b0f00e 	movs	pc, lr

000081a0 <undefined_instruction_asm>:
    81a0:	e3a0d409 	mov	sp, #150994944	; 0x9000000
    81a4:	e24ee004 	sub	lr, lr, #4
    81a8:	eb000a3a 	bl	aa98 <undefined_instruction_vector>

000081ac <software_interrupt_asm>:
    81ac:	e92d5ff0 	push	{r4, r5, r6, r7, r8, r9, sl, fp, ip, lr}
    81b0:	e24ee004 	sub	lr, lr, #4
    81b4:	e1a01000 	mov	r1, r0
    81b8:	e1a0000e 	mov	r0, lr
    81bc:	e8bd5ff0 	pop	{r4, r5, r6, r7, r8, r9, sl, fp, ip, lr}
    81c0:	e1b0f00e 	movs	pc, lr

000081c4 <user_trampoline_ret>:
    81c4:	e92d5ff0 	push	{r4, r5, r6, r7, r8, r9, sl, fp, ip, lr}
    81c8:	e10f4000 	mrs	r4, CPSR
    81cc:	e129f000 	msr	CPSR_fc, r0
    81d0:	ee070f95 	mcr	15, 0, r0, cr7, cr5, {4}
    81d4:	e3a0d407 	mov	sp, #117440512	; 0x7000000
    81d8:	e1a00002 	mov	r0, r2
    81dc:	e12fff31 	blx	r1
    81e0:	e1a00004 	mov	r0, r4
    81e4:	ef000001 	svc	0x00000001
    81e8:	e8bd5ff0 	pop	{r4, r5, r6, r7, r8, r9, sl, fp, ip, lr}
    81ec:	e12fff1e 	bx	lr

000081f0 <sys_try_lock_asm>:
    81f0:	e92d5ff0 	push	{r4, r5, r6, r7, r8, r9, sl, fp, ip, lr}
    81f4:	ef000002 	svc	0x00000002
    81f8:	e8bd5ff0 	pop	{r4, r5, r6, r7, r8, r9, sl, fp, ip, lr}
    81fc:	e12fff1e 	bx	lr

00008200 <sys_foo_asm>:
    8200:	e92d5ff0 	push	{r4, r5, r6, r7, r8, r9, sl, fp, ip, lr}
    8204:	ef000003 	svc	0x00000003
    8208:	e8bd5ff0 	pop	{r4, r5, r6, r7, r8, r9, sl, fp, ip, lr}
    820c:	e12fff1e 	bx	lr

00008210 <run_fn_helper>:
    8210:	e92d5ff0 	push	{r4, r5, r6, r7, r8, r9, sl, fp, ip, lr}
    8214:	e10f4000 	mrs	r4, CPSR
    8218:	e129f000 	msr	CPSR_fc, r0
    821c:	ee070f95 	mcr	15, 0, r0, cr7, cr5, {4}
    8220:	e1a0d002 	mov	sp, r2
    8224:	e1a00002 	mov	r0, r2
    8228:	e5911000 	ldr	r1, [r1]
    822c:	e12fff31 	blx	r1
    8230:	e1a05000 	mov	r5, r0
    8234:	e1a00004 	mov	r0, r4
    8238:	ef000001 	svc	0x00000001
    823c:	e1a00005 	mov	r0, r5
    8240:	e8bd5ff0 	pop	{r4, r5, r6, r7, r8, r9, sl, fp, ip, lr}
    8244:	e12fff1e 	bx	lr

00008248 <mmu_is_enabled>:
    8248:	e92d4008 	push	{r3, lr}
    824c:	eb000721 	bl	9ed8 <cp15_ctrl_reg1_rd>
    8250:	e2000001 	and	r0, r0, #1
    8254:	e8bd8008 	pop	{r3, pc}

00008258 <mmu_lookup_section>:
    8258:	e52de004 	push	{lr}		; (str lr, [sp, #-4]!)
    825c:	e24dd00c 	sub	sp, sp, #12
    8260:	e3110013 	tst	r1, #19
    8264:	0a000008 	beq	828c <mmu_lookup_section+0x34>
    8268:	eb000849 	bl	a394 <rpi_reset_putc>
    826c:	e59f305c 	ldr	r3, [pc, #92]	; 82d0 <mmu_lookup_section+0x78>
    8270:	e58d3000 	str	r3, [sp]
    8274:	e59f0058 	ldr	r0, [pc, #88]	; 82d4 <mmu_lookup_section+0x7c>
    8278:	e59f1058 	ldr	r1, [pc, #88]	; 82d8 <mmu_lookup_section+0x80>
    827c:	e59f2058 	ldr	r2, [pc, #88]	; 82dc <mmu_lookup_section+0x84>
    8280:	e3a03010 	mov	r3, #16
    8284:	eb000827 	bl	a328 <printk>
    8288:	eb0009b6 	bl	a968 <clean_reboot>
    828c:	e1a01a21 	lsr	r1, r1, #20
    8290:	e0803101 	add	r3, r0, r1, lsl #2
    8294:	e7d02101 	ldrb	r2, [r0, r1, lsl #2]
    8298:	e3120003 	tst	r2, #3
    829c:	1a000008 	bne	82c4 <mmu_lookup_section+0x6c>
    82a0:	eb00083b 	bl	a394 <rpi_reset_putc>
    82a4:	e59f3034 	ldr	r3, [pc, #52]	; 82e0 <mmu_lookup_section+0x88>
    82a8:	e58d3000 	str	r3, [sp]
    82ac:	e59f0030 	ldr	r0, [pc, #48]	; 82e4 <mmu_lookup_section+0x8c>
    82b0:	e59f1020 	ldr	r1, [pc, #32]	; 82d8 <mmu_lookup_section+0x80>
    82b4:	e59f2020 	ldr	r2, [pc, #32]	; 82dc <mmu_lookup_section+0x84>
    82b8:	e3a03013 	mov	r3, #19
    82bc:	eb000819 	bl	a328 <printk>
    82c0:	eb0009a8 	bl	a968 <clean_reboot>
    82c4:	e1a00003 	mov	r0, r3
    82c8:	e28dd00c 	add	sp, sp, #12
    82cc:	e49df004 	pop	{pc}		; (ldr pc, [sp], #4)
    82d0:	0000b2a0 	andeq	fp, r0, r0, lsr #5
    82d4:	0000b140 	andeq	fp, r0, r0, asr #2
    82d8:	0000b298 	muleq	r0, r8, r2
    82dc:	0000b1a8 	andeq	fp, r0, r8, lsr #3
    82e0:	0000b2e4 	andeq	fp, r0, r4, ror #5
    82e4:	0000b2b4 			; <UNDEFINED> instruction: 0x0000b2b4

000082e8 <mmu_mark_sec_ap_perm>:
    82e8:	e92d41f0 	push	{r4, r5, r6, r7, r8, lr}
    82ec:	e24dd008 	sub	sp, sp, #8
    82f0:	e1a08000 	mov	r8, r0
    82f4:	e1a05002 	mov	r5, r2
    82f8:	e1a01aa1 	lsr	r1, r1, #21
    82fc:	e1a07a81 	lsl	r7, r1, #21
    8300:	e3530003 	cmp	r3, #3
    8304:	9a000011 	bls	8350 <mmu_mark_sec_ap_perm+0x68>
    8308:	eb000821 	bl	a394 <rpi_reset_putc>
    830c:	e59f305c 	ldr	r3, [pc, #92]	; 8370 <mmu_mark_sec_ap_perm+0x88>
    8310:	e58d3000 	str	r3, [sp]
    8314:	e59f0058 	ldr	r0, [pc, #88]	; 8374 <mmu_mark_sec_ap_perm+0x8c>
    8318:	e59f1058 	ldr	r1, [pc, #88]	; 8378 <mmu_mark_sec_ap_perm+0x90>
    831c:	e59f2058 	ldr	r2, [pc, #88]	; 837c <mmu_mark_sec_ap_perm+0x94>
    8320:	e3a0301a 	mov	r3, #26
    8324:	eb0007ff 	bl	a328 <printk>
    8328:	eb00098e 	bl	a968 <clean_reboot>
    832c:	e1a00008 	mov	r0, r8
    8330:	e1a01007 	mov	r1, r7
    8334:	ebffffc7 	bl	8258 <mmu_lookup_section>
    8338:	e5d03001 	ldrb	r3, [r0, #1]
    833c:	e3c3300c 	bic	r3, r3, #12
    8340:	e1863003 	orr	r3, r6, r3
    8344:	e5c03001 	strb	r3, [r0, #1]
    8348:	e2844001 	add	r4, r4, #1
    834c:	ea000002 	b	835c <mmu_mark_sec_ap_perm+0x74>
    8350:	e3a04000 	mov	r4, #0
    8354:	e2036003 	and	r6, r3, #3
    8358:	e1a06106 	lsl	r6, r6, #2
    835c:	e1540005 	cmp	r4, r5
    8360:	3afffff1 	bcc	832c <mmu_mark_sec_ap_perm+0x44>
    8364:	eb000757 	bl	a0c8 <our_mmu_sync_pte_mods>
    8368:	e28dd008 	add	sp, sp, #8
    836c:	e8bd81f0 	pop	{r4, r5, r6, r7, r8, pc}
    8370:	0000b324 	andeq	fp, r0, r4, lsr #6
    8374:	0000b2f0 	strdeq	fp, [r0], -r0
    8378:	0000b298 	muleq	r0, r8, r2
    837c:	0000b1bc 			; <UNDEFINED> instruction: 0x0000b1bc

00008380 <mmu_mark_sec_readonly>:
    8380:	e92d4008 	push	{r3, lr}
    8384:	e3a03002 	mov	r3, #2
    8388:	ebffffd6 	bl	82e8 <mmu_mark_sec_ap_perm>
    838c:	e8bd8008 	pop	{r3, pc}

00008390 <mmu_mark_sec_rw>:
    8390:	e92d4008 	push	{r3, lr}
    8394:	e3a03003 	mov	r3, #3
    8398:	ebffffd2 	bl	82e8 <mmu_mark_sec_ap_perm>
    839c:	e8bd8008 	pop	{r3, pc}

000083a0 <mmu_mark_sec_no_access>:
    83a0:	e92d4008 	push	{r3, lr}
    83a4:	e3a03000 	mov	r3, #0
    83a8:	ebffffce 	bl	82e8 <mmu_mark_sec_ap_perm>
    83ac:	e8bd8008 	pop	{r3, pc}

000083b0 <fld_set_base_addr>:
    83b0:	e52de004 	push	{lr}		; (str lr, [sp, #-4]!)
    83b4:	e24dd00c 	sub	sp, sp, #12
    83b8:	e3110013 	tst	r1, #19
    83bc:	0a000008 	beq	83e4 <fld_set_base_addr+0x34>
    83c0:	eb0007f3 	bl	a394 <rpi_reset_putc>
    83c4:	e59f3064 	ldr	r3, [pc, #100]	; 8430 <fld_set_base_addr+0x80>
    83c8:	e58d3000 	str	r3, [sp]
    83cc:	e59f0060 	ldr	r0, [pc, #96]	; 8434 <fld_set_base_addr+0x84>
    83d0:	e59f1060 	ldr	r1, [pc, #96]	; 8438 <fld_set_base_addr+0x88>
    83d4:	e59f2060 	ldr	r2, [pc, #96]	; 843c <fld_set_base_addr+0x8c>
    83d8:	e3a03032 	mov	r3, #50	; 0x32
    83dc:	eb0007d1 	bl	a328 <printk>
    83e0:	eb000960 	bl	a968 <clean_reboot>
    83e4:	e1a02a21 	lsr	r2, r1, #20
    83e8:	e1d030b2 	ldrh	r3, [r0, #2]
    83ec:	e3c33cff 	bic	r3, r3, #65280	; 0xff00
    83f0:	e3c330f0 	bic	r3, r3, #240	; 0xf0
    83f4:	e1833202 	orr	r3, r3, r2, lsl #4
    83f8:	e1c030b2 	strh	r3, [r0, #2]
    83fc:	e1510a02 	cmp	r1, r2, lsl #20
    8400:	0a000008 	beq	8428 <fld_set_base_addr+0x78>
    8404:	eb0007e2 	bl	a394 <rpi_reset_putc>
    8408:	e59f3030 	ldr	r3, [pc, #48]	; 8440 <fld_set_base_addr+0x90>
    840c:	e58d3000 	str	r3, [sp]
    8410:	e59f002c 	ldr	r0, [pc, #44]	; 8444 <fld_set_base_addr+0x94>
    8414:	e59f101c 	ldr	r1, [pc, #28]	; 8438 <fld_set_base_addr+0x88>
    8418:	e59f201c 	ldr	r2, [pc, #28]	; 843c <fld_set_base_addr+0x8c>
    841c:	e3a03037 	mov	r3, #55	; 0x37
    8420:	eb0007c0 	bl	a328 <printk>
    8424:	eb00094f 	bl	a968 <clean_reboot>
    8428:	e28dd00c 	add	sp, sp, #12
    842c:	e49df004 	pop	{pc}		; (ldr pc, [sp], #4)
    8430:	0000b368 	andeq	fp, r0, r8, ror #6
    8434:	0000b334 	andeq	fp, r0, r4, lsr r3
    8438:	0000b298 	muleq	r0, r8, r2
    843c:	0000b1e4 	andeq	fp, r0, r4, ror #3
    8440:	0000b394 	muleq	r0, r4, r3
    8444:	0000b140 	andeq	fp, r0, r0, asr #2

00008448 <mmu_map_section>:
    8448:	e92d43f0 	push	{r4, r5, r6, r7, r8, r9, lr}
    844c:	e24dd00c 	sub	sp, sp, #12
    8450:	e1a04000 	mov	r4, r0
    8454:	e1a09002 	mov	r9, r2
    8458:	e1a08003 	mov	r8, r3
    845c:	e353000f 	cmp	r3, #15
    8460:	9a000008 	bls	8488 <mmu_map_section+0x40>
    8464:	eb0007ca 	bl	a394 <rpi_reset_putc>
    8468:	e59f3140 	ldr	r3, [pc, #320]	; 85b0 <mmu_map_section+0x168>
    846c:	e58d3000 	str	r3, [sp]
    8470:	e59f013c 	ldr	r0, [pc, #316]	; 85b4 <mmu_map_section+0x16c>
    8474:	e59f113c 	ldr	r1, [pc, #316]	; 85b8 <mmu_map_section+0x170>
    8478:	e59f213c 	ldr	r2, [pc, #316]	; 85bc <mmu_map_section+0x174>
    847c:	e3a03042 	mov	r3, #66	; 0x42
    8480:	eb0007a8 	bl	a328 <printk>
    8484:	eb000937 	bl	a968 <clean_reboot>
    8488:	e3110013 	tst	r1, #19
    848c:	0a000008 	beq	84b4 <mmu_map_section+0x6c>
    8490:	eb0007bf 	bl	a394 <rpi_reset_putc>
    8494:	e59f3124 	ldr	r3, [pc, #292]	; 85c0 <mmu_map_section+0x178>
    8498:	e58d3000 	str	r3, [sp]
    849c:	e59f0110 	ldr	r0, [pc, #272]	; 85b4 <mmu_map_section+0x16c>
    84a0:	e59f1110 	ldr	r1, [pc, #272]	; 85b8 <mmu_map_section+0x170>
    84a4:	e59f2110 	ldr	r2, [pc, #272]	; 85bc <mmu_map_section+0x174>
    84a8:	e3a03043 	mov	r3, #67	; 0x43
    84ac:	eb00079d 	bl	a328 <printk>
    84b0:	eb00092c 	bl	a968 <clean_reboot>
    84b4:	e3120013 	tst	r2, #19
    84b8:	0a000008 	beq	84e0 <mmu_map_section+0x98>
    84bc:	eb0007b4 	bl	a394 <rpi_reset_putc>
    84c0:	e59f30fc 	ldr	r3, [pc, #252]	; 85c4 <mmu_map_section+0x17c>
    84c4:	e58d3000 	str	r3, [sp]
    84c8:	e59f00e4 	ldr	r0, [pc, #228]	; 85b4 <mmu_map_section+0x16c>
    84cc:	e59f10e4 	ldr	r1, [pc, #228]	; 85b8 <mmu_map_section+0x170>
    84d0:	e59f20e4 	ldr	r2, [pc, #228]	; 85bc <mmu_map_section+0x174>
    84d4:	e3a03044 	mov	r3, #68	; 0x44
    84d8:	eb000792 	bl	a328 <printk>
    84dc:	eb000921 	bl	a968 <clean_reboot>
    84e0:	e1a06a21 	lsr	r6, r1, #20
    84e4:	e1a07106 	lsl	r7, r6, #2
    84e8:	e0805007 	add	r5, r0, r7
    84ec:	e7d03106 	ldrb	r3, [r0, r6, lsl #2]
    84f0:	e3130003 	tst	r3, #3
    84f4:	0a000008 	beq	851c <mmu_map_section+0xd4>
    84f8:	eb0007a5 	bl	a394 <rpi_reset_putc>
    84fc:	e59f30c4 	ldr	r3, [pc, #196]	; 85c8 <mmu_map_section+0x180>
    8500:	e58d3000 	str	r3, [sp]
    8504:	e59f00c0 	ldr	r0, [pc, #192]	; 85cc <mmu_map_section+0x184>
    8508:	e59f10a8 	ldr	r1, [pc, #168]	; 85b8 <mmu_map_section+0x170>
    850c:	e59f20a8 	ldr	r2, [pc, #168]	; 85bc <mmu_map_section+0x174>
    8510:	e3a03048 	mov	r3, #72	; 0x48
    8514:	eb000783 	bl	a328 <printk>
    8518:	eb000912 	bl	a968 <clean_reboot>
    851c:	eb00031d 	bl	9198 <fld_mk>
    8520:	e7840106 	str	r0, [r4, r6, lsl #2]
    8524:	e5d53002 	ldrb	r3, [r5, #2]
    8528:	e3c33002 	bic	r3, r3, #2
    852c:	e5c53002 	strb	r3, [r5, #2]
    8530:	e5d53001 	ldrb	r3, [r5, #1]
    8534:	e203300f 	and	r3, r3, #15
    8538:	e383300c 	orr	r3, r3, #12
    853c:	e5c53001 	strb	r3, [r5, #1]
    8540:	e19430b7 	ldrh	r3, [r4, r7]
    8544:	e208800f 	and	r8, r8, #15
    8548:	e3c33e1e 	bic	r3, r3, #480	; 0x1e0
    854c:	e1838288 	orr	r8, r3, r8, lsl #5
    8550:	e18480b7 	strh	r8, [r4, r7]
    8554:	e7d43106 	ldrb	r3, [r4, r6, lsl #2]
    8558:	e3c33010 	bic	r3, r3, #16
    855c:	e7c43106 	strb	r3, [r4, r6, lsl #2]
    8560:	e1a00005 	mov	r0, r5
    8564:	e1a01009 	mov	r1, r9
    8568:	ebffff90 	bl	83b0 <fld_set_base_addr>
    856c:	e59f305c 	ldr	r3, [pc, #92]	; 85d0 <mmu_map_section+0x188>
    8570:	e5933000 	ldr	r3, [r3]
    8574:	e3530000 	cmp	r3, #0
    8578:	0a000009 	beq	85a4 <mmu_map_section+0x15c>
    857c:	e1a00005 	mov	r0, r5
    8580:	eb000333 	bl	9254 <fld_print>
    8584:	e59f0048 	ldr	r0, [pc, #72]	; 85d4 <mmu_map_section+0x18c>
    8588:	e1a01004 	mov	r1, r4
    858c:	e7942106 	ldr	r2, [r4, r6, lsl #2]
    8590:	eb000764 	bl	a328 <printk>
    8594:	e59f003c 	ldr	r0, [pc, #60]	; 85d8 <mmu_map_section+0x190>
    8598:	e1a01005 	mov	r1, r5
    859c:	e3a02004 	mov	r2, #4
    85a0:	eb00015f 	bl	8b24 <hash_print>
    85a4:	e1a00005 	mov	r0, r5
    85a8:	e28dd00c 	add	sp, sp, #12
    85ac:	e8bd83f0 	pop	{r4, r5, r6, r7, r8, r9, pc}
    85b0:	0000b3b8 			; <UNDEFINED> instruction: 0x0000b3b8
    85b4:	0000b140 	andeq	fp, r0, r0, asr #2
    85b8:	0000b298 	muleq	r0, r8, r2
    85bc:	0000b1d4 	ldrdeq	fp, [r0], -r4
    85c0:	0000b2a0 	andeq	fp, r0, r0, lsr #5
    85c4:	0000b3c4 	andeq	fp, r0, r4, asr #7
    85c8:	0000b404 	andeq	fp, r0, r4, lsl #8
    85cc:	0000b3d8 	ldrdeq	fp, [r0], -r8
    85d0:	0000c3c4 	andeq	ip, r0, r4, asr #7
    85d4:	0000b410 	andeq	fp, r0, r0, lsl r4
    85d8:	0000b424 	andeq	fp, r0, r4, lsr #8

000085dc <mmu_map_sections>:
    85dc:	e92d43f0 	push	{r4, r5, r6, r7, r8, r9, lr}
    85e0:	e24dd00c 	sub	sp, sp, #12
    85e4:	e1a09000 	mov	r9, r0
    85e8:	e1a05001 	mov	r5, r1
    85ec:	e1a06002 	mov	r6, r2
    85f0:	e1a07003 	mov	r7, r3
    85f4:	e59d8028 	ldr	r8, [sp, #40]	; 0x28
    85f8:	e358000f 	cmp	r8, #15
    85fc:	9a000008 	bls	8624 <mmu_map_sections+0x48>
    8600:	eb000763 	bl	a394 <rpi_reset_putc>
    8604:	e59f30a8 	ldr	r3, [pc, #168]	; 86b4 <mmu_map_sections+0xd8>
    8608:	e58d3000 	str	r3, [sp]
    860c:	e59f00a4 	ldr	r0, [pc, #164]	; 86b8 <mmu_map_sections+0xdc>
    8610:	e59f10a4 	ldr	r1, [pc, #164]	; 86bc <mmu_map_sections+0xe0>
    8614:	e59f20a4 	ldr	r2, [pc, #164]	; 86c0 <mmu_map_sections+0xe4>
    8618:	e3a03060 	mov	r3, #96	; 0x60
    861c:	eb000741 	bl	a328 <printk>
    8620:	eb0008d0 	bl	a968 <clean_reboot>
    8624:	e3110013 	tst	r1, #19
    8628:	0a000008 	beq	8650 <mmu_map_sections+0x74>
    862c:	eb000758 	bl	a394 <rpi_reset_putc>
    8630:	e59f308c 	ldr	r3, [pc, #140]	; 86c4 <mmu_map_sections+0xe8>
    8634:	e58d3000 	str	r3, [sp]
    8638:	e59f0078 	ldr	r0, [pc, #120]	; 86b8 <mmu_map_sections+0xdc>
    863c:	e59f1078 	ldr	r1, [pc, #120]	; 86bc <mmu_map_sections+0xe0>
    8640:	e59f2078 	ldr	r2, [pc, #120]	; 86c0 <mmu_map_sections+0xe4>
    8644:	e3a03061 	mov	r3, #97	; 0x61
    8648:	eb000736 	bl	a328 <printk>
    864c:	eb0008c5 	bl	a968 <clean_reboot>
    8650:	e3120013 	tst	r2, #19
    8654:	0a000011 	beq	86a0 <mmu_map_sections+0xc4>
    8658:	eb00074d 	bl	a394 <rpi_reset_putc>
    865c:	e59f3064 	ldr	r3, [pc, #100]	; 86c8 <mmu_map_sections+0xec>
    8660:	e58d3000 	str	r3, [sp]
    8664:	e59f004c 	ldr	r0, [pc, #76]	; 86b8 <mmu_map_sections+0xdc>
    8668:	e59f104c 	ldr	r1, [pc, #76]	; 86bc <mmu_map_sections+0xe0>
    866c:	e59f204c 	ldr	r2, [pc, #76]	; 86c0 <mmu_map_sections+0xe4>
    8670:	e3a03062 	mov	r3, #98	; 0x62
    8674:	eb00072b 	bl	a328 <printk>
    8678:	eb0008ba 	bl	a968 <clean_reboot>
    867c:	e1a00009 	mov	r0, r9
    8680:	e1a01005 	mov	r1, r5
    8684:	e1a02006 	mov	r2, r6
    8688:	e1a03008 	mov	r3, r8
    868c:	ebffff6d 	bl	8448 <mmu_map_section>
    8690:	e2855601 	add	r5, r5, #1048576	; 0x100000
    8694:	e2866601 	add	r6, r6, #1048576	; 0x100000
    8698:	e2844001 	add	r4, r4, #1
    869c:	ea000000 	b	86a4 <mmu_map_sections+0xc8>
    86a0:	e3a04000 	mov	r4, #0
    86a4:	e1540007 	cmp	r4, r7
    86a8:	3afffff3 	bcc	867c <mmu_map_sections+0xa0>
    86ac:	e28dd00c 	add	sp, sp, #12
    86b0:	e8bd83f0 	pop	{r4, r5, r6, r7, r8, r9, pc}
    86b4:	0000b3b8 			; <UNDEFINED> instruction: 0x0000b3b8
    86b8:	0000b140 	andeq	fp, r0, r0, asr #2
    86bc:	0000b298 	muleq	r0, r8, r2
    86c0:	0000b1f8 	strdeq	fp, [r0], -r8
    86c4:	0000b2a0 	andeq	fp, r0, r0, lsr #5
    86c8:	0000b3c4 	andeq	fp, r0, r4, asr #7

000086cc <mmu_pt_alloc_at>:
    86cc:	e92d4010 	push	{r4, lr}
    86d0:	e24dd008 	sub	sp, sp, #8
    86d4:	e1a04000 	mov	r4, r0
    86d8:	e310000d 	tst	r0, #13
    86dc:	0a000008 	beq	8704 <mmu_pt_alloc_at+0x38>
    86e0:	eb00072b 	bl	a394 <rpi_reset_putc>
    86e4:	e59f305c 	ldr	r3, [pc, #92]	; 8748 <mmu_pt_alloc_at+0x7c>
    86e8:	e58d3000 	str	r3, [sp]
    86ec:	e59f0058 	ldr	r0, [pc, #88]	; 874c <mmu_pt_alloc_at+0x80>
    86f0:	e59f1058 	ldr	r1, [pc, #88]	; 8750 <mmu_pt_alloc_at+0x84>
    86f4:	e59f2058 	ldr	r2, [pc, #88]	; 8754 <mmu_pt_alloc_at+0x88>
    86f8:	e3a0306b 	mov	r3, #107	; 0x6b
    86fc:	eb000709 	bl	a328 <printk>
    8700:	eb000898 	bl	a968 <clean_reboot>
    8704:	e3510901 	cmp	r1, #16384	; 0x4000
    8708:	0a000008 	beq	8730 <mmu_pt_alloc_at+0x64>
    870c:	eb000720 	bl	a394 <rpi_reset_putc>
    8710:	e59f3040 	ldr	r3, [pc, #64]	; 8758 <mmu_pt_alloc_at+0x8c>
    8714:	e58d3000 	str	r3, [sp]
    8718:	e59f003c 	ldr	r0, [pc, #60]	; 875c <mmu_pt_alloc_at+0x90>
    871c:	e59f102c 	ldr	r1, [pc, #44]	; 8750 <mmu_pt_alloc_at+0x84>
    8720:	e59f202c 	ldr	r2, [pc, #44]	; 8754 <mmu_pt_alloc_at+0x88>
    8724:	e3a0306f 	mov	r3, #111	; 0x6f
    8728:	eb0006fe 	bl	a328 <printk>
    872c:	eb00088d 	bl	a968 <clean_reboot>
    8730:	e3a01000 	mov	r1, #0
    8734:	e3a02901 	mov	r2, #16384	; 0x4000
    8738:	eb0006f2 	bl	a308 <memset>
    873c:	e1a00004 	mov	r0, r4
    8740:	e28dd008 	add	sp, sp, #8
    8744:	e8bd8010 	pop	{r4, pc}
    8748:	0000b468 	andeq	fp, r0, r8, ror #8
    874c:	0000b430 	andeq	fp, r0, r0, lsr r4
    8750:	0000b298 	muleq	r0, r8, r2
    8754:	0000b20c 	andeq	fp, r0, ip, lsl #4
    8758:	0000b4e4 	andeq	fp, r0, r4, ror #9
    875c:	0000b4a8 	andeq	fp, r0, r8, lsr #9

00008760 <mmu_pt_alloc>:
    8760:	e52de004 	push	{lr}		; (str lr, [sp, #-4]!)
    8764:	e24dd00c 	sub	sp, sp, #12
    8768:	e3500a01 	cmp	r0, #4096	; 0x1000
    876c:	0a000008 	beq	8794 <mmu_pt_alloc+0x34>
    8770:	eb000707 	bl	a394 <rpi_reset_putc>
    8774:	e59f305c 	ldr	r3, [pc, #92]	; 87d8 <mmu_pt_alloc+0x78>
    8778:	e58d3000 	str	r3, [sp]
    877c:	e59f0058 	ldr	r0, [pc, #88]	; 87dc <mmu_pt_alloc+0x7c>
    8780:	e59f1058 	ldr	r1, [pc, #88]	; 87e0 <mmu_pt_alloc+0x80>
    8784:	e59f2058 	ldr	r2, [pc, #88]	; 87e4 <mmu_pt_alloc+0x84>
    8788:	e3a03076 	mov	r3, #118	; 0x76
    878c:	eb0006e5 	bl	a328 <printk>
    8790:	eb000874 	bl	a968 <clean_reboot>
    8794:	e3a01901 	mov	r1, #16384	; 0x4000
    8798:	eb000a2f 	bl	b05c <kmalloc_aligned>
    879c:	e310000d 	tst	r0, #13
    87a0:	0a000008 	beq	87c8 <mmu_pt_alloc+0x68>
    87a4:	eb0006fa 	bl	a394 <rpi_reset_putc>
    87a8:	e59f3038 	ldr	r3, [pc, #56]	; 87e8 <mmu_pt_alloc+0x88>
    87ac:	e58d3000 	str	r3, [sp]
    87b0:	e59f0034 	ldr	r0, [pc, #52]	; 87ec <mmu_pt_alloc+0x8c>
    87b4:	e59f1024 	ldr	r1, [pc, #36]	; 87e0 <mmu_pt_alloc+0x80>
    87b8:	e59f2024 	ldr	r2, [pc, #36]	; 87e4 <mmu_pt_alloc+0x84>
    87bc:	e3a0307b 	mov	r3, #123	; 0x7b
    87c0:	eb0006d8 	bl	a328 <printk>
    87c4:	eb000867 	bl	a968 <clean_reboot>
    87c8:	e3a01901 	mov	r1, #16384	; 0x4000
    87cc:	ebffffbe 	bl	86cc <mmu_pt_alloc_at>
    87d0:	e28dd00c 	add	sp, sp, #12
    87d4:	e49df004 	pop	{pc}		; (ldr pc, [sp], #4)
    87d8:	0000b548 	andeq	fp, r0, r8, asr #10
    87dc:	0000b4f0 	strdeq	fp, [r0], -r0
    87e0:	0000b298 	muleq	r0, r8, r2
    87e4:	0000b21c 	andeq	fp, r0, ip, lsl r2
    87e8:	0000b554 	andeq	fp, r0, r4, asr r5
    87ec:	0000b430 	andeq	fp, r0, r0, lsr r4

000087f0 <mmu_init>:
    87f0:	e52de004 	push	{lr}		; (str lr, [sp, #-4]!)
    87f4:	e24dd00c 	sub	sp, sp, #12
    87f8:	eb000644 	bl	a110 <our_mmu_reset>
    87fc:	eb0005b5 	bl	9ed8 <cp15_ctrl_reg1_rd>
    8800:	e3800502 	orr	r0, r0, #8388608	; 0x800000
    8804:	eb000628 	bl	a0ac <cp15_ctrl_reg1_wr>
    8808:	eb0005b2 	bl	9ed8 <cp15_ctrl_reg1_rd>
    880c:	e3100502 	tst	r0, #8388608	; 0x800000
    8810:	1a000008 	bne	8838 <mmu_init+0x48>
    8814:	eb0006de 	bl	a394 <rpi_reset_putc>
    8818:	e59f304c 	ldr	r3, [pc, #76]	; 886c <mmu_init+0x7c>
    881c:	e58d3000 	str	r3, [sp]
    8820:	e59f0048 	ldr	r0, [pc, #72]	; 8870 <mmu_init+0x80>
    8824:	e59f1048 	ldr	r1, [pc, #72]	; 8874 <mmu_init+0x84>
    8828:	e59f2048 	ldr	r2, [pc, #72]	; 8878 <mmu_init+0x88>
    882c:	e3a0308e 	mov	r3, #142	; 0x8e
    8830:	eb0006bc 	bl	a328 <printk>
    8834:	eb00084b 	bl	a968 <clean_reboot>
    8838:	e3100001 	tst	r0, #1
    883c:	0a000008 	beq	8864 <mmu_init+0x74>
    8840:	eb0006d3 	bl	a394 <rpi_reset_putc>
    8844:	e59f3030 	ldr	r3, [pc, #48]	; 887c <mmu_init+0x8c>
    8848:	e58d3000 	str	r3, [sp]
    884c:	e59f001c 	ldr	r0, [pc, #28]	; 8870 <mmu_init+0x80>
    8850:	e59f101c 	ldr	r1, [pc, #28]	; 8874 <mmu_init+0x84>
    8854:	e59f201c 	ldr	r2, [pc, #28]	; 8878 <mmu_init+0x88>
    8858:	e3a0308f 	mov	r3, #143	; 0x8f
    885c:	eb0006b1 	bl	a328 <printk>
    8860:	eb000840 	bl	a968 <clean_reboot>
    8864:	e28dd00c 	add	sp, sp, #12
    8868:	e49df004 	pop	{pc}		; (ldr pc, [sp], #4)
    886c:	0000b590 	muleq	r0, r0, r5
    8870:	0000b140 	andeq	fp, r0, r0, asr #2
    8874:	0000b298 	muleq	r0, r8, r2
    8878:	0000b22c 	andeq	fp, r0, ip, lsr #4
    887c:	0000b59c 	muleq	r0, ip, r5

00008880 <mmu_install_handlers>:
    8880:	e92d4008 	push	{r3, lr}
    8884:	eb000896 	bl	aae4 <int_init>
    8888:	e8bd8008 	pop	{r3, pc}

0000888c <mmu_disable_set>:
    888c:	e52de004 	push	{lr}		; (str lr, [sp, #-4]!)
    8890:	e24dd00c 	sub	sp, sp, #12
    8894:	e3100001 	tst	r0, #1
    8898:	0a000008 	beq	88c0 <mmu_disable_set+0x34>
    889c:	eb0006bc 	bl	a394 <rpi_reset_putc>
    88a0:	e59f3050 	ldr	r3, [pc, #80]	; 88f8 <mmu_disable_set+0x6c>
    88a4:	e58d3000 	str	r3, [sp]
    88a8:	e59f004c 	ldr	r0, [pc, #76]	; 88fc <mmu_disable_set+0x70>
    88ac:	e59f104c 	ldr	r1, [pc, #76]	; 8900 <mmu_disable_set+0x74>
    88b0:	e59f204c 	ldr	r2, [pc, #76]	; 8904 <mmu_disable_set+0x78>
    88b4:	e3a03098 	mov	r3, #152	; 0x98
    88b8:	eb00069a 	bl	a328 <printk>
    88bc:	eb000829 	bl	a968 <clean_reboot>
    88c0:	e3100004 	tst	r0, #4
    88c4:	0a000008 	beq	88ec <mmu_disable_set+0x60>
    88c8:	eb0006b1 	bl	a394 <rpi_reset_putc>
    88cc:	e59f3034 	ldr	r3, [pc, #52]	; 8908 <mmu_disable_set+0x7c>
    88d0:	e58d3000 	str	r3, [sp]
    88d4:	e59f0020 	ldr	r0, [pc, #32]	; 88fc <mmu_disable_set+0x70>
    88d8:	e59f1020 	ldr	r1, [pc, #32]	; 8900 <mmu_disable_set+0x74>
    88dc:	e59f2020 	ldr	r2, [pc, #32]	; 8904 <mmu_disable_set+0x78>
    88e0:	e3a03099 	mov	r3, #153	; 0x99
    88e4:	eb00068f 	bl	a328 <printk>
    88e8:	eb00081e 	bl	a968 <clean_reboot>
    88ec:	eb000628 	bl	a194 <our_mmu_disable_set_asm>
    88f0:	e28dd00c 	add	sp, sp, #12
    88f4:	e49df004 	pop	{pc}		; (ldr pc, [sp], #4)
    88f8:	0000b5ac 	andeq	fp, r0, ip, lsr #11
    88fc:	0000b140 	andeq	fp, r0, r0, asr #2
    8900:	0000b298 	muleq	r0, r8, r2
    8904:	0000b238 	andeq	fp, r0, r8, lsr r2
    8908:	0000b5bc 			; <UNDEFINED> instruction: 0x0000b5bc

0000890c <mmu_disable>:
    890c:	e52de004 	push	{lr}		; (str lr, [sp, #-4]!)
    8910:	e24dd00c 	sub	sp, sp, #12
    8914:	eb00056f 	bl	9ed8 <cp15_ctrl_reg1_rd>
    8918:	e3100001 	tst	r0, #1
    891c:	1a000008 	bne	8944 <mmu_disable+0x38>
    8920:	eb00069b 	bl	a394 <rpi_reset_putc>
    8924:	e59f3028 	ldr	r3, [pc, #40]	; 8954 <mmu_disable+0x48>
    8928:	e58d3000 	str	r3, [sp]
    892c:	e59f0024 	ldr	r0, [pc, #36]	; 8958 <mmu_disable+0x4c>
    8930:	e59f1024 	ldr	r1, [pc, #36]	; 895c <mmu_disable+0x50>
    8934:	e59f2024 	ldr	r2, [pc, #36]	; 8960 <mmu_disable+0x54>
    8938:	e3a0309e 	mov	r3, #158	; 0x9e
    893c:	eb000679 	bl	a328 <printk>
    8940:	eb000808 	bl	a968 <clean_reboot>
    8944:	e3c00001 	bic	r0, r0, #1
    8948:	ebffffcf 	bl	888c <mmu_disable_set>
    894c:	e28dd00c 	add	sp, sp, #12
    8950:	e49df004 	pop	{pc}		; (ldr pc, [sp], #4)
    8954:	0000b5d0 	ldrdeq	fp, [r0], -r0
    8958:	0000b140 	andeq	fp, r0, r0, asr #2
    895c:	0000b298 	muleq	r0, r8, r2
    8960:	0000b248 	andeq	fp, r0, r8, asr #4

00008964 <mmu_enable_set>:
    8964:	e52de004 	push	{lr}		; (str lr, [sp, #-4]!)
    8968:	e24dd00c 	sub	sp, sp, #12
    896c:	e3100001 	tst	r0, #1
    8970:	1a000008 	bne	8998 <mmu_enable_set+0x34>
    8974:	eb000686 	bl	a394 <rpi_reset_putc>
    8978:	e59f3024 	ldr	r3, [pc, #36]	; 89a4 <mmu_enable_set+0x40>
    897c:	e58d3000 	str	r3, [sp]
    8980:	e59f0020 	ldr	r0, [pc, #32]	; 89a8 <mmu_enable_set+0x44>
    8984:	e59f1020 	ldr	r1, [pc, #32]	; 89ac <mmu_enable_set+0x48>
    8988:	e59f2020 	ldr	r2, [pc, #32]	; 89b0 <mmu_enable_set+0x4c>
    898c:	e3a030a4 	mov	r3, #164	; 0xa4
    8990:	eb000664 	bl	a328 <printk>
    8994:	eb0007f3 	bl	a968 <clean_reboot>
    8998:	eb0005f5 	bl	a174 <our_mmu_enable_set_asm>
    899c:	e28dd00c 	add	sp, sp, #12
    89a0:	e49df004 	pop	{pc}		; (ldr pc, [sp], #4)
    89a4:	0000b5d0 	ldrdeq	fp, [r0], -r0
    89a8:	0000b140 	andeq	fp, r0, r0, asr #2
    89ac:	0000b298 	muleq	r0, r8, r2
    89b0:	0000b254 	andeq	fp, r0, r4, asr r2

000089b4 <mmu_enable>:
    89b4:	e52de004 	push	{lr}		; (str lr, [sp, #-4]!)
    89b8:	e24dd00c 	sub	sp, sp, #12
    89bc:	eb000545 	bl	9ed8 <cp15_ctrl_reg1_rd>
    89c0:	e3100001 	tst	r0, #1
    89c4:	0a000008 	beq	89ec <mmu_enable+0x38>
    89c8:	eb000671 	bl	a394 <rpi_reset_putc>
    89cc:	e59f3028 	ldr	r3, [pc, #40]	; 89fc <mmu_enable+0x48>
    89d0:	e58d3000 	str	r3, [sp]
    89d4:	e59f0024 	ldr	r0, [pc, #36]	; 8a00 <mmu_enable+0x4c>
    89d8:	e59f1024 	ldr	r1, [pc, #36]	; 8a04 <mmu_enable+0x50>
    89dc:	e59f2024 	ldr	r2, [pc, #36]	; 8a08 <mmu_enable+0x54>
    89e0:	e3a030a9 	mov	r3, #169	; 0xa9
    89e4:	eb00064f 	bl	a328 <printk>
    89e8:	eb0007de 	bl	a968 <clean_reboot>
    89ec:	e3800001 	orr	r0, r0, #1
    89f0:	ebffffdb 	bl	8964 <mmu_enable_set>
    89f4:	e28dd00c 	add	sp, sp, #12
    89f8:	e49df004 	pop	{pc}		; (ldr pc, [sp], #4)
    89fc:	0000b5ac 	andeq	fp, r0, ip, lsr #11
    8a00:	0000b140 	andeq	fp, r0, r0, asr #2
    8a04:	0000b298 	muleq	r0, r8, r2
    8a08:	0000b264 	andeq	fp, r0, r4, ror #4

00008a0c <read_domain_access_ctrl>:
    8a0c:	ee130f10 	mrc	15, 0, r0, cr3, cr0, {0}
    8a10:	e12fff1e 	bx	lr

00008a14 <write_domain_access_ctrl>:
    8a14:	e92d4008 	push	{r3, lr}
    8a18:	eb00059c 	bl	a090 <our_cp15_domain_ctrl_wr>
    8a1c:	e8bd8008 	pop	{r3, pc}

00008a20 <set_procid_ttbr0>:
    8a20:	e52de004 	push	{lr}		; (str lr, [sp, #-4]!)
    8a24:	e24dd00c 	sub	sp, sp, #12
    8a28:	e1b03c20 	lsrs	r3, r0, #24
    8a2c:	0a000008 	beq	8a54 <set_procid_ttbr0+0x34>
    8a30:	eb000657 	bl	a394 <rpi_reset_putc>
    8a34:	e59f3088 	ldr	r3, [pc, #136]	; 8ac4 <set_procid_ttbr0+0xa4>
    8a38:	e58d3000 	str	r3, [sp]
    8a3c:	e59f0084 	ldr	r0, [pc, #132]	; 8ac8 <set_procid_ttbr0+0xa8>
    8a40:	e59f1084 	ldr	r1, [pc, #132]	; 8acc <set_procid_ttbr0+0xac>
    8a44:	e59f2084 	ldr	r2, [pc, #132]	; 8ad0 <set_procid_ttbr0+0xb0>
    8a48:	e3a030bb 	mov	r3, #187	; 0xbb
    8a4c:	eb000635 	bl	a328 <printk>
    8a50:	eb0007c4 	bl	a968 <clean_reboot>
    8a54:	e3500040 	cmp	r0, #64	; 0x40
    8a58:	8a000008 	bhi	8a80 <set_procid_ttbr0+0x60>
    8a5c:	eb00064c 	bl	a394 <rpi_reset_putc>
    8a60:	e59f306c 	ldr	r3, [pc, #108]	; 8ad4 <set_procid_ttbr0+0xb4>
    8a64:	e58d3000 	str	r3, [sp]
    8a68:	e59f0058 	ldr	r0, [pc, #88]	; 8ac8 <set_procid_ttbr0+0xa8>
    8a6c:	e59f1058 	ldr	r1, [pc, #88]	; 8acc <set_procid_ttbr0+0xac>
    8a70:	e59f2058 	ldr	r2, [pc, #88]	; 8ad0 <set_procid_ttbr0+0xb0>
    8a74:	e3a030bc 	mov	r3, #188	; 0xbc
    8a78:	eb00062a 	bl	a328 <printk>
    8a7c:	eb0007b9 	bl	a968 <clean_reboot>
    8a80:	e2413001 	sub	r3, r1, #1
    8a84:	e353003e 	cmp	r3, #62	; 0x3e
    8a88:	9a000008 	bls	8ab0 <set_procid_ttbr0+0x90>
    8a8c:	eb000640 	bl	a394 <rpi_reset_putc>
    8a90:	e59f3040 	ldr	r3, [pc, #64]	; 8ad8 <set_procid_ttbr0+0xb8>
    8a94:	e58d3000 	str	r3, [sp]
    8a98:	e59f0028 	ldr	r0, [pc, #40]	; 8ac8 <set_procid_ttbr0+0xa8>
    8a9c:	e59f1028 	ldr	r1, [pc, #40]	; 8acc <set_procid_ttbr0+0xac>
    8aa0:	e59f2028 	ldr	r2, [pc, #40]	; 8ad0 <set_procid_ttbr0+0xb0>
    8aa4:	e3a030bd 	mov	r3, #189	; 0xbd
    8aa8:	eb00061e 	bl	a328 <printk>
    8aac:	eb0007ad 	bl	a968 <clean_reboot>
    8ab0:	e1810400 	orr	r0, r1, r0, lsl #8
    8ab4:	e1a01002 	mov	r1, r2
    8ab8:	eb00058a 	bl	a0e8 <our_cp15_set_procid_ttbr0>
    8abc:	e28dd00c 	add	sp, sp, #12
    8ac0:	e49df004 	pop	{pc}		; (ldr pc, [sp], #4)
    8ac4:	0000b5e0 	andeq	fp, r0, r0, ror #11
    8ac8:	0000b140 	andeq	fp, r0, r0, asr #2
    8acc:	0000b298 	muleq	r0, r8, r2
    8ad0:	0000b270 	andeq	fp, r0, r0, ror r2
    8ad4:	0000b5f4 	strdeq	fp, [r0], -r4
    8ad8:	0000b600 	andeq	fp, r0, r0, lsl #12

00008adc <asm_not_implemented>:
    8adc:	e52de004 	push	{lr}		; (str lr, [sp, #-4]!)
    8ae0:	e24dd00c 	sub	sp, sp, #12
    8ae4:	e1a04000 	mov	r4, r0
    8ae8:	ebfffdd6 	bl	8248 <mmu_is_enabled>
    8aec:	e3500000 	cmp	r0, #0
    8af0:	0a000000 	beq	8af8 <asm_not_implemented+0x1c>
    8af4:	ebffff84 	bl	890c <mmu_disable>
    8af8:	eb000625 	bl	a394 <rpi_reset_putc>
    8afc:	e58d4000 	str	r4, [sp]
    8b00:	e59f0010 	ldr	r0, [pc, #16]	; 8b18 <asm_not_implemented+0x3c>
    8b04:	e59f1010 	ldr	r1, [pc, #16]	; 8b1c <asm_not_implemented+0x40>
    8b08:	e59f2010 	ldr	r2, [pc, #16]	; 8b20 <asm_not_implemented+0x44>
    8b0c:	e3a030c5 	mov	r3, #197	; 0xc5
    8b10:	eb000604 	bl	a328 <printk>
    8b14:	eb000793 	bl	a968 <clean_reboot>
    8b18:	0000b614 	andeq	fp, r0, r4, lsl r6
    8b1c:	0000b298 	muleq	r0, r8, r2
    8b20:	0000b284 	andeq	fp, r0, r4, lsl #5

00008b24 <hash_print>:
    8b24:	e92d4038 	push	{r3, r4, r5, lr}
    8b28:	e1a05000 	mov	r5, r0
    8b2c:	e1a04002 	mov	r4, r2
    8b30:	e1a00001 	mov	r0, r1
    8b34:	e1a01002 	mov	r1, r2
    8b38:	eb0005b6 	bl	a218 <fast_hash>
    8b3c:	e1a02000 	mov	r2, r0
    8b40:	e59f000c 	ldr	r0, [pc, #12]	; 8b54 <hash_print+0x30>
    8b44:	e1a01005 	mov	r1, r5
    8b48:	e1a03004 	mov	r3, r4
    8b4c:	eb0005f5 	bl	a328 <printk>
    8b50:	e8bd8038 	pop	{r3, r4, r5, pc}
    8b54:	0000b64c 	andeq	fp, r0, ip, asr #12

00008b58 <domain_acl_print>:
    8b58:	e92d4008 	push	{r3, lr}
    8b5c:	e59f0014 	ldr	r0, [pc, #20]	; 8b78 <domain_acl_print+0x20>
    8b60:	eb0005f0 	bl	a328 <printk>
    8b64:	ebffffa8 	bl	8a0c <read_domain_access_ctrl>
    8b68:	e1a01000 	mov	r1, r0
    8b6c:	e59f0008 	ldr	r0, [pc, #8]	; 8b7c <domain_acl_print+0x24>
    8b70:	eb0005ec 	bl	a328 <printk>
    8b74:	e8bd8008 	pop	{r3, pc}
    8b78:	0000b668 	andeq	fp, r0, r8, ror #12
    8b7c:	0000b680 	andeq	fp, r0, r0, lsl #13

00008b80 <control_reg1_check_offsets>:
    8b80:	e52de004 	push	{lr}		; (str lr, [sp, #-4]!)
    8b84:	e49df004 	pop	{pc}		; (ldr pc, [sp], #4)

00008b88 <control_reg1_sanity_check>:
    8b88:	e52de004 	push	{lr}		; (str lr, [sp, #-4]!)
    8b8c:	e24dd00c 	sub	sp, sp, #12
    8b90:	e5d03000 	ldrb	r3, [r0]
    8b94:	e1a03223 	lsr	r3, r3, #4
    8b98:	e2033007 	and	r3, r3, #7
    8b9c:	e3530007 	cmp	r3, #7
    8ba0:	0a000008 	beq	8bc8 <control_reg1_sanity_check+0x40>
    8ba4:	eb0005fa 	bl	a394 <rpi_reset_putc>
    8ba8:	e59f31a0 	ldr	r3, [pc, #416]	; 8d50 <control_reg1_sanity_check+0x1c8>
    8bac:	e58d3000 	str	r3, [sp]
    8bb0:	e59f019c 	ldr	r0, [pc, #412]	; 8d54 <control_reg1_sanity_check+0x1cc>
    8bb4:	e59f119c 	ldr	r1, [pc, #412]	; 8d58 <control_reg1_sanity_check+0x1d0>
    8bb8:	e59f219c 	ldr	r2, [pc, #412]	; 8d5c <control_reg1_sanity_check+0x1d4>
    8bbc:	e3a0303b 	mov	r3, #59	; 0x3b
    8bc0:	eb0005d8 	bl	a328 <printk>
    8bc4:	eb000767 	bl	a968 <clean_reboot>
    8bc8:	e5d03002 	ldrb	r3, [r0, #2]
    8bcc:	e3130001 	tst	r3, #1
    8bd0:	1a000008 	bne	8bf8 <control_reg1_sanity_check+0x70>
    8bd4:	eb0005ee 	bl	a394 <rpi_reset_putc>
    8bd8:	e59f3180 	ldr	r3, [pc, #384]	; 8d60 <control_reg1_sanity_check+0x1d8>
    8bdc:	e58d3000 	str	r3, [sp]
    8be0:	e59f016c 	ldr	r0, [pc, #364]	; 8d54 <control_reg1_sanity_check+0x1cc>
    8be4:	e59f116c 	ldr	r1, [pc, #364]	; 8d58 <control_reg1_sanity_check+0x1d0>
    8be8:	e59f216c 	ldr	r2, [pc, #364]	; 8d5c <control_reg1_sanity_check+0x1d4>
    8bec:	e3a0303c 	mov	r3, #60	; 0x3c
    8bf0:	eb0005cc 	bl	a328 <printk>
    8bf4:	eb00075b 	bl	a968 <clean_reboot>
    8bf8:	e5d03002 	ldrb	r3, [r0, #2]
    8bfc:	e3130004 	tst	r3, #4
    8c00:	1a000008 	bne	8c28 <control_reg1_sanity_check+0xa0>
    8c04:	eb0005e2 	bl	a394 <rpi_reset_putc>
    8c08:	e59f3154 	ldr	r3, [pc, #340]	; 8d64 <control_reg1_sanity_check+0x1dc>
    8c0c:	e58d3000 	str	r3, [sp]
    8c10:	e59f013c 	ldr	r0, [pc, #316]	; 8d54 <control_reg1_sanity_check+0x1cc>
    8c14:	e59f113c 	ldr	r1, [pc, #316]	; 8d58 <control_reg1_sanity_check+0x1d0>
    8c18:	e59f213c 	ldr	r2, [pc, #316]	; 8d5c <control_reg1_sanity_check+0x1d4>
    8c1c:	e3a0303d 	mov	r3, #61	; 0x3d
    8c20:	eb0005c0 	bl	a328 <printk>
    8c24:	eb00074f 	bl	a968 <clean_reboot>
    8c28:	e5d03002 	ldrb	r3, [r0, #2]
    8c2c:	e3130002 	tst	r3, #2
    8c30:	0a000008 	beq	8c58 <control_reg1_sanity_check+0xd0>
    8c34:	eb0005d6 	bl	a394 <rpi_reset_putc>
    8c38:	e59f3128 	ldr	r3, [pc, #296]	; 8d68 <control_reg1_sanity_check+0x1e0>
    8c3c:	e58d3000 	str	r3, [sp]
    8c40:	e59f010c 	ldr	r0, [pc, #268]	; 8d54 <control_reg1_sanity_check+0x1cc>
    8c44:	e59f110c 	ldr	r1, [pc, #268]	; 8d58 <control_reg1_sanity_check+0x1d0>
    8c48:	e59f210c 	ldr	r2, [pc, #268]	; 8d5c <control_reg1_sanity_check+0x1d4>
    8c4c:	e3a03040 	mov	r3, #64	; 0x40
    8c50:	eb0005b4 	bl	a328 <printk>
    8c54:	eb000743 	bl	a968 <clean_reboot>
    8c58:	e5d03002 	ldrb	r3, [r0, #2]
    8c5c:	e3130008 	tst	r3, #8
    8c60:	0a000008 	beq	8c88 <control_reg1_sanity_check+0x100>
    8c64:	eb0005ca 	bl	a394 <rpi_reset_putc>
    8c68:	e59f30fc 	ldr	r3, [pc, #252]	; 8d6c <control_reg1_sanity_check+0x1e4>
    8c6c:	e58d3000 	str	r3, [sp]
    8c70:	e59f00dc 	ldr	r0, [pc, #220]	; 8d54 <control_reg1_sanity_check+0x1cc>
    8c74:	e59f10dc 	ldr	r1, [pc, #220]	; 8d58 <control_reg1_sanity_check+0x1d0>
    8c78:	e59f20dc 	ldr	r2, [pc, #220]	; 8d5c <control_reg1_sanity_check+0x1d4>
    8c7c:	e3a03041 	mov	r3, #65	; 0x41
    8c80:	eb0005a8 	bl	a328 <printk>
    8c84:	eb000737 	bl	a968 <clean_reboot>
    8c88:	e5d03002 	ldrb	r3, [r0, #2]
    8c8c:	e3130010 	tst	r3, #16
    8c90:	0a000008 	beq	8cb8 <control_reg1_sanity_check+0x130>
    8c94:	eb0005be 	bl	a394 <rpi_reset_putc>
    8c98:	e59f30d0 	ldr	r3, [pc, #208]	; 8d70 <control_reg1_sanity_check+0x1e8>
    8c9c:	e58d3000 	str	r3, [sp]
    8ca0:	e59f00ac 	ldr	r0, [pc, #172]	; 8d54 <control_reg1_sanity_check+0x1cc>
    8ca4:	e59f10ac 	ldr	r1, [pc, #172]	; 8d58 <control_reg1_sanity_check+0x1d0>
    8ca8:	e59f20ac 	ldr	r2, [pc, #172]	; 8d5c <control_reg1_sanity_check+0x1d4>
    8cac:	e3a03042 	mov	r3, #66	; 0x42
    8cb0:	eb00059c 	bl	a328 <printk>
    8cb4:	eb00072b 	bl	a968 <clean_reboot>
    8cb8:	e5d03003 	ldrb	r3, [r0, #3]
    8cbc:	e3130004 	tst	r3, #4
    8cc0:	0a000008 	beq	8ce8 <control_reg1_sanity_check+0x160>
    8cc4:	eb0005b2 	bl	a394 <rpi_reset_putc>
    8cc8:	e59f30a4 	ldr	r3, [pc, #164]	; 8d74 <control_reg1_sanity_check+0x1ec>
    8ccc:	e58d3000 	str	r3, [sp]
    8cd0:	e59f007c 	ldr	r0, [pc, #124]	; 8d54 <control_reg1_sanity_check+0x1cc>
    8cd4:	e59f107c 	ldr	r1, [pc, #124]	; 8d58 <control_reg1_sanity_check+0x1d0>
    8cd8:	e59f207c 	ldr	r2, [pc, #124]	; 8d5c <control_reg1_sanity_check+0x1d4>
    8cdc:	e3a0304b 	mov	r3, #75	; 0x4b
    8ce0:	eb000590 	bl	a328 <printk>
    8ce4:	eb00071f 	bl	a968 <clean_reboot>
    8ce8:	e5d03001 	ldrb	r3, [r0, #1]
    8cec:	e3130010 	tst	r3, #16
    8cf0:	0a000008 	beq	8d18 <control_reg1_sanity_check+0x190>
    8cf4:	eb0005a6 	bl	a394 <rpi_reset_putc>
    8cf8:	e59f3078 	ldr	r3, [pc, #120]	; 8d78 <control_reg1_sanity_check+0x1f0>
    8cfc:	e58d3000 	str	r3, [sp]
    8d00:	e59f004c 	ldr	r0, [pc, #76]	; 8d54 <control_reg1_sanity_check+0x1cc>
    8d04:	e59f104c 	ldr	r1, [pc, #76]	; 8d58 <control_reg1_sanity_check+0x1d0>
    8d08:	e59f204c 	ldr	r2, [pc, #76]	; 8d5c <control_reg1_sanity_check+0x1d4>
    8d0c:	e3a0304c 	mov	r3, #76	; 0x4c
    8d10:	eb000584 	bl	a328 <printk>
    8d14:	eb000713 	bl	a968 <clean_reboot>
    8d18:	e5d03000 	ldrb	r3, [r0]
    8d1c:	e3130004 	tst	r3, #4
    8d20:	0a000008 	beq	8d48 <control_reg1_sanity_check+0x1c0>
    8d24:	eb00059a 	bl	a394 <rpi_reset_putc>
    8d28:	e59f304c 	ldr	r3, [pc, #76]	; 8d7c <control_reg1_sanity_check+0x1f4>
    8d2c:	e58d3000 	str	r3, [sp]
    8d30:	e59f001c 	ldr	r0, [pc, #28]	; 8d54 <control_reg1_sanity_check+0x1cc>
    8d34:	e59f101c 	ldr	r1, [pc, #28]	; 8d58 <control_reg1_sanity_check+0x1d0>
    8d38:	e59f201c 	ldr	r2, [pc, #28]	; 8d5c <control_reg1_sanity_check+0x1d4>
    8d3c:	e3a0304d 	mov	r3, #77	; 0x4d
    8d40:	eb000578 	bl	a328 <printk>
    8d44:	eb000707 	bl	a968 <clean_reboot>
    8d48:	e28dd00c 	add	sp, sp, #12
    8d4c:	e49df004 	pop	{pc}		; (ldr pc, [sp], #4)
    8d50:	0000b7e4 	andeq	fp, r0, r4, ror #15
    8d54:	0000b140 	andeq	fp, r0, r0, asr #2
    8d58:	0000b6d0 	ldrdeq	fp, [r0], -r0
    8d5c:	0000ba24 	andeq	fp, r0, r4, lsr #20
    8d60:	0000b7fc 	strdeq	fp, [r0], -ip
    8d64:	0000b808 	andeq	fp, r0, r8, lsl #16
    8d68:	0000b814 	andeq	fp, r0, r4, lsl r8
    8d6c:	0000b824 	andeq	fp, r0, r4, lsr #16
    8d70:	0000b834 	andeq	fp, r0, r4, lsr r8
    8d74:	0000b840 	andeq	fp, r0, r0, asr #16
    8d78:	0000b850 	andeq	fp, r0, r0, asr r8
    8d7c:	0000b864 	andeq	fp, r0, r4, ror #16

00008d80 <control_reg1_print>:
    8d80:	e92d4010 	push	{r4, lr}
    8d84:	e1a04000 	mov	r4, r0
    8d88:	ebffff7e 	bl	8b88 <control_reg1_sanity_check>
    8d8c:	e59f01a0 	ldr	r0, [pc, #416]	; 8f34 <control_reg1_print+0x1b4>
    8d90:	eb000564 	bl	a328 <printk>
    8d94:	e5d41003 	ldrb	r1, [r4, #3]
    8d98:	e1a012a1 	lsr	r1, r1, #5
    8d9c:	e59f0194 	ldr	r0, [pc, #404]	; 8f38 <control_reg1_print+0x1b8>
    8da0:	e2011001 	and	r1, r1, #1
    8da4:	e59f2190 	ldr	r2, [pc, #400]	; 8f3c <control_reg1_print+0x1bc>
    8da8:	eb00055e 	bl	a328 <printk>
    8dac:	e5d41003 	ldrb	r1, [r4, #3]
    8db0:	e1a01221 	lsr	r1, r1, #4
    8db4:	e59f017c 	ldr	r0, [pc, #380]	; 8f38 <control_reg1_print+0x1b8>
    8db8:	e2011001 	and	r1, r1, #1
    8dbc:	e59f217c 	ldr	r2, [pc, #380]	; 8f40 <control_reg1_print+0x1c0>
    8dc0:	eb000558 	bl	a328 <printk>
    8dc4:	e5d41003 	ldrb	r1, [r4, #3]
    8dc8:	e1a01121 	lsr	r1, r1, #2
    8dcc:	e59f0164 	ldr	r0, [pc, #356]	; 8f38 <control_reg1_print+0x1b8>
    8dd0:	e2011001 	and	r1, r1, #1
    8dd4:	e59f2168 	ldr	r2, [pc, #360]	; 8f44 <control_reg1_print+0x1c4>
    8dd8:	eb000552 	bl	a328 <printk>
    8ddc:	e5d41003 	ldrb	r1, [r4, #3]
    8de0:	e1a010a1 	lsr	r1, r1, #1
    8de4:	e59f014c 	ldr	r0, [pc, #332]	; 8f38 <control_reg1_print+0x1b8>
    8de8:	e2011001 	and	r1, r1, #1
    8dec:	e59f2154 	ldr	r2, [pc, #340]	; 8f48 <control_reg1_print+0x1c8>
    8df0:	eb00054c 	bl	a328 <printk>
    8df4:	e5d41003 	ldrb	r1, [r4, #3]
    8df8:	e59f0138 	ldr	r0, [pc, #312]	; 8f38 <control_reg1_print+0x1b8>
    8dfc:	e2011001 	and	r1, r1, #1
    8e00:	e59f2144 	ldr	r2, [pc, #324]	; 8f4c <control_reg1_print+0x1cc>
    8e04:	eb000547 	bl	a328 <printk>
    8e08:	e5d41002 	ldrb	r1, [r4, #2]
    8e0c:	e59f0124 	ldr	r0, [pc, #292]	; 8f38 <control_reg1_print+0x1b8>
    8e10:	e1a013a1 	lsr	r1, r1, #7
    8e14:	e59f2134 	ldr	r2, [pc, #308]	; 8f50 <control_reg1_print+0x1d0>
    8e18:	eb000542 	bl	a328 <printk>
    8e1c:	e5d41002 	ldrb	r1, [r4, #2]
    8e20:	e1a01321 	lsr	r1, r1, #6
    8e24:	e59f010c 	ldr	r0, [pc, #268]	; 8f38 <control_reg1_print+0x1b8>
    8e28:	e2011001 	and	r1, r1, #1
    8e2c:	e59f2120 	ldr	r2, [pc, #288]	; 8f54 <control_reg1_print+0x1d4>
    8e30:	eb00053c 	bl	a328 <printk>
    8e34:	e5d41002 	ldrb	r1, [r4, #2]
    8e38:	e1a012a1 	lsr	r1, r1, #5
    8e3c:	e59f00f4 	ldr	r0, [pc, #244]	; 8f38 <control_reg1_print+0x1b8>
    8e40:	e2011001 	and	r1, r1, #1
    8e44:	e59f210c 	ldr	r2, [pc, #268]	; 8f58 <control_reg1_print+0x1d8>
    8e48:	eb000536 	bl	a328 <printk>
    8e4c:	e5d41001 	ldrb	r1, [r4, #1]
    8e50:	e1a01321 	lsr	r1, r1, #6
    8e54:	e59f00dc 	ldr	r0, [pc, #220]	; 8f38 <control_reg1_print+0x1b8>
    8e58:	e2011001 	and	r1, r1, #1
    8e5c:	e59f20f8 	ldr	r2, [pc, #248]	; 8f5c <control_reg1_print+0x1dc>
    8e60:	eb000530 	bl	a328 <printk>
    8e64:	e5d41001 	ldrb	r1, [r4, #1]
    8e68:	e1a01221 	lsr	r1, r1, #4
    8e6c:	e59f00c4 	ldr	r0, [pc, #196]	; 8f38 <control_reg1_print+0x1b8>
    8e70:	e2011001 	and	r1, r1, #1
    8e74:	e59f20e4 	ldr	r2, [pc, #228]	; 8f60 <control_reg1_print+0x1e0>
    8e78:	eb00052a 	bl	a328 <printk>
    8e7c:	e5d41001 	ldrb	r1, [r4, #1]
    8e80:	e1a011a1 	lsr	r1, r1, #3
    8e84:	e59f00ac 	ldr	r0, [pc, #172]	; 8f38 <control_reg1_print+0x1b8>
    8e88:	e2011001 	and	r1, r1, #1
    8e8c:	e59f20d0 	ldr	r2, [pc, #208]	; 8f64 <control_reg1_print+0x1e4>
    8e90:	eb000524 	bl	a328 <printk>
    8e94:	e5d41001 	ldrb	r1, [r4, #1]
    8e98:	e1a010a1 	lsr	r1, r1, #1
    8e9c:	e59f0094 	ldr	r0, [pc, #148]	; 8f38 <control_reg1_print+0x1b8>
    8ea0:	e2011001 	and	r1, r1, #1
    8ea4:	e59f20bc 	ldr	r2, [pc, #188]	; 8f68 <control_reg1_print+0x1e8>
    8ea8:	eb00051e 	bl	a328 <printk>
    8eac:	e5d41001 	ldrb	r1, [r4, #1]
    8eb0:	e59f0080 	ldr	r0, [pc, #128]	; 8f38 <control_reg1_print+0x1b8>
    8eb4:	e2011001 	and	r1, r1, #1
    8eb8:	e59f20ac 	ldr	r2, [pc, #172]	; 8f6c <control_reg1_print+0x1ec>
    8ebc:	eb000519 	bl	a328 <printk>
    8ec0:	e5d41000 	ldrb	r1, [r4]
    8ec4:	e59f006c 	ldr	r0, [pc, #108]	; 8f38 <control_reg1_print+0x1b8>
    8ec8:	e1a013a1 	lsr	r1, r1, #7
    8ecc:	e59f209c 	ldr	r2, [pc, #156]	; 8f70 <control_reg1_print+0x1f0>
    8ed0:	eb000514 	bl	a328 <printk>
    8ed4:	e5d41000 	ldrb	r1, [r4]
    8ed8:	e1a011a1 	lsr	r1, r1, #3
    8edc:	e59f0054 	ldr	r0, [pc, #84]	; 8f38 <control_reg1_print+0x1b8>
    8ee0:	e2011001 	and	r1, r1, #1
    8ee4:	e59f2088 	ldr	r2, [pc, #136]	; 8f74 <control_reg1_print+0x1f4>
    8ee8:	eb00050e 	bl	a328 <printk>
    8eec:	e5d41000 	ldrb	r1, [r4]
    8ef0:	e1a01121 	lsr	r1, r1, #2
    8ef4:	e59f003c 	ldr	r0, [pc, #60]	; 8f38 <control_reg1_print+0x1b8>
    8ef8:	e2011001 	and	r1, r1, #1
    8efc:	e59f2074 	ldr	r2, [pc, #116]	; 8f78 <control_reg1_print+0x1f8>
    8f00:	eb000508 	bl	a328 <printk>
    8f04:	e5d41000 	ldrb	r1, [r4]
    8f08:	e1a010a1 	lsr	r1, r1, #1
    8f0c:	e59f0024 	ldr	r0, [pc, #36]	; 8f38 <control_reg1_print+0x1b8>
    8f10:	e2011001 	and	r1, r1, #1
    8f14:	e59f2060 	ldr	r2, [pc, #96]	; 8f7c <control_reg1_print+0x1fc>
    8f18:	eb000502 	bl	a328 <printk>
    8f1c:	e5d41000 	ldrb	r1, [r4]
    8f20:	e59f0010 	ldr	r0, [pc, #16]	; 8f38 <control_reg1_print+0x1b8>
    8f24:	e2011001 	and	r1, r1, #1
    8f28:	e59f2050 	ldr	r2, [pc, #80]	; 8f80 <control_reg1_print+0x200>
    8f2c:	eb0004fd 	bl	a328 <printk>
    8f30:	e8bd8010 	pop	{r4, pc}
    8f34:	0000b87c 	andeq	fp, r0, ip, ror r8
    8f38:	0000b894 	muleq	r0, r4, r8
    8f3c:	0000b7d8 	ldrdeq	fp, [r0], -r8
    8f40:	0000b7c8 	andeq	fp, r0, r8, asr #15
    8f44:	0000b844 	andeq	fp, r0, r4, asr #16
    8f48:	0000b7c4 	andeq	fp, r0, r4, asr #15
    8f4c:	0000b7b8 			; <UNDEFINED> instruction: 0x0000b7b8
    8f50:	0000b7b0 			; <UNDEFINED> instruction: 0x0000b7b0
    8f54:	0000b7a4 	andeq	fp, r0, r4, lsr #15
    8f58:	0000b7a0 	andeq	fp, r0, r0, lsr #15
    8f5c:	0000b78c 	andeq	fp, r0, ip, lsl #15
    8f60:	0000b854 	andeq	fp, r0, r4, asr r8
    8f64:	0000b76c 	andeq	fp, r0, ip, ror #14
    8f68:	0000b75c 	andeq	fp, r0, ip, asr r7
    8f6c:	0000b754 	andeq	fp, r0, r4, asr r7
    8f70:	0000b748 	andeq	fp, r0, r8, asr #14
    8f74:	0000b73c 	andeq	fp, r0, ip, lsr r7
    8f78:	0000b868 	andeq	fp, r0, r8, ror #16
    8f7c:	0000b730 	andeq	fp, r0, r0, lsr r7
    8f80:	0000b5a0 	andeq	fp, r0, r0, lsr #11

00008f84 <tlb_config_check_offsets>:
    8f84:	e52de004 	push	{lr}		; (str lr, [sp, #-4]!)
    8f88:	e49df004 	pop	{pc}		; (ldr pc, [sp], #4)

00008f8c <tlb_config_print>:
    8f8c:	e92d4010 	push	{r4, lr}
    8f90:	e1a04000 	mov	r4, r0
    8f94:	e59f002c 	ldr	r0, [pc, #44]	; 8fc8 <tlb_config_print+0x3c>
    8f98:	eb0004e2 	bl	a328 <printk>
    8f9c:	e5d41000 	ldrb	r1, [r4]
    8fa0:	e59f0024 	ldr	r0, [pc, #36]	; 8fcc <tlb_config_print+0x40>
    8fa4:	e2011001 	and	r1, r1, #1
    8fa8:	eb0004de 	bl	a328 <printk>
    8fac:	e59f001c 	ldr	r0, [pc, #28]	; 8fd0 <tlb_config_print+0x44>
    8fb0:	e5d41001 	ldrb	r1, [r4, #1]
    8fb4:	eb0004db 	bl	a328 <printk>
    8fb8:	e59f0014 	ldr	r0, [pc, #20]	; 8fd4 <tlb_config_print+0x48>
    8fbc:	e5d41002 	ldrb	r1, [r4, #2]
    8fc0:	eb0004d8 	bl	a328 <printk>
    8fc4:	e8bd8010 	pop	{r4, pc}
    8fc8:	0000b8cc 	andeq	fp, r0, ip, asr #17
    8fcc:	0000b8dc 	ldrdeq	fp, [r0], -ip
    8fd0:	0000b8ec 	andeq	fp, r0, ip, ror #17
    8fd4:	0000b904 	andeq	fp, r0, r4, lsl #18

00008fd8 <fld_check_valid>:
    8fd8:	e52de004 	push	{lr}		; (str lr, [sp, #-4]!)
    8fdc:	e24dd00c 	sub	sp, sp, #12
    8fe0:	e5d03002 	ldrb	r3, [r0, #2]
    8fe4:	e3130008 	tst	r3, #8
    8fe8:	0a000008 	beq	9010 <fld_check_valid+0x38>
    8fec:	eb0004e8 	bl	a394 <rpi_reset_putc>
    8ff0:	e59f3174 	ldr	r3, [pc, #372]	; 916c <fld_check_valid+0x194>
    8ff4:	e58d3000 	str	r3, [sp]
    8ff8:	e59f0170 	ldr	r0, [pc, #368]	; 9170 <fld_check_valid+0x198>
    8ffc:	e59f1170 	ldr	r1, [pc, #368]	; 9174 <fld_check_valid+0x19c>
    9000:	e59f2170 	ldr	r2, [pc, #368]	; 9178 <fld_check_valid+0x1a0>
    9004:	e3a0307d 	mov	r3, #125	; 0x7d
    9008:	eb0004c6 	bl	a328 <printk>
    900c:	eb000655 	bl	a968 <clean_reboot>
    9010:	e5d03000 	ldrb	r3, [r0]
    9014:	e2033003 	and	r3, r3, #3
    9018:	e3530002 	cmp	r3, #2
    901c:	0a000008 	beq	9044 <fld_check_valid+0x6c>
    9020:	eb0004db 	bl	a394 <rpi_reset_putc>
    9024:	e59f3150 	ldr	r3, [pc, #336]	; 917c <fld_check_valid+0x1a4>
    9028:	e58d3000 	str	r3, [sp]
    902c:	e59f013c 	ldr	r0, [pc, #316]	; 9170 <fld_check_valid+0x198>
    9030:	e59f113c 	ldr	r1, [pc, #316]	; 9174 <fld_check_valid+0x19c>
    9034:	e59f213c 	ldr	r2, [pc, #316]	; 9178 <fld_check_valid+0x1a0>
    9038:	e3a0307e 	mov	r3, #126	; 0x7e
    903c:	eb0004b9 	bl	a328 <printk>
    9040:	eb000648 	bl	a968 <clean_reboot>
    9044:	e5d03002 	ldrb	r3, [r0, #2]
    9048:	e3130001 	tst	r3, #1
    904c:	0a000008 	beq	9074 <fld_check_valid+0x9c>
    9050:	eb0004cf 	bl	a394 <rpi_reset_putc>
    9054:	e59f3124 	ldr	r3, [pc, #292]	; 9180 <fld_check_valid+0x1a8>
    9058:	e58d3000 	str	r3, [sp]
    905c:	e59f010c 	ldr	r0, [pc, #268]	; 9170 <fld_check_valid+0x198>
    9060:	e59f110c 	ldr	r1, [pc, #268]	; 9174 <fld_check_valid+0x19c>
    9064:	e59f210c 	ldr	r2, [pc, #268]	; 9178 <fld_check_valid+0x1a0>
    9068:	e3a0307f 	mov	r3, #127	; 0x7f
    906c:	eb0004ad 	bl	a328 <printk>
    9070:	eb00063c 	bl	a968 <clean_reboot>
    9074:	e5d03001 	ldrb	r3, [r0, #1]
    9078:	e3130002 	tst	r3, #2
    907c:	0a000008 	beq	90a4 <fld_check_valid+0xcc>
    9080:	eb0004c3 	bl	a394 <rpi_reset_putc>
    9084:	e59f30f8 	ldr	r3, [pc, #248]	; 9184 <fld_check_valid+0x1ac>
    9088:	e58d3000 	str	r3, [sp]
    908c:	e59f00dc 	ldr	r0, [pc, #220]	; 9170 <fld_check_valid+0x198>
    9090:	e59f10dc 	ldr	r1, [pc, #220]	; 9174 <fld_check_valid+0x19c>
    9094:	e59f20dc 	ldr	r2, [pc, #220]	; 9178 <fld_check_valid+0x1a0>
    9098:	e3a03080 	mov	r3, #128	; 0x80
    909c:	eb0004a1 	bl	a328 <printk>
    90a0:	eb000630 	bl	a968 <clean_reboot>
    90a4:	e5d03001 	ldrb	r3, [r0, #1]
    90a8:	e3130070 	tst	r3, #112	; 0x70
    90ac:	0a000008 	beq	90d4 <fld_check_valid+0xfc>
    90b0:	eb0004b7 	bl	a394 <rpi_reset_putc>
    90b4:	e59f30cc 	ldr	r3, [pc, #204]	; 9188 <fld_check_valid+0x1b0>
    90b8:	e58d3000 	str	r3, [sp]
    90bc:	e59f00ac 	ldr	r0, [pc, #172]	; 9170 <fld_check_valid+0x198>
    90c0:	e59f10ac 	ldr	r1, [pc, #172]	; 9174 <fld_check_valid+0x19c>
    90c4:	e59f20ac 	ldr	r2, [pc, #172]	; 9178 <fld_check_valid+0x1a0>
    90c8:	e3a03081 	mov	r3, #129	; 0x81
    90cc:	eb000495 	bl	a328 <printk>
    90d0:	eb000624 	bl	a968 <clean_reboot>
    90d4:	e5d03000 	ldrb	r3, [r0]
    90d8:	e3130008 	tst	r3, #8
    90dc:	0a000008 	beq	9104 <fld_check_valid+0x12c>
    90e0:	eb0004ab 	bl	a394 <rpi_reset_putc>
    90e4:	e59f30a0 	ldr	r3, [pc, #160]	; 918c <fld_check_valid+0x1b4>
    90e8:	e58d3000 	str	r3, [sp]
    90ec:	e59f007c 	ldr	r0, [pc, #124]	; 9170 <fld_check_valid+0x198>
    90f0:	e59f107c 	ldr	r1, [pc, #124]	; 9174 <fld_check_valid+0x19c>
    90f4:	e59f207c 	ldr	r2, [pc, #124]	; 9178 <fld_check_valid+0x1a0>
    90f8:	e3a03082 	mov	r3, #130	; 0x82
    90fc:	eb000489 	bl	a328 <printk>
    9100:	eb000618 	bl	a968 <clean_reboot>
    9104:	e5d03000 	ldrb	r3, [r0]
    9108:	e3130004 	tst	r3, #4
    910c:	0a000008 	beq	9134 <fld_check_valid+0x15c>
    9110:	eb00049f 	bl	a394 <rpi_reset_putc>
    9114:	e59f3074 	ldr	r3, [pc, #116]	; 9190 <fld_check_valid+0x1b8>
    9118:	e58d3000 	str	r3, [sp]
    911c:	e59f004c 	ldr	r0, [pc, #76]	; 9170 <fld_check_valid+0x198>
    9120:	e59f104c 	ldr	r1, [pc, #76]	; 9174 <fld_check_valid+0x19c>
    9124:	e59f204c 	ldr	r2, [pc, #76]	; 9178 <fld_check_valid+0x1a0>
    9128:	e3a03083 	mov	r3, #131	; 0x83
    912c:	eb00047d 	bl	a328 <printk>
    9130:	eb00060c 	bl	a968 <clean_reboot>
    9134:	e5d03002 	ldrb	r3, [r0, #2]
    9138:	e3130004 	tst	r3, #4
    913c:	0a000008 	beq	9164 <fld_check_valid+0x18c>
    9140:	eb000493 	bl	a394 <rpi_reset_putc>
    9144:	e59f3048 	ldr	r3, [pc, #72]	; 9194 <fld_check_valid+0x1bc>
    9148:	e58d3000 	str	r3, [sp]
    914c:	e59f001c 	ldr	r0, [pc, #28]	; 9170 <fld_check_valid+0x198>
    9150:	e59f101c 	ldr	r1, [pc, #28]	; 9174 <fld_check_valid+0x19c>
    9154:	e59f201c 	ldr	r2, [pc, #28]	; 9178 <fld_check_valid+0x1a0>
    9158:	e3a03084 	mov	r3, #132	; 0x84
    915c:	eb000471 	bl	a328 <printk>
    9160:	eb000600 	bl	a968 <clean_reboot>
    9164:	e28dd00c 	add	sp, sp, #12
    9168:	e49df004 	pop	{pc}		; (ldr pc, [sp], #4)
    916c:	0000b91c 	andeq	fp, r0, ip, lsl r9
    9170:	0000b140 	andeq	fp, r0, r0, asr #2
    9174:	0000b6d0 	ldrdeq	fp, [r0], -r0
    9178:	0000ba40 	andeq	fp, r0, r0, asr #20
    917c:	0000b92c 	andeq	fp, r0, ip, lsr #18
    9180:	0000b93c 	andeq	fp, r0, ip, lsr r9
    9184:	0000b948 	andeq	fp, r0, r8, asr #18
    9188:	0000b954 	andeq	fp, r0, r4, asr r9
    918c:	0000b960 	andeq	fp, r0, r0, ror #18
    9190:	0000b96c 	andeq	fp, r0, ip, ror #18
    9194:	0000b978 	andeq	fp, r0, r8, ror r9

00009198 <fld_mk>:
    9198:	e3a00002 	mov	r0, #2
    919c:	e12fff1e 	bx	lr

000091a0 <fld_check_offsets>:
    91a0:	e92d4010 	push	{r4, lr}
    91a4:	e24dd020 	sub	sp, sp, #32
    91a8:	ebfffffa 	bl	9198 <fld_mk>
    91ac:	e28d3020 	add	r3, sp, #32
    91b0:	e5230004 	str	r0, [r3, #-4]!
    91b4:	e1a00003 	mov	r0, r3
    91b8:	ebffff86 	bl	8fd8 <fld_check_valid>
    91bc:	e59f4074 	ldr	r4, [pc, #116]	; 9238 <fld_check_offsets+0x98>
    91c0:	e1540004 	cmp	r4, r4
    91c4:	0a00000e 	beq	9204 <fld_check_offsets+0x64>
    91c8:	eb000471 	bl	a394 <rpi_reset_putc>
    91cc:	e58d4000 	str	r4, [sp]
    91d0:	e58d4004 	str	r4, [sp, #4]
    91d4:	e59f3060 	ldr	r3, [pc, #96]	; 923c <fld_check_offsets+0x9c>
    91d8:	e58d3008 	str	r3, [sp, #8]
    91dc:	e3a03014 	mov	r3, #20
    91e0:	e58d300c 	str	r3, [sp, #12]
    91e4:	e3a0300c 	mov	r3, #12
    91e8:	e58d3010 	str	r3, [sp, #16]
    91ec:	e59f004c 	ldr	r0, [pc, #76]	; 9240 <fld_check_offsets+0xa0>
    91f0:	e59f104c 	ldr	r1, [pc, #76]	; 9244 <fld_check_offsets+0xa4>
    91f4:	e59f204c 	ldr	r2, [pc, #76]	; 9248 <fld_check_offsets+0xa8>
    91f8:	e3a030a0 	mov	r3, #160	; 0xa0
    91fc:	eb000449 	bl	a328 <printk>
    9200:	eb0005d8 	bl	a968 <clean_reboot>
    9204:	e3740601 	cmn	r4, #1048576	; 0x100000
    9208:	0a000008 	beq	9230 <fld_check_offsets+0x90>
    920c:	eb000460 	bl	a394 <rpi_reset_putc>
    9210:	e59f3034 	ldr	r3, [pc, #52]	; 924c <fld_check_offsets+0xac>
    9214:	e58d3000 	str	r3, [sp]
    9218:	e59f0030 	ldr	r0, [pc, #48]	; 9250 <fld_check_offsets+0xb0>
    921c:	e59f1020 	ldr	r1, [pc, #32]	; 9244 <fld_check_offsets+0xa4>
    9220:	e59f2020 	ldr	r2, [pc, #32]	; 9248 <fld_check_offsets+0xa8>
    9224:	e3a030a0 	mov	r3, #160	; 0xa0
    9228:	eb00043e 	bl	a328 <printk>
    922c:	eb0005cd 	bl	a968 <clean_reboot>
    9230:	e28dd020 	add	sp, sp, #32
    9234:	e8bd8010 	pop	{r4, pc}
    9238:	fff00000 			; <UNDEFINED> instruction: 0xfff00000	; IMB
    923c:	0000b9c0 	andeq	fp, r0, r0, asr #19
    9240:	0000b6ec 	andeq	fp, r0, ip, ror #13
    9244:	0000b6d0 	ldrdeq	fp, [r0], -r0
    9248:	0000ba88 	andeq	fp, r0, r8, lsl #21
    924c:	0000b6e0 	andeq	fp, r0, r0, ror #13
    9250:	0000b140 	andeq	fp, r0, r0, asr #2

00009254 <fld_print>:
    9254:	e92d4010 	push	{r4, lr}
    9258:	e1a04000 	mov	r4, r0
    925c:	e59f0178 	ldr	r0, [pc, #376]	; 93dc <fld_print+0x188>
    9260:	eb000430 	bl	a328 <printk>
    9264:	e59f0174 	ldr	r0, [pc, #372]	; 93e0 <fld_print+0x18c>
    9268:	e1a01004 	mov	r1, r4
    926c:	eb00042d 	bl	a328 <printk>
    9270:	e1d410b2 	ldrh	r1, [r4, #2]
    9274:	e59f0168 	ldr	r0, [pc, #360]	; 93e4 <fld_print+0x190>
    9278:	e1a01221 	lsr	r1, r1, #4
    927c:	e59f2164 	ldr	r2, [pc, #356]	; 93e8 <fld_print+0x194>
    9280:	eb000428 	bl	a328 <printk>
    9284:	e1d410b2 	ldrh	r1, [r4, #2]
    9288:	e1a01221 	lsr	r1, r1, #4
    928c:	e3510008 	cmp	r1, #8
    9290:	da000001 	ble	929c <fld_print+0x48>
    9294:	e59f0150 	ldr	r0, [pc, #336]	; 93ec <fld_print+0x198>
    9298:	eb000422 	bl	a328 <printk>
    929c:	e1d410b2 	ldrh	r1, [r4, #2]
    92a0:	e1a01221 	lsr	r1, r1, #4
    92a4:	e59f0144 	ldr	r0, [pc, #324]	; 93f0 <fld_print+0x19c>
    92a8:	e1a01a01 	lsl	r1, r1, #20
    92ac:	eb00041d 	bl	a328 <printk>
    92b0:	e59f013c 	ldr	r0, [pc, #316]	; 93f4 <fld_print+0x1a0>
    92b4:	eb00041b 	bl	a328 <printk>
    92b8:	e5d41002 	ldrb	r1, [r4, #2]
    92bc:	e1a010a1 	lsr	r1, r1, #1
    92c0:	e59f011c 	ldr	r0, [pc, #284]	; 93e4 <fld_print+0x190>
    92c4:	e2011001 	and	r1, r1, #1
    92c8:	e59f2128 	ldr	r2, [pc, #296]	; 93f8 <fld_print+0x1a4>
    92cc:	eb000415 	bl	a328 <printk>
    92d0:	e5d41002 	ldrb	r1, [r4, #2]
    92d4:	e59f0108 	ldr	r0, [pc, #264]	; 93e4 <fld_print+0x190>
    92d8:	e2011001 	and	r1, r1, #1
    92dc:	e59f2118 	ldr	r2, [pc, #280]	; 93fc <fld_print+0x1a8>
    92e0:	eb000410 	bl	a328 <printk>
    92e4:	e5d41001 	ldrb	r1, [r4, #1]
    92e8:	e59f00f4 	ldr	r0, [pc, #244]	; 93e4 <fld_print+0x190>
    92ec:	e1a013a1 	lsr	r1, r1, #7
    92f0:	e59f2108 	ldr	r2, [pc, #264]	; 9400 <fld_print+0x1ac>
    92f4:	eb00040b 	bl	a328 <printk>
    92f8:	e5d41001 	ldrb	r1, [r4, #1]
    92fc:	e1a01221 	lsr	r1, r1, #4
    9300:	e59f00dc 	ldr	r0, [pc, #220]	; 93e4 <fld_print+0x190>
    9304:	e2011007 	and	r1, r1, #7
    9308:	e59f20f4 	ldr	r2, [pc, #244]	; 9404 <fld_print+0x1b0>
    930c:	eb000405 	bl	a328 <printk>
    9310:	e5d41001 	ldrb	r1, [r4, #1]
    9314:	e1a01121 	lsr	r1, r1, #2
    9318:	e59f00c4 	ldr	r0, [pc, #196]	; 93e4 <fld_print+0x190>
    931c:	e2011003 	and	r1, r1, #3
    9320:	e59f20e0 	ldr	r2, [pc, #224]	; 9408 <fld_print+0x1b4>
    9324:	eb0003ff 	bl	a328 <printk>
    9328:	e5d41001 	ldrb	r1, [r4, #1]
    932c:	e1a010a1 	lsr	r1, r1, #1
    9330:	e59f00ac 	ldr	r0, [pc, #172]	; 93e4 <fld_print+0x190>
    9334:	e2011001 	and	r1, r1, #1
    9338:	e59f20cc 	ldr	r2, [pc, #204]	; 940c <fld_print+0x1b8>
    933c:	eb0003f9 	bl	a328 <printk>
    9340:	e1d410b0 	ldrh	r1, [r4]
    9344:	e1a012a1 	lsr	r1, r1, #5
    9348:	e59f0094 	ldr	r0, [pc, #148]	; 93e4 <fld_print+0x190>
    934c:	e201100f 	and	r1, r1, #15
    9350:	e59f20b8 	ldr	r2, [pc, #184]	; 9410 <fld_print+0x1bc>
    9354:	eb0003f3 	bl	a328 <printk>
    9358:	e1d410b0 	ldrh	r1, [r4]
    935c:	e1a012a1 	lsr	r1, r1, #5
    9360:	e201100f 	and	r1, r1, #15
    9364:	e3510008 	cmp	r1, #8
    9368:	da000001 	ble	9374 <fld_print+0x120>
    936c:	e59f0078 	ldr	r0, [pc, #120]	; 93ec <fld_print+0x198>
    9370:	eb0003ec 	bl	a328 <printk>
    9374:	e5d41000 	ldrb	r1, [r4]
    9378:	e1a01221 	lsr	r1, r1, #4
    937c:	e59f0060 	ldr	r0, [pc, #96]	; 93e4 <fld_print+0x190>
    9380:	e2011001 	and	r1, r1, #1
    9384:	e59f2088 	ldr	r2, [pc, #136]	; 9414 <fld_print+0x1c0>
    9388:	eb0003e6 	bl	a328 <printk>
    938c:	e5d41000 	ldrb	r1, [r4]
    9390:	e1a011a1 	lsr	r1, r1, #3
    9394:	e59f0048 	ldr	r0, [pc, #72]	; 93e4 <fld_print+0x190>
    9398:	e2011001 	and	r1, r1, #1
    939c:	e59f2074 	ldr	r2, [pc, #116]	; 9418 <fld_print+0x1c4>
    93a0:	eb0003e0 	bl	a328 <printk>
    93a4:	e5d41000 	ldrb	r1, [r4]
    93a8:	e1a01121 	lsr	r1, r1, #2
    93ac:	e59f0030 	ldr	r0, [pc, #48]	; 93e4 <fld_print+0x190>
    93b0:	e2011001 	and	r1, r1, #1
    93b4:	e59f2060 	ldr	r2, [pc, #96]	; 941c <fld_print+0x1c8>
    93b8:	eb0003da 	bl	a328 <printk>
    93bc:	e5d41000 	ldrb	r1, [r4]
    93c0:	e59f001c 	ldr	r0, [pc, #28]	; 93e4 <fld_print+0x190>
    93c4:	e2011003 	and	r1, r1, #3
    93c8:	e59f2050 	ldr	r2, [pc, #80]	; 9420 <fld_print+0x1cc>
    93cc:	eb0003d5 	bl	a328 <printk>
    93d0:	e1a00004 	mov	r0, r4
    93d4:	ebfffeff 	bl	8fd8 <fld_check_valid>
    93d8:	e8bd8010 	pop	{r4, pc}
    93dc:	0000b9d0 	ldrdeq	fp, [r0], -r0
    93e0:	0000b9f0 	strdeq	fp, [r0], -r0
    93e4:	0000b894 	muleq	r0, r4, r8
    93e8:	0000b9c0 	andeq	fp, r0, r0, asr #19
    93ec:	0000b8a0 	andeq	fp, r0, r0, lsr #17
    93f0:	0000b9f8 	strdeq	fp, [r0], -r8
    93f4:	0000ba0c 	andeq	fp, r0, ip, lsl #20
    93f8:	0000b9b4 			; <UNDEFINED> instruction: 0x0000b9b4
    93fc:	0000b9b0 			; <UNDEFINED> instruction: 0x0000b9b0
    9400:	0000b9ac 	andeq	fp, r0, ip, lsr #19
    9404:	0000b9a8 	andeq	fp, r0, r8, lsr #19
    9408:	0000b9a4 	andeq	fp, r0, r4, lsr #19
    940c:	0000b9a0 	andeq	fp, r0, r0, lsr #19
    9410:	0000b998 	muleq	r0, r8, r9
    9414:	0000b994 	muleq	r0, r4, r9
    9418:	0000b990 	muleq	r0, r0, r9
    941c:	0000b98c 	andeq	fp, r0, ip, lsl #19
    9420:	0000b988 	andeq	fp, r0, r8, lsl #19

00009424 <check_vm_structs>:
    9424:	e92d4008 	push	{r3, lr}
    9428:	ebfffdd4 	bl	8b80 <control_reg1_check_offsets>
    942c:	ebfffed4 	bl	8f84 <tlb_config_check_offsets>
    9430:	ebffff5a 	bl	91a0 <fld_check_offsets>
    9434:	e8bd8008 	pop	{r3, pc}

00009438 <last_fault_get>:
    9438:	e1a03000 	mov	r3, r0
    943c:	e59f200c 	ldr	r2, [pc, #12]	; 9450 <last_fault_get+0x18>
    9440:	e8920007 	ldm	r2, {r0, r1, r2}
    9444:	e8830007 	stm	r3, {r0, r1, r2}
    9448:	e1a00003 	mov	r0, r3
    944c:	e12fff1e 	bx	lr
    9450:	0000c3cc 	andeq	ip, r0, ip, asr #7

00009454 <last_fault_set>:
    9454:	e59f300c 	ldr	r3, [pc, #12]	; 9468 <last_fault_set+0x14>
    9458:	e5831000 	str	r1, [r3]
    945c:	e5830004 	str	r0, [r3, #4]
    9460:	e5832008 	str	r2, [r3, #8]
    9464:	e12fff1e 	bx	lr
    9468:	0000c3cc 	andeq	ip, r0, ip, asr #7

0000946c <fault_expected>:
    946c:	e92d4070 	push	{r4, r5, r6, lr}
    9470:	e24dd018 	sub	sp, sp, #24
    9474:	e1a06000 	mov	r6, r0
    9478:	e1a04001 	mov	r4, r1
    947c:	e1a05002 	mov	r5, r2
    9480:	e28d000c 	add	r0, sp, #12
    9484:	ebffffeb 	bl	9438 <last_fault_get>
    9488:	e59d300c 	ldr	r3, [sp, #12]
    948c:	e1530004 	cmp	r3, r4
    9490:	0a000008 	beq	94b8 <fault_expected+0x4c>
    9494:	eb0003be 	bl	a394 <rpi_reset_putc>
    9498:	e59f309c 	ldr	r3, [pc, #156]	; 953c <fault_expected+0xd0>
    949c:	e58d3000 	str	r3, [sp]
    94a0:	e59f0098 	ldr	r0, [pc, #152]	; 9540 <fault_expected+0xd4>
    94a4:	e59f1098 	ldr	r1, [pc, #152]	; 9544 <fault_expected+0xd8>
    94a8:	e59f2098 	ldr	r2, [pc, #152]	; 9548 <fault_expected+0xdc>
    94ac:	e3a0302a 	mov	r3, #42	; 0x2a
    94b0:	eb00039c 	bl	a328 <printk>
    94b4:	eb00052b 	bl	a968 <clean_reboot>
    94b8:	e59d3010 	ldr	r3, [sp, #16]
    94bc:	e1530006 	cmp	r3, r6
    94c0:	0a000008 	beq	94e8 <fault_expected+0x7c>
    94c4:	eb0003b2 	bl	a394 <rpi_reset_putc>
    94c8:	e59f307c 	ldr	r3, [pc, #124]	; 954c <fault_expected+0xe0>
    94cc:	e58d3000 	str	r3, [sp]
    94d0:	e59f0068 	ldr	r0, [pc, #104]	; 9540 <fault_expected+0xd4>
    94d4:	e59f1068 	ldr	r1, [pc, #104]	; 9544 <fault_expected+0xd8>
    94d8:	e59f2068 	ldr	r2, [pc, #104]	; 9548 <fault_expected+0xdc>
    94dc:	e3a0302b 	mov	r3, #43	; 0x2b
    94e0:	eb000390 	bl	a328 <printk>
    94e4:	eb00051f 	bl	a968 <clean_reboot>
    94e8:	e59d3014 	ldr	r3, [sp, #20]
    94ec:	e1530005 	cmp	r3, r5
    94f0:	0a000008 	beq	9518 <fault_expected+0xac>
    94f4:	eb0003a6 	bl	a394 <rpi_reset_putc>
    94f8:	e59f3050 	ldr	r3, [pc, #80]	; 9550 <fault_expected+0xe4>
    94fc:	e58d3000 	str	r3, [sp]
    9500:	e59f0038 	ldr	r0, [pc, #56]	; 9540 <fault_expected+0xd4>
    9504:	e59f1038 	ldr	r1, [pc, #56]	; 9544 <fault_expected+0xd8>
    9508:	e59f2038 	ldr	r2, [pc, #56]	; 9548 <fault_expected+0xdc>
    950c:	e3a0302c 	mov	r3, #44	; 0x2c
    9510:	eb000384 	bl	a328 <printk>
    9514:	eb000513 	bl	a968 <clean_reboot>
    9518:	e59f0034 	ldr	r0, [pc, #52]	; 9554 <fault_expected+0xe8>
    951c:	eb000381 	bl	a328 <printk>
    9520:	e59f0030 	ldr	r0, [pc, #48]	; 9558 <fault_expected+0xec>
    9524:	e1a01006 	mov	r1, r6
    9528:	e1a02004 	mov	r2, r4
    952c:	e1a03005 	mov	r3, r5
    9530:	eb00037c 	bl	a328 <printk>
    9534:	e28dd018 	add	sp, sp, #24
    9538:	e8bd8070 	pop	{r4, r5, r6, pc}
    953c:	0000baa8 	andeq	fp, r0, r8, lsr #21
    9540:	0000b140 	andeq	fp, r0, r0, asr #2
    9544:	0000ba9c 	muleq	r0, ip, sl
    9548:	0000bf94 	muleq	r0, r4, pc	; <UNPREDICTABLE>
    954c:	0000bac0 	andeq	fp, r0, r0, asr #21
    9550:	0000bad4 	ldrdeq	fp, [r0], -r4
    9554:	0000b188 	andeq	fp, r0, r8, lsl #3
    9558:	0000baf0 	strdeq	fp, [r0], -r0

0000955c <dom_perm_get>:
    955c:	e92d4010 	push	{r4, lr}
    9560:	e24dd008 	sub	sp, sp, #8
    9564:	e1a04000 	mov	r4, r0
    9568:	ebfffd27 	bl	8a0c <read_domain_access_ctrl>
    956c:	e1a03084 	lsl	r3, r4, #1
    9570:	e2842001 	add	r2, r4, #1
    9574:	e1a02082 	lsl	r2, r2, #1
    9578:	e1530002 	cmp	r3, r2
    957c:	9a000008 	bls	95a4 <dom_perm_get+0x48>
    9580:	eb000383 	bl	a394 <rpi_reset_putc>
    9584:	e59f3060 	ldr	r3, [pc, #96]	; 95ec <dom_perm_get+0x90>
    9588:	e58d3000 	str	r3, [sp]
    958c:	e59f005c 	ldr	r0, [pc, #92]	; 95f0 <dom_perm_get+0x94>
    9590:	e59f105c 	ldr	r1, [pc, #92]	; 95f4 <dom_perm_get+0x98>
    9594:	e59f205c 	ldr	r2, [pc, #92]	; 95f8 <dom_perm_get+0x9c>
    9598:	e3a0301d 	mov	r3, #29
    959c:	eb000361 	bl	a328 <printk>
    95a0:	eb0004f0 	bl	a968 <clean_reboot>
    95a4:	e352001f 	cmp	r2, #31
    95a8:	9a000008 	bls	95d0 <dom_perm_get+0x74>
    95ac:	eb000378 	bl	a394 <rpi_reset_putc>
    95b0:	e59f3044 	ldr	r3, [pc, #68]	; 95fc <dom_perm_get+0xa0>
    95b4:	e58d3000 	str	r3, [sp]
    95b8:	e59f0030 	ldr	r0, [pc, #48]	; 95f0 <dom_perm_get+0x94>
    95bc:	e59f1030 	ldr	r1, [pc, #48]	; 95f4 <dom_perm_get+0x98>
    95c0:	e59f2030 	ldr	r2, [pc, #48]	; 95f8 <dom_perm_get+0x9c>
    95c4:	e3a0301e 	mov	r3, #30
    95c8:	eb000356 	bl	a328 <printk>
    95cc:	eb0004e5 	bl	a968 <clean_reboot>
    95d0:	e0632002 	rsb	r2, r3, r2
    95d4:	e2822001 	add	r2, r2, #1
    95d8:	e3e01000 	mvn	r1, #0
    95dc:	e1e02211 	mvn	r2, r1, lsl r2
    95e0:	e0020330 	and	r0, r2, r0, lsr r3
    95e4:	e28dd008 	add	sp, sp, #8
    95e8:	e8bd8010 	pop	{r4, pc}
    95ec:	0000bb34 	andeq	fp, r0, r4, lsr fp
    95f0:	0000b140 	andeq	fp, r0, r0, asr #2
    95f4:	0000bb24 	andeq	fp, r0, r4, lsr #22
    95f8:	0000c018 	andeq	ip, r0, r8, lsl r0
    95fc:	0000bb40 	andeq	fp, r0, r0, asr #22

00009600 <dom_perm_set>:
    9600:	e92d4030 	push	{r4, r5, lr}
    9604:	e24dd00c 	sub	sp, sp, #12
    9608:	e1a04000 	mov	r4, r0
    960c:	e1a05001 	mov	r5, r1
    9610:	e350000f 	cmp	r0, #15
    9614:	9a000008 	bls	963c <dom_perm_set+0x3c>
    9618:	eb00035d 	bl	a394 <rpi_reset_putc>
    961c:	e59f3064 	ldr	r3, [pc, #100]	; 9688 <dom_perm_set+0x88>
    9620:	e58d3000 	str	r3, [sp]
    9624:	e59f0060 	ldr	r0, [pc, #96]	; 968c <dom_perm_set+0x8c>
    9628:	e59f1060 	ldr	r1, [pc, #96]	; 9690 <dom_perm_set+0x90>
    962c:	e59f2060 	ldr	r2, [pc, #96]	; 9694 <dom_perm_set+0x94>
    9630:	e3a03043 	mov	r3, #67	; 0x43
    9634:	eb00033b 	bl	a328 <printk>
    9638:	eb0004ca 	bl	a968 <clean_reboot>
    963c:	e3510001 	cmp	r1, #1
    9640:	9a000008 	bls	9668 <dom_perm_set+0x68>
    9644:	eb000352 	bl	a394 <rpi_reset_putc>
    9648:	e59f3048 	ldr	r3, [pc, #72]	; 9698 <dom_perm_set+0x98>
    964c:	e58d3000 	str	r3, [sp]
    9650:	e59f0034 	ldr	r0, [pc, #52]	; 968c <dom_perm_set+0x8c>
    9654:	e59f1034 	ldr	r1, [pc, #52]	; 9690 <dom_perm_set+0x90>
    9658:	e59f2034 	ldr	r2, [pc, #52]	; 9694 <dom_perm_set+0x94>
    965c:	e3a03044 	mov	r3, #68	; 0x44
    9660:	eb000330 	bl	a328 <printk>
    9664:	eb0004bf 	bl	a968 <clean_reboot>
    9668:	ebfffce7 	bl	8a0c <read_domain_access_ctrl>
    966c:	e1a04084 	lsl	r4, r4, #1
    9670:	e3a03003 	mov	r3, #3
    9674:	e1c00413 	bic	r0, r0, r3, lsl r4
    9678:	e1800415 	orr	r0, r0, r5, lsl r4
    967c:	ebfffce4 	bl	8a14 <write_domain_access_ctrl>
    9680:	e28dd00c 	add	sp, sp, #12
    9684:	e8bd8030 	pop	{r4, r5, pc}
    9688:	0000b3b8 			; <UNDEFINED> instruction: 0x0000b3b8
    968c:	0000b140 	andeq	fp, r0, r0, asr #2
    9690:	0000ba9c 	muleq	r0, ip, sl
    9694:	0000c03c 	andeq	ip, r0, ip, lsr r0
    9698:	0000bb48 	andeq	fp, r0, r8, asr #22

0000969c <memcheck_continue_after_fault>:
    969c:	e3a02001 	mov	r2, #1
    96a0:	e59f3004 	ldr	r3, [pc, #4]	; 96ac <memcheck_continue_after_fault+0x10>
    96a4:	e5832000 	str	r2, [r3]
    96a8:	e12fff1e 	bx	lr
    96ac:	0000c3d8 	ldrdeq	ip, [r0], -r8

000096b0 <data_abort_vector>:
    96b0:	e92d4070 	push	{r4, r5, r6, lr}
    96b4:	e24dd008 	sub	sp, sp, #8
    96b8:	e1a06000 	mov	r6, r0
    96bc:	ee154f10 	mrc	15, 0, r4, cr5, cr0, {0}
    96c0:	ee165f10 	mrc	15, 0, r5, cr6, cr0, {0}
    96c4:	e59f02f0 	ldr	r0, [pc, #752]	; 99bc <data_abort_vector+0x30c>
    96c8:	eb000316 	bl	a328 <printk>
    96cc:	e204200f 	and	r2, r4, #15
    96d0:	e2044b01 	and	r4, r4, #1024	; 0x400
    96d4:	e1824324 	orr	r4, r2, r4, lsr #6
    96d8:	e1a00006 	mov	r0, r6
    96dc:	e1a01005 	mov	r1, r5
    96e0:	e1a02004 	mov	r2, r4
    96e4:	ebffff5a 	bl	9454 <last_fault_set>
    96e8:	e354001a 	cmp	r4, #26
    96ec:	979ff104 	ldrls	pc, [pc, r4, lsl #2]
    96f0:	ea0000a8 	b	9998 <data_abort_vector+0x2e8>
    96f4:	0000977c 	andeq	r9, r0, ip, ror r7
    96f8:	00009760 	andeq	r9, r0, r0, ror #14
    96fc:	0000997c 	andeq	r9, r0, ip, ror r9
    9700:	00009798 	muleq	r0, r8, r7
    9704:	000097b4 			; <UNDEFINED> instruction: 0x000097b4
    9708:	00009808 	andeq	r9, r0, r8, lsl #16
    970c:	00009998 	muleq	r0, r8, r9
    9710:	0000981c 	andeq	r9, r0, ip, lsl r8
    9714:	000098d4 	ldrdeq	r9, [r0], -r4
    9718:	00009838 	andeq	r9, r0, r8, lsr r8
    971c:	000098f0 	strdeq	r9, [r0], -r0
    9720:	0000987c 	andeq	r9, r0, ip, ror r8
    9724:	000097d0 	ldrdeq	r9, [r0], -r0
    9728:	00009898 	muleq	r0, r8, r8
    972c:	000097ec 	andeq	r9, r0, ip, ror #15
    9730:	000098b8 			; <UNDEFINED> instruction: 0x000098b8
    9734:	00009998 	muleq	r0, r8, r9
    9738:	00009998 	muleq	r0, r8, r9
    973c:	00009998 	muleq	r0, r8, r9
    9740:	00009998 	muleq	r0, r8, r9
    9744:	0000990c 	andeq	r9, r0, ip, lsl #18
    9748:	00009998 	muleq	r0, r8, r9
    974c:	00009944 	andeq	r9, r0, r4, asr #18
    9750:	00009998 	muleq	r0, r8, r9
    9754:	00009960 	andeq	r9, r0, r0, ror #18
    9758:	00009998 	muleq	r0, r8, r9
    975c:	00009928 	andeq	r9, r0, r8, lsr #18
    9760:	eb00030b 	bl	a394 <rpi_reset_putc>
    9764:	e59f0254 	ldr	r0, [pc, #596]	; 99c0 <data_abort_vector+0x310>
    9768:	e59f1254 	ldr	r1, [pc, #596]	; 99c4 <data_abort_vector+0x314>
    976c:	e59f2254 	ldr	r2, [pc, #596]	; 99c8 <data_abort_vector+0x318>
    9770:	e3a0308b 	mov	r3, #139	; 0x8b
    9774:	eb0002eb 	bl	a328 <printk>
    9778:	eb00047a 	bl	a968 <clean_reboot>
    977c:	eb000304 	bl	a394 <rpi_reset_putc>
    9780:	e59f0244 	ldr	r0, [pc, #580]	; 99cc <data_abort_vector+0x31c>
    9784:	e59f1238 	ldr	r1, [pc, #568]	; 99c4 <data_abort_vector+0x314>
    9788:	e59f2238 	ldr	r2, [pc, #568]	; 99c8 <data_abort_vector+0x318>
    978c:	e3a0308e 	mov	r3, #142	; 0x8e
    9790:	eb0002e4 	bl	a328 <printk>
    9794:	eb000473 	bl	a968 <clean_reboot>
    9798:	eb0002fd 	bl	a394 <rpi_reset_putc>
    979c:	e59f022c 	ldr	r0, [pc, #556]	; 99d0 <data_abort_vector+0x320>
    97a0:	e59f121c 	ldr	r1, [pc, #540]	; 99c4 <data_abort_vector+0x314>
    97a4:	e59f221c 	ldr	r2, [pc, #540]	; 99c8 <data_abort_vector+0x318>
    97a8:	e3a03091 	mov	r3, #145	; 0x91
    97ac:	eb0002dd 	bl	a328 <printk>
    97b0:	eb00046c 	bl	a968 <clean_reboot>
    97b4:	eb0002f6 	bl	a394 <rpi_reset_putc>
    97b8:	e59f0214 	ldr	r0, [pc, #532]	; 99d4 <data_abort_vector+0x324>
    97bc:	e59f1200 	ldr	r1, [pc, #512]	; 99c4 <data_abort_vector+0x314>
    97c0:	e59f2200 	ldr	r2, [pc, #512]	; 99c8 <data_abort_vector+0x318>
    97c4:	e3a03094 	mov	r3, #148	; 0x94
    97c8:	eb0002d6 	bl	a328 <printk>
    97cc:	eb000465 	bl	a968 <clean_reboot>
    97d0:	eb0002ef 	bl	a394 <rpi_reset_putc>
    97d4:	e59f01fc 	ldr	r0, [pc, #508]	; 99d8 <data_abort_vector+0x328>
    97d8:	e59f11e4 	ldr	r1, [pc, #484]	; 99c4 <data_abort_vector+0x314>
    97dc:	e59f21e4 	ldr	r2, [pc, #484]	; 99c8 <data_abort_vector+0x318>
    97e0:	e3a03097 	mov	r3, #151	; 0x97
    97e4:	eb0002cf 	bl	a328 <printk>
    97e8:	eb00045e 	bl	a968 <clean_reboot>
    97ec:	eb0002e8 	bl	a394 <rpi_reset_putc>
    97f0:	e59f01e4 	ldr	r0, [pc, #484]	; 99dc <data_abort_vector+0x32c>
    97f4:	e59f11c8 	ldr	r1, [pc, #456]	; 99c4 <data_abort_vector+0x314>
    97f8:	e59f21c8 	ldr	r2, [pc, #456]	; 99c8 <data_abort_vector+0x318>
    97fc:	e3a0309a 	mov	r3, #154	; 0x9a
    9800:	eb0002c8 	bl	a328 <printk>
    9804:	eb000457 	bl	a968 <clean_reboot>
    9808:	e59f01d0 	ldr	r0, [pc, #464]	; 99e0 <data_abort_vector+0x330>
    980c:	eb0002c5 	bl	a328 <printk>
    9810:	e59f01cc 	ldr	r0, [pc, #460]	; 99e4 <data_abort_vector+0x334>
    9814:	eb0002c3 	bl	a328 <printk>
    9818:	eb000452 	bl	a968 <clean_reboot>
    981c:	eb0002dc 	bl	a394 <rpi_reset_putc>
    9820:	e59f01c0 	ldr	r0, [pc, #448]	; 99e8 <data_abort_vector+0x338>
    9824:	e59f1198 	ldr	r1, [pc, #408]	; 99c4 <data_abort_vector+0x314>
    9828:	e59f2198 	ldr	r2, [pc, #408]	; 99c8 <data_abort_vector+0x318>
    982c:	e3a030a0 	mov	r3, #160	; 0xa0
    9830:	eb0002bc 	bl	a328 <printk>
    9834:	eb00044b 	bl	a968 <clean_reboot>
    9838:	e59f01ac 	ldr	r0, [pc, #428]	; 99ec <data_abort_vector+0x33c>
    983c:	eb0002b9 	bl	a328 <printk>
    9840:	e59f31a8 	ldr	r3, [pc, #424]	; 99f0 <data_abort_vector+0x340>
    9844:	e5933000 	ldr	r3, [r3]
    9848:	e3530000 	cmp	r3, #0
    984c:	1a000004 	bne	9864 <data_abort_vector+0x1b4>
    9850:	e59f0188 	ldr	r0, [pc, #392]	; 99e0 <data_abort_vector+0x330>
    9854:	eb0002b3 	bl	a328 <printk>
    9858:	e59f0194 	ldr	r0, [pc, #404]	; 99f4 <data_abort_vector+0x344>
    985c:	eb0002b1 	bl	a328 <printk>
    9860:	eb000440 	bl	a968 <clean_reboot>
    9864:	e59f0174 	ldr	r0, [pc, #372]	; 99e0 <data_abort_vector+0x330>
    9868:	eb0002ae 	bl	a328 <printk>
    986c:	e59f0184 	ldr	r0, [pc, #388]	; 99f8 <data_abort_vector+0x348>
    9870:	eb0002ac 	bl	a328 <printk>
    9874:	eb000151 	bl	9dc0 <memcheck_trap_disable>
    9878:	ea00004d 	b	99b4 <data_abort_vector+0x304>
    987c:	eb0002c4 	bl	a394 <rpi_reset_putc>
    9880:	e59f0174 	ldr	r0, [pc, #372]	; 99fc <data_abort_vector+0x34c>
    9884:	e59f1138 	ldr	r1, [pc, #312]	; 99c4 <data_abort_vector+0x314>
    9888:	e59f2138 	ldr	r2, [pc, #312]	; 99c8 <data_abort_vector+0x318>
    988c:	e3a030ad 	mov	r3, #173	; 0xad
    9890:	eb0002a4 	bl	a328 <printk>
    9894:	eb000433 	bl	a968 <clean_reboot>
    9898:	eb0002bd 	bl	a394 <rpi_reset_putc>
    989c:	e58d5000 	str	r5, [sp]
    98a0:	e59f0158 	ldr	r0, [pc, #344]	; 9a00 <data_abort_vector+0x350>
    98a4:	e59f1118 	ldr	r1, [pc, #280]	; 99c4 <data_abort_vector+0x314>
    98a8:	e59f2118 	ldr	r2, [pc, #280]	; 99c8 <data_abort_vector+0x318>
    98ac:	e3a030b0 	mov	r3, #176	; 0xb0
    98b0:	eb00029c 	bl	a328 <printk>
    98b4:	eb00042b 	bl	a968 <clean_reboot>
    98b8:	eb0002b5 	bl	a394 <rpi_reset_putc>
    98bc:	e59f0140 	ldr	r0, [pc, #320]	; 9a04 <data_abort_vector+0x354>
    98c0:	e59f10fc 	ldr	r1, [pc, #252]	; 99c4 <data_abort_vector+0x314>
    98c4:	e59f20fc 	ldr	r2, [pc, #252]	; 99c8 <data_abort_vector+0x318>
    98c8:	e3a030b3 	mov	r3, #179	; 0xb3
    98cc:	eb000295 	bl	a328 <printk>
    98d0:	eb000424 	bl	a968 <clean_reboot>
    98d4:	eb0002ae 	bl	a394 <rpi_reset_putc>
    98d8:	e59f0128 	ldr	r0, [pc, #296]	; 9a08 <data_abort_vector+0x358>
    98dc:	e59f10e0 	ldr	r1, [pc, #224]	; 99c4 <data_abort_vector+0x314>
    98e0:	e59f20e0 	ldr	r2, [pc, #224]	; 99c8 <data_abort_vector+0x318>
    98e4:	e3a030b6 	mov	r3, #182	; 0xb6
    98e8:	eb00028e 	bl	a328 <printk>
    98ec:	eb00041d 	bl	a968 <clean_reboot>
    98f0:	eb0002a7 	bl	a394 <rpi_reset_putc>
    98f4:	e59f0110 	ldr	r0, [pc, #272]	; 9a0c <data_abort_vector+0x35c>
    98f8:	e59f10c4 	ldr	r1, [pc, #196]	; 99c4 <data_abort_vector+0x314>
    98fc:	e59f20c4 	ldr	r2, [pc, #196]	; 99c8 <data_abort_vector+0x318>
    9900:	e3a030b9 	mov	r3, #185	; 0xb9
    9904:	eb000287 	bl	a328 <printk>
    9908:	eb000416 	bl	a968 <clean_reboot>
    990c:	eb0002a0 	bl	a394 <rpi_reset_putc>
    9910:	e59f00f8 	ldr	r0, [pc, #248]	; 9a10 <data_abort_vector+0x360>
    9914:	e59f10a8 	ldr	r1, [pc, #168]	; 99c4 <data_abort_vector+0x314>
    9918:	e59f20a8 	ldr	r2, [pc, #168]	; 99c8 <data_abort_vector+0x318>
    991c:	e3a030bc 	mov	r3, #188	; 0xbc
    9920:	eb000280 	bl	a328 <printk>
    9924:	eb00040f 	bl	a968 <clean_reboot>
    9928:	eb000299 	bl	a394 <rpi_reset_putc>
    992c:	e59f00e0 	ldr	r0, [pc, #224]	; 9a14 <data_abort_vector+0x364>
    9930:	e59f108c 	ldr	r1, [pc, #140]	; 99c4 <data_abort_vector+0x314>
    9934:	e59f208c 	ldr	r2, [pc, #140]	; 99c8 <data_abort_vector+0x318>
    9938:	e3a030bf 	mov	r3, #191	; 0xbf
    993c:	eb000279 	bl	a328 <printk>
    9940:	eb000408 	bl	a968 <clean_reboot>
    9944:	eb000292 	bl	a394 <rpi_reset_putc>
    9948:	e59f00c8 	ldr	r0, [pc, #200]	; 9a18 <data_abort_vector+0x368>
    994c:	e59f1070 	ldr	r1, [pc, #112]	; 99c4 <data_abort_vector+0x314>
    9950:	e59f2070 	ldr	r2, [pc, #112]	; 99c8 <data_abort_vector+0x318>
    9954:	e3a030c2 	mov	r3, #194	; 0xc2
    9958:	eb000272 	bl	a328 <printk>
    995c:	eb000401 	bl	a968 <clean_reboot>
    9960:	eb00028b 	bl	a394 <rpi_reset_putc>
    9964:	e59f00b0 	ldr	r0, [pc, #176]	; 9a1c <data_abort_vector+0x36c>
    9968:	e59f1054 	ldr	r1, [pc, #84]	; 99c4 <data_abort_vector+0x314>
    996c:	e59f2054 	ldr	r2, [pc, #84]	; 99c8 <data_abort_vector+0x318>
    9970:	e3a030c5 	mov	r3, #197	; 0xc5
    9974:	eb00026b 	bl	a328 <printk>
    9978:	eb0003fa 	bl	a968 <clean_reboot>
    997c:	eb000284 	bl	a394 <rpi_reset_putc>
    9980:	e59f0098 	ldr	r0, [pc, #152]	; 9a20 <data_abort_vector+0x370>
    9984:	e59f1038 	ldr	r1, [pc, #56]	; 99c4 <data_abort_vector+0x314>
    9988:	e59f2038 	ldr	r2, [pc, #56]	; 99c8 <data_abort_vector+0x318>
    998c:	e3a030c8 	mov	r3, #200	; 0xc8
    9990:	eb000264 	bl	a328 <printk>
    9994:	eb0003f3 	bl	a968 <clean_reboot>
    9998:	eb00027d 	bl	a394 <rpi_reset_putc>
    999c:	e59f0080 	ldr	r0, [pc, #128]	; 9a24 <data_abort_vector+0x374>
    99a0:	e59f101c 	ldr	r1, [pc, #28]	; 99c4 <data_abort_vector+0x314>
    99a4:	e59f201c 	ldr	r2, [pc, #28]	; 99c8 <data_abort_vector+0x318>
    99a8:	e3a030cb 	mov	r3, #203	; 0xcb
    99ac:	eb00025d 	bl	a328 <printk>
    99b0:	eb0003ec 	bl	a968 <clean_reboot>
    99b4:	e28dd008 	add	sp, sp, #8
    99b8:	e8bd8070 	pop	{r4, r5, r6, pc}
    99bc:	0000bb74 	andeq	fp, r0, r4, ror fp
    99c0:	0000bb8c 	andeq	fp, r0, ip, lsl #23
    99c4:	0000ba9c 	muleq	r0, ip, sl
    99c8:	0000bfa4 	andeq	fp, r0, r4, lsr #31
    99cc:	0000bbb0 			; <UNDEFINED> instruction: 0x0000bbb0
    99d0:	0000bbcc 	andeq	fp, r0, ip, asr #23
    99d4:	0000bbf4 	strdeq	fp, [r0], -r4
    99d8:	0000bc20 	andeq	fp, r0, r0, lsr #24
    99dc:	0000bc4c 	andeq	fp, r0, ip, asr #24
    99e0:	0000b188 	andeq	fp, r0, r8, lsl #3
    99e4:	0000bc78 	andeq	fp, r0, r8, ror ip
    99e8:	0000bca0 	andeq	fp, r0, r0, lsr #25
    99ec:	0000bcc8 	andeq	fp, r0, r8, asr #25
    99f0:	0000c3d8 	ldrdeq	ip, [r0], -r8
    99f4:	0000bce0 	andeq	fp, r0, r0, ror #25
    99f8:	0000bcf0 	strdeq	fp, [r0], -r0
    99fc:	0000bd08 	andeq	fp, r0, r8, lsl #26
    9a00:	0000bd2c 	andeq	fp, r0, ip, lsr #26
    9a04:	0000bd5c 	andeq	fp, r0, ip, asr sp
    9a08:	0000bd84 	andeq	fp, r0, r4, lsl #27
    9a0c:	0000bdac 	andeq	fp, r0, ip, lsr #27
    9a10:	0000bdd4 	ldrdeq	fp, [r0], -r4
    9a14:	0000bdf0 	strdeq	fp, [r0], -r0
    9a18:	0000be18 	andeq	fp, r0, r8, lsl lr
    9a1c:	0000be44 	andeq	fp, r0, r4, asr #28
    9a20:	0000be6c 	andeq	fp, r0, ip, ror #28
    9a24:	0000be8c 	andeq	fp, r0, ip, lsl #29

00009a28 <interrupt_vector>:
    9a28:	e92d4008 	push	{r3, lr}
    9a2c:	ebfffbb6 	bl	890c <mmu_disable>
    9a30:	eb000257 	bl	a394 <rpi_reset_putc>
    9a34:	e59f0010 	ldr	r0, [pc, #16]	; 9a4c <interrupt_vector+0x24>
    9a38:	e59f1010 	ldr	r1, [pc, #16]	; 9a50 <interrupt_vector+0x28>
    9a3c:	e59f2010 	ldr	r2, [pc, #16]	; 9a54 <interrupt_vector+0x2c>
    9a40:	e3a030e4 	mov	r3, #228	; 0xe4
    9a44:	eb000237 	bl	a328 <printk>
    9a48:	eb0003c6 	bl	a968 <clean_reboot>
    9a4c:	0000beb4 			; <UNDEFINED> instruction: 0x0000beb4
    9a50:	0000ba9c 	muleq	r0, ip, sl
    9a54:	0000bfb8 			; <UNDEFINED> instruction: 0x0000bfb8

00009a58 <memcheck_init>:
    9a58:	e92d4010 	push	{r4, lr}
    9a5c:	e24dd008 	sub	sp, sp, #8
    9a60:	ebfffb62 	bl	87f0 <mmu_init>
    9a64:	ebfff9f7 	bl	8248 <mmu_is_enabled>
    9a68:	e3500000 	cmp	r0, #0
    9a6c:	0a000008 	beq	9a94 <memcheck_init+0x3c>
    9a70:	eb000247 	bl	a394 <rpi_reset_putc>
    9a74:	e59f3108 	ldr	r3, [pc, #264]	; 9b84 <memcheck_init+0x12c>
    9a78:	e58d3000 	str	r3, [sp]
    9a7c:	e59f0104 	ldr	r0, [pc, #260]	; 9b88 <memcheck_init+0x130>
    9a80:	e59f1104 	ldr	r1, [pc, #260]	; 9b8c <memcheck_init+0x134>
    9a84:	e59f2104 	ldr	r2, [pc, #260]	; 9b90 <memcheck_init+0x138>
    9a88:	e3a030f3 	mov	r3, #243	; 0xf3
    9a8c:	eb000225 	bl	a328 <printk>
    9a90:	eb0003b4 	bl	a968 <clean_reboot>
    9a94:	e3a00601 	mov	r0, #1048576	; 0x100000
    9a98:	e3a01901 	mov	r1, #16384	; 0x4000
    9a9c:	ebfffb0a 	bl	86cc <mmu_pt_alloc_at>
    9aa0:	e59f30ec 	ldr	r3, [pc, #236]	; 9b94 <memcheck_init+0x13c>
    9aa4:	e5830000 	str	r0, [r3]
    9aa8:	e3500601 	cmp	r0, #1048576	; 0x100000
    9aac:	0a000008 	beq	9ad4 <memcheck_init+0x7c>
    9ab0:	eb000237 	bl	a394 <rpi_reset_putc>
    9ab4:	e59f30dc 	ldr	r3, [pc, #220]	; 9b98 <memcheck_init+0x140>
    9ab8:	e58d3000 	str	r3, [sp]
    9abc:	e59f00c4 	ldr	r0, [pc, #196]	; 9b88 <memcheck_init+0x130>
    9ac0:	e59f10c4 	ldr	r1, [pc, #196]	; 9b8c <memcheck_init+0x134>
    9ac4:	e59f20c4 	ldr	r2, [pc, #196]	; 9b90 <memcheck_init+0x138>
    9ac8:	e3a030f8 	mov	r3, #248	; 0xf8
    9acc:	eb000215 	bl	a328 <printk>
    9ad0:	eb0003a4 	bl	a968 <clean_reboot>
    9ad4:	e3a01000 	mov	r1, #0
    9ad8:	e1a02001 	mov	r2, r1
    9adc:	e3a03001 	mov	r3, #1
    9ae0:	ebfffa58 	bl	8448 <mmu_map_section>
    9ae4:	e59f40a8 	ldr	r4, [pc, #168]	; 9b94 <memcheck_init+0x13c>
    9ae8:	e5940000 	ldr	r0, [r4]
    9aec:	e3a01601 	mov	r1, #1048576	; 0x100000
    9af0:	e1a02001 	mov	r2, r1
    9af4:	e3a03001 	mov	r3, #1
    9af8:	ebfffa52 	bl	8448 <mmu_map_section>
    9afc:	e5940000 	ldr	r0, [r4]
    9b00:	e3a0167f 	mov	r1, #133169152	; 0x7f00000
    9b04:	e1a02001 	mov	r2, r1
    9b08:	e3a03001 	mov	r3, #1
    9b0c:	ebfffa4d 	bl	8448 <mmu_map_section>
    9b10:	e5940000 	ldr	r0, [r4]
    9b14:	e3a01202 	mov	r1, #536870912	; 0x20000000
    9b18:	e1a02001 	mov	r2, r1
    9b1c:	e3a03001 	mov	r3, #1
    9b20:	ebfffa48 	bl	8448 <mmu_map_section>
    9b24:	e59f2070 	ldr	r2, [pc, #112]	; 9b9c <memcheck_init+0x144>
    9b28:	e5940000 	ldr	r0, [r4]
    9b2c:	e1a01002 	mov	r1, r2
    9b30:	e3a03001 	mov	r3, #1
    9b34:	ebfffa43 	bl	8448 <mmu_map_section>
    9b38:	e59f2060 	ldr	r2, [pc, #96]	; 9ba0 <memcheck_init+0x148>
    9b3c:	e5940000 	ldr	r0, [r4]
    9b40:	e1a01002 	mov	r1, r2
    9b44:	e3a03001 	mov	r3, #1
    9b48:	ebfffa3e 	bl	8448 <mmu_map_section>
    9b4c:	e5940000 	ldr	r0, [r4]
    9b50:	e3a0168f 	mov	r1, #149946368	; 0x8f00000
    9b54:	e1a02001 	mov	r2, r1
    9b58:	e3a03001 	mov	r3, #1
    9b5c:	ebfffa39 	bl	8448 <mmu_map_section>
    9b60:	ebfffb46 	bl	8880 <mmu_install_handlers>
    9b64:	e3a00004 	mov	r0, #4
    9b68:	ebfffba9 	bl	8a14 <write_domain_access_ctrl>
    9b6c:	e59f0030 	ldr	r0, [pc, #48]	; 9ba4 <memcheck_init+0x14c>
    9b70:	e3a01001 	mov	r1, #1
    9b74:	e5942000 	ldr	r2, [r4]
    9b78:	ebfffba8 	bl	8a20 <set_procid_ttbr0>
    9b7c:	e28dd008 	add	sp, sp, #8
    9b80:	e8bd8010 	pop	{r4, pc}
    9b84:	0000b164 	andeq	fp, r0, r4, ror #2
    9b88:	0000b140 	andeq	fp, r0, r0, asr #2
    9b8c:	0000ba9c 	muleq	r0, ip, sl
    9b90:	0000bfcc 	andeq	fp, r0, ip, asr #31
    9b94:	0000c3dc 	ldrdeq	ip, [r0], -ip	; <UNPREDICTABLE>
    9b98:	0000bed0 	ldrdeq	fp, [r0], -r0
    9b9c:	20100000 	andscs	r0, r0, r0
    9ba0:	20200000 	eorcs	r0, r0, r0
    9ba4:	0000140e 	andeq	r1, r0, lr, lsl #8

00009ba8 <memcheck_on>:
    9ba8:	e52de004 	push	{lr}		; (str lr, [sp, #-4]!)
    9bac:	e24dd00c 	sub	sp, sp, #12
    9bb0:	e59f005c 	ldr	r0, [pc, #92]	; 9c14 <memcheck_on+0x6c>
    9bb4:	e59f105c 	ldr	r1, [pc, #92]	; 9c18 <memcheck_on+0x70>
    9bb8:	e59f205c 	ldr	r2, [pc, #92]	; 9c1c <memcheck_on+0x74>
    9bbc:	e3a03f47 	mov	r3, #284	; 0x11c
    9bc0:	eb0001d8 	bl	a328 <printk>
    9bc4:	ebfffb7a 	bl	89b4 <mmu_enable>
    9bc8:	ebfff99e 	bl	8248 <mmu_is_enabled>
    9bcc:	e3500000 	cmp	r0, #0
    9bd0:	1a000008 	bne	9bf8 <memcheck_on+0x50>
    9bd4:	eb0001ee 	bl	a394 <rpi_reset_putc>
    9bd8:	e59f3040 	ldr	r3, [pc, #64]	; 9c20 <memcheck_on+0x78>
    9bdc:	e58d3000 	str	r3, [sp]
    9be0:	e59f003c 	ldr	r0, [pc, #60]	; 9c24 <memcheck_on+0x7c>
    9be4:	e59f102c 	ldr	r1, [pc, #44]	; 9c18 <memcheck_on+0x70>
    9be8:	e59f202c 	ldr	r2, [pc, #44]	; 9c1c <memcheck_on+0x74>
    9bec:	e59f3034 	ldr	r3, [pc, #52]	; 9c28 <memcheck_on+0x80>
    9bf0:	eb0001cc 	bl	a328 <printk>
    9bf4:	eb00035b 	bl	a968 <clean_reboot>
    9bf8:	e59f002c 	ldr	r0, [pc, #44]	; 9c2c <memcheck_on+0x84>
    9bfc:	e59f1014 	ldr	r1, [pc, #20]	; 9c18 <memcheck_on+0x70>
    9c00:	e59f2014 	ldr	r2, [pc, #20]	; 9c1c <memcheck_on+0x74>
    9c04:	e3a03e12 	mov	r3, #288	; 0x120
    9c08:	eb0001c6 	bl	a328 <printk>
    9c0c:	e28dd00c 	add	sp, sp, #12
    9c10:	e49df004 	pop	{pc}		; (ldr pc, [sp], #4)
    9c14:	0000bedc 	ldrdeq	fp, [r0], -ip
    9c18:	0000ba9c 	muleq	r0, ip, sl
    9c1c:	0000bfdc 	ldrdeq	fp, [r0], -ip
    9c20:	0000bf04 	andeq	fp, r0, r4, lsl #30
    9c24:	0000b140 	andeq	fp, r0, r0, asr #2
    9c28:	0000011f 	andeq	r0, r0, pc, lsl r1
    9c2c:	0000bf18 	andeq	fp, r0, r8, lsl pc

00009c30 <memcheck_off>:
    9c30:	e52de004 	push	{lr}		; (str lr, [sp, #-4]!)
    9c34:	e24dd00c 	sub	sp, sp, #12
    9c38:	ebfffb33 	bl	890c <mmu_disable>
    9c3c:	ebfff981 	bl	8248 <mmu_is_enabled>
    9c40:	e3500000 	cmp	r0, #0
    9c44:	0a000008 	beq	9c6c <memcheck_off+0x3c>
    9c48:	eb0001d1 	bl	a394 <rpi_reset_putc>
    9c4c:	e59f3034 	ldr	r3, [pc, #52]	; 9c88 <memcheck_off+0x58>
    9c50:	e58d3000 	str	r3, [sp]
    9c54:	e59f0030 	ldr	r0, [pc, #48]	; 9c8c <memcheck_off+0x5c>
    9c58:	e59f1030 	ldr	r1, [pc, #48]	; 9c90 <memcheck_off+0x60>
    9c5c:	e59f2030 	ldr	r2, [pc, #48]	; 9c94 <memcheck_off+0x64>
    9c60:	e59f3030 	ldr	r3, [pc, #48]	; 9c98 <memcheck_off+0x68>
    9c64:	eb0001af 	bl	a328 <printk>
    9c68:	eb00033e 	bl	a968 <clean_reboot>
    9c6c:	e59f0028 	ldr	r0, [pc, #40]	; 9c9c <memcheck_off+0x6c>
    9c70:	e59f1018 	ldr	r1, [pc, #24]	; 9c90 <memcheck_off+0x60>
    9c74:	e59f2018 	ldr	r2, [pc, #24]	; 9c94 <memcheck_off+0x64>
    9c78:	e3a03f4a 	mov	r3, #296	; 0x128
    9c7c:	eb0001a9 	bl	a328 <printk>
    9c80:	e28dd00c 	add	sp, sp, #12
    9c84:	e49df004 	pop	{pc}		; (ldr pc, [sp], #4)
    9c88:	0000b164 	andeq	fp, r0, r4, ror #2
    9c8c:	0000b140 	andeq	fp, r0, r0, asr #2
    9c90:	0000ba9c 	muleq	r0, ip, sl
    9c94:	0000bfe8 	andeq	fp, r0, r8, ror #31
    9c98:	00000127 	andeq	r0, r0, r7, lsr #2
    9c9c:	0000bf30 	andeq	fp, r0, r0, lsr pc

00009ca0 <memcheck_map>:
    9ca0:	e52de004 	push	{lr}		; (str lr, [sp, #-4]!)
    9ca4:	e24dd00c 	sub	sp, sp, #12
    9ca8:	e1a02000 	mov	r2, r0
    9cac:	e3c034ff 	bic	r3, r0, #-16777216	; 0xff000000
    9cb0:	e3d3160f 	bics	r1, r3, #15728640	; 0xf00000
    9cb4:	0a000008 	beq	9cdc <memcheck_map+0x3c>
    9cb8:	eb0001b5 	bl	a394 <rpi_reset_putc>
    9cbc:	e59f3038 	ldr	r3, [pc, #56]	; 9cfc <memcheck_map+0x5c>
    9cc0:	e58d3000 	str	r3, [sp]
    9cc4:	e59f0034 	ldr	r0, [pc, #52]	; 9d00 <memcheck_map+0x60>
    9cc8:	e59f1034 	ldr	r1, [pc, #52]	; 9d04 <memcheck_map+0x64>
    9ccc:	e59f2034 	ldr	r2, [pc, #52]	; 9d08 <memcheck_map+0x68>
    9cd0:	e3a03f4b 	mov	r3, #300	; 0x12c
    9cd4:	eb000193 	bl	a328 <printk>
    9cd8:	eb000322 	bl	a968 <clean_reboot>
    9cdc:	e59f3028 	ldr	r3, [pc, #40]	; 9d0c <memcheck_map+0x6c>
    9ce0:	e5930000 	ldr	r0, [r3]
    9ce4:	e1a01002 	mov	r1, r2
    9ce8:	e2822601 	add	r2, r2, #1048576	; 0x100000
    9cec:	e3a03001 	mov	r3, #1
    9cf0:	ebfff9d4 	bl	8448 <mmu_map_section>
    9cf4:	e28dd00c 	add	sp, sp, #12
    9cf8:	e49df004 	pop	{pc}		; (ldr pc, [sp], #4)
    9cfc:	0000bf48 	andeq	fp, r0, r8, asr #30
    9d00:	0000b140 	andeq	fp, r0, r0, asr #2
    9d04:	0000ba9c 	muleq	r0, ip, sl
    9d08:	0000bff8 	strdeq	fp, [r0], -r8
    9d0c:	0000c3dc 	ldrdeq	ip, [r0], -ip	; <UNPREDICTABLE>

00009d10 <memcheck_track>:
    9d10:	e52de004 	push	{lr}		; (str lr, [sp, #-4]!)
    9d14:	e24dd00c 	sub	sp, sp, #12
    9d18:	e1a02000 	mov	r2, r0
    9d1c:	e3c034ff 	bic	r3, r0, #-16777216	; 0xff000000
    9d20:	e3d3160f 	bics	r1, r3, #15728640	; 0xf00000
    9d24:	0a000008 	beq	9d4c <memcheck_track+0x3c>
    9d28:	eb000199 	bl	a394 <rpi_reset_putc>
    9d2c:	e59f3038 	ldr	r3, [pc, #56]	; 9d6c <memcheck_track+0x5c>
    9d30:	e58d3000 	str	r3, [sp]
    9d34:	e59f0034 	ldr	r0, [pc, #52]	; 9d70 <memcheck_track+0x60>
    9d38:	e59f1034 	ldr	r1, [pc, #52]	; 9d74 <memcheck_track+0x64>
    9d3c:	e59f2034 	ldr	r2, [pc, #52]	; 9d78 <memcheck_track+0x68>
    9d40:	e59f3034 	ldr	r3, [pc, #52]	; 9d7c <memcheck_track+0x6c>
    9d44:	eb000177 	bl	a328 <printk>
    9d48:	eb000306 	bl	a968 <clean_reboot>
    9d4c:	e59f302c 	ldr	r3, [pc, #44]	; 9d80 <memcheck_track+0x70>
    9d50:	e5930000 	ldr	r0, [r3]
    9d54:	e1a01002 	mov	r1, r2
    9d58:	e2822601 	add	r2, r2, #1048576	; 0x100000
    9d5c:	e3a03002 	mov	r3, #2
    9d60:	ebfff9b8 	bl	8448 <mmu_map_section>
    9d64:	e28dd00c 	add	sp, sp, #12
    9d68:	e49df004 	pop	{pc}		; (ldr pc, [sp], #4)
    9d6c:	0000bf48 	andeq	fp, r0, r8, asr #30
    9d70:	0000b140 	andeq	fp, r0, r0, asr #2
    9d74:	0000ba9c 	muleq	r0, ip, sl
    9d78:	0000c008 	andeq	ip, r0, r8
    9d7c:	00000133 	andeq	r0, r0, r3, lsr r1
    9d80:	0000c3dc 	ldrdeq	ip, [r0], -ip	; <UNPREDICTABLE>

00009d84 <memcheck_no_access>:
    9d84:	e92d4008 	push	{r3, lr}
    9d88:	e1a01a20 	lsr	r1, r0, #20
    9d8c:	e59f3010 	ldr	r3, [pc, #16]	; 9da4 <memcheck_no_access+0x20>
    9d90:	e5930000 	ldr	r0, [r3]
    9d94:	e1a01a01 	lsl	r1, r1, #20
    9d98:	e3a02001 	mov	r2, #1
    9d9c:	ebfff97f 	bl	83a0 <mmu_mark_sec_no_access>
    9da0:	e8bd8008 	pop	{r3, pc}
    9da4:	0000c3dc 	ldrdeq	ip, [r0], -ip	; <UNPREDICTABLE>

00009da8 <memcheck_trap_enabled>:
    9da8:	e92d4008 	push	{r3, lr}
    9dac:	e3a00002 	mov	r0, #2
    9db0:	ebfffde9 	bl	955c <dom_perm_get>
    9db4:	e2700001 	rsbs	r0, r0, #1
    9db8:	33a00000 	movcc	r0, #0
    9dbc:	e8bd8008 	pop	{r3, pc}

00009dc0 <memcheck_trap_disable>:
    9dc0:	e52de004 	push	{lr}		; (str lr, [sp, #-4]!)
    9dc4:	e24dd00c 	sub	sp, sp, #12
    9dc8:	e3a00002 	mov	r0, #2
    9dcc:	e3a01001 	mov	r1, #1
    9dd0:	ebfffe0a 	bl	9600 <dom_perm_set>
    9dd4:	ebfffff3 	bl	9da8 <memcheck_trap_enabled>
    9dd8:	e3500000 	cmp	r0, #0
    9ddc:	0a000008 	beq	9e04 <memcheck_trap_disable+0x44>
    9de0:	eb00016b 	bl	a394 <rpi_reset_putc>
    9de4:	e59f3020 	ldr	r3, [pc, #32]	; 9e0c <memcheck_trap_disable+0x4c>
    9de8:	e58d3000 	str	r3, [sp]
    9dec:	e59f001c 	ldr	r0, [pc, #28]	; 9e10 <memcheck_trap_disable+0x50>
    9df0:	e59f101c 	ldr	r1, [pc, #28]	; 9e14 <memcheck_trap_disable+0x54>
    9df4:	e59f201c 	ldr	r2, [pc, #28]	; 9e18 <memcheck_trap_disable+0x58>
    9df8:	e3a03f52 	mov	r3, #328	; 0x148
    9dfc:	eb000149 	bl	a328 <printk>
    9e00:	eb0002d8 	bl	a968 <clean_reboot>
    9e04:	e28dd00c 	add	sp, sp, #12
    9e08:	e49df004 	pop	{pc}		; (ldr pc, [sp], #4)
    9e0c:	0000bf60 	andeq	fp, r0, r0, ror #30
    9e10:	0000b140 	andeq	fp, r0, r0, asr #2
    9e14:	0000ba9c 	muleq	r0, ip, sl
    9e18:	0000c024 	andeq	ip, r0, r4, lsr #32

00009e1c <memcheck_trap_enable>:
    9e1c:	e52de004 	push	{lr}		; (str lr, [sp, #-4]!)
    9e20:	e24dd00c 	sub	sp, sp, #12
    9e24:	e3a00002 	mov	r0, #2
    9e28:	e3a01000 	mov	r1, #0
    9e2c:	ebfffdf3 	bl	9600 <dom_perm_set>
    9e30:	ebffffdc 	bl	9da8 <memcheck_trap_enabled>
    9e34:	e3500000 	cmp	r0, #0
    9e38:	1a000008 	bne	9e60 <memcheck_trap_enable+0x44>
    9e3c:	eb000154 	bl	a394 <rpi_reset_putc>
    9e40:	e59f3020 	ldr	r3, [pc, #32]	; 9e68 <memcheck_trap_enable+0x4c>
    9e44:	e58d3000 	str	r3, [sp]
    9e48:	e59f001c 	ldr	r0, [pc, #28]	; 9e6c <memcheck_trap_enable+0x50>
    9e4c:	e59f101c 	ldr	r1, [pc, #28]	; 9e70 <memcheck_trap_enable+0x54>
    9e50:	e59f201c 	ldr	r2, [pc, #28]	; 9e74 <memcheck_trap_enable+0x58>
    9e54:	e3a03f53 	mov	r3, #332	; 0x14c
    9e58:	eb000132 	bl	a328 <printk>
    9e5c:	eb0002c1 	bl	a968 <clean_reboot>
    9e60:	e28dd00c 	add	sp, sp, #12
    9e64:	e49df004 	pop	{pc}		; (ldr pc, [sp], #4)
    9e68:	0000bf7c 	andeq	fp, r0, ip, ror pc
    9e6c:	0000b140 	andeq	fp, r0, r0, asr #2
    9e70:	0000ba9c 	muleq	r0, ip, sl
    9e74:	0000c04c 	andeq	ip, r0, ip, asr #32

00009e78 <memcheck_fn>:
    9e78:	e59f0000 	ldr	r0, [pc]	; 9e80 <memcheck_fn+0x8>
    9e7c:	e12fff1e 	bx	lr
    9e80:	12345678 	eorsne	r5, r4, #120, 12	; 0x7800000

00009e84 <cp15_sync>:
    9e84:	e3a02000 	mov	r2, #0
    9e88:	ee072fd5 	mcr	15, 0, r2, cr7, cr5, {6}
    9e8c:	ee072f9a 	mcr	15, 0, r2, cr7, cr10, {4}
    9e90:	ee072f95 	mcr	15, 0, r2, cr7, cr5, {4}
    9e94:	e12fff1e 	bx	lr

00009e98 <cp15_barrier>:
    9e98:	e3a02000 	mov	r2, #0
    9e9c:	ee072f9a 	mcr	15, 0, r2, cr7, cr10, {4}
    9ea0:	ee072f95 	mcr	15, 0, r2, cr7, cr5, {4}
    9ea4:	e12fff1e 	bx	lr

00009ea8 <cp15_ttbr0_rd>:
    9ea8:	ee120f10 	mrc	15, 0, r0, cr2, cr0, {0}
    9eac:	e12fff1e 	bx	lr

00009eb0 <cp15_ttbr1_rd>:
    9eb0:	ee120f30 	mrc	15, 0, r0, cr2, cr0, {1}
    9eb4:	e12fff1e 	bx	lr

00009eb8 <cp15_ttbr_ctrl_rd>:
    9eb8:	ee120f50 	mrc	15, 0, r0, cr2, cr0, {2}
    9ebc:	e12fff1e 	bx	lr

00009ec0 <cp15_domain_ctrl_rd>:
    9ec0:	ee130f10 	mrc	15, 0, r0, cr3, cr0, {0}
    9ec4:	e12fff1e 	bx	lr

00009ec8 <cp15_cache_type_rd>:
    9ec8:	ee100f30 	mrc	15, 0, r0, cr0, cr0, {1}
    9ecc:	e12fff1e 	bx	lr

00009ed0 <cp15_tlb_config_rd>:
    9ed0:	ee100f70 	mrc	15, 0, r0, cr0, cr0, {3}
    9ed4:	e12fff1e 	bx	lr

00009ed8 <cp15_ctrl_reg1_rd>:
    9ed8:	ee110f10 	mrc	15, 0, r0, cr1, cr0, {0}
    9edc:	e12fff1e 	bx	lr

00009ee0 <cp15_ctrl_reg1_rd_u32>:
    9ee0:	ee110f10 	mrc	15, 0, r0, cr1, cr0, {0}
    9ee4:	e12fff1e 	bx	lr

00009ee8 <cp15_procid_rd>:
    9ee8:	ee1d0f30 	mrc	15, 0, r0, cr13, cr0, {1}
    9eec:	e12fff1e 	bx	lr

00009ef0 <cp15_dsb>:
    9ef0:	e3a02000 	mov	r2, #0
    9ef4:	ee072f9a 	mcr	15, 0, r2, cr7, cr10, {4}
    9ef8:	e12fff1e 	bx	lr

00009efc <cp15_dmb>:
    9efc:	e3a02000 	mov	r2, #0
    9f00:	ee072fba 	mcr	15, 0, r2, cr7, cr10, {5}
    9f04:	e12fff1e 	bx	lr

00009f08 <cp15_prefetch_flush>:
    9f08:	e3a02000 	mov	r2, #0
    9f0c:	ee072f95 	mcr	15, 0, r2, cr7, cr5, {4}
    9f10:	e12fff1e 	bx	lr

00009f14 <cp15_btb_flush>:
    9f14:	e3a02000 	mov	r2, #0
    9f18:	ee072fd5 	mcr	15, 0, r2, cr7, cr5, {6}
    9f1c:	e12fff1e 	bx	lr

00009f20 <cp15_caches_inv>:
    9f20:	e3a00000 	mov	r0, #0
    9f24:	ee070f15 	mcr	15, 0, r0, cr7, cr5, {0}
    9f28:	ee070f15 	mcr	15, 0, r0, cr7, cr5, {0}
    9f2c:	ee070f15 	mcr	15, 0, r0, cr7, cr5, {0}
    9f30:	ee070f15 	mcr	15, 0, r0, cr7, cr5, {0}
    9f34:	e320f000 	nop	{0}
    9f38:	e320f000 	nop	{0}
    9f3c:	e320f000 	nop	{0}
    9f40:	e320f000 	nop	{0}
    9f44:	e320f000 	nop	{0}
    9f48:	e320f000 	nop	{0}
    9f4c:	e320f000 	nop	{0}
    9f50:	e320f000 	nop	{0}
    9f54:	e320f000 	nop	{0}
    9f58:	e320f000 	nop	{0}
    9f5c:	e320f000 	nop	{0}
    9f60:	ee070f16 	mcr	15, 0, r0, cr7, cr6, {0}
    9f64:	ee070f9a 	mcr	15, 0, r0, cr7, cr10, {4}
    9f68:	ee070fd5 	mcr	15, 0, r0, cr7, cr5, {6}
    9f6c:	ee070f9a 	mcr	15, 0, r0, cr7, cr10, {4}
    9f70:	ee070f95 	mcr	15, 0, r0, cr7, cr5, {4}
    9f74:	e12fff1e 	bx	lr

00009f78 <cp15_dcache_clean_inv>:
    9f78:	e3a00000 	mov	r0, #0
    9f7c:	ee070f1e 	mcr	15, 0, r0, cr7, cr14, {0}
    9f80:	ee070f9a 	mcr	15, 0, r0, cr7, cr10, {4}
    9f84:	ee070fd5 	mcr	15, 0, r0, cr7, cr5, {6}
    9f88:	ee070f9a 	mcr	15, 0, r0, cr7, cr10, {4}
    9f8c:	ee070f95 	mcr	15, 0, r0, cr7, cr5, {4}
    9f90:	e12fff1e 	bx	lr

00009f94 <cp15_icache_inv>:
    9f94:	e3a00000 	mov	r0, #0
    9f98:	ee070f15 	mcr	15, 0, r0, cr7, cr5, {0}
    9f9c:	ee070f15 	mcr	15, 0, r0, cr7, cr5, {0}
    9fa0:	ee070f15 	mcr	15, 0, r0, cr7, cr5, {0}
    9fa4:	ee070f15 	mcr	15, 0, r0, cr7, cr5, {0}
    9fa8:	e320f000 	nop	{0}
    9fac:	e320f000 	nop	{0}
    9fb0:	e320f000 	nop	{0}
    9fb4:	e320f000 	nop	{0}
    9fb8:	e320f000 	nop	{0}
    9fbc:	e320f000 	nop	{0}
    9fc0:	e320f000 	nop	{0}
    9fc4:	e320f000 	nop	{0}
    9fc8:	e320f000 	nop	{0}
    9fcc:	e320f000 	nop	{0}
    9fd0:	e320f000 	nop	{0}
    9fd4:	ee070f9a 	mcr	15, 0, r0, cr7, cr10, {4}
    9fd8:	ee070fd5 	mcr	15, 0, r0, cr7, cr5, {6}
    9fdc:	ee070f9a 	mcr	15, 0, r0, cr7, cr10, {4}
    9fe0:	ee070f95 	mcr	15, 0, r0, cr7, cr5, {4}
    9fe4:	e12fff1e 	bx	lr

00009fe8 <cp15_itlb_inv>:
    9fe8:	e3a00000 	mov	r0, #0
    9fec:	ee080f15 	mcr	15, 0, r0, cr8, cr5, {0}
    9ff0:	ee070f9a 	mcr	15, 0, r0, cr7, cr10, {4}
    9ff4:	ee070fd5 	mcr	15, 0, r0, cr7, cr5, {6}
    9ff8:	ee070f9a 	mcr	15, 0, r0, cr7, cr10, {4}
    9ffc:	ee070f95 	mcr	15, 0, r0, cr7, cr5, {4}
    a000:	e12fff1e 	bx	lr

0000a004 <cp15_dtlb_inv>:
    a004:	e3a00000 	mov	r0, #0
    a008:	ee080f16 	mcr	15, 0, r0, cr8, cr6, {0}
    a00c:	ee070f9a 	mcr	15, 0, r0, cr7, cr10, {4}
    a010:	ee070fd5 	mcr	15, 0, r0, cr7, cr5, {6}
    a014:	ee070f9a 	mcr	15, 0, r0, cr7, cr10, {4}
    a018:	ee070f95 	mcr	15, 0, r0, cr7, cr5, {4}
    a01c:	e12fff1e 	bx	lr

0000a020 <cp15_tlbs_inv>:
    a020:	e3a00000 	mov	r0, #0
    a024:	ee080f17 	mcr	15, 0, r0, cr8, cr7, {0}
    a028:	ee070f9a 	mcr	15, 0, r0, cr7, cr10, {4}
    a02c:	ee070fd5 	mcr	15, 0, r0, cr7, cr5, {6}
    a030:	ee070f9a 	mcr	15, 0, r0, cr7, cr10, {4}
    a034:	ee070f95 	mcr	15, 0, r0, cr7, cr5, {4}
    a038:	e12fff1e 	bx	lr

0000a03c <cp15_ttbr0_wr>:
    a03c:	e3a01000 	mov	r1, #0
    a040:	ee020f10 	mcr	15, 0, r0, cr2, cr0, {0}
    a044:	ee071f9a 	mcr	15, 0, r1, cr7, cr10, {4}
    a048:	ee071fd5 	mcr	15, 0, r1, cr7, cr5, {6}
    a04c:	ee071f9a 	mcr	15, 0, r1, cr7, cr10, {4}
    a050:	ee071f95 	mcr	15, 0, r1, cr7, cr5, {4}
    a054:	e12fff1e 	bx	lr

0000a058 <cp15_ttbr1_wr>:
    a058:	e3a01000 	mov	r1, #0
    a05c:	ee020f10 	mcr	15, 0, r0, cr2, cr0, {0}
    a060:	ee071f9a 	mcr	15, 0, r1, cr7, cr10, {4}
    a064:	ee071fd5 	mcr	15, 0, r1, cr7, cr5, {6}
    a068:	ee071f9a 	mcr	15, 0, r1, cr7, cr10, {4}
    a06c:	ee071f95 	mcr	15, 0, r1, cr7, cr5, {4}
    a070:	e12fff1e 	bx	lr

0000a074 <cp15_ttbr_ctrl_wr>:
    a074:	e3a01000 	mov	r1, #0
    a078:	ee020f50 	mcr	15, 0, r0, cr2, cr0, {2}
    a07c:	ee071f9a 	mcr	15, 0, r1, cr7, cr10, {4}
    a080:	ee071fd5 	mcr	15, 0, r1, cr7, cr5, {6}
    a084:	ee071f9a 	mcr	15, 0, r1, cr7, cr10, {4}
    a088:	ee071f95 	mcr	15, 0, r1, cr7, cr5, {4}
    a08c:	e12fff1e 	bx	lr

0000a090 <our_cp15_domain_ctrl_wr>:
    a090:	e3a01000 	mov	r1, #0
    a094:	ee030f10 	mcr	15, 0, r0, cr3, cr0, {0}
    a098:	ee071f9a 	mcr	15, 0, r1, cr7, cr10, {4}
    a09c:	ee071fd5 	mcr	15, 0, r1, cr7, cr5, {6}
    a0a0:	ee071f9a 	mcr	15, 0, r1, cr7, cr10, {4}
    a0a4:	ee071f95 	mcr	15, 0, r1, cr7, cr5, {4}
    a0a8:	e12fff1e 	bx	lr

0000a0ac <cp15_ctrl_reg1_wr>:
    a0ac:	e3a01000 	mov	r1, #0
    a0b0:	ee010f10 	mcr	15, 0, r0, cr1, cr0, {0}
    a0b4:	ee071f9a 	mcr	15, 0, r1, cr7, cr10, {4}
    a0b8:	ee071fd5 	mcr	15, 0, r1, cr7, cr5, {6}
    a0bc:	ee071f9a 	mcr	15, 0, r1, cr7, cr10, {4}
    a0c0:	ee071f95 	mcr	15, 0, r1, cr7, cr5, {4}
    a0c4:	e12fff1e 	bx	lr

0000a0c8 <our_mmu_sync_pte_mods>:
    a0c8:	e3a02000 	mov	r2, #0
    a0cc:	ee072f1e 	mcr	15, 0, r2, cr7, cr14, {0}
    a0d0:	ee072f9a 	mcr	15, 0, r2, cr7, cr10, {4}
    a0d4:	ee082f17 	mcr	15, 0, r2, cr8, cr7, {0}
    a0d8:	ee072fd5 	mcr	15, 0, r2, cr7, cr5, {6}
    a0dc:	ee072f9a 	mcr	15, 0, r2, cr7, cr10, {4}
    a0e0:	ee072f95 	mcr	15, 0, r2, cr7, cr5, {4}
    a0e4:	e12fff1e 	bx	lr

0000a0e8 <our_cp15_set_procid_ttbr0>:
    a0e8:	e3a02000 	mov	r2, #0
    a0ec:	ee072f9a 	mcr	15, 0, r2, cr7, cr10, {4}
    a0f0:	ee0d2f30 	mcr	15, 0, r2, cr13, cr0, {1}
    a0f4:	ee072f95 	mcr	15, 0, r2, cr7, cr5, {4}
    a0f8:	ee021f10 	mcr	15, 0, r1, cr2, cr0, {0}
    a0fc:	ee022f30 	mcr	15, 0, r2, cr2, cr0, {1}
    a100:	ee072f95 	mcr	15, 0, r2, cr7, cr5, {4}
    a104:	ee0d0f30 	mcr	15, 0, r0, cr13, cr0, {1}
    a108:	ee072f9a 	mcr	15, 0, r2, cr7, cr10, {4}
    a10c:	e12fff1e 	bx	lr

0000a110 <our_mmu_reset>:
    a110:	e3a00000 	mov	r0, #0
    a114:	e3a00000 	mov	r0, #0
    a118:	ee070f16 	mcr	15, 0, r0, cr7, cr6, {0}
    a11c:	ee070f15 	mcr	15, 0, r0, cr7, cr5, {0}
    a120:	ee070f15 	mcr	15, 0, r0, cr7, cr5, {0}
    a124:	ee070f15 	mcr	15, 0, r0, cr7, cr5, {0}
    a128:	ee070f15 	mcr	15, 0, r0, cr7, cr5, {0}
    a12c:	e320f000 	nop	{0}
    a130:	e320f000 	nop	{0}
    a134:	e320f000 	nop	{0}
    a138:	e320f000 	nop	{0}
    a13c:	e320f000 	nop	{0}
    a140:	e320f000 	nop	{0}
    a144:	e320f000 	nop	{0}
    a148:	e320f000 	nop	{0}
    a14c:	e320f000 	nop	{0}
    a150:	e320f000 	nop	{0}
    a154:	e320f000 	nop	{0}
    a158:	ee080f17 	mcr	15, 0, r0, cr8, cr7, {0}
    a15c:	ee070f9a 	mcr	15, 0, r0, cr7, cr10, {4}
    a160:	ee070f9a 	mcr	15, 0, r0, cr7, cr10, {4}
    a164:	ee070fd5 	mcr	15, 0, r0, cr7, cr5, {6}
    a168:	ee070f9a 	mcr	15, 0, r0, cr7, cr10, {4}
    a16c:	ee070f95 	mcr	15, 0, r0, cr7, cr5, {4}
    a170:	e12fff1e 	bx	lr

0000a174 <our_mmu_enable_set_asm>:
    a174:	e3a01000 	mov	r1, #0
    a178:	ee071f9a 	mcr	15, 0, r1, cr7, cr10, {4}
    a17c:	ee010f10 	mcr	15, 0, r0, cr1, cr0, {0}
    a180:	ee071f9a 	mcr	15, 0, r1, cr7, cr10, {4}
    a184:	ee071fd5 	mcr	15, 0, r1, cr7, cr5, {6}
    a188:	ee071f9a 	mcr	15, 0, r1, cr7, cr10, {4}
    a18c:	ee071f95 	mcr	15, 0, r1, cr7, cr5, {4}
    a190:	e12fff1e 	bx	lr

0000a194 <our_mmu_disable_set_asm>:
    a194:	e3a01000 	mov	r1, #0
    a198:	ee071f9a 	mcr	15, 0, r1, cr7, cr10, {4}
    a19c:	ee071f1e 	mcr	15, 0, r1, cr7, cr14, {0}
    a1a0:	ee071f9a 	mcr	15, 0, r1, cr7, cr10, {4}
    a1a4:	ee071f95 	mcr	15, 0, r1, cr7, cr5, {4}
    a1a8:	ee112f10 	mrc	15, 0, r2, cr1, cr0, {0}
    a1ac:	e3c22004 	bic	r2, r2, #4
    a1b0:	ee012f10 	mcr	15, 0, r2, cr1, cr0, {0}
    a1b4:	ee071f9a 	mcr	15, 0, r1, cr7, cr10, {4}
    a1b8:	ee071f95 	mcr	15, 0, r1, cr7, cr5, {4}
    a1bc:	ee010f10 	mcr	15, 0, r0, cr1, cr0, {0}
    a1c0:	ee071f9a 	mcr	15, 0, r1, cr7, cr10, {4}
    a1c4:	ee071f95 	mcr	15, 0, r1, cr7, cr5, {4}
    a1c8:	ee071f15 	mcr	15, 0, r1, cr7, cr5, {0}
    a1cc:	ee071f15 	mcr	15, 0, r1, cr7, cr5, {0}
    a1d0:	ee071f15 	mcr	15, 0, r1, cr7, cr5, {0}
    a1d4:	ee071f15 	mcr	15, 0, r1, cr7, cr5, {0}
    a1d8:	e320f000 	nop	{0}
    a1dc:	e320f000 	nop	{0}
    a1e0:	e320f000 	nop	{0}
    a1e4:	e320f000 	nop	{0}
    a1e8:	e320f000 	nop	{0}
    a1ec:	e320f000 	nop	{0}
    a1f0:	e320f000 	nop	{0}
    a1f4:	e320f000 	nop	{0}
    a1f8:	e320f000 	nop	{0}
    a1fc:	e320f000 	nop	{0}
    a200:	e320f000 	nop	{0}
    a204:	ee071f9a 	mcr	15, 0, r1, cr7, cr10, {4}
    a208:	ee071fd5 	mcr	15, 0, r1, cr7, cr5, {6}
    a20c:	ee071f9a 	mcr	15, 0, r1, cr7, cr10, {4}
    a210:	ee071f95 	mcr	15, 0, r1, cr7, cr5, {4}
    a214:	e12fff1e 	bx	lr

0000a218 <fast_hash>:
    a218:	e52d4004 	push	{r4}		; (str r4, [sp, #-4]!)
    a21c:	e1a02001 	mov	r2, r1
    a220:	e1a03000 	mov	r3, r0
    a224:	e3500000 	cmp	r0, #0
    a228:	13510000 	cmpne	r1, #0
    a22c:	da000032 	ble	a2fc <fast_hash+0xe4>
    a230:	e2014003 	and	r4, r1, #3
    a234:	e1a01141 	asr	r1, r1, #2
    a238:	ea00000b 	b	a26c <fast_hash+0x54>
    a23c:	e5d3c001 	ldrb	ip, [r3, #1]
    a240:	e5d30000 	ldrb	r0, [r3]
    a244:	e080040c 	add	r0, r0, ip, lsl #8
    a248:	e0800002 	add	r0, r0, r2
    a24c:	e5d3c003 	ldrb	ip, [r3, #3]
    a250:	e5d32002 	ldrb	r2, [r3, #2]
    a254:	e082240c 	add	r2, r2, ip, lsl #8
    a258:	e0202582 	eor	r2, r0, r2, lsl #11
    a25c:	e0222800 	eor	r2, r2, r0, lsl #16
    a260:	e2833004 	add	r3, r3, #4
    a264:	e08225a2 	add	r2, r2, r2, lsr #11
    a268:	e2411001 	sub	r1, r1, #1
    a26c:	e3510000 	cmp	r1, #0
    a270:	cafffff1 	bgt	a23c <fast_hash+0x24>
    a274:	e3540002 	cmp	r4, #2
    a278:	0a00000d 	beq	a2b4 <fast_hash+0x9c>
    a27c:	e3540003 	cmp	r4, #3
    a280:	0a000002 	beq	a290 <fast_hash+0x78>
    a284:	e3540001 	cmp	r4, #1
    a288:	1a000014 	bne	a2e0 <fast_hash+0xc8>
    a28c:	ea00000f 	b	a2d0 <fast_hash+0xb8>
    a290:	e5d30001 	ldrb	r0, [r3, #1]
    a294:	e5d31000 	ldrb	r1, [r3]
    a298:	e0811400 	add	r1, r1, r0, lsl #8
    a29c:	e0812002 	add	r2, r1, r2
    a2a0:	e0222802 	eor	r2, r2, r2, lsl #16
    a2a4:	e1d330d2 	ldrsb	r3, [r3, #2]
    a2a8:	e0222903 	eor	r2, r2, r3, lsl #18
    a2ac:	e08225a2 	add	r2, r2, r2, lsr #11
    a2b0:	ea00000a 	b	a2e0 <fast_hash+0xc8>
    a2b4:	e5d31001 	ldrb	r1, [r3, #1]
    a2b8:	e5d33000 	ldrb	r3, [r3]
    a2bc:	e0833401 	add	r3, r3, r1, lsl #8
    a2c0:	e0832002 	add	r2, r3, r2
    a2c4:	e0222582 	eor	r2, r2, r2, lsl #11
    a2c8:	e08228a2 	add	r2, r2, r2, lsr #17
    a2cc:	ea000003 	b	a2e0 <fast_hash+0xc8>
    a2d0:	e1d330d0 	ldrsb	r3, [r3]
    a2d4:	e0832002 	add	r2, r3, r2
    a2d8:	e0222502 	eor	r2, r2, r2, lsl #10
    a2dc:	e08220a2 	add	r2, r2, r2, lsr #1
    a2e0:	e0220182 	eor	r0, r2, r2, lsl #3
    a2e4:	e08002a0 	add	r0, r0, r0, lsr #5
    a2e8:	e0200200 	eor	r0, r0, r0, lsl #4
    a2ec:	e08008a0 	add	r0, r0, r0, lsr #17
    a2f0:	e0200c80 	eor	r0, r0, r0, lsl #25
    a2f4:	e0800320 	add	r0, r0, r0, lsr #6
    a2f8:	ea000000 	b	a300 <fast_hash+0xe8>
    a2fc:	e3a00000 	mov	r0, #0
    a300:	e49d4004 	pop	{r4}		; (ldr r4, [sp], #4)
    a304:	e12fff1e 	bx	lr

0000a308 <memset>:
    a308:	e0802002 	add	r2, r0, r2
    a30c:	e1a03000 	mov	r3, r0
    a310:	ea000001 	b	a31c <memset+0x14>
    a314:	e5c31000 	strb	r1, [r3]
    a318:	e2833001 	add	r3, r3, #1
    a31c:	e1530002 	cmp	r3, r2
    a320:	3afffffb 	bcc	a314 <memset+0xc>
    a324:	e12fff1e 	bx	lr

0000a328 <printk>:
    a328:	e92d000f 	push	{r0, r1, r2, r3}
    a32c:	e92d4030 	push	{r4, r5, lr}
    a330:	e24dd00c 	sub	sp, sp, #12
    a334:	e28d301c 	add	r3, sp, #28
    a338:	e58d3004 	str	r3, [sp, #4]
    a33c:	e59f4034 	ldr	r4, [pc, #52]	; a378 <printk+0x50>
    a340:	e1a00004 	mov	r0, r4
    a344:	e3a01b01 	mov	r1, #1024	; 0x400
    a348:	e59d2018 	ldr	r2, [sp, #24]
    a34c:	eb0000d0 	bl	a694 <va_printk>
    a350:	e1a05000 	mov	r5, r0
    a354:	e59f3020 	ldr	r3, [pc, #32]	; a37c <printk+0x54>
    a358:	e5933000 	ldr	r3, [r3]
    a35c:	e1a00004 	mov	r0, r4
    a360:	e12fff33 	blx	r3
    a364:	e1a00005 	mov	r0, r5
    a368:	e28dd00c 	add	sp, sp, #12
    a36c:	e8bd4030 	pop	{r4, r5, lr}
    a370:	e28dd010 	add	sp, sp, #16
    a374:	e12fff1e 	bx	lr
    a378:	0000c3e0 	andeq	ip, r0, r0, ror #7
    a37c:	0000b134 	andeq	fp, r0, r4, lsr r1

0000a380 <internal_putchar>:
    a380:	e92d4010 	push	{r4, lr}
    a384:	e1a04000 	mov	r4, r0
    a388:	eb00029a 	bl	adf8 <uart_putc>
    a38c:	e1a00004 	mov	r0, r4
    a390:	e8bd8010 	pop	{r4, pc}

0000a394 <rpi_reset_putc>:
    a394:	e59f2008 	ldr	r2, [pc, #8]	; a3a4 <rpi_reset_putc+0x10>
    a398:	e59f3008 	ldr	r3, [pc, #8]	; a3a8 <rpi_reset_putc+0x14>
    a39c:	e5832000 	str	r2, [r3]
    a3a0:	e12fff1e 	bx	lr
    a3a4:	0000a380 	andeq	sl, r0, r0, lsl #7
    a3a8:	0000b130 	andeq	fp, r0, r0, lsr r1

0000a3ac <rpi_set_putc>:
    a3ac:	e59f3004 	ldr	r3, [pc, #4]	; a3b8 <rpi_set_putc+0xc>
    a3b0:	e5830000 	str	r0, [r3]
    a3b4:	e12fff1e 	bx	lr
    a3b8:	0000b130 	andeq	fp, r0, r0, lsr r1

0000a3bc <internal_putk>:
    a3bc:	e92d4038 	push	{r3, r4, r5, lr}
    a3c0:	e1a04000 	mov	r4, r0
    a3c4:	e59f5020 	ldr	r5, [pc, #32]	; a3ec <internal_putk+0x30>
    a3c8:	ea000002 	b	a3d8 <internal_putk+0x1c>
    a3cc:	e5953000 	ldr	r3, [r5]
    a3d0:	e12fff33 	blx	r3
    a3d4:	e2844001 	add	r4, r4, #1
    a3d8:	e5d40000 	ldrb	r0, [r4]
    a3dc:	e3500000 	cmp	r0, #0
    a3e0:	1afffff9 	bne	a3cc <internal_putk+0x10>
    a3e4:	e3a00001 	mov	r0, #1
    a3e8:	e8bd8038 	pop	{r3, r4, r5, pc}
    a3ec:	0000b130 	andeq	fp, r0, r0, lsr r1

0000a3f0 <isdigit>:
    a3f0:	e2400030 	sub	r0, r0, #48	; 0x30
    a3f4:	e3500009 	cmp	r0, #9
    a3f8:	83a00000 	movhi	r0, #0
    a3fc:	93a00001 	movls	r0, #1
    a400:	e12fff1e 	bx	lr

0000a404 <pad>:
    a404:	e0611000 	rsb	r1, r1, r0
    a408:	e3a03020 	mov	r3, #32
    a40c:	ea000002 	b	a41c <pad+0x18>
    a410:	e5c03000 	strb	r3, [r0]
    a414:	e2811001 	add	r1, r1, #1
    a418:	e2800001 	add	r0, r0, #1
    a41c:	e1510002 	cmp	r1, r2
    a420:	bafffffa 	blt	a410 <pad+0xc>
    a424:	e3a03000 	mov	r3, #0
    a428:	e5c03000 	strb	r3, [r0]
    a42c:	e12fff1e 	bx	lr

0000a430 <reverse>:
    a430:	e063c002 	rsb	ip, r3, r2
    a434:	e28cc001 	add	ip, ip, #1
    a438:	e15c0001 	cmp	ip, r1
    a43c:	c061100c 	rsbgt	r1, r1, ip
    a440:	c0833001 	addgt	r3, r3, r1
    a444:	e2422001 	sub	r2, r2, #1
    a448:	e1a01000 	mov	r1, r0
    a44c:	ea000002 	b	a45c <reverse+0x2c>
    a450:	e452c001 	ldrb	ip, [r2], #-1
    a454:	e5c1c000 	strb	ip, [r1]
    a458:	e2811001 	add	r1, r1, #1
    a45c:	e1520003 	cmp	r2, r3
    a460:	2afffffa 	bcs	a450 <reverse+0x20>
    a464:	e3a03000 	mov	r3, #0
    a468:	e5c13000 	strb	r3, [r1]
    a46c:	e12fff1e 	bx	lr

0000a470 <emit>:
    a470:	e92d41f0 	push	{r4, r5, r6, r7, r8, lr}
    a474:	e24dd048 	sub	sp, sp, #72	; 0x48
    a478:	e1a05001 	mov	r5, r1
    a47c:	e1a04002 	mov	r4, r2
    a480:	e59d2060 	ldr	r2, [sp, #96]	; 0x60
    a484:	e1520004 	cmp	r2, r4
    a488:	c2442001 	subgt	r2, r4, #1
    a48c:	e1a0c003 	mov	ip, r3
    a490:	e2400002 	sub	r0, r0, #2
    a494:	e350000e 	cmp	r0, #14
    a498:	979ff100 	ldrls	pc, [pc, r0, lsl #2]
    a49c:	ea000048 	b	a5c4 <emit+0x154>
    a4a0:	0000a59c 	muleq	r0, ip, r5
    a4a4:	0000a5c4 	andeq	sl, r0, r4, asr #11
    a4a8:	0000a5c4 	andeq	sl, r0, r4, asr #11
    a4ac:	0000a5c4 	andeq	sl, r0, r4, asr #11
    a4b0:	0000a5c4 	andeq	sl, r0, r4, asr #11
    a4b4:	0000a5c4 	andeq	sl, r0, r4, asr #11
    a4b8:	0000a590 	muleq	r0, r0, r5
    a4bc:	0000a5c4 	andeq	sl, r0, r4, asr #11
    a4c0:	0000a4dc 	ldrdeq	sl, [r0], -ip
    a4c4:	0000a5c4 	andeq	sl, r0, r4, asr #11
    a4c8:	0000a5c4 	andeq	sl, r0, r4, asr #11
    a4cc:	0000a5c4 	andeq	sl, r0, r4, asr #11
    a4d0:	0000a5c4 	andeq	sl, r0, r4, asr #11
    a4d4:	0000a5c4 	andeq	sl, r0, r4, asr #11
    a4d8:	0000a550 	andeq	sl, r0, r0, asr r5
    a4dc:	e59d1064 	ldr	r1, [sp, #100]	; 0x64
    a4e0:	e2911000 	adds	r1, r1, #0
    a4e4:	13a01001 	movne	r1, #1
    a4e8:	e0111fa3 	ands	r1, r1, r3, lsr #31
    a4ec:	1263c000 	rsbne	ip, r3, #0
    a4f0:	13a08001 	movne	r8, #1
    a4f4:	03a08000 	moveq	r8, #0
    a4f8:	e28d1008 	add	r1, sp, #8
    a4fc:	e59f7108 	ldr	r7, [pc, #264]	; a60c <emit+0x19c>
    a500:	e59f6108 	ldr	r6, [pc, #264]	; a610 <emit+0x1a0>
    a504:	ea000000 	b	a50c <emit+0x9c>
    a508:	e1a01000 	mov	r1, r0
    a50c:	e2810001 	add	r0, r1, #1
    a510:	e083ec97 	umull	lr, r3, r7, ip
    a514:	e1a031a3 	lsr	r3, r3, #3
    a518:	e1a0e003 	mov	lr, r3
    a51c:	e0833103 	add	r3, r3, r3, lsl #2
    a520:	e1a03083 	lsl	r3, r3, #1
    a524:	e063300c 	rsb	r3, r3, ip
    a528:	e7d63003 	ldrb	r3, [r6, r3]
    a52c:	e5c13000 	strb	r3, [r1]
    a530:	e1a0c00e 	mov	ip, lr
    a534:	e35e0000 	cmp	lr, #0
    a538:	1afffff2 	bne	a508 <emit+0x98>
    a53c:	e3580000 	cmp	r8, #0
    a540:	12810002 	addne	r0, r1, #2
    a544:	13a0302d 	movne	r3, #45	; 0x2d
    a548:	15c13001 	strbne	r3, [r1, #1]
    a54c:	ea000025 	b	a5e8 <emit+0x178>
    a550:	e28d3008 	add	r3, sp, #8
    a554:	e59fe0b8 	ldr	lr, [pc, #184]	; a614 <emit+0x1a4>
    a558:	ea000000 	b	a560 <emit+0xf0>
    a55c:	e1a03000 	mov	r3, r0
    a560:	e2830001 	add	r0, r3, #1
    a564:	e20c100f 	and	r1, ip, #15
    a568:	e7de1001 	ldrb	r1, [lr, r1]
    a56c:	e5c31000 	strb	r1, [r3]
    a570:	e1b0c22c 	lsrs	ip, ip, #4
    a574:	1afffff8 	bne	a55c <emit+0xec>
    a578:	e3a01078 	mov	r1, #120	; 0x78
    a57c:	e5c31001 	strb	r1, [r3, #1]
    a580:	e2830003 	add	r0, r3, #3
    a584:	e3a01030 	mov	r1, #48	; 0x30
    a588:	e5c31002 	strb	r1, [r3, #2]
    a58c:	ea000015 	b	a5e8 <emit+0x178>
    a590:	e5cd3008 	strb	r3, [sp, #8]
    a594:	e28d0009 	add	r0, sp, #9
    a598:	ea000012 	b	a5e8 <emit+0x178>
    a59c:	e28d3008 	add	r3, sp, #8
    a5a0:	e59fe070 	ldr	lr, [pc, #112]	; a618 <emit+0x1a8>
    a5a4:	e2830001 	add	r0, r3, #1
    a5a8:	e20c1001 	and	r1, ip, #1
    a5ac:	e7de1001 	ldrb	r1, [lr, r1]
    a5b0:	e5c31000 	strb	r1, [r3]
    a5b4:	e1a03000 	mov	r3, r0
    a5b8:	e1b0c0ac 	lsrs	ip, ip, #1
    a5bc:	1afffff8 	bne	a5a4 <emit+0x134>
    a5c0:	ea000008 	b	a5e8 <emit+0x178>
    a5c4:	ebffff72 	bl	a394 <rpi_reset_putc>
    a5c8:	e59f304c 	ldr	r3, [pc, #76]	; a61c <emit+0x1ac>
    a5cc:	e58d3000 	str	r3, [sp]
    a5d0:	e59f0048 	ldr	r0, [pc, #72]	; a620 <emit+0x1b0>
    a5d4:	e59f1048 	ldr	r1, [pc, #72]	; a624 <emit+0x1b4>
    a5d8:	e59f2048 	ldr	r2, [pc, #72]	; a628 <emit+0x1b8>
    a5dc:	e3a03077 	mov	r3, #119	; 0x77
    a5e0:	ebffff50 	bl	a328 <printk>
    a5e4:	eb0000df 	bl	a968 <clean_reboot>
    a5e8:	e28d1008 	add	r1, sp, #8
    a5ec:	ebffff84 	bl	a404 <pad>
    a5f0:	e1a02000 	mov	r2, r0
    a5f4:	e1a00005 	mov	r0, r5
    a5f8:	e1a01004 	mov	r1, r4
    a5fc:	e28d3008 	add	r3, sp, #8
    a600:	ebffff8a 	bl	a430 <reverse>
    a604:	e28dd048 	add	sp, sp, #72	; 0x48
    a608:	e8bd81f0 	pop	{r4, r5, r6, r7, r8, pc}
    a60c:	cccccccd 	stclgt	12, cr12, [ip], {205}	; 0xcd
    a610:	0000c09c 	muleq	r0, ip, r0
    a614:	0000c0a8 	andeq	ip, r0, r8, lsr #1
    a618:	0000c0bc 	strheq	ip, [r0], -ip	; <UNPREDICTABLE>
    a61c:	0000b820 	andeq	fp, r0, r0, lsr #16
    a620:	0000b140 	andeq	fp, r0, r0, asr #2
    a624:	0000c088 	andeq	ip, r0, r8, lsl #1
    a628:	0000c064 	andeq	ip, r0, r4, rrx

0000a62c <rpi_set_output>:
    a62c:	e52de004 	push	{lr}		; (str lr, [sp, #-4]!)
    a630:	e24dd00c 	sub	sp, sp, #12
    a634:	e3500000 	cmp	r0, #0
    a638:	1a000008 	bne	a660 <rpi_set_output+0x34>
    a63c:	ebffff54 	bl	a394 <rpi_reset_putc>
    a640:	e59f3034 	ldr	r3, [pc, #52]	; a67c <rpi_set_output+0x50>
    a644:	e58d3000 	str	r3, [sp]
    a648:	e59f0030 	ldr	r0, [pc, #48]	; a680 <rpi_set_output+0x54>
    a64c:	e59f1030 	ldr	r1, [pc, #48]	; a684 <rpi_set_output+0x58>
    a650:	e59f2030 	ldr	r2, [pc, #48]	; a688 <rpi_set_output+0x5c>
    a654:	e3a03020 	mov	r3, #32
    a658:	ebffff32 	bl	a328 <printk>
    a65c:	eb0000c1 	bl	a968 <clean_reboot>
    a660:	e59f3024 	ldr	r3, [pc, #36]	; a68c <rpi_set_output+0x60>
    a664:	e5830000 	str	r0, [r3]
    a668:	e3510000 	cmp	r1, #0
    a66c:	159f301c 	ldrne	r3, [pc, #28]	; a690 <rpi_set_output+0x64>
    a670:	15831000 	strne	r1, [r3]
    a674:	e28dd00c 	add	sp, sp, #12
    a678:	e49df004 	pop	{pc}		; (ldr pc, [sp], #4)
    a67c:	0000c0c0 	andeq	ip, r0, r0, asr #1
    a680:	0000b140 	andeq	fp, r0, r0, asr #2
    a684:	0000c088 	andeq	ip, r0, r8, lsl #1
    a688:	0000c06c 	andeq	ip, r0, ip, rrx
    a68c:	0000b130 	andeq	fp, r0, r0, lsr r1
    a690:	0000b134 	andeq	fp, r0, r4, lsr r1

0000a694 <va_printk>:
    a694:	e92d4ff0 	push	{r4, r5, r6, r7, r8, r9, sl, fp, lr}
    a698:	e24dd094 	sub	sp, sp, #148	; 0x94
    a69c:	e1a0b000 	mov	fp, r0
    a6a0:	e58d200c 	str	r2, [sp, #12]
    a6a4:	e1a0a003 	mov	sl, r3
    a6a8:	e2411001 	sub	r1, r1, #1
    a6ac:	e0808001 	add	r8, r0, r1
    a6b0:	e3a03000 	mov	r3, #0
    a6b4:	e5c03000 	strb	r3, [r0]
    a6b8:	e1a04000 	mov	r4, r0
    a6bc:	e1a06002 	mov	r6, r2
    a6c0:	ea000095 	b	a91c <va_printk+0x288>
    a6c4:	e3530025 	cmp	r3, #37	; 0x25
    a6c8:	12866001 	addne	r6, r6, #1
    a6cc:	15c43000 	strbne	r3, [r4]
    a6d0:	12844001 	addne	r4, r4, #1
    a6d4:	1a000090 	bne	a91c <va_printk+0x288>
    a6d8:	e5d62001 	ldrb	r2, [r6, #1]
    a6dc:	e3520025 	cmp	r2, #37	; 0x25
    a6e0:	05c43000 	strbeq	r3, [r4]
    a6e4:	02866002 	addeq	r6, r6, #2
    a6e8:	02844001 	addeq	r4, r4, #1
    a6ec:	0a00008a 	beq	a91c <va_printk+0x288>
    a6f0:	e2866001 	add	r6, r6, #1
    a6f4:	e3a07000 	mov	r7, #0
    a6f8:	ea000004 	b	a710 <va_printk+0x7c>
    a6fc:	e0877107 	add	r7, r7, r7, lsl #2
    a700:	e1a07087 	lsl	r7, r7, #1
    a704:	e0877005 	add	r7, r7, r5
    a708:	e2477030 	sub	r7, r7, #48	; 0x30
    a70c:	e2866001 	add	r6, r6, #1
    a710:	e5d65000 	ldrb	r5, [r6]
    a714:	e1a09005 	mov	r9, r5
    a718:	e1a00005 	mov	r0, r5
    a71c:	ebffff33 	bl	a3f0 <isdigit>
    a720:	e3500000 	cmp	r0, #0
    a724:	1afffff4 	bne	a6fc <va_printk+0x68>
    a728:	e357001f 	cmp	r7, #31
    a72c:	9a000008 	bls	a754 <va_printk+0xc0>
    a730:	ebffff17 	bl	a394 <rpi_reset_putc>
    a734:	e59f320c 	ldr	r3, [pc, #524]	; a948 <va_printk+0x2b4>
    a738:	e58d3000 	str	r3, [sp]
    a73c:	e59f0208 	ldr	r0, [pc, #520]	; a94c <va_printk+0x2b8>
    a740:	e59f1208 	ldr	r1, [pc, #520]	; a950 <va_printk+0x2bc>
    a744:	e59f2208 	ldr	r2, [pc, #520]	; a954 <va_printk+0x2c0>
    a748:	e3a03095 	mov	r3, #149	; 0x95
    a74c:	ebfffef5 	bl	a328 <printk>
    a750:	eb000084 	bl	a968 <clean_reboot>
    a754:	e2455062 	sub	r5, r5, #98	; 0x62
    a758:	e3550016 	cmp	r5, #22
    a75c:	979ff105 	ldrls	pc, [pc, r5, lsl #2]
    a760:	ea000052 	b	a8b0 <va_printk+0x21c>
    a764:	0000a854 	andeq	sl, r0, r4, asr r8
    a768:	0000a888 	andeq	sl, r0, r8, lsl #17
    a76c:	0000a7dc 	ldrdeq	sl, [r0], -ip
    a770:	0000a8b0 			; <UNDEFINED> instruction: 0x0000a8b0
    a774:	0000a7c0 	andeq	sl, r0, r0, asr #15
    a778:	0000a8b0 			; <UNDEFINED> instruction: 0x0000a8b0
    a77c:	0000a8b0 			; <UNDEFINED> instruction: 0x0000a8b0
    a780:	0000a8b0 			; <UNDEFINED> instruction: 0x0000a8b0
    a784:	0000a8b0 			; <UNDEFINED> instruction: 0x0000a8b0
    a788:	0000a8b0 			; <UNDEFINED> instruction: 0x0000a8b0
    a78c:	0000a8b0 			; <UNDEFINED> instruction: 0x0000a8b0
    a790:	0000a8b0 			; <UNDEFINED> instruction: 0x0000a8b0
    a794:	0000a8b0 			; <UNDEFINED> instruction: 0x0000a8b0
    a798:	0000a8b0 			; <UNDEFINED> instruction: 0x0000a8b0
    a79c:	0000a82c 	andeq	sl, r0, ip, lsr #16
    a7a0:	0000a8b0 			; <UNDEFINED> instruction: 0x0000a8b0
    a7a4:	0000a8b0 			; <UNDEFINED> instruction: 0x0000a8b0
    a7a8:	0000a87c 	andeq	sl, r0, ip, ror r8
    a7ac:	0000a8b0 			; <UNDEFINED> instruction: 0x0000a8b0
    a7b0:	0000a804 	andeq	sl, r0, r4, lsl #16
    a7b4:	0000a8b0 			; <UNDEFINED> instruction: 0x0000a8b0
    a7b8:	0000a8b0 			; <UNDEFINED> instruction: 0x0000a8b0
    a7bc:	0000a82c 	andeq	sl, r0, ip, lsr #16
    a7c0:	ebfffef3 	bl	a394 <rpi_reset_putc>
    a7c4:	e59f018c 	ldr	r0, [pc, #396]	; a958 <va_printk+0x2c4>
    a7c8:	e59f1180 	ldr	r1, [pc, #384]	; a950 <va_printk+0x2bc>
    a7cc:	e59f2180 	ldr	r2, [pc, #384]	; a954 <va_printk+0x2c0>
    a7d0:	e3a0309b 	mov	r3, #155	; 0x9b
    a7d4:	ebfffed3 	bl	a328 <printk>
    a7d8:	eb000062 	bl	a968 <clean_reboot>
    a7dc:	e59a3000 	ldr	r3, [sl]
    a7e0:	e28aa004 	add	sl, sl, #4
    a7e4:	e58d7000 	str	r7, [sp]
    a7e8:	e3a02001 	mov	r2, #1
    a7ec:	e58d2004 	str	r2, [sp, #4]
    a7f0:	e3a0000a 	mov	r0, #10
    a7f4:	e28d1010 	add	r1, sp, #16
    a7f8:	e3a02080 	mov	r2, #128	; 0x80
    a7fc:	ebffff1b 	bl	a470 <emit>
    a800:	ea00003b 	b	a8f4 <va_printk+0x260>
    a804:	e59a3000 	ldr	r3, [sl]
    a808:	e28aa004 	add	sl, sl, #4
    a80c:	e58d7000 	str	r7, [sp]
    a810:	e3a02000 	mov	r2, #0
    a814:	e58d2004 	str	r2, [sp, #4]
    a818:	e3a0000a 	mov	r0, #10
    a81c:	e28d1010 	add	r1, sp, #16
    a820:	e3a02080 	mov	r2, #128	; 0x80
    a824:	ebffff11 	bl	a470 <emit>
    a828:	ea000031 	b	a8f4 <va_printk+0x260>
    a82c:	e59a3000 	ldr	r3, [sl]
    a830:	e28aa004 	add	sl, sl, #4
    a834:	e58d7000 	str	r7, [sp]
    a838:	e3a02000 	mov	r2, #0
    a83c:	e58d2004 	str	r2, [sp, #4]
    a840:	e3a00010 	mov	r0, #16
    a844:	e08d1000 	add	r1, sp, r0
    a848:	e3a02080 	mov	r2, #128	; 0x80
    a84c:	ebffff07 	bl	a470 <emit>
    a850:	ea000027 	b	a8f4 <va_printk+0x260>
    a854:	e59a3000 	ldr	r3, [sl]
    a858:	e28aa004 	add	sl, sl, #4
    a85c:	e58d7000 	str	r7, [sp]
    a860:	e3a02000 	mov	r2, #0
    a864:	e58d2004 	str	r2, [sp, #4]
    a868:	e3a00002 	mov	r0, #2
    a86c:	e28d1010 	add	r1, sp, #16
    a870:	e3a02080 	mov	r2, #128	; 0x80
    a874:	ebfffefd 	bl	a470 <emit>
    a878:	ea00001d 	b	a8f4 <va_printk+0x260>
    a87c:	e59a0000 	ldr	r0, [sl]
    a880:	e28aa004 	add	sl, sl, #4
    a884:	ea00001a 	b	a8f4 <va_printk+0x260>
    a888:	e59a3000 	ldr	r3, [sl]
    a88c:	e28aa004 	add	sl, sl, #4
    a890:	e58d7000 	str	r7, [sp]
    a894:	e3a02000 	mov	r2, #0
    a898:	e58d2004 	str	r2, [sp, #4]
    a89c:	e3a00008 	mov	r0, #8
    a8a0:	e28d1010 	add	r1, sp, #16
    a8a4:	e3a02080 	mov	r2, #128	; 0x80
    a8a8:	ebfffef0 	bl	a470 <emit>
    a8ac:	ea000010 	b	a8f4 <va_printk+0x260>
    a8b0:	e3a03000 	mov	r3, #0
    a8b4:	e5c63001 	strb	r3, [r6, #1]
    a8b8:	e59f009c 	ldr	r0, [pc, #156]	; a95c <va_printk+0x2c8>
    a8bc:	e1a01009 	mov	r1, r9
    a8c0:	e1a02009 	mov	r2, r9
    a8c4:	ebfffe97 	bl	a328 <printk>
    a8c8:	e59f3090 	ldr	r3, [pc, #144]	; a960 <va_printk+0x2cc>
    a8cc:	e5933000 	ldr	r3, [r3]
    a8d0:	e59d000c 	ldr	r0, [sp, #12]
    a8d4:	e12fff33 	blx	r3
    a8d8:	ebfffead 	bl	a394 <rpi_reset_putc>
    a8dc:	e59f0080 	ldr	r0, [pc, #128]	; a964 <va_printk+0x2d0>
    a8e0:	e59f1068 	ldr	r1, [pc, #104]	; a950 <va_printk+0x2bc>
    a8e4:	e59f2068 	ldr	r2, [pc, #104]	; a954 <va_printk+0x2c0>
    a8e8:	e3a030bf 	mov	r3, #191	; 0xbf
    a8ec:	ebfffe8d 	bl	a328 <printk>
    a8f0:	eb00001c 	bl	a968 <clean_reboot>
    a8f4:	e2866001 	add	r6, r6, #1
    a8f8:	ea000002 	b	a908 <va_printk+0x274>
    a8fc:	e2800001 	add	r0, r0, #1
    a900:	e5c43000 	strb	r3, [r4]
    a904:	e2844001 	add	r4, r4, #1
    a908:	e1540008 	cmp	r4, r8
    a90c:	2a000002 	bcs	a91c <va_printk+0x288>
    a910:	e5d03000 	ldrb	r3, [r0]
    a914:	e3530000 	cmp	r3, #0
    a918:	1afffff7 	bne	a8fc <va_printk+0x268>
    a91c:	e5d63000 	ldrb	r3, [r6]
    a920:	e3530000 	cmp	r3, #0
    a924:	0a000001 	beq	a930 <va_printk+0x29c>
    a928:	e1540008 	cmp	r4, r8
    a92c:	3affff64 	bcc	a6c4 <va_printk+0x30>
    a930:	e2840001 	add	r0, r4, #1
    a934:	e3a03000 	mov	r3, #0
    a938:	e5c43000 	strb	r3, [r4]
    a93c:	e06b0000 	rsb	r0, fp, r0
    a940:	e28dd094 	add	sp, sp, #148	; 0x94
    a944:	e8bd8ff0 	pop	{r4, r5, r6, r7, r8, r9, sl, fp, pc}
    a948:	0000c0c8 	andeq	ip, r0, r8, asr #1
    a94c:	0000b140 	andeq	fp, r0, r0, asr #2
    a950:	0000c088 	andeq	ip, r0, r8, lsl #1
    a954:	0000c07c 	andeq	ip, r0, ip, ror r0
    a958:	0000c0d4 	ldrdeq	ip, [r0], -r4
    a95c:	0000c0fc 	strdeq	ip, [r0], -ip	; <UNPREDICTABLE>
    a960:	0000b134 	andeq	fp, r0, r4, lsr r1
    a964:	0000c12c 	andeq	ip, r0, ip, lsr #2

0000a968 <clean_reboot>:
    a968:	e92d4008 	push	{r3, lr}
    a96c:	eb00005b 	bl	aae0 <reboot_handler>
    a970:	e59f3014 	ldr	r3, [pc, #20]	; a98c <clean_reboot+0x24>
    a974:	e5933000 	ldr	r3, [r3]
    a978:	e59f0010 	ldr	r0, [pc, #16]	; a990 <clean_reboot+0x28>
    a97c:	e12fff33 	blx	r3
    a980:	e3a00064 	mov	r0, #100	; 0x64
    a984:	eb0000aa 	bl	ac34 <delay_ms>
    a988:	eb00007b 	bl	ab7c <rpi_reboot>
    a98c:	0000b134 	andeq	fp, r0, r4, lsr r1
    a990:	0000c14c 	andeq	ip, r0, ip, asr #2

0000a994 <_cstart>:
    a994:	e92d4008 	push	{r3, lr}
    a998:	e59f3024 	ldr	r3, [pc, #36]	; a9c4 <_cstart+0x30>
    a99c:	e59f2024 	ldr	r2, [pc, #36]	; a9c8 <_cstart+0x34>
    a9a0:	e3a01000 	mov	r1, #0
    a9a4:	ea000001 	b	a9b0 <_cstart+0x1c>
    a9a8:	e5831000 	str	r1, [r3]
    a9ac:	e2833004 	add	r3, r3, #4
    a9b0:	e1530002 	cmp	r3, r2
    a9b4:	3afffffb 	bcc	a9a8 <_cstart+0x14>
    a9b8:	eb000047 	bl	aadc <cstart_handler>
    a9bc:	ebfff59a 	bl	802c <notmain>
    a9c0:	ebffffe8 	bl	a968 <clean_reboot>
    a9c4:	0000c3c4 	andeq	ip, r0, r4, asr #7
    a9c8:	0000c7e0 	andeq	ip, r0, r0, ror #15

0000a9cc <fast_interrupt_vector>:
    a9cc:	e52de004 	push	{lr}		; (str lr, [sp, #-4]!)
    a9d0:	e24dd00c 	sub	sp, sp, #12
    a9d4:	e1a04000 	mov	r4, r0
    a9d8:	ebfffe6d 	bl	a394 <rpi_reset_putc>
    a9dc:	e59f301c 	ldr	r3, [pc, #28]	; aa00 <fast_interrupt_vector+0x34>
    a9e0:	e58d3000 	str	r3, [sp]
    a9e4:	e58d4004 	str	r4, [sp, #4]
    a9e8:	e59f0014 	ldr	r0, [pc, #20]	; aa04 <fast_interrupt_vector+0x38>
    a9ec:	e59f1014 	ldr	r1, [pc, #20]	; aa08 <fast_interrupt_vector+0x3c>
    a9f0:	e59f2014 	ldr	r2, [pc, #20]	; aa0c <fast_interrupt_vector+0x40>
    a9f4:	e3a03002 	mov	r3, #2
    a9f8:	ebfffe4a 	bl	a328 <printk>
    a9fc:	ebffffd9 	bl	a968 <clean_reboot>
    aa00:	0000c1d0 	ldrdeq	ip, [r0], -r0
    aa04:	0000c170 	andeq	ip, r0, r0, ror r1
    aa08:	0000c1ac 	andeq	ip, r0, ip, lsr #3
    aa0c:	0000c158 	andeq	ip, r0, r8, asr r1

0000aa10 <prefetch_abort_vector>:
    aa10:	e52de004 	push	{lr}		; (str lr, [sp, #-4]!)
    aa14:	e24dd00c 	sub	sp, sp, #12
    aa18:	e1a04000 	mov	r4, r0
    aa1c:	ebfffe5c 	bl	a394 <rpi_reset_putc>
    aa20:	e59f301c 	ldr	r3, [pc, #28]	; aa44 <prefetch_abort_vector+0x34>
    aa24:	e58d3000 	str	r3, [sp]
    aa28:	e58d4004 	str	r4, [sp, #4]
    aa2c:	e59f0014 	ldr	r0, [pc, #20]	; aa48 <prefetch_abort_vector+0x38>
    aa30:	e59f1014 	ldr	r1, [pc, #20]	; aa4c <prefetch_abort_vector+0x3c>
    aa34:	e59f2014 	ldr	r2, [pc, #20]	; aa50 <prefetch_abort_vector+0x40>
    aa38:	e3a03002 	mov	r3, #2
    aa3c:	ebfffe39 	bl	a328 <printk>
    aa40:	ebffffc8 	bl	a968 <clean_reboot>
    aa44:	0000c218 	andeq	ip, r0, r8, lsl r2
    aa48:	0000c170 	andeq	ip, r0, r0, ror r1
    aa4c:	0000c1f0 	strdeq	ip, [r0], -r0
    aa50:	0000c1d8 	ldrdeq	ip, [r0], -r8

0000aa54 <reset_vector>:
    aa54:	e52de004 	push	{lr}		; (str lr, [sp, #-4]!)
    aa58:	e24dd00c 	sub	sp, sp, #12
    aa5c:	e1a04000 	mov	r4, r0
    aa60:	ebfffe4b 	bl	a394 <rpi_reset_putc>
    aa64:	e59f301c 	ldr	r3, [pc, #28]	; aa88 <reset_vector+0x34>
    aa68:	e58d3000 	str	r3, [sp]
    aa6c:	e58d4004 	str	r4, [sp, #4]
    aa70:	e59f0014 	ldr	r0, [pc, #20]	; aa8c <reset_vector+0x38>
    aa74:	e59f1014 	ldr	r1, [pc, #20]	; aa90 <reset_vector+0x3c>
    aa78:	e59f2014 	ldr	r2, [pc, #20]	; aa94 <reset_vector+0x40>
    aa7c:	e3a03002 	mov	r3, #2
    aa80:	ebfffe28 	bl	a328 <printk>
    aa84:	ebffffb7 	bl	a968 <clean_reboot>
    aa88:	0000c25c 	andeq	ip, r0, ip, asr r2
    aa8c:	0000c170 	andeq	ip, r0, r0, ror r1
    aa90:	0000c238 	andeq	ip, r0, r8, lsr r2
    aa94:	0000c228 	andeq	ip, r0, r8, lsr #4

0000aa98 <undefined_instruction_vector>:
    aa98:	e52de004 	push	{lr}		; (str lr, [sp, #-4]!)
    aa9c:	e24dd00c 	sub	sp, sp, #12
    aaa0:	e1a04000 	mov	r4, r0
    aaa4:	ebfffe3a 	bl	a394 <rpi_reset_putc>
    aaa8:	e59f301c 	ldr	r3, [pc, #28]	; aacc <undefined_instruction_vector+0x34>
    aaac:	e58d3000 	str	r3, [sp]
    aab0:	e58d4004 	str	r4, [sp, #4]
    aab4:	e59f0014 	ldr	r0, [pc, #20]	; aad0 <undefined_instruction_vector+0x38>
    aab8:	e59f1014 	ldr	r1, [pc, #20]	; aad4 <undefined_instruction_vector+0x3c>
    aabc:	e59f2014 	ldr	r2, [pc, #20]	; aad8 <undefined_instruction_vector+0x40>
    aac0:	e3a03002 	mov	r3, #2
    aac4:	ebfffe17 	bl	a328 <printk>
    aac8:	ebffffa6 	bl	a968 <clean_reboot>
    aacc:	0000c2b0 			; <UNDEFINED> instruction: 0x0000c2b0
    aad0:	0000c170 	andeq	ip, r0, r0, ror r1
    aad4:	0000c284 	andeq	ip, r0, r4, lsl #5
    aad8:	0000c264 	andeq	ip, r0, r4, ror #4

0000aadc <cstart_handler>:
    aadc:	e12fff1e 	bx	lr

0000aae0 <reboot_handler>:
    aae0:	e12fff1e 	bx	lr

0000aae4 <int_init>:
    aae4:	e92d4008 	push	{r3, lr}
    aae8:	eb00005b 	bl	ac5c <dev_barrier>
    aaec:	e59f004c 	ldr	r0, [pc, #76]	; ab40 <int_init+0x5c>
    aaf0:	e3e01000 	mvn	r1, #0
    aaf4:	eb000060 	bl	ac7c <PUT32>
    aaf8:	e59f0044 	ldr	r0, [pc, #68]	; ab44 <int_init+0x60>
    aafc:	e3e01000 	mvn	r1, #0
    ab00:	eb00005d 	bl	ac7c <PUT32>
    ab04:	eb000054 	bl	ac5c <dev_barrier>
    ab08:	e59f3038 	ldr	r3, [pc, #56]	; ab48 <int_init+0x64>
    ab0c:	e59f0038 	ldr	r0, [pc, #56]	; ab4c <int_init+0x68>
    ab10:	e0630000 	rsb	r0, r3, r0
    ab14:	e1a00140 	asr	r0, r0, #2
    ab18:	e3a03000 	mov	r3, #0
    ab1c:	e59fc024 	ldr	ip, [pc, #36]	; ab48 <int_init+0x64>
    ab20:	ea000003 	b	ab34 <int_init+0x50>
    ab24:	e1a02103 	lsl	r2, r3, #2
    ab28:	e79c1103 	ldr	r1, [ip, r3, lsl #2]
    ab2c:	e5821000 	str	r1, [r2]
    ab30:	e2833001 	add	r3, r3, #1
    ab34:	e1530000 	cmp	r3, r0
    ab38:	3afffff9 	bcc	ab24 <int_init+0x40>
    ab3c:	e8bd8008 	pop	{r3, pc}
    ab40:	2000b21c 	andcs	fp, r0, ip, lsl r2
    ab44:	2000b220 	andcs	fp, r0, r0, lsr #4
    ab48:	00008104 	andeq	r8, r0, r4, lsl #2
    ab4c:	00008144 	andeq	r8, r0, r4, asr #2

0000ab50 <at_user_level>:
    ab50:	e10f0000 	mrs	r0, CPSR
    ab54:	e200001f 	and	r0, r0, #31
    ab58:	e3500010 	cmp	r0, #16
    ab5c:	13a00000 	movne	r0, #0
    ab60:	03a00001 	moveq	r0, #1
    ab64:	e12fff1e 	bx	lr

0000ab68 <set_user_level>:
    ab68:	e10f3000 	mrs	r3, CPSR
    ab6c:	e3c3301f 	bic	r3, r3, #31
    ab70:	e3833010 	orr	r3, r3, #16
    ab74:	e129f003 	msr	CPSR_fc, r3
    ab78:	e12fff1e 	bx	lr

0000ab7c <rpi_reboot>:
    ab7c:	e92d4008 	push	{r3, lr}
    ab80:	ebfffff2 	bl	ab50 <at_user_level>
    ab84:	e3500000 	cmp	r0, #0
    ab88:	0a000000 	beq	ab90 <rpi_reboot+0x14>
    ab8c:	ebfffff5 	bl	ab68 <set_user_level>
    ab90:	e3a0001e 	mov	r0, #30
    ab94:	eb000026 	bl	ac34 <delay_ms>
    ab98:	e59f0014 	ldr	r0, [pc, #20]	; abb4 <rpi_reboot+0x38>
    ab9c:	e59f1014 	ldr	r1, [pc, #20]	; abb8 <rpi_reboot+0x3c>
    aba0:	eb000035 	bl	ac7c <PUT32>
    aba4:	e59f0010 	ldr	r0, [pc, #16]	; abbc <rpi_reboot+0x40>
    aba8:	e59f1010 	ldr	r1, [pc, #16]	; abc0 <rpi_reboot+0x44>
    abac:	eb000032 	bl	ac7c <PUT32>
    abb0:	eafffffe 	b	abb0 <rpi_reboot+0x34>
    abb4:	20100024 	andscs	r0, r0, r4, lsr #32
    abb8:	5a000001 	bpl	abc4 <delay_cycles>
    abbc:	2010001c 	andscs	r0, r0, ip, lsl r0
    abc0:	5a000020 	bpl	ac48 <delay_sec>

0000abc4 <delay_cycles>:
    abc4:	ea000001 	b	abd0 <delay_cycles+0xc>
    abc8:	e2811000 	add	r1, r1, #0
    abcc:	e1a00003 	mov	r0, r3
    abd0:	e2403001 	sub	r3, r0, #1
    abd4:	e3500000 	cmp	r0, #0
    abd8:	1afffffa 	bne	abc8 <delay_cycles+0x4>
    abdc:	e12fff1e 	bx	lr

0000abe0 <timer_get_usec_raw>:
    abe0:	e92d4008 	push	{r3, lr}
    abe4:	e59f0004 	ldr	r0, [pc, #4]	; abf0 <timer_get_usec_raw+0x10>
    abe8:	eb00002f 	bl	acac <GET32>
    abec:	e8bd8008 	pop	{r3, pc}
    abf0:	20003004 	andcs	r3, r0, r4

0000abf4 <timer_get_usec>:
    abf4:	e92d4010 	push	{r4, lr}
    abf8:	eb000017 	bl	ac5c <dev_barrier>
    abfc:	ebfffff7 	bl	abe0 <timer_get_usec_raw>
    ac00:	e1a04000 	mov	r4, r0
    ac04:	eb000014 	bl	ac5c <dev_barrier>
    ac08:	e1a00004 	mov	r0, r4
    ac0c:	e8bd8010 	pop	{r4, pc}

0000ac10 <delay_us>:
    ac10:	e92d4038 	push	{r3, r4, r5, lr}
    ac14:	e1a05000 	mov	r5, r0
    ac18:	ebfffff5 	bl	abf4 <timer_get_usec>
    ac1c:	e1a04000 	mov	r4, r0
    ac20:	ebfffff3 	bl	abf4 <timer_get_usec>
    ac24:	e0640000 	rsb	r0, r4, r0
    ac28:	e1500005 	cmp	r0, r5
    ac2c:	3afffffb 	bcc	ac20 <delay_us+0x10>
    ac30:	e8bd8038 	pop	{r3, r4, r5, pc}

0000ac34 <delay_ms>:
    ac34:	e92d4008 	push	{r3, lr}
    ac38:	e3a03ffa 	mov	r3, #1000	; 0x3e8
    ac3c:	e0000093 	mul	r0, r3, r0
    ac40:	ebfffff2 	bl	ac10 <delay_us>
    ac44:	e8bd8008 	pop	{r3, pc}

0000ac48 <delay_sec>:
    ac48:	e92d4008 	push	{r3, lr}
    ac4c:	e3a03ffa 	mov	r3, #1000	; 0x3e8
    ac50:	e0000093 	mul	r0, r3, r0
    ac54:	ebfffff6 	bl	ac34 <delay_ms>
    ac58:	e8bd8008 	pop	{r3, pc}

0000ac5c <dev_barrier>:
    ac5c:	ea000002 	b	ac6c <dsb>

0000ac60 <dmb>:
    ac60:	e3a00000 	mov	r0, #0
    ac64:	ee070fba 	mcr	15, 0, r0, cr7, cr10, {5}
    ac68:	e12fff1e 	bx	lr

0000ac6c <dsb>:
    ac6c:	ee070f9a 	mcr	15, 0, r0, cr7, cr10, {4}
    ac70:	e12fff1e 	bx	lr

0000ac74 <put32>:
    ac74:	e5801000 	str	r1, [r0]
    ac78:	e12fff1e 	bx	lr

0000ac7c <PUT32>:
    ac7c:	e5801000 	str	r1, [r0]
    ac80:	e12fff1e 	bx	lr

0000ac84 <put16>:
    ac84:	e1c010b0 	strh	r1, [r0]
    ac88:	e12fff1e 	bx	lr

0000ac8c <PUT16>:
    ac8c:	e1c010b0 	strh	r1, [r0]
    ac90:	e12fff1e 	bx	lr

0000ac94 <put8>:
    ac94:	e5c01000 	strb	r1, [r0]
    ac98:	e12fff1e 	bx	lr

0000ac9c <PUT8>:
    ac9c:	e5c01000 	strb	r1, [r0]
    aca0:	e12fff1e 	bx	lr

0000aca4 <get32>:
    aca4:	e5900000 	ldr	r0, [r0]
    aca8:	e12fff1e 	bx	lr

0000acac <GET32>:
    acac:	e5900000 	ldr	r0, [r0]
    acb0:	e12fff1e 	bx	lr

0000acb4 <GETPC>:
    acb4:	e1a0000e 	mov	r0, lr
    acb8:	e12fff1e 	bx	lr

0000acbc <dummy>:
    acbc:	e12fff1e 	bx	lr

0000acc0 <or_in32>:
    acc0:	e92d4070 	push	{r4, r5, r6, lr}
    acc4:	e1a04000 	mov	r4, r0
    acc8:	e1a05001 	mov	r5, r1
    accc:	ebfffff4 	bl	aca4 <get32>
    acd0:	e1801005 	orr	r1, r0, r5
    acd4:	e1a00004 	mov	r0, r4
    acd8:	ebffffe5 	bl	ac74 <put32>
    acdc:	e8bd8070 	pop	{r4, r5, r6, pc}

0000ace0 <uart_init>:
    ace0:	e92d4010 	push	{r4, lr}
    ace4:	e3a01002 	mov	r1, #2
    ace8:	e3a0000e 	mov	r0, #14
    acec:	eb000051 	bl	ae38 <gpio_set_function>
    acf0:	e3a01002 	mov	r1, #2
    acf4:	e3a0000f 	mov	r0, #15
    acf8:	eb00004e 	bl	ae38 <gpio_set_function>
    acfc:	ebffffd6 	bl	ac5c <dev_barrier>
    ad00:	e3a01001 	mov	r1, #1
    ad04:	e59f0064 	ldr	r0, [pc, #100]	; ad70 <uart_init+0x90>
    ad08:	ebffffec 	bl	acc0 <or_in32>
    ad0c:	ebffffd2 	bl	ac5c <dev_barrier>
    ad10:	e59f405c 	ldr	r4, [pc, #92]	; ad74 <uart_init+0x94>
    ad14:	e3a01000 	mov	r1, #0
    ad18:	e1a00004 	mov	r0, r4
    ad1c:	ebffffd4 	bl	ac74 <put32>
    ad20:	e3a01000 	mov	r1, #0
    ad24:	e59f004c 	ldr	r0, [pc, #76]	; ad78 <uart_init+0x98>
    ad28:	ebffffd1 	bl	ac74 <put32>
    ad2c:	e3a01003 	mov	r1, #3
    ad30:	e59f0044 	ldr	r0, [pc, #68]	; ad7c <uart_init+0x9c>
    ad34:	ebffffce 	bl	ac74 <put32>
    ad38:	e3a01000 	mov	r1, #0
    ad3c:	e59f003c 	ldr	r0, [pc, #60]	; ad80 <uart_init+0xa0>
    ad40:	ebffffcb 	bl	ac74 <put32>
    ad44:	e3a010c7 	mov	r1, #199	; 0xc7
    ad48:	e59f0034 	ldr	r0, [pc, #52]	; ad84 <uart_init+0xa4>
    ad4c:	ebffffc8 	bl	ac74 <put32>
    ad50:	e59f1030 	ldr	r1, [pc, #48]	; ad88 <uart_init+0xa8>
    ad54:	e59f0030 	ldr	r0, [pc, #48]	; ad8c <uart_init+0xac>
    ad58:	ebffffc5 	bl	ac74 <put32>
    ad5c:	e3a01003 	mov	r1, #3
    ad60:	e1a00004 	mov	r0, r4
    ad64:	ebffffc2 	bl	ac74 <put32>
    ad68:	ebffffbb 	bl	ac5c <dev_barrier>
    ad6c:	e8bd8010 	pop	{r4, pc}
    ad70:	20215004 	eorcs	r5, r1, r4
    ad74:	20215060 	eorcs	r5, r1, r0, rrx
    ad78:	20215044 	eorcs	r5, r1, r4, asr #32
    ad7c:	2021504c 	eorcs	r5, r1, ip, asr #32
    ad80:	20215050 	eorcs	r5, r1, r0, asr r0
    ad84:	20215048 	eorcs	r5, r1, r8, asr #32
    ad88:	0000010e 	andeq	r0, r0, lr, lsl #2
    ad8c:	20215068 	eorcs	r5, r1, r8, rrx

0000ad90 <uart_can_getc>:
    ad90:	e92d4010 	push	{r4, lr}
    ad94:	e59f0008 	ldr	r0, [pc, #8]	; ada4 <uart_can_getc+0x14>
    ad98:	ebffffc1 	bl	aca4 <get32>
    ad9c:	e2000001 	and	r0, r0, #1
    ada0:	e8bd8010 	pop	{r4, pc}
    ada4:	20215064 	eorcs	r5, r1, r4, rrx

0000ada8 <uart_can_putc>:
    ada8:	e92d4010 	push	{r4, lr}
    adac:	e59f0010 	ldr	r0, [pc, #16]	; adc4 <uart_can_putc+0x1c>
    adb0:	ebffffbb 	bl	aca4 <get32>
    adb4:	e3100002 	tst	r0, #2
    adb8:	13a00001 	movne	r0, #1
    adbc:	03a00000 	moveq	r0, #0
    adc0:	e8bd8010 	pop	{r4, pc}
    adc4:	20215064 	eorcs	r5, r1, r4, rrx

0000adc8 <uart_getc>:
    adc8:	e92d4010 	push	{r4, lr}
    adcc:	ebffffa2 	bl	ac5c <dev_barrier>
    add0:	ebffffee 	bl	ad90 <uart_can_getc>
    add4:	e3500000 	cmp	r0, #0
    add8:	0afffffc 	beq	add0 <uart_getc+0x8>
    addc:	e59f0010 	ldr	r0, [pc, #16]	; adf4 <uart_getc+0x2c>
    ade0:	ebffffaf 	bl	aca4 <get32>
    ade4:	e6ef4070 	uxtb	r4, r0
    ade8:	ebffff9b 	bl	ac5c <dev_barrier>
    adec:	e1a00004 	mov	r0, r4
    adf0:	e8bd8010 	pop	{r4, pc}
    adf4:	20215040 	eorcs	r5, r1, r0, asr #32

0000adf8 <uart_putc>:
    adf8:	e92d4010 	push	{r4, lr}
    adfc:	e1a04000 	mov	r4, r0
    ae00:	ebffff95 	bl	ac5c <dev_barrier>
    ae04:	ebffffe7 	bl	ada8 <uart_can_putc>
    ae08:	e3500000 	cmp	r0, #0
    ae0c:	0afffffc 	beq	ae04 <uart_putc+0xc>
    ae10:	e6ef1074 	uxtb	r1, r4
    ae14:	e59f0008 	ldr	r0, [pc, #8]	; ae24 <uart_putc+0x2c>
    ae18:	ebffff95 	bl	ac74 <put32>
    ae1c:	ebffff8e 	bl	ac5c <dev_barrier>
    ae20:	e8bd8010 	pop	{r4, pc}
    ae24:	20215040 	eorcs	r5, r1, r0, asr #32

0000ae28 <uart_has_data>:
    ae28:	e92d4010 	push	{r4, lr}
    ae2c:	ebffff8a 	bl	ac5c <dev_barrier>
    ae30:	ebffffd6 	bl	ad90 <uart_can_getc>
    ae34:	e8bd8010 	pop	{r4, pc}

0000ae38 <gpio_set_function>:
    ae38:	e350001f 	cmp	r0, #31
    ae3c:	812fff1e 	bxhi	lr
    ae40:	e3d13007 	bics	r3, r1, #7
    ae44:	112fff1e 	bxne	lr
    ae48:	e92d4070 	push	{r4, r5, r6, lr}
    ae4c:	e1a05001 	mov	r5, r1
    ae50:	e59f3044 	ldr	r3, [pc, #68]	; ae9c <gpio_set_function+0x64>
    ae54:	e0832093 	umull	r2, r3, r3, r0
    ae58:	e1a031a3 	lsr	r3, r3, #3
    ae5c:	e1a06003 	mov	r6, r3
    ae60:	e0833103 	add	r3, r3, r3, lsl #2
    ae64:	e1a02083 	lsl	r2, r3, #1
    ae68:	e0403002 	sub	r3, r0, r2
    ae6c:	e0834083 	add	r4, r3, r3, lsl #1
    ae70:	e2866302 	add	r6, r6, #134217728	; 0x8000000
    ae74:	e2866702 	add	r6, r6, #524288	; 0x80000
    ae78:	e1a06106 	lsl	r6, r6, #2
    ae7c:	e1a00006 	mov	r0, r6
    ae80:	ebffff89 	bl	acac <GET32>
    ae84:	e3a01007 	mov	r1, #7
    ae88:	e1c01411 	bic	r1, r0, r1, lsl r4
    ae8c:	e1811415 	orr	r1, r1, r5, lsl r4
    ae90:	e1a00006 	mov	r0, r6
    ae94:	ebffff78 	bl	ac7c <PUT32>
    ae98:	e8bd8070 	pop	{r4, r5, r6, pc}
    ae9c:	cccccccd 	stclgt	12, cr12, [ip], {205}	; 0xcd

0000aea0 <gpio_set_output>:
    aea0:	e92d4010 	push	{r4, lr}
    aea4:	e3a01001 	mov	r1, #1
    aea8:	ebffffe2 	bl	ae38 <gpio_set_function>
    aeac:	e8bd8010 	pop	{r4, pc}

0000aeb0 <gpio_set_on>:
    aeb0:	e350001f 	cmp	r0, #31
    aeb4:	812fff1e 	bxhi	lr
    aeb8:	e92d4010 	push	{r4, lr}
    aebc:	e3a01001 	mov	r1, #1
    aec0:	e1a01011 	lsl	r1, r1, r0
    aec4:	e59f0004 	ldr	r0, [pc, #4]	; aed0 <gpio_set_on+0x20>
    aec8:	ebffff6b 	bl	ac7c <PUT32>
    aecc:	e8bd8010 	pop	{r4, pc}
    aed0:	2020001c 	eorcs	r0, r0, ip, lsl r0

0000aed4 <gpio_set_off>:
    aed4:	e350001f 	cmp	r0, #31
    aed8:	812fff1e 	bxhi	lr
    aedc:	e92d4010 	push	{r4, lr}
    aee0:	e3a01001 	mov	r1, #1
    aee4:	e1a01011 	lsl	r1, r1, r0
    aee8:	e59f0004 	ldr	r0, [pc, #4]	; aef4 <gpio_set_off+0x20>
    aeec:	ebffff62 	bl	ac7c <PUT32>
    aef0:	e8bd8010 	pop	{r4, pc}
    aef4:	20200028 	eorcs	r0, r0, r8, lsr #32

0000aef8 <gpio_set_input>:
    aef8:	e92d4010 	push	{r4, lr}
    aefc:	e3a01000 	mov	r1, #0
    af00:	ebffffcc 	bl	ae38 <gpio_set_function>
    af04:	e8bd8010 	pop	{r4, pc}

0000af08 <gpio_write>:
    af08:	e92d4010 	push	{r4, lr}
    af0c:	e3510000 	cmp	r1, #0
    af10:	1a000001 	bne	af1c <gpio_write+0x14>
    af14:	ebffffee 	bl	aed4 <gpio_set_off>
    af18:	e8bd8010 	pop	{r4, pc}
    af1c:	ebffffe3 	bl	aeb0 <gpio_set_on>
    af20:	e8bd8010 	pop	{r4, pc}

0000af24 <gpio_read>:
    af24:	e350001f 	cmp	r0, #31
    af28:	8a000007 	bhi	af4c <gpio_read+0x28>
    af2c:	e92d4010 	push	{r4, lr}
    af30:	e200401f 	and	r4, r0, #31
    af34:	e59f3018 	ldr	r3, [pc, #24]	; af54 <gpio_read+0x30>
    af38:	e08302a0 	add	r0, r3, r0, lsr #5
    af3c:	ebffff5a 	bl	acac <GET32>
    af40:	e1a00430 	lsr	r0, r0, r4
    af44:	e2000001 	and	r0, r0, #1
    af48:	e8bd8010 	pop	{r4, pc}
    af4c:	e3e00000 	mvn	r0, #0
    af50:	e12fff1e 	bx	lr
    af54:	20200034 	eorcs	r0, r0, r4, lsr r0

0000af58 <kmalloc_heap_end>:
    af58:	e59f3004 	ldr	r3, [pc, #4]	; af64 <kmalloc_heap_end+0xc>
    af5c:	e5930000 	ldr	r0, [r3]
    af60:	e12fff1e 	bx	lr
    af64:	0000b138 	andeq	fp, r0, r8, lsr r1

0000af68 <kmalloc_heap_start>:
    af68:	e59f0000 	ldr	r0, [pc]	; af70 <kmalloc_heap_start+0x8>
    af6c:	e12fff1e 	bx	lr
    af70:	0000c7e0 	andeq	ip, r0, r0, ror #15

0000af74 <kmalloc_init_set_start>:
    af74:	e59f3044 	ldr	r3, [pc, #68]	; afc0 <kmalloc_init_set_start+0x4c>
    af78:	e5933000 	ldr	r3, [r3]
    af7c:	e1500003 	cmp	r0, r3
    af80:	9a000003 	bls	af94 <kmalloc_init_set_start+0x20>
    af84:	e59f3034 	ldr	r3, [pc, #52]	; afc0 <kmalloc_init_set_start+0x4c>
    af88:	e5830000 	str	r0, [r3]
    af8c:	e5830004 	str	r0, [r3, #4]
    af90:	e12fff1e 	bx	lr
    af94:	e52de004 	push	{lr}		; (str lr, [sp, #-4]!)
    af98:	e24dd00c 	sub	sp, sp, #12
    af9c:	ebfffcfc 	bl	a394 <rpi_reset_putc>
    afa0:	e59f301c 	ldr	r3, [pc, #28]	; afc4 <kmalloc_init_set_start+0x50>
    afa4:	e58d3000 	str	r3, [sp]
    afa8:	e3a03016 	mov	r3, #22
    afac:	e59f2014 	ldr	r2, [pc, #20]	; afc8 <kmalloc_init_set_start+0x54>
    afb0:	e59f1014 	ldr	r1, [pc, #20]	; afcc <kmalloc_init_set_start+0x58>
    afb4:	e59f0014 	ldr	r0, [pc, #20]	; afd0 <kmalloc_init_set_start+0x5c>
    afb8:	ebfffcda 	bl	a328 <printk>
    afbc:	ebfffe69 	bl	a968 <clean_reboot>
    afc0:	0000b138 	andeq	fp, r0, r8, lsr r1
    afc4:	0000c2fc 	strdeq	ip, [r0], -ip	; <UNPREDICTABLE>
    afc8:	0000c2c0 	andeq	ip, r0, r0, asr #5
    afcc:	0000c2f0 	strdeq	ip, [r0], -r0
    afd0:	0000b140 	andeq	fp, r0, r0, asr #2

0000afd4 <kmalloc>:
    afd4:	e92d4010 	push	{r4, lr}
    afd8:	e24dd008 	sub	sp, sp, #8
    afdc:	e3500000 	cmp	r0, #0
    afe0:	0a00000b 	beq	b014 <kmalloc+0x40>
    afe4:	e2802007 	add	r2, r0, #7
    afe8:	e3c22007 	bic	r2, r2, #7
    afec:	e59f3044 	ldr	r3, [pc, #68]	; b038 <kmalloc+0x64>
    aff0:	e5934000 	ldr	r4, [r3]
    aff4:	e0841002 	add	r1, r4, r2
    aff8:	e5831000 	str	r1, [r3]
    affc:	e3a01000 	mov	r1, #0
    b000:	e1a00004 	mov	r0, r4
    b004:	ebfffcbf 	bl	a308 <memset>
    b008:	e1a00004 	mov	r0, r4
    b00c:	e28dd008 	add	sp, sp, #8
    b010:	e8bd8010 	pop	{r4, pc}
    b014:	ebfffcde 	bl	a394 <rpi_reset_putc>
    b018:	e59f301c 	ldr	r3, [pc, #28]	; b03c <kmalloc+0x68>
    b01c:	e58d3000 	str	r3, [sp]
    b020:	e3a0301b 	mov	r3, #27
    b024:	e59f2014 	ldr	r2, [pc, #20]	; b040 <kmalloc+0x6c>
    b028:	e59f1014 	ldr	r1, [pc, #20]	; b044 <kmalloc+0x70>
    b02c:	e59f0014 	ldr	r0, [pc, #20]	; b048 <kmalloc+0x74>
    b030:	ebfffcbc 	bl	a328 <printk>
    b034:	ebfffe4b 	bl	a968 <clean_reboot>
    b038:	0000b138 	andeq	fp, r0, r8, lsr r1
    b03c:	0000c308 	andeq	ip, r0, r8, lsl #6
    b040:	0000c2d8 	ldrdeq	ip, [r0], -r8
    b044:	0000c2f0 	strdeq	ip, [r0], -r0
    b048:	0000b140 	andeq	fp, r0, r0, asr #2

0000b04c <kmalloc_init>:
    b04c:	e12fff1e 	bx	lr

0000b050 <kmalloc_heap_ptr>:
    b050:	e92d4010 	push	{r4, lr}
    b054:	ebffffc3 	bl	af68 <kmalloc_heap_start>
    b058:	e8bd8010 	pop	{r4, pc}

0000b05c <kmalloc_aligned>:
    b05c:	e52de004 	push	{lr}		; (str lr, [sp, #-4]!)
    b060:	e24dd00c 	sub	sp, sp, #12
    b064:	e2613000 	rsb	r3, r1, #0
    b068:	e1d12003 	bics	r2, r1, r3
    b06c:	1a00000c 	bne	b0a4 <kmalloc_aligned+0x48>
    b070:	e59f2074 	ldr	r2, [pc, #116]	; b0ec <kmalloc_aligned+0x90>
    b074:	e5922000 	ldr	r2, [r2]
    b078:	e0812002 	add	r2, r1, r2
    b07c:	e2422001 	sub	r2, r2, #1
    b080:	e0033002 	and	r3, r3, r2
    b084:	e2411001 	sub	r1, r1, #1
    b088:	e1130001 	tst	r3, r1
    b08c:	1a00000d 	bne	b0c8 <kmalloc_aligned+0x6c>
    b090:	e59f2054 	ldr	r2, [pc, #84]	; b0ec <kmalloc_aligned+0x90>
    b094:	e5823000 	str	r3, [r2]
    b098:	ebffffcd 	bl	afd4 <kmalloc>
    b09c:	e28dd00c 	add	sp, sp, #12
    b0a0:	e49df004 	pop	{pc}		; (ldr pc, [sp], #4)
    b0a4:	ebfffcba 	bl	a394 <rpi_reset_putc>
    b0a8:	e59f3040 	ldr	r3, [pc, #64]	; b0f0 <kmalloc_aligned+0x94>
    b0ac:	e58d3000 	str	r3, [sp]
    b0b0:	e3a0302a 	mov	r3, #42	; 0x2a
    b0b4:	e59f2038 	ldr	r2, [pc, #56]	; b0f4 <kmalloc_aligned+0x98>
    b0b8:	e59f1038 	ldr	r1, [pc, #56]	; b0f8 <kmalloc_aligned+0x9c>
    b0bc:	e59f0038 	ldr	r0, [pc, #56]	; b0fc <kmalloc_aligned+0xa0>
    b0c0:	ebfffc98 	bl	a328 <printk>
    b0c4:	ebfffe27 	bl	a968 <clean_reboot>
    b0c8:	ebfffcb1 	bl	a394 <rpi_reset_putc>
    b0cc:	e59f302c 	ldr	r3, [pc, #44]	; b100 <kmalloc_aligned+0xa4>
    b0d0:	e58d3000 	str	r3, [sp]
    b0d4:	e3a03030 	mov	r3, #48	; 0x30
    b0d8:	e59f2014 	ldr	r2, [pc, #20]	; b0f4 <kmalloc_aligned+0x98>
    b0dc:	e59f1014 	ldr	r1, [pc, #20]	; b0f8 <kmalloc_aligned+0x9c>
    b0e0:	e59f001c 	ldr	r0, [pc, #28]	; b104 <kmalloc_aligned+0xa8>
    b0e4:	ebfffc8f 	bl	a328 <printk>
    b0e8:	ebfffe1e 	bl	a968 <clean_reboot>
    b0ec:	0000b138 	andeq	fp, r0, r8, lsr r1
    b0f0:	0000c340 	andeq	ip, r0, r0, asr #6
    b0f4:	0000c2e0 	andeq	ip, r0, r0, ror #5
    b0f8:	0000c2f0 	strdeq	ip, [r0], -r0
    b0fc:	0000c30c 	andeq	ip, r0, ip, lsl #6
    b100:	0000c398 	muleq	r0, r8, r3
    b104:	0000c36c 	andeq	ip, r0, ip, ror #6

0000b108 <kfree>:
    b108:	e12fff1e 	bx	lr

0000b10c <kfree_all>:
    b10c:	e59f3008 	ldr	r3, [pc, #8]	; b11c <kfree_all+0x10>
    b110:	e5932004 	ldr	r2, [r3, #4]
    b114:	e5832000 	str	r2, [r3]
    b118:	e12fff1e 	bx	lr
    b11c:	0000b138 	andeq	fp, r0, r8, lsr r1

0000b120 <kfree_after>:
    b120:	e59f3004 	ldr	r3, [pc, #4]	; b12c <kfree_after+0xc>
    b124:	e5830000 	str	r0, [r3]
    b128:	e12fff1e 	bx	lr
    b12c:	0000b138 	andeq	fp, r0, r8, lsr r1

Disassembly of section .data:

0000b130 <__data_start__>:
    b130:	0000a380 	andeq	sl, r0, r0, lsl #7

0000b134 <putk>:
    b134:	0000a3bc 			; <UNDEFINED> instruction: 0x0000a3bc

0000b138 <heap>:
    b138:	0000c7e0 	andeq	ip, r0, r0, ror #15

0000b13c <heap_start>:
    b13c:	0000c7e0 	andeq	ip, r0, r0, ror #15

Disassembly of section .rodata:

0000b140 <__FUNCTION__.4521-0x5c>:
    b140:	494e4150 	stmdbmi	lr, {r4, r6, r8, lr}^
    b144:	73253a43 	teqvc	r5, #274432	; 0x43000
    b148:	3a73253a 	bcc	1cd4638 <__bss_end__+0x1cc7e58>
    b14c:	253a6425 	ldrcs	r6, [sl, #-1061]!	; 0x425
    b150:	00000a73 	andeq	r0, r0, r3, ror sl
    b154:	74736574 	ldrbtvc	r6, [r3], #-1396	; 0x574
    b158:	65742f73 	ldrbvs	r2, [r4, #-3955]!	; 0xf73
    b15c:	2e307473 	mrccs	4, 1, r7, cr0, cr3, {3}
    b160:	00000063 	andeq	r0, r0, r3, rrx
    b164:	756d6d21 	strbvc	r6, [sp, #-3361]!	; 0xd21
    b168:	5f73695f 	svcpl	0x0073695f
    b16c:	62616e65 	rsbvs	r6, r1, #1616	; 0x650
    b170:	2864656c 	stmdacs	r4!, {r2, r3, r5, r6, r8, sl, sp, lr}^
    b174:	00000029 	andeq	r0, r0, r9, lsr #32
    b178:	3d3d2078 	ldccc	0, cr2, [sp, #-480]!	; 0xfffffe20
    b17c:	31783020 	cmncc	r8, r0, lsr #32
    b180:	35343332 	ldrcc	r3, [r4, #-818]!	; 0x332
    b184:	00383736 	eorseq	r3, r8, r6, lsr r7
    b188:	43415254 	movtmi	r5, #4692	; 0x1254
    b18c:	00003a45 	andeq	r3, r0, r5, asr #20
    b190:	63637573 	cmnvs	r3, #482344960	; 0x1cc00000
    b194:	21737365 	cmncs	r3, r5, ror #6
    b198:	00000a21 	andeq	r0, r0, r1, lsr #20

0000b19c <__FUNCTION__.4521>:
    b19c:	6d746f6e 	ldclvs	15, cr6, [r4, #-440]!	; 0xfffffe48
    b1a0:	006e6961 	rsbeq	r6, lr, r1, ror #18

0000b1a4 <OneMB>:
    b1a4:	00100000 	andseq	r0, r0, r0

0000b1a8 <__FUNCTION__.4417>:
    b1a8:	5f756d6d 	svcpl	0x00756d6d
    b1ac:	6b6f6f6c 	blvs	1be6f64 <__bss_end__+0x1bda784>
    b1b0:	735f7075 	cmpvc	pc, #117	; 0x75
    b1b4:	69746365 	ldmdbvs	r4!, {r0, r2, r5, r6, r8, r9, sp, lr}^
    b1b8:	00006e6f 	andeq	r6, r0, pc, ror #28

0000b1bc <__FUNCTION__.4426>:
    b1bc:	5f756d6d 	svcpl	0x00756d6d
    b1c0:	6b72616d 	blvs	1ca377c <__bss_end__+0x1c96f9c>
    b1c4:	6365735f 	cmnvs	r5, #2080374785	; 0x7c000001
    b1c8:	5f70615f 	svcpl	0x0070615f
    b1cc:	6d726570 	cfldr64vs	mvdx6, [r2, #-448]!	; 0xfffffe40
    b1d0:	00000000 	andeq	r0, r0, r0

0000b1d4 <__FUNCTION__.4458>:
    b1d4:	5f756d6d 	svcpl	0x00756d6d
    b1d8:	5f70616d 	svcpl	0x0070616d
    b1dc:	74636573 	strbtvc	r6, [r3], #-1395	; 0x573
    b1e0:	006e6f69 	rsbeq	r6, lr, r9, ror #30

0000b1e4 <__FUNCTION__.4451>:
    b1e4:	5f646c66 	svcpl	0x00646c66
    b1e8:	5f746573 	svcpl	0x00746573
    b1ec:	65736162 	ldrbvs	r6, [r3, #-354]!	; 0x162
    b1f0:	6464615f 	strbtvs	r6, [r4], #-351	; 0x15f
    b1f4:	00000072 	andeq	r0, r0, r2, ror r0

0000b1f8 <__FUNCTION__.4468>:
    b1f8:	5f756d6d 	svcpl	0x00756d6d
    b1fc:	5f70616d 	svcpl	0x0070616d
    b200:	74636573 	strbtvc	r6, [r3], #-1395	; 0x573
    b204:	736e6f69 	cmnvc	lr, #420	; 0x1a4
    b208:	00000000 	andeq	r0, r0, r0

0000b20c <__FUNCTION__.4477>:
    b20c:	5f756d6d 	svcpl	0x00756d6d
    b210:	615f7470 	cmpvs	pc, r0, ror r4	; <UNPREDICTABLE>
    b214:	636f6c6c 	cmnvs	pc, #108, 24	; 0x6c00
    b218:	0074615f 	rsbseq	r6, r4, pc, asr r1

0000b21c <__FUNCTION__.4483>:
    b21c:	5f756d6d 	svcpl	0x00756d6d
    b220:	615f7470 	cmpvs	pc, r0, ror r4	; <UNPREDICTABLE>
    b224:	636f6c6c 	cmnvs	pc, #108, 24	; 0x6c00
    b228:	00000000 	andeq	r0, r0, r0

0000b22c <__FUNCTION__.4490>:
    b22c:	5f756d6d 	svcpl	0x00756d6d
    b230:	74696e69 	strbtvc	r6, [r9], #-3689	; 0xe69
    b234:	00000000 	andeq	r0, r0, r0

0000b238 <__FUNCTION__.4497>:
    b238:	5f756d6d 	svcpl	0x00756d6d
    b23c:	61736964 	cmnvs	r3, r4, ror #18
    b240:	5f656c62 	svcpl	0x00656c62
    b244:	00746573 	rsbseq	r6, r4, r3, ror r5

0000b248 <__FUNCTION__.4502>:
    b248:	5f756d6d 	svcpl	0x00756d6d
    b24c:	61736964 	cmnvs	r3, r4, ror #18
    b250:	00656c62 	rsbeq	r6, r5, r2, ror #24

0000b254 <__FUNCTION__.4506>:
    b254:	5f756d6d 	svcpl	0x00756d6d
    b258:	62616e65 	rsbvs	r6, r1, #1616	; 0x650
    b25c:	735f656c 	cmpvc	pc, #108, 10	; 0x1b000000
    b260:	00007465 	andeq	r7, r0, r5, ror #8

0000b264 <__FUNCTION__.4511>:
    b264:	5f756d6d 	svcpl	0x00756d6d
    b268:	62616e65 	rsbvs	r6, r1, #1616	; 0x650
    b26c:	0000656c 	andeq	r6, r0, ip, ror #10

0000b270 <__FUNCTION__.4524>:
    b270:	5f746573 	svcpl	0x00746573
    b274:	636f7270 	cmnvs	pc, #112, 4
    b278:	745f6469 	ldrbvc	r6, [pc], #-1129	; b280 <__FUNCTION__.4524+0x10>
    b27c:	30726274 	rsbscc	r6, r2, r4, ror r2
    b280:	00000000 	andeq	r0, r0, r0

0000b284 <__FUNCTION__.4528>:
    b284:	5f6d7361 	svcpl	0x006d7361
    b288:	5f746f6e 	svcpl	0x00746f6e
    b28c:	6c706d69 	ldclvs	13, cr6, [r0], #-420	; 0xfffffe5c
    b290:	6e656d65 	cdpvs	13, 6, cr6, cr5, cr5, {3}
    b294:	00646574 	rsbeq	r6, r4, r4, ror r5
    b298:	2e756d6d 	cdpcs	13, 7, cr6, cr5, cr13, {3}
    b29c:	00000063 	andeq	r0, r0, r3, rrx
    b2a0:	615f7369 	cmpvs	pc, r9, ror #6
    b2a4:	6e67696c 	cdpvs	9, 6, cr6, cr7, cr12, {3}
    b2a8:	76286465 	strtvc	r6, [r8], -r5, ror #8
    b2ac:	32202c61 	eorcc	r2, r0, #24832	; 0x6100
    b2b0:	00002930 	andeq	r2, r0, r0, lsr r9
    b2b4:	4f525245 	svcmi	0x00525245
    b2b8:	73253a52 	teqvc	r5, #335872	; 0x52000
    b2bc:	3a73253a 	bcc	1cd47ac <__bss_end__+0x1cc7fcc>
    b2c0:	203a6425 	eorscs	r6, sl, r5, lsr #8
    b2c4:	534c4146 	movtpl	r4, #49478	; 0xc146
    b2c8:	253c2845 	ldrcs	r2, [ip, #-2117]!	; 0x845
    b2cc:	3a293e73 	bcc	a5aca0 <__bss_end__+0xa4e4c0>
    b2d0:	766e6920 	strbtvc	r6, [lr], -r0, lsr #18
    b2d4:	64696c61 	strbtvs	r6, [r9], #-3169	; 0xc61
    b2d8:	63657320 	cmnvs	r5, #32, 6	; 0x80000000
    b2dc:	6e6f6974 	mcrvs	9, 3, r6, cr15, cr4, {3}
    b2e0:	0000000a 	andeq	r0, r0, sl
    b2e4:	2d657470 	cfstrdcs	mvd7, [r5, #-448]!	; 0xfffffe40
    b2e8:	6761743e 			; <UNDEFINED> instruction: 0x6761743e
    b2ec:	00000000 	andeq	r0, r0, r0
    b2f0:	4f525245 	svcmi	0x00525245
    b2f4:	73253a52 	teqvc	r5, #335872	; 0x52000
    b2f8:	3a73253a 	bcc	1cd47e8 <__bss_end__+0x1cc8008>
    b2fc:	203a6425 	eorscs	r6, sl, r5, lsr #8
    b300:	534c4146 	movtpl	r4, #49478	; 0xc146
    b304:	253c2845 	ldrcs	r2, [ip, #-2117]!	; 0x845
    b308:	3a293e73 	bcc	a5acdc <__bss_end__+0xa4e4fc>
    b30c:	766e6920 	strbtvc	r6, [lr], -r0, lsr #18
    b310:	64696c61 	strbtvs	r6, [r9], #-3169	; 0xc61
    b314:	72657020 	rsbvc	r7, r5, #32
    b318:	7373696d 	cmnvc	r3, #1785856	; 0x1b4000
    b31c:	0a6e6f69 	beq	1ba70c8 <__bss_end__+0x1b9a8e8>
    b320:	00000000 	andeq	r0, r0, r0
    b324:	6d726570 	cfldr64vs	mvdx6, [r2, #-448]!	; 0xfffffe40
    b328:	203d3c20 	eorscs	r3, sp, r0, lsr #24
    b32c:	31316230 	teqcc	r1, r0, lsr r2
    b330:	00000000 	andeq	r0, r0, r0
    b334:	4f525245 	svcmi	0x00525245
    b338:	73253a52 	teqvc	r5, #335872	; 0x52000
    b33c:	3a73253a 	bcc	1cd482c <__bss_end__+0x1cc804c>
    b340:	203a6425 	eorscs	r6, sl, r5, lsr #8
    b344:	534c4146 	movtpl	r4, #49478	; 0xc146
    b348:	253c2845 	ldrcs	r2, [ip, #-2117]!	; 0x845
    b34c:	3a293e73 	bcc	a5ad20 <__bss_end__+0xa4e540>
    b350:	64646120 	strbtvs	r6, [r4], #-288	; 0x120
    b354:	73692072 	cmnvc	r9, #114	; 0x72
    b358:	746f6e20 	strbtvc	r6, [pc], #-3616	; b360 <__FUNCTION__.4528+0xdc>
    b35c:	696c6120 	stmdbvs	ip!, {r5, r8, sp, lr}^
    b360:	64656e67 	strbtvs	r6, [r5], #-3687	; 0xe67
    b364:	00000a21 	andeq	r0, r0, r1, lsr #20
    b368:	61282828 	teqvs	r8, r8, lsr #16
    b36c:	29726464 	ldmdbcs	r2!, {r2, r5, r6, sl, sp, lr}^
    b370:	28202620 	stmdacs	r0!, {r5, r9, sl, sp}
    b374:	70797428 	rsbsvc	r7, r9, r8, lsr #8
    b378:	28666f65 	stmdacs	r6!, {r0, r2, r5, r6, r8, r9, sl, fp, sp, lr}^
    b37c:	72646461 	rsbvc	r6, r4, #1627389952	; 0x61000000
    b380:	32282929 	eorcc	r2, r8, #671744	; 0xa4000
    b384:	2d202930 	stccs	9, cr2, [r0, #-192]!	; 0xffffff40
    b388:	29293120 	stmdbcs	r9!, {r5, r8, ip, sp}
    b38c:	203d3d20 	eorscs	r3, sp, r0, lsr #26
    b390:	00002930 	andeq	r2, r0, r0, lsr r9
    b394:	3e2d6628 	cfmadda32cc	mvax1, mvax6, mvfx13, mvfx8
    b398:	5f636573 	svcpl	0x00636573
    b39c:	65736162 	ldrbvs	r6, [r3, #-354]!	; 0x162
    b3a0:	6464615f 	strbtvs	r6, [r4], #-351	; 0x15f
    b3a4:	3c3c2072 	ldccc	0, cr2, [ip], #-456	; 0xfffffe38
    b3a8:	29303220 	ldmdbcs	r0!, {r5, r9, ip, sp}
    b3ac:	203d3d20 	eorscs	r3, sp, r0, lsr #26
    b3b0:	72646461 	rsbvc	r6, r4, #1627389952	; 0x61000000
    b3b4:	00000000 	andeq	r0, r0, r0
    b3b8:	206d6f64 	rsbcs	r6, sp, r4, ror #30
    b3bc:	3631203c 			; <UNDEFINED> instruction: 0x3631203c
    b3c0:	00000000 	andeq	r0, r0, r0
    b3c4:	615f7369 	cmpvs	pc, r9, ror #6
    b3c8:	6e67696c 	cdpvs	9, 6, cr6, cr7, cr12, {3}
    b3cc:	70286465 	eorvc	r6, r8, r5, ror #8
    b3d0:	32202c61 	eorcc	r2, r0, #24832	; 0x6100
    b3d4:	00002930 	andeq	r2, r0, r0, lsr r9
    b3d8:	4f525245 	svcmi	0x00525245
    b3dc:	73253a52 	teqvc	r5, #335872	; 0x52000
    b3e0:	3a73253a 	bcc	1cd48d0 <__bss_end__+0x1cc80f0>
    b3e4:	203a6425 	eorscs	r6, sl, r5, lsr #8
    b3e8:	534c4146 	movtpl	r4, #49478	; 0xc146
    b3ec:	253c2845 	ldrcs	r2, [ip, #-2117]!	; 0x845
    b3f0:	3a293e73 	bcc	a5adc4 <__bss_end__+0xa4e5e4>
    b3f4:	726c6120 	rsbvc	r6, ip, #32, 2
    b3f8:	79646165 	stmdbvc	r4!, {r0, r2, r5, r6, r8, sp, lr}^
    b3fc:	74657320 	strbtvc	r7, [r5], #-800	; 0x320
    b400:	0000000a 	andeq	r0, r0, sl
    b404:	65747021 	ldrbvs	r7, [r4, #-33]!	; 0x21
    b408:	61743e2d 	cmnvs	r4, sp, lsr #28
    b40c:	00000067 	andeq	r0, r0, r7, rrx
    b410:	702e796d 	eorvc	r7, lr, sp, ror #18
    b414:	20406574 	subcs	r6, r0, r4, ror r5
    b418:	78257830 	stmdavc	r5!, {r4, r5, fp, ip, sp, lr}
    b41c:	25203d20 	strcs	r3, [r0, #-3360]!	; 0xd20
    b420:	00000a62 	andeq	r0, r0, r2, ror #20
    b424:	20455450 	subcs	r5, r5, r0, asr r4
    b428:	3a637263 	bcc	18e7dbc <__bss_end__+0x18db5dc>
    b42c:	00000000 	andeq	r0, r0, r0
    b430:	4f525245 	svcmi	0x00525245
    b434:	73253a52 	teqvc	r5, #335872	; 0x52000
    b438:	3a73253a 	bcc	1cd4928 <__bss_end__+0x1cc8148>
    b43c:	203a6425 	eorscs	r6, sl, r5, lsr #8
    b440:	534c4146 	movtpl	r4, #49478	; 0xc146
    b444:	253c2845 	ldrcs	r2, [ip, #-2117]!	; 0x845
    b448:	3a293e73 	bcc	a5ae1c <__bss_end__+0xa4e63c>
    b44c:	73756d20 	cmnvc	r5, #32, 26	; 0x800
    b450:	65622074 	strbvs	r2, [r2, #-116]!	; 0x74
    b454:	2d343120 	ldfcss	f3, [r4, #-128]!	; 0xffffff80
    b458:	20746962 	rsbscs	r6, r4, r2, ror #18
    b45c:	67696c61 	strbvs	r6, [r9, -r1, ror #24]!
    b460:	2164656e 	cmncs	r4, lr, ror #10
    b464:	0000000a 	andeq	r0, r0, sl
    b468:	28282828 	stmdacs	r8!, {r3, r5, fp, sp}
    b46c:	746e6975 	strbtvc	r6, [lr], #-2421	; 0x975
    b470:	745f3233 	ldrbvc	r3, [pc], #-563	; b478 <__FUNCTION__.4528+0x1f4>
    b474:	64646129 	strbtvs	r6, [r4], #-297	; 0x129
    b478:	26202972 			; <UNDEFINED> instruction: 0x26202972
    b47c:	74282820 	strtvc	r2, [r8], #-2080	; 0x820
    b480:	6f657079 	svcvs	0x00657079
    b484:	75282866 	strvc	r2, [r8, #-2150]!	; 0x866
    b488:	33746e69 	cmncc	r4, #1680	; 0x690
    b48c:	29745f32 	ldmdbcs	r4!, {r1, r4, r5, r8, r9, sl, fp, ip, lr}^
    b490:	72646461 	rsbvc	r6, r4, #1627389952	; 0x61000000
    b494:	31282929 	teqcc	r8, r9, lsr #18
    b498:	2d202934 	stccs	9, cr2, [r0, #-208]!	; 0xffffff30
    b49c:	29293120 	stmdbcs	r9!, {r5, r8, ip, sp}
    b4a0:	203d3d20 	eorscs	r3, sp, r0, lsr #26
    b4a4:	00002930 	andeq	r2, r0, r0, lsr r9
    b4a8:	4f525245 	svcmi	0x00525245
    b4ac:	73253a52 	teqvc	r5, #335872	; 0x52000
    b4b0:	3a73253a 	bcc	1cd49a0 <__bss_end__+0x1cc81c0>
    b4b4:	203a6425 	eorscs	r6, sl, r5, lsr #8
    b4b8:	534c4146 	movtpl	r4, #49478	; 0xc146
    b4bc:	253c2845 	ldrcs	r2, [ip, #-2117]!	; 0x845
    b4c0:	3a293e73 	bcc	a5ae94 <__bss_end__+0xa4e6b4>
    b4c4:	6c6e6f20 	stclvs	15, cr6, [lr], #-128	; 0xffffff80
    b4c8:	61682079 	smcvs	33289	; 0x8209
    b4cc:	6e69646e 	cdpvs	4, 6, cr6, cr9, cr14, {3}
    b4d0:	75662067 	strbvc	r2, [r6, #-103]!	; 0x67
    b4d4:	61206c6c 	teqvs	r0, ip, ror #24
    b4d8:	636f6c6c 	cmnvs	pc, #108, 24	; 0x6c00
    b4dc:	6f697461 	svcvs	0x00697461
    b4e0:	00000a6e 	andeq	r0, r0, lr, ror #20
    b4e4:	7479626e 	ldrbtvc	r6, [r9], #-622	; 0x26e
    b4e8:	3d207365 	stccc	3, cr7, [r0, #-404]!	; 0xfffffe6c
    b4ec:	006e203d 	rsbeq	r2, lr, sp, lsr r0
    b4f0:	4f525245 	svcmi	0x00525245
    b4f4:	73253a52 	teqvc	r5, #335872	; 0x52000
    b4f8:	3a73253a 	bcc	1cd49e8 <__bss_end__+0x1cc8208>
    b4fc:	203a6425 	eorscs	r6, sl, r5, lsr #8
    b500:	534c4146 	movtpl	r4, #49478	; 0xc146
    b504:	253c2845 	ldrcs	r2, [ip, #-2117]!	; 0x845
    b508:	3a293e73 	bcc	a5aedc <__bss_end__+0xa4e6fc>
    b50c:	20657720 	rsbcs	r7, r5, r0, lsr #14
    b510:	796c6e6f 	stmdbvc	ip!, {r0, r1, r2, r3, r5, r6, r9, sl, fp, sp, lr}^
    b514:	6e616820 	cdpvs	8, 6, cr6, cr1, cr0, {1}
    b518:	6e696c64 	cdpvs	12, 6, cr6, cr9, cr4, {3}
    b51c:	20612067 	rsbcs	r2, r1, r7, rrx
    b520:	6c6c7566 	cfstr64vs	mvdx7, [ip], #-408	; 0xfffffe68
    b524:	6f702d79 	svcvs	0x00702d79
    b528:	616c7570 	smcvs	51024	; 0xc750
    b52c:	20646574 	rsbcs	r6, r4, r4, ror r5
    b530:	65676170 	strbvs	r6, [r7, #-368]!	; 0x170
    b534:	62617420 	rsbvs	r7, r1, #32, 8	; 0x20000000
    b538:	7220656c 	eorvc	r6, r0, #108, 10	; 0x1b000000
    b53c:	74686769 	strbtvc	r6, [r8], #-1897	; 0x769
    b540:	776f6e20 	strbvc	r6, [pc, -r0, lsr #28]!
    b544:	0000000a 	andeq	r0, r0, sl
    b548:	3d3d206e 	ldccc	0, cr2, [sp, #-440]!	; 0xfffffe48
    b54c:	39303420 	ldmdbcc	r0!, {r5, sl, ip, sp}
    b550:	00000036 	andeq	r0, r0, r6, lsr r0
    b554:	28282828 	stmdacs	r8!, {r3, r5, fp, sp}
    b558:	746e6975 	strbtvc	r6, [lr], #-2421	; 0x975
    b55c:	745f3233 	ldrbvc	r3, [pc], #-563	; b564 <__FUNCTION__.4528+0x2e0>
    b560:	29747029 	ldmdbcs	r4!, {r0, r3, r5, ip, sp, lr}^
    b564:	28202620 	stmdacs	r0!, {r5, r9, sl, sp}
    b568:	70797428 	rsbsvc	r7, r9, r8, lsr #8
    b56c:	28666f65 	stmdacs	r6!, {r0, r2, r5, r6, r8, r9, sl, fp, sp, lr}^
    b570:	6e697528 	cdpvs	5, 6, cr7, cr9, cr8, {1}
    b574:	5f323374 	svcpl	0x00323374
    b578:	74702974 	ldrbtvc	r2, [r0], #-2420	; 0x974
    b57c:	31282929 	teqcc	r8, r9, lsr #18
    b580:	2d202934 	stccs	9, cr2, [r0, #-208]!	; 0xffffff30
    b584:	29293120 	stmdbcs	r9!, {r5, r8, ip, sp}
    b588:	203d3d20 	eorscs	r3, sp, r0, lsr #26
    b58c:	00002930 	andeq	r2, r0, r0, lsr r9
    b590:	582e3163 	stmdapl	lr!, {r0, r1, r5, r6, r8, ip, sp}
    b594:	74705f50 	ldrbtvc	r5, [r0], #-3920	; 0xf50
    b598:	00000000 	andeq	r0, r0, r0
    b59c:	2e316321 	cdpcs	3, 3, cr6, cr1, cr1, {1}
    b5a0:	5f554d4d 	svcpl	0x00554d4d
    b5a4:	62616e65 	rsbvs	r6, r1, #1616	; 0x650
    b5a8:	0064656c 	rsbeq	r6, r4, ip, ror #10
    b5ac:	4d2e6321 	stcmi	3, cr6, [lr, #-132]!	; 0xffffff7c
    b5b0:	655f554d 	ldrbvs	r5, [pc, #-1357]	; b06b <kmalloc_aligned+0xf>
    b5b4:	6c62616e 	stfvse	f6, [r2], #-440	; 0xfffffe48
    b5b8:	00006465 	andeq	r6, r0, r5, ror #8
    b5bc:	432e6321 	teqmi	lr, #-2080374784	; 0x84000000
    b5c0:	696e755f 	stmdbvs	lr!, {r0, r1, r2, r3, r4, r6, r8, sl, ip, sp, lr}^
    b5c4:	64656966 	strbtvs	r6, [r5], #-2406	; 0x966
    b5c8:	616e655f 	cmnvs	lr, pc, asr r5
    b5cc:	00656c62 	rsbeq	r6, r5, r2, ror #24
    b5d0:	4d4d2e63 	stclmi	14, cr2, [sp, #-396]	; 0xfffffe74
    b5d4:	6e655f55 	mcrvs	15, 3, r5, cr5, cr5, {2}
    b5d8:	656c6261 	strbvs	r6, [ip, #-609]!	; 0x261
    b5dc:	00000064 	andeq	r0, r0, r4, rrx
    b5e0:	64697028 	strbtvs	r7, [r9], #-40	; 0x28
    b5e4:	203e3e20 	eorscs	r3, lr, r0, lsr #28
    b5e8:	20293432 	eorcs	r3, r9, r2, lsr r4
    b5ec:	30203d3d 	eorcc	r3, r0, sp, lsr sp
    b5f0:	00000000 	andeq	r0, r0, r0
    b5f4:	20646970 	rsbcs	r6, r4, r0, ror r9
    b5f8:	3436203e 	ldrtcc	r2, [r6], #-62	; 0x3e
    b5fc:	00000000 	andeq	r0, r0, r0
    b600:	64697361 	strbtvs	r7, [r9], #-865	; 0x361
    b604:	36203c20 	strtcc	r3, [r0], -r0, lsr #24
    b608:	26262034 			; <UNDEFINED> instruction: 0x26262034
    b60c:	69736120 	ldmdbvs	r3!, {r5, r8, sp, lr}^
    b610:	00000064 	andeq	r0, r0, r4, rrx
    b614:	494e4150 	stmdbmi	lr, {r4, r6, r8, lr}^
    b618:	73253a43 	teqvc	r5, #274432	; 0x43000
    b61c:	3a73253a 	bcc	1cd4b0c <__bss_end__+0x1cc832c>
    b620:	633a6425 	teqvs	sl, #620756992	; 0x25000000
    b624:	656c6c61 	strbvs	r6, [ip, #-3169]!	; 0xc61
    b628:	6e752064 	cdpvs	0, 7, cr2, cr5, cr4, {3}
    b62c:	6c706d69 	ldclvs	13, cr6, [r0], #-420	; 0xfffffe5c
    b630:	6e656d65 	cdpvs	13, 6, cr6, cr5, cr5, {3}
    b634:	20646574 	rsbcs	r6, r4, r4, ror r5
    b638:	206d7361 	rsbcs	r7, sp, r1, ror #6
    b63c:	74756f72 	ldrbtvc	r6, [r5], #-3954	; 0xf72
    b640:	20656e69 	rsbcs	r6, r5, r9, ror #28
    b644:	25207461 	strcs	r7, [r0, #-1121]!	; 0x461
    b648:	000a0a78 	andeq	r0, sl, r8, ror sl
    b64c:	48534148 	ldmdami	r3, {r3, r6, r8, lr}^
    b650:	3a73253a 	bcc	1cd4b40 <__bss_end__+0x1cc8360>
    b654:	73616820 	cmnvc	r1, #32, 16	; 0x200000
    b658:	78253d68 	stmdavc	r5!, {r3, r5, r6, r8, sl, fp, ip, sp}
    b65c:	79626e2c 	stmdbvc	r2!, {r2, r3, r5, r9, sl, fp, sp, lr}^
    b660:	3d736574 	cfldr64cc	mvdx6, [r3, #-464]!	; 0xfffffe30
    b664:	000a6425 	andeq	r6, sl, r5, lsr #8
    b668:	616d6f64 	cmnvs	sp, r4, ror #30
    b66c:	61206e69 	teqvs	r0, r9, ror #28
    b670:	73656363 	cmnvc	r5, #-1946157055	; 0x8c000001
    b674:	6f632073 	svcvs	0x00632073
    b678:	6f72746e 	svcvs	0x0072746e
    b67c:	000a3a6c 	andeq	r3, sl, ip, ror #20
    b680:	0a622509 	beq	1894aac <__bss_end__+0x18882cc>
    b684:	00000000 	andeq	r0, r0, r0
    b688:	494e4150 	stmdbmi	lr, {r4, r6, r8, lr}^
    b68c:	73253a43 	teqvc	r5, #274432	; 0x43000
    b690:	3a73253a 	bcc	1cd4b80 <__bss_end__+0x1cc83a0>
    b694:	6f3a6425 	svcvs	0x003a6425
    b698:	65736666 	ldrbvs	r6, [r3, #-1638]!	; 0x666
    b69c:	72772074 	rsbsvc	r2, r7, #116	; 0x74
    b6a0:	3a676e6f 	bcc	19e7064 <__bss_end__+0x19da884>
    b6a4:	70786520 	rsbsvc	r6, r8, r0, lsr #10
    b6a8:	20746365 	rsbscs	r6, r4, r5, ror #6
    b6ac:	67207825 	strvs	r7, [r0, -r5, lsr #16]!
    b6b0:	2520746f 	strcs	r7, [r0, #-1135]!	; 0x46f
    b6b4:	73252078 	teqvc	r5, #120	; 0x78
    b6b8:	666f5b20 	strbtvs	r5, [pc], -r0, lsr #22
    b6bc:	64253d66 	strtvs	r3, [r5], #-3430	; 0xd66
    b6c0:	69626e2c 	stmdbvs	r2!, {r2, r3, r5, r9, sl, fp, sp, lr}^
    b6c4:	253d7374 	ldrcs	r7, [sp, #-884]!	; 0x374
    b6c8:	0a0a5d64 	beq	2a2c60 <__bss_end__+0x296480>
    b6cc:	00000000 	andeq	r0, r0, r0
    b6d0:	2d756d6d 	ldclcs	13, cr6, [r5, #-436]!	; 0xfffffe4c
    b6d4:	706c6568 	rsbvc	r6, ip, r8, ror #10
    b6d8:	2e737265 	cdpcs	2, 7, cr7, cr3, cr5, {3}
    b6dc:	00000063 	andeq	r0, r0, r3, rrx
    b6e0:	20752e78 	rsbscs	r2, r5, r8, ror lr
    b6e4:	65203d3d 	strvs	r3, [r0, #-3389]!	; 0xd3d
    b6e8:	00007078 	andeq	r7, r0, r8, ror r0
    b6ec:	494e4150 	stmdbmi	lr, {r4, r6, r8, lr}^
    b6f0:	73253a43 	teqvc	r5, #274432	; 0x43000
    b6f4:	3a73253a 	bcc	1cd4be4 <__bss_end__+0x1cc8404>
    b6f8:	773a6425 	ldrvc	r6, [sl, -r5, lsr #8]!
    b6fc:	68746469 	ldmdavs	r4!, {r0, r3, r5, r6, sl, sp, lr}^
    b700:	6f727720 	svcvs	0x00727720
    b704:	203a676e 	eorscs	r6, sl, lr, ror #14
    b708:	65707865 	ldrbvs	r7, [r0, #-2149]!	; 0x865
    b70c:	25207463 	strcs	r7, [r0, #-1123]!	; 0x463
    b710:	6f672078 	svcvs	0x00672078
    b714:	78252074 	stmdavc	r5!, {r2, r4, r5, r6, sp}
    b718:	20732520 	rsbscs	r2, r3, r0, lsr #10
    b71c:	66666f5b 	uqsaxvs	r6, r6, fp
    b720:	2c64253d 	cfstr64cs	mvdx2, [r4], #-244	; 0xffffff0c
    b724:	7469626e 	strbtvc	r6, [r9], #-622	; 0x26e
    b728:	64253d73 	strtvs	r3, [r5], #-3443	; 0xd73
    b72c:	000a0a5d 	andeq	r0, sl, sp, asr sl
    b730:	6c615f41 	stclvs	15, cr5, [r1], #-260	; 0xfffffefc
    b734:	6d6e6769 	stclvs	7, cr6, [lr, #-420]!	; 0xfffffe5c
    b738:	00746e65 	rsbseq	r6, r4, r5, ror #28
    b73c:	72775f57 	rsbsvc	r5, r7, #348	; 0x15c
    b740:	5f657469 	svcpl	0x00657469
    b744:	00667562 	rsbeq	r7, r6, r2, ror #10
    b748:	6e655f42 	cdpvs	15, 6, cr5, cr5, cr2, {2}
    b74c:	6e616964 	cdpvs	9, 6, cr6, cr1, cr4, {3}
    b750:	00000000 	andeq	r0, r0, r0
    b754:	72705f53 	rsbsvc	r5, r0, #332	; 0x14c
    b758:	0000746f 	andeq	r7, r0, pc, ror #8
    b75c:	6f725f52 	svcvs	0x00725f52
    b760:	72705f6d 	rsbsvc	r5, r0, #436	; 0x1b4
    b764:	0000746f 	andeq	r7, r0, pc, ror #8
    b768:	00000046 	andeq	r0, r0, r6, asr #32
    b76c:	72625f5a 	rsbvc	r5, r2, #360	; 0x168
    b770:	68636e61 	stmdavs	r3!, {r0, r5, r6, r9, sl, fp, sp, lr}^
    b774:	6572705f 	ldrbvs	r7, [r2, #-95]!	; 0x5f
    b778:	00000064 	andeq	r0, r0, r4, rrx
    b77c:	69685f56 	stmdbvs	r8!, {r1, r2, r4, r6, r8, r9, sl, fp, ip, lr}^
    b780:	655f6867 	ldrbvs	r6, [pc, #-2151]	; af21 <gpio_write+0x19>
    b784:	70656378 	rsbvc	r6, r5, r8, ror r3
    b788:	00765f74 	rsbseq	r5, r6, r4, ror pc
    b78c:	635f5252 	cmpvs	pc, #536870917	; 0x20000005
    b790:	65686361 	strbvs	r6, [r8, #-865]!	; 0x361
    b794:	7065725f 	rsbvc	r7, r5, pc, asr r2
    b798:	00000000 	andeq	r0, r0, r0
    b79c:	0000344c 	andeq	r3, r0, ip, asr #8
    b7a0:	00003146 	andeq	r3, r0, r6, asr #2
    b7a4:	6e755f55 	mrcvs	15, 3, r5, cr5, cr5, {2}
    b7a8:	67696c61 	strbvs	r6, [r9, -r1, ror #24]!
    b7ac:	0064656e 	rsbeq	r6, r4, lr, ror #10
    b7b0:	705f5058 	subsvc	r5, pc, r8, asr r0	; <UNPREDICTABLE>
    b7b4:	00000074 	andeq	r0, r0, r4, ror r0
    b7b8:	765f4556 			; <UNDEFINED> instruction: 0x765f4556
    b7bc:	5f746365 	svcpl	0x00746365
    b7c0:	00746e69 	rsbseq	r6, r4, r9, ror #28
    b7c4:	00004545 	andeq	r4, r0, r5, asr #10
    b7c8:	745f5254 	ldrbvc	r5, [pc], #-596	; b7d0 <__FUNCTION__.4528+0x54c>
    b7cc:	725f7865 	subsvc	r7, pc, #6619136	; 0x650000
    b7d0:	70616d65 	rsbvc	r6, r1, r5, ror #26
    b7d4:	00000000 	andeq	r0, r0, r0
    b7d8:	665f4146 	ldrbvs	r4, [pc], -r6, asr #2
    b7dc:	6563726f 	strbvs	r7, [r3, #-623]!	; 0x26f
    b7e0:	0070615f 	rsbseq	r6, r0, pc, asr r1
    b7e4:	5f3e2d72 	svcpl	0x003e2d72
    b7e8:	73756e75 	cmnvc	r5, #1872	; 0x750
    b7ec:	20316465 	eorscs	r6, r1, r5, ror #8
    b7f0:	30203d3d 	eorcc	r3, r0, sp, lsr sp
    b7f4:	31313162 	teqcc	r1, r2, ror #2
    b7f8:	00000000 	andeq	r0, r0, r0
    b7fc:	5f3e2d72 	svcpl	0x003e2d72
    b800:	3d207464 	cfstrscc	mvf7, [r0, #-400]!	; 0xfffffe70
    b804:	0031203d 	eorseq	r2, r1, sp, lsr r0
    b808:	5f3e2d72 	svcpl	0x003e2d72
    b80c:	3d207469 	cfstrscc	mvf7, [r0, #-420]!	; 0xfffffe5c
    b810:	0031203d 	eorseq	r2, r1, sp, lsr r0
    b814:	5f3e2d72 	svcpl	0x003e2d72
    b818:	307a6273 	rsbscc	r6, sl, r3, ror r2
    b81c:	203d3d20 	eorscs	r3, sp, r0, lsr #26
    b820:	00000030 	andeq	r0, r0, r0, lsr r0
    b824:	5f3e2d72 	svcpl	0x003e2d72
    b828:	317a6273 	cmncc	sl, r3, ror r2
    b82c:	203d3d20 	eorscs	r3, sp, r0, lsr #26
    b830:	00000030 	andeq	r0, r0, r0, lsr r0
    b834:	5f3e2d72 	svcpl	0x003e2d72
    b838:	3d207473 	cfstrscc	mvf7, [r0, #-460]!	; 0xfffffe34
    b83c:	0030203d 	eorseq	r2, r0, sp, lsr r0
    b840:	3e2d7221 	cdpcc	2, 2, cr7, cr13, cr1, {1}
    b844:	655f324c 	ldrbvs	r3, [pc, #-588]	; b600 <__FUNCTION__.4528+0x37c>
    b848:	6c62616e 	stfvse	f6, [r2], #-440	; 0xfffffe48
    b84c:	00006465 	andeq	r6, r0, r5, ror #8
    b850:	3e2d7221 	cdpcc	2, 2, cr7, cr13, cr1, {1}
    b854:	63695f49 	cmnvs	r9, #292	; 0x124
    b858:	65686361 	strbvs	r6, [r8, #-865]!	; 0x361
    b85c:	616e655f 	cmnvs	lr, pc, asr r5
    b860:	00656c62 	rsbeq	r6, r5, r2, ror #24
    b864:	3e2d7221 	cdpcc	2, 2, cr7, cr13, cr1, {1}
    b868:	6e755f43 	cdpvs	15, 7, cr5, cr5, cr3, {2}
    b86c:	65696669 	strbvs	r6, [r9, #-1641]!	; 0x669
    b870:	6e655f64 	cdpvs	15, 6, cr5, cr5, cr4, {3}
    b874:	656c6261 	strbvs	r6, [ip, #-609]!	; 0x261
    b878:	00000000 	andeq	r0, r0, r0
    b87c:	74737973 	ldrbtvc	r7, [r3], #-2419	; 0x973
    b880:	63206d65 	teqvs	r0, #6464	; 0x1940
    b884:	72746e6f 	rsbsvc	r6, r4, #1776	; 0x6f0
    b888:	72206c6f 	eorvc	r6, r0, #28416	; 0x6f00
    b88c:	0a3d6765 	beq	f65628 <__bss_end__+0xf58e48>
    b890:	00000000 	andeq	r0, r0, r0
    b894:	25623009 	strbcs	r3, [r2, #-9]!
    b898:	203d0962 	eorscs	r0, sp, r2, ror #18
    b89c:	000a7325 	andeq	r7, sl, r5, lsr #6
    b8a0:	25783009 	ldrbcs	r3, [r8, #-9]!
    b8a4:	00000a78 	andeq	r0, r0, r8, ror sl
    b8a8:	66696e75 			; <UNDEFINED> instruction: 0x66696e75
    b8ac:	5f646569 	svcpl	0x00646569
    b8b0:	00000070 	andeq	r0, r0, r0, ror r0
    b8b4:	5f645f6e 	svcpl	0x00645f6e
    b8b8:	6b636f6c 	blvs	18e7670 <__bss_end__+0x18dae90>
    b8bc:	00000000 	andeq	r0, r0, r0
    b8c0:	5f695f6e 	svcpl	0x00695f6e
    b8c4:	6b636f6c 	blvs	18e767c <__bss_end__+0x18dae9c>
    b8c8:	00000000 	andeq	r0, r0, r0
    b8cc:	20424c54 	subcs	r4, r2, r4, asr ip
    b8d0:	666e6f63 	strbtvs	r6, [lr], -r3, ror #30
    b8d4:	0a3a6769 	beq	ea5680 <__bss_end__+0xe98ea0>
    b8d8:	00000000 	andeq	r0, r0, r0
    b8dc:	696e7509 	stmdbvs	lr!, {r0, r3, r8, sl, ip, sp, lr}^
    b8e0:	64656966 	strbtvs	r6, [r5], #-2406	; 0x966
    b8e4:	0a64253d 	beq	1914de0 <__bss_end__+0x1908600>
    b8e8:	00000000 	andeq	r0, r0, r0
    b8ec:	636f6c09 	cmnvs	pc, #2304	; 0x900
    b8f0:	6c62616b 	stfvse	f6, [r2], #-428	; 0xfffffe54
    b8f4:	61642065 	cmnvs	r4, r5, rrx
    b8f8:	65206174 	strvs	r6, [r0, #-372]!	; 0x174
    b8fc:	253d746e 	ldrcs	r7, [sp, #-1134]!	; 0x46e
    b900:	00000a64 	andeq	r0, r0, r4, ror #20
    b904:	636f6c09 	cmnvs	pc, #2304	; 0x900
    b908:	6c62616b 	stfvse	f6, [r2], #-428	; 0xfffffe54
    b90c:	6e692065 	cdpvs	0, 6, cr2, cr9, cr5, {3}
    b910:	65207473 	strvs	r7, [r0, #-1139]!	; 0x473
    b914:	253d746e 	ldrcs	r7, [sp, #-1134]!	; 0x46e
    b918:	00000a64 	andeq	r0, r0, r4, ror #20
    b91c:	5f3e2d66 	svcpl	0x003e2d66
    b920:	317a6273 	cmncc	sl, r3, ror r2
    b924:	203d3d20 	eorscs	r3, sp, r0, lsr #26
    b928:	00000030 	andeq	r0, r0, r0, lsr r0
    b92c:	743e2d66 	ldrtvc	r2, [lr], #-3430	; 0xd66
    b930:	3d206761 	stccc	7, cr6, [r0, #-388]!	; 0xfffffe7c
    b934:	6230203d 	eorsvs	r2, r0, #61	; 0x3d
    b938:	00003031 	andeq	r3, r0, r1, lsr r0
    b93c:	533e2d66 	teqpl	lr, #6528	; 0x1980
    b940:	203d3d20 	eorscs	r3, sp, r0, lsr #26
    b944:	00000030 	andeq	r0, r0, r0, lsr r0
    b948:	493e2d66 	ldmdbmi	lr!, {r1, r2, r5, r6, r8, sl, fp, sp}
    b94c:	3d20504d 	stccc	0, cr5, [r0, #-308]!	; 0xfffffecc
    b950:	0030203d 	eorseq	r2, r0, sp, lsr r0
    b954:	543e2d66 	ldrtpl	r2, [lr], #-3430	; 0xd66
    b958:	3d205845 	stccc	8, cr5, [r0, #-276]!	; 0xfffffeec
    b95c:	0030203d 	eorseq	r2, r0, sp, lsr r0
    b960:	433e2d66 	teqmi	lr, #6528	; 0x1980
    b964:	203d3d20 	eorscs	r3, sp, r0, lsr #26
    b968:	00000030 	andeq	r0, r0, r0, lsr r0
    b96c:	423e2d66 	eorsmi	r2, lr, #6528	; 0x1980
    b970:	203d3d20 	eorscs	r3, sp, r0, lsr #26
    b974:	00000030 	andeq	r0, r0, r0, lsr r0
    b978:	733e2d66 	teqvc	lr, #6528	; 0x1980
    b97c:	72657075 	rsbvc	r7, r5, #117	; 0x75
    b980:	203d3d20 	eorscs	r3, sp, r0, lsr #26
    b984:	00000030 	andeq	r0, r0, r0, lsr r0
    b988:	00676174 	rsbeq	r6, r7, r4, ror r1
    b98c:	00000042 	andeq	r0, r0, r2, asr #32
    b990:	00000043 	andeq	r0, r0, r3, asr #32
    b994:	00004e58 	andeq	r4, r0, r8, asr lr
    b998:	616d6f64 	cmnvs	sp, r4, ror #30
    b99c:	00006e69 	andeq	r6, r0, r9, ror #28
    b9a0:	00504d49 	subseq	r4, r0, r9, asr #26
    b9a4:	00005041 	andeq	r5, r0, r1, asr #32
    b9a8:	00584554 	subseq	r4, r8, r4, asr r5
    b9ac:	00585041 	subseq	r5, r8, r1, asr #32
    b9b0:	00000053 	andeq	r0, r0, r3, asr r0
    b9b4:	0000476e 	andeq	r4, r0, lr, ror #14
    b9b8:	65707573 	ldrbvs	r7, [r0, #-1395]!	; 0x573
    b9bc:	00000072 	andeq	r0, r0, r2, ror r0
    b9c0:	5f636573 	svcpl	0x00636573
    b9c4:	65736162 	ldrbvs	r6, [r3, #-354]!	; 0x162
    b9c8:	6464615f 	strbtvs	r6, [r4], #-351	; 0x15f
    b9cc:	00000072 	andeq	r0, r0, r2, ror r0
    b9d0:	2d2d2d2d 	stccs	13, cr2, [sp, #-180]!	; 0xffffff4c
    b9d4:	2d2d2d2d 	stccs	13, cr2, [sp, #-180]!	; 0xffffff4c
    b9d8:	2d2d2d2d 	stccs	13, cr2, [sp, #-180]!	; 0xffffff4c
    b9dc:	2d2d2d2d 	stccs	13, cr2, [sp, #-180]!	; 0xffffff4c
    b9e0:	2d2d2d2d 	stccs	13, cr2, [sp, #-180]!	; 0xffffff4c
    b9e4:	2d2d2d2d 	stccs	13, cr2, [sp, #-180]!	; 0xffffff4c
    b9e8:	2d2d2d2d 	stccs	13, cr2, [sp, #-180]!	; 0xffffff4c
    b9ec:	000a2d2d 	andeq	r2, sl, sp, lsr #26
    b9f0:	78257830 	stmdavc	r5!, {r4, r5, fp, ip, sp, lr}
    b9f4:	00000a3a 	andeq	r0, r0, sl, lsr sl
    b9f8:	2d202009 	stccs	0, cr2, [r0, #-36]!	; 0xffffffdc
    b9fc:	76203e2d 	strtvc	r3, [r0], -sp, lsr #28
    ba00:	78303d61 	ldmdavc	r0!, {r0, r5, r6, r8, sl, fp, ip, sp}
    ba04:	0a783825 	beq	1e19aa0 <__bss_end__+0x1e0d2c0>
    ba08:	00000000 	andeq	r0, r0, r0
    ba0c:	20202009 	eorcs	r2, r0, r9
    ba10:	20202020 	eorcs	r2, r0, r0, lsr #32
    ba14:	20202020 	eorcs	r2, r0, r0, lsr #32
    ba18:	34353637 	ldrtcc	r3, [r5], #-1591	; 0x637
    ba1c:	30313233 	eorscc	r3, r1, r3, lsr r2
    ba20:	0000000a 	andeq	r0, r0, sl

0000ba24 <__FUNCTION__.4576>:
    ba24:	746e6f63 	strbtvc	r6, [lr], #-3939	; 0xf63
    ba28:	5f6c6f72 	svcpl	0x006c6f72
    ba2c:	31676572 	smccc	30290	; 0x7652
    ba30:	6e61735f 	mcrvs	3, 3, r7, cr1, cr15, {2}
    ba34:	5f797469 	svcpl	0x00797469
    ba38:	63656863 	cmnvs	r5, #6488064	; 0x630000
    ba3c:	0000006b 	andeq	r0, r0, fp, rrx

0000ba40 <__FUNCTION__.4619>:
    ba40:	5f646c66 	svcpl	0x00646c66
    ba44:	63656863 	cmnvs	r5, #6488064	; 0x630000
    ba48:	61765f6b 	cmnvs	r6, fp, ror #30
    ba4c:	0064696c 	rsbeq	r6, r4, ip, ror #18

0000ba50 <__FUNCTION__.4390>:
    ba50:	746e6f63 	strbtvc	r6, [lr], #-3939	; 0xf63
    ba54:	5f6c6f72 	svcpl	0x006c6f72
    ba58:	31676572 	smccc	30290	; 0x7652
    ba5c:	6568635f 	strbvs	r6, [r8, #-863]!	; 0x35f
    ba60:	6f5f6b63 	svcvs	0x005f6b63
    ba64:	65736666 	ldrbvs	r6, [r3, #-1638]!	; 0x666
    ba68:	00007374 	andeq	r7, r0, r4, ror r3

0000ba6c <__FUNCTION__.4592>:
    ba6c:	5f626c74 	svcpl	0x00626c74
    ba70:	666e6f63 	strbtvs	r6, [lr], -r3, ror #30
    ba74:	635f6769 	cmpvs	pc, #27525120	; 0x1a40000
    ba78:	6b636568 	blvs	18e5020 <__bss_end__+0x18d8840>
    ba7c:	66666f5f 	uqsaxvs	r6, r6, pc	; <UNPREDICTABLE>
    ba80:	73746573 	cmnvc	r4, #482344960	; 0x1cc00000
    ba84:	00000000 	andeq	r0, r0, r0

0000ba88 <__FUNCTION__.4628>:
    ba88:	5f646c66 	svcpl	0x00646c66
    ba8c:	63656863 	cmnvs	r5, #6488064	; 0x630000
    ba90:	666f5f6b 	strbtvs	r5, [pc], -fp, ror #30
    ba94:	74657366 	strbtvc	r7, [r5], #-870	; 0x366
    ba98:	00000073 	andeq	r0, r0, r3, ror r0
    ba9c:	636d656d 	cmnvs	sp, #457179136	; 0x1b400000
    baa0:	6b636568 	blvs	18e5048 <__bss_end__+0x18d8868>
    baa4:	0000632e 	andeq	r6, r0, lr, lsr #6
    baa8:	61662e6c 	cmnvs	r6, ip, ror #28
    baac:	5f746c75 	svcpl	0x00746c75
    bab0:	72646461 	rsbvc	r6, r4, #1627389952	; 0x61000000
    bab4:	203d3d20 	eorscs	r3, sp, r0, lsr #26
    bab8:	72646461 	rsbvc	r6, r4, #1627389952	; 0x61000000
    babc:	00000000 	andeq	r0, r0, r0
    bac0:	61662e6c 	cmnvs	r6, ip, ror #28
    bac4:	5f746c75 	svcpl	0x00746c75
    bac8:	3d206370 	stccc	3, cr6, [r0, #-448]!	; 0xfffffe40
    bacc:	6370203d 	cmnvs	r0, #61	; 0x3d
    bad0:	00000000 	andeq	r0, r0, r0
    bad4:	61662e6c 	cmnvs	r6, ip, ror #28
    bad8:	5f746c75 	svcpl	0x00746c75
    badc:	73616572 	cmnvc	r1, #478150656	; 0x1c800000
    bae0:	3d206e6f 	stccc	14, cr6, [r0, #-444]!	; 0xfffffe44
    bae4:	6572203d 	ldrbvs	r2, [r2, #-61]!	; 0x3d
    bae8:	6e6f7361 	cdpvs	3, 6, cr7, cr15, cr1, {3}
    baec:	00000000 	andeq	r0, r0, r0
    baf0:	20776173 	rsbscs	r6, r7, r3, ror r1
    baf4:	65707865 	ldrbvs	r7, [r0, #-2149]!	; 0x865
    baf8:	64657463 	strbtvs	r7, [r5], #-1123	; 0x463
    bafc:	75616620 	strbvc	r6, [r1, #-1568]!	; 0x620
    bb00:	6120746c 	teqvs	r0, ip, ror #8
    bb04:	63702074 	cmnvs	r0, #116	; 0x74
    bb08:	2c70253d 	cfldr64cs	mvdx2, [r0], #-244	; 0xffffff0c
    bb0c:	64646120 	strbtvs	r6, [r4], #-288	; 0x120
    bb10:	70253d72 	eorvc	r3, r5, r2, ror sp
    bb14:	6572202c 	ldrbvs	r2, [r2, #-44]!	; 0x2c
    bb18:	6e6f7361 	cdpvs	3, 6, cr7, cr15, cr1, {3}
    bb1c:	0a64253d 	beq	1915018 <__bss_end__+0x1908838>
    bb20:	00000000 	andeq	r0, r0, r0
    bb24:	2d746962 	ldclcs	9, cr6, [r4, #-392]!	; 0xfffffe78
    bb28:	70707573 	rsbsvc	r7, r0, r3, ror r5
    bb2c:	2e74726f 	cdpcs	2, 7, cr7, cr4, cr15, {3}
    bb30:	00000068 	andeq	r0, r0, r8, rrx
    bb34:	3c20626c 	sfmcc	f6, 4, [r0], #-432	; 0xfffffe50
    bb38:	6275203d 	rsbsvs	r2, r5, #61	; 0x3d
    bb3c:	00000000 	andeq	r0, r0, r0
    bb40:	3c206275 	sfmcc	f6, 4, [r0], #-468	; 0xfffffe2c
    bb44:	00323320 	eorseq	r3, r2, r0, lsr #6
    bb48:	6d726570 	cfldr64vs	mvdx6, [r2, #-448]!	; 0xfffffe40
    bb4c:	203d3d20 	eorscs	r3, sp, r0, lsr #26
    bb50:	5f4d4f44 	svcpl	0x004d4f44
    bb54:	65696c63 	strbvs	r6, [r9, #-3171]!	; 0xc63
    bb58:	7c20746e 	cfstrsvc	mvf7, [r0], #-440	; 0xfffffe48
    bb5c:	6570207c 	ldrbvs	r2, [r0, #-124]!	; 0x7c
    bb60:	3d206d72 	stccc	13, cr6, [r0, #-456]!	; 0xfffffe38
    bb64:	4f44203d 	svcmi	0x0044203d
    bb68:	6f6e5f4d 	svcvs	0x006e5f4d
    bb6c:	6363615f 	cmnvs	r3, #-1073741801	; 0xc0000017
    bb70:	00737365 	rsbseq	r7, r3, r5, ror #6
    bb74:	64206e49 	strtvs	r6, [r0], #-3657	; 0xe49
    bb78:	20617461 	rsbcs	r7, r1, r1, ror #8
    bb7c:	726f6261 	rsbvc	r6, pc, #268435462	; 0x10000006
    bb80:	65762074 	ldrbvs	r2, [r6, #-116]!	; 0x74
    bb84:	726f7463 	rsbvc	r7, pc, #1660944384	; 0x63000000
    bb88:	0000000a 	andeq	r0, r0, sl
    bb8c:	494e4150 	stmdbmi	lr, {r4, r6, r8, lr}^
    bb90:	73253a43 	teqvc	r5, #274432	; 0x43000
    bb94:	3a73253a 	bcc	1cd5084 <__bss_end__+0x1cc88a4>
    bb98:	413a6425 	teqmi	sl, r5, lsr #8
    bb9c:	6e67696c 	cdpvs	9, 6, cr6, cr7, cr12, {3}
    bba0:	746e656d 	strbtvc	r6, [lr], #-1389	; 0x56d
    bba4:	75616620 	strbvc	r6, [r1, #-1568]!	; 0x620
    bba8:	0a0a746c 	beq	2a8d60 <__bss_end__+0x29c580>
    bbac:	00000000 	andeq	r0, r0, r0
    bbb0:	494e4150 	stmdbmi	lr, {r4, r6, r8, lr}^
    bbb4:	73253a43 	teqvc	r5, #274432	; 0x43000
    bbb8:	3a73253a 	bcc	1cd50a8 <__bss_end__+0x1cc88c8>
    bbbc:	543a6425 	ldrtpl	r6, [sl], #-1061	; 0x425
    bbc0:	4d20424c 	sfmmi	f4, 4, [r0, #-304]!	; 0xfffffed0
    bbc4:	20737369 	rsbscs	r7, r3, r9, ror #6
    bbc8:	00000a0a 	andeq	r0, r0, sl, lsl #20
    bbcc:	494e4150 	stmdbmi	lr, {r4, r6, r8, lr}^
    bbd0:	73253a43 	teqvc	r5, #274432	; 0x43000
    bbd4:	3a73253a 	bcc	1cd50c4 <__bss_end__+0x1cc88e4>
    bbd8:	443a6425 	ldrtmi	r6, [sl], #-1061	; 0x425
    bbdc:	41207065 	teqmi	r0, r5, rrx
    bbe0:	6e67696c 	cdpvs	9, 6, cr6, cr7, cr12, {3}
    bbe4:	746e656d 	strbtvc	r6, [lr], #-1389	; 0x56d
    bbe8:	75616620 	strbvc	r6, [r1, #-1568]!	; 0x620
    bbec:	0a0a746c 	beq	2a8da4 <__bss_end__+0x29c5c4>
    bbf0:	00000000 	andeq	r0, r0, r0
    bbf4:	494e4150 	stmdbmi	lr, {r4, r6, r8, lr}^
    bbf8:	73253a43 	teqvc	r5, #274432	; 0x43000
    bbfc:	3a73253a 	bcc	1cd50ec <__bss_end__+0x1cc890c>
    bc00:	493a6425 	ldmdbmi	sl!, {r0, r2, r5, sl, sp, lr}
    bc04:	68636143 	stmdavs	r3!, {r0, r1, r6, r8, sp, lr}^
    bc08:	614d2065 	cmpvs	sp, r5, rrx
    bc0c:	65746e69 	ldrbvs	r6, [r4, #-3689]!	; 0xe69
    bc10:	636e616e 	cmnvs	lr, #-2147483621	; 0x8000001b
    bc14:	61662065 	cmnvs	r6, r5, rrx
    bc18:	0a746c75 	beq	1d26df4 <__bss_end__+0x1d1a614>
    bc1c:	0000000a 	andeq	r0, r0, sl
    bc20:	494e4150 	stmdbmi	lr, {r4, r6, r8, lr}^
    bc24:	73253a43 	teqvc	r5, #274432	; 0x43000
    bc28:	3a73253a 	bcc	1cd5118 <__bss_end__+0x1cc8938>
    bc2c:	543a6425 	ldrtpl	r6, [sl], #-1061	; 0x425
    bc30:	736e6172 	cmnvc	lr, #-2147483620	; 0x8000001c
    bc34:	6974616c 	ldmdbvs	r4!, {r2, r3, r5, r6, r8, sp, lr}^
    bc38:	4c206e6f 	stcmi	14, cr6, [r0], #-444	; 0xfffffe44
    bc3c:	6c657665 	stclvs	6, cr7, [r5], #-404	; 0xfffffe6c
    bc40:	66203120 	strtvs	r3, [r0], -r0, lsr #2
    bc44:	746c7561 	strbtvc	r7, [ip], #-1377	; 0x561
    bc48:	00000a0a 	andeq	r0, r0, sl, lsl #20
    bc4c:	494e4150 	stmdbmi	lr, {r4, r6, r8, lr}^
    bc50:	73253a43 	teqvc	r5, #274432	; 0x43000
    bc54:	3a73253a 	bcc	1cd5144 <__bss_end__+0x1cc8964>
    bc58:	543a6425 	ldrtpl	r6, [sl], #-1061	; 0x425
    bc5c:	736e6172 	cmnvc	lr, #-2147483620	; 0x8000001c
    bc60:	6974616c 	ldmdbvs	r4!, {r2, r3, r5, r6, r8, sp, lr}^
    bc64:	6c206e6f 	stcvs	14, cr6, [r0], #-444	; 0xfffffe44
    bc68:	6c657665 	stclvs	6, cr7, [r5], #-404	; 0xfffffe6c
    bc6c:	66203220 	strtvs	r3, [r0], -r0, lsr #4
    bc70:	746c7561 	strbtvc	r7, [ip], #-1377	; 0x561
    bc74:	00000a0a 	andeq	r0, r0, sl, lsl #20
    bc78:	74636573 	strbtvc	r6, [r3], #-1395	; 0x573
    bc7c:	206e6f69 	rsbcs	r6, lr, r9, ror #30
    bc80:	74616c78 	strbtvc	r6, [r1], #-3192	; 0xc78
    bc84:	61662065 	cmnvs	r6, r5, rrx
    bc88:	3a746c75 	bcc	1d26e64 <__bss_end__+0x1d1a684>
    bc8c:	64646120 	strbtvs	r6, [r4], #-288	; 0x120
    bc90:	70253d72 	eorvc	r3, r5, r2, ror sp
    bc94:	7461202c 	strbtvc	r2, [r1], #-44	; 0x2c
    bc98:	3d637020 	stclcc	0, cr7, [r3, #-128]!	; 0xffffff80
    bc9c:	000a7025 	andeq	r7, sl, r5, lsr #32
    bca0:	494e4150 	stmdbmi	lr, {r4, r6, r8, lr}^
    bca4:	73253a43 	teqvc	r5, #274432	; 0x43000
    bca8:	3a73253a 	bcc	1cd5198 <__bss_end__+0x1cc89b8>
    bcac:	543a6425 	ldrtpl	r6, [sl], #-1061	; 0x425
    bcb0:	736e6172 	cmnvc	lr, #-2147483620	; 0x8000001c
    bcb4:	6974616c 	ldmdbvs	r4!, {r2, r3, r5, r6, r8, sp, lr}^
    bcb8:	70206e6f 	eorvc	r6, r0, pc, ror #28
    bcbc:	20656761 	rsbcs	r6, r5, r1, ror #14
    bcc0:	6c756166 	ldfvse	f6, [r5], #-408	; 0xfffffe68
    bcc4:	000a0a74 	andeq	r0, sl, r4, ror sl
    bcc8:	616d6f44 	cmnvs	sp, r4, asr #30
    bccc:	73206e69 	teqvc	r0, #1680	; 0x690
    bcd0:	69746365 	ldmdbvs	r4!, {r0, r2, r5, r6, r8, r9, sp, lr}^
    bcd4:	66206e6f 	strtvs	r6, [r0], -pc, ror #28
    bcd8:	746c7561 	strbtvc	r7, [ip], #-1377	; 0x561
    bcdc:	0000000a 	andeq	r0, r0, sl
    bce0:	6e696f47 	cdpvs	15, 6, cr6, cr9, cr7, {2}
    bce4:	6f742067 	svcvs	0x00742067
    bce8:	65696420 	strbvs	r6, [r9, #-1056]!	; 0x420
    bcec:	00000a21 	andeq	r0, r0, r1, lsr #20
    bcf0:	6e696f67 	cdpvs	15, 6, cr6, cr9, cr7, {3}
    bcf4:	6f742067 	svcvs	0x00742067
    bcf8:	79727420 	ldmdbvc	r2!, {r5, sl, ip, sp, lr}^
    bcfc:	206f7420 	rsbcs	r7, pc, r0, lsr #8
    bd00:	75736572 	ldrbvc	r6, [r3, #-1394]!	; 0x572
    bd04:	000a656d 	andeq	r6, sl, sp, ror #10
    bd08:	494e4150 	stmdbmi	lr, {r4, r6, r8, lr}^
    bd0c:	73253a43 	teqvc	r5, #274432	; 0x43000
    bd10:	3a73253a 	bcc	1cd5200 <__bss_end__+0x1cc8a20>
    bd14:	443a6425 	ldrtmi	r6, [sl], #-1061	; 0x425
    bd18:	69616d6f 	stmdbvs	r1!, {r0, r1, r2, r3, r5, r6, r8, sl, fp, sp, lr}^
    bd1c:	6170206e 	cmnvs	r0, lr, rrx
    bd20:	66206567 	strtvs	r6, [r0], -r7, ror #10
    bd24:	746c7561 	strbtvc	r7, [ip], #-1377	; 0x561
    bd28:	00000a0a 	andeq	r0, r0, sl, lsl #20
    bd2c:	494e4150 	stmdbmi	lr, {r4, r6, r8, lr}^
    bd30:	73253a43 	teqvc	r5, #274432	; 0x43000
    bd34:	3a73253a 	bcc	1cd5224 <__bss_end__+0x1cc8a44>
    bd38:	733a6425 	teqvc	sl, #620756992	; 0x25000000
    bd3c:	69746365 	ldmdbvs	r4!, {r0, r2, r5, r6, r8, r9, sp, lr}^
    bd40:	70206e6f 	eorvc	r6, r0, pc, ror #28
    bd44:	696d7265 	stmdbvs	sp!, {r0, r2, r5, r6, r9, ip, sp, lr}^
    bd48:	6f697373 	svcvs	0x00697373
    bd4c:	6166206e 	cmnvs	r6, lr, rrx
    bd50:	3a746c75 	bcc	1d26f2c <__bss_end__+0x1d1a74c>
    bd54:	0a782520 	beq	1e151dc <__bss_end__+0x1e089fc>
    bd58:	00000000 	andeq	r0, r0, r0
    bd5c:	494e4150 	stmdbmi	lr, {r4, r6, r8, lr}^
    bd60:	73253a43 	teqvc	r5, #274432	; 0x43000
    bd64:	3a73253a 	bcc	1cd5254 <__bss_end__+0x1cc8a74>
    bd68:	503a6425 	eorspl	r6, sl, r5, lsr #8
    bd6c:	696d7265 	stmdbvs	sp!, {r0, r2, r5, r6, r9, ip, sp, lr}^
    bd70:	6f697373 	svcvs	0x00697373
    bd74:	6170206e 	cmnvs	r0, lr, rrx
    bd78:	66206567 	strtvs	r6, [r0], -r7, ror #10
    bd7c:	746c7561 	strbtvc	r7, [ip], #-1377	; 0x561
    bd80:	00000a0a 	andeq	r0, r0, sl, lsl #20
    bd84:	494e4150 	stmdbmi	lr, {r4, r6, r8, lr}^
    bd88:	73253a43 	teqvc	r5, #274432	; 0x43000
    bd8c:	3a73253a 	bcc	1cd527c <__bss_end__+0x1cc8a9c>
    bd90:	503a6425 	eorspl	r6, sl, r5, lsr #8
    bd94:	69636572 	stmdbvs	r3!, {r1, r4, r5, r6, r8, sl, sp, lr}^
    bd98:	65206573 	strvs	r6, [r0, #-1395]!	; 0x573
    bd9c:	72657478 	rsbvc	r7, r5, #120, 8	; 0x78000000
    bda0:	206c616e 	rsbcs	r6, ip, lr, ror #2
    bda4:	726f6261 	rsbvc	r6, pc, #268435462	; 0x10000006
    bda8:	000a0a74 	andeq	r0, sl, r4, ror sl
    bdac:	494e4150 	stmdbmi	lr, {r4, r6, r8, lr}^
    bdb0:	73253a43 	teqvc	r5, #274432	; 0x43000
    bdb4:	3a73253a 	bcc	1cd52a4 <__bss_end__+0x1cc8ac4>
    bdb8:	453a6425 	ldrmi	r6, [sl, #-1061]!	; 0x425
    bdbc:	72657478 	rsbvc	r7, r5, #120, 8	; 0x78000000
    bdc0:	206c616e 	rsbcs	r6, ip, lr, ror #2
    bdc4:	726f6261 	rsbvc	r6, pc, #268435462	; 0x10000006
    bdc8:	72702074 	rsbsvc	r2, r0, #116	; 0x74
    bdcc:	73696365 	cmnvc	r9, #-1811939327	; 0x94000001
    bdd0:	000a0a65 	andeq	r0, sl, r5, ror #20
    bdd4:	494e4150 	stmdbmi	lr, {r4, r6, r8, lr}^
    bdd8:	73253a43 	teqvc	r5, #274432	; 0x43000
    bddc:	3a73253a 	bcc	1cd52cc <__bss_end__+0x1cc8aec>
    bde0:	543a6425 	ldrtpl	r6, [sl], #-1061	; 0x425
    bde4:	4c20424c 	sfmmi	f4, 4, [r0], #-304	; 0xfffffed0
    bde8:	0a6b636f 	beq	1ae4bac <__bss_end__+0x1ad83cc>
    bdec:	0000000a 	andeq	r0, r0, sl
    bdf0:	494e4150 	stmdbmi	lr, {r4, r6, r8, lr}^
    bdf4:	73253a43 	teqvc	r5, #274432	; 0x43000
    bdf8:	3a73253a 	bcc	1cd52e8 <__bss_end__+0x1cc8b08>
    bdfc:	433a6425 	teqmi	sl, #620756992	; 0x25000000
    be00:	6f72706f 	svcvs	0x0072706f
    be04:	73736563 	cmnvc	r3, #415236096	; 0x18c00000
    be08:	6420726f 	strtvs	r7, [r0], #-623	; 0x26f
    be0c:	20617461 	rsbcs	r7, r1, r1, ror #8
    be10:	726f6261 	rsbvc	r6, pc, #268435462	; 0x10000006
    be14:	000a0a74 	andeq	r0, sl, r4, ror sl
    be18:	494e4150 	stmdbmi	lr, {r4, r6, r8, lr}^
    be1c:	73253a43 	teqvc	r5, #274432	; 0x43000
    be20:	3a73253a 	bcc	1cd5310 <__bss_end__+0x1cc8b30>
    be24:	493a6425 	ldmdbmi	sl!, {r0, r2, r5, sl, sp, lr}
    be28:	6572706d 	ldrbvs	r7, [r2, #-109]!	; 0x6d
    be2c:	65736963 	ldrbvs	r6, [r3, #-2403]!	; 0x963
    be30:	74786520 	ldrbtvc	r6, [r8], #-1312	; 0x520
    be34:	616e7265 	cmnvs	lr, r5, ror #4
    be38:	6261206c 	rsbvs	r2, r1, #108	; 0x6c
    be3c:	0a74726f 	beq	1d28800 <__bss_end__+0x1d1c020>
    be40:	0000000a 	andeq	r0, r0, sl
    be44:	494e4150 	stmdbmi	lr, {r4, r6, r8, lr}^
    be48:	73253a43 	teqvc	r5, #274432	; 0x43000
    be4c:	3a73253a 	bcc	1cd533c <__bss_end__+0x1cc8b5c>
    be50:	503a6425 	eorspl	r6, sl, r5, lsr #8
    be54:	74697261 	strbtvc	r7, [r9], #-609	; 0x261
    be58:	72652079 	rsbvc	r2, r5, #121	; 0x79
    be5c:	20726f72 	rsbscs	r6, r2, r2, ror pc
    be60:	65637865 	strbvs	r7, [r3, #-2149]!	; 0x865
    be64:	6f697470 	svcvs	0x00697470
    be68:	000a0a6e 	andeq	r0, sl, lr, ror #20
    be6c:	494e4150 	stmdbmi	lr, {r4, r6, r8, lr}^
    be70:	73253a43 	teqvc	r5, #274432	; 0x43000
    be74:	3a73253a 	bcc	1cd5364 <__bss_end__+0x1cc8b84>
    be78:	443a6425 	ldrtmi	r6, [sl], #-1061	; 0x425
    be7c:	67756265 	ldrbvs	r6, [r5, -r5, ror #4]!
    be80:	65766520 	ldrbvs	r6, [r6, #-1312]!	; 0x520
    be84:	0a0a746e 	beq	2a9044 <__bss_end__+0x29c864>
    be88:	00000000 	andeq	r0, r0, r0
    be8c:	494e4150 	stmdbmi	lr, {r4, r6, r8, lr}^
    be90:	73253a43 	teqvc	r5, #274432	; 0x43000
    be94:	3a73253a 	bcc	1cd5384 <__bss_end__+0x1cc8ba4>
    be98:	573a6425 	ldrpl	r6, [sl, -r5, lsr #8]!
    be9c:	63204654 	teqvs	r0, #84, 12	; 0x5400000
    bea0:	20657361 	rsbcs	r7, r5, r1, ror #6
    bea4:	74207369 	strtvc	r7, [r0], #-873	; 0x369
    bea8:	21736968 	cmncs	r3, r8, ror #18
    beac:	3f3f213f 	svccc	0x003f213f
    beb0:	0000000a 	andeq	r0, r0, sl
    beb4:	494e4150 	stmdbmi	lr, {r4, r6, r8, lr}^
    beb8:	73253a43 	teqvc	r5, #274432	; 0x43000
    bebc:	3a73253a 	bcc	1cd53ac <__bss_end__+0x1cc8bcc>
    bec0:	693a6425 	ldmdbvs	sl!, {r0, r2, r5, sl, sp, lr}
    bec4:	736f706d 	cmnvc	pc, #109	; 0x6d
    bec8:	6c626973 	stclvs	9, cr6, [r2], #-460	; 0xfffffe34
    becc:	000a0a65 	andeq	r0, sl, r5, ror #20
    bed0:	3d207470 	cfstrscc	mvf7, [r0, #-448]!	; 0xfffffe40
    bed4:	6162203d 	cmnvs	r2, sp, lsr r0
    bed8:	00006573 	andeq	r6, r0, r3, ror r5
    bedc:	253a7325 	ldrcs	r7, [sl, #-805]!	; 0x325
    bee0:	64253a73 	strtvs	r3, [r5], #-2675	; 0xa73
    bee4:	6d656d3a 	stclvs	13, cr6, [r5, #-232]!	; 0xffffff18
    bee8:	63656863 	cmnvs	r5, #6488064	; 0x630000
    beec:	61203a6b 	teqvs	r0, fp, ror #20
    bef0:	74756f62 	ldrbtvc	r6, [r5], #-3938	; 0xf62
    bef4:	206f7420 	rsbcs	r7, pc, r0, lsr #8
    bef8:	6e727574 	mrcvs	5, 3, r7, cr2, cr4, {3}
    befc:	0a4e4f20 	beq	139fb84 <__bss_end__+0x13933a4>
    bf00:	00000000 	andeq	r0, r0, r0
    bf04:	5f756d6d 	svcpl	0x00756d6d
    bf08:	655f7369 	ldrbvs	r7, [pc, #-873]	; bba7 <__FUNCTION__.4628+0x11f>
    bf0c:	6c62616e 	stfvse	f6, [r2], #-440	; 0xfffffe48
    bf10:	29286465 	stmdbcs	r8!, {r0, r2, r5, r6, sl, sp, lr}
    bf14:	00000000 	andeq	r0, r0, r0
    bf18:	253a7325 	ldrcs	r7, [sl, #-805]!	; 0x325
    bf1c:	64253a73 	strtvs	r3, [r5], #-2675	; 0xa73
    bf20:	6d656d3a 	stclvs	13, cr6, [r5, #-232]!	; 0xffffff18
    bf24:	63656863 	cmnvs	r5, #6488064	; 0x630000
    bf28:	4f203a6b 	svcmi	0x00203a6b
    bf2c:	00000a4e 	andeq	r0, r0, lr, asr #20
    bf30:	253a7325 	ldrcs	r7, [sl, #-805]!	; 0x325
    bf34:	64253a73 	strtvs	r3, [r5], #-2675	; 0xa73
    bf38:	6d656d3a 	stclvs	13, cr6, [r5, #-232]!	; 0xffffff18
    bf3c:	63656863 	cmnvs	r5, #6488064	; 0x630000
    bf40:	4f203a6b 	svcmi	0x00203a6b
    bf44:	000a4646 	andeq	r4, sl, r6, asr #12
    bf48:	615f7369 	cmpvs	pc, r9, ror #6
    bf4c:	6e67696c 	cdpvs	9, 6, cr6, cr7, cr12, {3}
    bf50:	62286465 	eorvs	r6, r8, #1694498816	; 0x65000000
    bf54:	2c657361 	stclcs	3, cr7, [r5], #-388	; 0xfffffe7c
    bf58:	4d656e4f 	stclmi	14, cr6, [r5, #-316]!	; 0xfffffec4
    bf5c:	00002942 	andeq	r2, r0, r2, asr #18
    bf60:	6d656d21 	stclvs	13, cr6, [r5, #-132]!	; 0xffffff7c
    bf64:	63656863 	cmnvs	r5, #6488064	; 0x630000
    bf68:	72745f6b 	rsbsvc	r5, r4, #428	; 0x1ac
    bf6c:	655f7061 	ldrbvs	r7, [pc, #-97]	; bf13 <__FUNCTION__.4628+0x48b>
    bf70:	6c62616e 	stfvse	f6, [r2], #-440	; 0xfffffe48
    bf74:	29286465 	stmdbcs	r8!, {r0, r2, r5, r6, sl, sp, lr}
    bf78:	00000000 	andeq	r0, r0, r0
    bf7c:	636d656d 	cmnvs	sp, #457179136	; 0x1b400000
    bf80:	6b636568 	blvs	18e5528 <__bss_end__+0x18d8d48>
    bf84:	6172745f 	cmnvs	r2, pc, asr r4
    bf88:	6e655f70 	mcrvs	15, 3, r5, cr5, cr0, {3}
    bf8c:	656c6261 	strbvs	r6, [ip, #-609]!	; 0x261
    bf90:	00292864 	eoreq	r2, r9, r4, ror #16

0000bf94 <__FUNCTION__.4639>:
    bf94:	6c756166 	ldfvse	f6, [r5], #-408	; 0xfffffe68
    bf98:	78655f74 	stmdavc	r5!, {r2, r4, r5, r6, r8, r9, sl, fp, ip, lr}^
    bf9c:	74636570 	strbtvc	r6, [r3], #-1392	; 0x570
    bfa0:	00006465 	andeq	r6, r0, r5, ror #8

0000bfa4 <__FUNCTION__.4692>:
    bfa4:	61746164 	cmnvs	r4, r4, ror #2
    bfa8:	6f62615f 	svcvs	0x0062615f
    bfac:	765f7472 			; <UNDEFINED> instruction: 0x765f7472
    bfb0:	6f746365 	svcvs	0x00746365
    bfb4:	00000072 	andeq	r0, r0, r2, ror r0

0000bfb8 <__FUNCTION__.4715>:
    bfb8:	65746e69 	ldrbvs	r6, [r4, #-3689]!	; 0xe69
    bfbc:	70757272 	rsbsvc	r7, r5, r2, ror r2
    bfc0:	65765f74 	ldrbvs	r5, [r6, #-3956]!	; 0xf74
    bfc4:	726f7463 	rsbvc	r7, pc, #1660944384	; 0x63000000
    bfc8:	00000000 	andeq	r0, r0, r0

0000bfcc <__FUNCTION__.4720>:
    bfcc:	636d656d 	cmnvs	sp, #457179136	; 0x1b400000
    bfd0:	6b636568 	blvs	18e5578 <__bss_end__+0x18d8d98>
    bfd4:	696e695f 	stmdbvs	lr!, {r0, r1, r2, r3, r4, r6, r8, fp, sp, lr}^
    bfd8:	00000074 	andeq	r0, r0, r4, ror r0

0000bfdc <__FUNCTION__.4725>:
    bfdc:	636d656d 	cmnvs	sp, #457179136	; 0x1b400000
    bfe0:	6b636568 	blvs	18e5588 <__bss_end__+0x18d8da8>
    bfe4:	006e6f5f 	rsbeq	r6, lr, pc, asr pc

0000bfe8 <__FUNCTION__.4729>:
    bfe8:	636d656d 	cmnvs	sp, #457179136	; 0x1b400000
    bfec:	6b636568 	blvs	18e5594 <__bss_end__+0x18d8db4>
    bff0:	66666f5f 	uqsaxvs	r6, r6, pc	; <UNPREDICTABLE>
    bff4:	00000000 	andeq	r0, r0, r0

0000bff8 <__FUNCTION__.4733>:
    bff8:	636d656d 	cmnvs	sp, #457179136	; 0x1b400000
    bffc:	6b636568 	blvs	18e55a4 <__bss_end__+0x18d8dc4>
    c000:	70616d5f 	rsbvc	r6, r1, pc, asr sp
    c004:	00000000 	andeq	r0, r0, r0

0000c008 <__FUNCTION__.4737>:
    c008:	636d656d 	cmnvs	sp, #457179136	; 0x1b400000
    c00c:	6b636568 	blvs	18e55b4 <__bss_end__+0x18d8dd4>
    c010:	6172745f 	cmnvs	r2, pc, asr r4
    c014:	00006b63 	andeq	r6, r0, r3, ror #22

0000c018 <__FUNCTION__.4466>:
    c018:	73746962 	cmnvc	r4, #1605632	; 0x188000
    c01c:	7465675f 	strbtvc	r6, [r5], #-1887	; 0x75f
    c020:	00000000 	andeq	r0, r0, r0

0000c024 <__FUNCTION__.4748>:
    c024:	636d656d 	cmnvs	sp, #457179136	; 0x1b400000
    c028:	6b636568 	blvs	18e55d0 <__bss_end__+0x18d8df0>
    c02c:	6172745f 	cmnvs	r2, pc, asr r4
    c030:	69645f70 	stmdbvs	r4!, {r4, r5, r6, r8, r9, sl, fp, ip, lr}^
    c034:	6c626173 	stfvse	f6, [r2], #-460	; 0xfffffe34
    c038:	00000065 	andeq	r0, r0, r5, rrx

0000c03c <__FUNCTION__.4648>:
    c03c:	5f6d6f64 	svcpl	0x006d6f64
    c040:	6d726570 	cfldr64vs	mvdx6, [r2, #-448]!	; 0xfffffe40
    c044:	7465735f 	strbtvc	r7, [r5], #-863	; 0x35f
    c048:	00000000 	andeq	r0, r0, r0

0000c04c <__FUNCTION__.4752>:
    c04c:	636d656d 	cmnvs	sp, #457179136	; 0x1b400000
    c050:	6b636568 	blvs	18e55f8 <__bss_end__+0x18d8e18>
    c054:	6172745f 	cmnvs	r2, pc, asr r4
    c058:	6e655f70 	mcrvs	15, 3, r5, cr5, cr0, {3}
    c05c:	656c6261 	strbvs	r6, [ip, #-609]!	; 0x261
    c060:	00000000 	andeq	r0, r0, r0

0000c064 <__FUNCTION__.4249>:
    c064:	74696d65 	strbtvc	r6, [r9], #-3429	; 0xd65
    c068:	00000000 	andeq	r0, r0, r0

0000c06c <__FUNCTION__.4197>:
    c06c:	5f697072 	svcpl	0x00697072
    c070:	5f746573 	svcpl	0x00746573
    c074:	7074756f 	rsbsvc	r7, r4, pc, ror #10
    c078:	00007475 	andeq	r7, r0, r5, ror r4

0000c07c <__FUNCTION__.4272>:
    c07c:	705f6176 	subsvc	r6, pc, r6, ror r1	; <UNPREDICTABLE>
    c080:	746e6972 	strbtvc	r6, [lr], #-2418	; 0x972
    c084:	0000006b 	andeq	r0, r0, fp, rrx
    c088:	6362696c 	cmnvs	r2, #108, 18	; 0x1b0000
    c08c:	2d61762f 	stclcs	6, cr7, [r1, #-188]!	; 0xffffff44
    c090:	6e697270 	mcrvs	2, 3, r7, cr9, cr0, {3}
    c094:	632e6b74 	teqvs	lr, #116, 22	; 0x1d000
    c098:	00000000 	andeq	r0, r0, r0
    c09c:	33323130 	teqcc	r2, #48, 2
    c0a0:	37363534 			; <UNDEFINED> instruction: 0x37363534
    c0a4:	00003938 	andeq	r3, r0, r8, lsr r9
    c0a8:	33323130 	teqcc	r2, #48, 2
    c0ac:	37363534 			; <UNDEFINED> instruction: 0x37363534
    c0b0:	62613938 	rsbvs	r3, r1, #56, 18	; 0xe0000
    c0b4:	66656463 	strbtvs	r6, [r5], -r3, ror #8
    c0b8:	00000000 	andeq	r0, r0, r0
    c0bc:	00003130 	andeq	r3, r0, r0, lsr r1
    c0c0:	63747570 	cmnvs	r4, #112, 10	; 0x1c000000
    c0c4:	0070665f 	rsbseq	r6, r0, pc, asr r6
    c0c8:	74646977 	strbtvc	r6, [r4], #-2423	; 0x977
    c0cc:	203c2068 	eorscs	r2, ip, r8, rrx
    c0d0:	00003233 	andeq	r3, r0, r3, lsr r2
    c0d4:	494e4150 	stmdbmi	lr, {r4, r6, r8, lr}^
    c0d8:	73253a43 	teqvc	r5, #274432	; 0x43000
    c0dc:	3a73253a 	bcc	1cd55cc <__bss_end__+0x1cc8dec>
    c0e0:	663a6425 	ldrtvs	r6, [sl], -r5, lsr #8
    c0e4:	74616f6c 	strbtvc	r6, [r1], #-3948	; 0xf6c
    c0e8:	746f6e20 	strbtvc	r6, [pc], #-3616	; c0f0 <__FUNCTION__.4272+0x74>
    c0ec:	616e6520 	cmnvs	lr, r0, lsr #10
    c0f0:	64656c62 	strbtvs	r6, [r5], #-3170	; 0xc62
    c0f4:	0a212121 	beq	854580 <__bss_end__+0x847da0>
    c0f8:	00000000 	andeq	r0, r0, r0
    c0fc:	6e697270 	mcrvs	2, 3, r7, cr9, cr0, {3}
    c100:	203a6b74 	eorscs	r6, sl, r4, ror fp
    c104:	20746f6e 	rsbscs	r6, r4, lr, ror #30
    c108:	646e6168 	strbtvs	r6, [lr], #-360	; 0x168
    c10c:	676e696c 	strbvs	r6, [lr, -ip, ror #18]!
    c110:	65707320 	ldrbvs	r7, [r0, #-800]!	; 0x320
    c114:	69666963 	stmdbvs	r6!, {r0, r1, r5, r6, r8, fp, sp, lr}^
    c118:	27207265 	strcs	r7, [r0, -r5, ror #4]!
    c11c:	20276325 	eorcs	r6, r7, r5, lsr #6
    c120:	63736128 	cmnvs	r3, #40, 2
    c124:	253d6969 	ldrcs	r6, [sp, #-2409]!	; 0x969
    c128:	000a2964 	andeq	r2, sl, r4, ror #18
    c12c:	494e4150 	stmdbmi	lr, {r4, r6, r8, lr}^
    c130:	73253a43 	teqvc	r5, #274432	; 0x43000
    c134:	3a73253a 	bcc	1cd5624 <__bss_end__+0x1cc8e44>
    c138:	703a6425 	eorsvc	r6, sl, r5, lsr #8
    c13c:	746e6972 	strbtvc	r6, [lr], #-2418	; 0x972
    c140:	7265206b 	rsbvc	r2, r5, #107	; 0x6b
    c144:	0a726f72 	beq	1ca7f14 <__bss_end__+0x1c9b734>
    c148:	0000000a 	andeq	r0, r0, sl
    c14c:	454e4f44 	strbmi	r4, [lr, #-3908]	; 0xf44
    c150:	0a212121 	beq	8545dc <__bss_end__+0x847dfc>
    c154:	00000000 	andeq	r0, r0, r0

0000c158 <__FUNCTION__.4220>:
    c158:	74736166 	ldrbtvc	r6, [r3], #-358	; 0x166
    c15c:	746e695f 	strbtvc	r6, [lr], #-2399	; 0x95f
    c160:	75727265 	ldrbvc	r7, [r2, #-613]!	; 0x265
    c164:	765f7470 			; <UNDEFINED> instruction: 0x765f7470
    c168:	6f746365 	svcvs	0x00746365
    c16c:	00000072 	andeq	r0, r0, r2, ror r0
    c170:	494e4150 	stmdbmi	lr, {r4, r6, r8, lr}^
    c174:	73253a43 	teqvc	r5, #274432	; 0x43000
    c178:	3a73253a 	bcc	1cd5668 <__bss_end__+0x1cc8e88>
    c17c:	453a6425 	ldrmi	r6, [sl, #-1061]!	; 0x425
    c180:	524f5252 	subpl	r5, pc, #536870917	; 0x20000005
    c184:	6e75203a 	mrcvs	0, 3, r2, cr5, cr10, {1}
    c188:	646e6168 	strbtvs	r6, [lr], #-360	; 0x168
    c18c:	2064656c 	rsbcs	r6, r4, ip, ror #10
    c190:	65637865 	strbvs	r7, [r3, #-2149]!	; 0x865
    c194:	6f697470 	svcvs	0x00697470
    c198:	253c206e 	ldrcs	r2, [ip, #-110]!	; 0x6e
    c19c:	61203e73 	teqvs	r0, r3, ror lr
    c1a0:	43502074 	cmpmi	r0, #116	; 0x74
    c1a4:	0a78253d 	beq	1e156a0 <__bss_end__+0x1e08ec0>
    c1a8:	0000000a 	andeq	r0, r0, sl
    c1ac:	66617473 			; <UNDEFINED> instruction: 0x66617473
    c1b0:	72732d66 	rsbsvc	r2, r3, #6528	; 0x1980
    c1b4:	65642f63 	strbvs	r2, [r4, #-3939]!	; 0xf63
    c1b8:	6c756166 	ldfvse	f6, [r5], #-408	; 0xfffffe68
    c1bc:	61682d74 	smcvs	33492	; 0x82d4
    c1c0:	656c646e 	strbvs	r6, [ip, #-1134]!	; 0x46e
    c1c4:	61662d72 	smcvs	25298	; 0x62d2
    c1c8:	632e7473 	teqvs	lr, #1929379840	; 0x73000000
    c1cc:	00000000 	andeq	r0, r0, r0
    c1d0:	74736166 	ldrbtvc	r6, [r3], #-358	; 0x166
    c1d4:	00000000 	andeq	r0, r0, r0

0000c1d8 <__FUNCTION__.4220>:
    c1d8:	66657270 			; <UNDEFINED> instruction: 0x66657270
    c1dc:	68637465 	stmdavs	r3!, {r0, r2, r5, r6, sl, ip, sp, lr}^
    c1e0:	6f62615f 	svcvs	0x0062615f
    c1e4:	765f7472 			; <UNDEFINED> instruction: 0x765f7472
    c1e8:	6f746365 	svcvs	0x00746365
    c1ec:	00000072 	andeq	r0, r0, r2, ror r0
    c1f0:	66617473 			; <UNDEFINED> instruction: 0x66617473
    c1f4:	72732d66 	rsbsvc	r2, r3, #6528	; 0x1980
    c1f8:	65642f63 	strbvs	r2, [r4, #-3939]!	; 0xf63
    c1fc:	6c756166 	ldfvse	f6, [r5], #-408	; 0xfffffe68
    c200:	61682d74 	smcvs	33492	; 0x82d4
    c204:	656c646e 	strbvs	r6, [ip, #-1134]!	; 0x46e
    c208:	72702d72 	rsbsvc	r2, r0, #7296	; 0x1c80
    c20c:	74656665 	strbtvc	r6, [r5], #-1637	; 0x665
    c210:	632e6863 	teqvs	lr, #6488064	; 0x630000
    c214:	00000000 	andeq	r0, r0, r0
    c218:	66657270 			; <UNDEFINED> instruction: 0x66657270
    c21c:	68637465 	stmdavs	r3!, {r0, r2, r5, r6, sl, ip, sp, lr}^
    c220:	6f626120 	svcvs	0x00626120
    c224:	00007472 	andeq	r7, r0, r2, ror r4

0000c228 <__FUNCTION__.4220>:
    c228:	65736572 	ldrbvs	r6, [r3, #-1394]!	; 0x572
    c22c:	65765f74 	ldrbvs	r5, [r6, #-3956]!	; 0xf74
    c230:	726f7463 	rsbvc	r7, pc, #1660944384	; 0x63000000
    c234:	00000000 	andeq	r0, r0, r0
    c238:	66617473 			; <UNDEFINED> instruction: 0x66617473
    c23c:	72732d66 	rsbsvc	r2, r3, #6528	; 0x1980
    c240:	65642f63 	strbvs	r2, [r4, #-3939]!	; 0xf63
    c244:	6c756166 	ldfvse	f6, [r5], #-408	; 0xfffffe68
    c248:	61682d74 	smcvs	33492	; 0x82d4
    c24c:	656c646e 	strbvs	r6, [ip, #-1134]!	; 0x46e
    c250:	65722d72 	ldrbvs	r2, [r2, #-3442]!	; 0xd72
    c254:	2e746573 	mrccs	5, 3, r6, cr4, cr3, {3}
    c258:	00000063 	andeq	r0, r0, r3, rrx
    c25c:	65736572 	ldrbvs	r6, [r3, #-1394]!	; 0x572
    c260:	00000074 	andeq	r0, r0, r4, ror r0

0000c264 <__FUNCTION__.4220>:
    c264:	65646e75 	strbvs	r6, [r4, #-3701]!	; 0xe75
    c268:	656e6966 	strbvs	r6, [lr, #-2406]!	; 0x966
    c26c:	6e695f64 	cdpvs	15, 6, cr5, cr9, cr4, {3}
    c270:	75727473 	ldrbvc	r7, [r2, #-1139]!	; 0x473
    c274:	6f697463 	svcvs	0x00697463
    c278:	65765f6e 	ldrbvs	r5, [r6, #-3950]!	; 0xf6e
    c27c:	726f7463 	rsbvc	r7, pc, #1660944384	; 0x63000000
    c280:	00000000 	andeq	r0, r0, r0
    c284:	66617473 			; <UNDEFINED> instruction: 0x66617473
    c288:	72732d66 	rsbsvc	r2, r3, #6528	; 0x1980
    c28c:	65642f63 	strbvs	r2, [r4, #-3939]!	; 0xf63
    c290:	6c756166 	ldfvse	f6, [r5], #-408	; 0xfffffe68
    c294:	61682d74 	smcvs	33492	; 0x82d4
    c298:	656c646e 	strbvs	r6, [ip, #-1134]!	; 0x46e
    c29c:	6e752d72 	mrcvs	13, 3, r2, cr5, cr2, {3}
    c2a0:	69666564 	stmdbvs	r6!, {r2, r5, r6, r8, sl, sp, lr}^
    c2a4:	2d64656e 	cfstr64cs	mvdx6, [r4, #-440]!	; 0xfffffe48
    c2a8:	74736e69 	ldrbtvc	r6, [r3], #-3689	; 0xe69
    c2ac:	0000632e 	andeq	r6, r0, lr, lsr #6
    c2b0:	65646e75 	strbvs	r6, [r4, #-3701]!	; 0xe75
    c2b4:	656e6966 	strbvs	r6, [lr, #-2406]!	; 0x966
    c2b8:	6e692064 	cdpvs	0, 6, cr2, cr9, cr4, {3}
    c2bc:	00007473 	andeq	r7, r0, r3, ror r4

0000c2c0 <__FUNCTION__.4241>:
    c2c0:	6c616d6b 	stclvs	13, cr6, [r1], #-428	; 0xfffffe54
    c2c4:	5f636f6c 	svcpl	0x00636f6c
    c2c8:	74696e69 	strbtvc	r6, [r9], #-3689	; 0xe69
    c2cc:	7465735f 	strbtvc	r7, [r5], #-863	; 0x35f
    c2d0:	6174735f 	cmnvs	r4, pc, asr r3
    c2d4:	00007472 	andeq	r7, r0, r2, ror r4

0000c2d8 <__FUNCTION__.4245>:
    c2d8:	6c616d6b 	stclvs	13, cr6, [r1], #-428	; 0xfffffe54
    c2dc:	00636f6c 	rsbeq	r6, r3, ip, ror #30

0000c2e0 <__FUNCTION__.4257>:
    c2e0:	6c616d6b 	stclvs	13, cr6, [r1], #-428	; 0xfffffe54
    c2e4:	5f636f6c 	svcpl	0x00636f6c
    c2e8:	67696c61 	strbvs	r6, [r9, -r1, ror #24]!
    c2ec:	0064656e 	rsbeq	r6, r4, lr, ror #10
    c2f0:	6c616d6b 	stclvs	13, cr6, [r1], #-428	; 0xfffffe54
    c2f4:	2e636f6c 	cdpcs	15, 6, cr6, cr3, cr12, {3}
    c2f8:	00000063 	andeq	r0, r0, r3, rrx
    c2fc:	72646461 	rsbvc	r6, r4, #1627389952	; 0x61000000
    c300:	68203e20 	stmdavs	r0!, {r5, r9, sl, fp, ip, sp}
    c304:	00706165 	rsbseq	r6, r0, r5, ror #2
    c308:	00007a73 	andeq	r7, r0, r3, ror sl
    c30c:	4f525245 	svcmi	0x00525245
    c310:	73253a52 	teqvc	r5, #335872	; 0x52000
    c314:	3a73253a 	bcc	1cd5804 <__bss_end__+0x1cc9024>
    c318:	203a6425 	eorscs	r6, sl, r5, lsr #8
    c31c:	534c4146 	movtpl	r4, #49478	; 0xc146
    c320:	253c2845 	ldrcs	r2, [ip, #-2117]!	; 0x845
    c324:	3a293e73 	bcc	a5bcf8 <__bss_end__+0xa4f518>
    c328:	73736120 	cmnvc	r3, #32, 2
    c32c:	6e696d75 	mcrvs	13, 3, r6, cr9, cr5, {3}
    c330:	6f702067 	svcvs	0x00702067
    c334:	20726577 	rsbscs	r6, r2, r7, ror r5
    c338:	7420666f 	strtvc	r6, [r0], #-1647	; 0x66f
    c33c:	000a6f77 	andeq	r6, sl, r7, ror pc
    c340:	61282828 	teqvs	r8, r8, lsr #16
    c344:	6e67696c 	cdpvs	9, 6, cr6, cr7, cr12, {3}
    c348:	746e656d 	strbtvc	r6, [lr], #-1389	; 0x56d
    c34c:	282d2629 	stmdacs	sp!, {r0, r3, r5, r9, sl, sp}
    c350:	67696c61 	strbvs	r6, [r9, -r1, ror #24]!
    c354:	6e656d6e 	cdpvs	13, 6, cr6, cr5, cr14, {3}
    c358:	20292974 	eorcs	r2, r9, r4, ror r9
    c35c:	28203d3d 	stmdacs	r0!, {r0, r2, r3, r4, r5, r8, sl, fp, ip, sp}
    c360:	67696c61 	strbvs	r6, [r9, -r1, ror #24]!
    c364:	6e656d6e 	cdpvs	13, 6, cr6, cr5, cr14, {3}
    c368:	00292974 	eoreq	r2, r9, r4, ror r9
    c36c:	4f525245 	svcmi	0x00525245
    c370:	73253a52 	teqvc	r5, #335872	; 0x52000
    c374:	3a73253a 	bcc	1cd5864 <__bss_end__+0x1cc9084>
    c378:	203a6425 	eorscs	r6, sl, r5, lsr #8
    c37c:	534c4146 	movtpl	r4, #49478	; 0xc146
    c380:	253c2845 	ldrcs	r2, [ip, #-2117]!	; 0x845
    c384:	3a293e73 	bcc	a5bd58 <__bss_end__+0xa4f578>
    c388:	706d6920 	rsbvc	r6, sp, r0, lsr #18
    c38c:	6973736f 	ldmdbvs	r3!, {r0, r1, r2, r3, r5, r6, r8, r9, ip, sp, lr}^
    c390:	0a656c62 	beq	1967520 <__bss_end__+0x195ad40>
    c394:	00000000 	andeq	r0, r0, r0
    c398:	68282828 	stmdavs	r8!, {r3, r5, fp, sp}
    c39c:	20262029 	eorcs	r2, r6, r9, lsr #32
    c3a0:	79742828 	ldmdbvc	r4!, {r3, r5, fp, sp}^
    c3a4:	666f6570 			; <UNDEFINED> instruction: 0x666f6570
    c3a8:	29296828 	stmdbcs	r9!, {r3, r5, fp, sp, lr}
    c3ac:	696c6128 	stmdbvs	ip!, {r3, r5, r8, sp, lr}^
    c3b0:	656d6e67 	strbvs	r6, [sp, #-3687]!	; 0xe67
    c3b4:	2029746e 	eorcs	r7, r9, lr, ror #8
    c3b8:	2931202d 	ldmdbcs	r1!, {r0, r2, r3, r5, sp}
    c3bc:	3d3d2029 	ldccc	0, cr2, [sp, #-164]!	; 0xffffff5c
    c3c0:	00293020 	eoreq	r3, r9, r0, lsr #32

Disassembly of section .bss:

0000c3c4 <__bss_start__>:
    c3c4:	00000000 	andeq	r0, r0, r0

0000c3c8 <pt_st>:
    c3c8:	00000000 	andeq	r0, r0, r0

0000c3cc <last_fault>:
	...

0000c3d8 <mmu_resume_p>:
    c3d8:	00000000 	andeq	r0, r0, r0

0000c3dc <pt>:
    c3dc:	00000000 	andeq	r0, r0, r0

0000c3e0 <buf.4189>:
	...

Disassembly of section .ARM.attributes:

00000000 <.ARM.attributes>:
   0:	00002a41 	andeq	r2, r0, r1, asr #20
   4:	61656100 	cmnvs	r5, r0, lsl #2
   8:	01006962 	tsteq	r0, r2, ror #18
   c:	00000020 	andeq	r0, r0, r0, lsr #32
  10:	4b5a3605 	blmi	168d82c <__bss_end__+0x168104c>
  14:	08070600 	stmdaeq	r7, {r9, sl}
  18:	12010901 	andne	r0, r1, #16384	; 0x4000
  1c:	15011404 	strne	r1, [r1, #-1028]	; 0x404
  20:	18031701 	stmdane	r3, {r0, r8, r9, sl, ip}
  24:	22011a01 	andcs	r1, r1, #4096	; 0x1000
  28:	Address 0x0000000000000028 is out of bounds.


Disassembly of section .comment:

00000000 <.comment>:
   0:	3a434347 	bcc	10d0d24 <__bss_end__+0x10c4544>
   4:	4e472820 	cdpmi	8, 4, cr2, cr7, cr0, {1}
   8:	34202955 	strtcc	r2, [r0], #-2389	; 0x955
   c:	332e382e 	teqcc	lr, #3014656	; 0x2e0000
  10:	43434700 	movtmi	r4, #14080	; 0x3700
  14:	3128203a 	teqcc	r8, sl, lsr r0
  18:	2e363a35 	mrccs	10, 1, r3, cr6, cr5, {1}
  1c:	2b312e33 	blcs	c4b8f0 <__bss_end__+0xc3f110>
  20:	326e7673 	rsbcc	r7, lr, #120586240	; 0x7300000
  24:	33303335 	teqcc	r0, #-738197504	; 0xd4000000
  28:	62312d39 	eorsvs	r2, r1, #3648	; 0xe40
  2c:	646c6975 	strbtvs	r6, [ip], #-2421	; 0x975
  30:	36202931 			; <UNDEFINED> instruction: 0x36202931
  34:	312e332e 	teqcc	lr, lr, lsr #6
  38:	31303220 	teqcc	r0, r0, lsr #4
  3c:	32363037 	eorscc	r3, r6, #55	; 0x37
  40:	Address 0x0000000000000040 is out of bounds.


Disassembly of section .debug_info:

00000000 <.debug_info>:
       0:	0000026a 	andeq	r0, r0, sl, ror #4
       4:	00000004 	andeq	r0, r0, r4
       8:	01040000 	mrseq	r0, (UNDEF: 4)
       c:	0000009b 	muleq	r0, fp, r0
      10:	00008d01 	andeq	r8, r0, r1, lsl #26
      14:	00003200 	andeq	r3, r0, r0, lsl #4
      18:	00802000 	addeq	r2, r0, r0
      1c:	0000e400 	andeq	lr, r0, r0, lsl #8
      20:	00000000 	andeq	r0, r0, r0
      24:	05040200 	streq	r0, [r4, #-512]	; 0x200
      28:	00746e69 	rsbseq	r6, r4, r9, ror #28
      2c:	25070403 	strcs	r0, [r7, #-1027]	; 0x403
      30:	03000000 	movweq	r0, #0
      34:	010a0601 	tsteq	sl, r1, lsl #12
      38:	02030000 	andeq	r0, r3, #0
      3c:	00017705 	andeq	r7, r1, r5, lsl #14
      40:	05040300 	streq	r0, [r4, #-768]	; 0x300
      44:	00000005 	andeq	r0, r0, r5
      48:	00050803 	andeq	r0, r5, r3, lsl #16
      4c:	03000000 	movweq	r0, #0
      50:	01080801 	tsteq	r8, r1, lsl #16
      54:	02030000 	andeq	r0, r3, #0
      58:	00014607 	andeq	r4, r1, r7, lsl #12
      5c:	07040300 	streq	r0, [r4, -r0, lsl #6]
      60:	00000020 	andeq	r0, r0, r0, lsr #32
      64:	1b070803 	blne	1c2078 <__bss_end__+0x1b5898>
      68:	03000000 	movweq	r0, #0
      6c:	01810704 	orreq	r0, r1, r4, lsl #14
      70:	01030000 	mrseq	r0, (UNDEF: 3)
      74:	00011108 	andeq	r1, r1, r8, lsl #2
      78:	7f040400 	svcvc	0x00040400
      7c:	05000000 	streq	r0, [r0, #-0]
      80:	00000072 	andeq	r0, r0, r2, ror r0
      84:	00007206 	andeq	r7, r0, r6, lsl #4
      88:	00009400 	andeq	r9, r0, r0, lsl #8
      8c:	006b0700 	rsbeq	r0, fp, r0, lsl #14
      90:	00070000 	andeq	r0, r7, r0
      94:	00015908 	andeq	r5, r1, r8, lsl #18
      98:	25040100 	strcs	r0, [r4, #-256]	; 0x100
      9c:	20000000 	andcs	r0, r0, r0
      a0:	0c000080 	stceq	0, cr0, [r0], {128}	; 0x80
      a4:	01000000 	mrseq	r0, (UNDEF: 0)
      a8:	0132099c 			; <UNDEFINED> instruction: 0x0132099c
      ac:	08010000 	stmdaeq	r1, {}	; <UNPREDICTABLE>
      b0:	0000802c 	andeq	r8, r0, ip, lsr #32
      b4:	000000d8 	ldrdeq	r0, [r0], -r8
      b8:	02199c01 	andseq	r9, r9, #256	; 0x100
      bc:	0e0a0000 	cdpeq	0, 0, cr0, cr10, cr0, {0}
      c0:	19000000 	stmdbne	r0, {}	; <UNPREDICTABLE>
      c4:	05000002 	streq	r0, [r0, #-2]
      c8:	00b19c03 	adcseq	r9, r1, r3, lsl #24
      cc:	00780b00 	rsbseq	r0, r8, r0, lsl #22
      d0:	00250a01 	eoreq	r0, r5, r1, lsl #20
      d4:	00000000 	andeq	r0, r0, r0
      d8:	380c0000 	stmdacc	ip, {}	; <UNPREDICTABLE>
      dc:	1e000080 	cdpne	0, 0, cr0, cr0, cr0, {4}
      e0:	0c000002 	stceq	0, cr0, [r0], {2}
      e4:	00008044 	andeq	r8, r0, r4, asr #32
      e8:	00000229 	andeq	r0, r0, r9, lsr #4
      ec:	0080600d 	addeq	r6, r0, sp
      f0:	00023000 	andeq	r3, r2, r0
      f4:	00012400 	andeq	r2, r1, r0, lsl #8
      f8:	53010e00 	movwpl	r0, #7680	; 0x1e00
      fc:	010e3901 	tsteq	lr, r1, lsl #18
     100:	9c030552 	cfstr32ls	mvfx0, [r3], {82}	; 0x52
     104:	0e0000b1 	mcreq	0, 0, r0, cr0, cr1, {5}
     108:	03055101 	movweq	r5, #20737	; 0x5101
     10c:	0000b154 	andeq	fp, r0, r4, asr r1
     110:	0550010e 	ldrbeq	r0, [r0, #-270]	; 0x10e
     114:	00b14003 	adcseq	r4, r1, r3
     118:	7d020e00 	stcvc	14, cr0, [r2, #-0]
     11c:	64030500 	strvs	r0, [r3], #-1280	; 0x500
     120:	000000b1 	strheq	r0, [r0], -r1
     124:	0080640c 	addeq	r6, r0, ip, lsl #8
     128:	00024600 	andeq	r4, r2, r0, lsl #12
     12c:	806c0d00 	rsbhi	r0, ip, r0, lsl #26
     130:	024d0000 	subeq	r0, sp, #0
     134:	01440000 	mrseq	r0, (UNDEF: 68)
     138:	010e0000 	mrseq	r0, (UNDEF: 14)
     13c:	20030550 	andcs	r0, r3, r0, asr r5
     140:	00000080 	andeq	r0, r0, r0, lsl #1
     144:	00807c0c 	addeq	r7, r0, ip, lsl #24
     148:	00022900 	andeq	r2, r2, r0, lsl #18
     14c:	80980d00 	addshi	r0, r8, r0, lsl #26
     150:	02300000 	eorseq	r0, r0, #0
     154:	01850000 	orreq	r0, r5, r0
     158:	010e0000 	mrseq	r0, (UNDEF: 14)
     15c:	0e3b0153 	mrceq	1, 1, r0, cr11, cr3, {2}
     160:	03055201 	movweq	r5, #20993	; 0x5201
     164:	0000b19c 	muleq	r0, ip, r1
     168:	0551010e 	ldrbeq	r0, [r1, #-270]	; 0x10e
     16c:	00b15403 	adcseq	r5, r1, r3, lsl #8
     170:	50010e00 	andpl	r0, r1, r0, lsl #28
     174:	b1400305 	cmplt	r0, r5, lsl #6
     178:	020e0000 	andeq	r0, lr, #0
     17c:	0305007d 	movweq	r0, #20605	; 0x507d
     180:	0000b178 	andeq	fp, r0, r8, ror r1
     184:	809c0c00 	addshi	r0, ip, r0, lsl #24
     188:	02460000 	subeq	r0, r6, #0
     18c:	a00c0000 	andge	r0, ip, r0
     190:	1e000080 	cdpne	0, 0, cr0, cr0, cr0, {4}
     194:	0c000002 	stceq	0, cr0, [r0], {2}
     198:	000080ac 	andeq	r8, r0, ip, lsr #1
     19c:	00000229 	andeq	r0, r0, r9, lsr #4
     1a0:	0080c80d 	addeq	ip, r0, sp, lsl #16
     1a4:	00023000 	andeq	r3, r2, r0
     1a8:	0001d800 	andeq	sp, r1, r0, lsl #16
     1ac:	53010e00 	movwpl	r0, #7680	; 0x1e00
     1b0:	010e3c01 	tsteq	lr, r1, lsl #24
     1b4:	9c030552 	cfstr32ls	mvfx0, [r3], {82}	; 0x52
     1b8:	0e0000b1 	mcreq	0, 0, r0, cr0, cr1, {5}
     1bc:	03055101 	movweq	r5, #20737	; 0x5101
     1c0:	0000b154 	andeq	fp, r0, r4, asr r1
     1c4:	0550010e 	ldrbeq	r0, [r0, #-270]	; 0x10e
     1c8:	00b14003 	adcseq	r4, r1, r3
     1cc:	7d020e00 	stcvc	14, cr0, [r2, #-0]
     1d0:	64030500 	strvs	r0, [r3], #-1280	; 0x500
     1d4:	000000b1 	strheq	r0, [r0], -r1
     1d8:	0080cc0c 	addeq	ip, r0, ip, lsl #24
     1dc:	00024600 	andeq	r4, r2, r0, lsl #12
     1e0:	80d40d00 	sbcshi	r0, r4, r0, lsl #26
     1e4:	02300000 	eorseq	r0, r0, #0
     1e8:	01f80000 	mvnseq	r0, r0
     1ec:	010e0000 	mrseq	r0, (UNDEF: 14)
     1f0:	88030550 	stmdahi	r3, {r4, r6, r8, sl}
     1f4:	000000b1 	strheq	r0, [r0], -r1
     1f8:	0080dc0d 	addeq	sp, r0, sp, lsl #24
     1fc:	00023000 	andeq	r3, r2, r0
     200:	00020f00 	andeq	r0, r2, r0, lsl #30
     204:	50010e00 	andpl	r0, r1, r0, lsl #28
     208:	b1900305 	orrslt	r0, r0, r5, lsl #6
     20c:	0c000000 	stceq	0, cr0, [r0], {-0}
     210:	000080e0 	andeq	r8, r0, r0, ror #1
     214:	00000246 	andeq	r0, r0, r6, asr #4
     218:	00840500 	addeq	r0, r4, r0, lsl #10
     21c:	680f0000 	stmdavs	pc, {}	; <UNPREDICTABLE>
     220:	04000001 	streq	r0, [r0], #-1
     224:	0000256c 	andeq	r2, r0, ip, ror #10
     228:	01161000 	tsteq	r6, r0
     22c:	1e020000 	cdpne	0, 0, cr0, cr2, cr0, {0}
     230:	000a5b11 	andeq	r5, sl, r1, lsl fp
     234:	25290200 	strcs	r0, [r9, #-512]!	; 0x200
     238:	46000000 	strmi	r0, [r0], -r0
     23c:	12000002 	andne	r0, r0, #2
     240:	00000079 	andeq	r0, r0, r9, ror r0
     244:	25100013 	ldrcs	r0, [r0, #-19]
     248:	02000001 	andeq	r0, r0, #1
     24c:	013a1165 	teqeq	sl, r5, ror #2
     250:	21030000 	mrscs	r0, (UNDEF: 3)
     254:	00000025 	andeq	r0, r0, r5, lsr #32
     258:	00000262 	andeq	r0, r0, r2, ror #4
     25c:	00026212 	andeq	r6, r2, r2, lsl r2
     260:	04040000 	streq	r0, [r4], #-0
     264:	00000268 	andeq	r0, r0, r8, ror #4
     268:	00002514 	andeq	r2, r0, r4, lsl r5
     26c:	154e0000 	strbne	r0, [lr, #-0]
     270:	00040000 	andeq	r0, r4, r0
     274:	0000010c 	andeq	r0, r0, ip, lsl #2
     278:	009b0104 	addseq	r0, fp, r4, lsl #2
     27c:	f3010000 	vhadd.u8	d0, d1, d0
     280:	32000001 	andcc	r0, r0, #1
     284:	48000000 	stmdami	r0, {}	; <UNPREDICTABLE>
     288:	dc000082 	stcle	0, cr0, [r0], {130}	; 0x82
     28c:	ca000008 	bgt	2b4 <__code_start__-0x7d4c>
     290:	02000000 	andeq	r0, r0, #0
     294:	6e690504 	cdpvs	5, 6, cr0, cr9, cr4, {0}
     298:	c1030074 	tstgt	r3, r4, ror r0
     29c:	03000001 	movweq	r0, #1
     2a0:	000037d4 	ldrdeq	r3, [r0], -r4
     2a4:	07040400 	streq	r0, [r4, -r0, lsl #8]
     2a8:	00000025 	andeq	r0, r0, r5, lsr #32
     2ac:	0a060104 	beq	1806c4 <__bss_end__+0x173ee4>
     2b0:	04000001 	streq	r0, [r0], #-1
     2b4:	01770502 	cmneq	r7, r2, lsl #10
     2b8:	04040000 	streq	r0, [r4], #-0
     2bc:	00000505 	andeq	r0, r0, r5, lsl #10
     2c0:	05080400 	streq	r0, [r8, #-1024]	; 0x400
     2c4:	00000000 	andeq	r0, r0, r0
     2c8:	08080104 	stmdaeq	r8, {r2, r8}
     2cc:	04000001 	streq	r0, [r0], #-1
     2d0:	01460702 	cmpeq	r6, r2, lsl #14
     2d4:	19030000 	stmdbne	r3, {}	; <UNPREDICTABLE>
     2d8:	04000004 	streq	r0, [r0], #-4
     2dc:	00007334 	andeq	r7, r0, r4, lsr r3
     2e0:	07040400 	streq	r0, [r4, -r0, lsl #8]
     2e4:	00000020 	andeq	r0, r0, r0, lsr #32
     2e8:	1b070804 	blne	1c2300 <__bss_end__+0x1b5b20>
     2ec:	04000000 	streq	r0, [r0], #-0
     2f0:	01810704 	orreq	r0, r1, r4, lsl #14
     2f4:	04050000 	streq	r0, [r5], #-0
     2f8:	11080104 	tstne	r8, r4, lsl #2
     2fc:	06000001 	streq	r0, [r0], -r1
     300:	00009704 	andeq	r9, r0, r4, lsl #14
     304:	008a0700 	addeq	r0, sl, r0, lsl #14
     308:	3b080000 	blcc	200310 <__bss_end__+0x1f3b30>
     30c:	04000004 	streq	r0, [r0], #-4
     310:	02572a05 	subseq	r2, r7, #20480	; 0x5000
     314:	01090000 	mrseq	r0, (UNDEF: 9)
     318:	05000004 	streq	r0, [r0, #-4]
     31c:	0000372c 	andeq	r3, r0, ip, lsr #14
     320:	1f010400 	svcne	0x00010400
     324:	020e0900 	andeq	r0, lr, #0, 18
     328:	2d050000 	stccs	0, cr0, [r5, #-0]
     32c:	00000037 	andeq	r0, r0, r7, lsr r0
     330:	001e0104 	andseq	r0, lr, r4, lsl #2
     334:	00050d09 	andeq	r0, r5, r9, lsl #26
     338:	372e0500 	strcc	r0, [lr, -r0, lsl #10]!
     33c:	04000000 	streq	r0, [r0], #-0
     340:	09001d01 	stmdbeq	r0, {r0, r8, sl, fp, ip}
     344:	000003c0 	andeq	r0, r0, r0, asr #7
     348:	00373105 	eorseq	r3, r7, r5, lsl #2
     34c:	01040000 	mrseq	r0, (UNDEF: 4)
     350:	7809001c 	stmdavc	r9, {r2, r3, r4}
     354:	05000004 	streq	r0, [r0, #-4]
     358:	00003732 	andeq	r3, r0, r2, lsr r7
     35c:	19030400 	stmdbne	r3, {sl}
     360:	01ea0900 	mvneq	r0, r0, lsl #18
     364:	33050000 	movwcc	r0, #20480	; 0x5000
     368:	00000037 	andeq	r0, r0, r7, lsr r0
     36c:	00180104 	andseq	r0, r8, r4, lsl #2
     370:	0003cc09 	andeq	ip, r3, r9, lsl #24
     374:	37340500 	ldrcc	r0, [r4, -r0, lsl #10]!
     378:	04000000 	streq	r0, [r0], #-0
     37c:	09001701 	stmdbeq	r0, {r0, r8, r9, sl, ip}
     380:	0000038c 	andeq	r0, r0, ip, lsl #7
     384:	00373505 	eorseq	r3, r7, r5, lsl #10
     388:	01040000 	mrseq	r0, (UNDEF: 4)
     38c:	460a0016 			; <UNDEFINED> instruction: 0x460a0016
     390:	37360500 	ldrcc	r0, [r6, -r0, lsl #10]!
     394:	04000000 	streq	r0, [r0], #-0
     398:	09001501 	stmdbeq	r0, {r0, r8, sl, ip}
     39c:	0000018a 	andeq	r0, r0, sl, lsl #3
     3a0:	00373705 	eorseq	r3, r7, r5, lsl #14
     3a4:	01040000 	mrseq	r0, (UNDEF: 4)
     3a8:	fe090014 	mcr2	0, 0, r0, cr9, cr4, {0}
     3ac:	05000001 	streq	r0, [r0, #-1]
     3b0:	00003738 	andeq	r3, r0, r8, lsr r7
     3b4:	13010400 	movwne	r0, #5120	; 0x1400
     3b8:	01da0900 	bicseq	r0, sl, r0, lsl #18
     3bc:	39050000 	stmdbcc	r5, {}	; <UNPREDICTABLE>
     3c0:	00000037 	andeq	r0, r0, r7, lsr r0
     3c4:	00120104 	andseq	r0, r2, r4, lsl #2
     3c8:	0002d609 	andeq	sp, r2, r9, lsl #12
     3cc:	373a0500 	ldrcc	r0, [sl, -r0, lsl #10]!
     3d0:	04000000 	streq	r0, [r0], #-0
     3d4:	0a001101 	beq	47e0 <__code_start__-0x3820>
     3d8:	0500344c 	streq	r3, [r0, #-1100]	; 0x44c
     3dc:	0000373b 	andeq	r3, r0, fp, lsr r7
     3e0:	10010400 	andne	r0, r1, r0, lsl #8
     3e4:	645f0a00 	ldrbvs	r0, [pc], #-2560	; 3ec <__code_start__-0x7c14>
     3e8:	3c050074 	stccc	0, cr0, [r5], {116}	; 0x74
     3ec:	00000037 	andeq	r0, r0, r7, lsr r0
     3f0:	000f0104 	andeq	r0, pc, r4, lsl #2
     3f4:	0004e509 	andeq	lr, r4, r9, lsl #10
     3f8:	373d0500 	ldrcc	r0, [sp, -r0, lsl #10]!
     3fc:	04000000 	streq	r0, [r0], #-0
     400:	0a000e01 	beq	3c0c <__code_start__-0x43f4>
     404:	0074695f 	rsbseq	r6, r4, pc, asr r9
     408:	00373e05 	eorseq	r3, r7, r5, lsl #28
     40c:	01040000 	mrseq	r0, (UNDEF: 4)
     410:	eb09000d 	bl	24044c <__bss_end__+0x233c6c>
     414:	05000004 	streq	r0, [r0, #-4]
     418:	0000373f 	andeq	r3, r0, pc, lsr r7
     41c:	0c010400 	cfstrseq	mvf0, [r1], {-0}
     420:	735f0a00 	cmpvc	pc, #0, 20
     424:	40050074 	andmi	r0, r5, r4, ror r0
     428:	00000037 	andeq	r0, r0, r7, lsr r0
     42c:	000b0104 	andeq	r0, fp, r4, lsl #2
     430:	0031460a 	eorseq	r4, r1, sl, lsl #12
     434:	00374105 	eorseq	r4, r7, r5, lsl #2
     438:	01040000 	mrseq	r0, (UNDEF: 4)
     43c:	0d09000a 	stceq	0, cr0, [r9, #-40]	; 0xffffffd8
     440:	05000004 	streq	r0, [r0, #-4]
     444:	00003742 	andeq	r3, r0, r2, asr #14
     448:	09010400 	stmdbeq	r1, {sl}
     44c:	04220900 	strteq	r0, [r2], #-2304	; 0x900
     450:	43050000 	movwmi	r0, #20480	; 0x5000
     454:	00000037 	andeq	r0, r0, r7, lsr r0
     458:	00080104 	andeq	r0, r8, r4, lsl #2
     45c:	00038009 	andeq	r8, r3, r9
     460:	37450500 	strbcc	r0, [r5, -r0, lsl #10]
     464:	04000000 	streq	r0, [r0], #-0
     468:	0a000701 	beq	2074 <__code_start__-0x5f8c>
     46c:	05004545 	streq	r4, [r0, #-1349]	; 0x545
     470:	00003746 	andeq	r3, r0, r6, asr #14
     474:	06010400 	streq	r0, [r1], -r0, lsl #8
     478:	05020900 	streq	r0, [r2, #-2304]	; 0x900
     47c:	47050000 	strmi	r0, [r5, -r0]
     480:	00000037 	andeq	r0, r0, r7, lsr r0
     484:	00050104 	andeq	r0, r5, r4, lsl #2
     488:	00031f09 	andeq	r1, r3, r9, lsl #30
     48c:	37480500 	strbcc	r0, [r8, -r0, lsl #10]
     490:	04000000 	streq	r0, [r0], #-0
     494:	09000401 	stmdbeq	r0, {r0, sl}
     498:	00000428 	andeq	r0, r0, r8, lsr #8
     49c:	00374905 	eorseq	r4, r7, r5, lsl #18
     4a0:	01040000 	mrseq	r0, (UNDEF: 4)
     4a4:	9e090003 	cdpls	0, 0, cr0, cr9, cr3, {0}
     4a8:	05000003 	streq	r0, [r0, #-3]
     4ac:	0000374a 	andeq	r3, r0, sl, asr #14
     4b0:	02010400 	andeq	r0, r1, #0, 8
     4b4:	032a0900 	teqeq	sl, #0, 18
     4b8:	4b050000 	blmi	1404c0 <__bss_end__+0x133ce0>
     4bc:	00000037 	andeq	r0, r0, r7, lsr r0
     4c0:	00000204 	andeq	r0, r0, r4, lsl #4
     4c4:	04670300 	strbteq	r0, [r7], #-768	; 0x300
     4c8:	4c050000 	stcmi	0, cr0, [r5], {-0}
     4cc:	0000009c 	muleq	r0, ip, r0
     4d0:	00033b08 	andeq	r3, r3, r8, lsl #22
     4d4:	46060400 	strmi	r0, [r6], -r0, lsl #8
     4d8:	00000338 	andeq	r0, r0, r8, lsr r3
     4dc:	6761740a 	strbvs	r7, [r1, -sl, lsl #8]!
     4e0:	37480600 	strbcc	r0, [r8, -r0, lsl #12]
     4e4:	04000000 	streq	r0, [r0], #-0
     4e8:	0a001e02 	beq	7cf8 <__code_start__-0x308>
     4ec:	49060042 	stmdbmi	r6, {r1, r6}
     4f0:	00000037 	andeq	r0, r0, r7, lsr r0
     4f4:	001d0104 	andseq	r0, sp, r4, lsl #2
     4f8:	0600430a 	streq	r4, [r0], -sl, lsl #6
     4fc:	0000374a 	andeq	r3, r0, sl, asr #14
     500:	1c010400 	cfstrsne	mvf0, [r1], {-0}
     504:	4e580a00 	vnmlsmi.f32	s1, s16, s0
     508:	374b0600 	strbcc	r0, [fp, -r0, lsl #12]
     50c:	04000000 	streq	r0, [r0], #-0
     510:	09001b01 	stmdbeq	r0, {r0, r8, r9, fp, ip}
     514:	000004de 	ldrdeq	r0, [r0], -lr
     518:	00374e06 	eorseq	r4, r7, r6, lsl #28
     51c:	04040000 	streq	r0, [r4], #-0
     520:	490a0017 	stmdbmi	sl, {r0, r1, r2, r4}
     524:	0600504d 	streq	r5, [r0], -sp, asr #32
     528:	0000374f 	andeq	r3, r0, pc, asr #14
     52c:	16010400 	strne	r0, [r1], -r0, lsl #8
     530:	50410a00 	subpl	r0, r1, r0, lsl #20
     534:	37520600 	ldrbcc	r0, [r2, -r0, lsl #12]
     538:	04000000 	streq	r0, [r0], #-0
     53c:	0a001402 	beq	554c <__code_start__-0x2ab4>
     540:	00584554 	subseq	r4, r8, r4, asr r5
     544:	00375306 	eorseq	r5, r7, r6, lsl #6
     548:	03040000 	movweq	r0, #16384	; 0x4000
     54c:	410a0011 	tstmi	sl, r1, lsl r0
     550:	06005850 			; <UNDEFINED> instruction: 0x06005850
     554:	00003754 	andeq	r3, r0, r4, asr r7
     558:	10010400 	andne	r0, r1, r0, lsl #8
     55c:	00530a00 	subseq	r0, r3, r0, lsl #20
     560:	00375506 	eorseq	r5, r7, r6, lsl #10
     564:	01040000 	mrseq	r0, (UNDEF: 4)
     568:	6e0a000f 	cdpvs	0, 0, cr0, cr10, cr15, {0}
     56c:	56060047 	strpl	r0, [r6], -r7, asr #32
     570:	00000037 	andeq	r0, r0, r7, lsr r0
     574:	000e0104 	andeq	r0, lr, r4, lsl #2
     578:	0002e309 	andeq	lr, r2, r9, lsl #6
     57c:	37570600 	ldrbcc	r0, [r7, -r0, lsl #12]
     580:	04000000 	streq	r0, [r0], #-0
     584:	09000d01 	stmdbeq	r0, {r0, r8, sl, fp}
     588:	000004eb 	andeq	r0, r0, fp, ror #9
     58c:	00375806 	eorseq	r5, r7, r6, lsl #16
     590:	01040000 	mrseq	r0, (UNDEF: 4)
     594:	4f09000c 	svcmi	0x0009000c
     598:	06000002 	streq	r0, [r0], -r2
     59c:	00003759 	andeq	r3, r0, r9, asr r7
     5a0:	000c0400 	andeq	r0, ip, r0, lsl #8
     5a4:	ad030000 	stcge	0, cr0, [r3, #-0]
     5a8:	06000002 	streq	r0, [r0], -r2
     5ac:	0002625a 	andeq	r6, r2, sl, asr r2
     5b0:	06010b00 	streq	r0, [r1], -r0, lsl #22
     5b4:	00035e5e 	andeq	r5, r3, lr, asr lr
     5b8:	03350c00 	teqeq	r5, #0, 24
     5bc:	0c030000 	stceq	0, cr0, [r3], {-0}
     5c0:	000004d1 	ldrdeq	r0, [r0], -r1
     5c4:	02340c00 	eorseq	r0, r4, #0, 24
     5c8:	00020000 	andeq	r0, r2, r0
     5cc:	0001c80d 	andeq	ip, r1, sp, lsl #16
     5d0:	37780200 	ldrbcc	r0, [r8, -r0, lsl #4]!
     5d4:	03000000 	movweq	r0, #0
     5d8:	00000378 	andeq	r0, r0, r8, ror r3
     5dc:	0200750e 	andeq	r7, r0, #58720256	; 0x3800000
     5e0:	00003778 	andeq	r3, r0, r8, ror r7
     5e4:	680f0000 	stmdavs	pc, {}	; <UNPREDICTABLE>
     5e8:	01000001 	tsteq	r0, r1
     5ec:	0000250b 	andeq	r2, r0, fp, lsl #10
     5f0:	00824800 	addeq	r4, r2, r0, lsl #16
     5f4:	00001000 	andeq	r1, r0, r0
     5f8:	9b9c0100 	blls	fe700a00 <__bss_end__+0xfe6f4220>
     5fc:	10000003 	andne	r0, r0, r3
     600:	00008250 	andeq	r8, r0, r0, asr r2
     604:	00001440 	andeq	r1, r0, r0, asr #8
     608:	05350f00 	ldreq	r0, [r5, #-3840]!	; 0xf00
     60c:	0f010000 	svceq	0x00010000
     610:	00000492 	muleq	r0, r2, r4
     614:	00008258 	andeq	r8, r0, r8, asr r2
     618:	00000090 	muleq	r0, r0, r0
     61c:	04929c01 	ldreq	r9, [r2], #3073	; 0xc01
     620:	70110000 	andsvc	r0, r1, r0
     624:	0f010074 	svceq	0x00010074
     628:	00000492 	muleq	r0, r2, r4
     62c:	0000001e 	andeq	r0, r0, lr, lsl r0
     630:	00617611 	rsbeq	r7, r1, r1, lsl r6
     634:	00370f01 	eorseq	r0, r7, r1, lsl #30
     638:	00710000 	rsbseq	r0, r1, r0
     63c:	0e120000 	cdpeq	0, 1, cr0, cr2, cr0, {0}
     640:	a8000000 	stmdage	r0, {}	; <UNPREDICTABLE>
     644:	05000004 	streq	r0, [r0, #-4]
     648:	00b1a803 	adcseq	sl, r1, r3, lsl #16
     64c:	04351300 	ldrteq	r1, [r5], #-768	; 0x300
     650:	11010000 	mrsne	r0, (UNDEF: 1)
     654:	00000037 	andeq	r0, r0, r7, lsr r0
     658:	000000ab 	andeq	r0, r0, fp, lsr #1
     65c:	65747014 	ldrbvs	r7, [r4, #-20]!
     660:	92120100 	andsls	r0, r2, #0, 2
     664:	d9000004 	stmdble	r0, {r2}
     668:	10000000 	andne	r0, r0, r0
     66c:	0000826c 	andeq	r8, r0, ip, ror #4
     670:	0000144b 	andeq	r1, r0, fp, asr #8
     674:	00828815 	addeq	r8, r2, r5, lsl r8
     678:	00145200 	andseq	r5, r4, r0, lsl #4
     67c:	00043e00 	andeq	r3, r4, r0, lsl #28
     680:	53011600 	movwpl	r1, #5632	; 0x1600
     684:	01164001 	tsteq	r6, r1
     688:	a8030552 	stmdage	r3, {r1, r4, r6, r8, sl}
     68c:	160000b1 			; <UNDEFINED> instruction: 0x160000b1
     690:	03055101 	movweq	r5, #20737	; 0x5101
     694:	0000b298 	muleq	r0, r8, r2
     698:	05500116 	ldrbeq	r0, [r0, #-278]	; 0x116
     69c:	00b14003 	adcseq	r4, r1, r3
     6a0:	7d021600 	stcvc	6, cr1, [r2, #-0]
     6a4:	a0030500 	andge	r0, r3, r0, lsl #10
     6a8:	000000b2 	strheq	r0, [r0], -r2
     6ac:	00828c10 	addeq	r8, r2, r0, lsl ip
     6b0:	00146800 	andseq	r6, r4, r0, lsl #16
     6b4:	82a41000 	adchi	r1, r4, #0
     6b8:	144b0000 	strbne	r0, [fp], #-0
     6bc:	c0150000 	andsgt	r0, r5, r0
     6c0:	52000082 	andpl	r0, r0, #130	; 0x82
     6c4:	88000014 	stmdahi	r0, {r2, r4}
     6c8:	16000004 	strne	r0, [r0], -r4
     6cc:	43015301 	movwmi	r5, #4865	; 0x1301
     6d0:	05520116 	ldrbeq	r0, [r2, #-278]	; 0x116
     6d4:	00b1a803 	adcseq	sl, r1, r3, lsl #16
     6d8:	51011600 	tstpl	r1, r0, lsl #12
     6dc:	b2980305 	addslt	r0, r8, #335544320	; 0x14000000
     6e0:	01160000 	tsteq	r6, r0
     6e4:	b4030550 	strlt	r0, [r3], #-1360	; 0x550
     6e8:	160000b2 			; <UNDEFINED> instruction: 0x160000b2
     6ec:	05007d02 	streq	r7, [r0, #-3330]	; 0xd02
     6f0:	00b2e403 	adcseq	lr, r2, r3, lsl #8
     6f4:	c4100000 	ldrgt	r0, [r0], #-0
     6f8:	68000082 	stmdavs	r0, {r1, r7}
     6fc:	00000014 	andeq	r0, r0, r4, lsl r0
     700:	03380406 	teqeq	r8, #100663296	; 0x6000000
     704:	8a170000 	bhi	5c070c <__bss_end__+0x5b3f2c>
     708:	a8000000 	stmdage	r0, {}	; <UNPREDICTABLE>
     70c:	18000004 	stmdane	r0, {r2}
     710:	00000081 	andeq	r0, r0, r1, lsl #1
     714:	98070012 	stmdals	r7, {r1, r4}
     718:	19000004 	stmdbne	r0, {r2}
     71c:	000003d3 	ldrdeq	r0, [r0], -r3
     720:	82e81801 	rschi	r1, r8, #65536	; 0x10000
     724:	00980000 	addseq	r0, r8, r0
     728:	9c010000 	stcls	0, cr0, [r1], {-0}
     72c:	000005be 			; <UNDEFINED> instruction: 0x000005be
     730:	00747011 	rsbseq	r7, r4, r1, lsl r0
     734:	04921801 	ldreq	r1, [r2], #2049	; 0x801
     738:	010d0000 	mrseq	r0, (UNDEF: 13)
     73c:	76110000 	ldrvc	r0, [r1], -r0
     740:	18010061 	stmdane	r1, {r0, r5, r6}
     744:	00000037 	andeq	r0, r0, r7, lsr r0
     748:	0000014f 	andeq	r0, r0, pc, asr #2
     74c:	0001f91a 	andeq	pc, r1, sl, lsl r9	; <UNPREDICTABLE>
     750:	37180100 	ldrcc	r0, [r8, -r0, lsl #2]
     754:	70000000 	andvc	r0, r0, r0
     758:	1a000001 	bne	764 <__code_start__-0x789c>
     75c:	000003e3 	andeq	r0, r0, r3, ror #7
     760:	00371801 	eorseq	r1, r7, r1, lsl #16
     764:	01b20000 			; <UNDEFINED> instruction: 0x01b20000
     768:	0e120000 	cdpeq	0, 1, cr0, cr2, cr0, {0}
     76c:	ce000000 	cdpgt	0, 0, cr0, cr0, cr0, {0}
     770:	05000005 	streq	r0, [r0, #-5]
     774:	00b1bc03 	adcseq	fp, r1, r3, lsl #24
     778:	035e1b00 	cmpeq	lr, #0, 22
     77c:	82f80000 	rscshi	r0, r8, #0
     780:	00080000 	andeq	r0, r8, r0
     784:	19010000 	stmdbne	r1, {}	; <UNPREDICTABLE>
     788:	00000528 	andeq	r0, r0, r8, lsr #10
     78c:	00036e1c 	andeq	r6, r3, ip, lsl lr
     790:	0001ec00 	andeq	lr, r1, r0, lsl #24
     794:	001d0000 	andseq	r0, sp, r0
     798:	6a000000 	bvs	7a0 <__code_start__-0x7860>
     79c:	14000005 	strne	r0, [r0], #-5
     7a0:	1b010069 	blne	4094c <__bss_end__+0x3416c>
     7a4:	00000025 	andeq	r0, r0, r5, lsr #32
     7a8:	0000020d 	andeq	r0, r0, sp, lsl #4
     7ac:	0000181e 	andeq	r1, r0, lr, lsl r8
     7b0:	74701400 	ldrbtvc	r1, [r0], #-1024	; 0x400
     7b4:	1f010065 	svcne	0x00010065
     7b8:	00000492 	muleq	r0, r2, r4
     7bc:	0000022b 	andeq	r0, r0, fp, lsr #4
     7c0:	0083381f 	addeq	r3, r3, pc, lsl r8
     7c4:	00039b00 	andeq	r9, r3, r0, lsl #22
     7c8:	51011600 	tstpl	r1, r0, lsl #12
     7cc:	16007702 	strne	r7, [r0], -r2, lsl #14
     7d0:	78025001 	stmdavc	r2, {r0, ip, lr}
     7d4:	00000000 	andeq	r0, r0, r0
     7d8:	00830c10 	addeq	r0, r3, r0, lsl ip
     7dc:	00144b00 	andseq	r4, r4, r0, lsl #22
     7e0:	83281500 	teqhi	r8, #0, 10
     7e4:	14520000 	ldrbne	r0, [r2], #-0
     7e8:	05ab0000 	streq	r0, [fp, #0]!
     7ec:	01160000 	tsteq	r6, r0
     7f0:	164a0153 			; <UNDEFINED> instruction: 0x164a0153
     7f4:	03055201 	movweq	r5, #20993	; 0x5201
     7f8:	0000b1bc 			; <UNDEFINED> instruction: 0x0000b1bc
     7fc:	05510116 	ldrbeq	r0, [r1, #-278]	; 0x116
     800:	00b29803 	adcseq	r9, r2, r3, lsl #16
     804:	50011600 	andpl	r1, r1, r0, lsl #12
     808:	b2f00305 	rscslt	r0, r0, #335544320	; 0x14000000
     80c:	02160000 	andseq	r0, r6, #0
     810:	0305007d 	movweq	r0, #20605	; 0x507d
     814:	0000b324 	andeq	fp, r0, r4, lsr #6
     818:	832c1000 	teqhi	ip, #0
     81c:	14680000 	strbtne	r0, [r8], #-0
     820:	68100000 	ldmdavs	r0, {}	; <UNPREDICTABLE>
     824:	6f000083 	svcvs	0x00000083
     828:	00000014 	andeq	r0, r0, r4, lsl r0
     82c:	00008a17 	andeq	r8, r0, r7, lsl sl
     830:	0005ce00 	andeq	ip, r5, r0, lsl #28
     834:	00811800 	addeq	r1, r1, r0, lsl #16
     838:	00140000 	andseq	r0, r4, r0
     83c:	0005be07 	andeq	fp, r5, r7, lsl #28
     840:	01ab2000 			; <UNDEFINED> instruction: 0x01ab2000
     844:	26010000 	strcs	r0, [r1], -r0
     848:	00008380 	andeq	r8, r0, r0, lsl #7
     84c:	00000010 	andeq	r0, r0, r0, lsl r0
     850:	06389c01 	ldrteq	r9, [r8], -r1, lsl #24
     854:	70110000 	andsvc	r0, r1, r0
     858:	26010074 			; <UNDEFINED> instruction: 0x26010074
     85c:	00000492 	muleq	r0, r2, r4
     860:	0000023e 	andeq	r0, r0, lr, lsr r2
     864:	00617611 	rsbeq	r7, r1, r1, lsl r6
     868:	00372601 	eorseq	r2, r7, r1, lsl #12
     86c:	025f0000 	subseq	r0, pc, #0
     870:	f91a0000 			; <UNDEFINED> instruction: 0xf91a0000
     874:	01000001 	tsteq	r0, r1
     878:	00003726 	andeq	r3, r0, r6, lsr #14
     87c:	00028000 	andeq	r8, r2, r0
     880:	838c1f00 	orrhi	r1, ip, #0, 30
     884:	04ad0000 	strteq	r0, [sp], #0
     888:	01160000 	tsteq	r6, r0
     88c:	16320153 			; <UNDEFINED> instruction: 0x16320153
     890:	f3035201 	vhsub.u8	d5, d3, d1
     894:	01165201 	tsteq	r6, r1, lsl #4
     898:	01f30351 	mvnseq	r0, r1, asr r3
     89c:	50011651 	andpl	r1, r1, r1, asr r6
     8a0:	5001f303 	andpl	pc, r1, r3, lsl #6
     8a4:	fb200000 	blx	8008ae <__bss_end__+0x7f40ce>
     8a8:	01000002 	tsteq	r0, r2
     8ac:	00839029 	addeq	r9, r3, r9, lsr #32
     8b0:	00001000 	andeq	r1, r0, r0
     8b4:	9d9c0100 	ldflss	f0, [ip]
     8b8:	11000006 	tstne	r0, r6
     8bc:	01007470 	tsteq	r0, r0, ror r4
     8c0:	00049229 	andeq	r9, r4, r9, lsr #4
     8c4:	0002a100 	andeq	sl, r2, r0, lsl #2
     8c8:	61761100 	cmnvs	r6, r0, lsl #2
     8cc:	37290100 	strcc	r0, [r9, -r0, lsl #2]!
     8d0:	c2000000 	andgt	r0, r0, #0
     8d4:	1a000002 	bne	8e4 <__code_start__-0x771c>
     8d8:	000001f9 	strdeq	r0, [r0], -r9
     8dc:	00372901 	eorseq	r2, r7, r1, lsl #18
     8e0:	02e30000 	rsceq	r0, r3, #0
     8e4:	9c1f0000 	ldcls	0, cr0, [pc], {-0}
     8e8:	ad000083 	stcge	0, cr0, [r0, #-524]	; 0xfffffdf4
     8ec:	16000004 	strne	r0, [r0], -r4
     8f0:	33015301 	movwcc	r5, #4865	; 0x1301
     8f4:	03520116 	cmpeq	r2, #-2147483643	; 0x80000005
     8f8:	165201f3 			; <UNDEFINED> instruction: 0x165201f3
     8fc:	f3035101 	vrhadd.u8	d5, d3, d1
     900:	01165101 	tsteq	r6, r1, lsl #2
     904:	01f30350 	mvnseq	r0, r0, asr r3
     908:	20000050 	andcs	r0, r0, r0, asr r0
     90c:	0000054e 	andeq	r0, r0, lr, asr #10
     910:	83a02c01 	movhi	r2, #256	; 0x100
     914:	00100000 	andseq	r0, r0, r0
     918:	9c010000 	stcls	0, cr0, [r1], {-0}
     91c:	00000702 	andeq	r0, r0, r2, lsl #14
     920:	00747011 	rsbseq	r7, r4, r1, lsl r0
     924:	04922c01 	ldreq	r2, [r2], #3073	; 0xc01
     928:	03040000 	movweq	r0, #16384	; 0x4000
     92c:	76110000 	ldrvc	r0, [r1], -r0
     930:	2c010061 	stccs	0, cr0, [r1], {97}	; 0x61
     934:	00000037 	andeq	r0, r0, r7, lsr r0
     938:	00000325 	andeq	r0, r0, r5, lsr #6
     93c:	0001f91a 	andeq	pc, r1, sl, lsl r9	; <UNPREDICTABLE>
     940:	372c0100 	strcc	r0, [ip, -r0, lsl #2]!
     944:	46000000 	strmi	r0, [r0], -r0
     948:	1f000003 	svcne	0x00000003
     94c:	000083ac 	andeq	r8, r0, ip, lsr #7
     950:	000004ad 	andeq	r0, r0, sp, lsr #9
     954:	01530116 	cmpeq	r3, r6, lsl r1
     958:	52011630 	andpl	r1, r1, #48, 12	; 0x3000000
     95c:	5201f303 	andpl	pc, r1, #201326592	; 0xc000000
     960:	03510116 	cmpeq	r1, #-2147483643	; 0x80000005
     964:	165101f3 			; <UNDEFINED> instruction: 0x165101f3
     968:	f3035001 	vhadd.u8	d5, d3, d1
     96c:	00005001 	andeq	r5, r0, r1
     970:	0004aa19 	andeq	sl, r4, r9, lsl sl
     974:	b0310100 	eorslt	r0, r1, r0, lsl #2
     978:	98000083 	stmdals	r0, {r0, r1, r7}
     97c:	01000000 	mrseq	r0, (UNDEF: 0)
     980:	0007d99c 	muleq	r7, ip, r9
     984:	00661100 	rsbeq	r1, r6, r0, lsl #2
     988:	04923101 	ldreq	r3, [r2], #257	; 0x101
     98c:	03670000 	cmneq	r7, #0
     990:	581a0000 	ldmdapl	sl, {}	; <UNPREDICTABLE>
     994:	01000002 	tsteq	r0, r2
     998:	00003731 	andeq	r3, r0, r1, lsr r7
     99c:	0003ac00 	andeq	sl, r3, r0, lsl #24
     9a0:	000e1200 	andeq	r1, lr, r0, lsl #4
     9a4:	07e90000 	strbeq	r0, [r9, r0]!
     9a8:	03050000 	movweq	r0, #20480	; 0x5000
     9ac:	0000b1e4 	andeq	fp, r0, r4, ror #3
     9b0:	0083c410 	addeq	ip, r3, r0, lsl r4
     9b4:	00144b00 	andseq	r4, r4, r0, lsl #22
     9b8:	83e01500 	mvnhi	r1, #0, 10
     9bc:	14520000 	ldrbne	r0, [r2], #-0
     9c0:	07840000 	streq	r0, [r4, r0]
     9c4:	01160000 	tsteq	r6, r0
     9c8:	32080253 	andcc	r0, r8, #805306373	; 0x30000005
     9cc:	05520116 	ldrbeq	r0, [r2, #-278]	; 0x116
     9d0:	00b1e403 	adcseq	lr, r1, r3, lsl #8
     9d4:	51011600 	tstpl	r1, r0, lsl #12
     9d8:	b2980305 	addslt	r0, r8, #335544320	; 0x14000000
     9dc:	01160000 	tsteq	r6, r0
     9e0:	34030550 	strcc	r0, [r3], #-1360	; 0x550
     9e4:	160000b3 			; <UNDEFINED> instruction: 0x160000b3
     9e8:	05007d02 	streq	r7, [r0, #-3330]	; 0xd02
     9ec:	00b36803 	adcseq	r6, r3, r3, lsl #16
     9f0:	e4100000 	ldr	r0, [r0], #-0
     9f4:	68000083 	stmdavs	r0, {r0, r1, r7}
     9f8:	10000014 	andne	r0, r0, r4, lsl r0
     9fc:	00008408 	andeq	r8, r0, r8, lsl #8
     a00:	0000144b 	andeq	r1, r0, fp, asr #8
     a04:	00842415 	addeq	r2, r4, r5, lsl r4
     a08:	00145200 	andseq	r5, r4, r0, lsl #4
     a0c:	0007cf00 	andeq	ip, r7, r0, lsl #30
     a10:	53011600 	movwpl	r1, #5632	; 0x1600
     a14:	16370802 	ldrtne	r0, [r7], -r2, lsl #16
     a18:	03055201 	movweq	r5, #20993	; 0x5201
     a1c:	0000b1e4 	andeq	fp, r0, r4, ror #3
     a20:	05510116 	ldrbeq	r0, [r1, #-278]	; 0x116
     a24:	00b29803 	adcseq	r9, r2, r3, lsl #16
     a28:	50011600 	andpl	r1, r1, r0, lsl #12
     a2c:	b1400305 	cmplt	r0, r5, lsl #6
     a30:	02160000 	andseq	r0, r6, #0
     a34:	0305007d 	movweq	r0, #20605	; 0x507d
     a38:	0000b394 	muleq	r0, r4, r3
     a3c:	84281000 	strthi	r1, [r8], #-0
     a40:	14680000 	strbtne	r0, [r8], #-0
     a44:	17000000 	strne	r0, [r0, -r0]
     a48:	0000008a 	andeq	r0, r0, sl, lsl #1
     a4c:	000007e9 	andeq	r0, r0, r9, ror #15
     a50:	00008118 	andeq	r8, r0, r8, lsl r1
     a54:	07001100 	streq	r1, [r0, -r0, lsl #2]
     a58:	000007d9 	ldrdeq	r0, [r0], -r9
     a5c:	0003520f 	andeq	r5, r3, pc, lsl #4
     a60:	92410100 	subls	r0, r1, #0, 2
     a64:	48000004 	stmdami	r0, {r2}
     a68:	94000084 	strls	r0, [r0], #-132	; 0x84
     a6c:	01000001 	tsteq	r0, r1
     a70:	000a0c9c 	muleq	sl, ip, ip
     a74:	74701100 	ldrbtvc	r1, [r0], #-256	; 0x100
     a78:	92410100 	subls	r0, r1, #0, 2
     a7c:	f1000004 	cps	#4
     a80:	11000003 	tstne	r0, r3
     a84:	01006176 	tsteq	r0, r6, ror r1
     a88:	00006841 	andeq	r6, r0, r1, asr #16
     a8c:	00047500 	andeq	r7, r4, r0, lsl #10
     a90:	61701100 	cmnvs	r0, r0, lsl #2
     a94:	68410100 	stmdavs	r1, {r8}^
     a98:	fa000000 	blx	aa0 <__code_start__-0x7560>
     a9c:	11000004 	tstne	r0, r4
     aa0:	006d6f64 	rsbeq	r6, sp, r4, ror #30
     aa4:	00684101 	rsbeq	r4, r8, r1, lsl #2
     aa8:	057e0000 	ldrbeq	r0, [lr, #-0]!
     aac:	0e120000 	cdpeq	0, 1, cr0, cr2, cr0, {0}
     ab0:	1c000000 	stcne	0, cr0, [r0], {-0}
     ab4:	0500000a 	streq	r0, [r0, #-10]
     ab8:	00b1d403 	adcseq	sp, r1, r3, lsl #8
     abc:	04351300 	ldrteq	r1, [r5], #-768	; 0x300
     ac0:	46010000 	strmi	r0, [r1], -r0
     ac4:	00000037 	andeq	r0, r0, r7, lsr r0
     ac8:	000005ec 	andeq	r0, r0, ip, ror #11
     acc:	65747014 	ldrbvs	r7, [r4, #-20]!
     ad0:	92470100 	subls	r0, r7, #0, 2
     ad4:	0f000004 	svceq	0x00000004
     ad8:	10000006 	andne	r0, r0, r6
     adc:	00008468 	andeq	r8, r0, r8, ror #8
     ae0:	0000144b 	andeq	r1, r0, fp, asr #8
     ae4:	00848415 	addeq	r8, r4, r5, lsl r4
     ae8:	00145200 	andseq	r5, r4, r0, lsl #4
     aec:	0008af00 	andeq	sl, r8, r0, lsl #30
     af0:	53011600 	movwpl	r1, #5632	; 0x1600
     af4:	16420802 	strbne	r0, [r2], -r2, lsl #16
     af8:	03055201 	movweq	r5, #20993	; 0x5201
     afc:	0000b1d4 	ldrdeq	fp, [r0], -r4
     b00:	05510116 	ldrbeq	r0, [r1, #-278]	; 0x116
     b04:	00b29803 	adcseq	r9, r2, r3, lsl #16
     b08:	50011600 	andpl	r1, r1, r0, lsl #12
     b0c:	b1400305 	cmplt	r0, r5, lsl #6
     b10:	02160000 	andseq	r0, r6, #0
     b14:	0305007d 	movweq	r0, #20605	; 0x507d
     b18:	0000b3b8 			; <UNDEFINED> instruction: 0x0000b3b8
     b1c:	84881000 	strhi	r1, [r8], #0
     b20:	14680000 	strbtne	r0, [r8], #-0
     b24:	94100000 	ldrls	r0, [r0], #-0
     b28:	4b000084 	blmi	d40 <__code_start__-0x72c0>
     b2c:	15000014 	strne	r0, [r0, #-20]
     b30:	000084b0 			; <UNDEFINED> instruction: 0x000084b0
     b34:	00001452 	andeq	r1, r0, r2, asr r4
     b38:	000008fa 	strdeq	r0, [r0], -sl
     b3c:	02530116 	subseq	r0, r3, #-2147483643	; 0x80000005
     b40:	01164308 	tsteq	r6, r8, lsl #6
     b44:	d4030552 	strle	r0, [r3], #-1362	; 0x552
     b48:	160000b1 			; <UNDEFINED> instruction: 0x160000b1
     b4c:	03055101 	movweq	r5, #20737	; 0x5101
     b50:	0000b298 	muleq	r0, r8, r2
     b54:	05500116 	ldrbeq	r0, [r0, #-278]	; 0x116
     b58:	00b14003 	adcseq	r4, r1, r3
     b5c:	7d021600 	stcvc	6, cr1, [r2, #-0]
     b60:	a0030500 	andge	r0, r3, r0, lsl #10
     b64:	000000b2 	strheq	r0, [r0], -r2
     b68:	0084b410 	addeq	fp, r4, r0, lsl r4
     b6c:	00146800 	andseq	r6, r4, r0, lsl #16
     b70:	84c01000 	strbhi	r1, [r0], #0
     b74:	144b0000 	strbne	r0, [fp], #-0
     b78:	dc150000 	ldcle	0, cr0, [r5], {-0}
     b7c:	52000084 	andpl	r0, r0, #132	; 0x84
     b80:	45000014 	strmi	r0, [r0, #-20]
     b84:	16000009 	strne	r0, [r0], -r9
     b88:	08025301 	stmdaeq	r2, {r0, r8, r9, ip, lr}
     b8c:	52011644 	andpl	r1, r1, #68, 12	; 0x4400000
     b90:	b1d40305 	bicslt	r0, r4, r5, lsl #6
     b94:	01160000 	tsteq	r6, r0
     b98:	98030551 	stmdals	r3, {r0, r4, r6, r8, sl}
     b9c:	160000b2 			; <UNDEFINED> instruction: 0x160000b2
     ba0:	03055001 	movweq	r5, #20481	; 0x5001
     ba4:	0000b140 	andeq	fp, r0, r0, asr #2
     ba8:	007d0216 	rsbseq	r0, sp, r6, lsl r2
     bac:	b3c40305 	biclt	r0, r4, #335544320	; 0x14000000
     bb0:	10000000 	andne	r0, r0, r0
     bb4:	000084e0 	andeq	r8, r0, r0, ror #9
     bb8:	00001468 	andeq	r1, r0, r8, ror #8
     bbc:	0084fc10 	addeq	pc, r4, r0, lsl ip	; <UNPREDICTABLE>
     bc0:	00144b00 	andseq	r4, r4, r0, lsl #22
     bc4:	85181500 	ldrhi	r1, [r8, #-1280]	; 0x500
     bc8:	14520000 	ldrbne	r0, [r2], #-0
     bcc:	09900000 	ldmibeq	r0, {}	; <UNPREDICTABLE>
     bd0:	01160000 	tsteq	r6, r0
     bd4:	48080253 	stmdami	r8, {r0, r1, r4, r6, r9}
     bd8:	05520116 	ldrbeq	r0, [r2, #-278]	; 0x116
     bdc:	00b1d403 	adcseq	sp, r1, r3, lsl #8
     be0:	51011600 	tstpl	r1, r0, lsl #12
     be4:	b2980305 	addslt	r0, r8, #335544320	; 0x14000000
     be8:	01160000 	tsteq	r6, r0
     bec:	d8030550 	stmdale	r3, {r4, r6, r8, sl}
     bf0:	160000b3 			; <UNDEFINED> instruction: 0x160000b3
     bf4:	05007d02 	streq	r7, [r0, #-3330]	; 0xd02
     bf8:	00b40403 	adcseq	r0, r4, r3, lsl #8
     bfc:	1c100000 	ldcne	0, cr0, [r0], {-0}
     c00:	68000085 	stmdavs	r0, {r0, r2, r7}
     c04:	10000014 	andne	r0, r0, r4, lsl r0
     c08:	00008520 	andeq	r8, r0, r0, lsr #10
     c0c:	00001476 	andeq	r1, r0, r6, ror r4
     c10:	00856c15 	addeq	r6, r5, r5, lsl ip
     c14:	00070200 	andeq	r0, r7, r0, lsl #4
     c18:	0009bc00 	andeq	fp, r9, r0, lsl #24
     c1c:	51011600 	tstpl	r1, r0, lsl #12
     c20:	16007902 	strne	r7, [r0], -r2, lsl #18
     c24:	75025001 	strvc	r5, [r2, #-1]
     c28:	84150000 	ldrhi	r0, [r5], #-0
     c2c:	81000085 	smlabbhi	r0, r5, r0, r0
     c30:	d0000014 	andle	r0, r0, r4, lsl r0
     c34:	16000009 	strne	r0, [r0], -r9
     c38:	75025001 	strvc	r5, [r2, #-1]
     c3c:	94150000 	ldrls	r0, [r5], #-0
     c40:	52000085 	andpl	r0, r0, #133	; 0x85
     c44:	ed000014 	stc	0, cr0, [r0, #-80]	; 0xffffffb0
     c48:	16000009 	strne	r0, [r0], -r9
     c4c:	74025101 	strvc	r5, [r2], #-257	; 0x101
     c50:	50011600 	andpl	r1, r1, r0, lsl #12
     c54:	b4100305 	ldrlt	r0, [r0], #-773	; 0x305
     c58:	1f000000 	svcne	0x00000000
     c5c:	000085a4 	andeq	r8, r0, r4, lsr #11
     c60:	00001492 	muleq	r0, r2, r4
     c64:	01520116 	cmpeq	r2, r6, lsl r1
     c68:	51011634 	tstpl	r1, r4, lsr r6
     c6c:	16007502 	strne	r7, [r0], -r2, lsl #10
     c70:	03055001 	movweq	r5, #20481	; 0x5001
     c74:	0000b424 	andeq	fp, r0, r4, lsr #8
     c78:	8a170000 	bhi	5c0c80 <__bss_end__+0x5b44a0>
     c7c:	1c000000 	stcne	0, cr0, [r0], {-0}
     c80:	1800000a 	stmdane	r0, {r1, r3}
     c84:	00000081 	andeq	r0, r0, r1, lsl #1
     c88:	0c07000f 	stceq	0, cr0, [r7], {15}
     c8c:	2000000a 	andcs	r0, r0, sl
     c90:	000004f1 	strdeq	r0, [r0], -r1
     c94:	85dc5f01 	ldrbhi	r5, [ip, #3841]	; 0xf01
     c98:	00f00000 	rscseq	r0, r0, r0
     c9c:	9c010000 	stcls	0, cr0, [r1], {-0}
     ca0:	00000ba7 	andeq	r0, r0, r7, lsr #23
     ca4:	00747011 	rsbseq	r7, r4, r1, lsl r0
     ca8:	04925f01 	ldreq	r5, [r2], #3841	; 0xf01
     cac:	062d0000 	strteq	r0, [sp], -r0
     cb0:	76110000 	ldrvc	r0, [r1], -r0
     cb4:	5f010061 	svcpl	0x00010061
     cb8:	00000037 	andeq	r0, r0, r7, lsr r0
     cbc:	0000069b 	muleq	r0, fp, r6
     cc0:	00617011 	rsbeq	r7, r1, r1, lsl r0
     cc4:	00375f01 	eorseq	r5, r7, r1, lsl #30
     cc8:	06fb0000 	ldrbteq	r0, [fp], r0
     ccc:	f91a0000 			; <UNDEFINED> instruction: 0xf91a0000
     cd0:	01000001 	tsteq	r0, r1
     cd4:	0000375f 	andeq	r3, r0, pc, asr r7
     cd8:	00075b00 	andeq	r5, r7, r0, lsl #22
     cdc:	6f642100 	svcvs	0x00642100
     ce0:	5f01006d 	svcpl	0x0001006d
     ce4:	00000068 	andeq	r0, r0, r8, rrx
     ce8:	12009102 	andne	r9, r0, #-2147483648	; 0x80000000
     cec:	0000000e 	andeq	r0, r0, lr
     cf0:	00000bb7 			; <UNDEFINED> instruction: 0x00000bb7
     cf4:	b1f80305 	mvnslt	r0, r5, lsl #6
     cf8:	301d0000 	andscc	r0, sp, r0
     cfc:	c5000000 	strgt	r0, [r0, #-0]
     d00:	1400000a 	strne	r0, [r0], #-10
     d04:	63010069 	movwvs	r0, #4201	; 0x1069
     d08:	00000037 	andeq	r0, r0, r7, lsr r0
     d0c:	000007c9 	andeq	r0, r0, r9, asr #15
     d10:	0086901f 	addeq	r9, r6, pc, lsl r0
     d14:	0007ee00 	andeq	lr, r7, r0, lsl #28
     d18:	53011600 	movwpl	r1, #5632	; 0x1600
     d1c:	16007802 	strne	r7, [r0], -r2, lsl #16
     d20:	76025201 	strvc	r5, [r2], -r1, lsl #4
     d24:	51011600 	tstpl	r1, r0, lsl #12
     d28:	16007502 	strne	r7, [r0], -r2, lsl #10
     d2c:	79025001 	stmdbvc	r2, {r0, ip, lr}
     d30:	10000000 	andne	r0, r0, r0
     d34:	00008604 	andeq	r8, r0, r4, lsl #12
     d38:	0000144b 	andeq	r1, r0, fp, asr #8
     d3c:	00862015 	addeq	r2, r6, r5, lsl r0
     d40:	00145200 	andseq	r5, r4, r0, lsl #4
     d44:	000b0700 	andeq	r0, fp, r0, lsl #14
     d48:	53011600 	movwpl	r1, #5632	; 0x1600
     d4c:	16600802 	strbtne	r0, [r0], -r2, lsl #16
     d50:	03055201 	movweq	r5, #20993	; 0x5201
     d54:	0000b1f8 	strdeq	fp, [r0], -r8
     d58:	05510116 	ldrbeq	r0, [r1, #-278]	; 0x116
     d5c:	00b29803 	adcseq	r9, r2, r3, lsl #16
     d60:	50011600 	andpl	r1, r1, r0, lsl #12
     d64:	b1400305 	cmplt	r0, r5, lsl #6
     d68:	02160000 	andseq	r0, r6, #0
     d6c:	0305007d 	movweq	r0, #20605	; 0x507d
     d70:	0000b3b8 			; <UNDEFINED> instruction: 0x0000b3b8
     d74:	86241000 	strthi	r1, [r4], -r0
     d78:	14680000 	strbtne	r0, [r8], #-0
     d7c:	30100000 	andscc	r0, r0, r0
     d80:	4b000086 	blmi	fa0 <__code_start__-0x7060>
     d84:	15000014 	strne	r0, [r0, #-20]
     d88:	0000864c 	andeq	r8, r0, ip, asr #12
     d8c:	00001452 	andeq	r1, r0, r2, asr r4
     d90:	00000b52 	andeq	r0, r0, r2, asr fp
     d94:	02530116 	subseq	r0, r3, #-2147483643	; 0x80000005
     d98:	01166108 	tsteq	r6, r8, lsl #2
     d9c:	f8030552 			; <UNDEFINED> instruction: 0xf8030552
     da0:	160000b1 			; <UNDEFINED> instruction: 0x160000b1
     da4:	03055101 	movweq	r5, #20737	; 0x5101
     da8:	0000b298 	muleq	r0, r8, r2
     dac:	05500116 	ldrbeq	r0, [r0, #-278]	; 0x116
     db0:	00b14003 	adcseq	r4, r1, r3
     db4:	7d021600 	stcvc	6, cr1, [r2, #-0]
     db8:	a0030500 	andge	r0, r3, r0, lsl #10
     dbc:	000000b2 	strheq	r0, [r0], -r2
     dc0:	00865010 	addeq	r5, r6, r0, lsl r0
     dc4:	00146800 	andseq	r6, r4, r0, lsl #16
     dc8:	865c1000 	ldrbhi	r1, [ip], -r0
     dcc:	144b0000 	strbne	r0, [fp], #-0
     dd0:	78150000 	ldmdavc	r5, {}	; <UNPREDICTABLE>
     dd4:	52000086 	andpl	r0, r0, #134	; 0x86
     dd8:	9d000014 	stcls	0, cr0, [r0, #-80]	; 0xffffffb0
     ddc:	1600000b 	strne	r0, [r0], -fp
     de0:	08025301 	stmdaeq	r2, {r0, r8, r9, ip, lr}
     de4:	52011662 	andpl	r1, r1, #102760448	; 0x6200000
     de8:	b1f80305 	mvnslt	r0, r5, lsl #6
     dec:	01160000 	tsteq	r6, r0
     df0:	98030551 	stmdals	r3, {r0, r4, r6, r8, sl}
     df4:	160000b2 			; <UNDEFINED> instruction: 0x160000b2
     df8:	03055001 	movweq	r5, #20481	; 0x5001
     dfc:	0000b140 	andeq	fp, r0, r0, asr #2
     e00:	007d0216 	rsbseq	r0, sp, r6, lsl r2
     e04:	b3c40305 	biclt	r0, r4, #335544320	; 0x14000000
     e08:	10000000 	andne	r0, r0, r0
     e0c:	0000867c 	andeq	r8, r0, ip, ror r6
     e10:	00001468 	andeq	r1, r0, r8, ror #8
     e14:	008a1700 	addeq	r1, sl, r0, lsl #14
     e18:	0bb70000 	bleq	fedc0e20 <__bss_end__+0xfedb4640>
     e1c:	81180000 	tsthi	r8, r0
     e20:	10000000 	andne	r0, r0, r0
     e24:	0ba70700 	bleq	fe9c2a2c <__bss_end__+0xfe9b624c>
     e28:	f10f0000 			; <UNDEFINED> instruction: 0xf10f0000
     e2c:	01000003 	tsteq	r0, r3
     e30:	0004926a 	andeq	r9, r4, sl, ror #4
     e34:	0086cc00 	addeq	ip, r6, r0, lsl #24
     e38:	00009400 	andeq	r9, r0, r0, lsl #8
     e3c:	c89c0100 	ldmgt	ip, {r8}
     e40:	1a00000c 	bne	e78 <__code_start__-0x7188>
     e44:	00000258 	andeq	r0, r0, r8, asr r2
     e48:	00886a01 	addeq	r6, r8, r1, lsl #20
     e4c:	07e70000 	strbeq	r0, [r7, r0]!
     e50:	971a0000 	ldrls	r0, [sl, -r0]
     e54:	01000003 	tsteq	r0, r3
     e58:	0000376a 	andeq	r3, r0, sl, ror #14
     e5c:	00083c00 	andeq	r3, r8, r0, lsl #24
     e60:	000e1200 	andeq	r1, lr, r0, lsl #4
     e64:	0cc80000 	stcleq	0, cr0, [r8], {0}
     e68:	03050000 	movweq	r0, #20480	; 0x5000
     e6c:	0000b20c 	andeq	fp, r0, ip, lsl #4
     e70:	00747014 	rsbseq	r7, r4, r4, lsl r0
     e74:	04926c01 	ldreq	r6, [r2], #3073	; 0xc01
     e78:	088f0000 	stmeq	pc, {}	; <UNPREDICTABLE>
     e7c:	6e220000 	cdpvs	0, 2, cr0, cr2, cr0, {0}
     e80:	376e0100 	strbcc	r0, [lr, -r0, lsl #2]!
     e84:	00000000 	andeq	r0, r0, r0
     e88:	86e41040 	strbthi	r1, [r4], r0, asr #32
     e8c:	144b0000 	strbne	r0, [fp], #-0
     e90:	00150000 	andseq	r0, r5, r0
     e94:	52000087 	andpl	r0, r0, #135	; 0x87
     e98:	5d000014 	stcpl	0, cr0, [r0, #-80]	; 0xffffffb0
     e9c:	1600000c 	strne	r0, [r0], -ip
     ea0:	08025301 	stmdaeq	r2, {r0, r8, r9, ip, lr}
     ea4:	5201166b 	andpl	r1, r1, #112197632	; 0x6b00000
     ea8:	b20c0305 	andlt	r0, ip, #335544320	; 0x14000000
     eac:	01160000 	tsteq	r6, r0
     eb0:	98030551 	stmdals	r3, {r0, r4, r6, r8, sl}
     eb4:	160000b2 			; <UNDEFINED> instruction: 0x160000b2
     eb8:	03055001 	movweq	r5, #20481	; 0x5001
     ebc:	0000b430 	andeq	fp, r0, r0, lsr r4
     ec0:	007d0216 	rsbseq	r0, sp, r6, lsl r2
     ec4:	b4680305 	strbtlt	r0, [r8], #-773	; 0x305
     ec8:	10000000 	andne	r0, r0, r0
     ecc:	00008704 	andeq	r8, r0, r4, lsl #14
     ed0:	00001468 	andeq	r1, r0, r8, ror #8
     ed4:	00871010 	addeq	r1, r7, r0, lsl r0
     ed8:	00144b00 	andseq	r4, r4, r0, lsl #22
     edc:	872c1500 	strhi	r1, [ip, -r0, lsl #10]!
     ee0:	14520000 	ldrbne	r0, [r2], #-0
     ee4:	0ca80000 	stceq	0, cr0, [r8]
     ee8:	01160000 	tsteq	r6, r0
     eec:	6f080253 	svcvs	0x00080253
     ef0:	05520116 	ldrbeq	r0, [r2, #-278]	; 0x116
     ef4:	00b20c03 	adcseq	r0, r2, r3, lsl #24
     ef8:	51011600 	tstpl	r1, r0, lsl #12
     efc:	b2980305 	addslt	r0, r8, #335544320	; 0x14000000
     f00:	01160000 	tsteq	r6, r0
     f04:	a8030550 	stmdage	r3, {r4, r6, r8, sl}
     f08:	160000b4 			; <UNDEFINED> instruction: 0x160000b4
     f0c:	05007d02 	streq	r7, [r0, #-3330]	; 0xd02
     f10:	00b4e403 	adcseq	lr, r4, r3, lsl #8
     f14:	30100000 	andscc	r0, r0, r0
     f18:	68000087 	stmdavs	r0, {r0, r1, r2, r7}
     f1c:	1f000014 	svcne	0x00000014
     f20:	0000873c 	andeq	r8, r0, ip, lsr r7
     f24:	000014b4 			; <UNDEFINED> instruction: 0x000014b4
     f28:	03520116 	cmpeq	r2, #-2147483643	; 0x80000005
     f2c:	1640000a 	strbne	r0, [r0], -sl
     f30:	30015101 	andcc	r5, r1, r1, lsl #2
     f34:	0c070000 	stceq	0, cr0, [r7], {-0}
     f38:	0f00000a 	svceq	0x0000000a
     f3c:	00000312 	andeq	r0, r0, r2, lsl r3
     f40:	04927501 	ldreq	r7, [r2], #1281	; 0x501
     f44:	87600000 	strbhi	r0, [r0, -r0]!
     f48:	00900000 	addseq	r0, r0, r0
     f4c:	9c010000 	stcls	0, cr0, [r1], {-0}
     f50:	00000dda 	ldrdeq	r0, [r0], -sl
     f54:	01006e11 	tsteq	r0, r1, lsl lr
     f58:	00003775 	andeq	r3, r0, r5, ror r7
     f5c:	0008ce00 	andeq	ip, r8, r0, lsl #28
     f60:	000e1200 	andeq	r1, lr, r0, lsl #4
     f64:	0dea0000 	stcleq	0, cr0, [sl]
     f68:	03050000 	movweq	r0, #20480	; 0x5000
     f6c:	0000b21c 	andeq	fp, r0, ip, lsl r2
     f70:	00039723 	andeq	r9, r3, r3, lsr #14
     f74:	37770100 	ldrbcc	r0, [r7, -r0, lsl #2]!
     f78:	00000000 	andeq	r0, r0, r0
     f7c:	74701440 	ldrbtvc	r1, [r0], #-1088	; 0x440
     f80:	927a0100 	rsbsls	r0, sl, #0, 2
     f84:	08000004 	stmdaeq	r0, {r2}
     f88:	10000009 	andne	r0, r0, r9
     f8c:	00008774 	andeq	r8, r0, r4, ror r7
     f90:	0000144b 	andeq	r1, r0, fp, asr #8
     f94:	00879015 	addeq	r9, r7, r5, lsl r0
     f98:	00145200 	andseq	r5, r4, r0, lsl #4
     f9c:	000d5f00 	andeq	r5, sp, r0, lsl #30
     fa0:	53011600 	movwpl	r1, #5632	; 0x1600
     fa4:	16760802 	ldrbtne	r0, [r6], -r2, lsl #16
     fa8:	03055201 	movweq	r5, #20993	; 0x5201
     fac:	0000b21c 	andeq	fp, r0, ip, lsl r2
     fb0:	05510116 	ldrbeq	r0, [r1, #-278]	; 0x116
     fb4:	00b29803 	adcseq	r9, r2, r3, lsl #16
     fb8:	50011600 	andpl	r1, r1, r0, lsl #12
     fbc:	b4f00305 	ldrbtlt	r0, [r0], #773	; 0x305
     fc0:	02160000 	andseq	r0, r6, #0
     fc4:	0305007d 	movweq	r0, #20605	; 0x507d
     fc8:	0000b548 	andeq	fp, r0, r8, asr #10
     fcc:	87941000 	ldrhi	r1, [r4, r0]
     fd0:	14680000 	strbtne	r0, [r8], #-0
     fd4:	9c150000 	ldcls	0, cr0, [r5], {-0}
     fd8:	d3000087 	movwle	r0, #135	; 0x87
     fdc:	7d000014 	stcvc	0, cr0, [r0, #-80]	; 0xffffffb0
     fe0:	1600000d 	strne	r0, [r0], -sp
     fe4:	0a035101 	beq	d53f0 <__bss_end__+0xc8c10>
     fe8:	10004000 	andne	r4, r0, r0
     fec:	000087a8 	andeq	r8, r0, r8, lsr #15
     ff0:	0000144b 	andeq	r1, r0, fp, asr #8
     ff4:	0087c415 	addeq	ip, r7, r5, lsl r4
     ff8:	00145200 	andseq	r5, r4, r0, lsl #4
     ffc:	000dbf00 	andeq	fp, sp, r0, lsl #30
    1000:	53011600 	movwpl	r1, #5632	; 0x1600
    1004:	167b0802 	ldrbtne	r0, [fp], -r2, lsl #16
    1008:	03055201 	movweq	r5, #20993	; 0x5201
    100c:	0000b21c 	andeq	fp, r0, ip, lsl r2
    1010:	05510116 	ldrbeq	r0, [r1, #-278]	; 0x116
    1014:	00b29803 	adcseq	r9, r2, r3, lsl #16
    1018:	50011600 	andpl	r1, r1, r0, lsl #12
    101c:	b4300305 	ldrtlt	r0, [r0], #-773	; 0x305
    1020:	02160000 	andseq	r0, r6, #0
    1024:	0305007d 	movweq	r0, #20605	; 0x507d
    1028:	0000b554 	andeq	fp, r0, r4, asr r5
    102c:	87c81000 	strbhi	r1, [r8, r0]
    1030:	14680000 	strbtne	r0, [r8], #-0
    1034:	d01f0000 	andsle	r0, pc, r0
    1038:	bc000087 	stclt	0, cr0, [r0], {135}	; 0x87
    103c:	1600000b 	strne	r0, [r0], -fp
    1040:	0a035101 	beq	d544c <__bss_end__+0xc8c6c>
    1044:	00004000 	andeq	r4, r0, r0
    1048:	00008a17 	andeq	r8, r0, r7, lsl sl
    104c:	000dea00 	andeq	lr, sp, r0, lsl #20
    1050:	00811800 	addeq	r1, r1, r0, lsl #16
    1054:	000c0000 	andeq	r0, ip, r0
    1058:	000dda07 	andeq	sp, sp, r7, lsl #20
    105c:	03e82000 	mvneq	r2, #0
    1060:	86010000 	strhi	r0, [r1], -r0
    1064:	000087f0 	strdeq	r8, [r0], -r0
    1068:	00000090 	muleq	r0, r0, r0
    106c:	0edc9c01 	cdpeq	12, 13, cr9, cr12, cr1, {0}
    1070:	63140000 	tstvs	r4, #0
    1074:	89010031 	stmdbhi	r1, {r0, r4, r5}
    1078:	0000009c 	muleq	r0, ip, r0
    107c:	00000926 	andeq	r0, r0, r6, lsr #18
    1080:	00000e12 	andeq	r0, r0, r2, lsl lr
    1084:	000eec00 	andeq	lr, lr, r0, lsl #24
    1088:	2c030500 	cfstr32cs	mvfx0, [r3], {-0}
    108c:	100000b2 	strhne	r0, [r0], -r2
    1090:	000087fc 	strdeq	r8, [r0], -ip
    1094:	000014ed 	andeq	r1, r0, sp, ror #9
    1098:	00880010 	addeq	r0, r8, r0, lsl r0
    109c:	00144000 	andseq	r4, r4, r0
    10a0:	88081000 	stmdahi	r8, {ip}
    10a4:	14f40000 	ldrbtne	r0, [r4], #0
    10a8:	0c100000 	ldceq	0, cr0, [r0], {-0}
    10ac:	40000088 	andmi	r0, r0, r8, lsl #1
    10b0:	10000014 	andne	r0, r0, r4, lsl r0
    10b4:	00008818 	andeq	r8, r0, r8, lsl r8
    10b8:	0000144b 	andeq	r1, r0, fp, asr #8
    10bc:	00883415 	addeq	r3, r8, r5, lsl r4
    10c0:	00145200 	andseq	r5, r4, r0, lsl #4
    10c4:	000e8700 	andeq	r8, lr, r0, lsl #14
    10c8:	53011600 	movwpl	r1, #5632	; 0x1600
    10cc:	168e0802 	strne	r0, [lr], r2, lsl #16
    10d0:	03055201 	movweq	r5, #20993	; 0x5201
    10d4:	0000b22c 	andeq	fp, r0, ip, lsr #4
    10d8:	05510116 	ldrbeq	r0, [r1, #-278]	; 0x116
    10dc:	00b29803 	adcseq	r9, r2, r3, lsl #16
    10e0:	50011600 	andpl	r1, r1, r0, lsl #12
    10e4:	b1400305 	cmplt	r0, r5, lsl #6
    10e8:	02160000 	andseq	r0, r6, #0
    10ec:	0305007d 	movweq	r0, #20605	; 0x507d
    10f0:	0000b590 	muleq	r0, r0, r5
    10f4:	88381000 	ldmdahi	r8!, {ip}
    10f8:	14680000 	strbtne	r0, [r8], #-0
    10fc:	44100000 	ldrmi	r0, [r0], #-0
    1100:	4b000088 	blmi	1328 <__code_start__-0x6cd8>
    1104:	15000014 	strne	r0, [r0, #-20]
    1108:	00008860 	andeq	r8, r0, r0, ror #16
    110c:	00001452 	andeq	r1, r0, r2, asr r4
    1110:	00000ed2 	ldrdeq	r0, [r0], -r2
    1114:	02530116 	subseq	r0, r3, #-2147483643	; 0x80000005
    1118:	01168f08 	tsteq	r6, r8, lsl #30
    111c:	2c030552 	cfstr32cs	mvfx0, [r3], {82}	; 0x52
    1120:	160000b2 			; <UNDEFINED> instruction: 0x160000b2
    1124:	03055101 	movweq	r5, #20737	; 0x5101
    1128:	0000b298 	muleq	r0, r8, r2
    112c:	05500116 	ldrbeq	r0, [r0, #-278]	; 0x116
    1130:	00b14003 	adcseq	r4, r1, r3
    1134:	7d021600 	stcvc	6, cr1, [r2, #-0]
    1138:	9c030500 	cfstr32ls	mvfx0, [r3], {-0}
    113c:	000000b5 	strheq	r0, [r0], -r5
    1140:	00886410 	addeq	r6, r8, r0, lsl r4
    1144:	00146800 	andseq	r6, r4, r0, lsl #16
    1148:	8a170000 	bhi	5c1150 <__bss_end__+0x5b4970>
    114c:	ec000000 	stc	0, cr0, [r0], {-0}
    1150:	1800000e 	stmdane	r0, {r1, r2, r3}
    1154:	00000081 	andeq	r0, r0, r1, lsl #1
    1158:	dc070008 	stcle	0, cr0, [r7], {8}
    115c:	2000000e 	andcs	r0, r0, lr
    1160:	000004bc 			; <UNDEFINED> instruction: 0x000004bc
    1164:	88809201 	stmhi	r0, {r0, r9, ip, pc}
    1168:	000c0000 	andeq	r0, ip, r0
    116c:	9c010000 	stcls	0, cr0, [r1], {-0}
    1170:	00000f10 	andeq	r0, r0, r0, lsl pc
    1174:	00888810 	addeq	r8, r8, r0, lsl r8
    1178:	00150500 	andseq	r0, r5, r0, lsl #10
    117c:	85200000 	strhi	r0, [r0, #-0]!
    1180:	01000002 	tsteq	r0, r2
    1184:	00888c97 	umulleq	r8, r8, r7, ip	; <UNPREDICTABLE>
    1188:	00008000 	andeq	r8, r0, r0
    118c:	e19c0100 	orrs	r0, ip, r0, lsl #2
    1190:	1100000f 	tstne	r0, pc
    1194:	97010063 	strls	r0, [r1, -r3, rrx]
    1198:	00000257 	andeq	r0, r0, r7, asr r2
    119c:	0000094f 	andeq	r0, r0, pc, asr #18
    11a0:	00000e12 	andeq	r0, r0, r2, lsl lr
    11a4:	000fe100 	andeq	lr, pc, r0, lsl #2
    11a8:	38030500 	stmdacc	r3, {r8, sl}
    11ac:	100000b2 	strhne	r0, [r0], -r2
    11b0:	000088a0 	andeq	r8, r0, r0, lsr #17
    11b4:	0000144b 	andeq	r1, r0, fp, asr #8
    11b8:	0088bc15 	addeq	fp, r8, r5, lsl ip
    11bc:	00145200 	andseq	r5, r4, r0, lsl #4
    11c0:	000f8300 	andeq	r8, pc, r0, lsl #6
    11c4:	53011600 	movwpl	r1, #5632	; 0x1600
    11c8:	16980802 	ldrne	r0, [r8], r2, lsl #16
    11cc:	03055201 	movweq	r5, #20993	; 0x5201
    11d0:	0000b238 	andeq	fp, r0, r8, lsr r2
    11d4:	05510116 	ldrbeq	r0, [r1, #-278]	; 0x116
    11d8:	00b29803 	adcseq	r9, r2, r3, lsl #16
    11dc:	50011600 	andpl	r1, r1, r0, lsl #12
    11e0:	b1400305 	cmplt	r0, r5, lsl #6
    11e4:	02160000 	andseq	r0, r6, #0
    11e8:	0305007d 	movweq	r0, #20605	; 0x507d
    11ec:	0000b5ac 	andeq	fp, r0, ip, lsr #11
    11f0:	88c01000 	stmiahi	r0, {ip}^
    11f4:	14680000 	strbtne	r0, [r8], #-0
    11f8:	cc100000 	ldcgt	0, cr0, [r0], {-0}
    11fc:	4b000088 	blmi	1424 <__code_start__-0x6bdc>
    1200:	15000014 	strne	r0, [r0, #-20]
    1204:	000088e8 	andeq	r8, r0, r8, ror #17
    1208:	00001452 	andeq	r1, r0, r2, asr r4
    120c:	00000fce 	andeq	r0, r0, lr, asr #31
    1210:	02530116 	subseq	r0, r3, #-2147483643	; 0x80000005
    1214:	01169908 	tsteq	r6, r8, lsl #18
    1218:	38030552 	stmdacc	r3, {r1, r4, r6, r8, sl}
    121c:	160000b2 			; <UNDEFINED> instruction: 0x160000b2
    1220:	03055101 	movweq	r5, #20737	; 0x5101
    1224:	0000b298 	muleq	r0, r8, r2
    1228:	05500116 	ldrbeq	r0, [r0, #-278]	; 0x116
    122c:	00b14003 	adcseq	r4, r1, r3
    1230:	7d021600 	stcvc	6, cr1, [r2, #-0]
    1234:	bc030500 	cfstr32lt	mvfx0, [r3], {-0}
    1238:	000000b5 	strheq	r0, [r0], -r5
    123c:	0088ec10 	addeq	lr, r8, r0, lsl ip
    1240:	00146800 	andseq	r6, r4, r0, lsl #16
    1244:	88f01000 	ldmhi	r0!, {ip}^
    1248:	150c0000 	strne	r0, [ip, #-0]
    124c:	07000000 	streq	r0, [r0, -r0]
    1250:	00000a0c 	andeq	r0, r0, ip, lsl #20
    1254:	00036220 	andeq	r6, r3, r0, lsr #4
    1258:	0c9c0100 	ldfeqs	f0, [ip], {0}
    125c:	58000089 	stmdapl	r0, {r0, r3, r7}
    1260:	01000000 	mrseq	r0, (UNDEF: 0)
    1264:	0010759c 	mulseq	r0, ip, r5
    1268:	00631400 	rsbeq	r1, r3, r0, lsl #8
    126c:	02579d01 	subseq	r9, r7, #1, 26	; 0x40
    1270:	09780000 	ldmdbeq	r8!, {}^	; <UNPREDICTABLE>
    1274:	0e120000 	cdpeq	0, 1, cr0, cr2, cr0, {0}
    1278:	85000000 	strhi	r0, [r0, #-0]
    127c:	05000010 	streq	r0, [r0, #-16]
    1280:	00b24803 	adcseq	r4, r2, r3, lsl #16
    1284:	89181000 	ldmdbhi	r8, {ip}
    1288:	14400000 	strbne	r0, [r0], #-0
    128c:	24100000 	ldrcs	r0, [r0], #-0
    1290:	4b000089 	blmi	14bc <__code_start__-0x6b44>
    1294:	15000014 	strne	r0, [r0, #-20]
    1298:	00008940 	andeq	r8, r0, r0, asr #18
    129c:	00001452 	andeq	r1, r0, r2, asr r4
    12a0:	00001062 	andeq	r1, r0, r2, rrx
    12a4:	02530116 	subseq	r0, r3, #-2147483643	; 0x80000005
    12a8:	01169e08 	tsteq	r6, r8, lsl #28
    12ac:	48030552 	stmdami	r3, {r1, r4, r6, r8, sl}
    12b0:	160000b2 			; <UNDEFINED> instruction: 0x160000b2
    12b4:	03055101 	movweq	r5, #20737	; 0x5101
    12b8:	0000b298 	muleq	r0, r8, r2
    12bc:	05500116 	ldrbeq	r0, [r0, #-278]	; 0x116
    12c0:	00b14003 	adcseq	r4, r1, r3
    12c4:	7d021600 	stcvc	6, cr1, [r2, #-0]
    12c8:	d0030500 	andle	r0, r3, r0, lsl #10
    12cc:	000000b5 	strheq	r0, [r0], -r5
    12d0:	00894410 	addeq	r4, r9, r0, lsl r4
    12d4:	00146800 	andseq	r6, r4, r0, lsl #16
    12d8:	894c1000 	stmdbhi	ip, {ip}^
    12dc:	0f100000 	svceq	0x00100000
    12e0:	17000000 	strne	r0, [r0, -r0]
    12e4:	0000008a 	andeq	r0, r0, sl, lsl #1
    12e8:	00001085 	andeq	r1, r0, r5, lsl #1
    12ec:	00008118 	andeq	r8, r0, r8, lsl r1
    12f0:	07000b00 	streq	r0, [r0, -r0, lsl #22]
    12f4:	00001075 	andeq	r1, r0, r5, ror r0
    12f8:	00025d20 	andeq	r5, r2, r0, lsr #26
    12fc:	64a30100 	strtvs	r0, [r3], #256	; 0x100
    1300:	50000089 	andpl	r0, r0, r9, lsl #1
    1304:	01000000 	mrseq	r0, (UNDEF: 0)
    1308:	0011109c 	mulseq	r1, ip, r0
    130c:	00631100 	rsbeq	r1, r3, r0, lsl #2
    1310:	0257a301 	subseq	sl, r7, #67108864	; 0x4000000
    1314:	09960000 	ldmibeq	r6, {}	; <UNPREDICTABLE>
    1318:	0e120000 	cdpeq	0, 1, cr0, cr2, cr0, {0}
    131c:	20000000 	andcs	r0, r0, r0
    1320:	05000011 	streq	r0, [r0, #-17]
    1324:	00b25403 	adcseq	r5, r2, r3, lsl #8
    1328:	89781000 	ldmdbhi	r8!, {ip}^
    132c:	144b0000 	strbne	r0, [fp], #-0
    1330:	94150000 	ldrls	r0, [r5], #-0
    1334:	52000089 	andpl	r0, r0, #137	; 0x89
    1338:	fd000014 	stc2	0, cr0, [r0, #-80]	; 0xffffffb0
    133c:	16000010 			; <UNDEFINED> instruction: 0x16000010
    1340:	08025301 	stmdaeq	r2, {r0, r8, r9, ip, lr}
    1344:	520116a4 	andpl	r1, r1, #164, 12	; 0xa400000
    1348:	b2540305 	subslt	r0, r4, #335544320	; 0x14000000
    134c:	01160000 	tsteq	r6, r0
    1350:	98030551 	stmdals	r3, {r0, r4, r6, r8, sl}
    1354:	160000b2 			; <UNDEFINED> instruction: 0x160000b2
    1358:	03055001 	movweq	r5, #20481	; 0x5001
    135c:	0000b140 	andeq	fp, r0, r0, asr #2
    1360:	007d0216 	rsbseq	r0, sp, r6, lsl r2
    1364:	b5d00305 	ldrblt	r0, [r0, #773]	; 0x305
    1368:	10000000 	andne	r0, r0, r0
    136c:	00008998 	muleq	r0, r8, r9
    1370:	00001468 	andeq	r1, r0, r8, ror #8
    1374:	00899c10 	addeq	r9, r9, r0, lsl ip
    1378:	00151d00 	andseq	r1, r5, r0, lsl #26
    137c:	8a170000 	bhi	5c1384 <__bss_end__+0x5b4ba4>
    1380:	20000000 	andcs	r0, r0, r0
    1384:	18000011 	stmdane	r0, {r0, r4}
    1388:	00000081 	andeq	r0, r0, r1, lsl #1
    138c:	1007000e 	andne	r0, r7, lr
    1390:	20000011 	andcs	r0, r0, r1, lsl r0
    1394:	0000045c 	andeq	r0, r0, ip, asr r4
    1398:	89b4a701 	ldmibhi	r4!, {r0, r8, r9, sl, sp, pc}
    139c:	00580000 	subseq	r0, r8, r0
    13a0:	9c010000 	stcls	0, cr0, [r1], {-0}
    13a4:	000011b4 			; <UNDEFINED> instruction: 0x000011b4
    13a8:	01006314 	tsteq	r0, r4, lsl r3
    13ac:	000257a8 	andeq	r5, r2, r8, lsr #15
    13b0:	0009b400 	andeq	fp, r9, r0, lsl #8
    13b4:	000e1200 	andeq	r1, lr, r0, lsl #4
    13b8:	11c40000 	bicne	r0, r4, r0
    13bc:	03050000 	movweq	r0, #20480	; 0x5000
    13c0:	0000b264 	andeq	fp, r0, r4, ror #4
    13c4:	0089c010 	addeq	ip, r9, r0, lsl r0
    13c8:	00144000 	andseq	r4, r4, r0
    13cc:	89cc1000 	stmibhi	ip, {ip}^
    13d0:	144b0000 	strbne	r0, [fp], #-0
    13d4:	e8150000 	ldmda	r5, {}	; <UNPREDICTABLE>
    13d8:	52000089 	andpl	r0, r0, #137	; 0x89
    13dc:	a1000014 	tstge	r0, r4, lsl r0
    13e0:	16000011 			; <UNDEFINED> instruction: 0x16000011
    13e4:	08025301 	stmdaeq	r2, {r0, r8, r9, ip, lr}
    13e8:	520116a9 	andpl	r1, r1, #177209344	; 0xa900000
    13ec:	b2640305 	rsblt	r0, r4, #335544320	; 0x14000000
    13f0:	01160000 	tsteq	r6, r0
    13f4:	98030551 	stmdals	r3, {r0, r4, r6, r8, sl}
    13f8:	160000b2 			; <UNDEFINED> instruction: 0x160000b2
    13fc:	03055001 	movweq	r5, #20481	; 0x5001
    1400:	0000b140 	andeq	fp, r0, r0, asr #2
    1404:	007d0216 	rsbseq	r0, sp, r6, lsl r2
    1408:	b5ac0305 	strlt	r0, [ip, #773]!	; 0x305
    140c:	10000000 	andne	r0, r0, r0
    1410:	000089ec 	andeq	r8, r0, ip, ror #19
    1414:	00001468 	andeq	r1, r0, r8, ror #8
    1418:	0089f410 	addeq	pc, r9, r0, lsl r4	; <UNPREDICTABLE>
    141c:	00108a00 	andseq	r8, r0, r0, lsl #20
    1420:	8a170000 	bhi	5c1428 <__bss_end__+0x5b4c48>
    1424:	c4000000 	strgt	r0, [r0], #-0
    1428:	18000011 	stmdane	r0, {r0, r4}
    142c:	00000081 	andeq	r0, r0, r1, lsl #1
    1430:	b407000a 	strlt	r0, [r7], #-10
    1434:	0f000011 	svceq	0x00000011
    1438:	00000492 	muleq	r0, r2, r4
    143c:	0068af01 	rsbeq	sl, r8, r1, lsl #30
    1440:	8a0c0000 	bhi	301448 <__bss_end__+0x2f4c68>
    1444:	00080000 	andeq	r0, r8, r0
    1448:	9c010000 	stcls	0, cr0, [r1], {-0}
    144c:	000011ee 	andeq	r1, r0, lr, ror #3
    1450:	01007224 	tsteq	r0, r4, lsr #4
    1454:	000068b0 			; <UNDEFINED> instruction: 0x000068b0
    1458:	00500100 	subseq	r0, r0, r0, lsl #2
    145c:	00026c20 	andeq	r6, r2, r0, lsr #24
    1460:	14b40100 	ldrtne	r0, [r4], #256	; 0x100
    1464:	0c00008a 	stceq	0, cr0, [r0], {138}	; 0x8a
    1468:	01000000 	mrseq	r0, (UNDEF: 0)
    146c:	0012229c 	mulseq	r2, ip, r2
    1470:	00721100 	rsbseq	r1, r2, r0, lsl #2
    1474:	0037b401 	eorseq	fp, r7, r1, lsl #8
    1478:	09d20000 	ldmibeq	r2, {}^	; <UNPREDICTABLE>
    147c:	1c1f0000 	ldcne	0, cr0, [pc], {-0}
    1480:	2e00008a 	cdpcs	0, 0, cr0, cr0, cr10, {4}
    1484:	16000015 			; <UNDEFINED> instruction: 0x16000015
    1488:	f3035001 	vhadd.u8	d5, d3, d1
    148c:	00005001 	andeq	r5, r0, r1
    1490:	00022320 	andeq	r2, r2, r0, lsr #6
    1494:	20ba0100 	adcscs	r0, sl, r0, lsl #2
    1498:	bc00008a 	stclt	0, cr0, [r0], {138}	; 0x8a
    149c:	01000000 	mrseq	r0, (UNDEF: 0)
    14a0:	0013729c 	mulseq	r3, ip, r2
    14a4:	69701100 	ldmdbvs	r0!, {r8, ip}^
    14a8:	ba010064 	blt	41640 <__bss_end__+0x34e60>
    14ac:	00000037 	andeq	r0, r0, r7, lsr r0
    14b0:	000009f3 	strdeq	r0, [r0], -r3
    14b4:	0001981a 	andeq	r9, r1, sl, lsl r8
    14b8:	37ba0100 	ldrcc	r0, [sl, r0, lsl #2]!
    14bc:	5f000000 	svcpl	0x00000000
    14c0:	1100000a 	tstne	r0, sl
    14c4:	01007470 	tsteq	r0, r0, ror r4
    14c8:	000492ba 			; <UNDEFINED> instruction: 0x000492ba
    14cc:	000ad800 	andeq	sp, sl, r0, lsl #16
    14d0:	000e1200 	andeq	r1, lr, r0, lsl #4
    14d4:	13720000 	cmnne	r2, #0
    14d8:	03050000 	movweq	r0, #20480	; 0x5000
    14dc:	0000b270 	andeq	fp, r0, r0, ror r2
    14e0:	008a3410 	addeq	r3, sl, r0, lsl r4
    14e4:	00144b00 	andseq	r4, r4, r0, lsl #22
    14e8:	8a501500 	bhi	14068f0 <__bss_end__+0x13fa110>
    14ec:	14520000 	ldrbne	r0, [r2], #-0
    14f0:	12b40000 	adcsne	r0, r4, #0
    14f4:	01160000 	tsteq	r6, r0
    14f8:	bb080253 	bllt	201e4c <__bss_end__+0x1f566c>
    14fc:	05520116 	ldrbeq	r0, [r2, #-278]	; 0x116
    1500:	00b27003 	adcseq	r7, r2, r3
    1504:	51011600 	tstpl	r1, r0, lsl #12
    1508:	b2980305 	addslt	r0, r8, #335544320	; 0x14000000
    150c:	01160000 	tsteq	r6, r0
    1510:	40030550 	andmi	r0, r3, r0, asr r5
    1514:	160000b1 			; <UNDEFINED> instruction: 0x160000b1
    1518:	05007d02 	streq	r7, [r0, #-3330]	; 0xd02
    151c:	00b5e003 	adcseq	lr, r5, r3
    1520:	54100000 	ldrpl	r0, [r0], #-0
    1524:	6800008a 	stmdavs	r0, {r1, r3, r7}
    1528:	10000014 	andne	r0, r0, r4, lsl r0
    152c:	00008a60 	andeq	r8, r0, r0, ror #20
    1530:	0000144b 	andeq	r1, r0, fp, asr #8
    1534:	008a7c15 	addeq	r7, sl, r5, lsl ip
    1538:	00145200 	andseq	r5, r4, r0, lsl #4
    153c:	0012ff00 	andseq	pc, r2, r0, lsl #30
    1540:	53011600 	movwpl	r1, #5632	; 0x1600
    1544:	16bc0802 	ldrtne	r0, [ip], r2, lsl #16
    1548:	03055201 	movweq	r5, #20993	; 0x5201
    154c:	0000b270 	andeq	fp, r0, r0, ror r2
    1550:	05510116 	ldrbeq	r0, [r1, #-278]	; 0x116
    1554:	00b29803 	adcseq	r9, r2, r3, lsl #16
    1558:	50011600 	andpl	r1, r1, r0, lsl #12
    155c:	b1400305 	cmplt	r0, r5, lsl #6
    1560:	02160000 	andseq	r0, r6, #0
    1564:	0305007d 	movweq	r0, #20605	; 0x507d
    1568:	0000b5f4 	strdeq	fp, [r0], -r4
    156c:	8a801000 	bhi	fe005574 <__bss_end__+0xfdff8d94>
    1570:	14680000 	strbtne	r0, [r8], #-0
    1574:	90100000 	andsls	r0, r0, r0
    1578:	4b00008a 	blmi	17a8 <__code_start__-0x6858>
    157c:	15000014 	strne	r0, [r0, #-20]
    1580:	00008aac 	andeq	r8, r0, ip, lsr #21
    1584:	00001452 	andeq	r1, r0, r2, asr r4
    1588:	0000134a 	andeq	r1, r0, sl, asr #6
    158c:	02530116 	subseq	r0, r3, #-2147483643	; 0x80000005
    1590:	0116bd08 	tsteq	r6, r8, lsl #26
    1594:	70030552 	andvc	r0, r3, r2, asr r5
    1598:	160000b2 			; <UNDEFINED> instruction: 0x160000b2
    159c:	03055101 	movweq	r5, #20737	; 0x5101
    15a0:	0000b298 	muleq	r0, r8, r2
    15a4:	05500116 	ldrbeq	r0, [r0, #-278]	; 0x116
    15a8:	00b14003 	adcseq	r4, r1, r3
    15ac:	7d021600 	stcvc	6, cr1, [r2, #-0]
    15b0:	00030500 	andeq	r0, r3, r0, lsl #10
    15b4:	000000b6 	strheq	r0, [r0], -r6
    15b8:	008ab010 	addeq	fp, sl, r0, lsl r0
    15bc:	00146800 	andseq	r6, r4, r0, lsl #16
    15c0:	8abc1f00 	bhi	fef091c8 <__bss_end__+0xfeefc9e8>
    15c4:	153f0000 	ldrne	r0, [pc, #-0]!	; 15cc <__code_start__-0x6a34>
    15c8:	01160000 	tsteq	r6, r0
    15cc:	01f30351 	mvnseq	r0, r1, asr r3
    15d0:	50011652 	andpl	r1, r1, r2, asr r6
    15d4:	5001f309 	andpl	pc, r1, r9, lsl #6
    15d8:	01f32438 	mvnseq	r2, r8, lsr r4
    15dc:	00002151 	andeq	r2, r0, r1, asr r1
    15e0:	000ba707 	andeq	sl, fp, r7, lsl #14
    15e4:	04482000 	strbeq	r2, [r8], #-0
    15e8:	c2010000 	andgt	r0, r1, #0
    15ec:	00008adc 	ldrdeq	r8, [r0], -ip
    15f0:	00000048 	andeq	r0, r0, r8, asr #32
    15f4:	14049c01 	strne	r9, [r4], #-3073	; 0xc01
    15f8:	6c110000 	ldcvs	0, cr0, [r1], {-0}
    15fc:	c2010072 	andgt	r0, r1, #114	; 0x72
    1600:	00000037 	andeq	r0, r0, r7, lsr r0
    1604:	00000b44 	andeq	r0, r0, r4, asr #22
    1608:	00000e12 	andeq	r0, r0, r2, lsl lr
    160c:	00141400 	andseq	r1, r4, r0, lsl #8
    1610:	84030500 	strhi	r0, [r3], #-1280	; 0x500
    1614:	100000b2 	strhne	r0, [r0], -r2
    1618:	00008aec 	andeq	r8, r0, ip, ror #21
    161c:	00000378 	andeq	r0, r0, r8, ror r3
    1620:	008af810 	addeq	pc, sl, r0, lsl r8	; <UNPREDICTABLE>
    1624:	000fe600 	andeq	lr, pc, r0, lsl #12
    1628:	8afc1000 	bhi	fff05630 <__bss_end__+0xffef8e50>
    162c:	144b0000 	strbne	r0, [fp], #-0
    1630:	14150000 	ldrne	r0, [r5], #-0
    1634:	5200008b 	andpl	r0, r0, #139	; 0x8b
    1638:	fa000014 	blx	1690 <__code_start__-0x6970>
    163c:	16000013 			; <UNDEFINED> instruction: 0x16000013
    1640:	08025301 	stmdaeq	r2, {r0, r8, r9, ip, lr}
    1644:	520116c5 	andpl	r1, r1, #206569472	; 0xc500000
    1648:	b2840305 	addlt	r0, r4, #335544320	; 0x14000000
    164c:	01160000 	tsteq	r6, r0
    1650:	98030551 	stmdals	r3, {r0, r4, r6, r8, sl}
    1654:	160000b2 			; <UNDEFINED> instruction: 0x160000b2
    1658:	03055001 	movweq	r5, #20481	; 0x5001
    165c:	0000b614 	andeq	fp, r0, r4, lsl r6
    1660:	007d0216 	rsbseq	r0, sp, r6, lsl r2
    1664:	00007402 	andeq	r7, r0, r2, lsl #8
    1668:	008b1810 	addeq	r1, fp, r0, lsl r8
    166c:	00146800 	andseq	r6, r4, r0, lsl #16
    1670:	8a170000 	bhi	5c1678 <__bss_end__+0x5b4e98>
    1674:	14000000 	strne	r0, [r0], #-0
    1678:	18000014 	stmdane	r0, {r2, r4}
    167c:	00000081 	andeq	r0, r0, r1, lsl #1
    1680:	04070013 	streq	r0, [r7], #-19
    1684:	25000014 	strcs	r0, [r0, #-20]
    1688:	00000548 	andeq	r0, r0, r8, asr #10
    168c:	142a0701 	strtne	r0, [sl], #-1793	; 0x701
    1690:	03050000 	movweq	r0, #20480	; 0x5000
    1694:	0000b1a4 	andeq	fp, r0, r4, lsr #3
    1698:	00003707 	andeq	r3, r0, r7, lsl #14
    169c:	08752500 	ldmdaeq	r5!, {r8, sl, sp}^
    16a0:	09010000 	stmdbeq	r1, {}	; <UNPREDICTABLE>
    16a4:	00000025 	andeq	r0, r0, r5, lsr #32
    16a8:	c3c40305 	bicgt	r0, r4, #335544320	; 0x14000000
    16ac:	6e260000 	cdpvs	0, 2, cr0, cr6, cr0, {0}
    16b0:	05000003 	streq	r0, [r0, #-3]
    16b4:	0002574e 	andeq	r5, r2, lr, asr #14
    16b8:	01162700 	tsteq	r6, r0, lsl #14
    16bc:	1e070000 	cdpne	0, 0, cr0, cr7, cr0, {0}
    16c0:	000a5b28 	andeq	r5, sl, r8, lsr #22
    16c4:	25290700 	strcs	r0, [r9, #-1792]!	; 0x700
    16c8:	68000000 	stmdavs	r0, {}	; <UNPREDICTABLE>
    16cc:	29000014 	stmdbcs	r0, {r2, r4}
    16d0:	00000091 	muleq	r0, r1, r0
    16d4:	2527002a 	strcs	r0, [r7, #-42]!	; 0x2a
    16d8:	07000001 	streq	r0, [r0, -r1]
    16dc:	03aa2765 			; <UNDEFINED> instruction: 0x03aa2765
    16e0:	52020000 	andpl	r0, r2, #0
    16e4:	00030b26 	andeq	r0, r3, r6, lsr #22
    16e8:	38730600 	ldmdacc	r3!, {r9, sl}^
    16ec:	2b000003 	blcs	1700 <__code_start__-0x6900>
    16f0:	00000488 	andeq	r0, r0, r8, lsl #9
    16f4:	14927006 	ldrne	r7, [r2], #6
    16f8:	92290000 	eorls	r0, r9, #0
    16fc:	00000004 	andeq	r0, r0, r4
    1700:	0002cb2b 	andeq	ip, r2, fp, lsr #22
    1704:	ad7a0600 	ldclge	6, cr0, [sl, #-0]
    1708:	29000014 	stmdbcs	r0, {r2, r4}
    170c:	00000091 	muleq	r0, r1, r0
    1710:	0014ad29 	andseq	sl, r4, r9, lsr #26
    1714:	00372900 	eorseq	r2, r7, r0, lsl #18
    1718:	06000000 	streq	r0, [r0], -r0
    171c:	0014b304 	andseq	fp, r4, r4, lsl #6
    1720:	81282c00 	teqhi	r8, r0, lsl #24
    1724:	08000004 	stmdaeq	r0, {r2}
    1728:	0000881b 	andeq	r8, r0, fp, lsl r8
    172c:	0014d300 	andseq	sp, r4, r0, lsl #6
    1730:	00882900 	addeq	r2, r8, r0, lsl #18
    1734:	25290000 	strcs	r0, [r9, #-0]!
    1738:	29000000 	stmdbcs	r0, {}	; <UNPREDICTABLE>
    173c:	0000002c 	andeq	r0, r0, ip, lsr #32
    1740:	023f2800 	eorseq	r2, pc, #0, 16
    1744:	6d070000 	stcvs	0, cr0, [r7, #-0]
    1748:	00000088 	andeq	r0, r0, r8, lsl #1
    174c:	000014ed 	andeq	r1, r0, sp, ror #9
    1750:	00003729 	andeq	r3, r0, r9, lsr #14
    1754:	00372900 	eorseq	r2, r7, r0, lsl #18
    1758:	27000000 	strcs	r0, [r0, -r0]
    175c:	0000019d 	muleq	r0, sp, r1
    1760:	e92b5b02 	stmdb	fp!, {r1, r8, r9, fp, ip, lr}
    1764:	05000002 	streq	r0, [r0, #-2]
    1768:	00150550 	andseq	r0, r5, r0, asr r5
    176c:	02572900 	subseq	r2, r7, #0, 18
    1770:	27000000 	strcs	r0, [r0, -r0]
    1774:	00000565 	andeq	r0, r0, r5, ror #10
    1778:	b32b3609 	teqlt	fp, #9437184	; 0x900000
    177c:	02000002 	andeq	r0, r0, #2
    1780:	00151d66 	andseq	r1, r5, r6, ror #26
    1784:	02572900 	subseq	r2, r7, #0, 18
    1788:	2b000000 	blcs	1790 <__code_start__-0x6870>
    178c:	0000051e 	andeq	r0, r0, lr, lsl r5
    1790:	152e6702 	strne	r6, [lr, #-1794]!	; 0x702
    1794:	57290000 	strpl	r0, [r9, -r0]!
    1798:	00000002 	andeq	r0, r0, r2
    179c:	0002952b 	andeq	r9, r2, fp, lsr #10
    17a0:	3f560200 	svccc	0x00560200
    17a4:	29000015 	stmdbcs	r0, {r0, r2, r4}
    17a8:	00000068 	andeq	r0, r0, r8, rrx
    17ac:	021a2d00 	andseq	r2, sl, #0, 26
    17b0:	60020000 	andvs	r0, r2, r0
    17b4:	00006829 	andeq	r6, r0, r9, lsr #16
    17b8:	04922900 	ldreq	r2, [r2], #2304	; 0x900
    17bc:	00000000 	andeq	r0, r0, r0
    17c0:	0000119e 	muleq	r0, lr, r1
    17c4:	03840004 	orreq	r0, r4, #4
    17c8:	01040000 	mrseq	r0, (UNDEF: 4)
    17cc:	0000009b 	muleq	r0, fp, r0
    17d0:	00056e01 	andeq	r6, r5, r1, lsl #28
    17d4:	00003200 	andeq	r3, r0, r0, lsl #4
    17d8:	008b2400 	addeq	r2, fp, r0, lsl #8
    17dc:	00091400 	andeq	r1, r9, r0, lsl #8
    17e0:	0003c300 	andeq	ip, r3, r0, lsl #6
    17e4:	05040200 	streq	r0, [r4, #-512]	; 0x200
    17e8:	00746e69 	rsbseq	r6, r4, r9, ror #28
    17ec:	25070403 	strcs	r0, [r7, #-1027]	; 0x403
    17f0:	03000000 	movweq	r0, #0
    17f4:	010a0601 	tsteq	sl, r1, lsl #12
    17f8:	02030000 	andeq	r0, r3, #0
    17fc:	00017705 	andeq	r7, r1, r5, lsl #14
    1800:	05040300 	streq	r0, [r4, #-768]	; 0x300
    1804:	00000005 	andeq	r0, r0, r5
    1808:	00050803 	andeq	r0, r5, r3, lsl #16
    180c:	03000000 	movweq	r0, #0
    1810:	01080801 	tsteq	r8, r1, lsl #16
    1814:	02030000 	andeq	r0, r3, #0
    1818:	00014607 	andeq	r4, r1, r7, lsl #12
    181c:	04190400 	ldreq	r0, [r9], #-1024	; 0x400
    1820:	34040000 	strcc	r0, [r4], #-0
    1824:	00000068 	andeq	r0, r0, r8, rrx
    1828:	20070403 	andcs	r0, r7, r3, lsl #8
    182c:	03000000 	movweq	r0, #0
    1830:	001b0708 	andseq	r0, fp, r8, lsl #14
    1834:	04030000 	streq	r0, [r3], #-0
    1838:	00018107 	andeq	r8, r1, r7, lsl #2
    183c:	08010300 	stmdaeq	r1, {r8, r9}
    1840:	00000111 	andeq	r0, r0, r1, lsl r1
    1844:	008a0405 	addeq	r0, sl, r5, lsl #8
    1848:	7d060000 	stcvc	0, cr0, [r6, #-0]
    184c:	07000000 	streq	r0, [r0, -r0]
    1850:	0000007d 	andeq	r0, r0, sp, ror r0
    1854:	0000009f 	muleq	r0, pc, r0	; <UNPREDICTABLE>
    1858:	00007608 	andeq	r7, r0, r8, lsl #12
    185c:	07001900 	streq	r1, [r0, -r0, lsl #18]
    1860:	0000007d 	andeq	r0, r0, sp, ror r0
    1864:	000000af 	andeq	r0, r0, pc, lsr #1
    1868:	00007608 	andeq	r7, r0, r8, lsl #12
    186c:	09001800 	stmdbeq	r0, {fp, ip}
    1870:	000005c8 	andeq	r0, r0, r8, asr #11
    1874:	07080204 	streq	r0, [r8, -r4, lsl #4]
    1878:	0a000001 	beq	1884 <__code_start__-0x677c>
    187c:	00000655 	andeq	r0, r0, r5, asr r6
    1880:	002c0a02 	eoreq	r0, ip, r2, lsl #20
    1884:	01040000 	mrseq	r0, (UNDEF: 4)
    1888:	e50a001f 	str	r0, [sl, #-31]
    188c:	02000004 	andeq	r0, r0, #4
    1890:	00002c0b 	andeq	r2, r0, fp, lsl #24
    1894:	18070400 	stmdane	r7, {sl}
    1898:	06680a00 	strbteq	r0, [r8], -r0, lsl #20
    189c:	0c020000 	stceq	0, cr0, [r2], {-0}
    18a0:	0000002c 	andeq	r0, r0, ip, lsr #32
    18a4:	00100804 	andseq	r0, r0, r4, lsl #16
    18a8:	00065f0a 	andeq	r5, r6, sl, lsl #30
    18ac:	2c0d0200 	sfmcs	f0, 4, [sp], {-0}
    18b0:	04000000 	streq	r0, [r0], #-0
    18b4:	0a000808 	beq	38dc <__code_start__-0x4724>
    18b8:	000004eb 	andeq	r0, r0, fp, ror #9
    18bc:	002c0e02 	eoreq	r0, ip, r2, lsl #28
    18c0:	08040000 	stmdaeq	r4, {}	; <UNPREDICTABLE>
    18c4:	09000000 	stmdbeq	r0, {}	; <UNPREDICTABLE>
    18c8:	0000043b 	andeq	r0, r0, fp, lsr r4
    18cc:	c22a0204 	eorgt	r0, sl, #4, 4	; 0x40000000
    18d0:	0a000002 	beq	18e0 <__code_start__-0x6720>
    18d4:	00000401 	andeq	r0, r0, r1, lsl #8
    18d8:	002c2c02 	eoreq	r2, ip, r2, lsl #24
    18dc:	01040000 	mrseq	r0, (UNDEF: 4)
    18e0:	0e0a001f 	mcreq	0, 0, r0, cr10, cr15, {0}
    18e4:	02000002 	andeq	r0, r0, #2
    18e8:	00002c2d 	andeq	r2, r0, sp, lsr #24
    18ec:	1e010400 	cfcpysne	mvf0, mvf1
    18f0:	050d0a00 	streq	r0, [sp, #-2560]	; 0xa00
    18f4:	2e020000 	cdpcs	0, 0, cr0, cr2, cr0, {0}
    18f8:	0000002c 	andeq	r0, r0, ip, lsr #32
    18fc:	001d0104 	andseq	r0, sp, r4, lsl #2
    1900:	0003c00a 	andeq	ip, r3, sl
    1904:	2c310200 	lfmcs	f0, 4, [r1], #-0
    1908:	04000000 	streq	r0, [r0], #-0
    190c:	0a001c01 	beq	8918 <mmu_disable+0xc>
    1910:	00000478 	andeq	r0, r0, r8, ror r4
    1914:	002c3202 	eoreq	r3, ip, r2, lsl #4
    1918:	03040000 	movweq	r0, #16384	; 0x4000
    191c:	ea0a0019 	b	281988 <__bss_end__+0x2751a8>
    1920:	02000001 	andeq	r0, r0, #1
    1924:	00002c33 	andeq	r2, r0, r3, lsr ip
    1928:	18010400 	stmdane	r1, {sl}
    192c:	03cc0a00 	biceq	r0, ip, #0, 20
    1930:	34020000 	strcc	r0, [r2], #-0
    1934:	0000002c 	andeq	r0, r0, ip, lsr #32
    1938:	00170104 	andseq	r0, r7, r4, lsl #2
    193c:	00038c0a 	andeq	r8, r3, sl, lsl #24
    1940:	2c350200 	lfmcs	f0, 4, [r5], #-0
    1944:	04000000 	streq	r0, [r0], #-0
    1948:	0b001601 	bleq	7154 <__code_start__-0xeac>
    194c:	36020046 	strcc	r0, [r2], -r6, asr #32
    1950:	0000002c 	andeq	r0, r0, ip, lsr #32
    1954:	00150104 	andseq	r0, r5, r4, lsl #2
    1958:	00018a0a 	andeq	r8, r1, sl, lsl #20
    195c:	2c370200 	lfmcs	f0, 4, [r7], #-0
    1960:	04000000 	streq	r0, [r0], #-0
    1964:	0a001401 	beq	6970 <__code_start__-0x1690>
    1968:	000001fe 	strdeq	r0, [r0], -lr
    196c:	002c3802 	eoreq	r3, ip, r2, lsl #16
    1970:	01040000 	mrseq	r0, (UNDEF: 4)
    1974:	da0a0013 	ble	2819c8 <__bss_end__+0x2751e8>
    1978:	02000001 	andeq	r0, r0, #1
    197c:	00002c39 	andeq	r2, r0, r9, lsr ip
    1980:	12010400 	andne	r0, r1, #0, 8
    1984:	02d60a00 	sbcseq	r0, r6, #0, 20
    1988:	3a020000 	bcc	81990 <__bss_end__+0x751b0>
    198c:	0000002c 	andeq	r0, r0, ip, lsr #32
    1990:	00110104 	andseq	r0, r1, r4, lsl #2
    1994:	00344c0b 	eorseq	r4, r4, fp, lsl #24
    1998:	002c3b02 	eoreq	r3, ip, r2, lsl #22
    199c:	01040000 	mrseq	r0, (UNDEF: 4)
    19a0:	5f0b0010 	svcpl	0x000b0010
    19a4:	02007464 	andeq	r7, r0, #100, 8	; 0x64000000
    19a8:	00002c3c 	andeq	r2, r0, ip, lsr ip
    19ac:	0f010400 	svceq	0x00010400
    19b0:	04e50a00 	strbteq	r0, [r5], #2560	; 0xa00
    19b4:	3d020000 	stccc	0, cr0, [r2, #-0]
    19b8:	0000002c 	andeq	r0, r0, ip, lsr #32
    19bc:	000e0104 	andeq	r0, lr, r4, lsl #2
    19c0:	74695f0b 	strbtvc	r5, [r9], #-3851	; 0xf0b
    19c4:	2c3e0200 	lfmcs	f0, 4, [lr], #-0
    19c8:	04000000 	streq	r0, [r0], #-0
    19cc:	0a000d01 	beq	4dd8 <__code_start__-0x3228>
    19d0:	000004eb 	andeq	r0, r0, fp, ror #9
    19d4:	002c3f02 	eoreq	r3, ip, r2, lsl #30
    19d8:	01040000 	mrseq	r0, (UNDEF: 4)
    19dc:	5f0b000c 	svcpl	0x000b000c
    19e0:	02007473 	andeq	r7, r0, #1929379840	; 0x73000000
    19e4:	00002c40 	andeq	r2, r0, r0, asr #24
    19e8:	0b010400 	bleq	429f0 <__bss_end__+0x36210>
    19ec:	31460b00 	cmpcc	r6, r0, lsl #22
    19f0:	2c410200 	sfmcs	f0, 2, [r1], {-0}
    19f4:	04000000 	streq	r0, [r0], #-0
    19f8:	0a000a01 	beq	4204 <__code_start__-0x3dfc>
    19fc:	0000040d 	andeq	r0, r0, sp, lsl #8
    1a00:	002c4202 	eoreq	r4, ip, r2, lsl #4
    1a04:	01040000 	mrseq	r0, (UNDEF: 4)
    1a08:	220a0009 	andcs	r0, sl, #9
    1a0c:	02000004 	andeq	r0, r0, #4
    1a10:	00002c43 	andeq	r2, r0, r3, asr #24
    1a14:	08010400 	stmdaeq	r1, {sl}
    1a18:	03800a00 	orreq	r0, r0, #0, 20
    1a1c:	45020000 	strmi	r0, [r2, #-0]
    1a20:	0000002c 	andeq	r0, r0, ip, lsr #32
    1a24:	00070104 	andeq	r0, r7, r4, lsl #2
    1a28:	0045450b 	subeq	r4, r5, fp, lsl #10
    1a2c:	002c4602 	eoreq	r4, ip, r2, lsl #12
    1a30:	01040000 	mrseq	r0, (UNDEF: 4)
    1a34:	020a0006 	andeq	r0, sl, #6
    1a38:	02000005 	andeq	r0, r0, #5
    1a3c:	00002c47 	andeq	r2, r0, r7, asr #24
    1a40:	05010400 	streq	r0, [r1, #-1024]	; 0x400
    1a44:	031f0a00 	tsteq	pc, #0, 20
    1a48:	48020000 	stmdami	r2, {}	; <UNPREDICTABLE>
    1a4c:	0000002c 	andeq	r0, r0, ip, lsr #32
    1a50:	00040104 	andeq	r0, r4, r4, lsl #2
    1a54:	0004280a 	andeq	r2, r4, sl, lsl #16
    1a58:	2c490200 	sfmcs	f0, 2, [r9], {-0}
    1a5c:	04000000 	streq	r0, [r0], #-0
    1a60:	0a000301 	beq	266c <__code_start__-0x5994>
    1a64:	0000039e 	muleq	r0, lr, r3
    1a68:	002c4a02 	eoreq	r4, ip, r2, lsl #20
    1a6c:	01040000 	mrseq	r0, (UNDEF: 4)
    1a70:	2a0a0002 	bcs	281a80 <__bss_end__+0x2752a0>
    1a74:	02000003 	andeq	r0, r0, #3
    1a78:	00002c4b 	andeq	r2, r0, fp, asr #24
    1a7c:	00020400 	andeq	r0, r2, r0, lsl #8
    1a80:	3b090000 	blcc	241a88 <__bss_end__+0x2352a8>
    1a84:	04000003 	streq	r0, [r0], #-3
    1a88:	03984603 	orrseq	r4, r8, #3145728	; 0x300000
    1a8c:	740b0000 	strvc	r0, [fp], #-0
    1a90:	03006761 	movweq	r6, #1889	; 0x761
    1a94:	00002c48 	andeq	r2, r0, r8, asr #24
    1a98:	1e020400 	cfcpysne	mvf0, mvf2
    1a9c:	00420b00 	subeq	r0, r2, r0, lsl #22
    1aa0:	002c4903 	eoreq	r4, ip, r3, lsl #18
    1aa4:	01040000 	mrseq	r0, (UNDEF: 4)
    1aa8:	430b001d 	movwmi	r0, #45085	; 0xb01d
    1aac:	2c4a0300 	mcrrcs	3, 0, r0, sl, cr0
    1ab0:	04000000 	streq	r0, [r0], #-0
    1ab4:	0b001c01 	bleq	8ac0 <set_procid_ttbr0+0xa0>
    1ab8:	03004e58 	movweq	r4, #3672	; 0xe58
    1abc:	00002c4b 	andeq	r2, r0, fp, asr #24
    1ac0:	1b010400 	blne	42ac8 <__bss_end__+0x362e8>
    1ac4:	04de0a00 	ldrbeq	r0, [lr], #2560	; 0xa00
    1ac8:	4e030000 	cdpmi	0, 0, cr0, cr3, cr0, {0}
    1acc:	0000002c 	andeq	r0, r0, ip, lsr #32
    1ad0:	00170404 	andseq	r0, r7, r4, lsl #8
    1ad4:	504d490b 	subpl	r4, sp, fp, lsl #18
    1ad8:	2c4f0300 	mcrrcs	3, 0, r0, pc, cr0
    1adc:	04000000 	streq	r0, [r0], #-0
    1ae0:	0b001601 	bleq	72ec <__code_start__-0xd14>
    1ae4:	03005041 	movweq	r5, #65	; 0x41
    1ae8:	00002c52 	andeq	r2, r0, r2, asr ip
    1aec:	14020400 	strne	r0, [r2], #-1024	; 0x400
    1af0:	45540b00 	ldrbmi	r0, [r4, #-2816]	; 0xb00
    1af4:	53030058 	movwpl	r0, #12376	; 0x3058
    1af8:	0000002c 	andeq	r0, r0, ip, lsr #32
    1afc:	00110304 	andseq	r0, r1, r4, lsl #6
    1b00:	5850410b 	ldmdapl	r0, {r0, r1, r3, r8, lr}^
    1b04:	2c540300 	mrrccs	3, 0, r0, r4, cr0
    1b08:	04000000 	streq	r0, [r0], #-0
    1b0c:	0b001001 	bleq	5b18 <__code_start__-0x24e8>
    1b10:	55030053 	strpl	r0, [r3, #-83]	; 0x53
    1b14:	0000002c 	andeq	r0, r0, ip, lsr #32
    1b18:	000f0104 	andeq	r0, pc, r4, lsl #2
    1b1c:	00476e0b 	subeq	r6, r7, fp, lsl #28
    1b20:	002c5603 	eoreq	r5, ip, r3, lsl #12
    1b24:	01040000 	mrseq	r0, (UNDEF: 4)
    1b28:	e30a000e 	movw	r0, #40974	; 0xa00e
    1b2c:	03000002 	movweq	r0, #2
    1b30:	00002c57 	andeq	r2, r0, r7, asr ip
    1b34:	0d010400 	cfstrseq	mvf0, [r1, #-0]
    1b38:	04eb0a00 	strbteq	r0, [fp], #2560	; 0xa00
    1b3c:	58030000 	stmdapl	r3, {}	; <UNPREDICTABLE>
    1b40:	0000002c 	andeq	r0, r0, ip, lsr #32
    1b44:	000c0104 	andeq	r0, ip, r4, lsl #2
    1b48:	00024f0a 	andeq	r4, r2, sl, lsl #30
    1b4c:	2c590300 	mrrccs	3, 0, r0, r9, cr0
    1b50:	04000000 	streq	r0, [r0], #-0
    1b54:	0000000c 	andeq	r0, r0, ip
    1b58:	0002ad04 	andeq	sl, r2, r4, lsl #26
    1b5c:	c25a0300 	subsgt	r0, sl, #0, 6
    1b60:	0c000002 	stceq	0, cr0, [r0], {2}
    1b64:	000002cb 	andeq	r0, r0, fp, asr #5
    1b68:	8b240f01 	blhi	905774 <__bss_end__+0x8f8f94>
    1b6c:	00340000 	eorseq	r0, r4, r0
    1b70:	9c010000 	stcls	0, cr0, [r1], {-0}
    1b74:	0000041e 	andeq	r0, r0, lr, lsl r4
    1b78:	67736d0d 	ldrbvs	r6, [r3, -sp, lsl #26]!
    1b7c:	840f0100 	strhi	r0, [pc], #-256	; 1b84 <__code_start__-0x647c>
    1b80:	62000000 	andvs	r0, r0, #0
    1b84:	0e00000b 	cdpeq	0, 0, cr0, cr0, cr11, {0}
    1b88:	0000133f 	andeq	r1, r0, pc, lsr r3
    1b8c:	041e0f01 	ldreq	r0, [lr], #-3841	; 0xf01
    1b90:	0b800000 	bleq	fe001b98 <__bss_end__+0xfdff53b8>
    1b94:	6e0d0000 	cdpvs	0, 0, cr0, cr13, cr0, {0}
    1b98:	2c0f0100 	stfcss	f0, [pc], {-0}
    1b9c:	ac000000 	stcge	0, cr0, [r0], {-0}
    1ba0:	0f00000b 	svceq	0x0000000b
    1ba4:	00008b3c 	andeq	r8, r0, ip, lsr fp
    1ba8:	00001158 	andeq	r1, r0, r8, asr r1
    1bac:	000003fe 	strdeq	r0, [r0], -lr
    1bb0:	02510110 	subseq	r0, r1, #16, 2
    1bb4:	01100074 	tsteq	r0, r4, ror r0
    1bb8:	01f30350 	mvnseq	r0, r0, asr r3
    1bbc:	50110051 	andspl	r0, r1, r1, asr r0
    1bc0:	7200008b 	andvc	r0, r0, #139	; 0x8b
    1bc4:	10000011 	andne	r0, r0, r1, lsl r0
    1bc8:	74025301 	strvc	r5, [r2], #-769	; 0x301
    1bcc:	51011000 	mrspl	r1, (UNDEF: 1)
    1bd0:	10007502 	andne	r7, r0, r2, lsl #10
    1bd4:	03055001 	movweq	r5, #20481	; 0x5001
    1bd8:	0000b64c 	andeq	fp, r0, ip, asr #12
    1bdc:	04050000 	streq	r0, [r5], #-0
    1be0:	00000424 	andeq	r0, r0, r4, lsr #8
    1be4:	06180c12 			; <UNDEFINED> instruction: 0x06180c12
    1be8:	17010000 	strne	r0, [r1, -r0]
    1bec:	00008b58 	andeq	r8, r0, r8, asr fp
    1bf0:	00000028 	andeq	r0, r0, r8, lsr #32
    1bf4:	046e9c01 	strbteq	r9, [lr], #-3073	; 0xc01
    1bf8:	640f0000 	strvs	r0, [pc], #-0	; 1c00 <__code_start__-0x6400>
    1bfc:	7200008b 	andvc	r0, r0, #139	; 0x8b
    1c00:	51000011 	tstpl	r0, r1, lsl r0
    1c04:	10000004 	andne	r0, r0, r4
    1c08:	03055001 	movweq	r5, #20481	; 0x5001
    1c0c:	0000b668 	andeq	fp, r0, r8, ror #12
    1c10:	8b681300 	blhi	1a06818 <__bss_end__+0x19fa038>
    1c14:	11880000 	orrne	r0, r8, r0
    1c18:	74110000 	ldrvc	r0, [r1], #-0
    1c1c:	7200008b 	andvc	r0, r0, #139	; 0x8b
    1c20:	10000011 	andne	r0, r0, r1, lsl r0
    1c24:	03055001 	movweq	r5, #20481	; 0x5001
    1c28:	0000b680 	andeq	fp, r0, r0, lsl #13
    1c2c:	29140000 	ldmdbcs	r4, {}	; <UNPREDICTABLE>
    1c30:	01000006 	tsteq	r0, r6
    1c34:	008b8020 	addeq	r8, fp, r0, lsr #32
    1c38:	00000800 	andeq	r0, r0, r0, lsl #16
    1c3c:	939c0100 	orrsls	r0, ip, #0, 2
    1c40:	15000004 	strne	r0, [r0, #-4]
    1c44:	0000000e 	andeq	r0, r0, lr
    1c48:	000004a3 	andeq	r0, r0, r3, lsr #9
    1c4c:	ba500305 	blt	1402868 <__bss_end__+0x13f6088>
    1c50:	07000000 	streq	r0, [r0, -r0]
    1c54:	0000007d 	andeq	r0, r0, sp, ror r0
    1c58:	000004a3 	andeq	r0, r0, r3, lsr #9
    1c5c:	00007608 	andeq	r7, r0, r8, lsl #12
    1c60:	06001a00 	streq	r1, [r0], -r0, lsl #20
    1c64:	00000493 	muleq	r0, r3, r4
    1c68:	00059814 	andeq	r9, r5, r4, lsl r8
    1c6c:	88390100 	ldmdahi	r9!, {r8}
    1c70:	f800008b 			; <UNDEFINED> instruction: 0xf800008b
    1c74:	01000001 	tsteq	r0, r1
    1c78:	00077d9c 	muleq	r7, ip, sp
    1c7c:	00720d00 	rsbseq	r0, r2, r0, lsl #26
    1c80:	077d3901 	ldrbeq	r3, [sp, -r1, lsl #18]!
    1c84:	0bca0000 	bleq	ff281c8c <__bss_end__+0xff2754ac>
    1c88:	0e150000 	cdpeq	0, 1, cr0, cr5, cr0, {0}
    1c8c:	83000000 	movwhi	r0, #0
    1c90:	05000007 	streq	r0, [r0, #-7]
    1c94:	00ba2403 	adcseq	r2, sl, r3, lsl #8
    1c98:	8ba81300 	blhi	fea068a0 <__bss_end__+0xfe9fa0c0>
    1c9c:	11930000 	orrsne	r0, r3, r0
    1ca0:	c40f0000 	strgt	r0, [pc], #-0	; 1ca8 <__code_start__-0x6358>
    1ca4:	7200008b 	andvc	r0, r0, #139	; 0x8b
    1ca8:	1b000011 	blne	1cf4 <__code_start__-0x630c>
    1cac:	10000005 	andne	r0, r0, r5
    1cb0:	08025301 	stmdaeq	r2, {r0, r8, r9, ip, lr}
    1cb4:	5201103b 	andpl	r1, r1, #59	; 0x3b
    1cb8:	ba240305 	blt	9028d4 <__bss_end__+0x8f60f4>
    1cbc:	01100000 	tsteq	r0, r0
    1cc0:	d0030551 	andle	r0, r3, r1, asr r5
    1cc4:	100000b6 	strhne	r0, [r0], -r6
    1cc8:	03055001 	movweq	r5, #20481	; 0x5001
    1ccc:	0000b140 	andeq	fp, r0, r0, asr #2
    1cd0:	007d0210 	rsbseq	r0, sp, r0, lsl r2
    1cd4:	b7e40305 	strblt	r0, [r4, r5, lsl #6]!
    1cd8:	13000000 	movwne	r0, #0
    1cdc:	00008bc8 	andeq	r8, r0, r8, asr #23
    1ce0:	0000119a 	muleq	r0, sl, r1
    1ce4:	008bd813 	addeq	sp, fp, r3, lsl r8
    1ce8:	00119300 	andseq	r9, r1, r0, lsl #6
    1cec:	8bf40f00 	blhi	ffd058f4 <__bss_end__+0xffcf9114>
    1cf0:	11720000 	cmnne	r2, r0
    1cf4:	05660000 	strbeq	r0, [r6, #-0]!
    1cf8:	01100000 	tsteq	r0, r0
    1cfc:	3c080253 	sfmcc	f0, 4, [r8], {83}	; 0x53
    1d00:	05520110 	ldrbeq	r0, [r2, #-272]	; 0x110
    1d04:	00ba2403 	adcseq	r2, sl, r3, lsl #8
    1d08:	51011000 	mrspl	r1, (UNDEF: 1)
    1d0c:	b6d00305 	ldrblt	r0, [r0], r5, lsl #6
    1d10:	01100000 	tsteq	r0, r0
    1d14:	40030550 	andmi	r0, r3, r0, asr r5
    1d18:	100000b1 	strhne	r0, [r0], -r1
    1d1c:	05007d02 	streq	r7, [r0, #-3330]	; 0xd02
    1d20:	00b7fc03 	adcseq	pc, r7, r3, lsl #24
    1d24:	f8130000 			; <UNDEFINED> instruction: 0xf8130000
    1d28:	9a00008b 	bls	1f5c <__code_start__-0x60a4>
    1d2c:	13000011 	movwne	r0, #17
    1d30:	00008c08 	andeq	r8, r0, r8, lsl #24
    1d34:	00001193 	muleq	r0, r3, r1
    1d38:	008c240f 	addeq	r2, ip, pc, lsl #8
    1d3c:	00117200 	andseq	r7, r1, r0, lsl #4
    1d40:	0005b100 	andeq	fp, r5, r0, lsl #2
    1d44:	53011000 	movwpl	r1, #4096	; 0x1000
    1d48:	103d0802 	eorsne	r0, sp, r2, lsl #16
    1d4c:	03055201 	movweq	r5, #20993	; 0x5201
    1d50:	0000ba24 	andeq	fp, r0, r4, lsr #20
    1d54:	05510110 	ldrbeq	r0, [r1, #-272]	; 0x110
    1d58:	00b6d003 	adcseq	sp, r6, r3
    1d5c:	50011000 	andpl	r1, r1, r0
    1d60:	b1400305 	cmplt	r0, r5, lsl #6
    1d64:	02100000 	andseq	r0, r0, #0
    1d68:	0305007d 	movweq	r0, #20605	; 0x507d
    1d6c:	0000b808 	andeq	fp, r0, r8, lsl #16
    1d70:	8c281300 	stchi	3, cr1, [r8], #-0
    1d74:	119a0000 	orrsne	r0, sl, r0
    1d78:	38130000 	ldmdacc	r3, {}	; <UNPREDICTABLE>
    1d7c:	9300008c 	movwls	r0, #140	; 0x8c
    1d80:	0f000011 	svceq	0x00000011
    1d84:	00008c54 	andeq	r8, r0, r4, asr ip
    1d88:	00001172 	andeq	r1, r0, r2, ror r1
    1d8c:	000005fc 	strdeq	r0, [r0], -ip
    1d90:	02530110 	subseq	r0, r3, #16, 2
    1d94:	01104008 	tsteq	r0, r8
    1d98:	24030552 	strcs	r0, [r3], #-1362	; 0x552
    1d9c:	100000ba 	strhne	r0, [r0], -sl
    1da0:	03055101 	movweq	r5, #20737	; 0x5101
    1da4:	0000b6d0 	ldrdeq	fp, [r0], -r0
    1da8:	05500110 	ldrbeq	r0, [r0, #-272]	; 0x110
    1dac:	00b14003 	adcseq	r4, r1, r3
    1db0:	7d021000 	stcvc	0, cr1, [r2, #-0]
    1db4:	14030500 	strne	r0, [r3], #-1280	; 0x500
    1db8:	000000b8 	strheq	r0, [r0], -r8
    1dbc:	008c5813 	addeq	r5, ip, r3, lsl r8
    1dc0:	00119a00 	andseq	r9, r1, r0, lsl #20
    1dc4:	8c681300 	stclhi	3, cr1, [r8], #-0
    1dc8:	11930000 	orrsne	r0, r3, r0
    1dcc:	840f0000 	strhi	r0, [pc], #-0	; 1dd4 <__code_start__-0x622c>
    1dd0:	7200008c 	andvc	r0, r0, #140	; 0x8c
    1dd4:	47000011 	smladmi	r0, r1, r0, r0
    1dd8:	10000006 	andne	r0, r0, r6
    1ddc:	08025301 	stmdaeq	r2, {r0, r8, r9, ip, lr}
    1de0:	52011041 	andpl	r1, r1, #65	; 0x41
    1de4:	ba240305 	blt	902a00 <__bss_end__+0x8f6220>
    1de8:	01100000 	tsteq	r0, r0
    1dec:	d0030551 	andle	r0, r3, r1, asr r5
    1df0:	100000b6 	strhne	r0, [r0], -r6
    1df4:	03055001 	movweq	r5, #20481	; 0x5001
    1df8:	0000b140 	andeq	fp, r0, r0, asr #2
    1dfc:	007d0210 	rsbseq	r0, sp, r0, lsl r2
    1e00:	b8240305 	stmdalt	r4!, {r0, r2, r8, r9}
    1e04:	13000000 	movwne	r0, #0
    1e08:	00008c88 	andeq	r8, r0, r8, lsl #25
    1e0c:	0000119a 	muleq	r0, sl, r1
    1e10:	008c9813 	addeq	r9, ip, r3, lsl r8
    1e14:	00119300 	andseq	r9, r1, r0, lsl #6
    1e18:	8cb40f00 	ldchi	15, cr0, [r4]
    1e1c:	11720000 	cmnne	r2, r0
    1e20:	06920000 	ldreq	r0, [r2], r0
    1e24:	01100000 	tsteq	r0, r0
    1e28:	42080253 	andmi	r0, r8, #805306373	; 0x30000005
    1e2c:	05520110 	ldrbeq	r0, [r2, #-272]	; 0x110
    1e30:	00ba2403 	adcseq	r2, sl, r3, lsl #8
    1e34:	51011000 	mrspl	r1, (UNDEF: 1)
    1e38:	b6d00305 	ldrblt	r0, [r0], r5, lsl #6
    1e3c:	01100000 	tsteq	r0, r0
    1e40:	40030550 	andmi	r0, r3, r0, asr r5
    1e44:	100000b1 	strhne	r0, [r0], -r1
    1e48:	05007d02 	streq	r7, [r0, #-3330]	; 0xd02
    1e4c:	00b83403 	adcseq	r3, r8, r3, lsl #8
    1e50:	b8130000 	ldmdalt	r3, {}	; <UNPREDICTABLE>
    1e54:	9a00008c 	bls	208c <__code_start__-0x5f74>
    1e58:	13000011 	movwne	r0, #17
    1e5c:	00008cc8 	andeq	r8, r0, r8, asr #25
    1e60:	00001193 	muleq	r0, r3, r1
    1e64:	008ce40f 	addeq	lr, ip, pc, lsl #8
    1e68:	00117200 	andseq	r7, r1, r0, lsl #4
    1e6c:	0006dd00 	andeq	sp, r6, r0, lsl #26
    1e70:	53011000 	movwpl	r1, #4096	; 0x1000
    1e74:	104b0802 	subne	r0, fp, r2, lsl #16
    1e78:	03055201 	movweq	r5, #20993	; 0x5201
    1e7c:	0000ba24 	andeq	fp, r0, r4, lsr #20
    1e80:	05510110 	ldrbeq	r0, [r1, #-272]	; 0x110
    1e84:	00b6d003 	adcseq	sp, r6, r3
    1e88:	50011000 	andpl	r1, r1, r0
    1e8c:	b1400305 	cmplt	r0, r5, lsl #6
    1e90:	02100000 	andseq	r0, r0, #0
    1e94:	0305007d 	movweq	r0, #20605	; 0x507d
    1e98:	0000b840 	andeq	fp, r0, r0, asr #16
    1e9c:	8ce81300 	stclhi	3, cr1, [r8]
    1ea0:	119a0000 	orrsne	r0, sl, r0
    1ea4:	f8130000 			; <UNDEFINED> instruction: 0xf8130000
    1ea8:	9300008c 	movwls	r0, #140	; 0x8c
    1eac:	0f000011 	svceq	0x00000011
    1eb0:	00008d14 	andeq	r8, r0, r4, lsl sp
    1eb4:	00001172 	andeq	r1, r0, r2, ror r1
    1eb8:	00000728 	andeq	r0, r0, r8, lsr #14
    1ebc:	02530110 	subseq	r0, r3, #16, 2
    1ec0:	01104c08 	tsteq	r0, r8, lsl #24
    1ec4:	24030552 	strcs	r0, [r3], #-1362	; 0x552
    1ec8:	100000ba 	strhne	r0, [r0], -sl
    1ecc:	03055101 	movweq	r5, #20737	; 0x5101
    1ed0:	0000b6d0 	ldrdeq	fp, [r0], -r0
    1ed4:	05500110 	ldrbeq	r0, [r0, #-272]	; 0x110
    1ed8:	00b14003 	adcseq	r4, r1, r3
    1edc:	7d021000 	stcvc	0, cr1, [r2, #-0]
    1ee0:	50030500 	andpl	r0, r3, r0, lsl #10
    1ee4:	000000b8 	strheq	r0, [r0], -r8
    1ee8:	008d1813 	addeq	r1, sp, r3, lsl r8
    1eec:	00119a00 	andseq	r9, r1, r0, lsl #20
    1ef0:	8d281300 	stchi	3, cr1, [r8, #-0]
    1ef4:	11930000 	orrsne	r0, r3, r0
    1ef8:	440f0000 	strmi	r0, [pc], #-0	; 1f00 <__code_start__-0x6100>
    1efc:	7200008d 	andvc	r0, r0, #141	; 0x8d
    1f00:	73000011 	movwvc	r0, #17
    1f04:	10000007 	andne	r0, r0, r7
    1f08:	08025301 	stmdaeq	r2, {r0, r8, r9, ip, lr}
    1f0c:	5201104d 	andpl	r1, r1, #77	; 0x4d
    1f10:	ba240305 	blt	902b2c <__bss_end__+0x8f634c>
    1f14:	01100000 	tsteq	r0, r0
    1f18:	d0030551 	andle	r0, r3, r1, asr r5
    1f1c:	100000b6 	strhne	r0, [r0], -r6
    1f20:	03055001 	movweq	r5, #20481	; 0x5001
    1f24:	0000b140 	andeq	fp, r0, r0, asr #2
    1f28:	007d0210 	rsbseq	r0, sp, r0, lsl r2
    1f2c:	b8640305 	stmdalt	r4!, {r0, r2, r8, r9}^
    1f30:	13000000 	movwne	r0, #0
    1f34:	00008d48 	andeq	r8, r0, r8, asr #26
    1f38:	0000119a 	muleq	r0, sl, r1
    1f3c:	07040500 	streq	r0, [r4, -r0, lsl #10]
    1f40:	06000001 	streq	r0, [r0], -r1
    1f44:	0000008f 	andeq	r0, r0, pc, lsl #1
    1f48:	0005ec0c 	andeq	lr, r5, ip, lsl #24
    1f4c:	80500100 	subshi	r0, r0, r0, lsl #2
    1f50:	0400008d 	streq	r0, [r0], #-141	; 0x8d
    1f54:	01000002 	tsteq	r0, r2
    1f58:	000a129c 	muleq	sl, ip, r2
    1f5c:	00720d00 	rsbseq	r0, r2, r0, lsl #26
    1f60:	077d5001 	ldrbeq	r5, [sp, -r1]!
    1f64:	0cbe0000 	ldceq	0, cr0, [lr]
    1f68:	8c0f0000 	stchi	0, cr0, [pc], {-0}
    1f6c:	a800008d 	stmdage	r0, {r0, r2, r3, r7}
    1f70:	be000004 	cdplt	0, 0, cr0, cr0, cr4, {0}
    1f74:	10000007 	andne	r0, r0, r7
    1f78:	74025001 	strvc	r5, [r2], #-1
    1f7c:	940f0000 	strls	r0, [pc], #-0	; 1f84 <__code_start__-0x607c>
    1f80:	7200008d 	andvc	r0, r0, #141	; 0x8d
    1f84:	d5000011 	strle	r0, [r0, #-17]
    1f88:	10000007 	andne	r0, r0, r7
    1f8c:	03055001 	movweq	r5, #20481	; 0x5001
    1f90:	0000b87c 	andeq	fp, r0, ip, ror r8
    1f94:	8dac0f00 	stchi	15, cr0, [ip]
    1f98:	11720000 	cmnne	r2, r0
    1f9c:	07f50000 	ldrbeq	r0, [r5, r0]!
    1fa0:	01100000 	tsteq	r0, r0
    1fa4:	d8030552 	stmdale	r3, {r1, r4, r6, r8, sl}
    1fa8:	100000b7 	strhne	r0, [r0], -r7
    1fac:	03055001 	movweq	r5, #20481	; 0x5001
    1fb0:	0000b894 	muleq	r0, r4, r8
    1fb4:	8dc40f00 	stclhi	15, cr0, [r4]
    1fb8:	11720000 	cmnne	r2, r0
    1fbc:	08150000 	ldmdaeq	r5, {}	; <UNPREDICTABLE>
    1fc0:	01100000 	tsteq	r0, r0
    1fc4:	c8030552 	stmdagt	r3, {r1, r4, r6, r8, sl}
    1fc8:	100000b7 	strhne	r0, [r0], -r7
    1fcc:	03055001 	movweq	r5, #20481	; 0x5001
    1fd0:	0000b894 	muleq	r0, r4, r8
    1fd4:	8ddc0f00 	ldclhi	15, cr0, [ip]
    1fd8:	11720000 	cmnne	r2, r0
    1fdc:	08350000 	ldmdaeq	r5!, {}	; <UNPREDICTABLE>
    1fe0:	01100000 	tsteq	r0, r0
    1fe4:	44030552 	strmi	r0, [r3], #-1362	; 0x552
    1fe8:	100000b8 	strhne	r0, [r0], -r8
    1fec:	03055001 	movweq	r5, #20481	; 0x5001
    1ff0:	0000b894 	muleq	r0, r4, r8
    1ff4:	8df40f00 	ldclhi	15, cr0, [r4]
    1ff8:	11720000 	cmnne	r2, r0
    1ffc:	08550000 	ldmdaeq	r5, {}^	; <UNPREDICTABLE>
    2000:	01100000 	tsteq	r0, r0
    2004:	c4030552 	strgt	r0, [r3], #-1362	; 0x552
    2008:	100000b7 	strhne	r0, [r0], -r7
    200c:	03055001 	movweq	r5, #20481	; 0x5001
    2010:	0000b894 	muleq	r0, r4, r8
    2014:	8e080f00 	cdphi	15, 0, cr0, cr8, cr0, {0}
    2018:	11720000 	cmnne	r2, r0
    201c:	08750000 	ldmdaeq	r5!, {}^	; <UNPREDICTABLE>
    2020:	01100000 	tsteq	r0, r0
    2024:	b8030552 	stmdalt	r3, {r1, r4, r6, r8, sl}
    2028:	100000b7 	strhne	r0, [r0], -r7
    202c:	03055001 	movweq	r5, #20481	; 0x5001
    2030:	0000b894 	muleq	r0, r4, r8
    2034:	8e1c0f00 	cdphi	15, 1, cr0, cr12, cr0, {0}
    2038:	11720000 	cmnne	r2, r0
    203c:	08950000 	ldmeq	r5, {}	; <UNPREDICTABLE>
    2040:	01100000 	tsteq	r0, r0
    2044:	b0030552 	andlt	r0, r3, r2, asr r5
    2048:	100000b7 	strhne	r0, [r0], -r7
    204c:	03055001 	movweq	r5, #20481	; 0x5001
    2050:	0000b894 	muleq	r0, r4, r8
    2054:	8e340f00 	cdphi	15, 3, cr0, cr4, cr0, {0}
    2058:	11720000 	cmnne	r2, r0
    205c:	08b50000 	ldmeq	r5!, {}	; <UNPREDICTABLE>
    2060:	01100000 	tsteq	r0, r0
    2064:	a4030552 	strge	r0, [r3], #-1362	; 0x552
    2068:	100000b7 	strhne	r0, [r0], -r7
    206c:	03055001 	movweq	r5, #20481	; 0x5001
    2070:	0000b894 	muleq	r0, r4, r8
    2074:	8e4c0f00 	cdphi	15, 4, cr0, cr12, cr0, {0}
    2078:	11720000 	cmnne	r2, r0
    207c:	08d50000 	ldmeq	r5, {}^	; <UNPREDICTABLE>
    2080:	01100000 	tsteq	r0, r0
    2084:	a0030552 	andge	r0, r3, r2, asr r5
    2088:	100000b7 	strhne	r0, [r0], -r7
    208c:	03055001 	movweq	r5, #20481	; 0x5001
    2090:	0000b894 	muleq	r0, r4, r8
    2094:	8e640f00 	cdphi	15, 6, cr0, cr4, cr0, {0}
    2098:	11720000 	cmnne	r2, r0
    209c:	08f50000 	ldmeq	r5!, {}^	; <UNPREDICTABLE>
    20a0:	01100000 	tsteq	r0, r0
    20a4:	8c030552 	cfstr32hi	mvfx0, [r3], {82}	; 0x52
    20a8:	100000b7 	strhne	r0, [r0], -r7
    20ac:	03055001 	movweq	r5, #20481	; 0x5001
    20b0:	0000b894 	muleq	r0, r4, r8
    20b4:	8e7c0f00 	cdphi	15, 7, cr0, cr12, cr0, {0}
    20b8:	11720000 	cmnne	r2, r0
    20bc:	09150000 	ldmdbeq	r5, {}	; <UNPREDICTABLE>
    20c0:	01100000 	tsteq	r0, r0
    20c4:	54030552 	strpl	r0, [r3], #-1362	; 0x552
    20c8:	100000b8 	strhne	r0, [r0], -r8
    20cc:	03055001 	movweq	r5, #20481	; 0x5001
    20d0:	0000b894 	muleq	r0, r4, r8
    20d4:	8e940f00 	cdphi	15, 9, cr0, cr4, cr0, {0}
    20d8:	11720000 	cmnne	r2, r0
    20dc:	09350000 	ldmdbeq	r5!, {}	; <UNPREDICTABLE>
    20e0:	01100000 	tsteq	r0, r0
    20e4:	6c030552 	cfstr32vs	mvfx0, [r3], {82}	; 0x52
    20e8:	100000b7 	strhne	r0, [r0], -r7
    20ec:	03055001 	movweq	r5, #20481	; 0x5001
    20f0:	0000b894 	muleq	r0, r4, r8
    20f4:	8eac0f00 	cdphi	15, 10, cr0, cr12, cr0, {0}
    20f8:	11720000 	cmnne	r2, r0
    20fc:	09550000 	ldmdbeq	r5, {}^	; <UNPREDICTABLE>
    2100:	01100000 	tsteq	r0, r0
    2104:	5c030552 	cfstr32pl	mvfx0, [r3], {82}	; 0x52
    2108:	100000b7 	strhne	r0, [r0], -r7
    210c:	03055001 	movweq	r5, #20481	; 0x5001
    2110:	0000b894 	muleq	r0, r4, r8
    2114:	8ec00f00 	cdphi	15, 12, cr0, cr0, cr0, {0}
    2118:	11720000 	cmnne	r2, r0
    211c:	09750000 	ldmdbeq	r5!, {}^	; <UNPREDICTABLE>
    2120:	01100000 	tsteq	r0, r0
    2124:	54030552 	strpl	r0, [r3], #-1362	; 0x552
    2128:	100000b7 	strhne	r0, [r0], -r7
    212c:	03055001 	movweq	r5, #20481	; 0x5001
    2130:	0000b894 	muleq	r0, r4, r8
    2134:	8ed40f00 	cdphi	15, 13, cr0, cr4, cr0, {0}
    2138:	11720000 	cmnne	r2, r0
    213c:	09950000 	ldmibeq	r5, {}	; <UNPREDICTABLE>
    2140:	01100000 	tsteq	r0, r0
    2144:	48030552 	stmdami	r3, {r1, r4, r6, r8, sl}
    2148:	100000b7 	strhne	r0, [r0], -r7
    214c:	03055001 	movweq	r5, #20481	; 0x5001
    2150:	0000b894 	muleq	r0, r4, r8
    2154:	8eec0f00 	cdphi	15, 14, cr0, cr12, cr0, {0}
    2158:	11720000 	cmnne	r2, r0
    215c:	09b50000 	ldmibeq	r5!, {}	; <UNPREDICTABLE>
    2160:	01100000 	tsteq	r0, r0
    2164:	3c030552 	cfstr32cc	mvfx0, [r3], {82}	; 0x52
    2168:	100000b7 	strhne	r0, [r0], -r7
    216c:	03055001 	movweq	r5, #20481	; 0x5001
    2170:	0000b894 	muleq	r0, r4, r8
    2174:	8f040f00 	svchi	0x00040f00
    2178:	11720000 	cmnne	r2, r0
    217c:	09d50000 	ldmibeq	r5, {}^	; <UNPREDICTABLE>
    2180:	01100000 	tsteq	r0, r0
    2184:	68030552 	stmdavs	r3, {r1, r4, r6, r8, sl}
    2188:	100000b8 	strhne	r0, [r0], -r8
    218c:	03055001 	movweq	r5, #20481	; 0x5001
    2190:	0000b894 	muleq	r0, r4, r8
    2194:	8f1c0f00 	svchi	0x001c0f00
    2198:	11720000 	cmnne	r2, r0
    219c:	09f50000 	ldmibeq	r5!, {}^	; <UNPREDICTABLE>
    21a0:	01100000 	tsteq	r0, r0
    21a4:	30030552 	andcc	r0, r3, r2, asr r5
    21a8:	100000b7 	strhne	r0, [r0], -r7
    21ac:	03055001 	movweq	r5, #20481	; 0x5001
    21b0:	0000b894 	muleq	r0, r4, r8
    21b4:	8f301100 	svchi	0x00301100
    21b8:	11720000 	cmnne	r2, r0
    21bc:	01100000 	tsteq	r0, r0
    21c0:	a0030552 	andge	r0, r3, r2, asr r5
    21c4:	100000b5 	strhne	r0, [r0], -r5
    21c8:	03055001 	movweq	r5, #20481	; 0x5001
    21cc:	0000b894 	muleq	r0, r4, r8
    21d0:	ff140000 			; <UNDEFINED> instruction: 0xff140000
    21d4:	01000005 	tsteq	r0, r5
    21d8:	008f846c 	addeq	r8, pc, ip, ror #8
    21dc:	00000800 	andeq	r0, r0, r0, lsl #16
    21e0:	379c0100 	ldrcc	r0, [ip, r0, lsl #2]
    21e4:	1500000a 	strne	r0, [r0, #-10]
    21e8:	0000000e 	andeq	r0, r0, lr
    21ec:	00000a37 	andeq	r0, r0, r7, lsr sl
    21f0:	ba6c0305 	blt	1b02e0c <__bss_end__+0x1af662c>
    21f4:	06000000 	streq	r0, [r0], -r0
    21f8:	0000009f 	muleq	r0, pc, r0	; <UNPREDICTABLE>
    21fc:	0006440c 	andeq	r4, r6, ip, lsl #8
    2200:	8c720100 	ldfhie	f0, [r2], #-0
    2204:	4c00008f 	stcmi	0, cr0, [r0], {143}	; 0x8f
    2208:	01000000 	mrseq	r0, (UNDEF: 0)
    220c:	000ab79c 	muleq	sl, ip, r7
    2210:	00630d00 	rsbeq	r0, r3, r0, lsl #26
    2214:	0ab77201 	beq	feddea20 <__bss_end__+0xfedd2240>
    2218:	0cdc0000 	ldcleq	0, cr0, [ip], {0}
    221c:	9c0f0000 	stcls	0, cr0, [pc], {-0}
    2220:	7200008f 	andvc	r0, r0, #143	; 0x8f
    2224:	75000011 	strvc	r0, [r0, #-17]
    2228:	1000000a 	andne	r0, r0, sl
    222c:	03055001 	movweq	r5, #20481	; 0x5001
    2230:	0000b8cc 	andeq	fp, r0, ip, asr #17
    2234:	8fac0f00 	svchi	0x00ac0f00
    2238:	11720000 	cmnne	r2, r0
    223c:	0a8c0000 	beq	fe302244 <__bss_end__+0xfe2f5a64>
    2240:	01100000 	tsteq	r0, r0
    2244:	dc030550 	cfstr32le	mvfx0, [r3], {80}	; 0x50
    2248:	000000b8 	strheq	r0, [r0], -r8
    224c:	008fb80f 	addeq	fp, pc, pc, lsl #16
    2250:	00117200 	andseq	r7, r1, r0, lsl #4
    2254:	000aa300 	andeq	sl, sl, r0, lsl #6
    2258:	50011000 	andpl	r1, r1, r0
    225c:	b8ec0305 	stmialt	ip!, {r0, r2, r8, r9}^
    2260:	11000000 	mrsne	r0, (UNDEF: 0)
    2264:	00008fc4 	andeq	r8, r0, r4, asr #31
    2268:	00001172 	andeq	r1, r0, r2, ror r1
    226c:	05500110 	ldrbeq	r0, [r0, #-272]	; 0x110
    2270:	00b90403 	adcseq	r0, r9, r3, lsl #8
    2274:	05000000 	streq	r0, [r0, #-0]
    2278:	0000af04 	andeq	sl, r0, r4, lsl #30
    227c:	05b21400 	ldreq	r1, [r2, #1024]!	; 0x400
    2280:	7c010000 	stcvc	0, cr0, [r1], {-0}
    2284:	00008fd8 	ldrdeq	r8, [r0], -r8	; <UNPREDICTABLE>
    2288:	000001c0 	andeq	r0, r0, r0, asr #3
    228c:	0d479c01 	stcleq	12, cr9, [r7, #-4]
    2290:	660d0000 	strvs	r0, [sp], -r0
    2294:	477c0100 	ldrbmi	r0, [ip, -r0, lsl #2]!
    2298:	fa00000d 	blx	22d4 <__code_start__-0x5d2c>
    229c:	1500000c 	strne	r0, [r0, #-12]
    22a0:	0000000e 	andeq	r0, r0, lr
    22a4:	00000d5d 	andeq	r0, r0, sp, asr sp
    22a8:	ba400305 	blt	1002ec4 <__bss_end__+0xff66e4>
    22ac:	f0130000 			; <UNDEFINED> instruction: 0xf0130000
    22b0:	9300008f 	movwls	r0, #143	; 0x8f
    22b4:	0f000011 	svceq	0x00000011
    22b8:	0000900c 	andeq	r9, r0, ip
    22bc:	00001172 	andeq	r1, r0, r2, ror r1
    22c0:	00000b30 	andeq	r0, r0, r0, lsr fp
    22c4:	02530110 	subseq	r0, r3, #16, 2
    22c8:	01107d08 	tsteq	r0, r8, lsl #26
    22cc:	40030552 	andmi	r0, r3, r2, asr r5
    22d0:	100000ba 	strhne	r0, [r0], -sl
    22d4:	03055101 	movweq	r5, #20737	; 0x5101
    22d8:	0000b6d0 	ldrdeq	fp, [r0], -r0
    22dc:	05500110 	ldrbeq	r0, [r0, #-272]	; 0x110
    22e0:	00b14003 	adcseq	r4, r1, r3
    22e4:	7d021000 	stcvc	0, cr1, [r2, #-0]
    22e8:	1c030500 	cfstr32ne	mvfx0, [r3], {-0}
    22ec:	000000b9 	strheq	r0, [r0], -r9
    22f0:	00901013 	addseq	r1, r0, r3, lsl r0
    22f4:	00119a00 	andseq	r9, r1, r0, lsl #20
    22f8:	90241300 	eorls	r1, r4, r0, lsl #6
    22fc:	11930000 	orrsne	r0, r3, r0
    2300:	400f0000 	andmi	r0, pc, r0
    2304:	72000090 	andvc	r0, r0, #144	; 0x90
    2308:	7b000011 	blvc	2354 <__code_start__-0x5cac>
    230c:	1000000b 	andne	r0, r0, fp
    2310:	08025301 	stmdaeq	r2, {r0, r8, r9, ip, lr}
    2314:	5201107e 	andpl	r1, r1, #126	; 0x7e
    2318:	ba400305 	blt	1002f34 <__bss_end__+0xff6754>
    231c:	01100000 	tsteq	r0, r0
    2320:	d0030551 	andle	r0, r3, r1, asr r5
    2324:	100000b6 	strhne	r0, [r0], -r6
    2328:	03055001 	movweq	r5, #20481	; 0x5001
    232c:	0000b140 	andeq	fp, r0, r0, asr #2
    2330:	007d0210 	rsbseq	r0, sp, r0, lsl r2
    2334:	b92c0305 	stmdblt	ip!, {r0, r2, r8, r9}
    2338:	13000000 	movwne	r0, #0
    233c:	00009044 	andeq	r9, r0, r4, asr #32
    2340:	0000119a 	muleq	r0, sl, r1
    2344:	00905413 	addseq	r5, r0, r3, lsl r4
    2348:	00119300 	andseq	r9, r1, r0, lsl #6
    234c:	90700f00 	rsbsls	r0, r0, r0, lsl #30
    2350:	11720000 	cmnne	r2, r0
    2354:	0bc60000 	bleq	ff18235c <__bss_end__+0xff175b7c>
    2358:	01100000 	tsteq	r0, r0
    235c:	7f080253 	svcvc	0x00080253
    2360:	05520110 	ldrbeq	r0, [r2, #-272]	; 0x110
    2364:	00ba4003 	adcseq	r4, sl, r3
    2368:	51011000 	mrspl	r1, (UNDEF: 1)
    236c:	b6d00305 	ldrblt	r0, [r0], r5, lsl #6
    2370:	01100000 	tsteq	r0, r0
    2374:	40030550 	andmi	r0, r3, r0, asr r5
    2378:	100000b1 	strhne	r0, [r0], -r1
    237c:	05007d02 	streq	r7, [r0, #-3330]	; 0xd02
    2380:	00b93c03 	adcseq	r3, r9, r3, lsl #24
    2384:	74130000 	ldrvc	r0, [r3], #-0
    2388:	9a000090 	bls	25d0 <__code_start__-0x5a30>
    238c:	13000011 	movwne	r0, #17
    2390:	00009084 	andeq	r9, r0, r4, lsl #1
    2394:	00001193 	muleq	r0, r3, r1
    2398:	0090a00f 	addseq	sl, r0, pc
    239c:	00117200 	andseq	r7, r1, r0, lsl #4
    23a0:	000c1100 	andeq	r1, ip, r0, lsl #2
    23a4:	53011000 	movwpl	r1, #4096	; 0x1000
    23a8:	10800802 	addne	r0, r0, r2, lsl #16
    23ac:	03055201 	movweq	r5, #20993	; 0x5201
    23b0:	0000ba40 	andeq	fp, r0, r0, asr #20
    23b4:	05510110 	ldrbeq	r0, [r1, #-272]	; 0x110
    23b8:	00b6d003 	adcseq	sp, r6, r3
    23bc:	50011000 	andpl	r1, r1, r0
    23c0:	b1400305 	cmplt	r0, r5, lsl #6
    23c4:	02100000 	andseq	r0, r0, #0
    23c8:	0305007d 	movweq	r0, #20605	; 0x507d
    23cc:	0000b948 	andeq	fp, r0, r8, asr #18
    23d0:	90a41300 	adcls	r1, r4, r0, lsl #6
    23d4:	119a0000 	orrsne	r0, sl, r0
    23d8:	b4130000 	ldrlt	r0, [r3], #-0
    23dc:	93000090 	movwls	r0, #144	; 0x90
    23e0:	0f000011 	svceq	0x00000011
    23e4:	000090d0 	ldrdeq	r9, [r0], -r0
    23e8:	00001172 	andeq	r1, r0, r2, ror r1
    23ec:	00000c5c 	andeq	r0, r0, ip, asr ip
    23f0:	02530110 	subseq	r0, r3, #16, 2
    23f4:	01108108 	tsteq	r0, r8, lsl #2
    23f8:	40030552 	andmi	r0, r3, r2, asr r5
    23fc:	100000ba 	strhne	r0, [r0], -sl
    2400:	03055101 	movweq	r5, #20737	; 0x5101
    2404:	0000b6d0 	ldrdeq	fp, [r0], -r0
    2408:	05500110 	ldrbeq	r0, [r0, #-272]	; 0x110
    240c:	00b14003 	adcseq	r4, r1, r3
    2410:	7d021000 	stcvc	0, cr1, [r2, #-0]
    2414:	54030500 	strpl	r0, [r3], #-1280	; 0x500
    2418:	000000b9 	strheq	r0, [r0], -r9
    241c:	0090d413 	addseq	sp, r0, r3, lsl r4
    2420:	00119a00 	andseq	r9, r1, r0, lsl #20
    2424:	90e41300 	rscls	r1, r4, r0, lsl #6
    2428:	11930000 	orrsne	r0, r3, r0
    242c:	000f0000 	andeq	r0, pc, r0
    2430:	72000091 	andvc	r0, r0, #145	; 0x91
    2434:	a7000011 	smladge	r0, r1, r0, r0
    2438:	1000000c 	andne	r0, r0, ip
    243c:	08025301 	stmdaeq	r2, {r0, r8, r9, ip, lr}
    2440:	52011082 	andpl	r1, r1, #130	; 0x82
    2444:	ba400305 	blt	1003060 <__bss_end__+0xff6880>
    2448:	01100000 	tsteq	r0, r0
    244c:	d0030551 	andle	r0, r3, r1, asr r5
    2450:	100000b6 	strhne	r0, [r0], -r6
    2454:	03055001 	movweq	r5, #20481	; 0x5001
    2458:	0000b140 	andeq	fp, r0, r0, asr #2
    245c:	007d0210 	rsbseq	r0, sp, r0, lsl r2
    2460:	b9600305 	stmdblt	r0!, {r0, r2, r8, r9}^
    2464:	13000000 	movwne	r0, #0
    2468:	00009104 	andeq	r9, r0, r4, lsl #2
    246c:	0000119a 	muleq	r0, sl, r1
    2470:	00911413 	addseq	r1, r1, r3, lsl r4
    2474:	00119300 	andseq	r9, r1, r0, lsl #6
    2478:	91300f00 	teqls	r0, r0, lsl #30
    247c:	11720000 	cmnne	r2, r0
    2480:	0cf20000 	ldcleq	0, cr0, [r2]
    2484:	01100000 	tsteq	r0, r0
    2488:	83080253 	movwhi	r0, #33363	; 0x8253
    248c:	05520110 	ldrbeq	r0, [r2, #-272]	; 0x110
    2490:	00ba4003 	adcseq	r4, sl, r3
    2494:	51011000 	mrspl	r1, (UNDEF: 1)
    2498:	b6d00305 	ldrblt	r0, [r0], r5, lsl #6
    249c:	01100000 	tsteq	r0, r0
    24a0:	40030550 	andmi	r0, r3, r0, asr r5
    24a4:	100000b1 	strhne	r0, [r0], -r1
    24a8:	05007d02 	streq	r7, [r0, #-3330]	; 0xd02
    24ac:	00b96c03 	adcseq	r6, r9, r3, lsl #24
    24b0:	34130000 	ldrcc	r0, [r3], #-0
    24b4:	9a000091 	bls	2700 <__code_start__-0x5900>
    24b8:	13000011 	movwne	r0, #17
    24bc:	00009144 	andeq	r9, r0, r4, asr #2
    24c0:	00001193 	muleq	r0, r3, r1
    24c4:	0091600f 	addseq	r6, r1, pc
    24c8:	00117200 	andseq	r7, r1, r0, lsl #4
    24cc:	000d3d00 	andeq	r3, sp, r0, lsl #26
    24d0:	53011000 	movwpl	r1, #4096	; 0x1000
    24d4:	10840802 	addne	r0, r4, r2, lsl #16
    24d8:	03055201 	movweq	r5, #20993	; 0x5201
    24dc:	0000ba40 	andeq	fp, r0, r0, asr #20
    24e0:	05510110 	ldrbeq	r0, [r1, #-272]	; 0x110
    24e4:	00b6d003 	adcseq	sp, r6, r3
    24e8:	50011000 	andpl	r1, r1, r0
    24ec:	b1400305 	cmplt	r0, r5, lsl #6
    24f0:	02100000 	andseq	r0, r0, #0
    24f4:	0305007d 	movweq	r0, #20605	; 0x507d
    24f8:	0000b978 	andeq	fp, r0, r8, ror r9
    24fc:	91641300 	cmnls	r4, r0, lsl #6
    2500:	119a0000 	orrsne	r0, sl, r0
    2504:	05000000 	streq	r0, [r0, #-0]
    2508:	00039804 	andeq	r9, r3, r4, lsl #16
    250c:	007d0700 	rsbseq	r0, sp, r0, lsl #14
    2510:	0d5d0000 	ldcleq	0, cr0, [sp, #-0]
    2514:	76080000 	strvc	r0, [r8], -r0
    2518:	0f000000 	svceq	0x00000000
    251c:	0d4d0600 	stcleq	6, cr0, [sp, #-0]
    2520:	0b160000 	bleq	582528 <__bss_end__+0x575d48>
    2524:	01000003 	tsteq	r0, r3
    2528:	00039888 	andeq	r9, r3, r8, lsl #17
    252c:	00919800 	addseq	r9, r1, r0, lsl #16
    2530:	00000800 	andeq	r0, r0, r0, lsl #16
    2534:	149c0100 	ldrne	r0, [ip], #256	; 0x100
    2538:	0000057c 	andeq	r0, r0, ip, ror r5
    253c:	91a08d01 	lslls	r8, r1, #26
    2540:	00b40000 	adcseq	r0, r4, r0
    2544:	9c010000 	stcls	0, cr0, [r1], {-0}
    2548:	00000ecf 	andeq	r0, r0, pc, asr #29
    254c:	01006617 	tsteq	r0, r7, lsl r6
    2550:	0003988e 	andeq	r9, r3, lr, lsl #17
    2554:	74910200 	ldrvc	r0, [r1], #512	; 0x200
    2558:	00000e15 	andeq	r0, r0, r5, lsl lr
    255c:	000edf00 	andeq	sp, lr, r0, lsl #30
    2560:	88030500 	stmdahi	r3, {r8, sl}
    2564:	180000ba 	stmdane	r0, {r1, r3, r4, r5, r7}
    2568:	000091bc 			; <UNDEFINED> instruction: 0x000091bc
    256c:	00000074 	andeq	r0, r0, r4, ror r0
    2570:	00000eb5 			; <UNDEFINED> instruction: 0x00000eb5
    2574:	00755f19 	rsbseq	r5, r5, r9, lsl pc
    2578:	d2a00104 	adcle	r0, r0, #4, 2
    257c:	1a00000d 	bne	25b8 <__code_start__-0x5a48>
    2580:	a0010073 	andge	r0, r1, r3, ror r0
    2584:	00000398 	muleq	r0, r8, r3
    2588:	0100751a 	tsteq	r0, sl, lsl r5
    258c:	00002ca0 	andeq	r2, r0, r0, lsr #25
    2590:	78170000 	ldmdavc	r7, {}	; <UNPREDICTABLE>
    2594:	b4a00100 	strtlt	r0, [r0], #256	; 0x100
    2598:	0100000d 	tsteq	r0, sp
    259c:	78651b53 	stmdavc	r5!, {r0, r1, r4, r6, r8, r9, fp, ip}^
    25a0:	a0010070 	andge	r0, r1, r0, ror r0
    25a4:	0000002c 	andeq	r0, r0, ip, lsr #32
    25a8:	1c408080 	mcrrne	0, 8, r8, r0, cr0
    25ac:	000005c2 	andeq	r0, r0, r2, asr #11
    25b0:	002ca001 	eoreq	sl, ip, r1
    25b4:	1d140000 	ldcne	0, cr0, [r4, #-0]
    25b8:	000005d3 	ldrdeq	r0, [r0], -r3
    25bc:	002ca001 	eoreq	sl, ip, r1
    25c0:	0fff0000 	svceq	0x00ff0000
    25c4:	0091cc13 	addseq	ip, r1, r3, lsl ip
    25c8:	00119300 	andseq	r9, r1, r0, lsl #6
    25cc:	92000f00 	andls	r0, r0, #0, 30
    25d0:	11720000 	cmnne	r2, r0
    25d4:	0e600000 	cdpeq	0, 6, cr0, cr0, cr0, {0}
    25d8:	01100000 	tsteq	r0, r0
    25dc:	a0080253 	andge	r0, r8, r3, asr r2
    25e0:	05520110 	ldrbeq	r0, [r2, #-272]	; 0x110
    25e4:	00ba8803 	adcseq	r8, sl, r3, lsl #16
    25e8:	51011000 	mrspl	r1, (UNDEF: 1)
    25ec:	b6d00305 	ldrblt	r0, [r0], r5, lsl #6
    25f0:	01100000 	tsteq	r0, r0
    25f4:	ec030550 	cfstr32	mvfx0, [r3], {80}	; 0x50
    25f8:	100000b6 	strhne	r0, [r0], -r6
    25fc:	01107d02 	tsteq	r0, r2, lsl #26
    2600:	7d02103c 	stcvc	0, cr1, [r2, #-240]	; 0xffffff10
    2604:	1044010c 	subne	r0, r4, ip, lsl #2
    2608:	05087d02 	streq	r7, [r8, #-3330]	; 0xd02
    260c:	00b9c003 	adcseq	ip, r9, r3
    2610:	7d021000 	stcvc	0, cr1, [r2, #-0]
    2614:	00740204 	rsbseq	r0, r4, r4, lsl #4
    2618:	007d0210 	rsbseq	r0, sp, r0, lsl r2
    261c:	00007402 	andeq	r7, r0, r2, lsl #8
    2620:	00920413 	addseq	r0, r2, r3, lsl r4
    2624:	00119a00 	andseq	r9, r1, r0, lsl #20
    2628:	92101300 	andsls	r1, r0, #0, 6
    262c:	11930000 	orrsne	r0, r3, r0
    2630:	2c0f0000 	stccs	0, cr0, [pc], {-0}
    2634:	72000092 	andvc	r0, r0, #146	; 0x92
    2638:	ab000011 	blge	2684 <__code_start__-0x597c>
    263c:	1000000e 	andne	r0, r0, lr
    2640:	08025301 	stmdaeq	r2, {r0, r8, r9, ip, lr}
    2644:	520110a0 	andpl	r1, r1, #160	; 0xa0
    2648:	ba880305 	blt	fe203264 <__bss_end__+0xfe1f6a84>
    264c:	01100000 	tsteq	r0, r0
    2650:	d0030551 	andle	r0, r3, r1, asr r5
    2654:	100000b6 	strhne	r0, [r0], -r6
    2658:	03055001 	movweq	r5, #20481	; 0x5001
    265c:	0000b140 	andeq	fp, r0, r0, asr #2
    2660:	007d0210 	rsbseq	r0, sp, r0, lsl r2
    2664:	b6e00305 	strbtlt	r0, [r0], r5, lsl #6
    2668:	13000000 	movwne	r0, #0
    266c:	00009230 	andeq	r9, r0, r0, lsr r2
    2670:	0000119a 	muleq	r0, sl, r1
    2674:	91ac1300 			; <UNDEFINED> instruction: 0x91ac1300
    2678:	0d620000 	stcleq	0, cr0, [r2, #-0]
    267c:	bc110000 	ldclt	0, cr0, [r1], {-0}
    2680:	bd000091 	stclt	0, cr0, [r0, #-580]	; 0xfffffdbc
    2684:	1000000a 	andne	r0, r0, sl
    2688:	91025001 	tstls	r2, r1
    268c:	0700006c 	streq	r0, [r0, -ip, rrx]
    2690:	0000007d 	andeq	r0, r0, sp, ror r0
    2694:	00000edf 	ldrdeq	r0, [r0], -pc	; <UNPREDICTABLE>
    2698:	00007608 	andeq	r7, r0, r8, lsl #12
    269c:	06001100 	streq	r1, [r0], -r0, lsl #2
    26a0:	00000ecf 	andeq	r0, r0, pc, asr #29
    26a4:	0004880c 	andeq	r8, r4, ip, lsl #16
    26a8:	54a30100 	strtpl	r0, [r3], #256	; 0x100
    26ac:	d0000092 	mulle	r0, r2, r0
    26b0:	01000001 	tsteq	r0, r1
    26b4:	0011279c 	mulseq	r1, ip, r7
    26b8:	00660d00 	rsbeq	r0, r6, r0, lsl #26
    26bc:	0d47a301 	stcleq	3, cr10, [r7, #-4]
    26c0:	0dd50000 	ldcleq	0, cr0, [r5]
    26c4:	640f0000 	strvs	r0, [pc], #-0	; 26cc <__code_start__-0x5934>
    26c8:	72000092 	andvc	r0, r0, #146	; 0x92
    26cc:	1d000011 	stcne	0, cr0, [r0, #-68]	; 0xffffffbc
    26d0:	1000000f 	andne	r0, r0, pc
    26d4:	03055001 	movweq	r5, #20481	; 0x5001
    26d8:	0000b9d0 	ldrdeq	fp, [r0], -r0
    26dc:	92700f00 	rsbsls	r0, r0, #0, 30
    26e0:	11720000 	cmnne	r2, r0
    26e4:	0f3a0000 	svceq	0x003a0000
    26e8:	01100000 	tsteq	r0, r0
    26ec:	00740251 	rsbseq	r0, r4, r1, asr r2
    26f0:	05500110 	ldrbeq	r0, [r0, #-272]	; 0x110
    26f4:	00b9f003 	adcseq	pc, r9, r3
    26f8:	840f0000 	strhi	r0, [pc], #-0	; 2700 <__code_start__-0x5900>
    26fc:	72000092 	andvc	r0, r0, #146	; 0x92
    2700:	5a000011 	bpl	274c <__code_start__-0x58b4>
    2704:	1000000f 	andne	r0, r0, pc
    2708:	03055201 	movweq	r5, #20993	; 0x5201
    270c:	0000b9c0 	andeq	fp, r0, r0, asr #19
    2710:	05500110 	ldrbeq	r0, [r0, #-272]	; 0x110
    2714:	00b89403 	adcseq	r9, r8, r3, lsl #8
    2718:	9c0f0000 	stcls	0, cr0, [pc], {-0}
    271c:	72000092 	andvc	r0, r0, #146	; 0x92
    2720:	71000011 	tstvc	r0, r1, lsl r0
    2724:	1000000f 	andne	r0, r0, pc
    2728:	03055001 	movweq	r5, #20481	; 0x5001
    272c:	0000b8a0 	andeq	fp, r0, r0, lsr #17
    2730:	92b00f00 	adcsls	r0, r0, #0, 30
    2734:	11720000 	cmnne	r2, r0
    2738:	0f880000 	svceq	0x00880000
    273c:	01100000 	tsteq	r0, r0
    2740:	f8030550 			; <UNDEFINED> instruction: 0xf8030550
    2744:	000000b9 	strheq	r0, [r0], -r9
    2748:	0092b80f 	addseq	fp, r2, pc, lsl #16
    274c:	00117200 	andseq	r7, r1, r0, lsl #4
    2750:	000f9f00 	andeq	r9, pc, r0, lsl #30
    2754:	50011000 	andpl	r1, r1, r0
    2758:	ba0c0305 	blt	303374 <__bss_end__+0x2f6b94>
    275c:	0f000000 	svceq	0x00000000
    2760:	000092d0 	ldrdeq	r9, [r0], -r0
    2764:	00001172 	andeq	r1, r0, r2, ror r1
    2768:	00000fbf 			; <UNDEFINED> instruction: 0x00000fbf
    276c:	05520110 	ldrbeq	r0, [r2, #-272]	; 0x110
    2770:	00b9b403 	adcseq	fp, r9, r3, lsl #8
    2774:	50011000 	andpl	r1, r1, r0
    2778:	b8940305 	ldmlt	r4, {r0, r2, r8, r9}
    277c:	0f000000 	svceq	0x00000000
    2780:	000092e4 	andeq	r9, r0, r4, ror #5
    2784:	00001172 	andeq	r1, r0, r2, ror r1
    2788:	00000fdf 	ldrdeq	r0, [r0], -pc	; <UNPREDICTABLE>
    278c:	05520110 	ldrbeq	r0, [r2, #-272]	; 0x110
    2790:	00b9b003 	adcseq	fp, r9, r3
    2794:	50011000 	andpl	r1, r1, r0
    2798:	b8940305 	ldmlt	r4, {r0, r2, r8, r9}
    279c:	0f000000 	svceq	0x00000000
    27a0:	000092f8 	strdeq	r9, [r0], -r8
    27a4:	00001172 	andeq	r1, r0, r2, ror r1
    27a8:	00000fff 	strdeq	r0, [r0], -pc	; <UNPREDICTABLE>
    27ac:	05520110 	ldrbeq	r0, [r2, #-272]	; 0x110
    27b0:	00b9ac03 	adcseq	sl, r9, r3, lsl #24
    27b4:	50011000 	andpl	r1, r1, r0
    27b8:	b8940305 	ldmlt	r4, {r0, r2, r8, r9}
    27bc:	0f000000 	svceq	0x00000000
    27c0:	00009310 	andeq	r9, r0, r0, lsl r3
    27c4:	00001172 	andeq	r1, r0, r2, ror r1
    27c8:	0000101f 	andeq	r1, r0, pc, lsl r0
    27cc:	05520110 	ldrbeq	r0, [r2, #-272]	; 0x110
    27d0:	00b9a803 	adcseq	sl, r9, r3, lsl #16
    27d4:	50011000 	andpl	r1, r1, r0
    27d8:	b8940305 	ldmlt	r4, {r0, r2, r8, r9}
    27dc:	0f000000 	svceq	0x00000000
    27e0:	00009328 	andeq	r9, r0, r8, lsr #6
    27e4:	00001172 	andeq	r1, r0, r2, ror r1
    27e8:	0000103f 	andeq	r1, r0, pc, lsr r0
    27ec:	05520110 	ldrbeq	r0, [r2, #-272]	; 0x110
    27f0:	00b9a403 	adcseq	sl, r9, r3, lsl #8
    27f4:	50011000 	andpl	r1, r1, r0
    27f8:	b8940305 	ldmlt	r4, {r0, r2, r8, r9}
    27fc:	0f000000 	svceq	0x00000000
    2800:	00009340 	andeq	r9, r0, r0, asr #6
    2804:	00001172 	andeq	r1, r0, r2, ror r1
    2808:	0000105f 	andeq	r1, r0, pc, asr r0
    280c:	05520110 	ldrbeq	r0, [r2, #-272]	; 0x110
    2810:	00b9a003 	adcseq	sl, r9, r3
    2814:	50011000 	andpl	r1, r1, r0
    2818:	b8940305 	ldmlt	r4, {r0, r2, r8, r9}
    281c:	0f000000 	svceq	0x00000000
    2820:	00009358 	andeq	r9, r0, r8, asr r3
    2824:	00001172 	andeq	r1, r0, r2, ror r1
    2828:	0000107f 	andeq	r1, r0, pc, ror r0
    282c:	05520110 	ldrbeq	r0, [r2, #-272]	; 0x110
    2830:	00b99803 	adcseq	r9, r9, r3, lsl #16
    2834:	50011000 	andpl	r1, r1, r0
    2838:	b8940305 	ldmlt	r4, {r0, r2, r8, r9}
    283c:	0f000000 	svceq	0x00000000
    2840:	00009374 	andeq	r9, r0, r4, ror r3
    2844:	00001172 	andeq	r1, r0, r2, ror r1
    2848:	00001096 	muleq	r0, r6, r0
    284c:	05500110 	ldrbeq	r0, [r0, #-272]	; 0x110
    2850:	00b8a003 	adcseq	sl, r8, r3
    2854:	8c0f0000 	stchi	0, cr0, [pc], {-0}
    2858:	72000093 	andvc	r0, r0, #147	; 0x93
    285c:	b6000011 			; <UNDEFINED> instruction: 0xb6000011
    2860:	10000010 	andne	r0, r0, r0, lsl r0
    2864:	03055201 	movweq	r5, #20993	; 0x5201
    2868:	0000b994 	muleq	r0, r4, r9
    286c:	05500110 	ldrbeq	r0, [r0, #-272]	; 0x110
    2870:	00b89403 	adcseq	r9, r8, r3, lsl #8
    2874:	a40f0000 	strge	r0, [pc], #-0	; 287c <__code_start__-0x5784>
    2878:	72000093 	andvc	r0, r0, #147	; 0x93
    287c:	d6000011 			; <UNDEFINED> instruction: 0xd6000011
    2880:	10000010 	andne	r0, r0, r0, lsl r0
    2884:	03055201 	movweq	r5, #20993	; 0x5201
    2888:	0000b990 	muleq	r0, r0, r9
    288c:	05500110 	ldrbeq	r0, [r0, #-272]	; 0x110
    2890:	00b89403 	adcseq	r9, r8, r3, lsl #8
    2894:	bc0f0000 	stclt	0, cr0, [pc], {-0}
    2898:	72000093 	andvc	r0, r0, #147	; 0x93
    289c:	f6000011 			; <UNDEFINED> instruction: 0xf6000011
    28a0:	10000010 	andne	r0, r0, r0, lsl r0
    28a4:	03055201 	movweq	r5, #20993	; 0x5201
    28a8:	0000b98c 	andeq	fp, r0, ip, lsl #19
    28ac:	05500110 	ldrbeq	r0, [r0, #-272]	; 0x110
    28b0:	00b89403 	adcseq	r9, r8, r3, lsl #8
    28b4:	d00f0000 	andle	r0, pc, r0
    28b8:	72000093 	andvc	r0, r0, #147	; 0x93
    28bc:	16000011 			; <UNDEFINED> instruction: 0x16000011
    28c0:	10000011 	andne	r0, r0, r1, lsl r0
    28c4:	03055201 	movweq	r5, #20993	; 0x5201
    28c8:	0000b988 	andeq	fp, r0, r8, lsl #19
    28cc:	05500110 	ldrbeq	r0, [r0, #-272]	; 0x110
    28d0:	00b89403 	adcseq	r9, r8, r3, lsl #8
    28d4:	d8110000 	ldmdale	r1, {}	; <UNPREDICTABLE>
    28d8:	bd000093 	stclt	0, cr0, [r0, #-588]	; 0xfffffdb4
    28dc:	1000000a 	andne	r0, r0, sl
    28e0:	74025001 	strvc	r5, [r2], #-1
    28e4:	0c000000 	stceq	0, cr0, [r0], {-0}
    28e8:	000005db 	ldrdeq	r0, [r0], -fp
    28ec:	9424bd01 	strtls	fp, [r4], #-3329	; 0xd01
    28f0:	00140000 	andseq	r0, r4, r0
    28f4:	9c010000 	stcls	0, cr0, [r1], {-0}
    28f8:	00001158 	andeq	r1, r0, r8, asr r1
    28fc:	00942c13 	addseq	r2, r4, r3, lsl ip
    2900:	00046e00 	andeq	r6, r4, r0, lsl #28
    2904:	94301300 	ldrtls	r1, [r0], #-768	; 0x300
    2908:	0a120000 	beq	482910 <__bss_end__+0x476130>
    290c:	34130000 	ldrcc	r0, [r3], #-0
    2910:	77000094 			; <UNDEFINED> instruction: 0x77000094
    2914:	0000000d 	andeq	r0, r0, sp
    2918:	00058e1e 	andeq	r8, r5, lr, lsl lr
    291c:	5d050500 	cfstr32pl	mvfx0, [r5, #-0]
    2920:	72000000 	andvc	r0, r0, #0
    2924:	1f000011 	svcne	0x00000011
    2928:	0000041e 	andeq	r0, r0, lr, lsl r4
    292c:	0000251f 	andeq	r2, r0, pc, lsl r5
    2930:	5b1e0000 	blpl	782938 <__bss_end__+0x776158>
    2934:	0600000a 	streq	r0, [r0], -sl
    2938:	00002529 	andeq	r2, r0, r9, lsr #10
    293c:	00118800 	andseq	r8, r1, r0, lsl #16
    2940:	00841f00 	addeq	r1, r4, r0, lsl #30
    2944:	00200000 	eoreq	r0, r0, r0
    2948:	00049221 	andeq	r9, r4, r1, lsr #4
    294c:	5d6e0700 	stclpl	7, cr0, [lr, #-0]
    2950:	22000000 	andcs	r0, r0, #0
    2954:	00000116 	andeq	r0, r0, r6, lsl r1
    2958:	25221e06 	strcs	r1, [r2, #-3590]!	; 0xe06
    295c:	06000001 	streq	r0, [r0], -r1
    2960:	16680065 	strbtne	r0, [r8], -r5, rrx
    2964:	00040000 	andeq	r0, r4, r0
    2968:	00000569 	andeq	r0, r0, r9, ror #10
    296c:	009b0104 	addseq	r0, fp, r4, lsl #2
    2970:	ca010000 	bgt	42978 <__bss_end__+0x36198>
    2974:	32000006 	andcc	r0, r0, #6
    2978:	38000000 	stmdacc	r0, {}	; <UNPREDICTABLE>
    297c:	4c000094 	stcmi	0, cr0, [r0], {148}	; 0x94
    2980:	4700000a 	strmi	r0, [r0, -sl]
    2984:	02000006 	andeq	r0, r0, #6
    2988:	6e690504 	cdpvs	5, 6, cr0, cr9, cr4, {0}
    298c:	04030074 	streq	r0, [r3], #-116	; 0x74
    2990:	00002507 	andeq	r2, r0, r7, lsl #10
    2994:	06010300 	streq	r0, [r1], -r0, lsl #6
    2998:	0000010a 	andeq	r0, r0, sl, lsl #2
    299c:	77050203 	strvc	r0, [r5, -r3, lsl #4]
    29a0:	03000001 	movweq	r0, #1
    29a4:	00050504 	andeq	r0, r5, r4, lsl #10
    29a8:	08030000 	stmdaeq	r3, {}	; <UNPREDICTABLE>
    29ac:	00000005 	andeq	r0, r0, r5
    29b0:	08010300 	stmdaeq	r1, {r8, r9}
    29b4:	00000108 	andeq	r0, r0, r8, lsl #2
    29b8:	46070203 	strmi	r0, [r7], -r3, lsl #4
    29bc:	04000001 	streq	r0, [r0], #-1
    29c0:	00000419 	andeq	r0, r0, r9, lsl r4
    29c4:	00683405 	rsbeq	r3, r8, r5, lsl #8
    29c8:	04030000 	streq	r0, [r3], #-0
    29cc:	00002007 	andeq	r2, r0, r7
    29d0:	07080300 	streq	r0, [r8, -r0, lsl #6]
    29d4:	0000001b 	andeq	r0, r0, fp, lsl r0
    29d8:	81070403 	tsthi	r7, r3, lsl #8
    29dc:	05000001 	streq	r0, [r0, #-1]
    29e0:	08010304 	stmdaeq	r1, {r2, r8, r9}
    29e4:	00000111 	andeq	r0, r0, r1, lsl r1
    29e8:	008c0406 	addeq	r0, ip, r6, lsl #8
    29ec:	7f070000 	svcvc	0x00070000
    29f0:	08000000 	stmdaeq	r0, {}	; <UNPREDICTABLE>
    29f4:	0000033b 	andeq	r0, r0, fp, lsr r3
    29f8:	67460404 	strbvs	r0, [r6, -r4, lsl #8]
    29fc:	09000001 	stmdbeq	r0, {r0}
    2a00:	00676174 	rsbeq	r6, r7, r4, ror r1
    2a04:	002c4804 	eoreq	r4, ip, r4, lsl #16
    2a08:	02040000 	andeq	r0, r4, #0
    2a0c:	4209001e 	andmi	r0, r9, #30
    2a10:	2c490400 	cfstrdcs	mvd0, [r9], {-0}
    2a14:	04000000 	streq	r0, [r0], #-0
    2a18:	09001d01 	stmdbeq	r0, {r0, r8, sl, fp, ip}
    2a1c:	4a040043 	bmi	102b30 <__bss_end__+0xf6350>
    2a20:	0000002c 	andeq	r0, r0, ip, lsr #32
    2a24:	001c0104 	andseq	r0, ip, r4, lsl #2
    2a28:	004e5809 	subeq	r5, lr, r9, lsl #16
    2a2c:	002c4b04 	eoreq	r4, ip, r4, lsl #22
    2a30:	01040000 	mrseq	r0, (UNDEF: 4)
    2a34:	de0a001b 	mcrle	0, 0, r0, cr10, cr11, {0}
    2a38:	04000004 	streq	r0, [r0], #-4
    2a3c:	00002c4e 	andeq	r2, r0, lr, asr #24
    2a40:	17040400 	strne	r0, [r4, -r0, lsl #8]
    2a44:	4d490900 	stclmi	9, cr0, [r9, #-0]
    2a48:	4f040050 	svcmi	0x00040050
    2a4c:	0000002c 	andeq	r0, r0, ip, lsr #32
    2a50:	00160104 	andseq	r0, r6, r4, lsl #2
    2a54:	00504109 	subseq	r4, r0, r9, lsl #2
    2a58:	002c5204 	eoreq	r5, ip, r4, lsl #4
    2a5c:	02040000 	andeq	r0, r4, #0
    2a60:	54090014 	strpl	r0, [r9], #-20
    2a64:	04005845 	streq	r5, [r0], #-2117	; 0x845
    2a68:	00002c53 	andeq	r2, r0, r3, asr ip
    2a6c:	11030400 	tstne	r3, r0, lsl #8
    2a70:	50410900 	subpl	r0, r1, r0, lsl #18
    2a74:	54040058 	strpl	r0, [r4], #-88	; 0x58
    2a78:	0000002c 	andeq	r0, r0, ip, lsr #32
    2a7c:	00100104 	andseq	r0, r0, r4, lsl #2
    2a80:	04005309 	streq	r5, [r0], #-777	; 0x309
    2a84:	00002c55 	andeq	r2, r0, r5, asr ip
    2a88:	0f010400 	svceq	0x00010400
    2a8c:	476e0900 	strbmi	r0, [lr, -r0, lsl #18]!
    2a90:	2c560400 	cfldrdcs	mvd0, [r6], {-0}
    2a94:	04000000 	streq	r0, [r0], #-0
    2a98:	0a000e01 	beq	62a4 <__code_start__-0x1d5c>
    2a9c:	000002e3 	andeq	r0, r0, r3, ror #5
    2aa0:	002c5704 	eoreq	r5, ip, r4, lsl #14
    2aa4:	01040000 	mrseq	r0, (UNDEF: 4)
    2aa8:	eb0a000d 	bl	282ae4 <__bss_end__+0x276304>
    2aac:	04000004 	streq	r0, [r0], #-4
    2ab0:	00002c58 	andeq	r2, r0, r8, asr ip
    2ab4:	0c010400 	cfstrseq	mvf0, [r1], {-0}
    2ab8:	024f0a00 	subeq	r0, pc, #0, 20
    2abc:	59040000 	stmdbpl	r4, {}	; <UNPREDICTABLE>
    2ac0:	0000002c 	andeq	r0, r0, ip, lsr #32
    2ac4:	00000c04 	andeq	r0, r0, r4, lsl #24
    2ac8:	02ad0400 	adceq	r0, sp, #0, 8
    2acc:	5a040000 	bpl	102ad4 <__bss_end__+0xf62f4>
    2ad0:	00000091 	muleq	r0, r1, r0
    2ad4:	6804010b 	stmdavs	r4, {r0, r1, r3, r8}
    2ad8:	00000193 	muleq	r0, r3, r1
    2adc:	0007f80c 	andeq	pc, r7, ip, lsl #16
    2ae0:	560c0000 	strpl	r0, [ip], -r0
    2ae4:	01000007 	tsteq	r0, r7
    2ae8:	00077c0c 	andeq	r7, r7, ip, lsl #24
    2aec:	d50c0200 	strle	r0, [ip, #-512]	; 0x200
    2af0:	03000006 	movweq	r0, #6
    2af4:	060c0d00 	streq	r0, [ip], -r0, lsl #26
    2af8:	0001c02f 	andeq	ip, r1, pc, lsr #32
    2afc:	08160e00 	ldmdaeq	r6, {r9, sl, fp}
    2b00:	30060000 	andcc	r0, r6, r0
    2b04:	0000005d 	andeq	r0, r0, sp, asr r0
    2b08:	08590e00 	ldmdaeq	r9, {r9, sl, fp}^
    2b0c:	31060000 	mrscc	r0, (UNDEF: 6)
    2b10:	0000005d 	andeq	r0, r0, sp, asr r0
    2b14:	07a30e04 	streq	r0, [r3, r4, lsl #28]!
    2b18:	32060000 	andcc	r0, r6, #0
    2b1c:	0000005d 	andeq	r0, r0, sp, asr r0
    2b20:	20040008 	andcs	r0, r4, r8
    2b24:	06000009 	streq	r0, [r0], -r9
    2b28:	00019333 	andeq	r9, r1, r3, lsr r3
    2b2c:	01040b00 	tsteq	r4, r0, lsl #22
    2b30:	0001dd13 	andeq	sp, r1, r3, lsl sp
    2b34:	05480c00 	strbeq	r0, [r8, #-3072]	; 0xc00
    2b38:	80800000 	addhi	r0, r0, r0
    2b3c:	0b0000c0 	bleq	2e44 <__code_start__-0x51bc>
    2b40:	f2160101 	vrhadd.s16	d0, d6, d1
    2b44:	0c000001 	stceq	0, cr0, [r0], {1}
    2b48:	00000700 	andeq	r0, r0, r0, lsl #14
    2b4c:	06e10c01 	strbteq	r0, [r1], r1, lsl #24
    2b50:	00020000 	andeq	r0, r2, r0
    2b54:	6001010b 	andvs	r0, r1, fp, lsl #2
    2b58:	0000026d 	andeq	r0, r0, sp, ror #4
    2b5c:	0006ea0c 	andeq	lr, r6, ip, lsl #20
    2b60:	2d0c0100 	stfcss	f0, [ip, #-0]
    2b64:	00000009 	andeq	r0, r0, r9
    2b68:	0008210c 	andeq	r2, r8, ip, lsl #2
    2b6c:	7d0c0300 	stcvc	3, cr0, [ip, #-0]
    2b70:	04000006 	streq	r0, [r0], #-6
    2b74:	0008300c 	andeq	r3, r8, ip
    2b78:	890c0c00 	stmdbhi	ip, {sl, fp}
    2b7c:	0e000007 	cdpeq	0, 0, cr0, cr0, cr7, {0}
    2b80:	00072c0c 	andeq	r2, r7, ip, lsl #24
    2b84:	c90c0500 	stmdbgt	ip, {r8, sl}
    2b88:	07000008 	streq	r0, [r0, -r8]
    2b8c:	0007c30c 	andeq	ip, r7, ip, lsl #6
    2b90:	710c0900 	tstvc	ip, r0, lsl #18
    2b94:	0b000006 	bleq	2bb4 <__code_start__-0x544c>
    2b98:	00093b0c 	andeq	r3, r9, ip, lsl #22
    2b9c:	060c0d00 	streq	r0, [ip], -r0, lsl #26
    2ba0:	0f000008 	svceq	0x00000008
    2ba4:	0008e30c 	andeq	lr, r8, ip, lsl #6
    2ba8:	e60c0800 	str	r0, [ip], -r0, lsl #16
    2bac:	0a000007 	beq	2bd0 <__code_start__-0x5430>
    2bb0:	0006c10c 	andeq	ip, r6, ip, lsl #2
    2bb4:	880c1400 	stmdahi	ip, {sl, ip}
    2bb8:	1a000008 	bne	2be0 <__code_start__-0x5420>
    2bbc:	0006b20c 	andeq	fp, r6, ip, lsl #4
    2bc0:	900c1600 	andls	r1, ip, r0, lsl #12
    2bc4:	18000006 	stmdane	r0, {r1, r2}
    2bc8:	0006f40c 	andeq	pc, r6, ip, lsl #8
    2bcc:	0f000200 	svceq	0x00000200
    2bd0:	000008da 	ldrdeq	r0, [r0], -sl
    2bd4:	005d5f03 	subseq	r5, sp, r3, lsl #30
    2bd8:	89030000 	stmdbhi	r3, {}	; <UNPREDICTABLE>
    2bdc:	10000002 	andne	r0, r0, r2
    2be0:	00746572 	rsbseq	r6, r4, r2, ror r5
    2be4:	005d5f03 	subseq	r5, sp, r3, lsl #30
    2be8:	0f000000 	svceq	0x00000000
    2bec:	000007d2 	ldrdeq	r0, [r0], -r2
    2bf0:	005d6303 	subseq	r6, sp, r3, lsl #6
    2bf4:	a5030000 	strge	r0, [r3, #-0]
    2bf8:	10000002 	andne	r0, r0, r2
    2bfc:	00746572 	rsbseq	r6, r4, r2, ror r5
    2c00:	005d6303 	subseq	r6, sp, r3, lsl #6
    2c04:	11000000 	mrsne	r0, (UNDEF: 0)
    2c08:	000008ba 			; <UNDEFINED> instruction: 0x000008ba
    2c0c:	01c01e01 	biceq	r1, r0, r1, lsl #28
    2c10:	94380000 	ldrtls	r0, [r8], #-0
    2c14:	001c0000 	andseq	r0, ip, r0
    2c18:	9c010000 	stcls	0, cr0, [r1], {-0}
    2c1c:	00084a12 	andeq	r4, r8, r2, lsl sl
    2c20:	54210100 	strtpl	r0, [r1], #-256	; 0x100
    2c24:	18000094 	stmdane	r0, {r2, r4, r7}
    2c28:	01000000 	mrseq	r0, (UNDEF: 0)
    2c2c:	0002f79c 	muleq	r2, ip, r7
    2c30:	08591300 	ldmdaeq	r9, {r8, r9, ip}^
    2c34:	21010000 	mrscs	r0, (UNDEF: 1)
    2c38:	0000005d 	andeq	r0, r0, sp, asr r0
    2c3c:	16135001 	ldrne	r5, [r3], -r1
    2c40:	01000008 	tsteq	r0, r8
    2c44:	00005d21 	andeq	r5, r0, r1, lsr #26
    2c48:	13510100 	cmpne	r1, #0, 2
    2c4c:	000007a9 	andeq	r0, r0, r9, lsr #15
    2c50:	005d2101 	subseq	r2, sp, r1, lsl #2
    2c54:	52010000 	andpl	r0, r1, #0
    2c58:	08f31200 	ldmeq	r3!, {r9, ip}^
    2c5c:	28010000 	stmdacs	r1, {}	; <UNPREDICTABLE>
    2c60:	0000946c 	andeq	r9, r0, ip, ror #8
    2c64:	000000f0 	strdeq	r0, [r0], -r0	; <UNPREDICTABLE>
    2c68:	04859c01 	streq	r9, [r5], #3073	; 0xc01
    2c6c:	70140000 	andsvc	r0, r4, r0
    2c70:	28010063 	stmdacs	r1, {r0, r1, r5, r6}
    2c74:	0000005d 	andeq	r0, r0, sp, asr r0
    2c78:	00000df3 	strdeq	r0, [r0], -r3
    2c7c:	00025815 	andeq	r5, r2, r5, lsl r8
    2c80:	5d280100 	stfpls	f0, [r8, #-0]
    2c84:	1f000000 	svcne	0x00000000
    2c88:	1500000e 	strne	r0, [r0, #-14]
    2c8c:	000007a9 	andeq	r0, r0, r9, lsr #15
    2c90:	005d2801 	subseq	r2, sp, r1, lsl #16
    2c94:	0e4b0000 	cdpeq	0, 4, cr0, cr11, cr0, {0}
    2c98:	6c160000 	ldcvs	0, cr0, [r6], {-0}
    2c9c:	c0290100 	eorgt	r0, r9, r0, lsl #2
    2ca0:	02000001 	andeq	r0, r0, #1
    2ca4:	0e176491 	cfcmpseq	r6, mvf7, mvf1
    2ca8:	95000000 	strls	r0, [r0, #-0]
    2cac:	05000004 	streq	r0, [r0, #-4]
    2cb0:	00bf9403 	adcseq	r9, pc, r3, lsl #8
    2cb4:	94881800 	strls	r1, [r8], #2048	; 0x800
    2cb8:	02a50000 	adceq	r0, r5, #0
    2cbc:	03670000 	cmneq	r7, #0
    2cc0:	01190000 	tsteq	r9, r0
    2cc4:	5c910250 	lfmpl	f0, 4, [r1], {80}	; 0x50
    2cc8:	94981a00 	ldrls	r1, [r8], #2560	; 0xa00
    2ccc:	15940000 	ldrne	r0, [r4]
    2cd0:	b4180000 	ldrlt	r0, [r8], #-0
    2cd4:	9b000094 	blls	2f2c <__code_start__-0x50d4>
    2cd8:	a9000015 	stmdbge	r0, {r0, r2, r4}
    2cdc:	19000003 	stmdbne	r0, {r0, r1}
    2ce0:	08025301 	stmdaeq	r2, {r0, r8, r9, ip, lr}
    2ce4:	5201192a 	andpl	r1, r1, #688128	; 0xa8000
    2ce8:	bf940305 	svclt	0x00940305
    2cec:	01190000 	tsteq	r9, r0
    2cf0:	9c030551 	cfstr32ls	mvfx0, [r3], {81}	; 0x51
    2cf4:	190000ba 	stmdbne	r0, {r1, r3, r4, r5, r7}
    2cf8:	03055001 	movweq	r5, #20481	; 0x5001
    2cfc:	0000b140 	andeq	fp, r0, r0, asr #2
    2d00:	007d0219 	rsbseq	r0, sp, r9, lsl r2
    2d04:	baa80305 	blt	fea03920 <__bss_end__+0xfe9f7140>
    2d08:	1a000000 	bne	2d10 <__code_start__-0x52f0>
    2d0c:	000094b8 			; <UNDEFINED> instruction: 0x000094b8
    2d10:	000015b1 			; <UNDEFINED> instruction: 0x000015b1
    2d14:	0094c81a 	addseq	ip, r4, sl, lsl r8
    2d18:	00159400 	andseq	r9, r5, r0, lsl #8
    2d1c:	94e41800 	strbtls	r1, [r4], #2048	; 0x800
    2d20:	159b0000 	ldrne	r0, [fp]
    2d24:	03f40000 	mvnseq	r0, #0
    2d28:	01190000 	tsteq	r9, r0
    2d2c:	2b080253 	blcs	203680 <__bss_end__+0x1f6ea0>
    2d30:	05520119 	ldrbeq	r0, [r2, #-281]	; 0x119
    2d34:	00bf9403 	adcseq	r9, pc, r3, lsl #8
    2d38:	51011900 	tstpl	r1, r0, lsl #18
    2d3c:	ba9c0305 	blt	fe703958 <__bss_end__+0xfe6f7178>
    2d40:	01190000 	tsteq	r9, r0
    2d44:	40030550 	andmi	r0, r3, r0, asr r5
    2d48:	190000b1 	stmdbne	r0, {r0, r4, r5, r7}
    2d4c:	05007d02 	streq	r7, [r0, #-3330]	; 0xd02
    2d50:	00bac003 	adcseq	ip, sl, r3
    2d54:	e81a0000 	ldmda	sl, {}	; <UNPREDICTABLE>
    2d58:	b1000094 	swplt	r0, r4, [r0]	; <UNPREDICTABLE>
    2d5c:	1a000015 	bne	2db8 <__code_start__-0x5248>
    2d60:	000094f8 	strdeq	r9, [r0], -r8
    2d64:	00001594 	muleq	r0, r4, r5
    2d68:	00951418 	addseq	r1, r5, r8, lsl r4
    2d6c:	00159b00 	andseq	r9, r5, r0, lsl #22
    2d70:	00043f00 	andeq	r3, r4, r0, lsl #30
    2d74:	53011900 	movwpl	r1, #6400	; 0x1900
    2d78:	192c0802 	stmdbne	ip!, {r1, fp}
    2d7c:	03055201 	movweq	r5, #20993	; 0x5201
    2d80:	0000bf94 	muleq	r0, r4, pc	; <UNPREDICTABLE>
    2d84:	05510119 	ldrbeq	r0, [r1, #-281]	; 0x119
    2d88:	00ba9c03 	adcseq	r9, sl, r3, lsl #24
    2d8c:	50011900 	andpl	r1, r1, r0, lsl #18
    2d90:	b1400305 	cmplt	r0, r5, lsl #6
    2d94:	02190000 	andseq	r0, r9, #0
    2d98:	0305007d 	movweq	r0, #20605	; 0x507d
    2d9c:	0000bad4 	ldrdeq	fp, [r0], -r4
    2da0:	95181a00 	ldrls	r1, [r8, #-2560]	; 0xa00
    2da4:	15b10000 	ldrne	r0, [r1, #0]!
    2da8:	20180000 	andscs	r0, r8, r0
    2dac:	9b000095 	blls	3008 <__code_start__-0x4ff8>
    2db0:	5f000015 	svcpl	0x00000015
    2db4:	19000004 	stmdbne	r0, {r2}
    2db8:	03055001 	movweq	r5, #20481	; 0x5001
    2dbc:	0000b188 	andeq	fp, r0, r8, lsl #3
    2dc0:	95341b00 	ldrls	r1, [r4, #-2816]!	; 0xb00
    2dc4:	159b0000 	ldrne	r0, [fp]
    2dc8:	01190000 	tsteq	r9, r0
    2dcc:	00750253 	rsbseq	r0, r5, r3, asr r2
    2dd0:	02520119 	subseq	r0, r2, #1073741830	; 0x40000006
    2dd4:	01190074 	tsteq	r9, r4, ror r0
    2dd8:	00760251 	rsbseq	r0, r6, r1, asr r2
    2ddc:	05500119 	ldrbeq	r0, [r0, #-281]	; 0x119
    2de0:	00baf003 	adcseq	pc, sl, r3
    2de4:	1c000000 	stcne	0, cr0, [r0], {-0}
    2de8:	0000007f 	andeq	r0, r0, pc, ror r0
    2dec:	00000495 	muleq	r0, r5, r4
    2df0:	0000761d 	andeq	r7, r0, sp, lsl r6
    2df4:	07000e00 	streq	r0, [r0, -r0, lsl #28]
    2df8:	00000485 	andeq	r0, r0, r5, lsl #9
    2dfc:	00087f0f 	andeq	r7, r8, pc, lsl #30
    2e00:	5d1c0200 	lfmpl	f0, 4, [ip, #-0]
    2e04:	03000000 	movweq	r0, #0
    2e08:	000004de 	ldrdeq	r0, [r0], -lr
    2e0c:	0200781e 	andeq	r7, r0, #1966080	; 0x1e0000
    2e10:	00005d1c 	andeq	r5, r0, ip, lsl sp
    2e14:	626c1e00 	rsbvs	r1, ip, #0, 28
    2e18:	2c1c0200 	lfmcs	f0, 4, [ip], {-0}
    2e1c:	1e000000 	cdpne	0, 0, cr0, cr0, cr0, {0}
    2e20:	02006275 	andeq	r6, r0, #1342177287	; 0x50000007
    2e24:	00002c1c 	andeq	r2, r0, ip, lsl ip
    2e28:	000e1f00 	andeq	r1, lr, r0, lsl #30
    2e2c:	04ee0000 	strbteq	r0, [lr], #0
    2e30:	087f0000 	ldmdaeq	pc!, {}^	; <UNPREDICTABLE>
    2e34:	6e100000 	cdpvs	0, 1, cr0, cr0, cr0, {0}
    2e38:	2c1f0200 	lfmcs	f0, 4, [pc], {-0}
    2e3c:	00000000 	andeq	r0, r0, r0
    2e40:	00007f1c 	andeq	r7, r0, ip, lsl pc
    2e44:	0004ee00 	andeq	lr, r4, r0, lsl #28
    2e48:	00761d00 	rsbseq	r1, r6, r0, lsl #26
    2e4c:	00080000 	andeq	r0, r8, r0
    2e50:	0004de07 	andeq	sp, r4, r7, lsl #28
    2e54:	094e2000 	stmdbeq	lr, {sp}^
    2e58:	3b010000 	blcc	42e60 <__bss_end__+0x36680>
    2e5c:	0000002c 	andeq	r0, r0, ip, lsr #32
    2e60:	0000955c 	andeq	r9, r0, ip, asr r5
    2e64:	000000a4 	andeq	r0, r0, r4, lsr #1
    2e68:	06139c01 	ldreq	r9, [r3], -r1, lsl #24
    2e6c:	64140000 	ldrvs	r0, [r4], #-0
    2e70:	01006d6f 	tsteq	r0, pc, ror #26
    2e74:	00002c3b 	andeq	r2, r0, fp, lsr ip
    2e78:	000e7700 	andeq	r7, lr, r0, lsl #14
    2e7c:	00782100 	rsbseq	r2, r8, r0, lsl #2
    2e80:	002c3c01 	eoreq	r3, ip, r1, lsl #24
    2e84:	0ea30000 	cdpeq	0, 10, cr0, cr3, cr0, {0}
    2e88:	9a220000 	bls	882e90 <__bss_end__+0x8766b0>
    2e8c:	78000004 	stmdavc	r0, {r2}
    2e90:	68000095 	stmdavs	r0, {r0, r2, r4, r7}
    2e94:	01000000 	mrseq	r0, (UNDEF: 0)
    2e98:	0006093d 	andeq	r0, r6, sp, lsr r9
    2e9c:	04bd2300 	ldrteq	r2, [sp], #768	; 0x300
    2ea0:	0ecc0000 	cdpeq	0, 12, cr0, cr12, cr0, {0}
    2ea4:	b3230000 	teqlt	r3, #0
    2ea8:	34000004 	strcc	r0, [r0], #-4
    2eac:	2300000f 	movwcs	r0, #15
    2eb0:	000004aa 	andeq	r0, r0, sl, lsr #9
    2eb4:	00000f7b 	andeq	r0, r0, fp, ror pc
    2eb8:	00957824 	addseq	r7, r5, r4, lsr #16
    2ebc:	00006800 	andeq	r6, r0, r0, lsl #16
    2ec0:	04d42500 	ldrbeq	r2, [r4], #1280	; 0x500
    2ec4:	0fa40000 	svceq	0x00a40000
    2ec8:	c7260000 	strgt	r0, [r6, -r0]!
    2ecc:	05000004 	streq	r0, [r0, #-4]
    2ed0:	00c01803 	sbceq	r1, r0, r3, lsl #16
    2ed4:	95841a00 	strls	r1, [r4, #2560]	; 0xa00
    2ed8:	15940000 	ldrne	r0, [r4]
    2edc:	a0180000 	andsge	r0, r8, r0
    2ee0:	9b000095 	blls	313c <__code_start__-0x4ec4>
    2ee4:	b4000015 	strlt	r0, [r0], #-21
    2ee8:	19000005 	stmdbne	r0, {r0, r2}
    2eec:	4d015301 	stcmi	3, cr5, [r1, #-4]
    2ef0:	05520119 	ldrbeq	r0, [r2, #-281]	; 0x119
    2ef4:	00c01803 	sbceq	r1, r0, r3, lsl #16
    2ef8:	51011900 	tstpl	r1, r0, lsl #18
    2efc:	bb240305 	bllt	903b18 <__bss_end__+0x8f7338>
    2f00:	01190000 	tsteq	r9, r0
    2f04:	40030550 	andmi	r0, r3, r0, asr r5
    2f08:	190000b1 	stmdbne	r0, {r0, r4, r5, r7}
    2f0c:	05007d02 	streq	r7, [r0, #-3330]	; 0xd02
    2f10:	00bb3403 	adcseq	r3, fp, r3, lsl #8
    2f14:	a41a0000 	ldrge	r0, [sl], #-0
    2f18:	b1000095 	swplt	r0, r5, [r0]	; <UNPREDICTABLE>
    2f1c:	1a000015 	bne	2f78 <__code_start__-0x5088>
    2f20:	000095b0 			; <UNDEFINED> instruction: 0x000095b0
    2f24:	00001594 	muleq	r0, r4, r5
    2f28:	0095cc18 	addseq	ip, r5, r8, lsl ip
    2f2c:	00159b00 	andseq	r9, r5, r0, lsl #22
    2f30:	0005fe00 	andeq	pc, r5, r0, lsl #28
    2f34:	53011900 	movwpl	r1, #6400	; 0x1900
    2f38:	01194e01 	tsteq	r9, r1, lsl #28
    2f3c:	18030552 	stmdane	r3, {r1, r4, r6, r8, sl}
    2f40:	190000c0 	stmdbne	r0, {r6, r7}
    2f44:	03055101 	movweq	r5, #20737	; 0x5101
    2f48:	0000bb24 	andeq	fp, r0, r4, lsr #22
    2f4c:	05500119 	ldrbeq	r0, [r0, #-281]	; 0x119
    2f50:	00b14003 	adcseq	r4, r1, r3
    2f54:	7d021900 	stcvc	9, cr1, [r2, #-0]
    2f58:	40030500 	andmi	r0, r3, r0, lsl #10
    2f5c:	000000bb 	strheq	r0, [r0], -fp
    2f60:	0095d01a 	addseq	sp, r5, sl, lsl r0
    2f64:	0015b100 	andseq	fp, r5, r0, lsl #2
    2f68:	1a000000 	bne	2f70 <__code_start__-0x5090>
    2f6c:	0000956c 	andeq	r9, r0, ip, ror #10
    2f70:	000015b8 			; <UNDEFINED> instruction: 0x000015b8
    2f74:	08ad2700 	stmiaeq	sp!, {r8, r9, sl, sp}
    2f78:	42010000 	andmi	r0, r1, #0
    2f7c:	00009600 	andeq	r9, r0, r0, lsl #12
    2f80:	0000009c 	muleq	r0, ip, r0
    2f84:	070d9c01 	streq	r9, [sp, -r1, lsl #24]
    2f88:	64140000 	ldrvs	r0, [r4], #-0
    2f8c:	01006d6f 	tsteq	r0, pc, ror #26
    2f90:	00002c42 	andeq	r2, r0, r2, asr #24
    2f94:	000fe200 	andeq	lr, pc, r0, lsl #4
    2f98:	03e31500 	mvneq	r1, #0, 10
    2f9c:	42010000 	andmi	r0, r1, #0
    2fa0:	0000002c 	andeq	r0, r0, ip, lsr #32
    2fa4:	0000103a 	andeq	r1, r0, sl, lsr r0
    2fa8:	00000e17 	andeq	r0, r0, r7, lsl lr
    2fac:	00071d00 	andeq	r1, r7, r0, lsl #26
    2fb0:	3c030500 	cfstr32cc	mvfx0, [r3], {-0}
    2fb4:	210000c0 	smlabtcs	r0, r0, r0, r0
    2fb8:	00636164 	rsbeq	r6, r3, r4, ror #2
    2fbc:	002c4601 	eoreq	r4, ip, r1, lsl #12
    2fc0:	10920000 	addsne	r0, r2, r0
    2fc4:	1c1a0000 	ldcne	0, cr0, [sl], {-0}
    2fc8:	94000096 	strls	r0, [r0], #-150	; 0x96
    2fcc:	18000015 	stmdane	r0, {r0, r2, r4}
    2fd0:	00009638 	andeq	r9, r0, r8, lsr r6
    2fd4:	0000159b 	muleq	r0, fp, r5
    2fd8:	000006a6 	andeq	r0, r0, r6, lsr #13
    2fdc:	02530119 	subseq	r0, r3, #1073741830	; 0x40000006
    2fe0:	01194308 	tsteq	r9, r8, lsl #6
    2fe4:	3c030552 	cfstr32cc	mvfx0, [r3], {82}	; 0x52
    2fe8:	190000c0 	stmdbne	r0, {r6, r7}
    2fec:	03055101 	movweq	r5, #20737	; 0x5101
    2ff0:	0000ba9c 	muleq	r0, ip, sl
    2ff4:	05500119 	ldrbeq	r0, [r0, #-281]	; 0x119
    2ff8:	00b14003 	adcseq	r4, r1, r3
    2ffc:	7d021900 	stcvc	9, cr1, [r2, #-0]
    3000:	b8030500 	stmdalt	r3, {r8, sl}
    3004:	000000b3 	strheq	r0, [r0], -r3
    3008:	00963c1a 	addseq	r3, r6, sl, lsl ip
    300c:	0015b100 	andseq	fp, r5, r0, lsl #2
    3010:	96481a00 	strbls	r1, [r8], -r0, lsl #20
    3014:	15940000 	ldrne	r0, [r4]
    3018:	64180000 	ldrvs	r0, [r8], #-0
    301c:	9b000096 	blls	327c <__code_start__-0x4d84>
    3020:	f1000015 	cps	#21
    3024:	19000006 	stmdbne	r0, {r1, r2}
    3028:	08025301 	stmdaeq	r2, {r0, r8, r9, ip, lr}
    302c:	52011944 	andpl	r1, r1, #68, 18	; 0x110000
    3030:	c03c0305 	eorsgt	r0, ip, r5, lsl #6
    3034:	01190000 	tsteq	r9, r0
    3038:	9c030551 	cfstr32ls	mvfx0, [r3], {81}	; 0x51
    303c:	190000ba 	stmdbne	r0, {r1, r3, r4, r5, r7}
    3040:	03055001 	movweq	r5, #20481	; 0x5001
    3044:	0000b140 	andeq	fp, r0, r0, asr #2
    3048:	007d0219 	rsbseq	r0, sp, r9, lsl r2
    304c:	bb480305 	bllt	1203c68 <__bss_end__+0x11f7488>
    3050:	1a000000 	bne	3058 <__code_start__-0x4fa8>
    3054:	00009668 	andeq	r9, r0, r8, ror #12
    3058:	000015b1 			; <UNDEFINED> instruction: 0x000015b1
    305c:	00966c1a 	addseq	r6, r6, sl, lsl ip
    3060:	0015b800 	andseq	fp, r5, r0, lsl #16
    3064:	96801a00 	strls	r1, [r0], r0, lsl #20
    3068:	15c30000 	strbne	r0, [r3]
    306c:	1c000000 	stcne	0, cr0, [r0], {-0}
    3070:	0000007f 	andeq	r0, r0, pc, ror r0
    3074:	0000071d 	andeq	r0, r0, sp, lsl r7
    3078:	0000761d 	andeq	r7, r0, sp, lsl r6
    307c:	07000c00 	streq	r0, [r0, -r0, lsl #24]
    3080:	0000070d 	andeq	r0, r0, sp, lsl #14
    3084:	00090228 	andeq	r0, r9, r8, lsr #4
    3088:	9c520100 	ldflse	f0, [r2], {-0}
    308c:	14000096 	strne	r0, [r0], #-150	; 0x96
    3090:	01000000 	mrseq	r0, (UNDEF: 0)
    3094:	06a0129c 	ssateq	r1, #1, ip, lsl #5
    3098:	77010000 	strvc	r0, [r1, -r0]
    309c:	000096b0 			; <UNDEFINED> instruction: 0x000096b0
    30a0:	00000378 	andeq	r0, r0, r8, ror r3
    30a4:	0d639c01 	stcleq	12, cr9, [r3, #-4]!
    30a8:	6c140000 	ldcvs	0, cr0, [r4], {-0}
    30ac:	77010072 	smlsdxvc	r1, r2, r0, r0
    30b0:	0000002c 	andeq	r0, r0, ip, lsr #32
    30b4:	000010b8 	strheq	r1, [r0], -r8
    30b8:	00077729 	andeq	r7, r7, r9, lsr #14
    30bc:	2c7d0100 	ldfcse	f0, [sp], #-0
    30c0:	2a000000 	bcs	30c8 <__code_start__-0x4f38>
    30c4:	00000816 	andeq	r0, r0, r6, lsl r8
    30c8:	002c7e01 	eoreq	r7, ip, r1, lsl #28
    30cc:	55010000 	strpl	r0, [r1, #-0]
    30d0:	0007a92b 	andeq	sl, r7, fp, lsr #18
    30d4:	2c860100 	stfcss	f0, [r6], {0}
    30d8:	e4000000 	str	r0, [r0], #-0
    30dc:	17000010 	smladne	r0, r0, r0, r0
    30e0:	0000000e 	andeq	r0, r0, lr
    30e4:	00000d73 	andeq	r0, r0, r3, ror sp
    30e8:	bfa40305 	svclt	0x00a40305
    30ec:	6d220000 	stcvs	0, cr0, [r2, #-0]
    30f0:	bc000002 	stclt	0, cr0, [r0], {2}
    30f4:	04000096 	streq	r0, [r0], #-150	; 0x96
    30f8:	01000000 	mrseq	r0, (UNDEF: 0)
    30fc:	0007af7d 	andeq	sl, r7, sp, ror pc
    3100:	96bc2400 	ldrtls	r2, [ip], r0, lsl #8
    3104:	00040000 	andeq	r0, r4, r0
    3108:	7d2c0000 	stcvc	0, cr0, [ip, #-0]
    310c:	00000002 	andeq	r0, r0, r2
    3110:	02892200 	addeq	r2, r9, #0, 4
    3114:	96c00000 	strbls	r0, [r0], r0
    3118:	00040000 	andeq	r0, r4, r0
    311c:	7e010000 	cdpvc	0, 0, cr0, cr1, cr0, {0}
    3120:	000007d6 	ldrdeq	r0, [r0], -r6
    3124:	0096c024 	addseq	ip, r6, r4, lsr #32
    3128:	00000400 	andeq	r0, r0, r0, lsl #8
    312c:	02992500 	addseq	r2, r9, #0, 10
    3130:	10f70000 	rscsne	r0, r7, r0
    3134:	00000000 	andeq	r0, r0, r0
    3138:	0096cc18 	addseq	ip, r6, r8, lsl ip
    313c:	00159b00 	andseq	r9, r5, r0, lsl #22
    3140:	0007ed00 	andeq	lr, r7, r0, lsl #26
    3144:	50011900 	andpl	r1, r1, r0, lsl #18
    3148:	bb740305 	bllt	1d03d64 <__bss_end__+0x1cf7584>
    314c:	18000000 	stmdane	r0, {}	; <UNPREDICTABLE>
    3150:	000096e8 	andeq	r9, r0, r8, ror #13
    3154:	000002ba 			; <UNDEFINED> instruction: 0x000002ba
    3158:	0000080d 	andeq	r0, r0, sp, lsl #16
    315c:	02520119 	subseq	r0, r2, #1073741830	; 0x40000006
    3160:	01190074 	tsteq	r9, r4, ror r0
    3164:	00750251 	rsbseq	r0, r5, r1, asr r2
    3168:	02500119 	subseq	r0, r0, #1073741830	; 0x40000006
    316c:	1a000076 	bne	334c <__code_start__-0x4cb4>
    3170:	00009764 	andeq	r9, r0, r4, ror #14
    3174:	00001594 	muleq	r0, r4, r5
    3178:	00977818 	addseq	r7, r7, r8, lsl r8
    317c:	00159b00 	andseq	r9, r5, r0, lsl #22
    3180:	00084500 	andeq	r4, r8, r0, lsl #10
    3184:	53011900 	movwpl	r1, #6400	; 0x1900
    3188:	198b0802 	stmibne	fp, {r1, fp}
    318c:	03055201 	movweq	r5, #20993	; 0x5201
    3190:	0000bfa4 	andeq	fp, r0, r4, lsr #31
    3194:	05510119 	ldrbeq	r0, [r1, #-281]	; 0x119
    3198:	00ba9c03 	adcseq	r9, sl, r3, lsl #24
    319c:	50011900 	andpl	r1, r1, r0, lsl #18
    31a0:	bb8c0305 	bllt	fe303dbc <__bss_end__+0xfe2f75dc>
    31a4:	1a000000 	bne	31ac <__code_start__-0x4e54>
    31a8:	0000977c 	andeq	r9, r0, ip, ror r7
    31ac:	000015b1 			; <UNDEFINED> instruction: 0x000015b1
    31b0:	0097801a 	addseq	r8, r7, sl, lsl r0
    31b4:	00159400 	andseq	r9, r5, r0, lsl #8
    31b8:	97941800 	ldrls	r1, [r4, r0, lsl #16]
    31bc:	159b0000 	ldrne	r0, [fp]
    31c0:	08860000 	stmeq	r6, {}	; <UNPREDICTABLE>
    31c4:	01190000 	tsteq	r9, r0
    31c8:	8e080253 	mcrhi	2, 0, r0, cr8, cr3, {2}
    31cc:	05520119 	ldrbeq	r0, [r2, #-281]	; 0x119
    31d0:	00bfa403 	adcseq	sl, pc, r3, lsl #8
    31d4:	51011900 	tstpl	r1, r0, lsl #18
    31d8:	ba9c0305 	blt	fe703df4 <__bss_end__+0xfe6f7614>
    31dc:	01190000 	tsteq	r9, r0
    31e0:	b0030550 	andlt	r0, r3, r0, asr r5
    31e4:	000000bb 	strheq	r0, [r0], -fp
    31e8:	0097981a 	addseq	r9, r7, sl, lsl r8
    31ec:	0015b100 	andseq	fp, r5, r0, lsl #2
    31f0:	979c1a00 	ldrls	r1, [ip, r0, lsl #20]
    31f4:	15940000 	ldrne	r0, [r4]
    31f8:	b0180000 	andslt	r0, r8, r0
    31fc:	9b000097 	blls	3460 <__code_start__-0x4ba0>
    3200:	c7000015 	smladgt	r0, r5, r0, r0
    3204:	19000008 	stmdbne	r0, {r3}
    3208:	08025301 	stmdaeq	r2, {r0, r8, r9, ip, lr}
    320c:	52011991 	andpl	r1, r1, #2375680	; 0x244000
    3210:	bfa40305 	svclt	0x00a40305
    3214:	01190000 	tsteq	r9, r0
    3218:	9c030551 	cfstr32ls	mvfx0, [r3], {81}	; 0x51
    321c:	190000ba 	stmdbne	r0, {r1, r3, r4, r5, r7}
    3220:	03055001 	movweq	r5, #20481	; 0x5001
    3224:	0000bbcc 	andeq	fp, r0, ip, asr #23
    3228:	97b41a00 	ldrls	r1, [r4, r0, lsl #20]!
    322c:	15b10000 	ldrne	r0, [r1, #0]!
    3230:	b81a0000 	ldmdalt	sl, {}	; <UNPREDICTABLE>
    3234:	94000097 	strls	r0, [r0], #-151	; 0x97
    3238:	18000015 	stmdane	r0, {r0, r2, r4}
    323c:	000097cc 	andeq	r9, r0, ip, asr #15
    3240:	0000159b 	muleq	r0, fp, r5
    3244:	00000908 	andeq	r0, r0, r8, lsl #18
    3248:	02530119 	subseq	r0, r3, #1073741830	; 0x40000006
    324c:	01199408 	tsteq	r9, r8, lsl #8
    3250:	a4030552 	strge	r0, [r3], #-1362	; 0x552
    3254:	190000bf 	stmdbne	r0, {r0, r1, r2, r3, r4, r5, r7}
    3258:	03055101 	movweq	r5, #20737	; 0x5101
    325c:	0000ba9c 	muleq	r0, ip, sl
    3260:	05500119 	ldrbeq	r0, [r0, #-281]	; 0x119
    3264:	00bbf403 	adcseq	pc, fp, r3, lsl #8
    3268:	d01a0000 	andsle	r0, sl, r0
    326c:	b1000097 	swplt	r0, r7, [r0]	; <UNPREDICTABLE>
    3270:	1a000015 	bne	32cc <__code_start__-0x4d34>
    3274:	000097d4 	ldrdeq	r9, [r0], -r4
    3278:	00001594 	muleq	r0, r4, r5
    327c:	0097e818 	addseq	lr, r7, r8, lsl r8
    3280:	00159b00 	andseq	r9, r5, r0, lsl #22
    3284:	00094900 	andeq	r4, r9, r0, lsl #18
    3288:	53011900 	movwpl	r1, #6400	; 0x1900
    328c:	19970802 	ldmibne	r7, {r1, fp}
    3290:	03055201 	movweq	r5, #20993	; 0x5201
    3294:	0000bfa4 	andeq	fp, r0, r4, lsr #31
    3298:	05510119 	ldrbeq	r0, [r1, #-281]	; 0x119
    329c:	00ba9c03 	adcseq	r9, sl, r3, lsl #24
    32a0:	50011900 	andpl	r1, r1, r0, lsl #18
    32a4:	bc200305 	stclt	3, cr0, [r0], #-20	; 0xffffffec
    32a8:	1a000000 	bne	32b0 <__code_start__-0x4d50>
    32ac:	000097ec 	andeq	r9, r0, ip, ror #15
    32b0:	000015b1 			; <UNDEFINED> instruction: 0x000015b1
    32b4:	0097f01a 	addseq	pc, r7, sl, lsl r0	; <UNPREDICTABLE>
    32b8:	00159400 	andseq	r9, r5, r0, lsl #8
    32bc:	98041800 	stmdals	r4, {fp, ip}
    32c0:	159b0000 	ldrne	r0, [fp]
    32c4:	098a0000 	stmibeq	sl, {}	; <UNPREDICTABLE>
    32c8:	01190000 	tsteq	r9, r0
    32cc:	9a080253 	bls	203c20 <__bss_end__+0x1f7440>
    32d0:	05520119 	ldrbeq	r0, [r2, #-281]	; 0x119
    32d4:	00bfa403 	adcseq	sl, pc, r3, lsl #8
    32d8:	51011900 	tstpl	r1, r0, lsl #18
    32dc:	ba9c0305 	blt	fe703ef8 <__bss_end__+0xfe6f7718>
    32e0:	01190000 	tsteq	r9, r0
    32e4:	4c030550 	cfstr32mi	mvfx0, [r3], {80}	; 0x50
    32e8:	000000bc 	strheq	r0, [r0], -ip
    32ec:	0098081a 	addseq	r0, r8, sl, lsl r8
    32f0:	0015b100 	andseq	fp, r5, r0, lsl #2
    32f4:	98101800 	ldmdals	r0, {fp, ip}
    32f8:	159b0000 	ldrne	r0, [fp]
    32fc:	09aa0000 	stmibeq	sl!, {}	; <UNPREDICTABLE>
    3300:	01190000 	tsteq	r9, r0
    3304:	88030550 	stmdahi	r3, {r4, r6, r8, sl}
    3308:	000000b1 	strheq	r0, [r0], -r1
    330c:	00981818 	addseq	r1, r8, r8, lsl r8
    3310:	00159b00 	andseq	r9, r5, r0, lsl #22
    3314:	0009c100 	andeq	ip, r9, r0, lsl #2
    3318:	50011900 	andpl	r1, r1, r0, lsl #18
    331c:	bc780305 	ldcllt	3, cr0, [r8], #-20	; 0xffffffec
    3320:	1a000000 	bne	3328 <__code_start__-0x4cd8>
    3324:	0000981c 	andeq	r9, r0, ip, lsl r8
    3328:	000015b1 			; <UNDEFINED> instruction: 0x000015b1
    332c:	0098201a 	addseq	r2, r8, sl, lsl r0
    3330:	00159400 	andseq	r9, r5, r0, lsl #8
    3334:	98341800 	ldmdals	r4!, {fp, ip}
    3338:	159b0000 	ldrne	r0, [fp]
    333c:	0a020000 	beq	83344 <__bss_end__+0x76b64>
    3340:	01190000 	tsteq	r9, r0
    3344:	a0080253 	andge	r0, r8, r3, asr r2
    3348:	05520119 	ldrbeq	r0, [r2, #-281]	; 0x119
    334c:	00bfa403 	adcseq	sl, pc, r3, lsl #8
    3350:	51011900 	tstpl	r1, r0, lsl #18
    3354:	ba9c0305 	blt	fe703f70 <__bss_end__+0xfe6f7790>
    3358:	01190000 	tsteq	r9, r0
    335c:	a0030550 	andge	r0, r3, r0, asr r5
    3360:	000000bc 	strheq	r0, [r0], -ip
    3364:	0098381a 	addseq	r3, r8, sl, lsl r8
    3368:	0015b100 	andseq	fp, r5, r0, lsl #2
    336c:	98401800 	stmdals	r0, {fp, ip}^
    3370:	159b0000 	ldrne	r0, [fp]
    3374:	0a220000 	beq	88337c <__bss_end__+0x876b9c>
    3378:	01190000 	tsteq	r9, r0
    337c:	c8030550 	stmdagt	r3, {r4, r6, r8, sl}
    3380:	000000bc 	strheq	r0, [r0], -ip
    3384:	00985818 	addseq	r5, r8, r8, lsl r8
    3388:	00159b00 	andseq	r9, r5, r0, lsl #22
    338c:	000a3900 	andeq	r3, sl, r0, lsl #18
    3390:	50011900 	andpl	r1, r1, r0, lsl #18
    3394:	b1880305 	orrlt	r0, r8, r5, lsl #6
    3398:	18000000 	stmdane	r0, {}	; <UNPREDICTABLE>
    339c:	00009860 	andeq	r9, r0, r0, ror #16
    33a0:	0000159b 	muleq	r0, fp, r5
    33a4:	00000a50 	andeq	r0, r0, r0, asr sl
    33a8:	05500119 	ldrbeq	r0, [r0, #-281]	; 0x119
    33ac:	00bce003 	adcseq	lr, ip, r3
    33b0:	641a0000 	ldrvs	r0, [sl], #-0
    33b4:	b1000098 	swplt	r0, r8, [r0]	; <UNPREDICTABLE>
    33b8:	18000015 	stmdane	r0, {r0, r2, r4}
    33bc:	0000986c 	andeq	r9, r0, ip, ror #16
    33c0:	0000159b 	muleq	r0, fp, r5
    33c4:	00000a70 	andeq	r0, r0, r0, ror sl
    33c8:	05500119 	ldrbeq	r0, [r0, #-281]	; 0x119
    33cc:	00b18803 	adcseq	r8, r1, r3, lsl #16
    33d0:	74180000 	ldrvc	r0, [r8], #-0
    33d4:	9b000098 	blls	363c <__code_start__-0x49c4>
    33d8:	87000015 	smladhi	r0, r5, r0, r0
    33dc:	1900000a 	stmdbne	r0, {r1, r3}
    33e0:	03055001 	movweq	r5, #20481	; 0x5001
    33e4:	0000bcf0 	strdeq	fp, [r0], -r0
    33e8:	98781a00 	ldmdals	r8!, {r9, fp, ip}^
    33ec:	13bb0000 			; <UNDEFINED> instruction: 0x13bb0000
    33f0:	801a0000 	andshi	r0, sl, r0
    33f4:	94000098 	strls	r0, [r0], #-152	; 0x98
    33f8:	18000015 	stmdane	r0, {r0, r2, r4}
    33fc:	00009894 	muleq	r0, r4, r8
    3400:	0000159b 	muleq	r0, fp, r5
    3404:	00000ac8 	andeq	r0, r0, r8, asr #21
    3408:	02530119 	subseq	r0, r3, #1073741830	; 0x40000006
    340c:	0119ad08 	tsteq	r9, r8, lsl #26
    3410:	a4030552 	strge	r0, [r3], #-1362	; 0x552
    3414:	190000bf 	stmdbne	r0, {r0, r1, r2, r3, r4, r5, r7}
    3418:	03055101 	movweq	r5, #20737	; 0x5101
    341c:	0000ba9c 	muleq	r0, ip, sl
    3420:	05500119 	ldrbeq	r0, [r0, #-281]	; 0x119
    3424:	00bd0803 	adcseq	r0, sp, r3, lsl #16
    3428:	981a0000 	ldmdals	sl, {}	; <UNPREDICTABLE>
    342c:	b1000098 	swplt	r0, r8, [r0]	; <UNPREDICTABLE>
    3430:	1a000015 	bne	348c <__code_start__-0x4b74>
    3434:	0000989c 	muleq	r0, ip, r8
    3438:	00001594 	muleq	r0, r4, r5
    343c:	0098b418 	addseq	fp, r8, r8, lsl r4
    3440:	00159b00 	andseq	r9, r5, r0, lsl #22
    3444:	000b1000 	andeq	r1, fp, r0
    3448:	53011900 	movwpl	r1, #6400	; 0x1900
    344c:	19b00802 	ldmibne	r0!, {r1, fp}
    3450:	03055201 	movweq	r5, #20993	; 0x5201
    3454:	0000bfa4 	andeq	fp, r0, r4, lsr #31
    3458:	05510119 	ldrbeq	r0, [r1, #-281]	; 0x119
    345c:	00ba9c03 	adcseq	r9, sl, r3, lsl #24
    3460:	50011900 	andpl	r1, r1, r0, lsl #18
    3464:	bd2c0305 	stclt	3, cr0, [ip, #-20]!	; 0xffffffec
    3468:	02190000 	andseq	r0, r9, #0
    346c:	7502007d 	strvc	r0, [r2, #-125]	; 0x7d
    3470:	b81a0000 	ldmdalt	sl, {}	; <UNPREDICTABLE>
    3474:	b1000098 	swplt	r0, r8, [r0]	; <UNPREDICTABLE>
    3478:	1a000015 	bne	34d4 <__code_start__-0x4b2c>
    347c:	000098bc 			; <UNDEFINED> instruction: 0x000098bc
    3480:	00001594 	muleq	r0, r4, r5
    3484:	0098d018 	addseq	sp, r8, r8, lsl r0
    3488:	00159b00 	andseq	r9, r5, r0, lsl #22
    348c:	000b5100 	andeq	r5, fp, r0, lsl #2
    3490:	53011900 	movwpl	r1, #6400	; 0x1900
    3494:	19b30802 	ldmibne	r3!, {r1, fp}
    3498:	03055201 	movweq	r5, #20993	; 0x5201
    349c:	0000bfa4 	andeq	fp, r0, r4, lsr #31
    34a0:	05510119 	ldrbeq	r0, [r1, #-281]	; 0x119
    34a4:	00ba9c03 	adcseq	r9, sl, r3, lsl #24
    34a8:	50011900 	andpl	r1, r1, r0, lsl #18
    34ac:	bd5c0305 	ldcllt	3, cr0, [ip, #-20]	; 0xffffffec
    34b0:	1a000000 	bne	34b8 <__code_start__-0x4b48>
    34b4:	000098d4 	ldrdeq	r9, [r0], -r4
    34b8:	000015b1 			; <UNDEFINED> instruction: 0x000015b1
    34bc:	0098d81a 	addseq	sp, r8, sl, lsl r8
    34c0:	00159400 	andseq	r9, r5, r0, lsl #8
    34c4:	98ec1800 	stmials	ip!, {fp, ip}^
    34c8:	159b0000 	ldrne	r0, [fp]
    34cc:	0b920000 	bleq	fe4834d4 <__bss_end__+0xfe476cf4>
    34d0:	01190000 	tsteq	r9, r0
    34d4:	b6080253 			; <UNDEFINED> instruction: 0xb6080253
    34d8:	05520119 	ldrbeq	r0, [r2, #-281]	; 0x119
    34dc:	00bfa403 	adcseq	sl, pc, r3, lsl #8
    34e0:	51011900 	tstpl	r1, r0, lsl #18
    34e4:	ba9c0305 	blt	fe704100 <__bss_end__+0xfe6f7920>
    34e8:	01190000 	tsteq	r9, r0
    34ec:	84030550 	strhi	r0, [r3], #-1360	; 0x550
    34f0:	000000bd 	strheq	r0, [r0], -sp
    34f4:	0098f01a 	addseq	pc, r8, sl, lsl r0	; <UNPREDICTABLE>
    34f8:	0015b100 	andseq	fp, r5, r0, lsl #2
    34fc:	98f41a00 	ldmls	r4!, {r9, fp, ip}^
    3500:	15940000 	ldrne	r0, [r4]
    3504:	08180000 	ldmdaeq	r8, {}	; <UNPREDICTABLE>
    3508:	9b000099 	blls	3774 <__code_start__-0x488c>
    350c:	d3000015 	movwle	r0, #21
    3510:	1900000b 	stmdbne	r0, {r0, r1, r3}
    3514:	08025301 	stmdaeq	r2, {r0, r8, r9, ip, lr}
    3518:	520119b9 	andpl	r1, r1, #3031040	; 0x2e4000
    351c:	bfa40305 	svclt	0x00a40305
    3520:	01190000 	tsteq	r9, r0
    3524:	9c030551 	cfstr32ls	mvfx0, [r3], {81}	; 0x51
    3528:	190000ba 	stmdbne	r0, {r1, r3, r4, r5, r7}
    352c:	03055001 	movweq	r5, #20481	; 0x5001
    3530:	0000bdac 	andeq	fp, r0, ip, lsr #27
    3534:	990c1a00 	stmdbls	ip, {r9, fp, ip}
    3538:	15b10000 	ldrne	r0, [r1, #0]!
    353c:	101a0000 	andsne	r0, sl, r0
    3540:	94000099 	strls	r0, [r0], #-153	; 0x99
    3544:	18000015 	stmdane	r0, {r0, r2, r4}
    3548:	00009924 	andeq	r9, r0, r4, lsr #18
    354c:	0000159b 	muleq	r0, fp, r5
    3550:	00000c14 	andeq	r0, r0, r4, lsl ip
    3554:	02530119 	subseq	r0, r3, #1073741830	; 0x40000006
    3558:	0119bc08 	tsteq	r9, r8, lsl #24
    355c:	a4030552 	strge	r0, [r3], #-1362	; 0x552
    3560:	190000bf 	stmdbne	r0, {r0, r1, r2, r3, r4, r5, r7}
    3564:	03055101 	movweq	r5, #20737	; 0x5101
    3568:	0000ba9c 	muleq	r0, ip, sl
    356c:	05500119 	ldrbeq	r0, [r0, #-281]	; 0x119
    3570:	00bdd403 	adcseq	sp, sp, r3, lsl #8
    3574:	281a0000 	ldmdacs	sl, {}	; <UNPREDICTABLE>
    3578:	b1000099 	swplt	r0, r9, [r0]	; <UNPREDICTABLE>
    357c:	1a000015 	bne	35d8 <__code_start__-0x4a28>
    3580:	0000992c 	andeq	r9, r0, ip, lsr #18
    3584:	00001594 	muleq	r0, r4, r5
    3588:	00994018 	addseq	r4, r9, r8, lsl r0
    358c:	00159b00 	andseq	r9, r5, r0, lsl #22
    3590:	000c5500 	andeq	r5, ip, r0, lsl #10
    3594:	53011900 	movwpl	r1, #6400	; 0x1900
    3598:	19bf0802 	ldmibne	pc!, {r1, fp}	; <UNPREDICTABLE>
    359c:	03055201 	movweq	r5, #20993	; 0x5201
    35a0:	0000bfa4 	andeq	fp, r0, r4, lsr #31
    35a4:	05510119 	ldrbeq	r0, [r1, #-281]	; 0x119
    35a8:	00ba9c03 	adcseq	r9, sl, r3, lsl #24
    35ac:	50011900 	andpl	r1, r1, r0, lsl #18
    35b0:	bdf00305 	ldcllt	3, cr0, [r0, #20]!
    35b4:	1a000000 	bne	35bc <__code_start__-0x4a44>
    35b8:	00009944 	andeq	r9, r0, r4, asr #18
    35bc:	000015b1 			; <UNDEFINED> instruction: 0x000015b1
    35c0:	0099481a 	addseq	r4, r9, sl, lsl r8
    35c4:	00159400 	andseq	r9, r5, r0, lsl #8
    35c8:	995c1800 	ldmdbls	ip, {fp, ip}^
    35cc:	159b0000 	ldrne	r0, [fp]
    35d0:	0c960000 	ldceq	0, cr0, [r6], {0}
    35d4:	01190000 	tsteq	r9, r0
    35d8:	c2080253 	andgt	r0, r8, #805306373	; 0x30000005
    35dc:	05520119 	ldrbeq	r0, [r2, #-281]	; 0x119
    35e0:	00bfa403 	adcseq	sl, pc, r3, lsl #8
    35e4:	51011900 	tstpl	r1, r0, lsl #18
    35e8:	ba9c0305 	blt	fe704204 <__bss_end__+0xfe6f7a24>
    35ec:	01190000 	tsteq	r9, r0
    35f0:	18030550 	stmdane	r3, {r4, r6, r8, sl}
    35f4:	000000be 	strheq	r0, [r0], -lr
    35f8:	0099601a 	addseq	r6, r9, sl, lsl r0
    35fc:	0015b100 	andseq	fp, r5, r0, lsl #2
    3600:	99641a00 	stmdbls	r4!, {r9, fp, ip}^
    3604:	15940000 	ldrne	r0, [r4]
    3608:	78180000 	ldmdavc	r8, {}	; <UNPREDICTABLE>
    360c:	9b000099 	blls	3878 <__code_start__-0x4788>
    3610:	d7000015 	smladle	r0, r5, r0, r0
    3614:	1900000c 	stmdbne	r0, {r2, r3}
    3618:	08025301 	stmdaeq	r2, {r0, r8, r9, ip, lr}
    361c:	520119c5 	andpl	r1, r1, #3227648	; 0x314000
    3620:	bfa40305 	svclt	0x00a40305
    3624:	01190000 	tsteq	r9, r0
    3628:	9c030551 	cfstr32ls	mvfx0, [r3], {81}	; 0x51
    362c:	190000ba 	stmdbne	r0, {r1, r3, r4, r5, r7}
    3630:	03055001 	movweq	r5, #20481	; 0x5001
    3634:	0000be44 	andeq	fp, r0, r4, asr #28
    3638:	997c1a00 	ldmdbls	ip!, {r9, fp, ip}^
    363c:	15b10000 	ldrne	r0, [r1, #0]!
    3640:	801a0000 	andshi	r0, sl, r0
    3644:	94000099 	strls	r0, [r0], #-153	; 0x99
    3648:	18000015 	stmdane	r0, {r0, r2, r4}
    364c:	00009994 	muleq	r0, r4, r9
    3650:	0000159b 	muleq	r0, fp, r5
    3654:	00000d18 	andeq	r0, r0, r8, lsl sp
    3658:	02530119 	subseq	r0, r3, #1073741830	; 0x40000006
    365c:	0119c808 	tsteq	r9, r8, lsl #16
    3660:	a4030552 	strge	r0, [r3], #-1362	; 0x552
    3664:	190000bf 	stmdbne	r0, {r0, r1, r2, r3, r4, r5, r7}
    3668:	03055101 	movweq	r5, #20737	; 0x5101
    366c:	0000ba9c 	muleq	r0, ip, sl
    3670:	05500119 	ldrbeq	r0, [r0, #-281]	; 0x119
    3674:	00be6c03 	adcseq	r6, lr, r3, lsl #24
    3678:	981a0000 	ldmdals	sl, {}	; <UNPREDICTABLE>
    367c:	b1000099 	swplt	r0, r9, [r0]	; <UNPREDICTABLE>
    3680:	1a000015 	bne	36dc <__code_start__-0x4924>
    3684:	0000999c 	muleq	r0, ip, r9
    3688:	00001594 	muleq	r0, r4, r5
    368c:	0099b018 	addseq	fp, r9, r8, lsl r0
    3690:	00159b00 	andseq	r9, r5, r0, lsl #22
    3694:	000d5900 	andeq	r5, sp, r0, lsl #18
    3698:	53011900 	movwpl	r1, #6400	; 0x1900
    369c:	19cb0802 	stmibne	fp, {r1, fp}^
    36a0:	03055201 	movweq	r5, #20993	; 0x5201
    36a4:	0000bfa4 	andeq	fp, r0, r4, lsr #31
    36a8:	05510119 	ldrbeq	r0, [r1, #-281]	; 0x119
    36ac:	00ba9c03 	adcseq	r9, sl, r3, lsl #24
    36b0:	50011900 	andpl	r1, r1, r0, lsl #18
    36b4:	be8c0305 	cdplt	3, 8, cr0, cr12, cr5, {0}
    36b8:	1a000000 	bne	36c0 <__code_start__-0x4940>
    36bc:	000099b4 			; <UNDEFINED> instruction: 0x000099b4
    36c0:	000015b1 			; <UNDEFINED> instruction: 0x000015b1
    36c4:	007f1c00 	rsbseq	r1, pc, r0, lsl #24
    36c8:	0d730000 	ldcleq	0, cr0, [r3, #-0]
    36cc:	761d0000 	ldrvc	r0, [sp], -r0
    36d0:	11000000 	mrsne	r0, (UNDEF: 0)
    36d4:	0d630700 	stcleq	7, cr0, [r3, #-0]
    36d8:	e0120000 	ands	r0, r2, r0
    36dc:	0100000b 	tsteq	r0, fp
    36e0:	009a28e2 	addseq	r2, sl, r2, ror #17
    36e4:	00003000 	andeq	r3, r0, r0
    36e8:	f59c0100 			; <UNDEFINED> instruction: 0xf59c0100
    36ec:	1400000d 	strne	r0, [r0], #-13
    36f0:	0100726c 	tsteq	r0, ip, ror #4
    36f4:	00002ce2 	andeq	r2, r0, r2, ror #25
    36f8:	00110a00 	andseq	r0, r1, r0, lsl #20
    36fc:	000e1700 	andeq	r1, lr, r0, lsl #14
    3700:	0e050000 	cdpeq	0, 0, cr0, cr5, cr0, {0}
    3704:	03050000 	movweq	r0, #20480	; 0x5000
    3708:	0000bfb8 			; <UNDEFINED> instruction: 0x0000bfb8
    370c:	009a301a 	addseq	r3, sl, sl, lsl r0
    3710:	0015d400 	andseq	sp, r5, r0, lsl #8
    3714:	9a341a00 	bls	d09f1c <__bss_end__+0xcfd73c>
    3718:	15940000 	ldrne	r0, [r4]
    371c:	48180000 	ldmdami	r8, {}	; <UNPREDICTABLE>
    3720:	9b00009a 	blls	3990 <__code_start__-0x4670>
    3724:	eb000015 	bl	3780 <__code_start__-0x4880>
    3728:	1900000d 	stmdbne	r0, {r0, r2, r3}
    372c:	08025301 	stmdaeq	r2, {r0, r8, r9, ip, lr}
    3730:	520119e4 	andpl	r1, r1, #228, 18	; 0x390000
    3734:	bfb80305 	svclt	0x00b80305
    3738:	01190000 	tsteq	r9, r0
    373c:	9c030551 	cfstr32ls	mvfx0, [r3], {81}	; 0x51
    3740:	190000ba 	stmdbne	r0, {r1, r3, r4, r5, r7}
    3744:	03055001 	movweq	r5, #20481	; 0x5001
    3748:	0000beb4 			; <UNDEFINED> instruction: 0x0000beb4
    374c:	9a4c1a00 	bls	1309f54 <__bss_end__+0x12fd774>
    3750:	15b10000 	ldrne	r0, [r1, #0]!
    3754:	1c000000 	stcne	0, cr0, [r0], {-0}
    3758:	0000007f 	andeq	r0, r0, pc, ror r0
    375c:	00000e05 	andeq	r0, r0, r5, lsl #28
    3760:	0000761d 	andeq	r7, r0, sp, lsl r6
    3764:	07001000 	streq	r1, [r0, -r0]
    3768:	00000df5 	strdeq	r0, [r0], -r5
    376c:	00096112 	andeq	r6, r9, r2, lsl r1
    3770:	58f00100 	ldmpl	r0!, {r8}^
    3774:	5000009a 	mulpl	r0, sl, r0
    3778:	01000001 	tsteq	r0, r1
    377c:	0010239c 	mulseq	r0, ip, r3
    3780:	000e1700 	andeq	r1, lr, r0, lsl #14
    3784:	10330000 	eorsne	r0, r3, r0
    3788:	03050000 	movweq	r0, #20480	; 0x5000
    378c:	0000bfcc 	andeq	fp, r0, ip, asr #31
    3790:	000f262d 	andeq	r2, pc, sp, lsr #12
    3794:	7df50100 	ldfvce	f0, [r5]
    3798:	00000000 	andeq	r0, r0, r0
    379c:	1a001000 	bne	77a4 <__code_start__-0x85c>
    37a0:	00009a64 	andeq	r9, r0, r4, ror #20
    37a4:	000015db 	ldrdeq	r1, [r0], -fp
    37a8:	009a681a 	addseq	r6, sl, sl, lsl r8
    37ac:	0015e200 	andseq	lr, r5, r0, lsl #4
    37b0:	9a741a00 	bls	1d09fb8 <__bss_end__+0x1cfd7d8>
    37b4:	15940000 	ldrne	r0, [r4]
    37b8:	90180000 	andsls	r0, r8, r0
    37bc:	9b00009a 	blls	3a2c <__code_start__-0x45d4>
    37c0:	91000015 	tstls	r0, r5, lsl r0
    37c4:	1900000e 	stmdbne	r0, {r1, r2, r3}
    37c8:	08025301 	stmdaeq	r2, {r0, r8, r9, ip, lr}
    37cc:	520119f3 	andpl	r1, r1, #3981312	; 0x3cc000
    37d0:	bfcc0305 	svclt	0x00cc0305
    37d4:	01190000 	tsteq	r9, r0
    37d8:	9c030551 	cfstr32ls	mvfx0, [r3], {81}	; 0x51
    37dc:	190000ba 	stmdbne	r0, {r1, r3, r4, r5, r7}
    37e0:	03055001 	movweq	r5, #20481	; 0x5001
    37e4:	0000b140 	andeq	fp, r0, r0, asr #2
    37e8:	007d0219 	rsbseq	r0, sp, r9, lsl r2
    37ec:	b1640305 	cmnlt	r4, r5, lsl #6
    37f0:	1a000000 	bne	37f8 <__code_start__-0x4808>
    37f4:	00009a94 	muleq	r0, r4, sl
    37f8:	000015b1 			; <UNDEFINED> instruction: 0x000015b1
    37fc:	009aa018 	addseq	sl, sl, r8, lsl r0
    3800:	0015ed00 	andseq	lr, r5, r0, lsl #26
    3804:	000eb600 	andeq	fp, lr, r0, lsl #12
    3808:	51011900 	tstpl	r1, r0, lsl #18
    380c:	40000a03 	andmi	r0, r0, r3, lsl #20
    3810:	03500119 	cmpeq	r0, #1073741830	; 0x40000006
    3814:	00244040 	eoreq	r4, r4, r0, asr #32
    3818:	009ab41a 	addseq	fp, sl, sl, lsl r4
    381c:	00159400 	andseq	r9, r5, r0, lsl #8
    3820:	9ad01800 	bls	ff409828 <__bss_end__+0xff3fd048>
    3824:	159b0000 	ldrne	r0, [fp]
    3828:	0ef80000 	cdpeq	0, 15, cr0, cr8, cr0, {0}
    382c:	01190000 	tsteq	r9, r0
    3830:	f8080253 			; <UNDEFINED> instruction: 0xf8080253
    3834:	05520119 	ldrbeq	r0, [r2, #-281]	; 0x119
    3838:	00bfcc03 	adcseq	ip, pc, r3, lsl #24
    383c:	51011900 	tstpl	r1, r0, lsl #18
    3840:	ba9c0305 	blt	fe70445c <__bss_end__+0xfe6f7c7c>
    3844:	01190000 	tsteq	r9, r0
    3848:	40030550 	andmi	r0, r3, r0, asr r5
    384c:	190000b1 	stmdbne	r0, {r0, r4, r5, r7}
    3850:	05007d02 	streq	r7, [r0, #-3330]	; 0xd02
    3854:	00bed003 	adcseq	sp, lr, r3
    3858:	d41a0000 	ldrle	r0, [sl], #-0
    385c:	b100009a 	swplt	r0, sl, [r0]	; <UNPREDICTABLE>
    3860:	18000015 	stmdane	r0, {r0, r2, r4}
    3864:	00009ae4 	andeq	r9, r0, r4, ror #21
    3868:	00001607 	andeq	r1, r0, r7, lsl #12
    386c:	00000f1e 	andeq	r0, r0, lr, lsl pc
    3870:	01530119 	cmpeq	r3, r9, lsl r1
    3874:	52011931 	andpl	r1, r1, #802816	; 0xc4000
    3878:	01193001 	tsteq	r9, r1
    387c:	00300151 	eorseq	r0, r0, r1, asr r1
    3880:	009afc18 	addseq	pc, sl, r8, lsl ip	; <UNPREDICTABLE>
    3884:	00160700 	andseq	r0, r6, r0, lsl #14
    3888:	000f3f00 	andeq	r3, pc, r0, lsl #30
    388c:	53011900 	movwpl	r1, #6400	; 0x1900
    3890:	01193101 	tsteq	r9, r1, lsl #2
    3894:	40400352 	submi	r0, r0, r2, asr r3
    3898:	51011924 	tstpl	r1, r4, lsr #18
    389c:	24404003 	strbcs	r4, [r0], #-3
    38a0:	9b101800 	blls	4098a8 <__bss_end__+0x3fd0c8>
    38a4:	16070000 	strne	r0, [r7], -r0
    38a8:	0f620000 	svceq	0x00620000
    38ac:	01190000 	tsteq	r9, r0
    38b0:	19310153 	ldmdbne	r1!, {r0, r1, r4, r6, r8}
    38b4:	08045201 	stmdaeq	r4, {r0, r9, ip, lr}
    38b8:	192443fe 	stmdbne	r4!, {r1, r2, r3, r4, r5, r6, r7, r8, r9, lr}
    38bc:	08045101 	stmdaeq	r4, {r0, r8, ip, lr}
    38c0:	002443fe 	strdeq	r4, [r4], -lr	; <UNPREDICTABLE>
    38c4:	009b2418 	addseq	r2, fp, r8, lsl r4
    38c8:	00160700 	andseq	r0, r6, r0, lsl #14
    38cc:	000f8300 	andeq	r8, pc, r0, lsl #6
    38d0:	53011900 	movwpl	r1, #6400	; 0x1900
    38d4:	01193101 	tsteq	r9, r1, lsl #2
    38d8:	49400352 	stmdbmi	r0, {r1, r4, r6, r8, r9}^
    38dc:	51011924 	tstpl	r1, r4, lsr #18
    38e0:	24494003 	strbcs	r4, [r9], #-3
    38e4:	9b381800 	blls	e098ec <__bss_end__+0xdfd10c>
    38e8:	16070000 	strne	r0, [r7], -r0
    38ec:	0fa80000 	svceq	0x00a80000
    38f0:	01190000 	tsteq	r9, r0
    38f4:	19310153 	ldmdbne	r1!, {r0, r1, r4, r6, r8}
    38f8:	0c055201 	sfmeq	f5, 4, [r5], {1}
    38fc:	20100000 	andscs	r0, r0, r0
    3900:	05510119 	ldrbeq	r0, [r1, #-281]	; 0x119
    3904:	1000000c 	andne	r0, r0, ip
    3908:	4c180020 	ldcmi	0, cr0, [r8], {32}
    390c:	0700009b 			; <UNDEFINED> instruction: 0x0700009b
    3910:	cd000016 	stcgt	0, cr0, [r0, #-88]	; 0xffffffa8
    3914:	1900000f 	stmdbne	r0, {r0, r1, r2, r3}
    3918:	31015301 	tstcc	r1, r1, lsl #6
    391c:	05520119 	ldrbeq	r0, [r2, #-281]	; 0x119
    3920:	2000000c 	andcs	r0, r0, ip
    3924:	51011920 	tstpl	r1, r0, lsr #18
    3928:	00000c05 	andeq	r0, r0, r5, lsl #24
    392c:	18002020 	stmdane	r0, {r5, sp}
    3930:	00009b60 	andeq	r9, r0, r0, ror #22
    3934:	00001607 	andeq	r1, r0, r7, lsl #12
    3938:	00000ff0 	strdeq	r0, [r0], -r0	; <UNPREDICTABLE>
    393c:	01530119 	cmpeq	r3, r9, lsl r1
    3940:	52011931 	andpl	r1, r1, #802816	; 0xc4000
    3944:	448f0804 	strmi	r0, [pc], #2052	; 394c <__code_start__-0x46b4>
    3948:	51011924 	tstpl	r1, r4, lsr #18
    394c:	448f0804 	strmi	r0, [pc], #2052	; 3954 <__code_start__-0x46ac>
    3950:	641a0024 	ldrvs	r0, [sl], #-36	; 0x24
    3954:	2b00009b 	blcs	3bc8 <__code_start__-0x4438>
    3958:	18000016 	stmdane	r0, {r1, r2, r4}
    395c:	00009b6c 	andeq	r9, r0, ip, ror #22
    3960:	000015c3 	andeq	r1, r0, r3, asr #11
    3964:	0000100c 	andeq	r1, r0, ip
    3968:	01500119 	cmpeq	r0, r9, lsl r1
    396c:	7c1b0034 	ldcvc	0, cr0, [fp], {52}	; 0x34
    3970:	3200009b 	andcc	r0, r0, #155	; 0x9b
    3974:	19000016 	stmdbne	r0, {r1, r2, r4}
    3978:	31015101 	tstcc	r1, r1, lsl #2
    397c:	03500119 	cmpeq	r0, #1073741830	; 0x40000006
    3980:	00140e0a 	andseq	r0, r4, sl, lsl #28
    3984:	007f1c00 	rsbseq	r1, pc, r0, lsl #24
    3988:	10330000 	eorsne	r0, r3, r0
    398c:	761d0000 	ldrvc	r0, [sp], -r0
    3990:	0d000000 	stceq	0, cr0, [r0, #-0]
    3994:	10230700 	eorne	r0, r3, r0, lsl #14
    3998:	da2e0000 	ble	b839a0 <__bss_end__+0xb771c0>
    399c:	01000007 	tsteq	r0, r7
    39a0:	9ba8011b 	blls	fea03e14 <__bss_end__+0xfe9f7634>
    39a4:	00880000 	addeq	r0, r8, r0
    39a8:	9c010000 	stcls	0, cr0, [r1], {-0}
    39ac:	00001118 	andeq	r1, r0, r8, lsl r1
    39b0:	00000e17 	andeq	r0, r0, r7, lsl lr
    39b4:	00112800 	andseq	r2, r1, r0, lsl #16
    39b8:	dc030500 	cfstr32le	mvfx0, [r3], {-0}
    39bc:	180000bf 	stmdane	r0, {r0, r1, r2, r3, r4, r5, r7}
    39c0:	00009bc4 	andeq	r9, r0, r4, asr #23
    39c4:	0000159b 	muleq	r0, fp, r5
    39c8:	0000108d 	andeq	r1, r0, sp, lsl #1
    39cc:	03530119 	cmpeq	r3, #1073741830	; 0x40000006
    39d0:	19011c0a 	stmdbne	r1, {r1, r3, sl, fp, ip}
    39d4:	03055201 	movweq	r5, #20993	; 0x5201
    39d8:	0000bfdc 	ldrdeq	fp, [r0], -ip
    39dc:	05510119 	ldrbeq	r0, [r1, #-281]	; 0x119
    39e0:	00ba9c03 	adcseq	r9, sl, r3, lsl #24
    39e4:	50011900 	andpl	r1, r1, r0, lsl #18
    39e8:	bedc0305 	cdplt	3, 13, cr0, cr12, cr5, {0}
    39ec:	1a000000 	bne	39f4 <__code_start__-0x460c>
    39f0:	00009bc8 	andeq	r9, r0, r8, asr #23
    39f4:	0000164d 	andeq	r1, r0, sp, asr #12
    39f8:	009bcc1a 	addseq	ip, fp, sl, lsl ip
    39fc:	0015e200 	andseq	lr, r5, r0, lsl #4
    3a00:	9bd81a00 	blls	ff60a208 <__bss_end__+0xff5fda28>
    3a04:	15940000 	ldrne	r0, [r4]
    3a08:	f4180000 			; <UNDEFINED> instruction: 0xf4180000
    3a0c:	9b00009b 	blls	3c80 <__code_start__-0x4380>
    3a10:	e2000015 	and	r0, r0, #21
    3a14:	19000010 	stmdbne	r0, {r4}
    3a18:	0a035301 	beq	d8624 <__bss_end__+0xcbe44>
    3a1c:	0119011f 	tsteq	r9, pc, lsl r1
    3a20:	dc030552 	cfstr32le	mvfx0, [r3], {82}	; 0x52
    3a24:	190000bf 	stmdbne	r0, {r0, r1, r2, r3, r4, r5, r7}
    3a28:	03055101 	movweq	r5, #20737	; 0x5101
    3a2c:	0000ba9c 	muleq	r0, ip, sl
    3a30:	05500119 	ldrbeq	r0, [r0, #-281]	; 0x119
    3a34:	00b14003 	adcseq	r4, r1, r3
    3a38:	7d021900 	stcvc	9, cr1, [r2, #-0]
    3a3c:	04030500 	streq	r0, [r3], #-1280	; 0x500
    3a40:	000000bf 	strheq	r0, [r0], -pc	; <UNPREDICTABLE>
    3a44:	009bf81a 	addseq	pc, fp, sl, lsl r8	; <UNPREDICTABLE>
    3a48:	0015b100 	andseq	fp, r5, r0, lsl #2
    3a4c:	9c0c1b00 	stcls	11, cr1, [ip], {-0}
    3a50:	159b0000 	ldrne	r0, [fp]
    3a54:	01190000 	tsteq	r9, r0
    3a58:	200a0353 	andcs	r0, sl, r3, asr r3
    3a5c:	52011901 	andpl	r1, r1, #16384	; 0x4000
    3a60:	bfdc0305 	svclt	0x00dc0305
    3a64:	01190000 	tsteq	r9, r0
    3a68:	9c030551 	cfstr32ls	mvfx0, [r3], {81}	; 0x51
    3a6c:	190000ba 	stmdbne	r0, {r1, r3, r4, r5, r7}
    3a70:	03055001 	movweq	r5, #20481	; 0x5001
    3a74:	0000bf18 	andeq	fp, r0, r8, lsl pc
    3a78:	7f1c0000 	svcvc	0x001c0000
    3a7c:	28000000 	stmdacs	r0, {}	; <UNPREDICTABLE>
    3a80:	1d000011 	stcne	0, cr0, [r0, #-68]	; 0xffffffbc
    3a84:	00000076 	andeq	r0, r0, r6, ror r0
    3a88:	1807000b 	stmdane	r7, {r0, r1, r3}
    3a8c:	2e000011 	mcrcs	0, 0, r0, cr0, cr1, {0}
    3a90:	00000707 	andeq	r0, r0, r7, lsl #14
    3a94:	30012401 	andcc	r2, r1, r1, lsl #8
    3a98:	7000009c 	mulvc	r0, ip, r0
    3a9c:	01000000 	mrseq	r0, (UNDEF: 0)
    3aa0:	0011dd9c 	mulseq	r1, ip, sp
    3aa4:	000e1700 	andeq	r1, lr, r0, lsl #14
    3aa8:	11dd0000 	bicsne	r0, sp, r0
    3aac:	03050000 	movweq	r0, #20480	; 0x5000
    3ab0:	0000bfe8 	andeq	fp, r0, r8, ror #31
    3ab4:	009c3c1a 	addseq	r3, ip, sl, lsl ip
    3ab8:	0015d400 	andseq	sp, r5, r0, lsl #8
    3abc:	9c401a00 	mcrrls	10, 0, r1, r0, cr0
    3ac0:	15e20000 	strbne	r0, [r2, #0]!
    3ac4:	4c1a0000 	ldcmi	0, cr0, [sl], {-0}
    3ac8:	9400009c 	strls	r0, [r0], #-156	; 0x9c
    3acc:	18000015 	stmdane	r0, {r0, r2, r4}
    3ad0:	00009c68 	andeq	r9, r0, r8, ror #24
    3ad4:	0000159b 	muleq	r0, fp, r5
    3ad8:	000011a7 	andeq	r1, r0, r7, lsr #3
    3adc:	03530119 	cmpeq	r3, #1073741830	; 0x40000006
    3ae0:	1901270a 	stmdbne	r1, {r1, r3, r8, r9, sl, sp}
    3ae4:	03055201 	movweq	r5, #20993	; 0x5201
    3ae8:	0000bfe8 	andeq	fp, r0, r8, ror #31
    3aec:	05510119 	ldrbeq	r0, [r1, #-281]	; 0x119
    3af0:	00ba9c03 	adcseq	r9, sl, r3, lsl #24
    3af4:	50011900 	andpl	r1, r1, r0, lsl #18
    3af8:	b1400305 	cmplt	r0, r5, lsl #6
    3afc:	02190000 	andseq	r0, r9, #0
    3b00:	0305007d 	movweq	r0, #20605	; 0x507d
    3b04:	0000b164 	andeq	fp, r0, r4, ror #2
    3b08:	9c6c1a00 	stclls	10, cr1, [ip], #-0
    3b0c:	15b10000 	ldrne	r0, [r1, #0]!
    3b10:	801b0000 	andshi	r0, fp, r0
    3b14:	9b00009c 	blls	3d8c <__code_start__-0x4274>
    3b18:	19000015 	stmdbne	r0, {r0, r2, r4}
    3b1c:	0a035301 	beq	d8728 <__bss_end__+0xcbf48>
    3b20:	01190128 	tsteq	r9, r8, lsr #2
    3b24:	e8030552 	stmda	r3, {r1, r4, r6, r8, sl}
    3b28:	190000bf 	stmdbne	r0, {r0, r1, r2, r3, r4, r5, r7}
    3b2c:	03055101 	movweq	r5, #20737	; 0x5101
    3b30:	0000ba9c 	muleq	r0, ip, sl
    3b34:	05500119 	ldrbeq	r0, [r0, #-281]	; 0x119
    3b38:	00bf3003 	adcseq	r3, pc, r3
    3b3c:	07000000 	streq	r0, [r0, -r0]
    3b40:	0000070d 	andeq	r0, r0, sp, lsl #14
    3b44:	00096f2e 	andeq	r6, r9, lr, lsr #30
    3b48:	012b0100 	teqeq	fp, r0, lsl #2
    3b4c:	00009ca0 	andeq	r9, r0, r0, lsr #25
    3b50:	00000070 	andeq	r0, r0, r0, ror r0
    3b54:	12859c01 	addne	r9, r5, #256	; 0x100
    3b58:	262f0000 	strtcs	r0, [pc], -r0
    3b5c:	0100000f 	tsteq	r0, pc
    3b60:	005d012b 	subseq	r0, sp, fp, lsr #2
    3b64:	112b0000 	teqne	fp, r0
    3b68:	0e170000 	cdpeq	0, 1, cr0, cr7, cr0, {0}
    3b6c:	85000000 	strhi	r0, [r0, #-0]
    3b70:	05000012 	streq	r0, [r0, #-18]
    3b74:	00bff803 	adcseq	pc, pc, r3, lsl #16
    3b78:	9cbc1a00 	vldmials	ip!, {s2-s1}
    3b7c:	15940000 	ldrne	r0, [r4]
    3b80:	d8180000 	ldmdale	r8, {}	; <UNPREDICTABLE>
    3b84:	9b00009c 	blls	3dfc <__code_start__-0x4204>
    3b88:	5a000015 	bpl	3be4 <__code_start__-0x441c>
    3b8c:	19000012 	stmdbne	r0, {r1, r4}
    3b90:	0a035301 	beq	d879c <__bss_end__+0xcbfbc>
    3b94:	0119012c 	tsteq	r9, ip, lsr #2
    3b98:	f8030552 			; <UNDEFINED> instruction: 0xf8030552
    3b9c:	190000bf 	stmdbne	r0, {r0, r1, r2, r3, r4, r5, r7}
    3ba0:	03055101 	movweq	r5, #20737	; 0x5101
    3ba4:	0000ba9c 	muleq	r0, ip, sl
    3ba8:	05500119 	ldrbeq	r0, [r0, #-281]	; 0x119
    3bac:	00b14003 	adcseq	r4, r1, r3
    3bb0:	7d021900 	stcvc	9, cr1, [r2, #-0]
    3bb4:	48030500 	stmdami	r3, {r8, sl}
    3bb8:	000000bf 	strheq	r0, [r0], -pc	; <UNPREDICTABLE>
    3bbc:	009cdc1a 	addseq	sp, ip, sl, lsl ip
    3bc0:	0015b100 	andseq	fp, r5, r0, lsl #2
    3bc4:	9cf41b00 	vldmials	r4!, {d17-d16}
    3bc8:	16070000 	strne	r0, [r7], -r0
    3bcc:	01190000 	tsteq	r9, r0
    3bd0:	19310153 	ldmdbne	r1!, {r0, r1, r4, r6, r8}
    3bd4:	f3075201 	vhsub.u8	d5, d7, d1
    3bd8:	80235001 	eorhi	r5, r3, r1
    3bdc:	01194080 	tsteq	r9, r0, lsl #1
    3be0:	01f30351 	mvnseq	r0, r1, asr r3
    3be4:	07000050 	smlsdeq	r0, r0, r0, r0
    3be8:	0000070d 	andeq	r0, r0, sp, lsl #14
    3bec:	0008622e 	andeq	r6, r8, lr, lsr #4
    3bf0:	01320100 	teqeq	r2, r0, lsl #2
    3bf4:	00009d10 	andeq	r9, r0, r0, lsl sp
    3bf8:	00000074 	andeq	r0, r0, r4, ror r0
    3bfc:	132d9c01 	teqne	sp, #256	; 0x100
    3c00:	262f0000 	strtcs	r0, [pc], -r0
    3c04:	0100000f 	tsteq	r0, pc
    3c08:	005d0132 	subseq	r0, sp, r2, lsr r1
    3c0c:	117b0000 	cmnne	fp, r0
    3c10:	0e170000 	cdpeq	0, 1, cr0, cr7, cr0, {0}
    3c14:	2d000000 	stccs	0, cr0, [r0, #-0]
    3c18:	05000013 	streq	r0, [r0, #-19]
    3c1c:	00c00803 	sbceq	r0, r0, r3, lsl #16
    3c20:	9d2c1a00 	vstmdbls	ip!, {s2-s1}
    3c24:	15940000 	ldrne	r0, [r4]
    3c28:	48180000 	ldmdami	r8, {}	; <UNPREDICTABLE>
    3c2c:	9b00009d 	blls	3ea8 <__code_start__-0x4158>
    3c30:	02000015 	andeq	r0, r0, #21
    3c34:	19000013 	stmdbne	r0, {r0, r1, r4}
    3c38:	0a035301 	beq	d8844 <__bss_end__+0xcc064>
    3c3c:	01190133 	tsteq	r9, r3, lsr r1
    3c40:	08030552 	stmdaeq	r3, {r1, r4, r6, r8, sl}
    3c44:	190000c0 	stmdbne	r0, {r6, r7}
    3c48:	03055101 	movweq	r5, #20737	; 0x5101
    3c4c:	0000ba9c 	muleq	r0, ip, sl
    3c50:	05500119 	ldrbeq	r0, [r0, #-281]	; 0x119
    3c54:	00b14003 	adcseq	r4, r1, r3
    3c58:	7d021900 	stcvc	9, cr1, [r2, #-0]
    3c5c:	48030500 	stmdami	r3, {r8, sl}
    3c60:	000000bf 	strheq	r0, [r0], -pc	; <UNPREDICTABLE>
    3c64:	009d4c1a 	addseq	r4, sp, sl, lsl ip
    3c68:	0015b100 	andseq	fp, r5, r0, lsl #2
    3c6c:	9d641b00 	vstmdbls	r4!, {d17-d16}
    3c70:	16070000 	strne	r0, [r7], -r0
    3c74:	01190000 	tsteq	r9, r0
    3c78:	19320153 	ldmdbne	r2!, {r0, r1, r4, r6, r8}
    3c7c:	f3075201 	vhsub.u8	d5, d7, d1
    3c80:	80235001 	eorhi	r5, r3, r1
    3c84:	01194080 	tsteq	r9, r0, lsl #1
    3c88:	01f30351 	mvnseq	r0, r1, asr r3
    3c8c:	07000050 	smlsdeq	r0, r0, r0, r0
    3c90:	00000485 	andeq	r0, r0, r5, lsl #9
    3c94:	0007b02e 	andeq	fp, r7, lr, lsr #32
    3c98:	01390100 	teqeq	r9, r0, lsl #2
    3c9c:	00009d84 	andeq	r9, r0, r4, lsl #27
    3ca0:	00000024 	andeq	r0, r0, r4, lsr #32
    3ca4:	137c9c01 	cmnne	ip, #256	; 0x100
    3ca8:	262f0000 	strtcs	r0, [pc], -r0
    3cac:	0100000f 	tsteq	r0, pc
    3cb0:	005d0139 	subseq	r0, sp, r9, lsr r1
    3cb4:	11cb0000 	bicne	r0, fp, r0
    3cb8:	0e300000 	cdpeq	0, 3, cr0, cr0, cr0, {0}
    3cbc:	8c000000 	stchi	0, cr0, [r0], {-0}
    3cc0:	1b000013 	blne	3d14 <__code_start__-0x42ec>
    3cc4:	00009da0 	andeq	r9, r0, r0, lsr #27
    3cc8:	00001654 	andeq	r1, r0, r4, asr r6
    3ccc:	01520119 	cmpeq	r2, r9, lsl r1
    3cd0:	51011931 	tstpl	r1, r1, lsr r9
    3cd4:	5001f307 	andpl	pc, r1, r7, lsl #6
    3cd8:	24442544 	strbcs	r2, [r4], #-1348	; 0x544
    3cdc:	7f1c0000 	svcvc	0x001c0000
    3ce0:	8c000000 	stchi	0, cr0, [r0], {-0}
    3ce4:	1d000013 	stcne	0, cr0, [r0, #-76]	; 0xffffffb4
    3ce8:	00000076 	andeq	r0, r0, r6, ror r0
    3cec:	7c070012 	stcvc	0, cr0, [r7], {18}
    3cf0:	31000013 	tstcc	r0, r3, lsl r0
    3cf4:	00000740 	andeq	r0, r0, r0, asr #14
    3cf8:	2c014001 	stccs	0, cr4, [r1], {1}
    3cfc:	a8000000 	stmdage	r0, {}	; <UNPREDICTABLE>
    3d00:	1800009d 	stmdane	r0, {r0, r2, r3, r4, r7}
    3d04:	01000000 	mrseq	r0, (UNDEF: 0)
    3d08:	0013bb9c 	mulseq	r3, ip, fp
    3d0c:	9db41b00 	ldcls	11, cr1, [r4]
    3d10:	04f30000 	ldrbteq	r0, [r3], #0
    3d14:	01190000 	tsteq	r9, r0
    3d18:	00320150 	eorseq	r0, r2, r0, asr r1
    3d1c:	07612e00 	strbeq	r2, [r1, -r0, lsl #28]!
    3d20:	46010000 	strmi	r0, [r1], -r0
    3d24:	009dc001 	addseq	ip, sp, r1
    3d28:	00005c00 	andeq	r5, r0, r0, lsl #24
    3d2c:	4e9c0100 	fmlmie	f0, f4, f0
    3d30:	17000014 	smladne	r0, r4, r0, r0
    3d34:	0000000e 	andeq	r0, r0, lr
    3d38:	0000145e 	andeq	r1, r0, lr, asr r4
    3d3c:	c0240305 	eorgt	r0, r4, r5, lsl #6
    3d40:	d4180000 	ldrle	r0, [r8], #-0
    3d44:	1300009d 	movwne	r0, #157	; 0x9d
    3d48:	f8000006 			; <UNDEFINED> instruction: 0xf8000006
    3d4c:	19000013 	stmdbne	r0, {r0, r1, r4}
    3d50:	31015101 	tstcc	r1, r1, lsl #2
    3d54:	01500119 	cmpeq	r0, r9, lsl r1
    3d58:	d81a0032 	ldmdale	sl, {r1, r4, r5}
    3d5c:	9100009d 	swpls	r0, sp, [r0]	; <UNPREDICTABLE>
    3d60:	1a000013 	bne	3db4 <__code_start__-0x424c>
    3d64:	00009de4 	andeq	r9, r0, r4, ror #27
    3d68:	00001594 	muleq	r0, r4, r5
    3d6c:	009e0018 	addseq	r0, lr, r8, lsl r0
    3d70:	00159b00 	andseq	r9, r5, r0, lsl #22
    3d74:	00144400 	andseq	r4, r4, r0, lsl #8
    3d78:	53011900 	movwpl	r1, #6400	; 0x1900
    3d7c:	01480a03 	cmpeq	r8, r3, lsl #20
    3d80:	05520119 	ldrbeq	r0, [r2, #-281]	; 0x119
    3d84:	00c02403 	sbceq	r2, r0, r3, lsl #8
    3d88:	51011900 	tstpl	r1, r0, lsl #18
    3d8c:	ba9c0305 	blt	fe7049a8 <__bss_end__+0xfe6f81c8>
    3d90:	01190000 	tsteq	r9, r0
    3d94:	40030550 	andmi	r0, r3, r0, asr r5
    3d98:	190000b1 	stmdbne	r0, {r0, r4, r5, r7}
    3d9c:	05007d02 	streq	r7, [r0, #-3330]	; 0xd02
    3da0:	00bf6003 	adcseq	r6, pc, r3
    3da4:	041a0000 	ldreq	r0, [sl], #-0
    3da8:	b100009e 	swplt	r0, lr, [r0]	; <UNPREDICTABLE>
    3dac:	00000015 	andeq	r0, r0, r5, lsl r0
    3db0:	00007f1c 	andeq	r7, r0, ip, lsl pc
    3db4:	00145e00 	andseq	r5, r4, r0, lsl #28
    3db8:	00761d00 	rsbseq	r1, r6, r0, lsl #26
    3dbc:	00150000 	andseq	r0, r5, r0
    3dc0:	00144e07 	andseq	r4, r4, r7, lsl #28
    3dc4:	08982e00 	ldmeq	r8, {r9, sl, fp, sp}
    3dc8:	4a010000 	bmi	43dd0 <__bss_end__+0x375f0>
    3dcc:	009e1c01 	addseq	r1, lr, r1, lsl #24
    3dd0:	00005c00 	andeq	r5, r0, r0, lsl #24
    3dd4:	f69c0100 			; <UNDEFINED> instruction: 0xf69c0100
    3dd8:	17000014 	smladne	r0, r4, r0, r0
    3ddc:	0000000e 	andeq	r0, r0, lr
    3de0:	00001506 	andeq	r1, r0, r6, lsl #10
    3de4:	c04c0305 	subgt	r0, ip, r5, lsl #6
    3de8:	30180000 	andscc	r0, r8, r0
    3dec:	1300009e 	movwne	r0, #158	; 0x9e
    3df0:	a0000006 	andge	r0, r0, r6
    3df4:	19000014 	stmdbne	r0, {r2, r4}
    3df8:	30015101 	andcc	r5, r1, r1, lsl #2
    3dfc:	01500119 	cmpeq	r0, r9, lsl r1
    3e00:	341a0032 	ldrcc	r0, [sl], #-50	; 0x32
    3e04:	9100009e 	swpls	r0, lr, [r0]	; <UNPREDICTABLE>
    3e08:	1a000013 	bne	3e5c <__code_start__-0x41a4>
    3e0c:	00009e40 	andeq	r9, r0, r0, asr #28
    3e10:	00001594 	muleq	r0, r4, r5
    3e14:	009e5c18 	addseq	r5, lr, r8, lsl ip
    3e18:	00159b00 	andseq	r9, r5, r0, lsl #22
    3e1c:	0014ec00 	andseq	lr, r4, r0, lsl #24
    3e20:	53011900 	movwpl	r1, #6400	; 0x1900
    3e24:	014c0a03 	cmpeq	ip, r3, lsl #20
    3e28:	05520119 	ldrbeq	r0, [r2, #-281]	; 0x119
    3e2c:	00c04c03 	sbceq	r4, r0, r3, lsl #24
    3e30:	51011900 	tstpl	r1, r0, lsl #18
    3e34:	ba9c0305 	blt	fe704a50 <__bss_end__+0xfe6f8270>
    3e38:	01190000 	tsteq	r9, r0
    3e3c:	40030550 	andmi	r0, r3, r0, asr r5
    3e40:	190000b1 	stmdbne	r0, {r0, r4, r5, r7}
    3e44:	05007d02 	streq	r7, [r0, #-3330]	; 0xd02
    3e48:	00bf7c03 	adcseq	r7, pc, r3, lsl #24
    3e4c:	601a0000 	andsvs	r0, sl, r0
    3e50:	b100009e 	swplt	r0, lr, [r0]	; <UNPREDICTABLE>
    3e54:	00000015 	andeq	r0, r0, r5, lsl r0
    3e58:	00007f1c 	andeq	r7, r0, ip, lsl pc
    3e5c:	00150600 	andseq	r0, r5, r0, lsl #12
    3e60:	00761d00 	rsbseq	r1, r6, r0, lsl #26
    3e64:	00140000 	andseq	r0, r4, r0
    3e68:	0014f607 	andseq	pc, r4, r7, lsl #12
    3e6c:	013a3100 	teqeq	sl, r0, lsl #2
    3e70:	4f010000 	svcmi	0x00010000
    3e74:	00002501 	andeq	r2, r0, r1, lsl #10
    3e78:	009e7800 	addseq	r7, lr, r0, lsl #16
    3e7c:	00000c00 	andeq	r0, r0, r0, lsl #24
    3e80:	359c0100 	ldrcc	r0, [ip, #256]	; 0x100
    3e84:	32000015 	andcc	r0, r0, #21
    3e88:	01006e66 	tsteq	r0, r6, ror #28
    3e8c:	153a014f 	ldrne	r0, [sl, #-335]!	; 0x14f
    3e90:	120a0000 	andne	r0, sl, #0
    3e94:	33000000 	movwcc	r0, #0
    3e98:	00000025 	andeq	r0, r0, r5, lsr #32
    3e9c:	15350406 	ldrne	r0, [r5, #-1030]!	; 0x406
    3ea0:	5b2a0000 	blpl	a83ea8 <__bss_end__+0xa776c8>
    3ea4:	01000009 	tsteq	r0, r9
    3ea8:	00155118 	andseq	r5, r5, r8, lsl r1
    3eac:	c8030500 	stmdagt	r3, {r8, sl}
    3eb0:	060000c3 	streq	r0, [r0], -r3, asr #1
    3eb4:	00016704 	andeq	r6, r1, r4, lsl #14
    3eb8:	07212a00 	streq	r2, [r1, -r0, lsl #20]!
    3ebc:	1d010000 	stcne	0, cr0, [r1, #-0]
    3ec0:	000001c0 	andeq	r0, r0, r0, asr #3
    3ec4:	c3cc0305 	bicgt	r0, ip, #335544320	; 0x14000000
    3ec8:	142a0000 	strtne	r0, [sl], #-0
    3ecc:	01000007 	tsteq	r0, r7
    3ed0:	00002c51 	andeq	r2, r0, r1, asr ip
    3ed4:	d8030500 	stmdale	r3, {r8, sl}
    3ed8:	160000c3 	strne	r0, [r0], -r3, asr #1
    3edc:	01007470 	tsteq	r0, r0, ror r4
    3ee0:	001551ed 	andseq	r5, r5, sp, ror #3
    3ee4:	dc030500 	cfstr32le	mvfx0, [r3], {-0}
    3ee8:	340000c3 	strcc	r0, [r0], #-195	; 0xc3
    3eec:	00000871 	andeq	r0, r0, r1, ror r8
    3ef0:	0025c203 	eoreq	ip, r5, r3, lsl #4
    3ef4:	16350000 	ldrtne	r0, [r5], -r0
    3ef8:	07000001 	streq	r0, [r0, -r1]
    3efc:	0a5b361e 	beq	16d177c <__bss_end__+0x16c4f9c>
    3f00:	29070000 	stmdbcs	r7, {}	; <UNPREDICTABLE>
    3f04:	00000025 	andeq	r0, r0, r5, lsr #32
    3f08:	000015b1 			; <UNDEFINED> instruction: 0x000015b1
    3f0c:	00008637 	andeq	r8, r0, r7, lsr r6
    3f10:	35003800 	strcc	r3, [r0, #-2048]	; 0x800
    3f14:	00000125 	andeq	r0, r0, r5, lsr #2
    3f18:	92396507 	eorsls	r6, r9, #29360128	; 0x1c00000
    3f1c:	08000004 	stmdaeq	r0, {r2}
    3f20:	00005d6e 	andeq	r5, r0, lr, ror #26
    3f24:	026c3a00 	rsbeq	r3, ip, #0, 20
    3f28:	48080000 	stmdami	r8, {}	; <UNPREDICTABLE>
    3f2c:	000015d4 	ldrdeq	r1, [r0], -r4
    3f30:	00002c37 	andeq	r2, r0, r7, lsr ip
    3f34:	62350000 	eorsvs	r0, r5, #0
    3f38:	08000003 	stmdaeq	r0, {r0, r1}
    3f3c:	03e8353b 	mvneq	r3, #247463936	; 0xec00000
    3f40:	0d080000 	stceq	0, cr0, [r8, #-0]
    3f44:	00016839 	andeq	r6, r1, r9, lsr r8
    3f48:	256c0800 	strbcs	r0, [ip, #-2048]!	; 0x800
    3f4c:	36000000 	strcc	r0, [r0], -r0
    3f50:	000003f1 	strdeq	r0, [r0], -r1
    3f54:	15512108 	ldrbne	r2, [r1, #-264]	; 0x108
    3f58:	16070000 	strne	r0, [r7], -r0
    3f5c:	7d370000 	ldcvc	0, cr0, [r7, #-0]
    3f60:	37000000 	strcc	r0, [r0, -r0]
    3f64:	0000002c 	andeq	r0, r0, ip, lsr #32
    3f68:	03523600 	cmpeq	r2, #0, 12
    3f6c:	25080000 	strcs	r0, [r8, #-0]
    3f70:	00001551 	andeq	r1, r0, r1, asr r5
    3f74:	0000162b 	andeq	r1, r0, fp, lsr #12
    3f78:	00155137 	andseq	r5, r5, r7, lsr r1
    3f7c:	005d3700 	subseq	r3, sp, r0, lsl #14
    3f80:	5d370000 	ldcpl	0, cr0, [r7, #-0]
    3f84:	37000000 	strcc	r0, [r0, -r0]
    3f88:	0000005d 	andeq	r0, r0, sp, asr r0
    3f8c:	04bc3500 	ldrteq	r3, [ip], #1280	; 0x500
    3f90:	0f080000 	svceq	0x00080000
    3f94:	0002233a 	andeq	r2, r2, sl, lsr r3
    3f98:	4d450800 	stclmi	8, cr0, [r5, #-0]
    3f9c:	37000016 	smladcc	r0, r6, r0, r0
    3fa0:	0000002c 	andeq	r0, r0, ip, lsr #32
    3fa4:	00002c37 	andeq	r2, r0, r7, lsr ip
    3fa8:	15513700 	ldrbne	r3, [r1, #-1792]	; 0x700
    3fac:	35000000 	strcc	r0, [r0, #-0]
    3fb0:	0000045c 	andeq	r0, r0, ip, asr r4
    3fb4:	4e3b3a08 	vaddmi.f32	s6, s22, s16
    3fb8:	08000005 	stmdaeq	r0, {r0, r2}
    3fbc:	15513733 	ldrbne	r3, [r1, #-1843]	; 0x733
    3fc0:	2c370000 	ldccs	0, cr0, [r7], #-0
    3fc4:	37000000 	strcc	r0, [r0, -r0]
    3fc8:	0000002c 	andeq	r0, r0, ip, lsr #32
    3fcc:	01120000 	tsteq	r2, r0
    3fd0:	00040000 	andeq	r0, r4, r0
    3fd4:	000008cb 	andeq	r0, r0, fp, asr #17
    3fd8:	09880104 	stmibeq	r8, {r2, r8}
    3fdc:	7c010000 	stcvc	0, cr0, [r1], {-0}
    3fe0:	e7000009 	str	r0, [r0, -r9]
    3fe4:	18000009 	stmdane	r0, {r0, r3}
    3fe8:	f00000a2 			; <UNDEFINED> instruction: 0xf00000a2
    3fec:	7e000000 	cdpvc	0, 0, cr0, cr0, cr0, {0}
    3ff0:	02000008 	andeq	r0, r0, #8
    3ff4:	6e690504 	cdpvs	5, 6, cr0, cr9, cr4, {0}
    3ff8:	04030074 	streq	r0, [r3], #-116	; 0x74
    3ffc:	00002507 	andeq	r2, r0, r7, lsl #10
    4000:	06010300 	streq	r0, [r1], -r0, lsl #6
    4004:	0000010a 	andeq	r0, r0, sl, lsl #2
    4008:	77050203 	strvc	r0, [r5, -r3, lsl #4]
    400c:	03000001 	movweq	r0, #1
    4010:	00050504 	andeq	r0, r5, r4, lsl #10
    4014:	08030000 	stmdaeq	r3, {}	; <UNPREDICTABLE>
    4018:	00000005 	andeq	r0, r0, r5
    401c:	09df0400 	ldmibeq	pc, {sl}^	; <UNPREDICTABLE>
    4020:	2e020000 	cdpcs	0, 0, cr0, cr2, cr0, {0}
    4024:	0000005a 	andeq	r0, r0, sl, asr r0
    4028:	08080103 	stmdaeq	r8, {r0, r1, r8}
    402c:	03000001 	movweq	r0, #1
    4030:	01460702 	cmpeq	r6, r2, lsl #14
    4034:	19040000 	stmdbne	r4, {}	; <UNPREDICTABLE>
    4038:	02000004 	andeq	r0, r0, #4
    403c:	00007334 	andeq	r7, r0, r4, lsr r3
    4040:	07040300 	streq	r0, [r4, -r0, lsl #6]
    4044:	00000020 	andeq	r0, r0, r0, lsr #32
    4048:	1b070803 	blne	1c605c <__bss_end__+0x1b987c>
    404c:	03000000 	movweq	r0, #0
    4050:	01810704 	orreq	r0, r1, r4, lsl #14
    4054:	01030000 	mrseq	r0, (UNDEF: 3)
    4058:	00011108 	andeq	r1, r1, r8, lsl #2
    405c:	95040500 	strls	r0, [r4, #-1280]	; 0x500
    4060:	06000000 	streq	r0, [r0], -r0
    4064:	00000088 	andeq	r0, r0, r8, lsl #1
    4068:	00058e07 	andeq	r8, r5, r7, lsl #28
    406c:	680f0100 	stmdavs	pc, {r8}	; <UNPREDICTABLE>
    4070:	18000000 	stmdane	r0, {}	; <UNPREDICTABLE>
    4074:	f00000a2 			; <UNDEFINED> instruction: 0xf00000a2
    4078:	01000000 	mrseq	r0, (UNDEF: 0)
    407c:	00010e9c 	muleq	r1, ip, lr
    4080:	133e0800 	teqne	lr, #0, 16
    4084:	0f010000 	svceq	0x00010000
    4088:	0000010e 	andeq	r0, r0, lr, lsl #2
    408c:	0000122b 	andeq	r1, r0, fp, lsr #4
    4090:	6e656c09 	cdpvs	12, 6, cr6, cr5, cr9, {0}
    4094:	250f0100 	strcs	r0, [pc, #-256]	; 3f9c <__code_start__-0x4064>
    4098:	65000000 	strvs	r0, [r0, #-0]
    409c:	0a000012 	beq	40ec <__code_start__-0x3f14>
    40a0:	0000133f 	andeq	r1, r0, pc, lsr r3
    40a4:	008f1001 	addeq	r1, pc, r1
    40a8:	12a40000 	adcne	r0, r4, #0
    40ac:	930a0000 	movwls	r0, #40960	; 0xa000
    40b0:	01000005 	tsteq	r0, r5
    40b4:	00006811 	andeq	r6, r0, r1, lsl r8
    40b8:	0012e300 	andseq	lr, r2, r0, lsl #6
    40bc:	6d740b00 	vldmdbvs	r4!, {d16-d15}
    40c0:	11010070 	tstne	r1, r0, ror r0
    40c4:	00000068 	andeq	r0, r0, r8, rrx
    40c8:	0000132d 	andeq	r1, r0, sp, lsr #6
    40cc:	6d65720b 	sfmvs	f7, 2, [r5, #-44]!	; 0xffffffd4
    40d0:	25120100 	ldrcs	r0, [r2, #-256]	; 0x100
    40d4:	78000000 	stmdavc	r0, {}	; <UNPREDICTABLE>
    40d8:	00000013 	andeq	r0, r0, r3, lsl r0
    40dc:	01140405 	tsteq	r4, r5, lsl #8
    40e0:	000c0000 	andeq	r0, ip, r0
    40e4:	000000db 	ldrdeq	r0, [r0], -fp
    40e8:	096f0004 	stmdbeq	pc!, {r2}^	; <UNPREDICTABLE>
    40ec:	01040000 	mrseq	r0, (UNDEF: 4)
    40f0:	00000988 	andeq	r0, r0, r8, lsl #19
    40f4:	000a2d01 	andeq	r2, sl, r1, lsl #26
    40f8:	0009e700 	andeq	lr, r9, r0, lsl #14
    40fc:	00a30800 	adceq	r0, r3, r0, lsl #16
    4100:	00002000 	andeq	r2, r0, r0
    4104:	00096000 	andeq	r6, r9, r0
    4108:	06010200 	streq	r0, [r1], -r0, lsl #4
    410c:	0000010a 	andeq	r0, r0, sl, lsl #2
    4110:	08080102 	stmdaeq	r8, {r1, r8}
    4114:	02000001 	andeq	r0, r0, #1
    4118:	01770502 	cmneq	r7, r2, lsl #10
    411c:	02020000 	andeq	r0, r2, #0
    4120:	00014607 	andeq	r4, r1, r7, lsl #12
    4124:	05040300 	streq	r0, [r4, #-768]	; 0x300
    4128:	00746e69 	rsbseq	r6, r4, r9, ror #28
    412c:	25070402 	strcs	r0, [r7, #-1026]	; 0x402
    4130:	02000000 	andeq	r0, r0, #0
    4134:	00000508 	andeq	r0, r0, r8, lsl #10
    4138:	08020000 	stmdaeq	r2, {}	; <UNPREDICTABLE>
    413c:	00001b07 	andeq	r1, r0, r7, lsl #22
    4140:	05040200 	streq	r0, [r4, #-512]	; 0x200
    4144:	00000005 	andeq	r0, r0, r5
    4148:	81070402 	tsthi	r7, r2, lsl #8
    414c:	04000001 	streq	r0, [r0], #-1
    4150:	07040204 	streq	r0, [r4, -r4, lsl #4]
    4154:	00000020 	andeq	r0, r0, r0, lsr #32
    4158:	007a0405 	rsbseq	r0, sl, r5, lsl #8
    415c:	01020000 	mrseq	r0, (UNDEF: 2)
    4160:	00011108 	andeq	r1, r1, r8, lsl #2
    4164:	01c10600 	biceq	r0, r1, r0, lsl #12
    4168:	d4020000 	strle	r0, [r2], #-0
    416c:	00000048 	andeq	r0, r0, r8, asr #32
    4170:	00048107 	andeq	r8, r4, r7, lsl #2
    4174:	6b1b0300 	blvs	6c4d7c <__bss_end__+0x6b859c>
    4178:	08000000 	stmdaeq	r0, {}	; <UNPREDICTABLE>
    417c:	200000a3 	andcs	r0, r0, r3, lsr #1
    4180:	01000000 	mrseq	r0, (UNDEF: 0)
    4184:	705f089c 			; <UNDEFINED> instruction: 0x705f089c
    4188:	6b030100 	blvs	c4590 <__bss_end__+0xb7db0>
    418c:	01000000 	mrseq	r0, (UNDEF: 0)
    4190:	00630850 	rsbeq	r0, r3, r0, asr r8
    4194:	00410301 	subeq	r0, r1, r1, lsl #6
    4198:	51010000 	mrspl	r0, (UNDEF: 1)
    419c:	01006e09 	tsteq	r0, r9, lsl #28
    41a0:	00008103 	andeq	r8, r0, r3, lsl #2
    41a4:	00138b00 	andseq	r8, r3, r0, lsl #22
    41a8:	00700a00 	rsbseq	r0, r0, r0, lsl #20
    41ac:	00740401 	rsbseq	r0, r4, r1, lsl #8
    41b0:	13ac0000 			; <UNDEFINED> instruction: 0x13ac0000
    41b4:	650b0000 	strvs	r0, [fp, #-0]
    41b8:	74040100 	strvc	r0, [r4], #-256	; 0x100
    41bc:	01000000 	mrseq	r0, (UNDEF: 0)
    41c0:	91000052 	qaddls	r0, r2, r0
    41c4:	04000001 	streq	r0, [r0], #-1
    41c8:	000a0c00 	andeq	r0, sl, r0, lsl #24
    41cc:	88010400 	stmdahi	r1, {sl}
    41d0:	01000009 	tsteq	r0, r9
    41d4:	00000a4a 	andeq	r0, r0, sl, asr #20
    41d8:	000009e7 	andeq	r0, r0, r7, ror #19
    41dc:	0000a328 	andeq	sl, r0, r8, lsr #6
    41e0:	00000058 	andeq	r0, r0, r8, asr r0
    41e4:	00000a50 	andeq	r0, r0, r0, asr sl
    41e8:	000a3b02 	andeq	r3, sl, r2, lsl #22
    41ec:	30280200 	eorcc	r0, r8, r0, lsl #4
    41f0:	03000000 	movweq	r0, #0
    41f4:	00000a62 	andeq	r0, r0, r2, ror #20
    41f8:	47000304 	strmi	r0, [r0, -r4, lsl #6]
    41fc:	04000000 	streq	r0, [r0], #-0
    4200:	00000a6c 	andeq	r0, r0, ip, ror #20
    4204:	00000047 	andeq	r0, r0, r7, asr #32
    4208:	04050000 	streq	r0, [r5], #-0
    420c:	000a6402 	andeq	r6, sl, r2, lsl #8
    4210:	25620200 	strbcs	r0, [r2, #-512]!	; 0x200
    4214:	06000000 	streq	r0, [r0], -r0
    4218:	6e690504 	cdpvs	5, 6, cr0, cr9, cr4, {0}
    421c:	04070074 	streq	r0, [r7], #-116	; 0x74
    4220:	00002507 	andeq	r2, r0, r7, lsl #10
    4224:	06010700 	streq	r0, [r1], -r0, lsl #14
    4228:	0000010a 	andeq	r0, r0, sl, lsl #2
    422c:	77050207 	strvc	r0, [r5, -r7, lsl #4]
    4230:	07000001 	streq	r0, [r0, -r1]
    4234:	00050504 	andeq	r0, r5, r4, lsl #10
    4238:	08070000 	stmdaeq	r7, {}	; <UNPREDICTABLE>
    423c:	00000005 	andeq	r0, r0, r5
    4240:	08010700 	stmdaeq	r1, {r8, r9, sl}
    4244:	00000108 	andeq	r0, r0, r8, lsl #2
    4248:	46070207 	strmi	r0, [r7], -r7, lsl #4
    424c:	07000001 	streq	r0, [r0, -r1]
    4250:	00200704 	eoreq	r0, r0, r4, lsl #14
    4254:	08070000 	stmdaeq	r7, {}	; <UNPREDICTABLE>
    4258:	00001b07 	andeq	r1, r0, r7, lsl #22
    425c:	07040700 	streq	r0, [r4, -r0, lsl #14]
    4260:	00000181 	andeq	r0, r0, r1, lsl #3
    4264:	00a70408 	adceq	r0, r7, r8, lsl #8
    4268:	01070000 	mrseq	r0, (UNDEF: 7)
    426c:	00011108 	andeq	r1, r1, r8, lsl #2
    4270:	b4040800 	strlt	r0, [r4], #-2048	; 0x800
    4274:	09000000 	stmdbeq	r0, {}	; <UNPREDICTABLE>
    4278:	000000a7 	andeq	r0, r0, r7, lsr #1
    427c:	000a5b0a 	andeq	r5, sl, sl, lsl #22
    4280:	54060100 	strpl	r0, [r6], #-256	; 0x100
    4284:	28000000 	stmdacs	r0, {}	; <UNPREDICTABLE>
    4288:	580000a3 	stmdapl	r0, {r0, r1, r5, r7}
    428c:	01000000 	mrseq	r0, (UNDEF: 0)
    4290:	0001439c 	muleq	r1, ip, r3
    4294:	6d660b00 	vstmdbvs	r6!, {d16-d15}
    4298:	06010074 			; <UNDEFINED> instruction: 0x06010074
    429c:	000000ae 	andeq	r0, r0, lr, lsr #1
    42a0:	0c709102 	ldfeqp	f1, [r0], #-8
    42a4:	6675620d 	ldrbtvs	r6, [r5], -sp, lsl #4
    42a8:	43080100 	movwmi	r0, #33024	; 0x8100
    42ac:	05000001 	streq	r0, [r0, #-1]
    42b0:	00c3e003 	sbceq	lr, r3, r3
    42b4:	0f480e00 	svceq	0x00480e00
    42b8:	09010000 	stmdbeq	r1, {}	; <UNPREDICTABLE>
    42bc:	00000049 	andeq	r0, r0, r9, asr #32
    42c0:	0f5c9102 	svceq	0x005c9102
    42c4:	01007a73 	tsteq	r0, r3, ror sl
    42c8:	0000540c 	andeq	r5, r0, ip, lsl #8
    42cc:	0013d700 	andseq	sp, r3, r0, lsl #14
    42d0:	a3501000 	cmpge	r0, #0
    42d4:	01740000 	cmneq	r4, r0
    42d8:	01360000 	teqeq	r6, r0
    42dc:	01110000 	tsteq	r1, r0
    42e0:	4c910253 	lfmmi	f0, 4, [r1], {83}	; 0x53
    42e4:	03520111 	cmpeq	r2, #1073741828	; 0x40000004
    42e8:	11064891 			; <UNDEFINED> instruction: 0x11064891
    42ec:	0a035101 	beq	d86f8 <__bss_end__+0xcbf18>
    42f0:	01110400 	tsteq	r1, r0, lsl #8
    42f4:	00740250 	rsbseq	r0, r4, r0, asr r2
    42f8:	a3641200 	cmnge	r4, #0, 4
    42fc:	01110000 	tsteq	r1, r0
    4300:	00740250 	rsbseq	r0, r4, r0, asr r2
    4304:	a7130000 	ldrge	r0, [r3, -r0]
    4308:	54000000 	strpl	r0, [r0], #-0
    430c:	14000001 	strne	r0, [r0], #-1
    4310:	0000009a 	muleq	r0, sl, r0
    4314:	150003ff 	strne	r0, [r0, #-1023]	; 0x3ff
    4318:	00000054 	andeq	r0, r0, r4, asr r0
    431c:	00000163 	andeq	r0, r0, r3, ror #2
    4320:	0000ae16 	andeq	sl, r0, r6, lsl lr
    4324:	c9170000 	ldmdbgt	r7, {}	; <UNPREDICTABLE>
    4328:	0400000a 	streq	r0, [r0], #-10
    432c:	00016e22 	andeq	r6, r1, r2, lsr #28
    4330:	54040800 	strpl	r0, [r4], #-2048	; 0x800
    4334:	18000001 	stmdane	r0, {r0}
    4338:	00000a58 	andeq	r0, r0, r8, asr sl
    433c:	00540205 	subseq	r0, r4, r5, lsl #4
    4340:	a1160000 	tstge	r6, r0
    4344:	16000000 	strne	r0, [r0], -r0
    4348:	00000054 	andeq	r0, r0, r4, asr r0
    434c:	0000ae16 	andeq	sl, r0, r6, lsl lr
    4350:	00491600 	subeq	r1, r9, r0, lsl #12
    4354:	00000000 	andeq	r0, r0, r0
    4358:	00000113 	andeq	r0, r0, r3, lsl r1
    435c:	0b3d0004 	bleq	f44374 <__bss_end__+0xf37b94>
    4360:	01040000 	mrseq	r0, (UNDEF: 4)
    4364:	00000988 	andeq	r0, r0, r8, lsl #19
    4368:	000a9801 	andeq	r9, sl, r1, lsl #16
    436c:	0009e700 	andeq	lr, r9, r0, lsl #14
    4370:	00a38000 	adceq	r8, r3, r0
    4374:	00003c00 	andeq	r3, r0, r0, lsl #24
    4378:	000b6000 	andeq	r6, fp, r0
    437c:	05040200 	streq	r0, [r4, #-512]	; 0x200
    4380:	00746e69 	rsbseq	r6, r4, r9, ror #28
    4384:	25070403 	strcs	r0, [r7, #-1027]	; 0x403
    4388:	03000000 	movweq	r0, #0
    438c:	010a0601 	tsteq	sl, r1, lsl #12
    4390:	02030000 	andeq	r0, r3, #0
    4394:	00017705 	andeq	r7, r1, r5, lsl #14
    4398:	05040300 	streq	r0, [r4, #-768]	; 0x300
    439c:	00000005 	andeq	r0, r0, r5
    43a0:	00050803 	andeq	r0, r5, r3, lsl #16
    43a4:	03000000 	movweq	r0, #0
    43a8:	01080801 	tsteq	r8, r1, lsl #16
    43ac:	02030000 	andeq	r0, r3, #0
    43b0:	00014607 	andeq	r4, r1, r7, lsl #12
    43b4:	07040300 	streq	r0, [r4, -r0, lsl #6]
    43b8:	00000020 	andeq	r0, r0, r0, lsr #32
    43bc:	1b070803 	blne	1c63d0 <__bss_end__+0x1b9bf0>
    43c0:	03000000 	movweq	r0, #0
    43c4:	01810704 	orreq	r0, r1, r4, lsl #14
    43c8:	01030000 	mrseq	r0, (UNDEF: 3)
    43cc:	00011108 	andeq	r1, r1, r8, lsl #2
    43d0:	0a7b0400 	beq	1ec53d8 <__bss_end__+0x1eb8bf8>
    43d4:	03010000 	movweq	r0, #4096	; 0x1000
    43d8:	00000025 	andeq	r0, r0, r5, lsr #32
    43dc:	0000a380 	andeq	sl, r0, r0, lsl #7
    43e0:	00000014 	andeq	r0, r0, r4, lsl r0
    43e4:	00b09c01 	adcseq	r9, r0, r1, lsl #24
    43e8:	63050000 	movwvs	r0, #20480	; 0x5000
    43ec:	25030100 	strcs	r0, [r3, #-256]	; 0x100
    43f0:	00000000 	andeq	r0, r0, r0
    43f4:	06000014 			; <UNDEFINED> instruction: 0x06000014
    43f8:	0000a38c 	andeq	sl, r0, ip, lsl #7
    43fc:	00000109 	andeq	r0, r0, r9, lsl #2
    4400:	02500107 	subseq	r0, r0, #-1073741823	; 0xc0000001
    4404:	00000074 	andeq	r0, r0, r4, ror r0
    4408:	00011608 	andeq	r1, r1, r8, lsl #12
    440c:	94080100 	strls	r0, [r8], #-256	; 0x100
    4410:	180000a3 	stmdane	r0, {r0, r1, r5, r7}
    4414:	01000000 	mrseq	r0, (UNDEF: 0)
    4418:	0aa7099c 	beq	fe9c6a90 <__bss_end__+0xfe9ba2b0>
    441c:	0b010000 	bleq	44424 <__bss_end__+0x37c44>
    4420:	0000a3ac 	andeq	sl, r0, ip, lsr #7
    4424:	00000010 	andeq	r0, r0, r0, lsl r0
    4428:	00e39c01 	rsceq	r9, r3, r1, lsl #24
    442c:	660a0000 	strvs	r0, [sl], -r0
    4430:	0b010070 	bleq	445f8 <__bss_end__+0x37e18>
    4434:	000000f2 	strdeq	r0, [r0], -r2
    4438:	0b005001 	bleq	18444 <__bss_end__+0xbc64>
    443c:	00000025 	andeq	r0, r0, r5, lsr #32
    4440:	000000f2 	strdeq	r0, [r0], -r2
    4444:	0000250c 	andeq	r2, r0, ip, lsl #10
    4448:	040d0000 	streq	r0, [sp], #-0
    444c:	000000e3 	andeq	r0, r0, r3, ror #1
    4450:	000a8c0e 	andeq	r8, sl, lr, lsl #24
    4454:	f2060100 	vrhadd.s8	d0, d6, d0
    4458:	05000000 	streq	r0, [r0, #-0]
    445c:	00b13003 	adcseq	r3, r1, r3
    4460:	0a710f00 	beq	1c48068 <__bss_end__+0x1c3b888>
    4464:	3c020000 	stccc	0, cr0, [r2], {-0}
    4468:	00002c0c 	andeq	r2, r0, ip, lsl #24
    446c:	ee000000 	cdp	0, 0, cr0, cr0, cr0, {0}
    4470:	04000000 	streq	r0, [r0], #-0
    4474:	000c2500 	andeq	r2, ip, r0, lsl #10
    4478:	88010400 	stmdahi	r1, {sl}
    447c:	01000009 	tsteq	r0, r9
    4480:	00000ab4 			; <UNDEFINED> instruction: 0x00000ab4
    4484:	000009e7 	andeq	r0, r0, r7, ror #19
    4488:	0000a3bc 			; <UNDEFINED> instruction: 0x0000a3bc
    448c:	00000034 	andeq	r0, r0, r4, lsr r0
    4490:	00000bf8 	strdeq	r0, [r0], -r8
    4494:	69050402 	stmdbvs	r5, {r1, sl}
    4498:	0300746e 	movweq	r7, #1134	; 0x46e
    449c:	00250704 	eoreq	r0, r5, r4, lsl #14
    44a0:	01030000 	mrseq	r0, (UNDEF: 3)
    44a4:	00010a06 	andeq	r0, r1, r6, lsl #20
    44a8:	05020300 	streq	r0, [r2, #-768]	; 0x300
    44ac:	00000177 	andeq	r0, r0, r7, ror r1
    44b0:	05050403 	streq	r0, [r5, #-1027]	; 0x403
    44b4:	03000000 	movweq	r0, #0
    44b8:	00000508 	andeq	r0, r0, r8, lsl #10
    44bc:	01030000 	mrseq	r0, (UNDEF: 3)
    44c0:	00010808 	andeq	r0, r1, r8, lsl #16
    44c4:	07020300 	streq	r0, [r2, -r0, lsl #6]
    44c8:	00000146 	andeq	r0, r0, r6, asr #2
    44cc:	20070403 	andcs	r0, r7, r3, lsl #8
    44d0:	03000000 	movweq	r0, #0
    44d4:	001b0708 	andseq	r0, fp, r8, lsl #14
    44d8:	04030000 	streq	r0, [r3], #-0
    44dc:	00018107 	andeq	r8, r1, r7, lsl #2
    44e0:	08010300 	stmdaeq	r1, {r8, r9}
    44e4:	00000111 	andeq	r0, r0, r1, lsl r1
    44e8:	007f0404 	rsbseq	r0, pc, r4, lsl #8
    44ec:	72050000 	andvc	r0, r5, #0
    44f0:	06000000 	streq	r0, [r0], -r0
    44f4:	00000ac0 	andeq	r0, r0, r0, asr #21
    44f8:	00250401 	eoreq	r0, r5, r1, lsl #8
    44fc:	a3bc0000 			; <UNDEFINED> instruction: 0xa3bc0000
    4500:	00340000 	eorseq	r0, r4, r0
    4504:	9c010000 	stcls	0, cr0, [r1], {-0}
    4508:	000000ab 	andeq	r0, r0, fp, lsr #1
    450c:	01007007 	tsteq	r0, r7
    4510:	00007904 	andeq	r7, r0, r4, lsl #18
    4514:	00141e00 	andseq	r1, r4, r0, lsl #28
    4518:	25080000 	strcs	r0, [r8, #-0]
    451c:	ba000000 	blt	4524 <__code_start__-0x3adc>
    4520:	09000000 	stmdbeq	r0, {}	; <UNPREDICTABLE>
    4524:	00000025 	andeq	r0, r0, r5, lsr #32
    4528:	0a8c0a00 	beq	fe306d30 <__bss_end__+0xfe2fa550>
    452c:	1d020000 	stcne	0, cr0, [r2, #-0]
    4530:	000000c5 	andeq	r0, r0, r5, asr #1
    4534:	00ab0404 	adceq	r0, fp, r4, lsl #8
    4538:	25080000 	strcs	r0, [r8, #-0]
    453c:	da000000 	ble	4544 <__code_start__-0x3abc>
    4540:	09000000 	stmdbeq	r0, {}	; <UNPREDICTABLE>
    4544:	00000079 	andeq	r0, r0, r9, ror r0
    4548:	0ac90b00 	beq	ff247150 <__bss_end__+0xff23a970>
    454c:	0c010000 	stceq	0, cr0, [r1], {-0}
    4550:	000000eb 	andeq	r0, r0, fp, ror #1
    4554:	b1340305 	teqlt	r4, r5, lsl #6
    4558:	04040000 	streq	r0, [r4], #-0
    455c:	000000cb 	andeq	r0, r0, fp, asr #1
    4560:	0006e500 	andeq	lr, r6, r0, lsl #10
    4564:	be000400 	cfcpyslt	mvf0, mvf0
    4568:	0400000c 	streq	r0, [r0], #-12
    456c:	00098801 	andeq	r8, r9, r1, lsl #16
    4570:	0aff0100 	beq	fffc4978 <__bss_end__+0xfffb8198>
    4574:	09e70000 	stmibeq	r7!, {}^	; <UNPREDICTABLE>
    4578:	a3f00000 	mvnsge	r0, #0
    457c:	05780000 	ldrbeq	r0, [r8, #-0]!
    4580:	0c9c0000 	ldceq	0, cr0, [ip], {0}
    4584:	04020000 	streq	r0, [r2], #-0
    4588:	746e6905 	strbtvc	r6, [lr], #-2309	; 0x905
    458c:	07040300 	streq	r0, [r4, -r0, lsl #6]
    4590:	00000025 	andeq	r0, r0, r5, lsr #32
    4594:	0a060103 	beq	1849a8 <__bss_end__+0x1781c8>
    4598:	03000001 	movweq	r0, #1
    459c:	01770502 	cmneq	r7, r2, lsl #10
    45a0:	04030000 	streq	r0, [r3], #-0
    45a4:	00000505 	andeq	r0, r0, r5, lsl #10
    45a8:	05080300 	streq	r0, [r8, #-768]	; 0x300
    45ac:	00000000 	andeq	r0, r0, r0
    45b0:	08080103 	stmdaeq	r8, {r0, r1, r8}
    45b4:	03000001 	movweq	r0, #1
    45b8:	01460702 	cmpeq	r6, r2, lsl #14
    45bc:	04030000 	streq	r0, [r3], #-0
    45c0:	00002007 	andeq	r2, r0, r7
    45c4:	07080300 	streq	r0, [r8, -r0, lsl #6]
    45c8:	0000001b 	andeq	r0, r0, fp, lsl r0
    45cc:	81070403 	tsthi	r7, r3, lsl #8
    45d0:	04000001 	streq	r0, [r0], #-1
    45d4:	7a040504 	bvc	1059ec <__bss_end__+0xf920c>
    45d8:	03000000 	movweq	r0, #0
    45dc:	01110801 	tsteq	r1, r1, lsl #16
    45e0:	04050000 	streq	r0, [r5], #-0
    45e4:	00000087 	andeq	r0, r0, r7, lsl #1
    45e8:	00007a06 	andeq	r7, r0, r6, lsl #20
    45ec:	0a3b0700 	beq	ec61f4 <__bss_end__+0xeb9a14>
    45f0:	28020000 	stmdacs	r2, {}	; <UNPREDICTABLE>
    45f4:	00000097 	muleq	r0, r7, r0
    45f8:	000a6208 	andeq	r6, sl, r8, lsl #4
    45fc:	00040400 	andeq	r0, r4, r0, lsl #8
    4600:	000000ae 	andeq	r0, r0, lr, lsr #1
    4604:	000a6c09 	andeq	r6, sl, r9, lsl #24
    4608:	00007200 	andeq	r7, r0, r0, lsl #4
    460c:	07000000 	streq	r0, [r0, -r0]
    4610:	00000a64 	andeq	r0, r0, r4, ror #20
    4614:	008c6202 	addeq	r6, ip, r2, lsl #4
    4618:	e60a0000 	str	r0, [sl], -r0
    461c:	0100000a 	tsteq	r0, sl
    4620:	00002527 	andeq	r2, r0, r7, lsr #10
    4624:	00a3f000 	adceq	pc, r3, r0
    4628:	00001400 	andeq	r1, r0, r0, lsl #8
    462c:	e09c0100 	adds	r0, ip, r0, lsl #2
    4630:	0b000000 	bleq	4638 <__code_start__-0x39c8>
    4634:	27010063 	strcs	r0, [r1, -r3, rrx]
    4638:	00000025 	andeq	r0, r0, r5, lsr #32
    463c:	0000143c 	andeq	r1, r0, ip, lsr r4
    4640:	61700c00 	cmnvs	r0, r0, lsl #24
    4644:	2e010064 	cdpcs	0, 0, cr0, cr1, cr4, {3}
    4648:	00000074 	andeq	r0, r0, r4, ror r0
    464c:	0000a404 	andeq	sl, r0, r4, lsl #8
    4650:	0000002c 	andeq	r0, r0, ip, lsr #32
    4654:	01309c01 	teqeq	r0, r1, lsl #24
    4658:	700b0000 	andvc	r0, fp, r0
    465c:	742e0100 	strtvc	r0, [lr], #-256	; 0x100
    4660:	6a000000 	bvs	4668 <__code_start__-0x3998>
    4664:	0d000014 	stceq	0, cr0, [r0, #-80]	; 0xffffffb0
    4668:	00000f26 	andeq	r0, r0, r6, lsr #30
    466c:	00742e01 	rsbseq	r2, r4, r1, lsl #28
    4670:	14950000 	ldrne	r0, [r5], #0
    4674:	1f0e0000 	svcne	0x000e0000
    4678:	0100000b 	tsteq	r0, fp
    467c:	0000252e 	andeq	r2, r0, lr, lsr #10
    4680:	0f520100 	svceq	0x00520100
    4684:	006e656c 	rsbeq	r6, lr, ip, ror #10
    4688:	00252f01 	eoreq	r2, r5, r1, lsl #30
    468c:	51010000 	mrspl	r0, (UNDEF: 1)
    4690:	0ade0a00 	beq	ff786e98 <__bss_end__+0xff77a6b8>
    4694:	37010000 	strcc	r0, [r1, -r0]
    4698:	00000074 	andeq	r0, r0, r4, ror r0
    469c:	0000a430 	andeq	sl, r0, r0, lsr r4
    46a0:	00000040 	andeq	r0, r0, r0, asr #32
    46a4:	019c9c01 	orrseq	r9, ip, r1, lsl #24
    46a8:	640b0000 	strvs	r0, [fp], #-0
    46ac:	01007473 	tsteq	r0, r3, ror r4
    46b0:	00007437 	andeq	r7, r0, r7, lsr r4
    46b4:	0014b600 	andseq	fp, r4, r0, lsl #12
    46b8:	006e0b00 	rsbeq	r0, lr, r0, lsl #22
    46bc:	00253701 	eoreq	r3, r5, r1, lsl #14
    46c0:	14ee0000 	strbtne	r0, [lr], #0
    46c4:	700b0000 	andvc	r0, fp, r0
    46c8:	74370100 	ldrtvc	r0, [r7], #-256	; 0x100
    46cc:	0f000000 	svceq	0x00000000
    46d0:	0d000015 	stceq	0, cr0, [r0, #-84]	; 0xffffffac
    46d4:	000014d2 	ldrdeq	r1, [r0], -r2
    46d8:	00743701 	rsbseq	r3, r4, r1, lsl #14
    46dc:	15450000 	strbne	r0, [r5, #-0]
    46e0:	6c100000 	ldcvs	0, cr0, [r0], {-0}
    46e4:	01006e65 	tsteq	r0, r5, ror #28
    46e8:	00002539 	andeq	r2, r0, r9, lsr r5
    46ec:	00156300 	andseq	r6, r5, r0, lsl #6
    46f0:	00730f00 	rsbseq	r0, r3, r0, lsl #30
    46f4:	00743d01 	rsbseq	r3, r4, r1, lsl #26
    46f8:	50010000 	andpl	r0, r1, r0
    46fc:	0b2d0a00 	bleq	b46f04 <__bss_end__+0xb3a724>
    4700:	47010000 	strmi	r0, [r1, -r0]
    4704:	00000074 	andeq	r0, r0, r4, ror r0
    4708:	0000a470 	andeq	sl, r0, r0, ror r4
    470c:	000001bc 			; <UNDEFINED> instruction: 0x000001bc
    4710:	02df9c01 	sbcseq	r9, pc, #256	; 0x100
    4714:	260d0000 	strcs	r0, [sp], -r0
    4718:	0100000f 	tsteq	r0, pc
    471c:	00002c47 	andeq	r2, r0, r7, asr #24
    4720:	00158a00 	andseq	r8, r5, r0, lsl #20
    4724:	73640b00 	cmnvc	r4, #0, 22
    4728:	47010074 	smlsdxmi	r1, r4, r0, r0
    472c:	00000074 	andeq	r0, r0, r4, ror r0
    4730:	000015b8 			; <UNDEFINED> instruction: 0x000015b8
    4734:	01006e0b 	tsteq	r0, fp, lsl #28
    4738:	00002547 	andeq	r2, r0, r7, asr #10
    473c:	00162600 	andseq	r2, r6, r0, lsl #12
    4740:	61760b00 	cmnvs	r6, r0, lsl #22
    4744:	4701006c 	strmi	r0, [r1, -ip, rrx]
    4748:	00000025 	andeq	r0, r0, r5, lsr #32
    474c:	00001652 	andeq	r1, r0, r2, asr r6
    4750:	000b1f0d 	andeq	r1, fp, sp, lsl #30
    4754:	25470100 	strbcs	r0, [r7, #-256]	; 0x100
    4758:	d1000000 	mrsle	r0, (UNDEF: 0)
    475c:	0e000016 	mcreq	0, 0, r0, cr0, cr6, {0}
    4760:	00000af6 	strdeq	r0, [r0], -r6
    4764:	00254701 	eoreq	r4, r5, r1, lsl #14
    4768:	91020000 	mrsls	r0, (UNDEF: 2)
    476c:	75620f04 	strbvc	r0, [r2, #-3844]!	; 0xf04
    4770:	4c010066 	stcmi	0, cr0, [r1], {102}	; 0x66
    4774:	000002df 	ldrdeq	r0, [r0], -pc	; <UNPREDICTABLE>
    4778:	7fa89103 	svcvc	0x00a89103
    477c:	01007010 	tsteq	r0, r0, lsl r0
    4780:	0000744c 	andeq	r7, r0, ip, asr #8
    4784:	0016fb00 	andseq	pc, r6, r0, lsl #22
    4788:	00751000 	rsbseq	r1, r5, r0
    478c:	002c4d01 	eoreq	r4, ip, r1, lsl #26
    4790:	17e50000 	strbne	r0, [r5, r0]!
    4794:	0e110000 	cdpeq	0, 1, cr0, cr1, cr0, {0}
    4798:	ff000000 			; <UNDEFINED> instruction: 0xff000000
    479c:	05000002 	streq	r0, [r0, #-2]
    47a0:	00c06403 	sbceq	r6, r0, r3, lsl #8
    47a4:	a4dc1200 	ldrbge	r1, [ip], #512	; 0x200
    47a8:	00740000 	rsbseq	r0, r4, r0
    47ac:	02610000 	rsbeq	r0, r1, #0
    47b0:	d8130000 	ldmdale	r3, {}	; <UNPREDICTABLE>
    47b4:	0100000a 	tsteq	r0, sl
    47b8:	00002c52 	andeq	r2, r0, r2, asr ip
    47bc:	0018a800 	andseq	sl, r8, r0, lsl #16
    47c0:	c8140000 	ldmdagt	r4, {}	; <UNPREDICTABLE>
    47c4:	c40000a5 	strgt	r0, [r0], #-165	; 0xa5
    47c8:	15000006 	strne	r0, [r0, #-6]
    47cc:	0000a5e4 	andeq	sl, r0, r4, ror #11
    47d0:	000006cb 	andeq	r0, r0, fp, asr #13
    47d4:	000002a3 	andeq	r0, r0, r3, lsr #5
    47d8:	02530116 	subseq	r0, r3, #-2147483643	; 0x80000005
    47dc:	01167708 	tsteq	r6, r8, lsl #14
    47e0:	64030552 	strvs	r0, [r3], #-1362	; 0x552
    47e4:	160000c0 	strne	r0, [r0], -r0, asr #1
    47e8:	03055101 	movweq	r5, #20737	; 0x5101
    47ec:	0000c088 	andeq	ip, r0, r8, lsl #1
    47f0:	05500116 	ldrbeq	r0, [r0, #-278]	; 0x116
    47f4:	00b14003 	adcseq	r4, r1, r3
    47f8:	7d021600 	stcvc	6, cr1, [r2, #-0]
    47fc:	20030500 	andcs	r0, r3, r0, lsl #10
    4800:	000000b8 	strheq	r0, [r0], -r8
    4804:	00a5e814 	adceq	lr, r5, r4, lsl r8
    4808:	0006e100 	andeq	lr, r6, r0, lsl #2
    480c:	a5f01500 	ldrbge	r1, [r0, #1280]!	; 0x500
    4810:	00e00000 	rsceq	r0, r0, r0
    4814:	02c10000 	sbceq	r0, r1, #0
    4818:	01160000 	tsteq	r6, r0
    481c:	a0910351 	addsge	r0, r1, r1, asr r3
    4820:	0417007f 	ldreq	r0, [r7], #-127	; 0x7f
    4824:	300000a6 	andcc	r0, r0, r6, lsr #1
    4828:	16000001 	strne	r0, [r0], -r1
    482c:	91035301 	tstls	r3, r1, lsl #6
    4830:	01167fa0 	tsteq	r6, r0, lsr #31
    4834:	00740251 	rsbseq	r0, r4, r1, asr r2
    4838:	02500116 	subseq	r0, r0, #-2147483643	; 0x80000005
    483c:	00000075 	andeq	r0, r0, r5, ror r0
    4840:	00007a18 	andeq	r7, r0, r8, lsl sl
    4844:	0002ef00 	andeq	lr, r2, r0, lsl #30
    4848:	006b1900 	rsbeq	r1, fp, r0, lsl #18
    484c:	003f0000 	eorseq	r0, pc, r0
    4850:	00007a18 	andeq	r7, r0, r8, lsl sl
    4854:	0002ff00 	andeq	pc, r2, r0, lsl #30
    4858:	006b1900 	rsbeq	r1, fp, r0, lsl #18
    485c:	00040000 	andeq	r0, r4, r0
    4860:	0002ef06 	andeq	lr, r2, r6, lsl #30
    4864:	0b101a00 	bleq	40b06c <__bss_end__+0x3fe88c>
    4868:	1f010000 	svcne	0x00010000
    486c:	0000a62c 	andeq	sl, r0, ip, lsr #12
    4870:	00000068 	andeq	r0, r0, r8, rrx
    4874:	03929c01 	orrseq	r9, r2, #256	; 0x100
    4878:	250d0000 	strcs	r0, [sp, #-0]
    487c:	0100000b 	tsteq	r0, fp
    4880:	0003a11f 	andeq	sl, r3, pc, lsl r1
    4884:	0018d400 	andseq	sp, r8, r0, lsl #8
    4888:	0aee0d00 	beq	ffb87c90 <__bss_end__+0xffb7b4b0>
    488c:	1f010000 	svcne	0x00010000
    4890:	000003b6 			; <UNDEFINED> instruction: 0x000003b6
    4894:	00001900 	andeq	r1, r0, r0, lsl #18
    4898:	00000e11 	andeq	r0, r0, r1, lsl lr
    489c:	0003cc00 	andeq	ip, r3, r0, lsl #24
    48a0:	6c030500 	cfstr32vs	mvfx0, [r3], {-0}
    48a4:	140000c0 	strne	r0, [r0], #-192	; 0xc0
    48a8:	0000a640 	andeq	sl, r0, r0, asr #12
    48ac:	000006c4 	andeq	r0, r0, r4, asr #13
    48b0:	00a65c15 	adceq	r5, r6, r5, lsl ip
    48b4:	0006cb00 	andeq	ip, r6, r0, lsl #22
    48b8:	00038800 	andeq	r8, r3, r0, lsl #16
    48bc:	53011600 	movwpl	r1, #5632	; 0x1600
    48c0:	16200802 	strtne	r0, [r0], -r2, lsl #16
    48c4:	03055201 	movweq	r5, #20993	; 0x5201
    48c8:	0000c06c 	andeq	ip, r0, ip, rrx
    48cc:	05510116 	ldrbeq	r0, [r1, #-278]	; 0x116
    48d0:	00c08803 	sbceq	r8, r0, r3, lsl #16
    48d4:	50011600 	andpl	r1, r1, r0, lsl #12
    48d8:	b1400305 	cmplt	r0, r5, lsl #6
    48dc:	02160000 	andseq	r0, r6, #0
    48e0:	0305007d 	movweq	r0, #20605	; 0x507d
    48e4:	0000c0c0 	andeq	ip, r0, r0, asr #1
    48e8:	a6601400 	strbtge	r1, [r0], -r0, lsl #8
    48ec:	06e10000 	strbteq	r0, [r1], r0
    48f0:	1b000000 	blne	48f8 <__code_start__-0x3708>
    48f4:	00000025 	andeq	r0, r0, r5, lsr #32
    48f8:	000003a1 	andeq	r0, r0, r1, lsr #7
    48fc:	0000251c 	andeq	r2, r0, ip, lsl r5
    4900:	04050000 	streq	r0, [r5], #-0
    4904:	00000392 	muleq	r0, r2, r3
    4908:	0000251b 	andeq	r2, r0, fp, lsl r5
    490c:	0003b600 	andeq	fp, r3, r0, lsl #12
    4910:	00811c00 	addeq	r1, r1, r0, lsl #24
    4914:	05000000 	streq	r0, [r0, #-0]
    4918:	0003a704 	andeq	sl, r3, r4, lsl #14
    491c:	007a1800 	rsbseq	r1, sl, r0, lsl #16
    4920:	03cc0000 	biceq	r0, ip, #0
    4924:	6b190000 	blvs	64492c <__bss_end__+0x63814c>
    4928:	0e000000 	cdpeq	0, 0, cr0, cr0, cr0, {0}
    492c:	03bc0600 			; <UNDEFINED> instruction: 0x03bc0600
    4930:	581d0000 	ldmdapl	sp, {}	; <UNPREDICTABLE>
    4934:	0100000a 	tsteq	r0, sl
    4938:	0000257f 	andeq	r2, r0, pc, ror r5
    493c:	00a69400 	adceq	r9, r6, r0, lsl #8
    4940:	0002d400 	andeq	sp, r2, r0, lsl #8
    4944:	899c0100 	ldmibhi	ip, {r8}
    4948:	0b000006 	bleq	4968 <__code_start__-0x3698>
    494c:	00667562 	rsbeq	r7, r6, r2, ror #10
    4950:	00747f01 	rsbseq	r7, r4, r1, lsl #30
    4954:	192c0000 	stmdbne	ip!, {}	; <UNPREDICTABLE>
    4958:	6e0b0000 	cdpvs	0, 0, cr0, cr11, cr0, {0}
    495c:	257f0100 	ldrbcs	r0, [pc, #-256]!	; 4864 <__code_start__-0x379c>
    4960:	58000000 	stmdapl	r0, {}	; <UNPREDICTABLE>
    4964:	0b000019 	bleq	49d0 <__code_start__-0x3630>
    4968:	00746d66 	rsbseq	r6, r4, r6, ror #26
    496c:	00817f01 	addeq	r7, r1, r1, lsl #30
    4970:	19860000 	stmibne	r6, {}	; <UNPREDICTABLE>
    4974:	480d0000 	stmdami	sp, {}	; <UNPREDICTABLE>
    4978:	0100000f 	tsteq	r0, pc
    497c:	0000ae7f 	andeq	sl, r0, pc, ror lr
    4980:	0019a400 	andseq	sl, r9, r0, lsl #8
    4984:	00701000 	rsbseq	r1, r0, r0
    4988:	00748001 	rsbseq	r8, r4, r1
    498c:	19b70000 	ldmibne	r7!, {}	; <UNPREDICTABLE>
    4990:	65100000 	ldrvs	r0, [r0, #-0]
    4994:	74800100 	strvc	r0, [r0], #256	; 0x100
    4998:	35000000 	strcc	r0, [r0, #-0]
    499c:	1300001a 	movwne	r0, #26
    49a0:	00000ace 	andeq	r0, r0, lr, asr #21
    49a4:	00818301 	addeq	r8, r1, r1, lsl #6
    49a8:	1a5c0000 	bne	17049b0 <__bss_end__+0x16f81d0>
    49ac:	0e110000 	cdpeq	0, 1, cr0, cr1, cr0, {0}
    49b0:	99000000 	stmdbls	r0, {}	; <UNPREDICTABLE>
    49b4:	05000006 	streq	r0, [r0, #-6]
    49b8:	00c07c03 	sbceq	r7, r0, r3, lsl #24
    49bc:	a6f01e00 	ldrbtge	r1, [r0], r0, lsl #28
    49c0:	022c0000 	eoreq	r0, ip, #0
    49c4:	73100000 	tstvc	r0, #0
    49c8:	748e0100 	strvc	r0, [lr], #256	; 0x100
    49cc:	7c000000 	stcvc	0, cr0, [r0], {-0}
    49d0:	0f00001a 	svceq	0x0000001a
    49d4:	006d756e 	rsbeq	r7, sp, lr, ror #10
    49d8:	069e8e01 	ldreq	r8, [lr], r1, lsl #28
    49dc:	91030000 	mrsls	r0, (UNDEF: 3)
    49e0:	1f137ed8 	svcne	0x00137ed8
    49e4:	0100000b 	tsteq	r0, fp
    49e8:	00002c8f 	andeq	r2, r0, pc, lsl #25
    49ec:	001ad100 	andseq	sp, sl, r0, lsl #2
    49f0:	a7201500 	strge	r1, [r0, -r0, lsl #10]!
    49f4:	00b90000 	adcseq	r0, r9, r0
    49f8:	04a40000 	strteq	r0, [r4], #0
    49fc:	01160000 	tsteq	r6, r0
    4a00:	00750250 	rsbseq	r0, r5, r0, asr r2
    4a04:	a7341400 	ldrge	r1, [r4, -r0, lsl #8]!
    4a08:	06c40000 	strbeq	r0, [r4], r0
    4a0c:	50150000 	andspl	r0, r5, r0
    4a10:	cb0000a7 	blgt	4cb4 <__code_start__-0x334c>
    4a14:	e6000006 	str	r0, [r0], -r6
    4a18:	16000004 	strne	r0, [r0], -r4
    4a1c:	08025301 	stmdaeq	r2, {r0, r8, r9, ip, lr}
    4a20:	52011695 	andpl	r1, r1, #156237824	; 0x9500000
    4a24:	c07c0305 	rsbsgt	r0, ip, r5, lsl #6
    4a28:	01160000 	tsteq	r6, r0
    4a2c:	88030551 	stmdahi	r3, {r0, r4, r6, r8, sl}
    4a30:	160000c0 	strne	r0, [r0], -r0, asr #1
    4a34:	03055001 	movweq	r5, #20481	; 0x5001
    4a38:	0000b140 	andeq	fp, r0, r0, asr #2
    4a3c:	007d0216 	rsbseq	r0, sp, r6, lsl r2
    4a40:	c0c80305 	sbcgt	r0, r8, r5, lsl #6
    4a44:	14000000 	strne	r0, [r0], #-0
    4a48:	0000a754 	andeq	sl, r0, r4, asr r7
    4a4c:	000006e1 	andeq	r0, r0, r1, ror #13
    4a50:	00a7c414 	adceq	ip, r7, r4, lsl r4
    4a54:	0006c400 	andeq	ip, r6, r0, lsl #8
    4a58:	a7d81500 	ldrbge	r1, [r8, r0, lsl #10]
    4a5c:	06cb0000 	strbeq	r0, [fp], r0
    4a60:	05270000 	streq	r0, [r7, #-0]!
    4a64:	01160000 	tsteq	r6, r0
    4a68:	9b080253 	blls	2053bc <__bss_end__+0x1f8bdc>
    4a6c:	05520116 	ldrbeq	r0, [r2, #-278]	; 0x116
    4a70:	00c07c03 	sbceq	r7, r0, r3, lsl #24
    4a74:	51011600 	tstpl	r1, r0, lsl #12
    4a78:	c0880305 	addgt	r0, r8, r5, lsl #6
    4a7c:	01160000 	tsteq	r6, r0
    4a80:	d4030550 	strle	r0, [r3], #-1360	; 0x550
    4a84:	000000c0 	andeq	r0, r0, r0, asr #1
    4a88:	00a7dc14 	adceq	sp, r7, r4, lsl ip
    4a8c:	0006e100 	andeq	lr, r6, r0, lsl #2
    4a90:	a8001500 	stmdage	r0, {r8, sl, ip}
    4a94:	019c0000 	orrseq	r0, ip, r0
    4a98:	055d0000 	ldrbeq	r0, [sp, #-0]
    4a9c:	01160000 	tsteq	r6, r0
    4aa0:	80080252 	andhi	r0, r8, r2, asr r2
    4aa4:	03510116 	cmpeq	r1, #-2147483643	; 0x80000005
    4aa8:	167ed091 			; <UNDEFINED> instruction: 0x167ed091
    4aac:	3a015001 	bcc	58ab8 <__bss_end__+0x4c2d8>
    4ab0:	047d0216 	ldrbteq	r0, [sp], #-534	; 0x216
    4ab4:	02163101 	andseq	r3, r6, #1073741824	; 0x40000000
    4ab8:	7702007d 	smlsdxvc	r2, sp, r0, r0
    4abc:	28150000 	ldmdacs	r5, {}	; <UNPREDICTABLE>
    4ac0:	9c0000a8 	stcls	0, cr0, [r0], {168}	; 0xa8
    4ac4:	8a000001 	bhi	4ad0 <__code_start__-0x3530>
    4ac8:	16000005 	strne	r0, [r0], -r5
    4acc:	08025201 	stmdaeq	r2, {r0, r9, ip, lr}
    4ad0:	51011680 	smlabbpl	r1, r0, r6, r1
    4ad4:	7ed09103 	atnvcs	f1, f3
    4ad8:	01500116 	cmpeq	r0, r6, lsl r1
    4adc:	7d02163a 	stcvc	6, cr1, [r2, #-232]	; 0xffffff18
    4ae0:	16300104 	ldrtne	r0, [r0], -r4, lsl #2
    4ae4:	02007d02 	andeq	r7, r0, #2, 26	; 0x80
    4ae8:	15000077 	strne	r0, [r0, #-119]	; 0x77
    4aec:	0000a850 	andeq	sl, r0, r0, asr r8
    4af0:	0000019c 	muleq	r0, ip, r1
    4af4:	000005b7 			; <UNDEFINED> instruction: 0x000005b7
    4af8:	02520116 	subseq	r0, r2, #-2147483643	; 0x80000005
    4afc:	01168008 	tsteq	r6, r8
    4b00:	d0910351 	addsle	r0, r1, r1, asr r3
    4b04:	5001167e 	andpl	r1, r1, lr, ror r6
    4b08:	02164001 	andseq	r4, r6, #1
    4b0c:	3001047d 	andcc	r0, r1, sp, ror r4
    4b10:	007d0216 	rsbseq	r0, sp, r6, lsl r2
    4b14:	00007702 	andeq	r7, r0, r2, lsl #14
    4b18:	00a87815 	adceq	r7, r8, r5, lsl r8
    4b1c:	00019c00 	andeq	r9, r1, r0, lsl #24
    4b20:	0005e400 	andeq	lr, r5, r0, lsl #8
    4b24:	52011600 	andpl	r1, r1, #0, 12
    4b28:	16800802 	strne	r0, [r0], r2, lsl #16
    4b2c:	91035101 	tstls	r3, r1, lsl #2
    4b30:	01167ed0 			; <UNDEFINED> instruction: 0x01167ed0
    4b34:	16320150 			; <UNDEFINED> instruction: 0x16320150
    4b38:	01047d02 	tsteq	r4, r2, lsl #26
    4b3c:	7d021630 	stcvc	6, cr1, [r2, #-192]	; 0xffffff40
    4b40:	00770200 	rsbseq	r0, r7, r0, lsl #4
    4b44:	a8ac1500 	stmiage	ip!, {r8, sl, ip}
    4b48:	019c0000 	orrseq	r0, ip, r0
    4b4c:	06110000 	ldreq	r0, [r1], -r0
    4b50:	01160000 	tsteq	r6, r0
    4b54:	80080252 	andhi	r0, r8, r2, asr r2
    4b58:	03510116 	cmpeq	r1, #-2147483643	; 0x80000005
    4b5c:	167ed091 			; <UNDEFINED> instruction: 0x167ed091
    4b60:	38015001 	stmdacc	r1, {r0, ip, lr}
    4b64:	047d0216 	ldrbteq	r0, [sp], #-534	; 0x216
    4b68:	02163001 	andseq	r3, r6, #1
    4b6c:	7702007d 	smlsdxvc	r2, sp, r0, r0
    4b70:	c8150000 	ldmdagt	r5, {}	; <UNPREDICTABLE>
    4b74:	cb0000a8 	blgt	4e1c <__code_start__-0x31e4>
    4b78:	34000006 	strcc	r0, [r0], #-6
    4b7c:	16000006 	strne	r0, [r0], -r6
    4b80:	79025201 	stmdbvc	r2, {r0, r9, ip, lr}
    4b84:	51011600 	tstpl	r1, r0, lsl #12
    4b88:	16007902 	strne	r7, [r0], -r2, lsl #18
    4b8c:	03055001 	movweq	r5, #20481	; 0x5001
    4b90:	0000c0fc 	strdeq	ip, [r0], -ip	; <UNPREDICTABLE>
    4b94:	a8d81f00 	ldmge	r8, {r8, r9, sl, fp, ip}^
    4b98:	06460000 	strbeq	r0, [r6], -r0
    4b9c:	01160000 	tsteq	r6, r0
    4ba0:	cc910450 	cfldrsgt	mvf0, [r1], {80}	; 0x50
    4ba4:	1400067e 	strne	r0, [r0], #-1662	; 0x67e
    4ba8:	0000a8dc 	ldrdeq	sl, [r0], -ip
    4bac:	000006c4 	andeq	r0, r0, r4, asr #13
    4bb0:	00a8f015 	adceq	pc, r8, r5, lsl r0	; <UNPREDICTABLE>
    4bb4:	0006cb00 	andeq	ip, r6, r0, lsl #22
    4bb8:	00067e00 	andeq	r7, r6, r0, lsl #28
    4bbc:	53011600 	movwpl	r1, #5632	; 0x1600
    4bc0:	16bf0802 	ldrtne	r0, [pc], r2, lsl #16
    4bc4:	03055201 	movweq	r5, #20993	; 0x5201
    4bc8:	0000c07c 	andeq	ip, r0, ip, ror r0
    4bcc:	05510116 	ldrbeq	r0, [r1, #-278]	; 0x116
    4bd0:	00c08803 	sbceq	r8, r0, r3, lsl #16
    4bd4:	50011600 	andpl	r1, r1, r0, lsl #12
    4bd8:	c12c0305 	teqgt	ip, r5, lsl #6
    4bdc:	14000000 	strne	r0, [r0], #-0
    4be0:	0000a8f4 	strdeq	sl, [r0], -r4
    4be4:	000006e1 	andeq	r0, r0, r1, ror #13
    4be8:	7a180000 	bvc	604bf0 <__bss_end__+0x5f8410>
    4bec:	99000000 	stmdbls	r0, {}	; <UNPREDICTABLE>
    4bf0:	19000006 	stmdbne	r0, {r1, r2}
    4bf4:	0000006b 	andeq	r0, r0, fp, rrx
    4bf8:	89060009 	stmdbhi	r6, {r0, r3}
    4bfc:	18000006 	stmdane	r0, {r1, r2}
    4c00:	0000007a 	andeq	r0, r0, sl, ror r0
    4c04:	000006ae 	andeq	r0, r0, lr, lsr #13
    4c08:	00006b19 	andeq	r6, r0, r9, lsl fp
    4c0c:	20007f00 	andcs	r7, r0, r0, lsl #30
    4c10:	00000a8c 	andeq	r0, r0, ip, lsl #21
    4c14:	03a11d03 			; <UNDEFINED> instruction: 0x03a11d03
    4c18:	c9200000 	stmdbgt	r0!, {}	; <UNPREDICTABLE>
    4c1c:	0300000a 	movweq	r0, #10
    4c20:	0003b622 	andeq	fp, r3, r2, lsr #12
    4c24:	01162100 	tsteq	r6, r0, lsl #2
    4c28:	1e030000 	cdpne	0, 0, cr0, cr3, cr0, {0}
    4c2c:	000a5b22 	andeq	r5, sl, r2, lsr #22
    4c30:	25290300 	strcs	r0, [r9, #-768]!	; 0x300
    4c34:	e1000000 	mrs	r0, (UNDEF: 0)
    4c38:	1c000006 	stcne	0, cr0, [r0], {6}
    4c3c:	00000081 	andeq	r0, r0, r1, lsl #1
    4c40:	25210023 	strcs	r0, [r1, #-35]!	; 0x23
    4c44:	03000001 	movweq	r0, #1
    4c48:	010f0065 	tsteq	pc, r5, rrx
    4c4c:	00040000 	andeq	r0, r4, r0
    4c50:	00000ea7 	andeq	r0, r0, r7, lsr #29
    4c54:	09880104 	stmibeq	r8, {r2, r8}
    4c58:	41010000 	mrsmi	r0, (UNDEF: 1)
    4c5c:	e700000b 	str	r0, [r0, -fp]
    4c60:	68000009 	stmdavs	r0, {r0, r3}
    4c64:	2c0000a9 	stccs	0, cr0, [r0], {169}	; 0xa9
    4c68:	91000000 	mrsls	r0, (UNDEF: 0)
    4c6c:	0200000e 	andeq	r0, r0, #14
    4c70:	6e690504 	cdpvs	5, 6, cr0, cr9, cr4, {0}
    4c74:	04030074 	streq	r0, [r3], #-116	; 0x74
    4c78:	00002507 	andeq	r2, r0, r7, lsl #10
    4c7c:	06010300 	streq	r0, [r1], -r0, lsl #6
    4c80:	0000010a 	andeq	r0, r0, sl, lsl #2
    4c84:	77050203 	strvc	r0, [r5, -r3, lsl #4]
    4c88:	03000001 	movweq	r0, #1
    4c8c:	00050504 	andeq	r0, r5, r4, lsl #10
    4c90:	08030000 	stmdaeq	r3, {}	; <UNPREDICTABLE>
    4c94:	00000005 	andeq	r0, r0, r5
    4c98:	08010300 	stmdaeq	r1, {r8, r9}
    4c9c:	00000108 	andeq	r0, r0, r8, lsl #2
    4ca0:	46070203 	strmi	r0, [r7], -r3, lsl #4
    4ca4:	03000001 	movweq	r0, #1
    4ca8:	00200704 	eoreq	r0, r0, r4, lsl #14
    4cac:	08030000 	stmdaeq	r3, {}	; <UNPREDICTABLE>
    4cb0:	00001b07 	andeq	r1, r0, r7, lsl #22
    4cb4:	07040300 	streq	r0, [r4, -r0, lsl #6]
    4cb8:	00000181 	andeq	r0, r0, r1, lsl #3
    4cbc:	11080103 	tstne	r8, r3, lsl #2
    4cc0:	04000001 	streq	r0, [r0], #-1
    4cc4:	00007f04 	andeq	r7, r0, r4, lsl #30
    4cc8:	00720500 	rsbseq	r0, r2, r0, lsl #10
    4ccc:	25060000 	strcs	r0, [r6, #-0]
    4cd0:	01000001 	tsteq	r0, r1
    4cd4:	00a96804 	adceq	r6, r9, r4, lsl #16
    4cd8:	00002c00 	andeq	r2, r0, r0, lsl #24
    4cdc:	d39c0100 	orrsle	r0, ip, #0, 2
    4ce0:	07000000 	streq	r0, [r0, -r0]
    4ce4:	0000a970 	andeq	sl, r0, r0, ror r9
    4ce8:	000000f3 	strdeq	r0, [r0], -r3
    4cec:	00a98008 	adceq	r8, r9, r8
    4cf0:	0000b500 	andeq	fp, r0, r0, lsl #10
    4cf4:	50010900 	andpl	r0, r1, r0, lsl #18
    4cf8:	c14c0305 	cmpgt	ip, r5, lsl #6
    4cfc:	0a000000 	beq	4d04 <__code_start__-0x32fc>
    4d00:	0000a988 	andeq	sl, r0, r8, lsl #19
    4d04:	000000fa 	strdeq	r0, [r0], -sl
    4d08:	000000c9 	andeq	r0, r0, r9, asr #1
    4d0c:	02500109 	subseq	r0, r0, #1073741826	; 0x40000002
    4d10:	07006408 	streq	r6, [r0, -r8, lsl #8]
    4d14:	0000a98c 	andeq	sl, r0, ip, lsl #19
    4d18:	0000010b 	andeq	r0, r0, fp, lsl #2
    4d1c:	00250b00 	eoreq	r0, r5, r0, lsl #22
    4d20:	00e20000 	rsceq	r0, r2, r0
    4d24:	790c0000 	stmdbvc	ip, {}	; <UNPREDICTABLE>
    4d28:	00000000 	andeq	r0, r0, r0
    4d2c:	000ac90d 	andeq	ip, sl, sp, lsl #18
    4d30:	ed220200 	sfm	f0, 4, [r2, #-0]
    4d34:	04000000 	streq	r0, [r0], #-0
    4d38:	0000d304 	andeq	sp, r0, r4, lsl #6
    4d3c:	0b320e00 	bleq	c88544 <__bss_end__+0xc7bd64>
    4d40:	dc020000 	stcle	0, cr0, [r2], {-0}
    4d44:	000b650f 	andeq	r6, fp, pc, lsl #10
    4d48:	0b4f0200 	bleq	13c5550 <__bss_end__+0x13b8d70>
    4d4c:	0c000001 	stceq	0, cr0, [r0], {1}
    4d50:	0000002c 	andeq	r0, r0, ip, lsr #32
    4d54:	0b5a0e00 	bleq	168855c <__bss_end__+0x167bd7c>
    4d58:	62020000 	andvs	r0, r2, #0
    4d5c:	00010f00 	andeq	r0, r1, r0, lsl #30
    4d60:	71000400 	tstvc	r0, r0, lsl #8
    4d64:	0400000f 	streq	r0, [r0], #-15
    4d68:	00098801 	andeq	r8, r9, r1, lsl #16
    4d6c:	0ba70100 	bleq	fe9c5174 <__bss_end__+0xfe9b8994>
    4d70:	09e70000 	stmibeq	r7!, {}^	; <UNPREDICTABLE>
    4d74:	a9940000 	ldmibge	r4, {}	; <UNPREDICTABLE>
    4d78:	00380000 	eorseq	r0, r8, r0
    4d7c:	0f320000 	svceq	0x00320000
    4d80:	04020000 	streq	r0, [r2], #-0
    4d84:	746e6905 	strbtvc	r6, [lr], #-2309	; 0x905
    4d88:	07040300 	streq	r0, [r4, -r0, lsl #6]
    4d8c:	00000025 	andeq	r0, r0, r5, lsr #32
    4d90:	0a060103 	beq	1851a4 <__bss_end__+0x1789c4>
    4d94:	03000001 	movweq	r0, #1
    4d98:	01770502 	cmneq	r7, r2, lsl #10
    4d9c:	04030000 	streq	r0, [r3], #-0
    4da0:	00000505 	andeq	r0, r0, r5, lsl #10
    4da4:	05080300 	streq	r0, [r8, #-768]	; 0x300
    4da8:	00000000 	andeq	r0, r0, r0
    4dac:	08080103 	stmdaeq	r8, {r0, r1, r8}
    4db0:	03000001 	movweq	r0, #1
    4db4:	01460702 	cmpeq	r6, r2, lsl #14
    4db8:	04030000 	streq	r0, [r3], #-0
    4dbc:	00002007 	andeq	r2, r0, r7
    4dc0:	07080300 	streq	r0, [r8, -r0, lsl #6]
    4dc4:	0000001b 	andeq	r0, r0, fp, lsl r0
    4dc8:	81070403 	tsthi	r7, r3, lsl #8
    4dcc:	03000001 	movweq	r0, #1
    4dd0:	01110801 	tsteq	r1, r1, lsl #16
    4dd4:	9f040000 	svcls	0x00040000
    4dd8:	0100000b 	tsteq	r0, fp
    4ddc:	00a9940d 	adceq	r9, r9, sp, lsl #8
    4de0:	00003800 	andeq	r3, r0, r0, lsl #16
    4de4:	e19c0100 	orrs	r0, ip, r0, lsl #2
    4de8:	05000000 	streq	r0, [r0, #-0]
    4dec:	00000b6e 	andeq	r0, r0, lr, ror #22
    4df0:	00250e01 	eoreq	r0, r5, r1, lsl #28
    4df4:	7c050000 	stcvc	0, cr0, [r5], {-0}
    4df8:	0100000b 	tsteq	r0, fp
    4dfc:	0000250e 	andeq	r2, r0, lr, lsl #10
    4e00:	01320600 	teqeq	r2, r0, lsl #12
    4e04:	0f010000 	svceq	0x00010000
    4e08:	73736207 	cmnvc	r3, #1879048192	; 0x70000000
    4e0c:	e1110100 	tst	r1, r0, lsl #2
    4e10:	fb000000 	blx	4e1a <__code_start__-0x31e6>
    4e14:	0800001a 	stmdaeq	r0, {r1, r3, r4}
    4e18:	00000b97 	muleq	r0, r7, fp
    4e1c:	00e11201 	rsceq	r1, r1, r1, lsl #4
    4e20:	bc090000 	stclt	0, cr0, [r9], {-0}
    4e24:	fd0000a9 	stc2	0, cr0, [r0, #-676]	; 0xfffffd5c
    4e28:	09000000 	stmdbeq	r0, {}	; <UNPREDICTABLE>
    4e2c:	0000a9c0 	andeq	sl, r0, r0, asr #19
    4e30:	00000104 	andeq	r0, r0, r4, lsl #2
    4e34:	00a9c409 	adceq	ip, r9, r9, lsl #8
    4e38:	00010b00 	andeq	r0, r1, r0, lsl #22
    4e3c:	040a0000 	streq	r0, [sl], #-0
    4e40:	00000025 	andeq	r0, r0, r5, lsr #32
    4e44:	000b6e05 	andeq	r6, fp, r5, lsl #28
    4e48:	250e0100 	strcs	r0, [lr, #-256]	; 0x100
    4e4c:	05000000 	streq	r0, [r0, #-0]
    4e50:	00000b7c 	andeq	r0, r0, ip, ror fp
    4e54:	00250e01 	eoreq	r0, r5, r1, lsl #28
    4e58:	88060000 	stmdahi	r6, {}	; <UNPREDICTABLE>
    4e5c:	0200000b 	andeq	r0, r0, #11
    4e60:	013206da 			; <UNDEFINED> instruction: 0x013206da
    4e64:	d7020000 	strle	r0, [r2, -r0]
    4e68:	00012506 	andeq	r2, r1, r6, lsl #10
    4e6c:	00650200 	rsbeq	r0, r5, r0, lsl #4
    4e70:	0000013e 	andeq	r0, r0, lr, lsr r1
    4e74:	10050004 	andne	r0, r5, r4
    4e78:	01040000 	mrseq	r0, (UNDEF: 4)
    4e7c:	00000988 	andeq	r0, r0, r8, lsl #19
    4e80:	000bba01 	andeq	fp, fp, r1, lsl #20
    4e84:	0009e700 	andeq	lr, r9, r0, lsl #14
    4e88:	00a9cc00 	adceq	ip, r9, r0, lsl #24
    4e8c:	00004400 	andeq	r4, r0, r0, lsl #8
    4e90:	000fdc00 	andeq	sp, pc, r0, lsl #24
    4e94:	05040200 	streq	r0, [r4, #-512]	; 0x200
    4e98:	00746e69 	rsbseq	r6, r4, r9, ror #28
    4e9c:	25070403 	strcs	r0, [r7, #-1027]	; 0x403
    4ea0:	03000000 	movweq	r0, #0
    4ea4:	010a0601 	tsteq	sl, r1, lsl #12
    4ea8:	02030000 	andeq	r0, r3, #0
    4eac:	00017705 	andeq	r7, r1, r5, lsl #14
    4eb0:	05040300 	streq	r0, [r4, #-768]	; 0x300
    4eb4:	00000005 	andeq	r0, r0, r5
    4eb8:	00050803 	andeq	r0, r5, r3, lsl #16
    4ebc:	03000000 	movweq	r0, #0
    4ec0:	01080801 	tsteq	r8, r1, lsl #16
    4ec4:	02030000 	andeq	r0, r3, #0
    4ec8:	00014607 	andeq	r4, r1, r7, lsl #12
    4ecc:	07040300 	streq	r0, [r4, -r0, lsl #6]
    4ed0:	00000020 	andeq	r0, r0, r0, lsr #32
    4ed4:	1b070803 	blne	1c6ee8 <__bss_end__+0x1ba708>
    4ed8:	03000000 	movweq	r0, #0
    4edc:	01810704 	orreq	r0, r1, r4, lsl #14
    4ee0:	01030000 	mrseq	r0, (UNDEF: 3)
    4ee4:	00011108 	andeq	r1, r1, r8, lsl #2
    4ee8:	7f040400 	svcvc	0x00040400
    4eec:	05000000 	streq	r0, [r0, #-0]
    4ef0:	00000072 	andeq	r0, r0, r2, ror r0
    4ef4:	000bdb06 	andeq	sp, fp, r6, lsl #22
    4ef8:	cc020100 	stfgts	f0, [r2], {-0}
    4efc:	440000a9 	strmi	r0, [r0], #-169	; 0xa9
    4f00:	01000000 	mrseq	r0, (UNDEF: 0)
    4f04:	0001089c 	muleq	r1, ip, r8
    4f08:	63700700 	cmnvs	r0, #0, 14
    4f0c:	2c020100 	stfcss	f0, [r2], {-0}
    4f10:	1b000000 	blne	4f18 <__code_start__-0x30e8>
    4f14:	0800001b 	stmdaeq	r0, {r0, r1, r3, r4}
    4f18:	0000000e 	andeq	r0, r0, lr
    4f1c:	00000118 	andeq	r0, r0, r8, lsl r1
    4f20:	c1580305 	cmpgt	r8, r5, lsl #6
    4f24:	dc090000 	stcle	0, cr0, [r9], {-0}
    4f28:	1d0000a9 	stcne	0, cr0, [r0, #-676]	; 0xfffffd5c
    4f2c:	0a000001 	beq	4f38 <__code_start__-0x30c8>
    4f30:	0000a9fc 	strdeq	sl, [r0], -ip
    4f34:	00000124 	andeq	r0, r0, r4, lsr #2
    4f38:	000000fe 	strdeq	r0, [r0], -lr
    4f3c:	0153010b 	cmpeq	r3, fp, lsl #2
    4f40:	52010b32 	andpl	r0, r1, #51200	; 0xc800
    4f44:	c1580305 	cmpgt	r8, r5, lsl #6
    4f48:	010b0000 	mrseq	r0, (UNDEF: 11)
    4f4c:	ac030551 	cfstr32ge	mvfx0, [r3], {81}	; 0x51
    4f50:	0b0000c1 	bleq	525c <__code_start__-0x2da4>
    4f54:	03055001 	movweq	r5, #20481	; 0x5001
    4f58:	0000c170 	andeq	ip, r0, r0, ror r1
    4f5c:	047d020b 	ldrbteq	r0, [sp], #-523	; 0x20b
    4f60:	0b007402 	bleq	21f70 <__bss_end__+0x15790>
    4f64:	05007d02 	streq	r7, [r0, #-3330]	; 0xd02
    4f68:	00c1d003 	sbceq	sp, r1, r3
    4f6c:	00090000 	andeq	r0, r9, r0
    4f70:	3a0000aa 	bcc	5220 <__code_start__-0x2de0>
    4f74:	00000001 	andeq	r0, r0, r1
    4f78:	0000720c 	andeq	r7, r0, ip, lsl #4
    4f7c:	00011800 	andeq	r1, r1, r0, lsl #16
    4f80:	006b0d00 	rsbeq	r0, fp, r0, lsl #26
    4f84:	00150000 	andseq	r0, r5, r0
    4f88:	00010805 	andeq	r0, r1, r5, lsl #16
    4f8c:	01160e00 	tsteq	r6, r0, lsl #28
    4f90:	1e020000 	cdpne	0, 0, cr0, cr2, cr0, {0}
    4f94:	000a5b0f 	andeq	r5, sl, pc, lsl #22
    4f98:	25290200 	strcs	r0, [r9, #-512]!	; 0x200
    4f9c:	3a000000 	bcc	4fa4 <__code_start__-0x305c>
    4fa0:	10000001 	andne	r0, r0, r1
    4fa4:	00000079 	andeq	r0, r0, r9, ror r0
    4fa8:	250e0011 	strcs	r0, [lr, #-17]
    4fac:	02000001 	andeq	r0, r0, #1
    4fb0:	013e0065 	teqeq	lr, r5, rrx
    4fb4:	00040000 	andeq	r0, r4, r0
    4fb8:	000010dd 	ldrdeq	r1, [r0], -sp
    4fbc:	09880104 	stmibeq	r8, {r2, r8}
    4fc0:	f1010000 	setend	le
    4fc4:	e700000b 	str	r0, [r0, -fp]
    4fc8:	10000009 	andne	r0, r0, r9
    4fcc:	440000aa 	strmi	r0, [r0], #-170	; 0xaa
    4fd0:	82000000 	andhi	r0, r0, #0
    4fd4:	02000010 	andeq	r0, r0, #16
    4fd8:	6e690504 	cdpvs	5, 6, cr0, cr9, cr4, {0}
    4fdc:	04030074 	streq	r0, [r3], #-116	; 0x74
    4fe0:	00002507 	andeq	r2, r0, r7, lsl #10
    4fe4:	06010300 	streq	r0, [r1], -r0, lsl #6
    4fe8:	0000010a 	andeq	r0, r0, sl, lsl #2
    4fec:	77050203 	strvc	r0, [r5, -r3, lsl #4]
    4ff0:	03000001 	movweq	r0, #1
    4ff4:	00050504 	andeq	r0, r5, r4, lsl #10
    4ff8:	08030000 	stmdaeq	r3, {}	; <UNPREDICTABLE>
    4ffc:	00000005 	andeq	r0, r0, r5
    5000:	08010300 	stmdaeq	r1, {r8, r9}
    5004:	00000108 	andeq	r0, r0, r8, lsl #2
    5008:	46070203 	strmi	r0, [r7], -r3, lsl #4
    500c:	03000001 	movweq	r0, #1
    5010:	00200704 	eoreq	r0, r0, r4, lsl #14
    5014:	08030000 	stmdaeq	r3, {}	; <UNPREDICTABLE>
    5018:	00001b07 	andeq	r1, r0, r7, lsl #22
    501c:	07040300 	streq	r0, [r4, -r0, lsl #6]
    5020:	00000181 	andeq	r0, r0, r1, lsl #3
    5024:	11080103 	tstne	r8, r3, lsl #2
    5028:	04000001 	streq	r0, [r0], #-1
    502c:	00007f04 	andeq	r7, r0, r4, lsl #30
    5030:	00720500 	rsbseq	r0, r2, r0, lsl #10
    5034:	16060000 	strne	r0, [r6], -r0
    5038:	0100000c 	tsteq	r0, ip
    503c:	00aa1002 	adceq	r1, sl, r2
    5040:	00004400 	andeq	r4, r0, r0, lsl #8
    5044:	089c0100 	ldmeq	ip, {r8}
    5048:	07000001 	streq	r0, [r0, -r1]
    504c:	01006370 	tsteq	r0, r0, ror r3
    5050:	00002c02 	andeq	r2, r0, r2, lsl #24
    5054:	001b3900 	andseq	r3, fp, r0, lsl #18
    5058:	000e0800 	andeq	r0, lr, r0, lsl #16
    505c:	01180000 	tsteq	r8, r0
    5060:	03050000 	movweq	r0, #20480	; 0x5000
    5064:	0000c1d8 	ldrdeq	ip, [r0], -r8
    5068:	00aa2009 	adceq	r2, sl, r9
    506c:	00011d00 	andeq	r1, r1, r0, lsl #26
    5070:	aa400a00 	bge	1007878 <__bss_end__+0xffb098>
    5074:	01240000 	teqeq	r4, r0
    5078:	00fe0000 	rscseq	r0, lr, r0
    507c:	010b0000 	mrseq	r0, (UNDEF: 11)
    5080:	0b320153 	bleq	c855d4 <__bss_end__+0xc78df4>
    5084:	03055201 	movweq	r5, #20993	; 0x5201
    5088:	0000c1d8 	ldrdeq	ip, [r0], -r8
    508c:	0551010b 	ldrbeq	r0, [r1, #-267]	; 0x10b
    5090:	00c1f003 	sbceq	pc, r1, r3
    5094:	50010b00 	andpl	r0, r1, r0, lsl #22
    5098:	c1700305 	cmngt	r0, r5, lsl #6
    509c:	020b0000 	andeq	r0, fp, #0
    50a0:	7402047d 	strvc	r0, [r2], #-1149	; 0x47d
    50a4:	7d020b00 	vstrvc	d0, [r2, #-0]
    50a8:	18030500 	stmdane	r3, {r8, sl}
    50ac:	000000c2 	andeq	r0, r0, r2, asr #1
    50b0:	00aa4409 	adceq	r4, sl, r9, lsl #8
    50b4:	00013a00 	andeq	r3, r1, r0, lsl #20
    50b8:	720c0000 	andvc	r0, ip, #0
    50bc:	18000000 	stmdane	r0, {}	; <UNPREDICTABLE>
    50c0:	0d000001 	stceq	0, cr0, [r0, #-4]
    50c4:	0000006b 	andeq	r0, r0, fp, rrx
    50c8:	08050015 	stmdaeq	r5, {r0, r2, r4}
    50cc:	0e000001 	cdpeq	0, 0, cr0, cr0, cr1, {0}
    50d0:	00000116 	andeq	r0, r0, r6, lsl r1
    50d4:	5b0f1e02 	blpl	3cc8e4 <__bss_end__+0x3c0104>
    50d8:	0200000a 	andeq	r0, r0, #10
    50dc:	00002529 	andeq	r2, r0, r9, lsr #10
    50e0:	00013a00 	andeq	r3, r1, r0, lsl #20
    50e4:	00791000 	rsbseq	r1, r9, r0
    50e8:	00110000 	andseq	r0, r1, r0
    50ec:	0001250e 	andeq	r2, r1, lr, lsl #10
    50f0:	00650200 	rsbeq	r0, r5, r0, lsl #4
    50f4:	0000013e 	andeq	r0, r0, lr, lsr r1
    50f8:	11b50004 			; <UNDEFINED> instruction: 0x11b50004
    50fc:	01040000 	mrseq	r0, (UNDEF: 4)
    5100:	00000988 	andeq	r0, r0, r8, lsl #19
    5104:	000c3901 	andeq	r3, ip, r1, lsl #18
    5108:	0009e700 	andeq	lr, r9, r0, lsl #14
    510c:	00aa5400 	adceq	r5, sl, r0, lsl #8
    5110:	00004400 	andeq	r4, r0, r0, lsl #8
    5114:	00112c00 	andseq	r2, r1, r0, lsl #24
    5118:	05040200 	streq	r0, [r4, #-512]	; 0x200
    511c:	00746e69 	rsbseq	r6, r4, r9, ror #28
    5120:	25070403 	strcs	r0, [r7, #-1027]	; 0x403
    5124:	03000000 	movweq	r0, #0
    5128:	010a0601 	tsteq	sl, r1, lsl #12
    512c:	02030000 	andeq	r0, r3, #0
    5130:	00017705 	andeq	r7, r1, r5, lsl #14
    5134:	05040300 	streq	r0, [r4, #-768]	; 0x300
    5138:	00000005 	andeq	r0, r0, r5
    513c:	00050803 	andeq	r0, r5, r3, lsl #16
    5140:	03000000 	movweq	r0, #0
    5144:	01080801 	tsteq	r8, r1, lsl #16
    5148:	02030000 	andeq	r0, r3, #0
    514c:	00014607 	andeq	r4, r1, r7, lsl #12
    5150:	07040300 	streq	r0, [r4, -r0, lsl #6]
    5154:	00000020 	andeq	r0, r0, r0, lsr #32
    5158:	1b070803 	blne	1c716c <__bss_end__+0x1ba98c>
    515c:	03000000 	movweq	r0, #0
    5160:	01810704 	orreq	r0, r1, r4, lsl #14
    5164:	01030000 	mrseq	r0, (UNDEF: 3)
    5168:	00011108 	andeq	r1, r1, r8, lsl #2
    516c:	7f040400 	svcvc	0x00040400
    5170:	05000000 	streq	r0, [r0, #-0]
    5174:	00000072 	andeq	r0, r0, r2, ror r0
    5178:	000c2c06 	andeq	r2, ip, r6, lsl #24
    517c:	54020100 	strpl	r0, [r2], #-256	; 0x100
    5180:	440000aa 	strmi	r0, [r0], #-170	; 0xaa
    5184:	01000000 	mrseq	r0, (UNDEF: 0)
    5188:	0001089c 	muleq	r1, ip, r8
    518c:	63700700 	cmnvs	r0, #0, 14
    5190:	2c020100 	stfcss	f0, [r2], {-0}
    5194:	57000000 	strpl	r0, [r0, -r0]
    5198:	0800001b 	stmdaeq	r0, {r0, r1, r3, r4}
    519c:	0000000e 	andeq	r0, r0, lr
    51a0:	00000118 	andeq	r0, r0, r8, lsl r1
    51a4:	c2280305 	eorgt	r0, r8, #335544320	; 0x14000000
    51a8:	64090000 	strvs	r0, [r9], #-0
    51ac:	1d0000aa 	stcne	0, cr0, [r0, #-680]	; 0xfffffd58
    51b0:	0a000001 	beq	51bc <__code_start__-0x2e44>
    51b4:	0000aa84 	andeq	sl, r0, r4, lsl #21
    51b8:	00000124 	andeq	r0, r0, r4, lsr #2
    51bc:	000000fe 	strdeq	r0, [r0], -lr
    51c0:	0153010b 	cmpeq	r3, fp, lsl #2
    51c4:	52010b32 	andpl	r0, r1, #51200	; 0xc800
    51c8:	c2280305 	eorgt	r0, r8, #335544320	; 0x14000000
    51cc:	010b0000 	mrseq	r0, (UNDEF: 11)
    51d0:	38030551 	stmdacc	r3, {r0, r4, r6, r8, sl}
    51d4:	0b0000c2 	bleq	54e4 <__code_start__-0x2b1c>
    51d8:	03055001 	movweq	r5, #20481	; 0x5001
    51dc:	0000c170 	andeq	ip, r0, r0, ror r1
    51e0:	047d020b 	ldrbteq	r0, [sp], #-523	; 0x20b
    51e4:	0b007402 	bleq	221f4 <__bss_end__+0x15a14>
    51e8:	05007d02 	streq	r7, [r0, #-3330]	; 0xd02
    51ec:	00c25c03 	sbceq	r5, r2, r3, lsl #24
    51f0:	88090000 	stmdahi	r9, {}	; <UNPREDICTABLE>
    51f4:	3a0000aa 	bcc	54a4 <__code_start__-0x2b5c>
    51f8:	00000001 	andeq	r0, r0, r1
    51fc:	0000720c 	andeq	r7, r0, ip, lsl #4
    5200:	00011800 	andeq	r1, r1, r0, lsl #16
    5204:	006b0d00 	rsbeq	r0, fp, r0, lsl #26
    5208:	000c0000 	andeq	r0, ip, r0
    520c:	00010805 	andeq	r0, r1, r5, lsl #16
    5210:	01160e00 	tsteq	r6, r0, lsl #28
    5214:	1e020000 	cdpne	0, 0, cr0, cr2, cr0, {0}
    5218:	000a5b0f 	andeq	r5, sl, pc, lsl #22
    521c:	25290200 	strcs	r0, [r9, #-512]!	; 0x200
    5220:	3a000000 	bcc	5228 <__code_start__-0x2dd8>
    5224:	10000001 	andne	r0, r0, r1
    5228:	00000079 	andeq	r0, r0, r9, ror r0
    522c:	250e0011 	strcs	r0, [lr, #-17]
    5230:	02000001 	andeq	r0, r0, #1
    5234:	013e0065 	teqeq	lr, r5, rrx
    5238:	00040000 	andeq	r0, r4, r0
    523c:	0000128d 	andeq	r1, r0, sp, lsl #5
    5240:	09880104 	stmibeq	r8, {r2, r8}
    5244:	5b010000 	blpl	4524c <__bss_end__+0x38a6c>
    5248:	e700000c 	str	r0, [r0, -ip]
    524c:	98000009 	stmdals	r0, {r0, r3}
    5250:	440000aa 	strmi	r0, [r0], #-170	; 0xaa
    5254:	d3000000 	movwle	r0, #0
    5258:	02000011 	andeq	r0, r0, #17
    525c:	6e690504 	cdpvs	5, 6, cr0, cr9, cr4, {0}
    5260:	04030074 	streq	r0, [r3], #-116	; 0x74
    5264:	00002507 	andeq	r2, r0, r7, lsl #10
    5268:	06010300 	streq	r0, [r1], -r0, lsl #6
    526c:	0000010a 	andeq	r0, r0, sl, lsl #2
    5270:	77050203 	strvc	r0, [r5, -r3, lsl #4]
    5274:	03000001 	movweq	r0, #1
    5278:	00050504 	andeq	r0, r5, r4, lsl #10
    527c:	08030000 	stmdaeq	r3, {}	; <UNPREDICTABLE>
    5280:	00000005 	andeq	r0, r0, r5
    5284:	08010300 	stmdaeq	r1, {r8, r9}
    5288:	00000108 	andeq	r0, r0, r8, lsl #2
    528c:	46070203 	strmi	r0, [r7], -r3, lsl #4
    5290:	03000001 	movweq	r0, #1
    5294:	00200704 	eoreq	r0, r0, r4, lsl #14
    5298:	08030000 	stmdaeq	r3, {}	; <UNPREDICTABLE>
    529c:	00001b07 	andeq	r1, r0, r7, lsl #22
    52a0:	07040300 	streq	r0, [r4, -r0, lsl #6]
    52a4:	00000181 	andeq	r0, r0, r1, lsl #3
    52a8:	11080103 	tstne	r8, r3, lsl #2
    52ac:	04000001 	streq	r0, [r0], #-1
    52b0:	00007f04 	andeq	r7, r0, r4, lsl #30
    52b4:	00720500 	rsbseq	r0, r2, r0, lsl #10
    52b8:	86060000 	strhi	r0, [r6], -r0
    52bc:	0100000c 	tsteq	r0, ip
    52c0:	00aa9802 	adceq	r9, sl, r2, lsl #16
    52c4:	00004400 	andeq	r4, r0, r0, lsl #8
    52c8:	089c0100 	ldmeq	ip, {r8}
    52cc:	07000001 	streq	r0, [r0, -r1]
    52d0:	01006370 	tsteq	r0, r0, ror r3
    52d4:	00002c02 	andeq	r2, r0, r2, lsl #24
    52d8:	001b7500 	andseq	r7, fp, r0, lsl #10
    52dc:	000e0800 	andeq	r0, lr, r0, lsl #16
    52e0:	01180000 	tsteq	r8, r0
    52e4:	03050000 	movweq	r0, #20480	; 0x5000
    52e8:	0000c264 	andeq	ip, r0, r4, ror #4
    52ec:	00aaa809 	adceq	sl, sl, r9, lsl #16
    52f0:	00011d00 	andeq	r1, r1, r0, lsl #26
    52f4:	aac80a00 	bge	ff207afc <__bss_end__+0xff1fb31c>
    52f8:	01240000 	teqeq	r4, r0
    52fc:	00fe0000 	rscseq	r0, lr, r0
    5300:	010b0000 	mrseq	r0, (UNDEF: 11)
    5304:	0b320153 	bleq	c85858 <__bss_end__+0xc79078>
    5308:	03055201 	movweq	r5, #20993	; 0x5201
    530c:	0000c264 	andeq	ip, r0, r4, ror #4
    5310:	0551010b 	ldrbeq	r0, [r1, #-267]	; 0x10b
    5314:	00c28403 	sbceq	r8, r2, r3, lsl #8
    5318:	50010b00 	andpl	r0, r1, r0, lsl #22
    531c:	c1700305 	cmngt	r0, r5, lsl #6
    5320:	020b0000 	andeq	r0, fp, #0
    5324:	7402047d 	strvc	r0, [r2], #-1149	; 0x47d
    5328:	7d020b00 	vstrvc	d0, [r2, #-0]
    532c:	b0030500 	andlt	r0, r3, r0, lsl #10
    5330:	000000c2 	andeq	r0, r0, r2, asr #1
    5334:	00aacc09 	adceq	ip, sl, r9, lsl #24
    5338:	00013a00 	andeq	r3, r1, r0, lsl #20
    533c:	720c0000 	andvc	r0, ip, #0
    5340:	18000000 	stmdane	r0, {}	; <UNPREDICTABLE>
    5344:	0d000001 	stceq	0, cr0, [r0, #-4]
    5348:	0000006b 	andeq	r0, r0, fp, rrx
    534c:	0805001c 	stmdaeq	r5, {r2, r3, r4}
    5350:	0e000001 	cdpeq	0, 0, cr0, cr0, cr1, {0}
    5354:	00000116 	andeq	r0, r0, r6, lsl r1
    5358:	5b0f1e02 	blpl	3ccb68 <__bss_end__+0x3c0388>
    535c:	0200000a 	andeq	r0, r0, #10
    5360:	00002529 	andeq	r2, r0, r9, lsr #10
    5364:	00013a00 	andeq	r3, r1, r0, lsl #20
    5368:	00791000 	rsbseq	r1, r9, r0
    536c:	00110000 	andseq	r0, r1, r0
    5370:	0001250e 	andeq	r2, r1, lr, lsl #10
    5374:	00650200 	rsbeq	r0, r5, r0, lsl #4
    5378:	00000098 	muleq	r0, r8, r0
    537c:	13650004 	cmnne	r5, #4
    5380:	01040000 	mrseq	r0, (UNDEF: 4)
    5384:	00000988 	andeq	r0, r0, r8, lsl #19
    5388:	000ca301 	andeq	sl, ip, r1, lsl #6
    538c:	0009e700 	andeq	lr, r9, r0, lsl #14
    5390:	00aadc00 	adceq	sp, sl, r0, lsl #24
    5394:	00000800 	andeq	r0, r0, r0, lsl #16
    5398:	00128300 	andseq	r8, r2, r0, lsl #6
    539c:	05040200 	streq	r0, [r4, #-512]	; 0x200
    53a0:	00746e69 	rsbseq	r6, r4, r9, ror #28
    53a4:	25070403 	strcs	r0, [r7, #-1027]	; 0x403
    53a8:	03000000 	movweq	r0, #0
    53ac:	010a0601 	tsteq	sl, r1, lsl #12
    53b0:	02030000 	andeq	r0, r3, #0
    53b4:	00017705 	andeq	r7, r1, r5, lsl #14
    53b8:	05040300 	streq	r0, [r4, #-768]	; 0x300
    53bc:	00000005 	andeq	r0, r0, r5
    53c0:	00050803 	andeq	r0, r5, r3, lsl #16
    53c4:	03000000 	movweq	r0, #0
    53c8:	01080801 	tsteq	r8, r1, lsl #16
    53cc:	02030000 	andeq	r0, r3, #0
    53d0:	00014607 	andeq	r4, r1, r7, lsl #12
    53d4:	07040300 	streq	r0, [r4, -r0, lsl #6]
    53d8:	00000020 	andeq	r0, r0, r0, lsr #32
    53dc:	1b070803 	blne	1c73f0 <__bss_end__+0x1bac10>
    53e0:	03000000 	movweq	r0, #0
    53e4:	01810704 	orreq	r0, r1, r4, lsl #14
    53e8:	01030000 	mrseq	r0, (UNDEF: 3)
    53ec:	00011108 	andeq	r1, r1, r8, lsl #2
    53f0:	0b880400 	bleq	fe2063f8 <__bss_end__+0xfe1f9c18>
    53f4:	04010000 	streq	r0, [r1], #-0
    53f8:	0000aadc 	ldrdeq	sl, [r0], -ip
    53fc:	00000004 	andeq	r0, r0, r4
    5400:	32049c01 	andcc	r9, r4, #256	; 0x100
    5404:	0100000b 	tsteq	r0, fp
    5408:	00aae005 	adceq	lr, sl, r5
    540c:	00000400 	andeq	r0, r0, r0, lsl #8
    5410:	009c0100 	addseq	r0, ip, r0, lsl #2
    5414:	000001d7 	ldrdeq	r0, [r0], -r7
    5418:	13a70004 			; <UNDEFINED> instruction: 0x13a70004
    541c:	01040000 	mrseq	r0, (UNDEF: 4)
    5420:	00000988 	andeq	r0, r0, r8, lsl #19
    5424:	000d5f01 	andeq	r5, sp, r1, lsl #30
    5428:	0009e700 	andeq	lr, r9, r0, lsl #14
    542c:	00aae400 	adceq	lr, sl, r0, lsl #8
    5430:	00006c00 	andeq	r6, r0, r0, lsl #24
    5434:	0012ce00 	andseq	ip, r2, r0, lsl #28
    5438:	05040200 	streq	r0, [r4, #-512]	; 0x200
    543c:	00746e69 	rsbseq	r6, r4, r9, ror #28
    5440:	25070403 	strcs	r0, [r7, #-1027]	; 0x403
    5444:	03000000 	movweq	r0, #0
    5448:	010a0601 	tsteq	sl, r1, lsl #12
    544c:	02030000 	andeq	r0, r3, #0
    5450:	00017705 	andeq	r7, r1, r5, lsl #14
    5454:	05040300 	streq	r0, [r4, #-768]	; 0x300
    5458:	00000005 	andeq	r0, r0, r5
    545c:	00050803 	andeq	r0, r5, r3, lsl #16
    5460:	03000000 	movweq	r0, #0
    5464:	01080801 	tsteq	r8, r1, lsl #16
    5468:	02030000 	andeq	r0, r3, #0
    546c:	00014607 	andeq	r4, r1, r7, lsl #12
    5470:	07040300 	streq	r0, [r4, -r0, lsl #6]
    5474:	00000020 	andeq	r0, r0, r0, lsr #32
    5478:	1b070803 	blne	1c748c <__bss_end__+0x1bacac>
    547c:	03000000 	movweq	r0, #0
    5480:	01810704 	orreq	r0, r1, r4, lsl #14
    5484:	01030000 	mrseq	r0, (UNDEF: 3)
    5488:	00011108 	andeq	r1, r1, r8, lsl #2
    548c:	02040400 	andeq	r0, r4, #0, 8
    5490:	0000f014 	andeq	pc, r0, r4, lsl r0	; <UNPREDICTABLE>
    5494:	0d780500 	cfldr64eq	mvdx0, [r8, #-0]
    5498:	e4800000 	str	r0, [r0], #0
    549c:	05028082 	streq	r8, [r2, #-130]	; 0x82
    54a0:	00000cfe 	strdeq	r0, [r0], -lr
    54a4:	8082e480 	addhi	lr, r2, r0, lsl #9
    54a8:	0da50502 	cfstr32eq	mvfx0, [r5, #8]!
    54ac:	e4840000 	str	r0, [r4], #0
    54b0:	05028082 	streq	r8, [r2, #-130]	; 0x82
    54b4:	00000cc0 	andeq	r0, r0, r0, asr #25
    54b8:	8082e488 	addhi	lr, r2, r8, lsl #9
    54bc:	0ce10502 	cfstr64eq	mvdx0, [r1], #8
    54c0:	e48c0000 	str	r0, [ip], #0
    54c4:	05028082 	streq	r8, [r2, #-130]	; 0x82
    54c8:	00000d22 	andeq	r0, r0, r2, lsr #26
    54cc:	8082e490 	umullhi	lr, r2, r0, r4
    54d0:	0d300502 	cfldr32eq	mvfx0, [r0, #-8]!
    54d4:	e4940000 	ldr	r0, [r4], #0
    54d8:	05028082 	streq	r8, [r2, #-130]	; 0x82
    54dc:	00000d10 	andeq	r0, r0, r0, lsl sp
    54e0:	8082e498 	umullhi	lr, r2, r8, r4
    54e4:	0d870502 	cfstr32eq	mvfx0, [r7, #8]
    54e8:	e49c0000 	ldr	r0, [ip], #0
    54ec:	05028082 	streq	r8, [r2, #-130]	; 0x82
    54f0:	00000d96 	muleq	r0, r6, sp
    54f4:	8082e4a0 	addhi	lr, r2, r0, lsr #9
    54f8:	0cce0502 	cfstr64eq	mvdx0, [lr], {2}
    54fc:	e4a40000 	strt	r0, [r4], #0
    5500:	00028082 	andeq	r8, r2, r2, lsl #1
    5504:	00056506 	andeq	r6, r5, r6, lsl #10
    5508:	e41b0100 	ldr	r0, [fp], #-256	; 0x100
    550c:	6c0000aa 	stcvs	0, cr0, [r0], {170}	; 0xaa
    5510:	01000000 	mrseq	r0, (UNDEF: 0)
    5514:	0001a59c 	muleq	r1, ip, r5
    5518:	0ced0700 	stcleq	7, cr0, [sp]
    551c:	23010000 	movwcs	r0, #4096	; 0x1000
    5520:	0000002c 	andeq	r0, r0, ip, lsr #32
    5524:	000d3e07 	andeq	r3, sp, r7, lsl #28
    5528:	2c240100 	stfcss	f0, [r4], #-0
    552c:	08000000 	stmdaeq	r0, {}	; <UNPREDICTABLE>
    5530:	00747364 	rsbseq	r7, r4, r4, ror #6
    5534:	01a52701 			; <UNDEFINED> instruction: 0x01a52701
    5538:	09000000 	stmdbeq	r0, {}	; <UNPREDICTABLE>
    553c:	00637273 	rsbeq	r7, r3, r3, ror r2
    5540:	01a52801 			; <UNDEFINED> instruction: 0x01a52801
    5544:	6e0a0000 	cdpvs	0, 0, cr0, cr10, cr0, {0}
    5548:	2c290100 	stfcss	f0, [r9], #-0
    554c:	01000000 	mrseq	r0, (UNDEF: 0)
    5550:	ab180b50 	blge	608298 <__bss_end__+0x5fbab8>
    5554:	00240000 	eoreq	r0, r4, r0
    5558:	01580000 	cmpeq	r8, r0
    555c:	690c0000 	stmdbvs	ip, {}	; <UNPREDICTABLE>
    5560:	252a0100 	strcs	r0, [sl, #-256]!	; 0x100
    5564:	93000000 	movwls	r0, #0
    5568:	0000001b 	andeq	r0, r0, fp, lsl r0
    556c:	00aaec0d 	adceq	lr, sl, sp, lsl #24
    5570:	0001c100 	andeq	ip, r1, r0, lsl #2
    5574:	aaf80e00 	bge	ffe08d7c <__bss_end__+0xffdfc59c>
    5578:	01c80000 	biceq	r0, r8, r0
    557c:	017e0000 	cmneq	lr, r0
    5580:	010f0000 	mrseq	r0, CPSR
    5584:	ff090251 			; <UNDEFINED> instruction: 0xff090251
    5588:	0550010f 	ldrbeq	r0, [r0, #-271]	; 0x10f
    558c:	00b21c0c 	adcseq	r1, r2, ip, lsl #24
    5590:	040e0020 	streq	r0, [lr], #-32
    5594:	c80000ab 	stmdagt	r0, {r0, r1, r3, r5, r7}
    5598:	9b000001 	blls	55a4 <__code_start__-0x2a5c>
    559c:	0f000001 	svceq	0x00000001
    55a0:	09025101 	stmdbeq	r2, {r0, r8, ip, lr}
    55a4:	50010fff 	strdpl	r0, [r1], -pc	; <UNPREDICTABLE>
    55a8:	b2200c05 	eorlt	r0, r0, #1280	; 0x500
    55ac:	0d002000 	stceq	0, cr2, [r0, #-0]
    55b0:	0000ab08 	andeq	sl, r0, r8, lsl #22
    55b4:	000001c1 	andeq	r0, r0, r1, asr #3
    55b8:	2c041000 	stccs	0, cr1, [r4], {-0}
    55bc:	07000000 	streq	r0, [r0, -r0]
    55c0:	00000ced 	andeq	r0, r0, sp, ror #25
    55c4:	002c2301 	eoreq	r2, ip, r1, lsl #6
    55c8:	3e070000 	cdpcc	0, 0, cr0, cr7, cr0, {0}
    55cc:	0100000d 	tsteq	r0, sp
    55d0:	00002c24 	andeq	r2, r0, r4, lsr #24
    55d4:	0d531100 	ldfeqe	f1, [r3, #-0]
    55d8:	89030000 	stmdbhi	r3, {}	; <UNPREDICTABLE>
    55dc:	000d8112 	andeq	r8, sp, r2, lsl r1
    55e0:	139b0300 	orrsne	r0, fp, #0, 6
    55e4:	0000002c 	andeq	r0, r0, ip, lsr #32
    55e8:	00002c13 	andeq	r2, r0, r3, lsl ip
    55ec:	ad000000 	stcge	0, cr0, [r0, #-0]
    55f0:	04000001 	streq	r0, [r0], #-1
    55f4:	0014ad00 	andseq	sl, r4, r0, lsl #26
    55f8:	88010400 	stmdahi	r1, {sl}
    55fc:	01000009 	tsteq	r0, r9
    5600:	00000dc1 	andeq	r0, r0, r1, asr #27
    5604:	000009e7 	andeq	r0, r0, r7, ror #19
    5608:	00000048 	andeq	r0, r0, r8, asr #32
    560c:	00000000 	andeq	r0, r0, r0
    5610:	0000139b 	muleq	r0, fp, r3
    5614:	69050402 	stmdbvs	r5, {r1, sl}
    5618:	0300746e 	movweq	r7, #1134	; 0x46e
    561c:	00250704 	eoreq	r0, r5, r4, lsl #14
    5620:	01030000 	mrseq	r0, (UNDEF: 3)
    5624:	00010a06 	andeq	r0, r1, r6, lsl #20
    5628:	05020300 	streq	r0, [r2, #-768]	; 0x300
    562c:	00000177 	andeq	r0, r0, r7, ror r1
    5630:	05050403 	streq	r0, [r5, #-1027]	; 0x403
    5634:	03000000 	movweq	r0, #0
    5638:	00000508 	andeq	r0, r0, r8, lsl #10
    563c:	01030000 	mrseq	r0, (UNDEF: 3)
    5640:	00010808 	andeq	r0, r1, r8, lsl #16
    5644:	07020300 	streq	r0, [r2, -r0, lsl #6]
    5648:	00000146 	andeq	r0, r0, r6, asr #2
    564c:	20070403 	andcs	r0, r7, r3, lsl #8
    5650:	03000000 	movweq	r0, #0
    5654:	001b0708 	andseq	r0, fp, r8, lsl #14
    5658:	04030000 	streq	r0, [r3], #-0
    565c:	00018107 	andeq	r8, r1, r7, lsl #2
    5660:	08010300 	stmdaeq	r1, {r8, r9}
    5664:	00000111 	andeq	r0, r0, r1, lsl r1
    5668:	000db304 	andeq	fp, sp, r4, lsl #6
    566c:	250e0100 	strcs	r0, [lr, #-256]	; 0x100
    5670:	50000000 	andpl	r0, r0, r0
    5674:	180000ab 	stmdane	r0, {r0, r1, r3, r5, r7}
    5678:	01000000 	mrseq	r0, (UNDEF: 0)
    567c:	0000a29c 	muleq	r0, ip, r2
    5680:	0e180500 	cfmul32eq	mvfx0, mvfx8, mvfx0
    5684:	0f010000 	svceq	0x00010000
    5688:	0000002c 	andeq	r0, r0, ip, lsr #32
    568c:	00001bb2 			; <UNDEFINED> instruction: 0x00001bb2
    5690:	0df50600 	ldcleq	6, cr0, [r5]
    5694:	17010000 	strne	r0, [r1, -r0]
    5698:	0000ab68 	andeq	sl, r0, r8, ror #22
    569c:	00000014 	andeq	r0, r0, r4, lsl r0
    56a0:	00c79c01 	sbceq	r9, r7, r1, lsl #24
    56a4:	18050000 	stmdane	r5, {}	; <UNPREDICTABLE>
    56a8:	0100000e 	tsteq	r0, lr
    56ac:	00002c18 	andeq	r2, r0, r8, lsl ip
    56b0:	001bd100 	andseq	sp, fp, r0, lsl #2
    56b4:	5a060000 	bpl	1856bc <__bss_end__+0x178edc>
    56b8:	0100000b 	tsteq	r0, fp
    56bc:	00ab7c1f 	adceq	r7, fp, pc, lsl ip
    56c0:	00004800 	andeq	r4, r0, r0, lsl #16
    56c4:	779c0100 	ldrvc	r0, [ip, r0, lsl #2]
    56c8:	07000001 	streq	r0, [r0, -r1]
    56cc:	00000e10 	andeq	r0, r0, r0, lsl lr
    56d0:	01772a01 	cmneq	r7, r1, lsl #20
    56d4:	001c0000 	andseq	r0, ip, r0
    56d8:	ed072010 	stc	0, cr2, [r7, #-64]	; 0xffffffc0
    56dc:	0100000d 	tsteq	r0, sp
    56e0:	0001772b 	andeq	r7, r1, fp, lsr #14
    56e4:	10002400 	andne	r2, r0, r0, lsl #8
    56e8:	0e040720 	cdpeq	7, 0, cr0, cr4, cr0, {1}
    56ec:	2c010000 	stccs	0, cr0, [r1], {-0}
    56f0:	00000177 	andeq	r0, r0, r7, ror r1
    56f4:	5a000000 	bpl	56fc <__code_start__-0x2904>
    56f8:	000dd408 	andeq	sp, sp, r8, lsl #8
    56fc:	772d0100 	strvc	r0, [sp, -r0, lsl #2]!
    5700:	20000001 	andcs	r0, r0, r1
    5704:	00ab8409 	adceq	r8, fp, r9, lsl #8
    5708:	00007900 	andeq	r7, r0, r0, lsl #18
    570c:	ab900900 	blge	fe407b14 <__bss_end__+0xfe3fb334>
    5710:	00a20000 	adceq	r0, r2, r0
    5714:	980a0000 	stmdals	sl, {}	; <UNPREDICTABLE>
    5718:	8d0000ab 	stchi	0, cr0, [r0, #-684]	; 0xfffffd54
    571c:	3a000001 	bcc	5728 <__code_start__-0x28d8>
    5720:	0b000001 	bleq	572c <__code_start__-0x28d4>
    5724:	4e015001 	cdpmi	0, 0, cr5, cr1, cr1, {0}
    5728:	aba40a00 	blge	fe907f30 <__bss_end__+0xfe8fb750>
    572c:	019e0000 	orrseq	r0, lr, r0
    5730:	015a0000 	cmpeq	sl, r0
    5734:	010b0000 	mrseq	r0, (UNDEF: 11)
    5738:	010c0551 	tsteq	ip, r1, asr r5
    573c:	0b5a0000 	bleq	1685744 <__bss_end__+0x1678f64>
    5740:	0c055001 	stceq	0, cr5, [r5], {1}
    5744:	20100024 	andscs	r0, r0, r4, lsr #32
    5748:	abb00c00 	blge	fec08750 <__bss_end__+0xfebfbf70>
    574c:	019e0000 	orrseq	r0, lr, r0
    5750:	010b0000 	mrseq	r0, (UNDEF: 11)
    5754:	200c0551 	andcs	r0, ip, r1, asr r5
    5758:	0b5a0000 	bleq	1685760 <__bss_end__+0x1678f80>
    575c:	0c055001 	stceq	0, cr5, [r5], {1}
    5760:	2010001c 	andscs	r0, r0, ip, lsl r0
    5764:	250d0000 	strcs	r0, [sp, #-0]
    5768:	08000000 	stmdaeq	r0, {}	; <UNPREDICTABLE>
    576c:	00000db6 			; <UNDEFINED> instruction: 0x00000db6
    5770:	01880d01 	orreq	r0, r8, r1, lsl #26
    5774:	0d100000 	ldceq	0, cr0, [r0, #-0]
    5778:	0000002c 	andeq	r0, r0, ip, lsr #32
    577c:	000b650e 	andeq	r6, fp, lr, lsl #10
    5780:	9e4f0200 	cdpls	2, 4, cr0, cr15, cr0, {0}
    5784:	0f000001 	svceq	0x00000001
    5788:	0000002c 	andeq	r0, r0, ip, lsr #32
    578c:	0d811000 	stceq	0, cr1, [r1]
    5790:	9b020000 	blls	85798 <__bss_end__+0x78fb8>
    5794:	00002c0f 	andeq	r2, r0, pc, lsl #24
    5798:	002c0f00 	eoreq	r0, ip, r0, lsl #30
    579c:	00000000 	andeq	r0, r0, r0
    57a0:	000001f7 	strdeq	r0, [r0], -r7
    57a4:	159b0004 	ldrne	r0, [fp, #4]
    57a8:	01040000 	mrseq	r0, (UNDEF: 4)
    57ac:	00000988 	andeq	r0, r0, r8, lsl #19
    57b0:	000e3a01 	andeq	r3, lr, r1, lsl #20
    57b4:	0009e700 	andeq	lr, r9, r0, lsl #14
    57b8:	00abc400 	adceq	ip, fp, r0, lsl #8
    57bc:	00009800 	andeq	r9, r0, r0, lsl #16
    57c0:	00144100 	andseq	r4, r4, r0, lsl #2
    57c4:	05040200 	streq	r0, [r4, #-512]	; 0x200
    57c8:	00746e69 	rsbseq	r6, r4, r9, ror #28
    57cc:	25070403 	strcs	r0, [r7, #-1027]	; 0x403
    57d0:	03000000 	movweq	r0, #0
    57d4:	010a0601 	tsteq	sl, r1, lsl #12
    57d8:	02030000 	andeq	r0, r3, #0
    57dc:	00017705 	andeq	r7, r1, r5, lsl #14
    57e0:	05040300 	streq	r0, [r4, #-768]	; 0x300
    57e4:	00000005 	andeq	r0, r0, r5
    57e8:	00050803 	andeq	r0, r5, r3, lsl #16
    57ec:	03000000 	movweq	r0, #0
    57f0:	01080801 	tsteq	r8, r1, lsl #16
    57f4:	02030000 	andeq	r0, r3, #0
    57f8:	00014607 	andeq	r4, r1, r7, lsl #12
    57fc:	07040300 	streq	r0, [r4, -r0, lsl #6]
    5800:	00000020 	andeq	r0, r0, r0, lsr #32
    5804:	1b070803 	blne	1c7818 <__bss_end__+0x1bb038>
    5808:	03000000 	movweq	r0, #0
    580c:	01810704 	orreq	r0, r1, r4, lsl #14
    5810:	01030000 	mrseq	r0, (UNDEF: 3)
    5814:	00011108 	andeq	r1, r1, r8, lsl #2
    5818:	0e580400 	cdpeq	4, 5, cr0, cr8, cr0, {0}
    581c:	05010000 	streq	r0, [r1, #-0]
    5820:	0000abc4 	andeq	sl, r0, r4, asr #23
    5824:	0000001c 	andeq	r0, r0, ip, lsl r0
    5828:	009e9c01 	addseq	r9, lr, r1, lsl #24
    582c:	52050000 	andpl	r0, r5, #0
    5830:	0100000e 	tsteq	r0, lr
    5834:	00002c05 	andeq	r2, r0, r5, lsl #24
    5838:	001bfb00 	andseq	pc, fp, r0, lsl #22
    583c:	1d060000 	stcne	0, cr0, [r6, #-0]
    5840:	0100000e 	tsteq	r0, lr
    5844:	00002c11 	andeq	r2, r0, r1, lsl ip
    5848:	00abe000 	adceq	lr, fp, r0
    584c:	00001400 	andeq	r1, r0, r0, lsl #8
    5850:	cb9c0100 	blgt	fe705c58 <__bss_end__+0xfe6f9478>
    5854:	07000000 	streq	r0, [r0, -r0]
    5858:	0000abec 	andeq	sl, r0, ip, ror #23
    585c:	000001de 	ldrdeq	r0, [r0], -lr
    5860:	05500108 	ldrbeq	r0, [r0, #-264]	; 0x108
    5864:	0030040c 	eorseq	r0, r0, ip, lsl #8
    5868:	06000020 	streq	r0, [r0], -r0, lsr #32
    586c:	00000e6e 	andeq	r0, r0, lr, ror #28
    5870:	002c1601 	eoreq	r1, ip, r1, lsl #12
    5874:	abf40000 	blge	ffd0587c <__bss_end__+0xffcf909c>
    5878:	001c0000 	andseq	r0, ip, r0
    587c:	9c010000 	stcls	0, cr0, [r1], {-0}
    5880:	0000010d 	andeq	r0, r0, sp, lsl #2
    5884:	01007509 	tsteq	r0, r9, lsl #10
    5888:	00002c1a 	andeq	r2, r0, sl, lsl ip
    588c:	001c2f00 	andseq	r2, ip, r0, lsl #30
    5890:	abfc0a00 	blge	fff08098 <__bss_end__+0xffefb8b8>
    5894:	01f30000 	mvnseq	r0, r0
    5898:	000a0000 	andeq	r0, sl, r0
    589c:	9e0000ac 	cdpls	0, 0, cr0, cr0, cr12, {5}
    58a0:	0a000000 	beq	58a8 <__code_start__-0x2758>
    58a4:	0000ac08 	andeq	sl, r0, r8, lsl #24
    58a8:	000001f3 	strdeq	r0, [r0], -r3
    58ac:	0e650400 	cdpeq	4, 6, cr0, cr5, cr0, {0}
    58b0:	1f010000 	svcne	0x00010000
    58b4:	0000ac10 	andeq	sl, r0, r0, lsl ip
    58b8:	00000024 	andeq	r0, r0, r4, lsr #32
    58bc:	016b9c01 	cmneq	fp, r1, lsl #24
    58c0:	750b0000 	strvc	r0, [fp, #-0]
    58c4:	1f010073 	svcne	0x00010073
    58c8:	0000002c 	andeq	r0, r0, ip, lsr #32
    58cc:	00001c4d 	andeq	r1, r0, sp, asr #24
    58d0:	0062720c 	rsbeq	r7, r2, ip, lsl #4
    58d4:	002c2001 	eoreq	r2, ip, r1
    58d8:	54010000 	strpl	r0, [r1], #-0
    58dc:	00ac200d 	adceq	r2, ip, sp
    58e0:	00001000 	andeq	r1, r0, r0
    58e4:	00016100 	andeq	r6, r1, r0, lsl #2
    58e8:	61720900 	cmnvs	r2, r0, lsl #18
    58ec:	2c220100 	stfcss	f0, [r2], #-0
    58f0:	6b000000 	blvs	58f8 <__code_start__-0x2708>
    58f4:	0a00001c 	beq	596c <__code_start__-0x2694>
    58f8:	0000ac24 	andeq	sl, r0, r4, lsr #24
    58fc:	000000cb 	andeq	r0, r0, fp, asr #1
    5900:	ac1c0a00 	ldcge	10, cr0, [ip], {-0}
    5904:	00cb0000 	sbceq	r0, fp, r0
    5908:	04000000 	streq	r0, [r0], #-0
    590c:	00000b65 	andeq	r0, r0, r5, ror #22
    5910:	ac342801 	ldcge	8, cr2, [r4], #-4
    5914:	00140000 	andseq	r0, r4, r0
    5918:	9c010000 	stcls	0, cr0, [r1], {-0}
    591c:	000001a4 	andeq	r0, r0, r4, lsr #3
    5920:	00736d0b 	rsbseq	r6, r3, fp, lsl #26
    5924:	002c2801 	eoreq	r2, ip, r1, lsl #16
    5928:	1c7e0000 	ldclne	0, cr0, [lr], #-0
    592c:	44070000 	strmi	r0, [r7], #-0
    5930:	0d0000ac 	stceq	0, cr0, [r0, #-688]	; 0xfffffd50
    5934:	08000001 	stmdaeq	r0, {r0}
    5938:	f3075001 	vhadd.u8	d5, d7, d1
    593c:	e80a5001 	stmda	sl, {r0, ip, lr}
    5940:	00001e03 	andeq	r1, r0, r3, lsl #28
    5944:	000e3004 	andeq	r3, lr, r4
    5948:	482b0100 	stmdami	fp!, {r8}
    594c:	140000ac 	strne	r0, [r0], #-172	; 0xac
    5950:	01000000 	mrseq	r0, (UNDEF: 0)
    5954:	0001de9c 	muleq	r1, ip, lr
    5958:	65730b00 	ldrbvs	r0, [r3, #-2816]!	; 0xb00
    595c:	2b010063 	blcs	45af0 <__bss_end__+0x39310>
    5960:	0000002c 	andeq	r0, r0, ip, lsr #32
    5964:	00001c9f 	muleq	r0, pc, ip	; <UNPREDICTABLE>
    5968:	00ac5807 	adceq	r5, ip, r7, lsl #16
    596c:	00016b00 	andeq	r6, r1, r0, lsl #22
    5970:	50010800 	andpl	r0, r1, r0, lsl #16
    5974:	5001f307 	andpl	pc, r1, r7, lsl #6
    5978:	1e03e80a 	cdpne	8, 0, cr14, cr3, cr10, {0}
    597c:	4c0e0000 	stcmi	0, cr0, [lr], {-0}
    5980:	0200000e 	andeq	r0, r0, #14
    5984:	00002ca7 	andeq	r2, r0, r7, lsr #25
    5988:	0001f300 	andeq	pc, r1, r0, lsl #6
    598c:	002c0f00 	eoreq	r0, ip, r0, lsl #30
    5990:	10000000 	andne	r0, r0, r0
    5994:	00000d53 	andeq	r0, r0, r3, asr sp
    5998:	c5008902 	strgt	r8, [r0, #-2306]	; 0x902
    599c:	0400000c 	streq	r0, [r0], #-12
    59a0:	00169100 	andseq	r9, r6, r0, lsl #2
    59a4:	13010400 	movwne	r0, #5120	; 0x1400
    59a8:	0c000012 	stceq	0, cr0, [r0], {18}
    59ac:	00000f7c 	andeq	r0, r0, ip, ror pc
    59b0:	00000f97 	muleq	r0, r7, pc	; <UNPREDICTABLE>
    59b4:	0000acc0 	andeq	sl, r0, r0, asr #25
    59b8:	00000178 	andeq	r0, r0, r8, ror r1
    59bc:	000014f3 	strdeq	r1, [r0], -r3
    59c0:	69050402 	stmdbvs	r5, {r1, sl}
    59c4:	0300746e 	movweq	r7, #1134	; 0x46e
    59c8:	00250704 	eoreq	r0, r5, r4, lsl #14
    59cc:	2c040000 	stccs	0, cr0, [r4], {-0}
    59d0:	03000000 	movweq	r0, #0
    59d4:	010a0601 	tsteq	sl, r1, lsl #12
    59d8:	02030000 	andeq	r0, r3, #0
    59dc:	00017705 	andeq	r7, r1, r5, lsl #14
    59e0:	05040300 	streq	r0, [r4, #-768]	; 0x300
    59e4:	00000005 	andeq	r0, r0, r5
    59e8:	00050803 	andeq	r0, r5, r3, lsl #16
    59ec:	03000000 	movweq	r0, #0
    59f0:	01080801 	tsteq	r8, r1, lsl #16
    59f4:	02030000 	andeq	r0, r3, #0
    59f8:	00014607 	andeq	r4, r1, r7, lsl #12
    59fc:	07040300 	streq	r0, [r4, -r0, lsl #6]
    5a00:	00000020 	andeq	r0, r0, r0, lsr #32
    5a04:	1b070803 	blne	1c7a18 <__bss_end__+0x1bb238>
    5a08:	05000000 	streq	r0, [r0, #-0]
    5a0c:	00001128 	andeq	r1, r0, r8, lsr #2
    5a10:	00250702 	eoreq	r0, r5, r2, lsl #14
    5a14:	12050000 	andne	r0, r5, #0
    5a18:	03000011 	movweq	r0, #17
    5a1c:	0000462c 	andeq	r4, r0, ip, lsr #12
    5a20:	11ee0500 	mvnne	r0, r0, lsl #10
    5a24:	72030000 	andvc	r0, r3, #0
    5a28:	00000046 	andeq	r0, r0, r6, asr #32
    5a2c:	0010bc06 	andseq	fp, r0, r6, lsl #24
    5a30:	01650400 	cmneq	r5, r0, lsl #8
    5a34:	0000002c 	andeq	r0, r0, ip, lsr #32
    5a38:	a6030407 	strge	r0, [r3], -r7, lsl #8
    5a3c:	000000bc 	strheq	r0, [r0], -ip
    5a40:	0010a708 	andseq	sl, r0, r8, lsl #14
    5a44:	91a80300 			; <UNDEFINED> instruction: 0x91a80300
    5a48:	08000000 	stmdaeq	r0, {}	; <UNPREDICTABLE>
    5a4c:	0000104f 	andeq	r1, r0, pc, asr #32
    5a50:	00bca903 	adcseq	sl, ip, r3, lsl #18
    5a54:	09000000 	stmdbeq	r0, {}	; <UNPREDICTABLE>
    5a58:	00000054 	andeq	r0, r0, r4, asr r0
    5a5c:	000000cc 	andeq	r0, r0, ip, asr #1
    5a60:	0000cc0a 	andeq	ip, r0, sl, lsl #24
    5a64:	03000300 	movweq	r0, #768	; 0x300
    5a68:	01810704 	orreq	r0, r1, r4, lsl #14
    5a6c:	080b0000 	stmdaeq	fp, {}	; <UNPREDICTABLE>
    5a70:	00f4a303 	rscseq	sl, r4, r3, lsl #6
    5a74:	d30c0000 	movwle	r0, #49152	; 0xc000
    5a78:	03000011 	movweq	r0, #17
    5a7c:	000025a5 	andeq	r2, r0, r5, lsr #11
    5a80:	db0c0000 	blle	305a88 <__bss_end__+0x2f92a8>
    5a84:	03000011 	movweq	r0, #17
    5a88:	00009daa 	andeq	r9, r0, sl, lsr #27
    5a8c:	05000400 	streq	r0, [r0, #-1024]	; 0x400
    5a90:	00001166 	andeq	r1, r0, r6, ror #2
    5a94:	00d3ab03 	sbcseq	sl, r3, r3, lsl #22
    5a98:	18050000 	stmdane	r5, {}	; <UNPREDICTABLE>
    5a9c:	03000010 	movweq	r0, #16
    5aa0:	000070af 	andeq	r7, r0, pc, lsr #1
    5aa4:	0e040d00 	cdpeq	13, 0, cr0, cr4, cr0, {0}
    5aa8:	00011204 	andeq	r1, r1, r4, lsl #4
    5aac:	08010300 	stmdaeq	r1, {r8, r9}
    5ab0:	00000111 	andeq	r0, r0, r1, lsl r1
    5ab4:	0001120f 	andeq	r1, r1, pc, lsl #4
    5ab8:	12900500 	addsne	r0, r0, #0, 10
    5abc:	16050000 	strne	r0, [r5], -r0
    5ac0:	00000062 	andeq	r0, r0, r2, rrx
    5ac4:	00102910 	andseq	r2, r0, r0, lsl r9
    5ac8:	2d051800 	stccs	8, cr1, [r5, #-0]
    5acc:	0000017c 	andeq	r0, r0, ip, ror r1
    5ad0:	0011870c 	andseq	r8, r1, ip, lsl #14
    5ad4:	7c2f0500 	cfstr32vc	mvfx0, [pc], #-0	; 5adc <__code_start__-0x2524>
    5ad8:	00000001 	andeq	r0, r0, r1
    5adc:	006b5f11 	rsbeq	r5, fp, r1, lsl pc
    5ae0:	00253005 	eoreq	r3, r5, r5
    5ae4:	0c040000 	stceq	0, cr0, [r4], {-0}
    5ae8:	000011be 			; <UNDEFINED> instruction: 0x000011be
    5aec:	00253005 	eoreq	r3, r5, r5
    5af0:	0c080000 	stceq	0, cr0, [r8], {-0}
    5af4:	00001004 	andeq	r1, r0, r4
    5af8:	00253005 	eoreq	r3, r5, r5
    5afc:	0c0c0000 	stceq	0, cr0, [ip], {-0}
    5b00:	000012d7 	ldrdeq	r1, [r0], -r7
    5b04:	00253005 	eoreq	r3, r5, r5
    5b08:	11100000 	tstne	r0, r0
    5b0c:	0500785f 	streq	r7, [r0, #-2143]	; 0x85f
    5b10:	00018231 	andeq	r8, r1, r1, lsr r2
    5b14:	0e001400 	cfcpyseq	mvf1, mvf0
    5b18:	00012904 	andeq	r2, r1, r4, lsl #18
    5b1c:	011e0900 	tsteq	lr, r0, lsl #18
    5b20:	01920000 	orrseq	r0, r2, r0
    5b24:	cc0a0000 	stcgt	0, cr0, [sl], {-0}
    5b28:	00000000 	andeq	r0, r0, r0
    5b2c:	104a1000 	subne	r1, sl, r0
    5b30:	05240000 	streq	r0, [r4, #-0]!
    5b34:	00020b35 	andeq	r0, r2, r5, lsr fp
    5b38:	0f020c00 	svceq	0x00020c00
    5b3c:	37050000 	strcc	r0, [r5, -r0]
    5b40:	00000025 	andeq	r0, r0, r5, lsr #32
    5b44:	11f60c00 	mvnsne	r0, r0, lsl #24
    5b48:	38050000 	stmdacc	r5, {}	; <UNPREDICTABLE>
    5b4c:	00000025 	andeq	r0, r0, r5, lsr #32
    5b50:	0f300c04 	svceq	0x00300c04
    5b54:	39050000 	stmdbcc	r5, {}	; <UNPREDICTABLE>
    5b58:	00000025 	andeq	r0, r0, r5, lsr #32
    5b5c:	13c70c08 	bicne	r0, r7, #8, 24	; 0x800
    5b60:	3a050000 	bcc	145b68 <__bss_end__+0x139388>
    5b64:	00000025 	andeq	r0, r0, r5, lsr #32
    5b68:	10f60c0c 	rscsne	r0, r6, ip, lsl #24
    5b6c:	3b050000 	blcc	145b74 <__bss_end__+0x139394>
    5b70:	00000025 	andeq	r0, r0, r5, lsr #32
    5b74:	10cb0c10 	sbcne	r0, fp, r0, lsl ip
    5b78:	3c050000 	stccc	0, cr0, [r5], {-0}
    5b7c:	00000025 	andeq	r0, r0, r5, lsr #32
    5b80:	12dc0c14 	sbcsne	r0, ip, #20, 24	; 0x1400
    5b84:	3d050000 	stccc	0, cr0, [r5, #-0]
    5b88:	00000025 	andeq	r0, r0, r5, lsr #32
    5b8c:	11480c18 	cmpne	r8, r8, lsl ip
    5b90:	3e050000 	cdpcc	0, 0, cr0, cr5, cr0, {0}
    5b94:	00000025 	andeq	r0, r0, r5, lsr #32
    5b98:	138e0c1c 	orrne	r0, lr, #28, 24	; 0x1c00
    5b9c:	3f050000 	svccc	0x00050000
    5ba0:	00000025 	andeq	r0, r0, r5, lsr #32
    5ba4:	3f120020 	svccc	0x00120020
    5ba8:	0800000f 	stmdaeq	r0, {r0, r1, r2, r3}
    5bac:	4b480501 	blmi	1206fb8 <__bss_end__+0x11fa7d8>
    5bb0:	0c000002 	stceq	0, cr0, [r0], {2}
    5bb4:	00000feb 	andeq	r0, r0, fp, ror #31
    5bb8:	024b4905 	subeq	r4, fp, #81920	; 0x14000
    5bbc:	0c000000 	stceq	0, cr0, [r0], {-0}
    5bc0:	00000e7d 	andeq	r0, r0, sp, ror lr
    5bc4:	024b4a05 	subeq	r4, fp, #20480	; 0x5000
    5bc8:	13800000 	orrne	r0, r0, #0
    5bcc:	00001282 	andeq	r1, r0, r2, lsl #5
    5bd0:	011e4c05 	tsteq	lr, r5, lsl #24
    5bd4:	01000000 	mrseq	r0, (UNDEF: 0)
    5bd8:	000f6413 	andeq	r6, pc, r3, lsl r4	; <UNPREDICTABLE>
    5bdc:	1e4f0500 	cdpne	5, 4, cr0, cr15, cr0, {0}
    5be0:	04000001 	streq	r0, [r0], #-1
    5be4:	0a090001 	beq	245bf0 <__bss_end__+0x239410>
    5be8:	5b000001 	blpl	5bf4 <__code_start__-0x240c>
    5bec:	0a000002 	beq	5bfc <__code_start__-0x2404>
    5bf0:	000000cc 	andeq	r0, r0, ip, asr #1
    5bf4:	ff12001f 			; <UNDEFINED> instruction: 0xff12001f
    5bf8:	90000010 	andls	r0, r0, r0, lsl r0
    5bfc:	995b0501 	ldmdbls	fp, {r0, r8, sl}^
    5c00:	0c000002 	stceq	0, cr0, [r0], {2}
    5c04:	00001187 	andeq	r1, r0, r7, lsl #3
    5c08:	02995c05 	addseq	r5, r9, #1280	; 0x500
    5c0c:	0c000000 	stceq	0, cr0, [r0], {-0}
    5c10:	0000119f 	muleq	r0, pc, r1	; <UNPREDICTABLE>
    5c14:	00255d05 	eoreq	r5, r5, r5, lsl #26
    5c18:	0c040000 	stceq	0, cr0, [r4], {-0}
    5c1c:	00000fff 	strdeq	r0, [r0], -pc	; <UNPREDICTABLE>
    5c20:	029f5f05 	addseq	r5, pc, #5, 30
    5c24:	0c080000 	stceq	0, cr0, [r8], {-0}
    5c28:	00000f3f 	andeq	r0, r0, pc, lsr pc
    5c2c:	020b6005 	andeq	r6, fp, #5
    5c30:	00880000 	addeq	r0, r8, r0
    5c34:	025b040e 	subseq	r0, fp, #234881024	; 0xe000000
    5c38:	af090000 	svcge	0x00090000
    5c3c:	af000002 	svcge	0x00000002
    5c40:	0a000002 	beq	5c50 <__code_start__-0x23b0>
    5c44:	000000cc 	andeq	r0, r0, ip, asr #1
    5c48:	040e001f 	streq	r0, [lr], #-31
    5c4c:	000002b5 			; <UNDEFINED> instruction: 0x000002b5
    5c50:	11521014 	cmpne	r2, r4, lsl r0
    5c54:	05080000 	streq	r0, [r8, #-0]
    5c58:	0002db73 	andeq	sp, r2, r3, ror fp
    5c5c:	0f250c00 	svceq	0x00250c00
    5c60:	74050000 	strvc	r0, [r5], #-0
    5c64:	000002db 	ldrdeq	r0, [r0], -fp
    5c68:	0e890c00 	cdpeq	12, 8, cr0, cr9, cr0, {0}
    5c6c:	75050000 	strvc	r0, [r5, #-0]
    5c70:	00000025 	andeq	r0, r0, r5, lsr #32
    5c74:	040e0004 	streq	r0, [lr], #-4
    5c78:	00000054 	andeq	r0, r0, r4, asr r0
    5c7c:	00117110 	andseq	r7, r1, r0, lsl r1
    5c80:	b3056800 	movwlt	r6, #22528	; 0x5800
    5c84:	0000040b 	andeq	r0, r0, fp, lsl #8
    5c88:	00705f11 	rsbseq	r5, r0, r1, lsl pc
    5c8c:	02dbb405 	sbcseq	fp, fp, #83886080	; 0x5000000
    5c90:	11000000 	mrsne	r0, (UNDEF: 0)
    5c94:	0500725f 	streq	r7, [r0, #-607]	; 0x25f
    5c98:	000025b5 			; <UNDEFINED> instruction: 0x000025b5
    5c9c:	5f110400 	svcpl	0x00110400
    5ca0:	b6050077 			; <UNDEFINED> instruction: 0xb6050077
    5ca4:	00000025 	andeq	r0, r0, r5, lsr #32
    5ca8:	0f5d0c08 	svceq	0x005d0c08
    5cac:	b7050000 	strlt	r0, [r5, -r0]
    5cb0:	0000003f 	andeq	r0, r0, pc, lsr r0
    5cb4:	10700c0c 	rsbsne	r0, r0, ip, lsl #24
    5cb8:	b8050000 	stmdalt	r5, {}	; <UNPREDICTABLE>
    5cbc:	0000003f 	andeq	r0, r0, pc, lsr r0
    5cc0:	625f110e 	subsvs	r1, pc, #-2147483645	; 0x80000003
    5cc4:	b9050066 	stmdblt	r5, {r1, r2, r5, r6}
    5cc8:	000002b6 			; <UNDEFINED> instruction: 0x000002b6
    5ccc:	0ecc0c10 	mcreq	12, 6, r0, cr12, cr0, {0}
    5cd0:	ba050000 	blt	145cd8 <__bss_end__+0x1394f8>
    5cd4:	00000025 	andeq	r0, r0, r5, lsr #32
    5cd8:	0f4d0c18 	svceq	0x004d0c18
    5cdc:	c1050000 	mrsgt	r0, (UNDEF: 5)
    5ce0:	0000010a 	andeq	r0, r0, sl, lsl #2
    5ce4:	13ee0c1c 	mvnne	r0, #28, 24	; 0x1c00
    5ce8:	c3050000 	movwgt	r0, #20480	; 0x5000
    5cec:	00000566 	andeq	r0, r0, r6, ror #10
    5cf0:	14080c20 	strne	r0, [r8], #-3104	; 0xc20
    5cf4:	c5050000 	strgt	r0, [r5, #-0]
    5cf8:	00000590 	muleq	r0, r0, r5
    5cfc:	11e30c24 	mvnne	r0, r4, lsr #24
    5d00:	c8050000 	stmdagt	r5, {}	; <UNPREDICTABLE>
    5d04:	000005b4 			; <UNDEFINED> instruction: 0x000005b4
    5d08:	13a80c28 			; <UNDEFINED> instruction: 0x13a80c28
    5d0c:	c9050000 	stmdbgt	r5, {}	; <UNPREDICTABLE>
    5d10:	000005ce 	andeq	r0, r0, lr, asr #11
    5d14:	755f112c 	ldrbvc	r1, [pc, #-300]	; 5bf0 <__code_start__-0x2410>
    5d18:	cc050062 	stcgt	0, cr0, [r5], {98}	; 0x62
    5d1c:	000002b6 			; <UNDEFINED> instruction: 0x000002b6
    5d20:	755f1130 	ldrbvc	r1, [pc, #-304]	; 5bf8 <__code_start__-0x2408>
    5d24:	cd050070 	stcgt	0, cr0, [r5, #-448]	; 0xfffffe40
    5d28:	000002db 	ldrdeq	r0, [r0], -fp
    5d2c:	755f1138 	ldrbvc	r1, [pc, #-312]	; 5bfc <__code_start__-0x2404>
    5d30:	ce050072 	mcrgt	0, 0, r0, cr5, cr2, {3}
    5d34:	00000025 	andeq	r0, r0, r5, lsr #32
    5d38:	0f100c3c 	svceq	0x00100c3c
    5d3c:	d1050000 	mrsle	r0, (UNDEF: 5)
    5d40:	000005d4 	ldrdeq	r0, [r0], -r4
    5d44:	13530c40 	cmpne	r3, #64, 24	; 0x4000
    5d48:	d2050000 	andle	r0, r5, #0
    5d4c:	000005e4 	andeq	r0, r0, r4, ror #11
    5d50:	6c5f1143 	ldfvse	f1, [pc], {67}	; 0x43
    5d54:	d5050062 	strle	r0, [r5, #-98]	; 0x62
    5d58:	000002b6 			; <UNDEFINED> instruction: 0x000002b6
    5d5c:	0f730c44 	svceq	0x00730c44
    5d60:	d8050000 	stmdale	r5, {}	; <UNPREDICTABLE>
    5d64:	00000025 	andeq	r0, r0, r5, lsr #32
    5d68:	10d50c4c 	sbcsne	r0, r5, ip, asr #24
    5d6c:	d9050000 	stmdble	r5, {}	; <UNPREDICTABLE>
    5d70:	0000007b 	andeq	r0, r0, fp, ror r0
    5d74:	133e0c50 	teqne	lr, #80, 24	; 0x5000
    5d78:	dc050000 	stcle	0, cr0, [r5], {-0}
    5d7c:	00000429 	andeq	r0, r0, r9, lsr #8
    5d80:	066b0c54 			; <UNDEFINED> instruction: 0x066b0c54
    5d84:	e0050000 	and	r0, r5, r0
    5d88:	000000ff 	strdeq	r0, [r0], -pc	; <UNPREDICTABLE>
    5d8c:	11790c58 	cmnne	r9, r8, asr ip
    5d90:	e2050000 	and	r0, r5, #0
    5d94:	000000f4 	strdeq	r0, [r0], -r4
    5d98:	10c30c5c 	sbcne	r0, r3, ip, asr ip
    5d9c:	e3050000 	movw	r0, #20480	; 0x5000
    5da0:	00000025 	andeq	r0, r0, r5, lsr #32
    5da4:	25150064 	ldrcs	r0, [r5, #-100]	; 0x64
    5da8:	29000000 	stmdbcs	r0, {}	; <UNPREDICTABLE>
    5dac:	16000004 	strne	r0, [r0], -r4
    5db0:	00000429 	andeq	r0, r0, r9, lsr #8
    5db4:	00010a16 	andeq	r0, r1, r6, lsl sl
    5db8:	010c1600 	tsteq	ip, r0, lsl #12
    5dbc:	25160000 	ldrcs	r0, [r6, #-0]
    5dc0:	00000000 	andeq	r0, r0, r0
    5dc4:	0434040e 	ldrteq	r0, [r4], #-1038	; 0x40e
    5dc8:	290f0000 	stmdbcs	pc, {}	; <UNPREDICTABLE>
    5dcc:	17000004 	strne	r0, [r0, -r4]
    5dd0:	000011c6 	andeq	r1, r0, r6, asr #3
    5dd4:	38050428 	stmdacc	r5, {r3, r5, sl}
    5dd8:	00056602 	andeq	r6, r5, r2, lsl #12
    5ddc:	11411800 	cmpne	r1, r0, lsl #16
    5de0:	3a050000 	bcc	145de8 <__bss_end__+0x139608>
    5de4:	00002502 	andeq	r2, r0, r2, lsl #10
    5de8:	6c180000 	ldcvs	0, cr0, [r8], {-0}
    5dec:	0500000f 	streq	r0, [r0, #-15]
    5df0:	063b023f 			; <UNDEFINED> instruction: 0x063b023f
    5df4:	18040000 	stmdane	r4, {}	; <UNPREDICTABLE>
    5df8:	00001060 	andeq	r1, r0, r0, rrx
    5dfc:	3b023f05 	blcc	95a18 <__bss_end__+0x89238>
    5e00:	08000006 	stmdaeq	r0, {r1, r2}
    5e04:	00102118 	andseq	r2, r0, r8, lsl r1
    5e08:	023f0500 	eorseq	r0, pc, #0, 10
    5e0c:	0000063b 	andeq	r0, r0, fp, lsr r6
    5e10:	119a180c 	orrsne	r1, sl, ip, lsl #16
    5e14:	41050000 	mrsmi	r0, (UNDEF: 5)
    5e18:	00002502 	andeq	r2, r0, r2, lsl #10
    5e1c:	97181000 	ldrls	r1, [r8, -r0]
    5e20:	0500000e 	streq	r0, [r0, #-14]
    5e24:	081d0242 	ldmdaeq	sp, {r1, r6, r9}
    5e28:	18140000 	ldmdane	r4, {}	; <UNPREDICTABLE>
    5e2c:	000012b8 			; <UNDEFINED> instruction: 0x000012b8
    5e30:	25024405 	strcs	r4, [r2, #-1029]	; 0x405
    5e34:	30000000 	andcc	r0, r0, r0
    5e38:	0011a418 	andseq	sl, r1, r8, lsl r4
    5e3c:	02450500 	subeq	r0, r5, #0, 10
    5e40:	0000058a 	andeq	r0, r0, sl, lsl #11
    5e44:	11071834 	tstne	r7, r4, lsr r8
    5e48:	47050000 	strmi	r0, [r5, -r0]
    5e4c:	00002502 	andeq	r2, r0, r2, lsl #10
    5e50:	b4183800 	ldrlt	r3, [r8], #-2048	; 0x800
    5e54:	05000011 	streq	r0, [r0, #-17]
    5e58:	08380249 	ldmdaeq	r8!, {r0, r3, r6, r9}
    5e5c:	183c0000 	ldmdane	ip!, {}	; <UNPREDICTABLE>
    5e60:	0000109f 	muleq	r0, pc, r0	; <UNPREDICTABLE>
    5e64:	7c024c05 	stcvc	12, cr4, [r2], {5}
    5e68:	40000001 	andmi	r0, r0, r1
    5e6c:	00104018 	andseq	r4, r0, r8, lsl r0
    5e70:	024d0500 	subeq	r0, sp, #0, 10
    5e74:	00000025 	andeq	r0, r0, r5, lsr #32
    5e78:	13c21844 	bicne	r1, r2, #68, 16	; 0x440000
    5e7c:	4e050000 	cdpmi	0, 0, cr0, cr5, cr0, {0}
    5e80:	00017c02 	andeq	r7, r1, r2, lsl #24
    5e84:	1e184800 	cdpne	8, 1, cr4, cr8, cr0, {0}
    5e88:	05000011 	streq	r0, [r0, #-17]
    5e8c:	083e024f 	ldmdaeq	lr!, {r0, r1, r2, r3, r6, r9}
    5e90:	184c0000 	stmdane	ip, {}^	; <UNPREDICTABLE>
    5e94:	00001068 	andeq	r1, r0, r8, rrx
    5e98:	25025205 	strcs	r5, [r2, #-517]	; 0x205
    5e9c:	50000000 	andpl	r0, r0, r0
    5ea0:	000f8f18 	andeq	r8, pc, r8, lsl pc	; <UNPREDICTABLE>
    5ea4:	02530500 	subseq	r0, r3, #0, 10
    5ea8:	0000010c 	andeq	r0, r0, ip, lsl #2
    5eac:	113a1854 	teqne	sl, r4, asr r8
    5eb0:	76050000 	strvc	r0, [r5], -r0
    5eb4:	0007fb02 	andeq	pc, r7, r2, lsl #22
    5eb8:	ff195800 			; <UNDEFINED> instruction: 0xff195800
    5ebc:	05000010 	streq	r0, [r0, #-16]
    5ec0:	0299027a 	addseq	r0, r9, #-1610612729	; 0xa0000007
    5ec4:	01480000 	mrseq	r0, (UNDEF: 72)
    5ec8:	00107d19 	andseq	r7, r0, r9, lsl sp
    5ecc:	027b0500 	rsbseq	r0, fp, #0, 10
    5ed0:	0000025b 	andeq	r0, r0, fp, asr r2
    5ed4:	2419014c 	ldrcs	r0, [r9], #-332	; 0x14c
    5ed8:	05000013 	streq	r0, [r0, #-19]
    5edc:	084f027f 	stmdaeq	pc, {r0, r1, r2, r3, r4, r5, r6, r9}^	; <UNPREDICTABLE>
    5ee0:	02dc0000 	sbcseq	r0, ip, #0
    5ee4:	000f5519 	andeq	r5, pc, r9, lsl r5	; <UNPREDICTABLE>
    5ee8:	02840500 	addeq	r0, r4, #0, 10
    5eec:	00000600 	andeq	r0, r0, r0, lsl #12
    5ef0:	3a1902e0 	bcc	646a78 <__bss_end__+0x63a298>
    5ef4:	0500000f 	streq	r0, [r0, #-15]
    5ef8:	085b0285 	ldmdaeq	fp, {r0, r2, r7, r9}^
    5efc:	02ec0000 	rsceq	r0, ip, #0
    5f00:	0b040e00 	bleq	109708 <__bss_end__+0xfcf28>
    5f04:	15000004 	strne	r0, [r0, #-4]
    5f08:	00000025 	andeq	r0, r0, r5, lsr #32
    5f0c:	0000058a 	andeq	r0, r0, sl, lsl #11
    5f10:	00042916 	andeq	r2, r4, r6, lsl r9
    5f14:	010a1600 	tsteq	sl, r0, lsl #12
    5f18:	8a160000 	bhi	585f20 <__bss_end__+0x579740>
    5f1c:	16000005 	strne	r0, [r0], -r5
    5f20:	00000025 	andeq	r0, r0, r5, lsr #32
    5f24:	19040e00 	stmdbne	r4, {r9, sl, fp}
    5f28:	0e000001 	cdpeq	0, 0, cr0, cr0, cr1, {0}
    5f2c:	00056c04 	andeq	r6, r5, r4, lsl #24
    5f30:	00861500 	addeq	r1, r6, r0, lsl #10
    5f34:	05b40000 	ldreq	r0, [r4, #0]!
    5f38:	29160000 	ldmdbcs	r6, {}	; <UNPREDICTABLE>
    5f3c:	16000004 	strne	r0, [r0], -r4
    5f40:	0000010a 	andeq	r0, r0, sl, lsl #2
    5f44:	00008616 	andeq	r8, r0, r6, lsl r6
    5f48:	00251600 	eoreq	r1, r5, r0, lsl #12
    5f4c:	0e000000 	cdpeq	0, 0, cr0, cr0, cr0, {0}
    5f50:	00059604 	andeq	r9, r5, r4, lsl #12
    5f54:	00251500 	eoreq	r1, r5, r0, lsl #10
    5f58:	05ce0000 	strbeq	r0, [lr]
    5f5c:	29160000 	ldmdbcs	r6, {}	; <UNPREDICTABLE>
    5f60:	16000004 	strne	r0, [r0], -r4
    5f64:	0000010a 	andeq	r0, r0, sl, lsl #2
    5f68:	ba040e00 	blt	109770 <__bss_end__+0xfcf90>
    5f6c:	09000005 	stmdbeq	r0, {r0, r2}
    5f70:	00000054 	andeq	r0, r0, r4, asr r0
    5f74:	000005e4 	andeq	r0, r0, r4, ror #11
    5f78:	0000cc0a 	andeq	ip, r0, sl, lsl #24
    5f7c:	09000200 	stmdbeq	r0, {r9}
    5f80:	00000054 	andeq	r0, r0, r4, asr r0
    5f84:	000005f4 	strdeq	r0, [r0], -r4
    5f88:	0000cc0a 	andeq	ip, r0, sl, lsl #24
    5f8c:	06000000 	streq	r0, [r0], -r0
    5f90:	0000115f 	andeq	r1, r0, pc, asr r1
    5f94:	e1011d05 	tst	r1, r5, lsl #26
    5f98:	1a000002 	bne	5fa8 <__code_start__-0x2058>
    5f9c:	000012e6 	andeq	r1, r0, r6, ror #5
    5fa0:	0121050c 	teqeq	r1, ip, lsl #10
    5fa4:	00000635 	andeq	r0, r0, r5, lsr r6
    5fa8:	00118718 	andseq	r8, r1, r8, lsl r7
    5fac:	01230500 	teqeq	r3, r0, lsl #10
    5fb0:	00000635 	andeq	r0, r0, r5, lsr r6
    5fb4:	10761800 	rsbsne	r1, r6, r0, lsl #16
    5fb8:	24050000 	strcs	r0, [r5], #-0
    5fbc:	00002501 	andeq	r2, r0, r1, lsl #10
    5fc0:	59180400 	ldmdbpl	r8, {sl}
    5fc4:	05000011 	streq	r0, [r0, #-17]
    5fc8:	063b0125 	ldrteq	r0, [fp], -r5, lsr #2
    5fcc:	00080000 	andeq	r0, r8, r0
    5fd0:	0600040e 	streq	r0, [r0], -lr, lsl #8
    5fd4:	040e0000 	streq	r0, [lr], #-0
    5fd8:	000005f4 	strdeq	r0, [r0], -r4
    5fdc:	000e8f1a 	andeq	r8, lr, sl, lsl pc
    5fe0:	3d050e00 	stccc	14, cr0, [r5, #-0]
    5fe4:	00067601 	andeq	r7, r6, r1, lsl #12
    5fe8:	11cd1800 	bicne	r1, sp, r0, lsl #16
    5fec:	3e050000 	cdpcc	0, 0, cr0, cr5, cr0, {0}
    5ff0:	00067601 	andeq	r7, r6, r1, lsl #12
    5ff4:	07180000 	ldreq	r0, [r8, -r0]
    5ff8:	05000012 	streq	r0, [r0, #-18]
    5ffc:	0676013f 			; <UNDEFINED> instruction: 0x0676013f
    6000:	18060000 	stmdane	r6, {}	; <UNPREDICTABLE>
    6004:	0000128b 	andeq	r1, r0, fp, lsl #5
    6008:	5b014005 	blpl	56024 <__bss_end__+0x49844>
    600c:	0c000000 	stceq	0, cr0, [r0], {-0}
    6010:	005b0900 	subseq	r0, fp, r0, lsl #18
    6014:	06860000 	streq	r0, [r6], r0
    6018:	cc0a0000 	stcgt	0, cr0, [sl], {-0}
    601c:	02000000 	andeq	r0, r0, #0
    6020:	05d01b00 	ldrbeq	r1, [r0, #2816]	; 0xb00
    6024:	07870257 			; <UNDEFINED> instruction: 0x07870257
    6028:	ca180000 	bgt	606030 <__bss_end__+0x5f9850>
    602c:	05000012 	streq	r0, [r0, #-18]
    6030:	002c0259 	eoreq	r0, ip, r9, asr r2
    6034:	18000000 	stmdane	r0, {}	; <UNPREDICTABLE>
    6038:	00001275 	andeq	r1, r0, r5, ror r2
    603c:	0c025a05 	stceq	10, cr5, [r2], {5}
    6040:	04000001 	streq	r0, [r0], #-1
    6044:	00109218 	andseq	r9, r0, r8, lsl r2
    6048:	025b0500 	subseq	r0, fp, #0, 10
    604c:	00000787 	andeq	r0, r0, r7, lsl #15
    6050:	13991808 	orrsne	r1, r9, #8, 16	; 0x80000
    6054:	5c050000 	stcpl	0, cr0, [r5], {-0}
    6058:	00019202 	andeq	r9, r1, r2, lsl #4
    605c:	31182400 	tstcc	r8, r0, lsl #8
    6060:	05000010 	streq	r0, [r0, #-16]
    6064:	0025025d 	eoreq	r0, r5, sp, asr r2
    6068:	18480000 	stmdane	r8, {}^	; <UNPREDICTABLE>
    606c:	00001182 	andeq	r1, r0, r2, lsl #3
    6070:	69025e05 	stmdbvs	r2, {r0, r2, r9, sl, fp, ip, lr}
    6074:	50000000 	andpl	r0, r0, r0
    6078:	0013af18 	andseq	sl, r3, r8, lsl pc
    607c:	025f0500 	subseq	r0, pc, #0, 10
    6080:	00000641 	andeq	r0, r0, r1, asr #12
    6084:	118d1858 	orrne	r1, sp, r8, asr r8
    6088:	60050000 	andvs	r0, r5, r0
    608c:	0000f402 	andeq	pc, r0, r2, lsl #8
    6090:	b4186800 	ldrlt	r6, [r8], #-2048	; 0x800
    6094:	05000013 	streq	r0, [r0, #-19]
    6098:	00f40261 	rscseq	r0, r4, r1, ror #4
    609c:	18700000 	ldmdane	r0!, {}^	; <UNPREDICTABLE>
    60a0:	00000ef4 	strdeq	r0, [r0], -r4
    60a4:	f4026205 	vst1.8	{d6-d9}, [r2], r5
    60a8:	78000000 	stmdavc	r0, {}	; <UNPREDICTABLE>
    60ac:	00130618 	andseq	r0, r3, r8, lsl r6
    60b0:	02630500 	rsbeq	r0, r3, #0, 10
    60b4:	00000797 	muleq	r0, r7, r7
    60b8:	10861880 	addne	r1, r6, r0, lsl #17
    60bc:	64050000 	strvs	r0, [r5], #-0
    60c0:	0007a702 	andeq	sl, r7, r2, lsl #14
    60c4:	98188800 	ldmdals	r8, {fp, pc}
    60c8:	05000012 	streq	r0, [r0, #-18]
    60cc:	00250265 	eoreq	r0, r5, r5, ror #4
    60d0:	18a00000 	stmiane	r0!, {}	; <UNPREDICTABLE>
    60d4:	00000fdd 	ldrdeq	r0, [r0], -sp
    60d8:	f4026605 	vst1.8	{d6-d8}, [r2], r5
    60dc:	a4000000 	strge	r0, [r0], #-0
    60e0:	000ee518 	andeq	lr, lr, r8, lsl r5
    60e4:	02670500 	rsbeq	r0, r7, #0, 10
    60e8:	000000f4 	strdeq	r0, [r0], -r4
    60ec:	0fcc18ac 	svceq	0x00cc18ac
    60f0:	68050000 	stmdavs	r5, {}	; <UNPREDICTABLE>
    60f4:	0000f402 	andeq	pc, r0, r2, lsl #8
    60f8:	ac18b400 	cfldrsge	mvf11, [r8], {-0}
    60fc:	0500000e 	streq	r0, [r0, #-14]
    6100:	00f40269 	rscseq	r0, r4, r9, ror #4
    6104:	18bc0000 	ldmne	ip!, {}	; <UNPREDICTABLE>
    6108:	00000ebb 			; <UNDEFINED> instruction: 0x00000ebb
    610c:	f4026a05 	vst1.8	{d6-d7}, [r2], r5
    6110:	c4000000 	strgt	r0, [r0], #-0
    6114:	00113f18 	andseq	r3, r1, r8, lsl pc
    6118:	026b0500 	rsbeq	r0, fp, #0, 10
    611c:	00000025 	andeq	r0, r0, r5, lsr #32
    6120:	120900cc 	andne	r0, r9, #204	; 0xcc
    6124:	97000001 	strls	r0, [r0, -r1]
    6128:	0a000007 	beq	614c <__code_start__-0x1eb4>
    612c:	000000cc 	andeq	r0, r0, ip, asr #1
    6130:	12090019 	andne	r0, r9, #25
    6134:	a7000001 	strge	r0, [r0, -r1]
    6138:	0a000007 	beq	615c <__code_start__-0x1ea4>
    613c:	000000cc 	andeq	r0, r0, ip, asr #1
    6140:	12090007 	andne	r0, r9, #7
    6144:	b7000001 	strlt	r0, [r0, -r1]
    6148:	0a000007 	beq	616c <__code_start__-0x1e94>
    614c:	000000cc 	andeq	r0, r0, ip, asr #1
    6150:	f01b0017 			; <UNDEFINED> instruction: 0xf01b0017
    6154:	db027005 	blle	a2170 <__bss_end__+0x95990>
    6158:	18000007 	stmdane	r0, {r0, r1, r2}
    615c:	000010ef 	andeq	r1, r0, pc, ror #1
    6160:	db027305 	blle	a2d7c <__bss_end__+0x9659c>
    6164:	00000007 	andeq	r0, r0, r7
    6168:	0012fd18 	andseq	pc, r2, r8, lsl sp	; <UNPREDICTABLE>
    616c:	02740500 	rsbseq	r0, r4, #0, 10
    6170:	000007eb 	andeq	r0, r0, fp, ror #15
    6174:	db090078 	blle	24635c <__bss_end__+0x239b7c>
    6178:	eb000002 	bl	6188 <__code_start__-0x1e78>
    617c:	0a000007 	beq	61a0 <__code_start__-0x1e60>
    6180:	000000cc 	andeq	r0, r0, ip, asr #1
    6184:	2c09001d 	stccs	0, cr0, [r9], {29}
    6188:	fb000000 	blx	6192 <__code_start__-0x1e6e>
    618c:	0a000007 	beq	61b0 <__code_start__-0x1e50>
    6190:	000000cc 	andeq	r0, r0, ip, asr #1
    6194:	f01c001d 			; <UNDEFINED> instruction: 0xf01c001d
    6198:	1d025505 	cfstr32ne	mvfx5, [r2, #-20]	; 0xffffffec
    619c:	1d000008 	stcne	0, cr0, [r0, #-32]	; 0xffffffe0
    61a0:	000011c6 	andeq	r1, r0, r6, asr #3
    61a4:	86026c05 	strhi	r6, [r2], -r5, lsl #24
    61a8:	1d000006 	stcne	0, cr0, [r0, #-24]	; 0xffffffe8
    61ac:	00001359 	andeq	r1, r0, r9, asr r3
    61b0:	b7027505 	strlt	r7, [r2, -r5, lsl #10]
    61b4:	00000007 	andeq	r0, r0, r7
    61b8:	00011209 	andeq	r1, r1, r9, lsl #4
    61bc:	00082d00 	andeq	r2, r8, r0, lsl #26
    61c0:	00cc0a00 	sbceq	r0, ip, r0, lsl #20
    61c4:	00180000 	andseq	r0, r8, r0
    61c8:	0008381e 	andeq	r3, r8, lr, lsl r8
    61cc:	04291600 	strteq	r1, [r9], #-1536	; 0x600
    61d0:	0e000000 	cdpeq	0, 0, cr0, cr0, cr0, {0}
    61d4:	00082d04 	andeq	r2, r8, r4, lsl #26
    61d8:	7c040e00 	stcvc	14, cr0, [r4], {-0}
    61dc:	1e000001 	cdpne	0, 0, cr0, cr0, cr1, {0}
    61e0:	0000084f 	andeq	r0, r0, pc, asr #16
    61e4:	00002516 	andeq	r2, r0, r6, lsl r5
    61e8:	040e0000 	streq	r0, [lr], #-0
    61ec:	00000855 	andeq	r0, r0, r5, asr r8
    61f0:	0844040e 	stmdaeq	r4, {r1, r2, r3, sl}^
    61f4:	f4090000 	vst4.8	{d0-d3}, [r9], r0
    61f8:	6b000005 	blvs	6214 <__code_start__-0x1dec>
    61fc:	0a000008 	beq	6224 <__code_start__-0x1ddc>
    6200:	000000cc 	andeq	r0, r0, ip, asr #1
    6204:	ac1f0002 	ldcge	0, cr0, [pc], {2}
    6208:	05000012 	streq	r0, [r0, #-18]
    620c:	042902fd 	strteq	r0, [r9], #-765	; 0x2fd
    6210:	a51f0000 	ldrge	r0, [pc, #-0]	; 6218 <__code_start__-0x1de8>
    6214:	05000012 	streq	r0, [r0, #-18]
    6218:	042f02fe 	strteq	r0, [pc], #-766	; 6220 <__code_start__-0x1de0>
    621c:	25150000 	ldrcs	r0, [r5, #-0]
    6220:	92000000 	andls	r0, r0, #0
    6224:	16000008 	strne	r0, [r0], -r8
    6228:	00000025 	andeq	r0, r0, r5, lsr #32
    622c:	0a8c2000 	beq	fe30e234 <__bss_end__+0xfe301a54>
    6230:	1d060000 	stcne	0, cr0, [r6, #-0]
    6234:	0000089d 	muleq	r0, sp, r8
    6238:	0883040e 	stmeq	r3, {r1, r2, r3, sl}
    623c:	25150000 	ldrcs	r0, [r5, #-0]
    6240:	b2000000 	andlt	r0, r0, #0
    6244:	16000008 	strne	r0, [r0], -r8
    6248:	0000058a 	andeq	r0, r0, sl, lsl #11
    624c:	0ac92000 	beq	ff24e254 <__bss_end__+0xff241a74>
    6250:	22060000 	andcs	r0, r6, #0
    6254:	000008bd 			; <UNDEFINED> instruction: 0x000008bd
    6258:	08a3040e 	stmiaeq	r3!, {r1, r2, r3, sl}
    625c:	01210000 	teqeq	r1, r0
    6260:	00000054 	andeq	r0, r0, r4, asr r0
    6264:	09000c08 	stmdbeq	r0, {r3, sl, fp}
    6268:	d5220000 	strle	r0, [r2, #-0]!
    626c:	0000000e 	andeq	r0, r0, lr
    6270:	0012ec22 	andseq	lr, r2, r2, lsr #24
    6274:	44220100 	strtmi	r0, [r2], #-256	; 0x100
    6278:	04000013 	streq	r0, [r0], #-19
    627c:	000f1622 	andeq	r1, pc, r2, lsr #12
    6280:	ad220500 	cfstr32ge	mvfx0, [r2, #-0]
    6284:	06000010 			; <UNDEFINED> instruction: 0x06000010
    6288:	00136122 	andseq	r6, r3, r2, lsr #2
    628c:	70220700 	eorvc	r0, r2, r0, lsl #14
    6290:	03000013 	movweq	r0, #19
    6294:	00137f22 	andseq	r7, r3, r2, lsr #30
    6298:	10000200 	andne	r0, r0, r0, lsl #4
    629c:	00000f83 	andeq	r0, r0, r3, lsl #31
    62a0:	9006072c 	andls	r0, r6, ip, lsr #14
    62a4:	11000009 	tstne	r0, r9
    62a8:	07006f69 	streq	r6, [r0, -r9, ror #30]
    62ac:	00003309 	andeq	r3, r0, r9, lsl #6
    62b0:	69110000 	ldmdbvs	r1, {}	; <UNPREDICTABLE>
    62b4:	07007265 	streq	r7, [r0, -r5, ror #4]
    62b8:	0000330a 	andeq	r3, r0, sl, lsl #6
    62bc:	69110400 	ldmdbvs	r1, {sl}
    62c0:	07007269 	streq	r7, [r0, -r9, ror #4]
    62c4:	00003311 	andeq	r3, r0, r1, lsl r3
    62c8:	6c110800 	ldcvs	8, cr0, [r1], {-0}
    62cc:	07007263 	streq	r7, [r0, -r3, ror #4]
    62d0:	00003313 	andeq	r3, r0, r3, lsl r3
    62d4:	6d110c00 	ldcvs	12, cr0, [r1, #-0]
    62d8:	07007263 	streq	r7, [r0, -r3, ror #4]
    62dc:	00003314 	andeq	r3, r0, r4, lsl r3
    62e0:	6c111000 	ldcvs	0, cr1, [r1], {-0}
    62e4:	07007273 	smlsdxeq	r0, r3, r2, r7
    62e8:	00003315 	andeq	r3, r0, r5, lsl r3
    62ec:	6d111400 	cfldrsvs	mvf1, [r1, #-0]
    62f0:	07007273 	smlsdxeq	r0, r3, r2, r7
    62f4:	00003316 	andeq	r3, r0, r6, lsl r3
    62f8:	ff0c1800 			; <UNDEFINED> instruction: 0xff0c1800
    62fc:	07000011 	smladeq	r0, r1, r0, r0
    6300:	00003317 	andeq	r3, r0, r7, lsl r3
    6304:	2b0c1c00 	blcs	30d30c <__bss_end__+0x300b2c>
    6308:	0700000f 	streq	r0, [r0, -pc]
    630c:	0000331b 	andeq	r3, r0, fp, lsl r3
    6310:	0b0c2000 	bleq	30e318 <__bss_end__+0x301b38>
    6314:	0700000f 	streq	r0, [r0, -pc]
    6318:	0000331d 	andeq	r3, r0, sp, lsl r3
    631c:	e90c2400 	stmdb	ip, {sl, sp}
    6320:	07000011 	smladeq	r0, r1, r0, r0
    6324:	0000331e 	andeq	r3, r0, lr, lsl r3
    6328:	23002800 	movwcs	r2, #2048	; 0x800
    632c:	00000ff3 	strdeq	r0, [r0], -r3
    6330:	09a50701 	stmibeq	r5!, {r0, r8, r9, sl}
    6334:	50040000 	andpl	r0, r4, r0
    6338:	040e2021 	streq	r2, [lr], #-33	; 0x21
    633c:	00000033 	andeq	r0, r0, r3, lsr r0
    6340:	00099f0f 	andeq	r9, r9, pc, lsl #30
    6344:	11192300 	tstne	r9, r0, lsl #6
    6348:	28010000 	stmdacs	r1, {}	; <UNPREDICTABLE>
    634c:	000009bf 			; <UNDEFINED> instruction: 0x000009bf
    6350:	20215040 	eorcs	r5, r1, r0, asr #32
    6354:	0900040e 	stmdbeq	r0, {r1, r2, r3, sl}
    6358:	b90f0000 	stmdblt	pc, {}	; <UNPREDICTABLE>
    635c:	24000009 	strcs	r0, [r0], #-9
    6360:	00001336 	andeq	r1, r0, r6, lsr r3
    6364:	0025a701 	eoreq	sl, r5, r1, lsl #14
    6368:	ae280000 	cdpge	0, 2, cr0, cr8, cr0, {0}
    636c:	00100000 	andseq	r0, r0, r0
    6370:	9c010000 	stcls	0, cr0, [r1], {-0}
    6374:	000009f0 	strdeq	r0, [r0], -r0	; <UNPREDICTABLE>
    6378:	00ae3025 	adceq	r3, lr, r5, lsr #32
    637c:	000c9c00 	andeq	r9, ip, r0, lsl #24
    6380:	ae342500 	cfabs32ge	mvfx2, mvfx4
    6384:	0ad20000 	beq	ff48638c <__bss_end__+0xff479bac>
    6388:	26000000 	strcs	r0, [r0], -r0
    638c:	00000a71 	andeq	r0, r0, r1, ror sl
    6390:	adf89f01 	ldclge	15, cr9, [r8, #4]!
    6394:	00300000 	eorseq	r0, r0, r0
    6398:	9c010000 	stcls	0, cr0, [r1], {-0}
    639c:	00000a4e 	andeq	r0, r0, lr, asr #20
    63a0:	01006327 	tsteq	r0, r7, lsr #6
    63a4:	00002c9f 	muleq	r0, pc, ip	; <UNPREDICTABLE>
    63a8:	001cc000 	andseq	ip, ip, r0
    63ac:	ae042500 	cfsh32ge	mvfx2, mvfx4, #0
    63b0:	0c9c0000 	ldceq	0, cr0, [ip], {0}
    63b4:	08250000 	stmdaeq	r5!, {}	; <UNPREDICTABLE>
    63b8:	a50000ae 	strge	r0, [r0, #-174]	; 0xae
    63bc:	2800000a 	stmdacs	r0, {r1, r3}
    63c0:	0000ae1c 	andeq	sl, r0, ip, lsl lr
    63c4:	00000ca7 	andeq	r0, r0, r7, lsr #25
    63c8:	00000a44 	andeq	r0, r0, r4, asr #20
    63cc:	05500129 	ldrbeq	r0, [r0, #-297]	; 0x129
    63d0:	2150400c 	cmpcs	r0, ip
    63d4:	51012920 	tstpl	r1, r0, lsr #18
    63d8:	08007405 	stmdaeq	r0, {r0, r2, sl, ip, sp, lr}
    63dc:	25001aff 	strcs	r1, [r0, #-2815]	; 0xaff
    63e0:	0000ae20 	andeq	sl, r0, r0, lsr #28
    63e4:	00000c9c 	muleq	r0, ip, ip
    63e8:	10562400 	subsne	r2, r6, r0, lsl #8
    63ec:	97010000 	strls	r0, [r1, -r0]
    63f0:	00000025 	andeq	r0, r0, r5, lsr #32
    63f4:	0000adc8 	andeq	sl, r0, r8, asr #27
    63f8:	00000030 	andeq	r0, r0, r0, lsr r0
    63fc:	0aa59c01 	beq	fe96d408 <__bss_end__+0xfe960c28>
    6400:	632a0000 	teqvs	sl, #0
    6404:	259b0100 	ldrcs	r0, [fp, #256]	; 0x100
    6408:	01000000 	mrseq	r0, (UNDEF: 0)
    640c:	add02554 	cfldr64ge	mvdx2, [r0, #336]	; 0x150
    6410:	0c9c0000 	ldceq	0, cr0, [ip], {0}
    6414:	d4250000 	strtle	r0, [r5], #-0
    6418:	d20000ad 	andle	r0, r0, #173	; 0xad
    641c:	2800000a 	stmdacs	r0, {r1, r3}
    6420:	0000ade4 	andeq	sl, r0, r4, ror #27
    6424:	00000cb2 			; <UNDEFINED> instruction: 0x00000cb2
    6428:	00000a9b 	muleq	r0, fp, sl
    642c:	05500129 	ldrbeq	r0, [r0, #-297]	; 0x129
    6430:	2150400c 	cmpcs	r0, ip
    6434:	ec250020 	stc	0, cr0, [r5], #-128	; 0xffffff80
    6438:	9c0000ad 	stcls	0, cr0, [r0], {173}	; 0xad
    643c:	0000000c 	andeq	r0, r0, ip
    6440:	00100a24 	andseq	r0, r0, r4, lsr #20
    6444:	25880100 	strcs	r0, [r8, #256]	; 0x100
    6448:	a8000000 	stmdage	r0, {}	; <UNPREDICTABLE>
    644c:	200000ad 	andcs	r0, r0, sp, lsr #1
    6450:	01000000 	mrseq	r0, (UNDEF: 0)
    6454:	000ad29c 	muleq	sl, ip, r2
    6458:	adb42b00 	ldcge	11, cr2, [r4]
    645c:	0cb20000 	ldceq	0, cr0, [r2]
    6460:	01290000 	teqeq	r9, r0
    6464:	640c0550 	strvs	r0, [ip], #-1360	; 0x550
    6468:	00202150 	eoreq	r2, r0, r0, asr r1
    646c:	13162400 	tstne	r6, #0, 8
    6470:	7f010000 	svcvc	0x00010000
    6474:	00000025 	andeq	r0, r0, r5, lsr #32
    6478:	0000ad90 	muleq	r0, r0, sp
    647c:	00000018 	andeq	r0, r0, r8, lsl r0
    6480:	0aff9c01 	beq	fffed48c <__bss_end__+0xfffe0cac>
    6484:	9c2b0000 	stcls	0, cr0, [fp], #-0
    6488:	b20000ad 	andlt	r0, r0, #173	; 0xad
    648c:	2900000c 	stmdbcs	r0, {r2, r3}
    6490:	0c055001 	stceq	0, cr5, [r5], {1}
    6494:	20215064 	eorcs	r5, r1, r4, rrx
    6498:	a2260000 	eorge	r0, r6, #0
    649c:	0100000e 	tsteq	r0, lr
    64a0:	00ace03a 	adceq	lr, ip, sl, lsr r0
    64a4:	0000b000 	andeq	fp, r0, r0
    64a8:	3d9c0100 	ldfccs	f0, [ip]
    64ac:	2800000c 	stmdacs	r0, {r2, r3}
    64b0:	0000acf0 	strdeq	sl, [r0], -r0
    64b4:	00000cbd 			; <UNDEFINED> instruction: 0x00000cbd
    64b8:	00000b2c 	andeq	r0, r0, ip, lsr #22
    64bc:	01500129 	cmpeq	r0, r9, lsr #2
    64c0:	5101293e 	tstpl	r1, lr, lsr r9
    64c4:	28003201 	stmdacs	r0, {r0, r9, ip, sp}
    64c8:	0000acfc 	strdeq	sl, [r0], -ip
    64cc:	00000cbd 			; <UNDEFINED> instruction: 0x00000cbd
    64d0:	00000b44 	andeq	r0, r0, r4, asr #22
    64d4:	01500129 	cmpeq	r0, r9, lsr #2
    64d8:	5101293f 	tstpl	r1, pc, lsr r9
    64dc:	25003201 	strcs	r3, [r0, #-513]	; 0x201
    64e0:	0000ad00 	andeq	sl, r0, r0, lsl #26
    64e4:	00000c9c 	muleq	r0, ip, ip
    64e8:	00ad0c28 	adceq	r0, sp, r8, lsr #24
    64ec:	000c3d00 	andeq	r3, ip, r0, lsl #26
    64f0:	000b6900 	andeq	r6, fp, r0, lsl #18
    64f4:	50012900 	andpl	r2, r1, r0, lsl #18
    64f8:	50040c05 	andpl	r0, r4, r5, lsl #24
    64fc:	01292021 	teqeq	r9, r1, lsr #32
    6500:	00310151 	eorseq	r0, r1, r1, asr r1
    6504:	00ad1025 	adceq	r1, sp, r5, lsr #32
    6508:	000c9c00 	andeq	r9, ip, r0, lsl #24
    650c:	ad202800 	stcge	8, cr2, [r0, #-0]
    6510:	0ca70000 	stceq	0, cr0, [r7]
    6514:	0b8b0000 	bleq	fe2c651c <__bss_end__+0xfe2b9d3c>
    6518:	01290000 	teqeq	r9, r0
    651c:	00740250 	rsbseq	r0, r4, r0, asr r2
    6520:	01510129 	cmpeq	r1, r9, lsr #2
    6524:	2c280030 	stccs	0, cr0, [r8], #-192	; 0xffffff40
    6528:	a70000ad 	strge	r0, [r0, -sp, lsr #1]
    652c:	a700000c 	strge	r0, [r0, -ip]
    6530:	2900000b 	stmdbcs	r0, {r0, r1, r3}
    6534:	0c055001 	stceq	0, cr5, [r5], {1}
    6538:	20215044 	eorcs	r5, r1, r4, asr #32
    653c:	01510129 	cmpeq	r1, r9, lsr #2
    6540:	38280030 	stmdacc	r8!, {r4, r5}
    6544:	a70000ad 	strge	r0, [r0, -sp, lsr #1]
    6548:	c300000c 	movwgt	r0, #12
    654c:	2900000b 	stmdbcs	r0, {r0, r1, r3}
    6550:	0c055001 	stceq	0, cr5, [r5], {1}
    6554:	2021504c 	eorcs	r5, r1, ip, asr #32
    6558:	01510129 	cmpeq	r1, r9, lsr #2
    655c:	44280033 	strtmi	r0, [r8], #-51	; 0x33
    6560:	a70000ad 	strge	r0, [r0, -sp, lsr #1]
    6564:	df00000c 	svcle	0x0000000c
    6568:	2900000b 	stmdbcs	r0, {r0, r1, r3}
    656c:	0c055001 	stceq	0, cr5, [r5], {1}
    6570:	20215050 	eorcs	r5, r1, r0, asr r0
    6574:	01510129 	cmpeq	r1, r9, lsr #2
    6578:	50280030 	eorpl	r0, r8, r0, lsr r0
    657c:	a70000ad 	strge	r0, [r0, -sp, lsr #1]
    6580:	fc00000c 	stc2	0, cr0, [r0], {12}
    6584:	2900000b 	stmdbcs	r0, {r0, r1, r3}
    6588:	0c055001 	stceq	0, cr5, [r5], {1}
    658c:	20215048 	eorcs	r5, r1, r8, asr #32
    6590:	02510129 	subseq	r0, r1, #1073741834	; 0x4000000a
    6594:	2800c708 	stmdacs	r0, {r3, r8, r9, sl, lr, pc}
    6598:	0000ad5c 	andeq	sl, r0, ip, asr sp
    659c:	00000ca7 	andeq	r0, r0, r7, lsr #25
    65a0:	00000c1a 	andeq	r0, r0, sl, lsl ip
    65a4:	05500129 	ldrbeq	r0, [r0, #-297]	; 0x129
    65a8:	2150680c 	cmpcs	r0, ip, lsl #16
    65ac:	51012920 	tstpl	r1, r0, lsr #18
    65b0:	010e0a03 	tsteq	lr, r3, lsl #20
    65b4:	ad682800 	stclge	8, cr2, [r8, #-0]
    65b8:	0ca70000 	stceq	0, cr0, [r7]
    65bc:	0c330000 	ldceq	0, cr0, [r3], #-0
    65c0:	01290000 	teqeq	r9, r0
    65c4:	00740250 	rsbseq	r0, r4, r0, asr r2
    65c8:	01510129 	cmpeq	r1, r9, lsr #2
    65cc:	6c250033 	stcvs	0, cr0, [r5], #-204	; 0xffffff34
    65d0:	9c0000ad 	stcls	0, cr0, [r0], {173}	; 0xad
    65d4:	0000000c 	andeq	r0, r0, ip
    65d8:	00132e2c 	andseq	r2, r3, ip, lsr #28
    65dc:	c02d0100 	eorgt	r0, sp, r0, lsl #2
    65e0:	200000ac 	andcs	r0, r0, ip, lsr #1
    65e4:	01000000 	mrseq	r0, (UNDEF: 0)
    65e8:	000c959c 	muleq	ip, ip, r5
    65ec:	02582d00 	subseq	r2, r8, #0, 26
    65f0:	2d010000 	stccs	0, cr0, [r1, #-0]
    65f4:	00000c95 	muleq	r0, r5, ip
    65f8:	00001cde 	ldrdeq	r1, [r0], -lr
    65fc:	6c617627 	stclvs	6, cr7, [r1], #-156	; 0xffffff64
    6600:	2c2d0100 	stfcss	f0, [sp], #-0
    6604:	fc000000 	stc2	0, cr0, [r0], {-0}
    6608:	2800001c 	stmdacs	r0, {r2, r3, r4}
    660c:	0000acd0 	ldrdeq	sl, [r0], -r0
    6610:	00000cb2 			; <UNDEFINED> instruction: 0x00000cb2
    6614:	00000c84 	andeq	r0, r0, r4, lsl #25
    6618:	02500129 	subseq	r0, r0, #1073741834	; 0x4000000a
    661c:	2b000074 	blcs	67f4 <__code_start__-0x180c>
    6620:	0000acdc 	ldrdeq	sl, [r0], -ip
    6624:	00000ca7 	andeq	r0, r0, r7, lsr #25
    6628:	02500129 	subseq	r0, r0, #1073741834	; 0x4000000a
    662c:	00000074 	andeq	r0, r0, r4, ror r0
    6630:	0c9b040e 	cfldrseq	mvf0, [fp], {14}
    6634:	2f2e0000 	svccs	0x002e0000
    6638:	00000d53 	andeq	r0, r0, r3, asr sp
    663c:	00000d53 	andeq	r0, r0, r3, asr sp
    6640:	0d2f8906 	stceq	9, cr8, [pc, #-24]!	; 6630 <__code_start__-0x19d0>
    6644:	0d000012 	stceq	0, cr0, [r0, #-72]	; 0xffffffb8
    6648:	06000012 			; <UNDEFINED> instruction: 0x06000012
    664c:	13102f9c 	tstne	r0, #156, 30	; 0x270
    6650:	13100000 	tstne	r0, #0
    6654:	a8060000 	stmdage	r6, {}	; <UNPREDICTABLE>
    6658:	0010dd2f 	andseq	sp, r0, pc, lsr #26
    665c:	0010dd00 	andseq	sp, r0, r0, lsl #26
    6660:	00190800 	andseq	r0, r9, r0, lsl #16
    6664:	00000b70 	andeq	r0, r0, r0, ror fp
    6668:	19050004 	stmdbne	r5, {r2}
    666c:	01040000 	mrseq	r0, (UNDEF: 4)
    6670:	00001213 	andeq	r1, r0, r3, lsl r2
    6674:	0013e30c 	andseq	lr, r3, ip, lsl #6
    6678:	000f9700 	andeq	r9, pc, r0, lsl #14
    667c:	00ae3800 	adceq	r3, lr, r0, lsl #16
    6680:	00012000 	andeq	r2, r1, r0
    6684:	00161500 	andseq	r1, r6, r0, lsl #10
    6688:	05040200 	streq	r0, [r4, #-512]	; 0x200
    668c:	00746e69 	rsbseq	r6, r4, r9, ror #28
    6690:	25070403 	strcs	r0, [r7, #-1027]	; 0x403
    6694:	04000000 	streq	r0, [r0], #-0
    6698:	0000002c 	andeq	r0, r0, ip, lsr #32
    669c:	0a060103 	beq	186ab0 <__bss_end__+0x17a2d0>
    66a0:	03000001 	movweq	r0, #1
    66a4:	01770502 	cmneq	r7, r2, lsl #10
    66a8:	04030000 	streq	r0, [r3], #-0
    66ac:	00000505 	andeq	r0, r0, r5, lsl #10
    66b0:	05080300 	streq	r0, [r8, #-768]	; 0x300
    66b4:	00000000 	andeq	r0, r0, r0
    66b8:	08080103 	stmdaeq	r8, {r0, r1, r8}
    66bc:	03000001 	movweq	r0, #1
    66c0:	01460702 	cmpeq	r6, r2, lsl #14
    66c4:	04030000 	streq	r0, [r3], #-0
    66c8:	00002007 	andeq	r2, r0, r7
    66cc:	07080300 	streq	r0, [r8, -r0, lsl #6]
    66d0:	0000001b 	andeq	r0, r0, fp, lsl r0
    66d4:	00112805 	andseq	r2, r1, r5, lsl #16
    66d8:	25070200 	strcs	r0, [r7, #-512]	; 0x200
    66dc:	05000000 	streq	r0, [r0, #-0]
    66e0:	00001112 	andeq	r1, r0, r2, lsl r1
    66e4:	00462c03 	subeq	r2, r6, r3, lsl #24
    66e8:	ee050000 	cdp	0, 0, cr0, cr5, cr0, {0}
    66ec:	03000011 	movweq	r0, #17
    66f0:	00004672 	andeq	r4, r0, r2, ror r6
    66f4:	10bc0600 	adcsne	r0, ip, r0, lsl #12
    66f8:	65040000 	strvs	r0, [r4, #-0]
    66fc:	00002c01 	andeq	r2, r0, r1, lsl #24
    6700:	03040700 	movweq	r0, #18176	; 0x4700
    6704:	0000bca6 	andeq	fp, r0, r6, lsr #25
    6708:	10a70800 	adcne	r0, r7, r0, lsl #16
    670c:	a8030000 	stmdage	r3, {}	; <UNPREDICTABLE>
    6710:	00000091 	muleq	r0, r1, r0
    6714:	00104f08 	andseq	r4, r0, r8, lsl #30
    6718:	bca90300 	stclt	3, cr0, [r9]
    671c:	00000000 	andeq	r0, r0, r0
    6720:	00005409 	andeq	r5, r0, r9, lsl #8
    6724:	0000cc00 	andeq	ip, r0, r0, lsl #24
    6728:	00cc0a00 	sbceq	r0, ip, r0, lsl #20
    672c:	00030000 	andeq	r0, r3, r0
    6730:	81070403 	tsthi	r7, r3, lsl #8
    6734:	0b000001 	bleq	6740 <__code_start__-0x18c0>
    6738:	f4a30308 	vld4.8	{d0[0],d1[0],d2[0],d3[0]}, [r3], r8
    673c:	0c000000 	stceq	0, cr0, [r0], {-0}
    6740:	000011d3 	ldrdeq	r1, [r0], -r3
    6744:	0025a503 	eoreq	sl, r5, r3, lsl #10
    6748:	0c000000 	stceq	0, cr0, [r0], {-0}
    674c:	000011db 	ldrdeq	r1, [r0], -fp
    6750:	009daa03 	addseq	sl, sp, r3, lsl #20
    6754:	00040000 	andeq	r0, r4, r0
    6758:	00116605 	andseq	r6, r1, r5, lsl #12
    675c:	d3ab0300 			; <UNDEFINED> instruction: 0xd3ab0300
    6760:	05000000 	streq	r0, [r0, #-0]
    6764:	00001018 	andeq	r1, r0, r8, lsl r0
    6768:	0070af03 	rsbseq	sl, r0, r3, lsl #30
    676c:	040d0000 	streq	r0, [sp], #-0
    6770:	0112040e 	tsteq	r2, lr, lsl #8
    6774:	01030000 	mrseq	r0, (UNDEF: 3)
    6778:	00011108 	andeq	r1, r1, r8, lsl #2
    677c:	01120400 	tsteq	r2, r0, lsl #8
    6780:	90050000 	andls	r0, r5, r0
    6784:	05000012 	streq	r0, [r0, #-18]
    6788:	00006216 	andeq	r6, r0, r6, lsl r2
    678c:	10290f00 	eorne	r0, r9, r0, lsl #30
    6790:	05180000 	ldreq	r0, [r8, #-0]
    6794:	00017c2d 	andeq	r7, r1, sp, lsr #24
    6798:	11870c00 	orrne	r0, r7, r0, lsl #24
    679c:	2f050000 	svccs	0x00050000
    67a0:	0000017c 	andeq	r0, r0, ip, ror r1
    67a4:	6b5f1000 	blvs	17ca7ac <__bss_end__+0x17bdfcc>
    67a8:	25300500 	ldrcs	r0, [r0, #-1280]!	; 0x500
    67ac:	04000000 	streq	r0, [r0], #-0
    67b0:	0011be0c 	andseq	fp, r1, ip, lsl #28
    67b4:	25300500 	ldrcs	r0, [r0, #-1280]!	; 0x500
    67b8:	08000000 	stmdaeq	r0, {}	; <UNPREDICTABLE>
    67bc:	0010040c 	andseq	r0, r0, ip, lsl #8
    67c0:	25300500 	ldrcs	r0, [r0, #-1280]!	; 0x500
    67c4:	0c000000 	stceq	0, cr0, [r0], {-0}
    67c8:	0012d70c 	andseq	sp, r2, ip, lsl #14
    67cc:	25300500 	ldrcs	r0, [r0, #-1280]!	; 0x500
    67d0:	10000000 	andne	r0, r0, r0
    67d4:	00785f10 	rsbseq	r5, r8, r0, lsl pc
    67d8:	01823105 	orreq	r3, r2, r5, lsl #2
    67dc:	00140000 	andseq	r0, r4, r0
    67e0:	0129040e 	teqeq	r9, lr, lsl #8
    67e4:	1e090000 	cdpne	0, 0, cr0, cr9, cr0, {0}
    67e8:	92000001 	andls	r0, r0, #1
    67ec:	0a000001 	beq	67f8 <__code_start__-0x1808>
    67f0:	000000cc 	andeq	r0, r0, ip, asr #1
    67f4:	4a0f0000 	bmi	3c67fc <__bss_end__+0x3ba01c>
    67f8:	24000010 	strcs	r0, [r0], #-16
    67fc:	020b3505 	andeq	r3, fp, #20971520	; 0x1400000
    6800:	020c0000 	andeq	r0, ip, #0
    6804:	0500000f 	streq	r0, [r0, #-15]
    6808:	00002537 	andeq	r2, r0, r7, lsr r5
    680c:	f60c0000 			; <UNDEFINED> instruction: 0xf60c0000
    6810:	05000011 	streq	r0, [r0, #-17]
    6814:	00002538 	andeq	r2, r0, r8, lsr r5
    6818:	300c0400 	andcc	r0, ip, r0, lsl #8
    681c:	0500000f 	streq	r0, [r0, #-15]
    6820:	00002539 	andeq	r2, r0, r9, lsr r5
    6824:	c70c0800 	strgt	r0, [ip, -r0, lsl #16]
    6828:	05000013 	streq	r0, [r0, #-19]
    682c:	0000253a 	andeq	r2, r0, sl, lsr r5
    6830:	f60c0c00 			; <UNDEFINED> instruction: 0xf60c0c00
    6834:	05000010 	streq	r0, [r0, #-16]
    6838:	0000253b 	andeq	r2, r0, fp, lsr r5
    683c:	cb0c1000 	blgt	30a844 <__bss_end__+0x2fe064>
    6840:	05000010 	streq	r0, [r0, #-16]
    6844:	0000253c 	andeq	r2, r0, ip, lsr r5
    6848:	dc0c1400 	cfstrsle	mvf1, [ip], {-0}
    684c:	05000012 	streq	r0, [r0, #-18]
    6850:	0000253d 	andeq	r2, r0, sp, lsr r5
    6854:	480c1800 	stmdami	ip, {fp, ip}
    6858:	05000011 	streq	r0, [r0, #-17]
    685c:	0000253e 	andeq	r2, r0, lr, lsr r5
    6860:	8e0c1c00 	cdphi	12, 0, cr1, cr12, cr0, {0}
    6864:	05000013 	streq	r0, [r0, #-19]
    6868:	0000253f 	andeq	r2, r0, pc, lsr r5
    686c:	11002000 	mrsne	r2, (UNDEF: 0)
    6870:	00000f3f 	andeq	r0, r0, pc, lsr pc
    6874:	48050108 	stmdami	r5, {r3, r8}
    6878:	0000024b 	andeq	r0, r0, fp, asr #4
    687c:	000feb0c 	andeq	lr, pc, ip, lsl #22
    6880:	4b490500 	blmi	1247c88 <__bss_end__+0x123b4a8>
    6884:	00000002 	andeq	r0, r0, r2
    6888:	000e7d0c 	andeq	r7, lr, ip, lsl #26
    688c:	4b4a0500 	blmi	1287c94 <__bss_end__+0x127b4b4>
    6890:	80000002 	andhi	r0, r0, r2
    6894:	00128212 	andseq	r8, r2, r2, lsl r2
    6898:	1e4c0500 	cdpne	5, 4, cr0, cr12, cr0, {0}
    689c:	00000001 	andeq	r0, r0, r1
    68a0:	0f641201 	svceq	0x00641201
    68a4:	4f050000 	svcmi	0x00050000
    68a8:	0000011e 	andeq	r0, r0, lr, lsl r1
    68ac:	09000104 	stmdbeq	r0, {r2, r8}
    68b0:	0000010a 	andeq	r0, r0, sl, lsl #2
    68b4:	0000025b 	andeq	r0, r0, fp, asr r2
    68b8:	0000cc0a 	andeq	ip, r0, sl, lsl #24
    68bc:	11001f00 	tstne	r0, r0, lsl #30
    68c0:	000010ff 	strdeq	r1, [r0], -pc	; <UNPREDICTABLE>
    68c4:	5b050190 	blpl	146f0c <__bss_end__+0x13a72c>
    68c8:	00000299 	muleq	r0, r9, r2
    68cc:	0011870c 	andseq	r8, r1, ip, lsl #14
    68d0:	995c0500 	ldmdbls	ip, {r8, sl}^
    68d4:	00000002 	andeq	r0, r0, r2
    68d8:	00119f0c 	andseq	r9, r1, ip, lsl #30
    68dc:	255d0500 	ldrbcs	r0, [sp, #-1280]	; 0x500
    68e0:	04000000 	streq	r0, [r0], #-0
    68e4:	000fff0c 	andeq	pc, pc, ip, lsl #30
    68e8:	9f5f0500 	svcls	0x005f0500
    68ec:	08000002 	stmdaeq	r0, {r1}
    68f0:	000f3f0c 	andeq	r3, pc, ip, lsl #30
    68f4:	0b600500 	bleq	1807cfc <__bss_end__+0x17fb51c>
    68f8:	88000002 	stmdahi	r0, {r1}
    68fc:	5b040e00 	blpl	10a104 <__bss_end__+0xfd924>
    6900:	09000002 	stmdbeq	r0, {r1}
    6904:	000002af 	andeq	r0, r0, pc, lsr #5
    6908:	000002af 	andeq	r0, r0, pc, lsr #5
    690c:	0000cc0a 	andeq	ip, r0, sl, lsl #24
    6910:	0e001f00 	cdpeq	15, 0, cr1, cr0, cr0, {0}
    6914:	0002b504 	andeq	fp, r2, r4, lsl #10
    6918:	520f1300 	andpl	r1, pc, #0, 6
    691c:	08000011 	stmdaeq	r0, {r0, r4}
    6920:	02db7305 	sbcseq	r7, fp, #335544320	; 0x14000000
    6924:	250c0000 	strcs	r0, [ip, #-0]
    6928:	0500000f 	streq	r0, [r0, #-15]
    692c:	0002db74 	andeq	sp, r2, r4, ror fp
    6930:	890c0000 	stmdbhi	ip, {}	; <UNPREDICTABLE>
    6934:	0500000e 	streq	r0, [r0, #-14]
    6938:	00002575 	andeq	r2, r0, r5, ror r5
    693c:	0e000400 	cfcpyseq	mvf0, mvf0
    6940:	00005404 	andeq	r5, r0, r4, lsl #8
    6944:	11710f00 	cmnne	r1, r0, lsl #30
    6948:	05680000 	strbeq	r0, [r8, #-0]!
    694c:	00040bb3 			; <UNDEFINED> instruction: 0x00040bb3
    6950:	705f1000 	subsvc	r1, pc, r0
    6954:	dbb40500 	blle	fed07d5c <__bss_end__+0xfecfb57c>
    6958:	00000002 	andeq	r0, r0, r2
    695c:	00725f10 	rsbseq	r5, r2, r0, lsl pc
    6960:	0025b505 	eoreq	fp, r5, r5, lsl #10
    6964:	10040000 	andne	r0, r4, r0
    6968:	0500775f 	streq	r7, [r0, #-1887]	; 0x75f
    696c:	000025b6 			; <UNDEFINED> instruction: 0x000025b6
    6970:	5d0c0800 	stcpl	8, cr0, [ip, #-0]
    6974:	0500000f 	streq	r0, [r0, #-15]
    6978:	00003fb7 			; <UNDEFINED> instruction: 0x00003fb7
    697c:	700c0c00 	andvc	r0, ip, r0, lsl #24
    6980:	05000010 	streq	r0, [r0, #-16]
    6984:	00003fb8 			; <UNDEFINED> instruction: 0x00003fb8
    6988:	5f100e00 	svcpl	0x00100e00
    698c:	05006662 	streq	r6, [r0, #-1634]	; 0x662
    6990:	0002b6b9 			; <UNDEFINED> instruction: 0x0002b6b9
    6994:	cc0c1000 	stcgt	0, cr1, [ip], {-0}
    6998:	0500000e 	streq	r0, [r0, #-14]
    699c:	000025ba 			; <UNDEFINED> instruction: 0x000025ba
    69a0:	4d0c1800 	stcmi	8, cr1, [ip, #-0]
    69a4:	0500000f 	streq	r0, [r0, #-15]
    69a8:	00010ac1 	andeq	r0, r1, r1, asr #21
    69ac:	ee0c1c00 	cdp	12, 0, cr1, cr12, cr0, {0}
    69b0:	05000013 	streq	r0, [r0, #-19]
    69b4:	000566c3 	andeq	r6, r5, r3, asr #13
    69b8:	080c2000 	stmdaeq	ip, {sp}
    69bc:	05000014 	streq	r0, [r0, #-20]
    69c0:	000590c5 	andeq	r9, r5, r5, asr #1
    69c4:	e30c2400 	movw	r2, #50176	; 0xc400
    69c8:	05000011 	streq	r0, [r0, #-17]
    69cc:	0005b4c8 	andeq	fp, r5, r8, asr #9
    69d0:	a80c2800 	stmdage	ip, {fp, sp}
    69d4:	05000013 	streq	r0, [r0, #-19]
    69d8:	0005cec9 	andeq	ip, r5, r9, asr #29
    69dc:	5f102c00 	svcpl	0x00102c00
    69e0:	05006275 	streq	r6, [r0, #-629]	; 0x275
    69e4:	0002b6cc 	andeq	fp, r2, ip, asr #13
    69e8:	5f103000 	svcpl	0x00103000
    69ec:	05007075 	streq	r7, [r0, #-117]	; 0x75
    69f0:	0002dbcd 	andeq	sp, r2, sp, asr #23
    69f4:	5f103800 	svcpl	0x00103800
    69f8:	05007275 	streq	r7, [r0, #-629]	; 0x275
    69fc:	000025ce 	andeq	r2, r0, lr, asr #11
    6a00:	100c3c00 	andne	r3, ip, r0, lsl #24
    6a04:	0500000f 	streq	r0, [r0, #-15]
    6a08:	0005d4d1 	ldrdeq	sp, [r5], -r1
    6a0c:	530c4000 	movwpl	r4, #49152	; 0xc000
    6a10:	05000013 	streq	r0, [r0, #-19]
    6a14:	0005e4d2 	ldrdeq	lr, [r5], -r2
    6a18:	5f104300 	svcpl	0x00104300
    6a1c:	0500626c 	streq	r6, [r0, #-620]	; 0x26c
    6a20:	0002b6d5 	ldrdeq	fp, [r2], -r5
    6a24:	730c4400 	movwvc	r4, #50176	; 0xc400
    6a28:	0500000f 	streq	r0, [r0, #-15]
    6a2c:	000025d8 	ldrdeq	r2, [r0], -r8
    6a30:	d50c4c00 	strle	r4, [ip, #-3072]	; 0xc00
    6a34:	05000010 	streq	r0, [r0, #-16]
    6a38:	00007bd9 	ldrdeq	r7, [r0], -r9
    6a3c:	3e0c5000 	cdpcc	0, 0, cr5, cr12, cr0, {0}
    6a40:	05000013 	streq	r0, [r0, #-19]
    6a44:	000429dc 	ldrdeq	r2, [r4], -ip
    6a48:	6b0c5400 	blvs	31ba50 <__bss_end__+0x30f270>
    6a4c:	05000006 	streq	r0, [r0, #-6]
    6a50:	0000ffe0 	andeq	pc, r0, r0, ror #31
    6a54:	790c5800 	stmdbvc	ip, {fp, ip, lr}
    6a58:	05000011 	streq	r0, [r0, #-17]
    6a5c:	0000f4e2 	andeq	pc, r0, r2, ror #9
    6a60:	c30c5c00 	movwgt	r5, #52224	; 0xcc00
    6a64:	05000010 	streq	r0, [r0, #-16]
    6a68:	000025e3 	andeq	r2, r0, r3, ror #11
    6a6c:	14006400 	strne	r6, [r0], #-1024	; 0x400
    6a70:	00000025 	andeq	r0, r0, r5, lsr #32
    6a74:	00000429 	andeq	r0, r0, r9, lsr #8
    6a78:	00042915 	andeq	r2, r4, r5, lsl r9
    6a7c:	010a1500 	tsteq	sl, r0, lsl #10
    6a80:	0c150000 	ldceq	0, cr0, [r5], {-0}
    6a84:	15000001 	strne	r0, [r0, #-1]
    6a88:	00000025 	andeq	r0, r0, r5, lsr #32
    6a8c:	34040e00 	strcc	r0, [r4], #-3584	; 0xe00
    6a90:	04000004 	streq	r0, [r0], #-4
    6a94:	00000429 	andeq	r0, r0, r9, lsr #8
    6a98:	0011c616 	andseq	ip, r1, r6, lsl r6
    6a9c:	05042800 	streq	r2, [r4, #-2048]	; 0x800
    6aa0:	05660238 	strbeq	r0, [r6, #-568]!	; 0x238
    6aa4:	41170000 	tstmi	r7, r0
    6aa8:	05000011 	streq	r0, [r0, #-17]
    6aac:	0025023a 	eoreq	r0, r5, sl, lsr r2
    6ab0:	17000000 	strne	r0, [r0, -r0]
    6ab4:	00000f6c 	andeq	r0, r0, ip, ror #30
    6ab8:	3b023f05 	blcc	966d4 <__bss_end__+0x89ef4>
    6abc:	04000006 	streq	r0, [r0], #-6
    6ac0:	00106017 	andseq	r6, r0, r7, lsl r0
    6ac4:	023f0500 	eorseq	r0, pc, #0, 10
    6ac8:	0000063b 	andeq	r0, r0, fp, lsr r6
    6acc:	10211708 	eorne	r1, r1, r8, lsl #14
    6ad0:	3f050000 	svccc	0x00050000
    6ad4:	00063b02 	andeq	r3, r6, r2, lsl #22
    6ad8:	9a170c00 	bls	5c9ae0 <__bss_end__+0x5bd300>
    6adc:	05000011 	streq	r0, [r0, #-17]
    6ae0:	00250241 	eoreq	r0, r5, r1, asr #4
    6ae4:	17100000 	ldrne	r0, [r0, -r0]
    6ae8:	00000e97 	muleq	r0, r7, lr
    6aec:	1d024205 	sfmne	f4, 4, [r2, #-20]	; 0xffffffec
    6af0:	14000008 	strne	r0, [r0], #-8
    6af4:	0012b817 	andseq	fp, r2, r7, lsl r8
    6af8:	02440500 	subeq	r0, r4, #0, 10
    6afc:	00000025 	andeq	r0, r0, r5, lsr #32
    6b00:	11a41730 			; <UNDEFINED> instruction: 0x11a41730
    6b04:	45050000 	strmi	r0, [r5, #-0]
    6b08:	00058a02 	andeq	r8, r5, r2, lsl #20
    6b0c:	07173400 	ldreq	r3, [r7, -r0, lsl #8]
    6b10:	05000011 	streq	r0, [r0, #-17]
    6b14:	00250247 	eoreq	r0, r5, r7, asr #4
    6b18:	17380000 	ldrne	r0, [r8, -r0]!
    6b1c:	000011b4 			; <UNDEFINED> instruction: 0x000011b4
    6b20:	38024905 	stmdacc	r2, {r0, r2, r8, fp, lr}
    6b24:	3c000008 	stccc	0, cr0, [r0], {8}
    6b28:	00109f17 	andseq	r9, r0, r7, lsl pc
    6b2c:	024c0500 	subeq	r0, ip, #0, 10
    6b30:	0000017c 	andeq	r0, r0, ip, ror r1
    6b34:	10401740 	subne	r1, r0, r0, asr #14
    6b38:	4d050000 	stcmi	0, cr0, [r5, #-0]
    6b3c:	00002502 	andeq	r2, r0, r2, lsl #10
    6b40:	c2174400 	andsgt	r4, r7, #0, 8
    6b44:	05000013 	streq	r0, [r0, #-19]
    6b48:	017c024e 	cmneq	ip, lr, asr #4
    6b4c:	17480000 	strbne	r0, [r8, -r0]
    6b50:	0000111e 	andeq	r1, r0, lr, lsl r1
    6b54:	3e024f05 	cdpcc	15, 0, cr4, cr2, cr5, {0}
    6b58:	4c000008 	stcmi	0, cr0, [r0], {8}
    6b5c:	00106817 	andseq	r6, r0, r7, lsl r8
    6b60:	02520500 	subseq	r0, r2, #0, 10
    6b64:	00000025 	andeq	r0, r0, r5, lsr #32
    6b68:	0f8f1750 	svceq	0x008f1750
    6b6c:	53050000 	movwpl	r0, #20480	; 0x5000
    6b70:	00010c02 	andeq	r0, r1, r2, lsl #24
    6b74:	3a175400 	bcc	5dbb7c <__bss_end__+0x5cf39c>
    6b78:	05000011 	streq	r0, [r0, #-17]
    6b7c:	07fb0276 			; <UNDEFINED> instruction: 0x07fb0276
    6b80:	18580000 	ldmdane	r8, {}^	; <UNPREDICTABLE>
    6b84:	000010ff 	strdeq	r1, [r0], -pc	; <UNPREDICTABLE>
    6b88:	99027a05 	stmdbls	r2, {r0, r2, r9, fp, ip, sp, lr}
    6b8c:	48000002 	stmdami	r0, {r1}
    6b90:	107d1801 	rsbsne	r1, sp, r1, lsl #16
    6b94:	7b050000 	blvc	146b9c <__bss_end__+0x13a3bc>
    6b98:	00025b02 	andeq	r5, r2, r2, lsl #22
    6b9c:	18014c00 	stmdane	r1, {sl, fp, lr}
    6ba0:	00001324 	andeq	r1, r0, r4, lsr #6
    6ba4:	4f027f05 	svcmi	0x00027f05
    6ba8:	dc000008 	stcle	0, cr0, [r0], {8}
    6bac:	0f551802 	svceq	0x00551802
    6bb0:	84050000 	strhi	r0, [r5], #-0
    6bb4:	00060002 	andeq	r0, r6, r2
    6bb8:	1802e000 	stmdane	r2, {sp, lr, pc}
    6bbc:	00000f3a 	andeq	r0, r0, sl, lsr pc
    6bc0:	5b028505 	blpl	a7fdc <__bss_end__+0x9b7fc>
    6bc4:	ec000008 	stc	0, cr0, [r0], {8}
    6bc8:	040e0002 	streq	r0, [lr], #-2
    6bcc:	0000040b 	andeq	r0, r0, fp, lsl #8
    6bd0:	00002514 	andeq	r2, r0, r4, lsl r5
    6bd4:	00058a00 	andeq	r8, r5, r0, lsl #20
    6bd8:	04291500 	strteq	r1, [r9], #-1280	; 0x500
    6bdc:	0a150000 	beq	546be4 <__bss_end__+0x53a404>
    6be0:	15000001 	strne	r0, [r0, #-1]
    6be4:	0000058a 	andeq	r0, r0, sl, lsl #11
    6be8:	00002515 	andeq	r2, r0, r5, lsl r5
    6bec:	040e0000 	streq	r0, [lr], #-0
    6bf0:	00000119 	andeq	r0, r0, r9, lsl r1
    6bf4:	056c040e 	strbeq	r0, [ip, #-1038]!	; 0x40e
    6bf8:	86140000 	ldrhi	r0, [r4], -r0
    6bfc:	b4000000 	strlt	r0, [r0], #-0
    6c00:	15000005 	strne	r0, [r0, #-5]
    6c04:	00000429 	andeq	r0, r0, r9, lsr #8
    6c08:	00010a15 	andeq	r0, r1, r5, lsl sl
    6c0c:	00861500 	addeq	r1, r6, r0, lsl #10
    6c10:	25150000 	ldrcs	r0, [r5, #-0]
    6c14:	00000000 	andeq	r0, r0, r0
    6c18:	0596040e 	ldreq	r0, [r6, #1038]	; 0x40e
    6c1c:	25140000 	ldrcs	r0, [r4, #-0]
    6c20:	ce000000 	cdpgt	0, 0, cr0, cr0, cr0, {0}
    6c24:	15000005 	strne	r0, [r0, #-5]
    6c28:	00000429 	andeq	r0, r0, r9, lsr #8
    6c2c:	00010a15 	andeq	r0, r1, r5, lsl sl
    6c30:	040e0000 	streq	r0, [lr], #-0
    6c34:	000005ba 			; <UNDEFINED> instruction: 0x000005ba
    6c38:	00005409 	andeq	r5, r0, r9, lsl #8
    6c3c:	0005e400 	andeq	lr, r5, r0, lsl #8
    6c40:	00cc0a00 	sbceq	r0, ip, r0, lsl #20
    6c44:	00020000 	andeq	r0, r2, r0
    6c48:	00005409 	andeq	r5, r0, r9, lsl #8
    6c4c:	0005f400 	andeq	pc, r5, r0, lsl #8
    6c50:	00cc0a00 	sbceq	r0, ip, r0, lsl #20
    6c54:	00000000 	andeq	r0, r0, r0
    6c58:	00115f06 	andseq	r5, r1, r6, lsl #30
    6c5c:	011d0500 	tsteq	sp, r0, lsl #10
    6c60:	000002e1 	andeq	r0, r0, r1, ror #5
    6c64:	0012e619 	andseq	lr, r2, r9, lsl r6
    6c68:	21050c00 	tstcs	r5, r0, lsl #24
    6c6c:	00063501 	andeq	r3, r6, r1, lsl #10
    6c70:	11871700 	orrne	r1, r7, r0, lsl #14
    6c74:	23050000 	movwcs	r0, #20480	; 0x5000
    6c78:	00063501 	andeq	r3, r6, r1, lsl #10
    6c7c:	76170000 	ldrvc	r0, [r7], -r0
    6c80:	05000010 	streq	r0, [r0, #-16]
    6c84:	00250124 	eoreq	r0, r5, r4, lsr #2
    6c88:	17040000 	strne	r0, [r4, -r0]
    6c8c:	00001159 	andeq	r1, r0, r9, asr r1
    6c90:	3b012505 	blcc	500ac <__bss_end__+0x438cc>
    6c94:	08000006 	stmdaeq	r0, {r1, r2}
    6c98:	00040e00 	andeq	r0, r4, r0, lsl #28
    6c9c:	0e000006 	cdpeq	0, 0, cr0, cr0, cr6, {0}
    6ca0:	0005f404 	andeq	pc, r5, r4, lsl #8
    6ca4:	0e8f1900 	cdpeq	9, 8, cr1, cr15, cr0, {0}
    6ca8:	050e0000 	streq	r0, [lr, #-0]
    6cac:	0676013d 			; <UNDEFINED> instruction: 0x0676013d
    6cb0:	cd170000 	ldcgt	0, cr0, [r7, #-0]
    6cb4:	05000011 	streq	r0, [r0, #-17]
    6cb8:	0676013e 			; <UNDEFINED> instruction: 0x0676013e
    6cbc:	17000000 	strne	r0, [r0, -r0]
    6cc0:	00001207 	andeq	r1, r0, r7, lsl #4
    6cc4:	76013f05 	strvc	r3, [r1], -r5, lsl #30
    6cc8:	06000006 	streq	r0, [r0], -r6
    6ccc:	00128b17 	andseq	r8, r2, r7, lsl fp
    6cd0:	01400500 	cmpeq	r0, r0, lsl #10
    6cd4:	0000005b 	andeq	r0, r0, fp, asr r0
    6cd8:	5b09000c 	blpl	246d10 <__bss_end__+0x23a530>
    6cdc:	86000000 	strhi	r0, [r0], -r0
    6ce0:	0a000006 	beq	6d00 <__code_start__-0x1300>
    6ce4:	000000cc 	andeq	r0, r0, ip, asr #1
    6ce8:	d01a0002 	andsle	r0, sl, r2
    6cec:	87025705 	strhi	r5, [r2, -r5, lsl #14]
    6cf0:	17000007 	strne	r0, [r0, -r7]
    6cf4:	000012ca 	andeq	r1, r0, sl, asr #5
    6cf8:	2c025905 	stccs	9, cr5, [r2], {5}
    6cfc:	00000000 	andeq	r0, r0, r0
    6d00:	00127517 	andseq	r7, r2, r7, lsl r5
    6d04:	025a0500 	subseq	r0, sl, #0, 10
    6d08:	0000010c 	andeq	r0, r0, ip, lsl #2
    6d0c:	10921704 	addsne	r1, r2, r4, lsl #14
    6d10:	5b050000 	blpl	146d18 <__bss_end__+0x13a538>
    6d14:	00078702 	andeq	r8, r7, r2, lsl #14
    6d18:	99170800 	ldmdbls	r7, {fp}
    6d1c:	05000013 	streq	r0, [r0, #-19]
    6d20:	0192025c 	orrseq	r0, r2, ip, asr r2
    6d24:	17240000 	strne	r0, [r4, -r0]!
    6d28:	00001031 	andeq	r1, r0, r1, lsr r0
    6d2c:	25025d05 	strcs	r5, [r2, #-3333]	; 0xd05
    6d30:	48000000 	stmdami	r0, {}	; <UNPREDICTABLE>
    6d34:	00118217 	andseq	r8, r1, r7, lsl r2
    6d38:	025e0500 	subseq	r0, lr, #0, 10
    6d3c:	00000069 	andeq	r0, r0, r9, rrx
    6d40:	13af1750 			; <UNDEFINED> instruction: 0x13af1750
    6d44:	5f050000 	svcpl	0x00050000
    6d48:	00064102 	andeq	r4, r6, r2, lsl #2
    6d4c:	8d175800 	ldchi	8, cr5, [r7, #-0]
    6d50:	05000011 	streq	r0, [r0, #-17]
    6d54:	00f40260 	rscseq	r0, r4, r0, ror #4
    6d58:	17680000 	strbne	r0, [r8, -r0]!
    6d5c:	000013b4 			; <UNDEFINED> instruction: 0x000013b4
    6d60:	f4026105 	vst4.8	{d6,d8,d10,d12}, [r2], r5
    6d64:	70000000 	andvc	r0, r0, r0
    6d68:	000ef417 	andeq	pc, lr, r7, lsl r4	; <UNPREDICTABLE>
    6d6c:	02620500 	rsbeq	r0, r2, #0, 10
    6d70:	000000f4 	strdeq	r0, [r0], -r4
    6d74:	13061778 	movwne	r1, #26488	; 0x6778
    6d78:	63050000 	movwvs	r0, #20480	; 0x5000
    6d7c:	00079702 	andeq	r9, r7, r2, lsl #14
    6d80:	86178000 	ldrhi	r8, [r7], -r0
    6d84:	05000010 	streq	r0, [r0, #-16]
    6d88:	07a70264 	streq	r0, [r7, r4, ror #4]!
    6d8c:	17880000 	strne	r0, [r8, r0]
    6d90:	00001298 	muleq	r0, r8, r2
    6d94:	25026505 	strcs	r6, [r2, #-1285]	; 0x505
    6d98:	a0000000 	andge	r0, r0, r0
    6d9c:	000fdd17 	andeq	sp, pc, r7, lsl sp	; <UNPREDICTABLE>
    6da0:	02660500 	rsbeq	r0, r6, #0, 10
    6da4:	000000f4 	strdeq	r0, [r0], -r4
    6da8:	0ee517a4 	cdpeq	7, 14, cr1, cr5, cr4, {5}
    6dac:	67050000 	strvs	r0, [r5, -r0]
    6db0:	0000f402 	andeq	pc, r0, r2, lsl #8
    6db4:	cc17ac00 	ldcgt	12, cr10, [r7], {-0}
    6db8:	0500000f 	streq	r0, [r0, #-15]
    6dbc:	00f40268 	rscseq	r0, r4, r8, ror #4
    6dc0:	17b40000 	ldrne	r0, [r4, r0]!
    6dc4:	00000eac 	andeq	r0, r0, ip, lsr #29
    6dc8:	f4026905 	vst2.8	{d6,d8}, [r2], r5
    6dcc:	bc000000 	stclt	0, cr0, [r0], {-0}
    6dd0:	000ebb17 	andeq	fp, lr, r7, lsl fp
    6dd4:	026a0500 	rsbeq	r0, sl, #0, 10
    6dd8:	000000f4 	strdeq	r0, [r0], -r4
    6ddc:	113f17c4 	teqne	pc, r4, asr #15
    6de0:	6b050000 	blvs	146de8 <__bss_end__+0x13a608>
    6de4:	00002502 	andeq	r2, r0, r2, lsl #10
    6de8:	0900cc00 	stmdbeq	r0, {sl, fp, lr, pc}
    6dec:	00000112 	andeq	r0, r0, r2, lsl r1
    6df0:	00000797 	muleq	r0, r7, r7
    6df4:	0000cc0a 	andeq	ip, r0, sl, lsl #24
    6df8:	09001900 	stmdbeq	r0, {r8, fp, ip}
    6dfc:	00000112 	andeq	r0, r0, r2, lsl r1
    6e00:	000007a7 	andeq	r0, r0, r7, lsr #15
    6e04:	0000cc0a 	andeq	ip, r0, sl, lsl #24
    6e08:	09000700 	stmdbeq	r0, {r8, r9, sl}
    6e0c:	00000112 	andeq	r0, r0, r2, lsl r1
    6e10:	000007b7 			; <UNDEFINED> instruction: 0x000007b7
    6e14:	0000cc0a 	andeq	ip, r0, sl, lsl #24
    6e18:	1a001700 	bne	ca20 <__bss_end__+0x240>
    6e1c:	027005f0 	rsbseq	r0, r0, #240, 10	; 0x3c000000
    6e20:	000007db 	ldrdeq	r0, [r0], -fp
    6e24:	0010ef17 	andseq	lr, r0, r7, lsl pc
    6e28:	02730500 	rsbseq	r0, r3, #0, 10
    6e2c:	000007db 	ldrdeq	r0, [r0], -fp
    6e30:	12fd1700 	rscsne	r1, sp, #0, 14
    6e34:	74050000 	strvc	r0, [r5], #-0
    6e38:	0007eb02 	andeq	lr, r7, r2, lsl #22
    6e3c:	09007800 	stmdbeq	r0, {fp, ip, sp, lr}
    6e40:	000002db 	ldrdeq	r0, [r0], -fp
    6e44:	000007eb 	andeq	r0, r0, fp, ror #15
    6e48:	0000cc0a 	andeq	ip, r0, sl, lsl #24
    6e4c:	09001d00 	stmdbeq	r0, {r8, sl, fp, ip}
    6e50:	0000002c 	andeq	r0, r0, ip, lsr #32
    6e54:	000007fb 	strdeq	r0, [r0], -fp
    6e58:	0000cc0a 	andeq	ip, r0, sl, lsl #24
    6e5c:	1b001d00 	blne	e264 <__bss_end__+0x1a84>
    6e60:	025505f0 	subseq	r0, r5, #240, 10	; 0x3c000000
    6e64:	0000081d 	andeq	r0, r0, sp, lsl r8
    6e68:	0011c61c 	andseq	ip, r1, ip, lsl r6
    6e6c:	026c0500 	rsbeq	r0, ip, #0, 10
    6e70:	00000686 	andeq	r0, r0, r6, lsl #13
    6e74:	0013591c 	andseq	r5, r3, ip, lsl r9
    6e78:	02750500 	rsbseq	r0, r5, #0, 10
    6e7c:	000007b7 			; <UNDEFINED> instruction: 0x000007b7
    6e80:	01120900 	tsteq	r2, r0, lsl #18
    6e84:	082d0000 	stmdaeq	sp!, {}	; <UNPREDICTABLE>
    6e88:	cc0a0000 	stcgt	0, cr0, [sl], {-0}
    6e8c:	18000000 	stmdane	r0, {}	; <UNPREDICTABLE>
    6e90:	08381d00 	ldmdaeq	r8!, {r8, sl, fp, ip}
    6e94:	29150000 	ldmdbcs	r5, {}	; <UNPREDICTABLE>
    6e98:	00000004 	andeq	r0, r0, r4
    6e9c:	082d040e 	stmdaeq	sp!, {r1, r2, r3, sl}
    6ea0:	040e0000 	streq	r0, [lr], #-0
    6ea4:	0000017c 	andeq	r0, r0, ip, ror r1
    6ea8:	00084f1d 	andeq	r4, r8, sp, lsl pc
    6eac:	00251500 	eoreq	r1, r5, r0, lsl #10
    6eb0:	0e000000 	cdpeq	0, 0, cr0, cr0, cr0, {0}
    6eb4:	00085504 	andeq	r5, r8, r4, lsl #10
    6eb8:	44040e00 	strmi	r0, [r4], #-3584	; 0xe00
    6ebc:	09000008 	stmdbeq	r0, {r3}
    6ec0:	000005f4 	strdeq	r0, [r0], -r4
    6ec4:	0000086b 	andeq	r0, r0, fp, ror #16
    6ec8:	0000cc0a 	andeq	ip, r0, sl, lsl #24
    6ecc:	1e000200 	cdpne	2, 0, cr0, cr0, cr0, {0}
    6ed0:	000012ac 	andeq	r1, r0, ip, lsr #5
    6ed4:	2902fd05 	stmdbcs	r2, {r0, r2, r8, sl, fp, ip, sp, lr, pc}
    6ed8:	1e000004 	cdpne	0, 0, cr0, cr0, cr4, {0}
    6edc:	000012a5 	andeq	r1, r0, r5, lsr #5
    6ee0:	2f02fe05 	svccs	0x0002fe05
    6ee4:	14000004 	strne	r0, [r0], #-4
    6ee8:	00000025 	andeq	r0, r0, r5, lsr #32
    6eec:	00000892 	muleq	r0, r2, r8
    6ef0:	00002515 	andeq	r2, r0, r5, lsl r5
    6ef4:	8c1f0000 	ldchi	0, cr0, [pc], {-0}
    6ef8:	0600000a 	streq	r0, [r0], -sl
    6efc:	00089d1d 	andeq	r9, r8, sp, lsl sp
    6f00:	83040e00 	movwhi	r0, #19968	; 0x4e00
    6f04:	14000008 	strne	r0, [r0], #-8
    6f08:	00000025 	andeq	r0, r0, r5, lsr #32
    6f0c:	000008b2 			; <UNDEFINED> instruction: 0x000008b2
    6f10:	00058a15 	andeq	r8, r5, r5, lsl sl
    6f14:	c91f0000 	ldmdbgt	pc, {}	; <UNPREDICTABLE>
    6f18:	0600000a 	streq	r0, [r0], -sl
    6f1c:	0008bd22 	andeq	fp, r8, r2, lsr #26
    6f20:	a3040e00 	movwge	r0, #19968	; 0x4e00
    6f24:	20000008 	andcs	r0, r0, r8
    6f28:	00005401 	andeq	r5, r0, r1, lsl #8
    6f2c:	000c0700 	andeq	r0, ip, r0, lsl #14
    6f30:	21000009 	tstcs	r0, r9
    6f34:	00000ed5 	ldrdeq	r0, [r0], -r5
    6f38:	12ec2100 	rscne	r2, ip, #0, 2
    6f3c:	21010000 	mrscs	r0, (UNDEF: 1)
    6f40:	00001344 	andeq	r1, r0, r4, asr #6
    6f44:	0f162104 	svceq	0x00162104
    6f48:	21050000 	mrscs	r0, (UNDEF: 5)
    6f4c:	000010ad 	andeq	r1, r0, sp, lsr #1
    6f50:	13612106 	cmnne	r1, #-2147483647	; 0x80000001
    6f54:	21070000 	mrscs	r0, (UNDEF: 7)
    6f58:	00001370 	andeq	r1, r0, r0, ror r3
    6f5c:	137f2103 	cmnne	pc, #-1073741824	; 0xc0000000
    6f60:	00020000 	andeq	r0, r2, r0
    6f64:	00143e05 	andseq	r3, r4, r5, lsl #28
    6f68:	c3150700 	tstgt	r5, #0, 14
    6f6c:	22000008 	andcs	r0, r0, #8
    6f70:	0000140f 	andeq	r1, r0, pc, lsl #8
    6f74:	00331d01 	eorseq	r1, r3, r1, lsl #26
    6f78:	001c0000 	andseq	r0, ip, r0
    6f7c:	4a222020 	bmi	88f004 <__bss_end__+0x882824>
    6f80:	01000014 	tsteq	r0, r4, lsl r0
    6f84:	0000331e 	andeq	r3, r0, lr, lsl r3
    6f88:	20002800 	andcs	r2, r0, r0, lsl #16
    6f8c:	14192220 	ldrne	r2, [r9], #-544	; 0x220
    6f90:	1f010000 	svcne	0x00010000
    6f94:	00000033 	andeq	r0, r0, r3, lsr r0
    6f98:	20200034 	eorcs	r0, r0, r4, lsr r0
    6f9c:	0013ea23 	andseq	lr, r3, r3, lsr #20
    6fa0:	25560100 	ldrbcs	r0, [r6, #-256]	; 0x100
    6fa4:	24000000 	strcs	r0, [r0], #-0
    6fa8:	340000af 	strcc	r0, [r0], #-175	; 0xaf
    6fac:	01000000 	mrseq	r0, (UNDEF: 0)
    6fb0:	0009989c 	muleq	r9, ip, r8
    6fb4:	69702400 	ldmdbvs	r0!, {sl, sp}^
    6fb8:	5601006e 	strpl	r0, [r1], -lr, rrx
    6fbc:	0000002c 	andeq	r0, r0, ip, lsr #32
    6fc0:	00001d1a 	andeq	r1, r0, sl, lsl sp
    6fc4:	0013de25 	andseq	sp, r3, r5, lsr #28
    6fc8:	2c590100 	ldfcse	f0, [r9], {-0}
    6fcc:	54000000 	strpl	r0, [r0], #-0
    6fd0:	2600001d 			; <UNDEFINED> instruction: 0x2600001d
    6fd4:	0066666f 	rsbeq	r6, r6, pc, ror #12
    6fd8:	002c5a01 	eoreq	r5, ip, r1, lsl #20
    6fdc:	1d920000 	ldcne	0, cr0, [r2]
    6fe0:	40270000 	eormi	r0, r7, r0
    6fe4:	5d0000af 	stcpl	0, cr0, [r0, #-700]	; 0xfffffd44
    6fe8:	2800000b 	stmdacs	r0, {r0, r1, r3}
    6fec:	f30b5001 	vhadd.u8	d5, d11, d1
    6ff0:	25355001 	ldrcs	r5, [r5, #-1]!
    6ff4:	8080b423 	addhi	fp, r0, r3, lsr #8
    6ff8:	00000281 	andeq	r0, r0, r1, lsl #5
    6ffc:	00140429 	andseq	r0, r4, r9, lsr #8
    7000:	084f0100 	stmdaeq	pc, {r8}^	; <UNPREDICTABLE>
    7004:	1c0000af 	stcne	0, cr0, [r0], {175}	; 0xaf
    7008:	01000000 	mrseq	r0, (UNDEF: 0)
    700c:	0009e89c 	muleq	r9, ip, r8
    7010:	69702400 	ldmdbvs	r0!, {sl, sp}^
    7014:	4f01006e 	svcmi	0x0001006e
    7018:	0000002c 	andeq	r0, r0, ip, lsr #32
    701c:	00001da5 	andeq	r1, r0, r5, lsr #27
    7020:	01007624 	tsteq	r0, r4, lsr #12
    7024:	00002c4f 	andeq	r2, r0, pc, asr #24
    7028:	001ddf00 	andseq	sp, sp, r0, lsl #30
    702c:	af182a00 	svcge	0x00182a00
    7030:	0a230000 	beq	8c7038 <__bss_end__+0x8ba858>
    7034:	09de0000 	ldmibeq	lr, {}^	; <UNPREDICTABLE>
    7038:	01280000 	teqeq	r8, r0
    703c:	01f30350 	mvnseq	r0, r0, asr r3
    7040:	202b0050 	eorcs	r0, fp, r0, asr r0
    7044:	640000af 	strvs	r0, [r0], #-175	; 0xaf
    7048:	0000000a 	andeq	r0, r0, sl
    704c:	00142329 	andseq	r2, r4, r9, lsr #6
    7050:	f84a0100 			; <UNDEFINED> instruction: 0xf84a0100
    7054:	100000ae 	andne	r0, r0, lr, lsr #1
    7058:	01000000 	mrseq	r0, (UNDEF: 0)
    705c:	000a239c 	muleq	sl, ip, r3
    7060:	69702400 	ldmdbvs	r0!, {sl, sp}^
    7064:	4a01006e 	bmi	47224 <__bss_end__+0x3aa44>
    7068:	0000002c 	andeq	r0, r0, ip, lsr #32
    706c:	00001e19 	andeq	r1, r0, r9, lsl lr
    7070:	00af0427 	adceq	r0, pc, r7, lsr #8
    7074:	000ae000 	andeq	lr, sl, r0
    7078:	50012800 	andpl	r2, r1, r0, lsl #16
    707c:	5001f303 	andpl	pc, r1, r3, lsl #6
    7080:	01510128 	cmpeq	r1, r8, lsr #2
    7084:	29000030 	stmdbcs	r0, {r4, r5}
    7088:	000013d1 	ldrdeq	r1, [r0], -r1	; <UNPREDICTABLE>
    708c:	aed44301 	cdpge	3, 13, cr4, cr4, cr1, {0}
    7090:	00240000 	eoreq	r0, r4, r0
    7094:	9c010000 	stcls	0, cr0, [r1], {-0}
    7098:	00000a64 	andeq	r0, r0, r4, ror #20
    709c:	6e697024 	cdpvs	0, 6, cr7, cr9, cr4, {1}
    70a0:	2c430100 	stfcse	f0, [r3], {-0}
    70a4:	3a000000 	bcc	70ac <__code_start__-0xf54>
    70a8:	2700001e 	smladcs	r0, lr, r0, r0
    70ac:	0000aef0 	strdeq	sl, [r0], -r0
    70b0:	00000b68 	andeq	r0, r0, r8, ror #22
    70b4:	05500128 	ldrbeq	r0, [r0, #-296]	; 0x128
    70b8:	2000280c 	andcs	r2, r0, ip, lsl #16
    70bc:	51012820 	tstpl	r1, r0, lsr #16
    70c0:	01f33105 	mvnseq	r3, r5, lsl #2
    70c4:	00002450 	andeq	r2, r0, r0, asr r4
    70c8:	00143229 	andseq	r3, r4, r9, lsr #4
    70cc:	b03c0100 	eorslt	r0, ip, r0, lsl #2
    70d0:	240000ae 	strcs	r0, [r0], #-174	; 0xae
    70d4:	01000000 	mrseq	r0, (UNDEF: 0)
    70d8:	000aa59c 	muleq	sl, ip, r5
    70dc:	69702400 	ldmdbvs	r0!, {sl, sp}^
    70e0:	3c01006e 	stccc	0, cr0, [r1], {110}	; 0x6e
    70e4:	0000002c 	andeq	r0, r0, ip, lsr #32
    70e8:	00001e5b 	andeq	r1, r0, fp, asr lr
    70ec:	00aecc27 	adceq	ip, lr, r7, lsr #24
    70f0:	000b6800 	andeq	r6, fp, r0, lsl #16
    70f4:	50012800 	andpl	r2, r1, r0, lsl #16
    70f8:	001c0c05 	andseq	r0, ip, r5, lsl #24
    70fc:	01282020 	teqeq	r8, r0, lsr #32
    7100:	f3310551 	vqrshl.u64	q0, <illegal reg q0.5>, <illegal reg q0.5>
    7104:	00245001 	eoreq	r5, r4, r1
    7108:	13f42900 	mvnsne	r2, #0, 18
    710c:	37010000 	strcc	r0, [r1, -r0]
    7110:	0000aea0 	andeq	sl, r0, r0, lsr #29
    7114:	00000010 	andeq	r0, r0, r0, lsl r0
    7118:	0ae09c01 	beq	ff82e124 <__bss_end__+0xff821944>
    711c:	70240000 	eorvc	r0, r4, r0
    7120:	01006e69 	tsteq	r0, r9, ror #28
    7124:	00002c37 	andeq	r2, r0, r7, lsr ip
    7128:	001e7c00 	andseq	r7, lr, r0, lsl #24
    712c:	aeac2700 	cdpge	7, 10, cr2, cr12, cr0, {0}
    7130:	0ae00000 	beq	ff807138 <__bss_end__+0xff7fa958>
    7134:	01280000 	teqeq	r8, r0
    7138:	01f30350 	mvnseq	r0, r0, asr r3
    713c:	51012850 	tstpl	r1, r0, asr r8
    7140:	00003101 	andeq	r3, r0, r1, lsl #2
    7144:	0010dd29 	andseq	sp, r0, r9, lsr #26
    7148:	38280100 	stmdacc	r8!, {r8}
    714c:	680000ae 	stmdavs	r0, {r1, r2, r3, r5, r7}
    7150:	01000000 	mrseq	r0, (UNDEF: 0)
    7154:	000b5d9c 	muleq	fp, ip, sp
    7158:	69702400 	ldmdbvs	r0!, {sl, sp}^
    715c:	2801006e 	stmdacs	r1, {r1, r2, r3, r5, r6}
    7160:	0000002c 	andeq	r0, r0, ip, lsr #32
    7164:	00001e9d 	muleq	r0, sp, lr
    7168:	0013292c 	andseq	r2, r3, ip, lsr #18
    716c:	00280100 	eoreq	r0, r8, r0, lsl #2
    7170:	be000009 	cdplt	0, 0, cr0, cr0, cr9, {0}
    7174:	2d00001e 	stccs	0, cr0, [r0, #-120]	; 0xffffff88
    7178:	0066666f 	rsbeq	r6, r6, pc, ror #12
    717c:	002c2d01 	eoreq	r2, ip, r1, lsl #26
    7180:	54010000 	strpl	r0, [r1], #-0
    7184:	0100672d 	tsteq	r0, sp, lsr #14
    7188:	00002c2f 	andeq	r2, r0, pc, lsr #24
    718c:	26560100 	ldrbcs	r0, [r6], -r0, lsl #2
    7190:	31010076 	tstcc	r1, r6, ror r0
    7194:	0000002c 	andeq	r0, r0, ip, lsr #32
    7198:	00001edf 	ldrdeq	r1, [r0], -pc	; <UNPREDICTABLE>
    719c:	00ae842a 	adceq	r8, lr, sl, lsr #8
    71a0:	000b5d00 	andeq	r5, fp, r0, lsl #26
    71a4:	000b4c00 	andeq	r4, fp, r0, lsl #24
    71a8:	50012800 	andpl	r2, r1, r0, lsl #16
    71ac:	00007602 	andeq	r7, r0, r2, lsl #12
    71b0:	00ae9827 	adceq	r9, lr, r7, lsr #16
    71b4:	000b6800 	andeq	r6, fp, r0, lsl #16
    71b8:	50012800 	andpl	r2, r1, r0, lsl #16
    71bc:	00007602 	andeq	r7, r0, r2, lsl #12
    71c0:	0e4c2e00 	cdpeq	14, 4, cr2, cr12, cr0, {0}
    71c4:	0e4c0000 	cdpeq	0, 4, cr0, cr12, cr0, {0}
    71c8:	a7060000 	strge	r0, [r6, -r0]
    71cc:	000d812e 	andeq	r8, sp, lr, lsr #2
    71d0:	000d8100 	andeq	r8, sp, r0, lsl #2
    71d4:	009b0600 	addseq	r0, fp, r0, lsl #12
    71d8:	00000c4c 	andeq	r0, r0, ip, asr #24
    71dc:	1b730004 	blne	1cc71f4 <__bss_end__+0x1cbaa14>
    71e0:	01040000 	mrseq	r0, (UNDEF: 4)
    71e4:	00001213 	andeq	r1, r0, r3, lsl r2
    71e8:	0014540c 	andseq	r5, r4, ip, lsl #8
    71ec:	000f9700 	andeq	r9, pc, r0, lsl #14
    71f0:	00af5800 	adceq	r5, pc, r0, lsl #16
    71f4:	0001d800 	andeq	sp, r1, r0, lsl #16
    71f8:	00171a00 	andseq	r1, r7, r0, lsl #20
    71fc:	05040200 	streq	r0, [r4, #-512]	; 0x200
    7200:	00746e69 	rsbseq	r6, r4, r9, ror #28
    7204:	25070403 	strcs	r0, [r7, #-1027]	; 0x403
    7208:	03000000 	movweq	r0, #0
    720c:	010a0601 	tsteq	sl, r1, lsl #12
    7210:	02030000 	andeq	r0, r3, #0
    7214:	00017705 	andeq	r7, r1, r5, lsl #14
    7218:	05040300 	streq	r0, [r4, #-768]	; 0x300
    721c:	00000005 	andeq	r0, r0, r5
    7220:	00050803 	andeq	r0, r5, r3, lsl #16
    7224:	03000000 	movweq	r0, #0
    7228:	01080801 	tsteq	r8, r1, lsl #16
    722c:	02030000 	andeq	r0, r3, #0
    7230:	00014607 	andeq	r4, r1, r7, lsl #12
    7234:	07040300 	streq	r0, [r4, -r0, lsl #6]
    7238:	00000020 	andeq	r0, r0, r0, lsr #32
    723c:	1b070803 	blne	1c9250 <__bss_end__+0x1bca70>
    7240:	04000000 	streq	r0, [r0], #-0
    7244:	00001128 	andeq	r1, r0, r8, lsr #2
    7248:	00250702 	eoreq	r0, r5, r2, lsl #14
    724c:	12040000 	andne	r0, r4, #0
    7250:	03000011 	movweq	r0, #17
    7254:	0000412c 	andeq	r4, r0, ip, lsr #2
    7258:	11ee0400 	mvnne	r0, r0, lsl #8
    725c:	72030000 	andvc	r0, r3, #0
    7260:	00000041 	andeq	r0, r0, r1, asr #32
    7264:	0010bc05 	andseq	fp, r0, r5, lsl #24
    7268:	01650400 	cmneq	r5, r0, lsl #8
    726c:	0000002c 	andeq	r0, r0, ip, lsr #32
    7270:	a6030406 	strge	r0, [r3], -r6, lsl #8
    7274:	000000b7 	strheq	r0, [r0], -r7
    7278:	0010a707 	andseq	sl, r0, r7, lsl #14
    727c:	8ca80300 	stchi	3, cr0, [r8]
    7280:	07000000 	streq	r0, [r0, -r0]
    7284:	0000104f 	andeq	r1, r0, pc, asr #32
    7288:	00b7a903 	adcseq	sl, r7, r3, lsl #18
    728c:	08000000 	stmdaeq	r0, {}	; <UNPREDICTABLE>
    7290:	0000004f 	andeq	r0, r0, pc, asr #32
    7294:	000000c7 	andeq	r0, r0, r7, asr #1
    7298:	0000c709 	andeq	ip, r0, r9, lsl #14
    729c:	03000300 	movweq	r0, #768	; 0x300
    72a0:	01810704 	orreq	r0, r1, r4, lsl #14
    72a4:	080a0000 	stmdaeq	sl, {}	; <UNPREDICTABLE>
    72a8:	00efa303 	rsceq	sl, pc, r3, lsl #6
    72ac:	d30b0000 	movwle	r0, #45056	; 0xb000
    72b0:	03000011 	movweq	r0, #17
    72b4:	000025a5 	andeq	r2, r0, r5, lsr #11
    72b8:	db0b0000 	blle	2c72c0 <__bss_end__+0x2baae0>
    72bc:	03000011 	movweq	r0, #17
    72c0:	000098aa 	andeq	r9, r0, sl, lsr #17
    72c4:	04000400 	streq	r0, [r0], #-1024	; 0x400
    72c8:	00001166 	andeq	r1, r0, r6, ror #2
    72cc:	00ceab03 	sbceq	sl, lr, r3, lsl #22
    72d0:	18040000 	stmdane	r4, {}	; <UNPREDICTABLE>
    72d4:	03000010 	movweq	r0, #16
    72d8:	00006baf 	andeq	r6, r0, pc, lsr #23
    72dc:	0d040c00 	stceq	12, cr0, [r4, #-0]
    72e0:	00010d04 	andeq	r0, r1, r4, lsl #26
    72e4:	08010300 	stmdaeq	r1, {r8, r9}
    72e8:	00000111 	andeq	r0, r0, r1, lsl r1
    72ec:	00010d0e 	andeq	r0, r1, lr, lsl #26
    72f0:	12900400 	addsne	r0, r0, #0, 8
    72f4:	16050000 	strne	r0, [r5], -r0
    72f8:	0000005d 	andeq	r0, r0, sp, asr r0
    72fc:	0010290f 	andseq	r2, r0, pc, lsl #18
    7300:	2d051800 	stccs	8, cr1, [r5, #-0]
    7304:	00000177 	andeq	r0, r0, r7, ror r1
    7308:	0011870b 	andseq	r8, r1, fp, lsl #14
    730c:	772f0500 	strvc	r0, [pc, -r0, lsl #10]!
    7310:	00000001 	andeq	r0, r0, r1
    7314:	006b5f10 	rsbeq	r5, fp, r0, lsl pc
    7318:	00253005 	eoreq	r3, r5, r5
    731c:	0b040000 	bleq	107324 <__bss_end__+0xfab44>
    7320:	000011be 			; <UNDEFINED> instruction: 0x000011be
    7324:	00253005 	eoreq	r3, r5, r5
    7328:	0b080000 	bleq	207330 <__bss_end__+0x1fab50>
    732c:	00001004 	andeq	r1, r0, r4
    7330:	00253005 	eoreq	r3, r5, r5
    7334:	0b0c0000 	bleq	30733c <__bss_end__+0x2fab5c>
    7338:	000012d7 	ldrdeq	r1, [r0], -r7
    733c:	00253005 	eoreq	r3, r5, r5
    7340:	10100000 	andsne	r0, r0, r0
    7344:	0500785f 	streq	r7, [r0, #-2143]	; 0x85f
    7348:	00017d31 	andeq	r7, r1, r1, lsr sp
    734c:	0d001400 	cfstrseq	mvf1, [r0, #-0]
    7350:	00012404 	andeq	r2, r1, r4, lsl #8
    7354:	01190800 	tsteq	r9, r0, lsl #16
    7358:	018d0000 	orreq	r0, sp, r0
    735c:	c7090000 	strgt	r0, [r9, -r0]
    7360:	00000000 	andeq	r0, r0, r0
    7364:	104a0f00 	subne	r0, sl, r0, lsl #30
    7368:	05240000 	streq	r0, [r4, #-0]!
    736c:	00020635 	andeq	r0, r2, r5, lsr r6
    7370:	0f020b00 	svceq	0x00020b00
    7374:	37050000 	strcc	r0, [r5, -r0]
    7378:	00000025 	andeq	r0, r0, r5, lsr #32
    737c:	11f60b00 	mvnsne	r0, r0, lsl #22
    7380:	38050000 	stmdacc	r5, {}	; <UNPREDICTABLE>
    7384:	00000025 	andeq	r0, r0, r5, lsr #32
    7388:	0f300b04 	svceq	0x00300b04
    738c:	39050000 	stmdbcc	r5, {}	; <UNPREDICTABLE>
    7390:	00000025 	andeq	r0, r0, r5, lsr #32
    7394:	13c70b08 	bicne	r0, r7, #8, 22	; 0x2000
    7398:	3a050000 	bcc	1473a0 <__bss_end__+0x13abc0>
    739c:	00000025 	andeq	r0, r0, r5, lsr #32
    73a0:	10f60b0c 	rscsne	r0, r6, ip, lsl #22
    73a4:	3b050000 	blcc	1473ac <__bss_end__+0x13abcc>
    73a8:	00000025 	andeq	r0, r0, r5, lsr #32
    73ac:	10cb0b10 	sbcne	r0, fp, r0, lsl fp
    73b0:	3c050000 	stccc	0, cr0, [r5], {-0}
    73b4:	00000025 	andeq	r0, r0, r5, lsr #32
    73b8:	12dc0b14 	sbcsne	r0, ip, #20, 22	; 0x5000
    73bc:	3d050000 	stccc	0, cr0, [r5, #-0]
    73c0:	00000025 	andeq	r0, r0, r5, lsr #32
    73c4:	11480b18 	cmpne	r8, r8, lsl fp
    73c8:	3e050000 	cdpcc	0, 0, cr0, cr5, cr0, {0}
    73cc:	00000025 	andeq	r0, r0, r5, lsr #32
    73d0:	138e0b1c 	orrne	r0, lr, #28, 22	; 0x7000
    73d4:	3f050000 	svccc	0x00050000
    73d8:	00000025 	andeq	r0, r0, r5, lsr #32
    73dc:	3f110020 	svccc	0x00110020
    73e0:	0800000f 	stmdaeq	r0, {r0, r1, r2, r3}
    73e4:	46480501 	strbmi	r0, [r8], -r1, lsl #10
    73e8:	0b000002 	bleq	73f8 <__code_start__-0xc08>
    73ec:	00000feb 	andeq	r0, r0, fp, ror #31
    73f0:	02464905 	subeq	r4, r6, #81920	; 0x14000
    73f4:	0b000000 	bleq	73fc <__code_start__-0xc04>
    73f8:	00000e7d 	andeq	r0, r0, sp, ror lr
    73fc:	02464a05 	subeq	r4, r6, #20480	; 0x5000
    7400:	12800000 	addne	r0, r0, #0
    7404:	00001282 	andeq	r1, r0, r2, lsl #5
    7408:	01194c05 	tsteq	r9, r5, lsl #24
    740c:	01000000 	mrseq	r0, (UNDEF: 0)
    7410:	000f6412 	andeq	r6, pc, r2, lsl r4	; <UNPREDICTABLE>
    7414:	194f0500 	stmdbne	pc, {r8, sl}^	; <UNPREDICTABLE>
    7418:	04000001 	streq	r0, [r0], #-1
    741c:	05080001 	streq	r0, [r8, #-1]
    7420:	56000001 	strpl	r0, [r0], -r1
    7424:	09000002 	stmdbeq	r0, {r1}
    7428:	000000c7 	andeq	r0, r0, r7, asr #1
    742c:	ff11001f 			; <UNDEFINED> instruction: 0xff11001f
    7430:	90000010 	andls	r0, r0, r0, lsl r0
    7434:	945b0501 	ldrbls	r0, [fp], #-1281	; 0x501
    7438:	0b000002 	bleq	7448 <__code_start__-0xbb8>
    743c:	00001187 	andeq	r1, r0, r7, lsl #3
    7440:	02945c05 	addseq	r5, r4, #1280	; 0x500
    7444:	0b000000 	bleq	744c <__code_start__-0xbb4>
    7448:	0000119f 	muleq	r0, pc, r1	; <UNPREDICTABLE>
    744c:	00255d05 	eoreq	r5, r5, r5, lsl #26
    7450:	0b040000 	bleq	107458 <__bss_end__+0xfac78>
    7454:	00000fff 	strdeq	r0, [r0], -pc	; <UNPREDICTABLE>
    7458:	029a5f05 	addseq	r5, sl, #5, 30
    745c:	0b080000 	bleq	207464 <__bss_end__+0x1fac84>
    7460:	00000f3f 	andeq	r0, r0, pc, lsr pc
    7464:	02066005 	andeq	r6, r6, #5
    7468:	00880000 	addeq	r0, r8, r0
    746c:	0256040d 	subseq	r0, r6, #218103808	; 0xd000000
    7470:	aa080000 	bge	207478 <__bss_end__+0x1fac98>
    7474:	aa000002 	bge	7484 <__code_start__-0xb7c>
    7478:	09000002 	stmdbeq	r0, {r1}
    747c:	000000c7 	andeq	r0, r0, r7, asr #1
    7480:	040d001f 	streq	r0, [sp], #-31
    7484:	000002b0 			; <UNDEFINED> instruction: 0x000002b0
    7488:	11520f13 	cmpne	r2, r3, lsl pc
    748c:	05080000 	streq	r0, [r8, #-0]
    7490:	0002d673 	andeq	sp, r2, r3, ror r6
    7494:	0f250b00 	svceq	0x00250b00
    7498:	74050000 	strvc	r0, [r5], #-0
    749c:	000002d6 	ldrdeq	r0, [r0], -r6
    74a0:	0e890b00 	vdiveq.f64	d0, d9, d0
    74a4:	75050000 	strvc	r0, [r5, #-0]
    74a8:	00000025 	andeq	r0, r0, r5, lsr #32
    74ac:	040d0004 	streq	r0, [sp], #-4
    74b0:	0000004f 	andeq	r0, r0, pc, asr #32
    74b4:	0011710f 	andseq	r7, r1, pc, lsl #2
    74b8:	b3056800 	movwlt	r6, #22528	; 0x5800
    74bc:	00000406 	andeq	r0, r0, r6, lsl #8
    74c0:	00705f10 	rsbseq	r5, r0, r0, lsl pc
    74c4:	02d6b405 	sbcseq	fp, r6, #83886080	; 0x5000000
    74c8:	10000000 	andne	r0, r0, r0
    74cc:	0500725f 	streq	r7, [r0, #-607]	; 0x25f
    74d0:	000025b5 			; <UNDEFINED> instruction: 0x000025b5
    74d4:	5f100400 	svcpl	0x00100400
    74d8:	b6050077 			; <UNDEFINED> instruction: 0xb6050077
    74dc:	00000025 	andeq	r0, r0, r5, lsr #32
    74e0:	0f5d0b08 	svceq	0x005d0b08
    74e4:	b7050000 	strlt	r0, [r5, -r0]
    74e8:	0000003a 	andeq	r0, r0, sl, lsr r0
    74ec:	10700b0c 	rsbsne	r0, r0, ip, lsl #22
    74f0:	b8050000 	stmdalt	r5, {}	; <UNPREDICTABLE>
    74f4:	0000003a 	andeq	r0, r0, sl, lsr r0
    74f8:	625f100e 	subsvs	r1, pc, #14
    74fc:	b9050066 	stmdblt	r5, {r1, r2, r5, r6}
    7500:	000002b1 			; <UNDEFINED> instruction: 0x000002b1
    7504:	0ecc0b10 	vdupeq.8	d12, r0
    7508:	ba050000 	blt	147510 <__bss_end__+0x13ad30>
    750c:	00000025 	andeq	r0, r0, r5, lsr #32
    7510:	0f4d0b18 	svceq	0x004d0b18
    7514:	c1050000 	mrsgt	r0, (UNDEF: 5)
    7518:	00000105 	andeq	r0, r0, r5, lsl #2
    751c:	13ee0b1c 	mvnne	r0, #28, 22	; 0x7000
    7520:	c3050000 	movwgt	r0, #20480	; 0x5000
    7524:	00000561 	andeq	r0, r0, r1, ror #10
    7528:	14080b20 	strne	r0, [r8], #-2848	; 0xb20
    752c:	c5050000 	strgt	r0, [r5, #-0]
    7530:	0000058b 	andeq	r0, r0, fp, lsl #11
    7534:	11e30b24 	mvnne	r0, r4, lsr #22
    7538:	c8050000 	stmdagt	r5, {}	; <UNPREDICTABLE>
    753c:	000005af 	andeq	r0, r0, pc, lsr #11
    7540:	13a80b28 			; <UNDEFINED> instruction: 0x13a80b28
    7544:	c9050000 	stmdbgt	r5, {}	; <UNPREDICTABLE>
    7548:	000005c9 	andeq	r0, r0, r9, asr #11
    754c:	755f102c 	ldrbvc	r1, [pc, #-44]	; 7528 <__code_start__-0xad8>
    7550:	cc050062 	stcgt	0, cr0, [r5], {98}	; 0x62
    7554:	000002b1 			; <UNDEFINED> instruction: 0x000002b1
    7558:	755f1030 	ldrbvc	r1, [pc, #-48]	; 7530 <__code_start__-0xad0>
    755c:	cd050070 	stcgt	0, cr0, [r5, #-448]	; 0xfffffe40
    7560:	000002d6 	ldrdeq	r0, [r0], -r6
    7564:	755f1038 	ldrbvc	r1, [pc, #-56]	; 7534 <__code_start__-0xacc>
    7568:	ce050072 	mcrgt	0, 0, r0, cr5, cr2, {3}
    756c:	00000025 	andeq	r0, r0, r5, lsr #32
    7570:	0f100b3c 	svceq	0x00100b3c
    7574:	d1050000 	mrsle	r0, (UNDEF: 5)
    7578:	000005cf 	andeq	r0, r0, pc, asr #11
    757c:	13530b40 	cmpne	r3, #64, 22	; 0x10000
    7580:	d2050000 	andle	r0, r5, #0
    7584:	000005df 	ldrdeq	r0, [r0], -pc	; <UNPREDICTABLE>
    7588:	6c5f1043 	mrrcvs	0, 4, r1, pc, cr3	; <UNPREDICTABLE>
    758c:	d5050062 	strle	r0, [r5, #-98]	; 0x62
    7590:	000002b1 			; <UNDEFINED> instruction: 0x000002b1
    7594:	0f730b44 	svceq	0x00730b44
    7598:	d8050000 	stmdale	r5, {}	; <UNPREDICTABLE>
    759c:	00000025 	andeq	r0, r0, r5, lsr #32
    75a0:	10d50b4c 	sbcsne	r0, r5, ip, asr #22
    75a4:	d9050000 	stmdble	r5, {}	; <UNPREDICTABLE>
    75a8:	00000076 	andeq	r0, r0, r6, ror r0
    75ac:	133e0b50 	teqne	lr, #80, 22	; 0x14000
    75b0:	dc050000 	stcle	0, cr0, [r5], {-0}
    75b4:	00000424 	andeq	r0, r0, r4, lsr #8
    75b8:	066b0b54 			; <UNDEFINED> instruction: 0x066b0b54
    75bc:	e0050000 	and	r0, r5, r0
    75c0:	000000fa 	strdeq	r0, [r0], -sl
    75c4:	11790b58 	cmnne	r9, r8, asr fp
    75c8:	e2050000 	and	r0, r5, #0
    75cc:	000000ef 	andeq	r0, r0, pc, ror #1
    75d0:	10c30b5c 	sbcne	r0, r3, ip, asr fp
    75d4:	e3050000 	movw	r0, #20480	; 0x5000
    75d8:	00000025 	andeq	r0, r0, r5, lsr #32
    75dc:	25140064 	ldrcs	r0, [r4, #-100]	; 0x64
    75e0:	24000000 	strcs	r0, [r0], #-0
    75e4:	15000004 	strne	r0, [r0, #-4]
    75e8:	00000424 	andeq	r0, r0, r4, lsr #8
    75ec:	00010515 	andeq	r0, r1, r5, lsl r5
    75f0:	01071500 	tsteq	r7, r0, lsl #10
    75f4:	25150000 	ldrcs	r0, [r5, #-0]
    75f8:	00000000 	andeq	r0, r0, r0
    75fc:	042f040d 	strteq	r0, [pc], #-1037	; 7604 <__code_start__-0x9fc>
    7600:	240e0000 	strcs	r0, [lr], #-0
    7604:	16000004 	strne	r0, [r0], -r4
    7608:	000011c6 	andeq	r1, r0, r6, asr #3
    760c:	38050428 	stmdacc	r5, {r3, r5, sl}
    7610:	00056102 	andeq	r6, r5, r2, lsl #2
    7614:	11411700 	cmpne	r1, r0, lsl #14
    7618:	3a050000 	bcc	147620 <__bss_end__+0x13ae40>
    761c:	00002502 	andeq	r2, r0, r2, lsl #10
    7620:	6c170000 	ldcvs	0, cr0, [r7], {-0}
    7624:	0500000f 	streq	r0, [r0, #-15]
    7628:	0636023f 			; <UNDEFINED> instruction: 0x0636023f
    762c:	17040000 	strne	r0, [r4, -r0]
    7630:	00001060 	andeq	r1, r0, r0, rrx
    7634:	36023f05 	strcc	r3, [r2], -r5, lsl #30
    7638:	08000006 	stmdaeq	r0, {r1, r2}
    763c:	00102117 	andseq	r2, r0, r7, lsl r1
    7640:	023f0500 	eorseq	r0, pc, #0, 10
    7644:	00000636 	andeq	r0, r0, r6, lsr r6
    7648:	119a170c 	orrsne	r1, sl, ip, lsl #14
    764c:	41050000 	mrsmi	r0, (UNDEF: 5)
    7650:	00002502 	andeq	r2, r0, r2, lsl #10
    7654:	97171000 	ldrls	r1, [r7, -r0]
    7658:	0500000e 	streq	r0, [r0, #-14]
    765c:	08180242 	ldmdaeq	r8, {r1, r6, r9}
    7660:	17140000 	ldrne	r0, [r4, -r0]
    7664:	000012b8 			; <UNDEFINED> instruction: 0x000012b8
    7668:	25024405 	strcs	r4, [r2, #-1029]	; 0x405
    766c:	30000000 	andcc	r0, r0, r0
    7670:	0011a417 	andseq	sl, r1, r7, lsl r4
    7674:	02450500 	subeq	r0, r5, #0, 10
    7678:	00000585 	andeq	r0, r0, r5, lsl #11
    767c:	11071734 	tstne	r7, r4, lsr r7
    7680:	47050000 	strmi	r0, [r5, -r0]
    7684:	00002502 	andeq	r2, r0, r2, lsl #10
    7688:	b4173800 	ldrlt	r3, [r7], #-2048	; 0x800
    768c:	05000011 	streq	r0, [r0, #-17]
    7690:	08330249 	ldmdaeq	r3!, {r0, r3, r6, r9}
    7694:	173c0000 	ldrne	r0, [ip, -r0]!
    7698:	0000109f 	muleq	r0, pc, r0	; <UNPREDICTABLE>
    769c:	77024c05 	strvc	r4, [r2, -r5, lsl #24]
    76a0:	40000001 	andmi	r0, r0, r1
    76a4:	00104017 	andseq	r4, r0, r7, lsl r0
    76a8:	024d0500 	subeq	r0, sp, #0, 10
    76ac:	00000025 	andeq	r0, r0, r5, lsr #32
    76b0:	13c21744 	bicne	r1, r2, #68, 14	; 0x1100000
    76b4:	4e050000 	cdpmi	0, 0, cr0, cr5, cr0, {0}
    76b8:	00017702 	andeq	r7, r1, r2, lsl #14
    76bc:	1e174800 	cdpne	8, 1, cr4, cr7, cr0, {0}
    76c0:	05000011 	streq	r0, [r0, #-17]
    76c4:	0839024f 	ldmdaeq	r9!, {r0, r1, r2, r3, r6, r9}
    76c8:	174c0000 	strbne	r0, [ip, -r0]
    76cc:	00001068 	andeq	r1, r0, r8, rrx
    76d0:	25025205 	strcs	r5, [r2, #-517]	; 0x205
    76d4:	50000000 	andpl	r0, r0, r0
    76d8:	000f8f17 	andeq	r8, pc, r7, lsl pc	; <UNPREDICTABLE>
    76dc:	02530500 	subseq	r0, r3, #0, 10
    76e0:	00000107 	andeq	r0, r0, r7, lsl #2
    76e4:	113a1754 	teqne	sl, r4, asr r7
    76e8:	76050000 	strvc	r0, [r5], -r0
    76ec:	0007f602 	andeq	pc, r7, r2, lsl #12
    76f0:	ff185800 			; <UNDEFINED> instruction: 0xff185800
    76f4:	05000010 	streq	r0, [r0, #-16]
    76f8:	0294027a 	addseq	r0, r4, #-1610612729	; 0xa0000007
    76fc:	01480000 	mrseq	r0, (UNDEF: 72)
    7700:	00107d18 	andseq	r7, r0, r8, lsl sp
    7704:	027b0500 	rsbseq	r0, fp, #0, 10
    7708:	00000256 	andeq	r0, r0, r6, asr r2
    770c:	2418014c 	ldrcs	r0, [r8], #-332	; 0x14c
    7710:	05000013 	streq	r0, [r0, #-19]
    7714:	084a027f 	stmdaeq	sl, {r0, r1, r2, r3, r4, r5, r6, r9}^
    7718:	02dc0000 	sbcseq	r0, ip, #0
    771c:	000f5518 	andeq	r5, pc, r8, lsl r5	; <UNPREDICTABLE>
    7720:	02840500 	addeq	r0, r4, #0, 10
    7724:	000005fb 	strdeq	r0, [r0], -fp
    7728:	3a1802e0 	bcc	6082b0 <__bss_end__+0x5fbad0>
    772c:	0500000f 	streq	r0, [r0, #-15]
    7730:	08560285 	ldmdaeq	r6, {r0, r2, r7, r9}^
    7734:	02ec0000 	rsceq	r0, ip, #0
    7738:	06040d00 	streq	r0, [r4], -r0, lsl #26
    773c:	14000004 	strne	r0, [r0], #-4
    7740:	00000025 	andeq	r0, r0, r5, lsr #32
    7744:	00000585 	andeq	r0, r0, r5, lsl #11
    7748:	00042415 	andeq	r2, r4, r5, lsl r4
    774c:	01051500 	tsteq	r5, r0, lsl #10
    7750:	85150000 	ldrhi	r0, [r5, #-0]
    7754:	15000005 	strne	r0, [r0, #-5]
    7758:	00000025 	andeq	r0, r0, r5, lsr #32
    775c:	14040d00 	strne	r0, [r4], #-3328	; 0xd00
    7760:	0d000001 	stceq	0, cr0, [r0, #-4]
    7764:	00056704 	andeq	r6, r5, r4, lsl #14
    7768:	00811400 	addeq	r1, r1, r0, lsl #8
    776c:	05af0000 	streq	r0, [pc, #0]!	; 7774 <__code_start__-0x88c>
    7770:	24150000 	ldrcs	r0, [r5], #-0
    7774:	15000004 	strne	r0, [r0, #-4]
    7778:	00000105 	andeq	r0, r0, r5, lsl #2
    777c:	00008115 	andeq	r8, r0, r5, lsl r1
    7780:	00251500 	eoreq	r1, r5, r0, lsl #10
    7784:	0d000000 	stceq	0, cr0, [r0, #-0]
    7788:	00059104 	andeq	r9, r5, r4, lsl #2
    778c:	00251400 	eoreq	r1, r5, r0, lsl #8
    7790:	05c90000 	strbeq	r0, [r9]
    7794:	24150000 	ldrcs	r0, [r5], #-0
    7798:	15000004 	strne	r0, [r0, #-4]
    779c:	00000105 	andeq	r0, r0, r5, lsl #2
    77a0:	b5040d00 	strlt	r0, [r4, #-3328]	; 0xd00
    77a4:	08000005 	stmdaeq	r0, {r0, r2}
    77a8:	0000004f 	andeq	r0, r0, pc, asr #32
    77ac:	000005df 	ldrdeq	r0, [r0], -pc	; <UNPREDICTABLE>
    77b0:	0000c709 	andeq	ip, r0, r9, lsl #14
    77b4:	08000200 	stmdaeq	r0, {r9}
    77b8:	0000004f 	andeq	r0, r0, pc, asr #32
    77bc:	000005ef 	andeq	r0, r0, pc, ror #11
    77c0:	0000c709 	andeq	ip, r0, r9, lsl #14
    77c4:	05000000 	streq	r0, [r0, #-0]
    77c8:	0000115f 	andeq	r1, r0, pc, asr r1
    77cc:	dc011d05 	stcle	13, cr1, [r1], {5}
    77d0:	19000002 	stmdbne	r0, {r1}
    77d4:	000012e6 	andeq	r1, r0, r6, ror #5
    77d8:	0121050c 	teqeq	r1, ip, lsl #10
    77dc:	00000630 	andeq	r0, r0, r0, lsr r6
    77e0:	00118717 	andseq	r8, r1, r7, lsl r7
    77e4:	01230500 	teqeq	r3, r0, lsl #10
    77e8:	00000630 	andeq	r0, r0, r0, lsr r6
    77ec:	10761700 	rsbsne	r1, r6, r0, lsl #14
    77f0:	24050000 	strcs	r0, [r5], #-0
    77f4:	00002501 	andeq	r2, r0, r1, lsl #10
    77f8:	59170400 	ldmdbpl	r7, {sl}
    77fc:	05000011 	streq	r0, [r0, #-17]
    7800:	06360125 	ldrteq	r0, [r6], -r5, lsr #2
    7804:	00080000 	andeq	r0, r8, r0
    7808:	05fb040d 	ldrbeq	r0, [fp, #1037]!	; 0x40d
    780c:	040d0000 	streq	r0, [sp], #-0
    7810:	000005ef 	andeq	r0, r0, pc, ror #11
    7814:	000e8f19 	andeq	r8, lr, r9, lsl pc
    7818:	3d050e00 	stccc	14, cr0, [r5, #-0]
    781c:	00067101 	andeq	r7, r6, r1, lsl #2
    7820:	11cd1700 	bicne	r1, sp, r0, lsl #14
    7824:	3e050000 	cdpcc	0, 0, cr0, cr5, cr0, {0}
    7828:	00067101 	andeq	r7, r6, r1, lsl #2
    782c:	07170000 	ldreq	r0, [r7, -r0]
    7830:	05000012 	streq	r0, [r0, #-18]
    7834:	0671013f 			; <UNDEFINED> instruction: 0x0671013f
    7838:	17060000 	strne	r0, [r6, -r0]
    783c:	0000128b 	andeq	r1, r0, fp, lsl #5
    7840:	56014005 	strpl	r4, [r1], -r5
    7844:	0c000000 	stceq	0, cr0, [r0], {-0}
    7848:	00560800 	subseq	r0, r6, r0, lsl #16
    784c:	06810000 	streq	r0, [r1], r0
    7850:	c7090000 	strgt	r0, [r9, -r0]
    7854:	02000000 	andeq	r0, r0, #0
    7858:	05d01a00 	ldrbeq	r1, [r0, #2560]	; 0xa00
    785c:	07820257 			; <UNDEFINED> instruction: 0x07820257
    7860:	ca170000 	bgt	5c7868 <__bss_end__+0x5bb088>
    7864:	05000012 	streq	r0, [r0, #-18]
    7868:	002c0259 	eoreq	r0, ip, r9, asr r2
    786c:	17000000 	strne	r0, [r0, -r0]
    7870:	00001275 	andeq	r1, r0, r5, ror r2
    7874:	07025a05 	streq	r5, [r2, -r5, lsl #20]
    7878:	04000001 	streq	r0, [r0], #-1
    787c:	00109217 	andseq	r9, r0, r7, lsl r2
    7880:	025b0500 	subseq	r0, fp, #0, 10
    7884:	00000782 	andeq	r0, r0, r2, lsl #15
    7888:	13991708 	orrsne	r1, r9, #8, 14	; 0x200000
    788c:	5c050000 	stcpl	0, cr0, [r5], {-0}
    7890:	00018d02 	andeq	r8, r1, r2, lsl #26
    7894:	31172400 	tstcc	r7, r0, lsl #8
    7898:	05000010 	streq	r0, [r0, #-16]
    789c:	0025025d 	eoreq	r0, r5, sp, asr r2
    78a0:	17480000 	strbne	r0, [r8, -r0]
    78a4:	00001182 	andeq	r1, r0, r2, lsl #3
    78a8:	64025e05 	strvs	r5, [r2], #-3589	; 0xe05
    78ac:	50000000 	andpl	r0, r0, r0
    78b0:	0013af17 	andseq	sl, r3, r7, lsl pc
    78b4:	025f0500 	subseq	r0, pc, #0, 10
    78b8:	0000063c 	andeq	r0, r0, ip, lsr r6
    78bc:	118d1758 	orrne	r1, sp, r8, asr r7
    78c0:	60050000 	andvs	r0, r5, r0
    78c4:	0000ef02 	andeq	lr, r0, r2, lsl #30
    78c8:	b4176800 	ldrlt	r6, [r7], #-2048	; 0x800
    78cc:	05000013 	streq	r0, [r0, #-19]
    78d0:	00ef0261 	rsceq	r0, pc, r1, ror #4
    78d4:	17700000 	ldrbne	r0, [r0, -r0]!
    78d8:	00000ef4 	strdeq	r0, [r0], -r4
    78dc:	ef026205 	svc	0x00026205
    78e0:	78000000 	stmdavc	r0, {}	; <UNPREDICTABLE>
    78e4:	00130617 	andseq	r0, r3, r7, lsl r6
    78e8:	02630500 	rsbeq	r0, r3, #0, 10
    78ec:	00000792 	muleq	r0, r2, r7
    78f0:	10861780 	addne	r1, r6, r0, lsl #15
    78f4:	64050000 	strvs	r0, [r5], #-0
    78f8:	0007a202 	andeq	sl, r7, r2, lsl #4
    78fc:	98178800 	ldmdals	r7, {fp, pc}
    7900:	05000012 	streq	r0, [r0, #-18]
    7904:	00250265 	eoreq	r0, r5, r5, ror #4
    7908:	17a00000 	strne	r0, [r0, r0]!
    790c:	00000fdd 	ldrdeq	r0, [r0], -sp
    7910:	ef026605 	svc	0x00026605
    7914:	a4000000 	strge	r0, [r0], #-0
    7918:	000ee517 	andeq	lr, lr, r7, lsl r5
    791c:	02670500 	rsbeq	r0, r7, #0, 10
    7920:	000000ef 	andeq	r0, r0, pc, ror #1
    7924:	0fcc17ac 	svceq	0x00cc17ac
    7928:	68050000 	stmdavs	r5, {}	; <UNPREDICTABLE>
    792c:	0000ef02 	andeq	lr, r0, r2, lsl #30
    7930:	ac17b400 	cfldrsge	mvf11, [r7], {-0}
    7934:	0500000e 	streq	r0, [r0, #-14]
    7938:	00ef0269 	rsceq	r0, pc, r9, ror #4
    793c:	17bc0000 	ldrne	r0, [ip, r0]!
    7940:	00000ebb 			; <UNDEFINED> instruction: 0x00000ebb
    7944:	ef026a05 	svc	0x00026a05
    7948:	c4000000 	strgt	r0, [r0], #-0
    794c:	00113f17 	andseq	r3, r1, r7, lsl pc
    7950:	026b0500 	rsbeq	r0, fp, #0, 10
    7954:	00000025 	andeq	r0, r0, r5, lsr #32
    7958:	0d0800cc 	stceq	0, cr0, [r8, #-816]	; 0xfffffcd0
    795c:	92000001 	andls	r0, r0, #1
    7960:	09000007 	stmdbeq	r0, {r0, r1, r2}
    7964:	000000c7 	andeq	r0, r0, r7, asr #1
    7968:	0d080019 	stceq	0, cr0, [r8, #-100]	; 0xffffff9c
    796c:	a2000001 	andge	r0, r0, #1
    7970:	09000007 	stmdbeq	r0, {r0, r1, r2}
    7974:	000000c7 	andeq	r0, r0, r7, asr #1
    7978:	0d080007 	stceq	0, cr0, [r8, #-28]	; 0xffffffe4
    797c:	b2000001 	andlt	r0, r0, #1
    7980:	09000007 	stmdbeq	r0, {r0, r1, r2}
    7984:	000000c7 	andeq	r0, r0, r7, asr #1
    7988:	f01a0017 			; <UNDEFINED> instruction: 0xf01a0017
    798c:	d6027005 	strle	r7, [r2], -r5
    7990:	17000007 	strne	r0, [r0, -r7]
    7994:	000010ef 	andeq	r1, r0, pc, ror #1
    7998:	d6027305 	strle	r7, [r2], -r5, lsl #6
    799c:	00000007 	andeq	r0, r0, r7
    79a0:	0012fd17 	andseq	pc, r2, r7, lsl sp	; <UNPREDICTABLE>
    79a4:	02740500 	rsbseq	r0, r4, #0, 10
    79a8:	000007e6 	andeq	r0, r0, r6, ror #15
    79ac:	d6080078 			; <UNDEFINED> instruction: 0xd6080078
    79b0:	e6000002 	str	r0, [r0], -r2
    79b4:	09000007 	stmdbeq	r0, {r0, r1, r2}
    79b8:	000000c7 	andeq	r0, r0, r7, asr #1
    79bc:	2c08001d 	stccs	0, cr0, [r8], {29}
    79c0:	f6000000 			; <UNDEFINED> instruction: 0xf6000000
    79c4:	09000007 	stmdbeq	r0, {r0, r1, r2}
    79c8:	000000c7 	andeq	r0, r0, r7, asr #1
    79cc:	f01b001d 			; <UNDEFINED> instruction: 0xf01b001d
    79d0:	18025505 	stmdane	r2, {r0, r2, r8, sl, ip, lr}
    79d4:	1c000008 	stcne	0, cr0, [r0], {8}
    79d8:	000011c6 	andeq	r1, r0, r6, asr #3
    79dc:	81026c05 	tsthi	r2, r5, lsl #24
    79e0:	1c000006 	stcne	0, cr0, [r0], {6}
    79e4:	00001359 	andeq	r1, r0, r9, asr r3
    79e8:	b2027505 	andlt	r7, r2, #20971520	; 0x1400000
    79ec:	00000007 	andeq	r0, r0, r7
    79f0:	00010d08 	andeq	r0, r1, r8, lsl #26
    79f4:	00082800 	andeq	r2, r8, r0, lsl #16
    79f8:	00c70900 	sbceq	r0, r7, r0, lsl #18
    79fc:	00180000 	andseq	r0, r8, r0
    7a00:	0008331d 	andeq	r3, r8, sp, lsl r3
    7a04:	04241500 	strteq	r1, [r4], #-1280	; 0x500
    7a08:	0d000000 	stceq	0, cr0, [r0, #-0]
    7a0c:	00082804 	andeq	r2, r8, r4, lsl #16
    7a10:	77040d00 	strvc	r0, [r4, -r0, lsl #26]
    7a14:	1d000001 	stcne	0, cr0, [r0, #-4]
    7a18:	0000084a 	andeq	r0, r0, sl, asr #16
    7a1c:	00002515 	andeq	r2, r0, r5, lsl r5
    7a20:	040d0000 	streq	r0, [sp], #-0
    7a24:	00000850 	andeq	r0, r0, r0, asr r8
    7a28:	083f040d 	ldmdaeq	pc!, {r0, r2, r3, sl}	; <UNPREDICTABLE>
    7a2c:	ef080000 	svc	0x00080000
    7a30:	66000005 	strvs	r0, [r0], -r5
    7a34:	09000008 	stmdbeq	r0, {r3}
    7a38:	000000c7 	andeq	r0, r0, r7, asr #1
    7a3c:	ac1e0002 	ldcge	0, cr0, [lr], {2}
    7a40:	05000012 	streq	r0, [r0, #-18]
    7a44:	042402fd 	strteq	r0, [r4], #-765	; 0x2fd
    7a48:	a51e0000 	ldrge	r0, [lr, #-0]
    7a4c:	05000012 	streq	r0, [r0, #-18]
    7a50:	042a02fe 	strteq	r0, [sl], #-766	; 0x2fe
    7a54:	25140000 	ldrcs	r0, [r4, #-0]
    7a58:	8d000000 	stchi	0, cr0, [r0, #-0]
    7a5c:	15000008 	strne	r0, [r0, #-8]
    7a60:	00000025 	andeq	r0, r0, r5, lsr #32
    7a64:	0a8c1f00 	beq	fe30f66c <__bss_end__+0xfe302e8c>
    7a68:	1d060000 	stcne	0, cr0, [r6, #-0]
    7a6c:	00000898 	muleq	r0, r8, r8
    7a70:	087e040d 	ldmdaeq	lr!, {r0, r2, r3, sl}^
    7a74:	25140000 	ldrcs	r0, [r4, #-0]
    7a78:	ad000000 	stcge	0, cr0, [r0, #-0]
    7a7c:	15000008 	strne	r0, [r0, #-8]
    7a80:	00000585 	andeq	r0, r0, r5, lsl #11
    7a84:	0ac91f00 	beq	ff24f68c <__bss_end__+0xff242eac>
    7a88:	22060000 	andcs	r0, r6, #0
    7a8c:	000008b8 			; <UNDEFINED> instruction: 0x000008b8
    7a90:	089e040d 	ldmeq	lr, {r0, r2, r3, sl}
    7a94:	08030000 	stmdaeq	r3, {}	; <UNPREDICTABLE>
    7a98:	00146b04 	andseq	r6, r4, r4, lsl #22
    7a9c:	14b61f00 	ldrtne	r1, [r6], #3840	; 0xf00
    7aa0:	0d010000 	stceq	0, cr0, [r1, #-0]
    7aa4:	0000010d 	andeq	r0, r0, sp, lsl #2
    7aa8:	0014d820 	andseq	sp, r4, r0, lsr #16
    7aac:	070e0100 	streq	r0, [lr, -r0, lsl #2]
    7ab0:	05000001 	streq	r0, [r0, #-1]
    7ab4:	00b13803 	adcseq	r3, r1, r3, lsl #16
    7ab8:	14cd2000 	strbne	r2, [sp], #0
    7abc:	0f010000 	svceq	0x00010000
    7ac0:	00000107 	andeq	r0, r0, r7, lsl #2
    7ac4:	b13c0305 	teqlt	ip, r5, lsl #6
    7ac8:	99210000 	stmdbls	r1!, {}	; <UNPREDICTABLE>
    7acc:	01000014 	tsteq	r0, r4, lsl r0
    7ad0:	00b12038 	adcseq	r2, r1, r8, lsr r0
    7ad4:	00001000 	andeq	r1, r0, r0
    7ad8:	139c0100 	orrsne	r0, ip, #0, 2
    7adc:	22000009 	andcs	r0, r0, #9
    7ae0:	38010070 	stmdacc	r1, {r4, r5, r6}
    7ae4:	00000105 	andeq	r0, r0, r5, lsl #2
    7ae8:	23005001 	movwcs	r5, #1
    7aec:	00001472 	andeq	r1, r0, r2, ror r4
    7af0:	b10c3701 	tstlt	ip, r1, lsl #14
    7af4:	00140000 	andseq	r0, r4, r0
    7af8:	9c010000 	stcls	0, cr0, [r1], {-0}
    7afc:	00149321 	andseq	r9, r4, r1, lsr #6
    7b00:	08360100 	ldmdaeq	r6!, {r8}
    7b04:	040000b1 	streq	r0, [r0], #-177	; 0xb1
    7b08:	01000000 	mrseq	r0, (UNDEF: 0)
    7b0c:	0009459c 	muleq	r9, ip, r5
    7b10:	00702200 	rsbseq	r2, r0, r0, lsl #4
    7b14:	01053601 	tsteq	r5, r1, lsl #12
    7b18:	50010000 	andpl	r0, r1, r0
    7b1c:	023f2400 	eorseq	r2, pc, #0, 8
    7b20:	29010000 	stmdbcs	r1, {}	; <UNPREDICTABLE>
    7b24:	00000105 	andeq	r0, r0, r5, lsl #2
    7b28:	0000b05c 	andeq	fp, r0, ip, asr r0
    7b2c:	000000ac 	andeq	r0, r0, ip, lsr #1
    7b30:	0a449c01 	beq	112eb3c <__bss_end__+0x112235c>
    7b34:	97250000 	strls	r0, [r5, -r0]!
    7b38:	01000003 	tsteq	r0, r3
    7b3c:	00002c29 	andeq	r2, r0, r9, lsr #24
    7b40:	001f1000 	andseq	r1, pc, r0
    7b44:	02102500 	andseq	r2, r0, #0, 10
    7b48:	29010000 	stmdbcs	r1, {}	; <UNPREDICTABLE>
    7b4c:	0000002c 	andeq	r0, r0, ip, lsr #32
    7b50:	00001f63 	andeq	r1, r0, r3, ror #30
    7b54:	00000e26 	andeq	r0, r0, r6, lsr #28
    7b58:	000a5400 	andeq	r5, sl, r0, lsl #8
    7b5c:	e0030500 	and	r0, r3, r0, lsl #10
    7b60:	270000c2 	strcs	r0, [r0, -r2, asr #1]
    7b64:	2e010068 	cdpcs	0, 0, cr0, cr1, cr8, {3}
    7b68:	0000002c 	andeq	r0, r0, ip, lsr #32
    7b6c:	00001faa 	andeq	r1, r0, sl, lsr #31
    7b70:	00b09c28 	adcseq	r9, r0, r8, lsr #24
    7b74:	000a8d00 	andeq	r8, sl, r0, lsl #26
    7b78:	0009ad00 	andeq	sl, r9, r0, lsl #26
    7b7c:	50012900 	andpl	r2, r1, r0, lsl #18
    7b80:	5001f303 	andpl	pc, r1, r3, lsl #6
    7b84:	b0a82a00 	adclt	r2, r8, r0, lsl #20
    7b88:	0c230000 	stceq	0, cr0, [r3], #-0
    7b8c:	c4280000 	strtgt	r0, [r8], #-0
    7b90:	2e0000b0 	mcrcs	0, 0, r0, cr0, cr0, {5}
    7b94:	ef00000c 	svc	0x0000000c
    7b98:	29000009 	stmdbcs	r0, {r0, r3}
    7b9c:	03055001 	movweq	r5, #20481	; 0x5001
    7ba0:	0000c30c 	andeq	ip, r0, ip, lsl #6
    7ba4:	05510129 	ldrbeq	r0, [r1, #-297]	; 0x129
    7ba8:	00c2f003 	sbceq	pc, r2, r3
    7bac:	52012900 	andpl	r2, r1, #0, 18
    7bb0:	c2e00305 	rscgt	r0, r0, #335544320	; 0x14000000
    7bb4:	01290000 	teqeq	r9, r0
    7bb8:	2a080253 	bcs	20850c <__bss_end__+0x1fbd2c>
    7bbc:	007d0229 	rsbseq	r0, sp, r9, lsr #4
    7bc0:	c3400305 	movtgt	r0, #773	; 0x305
    7bc4:	2a000000 	bcs	7bcc <__code_start__-0x434>
    7bc8:	0000b0c8 	andeq	fp, r0, r8, asr #1
    7bcc:	00000c39 	andeq	r0, r0, r9, lsr ip
    7bd0:	00b0cc2a 	adcseq	ip, r0, sl, lsr #24
    7bd4:	000c2300 	andeq	r2, ip, r0, lsl #6
    7bd8:	b0e82800 	rsclt	r2, r8, r0, lsl #16
    7bdc:	0c2e0000 	stceq	0, cr0, [lr], #-0
    7be0:	0a3a0000 	beq	e87be8 <__bss_end__+0xe7b408>
    7be4:	01290000 	teqeq	r9, r0
    7be8:	6c030550 	cfstr32vs	mvfx0, [r3], {80}	; 0x50
    7bec:	290000c3 	stmdbcs	r0, {r0, r1, r6, r7}
    7bf0:	03055101 	movweq	r5, #20737	; 0x5101
    7bf4:	0000c2f0 	strdeq	ip, [r0], -r0
    7bf8:	05520129 	ldrbeq	r0, [r2, #-297]	; 0x129
    7bfc:	00c2e003 	sbceq	lr, r2, r3
    7c00:	53012900 	movwpl	r2, #6400	; 0x1900
    7c04:	29300802 	ldmdbcs	r0!, {r1, fp}
    7c08:	05007d02 	streq	r7, [r0, #-3330]	; 0xd02
    7c0c:	00c39803 	sbceq	r9, r3, r3, lsl #16
    7c10:	ec2a0000 	stc	0, cr0, [sl], #-0
    7c14:	390000b0 	stmdbcc	r0, {r4, r5, r7}
    7c18:	0000000c 	andeq	r0, r0, ip
    7c1c:	00011408 	andeq	r1, r1, r8, lsl #8
    7c20:	000a5400 	andeq	r5, sl, r0, lsl #8
    7c24:	00c70900 	sbceq	r0, r7, r0, lsl #18
    7c28:	000f0000 	andeq	r0, pc, r0
    7c2c:	000a440e 	andeq	r4, sl, lr, lsl #8
    7c30:	14a52400 	strtne	r2, [r5], #1024	; 0x400
    7c34:	25010000 	strcs	r0, [r1, #-0]
    7c38:	00000105 	andeq	r0, r0, r5, lsl #2
    7c3c:	0000b050 	andeq	fp, r0, r0, asr r0
    7c40:	0000000c 	andeq	r0, r0, ip
    7c44:	0a7c9c01 	beq	1f2ec50 <__bss_end__+0x1f22470>
    7c48:	582a0000 	stmdapl	sl!, {}	; <UNPREDICTABLE>
    7c4c:	f90000b0 			; <UNDEFINED> instruction: 0xf90000b0
    7c50:	0000000b 	andeq	r0, r0, fp
    7c54:	00145e23 	andseq	r5, r4, r3, lsr #28
    7c58:	4c240100 	stfmis	f0, [r4], #-0
    7c5c:	040000b0 	streq	r0, [r0], #-176	; 0xb0
    7c60:	01000000 	mrseq	r0, (UNDEF: 0)
    7c64:	14ee249c 	strbtne	r2, [lr], #1180	; 0x49c
    7c68:	1a010000 	bne	47c70 <__bss_end__+0x3b490>
    7c6c:	00000105 	andeq	r0, r0, r5, lsl #2
    7c70:	0000afd4 	ldrdeq	sl, [r0], -r4
    7c74:	00000078 	andeq	r0, r0, r8, ror r0
    7c78:	0b429c01 	bleq	10aec84 <__bss_end__+0x10a24a4>
    7c7c:	732b0000 	teqvc	fp, #0
    7c80:	1a01007a 	bne	47e70 <__bss_end__+0x3b690>
    7c84:	0000002c 	andeq	r0, r0, ip, lsr #32
    7c88:	00001fe2 	andeq	r1, r0, r2, ror #31
    7c8c:	00000e26 	andeq	r0, r0, r6, lsr #28
    7c90:	000b5200 	andeq	r5, fp, r0, lsl #4
    7c94:	d8030500 	stmdale	r3, {r8, sl}
    7c98:	2c0000c2 	stccs	0, cr0, [r0], {194}	; 0xc2
    7c9c:	00000258 	andeq	r0, r0, r8, asr r2
    7ca0:	01051e01 	tsteq	r5, r1, lsl #28
    7ca4:	202c0000 	eorcs	r0, ip, r0
    7ca8:	08280000 	stmdaeq	r8!, {}	; <UNPREDICTABLE>
    7cac:	440000b0 	strmi	r0, [r0], #-176	; 0xb0
    7cb0:	f700000c 			; <UNDEFINED> instruction: 0xf700000c
    7cb4:	2900000a 	stmdbcs	r0, {r1, r3}
    7cb8:	74025001 	strvc	r5, [r2], #-1
    7cbc:	51012900 	tstpl	r1, r0, lsl #18
    7cc0:	01293001 	teqeq	r9, r1
    7cc4:	01f30852 	mvnseq	r0, r2, asr r8
    7cc8:	09072350 	stmdbeq	r7, {r4, r6, r8, r9, sp}
    7ccc:	2a001af8 	bcs	e8b4 <__bss_end__+0x20d4>
    7cd0:	0000b018 	andeq	fp, r0, r8, lsl r0
    7cd4:	00000c23 	andeq	r0, r0, r3, lsr #24
    7cd8:	00b03428 	adcseq	r3, r0, r8, lsr #8
    7cdc:	000c2e00 	andeq	r2, ip, r0, lsl #28
    7ce0:	000b3800 	andeq	r3, fp, r0, lsl #16
    7ce4:	50012900 	andpl	r2, r1, r0, lsl #18
    7ce8:	b1400305 	cmplt	r0, r5, lsl #6
    7cec:	01290000 	teqeq	r9, r0
    7cf0:	f0030551 			; <UNDEFINED> instruction: 0xf0030551
    7cf4:	290000c2 	stmdbcs	r0, {r1, r6, r7}
    7cf8:	03055201 	movweq	r5, #20993	; 0x5201
    7cfc:	0000c2d8 	ldrdeq	ip, [r0], -r8
    7d00:	01530129 	cmpeq	r3, r9, lsr #2
    7d04:	7d02294b 	stcvc	9, cr2, [r2, #-300]	; 0xfffffed4
    7d08:	08030500 	stmdaeq	r3, {r8, sl}
    7d0c:	000000c3 	andeq	r0, r0, r3, asr #1
    7d10:	00b0382a 	adcseq	r3, r0, sl, lsr #16
    7d14:	000c3900 	andeq	r3, ip, r0, lsl #18
    7d18:	14080000 	strne	r0, [r8], #-0
    7d1c:	52000001 	andpl	r0, r0, #1
    7d20:	0900000b 	stmdbeq	r0, {r0, r1, r3}
    7d24:	000000c7 	andeq	r0, r0, r7, asr #1
    7d28:	420e0007 	andmi	r0, lr, #7
    7d2c:	2100000b 	tstcs	r0, fp
    7d30:	0000147c 	andeq	r1, r0, ip, ror r4
    7d34:	af741401 	svcge	0x00741401
    7d38:	00600000 	rsbeq	r0, r0, r0
    7d3c:	9c010000 	stcls	0, cr0, [r1], {-0}
    7d40:	00000be4 	andeq	r0, r0, r4, ror #23
    7d44:	00025725 	andeq	r5, r2, r5, lsr #14
    7d48:	2c140100 	ldfcss	f0, [r4], {-0}
    7d4c:	3f000000 	svccc	0x00000000
    7d50:	2c000020 	stccs	0, cr0, [r0], {32}
    7d54:	00000258 	andeq	r0, r0, r8, asr r2
    7d58:	01071501 	tsteq	r7, r1, lsl #10
    7d5c:	20600000 	rsbcs	r0, r0, r0
    7d60:	0e260000 	cdpeq	0, 2, cr0, cr6, cr0, {0}
    7d64:	f4000000 	vst4.8	{d0-d3}, [r0], r0
    7d68:	0500000b 	streq	r0, [r0, #-11]
    7d6c:	00c2c003 	sbceq	ip, r2, r3
    7d70:	afa02a00 	svcge	0x00a02a00
    7d74:	0c230000 	stceq	0, cr0, [r3], #-0
    7d78:	bc280000 	stclt	0, cr0, [r8], #-0
    7d7c:	2e0000af 	cdpcs	0, 0, cr0, cr0, cr15, {5}
    7d80:	da00000c 	ble	7db8 <__code_start__-0x248>
    7d84:	2900000b 	stmdbcs	r0, {r0, r1, r3}
    7d88:	03055001 	movweq	r5, #20481	; 0x5001
    7d8c:	0000b140 	andeq	fp, r0, r0, asr #2
    7d90:	05510129 	ldrbeq	r0, [r1, #-297]	; 0x129
    7d94:	00c2f003 	sbceq	pc, r2, r3
    7d98:	52012900 	andpl	r2, r1, #0, 18
    7d9c:	c2c00305 	sbcgt	r0, r0, #335544320	; 0x14000000
    7da0:	01290000 	teqeq	r9, r0
    7da4:	29460153 	stmdbcs	r6, {r0, r1, r4, r6, r8}^
    7da8:	05007d02 	streq	r7, [r0, #-3330]	; 0xd02
    7dac:	00c2fc03 	sbceq	pc, r2, r3, lsl #24
    7db0:	c02a0000 	eorgt	r0, sl, r0
    7db4:	390000af 	stmdbcc	r0, {r0, r1, r2, r3, r5, r7}
    7db8:	0000000c 	andeq	r0, r0, ip
    7dbc:	00011408 	andeq	r1, r1, r8, lsl #8
    7dc0:	000bf400 	andeq	pc, fp, r0, lsl #8
    7dc4:	00c70900 	sbceq	r0, r7, r0, lsl #18
    7dc8:	00160000 	andseq	r0, r6, r0
    7dcc:	000be40e 	andeq	lr, fp, lr, lsl #8
    7dd0:	14c52d00 	strbne	r2, [r5], #3328	; 0xd00
    7dd4:	12010000 	andne	r0, r1, #0
    7dd8:	00000105 	andeq	r0, r0, r5, lsl #2
    7ddc:	0000af68 	andeq	sl, r0, r8, ror #30
    7de0:	0000000c 	andeq	r0, r0, ip
    7de4:	dd2d9c01 	stcle	12, cr9, [sp, #-4]!
    7de8:	01000014 	tsteq	r0, r4, lsl r0
    7dec:	00010511 	andeq	r0, r1, r1, lsl r5
    7df0:	00af5800 	adceq	r5, pc, r0, lsl #16
    7df4:	00001000 	andeq	r1, r0, r0
    7df8:	2e9c0100 	fmlcse	f0, f4, f0
    7dfc:	00000116 	andeq	r0, r0, r6, lsl r1
    7e00:	00000116 	andeq	r0, r0, r6, lsl r1
    7e04:	5b2e1e06 	blpl	b8f624 <__bss_end__+0xb82e44>
    7e08:	5b00000a 	blpl	7e38 <__code_start__-0x1c8>
    7e0c:	0600000a 	streq	r0, [r0], -sl
    7e10:	01252e29 	teqeq	r5, r9, lsr #28
    7e14:	01250000 	teqeq	r5, r0
    7e18:	65060000 	strvs	r0, [r6, #-0]
    7e1c:	0004812e 	andeq	r8, r4, lr, lsr #2
    7e20:	00048100 	andeq	r8, r4, r0, lsl #2
    7e24:	00190700 	andseq	r0, r9, r0, lsl #14

Disassembly of section .debug_abbrev:

00000000 <.debug_abbrev>:
       0:	25011101 	strcs	r1, [r1, #-257]	; 0x101
       4:	030b130e 	movweq	r1, #45838	; 0xb30e
       8:	110e1b0e 	tstne	lr, lr, lsl #22
       c:	10061201 	andne	r1, r6, r1, lsl #4
      10:	02000017 	andeq	r0, r0, #23
      14:	0b0b0024 	bleq	2c00ac <__bss_end__+0x2b38cc>
      18:	08030b3e 	stmdaeq	r3, {r1, r2, r3, r4, r5, r8, r9, fp}
      1c:	24030000 	strcs	r0, [r3], #-0
      20:	3e0b0b00 	vmlacc.f64	d0, d11, d0
      24:	000e030b 	andeq	r0, lr, fp, lsl #6
      28:	000f0400 	andeq	r0, pc, r0, lsl #8
      2c:	13490b0b 	movtne	r0, #39691	; 0x9b0b
      30:	26050000 	strcs	r0, [r5], -r0
      34:	00134900 	andseq	r4, r3, r0, lsl #18
      38:	01010600 	tsteq	r1, r0, lsl #12
      3c:	13011349 	movwne	r1, #4937	; 0x1349
      40:	21070000 	mrscs	r0, (UNDEF: 7)
      44:	2f134900 	svccs	0x00134900
      48:	0800000b 	stmdaeq	r0, {r0, r1, r3}
      4c:	193f002e 	ldmdbne	pc!, {r1, r2, r3, r5}	; <UNPREDICTABLE>
      50:	0b3a0e03 	bleq	e83864 <__bss_end__+0xe77084>
      54:	13490b3b 	movtne	r0, #39739	; 0x9b3b
      58:	06120111 			; <UNDEFINED> instruction: 0x06120111
      5c:	42971840 	addsmi	r1, r7, #64, 16	; 0x400000
      60:	09000019 	stmdbeq	r0, {r0, r3, r4}
      64:	193f012e 	ldmdbne	pc!, {r1, r2, r3, r5, r8}	; <UNPREDICTABLE>
      68:	0b3a0e03 	bleq	e8387c <__bss_end__+0xe7709c>
      6c:	19270b3b 	stmdbne	r7!, {r0, r1, r3, r4, r5, r8, r9, fp}
      70:	06120111 			; <UNDEFINED> instruction: 0x06120111
      74:	42971840 	addsmi	r1, r7, #64, 16	; 0x400000
      78:	00130119 	andseq	r0, r3, r9, lsl r1
      7c:	00340a00 	eorseq	r0, r4, r0, lsl #20
      80:	13490e03 	movtne	r0, #40451	; 0x9e03
      84:	18021934 	stmdane	r2, {r2, r4, r5, r8, fp, ip}
      88:	340b0000 	strcc	r0, [fp], #-0
      8c:	3a080300 	bcc	200c94 <__bss_end__+0x1f44b4>
      90:	490b3b0b 	stmdbmi	fp, {r0, r1, r3, r8, r9, fp, ip, sp}
      94:	00170213 	andseq	r0, r7, r3, lsl r2
      98:	82890c00 	addhi	r0, r9, #0, 24
      9c:	01110001 	tsteq	r1, r1
      a0:	00001331 	andeq	r1, r0, r1, lsr r3
      a4:	0182890d 	orreq	r8, r2, sp, lsl #18
      a8:	31011101 	tstcc	r1, r1, lsl #2
      ac:	00130113 	andseq	r0, r3, r3, lsl r1
      b0:	828a0e00 	addhi	r0, sl, #0, 28
      b4:	18020001 	stmdane	r2, {r0}
      b8:	00184291 	mulseq	r8, r1, r2
      bc:	002e0f00 	eoreq	r0, lr, r0, lsl #30
      c0:	0e03193f 	mcreq	9, 0, r1, cr3, cr15, {1}
      c4:	0b3b0b3a 	bleq	ec2db4 <__bss_end__+0xeb65d4>
      c8:	13491927 	movtne	r1, #39207	; 0x9927
      cc:	0000193c 	andeq	r1, r0, ip, lsr r9
      d0:	3f002e10 	svccc	0x00002e10
      d4:	3a0e0319 	bcc	380d40 <__bss_end__+0x374560>
      d8:	270b3b0b 	strcs	r3, [fp, -fp, lsl #22]
      dc:	00193c19 	andseq	r3, r9, r9, lsl ip
      e0:	012e1100 	teqeq	lr, r0, lsl #2
      e4:	0e03193f 	mcreq	9, 0, r1, cr3, cr15, {1}
      e8:	0b3b0b3a 	bleq	ec2dd8 <__bss_end__+0xeb65f8>
      ec:	13491927 	movtne	r1, #39207	; 0x9927
      f0:	1301193c 	movwne	r1, #6460	; 0x193c
      f4:	05120000 	ldreq	r0, [r2, #-0]
      f8:	00134900 	andseq	r4, r3, r0, lsl #18
      fc:	00181300 	andseq	r1, r8, r0, lsl #6
     100:	15140000 	ldrne	r0, [r4, #-0]
     104:	49192700 	ldmdbmi	r9, {r8, r9, sl, sp}
     108:	00000013 	andeq	r0, r0, r3, lsl r0
     10c:	25011101 	strcs	r1, [r1, #-257]	; 0x101
     110:	030b130e 	movweq	r1, #45838	; 0xb30e
     114:	110e1b0e 	tstne	lr, lr, lsl #22
     118:	10061201 	andne	r1, r6, r1, lsl #4
     11c:	02000017 	andeq	r0, r0, #23
     120:	0b0b0024 	bleq	2c01b8 <__bss_end__+0x2b39d8>
     124:	08030b3e 	stmdaeq	r3, {r1, r2, r3, r4, r5, r8, r9, fp}
     128:	16030000 	strne	r0, [r3], -r0
     12c:	3a0e0300 	bcc	380d34 <__bss_end__+0x374554>
     130:	490b3b0b 	stmdbmi	fp, {r0, r1, r3, r8, r9, fp, ip, sp}
     134:	04000013 	streq	r0, [r0], #-19
     138:	0b0b0024 	bleq	2c01d0 <__bss_end__+0x2b39f0>
     13c:	0e030b3e 	vmoveq.16	d3[0], r0
     140:	0f050000 	svceq	0x00050000
     144:	000b0b00 	andeq	r0, fp, r0, lsl #22
     148:	000f0600 	andeq	r0, pc, r0, lsl #12
     14c:	13490b0b 	movtne	r0, #39691	; 0x9b0b
     150:	26070000 	strcs	r0, [r7], -r0
     154:	00134900 	andseq	r4, r3, r0, lsl #18
     158:	01130800 	tsteq	r3, r0, lsl #16
     15c:	0b0b0e03 	bleq	2c3970 <__bss_end__+0x2b7190>
     160:	0b3b0b3a 	bleq	ec2e50 <__bss_end__+0xeb6670>
     164:	00001301 	andeq	r1, r0, r1, lsl #6
     168:	03000d09 	movweq	r0, #3337	; 0xd09
     16c:	3b0b3a0e 	blcc	2ce9ac <__bss_end__+0x2c21cc>
     170:	0b13490b 	bleq	4d25a4 <__bss_end__+0x4c5dc4>
     174:	0c0b0d0b 	stceq	13, cr0, [fp], {11}
     178:	000b380b 	andeq	r3, fp, fp, lsl #16
     17c:	000d0a00 	andeq	r0, sp, r0, lsl #20
     180:	0b3a0803 	bleq	e82194 <__bss_end__+0xe759b4>
     184:	13490b3b 	movtne	r0, #39739	; 0x9b3b
     188:	0b0d0b0b 	bleq	342dbc <__bss_end__+0x3365dc>
     18c:	0b380b0c 	bleq	e02dc4 <__bss_end__+0xdf65e4>
     190:	040b0000 	streq	r0, [fp], #-0
     194:	3a0b0b01 	bcc	2c2da0 <__bss_end__+0x2b65c0>
     198:	010b3b0b 	tsteq	fp, fp, lsl #22
     19c:	0c000013 	stceq	0, cr0, [r0], {19}
     1a0:	0e030028 	cdpeq	0, 0, cr0, cr3, cr8, {1}
     1a4:	00000d1c 	andeq	r0, r0, ip, lsl sp
     1a8:	03012e0d 	movweq	r2, #7693	; 0x1e0d
     1ac:	3b0b3a0e 	blcc	2ce9ec <__bss_end__+0x2c220c>
     1b0:	4919270b 	ldmdbmi	r9, {r0, r1, r3, r8, r9, sl, sp}
     1b4:	010b2013 	tsteq	fp, r3, lsl r0
     1b8:	0e000013 	mcreq	0, 0, r0, cr0, cr3, {0}
     1bc:	08030005 	stmdaeq	r3, {r0, r2}
     1c0:	0b3b0b3a 	bleq	ec2eb0 <__bss_end__+0xeb66d0>
     1c4:	00001349 	andeq	r1, r0, r9, asr #6
     1c8:	3f012e0f 	svccc	0x00012e0f
     1cc:	3a0e0319 	bcc	380e38 <__bss_end__+0x374658>
     1d0:	270b3b0b 	strcs	r3, [fp, -fp, lsl #22]
     1d4:	11134919 	tstne	r3, r9, lsl r9
     1d8:	40061201 	andmi	r1, r6, r1, lsl #4
     1dc:	19429718 	stmdbne	r2, {r3, r4, r8, r9, sl, ip, pc}^
     1e0:	00001301 	andeq	r1, r0, r1, lsl #6
     1e4:	01828910 	orreq	r8, r2, r0, lsl r9
     1e8:	31011100 	mrscc	r1, (UNDEF: 17)
     1ec:	11000013 	tstne	r0, r3, lsl r0
     1f0:	08030005 	stmdaeq	r3, {r0, r2}
     1f4:	0b3b0b3a 	bleq	ec2ee4 <__bss_end__+0xeb6704>
     1f8:	17021349 	strne	r1, [r2, -r9, asr #6]
     1fc:	34120000 	ldrcc	r0, [r2], #-0
     200:	490e0300 	stmdbmi	lr, {r8, r9}
     204:	02193413 	andseq	r3, r9, #318767104	; 0x13000000
     208:	13000018 	movwne	r0, #24
     20c:	0e030034 	mcreq	0, 0, r0, cr3, cr4, {1}
     210:	0b3b0b3a 	bleq	ec2f00 <__bss_end__+0xeb6720>
     214:	17021349 	strne	r1, [r2, -r9, asr #6]
     218:	34140000 	ldrcc	r0, [r4], #-0
     21c:	3a080300 	bcc	200e24 <__bss_end__+0x1f4644>
     220:	490b3b0b 	stmdbmi	fp, {r0, r1, r3, r8, r9, fp, ip, sp}
     224:	00170213 	andseq	r0, r7, r3, lsl r2
     228:	82891500 	addhi	r1, r9, #0, 10
     22c:	01110101 	tsteq	r1, r1, lsl #2
     230:	13011331 	movwne	r1, #4913	; 0x1331
     234:	8a160000 	bhi	58023c <__bss_end__+0x573a5c>
     238:	02000182 	andeq	r0, r0, #-2147483616	; 0x80000020
     23c:	18429118 	stmdane	r2, {r3, r4, r8, ip, pc}^
     240:	01170000 	tsteq	r7, r0
     244:	01134901 	tsteq	r3, r1, lsl #18
     248:	18000013 	stmdane	r0, {r0, r1, r4}
     24c:	13490021 	movtne	r0, #36897	; 0x9021
     250:	00000b2f 	andeq	r0, r0, pc, lsr #22
     254:	03012e19 	movweq	r2, #7705	; 0x1e19
     258:	3b0b3a0e 	blcc	2cea98 <__bss_end__+0x2c22b8>
     25c:	1119270b 	tstne	r9, fp, lsl #14
     260:	40061201 	andmi	r1, r6, r1, lsl #4
     264:	19429718 	stmdbne	r2, {r3, r4, r8, r9, sl, ip, pc}^
     268:	00001301 	andeq	r1, r0, r1, lsl #6
     26c:	0300051a 	movweq	r0, #1306	; 0x51a
     270:	3b0b3a0e 	blcc	2ceab0 <__bss_end__+0x2c22d0>
     274:	0213490b 	andseq	r4, r3, #180224	; 0x2c000
     278:	1b000017 	blne	2dc <__code_start__-0x7d24>
     27c:	1331011d 	teqne	r1, #1073741831	; 0x40000007
     280:	06120111 			; <UNDEFINED> instruction: 0x06120111
     284:	0b590b58 	bleq	1642fec <__bss_end__+0x163680c>
     288:	00001301 	andeq	r1, r0, r1, lsl #6
     28c:	3100051c 	tstcc	r0, ip, lsl r5
     290:	00170213 	andseq	r0, r7, r3, lsl r2
     294:	010b1d00 	tsteq	fp, r0, lsl #26
     298:	13011755 	movwne	r1, #5973	; 0x1755
     29c:	0b1e0000 	bleq	7802a4 <__bss_end__+0x773ac4>
     2a0:	00175501 	andseq	r5, r7, r1, lsl #10
     2a4:	82891f00 	addhi	r1, r9, #0, 30
     2a8:	01110101 	tsteq	r1, r1, lsl #2
     2ac:	00001331 	andeq	r1, r0, r1, lsr r3
     2b0:	3f012e20 	svccc	0x00012e20
     2b4:	3a0e0319 	bcc	380f20 <__bss_end__+0x374740>
     2b8:	270b3b0b 	strcs	r3, [fp, -fp, lsl #22]
     2bc:	12011119 	andne	r1, r1, #1073741830	; 0x40000006
     2c0:	97184006 	ldrls	r4, [r8, -r6]
     2c4:	13011942 	movwne	r1, #6466	; 0x1942
     2c8:	05210000 	streq	r0, [r1, #-0]!
     2cc:	3a080300 	bcc	200ed4 <__bss_end__+0x1f46f4>
     2d0:	490b3b0b 	stmdbmi	fp, {r0, r1, r3, r8, r9, fp, ip, sp}
     2d4:	00180213 	andseq	r0, r8, r3, lsl r2
     2d8:	00342200 	eorseq	r2, r4, r0, lsl #4
     2dc:	0b3a0803 	bleq	e822f0 <__bss_end__+0xe75b10>
     2e0:	13490b3b 	movtne	r0, #39739	; 0x9b3b
     2e4:	0000051c 	andeq	r0, r0, ip, lsl r5
     2e8:	03003423 	movweq	r3, #1059	; 0x423
     2ec:	3b0b3a0e 	blcc	2ceb2c <__bss_end__+0x2c234c>
     2f0:	1c13490b 	ldcne	9, cr4, [r3], {11}
     2f4:	24000005 	strcs	r0, [r0], #-5
     2f8:	08030034 	stmdaeq	r3, {r2, r4, r5}
     2fc:	0b3b0b3a 	bleq	ec2fec <__bss_end__+0xeb680c>
     300:	18021349 	stmdane	r2, {r0, r3, r6, r8, r9, ip}
     304:	34250000 	strtcc	r0, [r5], #-0
     308:	3a0e0300 	bcc	380f10 <__bss_end__+0x374730>
     30c:	490b3b0b 	stmdbmi	fp, {r0, r1, r3, r8, r9, fp, ip, sp}
     310:	00180213 	andseq	r0, r8, r3, lsl r2
     314:	002e2600 	eoreq	r2, lr, r0, lsl #12
     318:	0e03193f 	mcreq	9, 0, r1, cr3, cr15, {1}
     31c:	0b3b0b3a 	bleq	ec300c <__bss_end__+0xeb682c>
     320:	13491927 	movtne	r1, #39207	; 0x9927
     324:	0000193c 	andeq	r1, r0, ip, lsr r9
     328:	3f002e27 	svccc	0x00002e27
     32c:	3a0e0319 	bcc	380f98 <__bss_end__+0x3747b8>
     330:	270b3b0b 	strcs	r3, [fp, -fp, lsl #22]
     334:	00193c19 	andseq	r3, r9, r9, lsl ip
     338:	012e2800 	teqeq	lr, r0, lsl #16
     33c:	0e03193f 	mcreq	9, 0, r1, cr3, cr15, {1}
     340:	0b3b0b3a 	bleq	ec3030 <__bss_end__+0xeb6850>
     344:	13491927 	movtne	r1, #39207	; 0x9927
     348:	1301193c 	movwne	r1, #6460	; 0x193c
     34c:	05290000 	streq	r0, [r9, #-0]!
     350:	00134900 	andseq	r4, r3, r0, lsl #18
     354:	00182a00 	andseq	r2, r8, r0, lsl #20
     358:	2e2b0000 	cdpcs	0, 2, cr0, cr11, cr0, {0}
     35c:	03193f01 	tsteq	r9, #1, 30
     360:	3b0b3a0e 	blcc	2ceba0 <__bss_end__+0x2c23c0>
     364:	3c19270b 	ldccc	7, cr2, [r9], {11}
     368:	00130119 	andseq	r0, r3, r9, lsl r1
     36c:	00262c00 	eoreq	r2, r6, r0, lsl #24
     370:	2e2d0000 	cdpcs	0, 2, cr0, cr13, cr0, {0}
     374:	03193f01 	tsteq	r9, #1, 30
     378:	3b0b3a0e 	blcc	2cebb8 <__bss_end__+0x2c23d8>
     37c:	3c19270b 	ldccc	7, cr2, [r9], {11}
     380:	00000019 	andeq	r0, r0, r9, lsl r0
     384:	25011101 	strcs	r1, [r1, #-257]	; 0x101
     388:	030b130e 	movweq	r1, #45838	; 0xb30e
     38c:	110e1b0e 	tstne	lr, lr, lsl #22
     390:	10061201 	andne	r1, r6, r1, lsl #4
     394:	02000017 	andeq	r0, r0, #23
     398:	0b0b0024 	bleq	2c0430 <__bss_end__+0x2b3c50>
     39c:	08030b3e 	stmdaeq	r3, {r1, r2, r3, r4, r5, r8, r9, fp}
     3a0:	24030000 	strcs	r0, [r3], #-0
     3a4:	3e0b0b00 	vmlacc.f64	d0, d11, d0
     3a8:	000e030b 	andeq	r0, lr, fp, lsl #6
     3ac:	00160400 	andseq	r0, r6, r0, lsl #8
     3b0:	0b3a0e03 	bleq	e83bc4 <__bss_end__+0xe773e4>
     3b4:	13490b3b 	movtne	r0, #39739	; 0x9b3b
     3b8:	0f050000 	svceq	0x00050000
     3bc:	490b0b00 	stmdbmi	fp, {r8, r9, fp}
     3c0:	06000013 			; <UNDEFINED> instruction: 0x06000013
     3c4:	13490026 	movtne	r0, #36902	; 0x9026
     3c8:	01070000 	mrseq	r0, (UNDEF: 7)
     3cc:	01134901 	tsteq	r3, r1, lsl #18
     3d0:	08000013 	stmdaeq	r0, {r0, r1, r4}
     3d4:	13490021 	movtne	r0, #36897	; 0x9021
     3d8:	00000b2f 	andeq	r0, r0, pc, lsr #22
     3dc:	03011309 	movweq	r1, #4873	; 0x1309
     3e0:	3a0b0b0e 	bcc	2c3020 <__bss_end__+0x2b6840>
     3e4:	010b3b0b 	tsteq	fp, fp, lsl #22
     3e8:	0a000013 	beq	43c <__code_start__-0x7bc4>
     3ec:	0e03000d 	cdpeq	0, 0, cr0, cr3, cr13, {0}
     3f0:	0b3b0b3a 	bleq	ec30e0 <__bss_end__+0xeb6900>
     3f4:	0b0b1349 	bleq	2c5120 <__bss_end__+0x2b8940>
     3f8:	0b0c0b0d 	bleq	303034 <__bss_end__+0x2f6854>
     3fc:	00000b38 	andeq	r0, r0, r8, lsr fp
     400:	03000d0b 	movweq	r0, #3339	; 0xd0b
     404:	3b0b3a08 	blcc	2cec2c <__bss_end__+0x2c244c>
     408:	0b13490b 	bleq	4d283c <__bss_end__+0x4c605c>
     40c:	0c0b0d0b 	stceq	13, cr0, [fp], {11}
     410:	000b380b 	andeq	r3, fp, fp, lsl #16
     414:	012e0c00 	teqeq	lr, r0, lsl #24
     418:	0e03193f 	mcreq	9, 0, r1, cr3, cr15, {1}
     41c:	0b3b0b3a 	bleq	ec310c <__bss_end__+0xeb692c>
     420:	01111927 	tsteq	r1, r7, lsr #18
     424:	18400612 	stmdane	r0, {r1, r4, r9, sl}^
     428:	01194297 			; <UNDEFINED> instruction: 0x01194297
     42c:	0d000013 	stceq	0, cr0, [r0, #-76]	; 0xffffffb4
     430:	08030005 	stmdaeq	r3, {r0, r2}
     434:	0b3b0b3a 	bleq	ec3124 <__bss_end__+0xeb6944>
     438:	17021349 	strne	r1, [r2, -r9, asr #6]
     43c:	050e0000 	streq	r0, [lr, #-0]
     440:	3a0e0300 	bcc	381048 <__bss_end__+0x374868>
     444:	490b3b0b 	stmdbmi	fp, {r0, r1, r3, r8, r9, fp, ip, sp}
     448:	00170213 	andseq	r0, r7, r3, lsl r2
     44c:	82890f00 	addhi	r0, r9, #0, 30
     450:	01110101 	tsteq	r1, r1, lsl #2
     454:	13011331 	movwne	r1, #4913	; 0x1331
     458:	8a100000 	bhi	400460 <__bss_end__+0x3f3c80>
     45c:	02000182 	andeq	r0, r0, #-2147483616	; 0x80000020
     460:	18429118 	stmdane	r2, {r3, r4, r8, ip, pc}^
     464:	89110000 	ldmdbhi	r1, {}	; <UNPREDICTABLE>
     468:	11010182 	smlabbne	r1, r2, r1, r0
     46c:	00133101 	andseq	r3, r3, r1, lsl #2
     470:	00261200 	eoreq	r1, r6, r0, lsl #4
     474:	89130000 	ldmdbhi	r3, {}	; <UNPREDICTABLE>
     478:	11000182 	smlabbne	r0, r2, r1, r0
     47c:	00133101 	andseq	r3, r3, r1, lsl #2
     480:	012e1400 	teqeq	lr, r0, lsl #8
     484:	0b3a0e03 	bleq	e83c98 <__bss_end__+0xe774b8>
     488:	19270b3b 	stmdbne	r7!, {r0, r1, r3, r4, r5, r8, r9, fp}
     48c:	06120111 			; <UNDEFINED> instruction: 0x06120111
     490:	42971840 	addsmi	r1, r7, #64, 16	; 0x400000
     494:	00130119 	andseq	r0, r3, r9, lsl r1
     498:	00341500 	eorseq	r1, r4, r0, lsl #10
     49c:	13490e03 	movtne	r0, #40451	; 0x9e03
     4a0:	18021934 	stmdane	r2, {r2, r4, r5, r8, fp, ip}
     4a4:	2e160000 	cdpcs	0, 1, cr0, cr6, cr0, {0}
     4a8:	03193f00 	tsteq	r9, #0, 30
     4ac:	3b0b3a0e 	blcc	2cecec <__bss_end__+0x2c250c>
     4b0:	4919270b 	ldmdbmi	r9, {r0, r1, r3, r8, r9, sl, sp}
     4b4:	12011113 	andne	r1, r1, #-1073741820	; 0xc0000004
     4b8:	97184006 	ldrls	r4, [r8, -r6]
     4bc:	00001942 	andeq	r1, r0, r2, asr #18
     4c0:	03003417 	movweq	r3, #1047	; 0x417
     4c4:	3b0b3a08 	blcc	2cecec <__bss_end__+0x2c250c>
     4c8:	0213490b 	andseq	r4, r3, #180224	; 0x2c000
     4cc:	18000018 	stmdane	r0, {r3, r4}
     4d0:	0111010b 	tsteq	r1, fp, lsl #2
     4d4:	13010612 	movwne	r0, #5650	; 0x1612
     4d8:	17190000 	ldrne	r0, [r9, -r0]
     4dc:	0b080301 	bleq	2010e8 <__bss_end__+0x1f4908>
     4e0:	3b0b3a0b 	blcc	2ced14 <__bss_end__+0x2c2534>
     4e4:	0013010b 	andseq	r0, r3, fp, lsl #2
     4e8:	000d1a00 	andeq	r1, sp, r0, lsl #20
     4ec:	0b3a0803 	bleq	e82500 <__bss_end__+0xe75d20>
     4f0:	13490b3b 	movtne	r0, #39739	; 0x9b3b
     4f4:	341b0000 	ldrcc	r0, [fp], #-0
     4f8:	3a080300 	bcc	201100 <__bss_end__+0x1f4920>
     4fc:	490b3b0b 	stmdbmi	fp, {r0, r1, r3, r8, r9, fp, ip, sp}
     500:	000d1c13 	andeq	r1, sp, r3, lsl ip
     504:	00341c00 	eorseq	r1, r4, r0, lsl #24
     508:	0b3a0e03 	bleq	e83d1c <__bss_end__+0xe7753c>
     50c:	13490b3b 	movtne	r0, #39739	; 0x9b3b
     510:	00000b1c 	andeq	r0, r0, ip, lsl fp
     514:	0300341d 	movweq	r3, #1053	; 0x41d
     518:	3b0b3a0e 	blcc	2ced58 <__bss_end__+0x2c2578>
     51c:	1c13490b 	ldcne	9, cr4, [r3], {11}
     520:	1e000005 	cdpne	0, 0, cr0, cr0, cr5, {0}
     524:	193f012e 	ldmdbne	pc!, {r1, r2, r3, r5, r8}	; <UNPREDICTABLE>
     528:	0b3a0e03 	bleq	e83d3c <__bss_end__+0xe7755c>
     52c:	19270b3b 	stmdbne	r7!, {r0, r1, r3, r4, r5, r8, r9, fp}
     530:	193c1349 	ldmdbne	ip!, {r0, r3, r6, r8, r9, ip}
     534:	00001301 	andeq	r1, r0, r1, lsl #6
     538:	4900051f 	stmdbmi	r0, {r0, r1, r2, r3, r4, r8, sl}
     53c:	20000013 	andcs	r0, r0, r3, lsl r0
     540:	00000018 	andeq	r0, r0, r8, lsl r0
     544:	3f002e21 	svccc	0x00002e21
     548:	3a0e0319 	bcc	3811b4 <__bss_end__+0x3749d4>
     54c:	270b3b0b 	strcs	r3, [fp, -fp, lsl #22]
     550:	3c134919 	ldccc	9, cr4, [r3], {25}
     554:	22000019 	andcs	r0, r0, #25
     558:	193f002e 	ldmdbne	pc!, {r1, r2, r3, r5}	; <UNPREDICTABLE>
     55c:	0b3a0e03 	bleq	e83d70 <__bss_end__+0xe77590>
     560:	19270b3b 	stmdbne	r7!, {r0, r1, r3, r4, r5, r8, r9, fp}
     564:	0000193c 	andeq	r1, r0, ip, lsr r9
     568:	01110100 	tsteq	r1, r0, lsl #2
     56c:	0b130e25 	bleq	4c3e08 <__bss_end__+0x4b7628>
     570:	0e1b0e03 	cdpeq	14, 1, cr0, cr11, cr3, {0}
     574:	06120111 			; <UNDEFINED> instruction: 0x06120111
     578:	00001710 	andeq	r1, r0, r0, lsl r7
     57c:	0b002402 	bleq	958c <dom_perm_get+0x30>
     580:	030b3e0b 	movweq	r3, #48651	; 0xbe0b
     584:	03000008 	movweq	r0, #8
     588:	0b0b0024 	bleq	2c0620 <__bss_end__+0x2b3e40>
     58c:	0e030b3e 	vmoveq.16	d3[0], r0
     590:	16040000 	strne	r0, [r4], -r0
     594:	3a0e0300 	bcc	38119c <__bss_end__+0x3749bc>
     598:	490b3b0b 	stmdbmi	fp, {r0, r1, r3, r8, r9, fp, ip, sp}
     59c:	05000013 	streq	r0, [r0, #-19]
     5a0:	0b0b000f 	bleq	2c05e4 <__bss_end__+0x2b3e04>
     5a4:	0f060000 	svceq	0x00060000
     5a8:	490b0b00 	stmdbmi	fp, {r8, r9, fp}
     5ac:	07000013 	smladeq	r0, r3, r0, r0
     5b0:	13490026 	movtne	r0, #36902	; 0x9026
     5b4:	13080000 	movwne	r0, #32768	; 0x8000
     5b8:	0b0e0301 	bleq	3811c4 <__bss_end__+0x3749e4>
     5bc:	3b0b3a0b 	blcc	2cedf0 <__bss_end__+0x2c2610>
     5c0:	0013010b 	andseq	r0, r3, fp, lsl #2
     5c4:	000d0900 	andeq	r0, sp, r0, lsl #18
     5c8:	0b3a0803 	bleq	e825dc <__bss_end__+0xe75dfc>
     5cc:	13490b3b 	movtne	r0, #39739	; 0x9b3b
     5d0:	0b0d0b0b 	bleq	343204 <__bss_end__+0x336a24>
     5d4:	0b380b0c 	bleq	e0320c <__bss_end__+0xdf6a2c>
     5d8:	0d0a0000 	stceq	0, cr0, [sl, #-0]
     5dc:	3a0e0300 	bcc	3811e4 <__bss_end__+0x374a04>
     5e0:	490b3b0b 	stmdbmi	fp, {r0, r1, r3, r8, r9, fp, ip, sp}
     5e4:	0d0b0b13 	vstreq	d0, [fp, #-76]	; 0xffffffb4
     5e8:	380b0c0b 	stmdacc	fp, {r0, r1, r3, sl, fp}
     5ec:	0b00000b 	bleq	620 <__code_start__-0x79e0>
     5f0:	0b0b0104 	bleq	2c0a08 <__bss_end__+0x2b4228>
     5f4:	0b3b0b3a 	bleq	ec32e4 <__bss_end__+0xeb6b04>
     5f8:	00001301 	andeq	r1, r0, r1, lsl #6
     5fc:	0300280c 	movweq	r2, #2060	; 0x80c
     600:	000d1c0e 	andeq	r1, sp, lr, lsl #24
     604:	01130d00 	tsteq	r3, r0, lsl #26
     608:	0b3a0b0b 	bleq	e8323c <__bss_end__+0xe76a5c>
     60c:	13010b3b 	movwne	r0, #6971	; 0x1b3b
     610:	0d0e0000 	stceq	0, cr0, [lr, #-0]
     614:	3a0e0300 	bcc	38121c <__bss_end__+0x374a3c>
     618:	490b3b0b 	stmdbmi	fp, {r0, r1, r3, r8, r9, fp, ip, sp}
     61c:	000b3813 	andeq	r3, fp, r3, lsl r8
     620:	012e0f00 	teqeq	lr, r0, lsl #30
     624:	0b3a0e03 	bleq	e83e38 <__bss_end__+0xe77658>
     628:	19270b3b 	stmdbne	r7!, {r0, r1, r3, r4, r5, r8, r9, fp}
     62c:	0b201349 	bleq	805358 <__bss_end__+0x7f8b78>
     630:	00001301 	andeq	r1, r0, r1, lsl #6
     634:	03003410 	movweq	r3, #1040	; 0x410
     638:	3b0b3a08 	blcc	2cee60 <__bss_end__+0x2c2680>
     63c:	0013490b 	andseq	r4, r3, fp, lsl #18
     640:	002e1100 	eoreq	r1, lr, r0, lsl #2
     644:	0e03193f 	mcreq	9, 0, r1, cr3, cr15, {1}
     648:	0b3b0b3a 	bleq	ec3338 <__bss_end__+0xeb6b58>
     64c:	13491927 	movtne	r1, #39207	; 0x9927
     650:	06120111 			; <UNDEFINED> instruction: 0x06120111
     654:	42971840 	addsmi	r1, r7, #64, 16	; 0x400000
     658:	12000019 	andne	r0, r0, #25
     65c:	193f012e 	ldmdbne	pc!, {r1, r2, r3, r5, r8}	; <UNPREDICTABLE>
     660:	0b3a0e03 	bleq	e83e74 <__bss_end__+0xe77694>
     664:	19270b3b 	stmdbne	r7!, {r0, r1, r3, r4, r5, r8, r9, fp}
     668:	06120111 			; <UNDEFINED> instruction: 0x06120111
     66c:	42971840 	addsmi	r1, r7, #64, 16	; 0x400000
     670:	00130119 	andseq	r0, r3, r9, lsl r1
     674:	00051300 	andeq	r1, r5, r0, lsl #6
     678:	0b3a0e03 	bleq	e83e8c <__bss_end__+0xe776ac>
     67c:	13490b3b 	movtne	r0, #39739	; 0x9b3b
     680:	00001802 	andeq	r1, r0, r2, lsl #16
     684:	03000514 	movweq	r0, #1300	; 0x514
     688:	3b0b3a08 	blcc	2ceeb0 <__bss_end__+0x2c26d0>
     68c:	0213490b 	andseq	r4, r3, #180224	; 0x2c000
     690:	15000017 	strne	r0, [r0, #-23]
     694:	0e030005 	cdpeq	0, 0, cr0, cr3, cr5, {0}
     698:	0b3b0b3a 	bleq	ec3388 <__bss_end__+0xeb6ba8>
     69c:	17021349 	strne	r1, [r2, -r9, asr #6]
     6a0:	34160000 	ldrcc	r0, [r6], #-0
     6a4:	3a080300 	bcc	2012ac <__bss_end__+0x1f4acc>
     6a8:	490b3b0b 	stmdbmi	fp, {r0, r1, r3, r8, r9, fp, ip, sp}
     6ac:	00180213 	andseq	r0, r8, r3, lsl r2
     6b0:	00341700 	eorseq	r1, r4, r0, lsl #14
     6b4:	13490e03 	movtne	r0, #40451	; 0x9e03
     6b8:	18021934 	stmdane	r2, {r2, r4, r5, r8, fp, ip}
     6bc:	89180000 	ldmdbhi	r8, {}	; <UNPREDICTABLE>
     6c0:	11010182 	smlabbne	r1, r2, r1, r0
     6c4:	01133101 	tsteq	r3, r1, lsl #2
     6c8:	19000013 	stmdbne	r0, {r0, r1, r4}
     6cc:	0001828a 	andeq	r8, r1, sl, lsl #5
     6d0:	42911802 	addsmi	r1, r1, #131072	; 0x20000
     6d4:	1a000018 	bne	73c <__code_start__-0x78c4>
     6d8:	00018289 	andeq	r8, r1, r9, lsl #5
     6dc:	13310111 	teqne	r1, #1073741828	; 0x40000004
     6e0:	891b0000 	ldmdbhi	fp, {}	; <UNPREDICTABLE>
     6e4:	11010182 	smlabbne	r1, r2, r1, r0
     6e8:	00133101 	andseq	r3, r3, r1, lsl #2
     6ec:	01011c00 	tsteq	r1, r0, lsl #24
     6f0:	13011349 	movwne	r1, #4937	; 0x1349
     6f4:	211d0000 	tstcs	sp, r0
     6f8:	2f134900 	svccs	0x00134900
     6fc:	1e00000b 	cdpne	0, 0, cr0, cr0, cr11, {0}
     700:	08030005 	stmdaeq	r3, {r0, r2}
     704:	0b3b0b3a 	bleq	ec33f4 <__bss_end__+0xeb6c14>
     708:	00001349 	andeq	r1, r0, r9, asr #6
     70c:	0300341f 	movweq	r3, #1055	; 0x41f
     710:	3413490e 	ldrcc	r4, [r3], #-2318	; 0x90e
     714:	000e1c19 	andeq	r1, lr, r9, lsl ip
     718:	012e2000 	teqeq	lr, r0
     71c:	0b3a0e03 	bleq	e83f30 <__bss_end__+0xe77750>
     720:	19270b3b 	stmdbne	r7!, {r0, r1, r3, r4, r5, r8, r9, fp}
     724:	01111349 	tsteq	r1, r9, asr #6
     728:	18400612 	stmdane	r0, {r1, r4, r9, sl}^
     72c:	01194297 			; <UNDEFINED> instruction: 0x01194297
     730:	21000013 	tstcs	r0, r3, lsl r0
     734:	08030034 	stmdaeq	r3, {r2, r4, r5}
     738:	0b3b0b3a 	bleq	ec3428 <__bss_end__+0xeb6c48>
     73c:	17021349 	strne	r1, [r2, -r9, asr #6]
     740:	1d220000 	stcne	0, cr0, [r2, #-0]
     744:	11133101 	tstne	r3, r1, lsl #2
     748:	58061201 	stmdapl	r6, {r0, r9, ip}
     74c:	010b590b 	tsteq	fp, fp, lsl #18
     750:	23000013 	movwcs	r0, #19
     754:	13310005 	teqne	r1, #5
     758:	00001702 	andeq	r1, r0, r2, lsl #14
     75c:	11010b24 	tstne	r1, r4, lsr #22
     760:	00061201 	andeq	r1, r6, r1, lsl #4
     764:	00342500 	eorseq	r2, r4, r0, lsl #10
     768:	17021331 	smladxne	r2, r1, r3, r1
     76c:	34260000 	strtcc	r0, [r6], #-0
     770:	02133100 	andseq	r3, r3, #0, 2
     774:	27000018 	smladcs	r0, r8, r0, r0
     778:	0e03012e 	adfeqsp	f0, f3, #0.5
     77c:	0b3b0b3a 	bleq	ec346c <__bss_end__+0xeb6c8c>
     780:	01111927 	tsteq	r1, r7, lsr #18
     784:	18400612 	stmdane	r0, {r1, r4, r9, sl}^
     788:	01194297 			; <UNDEFINED> instruction: 0x01194297
     78c:	28000013 	stmdacs	r0, {r0, r1, r4}
     790:	193f002e 	ldmdbne	pc!, {r1, r2, r3, r5}	; <UNPREDICTABLE>
     794:	0b3a0e03 	bleq	e83fa8 <__bss_end__+0xe777c8>
     798:	19270b3b 	stmdbne	r7!, {r0, r1, r3, r4, r5, r8, r9, fp}
     79c:	06120111 			; <UNDEFINED> instruction: 0x06120111
     7a0:	42971840 	addsmi	r1, r7, #64, 16	; 0x400000
     7a4:	29000019 	stmdbcs	r0, {r0, r3, r4}
     7a8:	0e030034 	mcreq	0, 0, r0, cr3, cr4, {1}
     7ac:	0b3b0b3a 	bleq	ec349c <__bss_end__+0xeb6cbc>
     7b0:	00001349 	andeq	r1, r0, r9, asr #6
     7b4:	0300342a 	movweq	r3, #1066	; 0x42a
     7b8:	3b0b3a0e 	blcc	2ceff8 <__bss_end__+0x2c2818>
     7bc:	0213490b 	andseq	r4, r3, #180224	; 0x2c000
     7c0:	2b000018 	blcs	828 <__code_start__-0x77d8>
     7c4:	0e030034 	mcreq	0, 0, r0, cr3, cr4, {1}
     7c8:	0b3b0b3a 	bleq	ec34b8 <__bss_end__+0xeb6cd8>
     7cc:	17021349 	strne	r1, [r2, -r9, asr #6]
     7d0:	342c0000 	strtcc	r0, [ip], #-0
     7d4:	00133100 	andseq	r3, r3, r0, lsl #2
     7d8:	00342d00 	eorseq	r2, r4, r0, lsl #26
     7dc:	0b3a0e03 	bleq	e83ff0 <__bss_end__+0xe77810>
     7e0:	13490b3b 	movtne	r0, #39739	; 0x9b3b
     7e4:	0000061c 	andeq	r0, r0, ip, lsl r6
     7e8:	3f012e2e 	svccc	0x00012e2e
     7ec:	3a0e0319 	bcc	381458 <__bss_end__+0x374c78>
     7f0:	27053b0b 	strcs	r3, [r5, -fp, lsl #22]
     7f4:	12011119 	andne	r1, r1, #1073741830	; 0x40000006
     7f8:	97184006 	ldrls	r4, [r8, -r6]
     7fc:	13011942 	movwne	r1, #6466	; 0x1942
     800:	052f0000 	streq	r0, [pc, #-0]!	; 808 <__code_start__-0x77f8>
     804:	3a0e0300 	bcc	38140c <__bss_end__+0x374c2c>
     808:	49053b0b 	stmdbmi	r5, {r0, r1, r3, r8, r9, fp, ip, sp}
     80c:	00170213 	andseq	r0, r7, r3, lsl r2
     810:	00343000 	eorseq	r3, r4, r0
     814:	13490e03 	movtne	r0, #40451	; 0x9e03
     818:	00001934 	andeq	r1, r0, r4, lsr r9
     81c:	3f012e31 	svccc	0x00012e31
     820:	3a0e0319 	bcc	38148c <__bss_end__+0x374cac>
     824:	27053b0b 	strcs	r3, [r5, -fp, lsl #22]
     828:	11134919 	tstne	r3, r9, lsl r9
     82c:	40061201 	andmi	r1, r6, r1, lsl #4
     830:	19429718 	stmdbne	r2, {r3, r4, r8, r9, sl, ip, pc}^
     834:	00001301 	andeq	r1, r0, r1, lsl #6
     838:	03000532 	movweq	r0, #1330	; 0x532
     83c:	3b0b3a08 	blcc	2cf064 <__bss_end__+0x2c2884>
     840:	02134905 	andseq	r4, r3, #81920	; 0x14000
     844:	33000017 	movwcc	r0, #23
     848:	19270015 	stmdbne	r7!, {r0, r2, r4}
     84c:	00001349 	andeq	r1, r0, r9, asr #6
     850:	03003434 	movweq	r3, #1076	; 0x434
     854:	3b0b3a0e 	blcc	2cf094 <__bss_end__+0x2c28b4>
     858:	3f13490b 	svccc	0x0013490b
     85c:	00193c19 	andseq	r3, r9, r9, lsl ip
     860:	002e3500 	eoreq	r3, lr, r0, lsl #10
     864:	0e03193f 	mcreq	9, 0, r1, cr3, cr15, {1}
     868:	0b3b0b3a 	bleq	ec3558 <__bss_end__+0xeb6d78>
     86c:	193c1927 	ldmdbne	ip!, {r0, r1, r2, r5, r8, fp, ip}
     870:	2e360000 	cdpcs	0, 3, cr0, cr6, cr0, {0}
     874:	03193f01 	tsteq	r9, #1, 30
     878:	3b0b3a0e 	blcc	2cf0b8 <__bss_end__+0x2c28d8>
     87c:	4919270b 	ldmdbmi	r9, {r0, r1, r3, r8, r9, sl, sp}
     880:	01193c13 	tsteq	r9, r3, lsl ip
     884:	37000013 	smladcc	r0, r3, r0, r0
     888:	13490005 	movtne	r0, #36869	; 0x9005
     88c:	18380000 	ldmdane	r8!, {}	; <UNPREDICTABLE>
     890:	39000000 	stmdbcc	r0, {}	; <UNPREDICTABLE>
     894:	193f002e 	ldmdbne	pc!, {r1, r2, r3, r5}	; <UNPREDICTABLE>
     898:	0b3a0e03 	bleq	e840ac <__bss_end__+0xe778cc>
     89c:	19270b3b 	stmdbne	r7!, {r0, r1, r3, r4, r5, r8, r9, fp}
     8a0:	193c1349 	ldmdbne	ip!, {r0, r3, r6, r8, r9, ip}
     8a4:	2e3a0000 	cdpcs	0, 3, cr0, cr10, cr0, {0}
     8a8:	03193f01 	tsteq	r9, #1, 30
     8ac:	3b0b3a0e 	blcc	2cf0ec <__bss_end__+0x2c290c>
     8b0:	3c19270b 	ldccc	7, cr2, [r9], {11}
     8b4:	00130119 	andseq	r0, r3, r9, lsl r1
     8b8:	012e3b00 	teqeq	lr, r0, lsl #22
     8bc:	0e03193f 	mcreq	9, 0, r1, cr3, cr15, {1}
     8c0:	0b3b0b3a 	bleq	ec35b0 <__bss_end__+0xeb6dd0>
     8c4:	193c1927 	ldmdbne	ip!, {r0, r1, r2, r5, r8, fp, ip}
     8c8:	01000000 	mrseq	r0, (UNDEF: 0)
     8cc:	0e250111 	mcreq	1, 1, r0, cr5, cr1, {0}
     8d0:	0e030b13 	vmoveq.32	d3[0], r0
     8d4:	01110e1b 	tsteq	r1, fp, lsl lr
     8d8:	17100612 			; <UNDEFINED> instruction: 0x17100612
     8dc:	24020000 	strcs	r0, [r2], #-0
     8e0:	3e0b0b00 	vmlacc.f64	d0, d11, d0
     8e4:	0008030b 	andeq	r0, r8, fp, lsl #6
     8e8:	00240300 	eoreq	r0, r4, r0, lsl #6
     8ec:	0b3e0b0b 	bleq	f83520 <__bss_end__+0xf76d40>
     8f0:	00000e03 	andeq	r0, r0, r3, lsl #28
     8f4:	03001604 	movweq	r1, #1540	; 0x604
     8f8:	3b0b3a0e 	blcc	2cf138 <__bss_end__+0x2c2958>
     8fc:	0013490b 	andseq	r4, r3, fp, lsl #18
     900:	000f0500 	andeq	r0, pc, r0, lsl #10
     904:	13490b0b 	movtne	r0, #39691	; 0x9b0b
     908:	26060000 	strcs	r0, [r6], -r0
     90c:	00134900 	andseq	r4, r3, r0, lsl #18
     910:	012e0700 	teqeq	lr, r0, lsl #14
     914:	0e03193f 	mcreq	9, 0, r1, cr3, cr15, {1}
     918:	0b3b0b3a 	bleq	ec3608 <__bss_end__+0xeb6e28>
     91c:	13491927 	movtne	r1, #39207	; 0x9927
     920:	06120111 			; <UNDEFINED> instruction: 0x06120111
     924:	42971840 	addsmi	r1, r7, #64, 16	; 0x400000
     928:	00130119 	andseq	r0, r3, r9, lsl r1
     92c:	00050800 	andeq	r0, r5, r0, lsl #16
     930:	0b3a0e03 	bleq	e84144 <__bss_end__+0xe77964>
     934:	13490b3b 	movtne	r0, #39739	; 0x9b3b
     938:	00001702 	andeq	r1, r0, r2, lsl #14
     93c:	03000509 	movweq	r0, #1289	; 0x509
     940:	3b0b3a08 	blcc	2cf168 <__bss_end__+0x2c2988>
     944:	0213490b 	andseq	r4, r3, #180224	; 0x2c000
     948:	0a000017 	beq	9ac <__code_start__-0x7654>
     94c:	0e030034 	mcreq	0, 0, r0, cr3, cr4, {1}
     950:	0b3b0b3a 	bleq	ec3640 <__bss_end__+0xeb6e60>
     954:	17021349 	strne	r1, [r2, -r9, asr #6]
     958:	340b0000 	strcc	r0, [fp], #-0
     95c:	3a080300 	bcc	201564 <__bss_end__+0x1f4d84>
     960:	490b3b0b 	stmdbmi	fp, {r0, r1, r3, r8, r9, fp, ip, sp}
     964:	00170213 	andseq	r0, r7, r3, lsl r2
     968:	00260c00 	eoreq	r0, r6, r0, lsl #24
     96c:	01000000 	mrseq	r0, (UNDEF: 0)
     970:	0e250111 	mcreq	1, 1, r0, cr5, cr1, {0}
     974:	0e030b13 	vmoveq.32	d3[0], r0
     978:	01110e1b 	tsteq	r1, fp, lsl lr
     97c:	17100612 			; <UNDEFINED> instruction: 0x17100612
     980:	24020000 	strcs	r0, [r2], #-0
     984:	3e0b0b00 	vmlacc.f64	d0, d11, d0
     988:	000e030b 	andeq	r0, lr, fp, lsl #6
     98c:	00240300 	eoreq	r0, r4, r0, lsl #6
     990:	0b3e0b0b 	bleq	f835c4 <__bss_end__+0xf76de4>
     994:	00000803 	andeq	r0, r0, r3, lsl #16
     998:	0b000f04 	bleq	45b0 <__code_start__-0x3a50>
     99c:	0500000b 	streq	r0, [r0, #-11]
     9a0:	0b0b000f 	bleq	2c09e4 <__bss_end__+0x2b4204>
     9a4:	00001349 	andeq	r1, r0, r9, asr #6
     9a8:	03001606 	movweq	r1, #1542	; 0x606
     9ac:	3b0b3a0e 	blcc	2cf1ec <__bss_end__+0x2c2a0c>
     9b0:	0013490b 	andseq	r4, r3, fp, lsl #18
     9b4:	012e0700 	teqeq	lr, r0, lsl #14
     9b8:	0e03193f 	mcreq	9, 0, r1, cr3, cr15, {1}
     9bc:	0b3b0b3a 	bleq	ec36ac <__bss_end__+0xeb6ecc>
     9c0:	13491927 	movtne	r1, #39207	; 0x9927
     9c4:	06120111 			; <UNDEFINED> instruction: 0x06120111
     9c8:	42971840 	addsmi	r1, r7, #64, 16	; 0x400000
     9cc:	08000019 	stmdaeq	r0, {r0, r3, r4}
     9d0:	08030005 	stmdaeq	r3, {r0, r2}
     9d4:	0b3b0b3a 	bleq	ec36c4 <__bss_end__+0xeb6ee4>
     9d8:	18021349 	stmdane	r2, {r0, r3, r6, r8, r9, ip}
     9dc:	05090000 	streq	r0, [r9, #-0]
     9e0:	3a080300 	bcc	2015e8 <__bss_end__+0x1f4e08>
     9e4:	490b3b0b 	stmdbmi	fp, {r0, r1, r3, r8, r9, fp, ip, sp}
     9e8:	00170213 	andseq	r0, r7, r3, lsl r2
     9ec:	00340a00 	eorseq	r0, r4, r0, lsl #20
     9f0:	0b3a0803 	bleq	e82a04 <__bss_end__+0xe76224>
     9f4:	13490b3b 	movtne	r0, #39739	; 0x9b3b
     9f8:	00001702 	andeq	r1, r0, r2, lsl #14
     9fc:	0300340b 	movweq	r3, #1035	; 0x40b
     a00:	3b0b3a08 	blcc	2cf228 <__bss_end__+0x2c2a48>
     a04:	0213490b 	andseq	r4, r3, #180224	; 0x2c000
     a08:	00000018 	andeq	r0, r0, r8, lsl r0
     a0c:	25011101 	strcs	r1, [r1, #-257]	; 0x101
     a10:	030b130e 	movweq	r1, #45838	; 0xb30e
     a14:	110e1b0e 	tstne	lr, lr, lsl #22
     a18:	10061201 	andne	r1, r6, r1, lsl #4
     a1c:	02000017 	andeq	r0, r0, #23
     a20:	0e030016 	mcreq	0, 0, r0, cr3, cr6, {0}
     a24:	0b3b0b3a 	bleq	ec3714 <__bss_end__+0xeb6f34>
     a28:	00001349 	andeq	r1, r0, r9, asr #6
     a2c:	03011303 	movweq	r1, #4867	; 0x1303
     a30:	3a0b0b0e 	bcc	2c3670 <__bss_end__+0x2b6e90>
     a34:	010b3b0b 	tsteq	fp, fp, lsl #22
     a38:	04000013 	streq	r0, [r0], #-19
     a3c:	0e03000d 	cdpeq	0, 0, cr0, cr3, cr13, {0}
     a40:	0b381349 	bleq	e0576c <__bss_end__+0xdf8f8c>
     a44:	00001934 	andeq	r1, r0, r4, lsr r9
     a48:	0b000f05 	bleq	4664 <__code_start__-0x399c>
     a4c:	0600000b 	streq	r0, [r0], -fp
     a50:	0b0b0024 	bleq	2c0ae8 <__bss_end__+0x2b4308>
     a54:	08030b3e 	stmdaeq	r3, {r1, r2, r3, r4, r5, r8, r9, fp}
     a58:	24070000 	strcs	r0, [r7], #-0
     a5c:	3e0b0b00 	vmlacc.f64	d0, d11, d0
     a60:	000e030b 	andeq	r0, lr, fp, lsl #6
     a64:	000f0800 	andeq	r0, pc, r0, lsl #16
     a68:	13490b0b 	movtne	r0, #39691	; 0x9b0b
     a6c:	26090000 	strcs	r0, [r9], -r0
     a70:	00134900 	andseq	r4, r3, r0, lsl #18
     a74:	012e0a00 	teqeq	lr, r0, lsl #20
     a78:	0e03193f 	mcreq	9, 0, r1, cr3, cr15, {1}
     a7c:	0b3b0b3a 	bleq	ec376c <__bss_end__+0xeb6f8c>
     a80:	13491927 	movtne	r1, #39207	; 0x9927
     a84:	06120111 			; <UNDEFINED> instruction: 0x06120111
     a88:	42971840 	addsmi	r1, r7, #64, 16	; 0x400000
     a8c:	00130119 	andseq	r0, r3, r9, lsl r1
     a90:	00050b00 	andeq	r0, r5, r0, lsl #22
     a94:	0b3a0803 	bleq	e82aa8 <__bss_end__+0xe762c8>
     a98:	13490b3b 	movtne	r0, #39739	; 0x9b3b
     a9c:	00001802 	andeq	r1, r0, r2, lsl #16
     aa0:	0000180c 	andeq	r1, r0, ip, lsl #16
     aa4:	00340d00 	eorseq	r0, r4, r0, lsl #26
     aa8:	0b3a0803 	bleq	e82abc <__bss_end__+0xe762dc>
     aac:	13490b3b 	movtne	r0, #39739	; 0x9b3b
     ab0:	00001802 	andeq	r1, r0, r2, lsl #16
     ab4:	0300340e 	movweq	r3, #1038	; 0x40e
     ab8:	3b0b3a0e 	blcc	2cf2f8 <__bss_end__+0x2c2b18>
     abc:	0213490b 	andseq	r4, r3, #180224	; 0x2c000
     ac0:	0f000018 	svceq	0x00000018
     ac4:	08030034 	stmdaeq	r3, {r2, r4, r5}
     ac8:	0b3b0b3a 	bleq	ec37b8 <__bss_end__+0xeb6fd8>
     acc:	17021349 	strne	r1, [r2, -r9, asr #6]
     ad0:	89100000 	ldmdbhi	r0, {}	; <UNPREDICTABLE>
     ad4:	11010182 	smlabbne	r1, r2, r1, r0
     ad8:	01133101 	tsteq	r3, r1, lsl #2
     adc:	11000013 	tstne	r0, r3, lsl r0
     ae0:	0001828a 	andeq	r8, r1, sl, lsl #5
     ae4:	42911802 	addsmi	r1, r1, #131072	; 0x20000
     ae8:	12000018 	andne	r0, r0, #24
     aec:	01018289 	smlabbeq	r1, r9, r2, r8
     af0:	00000111 	andeq	r0, r0, r1, lsl r1
     af4:	49010113 	stmdbmi	r1, {r0, r1, r4, r8}
     af8:	00130113 	andseq	r0, r3, r3, lsl r1
     afc:	00211400 	eoreq	r1, r1, r0, lsl #8
     b00:	052f1349 	streq	r1, [pc, #-841]!	; 7bf <__code_start__-0x7841>
     b04:	15150000 	ldrne	r0, [r5, #-0]
     b08:	49192701 	ldmdbmi	r9, {r0, r8, r9, sl, sp}
     b0c:	00130113 	andseq	r0, r3, r3, lsl r1
     b10:	00051600 	andeq	r1, r5, r0, lsl #12
     b14:	00001349 	andeq	r1, r0, r9, asr #6
     b18:	03003417 	movweq	r3, #1047	; 0x417
     b1c:	3b0b3a0e 	blcc	2cf35c <__bss_end__+0x2c2b7c>
     b20:	3f13490b 	svccc	0x0013490b
     b24:	00193c19 	andseq	r3, r9, r9, lsl ip
     b28:	012e1800 	teqeq	lr, r0, lsl #16
     b2c:	0e03193f 	mcreq	9, 0, r1, cr3, cr15, {1}
     b30:	0b3b0b3a 	bleq	ec3820 <__bss_end__+0xeb7040>
     b34:	13491927 	movtne	r1, #39207	; 0x9927
     b38:	0000193c 	andeq	r1, r0, ip, lsr r9
     b3c:	01110100 	tsteq	r1, r0, lsl #2
     b40:	0b130e25 	bleq	4c43dc <__bss_end__+0x4b7bfc>
     b44:	0e1b0e03 	cdpeq	14, 1, cr0, cr11, cr3, {0}
     b48:	06120111 			; <UNDEFINED> instruction: 0x06120111
     b4c:	00001710 	andeq	r1, r0, r0, lsl r7
     b50:	0b002402 	bleq	9b60 <memcheck_init+0x108>
     b54:	030b3e0b 	movweq	r3, #48651	; 0xbe0b
     b58:	03000008 	movweq	r0, #8
     b5c:	0b0b0024 	bleq	2c0bf4 <__bss_end__+0x2b4414>
     b60:	0e030b3e 	vmoveq.16	d3[0], r0
     b64:	2e040000 	cdpcs	0, 0, cr0, cr4, cr0, {0}
     b68:	3a0e0301 	bcc	381774 <__bss_end__+0x374f94>
     b6c:	270b3b0b 	strcs	r3, [fp, -fp, lsl #22]
     b70:	11134919 	tstne	r3, r9, lsl r9
     b74:	40061201 	andmi	r1, r6, r1, lsl #4
     b78:	19429718 	stmdbne	r2, {r3, r4, r8, r9, sl, ip, pc}^
     b7c:	00001301 	andeq	r1, r0, r1, lsl #6
     b80:	03000505 	movweq	r0, #1285	; 0x505
     b84:	3b0b3a08 	blcc	2cf3ac <__bss_end__+0x2c2bcc>
     b88:	0213490b 	andseq	r4, r3, #180224	; 0x2c000
     b8c:	06000017 			; <UNDEFINED> instruction: 0x06000017
     b90:	01018289 	smlabbeq	r1, r9, r2, r8
     b94:	13310111 	teqne	r1, #1073741828	; 0x40000004
     b98:	8a070000 	bhi	1c0ba0 <__bss_end__+0x1b43c0>
     b9c:	02000182 	andeq	r0, r0, #-2147483616	; 0x80000020
     ba0:	18429118 	stmdane	r2, {r3, r4, r8, ip, pc}^
     ba4:	2e080000 	cdpcs	0, 0, cr0, cr8, cr0, {0}
     ba8:	03193f00 	tsteq	r9, #0, 30
     bac:	3b0b3a0e 	blcc	2cf3ec <__bss_end__+0x2c2c0c>
     bb0:	1119270b 	tstne	r9, fp, lsl #14
     bb4:	40061201 	andmi	r1, r6, r1, lsl #4
     bb8:	19429718 	stmdbne	r2, {r3, r4, r8, r9, sl, ip, pc}^
     bbc:	2e090000 	cdpcs	0, 0, cr0, cr9, cr0, {0}
     bc0:	03193f01 	tsteq	r9, #1, 30
     bc4:	3b0b3a0e 	blcc	2cf404 <__bss_end__+0x2c2c24>
     bc8:	1119270b 	tstne	r9, fp, lsl #14
     bcc:	40061201 	andmi	r1, r6, r1, lsl #4
     bd0:	19429718 	stmdbne	r2, {r3, r4, r8, r9, sl, ip, pc}^
     bd4:	00001301 	andeq	r1, r0, r1, lsl #6
     bd8:	0300050a 	movweq	r0, #1290	; 0x50a
     bdc:	3b0b3a08 	blcc	2cf404 <__bss_end__+0x2c2c24>
     be0:	0213490b 	andseq	r4, r3, #180224	; 0x2c000
     be4:	0b000018 	bleq	c4c <__code_start__-0x73b4>
     be8:	19270115 	stmdbne	r7!, {r0, r2, r4, r8}
     bec:	13011349 	movwne	r1, #4937	; 0x1349
     bf0:	050c0000 	streq	r0, [ip, #-0]
     bf4:	00134900 	andseq	r4, r3, r0, lsl #18
     bf8:	000f0d00 	andeq	r0, pc, r0, lsl #26
     bfc:	13490b0b 	movtne	r0, #39691	; 0x9b0b
     c00:	340e0000 	strcc	r0, [lr], #-0
     c04:	3a0e0300 	bcc	38180c <__bss_end__+0x37502c>
     c08:	490b3b0b 	stmdbmi	fp, {r0, r1, r3, r8, r9, fp, ip, sp}
     c0c:	02193f13 	andseq	r3, r9, #19, 30	; 0x4c
     c10:	0f000018 	svceq	0x00000018
     c14:	193f012e 	ldmdbne	pc!, {r1, r2, r3, r5, r8}	; <UNPREDICTABLE>
     c18:	0b3a0e03 	bleq	e8442c <__bss_end__+0xe77c4c>
     c1c:	19270b3b 	stmdbne	r7!, {r0, r1, r3, r4, r5, r8, r9, fp}
     c20:	0000193c 	andeq	r1, r0, ip, lsr r9
     c24:	01110100 	tsteq	r1, r0, lsl #2
     c28:	0b130e25 	bleq	4c44c4 <__bss_end__+0x4b7ce4>
     c2c:	0e1b0e03 	cdpeq	14, 1, cr0, cr11, cr3, {0}
     c30:	06120111 			; <UNDEFINED> instruction: 0x06120111
     c34:	00001710 	andeq	r1, r0, r0, lsl r7
     c38:	0b002402 	bleq	9c48 <memcheck_off+0x18>
     c3c:	030b3e0b 	movweq	r3, #48651	; 0xbe0b
     c40:	03000008 	movweq	r0, #8
     c44:	0b0b0024 	bleq	2c0cdc <__bss_end__+0x2b44fc>
     c48:	0e030b3e 	vmoveq.16	d3[0], r0
     c4c:	0f040000 	svceq	0x00040000
     c50:	490b0b00 	stmdbmi	fp, {r8, r9, fp}
     c54:	05000013 	streq	r0, [r0, #-19]
     c58:	13490026 	movtne	r0, #36902	; 0x9026
     c5c:	2e060000 	cdpcs	0, 0, cr0, cr6, cr0, {0}
     c60:	03193f01 	tsteq	r9, #1, 30
     c64:	3b0b3a0e 	blcc	2cf4a4 <__bss_end__+0x2c2cc4>
     c68:	4919270b 	ldmdbmi	r9, {r0, r1, r3, r8, r9, sl, sp}
     c6c:	12011113 	andne	r1, r1, #-1073741820	; 0xc0000004
     c70:	96184006 	ldrls	r4, [r8], -r6
     c74:	13011942 	movwne	r1, #6466	; 0x1942
     c78:	05070000 	streq	r0, [r7, #-0]
     c7c:	3a080300 	bcc	201884 <__bss_end__+0x1f50a4>
     c80:	490b3b0b 	stmdbmi	fp, {r0, r1, r3, r8, r9, fp, ip, sp}
     c84:	00170213 	andseq	r0, r7, r3, lsl r2
     c88:	01150800 	tsteq	r5, r0, lsl #16
     c8c:	13491927 	movtne	r1, #39207	; 0x9927
     c90:	00001301 	andeq	r1, r0, r1, lsl #6
     c94:	49000509 	stmdbmi	r0, {r0, r3, r8, sl}
     c98:	0a000013 	beq	cec <__code_start__-0x7314>
     c9c:	0e030034 	mcreq	0, 0, r0, cr3, cr4, {1}
     ca0:	0b3b0b3a 	bleq	ec3990 <__bss_end__+0xeb71b0>
     ca4:	193f1349 	ldmdbne	pc!, {r0, r3, r6, r8, r9, ip}	; <UNPREDICTABLE>
     ca8:	0000193c 	andeq	r1, r0, ip, lsr r9
     cac:	0300340b 	movweq	r3, #1035	; 0x40b
     cb0:	3b0b3a0e 	blcc	2cf4f0 <__bss_end__+0x2c2d10>
     cb4:	3f13490b 	svccc	0x0013490b
     cb8:	00180219 	andseq	r0, r8, r9, lsl r2
     cbc:	11010000 	mrsne	r0, (UNDEF: 1)
     cc0:	130e2501 	movwne	r2, #58625	; 0xe501
     cc4:	1b0e030b 	blne	3818f8 <__bss_end__+0x375118>
     cc8:	1201110e 	andne	r1, r1, #-2147483645	; 0x80000003
     ccc:	00171006 	andseq	r1, r7, r6
     cd0:	00240200 	eoreq	r0, r4, r0, lsl #4
     cd4:	0b3e0b0b 	bleq	f83908 <__bss_end__+0xf77128>
     cd8:	00000803 	andeq	r0, r0, r3, lsl #16
     cdc:	0b002403 	bleq	9cf0 <memcheck_map+0x50>
     ce0:	030b3e0b 	movweq	r3, #48651	; 0xbe0b
     ce4:	0400000e 	streq	r0, [r0], #-14
     ce8:	0b0b000f 	bleq	2c0d2c <__bss_end__+0x2b454c>
     cec:	0f050000 	svceq	0x00050000
     cf0:	490b0b00 	stmdbmi	fp, {r8, r9, fp}
     cf4:	06000013 			; <UNDEFINED> instruction: 0x06000013
     cf8:	13490026 	movtne	r0, #36902	; 0x9026
     cfc:	16070000 	strne	r0, [r7], -r0
     d00:	3a0e0300 	bcc	381908 <__bss_end__+0x375128>
     d04:	490b3b0b 	stmdbmi	fp, {r0, r1, r3, r8, r9, fp, ip, sp}
     d08:	08000013 	stmdaeq	r0, {r0, r1, r4}
     d0c:	0e030113 	mcreq	1, 0, r0, cr3, cr3, {0}
     d10:	0b3a0b0b 	bleq	e83944 <__bss_end__+0xe77164>
     d14:	13010b3b 	movwne	r0, #6971	; 0x1b3b
     d18:	0d090000 	stceq	0, cr0, [r9, #-0]
     d1c:	490e0300 	stmdbmi	lr, {r8, r9}
     d20:	340b3813 	strcc	r3, [fp], #-2067	; 0x813
     d24:	0a000019 	beq	d90 <__code_start__-0x7270>
     d28:	0e03012e 	adfeqsp	f0, f3, #0.5
     d2c:	0b3b0b3a 	bleq	ec3a1c <__bss_end__+0xeb723c>
     d30:	13491927 	movtne	r1, #39207	; 0x9927
     d34:	06120111 			; <UNDEFINED> instruction: 0x06120111
     d38:	42971840 	addsmi	r1, r7, #64, 16	; 0x400000
     d3c:	00130119 	andseq	r0, r3, r9, lsl r1
     d40:	00050b00 	andeq	r0, r5, r0, lsl #22
     d44:	0b3a0803 	bleq	e82d58 <__bss_end__+0xe76578>
     d48:	13490b3b 	movtne	r0, #39739	; 0x9b3b
     d4c:	00001702 	andeq	r1, r0, r2, lsl #14
     d50:	03012e0c 	movweq	r2, #7692	; 0x1e0c
     d54:	3b0b3a08 	blcc	2cf57c <__bss_end__+0x2c2d9c>
     d58:	4919270b 	ldmdbmi	r9, {r0, r1, r3, r8, r9, sl, sp}
     d5c:	12011113 	andne	r1, r1, #-1073741820	; 0xc0000004
     d60:	97184006 	ldrls	r4, [r8, -r6]
     d64:	13011942 	movwne	r1, #6466	; 0x1942
     d68:	050d0000 	streq	r0, [sp, #-0]
     d6c:	3a0e0300 	bcc	381974 <__bss_end__+0x375194>
     d70:	490b3b0b 	stmdbmi	fp, {r0, r1, r3, r8, r9, fp, ip, sp}
     d74:	00170213 	andseq	r0, r7, r3, lsl r2
     d78:	00050e00 	andeq	r0, r5, r0, lsl #28
     d7c:	0b3a0e03 	bleq	e84590 <__bss_end__+0xe77db0>
     d80:	13490b3b 	movtne	r0, #39739	; 0x9b3b
     d84:	00001802 	andeq	r1, r0, r2, lsl #16
     d88:	0300340f 	movweq	r3, #1039	; 0x40f
     d8c:	3b0b3a08 	blcc	2cf5b4 <__bss_end__+0x2c2dd4>
     d90:	0213490b 	andseq	r4, r3, #180224	; 0x2c000
     d94:	10000018 	andne	r0, r0, r8, lsl r0
     d98:	08030034 	stmdaeq	r3, {r2, r4, r5}
     d9c:	0b3b0b3a 	bleq	ec3a8c <__bss_end__+0xeb72ac>
     da0:	17021349 	strne	r1, [r2, -r9, asr #6]
     da4:	34110000 	ldrcc	r0, [r1], #-0
     da8:	490e0300 	stmdbmi	lr, {r8, r9}
     dac:	02193413 	andseq	r3, r9, #318767104	; 0x13000000
     db0:	12000018 	andne	r0, r0, #24
     db4:	0111010b 	tsteq	r1, fp, lsl #2
     db8:	13010612 	movwne	r0, #5650	; 0x1612
     dbc:	34130000 	ldrcc	r0, [r3], #-0
     dc0:	3a0e0300 	bcc	3819c8 <__bss_end__+0x3751e8>
     dc4:	490b3b0b 	stmdbmi	fp, {r0, r1, r3, r8, r9, fp, ip, sp}
     dc8:	00170213 	andseq	r0, r7, r3, lsl r2
     dcc:	82891400 	addhi	r1, r9, #0, 8
     dd0:	01110001 	tsteq	r1, r1
     dd4:	00001331 	andeq	r1, r0, r1, lsr r3
     dd8:	01828915 	orreq	r8, r2, r5, lsl r9
     ddc:	31011101 	tstcc	r1, r1, lsl #2
     de0:	00130113 	andseq	r0, r3, r3, lsl r1
     de4:	828a1600 	addhi	r1, sl, #0, 12
     de8:	18020001 	stmdane	r2, {r0}
     dec:	00184291 	mulseq	r8, r1, r2
     df0:	82891700 	addhi	r1, r9, #0, 14
     df4:	01110101 	tsteq	r1, r1, lsl #2
     df8:	00001331 	andeq	r1, r0, r1, lsr r3
     dfc:	49010118 	stmdbmi	r1, {r3, r4, r8}
     e00:	00130113 	andseq	r0, r3, r3, lsl r1
     e04:	00211900 	eoreq	r1, r1, r0, lsl #18
     e08:	0b2f1349 	bleq	bc5b34 <__bss_end__+0xbb9354>
     e0c:	2e1a0000 	cdpcs	0, 1, cr0, cr10, cr0, {0}
     e10:	03193f01 	tsteq	r9, #1, 30
     e14:	3b0b3a0e 	blcc	2cf654 <__bss_end__+0x2c2e74>
     e18:	1119270b 	tstne	r9, fp, lsl #14
     e1c:	40061201 	andmi	r1, r6, r1, lsl #4
     e20:	19429718 	stmdbne	r2, {r3, r4, r8, r9, sl, ip, pc}^
     e24:	00001301 	andeq	r1, r0, r1, lsl #6
     e28:	2701151b 	smladcs	r1, fp, r5, r1
     e2c:	01134919 	tsteq	r3, r9, lsl r9
     e30:	1c000013 	stcne	0, cr0, [r0], {19}
     e34:	13490005 	movtne	r0, #36869	; 0x9005
     e38:	2e1d0000 	cdpcs	0, 1, cr0, cr13, cr0, {0}
     e3c:	03193f01 	tsteq	r9, #1, 30
     e40:	3b0b3a0e 	blcc	2cf680 <__bss_end__+0x2c2ea0>
     e44:	4919270b 	ldmdbmi	r9, {r0, r1, r3, r8, r9, sl, sp}
     e48:	12011113 	andne	r1, r1, #-1073741820	; 0xc0000004
     e4c:	97184006 	ldrls	r4, [r8, -r6]
     e50:	13011942 	movwne	r1, #6466	; 0x1942
     e54:	0b1e0000 	bleq	780e5c <__bss_end__+0x77467c>
     e58:	12011101 	andne	r1, r1, #1073741824	; 0x40000000
     e5c:	1f000006 	svcne	0x00000006
     e60:	01018289 	smlabbeq	r1, r9, r2, r8
     e64:	13010111 	movwne	r0, #4369	; 0x1111
     e68:	34200000 	strtcc	r0, [r0], #-0
     e6c:	3a0e0300 	bcc	381a74 <__bss_end__+0x375294>
     e70:	490b3b0b 	stmdbmi	fp, {r0, r1, r3, r8, r9, fp, ip, sp}
     e74:	3c193f13 	ldccc	15, cr3, [r9], {19}
     e78:	21000019 	tstcs	r0, r9, lsl r0
     e7c:	193f002e 	ldmdbne	pc!, {r1, r2, r3, r5}	; <UNPREDICTABLE>
     e80:	0b3a0e03 	bleq	e84694 <__bss_end__+0xe77eb4>
     e84:	19270b3b 	stmdbne	r7!, {r0, r1, r3, r4, r5, r8, r9, fp}
     e88:	0000193c 	andeq	r1, r0, ip, lsr r9
     e8c:	3f012e22 	svccc	0x00012e22
     e90:	3a0e0319 	bcc	381afc <__bss_end__+0x37531c>
     e94:	270b3b0b 	strcs	r3, [fp, -fp, lsl #22]
     e98:	3c134919 	ldccc	9, cr4, [r3], {25}
     e9c:	00130119 	andseq	r0, r3, r9, lsl r1
     ea0:	00182300 	andseq	r2, r8, r0, lsl #6
     ea4:	01000000 	mrseq	r0, (UNDEF: 0)
     ea8:	0e250111 	mcreq	1, 1, r0, cr5, cr1, {0}
     eac:	0e030b13 	vmoveq.32	d3[0], r0
     eb0:	01110e1b 	tsteq	r1, fp, lsl lr
     eb4:	17100612 			; <UNDEFINED> instruction: 0x17100612
     eb8:	24020000 	strcs	r0, [r2], #-0
     ebc:	3e0b0b00 	vmlacc.f64	d0, d11, d0
     ec0:	0008030b 	andeq	r0, r8, fp, lsl #6
     ec4:	00240300 	eoreq	r0, r4, r0, lsl #6
     ec8:	0b3e0b0b 	bleq	f83afc <__bss_end__+0xf7731c>
     ecc:	00000e03 	andeq	r0, r0, r3, lsl #28
     ed0:	0b000f04 	bleq	4ae8 <__code_start__-0x3518>
     ed4:	0013490b 	andseq	r4, r3, fp, lsl #18
     ed8:	00260500 	eoreq	r0, r6, r0, lsl #10
     edc:	00001349 	andeq	r1, r0, r9, asr #6
     ee0:	3f012e06 	svccc	0x00012e06
     ee4:	3a0e0319 	bcc	381b50 <__bss_end__+0x375370>
     ee8:	270b3b0b 	strcs	r3, [fp, -fp, lsl #22]
     eec:	12011119 	andne	r1, r1, #1073741830	; 0x40000006
     ef0:	97184006 	ldrls	r4, [r8, -r6]
     ef4:	13011942 	movwne	r1, #6466	; 0x1942
     ef8:	89070000 	stmdbhi	r7, {}	; <UNPREDICTABLE>
     efc:	11000182 	smlabbne	r0, r2, r1, r0
     f00:	00133101 	andseq	r3, r3, r1, lsl #2
     f04:	82890800 	addhi	r0, r9, #0, 16
     f08:	01110101 	tsteq	r1, r1, lsl #2
     f0c:	00001301 	andeq	r1, r0, r1, lsl #6
     f10:	01828a09 	orreq	r8, r2, r9, lsl #20
     f14:	91180200 	tstls	r8, r0, lsl #4
     f18:	00001842 	andeq	r1, r0, r2, asr #16
     f1c:	0182890a 	orreq	r8, r2, sl, lsl #18
     f20:	31011101 	tstcc	r1, r1, lsl #2
     f24:	00130113 	andseq	r0, r3, r3, lsl r1
     f28:	01150b00 	tsteq	r5, r0, lsl #22
     f2c:	13491927 	movtne	r1, #39207	; 0x9927
     f30:	00001301 	andeq	r1, r0, r1, lsl #6
     f34:	4900050c 	stmdbmi	r0, {r2, r3, r8, sl}
     f38:	0d000013 	stceq	0, cr0, [r0, #-76]	; 0xffffffb4
     f3c:	0e030034 	mcreq	0, 0, r0, cr3, cr4, {1}
     f40:	0b3b0b3a 	bleq	ec3c30 <__bss_end__+0xeb7450>
     f44:	193f1349 	ldmdbne	pc!, {r0, r3, r6, r8, r9, ip}	; <UNPREDICTABLE>
     f48:	0000193c 	andeq	r1, r0, ip, lsr r9
     f4c:	3f002e0e 	svccc	0x00002e0e
     f50:	3a0e0319 	bcc	381bbc <__bss_end__+0x3753dc>
     f54:	270b3b0b 	strcs	r3, [fp, -fp, lsl #22]
     f58:	00193c19 	andseq	r3, r9, r9, lsl ip
     f5c:	012e0f00 	teqeq	lr, r0, lsl #30
     f60:	0e03193f 	mcreq	9, 0, r1, cr3, cr15, {1}
     f64:	0b3b0b3a 	bleq	ec3c54 <__bss_end__+0xeb7474>
     f68:	193c1927 	ldmdbne	ip!, {r0, r1, r2, r5, r8, fp, ip}
     f6c:	00001301 	andeq	r1, r0, r1, lsl #6
     f70:	01110100 	tsteq	r1, r0, lsl #2
     f74:	0b130e25 	bleq	4c4810 <__bss_end__+0x4b8030>
     f78:	0e1b0e03 	cdpeq	14, 1, cr0, cr11, cr3, {0}
     f7c:	06120111 			; <UNDEFINED> instruction: 0x06120111
     f80:	00001710 	andeq	r1, r0, r0, lsl r7
     f84:	0b002402 	bleq	9f94 <cp15_icache_inv>
     f88:	030b3e0b 	movweq	r3, #48651	; 0xbe0b
     f8c:	03000008 	movweq	r0, #8
     f90:	0b0b0024 	bleq	2c1028 <__bss_end__+0x2b4848>
     f94:	0e030b3e 	vmoveq.16	d3[0], r0
     f98:	2e040000 	cdpcs	0, 0, cr0, cr4, cr0, {0}
     f9c:	03193f01 	tsteq	r9, #1, 30
     fa0:	3b0b3a0e 	blcc	2cf7e0 <__bss_end__+0x2c3000>
     fa4:	1201110b 	andne	r1, r1, #-1073741822	; 0xc0000002
     fa8:	97184006 	ldrls	r4, [r8, -r6]
     fac:	13011942 	movwne	r1, #6466	; 0x1942
     fb0:	34050000 	strcc	r0, [r5], #-0
     fb4:	3a0e0300 	bcc	381bbc <__bss_end__+0x3753dc>
     fb8:	490b3b0b 	stmdbmi	fp, {r0, r1, r3, r8, r9, fp, ip, sp}
     fbc:	3c193f13 	ldccc	15, cr3, [r9], {19}
     fc0:	06000019 			; <UNDEFINED> instruction: 0x06000019
     fc4:	193f002e 	ldmdbne	pc!, {r1, r2, r3, r5}	; <UNPREDICTABLE>
     fc8:	0b3a0e03 	bleq	e847dc <__bss_end__+0xe77ffc>
     fcc:	19270b3b 	stmdbne	r7!, {r0, r1, r3, r4, r5, r8, r9, fp}
     fd0:	0000193c 	andeq	r1, r0, ip, lsr r9
     fd4:	03003407 	movweq	r3, #1031	; 0x407
     fd8:	3b0b3a08 	blcc	2cf800 <__bss_end__+0x2c3020>
     fdc:	0213490b 	andseq	r4, r3, #180224	; 0x2c000
     fe0:	08000017 	stmdaeq	r0, {r0, r1, r2, r4}
     fe4:	0e030034 	mcreq	0, 0, r0, cr3, cr4, {1}
     fe8:	0b3b0b3a 	bleq	ec3cd8 <__bss_end__+0xeb74f8>
     fec:	00001349 	andeq	r1, r0, r9, asr #6
     ff0:	01828909 	orreq	r8, r2, r9, lsl #18
     ff4:	31011100 	mrscc	r1, (UNDEF: 17)
     ff8:	0a000013 	beq	104c <__code_start__-0x6fb4>
     ffc:	0b0b000f 	bleq	2c1040 <__bss_end__+0x2b4860>
    1000:	00001349 	andeq	r1, r0, r9, asr #6
    1004:	01110100 	tsteq	r1, r0, lsl #2
    1008:	0b130e25 	bleq	4c48a4 <__bss_end__+0x4b80c4>
    100c:	0e1b0e03 	cdpeq	14, 1, cr0, cr11, cr3, {0}
    1010:	06120111 			; <UNDEFINED> instruction: 0x06120111
    1014:	00001710 	andeq	r1, r0, r0, lsl r7
    1018:	0b002402 	bleq	a028 <cp15_tlbs_inv+0x8>
    101c:	030b3e0b 	movweq	r3, #48651	; 0xbe0b
    1020:	03000008 	movweq	r0, #8
    1024:	0b0b0024 	bleq	2c10bc <__bss_end__+0x2b48dc>
    1028:	0e030b3e 	vmoveq.16	d3[0], r0
    102c:	0f040000 	svceq	0x00040000
    1030:	490b0b00 	stmdbmi	fp, {r8, r9, fp}
    1034:	05000013 	streq	r0, [r0, #-19]
    1038:	13490026 	movtne	r0, #36902	; 0x9026
    103c:	2e060000 	cdpcs	0, 0, cr0, cr6, cr0, {0}
    1040:	03193f01 	tsteq	r9, #1, 30
    1044:	3b0b3a0e 	blcc	2cf884 <__bss_end__+0x2c30a4>
    1048:	1119270b 	tstne	r9, fp, lsl #14
    104c:	40061201 	andmi	r1, r6, r1, lsl #4
    1050:	19429718 	stmdbne	r2, {r3, r4, r8, r9, sl, ip, pc}^
    1054:	00001301 	andeq	r1, r0, r1, lsl #6
    1058:	03000507 	movweq	r0, #1287	; 0x507
    105c:	3b0b3a08 	blcc	2cf884 <__bss_end__+0x2c30a4>
    1060:	0213490b 	andseq	r4, r3, #180224	; 0x2c000
    1064:	08000017 	stmdaeq	r0, {r0, r1, r2, r4}
    1068:	0e030034 	mcreq	0, 0, r0, cr3, cr4, {1}
    106c:	19341349 	ldmdbne	r4!, {r0, r3, r6, r8, r9, ip}
    1070:	00001802 	andeq	r1, r0, r2, lsl #16
    1074:	01828909 	orreq	r8, r2, r9, lsl #18
    1078:	31011100 	mrscc	r1, (UNDEF: 17)
    107c:	0a000013 	beq	10d0 <__code_start__-0x6f30>
    1080:	01018289 	smlabbeq	r1, r9, r2, r8
    1084:	13310111 	teqne	r1, #1073741828	; 0x40000004
    1088:	00001301 	andeq	r1, r0, r1, lsl #6
    108c:	01828a0b 	orreq	r8, r2, fp, lsl #20
    1090:	91180200 	tstls	r8, r0, lsl #4
    1094:	00001842 	andeq	r1, r0, r2, asr #16
    1098:	4901010c 	stmdbmi	r1, {r2, r3, r8}
    109c:	00130113 	andseq	r0, r3, r3, lsl r1
    10a0:	00210d00 	eoreq	r0, r1, r0, lsl #26
    10a4:	0b2f1349 	bleq	bc5dd0 <__bss_end__+0xbb95f0>
    10a8:	2e0e0000 	cdpcs	0, 0, cr0, cr14, cr0, {0}
    10ac:	03193f00 	tsteq	r9, #0, 30
    10b0:	3b0b3a0e 	blcc	2cf8f0 <__bss_end__+0x2c3110>
    10b4:	3c19270b 	ldccc	7, cr2, [r9], {11}
    10b8:	0f000019 	svceq	0x00000019
    10bc:	193f012e 	ldmdbne	pc!, {r1, r2, r3, r5, r8}	; <UNPREDICTABLE>
    10c0:	0b3a0e03 	bleq	e848d4 <__bss_end__+0xe780f4>
    10c4:	19270b3b 	stmdbne	r7!, {r0, r1, r3, r4, r5, r8, r9, fp}
    10c8:	193c1349 	ldmdbne	ip!, {r0, r3, r6, r8, r9, ip}
    10cc:	00001301 	andeq	r1, r0, r1, lsl #6
    10d0:	49000510 	stmdbmi	r0, {r4, r8, sl}
    10d4:	11000013 	tstne	r0, r3, lsl r0
    10d8:	00000018 	andeq	r0, r0, r8, lsl r0
    10dc:	01110100 	tsteq	r1, r0, lsl #2
    10e0:	0b130e25 	bleq	4c497c <__bss_end__+0x4b819c>
    10e4:	0e1b0e03 	cdpeq	14, 1, cr0, cr11, cr3, {0}
    10e8:	06120111 			; <UNDEFINED> instruction: 0x06120111
    10ec:	00001710 	andeq	r1, r0, r0, lsl r7
    10f0:	0b002402 	bleq	a100 <our_cp15_set_procid_ttbr0+0x18>
    10f4:	030b3e0b 	movweq	r3, #48651	; 0xbe0b
    10f8:	03000008 	movweq	r0, #8
    10fc:	0b0b0024 	bleq	2c1194 <__bss_end__+0x2b49b4>
    1100:	0e030b3e 	vmoveq.16	d3[0], r0
    1104:	0f040000 	svceq	0x00040000
    1108:	490b0b00 	stmdbmi	fp, {r8, r9, fp}
    110c:	05000013 	streq	r0, [r0, #-19]
    1110:	13490026 	movtne	r0, #36902	; 0x9026
    1114:	2e060000 	cdpcs	0, 0, cr0, cr6, cr0, {0}
    1118:	03193f01 	tsteq	r9, #1, 30
    111c:	3b0b3a0e 	blcc	2cf95c <__bss_end__+0x2c317c>
    1120:	1119270b 	tstne	r9, fp, lsl #14
    1124:	40061201 	andmi	r1, r6, r1, lsl #4
    1128:	19429718 	stmdbne	r2, {r3, r4, r8, r9, sl, ip, pc}^
    112c:	00001301 	andeq	r1, r0, r1, lsl #6
    1130:	03000507 	movweq	r0, #1287	; 0x507
    1134:	3b0b3a08 	blcc	2cf95c <__bss_end__+0x2c317c>
    1138:	0213490b 	andseq	r4, r3, #180224	; 0x2c000
    113c:	08000017 	stmdaeq	r0, {r0, r1, r2, r4}
    1140:	0e030034 	mcreq	0, 0, r0, cr3, cr4, {1}
    1144:	19341349 	ldmdbne	r4!, {r0, r3, r6, r8, r9, ip}
    1148:	00001802 	andeq	r1, r0, r2, lsl #16
    114c:	01828909 	orreq	r8, r2, r9, lsl #18
    1150:	31011100 	mrscc	r1, (UNDEF: 17)
    1154:	0a000013 	beq	11a8 <__code_start__-0x6e58>
    1158:	01018289 	smlabbeq	r1, r9, r2, r8
    115c:	13310111 	teqne	r1, #1073741828	; 0x40000004
    1160:	00001301 	andeq	r1, r0, r1, lsl #6
    1164:	01828a0b 	orreq	r8, r2, fp, lsl #20
    1168:	91180200 	tstls	r8, r0, lsl #4
    116c:	00001842 	andeq	r1, r0, r2, asr #16
    1170:	4901010c 	stmdbmi	r1, {r2, r3, r8}
    1174:	00130113 	andseq	r0, r3, r3, lsl r1
    1178:	00210d00 	eoreq	r0, r1, r0, lsl #26
    117c:	0b2f1349 	bleq	bc5ea8 <__bss_end__+0xbb96c8>
    1180:	2e0e0000 	cdpcs	0, 0, cr0, cr14, cr0, {0}
    1184:	03193f00 	tsteq	r9, #0, 30
    1188:	3b0b3a0e 	blcc	2cf9c8 <__bss_end__+0x2c31e8>
    118c:	3c19270b 	ldccc	7, cr2, [r9], {11}
    1190:	0f000019 	svceq	0x00000019
    1194:	193f012e 	ldmdbne	pc!, {r1, r2, r3, r5, r8}	; <UNPREDICTABLE>
    1198:	0b3a0e03 	bleq	e849ac <__bss_end__+0xe781cc>
    119c:	19270b3b 	stmdbne	r7!, {r0, r1, r3, r4, r5, r8, r9, fp}
    11a0:	193c1349 	ldmdbne	ip!, {r0, r3, r6, r8, r9, ip}
    11a4:	00001301 	andeq	r1, r0, r1, lsl #6
    11a8:	49000510 	stmdbmi	r0, {r4, r8, sl}
    11ac:	11000013 	tstne	r0, r3, lsl r0
    11b0:	00000018 	andeq	r0, r0, r8, lsl r0
    11b4:	01110100 	tsteq	r1, r0, lsl #2
    11b8:	0b130e25 	bleq	4c4a54 <__bss_end__+0x4b8274>
    11bc:	0e1b0e03 	cdpeq	14, 1, cr0, cr11, cr3, {0}
    11c0:	06120111 			; <UNDEFINED> instruction: 0x06120111
    11c4:	00001710 	andeq	r1, r0, r0, lsl r7
    11c8:	0b002402 	bleq	a1d8 <our_mmu_disable_set_asm+0x44>
    11cc:	030b3e0b 	movweq	r3, #48651	; 0xbe0b
    11d0:	03000008 	movweq	r0, #8
    11d4:	0b0b0024 	bleq	2c126c <__bss_end__+0x2b4a8c>
    11d8:	0e030b3e 	vmoveq.16	d3[0], r0
    11dc:	0f040000 	svceq	0x00040000
    11e0:	490b0b00 	stmdbmi	fp, {r8, r9, fp}
    11e4:	05000013 	streq	r0, [r0, #-19]
    11e8:	13490026 	movtne	r0, #36902	; 0x9026
    11ec:	2e060000 	cdpcs	0, 0, cr0, cr6, cr0, {0}
    11f0:	03193f01 	tsteq	r9, #1, 30
    11f4:	3b0b3a0e 	blcc	2cfa34 <__bss_end__+0x2c3254>
    11f8:	1119270b 	tstne	r9, fp, lsl #14
    11fc:	40061201 	andmi	r1, r6, r1, lsl #4
    1200:	19429718 	stmdbne	r2, {r3, r4, r8, r9, sl, ip, pc}^
    1204:	00001301 	andeq	r1, r0, r1, lsl #6
    1208:	03000507 	movweq	r0, #1287	; 0x507
    120c:	3b0b3a08 	blcc	2cfa34 <__bss_end__+0x2c3254>
    1210:	0213490b 	andseq	r4, r3, #180224	; 0x2c000
    1214:	08000017 	stmdaeq	r0, {r0, r1, r2, r4}
    1218:	0e030034 	mcreq	0, 0, r0, cr3, cr4, {1}
    121c:	19341349 	ldmdbne	r4!, {r0, r3, r6, r8, r9, ip}
    1220:	00001802 	andeq	r1, r0, r2, lsl #16
    1224:	01828909 	orreq	r8, r2, r9, lsl #18
    1228:	31011100 	mrscc	r1, (UNDEF: 17)
    122c:	0a000013 	beq	1280 <__code_start__-0x6d80>
    1230:	01018289 	smlabbeq	r1, r9, r2, r8
    1234:	13310111 	teqne	r1, #1073741828	; 0x40000004
    1238:	00001301 	andeq	r1, r0, r1, lsl #6
    123c:	01828a0b 	orreq	r8, r2, fp, lsl #20
    1240:	91180200 	tstls	r8, r0, lsl #4
    1244:	00001842 	andeq	r1, r0, r2, asr #16
    1248:	4901010c 	stmdbmi	r1, {r2, r3, r8}
    124c:	00130113 	andseq	r0, r3, r3, lsl r1
    1250:	00210d00 	eoreq	r0, r1, r0, lsl #26
    1254:	0b2f1349 	bleq	bc5f80 <__bss_end__+0xbb97a0>
    1258:	2e0e0000 	cdpcs	0, 0, cr0, cr14, cr0, {0}
    125c:	03193f00 	tsteq	r9, #0, 30
    1260:	3b0b3a0e 	blcc	2cfaa0 <__bss_end__+0x2c32c0>
    1264:	3c19270b 	ldccc	7, cr2, [r9], {11}
    1268:	0f000019 	svceq	0x00000019
    126c:	193f012e 	ldmdbne	pc!, {r1, r2, r3, r5, r8}	; <UNPREDICTABLE>
    1270:	0b3a0e03 	bleq	e84a84 <__bss_end__+0xe782a4>
    1274:	19270b3b 	stmdbne	r7!, {r0, r1, r3, r4, r5, r8, r9, fp}
    1278:	193c1349 	ldmdbne	ip!, {r0, r3, r6, r8, r9, ip}
    127c:	00001301 	andeq	r1, r0, r1, lsl #6
    1280:	49000510 	stmdbmi	r0, {r4, r8, sl}
    1284:	11000013 	tstne	r0, r3, lsl r0
    1288:	00000018 	andeq	r0, r0, r8, lsl r0
    128c:	01110100 	tsteq	r1, r0, lsl #2
    1290:	0b130e25 	bleq	4c4b2c <__bss_end__+0x4b834c>
    1294:	0e1b0e03 	cdpeq	14, 1, cr0, cr11, cr3, {0}
    1298:	06120111 			; <UNDEFINED> instruction: 0x06120111
    129c:	00001710 	andeq	r1, r0, r0, lsl r7
    12a0:	0b002402 	bleq	a2b0 <fast_hash+0x98>
    12a4:	030b3e0b 	movweq	r3, #48651	; 0xbe0b
    12a8:	03000008 	movweq	r0, #8
    12ac:	0b0b0024 	bleq	2c1344 <__bss_end__+0x2b4b64>
    12b0:	0e030b3e 	vmoveq.16	d3[0], r0
    12b4:	0f040000 	svceq	0x00040000
    12b8:	490b0b00 	stmdbmi	fp, {r8, r9, fp}
    12bc:	05000013 	streq	r0, [r0, #-19]
    12c0:	13490026 	movtne	r0, #36902	; 0x9026
    12c4:	2e060000 	cdpcs	0, 0, cr0, cr6, cr0, {0}
    12c8:	03193f01 	tsteq	r9, #1, 30
    12cc:	3b0b3a0e 	blcc	2cfb0c <__bss_end__+0x2c332c>
    12d0:	1119270b 	tstne	r9, fp, lsl #14
    12d4:	40061201 	andmi	r1, r6, r1, lsl #4
    12d8:	19429718 	stmdbne	r2, {r3, r4, r8, r9, sl, ip, pc}^
    12dc:	00001301 	andeq	r1, r0, r1, lsl #6
    12e0:	03000507 	movweq	r0, #1287	; 0x507
    12e4:	3b0b3a08 	blcc	2cfb0c <__bss_end__+0x2c332c>
    12e8:	0213490b 	andseq	r4, r3, #180224	; 0x2c000
    12ec:	08000017 	stmdaeq	r0, {r0, r1, r2, r4}
    12f0:	0e030034 	mcreq	0, 0, r0, cr3, cr4, {1}
    12f4:	19341349 	ldmdbne	r4!, {r0, r3, r6, r8, r9, ip}
    12f8:	00001802 	andeq	r1, r0, r2, lsl #16
    12fc:	01828909 	orreq	r8, r2, r9, lsl #18
    1300:	31011100 	mrscc	r1, (UNDEF: 17)
    1304:	0a000013 	beq	1358 <__code_start__-0x6ca8>
    1308:	01018289 	smlabbeq	r1, r9, r2, r8
    130c:	13310111 	teqne	r1, #1073741828	; 0x40000004
    1310:	00001301 	andeq	r1, r0, r1, lsl #6
    1314:	01828a0b 	orreq	r8, r2, fp, lsl #20
    1318:	91180200 	tstls	r8, r0, lsl #4
    131c:	00001842 	andeq	r1, r0, r2, asr #16
    1320:	4901010c 	stmdbmi	r1, {r2, r3, r8}
    1324:	00130113 	andseq	r0, r3, r3, lsl r1
    1328:	00210d00 	eoreq	r0, r1, r0, lsl #26
    132c:	0b2f1349 	bleq	bc6058 <__bss_end__+0xbb9878>
    1330:	2e0e0000 	cdpcs	0, 0, cr0, cr14, cr0, {0}
    1334:	03193f00 	tsteq	r9, #0, 30
    1338:	3b0b3a0e 	blcc	2cfb78 <__bss_end__+0x2c3398>
    133c:	3c19270b 	ldccc	7, cr2, [r9], {11}
    1340:	0f000019 	svceq	0x00000019
    1344:	193f012e 	ldmdbne	pc!, {r1, r2, r3, r5, r8}	; <UNPREDICTABLE>
    1348:	0b3a0e03 	bleq	e84b5c <__bss_end__+0xe7837c>
    134c:	19270b3b 	stmdbne	r7!, {r0, r1, r3, r4, r5, r8, r9, fp}
    1350:	193c1349 	ldmdbne	ip!, {r0, r3, r6, r8, r9, ip}
    1354:	00001301 	andeq	r1, r0, r1, lsl #6
    1358:	49000510 	stmdbmi	r0, {r4, r8, sl}
    135c:	11000013 	tstne	r0, r3, lsl r0
    1360:	00000018 	andeq	r0, r0, r8, lsl r0
    1364:	01110100 	tsteq	r1, r0, lsl #2
    1368:	0b130e25 	bleq	4c4c04 <__bss_end__+0x4b8424>
    136c:	0e1b0e03 	cdpeq	14, 1, cr0, cr11, cr3, {0}
    1370:	06120111 			; <UNDEFINED> instruction: 0x06120111
    1374:	00001710 	andeq	r1, r0, r0, lsl r7
    1378:	0b002402 	bleq	a388 <internal_putchar+0x8>
    137c:	030b3e0b 	movweq	r3, #48651	; 0xbe0b
    1380:	03000008 	movweq	r0, #8
    1384:	0b0b0024 	bleq	2c141c <__bss_end__+0x2b4c3c>
    1388:	0e030b3e 	vmoveq.16	d3[0], r0
    138c:	2e040000 	cdpcs	0, 0, cr0, cr4, cr0, {0}
    1390:	03193f00 	tsteq	r9, #0, 30
    1394:	3b0b3a0e 	blcc	2cfbd4 <__bss_end__+0x2c33f4>
    1398:	1119270b 	tstne	r9, fp, lsl #14
    139c:	40061201 	andmi	r1, r6, r1, lsl #4
    13a0:	19429718 	stmdbne	r2, {r3, r4, r8, r9, sl, ip, pc}^
    13a4:	01000000 	mrseq	r0, (UNDEF: 0)
    13a8:	0e250111 	mcreq	1, 1, r0, cr5, cr1, {0}
    13ac:	0e030b13 	vmoveq.32	d3[0], r0
    13b0:	01110e1b 	tsteq	r1, fp, lsl lr
    13b4:	17100612 			; <UNDEFINED> instruction: 0x17100612
    13b8:	24020000 	strcs	r0, [r2], #-0
    13bc:	3e0b0b00 	vmlacc.f64	d0, d11, d0
    13c0:	0008030b 	andeq	r0, r8, fp, lsl #6
    13c4:	00240300 	eoreq	r0, r4, r0, lsl #6
    13c8:	0b3e0b0b 	bleq	f83ffc <__bss_end__+0xf7781c>
    13cc:	00000e03 	andeq	r0, r0, r3, lsl #28
    13d0:	0b010404 	bleq	423e8 <__bss_end__+0x35c08>
    13d4:	3b0b3a0b 	blcc	2cfc08 <__bss_end__+0x2c3428>
    13d8:	0013010b 	andseq	r0, r3, fp, lsl #2
    13dc:	00280500 	eoreq	r0, r8, r0, lsl #10
    13e0:	0d1c0e03 	ldceq	14, cr0, [ip, #-12]
    13e4:	2e060000 	cdpcs	0, 0, cr0, cr6, cr0, {0}
    13e8:	03193f01 	tsteq	r9, #1, 30
    13ec:	3b0b3a0e 	blcc	2cfc2c <__bss_end__+0x2c344c>
    13f0:	1119270b 	tstne	r9, fp, lsl #14
    13f4:	40061201 	andmi	r1, r6, r1, lsl #4
    13f8:	19429718 	stmdbne	r2, {r3, r4, r8, r9, sl, ip, pc}^
    13fc:	00001301 	andeq	r1, r0, r1, lsl #6
    1400:	03003407 	movweq	r3, #1031	; 0x407
    1404:	3b0b3a0e 	blcc	2cfc44 <__bss_end__+0x2c3464>
    1408:	3f13490b 	svccc	0x0013490b
    140c:	00193c19 	andseq	r3, r9, r9, lsl ip
    1410:	00340800 	eorseq	r0, r4, r0, lsl #16
    1414:	0b3a0803 	bleq	e83428 <__bss_end__+0xe76c48>
    1418:	13490b3b 	movtne	r0, #39739	; 0x9b3b
    141c:	00000b1c 	andeq	r0, r0, ip, lsl fp
    1420:	03003409 	movweq	r3, #1033	; 0x409
    1424:	3b0b3a08 	blcc	2cfc4c <__bss_end__+0x2c346c>
    1428:	0013490b 	andseq	r4, r3, fp, lsl #18
    142c:	00340a00 	eorseq	r0, r4, r0, lsl #20
    1430:	0b3a0803 	bleq	e83444 <__bss_end__+0xe76c64>
    1434:	13490b3b 	movtne	r0, #39739	; 0x9b3b
    1438:	00001802 	andeq	r1, r0, r2, lsl #16
    143c:	11010b0b 	tstne	r1, fp, lsl #22
    1440:	01061201 	tsteq	r6, r1, lsl #4
    1444:	0c000013 	stceq	0, cr0, [r0], {19}
    1448:	08030034 	stmdaeq	r3, {r2, r4, r5}
    144c:	0b3b0b3a 	bleq	ec413c <__bss_end__+0xeb795c>
    1450:	17021349 	strne	r1, [r2, -r9, asr #6]
    1454:	890d0000 	stmdbhi	sp, {}	; <UNPREDICTABLE>
    1458:	11000182 	smlabbne	r0, r2, r1, r0
    145c:	00133101 	andseq	r3, r3, r1, lsl #2
    1460:	82890e00 	addhi	r0, r9, #0, 28
    1464:	01110101 	tsteq	r1, r1, lsl #2
    1468:	13011331 	movwne	r1, #4913	; 0x1331
    146c:	8a0f0000 	bhi	3c1474 <__bss_end__+0x3b4c94>
    1470:	02000182 	andeq	r0, r0, #-2147483616	; 0x80000020
    1474:	18429118 	stmdane	r2, {r3, r4, r8, ip, pc}^
    1478:	0f100000 	svceq	0x00100000
    147c:	490b0b00 	stmdbmi	fp, {r8, r9, fp}
    1480:	11000013 	tstne	r0, r3, lsl r0
    1484:	193f002e 	ldmdbne	pc!, {r1, r2, r3, r5}	; <UNPREDICTABLE>
    1488:	0b3a0e03 	bleq	e84c9c <__bss_end__+0xe784bc>
    148c:	19270b3b 	stmdbne	r7!, {r0, r1, r3, r4, r5, r8, r9, fp}
    1490:	0000193c 	andeq	r1, r0, ip, lsr r9
    1494:	3f012e12 	svccc	0x00012e12
    1498:	3a0e0319 	bcc	382104 <__bss_end__+0x375924>
    149c:	270b3b0b 	strcs	r3, [fp, -fp, lsl #22]
    14a0:	00193c19 	andseq	r3, r9, r9, lsl ip
    14a4:	00051300 	andeq	r1, r5, r0, lsl #6
    14a8:	00001349 	andeq	r1, r0, r9, asr #6
    14ac:	01110100 	tsteq	r1, r0, lsl #2
    14b0:	0b130e25 	bleq	4c4d4c <__bss_end__+0x4b856c>
    14b4:	0e1b0e03 	cdpeq	14, 1, cr0, cr11, cr3, {0}
    14b8:	01111755 	tsteq	r1, r5, asr r7
    14bc:	00001710 	andeq	r1, r0, r0, lsl r7
    14c0:	0b002402 	bleq	a4d0 <emit+0x60>
    14c4:	030b3e0b 	movweq	r3, #48651	; 0xbe0b
    14c8:	03000008 	movweq	r0, #8
    14cc:	0b0b0024 	bleq	2c1564 <__bss_end__+0x2b4d84>
    14d0:	0e030b3e 	vmoveq.16	d3[0], r0
    14d4:	2e040000 	cdpcs	0, 0, cr0, cr4, cr0, {0}
    14d8:	03193f01 	tsteq	r9, #1, 30
    14dc:	3b0b3a0e 	blcc	2cfd1c <__bss_end__+0x2c353c>
    14e0:	4919270b 	ldmdbmi	r9, {r0, r1, r3, r8, r9, sl, sp}
    14e4:	12011113 	andne	r1, r1, #-1073741820	; 0xc0000004
    14e8:	97184006 	ldrls	r4, [r8, -r6]
    14ec:	13011942 	movwne	r1, #6466	; 0x1942
    14f0:	34050000 	strcc	r0, [r5], #-0
    14f4:	3a0e0300 	bcc	3820fc <__bss_end__+0x37591c>
    14f8:	490b3b0b 	stmdbmi	fp, {r0, r1, r3, r8, r9, fp, ip, sp}
    14fc:	00170213 	andseq	r0, r7, r3, lsl r2
    1500:	012e0600 	teqeq	lr, r0, lsl #12
    1504:	0e03193f 	mcreq	9, 0, r1, cr3, cr15, {1}
    1508:	0b3b0b3a 	bleq	ec41f8 <__bss_end__+0xeb7a18>
    150c:	01111927 	tsteq	r1, r7, lsr #18
    1510:	18400612 	stmdane	r0, {r1, r4, r9, sl}^
    1514:	01194297 			; <UNDEFINED> instruction: 0x01194297
    1518:	07000013 	smladeq	r0, r3, r0, r0
    151c:	0e030034 	mcreq	0, 0, r0, cr3, cr4, {1}
    1520:	0b3b0b3a 	bleq	ec4210 <__bss_end__+0xeb7a30>
    1524:	061c1349 	ldreq	r1, [ip], -r9, asr #6
    1528:	34080000 	strcc	r0, [r8], #-0
    152c:	3a0e0300 	bcc	382134 <__bss_end__+0x375954>
    1530:	490b3b0b 	stmdbmi	fp, {r0, r1, r3, r8, r9, fp, ip, sp}
    1534:	000b1c13 	andeq	r1, fp, r3, lsl ip
    1538:	82890900 	addhi	r0, r9, #0, 18
    153c:	01110001 	tsteq	r1, r1
    1540:	00001331 	andeq	r1, r0, r1, lsr r3
    1544:	0182890a 	orreq	r8, r2, sl, lsl #18
    1548:	31011101 	tstcc	r1, r1, lsl #2
    154c:	00130113 	andseq	r0, r3, r3, lsl r1
    1550:	828a0b00 	addhi	r0, sl, #0, 22
    1554:	18020001 	stmdane	r2, {r0}
    1558:	00184291 	mulseq	r8, r1, r2
    155c:	82890c00 	addhi	r0, r9, #0, 24
    1560:	01110101 	tsteq	r1, r1, lsl #2
    1564:	00001331 	andeq	r1, r0, r1, lsr r3
    1568:	4900260d 	stmdbmi	r0, {r0, r2, r3, r9, sl, sp}
    156c:	0e000013 	mcreq	0, 0, r0, cr0, cr3, {0}
    1570:	193f012e 	ldmdbne	pc!, {r1, r2, r3, r5, r8}	; <UNPREDICTABLE>
    1574:	0b3a0e03 	bleq	e84d88 <__bss_end__+0xe785a8>
    1578:	19270b3b 	stmdbne	r7!, {r0, r1, r3, r4, r5, r8, r9, fp}
    157c:	1301193c 	movwne	r1, #6460	; 0x193c
    1580:	050f0000 	streq	r0, [pc, #-0]	; 1588 <__code_start__-0x6a78>
    1584:	00134900 	andseq	r4, r3, r0, lsl #18
    1588:	012e1000 	teqeq	lr, r0
    158c:	0e03193f 	mcreq	9, 0, r1, cr3, cr15, {1}
    1590:	0b3b0b3a 	bleq	ec4280 <__bss_end__+0xeb7aa0>
    1594:	193c1927 	ldmdbne	ip!, {r0, r1, r2, r5, r8, fp, ip}
    1598:	01000000 	mrseq	r0, (UNDEF: 0)
    159c:	0e250111 	mcreq	1, 1, r0, cr5, cr1, {0}
    15a0:	0e030b13 	vmoveq.32	d3[0], r0
    15a4:	01110e1b 	tsteq	r1, fp, lsl lr
    15a8:	17100612 			; <UNDEFINED> instruction: 0x17100612
    15ac:	24020000 	strcs	r0, [r2], #-0
    15b0:	3e0b0b00 	vmlacc.f64	d0, d11, d0
    15b4:	0008030b 	andeq	r0, r8, fp, lsl #6
    15b8:	00240300 	eoreq	r0, r4, r0, lsl #6
    15bc:	0b3e0b0b 	bleq	f841f0 <__bss_end__+0xf77a10>
    15c0:	00000e03 	andeq	r0, r0, r3, lsl #28
    15c4:	3f012e04 	svccc	0x00012e04
    15c8:	3a0e0319 	bcc	382234 <__bss_end__+0x375a54>
    15cc:	270b3b0b 	strcs	r3, [fp, -fp, lsl #22]
    15d0:	12011119 	andne	r1, r1, #1073741830	; 0x40000006
    15d4:	97184006 	ldrls	r4, [r8, -r6]
    15d8:	13011942 	movwne	r1, #6466	; 0x1942
    15dc:	05050000 	streq	r0, [r5, #-0]
    15e0:	3a0e0300 	bcc	3821e8 <__bss_end__+0x375a08>
    15e4:	490b3b0b 	stmdbmi	fp, {r0, r1, r3, r8, r9, fp, ip, sp}
    15e8:	00170213 	andseq	r0, r7, r3, lsl r2
    15ec:	012e0600 	teqeq	lr, r0, lsl #12
    15f0:	0e03193f 	mcreq	9, 0, r1, cr3, cr15, {1}
    15f4:	0b3b0b3a 	bleq	ec42e4 <__bss_end__+0xeb7b04>
    15f8:	13491927 	movtne	r1, #39207	; 0x9927
    15fc:	06120111 			; <UNDEFINED> instruction: 0x06120111
    1600:	42971840 	addsmi	r1, r7, #64, 16	; 0x400000
    1604:	00130119 	andseq	r0, r3, r9, lsl r1
    1608:	82890700 	addhi	r0, r9, #0, 14
    160c:	01110101 	tsteq	r1, r1, lsl #2
    1610:	00001331 	andeq	r1, r0, r1, lsr r3
    1614:	01828a08 	orreq	r8, r2, r8, lsl #20
    1618:	91180200 	tstls	r8, r0, lsl #4
    161c:	00001842 	andeq	r1, r0, r2, asr #16
    1620:	03003409 	movweq	r3, #1033	; 0x409
    1624:	3b0b3a08 	blcc	2cfe4c <__bss_end__+0x2c366c>
    1628:	0213490b 	andseq	r4, r3, #180224	; 0x2c000
    162c:	0a000017 	beq	1690 <__code_start__-0x6970>
    1630:	00018289 	andeq	r8, r1, r9, lsl #5
    1634:	13310111 	teqne	r1, #1073741828	; 0x40000004
    1638:	050b0000 	streq	r0, [fp, #-0]
    163c:	3a080300 	bcc	202244 <__bss_end__+0x1f5a64>
    1640:	490b3b0b 	stmdbmi	fp, {r0, r1, r3, r8, r9, fp, ip, sp}
    1644:	00170213 	andseq	r0, r7, r3, lsl r2
    1648:	00340c00 	eorseq	r0, r4, r0, lsl #24
    164c:	0b3a0803 	bleq	e83660 <__bss_end__+0xe76e80>
    1650:	13490b3b 	movtne	r0, #39739	; 0x9b3b
    1654:	00001802 	andeq	r1, r0, r2, lsl #16
    1658:	11010b0d 	tstne	r1, sp, lsl #22
    165c:	01061201 	tsteq	r6, r1, lsl #4
    1660:	0e000013 	mcreq	0, 0, r0, cr0, cr3, {0}
    1664:	193f012e 	ldmdbne	pc!, {r1, r2, r3, r5, r8}	; <UNPREDICTABLE>
    1668:	0b3a0e03 	bleq	e84e7c <__bss_end__+0xe7869c>
    166c:	19270b3b 	stmdbne	r7!, {r0, r1, r3, r4, r5, r8, r9, fp}
    1670:	193c1349 	ldmdbne	ip!, {r0, r3, r6, r8, r9, ip}
    1674:	00001301 	andeq	r1, r0, r1, lsl #6
    1678:	4900050f 	stmdbmi	r0, {r0, r1, r2, r3, r8, sl}
    167c:	10000013 	andne	r0, r0, r3, lsl r0
    1680:	193f002e 	ldmdbne	pc!, {r1, r2, r3, r5}	; <UNPREDICTABLE>
    1684:	0b3a0e03 	bleq	e84e98 <__bss_end__+0xe786b8>
    1688:	19270b3b 	stmdbne	r7!, {r0, r1, r3, r4, r5, r8, r9, fp}
    168c:	0000193c 	andeq	r1, r0, ip, lsr r9
    1690:	01110100 	tsteq	r1, r0, lsl #2
    1694:	0b130e25 	bleq	4c4f30 <__bss_end__+0x4b8750>
    1698:	0e1b0e03 	cdpeq	14, 1, cr0, cr11, cr3, {0}
    169c:	06120111 			; <UNDEFINED> instruction: 0x06120111
    16a0:	00001710 	andeq	r1, r0, r0, lsl r7
    16a4:	0b002402 	bleq	a6b4 <va_printk+0x20>
    16a8:	030b3e0b 	movweq	r3, #48651	; 0xbe0b
    16ac:	03000008 	movweq	r0, #8
    16b0:	0b0b0024 	bleq	2c1748 <__bss_end__+0x2b4f68>
    16b4:	0e030b3e 	vmoveq.16	d3[0], r0
    16b8:	35040000 	strcc	r0, [r4, #-0]
    16bc:	00134900 	andseq	r4, r3, r0, lsl #18
    16c0:	00160500 	andseq	r0, r6, r0, lsl #10
    16c4:	0b3a0e03 	bleq	e84ed8 <__bss_end__+0xe786f8>
    16c8:	13490b3b 	movtne	r0, #39739	; 0x9b3b
    16cc:	16060000 	strne	r0, [r6], -r0
    16d0:	3a0e0300 	bcc	3822d8 <__bss_end__+0x375af8>
    16d4:	49053b0b 	stmdbmi	r5, {r0, r1, r3, r8, r9, fp, ip, sp}
    16d8:	07000013 	smladeq	r0, r3, r0, r0
    16dc:	0b0b0117 	bleq	2c1b40 <__bss_end__+0x2b5360>
    16e0:	0b3b0b3a 	bleq	ec43d0 <__bss_end__+0xeb7bf0>
    16e4:	00001301 	andeq	r1, r0, r1, lsl #6
    16e8:	03000d08 	movweq	r0, #3336	; 0xd08
    16ec:	3b0b3a0e 	blcc	2cff2c <__bss_end__+0x2c374c>
    16f0:	0013490b 	andseq	r4, r3, fp, lsl #18
    16f4:	01010900 	tsteq	r1, r0, lsl #18
    16f8:	13011349 	movwne	r1, #4937	; 0x1349
    16fc:	210a0000 	mrscs	r0, (UNDEF: 10)
    1700:	2f134900 	svccs	0x00134900
    1704:	0b00000b 	bleq	1738 <__code_start__-0x68c8>
    1708:	0b0b0113 	bleq	2c1b5c <__bss_end__+0x2b537c>
    170c:	0b3b0b3a 	bleq	ec43fc <__bss_end__+0xeb7c1c>
    1710:	00001301 	andeq	r1, r0, r1, lsl #6
    1714:	03000d0c 	movweq	r0, #3340	; 0xd0c
    1718:	3b0b3a0e 	blcc	2cff58 <__bss_end__+0x2c3778>
    171c:	3813490b 	ldmdacc	r3, {r0, r1, r3, r8, fp, lr}
    1720:	0d00000b 	stceq	0, cr0, [r0, #-44]	; 0xffffffd4
    1724:	0b0b000f 	bleq	2c1768 <__bss_end__+0x2b4f88>
    1728:	0f0e0000 	svceq	0x000e0000
    172c:	490b0b00 	stmdbmi	fp, {r8, r9, fp}
    1730:	0f000013 	svceq	0x00000013
    1734:	13490026 	movtne	r0, #36902	; 0x9026
    1738:	13100000 	tstne	r0, #0
    173c:	0b0e0301 	bleq	382348 <__bss_end__+0x375b68>
    1740:	3b0b3a0b 	blcc	2cff74 <__bss_end__+0x2c3794>
    1744:	0013010b 	andseq	r0, r3, fp, lsl #2
    1748:	000d1100 	andeq	r1, sp, r0, lsl #2
    174c:	0b3a0803 	bleq	e83760 <__bss_end__+0xe76f80>
    1750:	13490b3b 	movtne	r0, #39739	; 0x9b3b
    1754:	00000b38 	andeq	r0, r0, r8, lsr fp
    1758:	03011312 	movweq	r1, #4882	; 0x1312
    175c:	3a050b0e 	bcc	14439c <__bss_end__+0x137bbc>
    1760:	010b3b0b 	tsteq	fp, fp, lsl #22
    1764:	13000013 	movwne	r0, #19
    1768:	0e03000d 	cdpeq	0, 0, cr0, cr3, cr13, {0}
    176c:	0b3b0b3a 	bleq	ec445c <__bss_end__+0xeb7c7c>
    1770:	05381349 	ldreq	r1, [r8, #-841]!	; 0x349
    1774:	15140000 	ldrne	r0, [r4, #-0]
    1778:	00192700 	andseq	r2, r9, r0, lsl #14
    177c:	01151500 	tsteq	r5, r0, lsl #10
    1780:	13491927 	movtne	r1, #39207	; 0x9927
    1784:	00001301 	andeq	r1, r0, r1, lsl #6
    1788:	49000516 	stmdbmi	r0, {r1, r2, r4, r8, sl}
    178c:	17000013 	smladne	r0, r3, r0, r0
    1790:	0e030113 	mcreq	1, 0, r0, cr3, cr3, {0}
    1794:	0b3a050b 	bleq	e82bc8 <__bss_end__+0xe763e8>
    1798:	1301053b 	movwne	r0, #5435	; 0x153b
    179c:	0d180000 	ldceq	0, cr0, [r8, #-0]
    17a0:	3a0e0300 	bcc	3823a8 <__bss_end__+0x375bc8>
    17a4:	49053b0b 	stmdbmi	r5, {r0, r1, r3, r8, r9, fp, ip, sp}
    17a8:	000b3813 	andeq	r3, fp, r3, lsl r8
    17ac:	000d1900 	andeq	r1, sp, r0, lsl #18
    17b0:	0b3a0e03 	bleq	e84fc4 <__bss_end__+0xe787e4>
    17b4:	1349053b 	movtne	r0, #38203	; 0x953b
    17b8:	00000538 	andeq	r0, r0, r8, lsr r5
    17bc:	0301131a 	movweq	r1, #4890	; 0x131a
    17c0:	3a0b0b0e 	bcc	2c4400 <__bss_end__+0x2b7c20>
    17c4:	01053b0b 	tsteq	r5, fp, lsl #22
    17c8:	1b000013 	blne	181c <__code_start__-0x67e4>
    17cc:	0b0b0113 	bleq	2c1c20 <__bss_end__+0x2b5440>
    17d0:	053b0b3a 	ldreq	r0, [fp, #-2874]!	; 0xb3a
    17d4:	00001301 	andeq	r1, r0, r1, lsl #6
    17d8:	0b01171c 	bleq	47450 <__bss_end__+0x3ac70>
    17dc:	3b0b3a0b 	blcc	2d0010 <__bss_end__+0x2c3830>
    17e0:	00130105 	andseq	r0, r3, r5, lsl #2
    17e4:	000d1d00 	andeq	r1, sp, r0, lsl #26
    17e8:	0b3a0e03 	bleq	e84ffc <__bss_end__+0xe7881c>
    17ec:	1349053b 	movtne	r0, #38203	; 0x953b
    17f0:	151e0000 	ldrne	r0, [lr, #-0]
    17f4:	01192701 	tsteq	r9, r1, lsl #14
    17f8:	1f000013 	svcne	0x00000013
    17fc:	0e030034 	mcreq	0, 0, r0, cr3, cr4, {1}
    1800:	053b0b3a 	ldreq	r0, [fp, #-2874]!	; 0xb3a
    1804:	193f1349 	ldmdbne	pc!, {r0, r3, r6, r8, r9, ip}	; <UNPREDICTABLE>
    1808:	0000193c 	andeq	r1, r0, ip, lsr r9
    180c:	03003420 	movweq	r3, #1056	; 0x420
    1810:	3b0b3a0e 	blcc	2d0050 <__bss_end__+0x2c3870>
    1814:	3f13490b 	svccc	0x0013490b
    1818:	00193c19 	andseq	r3, r9, r9, lsl ip
    181c:	01042100 	mrseq	r2, (UNDEF: 20)
    1820:	13490b0b 	movtne	r0, #39691	; 0x9b0b
    1824:	0b3b0b3a 	bleq	ec4514 <__bss_end__+0xeb7d34>
    1828:	00001301 	andeq	r1, r0, r1, lsl #6
    182c:	03002822 	movweq	r2, #2082	; 0x822
    1830:	000b1c0e 	andeq	r1, fp, lr, lsl #24
    1834:	00342300 	eorseq	r2, r4, r0, lsl #6
    1838:	0b3a0e03 	bleq	e8504c <__bss_end__+0xe7886c>
    183c:	13490b3b 	movtne	r0, #39739	; 0x9b3b
    1840:	0000061c 	andeq	r0, r0, ip, lsl r6
    1844:	3f012e24 	svccc	0x00012e24
    1848:	3a0e0319 	bcc	3824b4 <__bss_end__+0x375cd4>
    184c:	270b3b0b 	strcs	r3, [fp, -fp, lsl #22]
    1850:	11134919 	tstne	r3, r9, lsl r9
    1854:	40061201 	andmi	r1, r6, r1, lsl #4
    1858:	19429718 	stmdbne	r2, {r3, r4, r8, r9, sl, ip, pc}^
    185c:	00001301 	andeq	r1, r0, r1, lsl #6
    1860:	01828925 	orreq	r8, r2, r5, lsr #18
    1864:	31011100 	mrscc	r1, (UNDEF: 17)
    1868:	26000013 			; <UNDEFINED> instruction: 0x26000013
    186c:	193f012e 	ldmdbne	pc!, {r1, r2, r3, r5, r8}	; <UNPREDICTABLE>
    1870:	0b3a0e03 	bleq	e85084 <__bss_end__+0xe788a4>
    1874:	19270b3b 	stmdbne	r7!, {r0, r1, r3, r4, r5, r8, r9, fp}
    1878:	06120111 			; <UNDEFINED> instruction: 0x06120111
    187c:	42971840 	addsmi	r1, r7, #64, 16	; 0x400000
    1880:	00130119 	andseq	r0, r3, r9, lsl r1
    1884:	00052700 	andeq	r2, r5, r0, lsl #14
    1888:	0b3a0803 	bleq	e8389c <__bss_end__+0xe770bc>
    188c:	13490b3b 	movtne	r0, #39739	; 0x9b3b
    1890:	00001702 	andeq	r1, r0, r2, lsl #14
    1894:	01828928 	orreq	r8, r2, r8, lsr #18
    1898:	31011101 	tstcc	r1, r1, lsl #2
    189c:	00130113 	andseq	r0, r3, r3, lsl r1
    18a0:	828a2900 	addhi	r2, sl, #0, 18
    18a4:	18020001 	stmdane	r2, {r0}
    18a8:	00184291 	mulseq	r8, r1, r2
    18ac:	00342a00 	eorseq	r2, r4, r0, lsl #20
    18b0:	0b3a0803 	bleq	e838c4 <__bss_end__+0xe770e4>
    18b4:	13490b3b 	movtne	r0, #39739	; 0x9b3b
    18b8:	00001802 	andeq	r1, r0, r2, lsl #16
    18bc:	0182892b 	orreq	r8, r2, fp, lsr #18
    18c0:	31011101 	tstcc	r1, r1, lsl #2
    18c4:	2c000013 	stccs	0, cr0, [r0], {19}
    18c8:	0e03012e 	adfeqsp	f0, f3, #0.5
    18cc:	0b3b0b3a 	bleq	ec45bc <__bss_end__+0xeb7ddc>
    18d0:	01111927 	tsteq	r1, r7, lsr #18
    18d4:	18400612 	stmdane	r0, {r1, r4, r9, sl}^
    18d8:	01194297 			; <UNDEFINED> instruction: 0x01194297
    18dc:	2d000013 	stccs	0, cr0, [r0, #-76]	; 0xffffffb4
    18e0:	0e030005 	cdpeq	0, 0, cr0, cr3, cr5, {0}
    18e4:	0b3b0b3a 	bleq	ec45d4 <__bss_end__+0xeb7df4>
    18e8:	17021349 	strne	r1, [r2, -r9, asr #6]
    18ec:	352e0000 	strcc	r0, [lr, #-0]!
    18f0:	2f000000 	svccs	0x00000000
    18f4:	193f002e 	ldmdbne	pc!, {r1, r2, r3, r5}	; <UNPREDICTABLE>
    18f8:	0e6e193c 	mcreq	9, 3, r1, cr14, cr12, {1}
    18fc:	0b3a0e03 	bleq	e85110 <__bss_end__+0xe78930>
    1900:	00000b3b 	andeq	r0, r0, fp, lsr fp
    1904:	01110100 	tsteq	r1, r0, lsl #2
    1908:	0b130e25 	bleq	4c51a4 <__bss_end__+0x4b89c4>
    190c:	0e1b0e03 	cdpeq	14, 1, cr0, cr11, cr3, {0}
    1910:	06120111 			; <UNDEFINED> instruction: 0x06120111
    1914:	00001710 	andeq	r1, r0, r0, lsl r7
    1918:	0b002402 	bleq	a928 <va_printk+0x294>
    191c:	030b3e0b 	movweq	r3, #48651	; 0xbe0b
    1920:	03000008 	movweq	r0, #8
    1924:	0b0b0024 	bleq	2c19bc <__bss_end__+0x2b51dc>
    1928:	0e030b3e 	vmoveq.16	d3[0], r0
    192c:	26040000 	strcs	r0, [r4], -r0
    1930:	00134900 	andseq	r4, r3, r0, lsl #18
    1934:	00160500 	andseq	r0, r6, r0, lsl #10
    1938:	0b3a0e03 	bleq	e8514c <__bss_end__+0xe7896c>
    193c:	13490b3b 	movtne	r0, #39739	; 0x9b3b
    1940:	16060000 	strne	r0, [r6], -r0
    1944:	3a0e0300 	bcc	38254c <__bss_end__+0x375d6c>
    1948:	49053b0b 	stmdbmi	r5, {r0, r1, r3, r8, r9, fp, ip, sp}
    194c:	07000013 	smladeq	r0, r3, r0, r0
    1950:	0b0b0117 	bleq	2c1db4 <__bss_end__+0x2b55d4>
    1954:	0b3b0b3a 	bleq	ec4644 <__bss_end__+0xeb7e64>
    1958:	00001301 	andeq	r1, r0, r1, lsl #6
    195c:	03000d08 	movweq	r0, #3336	; 0xd08
    1960:	3b0b3a0e 	blcc	2d01a0 <__bss_end__+0x2c39c0>
    1964:	0013490b 	andseq	r4, r3, fp, lsl #18
    1968:	01010900 	tsteq	r1, r0, lsl #18
    196c:	13011349 	movwne	r1, #4937	; 0x1349
    1970:	210a0000 	mrscs	r0, (UNDEF: 10)
    1974:	2f134900 	svccs	0x00134900
    1978:	0b00000b 	bleq	19ac <__code_start__-0x6654>
    197c:	0b0b0113 	bleq	2c1dd0 <__bss_end__+0x2b55f0>
    1980:	0b3b0b3a 	bleq	ec4670 <__bss_end__+0xeb7e90>
    1984:	00001301 	andeq	r1, r0, r1, lsl #6
    1988:	03000d0c 	movweq	r0, #3340	; 0xd0c
    198c:	3b0b3a0e 	blcc	2d01cc <__bss_end__+0x2c39ec>
    1990:	3813490b 	ldmdacc	r3, {r0, r1, r3, r8, fp, lr}
    1994:	0d00000b 	stceq	0, cr0, [r0, #-44]	; 0xffffffd4
    1998:	0b0b000f 	bleq	2c19dc <__bss_end__+0x2b51fc>
    199c:	0f0e0000 	svceq	0x000e0000
    19a0:	490b0b00 	stmdbmi	fp, {r8, r9, fp}
    19a4:	0f000013 	svceq	0x00000013
    19a8:	0e030113 	mcreq	1, 0, r0, cr3, cr3, {0}
    19ac:	0b3a0b0b 	bleq	e845e0 <__bss_end__+0xe77e00>
    19b0:	13010b3b 	movwne	r0, #6971	; 0x1b3b
    19b4:	0d100000 	ldceq	0, cr0, [r0, #-0]
    19b8:	3a080300 	bcc	2025c0 <__bss_end__+0x1f5de0>
    19bc:	490b3b0b 	stmdbmi	fp, {r0, r1, r3, r8, r9, fp, ip, sp}
    19c0:	000b3813 	andeq	r3, fp, r3, lsl r8
    19c4:	01131100 	tsteq	r3, r0, lsl #2
    19c8:	050b0e03 	streq	r0, [fp, #-3587]	; 0xe03
    19cc:	0b3b0b3a 	bleq	ec46bc <__bss_end__+0xeb7edc>
    19d0:	00001301 	andeq	r1, r0, r1, lsl #6
    19d4:	03000d12 	movweq	r0, #3346	; 0xd12
    19d8:	3b0b3a0e 	blcc	2d0218 <__bss_end__+0x2c3a38>
    19dc:	3813490b 	ldmdacc	r3, {r0, r1, r3, r8, fp, lr}
    19e0:	13000005 	movwne	r0, #5
    19e4:	19270015 	stmdbne	r7!, {r0, r2, r4}
    19e8:	15140000 	ldrne	r0, [r4, #-0]
    19ec:	49192701 	ldmdbmi	r9, {r0, r8, r9, sl, sp}
    19f0:	00130113 	andseq	r0, r3, r3, lsl r1
    19f4:	00051500 	andeq	r1, r5, r0, lsl #10
    19f8:	00001349 	andeq	r1, r0, r9, asr #6
    19fc:	03011316 	movweq	r1, #4886	; 0x1316
    1a00:	3a050b0e 	bcc	144640 <__bss_end__+0x137e60>
    1a04:	01053b0b 	tsteq	r5, fp, lsl #22
    1a08:	17000013 	smladne	r0, r3, r0, r0
    1a0c:	0e03000d 	cdpeq	0, 0, cr0, cr3, cr13, {0}
    1a10:	053b0b3a 	ldreq	r0, [fp, #-2874]!	; 0xb3a
    1a14:	0b381349 	bleq	e06740 <__bss_end__+0xdf9f60>
    1a18:	0d180000 	ldceq	0, cr0, [r8, #-0]
    1a1c:	3a0e0300 	bcc	382624 <__bss_end__+0x375e44>
    1a20:	49053b0b 	stmdbmi	r5, {r0, r1, r3, r8, r9, fp, ip, sp}
    1a24:	00053813 	andeq	r3, r5, r3, lsl r8
    1a28:	01131900 	tsteq	r3, r0, lsl #18
    1a2c:	0b0b0e03 	bleq	2c5240 <__bss_end__+0x2b8a60>
    1a30:	053b0b3a 	ldreq	r0, [fp, #-2874]!	; 0xb3a
    1a34:	00001301 	andeq	r1, r0, r1, lsl #6
    1a38:	0b01131a 	bleq	466a8 <__bss_end__+0x39ec8>
    1a3c:	3b0b3a0b 	blcc	2d0270 <__bss_end__+0x2c3a90>
    1a40:	00130105 	andseq	r0, r3, r5, lsl #2
    1a44:	01171b00 	tsteq	r7, r0, lsl #22
    1a48:	0b3a0b0b 	bleq	e8467c <__bss_end__+0xe77e9c>
    1a4c:	1301053b 	movwne	r0, #5435	; 0x153b
    1a50:	0d1c0000 	ldceq	0, cr0, [ip, #-0]
    1a54:	3a0e0300 	bcc	38265c <__bss_end__+0x375e7c>
    1a58:	49053b0b 	stmdbmi	r5, {r0, r1, r3, r8, r9, fp, ip, sp}
    1a5c:	1d000013 	stcne	0, cr0, [r0, #-76]	; 0xffffffb4
    1a60:	19270115 	stmdbne	r7!, {r0, r2, r4, r8}
    1a64:	00001301 	andeq	r1, r0, r1, lsl #6
    1a68:	0300341e 	movweq	r3, #1054	; 0x41e
    1a6c:	3b0b3a0e 	blcc	2d02ac <__bss_end__+0x2c3acc>
    1a70:	3f134905 	svccc	0x00134905
    1a74:	00193c19 	andseq	r3, r9, r9, lsl ip
    1a78:	00341f00 	eorseq	r1, r4, r0, lsl #30
    1a7c:	0b3a0e03 	bleq	e85290 <__bss_end__+0xe78ab0>
    1a80:	13490b3b 	movtne	r0, #39739	; 0x9b3b
    1a84:	193c193f 	ldmdbne	ip!, {r0, r1, r2, r3, r4, r5, r8, fp, ip}
    1a88:	04200000 	strteq	r0, [r0], #-0
    1a8c:	490b0b01 	stmdbmi	fp, {r0, r8, r9, fp}
    1a90:	3b0b3a13 	blcc	2d02e4 <__bss_end__+0x2c3b04>
    1a94:	0013010b 	andseq	r0, r3, fp, lsl #2
    1a98:	00282100 	eoreq	r2, r8, r0, lsl #2
    1a9c:	0b1c0e03 	bleq	7052b0 <__bss_end__+0x6f8ad0>
    1aa0:	34220000 	strtcc	r0, [r2], #-0
    1aa4:	3a0e0300 	bcc	3826ac <__bss_end__+0x375ecc>
    1aa8:	490b3b0b 	stmdbmi	fp, {r0, r1, r3, r8, r9, fp, ip, sp}
    1aac:	00061c13 	andeq	r1, r6, r3, lsl ip
    1ab0:	012e2300 	teqeq	lr, r0, lsl #6
    1ab4:	0e03193f 	mcreq	9, 0, r1, cr3, cr15, {1}
    1ab8:	0b3b0b3a 	bleq	ec47a8 <__bss_end__+0xeb7fc8>
    1abc:	13491927 	movtne	r1, #39207	; 0x9927
    1ac0:	06120111 			; <UNDEFINED> instruction: 0x06120111
    1ac4:	42971840 	addsmi	r1, r7, #64, 16	; 0x400000
    1ac8:	00130119 	andseq	r0, r3, r9, lsl r1
    1acc:	00052400 	andeq	r2, r5, r0, lsl #8
    1ad0:	0b3a0803 	bleq	e83ae4 <__bss_end__+0xe77304>
    1ad4:	13490b3b 	movtne	r0, #39739	; 0x9b3b
    1ad8:	00001702 	andeq	r1, r0, r2, lsl #14
    1adc:	03003425 	movweq	r3, #1061	; 0x425
    1ae0:	3b0b3a0e 	blcc	2d0320 <__bss_end__+0x2c3b40>
    1ae4:	0213490b 	andseq	r4, r3, #180224	; 0x2c000
    1ae8:	26000017 			; <UNDEFINED> instruction: 0x26000017
    1aec:	08030034 	stmdaeq	r3, {r2, r4, r5}
    1af0:	0b3b0b3a 	bleq	ec47e0 <__bss_end__+0xeb8000>
    1af4:	17021349 	strne	r1, [r2, -r9, asr #6]
    1af8:	89270000 	stmdbhi	r7!, {}	; <UNPREDICTABLE>
    1afc:	11010182 	smlabbne	r1, r2, r1, r0
    1b00:	00133101 	andseq	r3, r3, r1, lsl #2
    1b04:	828a2800 	addhi	r2, sl, #0, 16
    1b08:	18020001 	stmdane	r2, {r0}
    1b0c:	00184291 	mulseq	r8, r1, r2
    1b10:	012e2900 	teqeq	lr, r0, lsl #18
    1b14:	0e03193f 	mcreq	9, 0, r1, cr3, cr15, {1}
    1b18:	0b3b0b3a 	bleq	ec4808 <__bss_end__+0xeb8028>
    1b1c:	01111927 	tsteq	r1, r7, lsr #18
    1b20:	18400612 	stmdane	r0, {r1, r4, r9, sl}^
    1b24:	01194297 			; <UNDEFINED> instruction: 0x01194297
    1b28:	2a000013 	bcs	1b7c <__code_start__-0x6484>
    1b2c:	01018289 	smlabbeq	r1, r9, r2, r8
    1b30:	13310111 	teqne	r1, #1073741828	; 0x40000004
    1b34:	00001301 	andeq	r1, r0, r1, lsl #6
    1b38:	0182892b 	orreq	r8, r2, fp, lsr #18
    1b3c:	31011100 	mrscc	r1, (UNDEF: 17)
    1b40:	2c000013 	stccs	0, cr0, [r0], {19}
    1b44:	0e030005 	cdpeq	0, 0, cr0, cr3, cr5, {0}
    1b48:	0b3b0b3a 	bleq	ec4838 <__bss_end__+0xeb8058>
    1b4c:	17021349 	strne	r1, [r2, -r9, asr #6]
    1b50:	342d0000 	strtcc	r0, [sp], #-0
    1b54:	3a080300 	bcc	20275c <__bss_end__+0x1f5f7c>
    1b58:	490b3b0b 	stmdbmi	fp, {r0, r1, r3, r8, r9, fp, ip, sp}
    1b5c:	00180213 	andseq	r0, r8, r3, lsl r2
    1b60:	002e2e00 	eoreq	r2, lr, r0, lsl #28
    1b64:	193c193f 	ldmdbne	ip!, {r0, r1, r2, r3, r4, r5, r8, fp, ip}
    1b68:	0e030e6e 	cdpeq	14, 0, cr0, cr3, cr14, {3}
    1b6c:	0b3b0b3a 	bleq	ec485c <__bss_end__+0xeb807c>
    1b70:	01000000 	mrseq	r0, (UNDEF: 0)
    1b74:	0e250111 	mcreq	1, 1, r0, cr5, cr1, {0}
    1b78:	0e030b13 	vmoveq.32	d3[0], r0
    1b7c:	01110e1b 	tsteq	r1, fp, lsl lr
    1b80:	17100612 			; <UNDEFINED> instruction: 0x17100612
    1b84:	24020000 	strcs	r0, [r2], #-0
    1b88:	3e0b0b00 	vmlacc.f64	d0, d11, d0
    1b8c:	0008030b 	andeq	r0, r8, fp, lsl #6
    1b90:	00240300 	eoreq	r0, r4, r0, lsl #6
    1b94:	0b3e0b0b 	bleq	f847c8 <__bss_end__+0xf77fe8>
    1b98:	00000e03 	andeq	r0, r0, r3, lsl #28
    1b9c:	03001604 	movweq	r1, #1540	; 0x604
    1ba0:	3b0b3a0e 	blcc	2d03e0 <__bss_end__+0x2c3c00>
    1ba4:	0013490b 	andseq	r4, r3, fp, lsl #18
    1ba8:	00160500 	andseq	r0, r6, r0, lsl #10
    1bac:	0b3a0e03 	bleq	e853c0 <__bss_end__+0xe78be0>
    1bb0:	1349053b 	movtne	r0, #38203	; 0x953b
    1bb4:	17060000 	strne	r0, [r6, -r0]
    1bb8:	3a0b0b01 	bcc	2c47c4 <__bss_end__+0x2b7fe4>
    1bbc:	010b3b0b 	tsteq	fp, fp, lsl #22
    1bc0:	07000013 	smladeq	r0, r3, r0, r0
    1bc4:	0e03000d 	cdpeq	0, 0, cr0, cr3, cr13, {0}
    1bc8:	0b3b0b3a 	bleq	ec48b8 <__bss_end__+0xeb80d8>
    1bcc:	00001349 	andeq	r1, r0, r9, asr #6
    1bd0:	49010108 	stmdbmi	r1, {r3, r8}
    1bd4:	00130113 	andseq	r0, r3, r3, lsl r1
    1bd8:	00210900 	eoreq	r0, r1, r0, lsl #18
    1bdc:	0b2f1349 	bleq	bc6908 <__bss_end__+0xbba128>
    1be0:	130a0000 	movwne	r0, #40960	; 0xa000
    1be4:	3a0b0b01 	bcc	2c47f0 <__bss_end__+0x2b8010>
    1be8:	010b3b0b 	tsteq	fp, fp, lsl #22
    1bec:	0b000013 	bleq	1c40 <__code_start__-0x63c0>
    1bf0:	0e03000d 	cdpeq	0, 0, cr0, cr3, cr13, {0}
    1bf4:	0b3b0b3a 	bleq	ec48e4 <__bss_end__+0xeb8104>
    1bf8:	0b381349 	bleq	e06924 <__bss_end__+0xdfa144>
    1bfc:	0f0c0000 	svceq	0x000c0000
    1c00:	000b0b00 	andeq	r0, fp, r0, lsl #22
    1c04:	000f0d00 	andeq	r0, pc, r0, lsl #26
    1c08:	13490b0b 	movtne	r0, #39691	; 0x9b0b
    1c0c:	260e0000 	strcs	r0, [lr], -r0
    1c10:	00134900 	andseq	r4, r3, r0, lsl #18
    1c14:	01130f00 	tsteq	r3, r0, lsl #30
    1c18:	0b0b0e03 	bleq	2c542c <__bss_end__+0x2b8c4c>
    1c1c:	0b3b0b3a 	bleq	ec490c <__bss_end__+0xeb812c>
    1c20:	00001301 	andeq	r1, r0, r1, lsl #6
    1c24:	03000d10 	movweq	r0, #3344	; 0xd10
    1c28:	3b0b3a08 	blcc	2d0450 <__bss_end__+0x2c3c70>
    1c2c:	3813490b 	ldmdacc	r3, {r0, r1, r3, r8, fp, lr}
    1c30:	1100000b 	tstne	r0, fp
    1c34:	0e030113 	mcreq	1, 0, r0, cr3, cr3, {0}
    1c38:	0b3a050b 	bleq	e8306c <__bss_end__+0xe7688c>
    1c3c:	13010b3b 	movwne	r0, #6971	; 0x1b3b
    1c40:	0d120000 	ldceq	0, cr0, [r2, #-0]
    1c44:	3a0e0300 	bcc	38284c <__bss_end__+0x37606c>
    1c48:	490b3b0b 	stmdbmi	fp, {r0, r1, r3, r8, r9, fp, ip, sp}
    1c4c:	00053813 	andeq	r3, r5, r3, lsl r8
    1c50:	00151300 	andseq	r1, r5, r0, lsl #6
    1c54:	00001927 	andeq	r1, r0, r7, lsr #18
    1c58:	27011514 	smladcs	r1, r4, r5, r1
    1c5c:	01134919 	tsteq	r3, r9, lsl r9
    1c60:	15000013 	strne	r0, [r0, #-19]
    1c64:	13490005 	movtne	r0, #36869	; 0x9005
    1c68:	13160000 	tstne	r6, #0
    1c6c:	0b0e0301 	bleq	382878 <__bss_end__+0x376098>
    1c70:	3b0b3a05 	blcc	2d048c <__bss_end__+0x2c3cac>
    1c74:	00130105 	andseq	r0, r3, r5, lsl #2
    1c78:	000d1700 	andeq	r1, sp, r0, lsl #14
    1c7c:	0b3a0e03 	bleq	e85490 <__bss_end__+0xe78cb0>
    1c80:	1349053b 	movtne	r0, #38203	; 0x953b
    1c84:	00000b38 	andeq	r0, r0, r8, lsr fp
    1c88:	03000d18 	movweq	r0, #3352	; 0xd18
    1c8c:	3b0b3a0e 	blcc	2d04cc <__bss_end__+0x2c3cec>
    1c90:	38134905 	ldmdacc	r3, {r0, r2, r8, fp, lr}
    1c94:	19000005 	stmdbne	r0, {r0, r2}
    1c98:	0e030113 	mcreq	1, 0, r0, cr3, cr3, {0}
    1c9c:	0b3a0b0b 	bleq	e848d0 <__bss_end__+0xe780f0>
    1ca0:	1301053b 	movwne	r0, #5435	; 0x153b
    1ca4:	131a0000 	tstne	sl, #0
    1ca8:	3a0b0b01 	bcc	2c48b4 <__bss_end__+0x2b80d4>
    1cac:	01053b0b 	tsteq	r5, fp, lsl #22
    1cb0:	1b000013 	blne	1d04 <__code_start__-0x62fc>
    1cb4:	0b0b0117 	bleq	2c2118 <__bss_end__+0x2b5938>
    1cb8:	053b0b3a 	ldreq	r0, [fp, #-2874]!	; 0xb3a
    1cbc:	00001301 	andeq	r1, r0, r1, lsl #6
    1cc0:	03000d1c 	movweq	r0, #3356	; 0xd1c
    1cc4:	3b0b3a0e 	blcc	2d0504 <__bss_end__+0x2c3d24>
    1cc8:	00134905 	andseq	r4, r3, r5, lsl #18
    1ccc:	01151d00 	tsteq	r5, r0, lsl #26
    1cd0:	13011927 	movwne	r1, #6439	; 0x1927
    1cd4:	341e0000 	ldrcc	r0, [lr], #-0
    1cd8:	3a0e0300 	bcc	3828e0 <__bss_end__+0x376100>
    1cdc:	49053b0b 	stmdbmi	r5, {r0, r1, r3, r8, r9, fp, ip, sp}
    1ce0:	3c193f13 	ldccc	15, cr3, [r9], {19}
    1ce4:	1f000019 	svcne	0x00000019
    1ce8:	0e030034 	mcreq	0, 0, r0, cr3, cr4, {1}
    1cec:	0b3b0b3a 	bleq	ec49dc <__bss_end__+0xeb81fc>
    1cf0:	193f1349 	ldmdbne	pc!, {r0, r3, r6, r8, r9, ip}	; <UNPREDICTABLE>
    1cf4:	0000193c 	andeq	r1, r0, ip, lsr r9
    1cf8:	03003420 	movweq	r3, #1056	; 0x420
    1cfc:	3b0b3a0e 	blcc	2d053c <__bss_end__+0x2c3d5c>
    1d00:	0213490b 	andseq	r4, r3, #180224	; 0x2c000
    1d04:	21000018 	tstcs	r0, r8, lsl r0
    1d08:	193f012e 	ldmdbne	pc!, {r1, r2, r3, r5, r8}	; <UNPREDICTABLE>
    1d0c:	0b3a0e03 	bleq	e85520 <__bss_end__+0xe78d40>
    1d10:	19270b3b 	stmdbne	r7!, {r0, r1, r3, r4, r5, r8, r9, fp}
    1d14:	06120111 			; <UNDEFINED> instruction: 0x06120111
    1d18:	42971840 	addsmi	r1, r7, #64, 16	; 0x400000
    1d1c:	00130119 	andseq	r0, r3, r9, lsl r1
    1d20:	00052200 	andeq	r2, r5, r0, lsl #4
    1d24:	0b3a0803 	bleq	e83d38 <__bss_end__+0xe77558>
    1d28:	13490b3b 	movtne	r0, #39739	; 0x9b3b
    1d2c:	00001802 	andeq	r1, r0, r2, lsl #16
    1d30:	3f002e23 	svccc	0x00002e23
    1d34:	3a0e0319 	bcc	3829a0 <__bss_end__+0x3761c0>
    1d38:	270b3b0b 	strcs	r3, [fp, -fp, lsl #22]
    1d3c:	12011119 	andne	r1, r1, #1073741830	; 0x40000006
    1d40:	97184006 	ldrls	r4, [r8, -r6]
    1d44:	00001942 	andeq	r1, r0, r2, asr #18
    1d48:	3f012e24 	svccc	0x00012e24
    1d4c:	3a0e0319 	bcc	3829b8 <__bss_end__+0x3761d8>
    1d50:	270b3b0b 	strcs	r3, [fp, -fp, lsl #22]
    1d54:	11134919 	tstne	r3, r9, lsl r9
    1d58:	40061201 	andmi	r1, r6, r1, lsl #4
    1d5c:	19429718 	stmdbne	r2, {r3, r4, r8, r9, sl, ip, pc}^
    1d60:	00001301 	andeq	r1, r0, r1, lsl #6
    1d64:	03000525 	movweq	r0, #1317	; 0x525
    1d68:	3b0b3a0e 	blcc	2d05a8 <__bss_end__+0x2c3dc8>
    1d6c:	0213490b 	andseq	r4, r3, #180224	; 0x2c000
    1d70:	26000017 			; <UNDEFINED> instruction: 0x26000017
    1d74:	0e030034 	mcreq	0, 0, r0, cr3, cr4, {1}
    1d78:	19341349 	ldmdbne	r4!, {r0, r3, r6, r8, r9, ip}
    1d7c:	00001802 	andeq	r1, r0, r2, lsl #16
    1d80:	03003427 	movweq	r3, #1063	; 0x427
    1d84:	3b0b3a08 	blcc	2d05ac <__bss_end__+0x2c3dcc>
    1d88:	0213490b 	andseq	r4, r3, #180224	; 0x2c000
    1d8c:	28000017 	stmdacs	r0, {r0, r1, r2, r4}
    1d90:	01018289 	smlabbeq	r1, r9, r2, r8
    1d94:	13310111 	teqne	r1, #1073741828	; 0x40000004
    1d98:	00001301 	andeq	r1, r0, r1, lsl #6
    1d9c:	01828a29 	orreq	r8, r2, r9, lsr #20
    1da0:	91180200 	tstls	r8, r0, lsl #4
    1da4:	00001842 	andeq	r1, r0, r2, asr #16
    1da8:	0182892a 	orreq	r8, r2, sl, lsr #18
    1dac:	31011100 	mrscc	r1, (UNDEF: 17)
    1db0:	2b000013 	blcs	1e04 <__code_start__-0x61fc>
    1db4:	08030005 	stmdaeq	r3, {r0, r2}
    1db8:	0b3b0b3a 	bleq	ec4aa8 <__bss_end__+0xeb82c8>
    1dbc:	17021349 	strne	r1, [r2, -r9, asr #6]
    1dc0:	342c0000 	strtcc	r0, [ip], #-0
    1dc4:	3a0e0300 	bcc	3829cc <__bss_end__+0x3761ec>
    1dc8:	490b3b0b 	stmdbmi	fp, {r0, r1, r3, r8, r9, fp, ip, sp}
    1dcc:	00170213 	andseq	r0, r7, r3, lsl r2
    1dd0:	002e2d00 	eoreq	r2, lr, r0, lsl #26
    1dd4:	0e03193f 	mcreq	9, 0, r1, cr3, cr15, {1}
    1dd8:	0b3b0b3a 	bleq	ec4ac8 <__bss_end__+0xeb82e8>
    1ddc:	13491927 	movtne	r1, #39207	; 0x9927
    1de0:	06120111 			; <UNDEFINED> instruction: 0x06120111
    1de4:	42971840 	addsmi	r1, r7, #64, 16	; 0x400000
    1de8:	2e000019 	mcrcs	0, 0, r0, cr0, cr9, {0}
    1dec:	193f002e 	ldmdbne	pc!, {r1, r2, r3, r5}	; <UNPREDICTABLE>
    1df0:	0e6e193c 	mcreq	9, 3, r1, cr14, cr12, {1}
    1df4:	0b3a0e03 	bleq	e85608 <__bss_end__+0xe78e28>
    1df8:	00000b3b 	andeq	r0, r0, fp, lsr fp
	...

Disassembly of section .debug_loc:

00000000 <.debug_loc>:
       0:	0000004c 	andeq	r0, r0, ip, asr #32
       4:	0000005b 	andeq	r0, r0, fp, asr r0
       8:	7c500001 	mrrcvc	0, 0, r0, r0, cr1	; <UNPREDICTABLE>
       c:	7f000000 	svcvc	0x00000000
      10:	01000000 	mrseq	r0, (UNDEF: 0)
      14:	00005000 	andeq	r5, r0, r0
      18:	00000000 	andeq	r0, r0, r0
      1c:	00100000 	andseq	r0, r0, r0
      20:	00230000 	eoreq	r0, r3, r0
      24:	00010000 	andeq	r0, r1, r0
      28:	00002350 	andeq	r2, r0, r0, asr r3
      2c:	00004400 	andeq	r4, r0, r0, lsl #8
      30:	f3000400 	vshl.u8	d0, d0, d0
      34:	449f5001 	ldrmi	r5, [pc], #1	; 3c <__code_start__-0x7fc4>
      38:	5b000000 	blpl	40 <__code_start__-0x7fc0>
      3c:	01000000 	mrseq	r0, (UNDEF: 0)
      40:	005b5000 	subseq	r5, fp, r0
      44:	007c0000 	rsbseq	r0, ip, r0
      48:	00040000 	andeq	r0, r4, r0
      4c:	9f5001f3 	svcls	0x005001f3
      50:	0000007c 	andeq	r0, r0, ip, ror r0
      54:	00000080 	andeq	r0, r0, r0, lsl #1
      58:	80500001 	subshi	r0, r0, r1
      5c:	a0000000 	andge	r0, r0, r0
      60:	04000000 	streq	r0, [r0], #-0
      64:	5001f300 	andpl	pc, r1, r0, lsl #6
      68:	0000009f 	muleq	r0, pc, r0	; <UNPREDICTABLE>
      6c:	00000000 	andeq	r0, r0, r0
      70:	00001000 	andeq	r1, r0, r0
      74:	00002300 	andeq	r2, r0, r0, lsl #6
      78:	51000100 	mrspl	r0, (UNDEF: 16)
      7c:	00000023 	andeq	r0, r0, r3, lsr #32
      80:	00000044 	andeq	r0, r0, r4, asr #32
      84:	01f30004 	mvnseq	r0, r4
      88:	00449f51 	subeq	r9, r4, r1, asr pc
      8c:	00480000 	subeq	r0, r8, r0
      90:	00010000 	andeq	r0, r1, r0
      94:	00004851 	andeq	r4, r0, r1, asr r8
      98:	0000a000 	andeq	sl, r0, r0
      9c:	f3000400 	vshl.u8	d0, d0, d0
      a0:	009f5101 	addseq	r5, pc, r1, lsl #2
      a4:	00000000 	andeq	r0, r0, r0
      a8:	48000000 	stmdami	r0, {}	; <UNPREDICTABLE>
      ac:	5b000000 	blpl	b4 <__code_start__-0x7f4c>
      b0:	01000000 	mrseq	r0, (UNDEF: 0)
      b4:	005b5100 	subseq	r5, fp, r0, lsl #2
      b8:	007c0000 	rsbseq	r0, ip, r0
      bc:	00060000 	andeq	r0, r6, r0
      c0:	445101f3 	ldrbmi	r0, [r1], #-499	; 0x1f3
      c4:	007c9f25 	rsbseq	r9, ip, r5, lsr #30
      c8:	00a00000 	adceq	r0, r0, r0
      cc:	00010000 	andeq	r0, r1, r0
      d0:	00000051 	andeq	r0, r0, r1, asr r0
      d4:	00000000 	andeq	r0, r0, r0
      d8:	00004c00 	andeq	r4, r0, r0, lsl #24
      dc:	00005b00 	andeq	r5, r0, r0, lsl #22
      e0:	53000100 	movwpl	r0, #256	; 0x100
      e4:	0000005b 	andeq	r0, r0, fp, asr r0
      e8:	0000007c 	andeq	r0, r0, ip, ror r0
      ec:	01f3000c 	mvnseq	r0, ip
      f0:	32254451 	eorcc	r4, r5, #1358954496	; 0x51000000
      f4:	5001f324 	andpl	pc, r1, r4, lsr #6
      f8:	007c9f22 	rsbseq	r9, ip, r2, lsr #30
      fc:	00a00000 	adceq	r0, r0, r0
     100:	00010000 	andeq	r0, r1, r0
     104:	00000053 	andeq	r0, r0, r3, asr r0
     108:	00000000 	andeq	r0, r0, r0
     10c:	0000a000 	andeq	sl, r0, r0
     110:	0000c300 	andeq	ip, r0, r0, lsl #6
     114:	50000100 	andpl	r0, r0, r0, lsl #2
     118:	000000c3 	andeq	r0, r0, r3, asr #1
     11c:	00000108 	andeq	r0, r0, r8, lsl #2
     120:	08580001 	ldmdaeq	r8, {r0}^
     124:	14000001 	strne	r0, [r0], #-1
     128:	01000001 	tsteq	r0, r1
     12c:	01145000 	tsteq	r4, r0
     130:	01280000 	teqeq	r8, r0
     134:	00010000 	andeq	r0, r1, r0
     138:	00012858 	andeq	r2, r1, r8, asr r8
     13c:	00013800 	andeq	r3, r1, r0, lsl #16
     140:	f3000400 	vshl.u8	d0, d0, d0
     144:	009f5001 	addseq	r5, pc, r1
     148:	00000000 	andeq	r0, r0, r0
     14c:	a0000000 	andge	r0, r0, r0
     150:	b4000000 	strlt	r0, [r0], #-0
     154:	01000000 	mrseq	r0, (UNDEF: 0)
     158:	00b45100 	adcseq	r5, r4, r0, lsl #2
     15c:	00b80000 	adcseq	r0, r8, r0
     160:	00040000 	andeq	r0, r4, r0
     164:	9f5101f3 	svcls	0x005101f3
	...
     170:	000000a0 	andeq	r0, r0, r0, lsr #1
     174:	000000c3 	andeq	r0, r0, r3, asr #1
     178:	c3520001 	cmpgt	r2, #1
     17c:	08000000 	stmdaeq	r0, {}	; <UNPREDICTABLE>
     180:	01000001 	tsteq	r0, r1
     184:	01085500 	tsteq	r8, r0, lsl #10
     188:	01140000 	tsteq	r4, r0
     18c:	00010000 	andeq	r0, r1, r0
     190:	00011452 	andeq	r1, r1, r2, asr r4
     194:	00012800 	andeq	r2, r1, r0, lsl #16
     198:	55000100 	strpl	r0, [r0, #-256]	; 0x100
     19c:	00000128 	andeq	r0, r0, r8, lsr #2
     1a0:	00000138 	andeq	r0, r0, r8, lsr r1
     1a4:	01f30004 	mvnseq	r0, r4
     1a8:	00009f52 	andeq	r9, r0, r2, asr pc
     1ac:	00000000 	andeq	r0, r0, r0
     1b0:	00a00000 	adceq	r0, r0, r0
     1b4:	00c30000 	sbceq	r0, r3, r0
     1b8:	00010000 	andeq	r0, r1, r0
     1bc:	0000c353 	andeq	ip, r0, r3, asr r3
     1c0:	00010800 	andeq	r0, r1, r0, lsl #16
     1c4:	f3000400 	vshl.u8	d0, d0, d0
     1c8:	089f5301 	ldmeq	pc, {r0, r8, r9, ip, lr}	; <UNPREDICTABLE>
     1cc:	14000001 	strne	r0, [r0], #-1
     1d0:	01000001 	tsteq	r0, r1
     1d4:	01145300 	tsteq	r4, r0, lsl #6
     1d8:	01380000 	teqeq	r8, r0
     1dc:	00040000 	andeq	r0, r4, r0
     1e0:	9f5301f3 	svcls	0x005301f3
	...
     1ec:	000000b0 	strheq	r0, [r0], -r0	; <UNPREDICTABLE>
     1f0:	000000b4 	strheq	r0, [r0], -r4
     1f4:	b4510001 	ldrblt	r0, [r1], #-1
     1f8:	38000000 	stmdacc	r0, {}	; <UNPREDICTABLE>
     1fc:	04000001 	streq	r0, [r0], #-1
     200:	5101f300 	mrspl	pc, SP_irq	; <UNPREDICTABLE>
     204:	0000009f 	muleq	r0, pc, r0	; <UNPREDICTABLE>
     208:	00000000 	andeq	r0, r0, r0
     20c:	0000e400 	andeq	lr, r0, r0, lsl #8
     210:	00010800 	andeq	r0, r1, r0, lsl #16
     214:	54000100 	strpl	r0, [r0], #-256	; 0x100
     218:	00000114 	andeq	r0, r0, r4, lsl r1
     21c:	00000128 	andeq	r0, r0, r8, lsr #2
     220:	00540001 	subseq	r0, r4, r1
     224:	00000000 	andeq	r0, r0, r0
     228:	f0000000 			; <UNDEFINED> instruction: 0xf0000000
     22c:	08000000 	stmdaeq	r0, {}	; <UNPREDICTABLE>
     230:	01000001 	tsteq	r0, r1
     234:	00005000 	andeq	r5, r0, r0
     238:	00000000 	andeq	r0, r0, r0
     23c:	01380000 	teqeq	r8, r0
     240:	01430000 	mrseq	r0, (UNDEF: 67)
     244:	00010000 	andeq	r0, r1, r0
     248:	00014350 	andeq	r4, r1, r0, asr r3
     24c:	00014800 	andeq	r4, r1, r0, lsl #16
     250:	f3000400 	vshl.u8	d0, d0, d0
     254:	009f5001 	addseq	r5, pc, r1
     258:	00000000 	andeq	r0, r0, r0
     25c:	38000000 	stmdacc	r0, {}	; <UNPREDICTABLE>
     260:	43000001 	movwmi	r0, #1
     264:	01000001 	tsteq	r0, r1
     268:	01435100 	mrseq	r5, (UNDEF: 83)
     26c:	01480000 	mrseq	r0, (UNDEF: 72)
     270:	00040000 	andeq	r0, r4, r0
     274:	9f5101f3 	svcls	0x005101f3
	...
     280:	00000138 	andeq	r0, r0, r8, lsr r1
     284:	00000143 	andeq	r0, r0, r3, asr #2
     288:	43520001 	cmpmi	r2, #1
     28c:	48000001 	stmdami	r0, {r0}
     290:	04000001 	streq	r0, [r0], #-1
     294:	5201f300 	andpl	pc, r1, #0, 6
     298:	0000009f 	muleq	r0, pc, r0	; <UNPREDICTABLE>
     29c:	00000000 	andeq	r0, r0, r0
     2a0:	00014800 	andeq	r4, r1, r0, lsl #16
     2a4:	00015300 	andeq	r5, r1, r0, lsl #6
     2a8:	50000100 	andpl	r0, r0, r0, lsl #2
     2ac:	00000153 	andeq	r0, r0, r3, asr r1
     2b0:	00000158 	andeq	r0, r0, r8, asr r1
     2b4:	01f30004 	mvnseq	r0, r4
     2b8:	00009f50 	andeq	r9, r0, r0, asr pc
     2bc:	00000000 	andeq	r0, r0, r0
     2c0:	01480000 	mrseq	r0, (UNDEF: 72)
     2c4:	01530000 	cmpeq	r3, r0
     2c8:	00010000 	andeq	r0, r1, r0
     2cc:	00015351 	andeq	r5, r1, r1, asr r3
     2d0:	00015800 	andeq	r5, r1, r0, lsl #16
     2d4:	f3000400 	vshl.u8	d0, d0, d0
     2d8:	009f5101 	addseq	r5, pc, r1, lsl #2
     2dc:	00000000 	andeq	r0, r0, r0
     2e0:	48000000 	stmdami	r0, {}	; <UNPREDICTABLE>
     2e4:	53000001 	movwpl	r0, #1
     2e8:	01000001 	tsteq	r0, r1
     2ec:	01535200 	cmpeq	r3, r0, lsl #4
     2f0:	01580000 	cmpeq	r8, r0
     2f4:	00040000 	andeq	r0, r4, r0
     2f8:	9f5201f3 	svcls	0x005201f3
	...
     304:	00000158 	andeq	r0, r0, r8, asr r1
     308:	00000163 	andeq	r0, r0, r3, ror #2
     30c:	63500001 	cmpvs	r0, #1
     310:	68000001 	stmdavs	r0, {r0}
     314:	04000001 	streq	r0, [r0], #-1
     318:	5001f300 	andpl	pc, r1, r0, lsl #6
     31c:	0000009f 	muleq	r0, pc, r0	; <UNPREDICTABLE>
     320:	00000000 	andeq	r0, r0, r0
     324:	00015800 	andeq	r5, r1, r0, lsl #16
     328:	00016300 	andeq	r6, r1, r0, lsl #6
     32c:	51000100 	mrspl	r0, (UNDEF: 16)
     330:	00000163 	andeq	r0, r0, r3, ror #2
     334:	00000168 	andeq	r0, r0, r8, ror #2
     338:	01f30004 	mvnseq	r0, r4
     33c:	00009f51 	andeq	r9, r0, r1, asr pc
     340:	00000000 	andeq	r0, r0, r0
     344:	01580000 	cmpeq	r8, r0
     348:	01630000 	cmneq	r3, r0
     34c:	00010000 	andeq	r0, r1, r0
     350:	00016352 	andeq	r6, r1, r2, asr r3
     354:	00016800 	andeq	r6, r1, r0, lsl #16
     358:	f3000400 	vshl.u8	d0, d0, d0
     35c:	009f5201 	addseq	r5, pc, r1, lsl #4
     360:	00000000 	andeq	r0, r0, r0
     364:	68000000 	stmdavs	r0, {}	; <UNPREDICTABLE>
     368:	7b000001 	blvc	374 <__code_start__-0x7c8c>
     36c:	01000001 	tsteq	r0, r1
     370:	017b5000 	cmneq	fp, r0
     374:	019c0000 	orrseq	r0, ip, r0
     378:	00040000 	andeq	r0, r4, r0
     37c:	9f5001f3 	svcls	0x005001f3
     380:	0000019c 	muleq	r0, ip, r1
     384:	000001bf 			; <UNDEFINED> instruction: 0x000001bf
     388:	bf500001 	svclt	0x00500001
     38c:	e0000001 	and	r0, r0, r1
     390:	04000001 	streq	r0, [r0], #-1
     394:	5001f300 	andpl	pc, r1, r0, lsl #6
     398:	0001e09f 	muleq	r1, pc, r0	; <UNPREDICTABLE>
     39c:	00020000 	andeq	r0, r2, r0
     3a0:	50000100 	andpl	r0, r0, r0, lsl #2
	...
     3ac:	00000168 	andeq	r0, r0, r8, ror #2
     3b0:	0000017b 	andeq	r0, r0, fp, ror r1
     3b4:	7b510001 	blvc	14403c0 <__bss_end__+0x1433be0>
     3b8:	9c000001 	stcls	0, cr0, [r0], {1}
     3bc:	04000001 	streq	r0, [r0], #-1
     3c0:	5101f300 	mrspl	pc, SP_irq	; <UNPREDICTABLE>
     3c4:	00019c9f 	muleq	r1, pc, ip	; <UNPREDICTABLE>
     3c8:	0001bf00 	andeq	fp, r1, r0, lsl #30
     3cc:	51000100 	mrspl	r0, (UNDEF: 16)
     3d0:	000001bf 			; <UNDEFINED> instruction: 0x000001bf
     3d4:	000001e0 	andeq	r0, r0, r0, ror #3
     3d8:	01f30004 	mvnseq	r0, r4
     3dc:	01e09f51 	mvneq	r9, r1, asr pc
     3e0:	02000000 	andeq	r0, r0, #0
     3e4:	00010000 	andeq	r0, r1, r0
     3e8:	00000051 	andeq	r0, r0, r1, asr r0
     3ec:	00000000 	andeq	r0, r0, r0
     3f0:	00020000 	andeq	r0, r2, r0
     3f4:	00021f00 	andeq	r1, r2, r0, lsl #30
     3f8:	50000100 	andpl	r0, r0, r0, lsl #2
     3fc:	0000021f 	andeq	r0, r0, pc, lsl r2
     400:	00000240 	andeq	r0, r0, r0, asr #4
     404:	40540001 	subsmi	r0, r4, r1
     408:	4b000002 	blmi	418 <__code_start__-0x7be8>
     40c:	01000002 	tsteq	r0, r2
     410:	024b5000 	subeq	r5, fp, #0
     414:	026c0000 	rsbeq	r0, ip, #0
     418:	00010000 	andeq	r0, r1, r0
     41c:	00026c54 	andeq	r6, r2, r4, asr ip
     420:	00027700 	andeq	r7, r2, r0, lsl #14
     424:	50000100 	andpl	r0, r0, r0, lsl #2
     428:	00000277 	andeq	r0, r0, r7, ror r2
     42c:	00000298 	muleq	r0, r8, r2
     430:	98540001 	ldmdals	r4, {r0}^
     434:	b3000002 	movwlt	r0, #2
     438:	01000002 	tsteq	r0, r2
     43c:	02b35000 	adcseq	r5, r3, #0
     440:	02d40000 	sbcseq	r0, r4, #0
     444:	00010000 	andeq	r0, r1, r0
     448:	0002d454 	andeq	sp, r2, r4, asr r4
     44c:	0002d700 	andeq	sp, r2, r0, lsl #14
     450:	50000100 	andpl	r0, r0, r0, lsl #2
     454:	000002d7 	ldrdeq	r0, [r0], -r7
     458:	00000368 	andeq	r0, r0, r8, ror #6
     45c:	68540001 	ldmdavs	r4, {r0}^
     460:	94000003 	strls	r0, [r0], #-3
     464:	04000003 	streq	r0, [r0], #-3
     468:	5001f300 	andpl	pc, r1, r0, lsl #6
     46c:	0000009f 	muleq	r0, pc, r0	; <UNPREDICTABLE>
     470:	00000000 	andeq	r0, r0, r0
     474:	00020000 	andeq	r0, r2, r0
     478:	00021f00 	andeq	r1, r2, r0, lsl #30
     47c:	51000100 	mrspl	r0, (UNDEF: 16)
     480:	0000021f 	andeq	r0, r0, pc, lsl r2
     484:	00000240 	andeq	r0, r0, r0, asr #4
     488:	01f30004 	mvnseq	r0, r4
     48c:	02409f51 	subeq	r9, r0, #324	; 0x144
     490:	024b0000 	subeq	r0, fp, #0
     494:	00010000 	andeq	r0, r1, r0
     498:	00024b51 	andeq	r4, r2, r1, asr fp
     49c:	00026c00 	andeq	r6, r2, r0, lsl #24
     4a0:	f3000400 	vshl.u8	d0, d0, d0
     4a4:	6c9f5101 	ldfvss	f5, [pc], {1}
     4a8:	77000002 	strvc	r0, [r0, -r2]
     4ac:	01000002 	tsteq	r0, r2
     4b0:	02775100 	rsbseq	r5, r7, #0, 2
     4b4:	02980000 	addseq	r0, r8, #0
     4b8:	00040000 	andeq	r0, r4, r0
     4bc:	9f5101f3 	svcls	0x005101f3
     4c0:	00000298 	muleq	r0, r8, r2
     4c4:	000002b3 			; <UNDEFINED> instruction: 0x000002b3
     4c8:	b3510001 	cmplt	r1, #1
     4cc:	d4000002 	strle	r0, [r0], #-2
     4d0:	04000002 	streq	r0, [r0], #-2
     4d4:	5101f300 	mrspl	pc, SP_irq	; <UNPREDICTABLE>
     4d8:	0002d49f 	muleq	r2, pc, r4	; <UNPREDICTABLE>
     4dc:	0002d700 	andeq	sp, r2, r0, lsl #14
     4e0:	51000100 	mrspl	r0, (UNDEF: 16)
     4e4:	000002d7 	ldrdeq	r0, [r0], -r7
     4e8:	00000394 	muleq	r0, r4, r3
     4ec:	01f30004 	mvnseq	r0, r4
     4f0:	00009f51 	andeq	r9, r0, r1, asr pc
     4f4:	00000000 	andeq	r0, r0, r0
     4f8:	02000000 	andeq	r0, r0, #0
     4fc:	021f0000 	andseq	r0, pc, #0
     500:	00010000 	andeq	r0, r1, r0
     504:	00021f52 	andeq	r1, r2, r2, asr pc
     508:	00024000 	andeq	r4, r2, r0
     50c:	59000100 	stmdbpl	r0, {r8}
     510:	00000240 	andeq	r0, r0, r0, asr #4
     514:	0000024b 	andeq	r0, r0, fp, asr #4
     518:	4b520001 	blmi	1480524 <__bss_end__+0x1473d44>
     51c:	6c000002 	stcvs	0, cr0, [r0], {2}
     520:	01000002 	tsteq	r0, r2
     524:	026c5900 	rsbeq	r5, ip, #0, 18
     528:	02770000 	rsbseq	r0, r7, #0
     52c:	00010000 	andeq	r0, r1, r0
     530:	00027752 	andeq	r7, r2, r2, asr r7
     534:	00029800 	andeq	r9, r2, r0, lsl #16
     538:	59000100 	stmdbpl	r0, {r8}
     53c:	00000298 	muleq	r0, r8, r2
     540:	000002b3 			; <UNDEFINED> instruction: 0x000002b3
     544:	b3520001 	cmplt	r2, #1
     548:	d4000002 	strle	r0, [r0], #-2
     54c:	01000002 	tsteq	r0, r2
     550:	02d45900 	sbcseq	r5, r4, #0, 18
     554:	02d70000 	sbcseq	r0, r7, #0
     558:	00010000 	andeq	r0, r1, r0
     55c:	0002d752 	andeq	sp, r2, r2, asr r7
     560:	00036800 	andeq	r6, r3, r0, lsl #16
     564:	59000100 	stmdbpl	r0, {r8}
     568:	00000368 	andeq	r0, r0, r8, ror #6
     56c:	00000394 	muleq	r0, r4, r3
     570:	01f30004 	mvnseq	r0, r4
     574:	00009f52 	andeq	r9, r0, r2, asr pc
     578:	00000000 	andeq	r0, r0, r0
     57c:	02000000 	andeq	r0, r0, #0
     580:	021f0000 	andseq	r0, pc, #0
     584:	00010000 	andeq	r0, r1, r0
     588:	00021f53 	andeq	r1, r2, r3, asr pc
     58c:	00024000 	andeq	r4, r2, r0
     590:	58000100 	stmdapl	r0, {r8}
     594:	00000240 	andeq	r0, r0, r0, asr #4
     598:	0000024b 	andeq	r0, r0, fp, asr #4
     59c:	4b530001 	blmi	14c05a8 <__bss_end__+0x14b3dc8>
     5a0:	6c000002 	stcvs	0, cr0, [r0], {2}
     5a4:	01000002 	tsteq	r0, r2
     5a8:	026c5800 	rsbeq	r5, ip, #0, 16
     5ac:	02770000 	rsbseq	r0, r7, #0
     5b0:	00010000 	andeq	r0, r1, r0
     5b4:	00027753 	andeq	r7, r2, r3, asr r7
     5b8:	00029800 	andeq	r9, r2, r0, lsl #16
     5bc:	58000100 	stmdapl	r0, {r8}
     5c0:	00000298 	muleq	r0, r8, r2
     5c4:	000002a8 	andeq	r0, r0, r8, lsr #5
     5c8:	a8530001 	ldmdage	r3, {r0}^
     5cc:	00000002 	andeq	r0, r0, r2
     5d0:	01000003 	tsteq	r0, r3
     5d4:	03005800 	movweq	r5, #2048	; 0x800
     5d8:	03940000 	orrseq	r0, r4, #0
     5dc:	00040000 	andeq	r0, r4, r0
     5e0:	9f5301f3 	svcls	0x005301f3
	...
     5ec:	0000029c 	muleq	r0, ip, r2
     5f0:	00000368 	andeq	r0, r0, r8, ror #6
     5f4:	68560001 	ldmdavs	r6, {r0}^
     5f8:	94000003 	strls	r0, [r0], #-3
     5fc:	06000003 	streq	r0, [r0], -r3
     600:	5101f300 	mrspl	pc, SP_irq	; <UNPREDICTABLE>
     604:	009f2544 	addseq	r2, pc, r4, asr #10
     608:	00000000 	andeq	r0, r0, r0
     60c:	a4000000 	strge	r0, [r0], #-0
     610:	68000002 	stmdavs	r0, {r1}
     614:	01000003 	tsteq	r0, r3
     618:	03685500 	cmneq	r8, #0, 10
     61c:	03940000 	orrseq	r0, r4, #0
     620:	00010000 	andeq	r0, r1, r0
     624:	00000050 	andeq	r0, r0, r0, asr r0
     628:	00000000 	andeq	r0, r0, r0
     62c:	00039400 	andeq	r9, r3, r0, lsl #8
     630:	0003bb00 	andeq	fp, r3, r0, lsl #22
     634:	50000100 	andpl	r0, r0, r0, lsl #2
     638:	000003bb 			; <UNDEFINED> instruction: 0x000003bb
     63c:	000003dc 	ldrdeq	r0, [r0], -ip
     640:	dc590001 	mrrcle	0, 0, r0, r9, cr1
     644:	e7000003 	str	r0, [r0, -r3]
     648:	01000003 	tsteq	r0, r3
     64c:	03e75000 	mvneq	r5, #0
     650:	04080000 	streq	r0, [r8], #-0
     654:	00010000 	andeq	r0, r1, r0
     658:	00040859 	andeq	r0, r4, r9, asr r8
     65c:	00041300 	andeq	r1, r4, r0, lsl #6
     660:	50000100 	andpl	r0, r0, r0, lsl #2
     664:	00000413 	andeq	r0, r0, r3, lsl r4
     668:	00000458 	andeq	r0, r0, r8, asr r4
     66c:	58590001 	ldmdapl	r9, {r0}^
     670:	5c000004 	stcpl	0, cr0, [r0], {4}
     674:	01000004 	tsteq	r0, r4
     678:	045c5000 	ldrbeq	r5, [ip], #-0
     67c:	046c0000 	strbteq	r0, [ip], #-0
     680:	00010000 	andeq	r0, r1, r0
     684:	00046c59 	andeq	r6, r4, r9, asr ip
     688:	00048400 	andeq	r8, r4, r0, lsl #8
     68c:	f3000400 	vshl.u8	d0, d0, d0
     690:	009f5001 	addseq	r5, pc, r1
     694:	00000000 	andeq	r0, r0, r0
     698:	94000000 	strls	r0, [r0], #-0
     69c:	bb000003 	bllt	6b0 <__code_start__-0x7950>
     6a0:	01000003 	tsteq	r0, r3
     6a4:	03bb5100 			; <UNDEFINED> instruction: 0x03bb5100
     6a8:	03dc0000 	bicseq	r0, ip, #0
     6ac:	00010000 	andeq	r0, r1, r0
     6b0:	0003dc55 	andeq	sp, r3, r5, asr ip
     6b4:	0003e700 	andeq	lr, r3, r0, lsl #14
     6b8:	51000100 	mrspl	r0, (UNDEF: 16)
     6bc:	000003e7 	andeq	r0, r0, r7, ror #7
     6c0:	00000408 	andeq	r0, r0, r8, lsl #8
     6c4:	08550001 	ldmdaeq	r5, {r0}^
     6c8:	13000004 	movwne	r0, #4
     6cc:	01000004 	tsteq	r0, r4
     6d0:	04135100 	ldreq	r5, [r3], #-256	; 0x100
     6d4:	04580000 	ldrbeq	r0, [r8], #-0
     6d8:	00010000 	andeq	r0, r1, r0
     6dc:	00045855 	andeq	r5, r4, r5, asr r8
     6e0:	00045c00 	andeq	r5, r4, r0, lsl #24
     6e4:	51000100 	mrspl	r0, (UNDEF: 16)
     6e8:	0000045c 	andeq	r0, r0, ip, asr r4
     6ec:	0000046c 	andeq	r0, r0, ip, ror #8
     6f0:	00550001 	subseq	r0, r5, r1
     6f4:	00000000 	andeq	r0, r0, r0
     6f8:	94000000 	strls	r0, [r0], #-0
     6fc:	bb000003 	bllt	710 <__code_start__-0x78f0>
     700:	01000003 	tsteq	r0, r3
     704:	03bb5200 			; <UNDEFINED> instruction: 0x03bb5200
     708:	03dc0000 	bicseq	r0, ip, #0
     70c:	00010000 	andeq	r0, r1, r0
     710:	0003dc56 	andeq	sp, r3, r6, asr ip
     714:	0003e700 	andeq	lr, r3, r0, lsl #14
     718:	52000100 	andpl	r0, r0, #0, 2
     71c:	000003e7 	andeq	r0, r0, r7, ror #7
     720:	00000408 	andeq	r0, r0, r8, lsl #8
     724:	08560001 	ldmdaeq	r6, {r0}^
     728:	13000004 	movwne	r0, #4
     72c:	01000004 	tsteq	r0, r4
     730:	04135200 	ldreq	r5, [r3], #-512	; 0x200
     734:	04580000 	ldrbeq	r0, [r8], #-0
     738:	00010000 	andeq	r0, r1, r0
     73c:	00045856 	andeq	r5, r4, r6, asr r8
     740:	00045c00 	andeq	r5, r4, r0, lsl #24
     744:	52000100 	andpl	r0, r0, #0, 2
     748:	0000045c 	andeq	r0, r0, ip, asr r4
     74c:	0000046c 	andeq	r0, r0, ip, ror #8
     750:	00560001 	subseq	r0, r6, r1
     754:	00000000 	andeq	r0, r0, r0
     758:	94000000 	strls	r0, [r0], #-0
     75c:	bb000003 	bllt	770 <__code_start__-0x7890>
     760:	01000003 	tsteq	r0, r3
     764:	03bb5300 			; <UNDEFINED> instruction: 0x03bb5300
     768:	03dc0000 	bicseq	r0, ip, #0
     76c:	00010000 	andeq	r0, r1, r0
     770:	0003dc57 	andeq	sp, r3, r7, asr ip
     774:	0003e700 	andeq	lr, r3, r0, lsl #14
     778:	53000100 	movwpl	r0, #256	; 0x100
     77c:	000003e7 	andeq	r0, r0, r7, ror #7
     780:	00000408 	andeq	r0, r0, r8, lsl #8
     784:	08570001 	ldmdaeq	r7, {r0}^
     788:	13000004 	movwne	r0, #4
     78c:	01000004 	tsteq	r0, r4
     790:	04135300 	ldreq	r5, [r3], #-768	; 0x300
     794:	04580000 	ldrbeq	r0, [r8], #-0
     798:	00010000 	andeq	r0, r1, r0
     79c:	00045857 	andeq	r5, r4, r7, asr r8
     7a0:	00045c00 	andeq	r5, r4, r0, lsl #24
     7a4:	53000100 	movwpl	r0, #256	; 0x100
     7a8:	0000045c 	andeq	r0, r0, ip, asr r4
     7ac:	0000046c 	andeq	r0, r0, ip, ror #8
     7b0:	6c570001 	mrrcvs	0, 0, r0, r7, cr1
     7b4:	84000004 	strhi	r0, [r0], #-4
     7b8:	04000004 	streq	r0, [r0], #-4
     7bc:	5301f300 	movwpl	pc, #4864	; 0x1300	; <UNPREDICTABLE>
     7c0:	0000009f 	muleq	r0, pc, r0	; <UNPREDICTABLE>
     7c4:	00000000 	andeq	r0, r0, r0
     7c8:	00043400 	andeq	r3, r4, r0, lsl #8
     7cc:	00045800 	andeq	r5, r4, r0, lsl #16
     7d0:	54000100 	strpl	r0, [r0], #-256	; 0x100
     7d4:	0000045c 	andeq	r0, r0, ip, asr r4
     7d8:	0000046c 	andeq	r0, r0, ip, ror #8
     7dc:	00540001 	subseq	r0, r4, r1
     7e0:	00000000 	andeq	r0, r0, r0
     7e4:	84000000 	strhi	r0, [r0], #-0
     7e8:	9b000004 	blls	800 <__code_start__-0x7800>
     7ec:	01000004 	tsteq	r0, r4
     7f0:	049b5000 	ldreq	r5, [fp], #0
     7f4:	04bc0000 	ldrteq	r0, [ip], #0
     7f8:	00010000 	andeq	r0, r1, r0
     7fc:	0004bc54 	andeq	fp, r4, r4, asr ip
     800:	0004c700 	andeq	ip, r4, r0, lsl #14
     804:	50000100 	andpl	r0, r0, r0, lsl #2
     808:	000004c7 	andeq	r0, r0, r7, asr #9
     80c:	000004e8 	andeq	r0, r0, r8, ror #9
     810:	e8540001 	ldmda	r4, {r0}^
     814:	f3000004 	vhadd.u8	d0, d0, d4
     818:	01000004 	tsteq	r0, r4
     81c:	04f35000 	ldrbteq	r5, [r3], #0
     820:	05000000 	streq	r0, [r0, #-0]
     824:	00010000 	andeq	r0, r1, r0
     828:	00050054 	andeq	r0, r5, r4, asr r0
     82c:	00051800 	andeq	r1, r5, r0, lsl #16
     830:	50000100 	andpl	r0, r0, r0, lsl #2
	...
     83c:	00000484 	andeq	r0, r0, r4, lsl #9
     840:	0000049b 	muleq	r0, fp, r4
     844:	9b510001 	blls	1440850 <__bss_end__+0x1434070>
     848:	bc000004 	stclt	0, cr0, [r0], {4}
     84c:	04000004 	streq	r0, [r0], #-4
     850:	5101f300 	mrspl	pc, SP_irq	; <UNPREDICTABLE>
     854:	0004bc9f 	muleq	r4, pc, ip	; <UNPREDICTABLE>
     858:	0004c700 	andeq	ip, r4, r0, lsl #14
     85c:	51000100 	mrspl	r0, (UNDEF: 16)
     860:	000004c7 	andeq	r0, r0, r7, asr #9
     864:	000004e8 	andeq	r0, r0, r8, ror #9
     868:	01f30004 	mvnseq	r0, r4
     86c:	04e89f51 	strbteq	r9, [r8], #3921	; 0xf51
     870:	04ec0000 	strbteq	r0, [ip], #0
     874:	00010000 	andeq	r0, r1, r0
     878:	0004ec51 	andeq	lr, r4, r1, asr ip
     87c:	00051800 	andeq	r1, r5, r0, lsl #16
     880:	f3000400 	vshl.u8	d0, d0, d0
     884:	009f5101 	addseq	r5, pc, r1, lsl #2
     888:	00000000 	andeq	r0, r0, r0
     88c:	bc000000 	stclt	0, cr0, [r0], {-0}
     890:	c7000004 	strgt	r0, [r0, -r4]
     894:	01000004 	tsteq	r0, r4
     898:	04c75000 	strbeq	r5, [r7], #0
     89c:	04e80000 	strbteq	r0, [r8], #0
     8a0:	00010000 	andeq	r0, r1, r0
     8a4:	0004e854 	andeq	lr, r4, r4, asr r8
     8a8:	0004f300 	andeq	pc, r4, r0, lsl #6
     8ac:	50000100 	andpl	r0, r0, r0, lsl #2
     8b0:	000004f3 	strdeq	r0, [r0], -r3
     8b4:	00000500 	andeq	r0, r0, r0, lsl #10
     8b8:	00540001 	subseq	r0, r4, r1
     8bc:	18000005 	stmdane	r0, {r0, r2}
     8c0:	01000005 	tsteq	r0, r5
     8c4:	00005000 	andeq	r5, r0, r0
     8c8:	00000000 	andeq	r0, r0, r0
     8cc:	05180000 	ldreq	r0, [r8, #-0]
     8d0:	052b0000 	streq	r0, [fp, #-0]!
     8d4:	00010000 	andeq	r0, r1, r0
     8d8:	00052b50 	andeq	r2, r5, r0, asr fp
     8dc:	00054c00 	andeq	r4, r5, r0, lsl #24
     8e0:	f3000400 	vshl.u8	d0, d0, d0
     8e4:	4c9f5001 	ldcmi	0, cr5, [pc], {1}
     8e8:	53000005 	movwpl	r0, #5
     8ec:	01000005 	tsteq	r0, r5
     8f0:	05535000 	ldrbeq	r5, [r3, #-0]
     8f4:	05a80000 	streq	r0, [r8, #0]!
     8f8:	00040000 	andeq	r0, r4, r0
     8fc:	9f5001f3 	svcls	0x005001f3
	...
     908:	00000554 	andeq	r0, r0, r4, asr r5
     90c:	0000055f 	andeq	r0, r0, pc, asr r5
     910:	80500001 	subshi	r0, r0, r1
     914:	87000005 	strhi	r0, [r0, -r5]
     918:	01000005 	tsteq	r0, r5
     91c:	00005000 	andeq	r5, r0, r0
     920:	00000000 	andeq	r0, r0, r0
     924:	05c40000 	strbeq	r0, [r4]
     928:	05cf0000 	strbeq	r0, [pc]	; 930 <__code_start__-0x76d0>
     92c:	00010000 	andeq	r0, r1, r0
     930:	0005f050 	andeq	pc, r5, r0, asr r0	; <UNPREDICTABLE>
     934:	0005fb00 	andeq	pc, r5, r0, lsl #22
     938:	50000100 	andpl	r0, r0, r0, lsl #2
     93c:	0000061c 	andeq	r0, r0, ip, lsl r6
     940:	00000638 	andeq	r0, r0, r8, lsr r6
     944:	00500001 	subseq	r0, r0, r1
     948:	00000000 	andeq	r0, r0, r0
     94c:	44000000 	strmi	r0, [r0], #-0
     950:	57000006 	strpl	r0, [r0, -r6]
     954:	01000006 	tsteq	r0, r6
     958:	06785000 	ldrbteq	r5, [r8], -r0
     95c:	06830000 	streq	r0, [r3], r0
     960:	00010000 	andeq	r0, r1, r0
     964:	0006a450 	andeq	sl, r6, r0, asr r4
     968:	0006a700 	andeq	sl, r6, r0, lsl #14
     96c:	50000100 	andpl	r0, r0, r0, lsl #2
	...
     978:	000006d0 	ldrdeq	r0, [r0], -r0	; <UNPREDICTABLE>
     97c:	000006db 	ldrdeq	r0, [r0], -fp
     980:	fc500001 	mrrc2	0, 0, r0, r0, cr1	; <UNPREDICTABLE>
     984:	00000006 	andeq	r0, r0, r6
     988:	01000007 	tsteq	r0, r7
     98c:	00005000 	andeq	r5, r0, r0
     990:	00000000 	andeq	r0, r0, r0
     994:	071c0000 	ldreq	r0, [ip, -r0]
     998:	072f0000 	streq	r0, [pc, -r0]!
     99c:	00010000 	andeq	r0, r1, r0
     9a0:	00075050 	andeq	r5, r7, r0, asr r0
     9a4:	00075300 	andeq	r5, r7, r0, lsl #6
     9a8:	50000100 	andpl	r0, r0, r0, lsl #2
	...
     9b4:	00000778 	andeq	r0, r0, r8, ror r7
     9b8:	00000783 	andeq	r0, r0, r3, lsl #15
     9bc:	a4500001 	ldrbge	r0, [r0], #-1
     9c0:	a8000007 	stmdage	r0, {r0, r1, r2}
     9c4:	01000007 	tsteq	r0, r7
     9c8:	00005000 	andeq	r5, r0, r0
     9cc:	00000000 	andeq	r0, r0, r0
     9d0:	07cc0000 	strbeq	r0, [ip, r0]
     9d4:	07d30000 	ldrbeq	r0, [r3, r0]
     9d8:	00010000 	andeq	r0, r1, r0
     9dc:	0007d350 	andeq	sp, r7, r0, asr r3
     9e0:	0007d800 	andeq	sp, r7, r0, lsl #16
     9e4:	f3000400 	vshl.u8	d0, d0, d0
     9e8:	009f5001 	addseq	r5, pc, r1
     9ec:	00000000 	andeq	r0, r0, r0
     9f0:	d8000000 	stmdale	r0, {}	; <UNPREDICTABLE>
     9f4:	eb000007 	bl	a18 <__code_start__-0x75e8>
     9f8:	01000007 	tsteq	r0, r7
     9fc:	07eb5000 	strbeq	r5, [fp, r0]!
     a00:	080c0000 	stmdaeq	ip, {}	; <UNPREDICTABLE>
     a04:	00040000 	andeq	r0, r4, r0
     a08:	9f5001f3 	svcls	0x005001f3
     a0c:	0000080c 	andeq	r0, r0, ip, lsl #16
     a10:	00000817 	andeq	r0, r0, r7, lsl r8
     a14:	17500001 	ldrbne	r0, [r0, -r1]
     a18:	38000008 	stmdacc	r0, {r3}
     a1c:	04000008 	streq	r0, [r0], #-8
     a20:	5001f300 	andpl	pc, r1, r0, lsl #6
     a24:	0008389f 	muleq	r8, pc, r8	; <UNPREDICTABLE>
     a28:	00084700 	andeq	r4, r8, r0, lsl #14
     a2c:	50000100 	andpl	r0, r0, r0, lsl #2
     a30:	00000847 	andeq	r0, r0, r7, asr #16
     a34:	00000868 	andeq	r0, r0, r8, ror #16
     a38:	01f30004 	mvnseq	r0, r4
     a3c:	08689f50 	stmdaeq	r8!, {r4, r6, r8, r9, sl, fp, ip, pc}^
     a40:	086c0000 	stmdaeq	ip!, {}^	; <UNPREDICTABLE>
     a44:	00010000 	andeq	r0, r1, r0
     a48:	00086c50 	andeq	r6, r8, r0, asr ip
     a4c:	00089400 	andeq	r9, r8, r0, lsl #8
     a50:	f3000400 	vshl.u8	d0, d0, d0
     a54:	009f5001 	addseq	r5, pc, r1
     a58:	00000000 	andeq	r0, r0, r0
     a5c:	d8000000 	stmdale	r0, {}	; <UNPREDICTABLE>
     a60:	eb000007 	bl	a84 <__code_start__-0x757c>
     a64:	01000007 	tsteq	r0, r7
     a68:	07eb5100 	strbeq	r5, [fp, r0, lsl #2]!
     a6c:	080c0000 	stmdaeq	ip, {}	; <UNPREDICTABLE>
     a70:	00040000 	andeq	r0, r4, r0
     a74:	9f5101f3 	svcls	0x005101f3
     a78:	0000080c 	andeq	r0, r0, ip, lsl #16
     a7c:	00000817 	andeq	r0, r0, r7, lsl r8
     a80:	17510001 	ldrbne	r0, [r1, -r1]
     a84:	38000008 	stmdacc	r0, {r3}
     a88:	04000008 	streq	r0, [r0], #-8
     a8c:	5101f300 	mrspl	pc, SP_irq	; <UNPREDICTABLE>
     a90:	0008389f 	muleq	r8, pc, r8	; <UNPREDICTABLE>
     a94:	00084700 	andeq	r4, r8, r0, lsl #14
     a98:	51000100 	mrspl	r0, (UNDEF: 16)
     a9c:	00000847 	andeq	r0, r0, r7, asr #16
     aa0:	00000868 	andeq	r0, r0, r8, ror #16
     aa4:	01f30004 	mvnseq	r0, r4
     aa8:	08689f51 	stmdaeq	r8!, {r0, r4, r6, r8, r9, sl, fp, ip, pc}^
     aac:	08700000 	ldmdaeq	r0!, {}^	; <UNPREDICTABLE>
     ab0:	00010000 	andeq	r0, r1, r0
     ab4:	00087051 	andeq	r7, r8, r1, asr r0
     ab8:	00087300 	andeq	r7, r8, r0, lsl #6
     abc:	73000300 	movwvc	r0, #768	; 0x300
     ac0:	08739f01 	ldmdaeq	r3!, {r0, r8, r9, sl, fp, ip, pc}^
     ac4:	08940000 	ldmeq	r4, {}	; <UNPREDICTABLE>
     ac8:	00040000 	andeq	r0, r4, r0
     acc:	9f5101f3 	svcls	0x005101f3
	...
     ad8:	000007d8 	ldrdeq	r0, [r0], -r8
     adc:	000007eb 	andeq	r0, r0, fp, ror #15
     ae0:	eb520001 	bl	1480aec <__bss_end__+0x147430c>
     ae4:	0c000007 	stceq	0, cr0, [r0], {7}
     ae8:	04000008 	streq	r0, [r0], #-8
     aec:	5201f300 	andpl	pc, r1, #0, 6
     af0:	00080c9f 	muleq	r8, pc, ip	; <UNPREDICTABLE>
     af4:	00081700 	andeq	r1, r8, r0, lsl #14
     af8:	52000100 	andpl	r0, r0, #0, 2
     afc:	00000817 	andeq	r0, r0, r7, lsl r8
     b00:	00000838 	andeq	r0, r0, r8, lsr r8
     b04:	01f30004 	mvnseq	r0, r4
     b08:	08389f52 	ldmdaeq	r8!, {r1, r4, r6, r8, r9, sl, fp, ip, pc}
     b0c:	08470000 	stmdaeq	r7, {}^	; <UNPREDICTABLE>
     b10:	00010000 	andeq	r0, r1, r0
     b14:	00084752 	andeq	r4, r8, r2, asr r7
     b18:	00086800 	andeq	r6, r8, r0, lsl #16
     b1c:	f3000400 	vshl.u8	d0, d0, d0
     b20:	689f5201 	ldmvs	pc, {r0, r9, ip, lr}	; <UNPREDICTABLE>
     b24:	73000008 	movwvc	r0, #8
     b28:	01000008 	tsteq	r0, r8
     b2c:	08735200 	ldmdaeq	r3!, {r9, ip, lr}^
     b30:	08940000 	ldmeq	r4, {}	; <UNPREDICTABLE>
     b34:	00040000 	andeq	r0, r4, r0
     b38:	9f5201f3 	svcls	0x005201f3
	...
     b44:	00000894 	muleq	r0, r4, r8
     b48:	000008a3 	andeq	r0, r0, r3, lsr #17
     b4c:	a3500001 	cmpge	r0, #1
     b50:	dc000008 	stcle	0, cr0, [r0], {8}
     b54:	01000008 	tsteq	r0, r8
     b58:	00005400 	andeq	r5, r0, r0, lsl #8
	...
     b64:	00100000 	andseq	r0, r0, r0
     b68:	00010000 	andeq	r0, r1, r0
     b6c:	00001050 	andeq	r1, r0, r0, asr r0
     b70:	00003400 	andeq	r3, r0, r0, lsl #8
     b74:	55000100 	strpl	r0, [r0, #-256]	; 0x100
	...
     b84:	00000014 	andeq	r0, r0, r4, lsl r0
     b88:	14510001 	ldrbne	r0, [r1], #-1
     b8c:	17000000 	strne	r0, [r0, -r0]
     b90:	01000000 	mrseq	r0, (UNDEF: 0)
     b94:	00175000 	andseq	r5, r7, r0
     b98:	00340000 	eorseq	r0, r4, r0
     b9c:	00040000 	andeq	r0, r4, r0
     ba0:	9f5101f3 	svcls	0x005101f3
	...
     bb0:	00000017 	andeq	r0, r0, r7, lsl r0
     bb4:	17520001 	ldrbne	r0, [r2, -r1]
     bb8:	34000000 	strcc	r0, [r0], #-0
     bbc:	01000000 	mrseq	r0, (UNDEF: 0)
     bc0:	00005400 	andeq	r5, r0, r0, lsl #8
     bc4:	00000000 	andeq	r0, r0, r0
     bc8:	00640000 	rsbeq	r0, r4, r0
     bcc:	00830000 	addeq	r0, r3, r0
     bd0:	00010000 	andeq	r0, r1, r0
     bd4:	00008350 	andeq	r8, r0, r0, asr r3
     bd8:	0000a400 	andeq	sl, r0, r0, lsl #8
     bdc:	f3000400 	vshl.u8	d0, d0, d0
     be0:	a49f5001 	ldrge	r5, [pc], #1	; be8 <__code_start__-0x7418>
     be4:	b3000000 	movwlt	r0, #0
     be8:	01000000 	mrseq	r0, (UNDEF: 0)
     bec:	00b35000 	adcseq	r5, r3, r0
     bf0:	00d40000 	sbcseq	r0, r4, r0
     bf4:	00040000 	andeq	r0, r4, r0
     bf8:	9f5001f3 	svcls	0x005001f3
     bfc:	000000d4 	ldrdeq	r0, [r0], -r4
     c00:	000000e3 	andeq	r0, r0, r3, ror #1
     c04:	e3500001 	cmp	r0, #1
     c08:	04000000 	streq	r0, [r0], #-0
     c0c:	04000001 	streq	r0, [r0], #-1
     c10:	5001f300 	andpl	pc, r1, r0, lsl #6
     c14:	0001049f 	muleq	r1, pc, r4	; <UNPREDICTABLE>
     c18:	00011300 	andeq	r1, r1, r0, lsl #6
     c1c:	50000100 	andpl	r0, r0, r0, lsl #2
     c20:	00000113 	andeq	r0, r0, r3, lsl r1
     c24:	00000134 	andeq	r0, r0, r4, lsr r1
     c28:	01f30004 	mvnseq	r0, r4
     c2c:	01349f50 	teqeq	r4, r0, asr pc
     c30:	01430000 	mrseq	r0, (UNDEF: 67)
     c34:	00010000 	andeq	r0, r1, r0
     c38:	00014350 	andeq	r4, r1, r0, asr r3
     c3c:	00016400 	andeq	r6, r1, r0, lsl #8
     c40:	f3000400 	vshl.u8	d0, d0, d0
     c44:	649f5001 	ldrvs	r5, [pc], #1	; c4c <__code_start__-0x73b4>
     c48:	73000001 	movwvc	r0, #1
     c4c:	01000001 	tsteq	r0, r1
     c50:	01735000 	cmneq	r3, r0
     c54:	01940000 	orrseq	r0, r4, r0
     c58:	00040000 	andeq	r0, r4, r0
     c5c:	9f5001f3 	svcls	0x005001f3
     c60:	00000194 	muleq	r0, r4, r1
     c64:	000001a3 	andeq	r0, r0, r3, lsr #3
     c68:	a3500001 	cmpge	r0, #1
     c6c:	c4000001 	strgt	r0, [r0], #-1
     c70:	04000001 	streq	r0, [r0], #-1
     c74:	5001f300 	andpl	pc, r1, r0, lsl #6
     c78:	0001c49f 	muleq	r1, pc, r4	; <UNPREDICTABLE>
     c7c:	0001d300 	andeq	sp, r1, r0, lsl #6
     c80:	50000100 	andpl	r0, r0, r0, lsl #2
     c84:	000001d3 	ldrdeq	r0, [r0], -r3
     c88:	000001f4 	strdeq	r0, [r0], -r4
     c8c:	01f30004 	mvnseq	r0, r4
     c90:	01f49f50 	mvnseq	r9, r0, asr pc
     c94:	02030000 	andeq	r0, r3, #0
     c98:	00010000 	andeq	r0, r1, r0
     c9c:	00020350 	andeq	r0, r2, r0, asr r3
     ca0:	00022400 	andeq	r2, r2, r0, lsl #8
     ca4:	f3000400 	vshl.u8	d0, d0, d0
     ca8:	249f5001 	ldrcs	r5, [pc], #1	; cb0 <__code_start__-0x7350>
     cac:	5c000002 	stcpl	0, cr0, [r0], {2}
     cb0:	01000002 	tsteq	r0, r2
     cb4:	00005000 	andeq	r5, r0, r0
     cb8:	00000000 	andeq	r0, r0, r0
     cbc:	025c0000 	subseq	r0, ip, #0
     cc0:	02670000 	rsbeq	r0, r7, #0
     cc4:	00010000 	andeq	r0, r1, r0
     cc8:	00026750 	andeq	r6, r2, r0, asr r7
     ccc:	00046000 	andeq	r6, r4, r0
     cd0:	54000100 	strpl	r0, [r0], #-256	; 0x100
	...
     cdc:	00000468 	andeq	r0, r0, r8, ror #8
     ce0:	00000474 	andeq	r0, r0, r4, ror r4
     ce4:	74500001 	ldrbvc	r0, [r0], #-1
     ce8:	b4000004 	strlt	r0, [r0], #-4
     cec:	01000004 	tsteq	r0, r4
     cf0:	00005400 	andeq	r5, r0, r0, lsl #8
     cf4:	00000000 	andeq	r0, r0, r0
     cf8:	04b40000 	ldrteq	r0, [r4], #0
     cfc:	04cb0000 	strbeq	r0, [fp], #0
     d00:	00010000 	andeq	r0, r1, r0
     d04:	0004cb50 	andeq	ip, r4, r0, asr fp
     d08:	0004ec00 	andeq	lr, r4, r0, lsl #24
     d0c:	f3000400 	vshl.u8	d0, d0, d0
     d10:	ec9f5001 	ldc	0, cr5, [pc], {1}
     d14:	ff000004 			; <UNDEFINED> instruction: 0xff000004
     d18:	01000004 	tsteq	r0, r4
     d1c:	04ff5000 	ldrbteq	r5, [pc], #0	; d24 <__code_start__-0x72dc>
     d20:	05200000 	streq	r0, [r0, #-0]!
     d24:	00040000 	andeq	r0, r4, r0
     d28:	9f5001f3 	svcls	0x005001f3
     d2c:	00000520 	andeq	r0, r0, r0, lsr #10
     d30:	0000052f 	andeq	r0, r0, pc, lsr #10
     d34:	2f500001 	svccs	0x00500001
     d38:	50000005 	andpl	r0, r0, r5
     d3c:	04000005 	streq	r0, [r0], #-5
     d40:	5001f300 	andpl	pc, r1, r0, lsl #6
     d44:	0005509f 	muleq	r5, pc, r0	; <UNPREDICTABLE>
     d48:	00055f00 	andeq	r5, r5, r0, lsl #30
     d4c:	50000100 	andpl	r0, r0, r0, lsl #2
     d50:	0000055f 	andeq	r0, r0, pc, asr r5
     d54:	00000580 	andeq	r0, r0, r0, lsl #11
     d58:	01f30004 	mvnseq	r0, r4
     d5c:	05809f50 	streq	r9, [r0, #3920]	; 0xf50
     d60:	058f0000 	streq	r0, [pc]	; d68 <__code_start__-0x7298>
     d64:	00010000 	andeq	r0, r1, r0
     d68:	00058f50 	andeq	r8, r5, r0, asr pc
     d6c:	0005b000 	andeq	fp, r5, r0
     d70:	f3000400 	vshl.u8	d0, d0, d0
     d74:	b09f5001 	addslt	r5, pc, r1
     d78:	bf000005 	svclt	0x00000005
     d7c:	01000005 	tsteq	r0, r5
     d80:	05bf5000 	ldreq	r5, [pc, #0]!	; d88 <__code_start__-0x7278>
     d84:	05e00000 	strbeq	r0, [r0, #0]!
     d88:	00040000 	andeq	r0, r4, r0
     d8c:	9f5001f3 	svcls	0x005001f3
     d90:	000005e0 	andeq	r0, r0, r0, ror #11
     d94:	000005ef 	andeq	r0, r0, pc, ror #11
     d98:	ef500001 	svc	0x00500001
     d9c:	10000005 	andne	r0, r0, r5
     da0:	04000006 	streq	r0, [r0], #-6
     da4:	5001f300 	andpl	pc, r1, r0, lsl #6
     da8:	0006109f 	muleq	r6, pc, r0	; <UNPREDICTABLE>
     dac:	00061f00 	andeq	r1, r6, r0, lsl #30
     db0:	50000100 	andpl	r0, r0, r0, lsl #2
     db4:	0000061f 	andeq	r0, r0, pc, lsl r6
     db8:	00000640 	andeq	r0, r0, r0, asr #12
     dbc:	01f30004 	mvnseq	r0, r4
     dc0:	06409f50 			; <UNDEFINED> instruction: 0x06409f50
     dc4:	06740000 	ldrbteq	r0, [r4], -r0
     dc8:	00010000 	andeq	r0, r1, r0
     dcc:	00000050 	andeq	r0, r0, r0, asr r0
     dd0:	00000000 	andeq	r0, r0, r0
     dd4:	00073000 	andeq	r3, r7, r0
     dd8:	00073c00 	andeq	r3, r7, r0, lsl #24
     ddc:	50000100 	andpl	r0, r0, r0, lsl #2
     de0:	0000073c 	andeq	r0, r0, ip, lsr r7
     de4:	00000900 	andeq	r0, r0, r0, lsl #18
     de8:	00540001 	subseq	r0, r4, r1
     dec:	00000000 	andeq	r0, r0, r0
     df0:	34000000 	strcc	r0, [r0], #-0
     df4:	4c000000 	stcmi	0, cr0, [r0], {-0}
     df8:	01000000 	mrseq	r0, (UNDEF: 0)
     dfc:	004c5000 	subeq	r5, ip, r0
     e00:	01040000 	mrseq	r0, (UNDEF: 4)
     e04:	00010000 	andeq	r0, r1, r0
     e08:	00010456 	andeq	r0, r1, r6, asr r4
     e0c:	00012400 	andeq	r2, r1, r0, lsl #8
     e10:	f3000400 	vshl.u8	d0, d0, d0
     e14:	009f5001 	addseq	r5, pc, r1
     e18:	00000000 	andeq	r0, r0, r0
     e1c:	34000000 	strcc	r0, [r0], #-0
     e20:	4f000000 	svcmi	0x00000000
     e24:	01000000 	mrseq	r0, (UNDEF: 0)
     e28:	004f5100 	subeq	r5, pc, r0, lsl #2
     e2c:	01040000 	mrseq	r0, (UNDEF: 4)
     e30:	00010000 	andeq	r0, r1, r0
     e34:	00010454 	andeq	r0, r1, r4, asr r4
     e38:	00012400 	andeq	r2, r1, r0, lsl #8
     e3c:	f3000400 	vshl.u8	d0, d0, d0
     e40:	009f5101 	addseq	r5, pc, r1, lsl #2
     e44:	00000000 	andeq	r0, r0, r0
     e48:	34000000 	strcc	r0, [r0], #-0
     e4c:	4f000000 	svcmi	0x00000000
     e50:	01000000 	mrseq	r0, (UNDEF: 0)
     e54:	004f5200 	subeq	r5, pc, r0, lsl #4
     e58:	01040000 	mrseq	r0, (UNDEF: 4)
     e5c:	00010000 	andeq	r0, r1, r0
     e60:	00010455 	andeq	r0, r1, r5, asr r4
     e64:	00012400 	andeq	r2, r1, r0, lsl #8
     e68:	f3000400 	vshl.u8	d0, d0, d0
     e6c:	009f5201 	addseq	r5, pc, r1, lsl #4
     e70:	00000000 	andeq	r0, r0, r0
     e74:	24000000 	strcs	r0, [r0], #-0
     e78:	33000001 	movwcc	r0, #1
     e7c:	01000001 	tsteq	r0, r1
     e80:	01335000 	teqeq	r3, r0
     e84:	01b40000 			; <UNDEFINED> instruction: 0x01b40000
     e88:	00010000 	andeq	r0, r1, r0
     e8c:	0001b454 	andeq	fp, r1, r4, asr r4
     e90:	0001c800 	andeq	ip, r1, r0, lsl #16
     e94:	f3000400 	vshl.u8	d0, d0, d0
     e98:	009f5001 	addseq	r5, pc, r1
     e9c:	00000000 	andeq	r0, r0, r0
     ea0:	34000000 	strcc	r0, [r0], #-0
     ea4:	4b000001 	blmi	eb0 <__code_start__-0x7150>
     ea8:	01000001 	tsteq	r0, r1
     eac:	016c5000 	cmneq	ip, r0
     eb0:	01770000 	cmneq	r7, r0
     eb4:	00010000 	andeq	r0, r1, r0
     eb8:	00019850 	andeq	r9, r1, r0, asr r8
     ebc:	0001ac00 	andeq	sl, r1, r0, lsl #24
     ec0:	50000100 	andpl	r0, r0, r0, lsl #2
	...
     ecc:	00000140 	andeq	r0, r0, r0, asr #2
     ed0:	0000014b 	andeq	r0, r0, fp, asr #2
     ed4:	4b520001 	blmi	1480ee0 <__bss_end__+0x1474700>
     ed8:	6c000001 	stcvs	0, cr0, [r0], {1}
     edc:	05000001 	streq	r0, [r0, #-1]
     ee0:	31017400 	tstcc	r1, r0, lsl #8
     ee4:	016c9f24 	cmneq	ip, r4, lsr #30
     ee8:	01770000 	cmneq	r7, r0
     eec:	00010000 	andeq	r0, r1, r0
     ef0:	00017752 	andeq	r7, r1, r2, asr r7
     ef4:	00019800 	andeq	r9, r1, r0, lsl #16
     ef8:	74000500 	strvc	r0, [r0], #-1280	; 0x500
     efc:	9f243101 	svcls	0x00243101
     f00:	00000198 	muleq	r0, r8, r1
     f04:	0000019c 	muleq	r0, ip, r1
     f08:	9c520001 	mrrcls	0, 0, r0, r2, cr1
     f0c:	b4000001 	strlt	r0, [r0], #-1
     f10:	05000001 	streq	r0, [r0, #-1]
     f14:	31017400 	tstcc	r1, r0, lsl #8
     f18:	01b49f24 			; <UNDEFINED> instruction: 0x01b49f24
     f1c:	01c80000 	biceq	r0, r8, r0
     f20:	00080000 	andeq	r0, r8, r0
     f24:	235001f3 	cmpcs	r0, #-1073741764	; 0xc000003c
     f28:	9f243101 	svcls	0x00243101
	...
     f34:	00000140 	andeq	r0, r0, r0, asr #2
     f38:	0000014b 	andeq	r0, r0, fp, asr #2
     f3c:	4b530001 	blmi	14c0f48 <__bss_end__+0x14b4768>
     f40:	6c000001 	stcvs	0, cr0, [r0], {1}
     f44:	05000001 	streq	r0, [r0, #-1]
     f48:	31007400 	tstcc	r0, r0, lsl #8
     f4c:	016c9f24 	cmneq	ip, r4, lsr #30
     f50:	01770000 	cmneq	r7, r0
     f54:	00010000 	andeq	r0, r1, r0
     f58:	00017753 	andeq	r7, r1, r3, asr r7
     f5c:	00019800 	andeq	r9, r1, r0, lsl #16
     f60:	74000500 	strvc	r0, [r0], #-1280	; 0x500
     f64:	9f243100 	svcls	0x00243100
     f68:	00000198 	muleq	r0, r8, r1
     f6c:	000001c8 	andeq	r0, r0, r8, asr #3
     f70:	00530001 	subseq	r0, r3, r1
     f74:	00000000 	andeq	r0, r0, r0
     f78:	40000000 	andmi	r0, r0, r0
     f7c:	4b000001 	blmi	f88 <__code_start__-0x7078>
     f80:	01000001 	tsteq	r0, r1
     f84:	016c5000 	cmneq	ip, r0
     f88:	01770000 	cmneq	r7, r0
     f8c:	00010000 	andeq	r0, r1, r0
     f90:	00019850 	andeq	r9, r1, r0, asr r8
     f94:	0001ac00 	andeq	sl, r1, r0, lsl #24
     f98:	50000100 	andpl	r0, r0, r0, lsl #2
	...
     fa4:	000001a0 	andeq	r0, r0, r0, lsr #3
     fa8:	000001a8 	andeq	r0, r0, r8, lsr #3
     fac:	a8520001 	ldmdage	r2, {r0}^
     fb0:	b4000001 	strlt	r0, [r0], #-1
     fb4:	0a000001 	beq	fc0 <__code_start__-0x7040>
     fb8:	31017400 	tstcc	r1, r0, lsl #8
     fbc:	1c007324 	stcne	3, cr7, [r0], {36}	; 0x24
     fc0:	b49f0123 	ldrlt	r0, [pc], #291	; fc8 <__code_start__-0x7038>
     fc4:	c8000001 	stmdagt	r0, {r0}
     fc8:	0d000001 	stceq	0, cr0, [r0, #-4]
     fcc:	5001f300 	andpl	pc, r1, r0, lsl #6
     fd0:	24310123 	ldrtcs	r0, [r1], #-291	; 0x123
     fd4:	231c0073 	tstcs	ip, #115	; 0x73
     fd8:	00009f01 	andeq	r9, r0, r1, lsl #30
     fdc:	00000000 	andeq	r0, r0, r0
     fe0:	01c80000 	biceq	r0, r8, r0
     fe4:	01e30000 	mvneq	r0, r0
     fe8:	00010000 	andeq	r0, r1, r0
     fec:	0001e350 	andeq	lr, r1, r0, asr r3
     ff0:	00020400 	andeq	r0, r2, r0, lsl #8
     ff4:	54000100 	strpl	r0, [r0], #-256	; 0x100
     ff8:	00000204 	andeq	r0, r0, r4, lsl #4
     ffc:	0000020f 	andeq	r0, r0, pc, lsl #4
    1000:	0f500001 	svceq	0x00500001
    1004:	30000002 	andcc	r0, r0, r2
    1008:	01000002 	tsteq	r0, r2
    100c:	02305400 	eorseq	r5, r0, #0, 8
    1010:	02330000 	eorseq	r0, r3, #0
    1014:	00010000 	andeq	r0, r1, r0
    1018:	00023350 	andeq	r3, r2, r0, asr r3
    101c:	00023800 	andeq	r3, r2, r0, lsl #16
    1020:	54000100 	strpl	r0, [r0], #-256	; 0x100
    1024:	00000238 	andeq	r0, r0, r8, lsr r2
    1028:	00000264 	andeq	r0, r0, r4, ror #4
    102c:	01f30004 	mvnseq	r0, r4
    1030:	00009f50 	andeq	r9, r0, r0, asr pc
    1034:	00000000 	andeq	r0, r0, r0
    1038:	01c80000 	biceq	r0, r8, r0
    103c:	01e30000 	mvneq	r0, r0
    1040:	00010000 	andeq	r0, r1, r0
    1044:	0001e351 	andeq	lr, r1, r1, asr r3
    1048:	00020400 	andeq	r0, r2, r0, lsl #8
    104c:	55000100 	strpl	r0, [r0, #-256]	; 0x100
    1050:	00000204 	andeq	r0, r0, r4, lsl #4
    1054:	0000020f 	andeq	r0, r0, pc, lsl #4
    1058:	0f510001 	svceq	0x00510001
    105c:	30000002 	andcc	r0, r0, r2
    1060:	01000002 	tsteq	r0, r2
    1064:	02305500 	eorseq	r5, r0, #0, 10
    1068:	02330000 	eorseq	r0, r3, #0
    106c:	00010000 	andeq	r0, r1, r0
    1070:	00023351 	andeq	r3, r2, r1, asr r3
    1074:	00025000 	andeq	r5, r2, r0
    1078:	55000100 	strpl	r0, [r0, #-256]	; 0x100
    107c:	00000250 	andeq	r0, r0, r0, asr r2
    1080:	00000264 	andeq	r0, r0, r4, ror #4
    1084:	01f30004 	mvnseq	r0, r4
    1088:	00009f51 	andeq	r9, r0, r1, asr pc
    108c:	00000000 	andeq	r0, r0, r0
    1090:	02400000 	subeq	r0, r0, #0
    1094:	02440000 	subeq	r0, r4, #0
    1098:	00090000 	andeq	r0, r9, r0
    109c:	00740075 	rsbseq	r0, r4, r5, ror r0
    10a0:	21007024 	tstcs	r0, r4, lsr #32
    10a4:	0002449f 	muleq	r2, pc, r4	; <UNPREDICTABLE>
    10a8:	00024700 	andeq	r4, r2, r0, lsl #14
    10ac:	50000100 	andpl	r0, r0, r0, lsl #2
	...
    10b8:	00000278 	andeq	r0, r0, r8, ror r2
    10bc:	00000290 	muleq	r0, r0, r2
    10c0:	90500001 	subsls	r0, r0, r1
    10c4:	84000002 	strhi	r0, [r0], #-2
    10c8:	01000005 	tsteq	r0, r5
    10cc:	05845600 	streq	r5, [r4, #1536]	; 0x600
    10d0:	05f00000 	ldrbeq	r0, [r0, #0]!
    10d4:	00040000 	andeq	r0, r4, r0
    10d8:	9f5001f3 	svcls	0x005001f3
	...
    10e4:	000002a0 	andeq	r0, r0, r0, lsr #5
    10e8:	00000584 	andeq	r0, r0, r4, lsl #11
    10ec:	00540001 	subseq	r0, r4, r1
    10f0:	00000000 	andeq	r0, r0, r0
    10f4:	8c000000 	stchi	0, cr0, [r0], {-0}
    10f8:	84000002 	strhi	r0, [r0], #-2
    10fc:	01000005 	tsteq	r0, r5
    1100:	00005500 	andeq	r5, r0, r0, lsl #10
    1104:	00000000 	andeq	r0, r0, r0
    1108:	05f00000 	ldrbeq	r0, [r0, #0]!
    110c:	05f70000 	ldrbeq	r0, [r7, #0]!
    1110:	00010000 	andeq	r0, r1, r0
    1114:	0005f750 	andeq	pc, r5, r0, asr r7	; <UNPREDICTABLE>
    1118:	00062000 	andeq	r2, r6, r0
    111c:	f3000400 	vshl.u8	d0, d0, d0
    1120:	009f5001 	addseq	r5, pc, r1
    1124:	00000000 	andeq	r0, r0, r0
    1128:	68000000 	stmdavs	r0, {}	; <UNPREDICTABLE>
    112c:	83000008 	movwhi	r0, #8
    1130:	01000008 	tsteq	r0, r8
    1134:	08835000 	stmeq	r3, {ip, lr}
    1138:	08a40000 	stmiaeq	r4!, {}	; <UNPREDICTABLE>
    113c:	00040000 	andeq	r0, r4, r0
    1140:	9f5001f3 	svcls	0x005001f3
    1144:	000008a4 	andeq	r0, r0, r4, lsr #17
    1148:	000008ac 	andeq	r0, r0, ip, lsr #17
    114c:	ac500001 	mrrcge	0, 0, r0, r0, cr1	; <UNPREDICTABLE>
    1150:	b4000008 	strlt	r0, [r0], #-8
    1154:	01000008 	tsteq	r0, r8
    1158:	08b45200 	ldmeq	r4!, {r9, ip, lr}
    115c:	08bb0000 	ldmeq	fp!, {}	; <UNPREDICTABLE>
    1160:	00010000 	andeq	r0, r1, r0
    1164:	0008bb51 	andeq	fp, r8, r1, asr fp
    1168:	0008d800 	andeq	sp, r8, r0, lsl #16
    116c:	f3000400 	vshl.u8	d0, d0, d0
    1170:	009f5001 	addseq	r5, pc, r1
    1174:	00000000 	andeq	r0, r0, r0
    1178:	d8000000 	stmdale	r0, {}	; <UNPREDICTABLE>
    117c:	f3000008 	vhadd.u8	d0, d0, d8
    1180:	01000008 	tsteq	r0, r8
    1184:	08f35000 	ldmeq	r3!, {ip, lr}^
    1188:	09140000 	ldmdbeq	r4, {}	; <UNPREDICTABLE>
    118c:	00040000 	andeq	r0, r4, r0
    1190:	9f5001f3 	svcls	0x005001f3
    1194:	00000914 	andeq	r0, r0, r4, lsl r9
    1198:	0000091c 	andeq	r0, r0, ip, lsl r9
    119c:	1c500001 	mrrcne	0, 0, r0, r0, cr1	; <UNPREDICTABLE>
    11a0:	24000009 	strcs	r0, [r0], #-9
    11a4:	01000009 	tsteq	r0, r9
    11a8:	09245200 	stmdbeq	r4!, {r9, ip, lr}
    11ac:	092b0000 	stmdbeq	fp!, {}	; <UNPREDICTABLE>
    11b0:	00010000 	andeq	r0, r1, r0
    11b4:	00092b51 	andeq	r2, r9, r1, asr fp
    11b8:	00094c00 	andeq	r4, r9, r0, lsl #24
    11bc:	f3000400 	vshl.u8	d0, d0, d0
    11c0:	009f5001 	addseq	r5, pc, r1
    11c4:	00000000 	andeq	r0, r0, r0
    11c8:	4c000000 	stcmi	0, cr0, [r0], {-0}
    11cc:	54000009 	strpl	r0, [r0], #-9
    11d0:	01000009 	tsteq	r0, r9
    11d4:	09545000 	ldmdbeq	r4, {ip, lr}^
    11d8:	09600000 	stmdbeq	r0!, {}^	; <UNPREDICTABLE>
    11dc:	00050000 	andeq	r0, r5, r0
    11e0:	24440071 	strbcs	r0, [r4], #-113	; 0x71
    11e4:	0009609f 	muleq	r9, pc, r0	; <UNPREDICTABLE>
    11e8:	00096700 	andeq	r6, r9, r0, lsl #14
    11ec:	51000100 	mrspl	r0, (UNDEF: 16)
    11f0:	00000967 	andeq	r0, r0, r7, ror #18
    11f4:	00000970 	andeq	r0, r0, r0, ror r9
    11f8:	01f30008 	mvnseq	r0, r8
    11fc:	44254450 	strtmi	r4, [r5], #-1104	; 0x450
    1200:	00009f24 	andeq	r9, r0, r4, lsr #30
    1204:	00000000 	andeq	r0, r0, r0
    1208:	0a400000 	beq	1001210 <__bss_end__+0xff4a30>
    120c:	0a440000 	beq	1101214 <__bss_end__+0x10f4a34>
    1210:	00010000 	andeq	r0, r1, r0
    1214:	000a4450 	andeq	r4, sl, r0, asr r4
    1218:	000a4c00 	andeq	r4, sl, r0, lsl #24
    121c:	f3000400 	vshl.u8	d0, d0, d0
    1220:	009f5001 	addseq	r5, pc, r1
	...
    122c:	24000000 	strcs	r0, [r0], #-0
    1230:	01000000 	mrseq	r0, (UNDEF: 0)
    1234:	00245000 	eoreq	r5, r4, r0
    1238:	00e40000 	rsceq	r0, r4, r0
    123c:	00040000 	andeq	r0, r4, r0
    1240:	9f5001f3 	svcls	0x005001f3
    1244:	000000e4 	andeq	r0, r0, r4, ror #1
    1248:	000000e8 	andeq	r0, r0, r8, ror #1
    124c:	e8500001 	ldmda	r0, {r0}^
    1250:	f0000000 			; <UNDEFINED> instruction: 0xf0000000
    1254:	04000000 	streq	r0, [r0], #-0
    1258:	5001f300 	andpl	pc, r1, r0, lsl #6
    125c:	0000009f 	muleq	r0, pc, r0	; <UNPREDICTABLE>
	...
    1268:	00002000 	andeq	r2, r0, r0
    126c:	51000100 	mrspl	r0, (UNDEF: 16)
    1270:	00000020 	andeq	r0, r0, r0, lsr #32
    1274:	00000080 	andeq	r0, r0, r0, lsl #1
    1278:	9c510001 	mrrcls	0, 0, r0, r1, cr1
    127c:	a0000000 	andge	r0, r0, r0
    1280:	01000000 	mrseq	r0, (UNDEF: 0)
    1284:	00b85100 	adcseq	r5, r8, r0, lsl #2
    1288:	00c80000 	sbceq	r0, r8, r0
    128c:	00010000 	andeq	r0, r1, r0
    1290:	0000e451 	andeq	lr, r0, r1, asr r4
    1294:	0000e800 	andeq	lr, r0, r0, lsl #16
    1298:	51000100 	mrspl	r0, (UNDEF: 16)
	...
    12a4:	00000004 	andeq	r0, r0, r4
    12a8:	00000024 	andeq	r0, r0, r4, lsr #32
    12ac:	24500001 	ldrbcs	r0, [r0], #-1
    12b0:	90000000 	andls	r0, r0, r0
    12b4:	01000000 	mrseq	r0, (UNDEF: 0)
    12b8:	009c5300 	addseq	r5, ip, r0, lsl #6
    12bc:	00a40000 	adceq	r0, r4, r0
    12c0:	00010000 	andeq	r0, r1, r0
    12c4:	0000b853 	andeq	fp, r0, r3, asr r8
    12c8:	0000bc00 	andeq	fp, r0, r0, lsl #24
    12cc:	53000100 	movwpl	r0, #256	; 0x100
    12d0:	000000e4 	andeq	r0, r0, r4, ror #1
    12d4:	000000e8 	andeq	r0, r0, r8, ror #1
    12d8:	00500001 	subseq	r0, r0, r1
    12dc:	00000000 	andeq	r0, r0, r0
    12e0:	08000000 	stmdaeq	r0, {}	; <UNPREDICTABLE>
    12e4:	20000000 	andcs	r0, r0, r0
    12e8:	01000000 	mrseq	r0, (UNDEF: 0)
    12ec:	00205100 	eoreq	r5, r0, r0, lsl #2
    12f0:	00340000 	eorseq	r0, r4, r0
    12f4:	00010000 	andeq	r0, r1, r0
    12f8:	00003452 	andeq	r3, r0, r2, asr r4
    12fc:	00004800 	andeq	r4, r0, r0, lsl #16
    1300:	50000100 	andpl	r0, r0, r0, lsl #2
    1304:	00000048 	andeq	r0, r0, r8, asr #32
    1308:	000000cc 	andeq	r0, r0, ip, asr #1
    130c:	cc520001 	mrrcgt	0, 0, r0, r2, cr1
    1310:	e0000000 	and	r0, r0, r0
    1314:	01000000 	mrseq	r0, (UNDEF: 0)
    1318:	00e45000 	rsceq	r5, r4, r0
    131c:	00e80000 	rsceq	r0, r8, r0
    1320:	00010000 	andeq	r0, r1, r0
    1324:	00000051 	andeq	r0, r0, r1, asr r0
    1328:	00000000 	andeq	r0, r0, r0
    132c:	00004400 	andeq	r4, r0, r0, lsl #8
    1330:	00004800 	andeq	r4, r0, r0, lsl #16
    1334:	52000100 	andpl	r0, r0, #0, 2
    1338:	00000048 	andeq	r0, r0, r8, asr #32
    133c:	0000004c 	andeq	r0, r0, ip, asr #32
    1340:	007c0012 	rsbseq	r0, ip, r2, lsl r0
    1344:	02732438 	rsbseq	r2, r3, #56, 8	; 0x38000000
    1348:	ff080194 			; <UNDEFINED> instruction: 0xff080194
    134c:	243b221a 	ldrtcs	r2, [fp], #-538	; 0x21a
    1350:	9f270070 	svcls	0x00270070
    1354:	0000004c 	andeq	r0, r0, ip, asr #32
    1358:	00000054 	andeq	r0, r0, r4, asr r0
    135c:	007c0012 	rsbseq	r0, ip, r2, lsl r0
    1360:	7e732438 	mrcvc	4, 3, r2, cr3, cr8, {1}
    1364:	ff080194 			; <UNDEFINED> instruction: 0xff080194
    1368:	243b221a 	ldrtcs	r2, [fp], #-538	; 0x21a
    136c:	9f270070 	svcls	0x00270070
	...
    1378:	0000001c 	andeq	r0, r0, ip, lsl r0
    137c:	000000e4 	andeq	r0, r0, r4, ror #1
    1380:	00540001 	subseq	r0, r4, r1
	...
    138c:	04000000 	streq	r0, [r0], #-0
    1390:	01000000 	mrseq	r0, (UNDEF: 0)
    1394:	00045200 	andeq	r5, r4, r0, lsl #4
    1398:	00200000 	eoreq	r0, r0, r0
    139c:	00040000 	andeq	r0, r4, r0
    13a0:	9f5201f3 	svcls	0x005201f3
	...
    13b0:	0000000c 	andeq	r0, r0, ip
    13b4:	0c500001 	mrrceq	0, 0, r0, r0, cr1	; <UNPREDICTABLE>
    13b8:	14000000 	strne	r0, [r0], #-0
    13bc:	03000000 	movweq	r0, #0
    13c0:	9f017300 	svcls	0x00017300
    13c4:	00000014 	andeq	r0, r0, r4, lsl r0
    13c8:	00000020 	andeq	r0, r0, r0, lsr #32
    13cc:	00530001 	subseq	r0, r3, r1
    13d0:	00000000 	andeq	r0, r0, r0
    13d4:	2c000000 	stccs	0, cr0, [r0], {-0}
    13d8:	38000000 	stmdacc	r0, {}	; <UNPREDICTABLE>
    13dc:	01000000 	mrseq	r0, (UNDEF: 0)
    13e0:	00385000 	eorseq	r5, r8, r0
    13e4:	00480000 	subeq	r0, r8, r0
    13e8:	00010000 	andeq	r0, r1, r0
    13ec:	00004855 	andeq	r4, r0, r5, asr r8
    13f0:	00005800 	andeq	r5, r0, r0, lsl #16
    13f4:	50000100 	andpl	r0, r0, r0, lsl #2
	...
    1404:	0000000b 	andeq	r0, r0, fp
    1408:	0b500001 	bleq	1401414 <__bss_end__+0x13f4c34>
    140c:	14000000 	strne	r0, [r0], #-0
    1410:	01000000 	mrseq	r0, (UNDEF: 0)
    1414:	00005400 	andeq	r5, r0, r0, lsl #8
	...
    1420:	00100000 	andseq	r0, r0, r0
    1424:	00010000 	andeq	r0, r1, r0
    1428:	00001050 	andeq	r1, r0, r0, asr r0
    142c:	00003400 	andeq	r3, r0, r0, lsl #8
    1430:	54000100 	strpl	r0, [r0], #-256	; 0x100
	...
    1440:	00000004 	andeq	r0, r0, r4
    1444:	04500001 	ldrbeq	r0, [r0], #-1
    1448:	0c000000 	stceq	0, cr0, [r0], {-0}
    144c:	03000000 	movweq	r0, #0
    1450:	9f307000 	svcls	0x00307000
    1454:	0000000c 	andeq	r0, r0, ip
    1458:	00000014 	andeq	r0, r0, r4, lsl r0
    145c:	01f30004 	mvnseq	r0, r4
    1460:	00009f50 	andeq	r9, r0, r0, asr pc
    1464:	00000000 	andeq	r0, r0, r0
    1468:	00140000 	andseq	r0, r4, r0
    146c:	00200000 	eoreq	r0, r0, r0
    1470:	00010000 	andeq	r0, r1, r0
    1474:	00002050 	andeq	r2, r0, r0, asr r0
    1478:	00002c00 	andeq	r2, r0, r0, lsl #24
    147c:	70000300 	andvc	r0, r0, r0, lsl #6
    1480:	002c9f01 	eoreq	r9, ip, r1, lsl #30
    1484:	00400000 	subeq	r0, r0, r0
    1488:	00010000 	andeq	r0, r1, r0
    148c:	00000050 	andeq	r0, r0, r0, asr r0
    1490:	00000000 	andeq	r0, r0, r0
    1494:	00001400 	andeq	r1, r0, r0, lsl #8
    1498:	00001800 	andeq	r1, r0, r0, lsl #16
    149c:	51000100 	mrspl	r0, (UNDEF: 16)
    14a0:	00000018 	andeq	r0, r0, r8, lsl r0
    14a4:	00000040 	andeq	r0, r0, r0, asr #32
    14a8:	01f30004 	mvnseq	r0, r4
    14ac:	00009f51 	andeq	r9, r0, r1, asr pc
    14b0:	00000000 	andeq	r0, r0, r0
    14b4:	00400000 	subeq	r0, r0, r0
    14b8:	00600000 	rsbeq	r0, r0, r0
    14bc:	00010000 	andeq	r0, r1, r0
    14c0:	00006050 	andeq	r6, r0, r0, asr r0
    14c4:	00006c00 	andeq	r6, r0, r0, lsl #24
    14c8:	71000300 	mrsvc	r0, LR_irq
    14cc:	006c9f01 	rsbeq	r9, ip, r1, lsl #30
    14d0:	00740000 	rsbseq	r0, r4, r0
    14d4:	00010000 	andeq	r0, r1, r0
    14d8:	00007451 	andeq	r7, r0, r1, asr r4
    14dc:	00008000 	andeq	r8, r0, r0
    14e0:	71000300 	mrsvc	r0, LR_irq
    14e4:	00009f01 	andeq	r9, r0, r1, lsl #30
    14e8:	00000000 	andeq	r0, r0, r0
    14ec:	00400000 	subeq	r0, r0, r0
    14f0:	00500000 	subseq	r0, r0, r0
    14f4:	00010000 	andeq	r0, r1, r0
    14f8:	00005051 	andeq	r5, r0, r1, asr r0
    14fc:	00008000 	andeq	r8, r0, r0
    1500:	f3000400 	vshl.u8	d0, d0, d0
    1504:	009f5101 	addseq	r5, pc, r1, lsl #2
    1508:	00000000 	andeq	r0, r0, r0
    150c:	40000000 	andmi	r0, r0, r0
    1510:	58000000 	stmdapl	r0, {}	; <UNPREDICTABLE>
    1514:	01000000 	mrseq	r0, (UNDEF: 0)
    1518:	00585200 	subseq	r5, r8, r0, lsl #4
    151c:	00640000 	rsbeq	r0, r4, r0
    1520:	00010000 	andeq	r0, r1, r0
    1524:	00006452 	andeq	r6, r0, r2, asr r4
    1528:	00006800 	andeq	r6, r0, r0, lsl #16
    152c:	72000300 	andvc	r0, r0, #0, 6
    1530:	00689f01 	rsbeq	r9, r8, r1, lsl #30
    1534:	00800000 	addeq	r0, r0, r0
    1538:	00010000 	andeq	r0, r1, r0
    153c:	00000052 	andeq	r0, r0, r2, asr r0
    1540:	00000000 	andeq	r0, r0, r0
    1544:	00004000 	andeq	r4, r0, r0
    1548:	00005400 	andeq	r5, r0, r0, lsl #8
    154c:	53000100 	movwpl	r0, #256	; 0x100
    1550:	00000054 	andeq	r0, r0, r4, asr r0
    1554:	00000078 	andeq	r0, r0, r8, ror r0
    1558:	00530001 	subseq	r0, r3, r1
    155c:	00000000 	andeq	r0, r0, r0
    1560:	48000000 	stmdami	r0, {}	; <UNPREDICTABLE>
    1564:	60000000 	andvs	r0, r0, r0
    1568:	01000000 	mrseq	r0, (UNDEF: 0)
    156c:	00605c00 	rsbeq	r5, r0, r0, lsl #24
    1570:	00800000 	addeq	r0, r0, r0
    1574:	000a0000 	andeq	r0, sl, r0
    1578:	f35201f3 	vbsl	q8, q9, <illegal reg q9.5>
    157c:	231c5301 	tstcs	ip, #67108864	; 0x4000000
    1580:	00009f01 	andeq	r9, r0, r1, lsl #30
    1584:	00000000 	andeq	r0, r0, r0
    1588:	00800000 	addeq	r0, r0, r0
    158c:	00a40000 	adceq	r0, r4, r0
    1590:	00010000 	andeq	r0, r1, r0
    1594:	0000a450 	andeq	sl, r0, r0, asr r4
    1598:	00011800 	andeq	r1, r1, r0, lsl #16
    159c:	70000300 	andvc	r0, r0, r0, lsl #6
    15a0:	01189f02 	tsteq	r8, r2, lsl #30
    15a4:	023c0000 	eorseq	r0, ip, #0
    15a8:	00040000 	andeq	r0, r4, r0
    15ac:	9f5001f3 	svcls	0x005001f3
	...
    15b8:	00000080 	andeq	r0, r0, r0, lsl #1
    15bc:	000000f0 	strdeq	r0, [r0], -r0	; <UNPREDICTABLE>
    15c0:	f0510001 			; <UNDEFINED> instruction: 0xf0510001
    15c4:	60000000 	andvs	r0, r0, r0
    15c8:	01000001 	tsteq	r0, r1
    15cc:	01605500 	cmneq	r0, r0, lsl #10
    15d0:	016c0000 	cmneq	ip, r0
    15d4:	00010000 	andeq	r0, r1, r0
    15d8:	00016c51 	andeq	r6, r1, r1, asr ip
    15dc:	0001a000 	andeq	sl, r1, r0
    15e0:	55000100 	strpl	r0, [r0, #-256]	; 0x100
    15e4:	000001a0 	andeq	r0, r0, r0, lsr #3
    15e8:	000001b4 			; <UNDEFINED> instruction: 0x000001b4
    15ec:	b4510001 	ldrblt	r0, [r1], #-1
    15f0:	d4000001 	strle	r0, [r0], #-1
    15f4:	01000001 	tsteq	r0, r1
    15f8:	01d45500 	bicseq	r5, r4, r0, lsl #10
    15fc:	01d70000 	bicseq	r0, r7, r0
    1600:	00010000 	andeq	r0, r1, r0
    1604:	0001d751 	andeq	sp, r1, r1, asr r7
    1608:	00021c00 	andeq	r1, r2, r0, lsl #24
    160c:	55000100 	strpl	r0, [r0, #-256]	; 0x100
    1610:	0000021c 	andeq	r0, r0, ip, lsl r2
    1614:	0000023c 	andeq	r0, r0, ip, lsr r2
    1618:	01f30004 	mvnseq	r0, r4
    161c:	00009f51 	andeq	r9, r0, r1, asr pc
    1620:	00000000 	andeq	r0, r0, r0
    1624:	00800000 	addeq	r0, r0, r0
    1628:	00940000 	addseq	r0, r4, r0
    162c:	00010000 	andeq	r0, r1, r0
    1630:	00009452 	andeq	r9, r0, r2, asr r4
    1634:	00021c00 	andeq	r1, r2, r0, lsl #24
    1638:	54000100 	strpl	r0, [r0], #-256	; 0x100
    163c:	0000021c 	andeq	r0, r0, ip, lsl r2
    1640:	0000023c 	andeq	r0, r0, ip, lsr r2
    1644:	01f30004 	mvnseq	r0, r4
    1648:	00009f52 	andeq	r9, r0, r2, asr pc
    164c:	00000000 	andeq	r0, r0, r0
    1650:	00800000 	addeq	r0, r0, r0
    1654:	01000000 	mrseq	r0, (UNDEF: 0)
    1658:	00010000 	andeq	r0, r1, r0
    165c:	00010453 	andeq	r0, r1, r3, asr r4
    1660:	00010800 	andeq	r0, r1, r0, lsl #16
    1664:	53000100 	movwpl	r0, #256	; 0x100
    1668:	00000160 	andeq	r0, r0, r0, ror #2
    166c:	00000164 	andeq	r0, r0, r4, ror #2
    1670:	64530001 	ldrbvs	r0, [r3], #-1
    1674:	6c000001 	stcvs	0, cr0, [r0], {1}
    1678:	01000001 	tsteq	r0, r1
    167c:	016c5c00 	cmneq	ip, r0, lsl #24
    1680:	01a00000 	moveq	r0, r0
    1684:	00040000 	andeq	r0, r4, r0
    1688:	9f5301f3 	svcls	0x005301f3
    168c:	000001a0 	andeq	r0, r0, r0, lsr #3
    1690:	000001b0 			; <UNDEFINED> instruction: 0x000001b0
    1694:	b0530001 	subslt	r0, r3, r1
    1698:	b4000001 	strlt	r0, [r0], #-1
    169c:	01000001 	tsteq	r0, r1
    16a0:	01b45c00 			; <UNDEFINED> instruction: 0x01b45c00
    16a4:	01d40000 	bicseq	r0, r4, r0
    16a8:	00040000 	andeq	r0, r4, r0
    16ac:	9f5301f3 	svcls	0x005301f3
    16b0:	000001d4 	ldrdeq	r0, [r0], -r4
    16b4:	000001d7 	ldrdeq	r0, [r0], -r7
    16b8:	d7530001 	ldrble	r0, [r3, -r1]
    16bc:	f8000001 			; <UNDEFINED> instruction: 0xf8000001
    16c0:	04000001 	streq	r0, [r0], #-1
    16c4:	5301f300 	movwpl	pc, #4864	; 0x1300	; <UNPREDICTABLE>
    16c8:	0000009f 	muleq	r0, pc, r0	; <UNPREDICTABLE>
    16cc:	00000000 	andeq	r0, r0, r0
    16d0:	00008000 	andeq	r8, r0, r0
    16d4:	00009c00 	andeq	r9, r0, r0, lsl #24
    16d8:	91000200 	mrsls	r0, R8_usr
    16dc:	00009c00 	andeq	r9, r0, r0, lsl #24
    16e0:	0001d700 	andeq	sp, r1, r0, lsl #14
    16e4:	52000100 	andpl	r0, r0, #0, 2
    16e8:	000001f8 	strdeq	r0, [r0], -r8
    16ec:	000001ff 	strdeq	r0, [r0], -pc	; <UNPREDICTABLE>
    16f0:	00520001 	subseq	r0, r2, r1
    16f4:	00000000 	andeq	r0, r0, r0
    16f8:	9c000000 	stcls	0, cr0, [r0], {-0}
    16fc:	0c000000 	stceq	0, cr0, [r0], {-0}
    1700:	04000001 	streq	r0, [r0], #-1
    1704:	7fa09100 	svcvc	0x00a09100
    1708:	00010c9f 	muleq	r1, pc, ip	; <UNPREDICTABLE>
    170c:	00011800 	andeq	r1, r1, r0, lsl #16
    1710:	51000100 	mrspl	r0, (UNDEF: 16)
    1714:	00000118 	andeq	r0, r0, r8, lsl r1
    1718:	0000011c 	andeq	r0, r0, ip, lsl r1
    171c:	1c500001 	mrrcne	0, 0, r0, r0, cr1	; <UNPREDICTABLE>
    1720:	20000001 	andcs	r0, r0, r1
    1724:	01000001 	tsteq	r0, r1
    1728:	01205100 	teqeq	r0, r0, lsl #2
    172c:	01600000 	cmneq	r0, r0
    1730:	00010000 	andeq	r0, r1, r0
    1734:	00016050 	andeq	r6, r1, r0, asr r0
    1738:	00016400 	andeq	r6, r1, r0, lsl #8
    173c:	91000400 	tstls	r0, r0, lsl #8
    1740:	649f7fa0 	ldrvs	r7, [pc], #4000	; 1748 <__code_start__-0x68b8>
    1744:	6c000001 	stcvs	0, cr0, [r0], {1}
    1748:	01000001 	tsteq	r0, r1
    174c:	016c5300 	cmneq	ip, r0, lsl #6
    1750:	01700000 	cmneq	r0, r0
    1754:	00010000 	andeq	r0, r1, r0
    1758:	00017050 	andeq	r7, r1, r0, asr r0
    175c:	00017400 	andeq	r7, r1, r0, lsl #8
    1760:	53000100 	movwpl	r0, #256	; 0x100
    1764:	00000174 	andeq	r0, r0, r4, ror r1
    1768:	00000188 	andeq	r0, r0, r8, lsl #3
    176c:	88500001 	ldmdahi	r0, {r0}^
    1770:	94000001 	strls	r0, [r0], #-1
    1774:	03000001 	movweq	r0, #1
    1778:	9f017000 	svcls	0x00017000
    177c:	00000194 	muleq	r0, r4, r1
    1780:	000001a0 	andeq	r0, r0, r0, lsr #3
    1784:	a0500001 	subsge	r0, r0, r1
    1788:	a8000001 	stmdage	r0, {r0}
    178c:	04000001 	streq	r0, [r0], #-1
    1790:	7fa19100 	svcvc	0x00a19100
    1794:	0001a89f 	muleq	r1, pc, r8	; <UNPREDICTABLE>
    1798:	0001ac00 	andeq	sl, r1, r0, lsl #24
    179c:	50000100 	andpl	r0, r0, r0, lsl #2
    17a0:	000001ac 	andeq	r0, r0, ip, lsr #3
    17a4:	000001b0 			; <UNDEFINED> instruction: 0x000001b0
    17a8:	a0910004 	addsge	r0, r1, r4
    17ac:	01b09f7f 	rorseq	r9, pc, pc
    17b0:	01b80000 			; <UNDEFINED> instruction: 0x01b80000
    17b4:	00010000 	andeq	r0, r1, r0
    17b8:	0001b853 	andeq	fp, r1, r3, asr r8
    17bc:	0001d400 	andeq	sp, r1, r0, lsl #8
    17c0:	50000100 	andpl	r0, r0, r0, lsl #2
    17c4:	000001d4 	ldrdeq	r0, [r0], -r4
    17c8:	000001f8 	strdeq	r0, [r0], -r8
    17cc:	a0910004 	addsge	r0, r1, r4
    17d0:	01f89f7f 	mvnseq	r9, pc, ror pc
    17d4:	01ff0000 	mvnseq	r0, r0
    17d8:	00010000 	andeq	r0, r1, r0
    17dc:	00000050 	andeq	r0, r0, r0, asr r0
    17e0:	00000000 	andeq	r0, r0, r0
    17e4:	0000a000 	andeq	sl, r0, r0
    17e8:	0000ec00 	andeq	lr, r0, r0, lsl #24
    17ec:	5c000100 	stfpls	f0, [r0], {-0}
    17f0:	000000ec 	andeq	r0, r0, ip, ror #1
    17f4:	00000100 	andeq	r0, r0, r0, lsl #2
    17f8:	00530001 	subseq	r0, r3, r1
    17fc:	04000001 	streq	r0, [r0], #-1
    1800:	01000001 	tsteq	r0, r1
    1804:	01045c00 	tsteq	r4, r0, lsl #24
    1808:	01080000 	mrseq	r0, (UNDEF: 8)
    180c:	00010000 	andeq	r0, r1, r0
    1810:	00010853 	andeq	r0, r1, r3, asr r8
    1814:	00016000 	andeq	r6, r1, r0
    1818:	5c000100 	stfpls	f0, [r0], {-0}
    181c:	00000160 	andeq	r0, r0, r0, ror #2
    1820:	00000164 	andeq	r0, r0, r4, ror #2
    1824:	64530001 	ldrbvs	r0, [r3], #-1
    1828:	80000001 	andhi	r0, r0, r1
    182c:	01000001 	tsteq	r0, r1
    1830:	01805c00 	orreq	r5, r0, r0, lsl #24
    1834:	01840000 	orreq	r0, r4, r0
    1838:	00050000 	andeq	r0, r5, r0
    183c:	2534007c 	ldrcs	r0, [r4, #-124]!	; 0x7c
    1840:	0001849f 	muleq	r1, pc, r4	; <UNPREDICTABLE>
    1844:	0001a000 	andeq	sl, r1, r0
    1848:	5c000100 	stfpls	f0, [r0], {-0}
    184c:	000001a0 	andeq	r0, r0, r0, lsr #3
    1850:	000001b0 			; <UNDEFINED> instruction: 0x000001b0
    1854:	b0530001 	subslt	r0, r3, r1
    1858:	c4000001 	strgt	r0, [r0], #-1
    185c:	01000001 	tsteq	r0, r1
    1860:	01c45c00 	biceq	r5, r4, r0, lsl #24
    1864:	01cc0000 	biceq	r0, ip, r0
    1868:	00050000 	andeq	r0, r5, r0
    186c:	2531007c 	ldrcs	r0, [r1, #-124]!	; 0x7c
    1870:	0001cc9f 	muleq	r1, pc, ip	; <UNPREDICTABLE>
    1874:	0001d400 	andeq	sp, r1, r0, lsl #8
    1878:	5c000100 	stfpls	f0, [r0], {-0}
    187c:	000001d4 	ldrdeq	r0, [r0], -r4
    1880:	000001d7 	ldrdeq	r0, [r0], -r7
    1884:	d7530001 	ldrble	r0, [r3, -r1]
    1888:	f8000001 			; <UNDEFINED> instruction: 0xf8000001
    188c:	04000001 	streq	r0, [r0], #-1
    1890:	5301f300 	movwpl	pc, #4864	; 0x1300	; <UNPREDICTABLE>
    1894:	0001f89f 	muleq	r1, pc, r8	; <UNPREDICTABLE>
    1898:	0001ff00 	andeq	pc, r1, r0, lsl #30
    189c:	5c000100 	stfpls	f0, [r0], {-0}
	...
    18a8:	000000ec 	andeq	r0, r0, ip, ror #1
    18ac:	000000fc 	strdeq	r0, [r0], -ip
    18b0:	9f300002 	svcls	0x00300002
    18b4:	000000fc 	strdeq	r0, [r0], -ip
    18b8:	00000104 	andeq	r0, r0, r4, lsl #2
    18bc:	9f310002 	svcls	0x00310002
    18c0:	00000104 	andeq	r0, r0, r4, lsl #2
    18c4:	00000108 	andeq	r0, r0, r8, lsl #2
    18c8:	9f300002 	svcls	0x00300002
	...
    18d4:	0000023c 	andeq	r0, r0, ip, lsr r2
    18d8:	0000024f 	andeq	r0, r0, pc, asr #4
    18dc:	4f500001 	svcmi	0x00500001
    18e0:	70000002 	andvc	r0, r0, r2
    18e4:	04000002 	streq	r0, [r0], #-2
    18e8:	5001f300 	andpl	pc, r1, r0, lsl #6
    18ec:	0002709f 	muleq	r2, pc, r0	; <UNPREDICTABLE>
    18f0:	0002a400 	andeq	sl, r2, r0, lsl #8
    18f4:	50000100 	andpl	r0, r0, r0, lsl #2
	...
    1900:	0000023c 	andeq	r0, r0, ip, lsr r2
    1904:	0000024f 	andeq	r0, r0, pc, asr #4
    1908:	4f510001 	svcmi	0x00510001
    190c:	70000002 	andvc	r0, r0, r2
    1910:	04000002 	streq	r0, [r0], #-2
    1914:	5101f300 	mrspl	pc, SP_irq	; <UNPREDICTABLE>
    1918:	0002709f 	muleq	r2, pc, r0	; <UNPREDICTABLE>
    191c:	0002a400 	andeq	sl, r2, r0, lsl #8
    1920:	51000100 	mrspl	r0, (UNDEF: 16)
	...
    192c:	000002a4 	andeq	r0, r0, r4, lsr #5
    1930:	000002d4 	ldrdeq	r0, [r0], -r4
    1934:	d4500001 	ldrble	r0, [r0], #-1
    1938:	58000002 	stmdapl	r0, {r1}
    193c:	01000005 	tsteq	r0, r5
    1940:	05585b00 	ldrbeq	r5, [r8, #-2816]	; 0xb00
    1944:	05780000 	ldrbeq	r0, [r8, #-0]!
    1948:	00040000 	andeq	r0, r4, r0
    194c:	9f5001f3 	svcls	0x005001f3
	...
    1958:	000002a4 	andeq	r0, r0, r4, lsr #5
    195c:	000002bc 			; <UNDEFINED> instruction: 0x000002bc
    1960:	bc510001 	mrrclt	0, 0, r0, r1, cr1
    1964:	d4000002 	strle	r0, [r0], #-2
    1968:	03000002 	movweq	r0, #2
    196c:	9f017100 	svcls	0x00017100
    1970:	000002d4 	ldrdeq	r0, [r0], -r4
    1974:	00000578 	andeq	r0, r0, r8, ror r5
    1978:	01f30004 	mvnseq	r0, r4
    197c:	00009f51 	andeq	r9, r0, r1, asr pc
    1980:	00000000 	andeq	r0, r0, r0
    1984:	02a40000 	adceq	r0, r4, #0
    1988:	02d40000 	sbcseq	r0, r4, #0
    198c:	00010000 	andeq	r0, r1, r0
    1990:	0002d452 	andeq	sp, r2, r2, asr r4
    1994:	00055800 	andeq	r5, r5, r0, lsl #16
    1998:	56000100 	strpl	r0, [r0], -r0, lsl #2
	...
    19a4:	000002a4 	andeq	r0, r0, r4, lsr #5
    19a8:	000002c4 	andeq	r0, r0, r4, asr #5
    19ac:	00530001 	subseq	r0, r3, r1
    19b0:	00000000 	andeq	r0, r0, r0
    19b4:	b8000000 	stmdalt	r0, {}	; <UNPREDICTABLE>
    19b8:	d4000002 	strle	r0, [r0], #-2
    19bc:	01000002 	tsteq	r0, r2
    19c0:	02d45000 	sbcseq	r5, r4, #0
    19c4:	02d80000 	sbcseq	r0, r8, #0
    19c8:	00010000 	andeq	r0, r1, r0
    19cc:	0002d854 	andeq	sp, r2, r4, asr r8
    19d0:	0002e400 	andeq	lr, r2, r0, lsl #8
    19d4:	74000300 	strvc	r0, [r0], #-768	; 0x300
    19d8:	02e49f01 	rsceq	r9, r4, #1, 30
    19dc:	02f00000 	rscseq	r0, r0, #0
    19e0:	00010000 	andeq	r0, r1, r0
    19e4:	0002f054 	andeq	pc, r2, r4, asr r0	; <UNPREDICTABLE>
    19e8:	0002fc00 	andeq	pc, r2, r0, lsl #24
    19ec:	74000300 	strvc	r0, [r0], #-768	; 0x300
    19f0:	02fc9f01 	rscseq	r9, ip, #1, 30
    19f4:	050c0000 	streq	r0, [ip, #-0]
    19f8:	00010000 	andeq	r0, r1, r0
    19fc:	00050c54 	andeq	r0, r5, r4, asr ip
    1a00:	00051800 	andeq	r1, r5, r0, lsl #16
    1a04:	74000300 	strvc	r0, [r0], #-768	; 0x300
    1a08:	05189f01 	ldreq	r9, [r8, #-3841]	; 0xf01
    1a0c:	05440000 	strbeq	r0, [r4, #-0]
    1a10:	00010000 	andeq	r0, r1, r0
    1a14:	00054454 	andeq	r4, r5, r4, asr r4
    1a18:	00055000 	andeq	r5, r5, r0
    1a1c:	50000100 	andpl	r0, r0, r0, lsl #2
    1a20:	00000550 	andeq	r0, r0, r0, asr r5
    1a24:	00000558 	andeq	r0, r0, r8, asr r5
    1a28:	01740003 	cmneq	r4, r3
    1a2c:	0000009f 	muleq	r0, pc, r0	; <UNPREDICTABLE>
    1a30:	00000000 	andeq	r0, r0, r0
    1a34:	0002c000 	andeq	ip, r2, r0
    1a38:	00055800 	andeq	r5, r5, r0, lsl #16
    1a3c:	58000100 	stmdapl	r0, {r8}
    1a40:	00000558 	andeq	r0, r0, r8, asr r5
    1a44:	00000578 	andeq	r0, r0, r8, ror r5
    1a48:	01f3000a 	mvnseq	r0, sl
    1a4c:	5001f351 	andpl	pc, r1, r1, asr r3	; <UNPREDICTABLE>
    1a50:	9f1c3122 	svcls	0x001c3122
	...
    1a5c:	000002c8 	andeq	r0, r0, r8, asr #5
    1a60:	000002d4 	ldrdeq	r0, [r0], -r4
    1a64:	d4520001 	ldrble	r0, [r2], #-1
    1a68:	78000002 	stmdavc	r0, {r1}
    1a6c:	03000005 	movweq	r0, #5
    1a70:	7ecc9100 	acsvce	f1, f0
	...
    1a7c:	00000410 	andeq	r0, r0, r0, lsl r4
    1a80:	00000414 	andeq	r0, r0, r4, lsl r4
    1a84:	38500001 	ldmdacc	r0, {r0}^
    1a88:	3c000004 	stccc	0, cr0, [r0], {4}
    1a8c:	01000004 	tsteq	r0, r4
    1a90:	04605000 	strbteq	r5, [r0], #-0
    1a94:	04640000 	strbteq	r0, [r4], #-0
    1a98:	00010000 	andeq	r0, r1, r0
    1a9c:	00048850 	andeq	r8, r4, r0, asr r8
    1aa0:	00048c00 	andeq	r8, r4, r0, lsl #24
    1aa4:	50000100 	andpl	r0, r0, r0, lsl #2
    1aa8:	00000494 	muleq	r0, r4, r4
    1aac:	00000498 	muleq	r0, r8, r4
    1ab0:	bc500001 	mrrclt	0, 0, r0, r0, cr1	; <UNPREDICTABLE>
    1ab4:	c0000004 	andgt	r0, r0, r4
    1ab8:	01000004 	tsteq	r0, r4
    1abc:	05045000 	streq	r5, [r4, #-0]
    1ac0:	052c0000 	streq	r0, [ip, #-0]!
    1ac4:	00010000 	andeq	r0, r1, r0
    1ac8:	00000050 	andeq	r0, r0, r0, asr r0
    1acc:	00000000 	andeq	r0, r0, r0
    1ad0:	00030400 	andeq	r0, r3, r0, lsl #8
    1ad4:	00030c00 	andeq	r0, r3, r0, lsl #24
    1ad8:	30000200 	andcc	r0, r0, r0, lsl #4
    1adc:	00030c9f 	muleq	r3, pc, ip	; <UNPREDICTABLE>
    1ae0:	00031000 	andeq	r1, r3, r0
    1ae4:	57000100 	strpl	r0, [r0, -r0, lsl #2]
    1ae8:	0000031c 	andeq	r0, r0, ip, lsl r3
    1aec:	0000052c 	andeq	r0, r0, ip, lsr #10
    1af0:	00570001 	subseq	r0, r7, r1
    1af4:	00000000 	andeq	r0, r0, r0
    1af8:	14000000 	strne	r0, [r0], #-0
    1afc:	1c000000 	stcne	0, cr0, [r0], {-0}
    1b00:	03000000 	movweq	r0, #0
    1b04:	9f047300 	svcls	0x00047300
    1b08:	0000001c 	andeq	r0, r0, ip, lsl r0
    1b0c:	00000027 	andeq	r0, r0, r7, lsr #32
    1b10:	00530001 	subseq	r0, r3, r1
	...
    1b1c:	0f000000 	svceq	0x00000000
    1b20:	01000000 	mrseq	r0, (UNDEF: 0)
    1b24:	000f5000 	andeq	r5, pc, r0
    1b28:	00440000 	subeq	r0, r4, r0
    1b2c:	00010000 	andeq	r0, r1, r0
    1b30:	00000054 	andeq	r0, r0, r4, asr r0
	...
    1b3c:	00000f00 	andeq	r0, r0, r0, lsl #30
    1b40:	50000100 	andpl	r0, r0, r0, lsl #2
    1b44:	0000000f 	andeq	r0, r0, pc
    1b48:	00000044 	andeq	r0, r0, r4, asr #32
    1b4c:	00540001 	subseq	r0, r4, r1
	...
    1b58:	0f000000 	svceq	0x00000000
    1b5c:	01000000 	mrseq	r0, (UNDEF: 0)
    1b60:	000f5000 	andeq	r5, pc, r0
    1b64:	00440000 	subeq	r0, r4, r0
    1b68:	00010000 	andeq	r0, r1, r0
    1b6c:	00000054 	andeq	r0, r0, r4, asr r0
	...
    1b78:	00000f00 	andeq	r0, r0, r0, lsl #30
    1b7c:	50000100 	andpl	r0, r0, r0, lsl #2
    1b80:	0000000f 	andeq	r0, r0, pc
    1b84:	00000044 	andeq	r0, r0, r4, asr #32
    1b88:	00540001 	subseq	r0, r4, r1
    1b8c:	00000000 	andeq	r0, r0, r0
    1b90:	34000000 	strcc	r0, [r0], #-0
    1b94:	40000000 	andmi	r0, r0, r0
    1b98:	02000000 	andeq	r0, r0, #0
    1b9c:	409f3000 	addsmi	r3, pc, r0
    1ba0:	6c000000 	stcvs	0, cr0, [r0], {-0}
    1ba4:	01000000 	mrseq	r0, (UNDEF: 0)
    1ba8:	00005300 	andeq	r5, r0, r0, lsl #6
    1bac:	00000000 	andeq	r0, r0, r0
    1bb0:	ab500000 	blge	1401bb8 <__bss_end__+0x13f53d8>
    1bb4:	ab540000 	blge	1501bbc <__bss_end__+0x14f53dc>
    1bb8:	00020000 	andeq	r0, r2, r0
    1bbc:	ab549f30 	blge	1529884 <__bss_end__+0x151d0a4>
    1bc0:	ab580000 	blge	1601bc8 <__bss_end__+0x15f53e8>
    1bc4:	00010000 	andeq	r0, r1, r0
    1bc8:	00000050 	andeq	r0, r0, r0, asr r0
    1bcc:	00000000 	andeq	r0, r0, r0
    1bd0:	00ab6800 	adceq	r6, fp, r0, lsl #16
    1bd4:	00ab6c00 	adceq	r6, fp, r0, lsl #24
    1bd8:	30000200 	andcc	r0, r0, r0, lsl #4
    1bdc:	00ab6c9f 	umlaleq	r6, fp, pc, ip	; <UNPREDICTABLE>
    1be0:	00ab7000 	adceq	r7, fp, r0
    1be4:	53000100 	movwpl	r0, #256	; 0x100
    1be8:	0000ab74 	andeq	sl, r0, r4, ror fp
    1bec:	0000ab7c 	andeq	sl, r0, ip, ror fp
    1bf0:	00530001 	subseq	r0, r3, r1
	...
    1bfc:	04000000 	streq	r0, [r0], #-0
    1c00:	01000000 	mrseq	r0, (UNDEF: 0)
    1c04:	00045000 	andeq	r5, r4, r0
    1c08:	000c0000 	andeq	r0, ip, r0
    1c0c:	00010000 	andeq	r0, r1, r0
    1c10:	00000c53 	andeq	r0, r0, r3, asr ip
    1c14:	00001000 	andeq	r1, r0, r0
    1c18:	50000100 	andpl	r0, r0, r0, lsl #2
    1c1c:	00000010 	andeq	r0, r0, r0, lsl r0
    1c20:	0000001c 	andeq	r0, r0, ip, lsl r0
    1c24:	00530001 	subseq	r0, r3, r1
    1c28:	00000000 	andeq	r0, r0, r0
    1c2c:	40000000 	andmi	r0, r0, r0
    1c30:	43000000 	movwmi	r0, #0
    1c34:	01000000 	mrseq	r0, (UNDEF: 0)
    1c38:	00435000 	subeq	r5, r3, r0
    1c3c:	004c0000 	subeq	r0, ip, r0
    1c40:	00010000 	andeq	r0, r1, r0
    1c44:	00000054 	andeq	r0, r0, r4, asr r0
    1c48:	00000000 	andeq	r0, r0, r0
    1c4c:	00004c00 	andeq	r4, r0, r0, lsl #24
    1c50:	00005700 	andeq	r5, r0, r0, lsl #14
    1c54:	50000100 	andpl	r0, r0, r0, lsl #2
    1c58:	00000057 	andeq	r0, r0, r7, asr r0
    1c5c:	00000070 	andeq	r0, r0, r0, ror r0
    1c60:	00550001 	subseq	r0, r5, r1
    1c64:	00000000 	andeq	r0, r0, r0
    1c68:	60000000 	andvs	r0, r0, r0
    1c6c:	64000000 	strvs	r0, [r0], #-0
    1c70:	01000000 	mrseq	r0, (UNDEF: 0)
    1c74:	00005000 	andeq	r5, r0, r0
    1c78:	00000000 	andeq	r0, r0, r0
    1c7c:	00700000 	rsbseq	r0, r0, r0
    1c80:	007c0000 	rsbseq	r0, ip, r0
    1c84:	00010000 	andeq	r0, r1, r0
    1c88:	00007c50 	andeq	r7, r0, r0, asr ip
    1c8c:	00008400 	andeq	r8, r0, r0, lsl #8
    1c90:	f3000400 	vshl.u8	d0, d0, d0
    1c94:	009f5001 	addseq	r5, pc, r1
    1c98:	00000000 	andeq	r0, r0, r0
    1c9c:	84000000 	strhi	r0, [r0], #-0
    1ca0:	90000000 	andls	r0, r0, r0
    1ca4:	01000000 	mrseq	r0, (UNDEF: 0)
    1ca8:	00905000 	addseq	r5, r0, r0
    1cac:	00980000 	addseq	r0, r8, r0
    1cb0:	00040000 	andeq	r0, r4, r0
    1cb4:	9f5001f3 	svcls	0x005001f3
	...
    1cc0:	00000138 	andeq	r0, r0, r8, lsr r1
    1cc4:	00000143 	andeq	r0, r0, r3, asr #2
    1cc8:	43500001 	cmpmi	r0, #1
    1ccc:	68000001 	stmdavs	r0, {r0}
    1cd0:	01000001 	tsteq	r0, r1
    1cd4:	00005400 	andeq	r5, r0, r0, lsl #8
	...
    1ce0:	000f0000 	andeq	r0, pc, r0
    1ce4:	00010000 	andeq	r0, r1, r0
    1ce8:	00000f50 	andeq	r0, r0, r0, asr pc
    1cec:	00002000 	andeq	r2, r0, r0
    1cf0:	54000100 	strpl	r0, [r0], #-256	; 0x100
	...
    1d00:	0000000f 	andeq	r0, r0, pc
    1d04:	0f510001 	svceq	0x00510001
    1d08:	20000000 	andcs	r0, r0, r0
    1d0c:	01000000 	mrseq	r0, (UNDEF: 0)
    1d10:	00005500 	andeq	r5, r0, r0, lsl #10
    1d14:	00000000 	andeq	r0, r0, r0
    1d18:	00ec0000 	rsceq	r0, ip, r0
    1d1c:	01040000 	mrseq	r0, (UNDEF: 4)
    1d20:	00010000 	andeq	r0, r1, r0
    1d24:	00010450 	andeq	r0, r1, r0, asr r4
    1d28:	00011400 	andeq	r1, r1, r0, lsl #8
    1d2c:	f3000400 	vshl.u8	d0, d0, d0
    1d30:	149f5001 	ldrne	r5, [pc], #1	; 1d38 <__code_start__-0x62c8>
    1d34:	18000001 	stmdane	r0, {r0}
    1d38:	01000001 	tsteq	r0, r1
    1d3c:	01185000 	tsteq	r8, r0
    1d40:	01200000 	teqeq	r0, r0
    1d44:	00040000 	andeq	r0, r4, r0
    1d48:	9f5001f3 	svcls	0x005001f3
	...
    1d54:	000000f8 	strdeq	r0, [r0], -r8
    1d58:	00000104 	andeq	r0, r0, r4, lsl #2
    1d5c:	0070000b 	rsbseq	r0, r0, fp
    1d60:	b4232535 	strtlt	r2, [r3], #-1333	; 0x535
    1d64:	02818080 	addeq	r8, r1, #128	; 0x80
    1d68:	0001049f 	muleq	r1, pc, r4	; <UNPREDICTABLE>
    1d6c:	00010700 	andeq	r0, r1, r0, lsl #14
    1d70:	50000100 	andpl	r0, r0, r0, lsl #2
    1d74:	00000107 	andeq	r0, r0, r7, lsl #2
    1d78:	00000114 	andeq	r0, r0, r4, lsl r1
    1d7c:	01f3000c 	mvnseq	r0, ip
    1d80:	23253550 	teqcs	r5, #80, 10	; 0x14000000
    1d84:	818080b4 	strhhi	r8, [r0, r4]
    1d88:	00009f02 	andeq	r9, r0, r2, lsl #30
    1d8c:	00000000 	andeq	r0, r0, r0
    1d90:	00fc0000 	rscseq	r0, ip, r0
    1d94:	01140000 	tsteq	r4, r0
    1d98:	00010000 	andeq	r0, r1, r0
    1d9c:	00000054 	andeq	r0, r0, r4, asr r0
    1da0:	00000000 	andeq	r0, r0, r0
    1da4:	0000d000 	andeq	sp, r0, r0
    1da8:	0000df00 	andeq	sp, r0, r0, lsl #30
    1dac:	50000100 	andpl	r0, r0, r0, lsl #2
    1db0:	000000df 	ldrdeq	r0, [r0], -pc	; <UNPREDICTABLE>
    1db4:	000000e4 	andeq	r0, r0, r4, ror #1
    1db8:	01f30004 	mvnseq	r0, r4
    1dbc:	00e49f50 	rsceq	r9, r4, r0, asr pc
    1dc0:	00e70000 	rsceq	r0, r7, r0
    1dc4:	00010000 	andeq	r0, r1, r0
    1dc8:	0000e750 	andeq	lr, r0, r0, asr r7
    1dcc:	0000ec00 	andeq	lr, r0, r0, lsl #24
    1dd0:	f3000400 	vshl.u8	d0, d0, d0
    1dd4:	009f5001 	addseq	r5, pc, r1
    1dd8:	00000000 	andeq	r0, r0, r0
    1ddc:	d0000000 	andle	r0, r0, r0
    1de0:	df000000 	svcle	0x00000000
    1de4:	01000000 	mrseq	r0, (UNDEF: 0)
    1de8:	00df5100 	sbcseq	r5, pc, r0, lsl #2
    1dec:	00e40000 	rsceq	r0, r4, r0
    1df0:	00040000 	andeq	r0, r4, r0
    1df4:	9f5101f3 	svcls	0x005101f3
    1df8:	000000e4 	andeq	r0, r0, r4, ror #1
    1dfc:	000000e7 	andeq	r0, r0, r7, ror #1
    1e00:	e7510001 	ldrb	r0, [r1, -r1]
    1e04:	ec000000 	stc	0, cr0, [r0], {-0}
    1e08:	04000000 	streq	r0, [r0], #-0
    1e0c:	5101f300 	mrspl	pc, SP_irq	; <UNPREDICTABLE>
    1e10:	0000009f 	muleq	r0, pc, r0	; <UNPREDICTABLE>
    1e14:	00000000 	andeq	r0, r0, r0
    1e18:	0000c000 	andeq	ip, r0, r0
    1e1c:	0000cb00 	andeq	ip, r0, r0, lsl #22
    1e20:	50000100 	andpl	r0, r0, r0, lsl #2
    1e24:	000000cb 	andeq	r0, r0, fp, asr #1
    1e28:	000000d0 	ldrdeq	r0, [r0], -r0	; <UNPREDICTABLE>
    1e2c:	01f30004 	mvnseq	r0, r4
    1e30:	00009f50 	andeq	r9, r0, r0, asr pc
    1e34:	00000000 	andeq	r0, r0, r0
    1e38:	009c0000 	addseq	r0, ip, r0
    1e3c:	00b40000 	adcseq	r0, r4, r0
    1e40:	00010000 	andeq	r0, r1, r0
    1e44:	0000b450 	andeq	fp, r0, r0, asr r4
    1e48:	0000c000 	andeq	ip, r0, r0
    1e4c:	f3000400 	vshl.u8	d0, d0, d0
    1e50:	009f5001 	addseq	r5, pc, r1
    1e54:	00000000 	andeq	r0, r0, r0
    1e58:	78000000 	stmdavc	r0, {}	; <UNPREDICTABLE>
    1e5c:	90000000 	andls	r0, r0, r0
    1e60:	01000000 	mrseq	r0, (UNDEF: 0)
    1e64:	00905000 	addseq	r5, r0, r0
    1e68:	009c0000 	addseq	r0, ip, r0
    1e6c:	00040000 	andeq	r0, r4, r0
    1e70:	9f5001f3 	svcls	0x005001f3
	...
    1e7c:	00000068 	andeq	r0, r0, r8, rrx
    1e80:	00000073 	andeq	r0, r0, r3, ror r0
    1e84:	73500001 	cmpvc	r0, #1
    1e88:	78000000 	stmdavc	r0, {}	; <UNPREDICTABLE>
    1e8c:	04000000 	streq	r0, [r0], #-0
    1e90:	5001f300 	andpl	pc, r1, r0, lsl #6
    1e94:	0000009f 	muleq	r0, pc, r0	; <UNPREDICTABLE>
	...
    1ea0:	00004800 	andeq	r4, r0, r0, lsl #16
    1ea4:	50000100 	andpl	r0, r0, r0, lsl #2
    1ea8:	00000048 	andeq	r0, r0, r8, asr #32
    1eac:	00000068 	andeq	r0, r0, r8, rrx
    1eb0:	01f30004 	mvnseq	r0, r4
    1eb4:	00009f50 	andeq	r9, r0, r0, asr pc
	...
    1ec0:	004b0000 	subeq	r0, fp, r0
    1ec4:	00010000 	andeq	r0, r1, r0
    1ec8:	00004b51 	andeq	r4, r0, r1, asr fp
    1ecc:	00006800 	andeq	r6, r0, r0, lsl #16
    1ed0:	f3000400 	vshl.u8	d0, d0, d0
    1ed4:	009f5101 	addseq	r5, pc, r1, lsl #2
    1ed8:	00000000 	andeq	r0, r0, r0
    1edc:	4c000000 	stcmi	0, cr0, [r0], {-0}
    1ee0:	54000000 	strpl	r0, [r0], #-0
    1ee4:	01000000 	mrseq	r0, (UNDEF: 0)
    1ee8:	00545000 	subseq	r5, r4, r0
    1eec:	00580000 	subseq	r0, r8, r0
    1ef0:	00090000 	andeq	r0, r9, r0
    1ef4:	00740075 	rsbseq	r0, r4, r5, ror r0
    1ef8:	21007124 	tstcs	r0, r4, lsr #2
    1efc:	0000589f 	muleq	r0, pc, r8	; <UNPREDICTABLE>
    1f00:	00005f00 	andeq	r5, r0, r0, lsl #30
    1f04:	51000100 	mrspl	r0, (UNDEF: 16)
	...
    1f10:	00000104 	andeq	r0, r0, r4, lsl #2
    1f14:	00000143 	andeq	r0, r0, r3, asr #2
    1f18:	43500001 	cmpmi	r0, #1
    1f1c:	4c000001 	stcmi	0, cr0, [r0], {1}
    1f20:	04000001 	streq	r0, [r0], #-1
    1f24:	5001f300 	andpl	pc, r1, r0, lsl #6
    1f28:	00014c9f 	muleq	r1, pc, ip	; <UNPREDICTABLE>
    1f2c:	00014f00 	andeq	r4, r1, r0, lsl #30
    1f30:	50000100 	andpl	r0, r0, r0, lsl #2
    1f34:	0000014f 	andeq	r0, r0, pc, asr #2
    1f38:	00000170 	andeq	r0, r0, r0, ror r1
    1f3c:	01f30004 	mvnseq	r0, r4
    1f40:	01709f50 	cmneq	r0, r0, asr pc
    1f44:	01730000 	cmneq	r3, r0
    1f48:	00010000 	andeq	r0, r1, r0
    1f4c:	00017350 	andeq	r7, r1, r0, asr r3
    1f50:	0001b000 	andeq	fp, r1, r0
    1f54:	f3000400 	vshl.u8	d0, d0, d0
    1f58:	009f5001 	addseq	r5, pc, r1
    1f5c:	00000000 	andeq	r0, r0, r0
    1f60:	04000000 	streq	r0, [r0], #-0
    1f64:	30000001 	andcc	r0, r0, r1
    1f68:	01000001 	tsteq	r0, r1
    1f6c:	01305100 	teqeq	r0, r0, lsl #2
    1f70:	01430000 	mrseq	r0, (UNDEF: 67)
    1f74:	00030000 	andeq	r0, r3, r0
    1f78:	439f0171 	orrsmi	r0, pc, #1073741852	; 0x4000001c
    1f7c:	4c000001 	stcmi	0, cr0, [r0], {1}
    1f80:	04000001 	streq	r0, [r0], #-1
    1f84:	5101f300 	mrspl	pc, SP_irq	; <UNPREDICTABLE>
    1f88:	00014c9f 	muleq	r1, pc, ip	; <UNPREDICTABLE>
    1f8c:	00014f00 	andeq	r4, r1, r0, lsl #30
    1f90:	51000100 	mrspl	r0, (UNDEF: 16)
    1f94:	0000014f 	andeq	r0, r0, pc, asr #2
    1f98:	000001b0 			; <UNDEFINED> instruction: 0x000001b0
    1f9c:	01f30004 	mvnseq	r0, r4
    1fa0:	00009f51 	andeq	r9, r0, r1, asr pc
    1fa4:	00000000 	andeq	r0, r0, r0
    1fa8:	01200000 	teqeq	r0, r0
    1fac:	01240000 	teqeq	r4, r0
    1fb0:	00010000 	andeq	r0, r1, r0
    1fb4:	00012452 	andeq	r2, r1, r2, asr r4
    1fb8:	00012c00 	andeq	r2, r1, r0, lsl #24
    1fbc:	03000500 	movweq	r0, #1280	; 0x500
    1fc0:	0000b138 	andeq	fp, r0, r8, lsr r1
    1fc4:	0000012c 	andeq	r0, r0, ip, lsr #2
    1fc8:	00000143 	andeq	r0, r0, r3, asr #2
    1fcc:	70530001 	subsvc	r0, r3, r1
    1fd0:	73000001 	movwvc	r0, #1
    1fd4:	01000001 	tsteq	r0, r1
    1fd8:	00005300 	andeq	r5, r0, r0, lsl #6
    1fdc:	00000000 	andeq	r0, r0, r0
    1fe0:	007c0000 	rsbseq	r0, ip, r0
    1fe4:	00940000 	addseq	r0, r4, r0
    1fe8:	00010000 	andeq	r0, r1, r0
    1fec:	00009450 	andeq	r9, r0, r0, asr r4
    1ff0:	0000af00 	andeq	sl, r0, r0, lsl #30
    1ff4:	52000100 	andpl	r0, r0, #0, 2
    1ff8:	000000af 	andeq	r0, r0, pc, lsr #1
    1ffc:	000000bc 	strheq	r0, [r0], -ip
    2000:	01f30009 	mvnseq	r0, r9
    2004:	09072350 	stmdbeq	r7, {r4, r6, r8, r9, sp}
    2008:	bc9f1af8 	vldmialt	pc, {s2-s249}
    200c:	bf000000 	svclt	0x00000000
    2010:	01000000 	mrseq	r0, (UNDEF: 0)
    2014:	00bf5000 	adcseq	r5, pc, r0
    2018:	00f40000 	rscseq	r0, r4, r0
    201c:	00040000 	andeq	r0, r4, r0
    2020:	9f5001f3 	svcls	0x005001f3
	...
    202c:	0000009c 	muleq	r0, ip, r0
    2030:	000000bc 	strheq	r0, [r0], -ip
    2034:	00540001 	subseq	r0, r4, r1
    2038:	00000000 	andeq	r0, r0, r0
    203c:	1c000000 	stcne	0, cr0, [r0], {-0}
    2040:	47000000 	strmi	r0, [r0, -r0]
    2044:	01000000 	mrseq	r0, (UNDEF: 0)
    2048:	00475000 	subeq	r5, r7, r0
    204c:	007c0000 	rsbseq	r0, ip, r0
    2050:	00040000 	andeq	r0, r4, r0
    2054:	9f5001f3 	svcls	0x005001f3
	...
    2060:	0000001c 	andeq	r0, r0, ip, lsl r0
    2064:	00000047 	andeq	r0, r0, r7, asr #32
    2068:	47500001 	ldrbmi	r0, [r0, -r1]
    206c:	7c000000 	stcvc	0, cr0, [r0], {-0}
    2070:	04000000 	streq	r0, [r0], #-0
    2074:	5001f300 	andpl	pc, r1, r0, lsl #6
    2078:	0000009f 	muleq	r0, pc, r0	; <UNPREDICTABLE>
    207c:	00000000 	andeq	r0, r0, r0
	...

Disassembly of section .debug_aranges:

00000000 <.debug_aranges>:
   0:	0000001c 	andeq	r0, r0, ip, lsl r0
   4:	00000002 	andeq	r0, r0, r2
   8:	00040000 	andeq	r0, r4, r0
   c:	00000000 	andeq	r0, r0, r0
  10:	00008020 	andeq	r8, r0, r0, lsr #32
  14:	000000e4 	andeq	r0, r0, r4, ror #1
	...
  20:	0000001c 	andeq	r0, r0, ip, lsl r0
  24:	026e0002 	rsbeq	r0, lr, #2
  28:	00040000 	andeq	r0, r4, r0
  2c:	00000000 	andeq	r0, r0, r0
  30:	00008248 	andeq	r8, r0, r8, asr #4
  34:	000008dc 	ldrdeq	r0, [r0], -ip
	...
  40:	0000001c 	andeq	r0, r0, ip, lsl r0
  44:	17c00002 	strbne	r0, [r0, r2]
  48:	00040000 	andeq	r0, r4, r0
  4c:	00000000 	andeq	r0, r0, r0
  50:	00008b24 	andeq	r8, r0, r4, lsr #22
  54:	00000914 	andeq	r0, r0, r4, lsl r9
	...
  60:	0000001c 	andeq	r0, r0, ip, lsl r0
  64:	29620002 	stmdbcs	r2!, {r1}^
  68:	00040000 	andeq	r0, r4, r0
  6c:	00000000 	andeq	r0, r0, r0
  70:	00009438 	andeq	r9, r0, r8, lsr r4
  74:	00000a4c 	andeq	r0, r0, ip, asr #20
	...
  80:	0000001c 	andeq	r0, r0, ip, lsl r0
  84:	3fce0002 	svccc	0x00ce0002
  88:	00040000 	andeq	r0, r4, r0
  8c:	00000000 	andeq	r0, r0, r0
  90:	0000a218 	andeq	sl, r0, r8, lsl r2
  94:	000000f0 	strdeq	r0, [r0], -r0	; <UNPREDICTABLE>
	...
  a0:	0000001c 	andeq	r0, r0, ip, lsl r0
  a4:	40e40002 	rscmi	r0, r4, r2
  a8:	00040000 	andeq	r0, r4, r0
  ac:	00000000 	andeq	r0, r0, r0
  b0:	0000a308 	andeq	sl, r0, r8, lsl #6
  b4:	00000020 	andeq	r0, r0, r0, lsr #32
	...
  c0:	0000001c 	andeq	r0, r0, ip, lsl r0
  c4:	41c30002 	bicmi	r0, r3, r2
  c8:	00040000 	andeq	r0, r4, r0
  cc:	00000000 	andeq	r0, r0, r0
  d0:	0000a328 	andeq	sl, r0, r8, lsr #6
  d4:	00000058 	andeq	r0, r0, r8, asr r0
	...
  e0:	0000001c 	andeq	r0, r0, ip, lsl r0
  e4:	43580002 	cmpmi	r8, #2
  e8:	00040000 	andeq	r0, r4, r0
  ec:	00000000 	andeq	r0, r0, r0
  f0:	0000a380 	andeq	sl, r0, r0, lsl #7
  f4:	0000003c 	andeq	r0, r0, ip, lsr r0
	...
 100:	0000001c 	andeq	r0, r0, ip, lsl r0
 104:	446f0002 	strbtmi	r0, [pc], #-2	; 10c <__code_start__-0x7ef4>
 108:	00040000 	andeq	r0, r4, r0
 10c:	00000000 	andeq	r0, r0, r0
 110:	0000a3bc 			; <UNDEFINED> instruction: 0x0000a3bc
 114:	00000034 	andeq	r0, r0, r4, lsr r0
	...
 120:	0000001c 	andeq	r0, r0, ip, lsl r0
 124:	45610002 	strbmi	r0, [r1, #-2]!
 128:	00040000 	andeq	r0, r4, r0
 12c:	00000000 	andeq	r0, r0, r0
 130:	0000a3f0 	strdeq	sl, [r0], -r0
 134:	00000578 	andeq	r0, r0, r8, ror r5
	...
 140:	0000001c 	andeq	r0, r0, ip, lsl r0
 144:	4c4a0002 	mcrrmi	0, 0, r0, sl, cr2
 148:	00040000 	andeq	r0, r4, r0
 14c:	00000000 	andeq	r0, r0, r0
 150:	0000a968 	andeq	sl, r0, r8, ror #18
 154:	0000002c 	andeq	r0, r0, ip, lsr #32
	...
 160:	0000001c 	andeq	r0, r0, ip, lsl r0
 164:	4d5d0002 	ldclmi	0, cr0, [sp, #-8]
 168:	00040000 	andeq	r0, r4, r0
 16c:	00000000 	andeq	r0, r0, r0
 170:	0000a994 	muleq	r0, r4, r9
 174:	00000038 	andeq	r0, r0, r8, lsr r0
	...
 180:	0000001c 	andeq	r0, r0, ip, lsl r0
 184:	4e700002 	cdpmi	0, 7, cr0, cr0, cr2, {0}
 188:	00040000 	andeq	r0, r4, r0
 18c:	00000000 	andeq	r0, r0, r0
 190:	0000a9cc 	andeq	sl, r0, ip, asr #19
 194:	00000044 	andeq	r0, r0, r4, asr #32
	...
 1a0:	0000001c 	andeq	r0, r0, ip, lsl r0
 1a4:	4fb20002 	svcmi	0x00b20002
 1a8:	00040000 	andeq	r0, r4, r0
 1ac:	00000000 	andeq	r0, r0, r0
 1b0:	0000aa10 	andeq	sl, r0, r0, lsl sl
 1b4:	00000044 	andeq	r0, r0, r4, asr #32
	...
 1c0:	0000001c 	andeq	r0, r0, ip, lsl r0
 1c4:	50f40002 	rscspl	r0, r4, r2
 1c8:	00040000 	andeq	r0, r4, r0
 1cc:	00000000 	andeq	r0, r0, r0
 1d0:	0000aa54 	andeq	sl, r0, r4, asr sl
 1d4:	00000044 	andeq	r0, r0, r4, asr #32
	...
 1e0:	0000001c 	andeq	r0, r0, ip, lsl r0
 1e4:	52360002 	eorspl	r0, r6, #2
 1e8:	00040000 	andeq	r0, r4, r0
 1ec:	00000000 	andeq	r0, r0, r0
 1f0:	0000aa98 	muleq	r0, r8, sl
 1f4:	00000044 	andeq	r0, r0, r4, asr #32
	...
 200:	0000001c 	andeq	r0, r0, ip, lsl r0
 204:	53780002 	cmnpl	r8, #2
 208:	00040000 	andeq	r0, r4, r0
 20c:	00000000 	andeq	r0, r0, r0
 210:	0000aadc 	ldrdeq	sl, [r0], -ip
 214:	00000008 	andeq	r0, r0, r8
	...
 220:	0000001c 	andeq	r0, r0, ip, lsl r0
 224:	54140002 	ldrpl	r0, [r4], #-2
 228:	00040000 	andeq	r0, r4, r0
 22c:	00000000 	andeq	r0, r0, r0
 230:	0000aae4 	andeq	sl, r0, r4, ror #21
 234:	0000006c 	andeq	r0, r0, ip, rrx
	...
 240:	0000001c 	andeq	r0, r0, ip, lsl r0
 244:	55ef0002 	strbpl	r0, [pc, #2]!	; 24e <__code_start__-0x7db2>
 248:	00040000 	andeq	r0, r4, r0
 24c:	00000000 	andeq	r0, r0, r0
 250:	0000ab50 	andeq	sl, r0, r0, asr fp
 254:	00000074 	andeq	r0, r0, r4, ror r0
	...
 260:	0000001c 	andeq	r0, r0, ip, lsl r0
 264:	57a00002 	strpl	r0, [r0, r2]!
 268:	00040000 	andeq	r0, r4, r0
 26c:	00000000 	andeq	r0, r0, r0
 270:	0000abc4 	andeq	sl, r0, r4, asr #23
 274:	00000098 	muleq	r0, r8, r0
	...
 280:	0000001c 	andeq	r0, r0, ip, lsl r0
 284:	599b0002 	ldmibpl	fp, {r1}
 288:	00040000 	andeq	r0, r4, r0
 28c:	00000000 	andeq	r0, r0, r0
 290:	0000acc0 	andeq	sl, r0, r0, asr #25
 294:	00000178 	andeq	r0, r0, r8, ror r1
	...
 2a0:	0000001c 	andeq	r0, r0, ip, lsl r0
 2a4:	66640002 	strbtvs	r0, [r4], -r2
 2a8:	00040000 	andeq	r0, r4, r0
 2ac:	00000000 	andeq	r0, r0, r0
 2b0:	0000ae38 	andeq	sl, r0, r8, lsr lr
 2b4:	00000120 	andeq	r0, r0, r0, lsr #2
	...
 2c0:	0000001c 	andeq	r0, r0, ip, lsl r0
 2c4:	71d80002 	bicsvc	r0, r8, r2
 2c8:	00040000 	andeq	r0, r4, r0
 2cc:	00000000 	andeq	r0, r0, r0
 2d0:	0000af58 	andeq	sl, r0, r8, asr pc
 2d4:	000001d8 	ldrdeq	r0, [r0], -r8
	...

Disassembly of section .debug_line:

00000000 <.debug_line>:
       0:	000000c6 	andeq	r0, r0, r6, asr #1
       4:	00940002 	addseq	r0, r4, r2
       8:	01020000 	mrseq	r0, (UNDEF: 2)
       c:	000d0efb 	strdeq	r0, [sp], -fp
      10:	01010101 	tsteq	r1, r1, lsl #2
      14:	01000000 	mrseq	r0, (UNDEF: 0)
      18:	74010000 	strvc	r0, [r1], #-0
      1c:	73747365 	cmnvc	r4, #-1811939327	; 0x94000001
      20:	73552f00 	cmpvc	r5, #0, 30
      24:	2f737265 	svccs	0x00737265
      28:	61697262 	cmnvs	r9, r2, ror #4
      2c:	6e756a6e 	vsubvs.f32	s13, s10, s29
      30:	7365442f 	cmnvc	r5, #788529152	; 0x2f000000
      34:	706f746b 	rsbvc	r7, pc, fp, ror #8
      38:	6863732f 	stmdavs	r3!, {r0, r1, r2, r3, r5, r8, r9, ip, sp, lr}^
      3c:	2f6c6f6f 	svccs	0x006c6f6f
      40:	69727053 	ldmdbvs	r2!, {r0, r1, r4, r6, ip, sp, lr}^
      44:	3931676e 	ldmdbcc	r1!, {r1, r2, r3, r5, r6, r8, r9, sl, sp, lr}
      48:	432f3032 	teqmi	pc, #50	; 0x32
      4c:	30343253 	eorscc	r3, r4, r3, asr r2
      50:	632f584c 	teqvs	pc, #76, 16	; 0x4c0000
      54:	30343273 	eorscc	r3, r4, r3, ror r2
      58:	322d786c 	eorcc	r7, sp, #108, 16	; 0x6c0000
      5c:	72707330 	rsbsvc	r7, r0, #48, 6	; 0xc0000000
      60:	62696c2f 	rsbvs	r6, r9, #12032	; 0x2f00
      64:	692f6970 	stmdbvs	pc!, {r4, r5, r6, r8, fp, sp, lr}	; <UNPREDICTABLE>
      68:	756c636e 	strbvc	r6, [ip, #-878]!	; 0x36e
      6c:	2e006564 	cfsh32cs	mvfx6, mvfx0, #52
      70:	65740000 	ldrbvs	r0, [r4, #-0]!
      74:	2e307473 	mrccs	4, 1, r7, cr0, cr3, {3}
      78:	00010063 	andeq	r0, r1, r3, rrx
      7c:	69707200 	ldmdbvs	r0!, {r9, ip, sp, lr}^
      80:	0200682e 	andeq	r6, r0, #3014656	; 0x2e0000
      84:	656d0000 	strbvs	r0, [sp, #-0]!
      88:	6568636d 	strbvs	r6, [r8, #-877]!	; 0x36d
      8c:	682e6b63 	stmdavs	lr!, {r0, r1, r5, r6, r8, r9, fp, sp, lr}
      90:	00000300 	andeq	r0, r0, r0, lsl #6
      94:	2e756d6d 	cdpcs	13, 7, cr6, cr5, cr13, {3}
      98:	00030068 	andeq	r0, r3, r8, rrx
      9c:	05000000 	streq	r0, [r0, #-0]
      a0:	00802002 	addeq	r2, r0, r2
      a4:	68141500 	ldmdavs	r4, {r8, sl, ip}
      a8:	0402004b 	streq	r0, [r2], #-75	; 0x4b
      ac:	06660601 	strbteq	r0, [r6], -r1, lsl #12
      b0:	004b2108 	subeq	r2, fp, r8, lsl #2
      b4:	06010402 	streq	r0, [r1], -r2, lsl #8
      b8:	21080666 	tstcs	r8, r6, ror #12
      bc:	01040200 	mrseq	r0, R12_usr
      c0:	08066606 	stmdaeq	r6, {r1, r2, r9, sl, sp, lr}
      c4:	001c0221 	andseq	r0, ip, r1, lsr #4
      c8:	02f50101 	rscseq	r0, r5, #1073741824	; 0x40000000
      cc:	00020000 	andeq	r0, r2, r0
      d0:	0000016a 	andeq	r0, r0, sl, ror #2
      d4:	0efb0102 	cdpeq	1, 15, cr0, cr11, cr2, {0}
      d8:	0101000d 	tsteq	r1, sp
      dc:	00000101 	andeq	r0, r0, r1, lsl #2
      e0:	00000100 	andeq	r0, r0, r0, lsl #2
      e4:	73752f01 	cmnvc	r5, #1, 30
      e8:	6f6c2f72 	svcvs	0x006c2f72
      ec:	2f6c6163 	svccs	0x006c6163
      f0:	6c6c6543 	cfstr64vs	mvdx6, [ip], #-268	; 0xfffffef4
      f4:	612f7261 	teqvs	pc, r1, ror #4
      f8:	6e2d6d72 	mcrvs	13, 1, r6, cr13, cr2, {3}
      fc:	2d656e6f 	stclcs	14, cr6, [r5, #-444]!	; 0xfffffe44
     100:	69626165 	stmdbvs	r2!, {r0, r2, r5, r6, r8, sp, lr}^
     104:	382e342f 	stmdacc	lr!, {r0, r1, r2, r3, r5, sl, ip, sp}
     108:	632d332e 	teqvs	sp, #-1207959552	; 0xb8000000
     10c:	30373173 	eorscc	r3, r7, r3, ror r1
     110:	696c2f65 	stmdbvs	ip!, {r0, r2, r5, r6, r8, r9, sl, fp, sp}^
     114:	63672f62 	cmnvs	r7, #392	; 0x188
     118:	72612f63 	rsbvc	r2, r1, #396	; 0x18c
     11c:	6f6e2d6d 	svcvs	0x006e2d6d
     120:	652d656e 	strvs	r6, [sp, #-1390]!	; 0x56e
     124:	2f696261 	svccs	0x00696261
     128:	2e382e34 	mrccs	14, 1, r2, cr8, cr4, {1}
     12c:	6e692f33 	mcrvs	15, 3, r2, cr9, cr3, {1}
     130:	64756c63 	ldrbtvs	r6, [r5], #-3171	; 0xc63
     134:	552f0065 	strpl	r0, [pc, #-101]!	; d7 <__code_start__-0x7f29>
     138:	73726573 	cmnvc	r2, #482344960	; 0x1cc00000
     13c:	6972622f 	ldmdbvs	r2!, {r0, r1, r2, r3, r5, r9, sp, lr}^
     140:	756a6e61 	strbvc	r6, [sl, #-3681]!	; 0xe61
     144:	65442f6e 	strbvs	r2, [r4, #-3950]	; 0xf6e
     148:	6f746b73 	svcvs	0x00746b73
     14c:	63732f70 	cmnvs	r3, #112, 30	; 0x1c0
     150:	6c6f6f68 	stclvs	15, cr6, [pc], #-416	; ffffffb8 <__bss_end__+0xffff37d8>
     154:	7270532f 	rsbsvc	r5, r0, #-1140850688	; 0xbc000000
     158:	31676e69 	cmncc	r7, r9, ror #28
     15c:	2f303239 	svccs	0x00303239
     160:	34325343 	ldrtcc	r5, [r2], #-835	; 0x343
     164:	2f584c30 	svccs	0x00584c30
     168:	34327363 	ldrtcc	r7, [r2], #-867	; 0x363
     16c:	2d786c30 	ldclcs	12, cr6, [r8, #-192]!	; 0xffffff40
     170:	70733032 	rsbsvc	r3, r3, r2, lsr r0
     174:	696c2f72 	stmdbvs	ip!, {r1, r4, r5, r6, r8, r9, sl, fp, sp}^
     178:	2f697062 	svccs	0x00697062
     17c:	6c636e69 	stclvs	14, cr6, [r3], #-420	; 0xfffffe5c
     180:	00656475 	rsbeq	r6, r5, r5, ror r4
     184:	7273752f 	rsbsvc	r7, r3, #197132288	; 0xbc00000
     188:	636f6c2f 	cmnvs	pc, #12032	; 0x2f00
     18c:	432f6c61 	teqmi	pc, #24832	; 0x6100
     190:	616c6c65 	cmnvs	ip, r5, ror #24
     194:	72612f72 	rsbvc	r2, r1, #456	; 0x1c8
     198:	6f6e2d6d 	svcvs	0x006e2d6d
     19c:	652d656e 	strvs	r6, [sp, #-1390]!	; 0x56e
     1a0:	2f696261 	svccs	0x00696261
     1a4:	2e382e34 	mrccs	14, 1, r2, cr8, cr4, {1}
     1a8:	73632d33 	cmnvc	r3, #3264	; 0xcc0
     1ac:	65303731 	ldrvs	r3, [r0, #-1841]!	; 0x731
     1b0:	6d72612f 	ldfvse	f6, [r2, #-188]!	; 0xffffff44
     1b4:	6e6f6e2d 	cdpvs	14, 6, cr6, cr15, cr13, {1}
     1b8:	61652d65 	cmnvs	r5, r5, ror #26
     1bc:	692f6962 	stmdbvs	pc!, {r1, r5, r6, r8, fp, sp, lr}	; <UNPREDICTABLE>
     1c0:	756c636e 	strbvc	r6, [ip, #-878]!	; 0x36e
     1c4:	00006564 	andeq	r6, r0, r4, ror #10
     1c8:	2e756d6d 	cdpcs	13, 7, cr6, cr5, cr13, {3}
     1cc:	00000063 	andeq	r0, r0, r3, rrx
     1d0:	756d6d00 	strbvc	r6, [sp, #-3328]!	; 0xd00
     1d4:	0000682e 	andeq	r6, r0, lr, lsr #16
     1d8:	74730000 	ldrbtvc	r0, [r3], #-0
     1dc:	66656464 	strbtvs	r6, [r5], -r4, ror #8
     1e0:	0100682e 	tsteq	r0, lr, lsr #16
     1e4:	74730000 	ldrbtvc	r0, [r3], #-0
     1e8:	746e6964 	strbtvc	r6, [lr], #-2404	; 0x964
     1ec:	6363672d 	cmnvs	r3, #11796480	; 0xb40000
     1f0:	0100682e 	tsteq	r0, lr, lsr #16
     1f4:	72610000 	rsbvc	r0, r1, #0
     1f8:	2d36766d 	ldccs	6, cr7, [r6, #-436]!	; 0xfffffe4c
     1fc:	35317063 	ldrcc	r7, [r1, #-99]!	; 0x63
     200:	0000682e 	andeq	r6, r0, lr, lsr #16
     204:	72610000 	rsbvc	r0, r1, #0
     208:	2d36766d 	ldccs	6, cr7, [r6, #-436]!	; 0xfffffe4c
     20c:	682e6d76 	stmdavs	lr!, {r1, r2, r4, r5, r6, r8, sl, fp, sp, lr}
     210:	00000000 	andeq	r0, r0, r0
     214:	2e697072 	mcrcs	0, 3, r7, cr9, cr2, {3}
     218:	00020068 	andeq	r0, r2, r8, rrx
     21c:	72747300 	rsbsvc	r7, r4, #0, 6
     220:	2e676e69 	cdpcs	14, 6, cr6, cr7, cr9, {3}
     224:	00030068 	andeq	r0, r3, r8, rrx
     228:	69707200 	ldmdbvs	r0!, {r9, ip, sp, lr}^
     22c:	746e692d 	strbtvc	r6, [lr], #-2349	; 0x92d
     230:	75727265 	ldrbvc	r7, [r2, #-613]!	; 0x265
     234:	2e737470 	mrccs	4, 3, r7, cr3, cr0, {3}
     238:	00020068 	andeq	r0, r2, r8, rrx
     23c:	05000000 	streq	r0, [r0, #-0]
     240:	00824802 	addeq	r4, r2, r2, lsl #16
     244:	010a0300 	mrseq	r0, (UNDEF: 58)
     248:	4b4c2f2f 	blmi	130bf0c <__bss_end__+0x12ff72c>
     24c:	01040200 	mrseq	r0, R12_usr
     250:	08064a06 	stmdaeq	r6, {r1, r2, r9, fp, lr}
     254:	002f2f21 	eoreq	r2, pc, r1, lsr #30
     258:	06010402 	streq	r0, [r1], -r2, lsl #8
     25c:	22080666 	andcs	r0, r8, #106954752	; 0x6600000
     260:	02042308 	andeq	r2, r4, #8, 6	; 0x20000000
     264:	8200e003 	andhi	lr, r0, #3
     268:	a2030104 	andge	r0, r3, #4, 2
     26c:	02004a7f 	andeq	r4, r0, #520192	; 0x7f000
     270:	4a060104 	bmi	180688 <__bss_end__+0x173ea8>
     274:	02040200 	andeq	r0, r4, #0, 4
     278:	00250806 	eoreq	r0, r5, r6, lsl #16
     27c:	67020402 	strvs	r0, [r2, -r2, lsl #8]
     280:	02040200 	andeq	r0, r4, #0, 4
     284:	02006b7d 	andeq	r6, r0, #128000	; 0x1f400
     288:	52450104 	subpl	r0, r5, #4, 2
     28c:	682fbc2f 	stmdavs	pc!, {r0, r1, r2, r3, r5, sl, fp, ip, sp, pc}	; <UNPREDICTABLE>
     290:	6a2f682f 	bvs	bda354 <__bss_end__+0xbcdb74>
     294:	0402004b 	streq	r0, [r2], #-75	; 0x4b
     298:	064a0601 	strbeq	r0, [sl], -r1, lsl #12
     29c:	00bd2208 	adcseq	r2, sp, r8, lsl #4
     2a0:	06010402 	streq	r0, [r1], -r2, lsl #8
     2a4:	2108064a 	tstcs	r8, sl, asr #12
     2a8:	9ff20903 	svcls	0x00f20903
     2ac:	01040200 	mrseq	r0, R12_usr
     2b0:	08064a06 	stmdaeq	r6, {r1, r2, r9, fp, lr}
     2b4:	04020021 	streq	r0, [r2], #-33	; 0x21
     2b8:	064a0601 	strbeq	r0, [sl], -r1, lsl #12
     2bc:	02002108 	andeq	r2, r0, #8, 2
     2c0:	4a060104 	bmi	1806d8 <__bss_end__+0x173ef8>
     2c4:	2f220806 	svccs	0x00220806
     2c8:	0402004b 	streq	r0, [r2], #-75	; 0x4b
     2cc:	06660601 	strbteq	r0, [r6], -r1, lsl #12
     2d0:	674f2108 	strbvs	r2, [pc, -r8, lsl #2]
     2d4:	68a06730 	stmiavs	r0!, {r4, r5, r8, r9, sl, sp, lr}
     2d8:	834b8367 	movthi	r8, #45927	; 0xb367
     2dc:	d7ae0885 	strle	r0, [lr, r5, lsl #17]!
     2e0:	01040200 	mrseq	r0, R12_usr
     2e4:	08064a06 	stmdaeq	r6, {r1, r2, r9, fp, lr}
     2e8:	04020021 	streq	r0, [r2], #-33	; 0x21
     2ec:	064a0601 	strbeq	r0, [sl], -r1, lsl #12
     2f0:	02002108 	andeq	r2, r0, #8, 2
     2f4:	4a060104 	bmi	18070c <__bss_end__+0x173f2c>
     2f8:	02040200 	andeq	r0, r4, #0, 4
     2fc:	00220806 	eoreq	r0, r2, r6, lsl #16
     300:	9f020402 	svcls	0x00020402
     304:	02040200 	andeq	r0, r4, #0, 4
     308:	0402002f 	streq	r0, [r2], #-47	; 0x2f
     30c:	02002b02 	andeq	r2, r0, #2048	; 0x800
     310:	66060104 	strvs	r0, [r6], -r4, lsl #2
     314:	67f44f06 	ldrbvs	r4, [r4, r6, lsl #30]!
     318:	01040200 	mrseq	r0, R12_usr
     31c:	08064a06 	stmdaeq	r6, {r1, r2, r9, fp, lr}
     320:	04020024 	streq	r0, [r2], #-36	; 0x24
     324:	064a0601 	strbeq	r0, [sl], -r1, lsl #12
     328:	08682208 	stmdaeq	r8!, {r3, r9, sp}^
     32c:	02004b22 	andeq	r4, r0, #34816	; 0x8800
     330:	4a060104 	bmi	180748 <__bss_end__+0x173f68>
     334:	4b240806 	blmi	902354 <__bss_end__+0x8f5b74>
     338:	01040200 	mrseq	r0, R12_usr
     33c:	08064a06 	stmdaeq	r6, {r1, r2, r9, fp, lr}
     340:	4bfa4b22 	blmi	ffe92fd0 <__bss_end__+0xffe867f0>
     344:	2f4c3030 	svccs	0x004c3030
     348:	01040200 	mrseq	r0, R12_usr
     34c:	08064a06 	stmdaeq	r6, {r1, r2, r9, fp, lr}
     350:	04020021 	streq	r0, [r2], #-33	; 0x21
     354:	064a0601 	strbeq	r0, [sl], -r1, lsl #12
     358:	2fd82108 	svccs	0x00d82108
     35c:	02004b4e 	andeq	r4, r0, #79872	; 0x13800
     360:	4a060104 	bmi	180778 <__bss_end__+0x173f98>
     364:	00210806 	eoreq	r0, r1, r6, lsl #16
     368:	06010402 	streq	r0, [r1], -r2, lsl #8
     36c:	2108064a 	tstcs	r8, sl, asr #12
     370:	2f4bd72f 	svccs	0x004bd72f
     374:	01040200 	mrseq	r0, R12_usr
     378:	08064a06 	stmdaeq	r6, {r1, r2, r9, fp, lr}
     37c:	4bbc4b22 	blmi	fef1300c <__bss_end__+0xfef0682c>
     380:	01040200 	mrseq	r0, R12_usr
     384:	08064a06 	stmdaeq	r6, {r1, r2, r9, fp, lr}
     388:	4bbb2f21 	blmi	feecc014 <__bss_end__+0xfeebf834>
     38c:	0402002f 	streq	r0, [r2], #-47	; 0x2f
     390:	064a0601 	strbeq	r0, [sl], -r1, lsl #12
     394:	bd4b2208 	sfmlt	f2, 2, [fp, #-32]	; 0xffffffe0
     398:	2f2f3014 	svccs	0x002f3014
     39c:	02004b4f 	andeq	r4, r0, #80896	; 0x13c00
     3a0:	4a060104 	bmi	1807b8 <__bss_end__+0x173fd8>
     3a4:	00210806 	eoreq	r0, r1, r6, lsl #16
     3a8:	06010402 	streq	r0, [r1], -r2, lsl #8
     3ac:	2108064a 	tstcs	r8, sl, asr #12
     3b0:	01040200 	mrseq	r0, R12_usr
     3b4:	08066606 	stmdaeq	r6, {r1, r2, r9, sl, sp, lr}
     3b8:	67f56721 	ldrbvs	r6, [r5, r1, lsr #14]!
     3bc:	16022f67 	strne	r2, [r2], -r7, ror #30
     3c0:	80010100 	andhi	r0, r1, r0, lsl #2
     3c4:	02000002 	andeq	r0, r0, #2
     3c8:	00015e00 	andeq	r5, r1, r0, lsl #28
     3cc:	fb010200 	blx	40bd6 <__bss_end__+0x343f6>
     3d0:	01000d0e 	tsteq	r0, lr, lsl #26
     3d4:	00010101 	andeq	r0, r1, r1, lsl #2
     3d8:	00010000 	andeq	r0, r1, r0
     3dc:	752f0100 	strvc	r0, [pc, #-256]!	; 2e4 <__code_start__-0x7d1c>
     3e0:	6c2f7273 	sfmvs	f7, 4, [pc], #-460	; 21c <__code_start__-0x7de4>
     3e4:	6c61636f 	stclvs	3, cr6, [r1], #-444	; 0xfffffe44
     3e8:	6c65432f 	stclvs	3, cr4, [r5], #-188	; 0xffffff44
     3ec:	2f72616c 	svccs	0x0072616c
     3f0:	2d6d7261 	sfmcs	f7, 2, [sp, #-388]!	; 0xfffffe7c
     3f4:	656e6f6e 	strbvs	r6, [lr, #-3950]!	; 0xf6e
     3f8:	6261652d 	rsbvs	r6, r1, #188743680	; 0xb400000
     3fc:	2e342f69 	cdpcs	15, 3, cr2, cr4, cr9, {3}
     400:	2d332e38 	ldccs	14, cr2, [r3, #-224]!	; 0xffffff20
     404:	37317363 	ldrcc	r7, [r1, -r3, ror #6]!
     408:	6c2f6530 	cfstr32vs	mvfx6, [pc], #-192	; 350 <__code_start__-0x7cb0>
     40c:	672f6269 	strvs	r6, [pc, -r9, ror #4]!
     410:	612f6363 	teqvs	pc, r3, ror #6
     414:	6e2d6d72 	mcrvs	13, 1, r6, cr13, cr2, {3}
     418:	2d656e6f 	stclcs	14, cr6, [r5, #-444]!	; 0xfffffe44
     41c:	69626165 	stmdbvs	r2!, {r0, r2, r5, r6, r8, sp, lr}^
     420:	382e342f 	stmdacc	lr!, {r0, r1, r2, r3, r5, sl, ip, sp}
     424:	692f332e 	stmdbvs	pc!, {r1, r2, r3, r5, r8, r9, ip, sp}	; <UNPREDICTABLE>
     428:	756c636e 	strbvc	r6, [ip, #-878]!	; 0x36e
     42c:	2f006564 	svccs	0x00006564
     430:	72657355 	rsbvc	r7, r5, #1409286145	; 0x54000001
     434:	72622f73 	rsbvc	r2, r2, #460	; 0x1cc
     438:	6a6e6169 	bvs	1b989e4 <__bss_end__+0x1b8c204>
     43c:	442f6e75 	strtmi	r6, [pc], #-3701	; 444 <__code_start__-0x7bbc>
     440:	746b7365 	strbtvc	r7, [fp], #-869	; 0x365
     444:	732f706f 	teqvc	pc, #111	; 0x6f
     448:	6f6f6863 	svcvs	0x006f6863
     44c:	70532f6c 	subsvc	r2, r3, ip, ror #30
     450:	676e6972 			; <UNDEFINED> instruction: 0x676e6972
     454:	30323931 	eorscc	r3, r2, r1, lsr r9
     458:	3253432f 	subscc	r4, r3, #-1140850688	; 0xbc000000
     45c:	584c3034 	stmdapl	ip, {r2, r4, r5, ip, sp}^
     460:	3273632f 	rsbscc	r6, r3, #-1140850688	; 0xbc000000
     464:	786c3034 	stmdavc	ip!, {r2, r4, r5, ip, sp}^
     468:	7330322d 	teqvc	r0, #-805306366	; 0xd0000002
     46c:	6c2f7270 	sfmvs	f7, 4, [pc], #-448	; 2b4 <__code_start__-0x7d4c>
     470:	69706269 	ldmdbvs	r0!, {r0, r3, r5, r6, r9, sp, lr}^
     474:	62696c2f 	rsbvs	r6, r9, #12032	; 0x2f00
     478:	552f0063 	strpl	r0, [pc, #-99]!	; 41d <__code_start__-0x7be3>
     47c:	73726573 	cmnvc	r2, #482344960	; 0x1cc00000
     480:	6972622f 	ldmdbvs	r2!, {r0, r1, r2, r3, r5, r9, sp, lr}^
     484:	756a6e61 	strbvc	r6, [sl, #-3681]!	; 0xe61
     488:	65442f6e 	strbvs	r2, [r4, #-3950]	; 0xf6e
     48c:	6f746b73 	svcvs	0x00746b73
     490:	63732f70 	cmnvs	r3, #112, 30	; 0x1c0
     494:	6c6f6f68 	stclvs	15, cr6, [pc], #-416	; 2fc <__code_start__-0x7d04>
     498:	7270532f 	rsbsvc	r5, r0, #-1140850688	; 0xbc000000
     49c:	31676e69 	cmncc	r7, r9, ror #28
     4a0:	2f303239 	svccs	0x00303239
     4a4:	34325343 	ldrtcc	r5, [r2], #-835	; 0x343
     4a8:	2f584c30 	svccs	0x00584c30
     4ac:	34327363 	ldrtcc	r7, [r2], #-867	; 0x363
     4b0:	2d786c30 	ldclcs	12, cr6, [r8, #-192]!	; 0xffffff40
     4b4:	70733032 	rsbsvc	r3, r3, r2, lsr r0
     4b8:	696c2f72 	stmdbvs	ip!, {r1, r4, r5, r6, r8, r9, sl, fp, sp}^
     4bc:	2f697062 	svccs	0x00697062
     4c0:	6c636e69 	stclvs	14, cr6, [r3], #-420	; 0xfffffe5c
     4c4:	00656475 	rsbeq	r6, r5, r5, ror r4
     4c8:	756d6d00 	strbvc	r6, [sp, #-3328]!	; 0xd00
     4cc:	6c65682d 	stclvs	8, cr6, [r5], #-180	; 0xffffff4c
     4d0:	73726570 	cmnvc	r2, #112, 10	; 0x1c000000
     4d4:	0000632e 	andeq	r6, r0, lr, lsr #6
     4d8:	72610000 	rsbvc	r0, r1, #0
     4dc:	2d36766d 	ldccs	6, cr7, [r6, #-436]!	; 0xfffffe4c
     4e0:	35317063 	ldrcc	r7, [r1, #-99]!	; 0x63
     4e4:	0000682e 	andeq	r6, r0, lr, lsr #16
     4e8:	72610000 	rsbvc	r0, r1, #0
     4ec:	2d36766d 	ldccs	6, cr7, [r6, #-436]!	; 0xfffffe4c
     4f0:	682e6d76 	stmdavs	lr!, {r1, r2, r4, r5, r6, r8, sl, fp, sp, lr}
     4f4:	00000000 	andeq	r0, r0, r0
     4f8:	69647473 	stmdbvs	r4!, {r0, r1, r4, r5, r6, sl, ip, sp, lr}^
     4fc:	672d746e 	strvs	r7, [sp, -lr, ror #8]!
     500:	682e6363 	stmdavs	lr!, {r0, r1, r5, r6, r8, r9, sp, lr}
     504:	00000100 	andeq	r0, r0, r0, lsl #2
     508:	6362696c 	cmnvs	r2, #108, 18	; 0x1b0000
     50c:	7478652d 	ldrbtvc	r6, [r8], #-1325	; 0x52d
     510:	682e6172 	stmdavs	lr!, {r1, r4, r5, r6, r8, sp, lr}
     514:	00000200 	andeq	r0, r0, r0, lsl #4
     518:	2e697072 	mcrcs	0, 3, r7, cr9, cr2, {3}
     51c:	00030068 	andeq	r0, r3, r8, rrx
     520:	756d6d00 	strbvc	r6, [sp, #-3328]!	; 0xd00
     524:	0000682e 	andeq	r6, r0, lr, lsr #16
     528:	00000000 	andeq	r0, r0, r0
     52c:	8b240205 	blhi	900d48 <__bss_end__+0x8f4568>
     530:	0e030000 	cdpeq	0, 0, cr0, cr3, cr0, {0}
     534:	43086701 	movwmi	r6, #34561	; 0x8701
     538:	03dd4b2f 	bicseq	r4, sp, #48128	; 0xbc00
     53c:	4c014a19 	stcmi	10, cr4, [r1], {25}
     540:	01040200 	mrseq	r0, R12_usr
     544:	08069e06 	stmdaeq	r6, {r1, r2, r9, sl, fp, ip, pc}
     548:	04020021 	streq	r0, [r2], #-33	; 0x21
     54c:	06660601 	strbteq	r0, [r6], -r1, lsl #12
     550:	02002108 	andeq	r2, r0, #8, 2
     554:	66060104 	strvs	r0, [r6], -r4, lsl #2
     558:	00230806 	eoreq	r0, r3, r6, lsl #16
     55c:	06010402 	streq	r0, [r1], -r2, lsl #8
     560:	21080666 	tstcs	r8, r6, ror #12
     564:	01040200 	mrseq	r0, R12_usr
     568:	08066606 	stmdaeq	r6, {r1, r2, r9, sl, sp, lr}
     56c:	04020021 	streq	r0, [r2], #-33	; 0x21
     570:	06660601 	strbteq	r0, [r6], -r1, lsl #12
     574:	20080903 	andcs	r0, r8, r3, lsl #18
     578:	01040200 	mrseq	r0, R12_usr
     57c:	08066606 	stmdaeq	r6, {r1, r2, r9, sl, sp, lr}
     580:	04020021 	streq	r0, [r2], #-33	; 0x21
     584:	06660601 	strbteq	r0, [r6], -r1, lsl #12
     588:	02002108 	andeq	r2, r0, #8, 2
     58c:	66060104 	strvs	r0, [r6], -r4, lsl #2
     590:	08210806 	stmdaeq	r1!, {r1, r2, fp}
     594:	4b304bae 	blmi	c13454 <__bss_end__+0xc06c74>
     598:	bbbbbbbb 	bllt	feeef48c <__bss_end__+0xfeee2cac>
     59c:	bbbb9f9f 	bllt	feee8420 <__bss_end__+0xfeedbc40>
     5a0:	bbbbbbbb 	bllt	feeef494 <__bss_end__+0xfeee2cb4>
     5a4:	bbbb9f9f 	bllt	feee8428 <__bss_end__+0xfeedbc48>
     5a8:	193402bb 	ldmdbne	r4!, {r0, r1, r3, r4, r5, r7, r9}
     5ac:	4b4b0150 	blmi	12c0af4 <__bss_end__+0x12b4314>
     5b0:	4bf86783 	blmi	ffe1a3c4 <__bss_end__+0xffe0dbe4>
     5b4:	01040200 	mrseq	r0, R12_usr
     5b8:	08066606 	stmdaeq	r6, {r1, r2, r9, sl, sp, lr}
     5bc:	04020021 	streq	r0, [r2], #-33	; 0x21
     5c0:	06820601 	streq	r0, [r2], r1, lsl #12
     5c4:	02002108 	andeq	r2, r0, #8, 2
     5c8:	66060104 	strvs	r0, [r6], -r4, lsl #2
     5cc:	00210806 	eoreq	r0, r1, r6, lsl #16
     5d0:	06010402 	streq	r0, [r1], -r2, lsl #8
     5d4:	21080666 	tstcs	r8, r6, ror #12
     5d8:	01040200 	mrseq	r0, R12_usr
     5dc:	08066606 	stmdaeq	r6, {r1, r2, r9, sl, sp, lr}
     5e0:	04020021 	streq	r0, [r2], #-33	; 0x21
     5e4:	06660601 	strbteq	r0, [r6], -r1, lsl #12
     5e8:	02002108 	andeq	r2, r0, #8, 2
     5ec:	66060104 	strvs	r0, [r6], -r4, lsl #2
     5f0:	00210806 	eoreq	r0, r1, r6, lsl #16
     5f4:	06010402 	streq	r0, [r1], -r2, lsl #8
     5f8:	21080666 	tstcs	r8, r6, ror #12
     5fc:	4c159308 	ldcmi	3, cr9, [r5], {8}
     600:	1103674b 	tstne	r3, fp, asr #14
     604:	0402004a 	streq	r0, [r2], #-74	; 0x4a
     608:	00660601 	rsbeq	r0, r6, r1, lsl #12
     60c:	08020402 	stmdaeq	r2, {r1, sl}
     610:	040200c8 	streq	r0, [r2], #-200	; 0xc8
     614:	08064a01 	stmdaeq	r6, {r0, r9, fp, lr}
     618:	4b220821 	blmi	8826a4 <__bss_end__+0x875ec4>
     61c:	0200674b 	andeq	r6, r0, #19660800	; 0x12c0000
     620:	08060104 	stmdaeq	r6, {r2, r8}
     624:	9f4b0620 	svcls	0x004b0620
     628:	9f9fbb4c 	svcls	0x009fbb4c
     62c:	00bbbbbb 	ldrhteq	fp, [fp], fp
     630:	06010402 	streq	r0, [r1], -r2, lsl #8
     634:	4b065808 	blmi	19665c <__bss_end__+0x189e7c>
     638:	a0bbbbbb 	ldrhtge	fp, [fp], fp
     63c:	2f192a02 	svccs	0x00192a02
     640:	04022f2f 	streq	r2, [r2], #-3887	; 0xf2f
     644:	33010100 	movwcc	r0, #4352	; 0x1100
     648:	02000002 	andeq	r0, r0, #2
     64c:	00011f00 	andeq	r1, r1, r0, lsl #30
     650:	fb010200 	blx	40e5a <__bss_end__+0x3467a>
     654:	01000d0e 	tsteq	r0, lr, lsl #26
     658:	00010101 	andeq	r0, r1, r1, lsl #2
     65c:	00010000 	andeq	r0, r1, r0
     660:	752f0100 	strvc	r0, [pc, #-256]!	; 568 <__code_start__-0x7a98>
     664:	6c2f7273 	sfmvs	f7, 4, [pc], #-460	; 4a0 <__code_start__-0x7b60>
     668:	6c61636f 	stclvs	3, cr6, [r1], #-444	; 0xfffffe44
     66c:	6c65432f 	stclvs	3, cr4, [r5], #-188	; 0xffffff44
     670:	2f72616c 	svccs	0x0072616c
     674:	2d6d7261 	sfmcs	f7, 2, [sp, #-388]!	; 0xfffffe7c
     678:	656e6f6e 	strbvs	r6, [lr, #-3950]!	; 0xf6e
     67c:	6261652d 	rsbvs	r6, r1, #188743680	; 0xb400000
     680:	2e342f69 	cdpcs	15, 3, cr2, cr4, cr9, {3}
     684:	2d332e38 	ldccs	14, cr2, [r3, #-224]!	; 0xffffff20
     688:	37317363 	ldrcc	r7, [r1, -r3, ror #6]!
     68c:	6c2f6530 	cfstr32vs	mvfx6, [pc], #-192	; 5d4 <__code_start__-0x7a2c>
     690:	672f6269 	strvs	r6, [pc, -r9, ror #4]!
     694:	612f6363 	teqvs	pc, r3, ror #6
     698:	6e2d6d72 	mcrvs	13, 1, r6, cr13, cr2, {3}
     69c:	2d656e6f 	stclcs	14, cr6, [r5, #-444]!	; 0xfffffe44
     6a0:	69626165 	stmdbvs	r2!, {r0, r2, r5, r6, r8, sp, lr}^
     6a4:	382e342f 	stmdacc	lr!, {r0, r1, r2, r3, r5, sl, ip, sp}
     6a8:	692f332e 	stmdbvs	pc!, {r1, r2, r3, r5, r8, r9, ip, sp}	; <UNPREDICTABLE>
     6ac:	756c636e 	strbvc	r6, [ip, #-878]!	; 0x36e
     6b0:	2f006564 	svccs	0x00006564
     6b4:	72657355 	rsbvc	r7, r5, #1409286145	; 0x54000001
     6b8:	72622f73 	rsbvc	r2, r2, #460	; 0x1cc
     6bc:	6a6e6169 	bvs	1b98c68 <__bss_end__+0x1b8c488>
     6c0:	442f6e75 	strtmi	r6, [pc], #-3701	; 6c8 <__code_start__-0x7938>
     6c4:	746b7365 	strbtvc	r7, [fp], #-869	; 0x365
     6c8:	732f706f 	teqvc	pc, #111	; 0x6f
     6cc:	6f6f6863 	svcvs	0x006f6863
     6d0:	70532f6c 	subsvc	r2, r3, ip, ror #30
     6d4:	676e6972 			; <UNDEFINED> instruction: 0x676e6972
     6d8:	30323931 	eorscc	r3, r2, r1, lsr r9
     6dc:	3253432f 	subscc	r4, r3, #-1140850688	; 0xbc000000
     6e0:	584c3034 	stmdapl	ip, {r2, r4, r5, ip, sp}^
     6e4:	3273632f 	rsbscc	r6, r3, #-1140850688	; 0xbc000000
     6e8:	786c3034 	stmdavc	ip!, {r2, r4, r5, ip, sp}^
     6ec:	7330322d 	teqvc	r0, #-805306366	; 0xd0000002
     6f0:	6c2f7270 	sfmvs	f7, 4, [pc], #-448	; 538 <__code_start__-0x7ac8>
     6f4:	69706269 	ldmdbvs	r0!, {r0, r3, r5, r6, r9, sp, lr}^
     6f8:	636e692f 	cmnvs	lr, #770048	; 0xbc000
     6fc:	6564756c 	strbvs	r7, [r4, #-1388]!	; 0x56c
     700:	656d0000 	strbvs	r0, [sp, #-0]!
     704:	6568636d 	strbvs	r6, [r8, #-877]!	; 0x36d
     708:	632e6b63 	teqvs	lr, #101376	; 0x18c00
     70c:	00000000 	andeq	r0, r0, r0
     710:	2d746962 	ldclcs	9, cr6, [r4, #-392]!	; 0xfffffe78
     714:	70707573 	rsbsvc	r7, r0, r3, ror r5
     718:	2e74726f 	cdpcs	2, 7, cr7, cr4, cr15, {3}
     71c:	00000068 	andeq	r0, r0, r8, rrx
     720:	31706300 	cmncc	r0, r0, lsl #6
     724:	65642d34 	strbvs	r2, [r4, #-3380]!	; 0xd34
     728:	2e677562 	cdpcs	5, 6, cr7, cr7, cr2, {3}
     72c:	00000068 	andeq	r0, r0, r8, rrx
     730:	6d726100 	ldfvse	f6, [r2, #-0]
     734:	762d3676 			; <UNDEFINED> instruction: 0x762d3676
     738:	00682e6d 	rsbeq	r2, r8, sp, ror #28
     73c:	73000000 	movwvc	r0, #0
     740:	6e696474 	mcrvs	4, 3, r6, cr9, cr4, {3}
     744:	63672d74 	cmnvs	r7, #116, 26	; 0x1d00
     748:	00682e63 	rsbeq	r2, r8, r3, ror #28
     74c:	6d000001 	stcvs	0, cr0, [r0, #-4]
     750:	68636d65 	stmdavs	r3!, {r0, r2, r5, r6, r8, sl, fp, sp, lr}^
     754:	2e6b6365 	cdpcs	3, 6, cr6, cr11, cr5, {3}
     758:	00000068 	andeq	r0, r0, r8, rrx
     75c:	69707200 	ldmdbvs	r0!, {r9, ip, sp, lr}^
     760:	0200682e 	andeq	r6, r0, #3014656	; 0x2e0000
     764:	6d6d0000 	stclvs	0, cr0, [sp, #-0]
     768:	00682e75 	rsbeq	r2, r8, r5, ror lr
     76c:	00000000 	andeq	r0, r0, r0
     770:	38020500 	stmdacc	r2, {r8, sl}
     774:	03000094 	movweq	r0, #148	; 0x94
     778:	672f011d 			; <UNDEFINED> instruction: 0x672f011d
     77c:	9fc01367 	svcls	0x00c01367
     780:	0402004b 	streq	r0, [r2], #-75	; 0x4b
     784:	06660601 	strbteq	r0, [r6], -r1, lsl #12
     788:	02002108 	andeq	r2, r0, #8, 2
     78c:	66060104 	strvs	r0, [r6], -r4, lsl #2
     790:	00210806 	eoreq	r0, r1, r6, lsl #16
     794:	06010402 	streq	r0, [r1], -r2, lsl #8
     798:	21080666 	tstcs	r8, r6, ror #12
     79c:	080d03d7 	stmdaeq	sp, {r0, r1, r2, r4, r6, r7, r8, r9}
     7a0:	042f673c 	strteq	r6, [pc], #-1852	; 7a8 <__code_start__-0x7858>
     7a4:	66600302 	strbtvs	r0, [r0], -r2, lsl #6
     7a8:	59085908 	stmdbpl	r8, {r3, r8, fp, ip, lr}
     7ac:	0301044b 	movweq	r0, #5195	; 0x144b
     7b0:	83f64a1e 	mvnshi	r4, #122880	; 0x1e000
     7b4:	01040200 	mrseq	r0, R12_usr
     7b8:	08064a06 	stmdaeq	r6, {r1, r2, r9, fp, lr}
     7bc:	04020021 	streq	r0, [r2], #-33	; 0x21
     7c0:	064a0601 	strbeq	r0, [sl], -r1, lsl #12
     7c4:	2d2f2208 	sfmcs	f2, 4, [pc, #-32]!	; 7ac <__code_start__-0x7854>
     7c8:	09034b4c 	stmdbeq	r3, {r2, r3, r6, r8, r9, fp, lr}
     7cc:	240313d6 	strcs	r1, [r3], #-982	; 0x3d6
     7d0:	0303049e 	movweq	r0, #13470	; 0x349e
     7d4:	04326668 	ldrteq	r6, [r2], #-1640	; 0x668
     7d8:	2e200301 	cdpcs	3, 2, cr0, cr0, cr1, {0}
     7dc:	0284674d 	addeq	r6, r4, #20185088	; 0x1340000
     7e0:	d9d9143c 	ldmible	r9, {r2, r3, r4, r5, sl, ip}^
     7e4:	d9d9d9d9 	ldmible	r9, {r0, r3, r4, r6, r7, r8, fp, ip, lr, pc}^
     7e8:	834bd9a1 	movthi	sp, #47521	; 0xb9a1
     7ec:	d94f83a0 	stmdble	pc, {r5, r7, r8, r9, pc}^	; <UNPREDICTABLE>
     7f0:	d9d9d9f5 	ldmible	r9, {r0, r2, r4, r5, r6, r7, r8, fp, ip, lr, pc}^
     7f4:	d9d9d9d9 	ldmible	r9, {r0, r3, r4, r6, r7, r8, fp, ip, lr, pc}^
     7f8:	d61403d9 			; <UNDEFINED> instruction: 0xd61403d9
     7fc:	2f153a02 	svccs	0x00153a02
     800:	080c032f 	stmdaeq	ip, {r0, r1, r2, r3, r5, r8, r9}
     804:	002f4c3c 	eoreq	r4, pc, ip, lsr ip	; <UNPREDICTABLE>
     808:	06010402 	streq	r0, [r1], -r2, lsl #8
     80c:	24080666 	strcs	r0, [r8], #-1638	; 0x666
     810:	0402009f 	streq	r0, [r2], #-159	; 0x9f
     814:	064a0601 	strbeq	r0, [sl], -r1, lsl #12
     818:	bc842508 	cfstr32lt	mvfx2, [r4], {8}
     81c:	a19f9fa2 	orrsge	r9, pc, r2, lsr #31
     820:	834d34a1 	movthi	r3, #54433	; 0xd4a1
     824:	a04b5c08 	subge	r5, fp, r8, lsl #24
     828:	0402002f 	streq	r0, [r2], #-47	; 0x2f
     82c:	06660601 	strbteq	r0, [r6], -r1, lsl #12
     830:	089f2108 	ldmeq	pc, {r3, r8, sp}	; <UNPREDICTABLE>
     834:	002f4c23 	eoreq	r4, pc, r3, lsr #24
     838:	06010402 	streq	r0, [r1], -r2, lsl #8
     83c:	21080666 	tstcs	r8, r6, ror #12
     840:	0067f49f 	mlseq	r7, pc, r4, pc	; <UNPREDICTABLE>
     844:	06010402 	streq	r0, [r1], -r2, lsl #8
     848:	23080666 	movwcs	r0, #34406	; 0x8666
     84c:	0067d8bb 	strhteq	sp, [r7], #-139	; 0xffffff75
     850:	06010402 	streq	r0, [r1], -r2, lsl #8
     854:	23080666 	movwcs	r0, #34406	; 0x8666
     858:	302ff4bb 	strhtcc	pc, [pc], -fp	; <UNPREDICTABLE>
     85c:	6a4b2fda 	bvs	12cc7cc <__bss_end__+0x12bffec>
     860:	0200674b 	andeq	r6, r0, #19660800	; 0x12c0000
     864:	66060104 	strvs	r0, [r6], -r4, lsl #2
     868:	bb210806 	bllt	842888 <__bss_end__+0x8360a8>
     86c:	0200674b 	andeq	r6, r0, #19660800	; 0x12c0000
     870:	66060104 	strvs	r0, [r6], -r4, lsl #2
     874:	bc210806 	stclt	8, cr0, [r1], #-24	; 0xffffffe8
     878:	00060214 	andeq	r0, r6, r4, lsl r2
     87c:	00de0101 	sbcseq	r0, lr, r1, lsl #2
     880:	00020000 	andeq	r0, r2, r0
     884:	00000083 	andeq	r0, r0, r3, lsl #1
     888:	0efb0102 	cdpeq	1, 15, cr0, cr11, cr2, {0}
     88c:	0101000d 	tsteq	r1, sp
     890:	00000101 	andeq	r0, r0, r1, lsl #2
     894:	00000100 	andeq	r0, r0, r0, lsl #2
     898:	62696c01 	rsbvs	r6, r9, #256	; 0x100
     89c:	752f0063 	strvc	r0, [pc, #-99]!	; 841 <__code_start__-0x77bf>
     8a0:	6c2f7273 	sfmvs	f7, 4, [pc], #-460	; 6dc <__code_start__-0x7924>
     8a4:	6c61636f 	stclvs	3, cr6, [r1], #-444	; 0xfffffe44
     8a8:	6c65432f 	stclvs	3, cr4, [r5], #-188	; 0xffffff44
     8ac:	2f72616c 	svccs	0x0072616c
     8b0:	2d6d7261 	sfmcs	f7, 2, [sp, #-388]!	; 0xfffffe7c
     8b4:	656e6f6e 	strbvs	r6, [lr, #-3950]!	; 0xf6e
     8b8:	6261652d 	rsbvs	r6, r1, #188743680	; 0xb400000
     8bc:	2e342f69 	cdpcs	15, 3, cr2, cr4, cr9, {3}
     8c0:	2d332e38 	ldccs	14, cr2, [r3, #-224]!	; 0xffffff20
     8c4:	37317363 	ldrcc	r7, [r1, -r3, ror #6]!
     8c8:	6c2f6530 	cfstr32vs	mvfx6, [pc], #-192	; 810 <__code_start__-0x77f0>
     8cc:	672f6269 	strvs	r6, [pc, -r9, ror #4]!
     8d0:	612f6363 	teqvs	pc, r3, ror #6
     8d4:	6e2d6d72 	mcrvs	13, 1, r6, cr13, cr2, {3}
     8d8:	2d656e6f 	stclcs	14, cr6, [r5, #-444]!	; 0xfffffe44
     8dc:	69626165 	stmdbvs	r2!, {r0, r2, r5, r6, r8, sp, lr}^
     8e0:	382e342f 	stmdacc	lr!, {r0, r1, r2, r3, r5, sl, ip, sp}
     8e4:	692f332e 	stmdbvs	pc!, {r1, r2, r3, r5, r8, r9, ip, sp}	; <UNPREDICTABLE>
     8e8:	756c636e 	strbvc	r6, [ip, #-878]!	; 0x36e
     8ec:	00006564 	andeq	r6, r0, r4, ror #10
     8f0:	68736168 	ldmdavs	r3!, {r3, r5, r6, r8, sp, lr}^
     8f4:	0100632e 	tsteq	r0, lr, lsr #6
     8f8:	74730000 	ldrbtvc	r0, [r3], #-0
     8fc:	746e6964 	strbtvc	r6, [lr], #-2404	; 0x964
     900:	6363672d 	cmnvs	r3, #11796480	; 0xb40000
     904:	0200682e 	andeq	r6, r0, #3014656	; 0x2e0000
     908:	00000000 	andeq	r0, r0, r0
     90c:	a2180205 	andsge	r0, r8, #1342177280	; 0x50000000
     910:	0e030000 	cdpeq	0, 0, cr0, cr3, cr0, {0}
     914:	84313001 	ldrthi	r3, [r1], #-1
     918:	0200312f 	andeq	r3, r0, #-1073741813	; 0xc000000b
     91c:	002f0204 	eoreq	r0, pc, r4, lsl #4
     920:	83020402 	movwhi	r0, #9218	; 0x2402
     924:	02040200 	andeq	r0, r4, #0, 4
     928:	04020083 	streq	r0, [r2], #-131	; 0x83
     92c:	02002f02 	andeq	r2, r0, #2, 30
     930:	002f0204 	eoreq	r0, pc, r4, lsl #4
     934:	29020402 	stmdbcs	r2, {r1, sl}
     938:	01040200 	mrseq	r0, R12_usr
     93c:	03062e06 	movweq	r2, #28166	; 0x6e06
     940:	83d74a09 	bicshi	r4, r7, #36864	; 0x9000
     944:	2f2f4b2f 	svccs	0x002f4b2f
     948:	2f2f2f83 	svccs	0x002f2f83
     94c:	2f322f4b 	svccs	0x00322f4b
     950:	2f2f2f2f 	svccs	0x002f2f2f
     954:	2e5a0330 	mrccs	3, 2, r0, cr10, cr0, {1}
     958:	022e2703 	eoreq	r2, lr, #786432	; 0xc0000
     95c:	01010004 	tsteq	r1, r4
     960:	000000ec 	andeq	r0, r0, ip, ror #1
     964:	00d00002 	sbcseq	r0, r0, r2
     968:	01020000 	mrseq	r0, (UNDEF: 2)
     96c:	000d0efb 	strdeq	r0, [sp], -fp
     970:	01010101 	tsteq	r1, r1, lsl #2
     974:	01000000 	mrseq	r0, (UNDEF: 0)
     978:	6c010000 	stcvs	0, cr0, [r1], {-0}
     97c:	00636269 	rsbeq	r6, r3, r9, ror #4
     980:	7273752f 	rsbsvc	r7, r3, #197132288	; 0xbc00000
     984:	636f6c2f 	cmnvs	pc, #12032	; 0x2f00
     988:	432f6c61 	teqmi	pc, #24832	; 0x6100
     98c:	616c6c65 	cmnvs	ip, r5, ror #24
     990:	72612f72 	rsbvc	r2, r1, #456	; 0x1c8
     994:	6f6e2d6d 	svcvs	0x006e2d6d
     998:	652d656e 	strvs	r6, [sp, #-1390]!	; 0x56e
     99c:	2f696261 	svccs	0x00696261
     9a0:	2e382e34 	mrccs	14, 1, r2, cr8, cr4, {1}
     9a4:	73632d33 	cmnvc	r3, #3264	; 0xcc0
     9a8:	65303731 	ldrvs	r3, [r0, #-1841]!	; 0x731
     9ac:	62696c2f 	rsbvs	r6, r9, #12032	; 0x2f00
     9b0:	6363672f 	cmnvs	r3, #12320768	; 0xbc0000
     9b4:	6d72612f 	ldfvse	f6, [r2, #-188]!	; 0xffffff44
     9b8:	6e6f6e2d 	cdpvs	14, 6, cr6, cr15, cr13, {1}
     9bc:	61652d65 	cmnvs	r5, r5, ror #26
     9c0:	342f6962 	strtcc	r6, [pc], #-2402	; 9c8 <__code_start__-0x7638>
     9c4:	332e382e 	teqcc	lr, #3014656	; 0x2e0000
     9c8:	636e692f 	cmnvs	lr, #770048	; 0xbc000
     9cc:	6564756c 	strbvs	r7, [r4, #-1388]!	; 0x56c
     9d0:	73752f00 	cmnvc	r5, #0, 30
     9d4:	6f6c2f72 	svcvs	0x006c2f72
     9d8:	2f6c6163 	svccs	0x006c6163
     9dc:	6c6c6543 	cfstr64vs	mvdx6, [ip], #-268	; 0xfffffef4
     9e0:	612f7261 	teqvs	pc, r1, ror #4
     9e4:	6e2d6d72 	mcrvs	13, 1, r6, cr13, cr2, {3}
     9e8:	2d656e6f 	stclcs	14, cr6, [r5, #-444]!	; 0xfffffe44
     9ec:	69626165 	stmdbvs	r2!, {r0, r2, r5, r6, r8, sp, lr}^
     9f0:	382e342f 	stmdacc	lr!, {r0, r1, r2, r3, r5, sl, ip, sp}
     9f4:	632d332e 	teqvs	sp, #-1207959552	; 0xb8000000
     9f8:	30373173 	eorscc	r3, r7, r3, ror r1
     9fc:	72612f65 	rsbvc	r2, r1, #404	; 0x194
     a00:	6f6e2d6d 	svcvs	0x006e2d6d
     a04:	652d656e 	strvs	r6, [sp, #-1390]!	; 0x56e
     a08:	2f696261 	svccs	0x00696261
     a0c:	6c636e69 	stclvs	14, cr6, [r3], #-420	; 0xfffffe5c
     a10:	00656475 	rsbeq	r6, r5, r5, ror r4
     a14:	6d656d00 	stclvs	13, cr6, [r5, #-0]
     a18:	2e746573 	mrccs	5, 3, r6, cr4, cr3, {3}
     a1c:	00010063 	andeq	r0, r1, r3, rrx
     a20:	64747300 	ldrbtvs	r7, [r4], #-768	; 0x300
     a24:	2e666564 	cdpcs	5, 6, cr6, cr6, cr4, {3}
     a28:	00020068 	andeq	r0, r2, r8, rrx
     a2c:	72747300 	rsbsvc	r7, r4, #0, 6
     a30:	2e676e69 	cdpcs	14, 6, cr6, cr7, cr9, {3}
     a34:	00030068 	andeq	r0, r3, r8, rrx
     a38:	05000000 	streq	r0, [r0, #-0]
     a3c:	00a30802 	adceq	r0, r3, r2, lsl #16
     a40:	4c131400 	cfldrsmi	mvf1, [r3], {-0}
     a44:	0402002f 	streq	r0, [r2], #-47	; 0x2f
     a48:	024d4901 	subeq	r4, sp, #16384	; 0x4000
     a4c:	01010002 	tsteq	r1, r2
     a50:	0000010c 	andeq	r0, r0, ip, lsl #2
     a54:	00f50002 	rscseq	r0, r5, r2
     a58:	01020000 	mrseq	r0, (UNDEF: 2)
     a5c:	000d0efb 	strdeq	r0, [sp], -fp
     a60:	01010101 	tsteq	r1, r1, lsl #2
     a64:	01000000 	mrseq	r0, (UNDEF: 0)
     a68:	6c010000 	stcvs	0, cr0, [r1], {-0}
     a6c:	00636269 	rsbeq	r6, r3, r9, ror #4
     a70:	7273752f 	rsbsvc	r7, r3, #197132288	; 0xbc00000
     a74:	636f6c2f 	cmnvs	pc, #12032	; 0x2f00
     a78:	432f6c61 	teqmi	pc, #24832	; 0x6100
     a7c:	616c6c65 	cmnvs	ip, r5, ror #24
     a80:	72612f72 	rsbvc	r2, r1, #456	; 0x1c8
     a84:	6f6e2d6d 	svcvs	0x006e2d6d
     a88:	652d656e 	strvs	r6, [sp, #-1390]!	; 0x56e
     a8c:	2f696261 	svccs	0x00696261
     a90:	2e382e34 	mrccs	14, 1, r2, cr8, cr4, {1}
     a94:	73632d33 	cmnvc	r3, #3264	; 0xcc0
     a98:	65303731 	ldrvs	r3, [r0, #-1841]!	; 0x731
     a9c:	62696c2f 	rsbvs	r6, r9, #12032	; 0x2f00
     aa0:	6363672f 	cmnvs	r3, #12320768	; 0xbc0000
     aa4:	6d72612f 	ldfvse	f6, [r2, #-188]!	; 0xffffff44
     aa8:	6e6f6e2d 	cdpvs	14, 6, cr6, cr15, cr13, {1}
     aac:	61652d65 	cmnvs	r5, r5, ror #26
     ab0:	342f6962 	strtcc	r6, [pc], #-2402	; ab8 <__code_start__-0x7548>
     ab4:	332e382e 	teqcc	lr, #3014656	; 0x2e0000
     ab8:	636e692f 	cmnvs	lr, #770048	; 0xbc000
     abc:	6564756c 	strbvs	r7, [r4, #-1388]!	; 0x56c
     ac0:	73552f00 	cmpvc	r5, #0, 30
     ac4:	2f737265 	svccs	0x00737265
     ac8:	61697262 	cmnvs	r9, r2, ror #4
     acc:	6e756a6e 	vsubvs.f32	s13, s10, s29
     ad0:	7365442f 	cmnvc	r5, #788529152	; 0x2f000000
     ad4:	706f746b 	rsbvc	r7, pc, fp, ror #8
     ad8:	6863732f 	stmdavs	r3!, {r0, r1, r2, r3, r5, r8, r9, ip, sp, lr}^
     adc:	2f6c6f6f 	svccs	0x006c6f6f
     ae0:	69727053 	ldmdbvs	r2!, {r0, r1, r4, r6, ip, sp, lr}^
     ae4:	3931676e 	ldmdbcc	r1!, {r1, r2, r3, r5, r6, r8, r9, sl, sp, lr}
     ae8:	432f3032 	teqmi	pc, #50	; 0x32
     aec:	30343253 	eorscc	r3, r4, r3, asr r2
     af0:	632f584c 	teqvs	pc, #76, 16	; 0x4c0000
     af4:	30343273 	eorscc	r3, r4, r3, ror r2
     af8:	322d786c 	eorcc	r7, sp, #108, 16	; 0x6c0000
     afc:	72707330 	rsbsvc	r7, r0, #48, 6	; 0xc0000000
     b00:	62696c2f 	rsbvs	r6, r9, #12032	; 0x2f00
     b04:	692f6970 	stmdbvs	pc!, {r4, r5, r6, r8, fp, sp, lr}	; <UNPREDICTABLE>
     b08:	756c636e 	strbvc	r6, [ip, #-878]!	; 0x36e
     b0c:	00006564 	andeq	r6, r0, r4, ror #10
     b10:	6e697270 	mcrvs	2, 3, r7, cr9, cr0, {3}
     b14:	632e6b74 	teqvs	lr, #116, 22	; 0x1d000
     b18:	00000100 	andeq	r0, r0, r0, lsl #2
     b1c:	61647473 	smcvs	18243	; 0x4743
     b20:	682e6772 	stmdavs	lr!, {r1, r4, r5, r6, r8, r9, sl, sp, lr}
     b24:	00000200 	andeq	r0, r0, r0, lsl #4
     b28:	6975623c 	ldmdbvs	r5!, {r2, r3, r4, r5, r9, sp, lr}^
     b2c:	692d746c 	pushvs	{r2, r3, r5, r6, sl, ip, sp, lr}
     b30:	00003e6e 	andeq	r3, r0, lr, ror #28
     b34:	70720000 	rsbsvc	r0, r2, r0
     b38:	00682e69 	rsbeq	r2, r8, r9, ror #28
     b3c:	76000003 	strvc	r0, [r0], -r3
     b40:	72702d61 	rsbsvc	r2, r0, #6208	; 0x1840
     b44:	6b746e69 	blvs	1d1c4f0 <__bss_end__+0x1d0fd10>
     b48:	0100682e 	tsteq	r0, lr, lsr #16
     b4c:	00000000 	andeq	r0, r0, r0
     b50:	a3280205 	teqge	r8, #1342177280	; 0x50000000
     b54:	6b170000 	blvs	5c0b5c <__bss_end__+0x5b437c>
     b58:	0289bf4b 	addeq	fp, r9, #300	; 0x12c
     b5c:	0101000e 	tsteq	r1, lr
     b60:	00000094 	muleq	r0, r4, r0
     b64:	007c0002 	rsbseq	r0, ip, r2
     b68:	01020000 	mrseq	r0, (UNDEF: 2)
     b6c:	000d0efb 	strdeq	r0, [sp], -fp
     b70:	01010101 	tsteq	r1, r1, lsl #2
     b74:	01000000 	mrseq	r0, (UNDEF: 0)
     b78:	6c010000 	stcvs	0, cr0, [r1], {-0}
     b7c:	00636269 	rsbeq	r6, r3, r9, ror #4
     b80:	6573552f 	ldrbvs	r5, [r3, #-1327]!	; 0x52f
     b84:	622f7372 	eorvs	r7, pc, #-939524095	; 0xc8000001
     b88:	6e616972 	mcrvs	9, 3, r6, cr1, cr2, {3}
     b8c:	2f6e756a 	svccs	0x006e756a
     b90:	6b736544 	blvs	1cda0a8 <__bss_end__+0x1ccd8c8>
     b94:	2f706f74 	svccs	0x00706f74
     b98:	6f686373 	svcvs	0x00686373
     b9c:	532f6c6f 	teqpl	pc, #28416	; 0x6f00
     ba0:	6e697270 	mcrvs	2, 3, r7, cr9, cr0, {3}
     ba4:	32393167 	eorscc	r3, r9, #-1073741799	; 0xc0000019
     ba8:	53432f30 	movtpl	r2, #16176	; 0x3f30
     bac:	4c303432 	cfldrsmi	mvf3, [r0], #-200	; 0xffffff38
     bb0:	73632f58 	cmnvc	r3, #88, 30	; 0x160
     bb4:	6c303432 	cfldrsvs	mvf3, [r0], #-200	; 0xffffff38
     bb8:	30322d78 	eorscc	r2, r2, r8, ror sp
     bbc:	2f727073 	svccs	0x00727073
     bc0:	7062696c 	rsbvc	r6, r2, ip, ror #18
     bc4:	6e692f69 	cdpvs	15, 6, cr2, cr9, cr9, {3}
     bc8:	64756c63 	ldrbtvs	r6, [r5], #-3171	; 0xc63
     bcc:	70000065 	andvc	r0, r0, r5, rrx
     bd0:	68637475 	stmdavs	r3!, {r0, r2, r4, r5, r6, sl, ip, sp, lr}^
     bd4:	632e7261 	teqvs	lr, #268435462	; 0x10000006
     bd8:	00000100 	andeq	r0, r0, r0, lsl #2
     bdc:	2e697072 	mcrcs	0, 3, r7, cr9, cr2, {3}
     be0:	00020068 	andeq	r0, r2, r8, rrx
     be4:	05000000 	streq	r0, [r0, #-0]
     be8:	00a38002 	adceq	r8, r3, r2
     bec:	6b4a1400 	blvs	1285bf4 <__bss_end__+0x1279414>
     bf0:	0213bc13 	andseq	fp, r3, #4864	; 0x1300
     bf4:	01010008 	tsteq	r1, r8
     bf8:	000000a0 	andeq	r0, r0, r0, lsr #1
     bfc:	00790002 	rsbseq	r0, r9, r2
     c00:	01020000 	mrseq	r0, (UNDEF: 2)
     c04:	000d0efb 	strdeq	r0, [sp], -fp
     c08:	01010101 	tsteq	r1, r1, lsl #2
     c0c:	01000000 	mrseq	r0, (UNDEF: 0)
     c10:	6c010000 	stcvs	0, cr0, [r1], {-0}
     c14:	00636269 	rsbeq	r6, r3, r9, ror #4
     c18:	6573552f 	ldrbvs	r5, [r3, #-1327]!	; 0x52f
     c1c:	622f7372 	eorvs	r7, pc, #-939524095	; 0xc8000001
     c20:	6e616972 	mcrvs	9, 3, r6, cr1, cr2, {3}
     c24:	2f6e756a 	svccs	0x006e756a
     c28:	6b736544 	blvs	1cda140 <__bss_end__+0x1ccd960>
     c2c:	2f706f74 	svccs	0x00706f74
     c30:	6f686373 	svcvs	0x00686373
     c34:	532f6c6f 	teqpl	pc, #28416	; 0x6f00
     c38:	6e697270 	mcrvs	2, 3, r7, cr9, cr0, {3}
     c3c:	32393167 	eorscc	r3, r9, #-1073741799	; 0xc0000019
     c40:	53432f30 	movtpl	r2, #16176	; 0x3f30
     c44:	4c303432 	cfldrsmi	mvf3, [r0], #-200	; 0xffffff38
     c48:	73632f58 	cmnvc	r3, #88, 30	; 0x160
     c4c:	6c303432 	cfldrsvs	mvf3, [r0], #-200	; 0xffffff38
     c50:	30322d78 	eorscc	r2, r2, r8, ror sp
     c54:	2f727073 	svccs	0x00727073
     c58:	7062696c 	rsbvc	r6, r2, ip, ror #18
     c5c:	6e692f69 	cdpvs	15, 6, cr2, cr9, cr9, {3}
     c60:	64756c63 	ldrbtvs	r6, [r5], #-3171	; 0xc63
     c64:	70000065 	andvc	r0, r0, r5, rrx
     c68:	2e6b7475 	mcrcs	4, 3, r7, cr11, cr5, {3}
     c6c:	00010063 	andeq	r0, r1, r3, rrx
     c70:	69707200 	ldmdbvs	r0!, {r9, ip, sp, lr}^
     c74:	0200682e 	andeq	r6, r0, #3014656	; 0x2e0000
     c78:	00000000 	andeq	r0, r0, r0
     c7c:	a3bc0205 			; <UNDEFINED> instruction: 0xa3bc0205
     c80:	4c150000 	ldcmi	0, cr0, [r5], {-0}
     c84:	0402002d 	streq	r0, [r2], #-45	; 0x2d
     c88:	02002f02 	andeq	r2, r0, #2, 30
     c8c:	00490204 	subeq	r0, r9, r4, lsl #4
     c90:	06010402 	streq	r0, [r1], -r2, lsl #8
     c94:	026b062e 	rsbeq	r0, fp, #48234496	; 0x2e00000
     c98:	01010006 	tsteq	r1, r6
     c9c:	000001f1 	strdeq	r0, [r0], -r1
     ca0:	00e90002 	rsceq	r0, r9, r2
     ca4:	01020000 	mrseq	r0, (UNDEF: 2)
     ca8:	000d0efb 	strdeq	r0, [sp], -fp
     cac:	01010101 	tsteq	r1, r1, lsl #2
     cb0:	01000000 	mrseq	r0, (UNDEF: 0)
     cb4:	6c010000 	stcvs	0, cr0, [r1], {-0}
     cb8:	00636269 	rsbeq	r6, r3, r9, ror #4
     cbc:	7273752f 	rsbsvc	r7, r3, #197132288	; 0xbc00000
     cc0:	636f6c2f 	cmnvs	pc, #12032	; 0x2f00
     cc4:	432f6c61 	teqmi	pc, #24832	; 0x6100
     cc8:	616c6c65 	cmnvs	ip, r5, ror #24
     ccc:	72612f72 	rsbvc	r2, r1, #456	; 0x1c8
     cd0:	6f6e2d6d 	svcvs	0x006e2d6d
     cd4:	652d656e 	strvs	r6, [sp, #-1390]!	; 0x56e
     cd8:	2f696261 	svccs	0x00696261
     cdc:	2e382e34 	mrccs	14, 1, r2, cr8, cr4, {1}
     ce0:	73632d33 	cmnvc	r3, #3264	; 0xcc0
     ce4:	65303731 	ldrvs	r3, [r0, #-1841]!	; 0x731
     ce8:	62696c2f 	rsbvs	r6, r9, #12032	; 0x2f00
     cec:	6363672f 	cmnvs	r3, #12320768	; 0xbc0000
     cf0:	6d72612f 	ldfvse	f6, [r2, #-188]!	; 0xffffff44
     cf4:	6e6f6e2d 	cdpvs	14, 6, cr6, cr15, cr13, {1}
     cf8:	61652d65 	cmnvs	r5, r5, ror #26
     cfc:	342f6962 	strtcc	r6, [pc], #-2402	; d04 <__code_start__-0x72fc>
     d00:	332e382e 	teqcc	lr, #3014656	; 0x2e0000
     d04:	636e692f 	cmnvs	lr, #770048	; 0xbc000
     d08:	6564756c 	strbvs	r7, [r4, #-1388]!	; 0x56c
     d0c:	73552f00 	cmpvc	r5, #0, 30
     d10:	2f737265 	svccs	0x00737265
     d14:	61697262 	cmnvs	r9, r2, ror #4
     d18:	6e756a6e 	vsubvs.f32	s13, s10, s29
     d1c:	7365442f 	cmnvc	r5, #788529152	; 0x2f000000
     d20:	706f746b 	rsbvc	r7, pc, fp, ror #8
     d24:	6863732f 	stmdavs	r3!, {r0, r1, r2, r3, r5, r8, r9, ip, sp, lr}^
     d28:	2f6c6f6f 	svccs	0x006c6f6f
     d2c:	69727053 	ldmdbvs	r2!, {r0, r1, r4, r6, ip, sp, lr}^
     d30:	3931676e 	ldmdbcc	r1!, {r1, r2, r3, r5, r6, r8, r9, sl, sp, lr}
     d34:	432f3032 	teqmi	pc, #50	; 0x32
     d38:	30343253 	eorscc	r3, r4, r3, asr r2
     d3c:	632f584c 	teqvs	pc, #76, 16	; 0x4c0000
     d40:	30343273 	eorscc	r3, r4, r3, ror r2
     d44:	322d786c 	eorcc	r7, sp, #108, 16	; 0x6c0000
     d48:	72707330 	rsbsvc	r7, r0, #48, 6	; 0xc0000000
     d4c:	62696c2f 	rsbvs	r6, r9, #12032	; 0x2f00
     d50:	692f6970 	stmdbvs	pc!, {r4, r5, r6, r8, fp, sp, lr}	; <UNPREDICTABLE>
     d54:	756c636e 	strbvc	r6, [ip, #-878]!	; 0x36e
     d58:	00006564 	andeq	r6, r0, r4, ror #10
     d5c:	702d6176 	eorvc	r6, sp, r6, ror r1
     d60:	746e6972 	strbtvc	r6, [lr], #-2418	; 0x972
     d64:	00632e6b 	rsbeq	r2, r3, fp, ror #28
     d68:	73000001 	movwvc	r0, #1
     d6c:	72616474 	rsbvc	r6, r1, #116, 8	; 0x74000000
     d70:	00682e67 	rsbeq	r2, r8, r7, ror #28
     d74:	72000002 	andvc	r0, r0, #2
     d78:	682e6970 	stmdavs	lr!, {r4, r5, r6, r8, fp, sp, lr}
     d7c:	00000300 	andeq	r0, r0, r0, lsl #6
     d80:	6975623c 	ldmdbvs	r5!, {r2, r3, r4, r5, r9, sp, lr}^
     d84:	692d746c 	pushvs	{r2, r3, r5, r6, sl, ip, sp, lr}
     d88:	00003e6e 	andeq	r3, r0, lr, ror #28
     d8c:	00000000 	andeq	r0, r0, r0
     d90:	a3f00205 	mvnsge	r0, #1342177280	; 0x50000000
     d94:	26030000 	strcs	r0, [r3], -r0
     d98:	13a50101 			; <UNDEFINED> instruction: 0x13a50101
     d9c:	02002d31 	andeq	r2, r0, #3136	; 0xc40
     da0:	002f0204 	eoreq	r0, pc, r4, lsl #4
     da4:	2d020402 	cfstrscs	mvf0, [r2, #-8]
     da8:	02040200 	andeq	r0, r4, #0, 4
     dac:	0402002f 	streq	r0, [r2], #-47	; 0x2f
     db0:	4c4c2d01 	mcrrmi	13, 0, r2, ip, cr1
     db4:	2f4b1430 	svccs	0x004b1430
     db8:	0402004f 	streq	r0, [r2], #-79	; 0x4f
     dbc:	02006702 	andeq	r6, r0, #524288	; 0x80000
     dc0:	4c650104 	stfmie	f0, [r5], #-16
     dc4:	2fa0304d 	svccs	0x00a0304d
     dc8:	26023031 			; <UNDEFINED> instruction: 0x26023031
     dcc:	2c2d8416 	cfstrscs	mvf8, [sp], #-88	; 0xffffffa8
     dd0:	01040200 	mrseq	r0, R12_usr
     dd4:	04020030 	streq	r0, [r2], #-48	; 0x30
     dd8:	66063301 	strvs	r3, [r6], -r1, lsl #6
     ddc:	01040200 	mrseq	r0, R12_usr
     de0:	0402002e 	streq	r0, [r2], #-46	; 0x2e
     de4:	21080601 	tstcs	r8, r1, lsl #12
     de8:	73032f67 	movwvc	r2, #16231	; 0x3f67
     dec:	2e130382 	cdpcs	3, 1, cr0, cr3, cr2, {4}
     df0:	01040200 	mrseq	r0, R12_usr
     df4:	02006606 	andeq	r6, r0, #6291456	; 0x600000
     df8:	83060104 	movwhi	r0, #24836	; 0x6104
     dfc:	31674b4b 	cmncc	r7, fp, asr #22
     e00:	2e65034b 	cdpcs	3, 6, cr0, cr5, cr11, {2}
     e04:	002e2303 	eoreq	r2, lr, r3, lsl #6
     e08:	06010402 	streq	r0, [r1], -r2, lsl #8
     e0c:	0402002e 	streq	r0, [r2], #-46	; 0x2e
     e10:	009f0601 	addseq	r0, pc, r1, lsl #12
     e14:	6a010402 	bvs	41e24 <__bss_end__+0x35644>
     e18:	03d72308 	bicseq	r2, r7, #8, 6	; 0x20000000
     e1c:	3c087fa4 	stccc	15, cr7, [r8], {164}	; 0xa4
     e20:	0402004b 	streq	r0, [r2], #-75	; 0x4b
     e24:	064a0601 	strbeq	r0, [sl], -r1, lsl #12
     e28:	2f4b2108 	svccs	0x004b2108
     e2c:	00db034b 	sbcseq	r0, fp, fp, asr #6
     e30:	484c9ff2 	stmdami	ip, {r1, r4, r5, r6, r7, r8, r9, sl, fp, ip, pc}^
     e34:	842f4b32 	strthi	r4, [pc], #-2866	; e3c <__code_start__-0x71c4>
     e38:	4d2d2f4b 	stcmi	15, cr2, [sp, #-300]!	; 0xfffffed4
     e3c:	832f3031 	teqhi	pc, #49	; 0x31
     e40:	01040200 	mrseq	r0, R12_usr
     e44:	0200be2c 	andeq	fp, r0, #44, 28	; 0x2c0
     e48:	4a060104 	bmi	181260 <__bss_end__+0x174a80>
     e4c:	02220806 	eoreq	r0, r2, #393216	; 0x60000
     e50:	0e031636 	mcreq	6, 0, r1, cr3, cr6, {1}
     e54:	302108d6 	ldrdcc	r0, [r1], -r6	; <UNPREDICTABLE>
     e58:	08312108 	ldmdaeq	r1!, {r3, r8, sp}
     e5c:	21083021 	tstcs	r8, r1, lsr #32
     e60:	08304b30 	ldmdaeq	r0!, {r4, r5, r8, r9, fp, lr}
     e64:	834b3021 	movthi	r3, #45089	; 0xb021
     e68:	2f31d983 	svccs	0x0031d983
     e6c:	01040200 	mrseq	r0, R12_usr
     e70:	04020065 	streq	r0, [r2], #-101	; 0x65
     e74:	004a0602 	subeq	r0, sl, r2, lsl #12
     e78:	06010402 	streq	r0, [r1], -r2, lsl #8
     e7c:	667fbf03 	ldrbtvs	fp, [pc], -r3, lsl #30
     e80:	02040200 	andeq	r0, r4, #0, 4
     e84:	03066606 	movweq	r6, #26118	; 0x6606
     e88:	684a00c5 	stmdavs	sl, {r0, r2, r6, r7}^
     e8c:	01001602 	tsteq	r0, r2, lsl #12
     e90:	00009d01 	andeq	r9, r0, r1, lsl #26
     e94:	86000200 	strhi	r0, [r0], -r0, lsl #4
     e98:	02000000 	andeq	r0, r0, #0
     e9c:	0d0efb01 	vstreq	d15, [lr, #-4]
     ea0:	01010100 	mrseq	r0, (UNDEF: 17)
     ea4:	00000001 	andeq	r0, r0, r1
     ea8:	01000001 	tsteq	r0, r1
     eac:	66617473 			; <UNDEFINED> instruction: 0x66617473
     eb0:	72732d66 	rsbsvc	r2, r3, #6528	; 0x1980
     eb4:	552f0063 	strpl	r0, [pc, #-99]!	; e59 <__code_start__-0x71a7>
     eb8:	73726573 	cmnvc	r2, #482344960	; 0x1cc00000
     ebc:	6972622f 	ldmdbvs	r2!, {r0, r1, r2, r3, r5, r9, sp, lr}^
     ec0:	756a6e61 	strbvc	r6, [sl, #-3681]!	; 0xe61
     ec4:	65442f6e 	strbvs	r2, [r4, #-3950]	; 0xf6e
     ec8:	6f746b73 	svcvs	0x00746b73
     ecc:	63732f70 	cmnvs	r3, #112, 30	; 0x1c0
     ed0:	6c6f6f68 	stclvs	15, cr6, [pc], #-416	; d38 <__code_start__-0x72c8>
     ed4:	7270532f 	rsbsvc	r5, r0, #-1140850688	; 0xbc000000
     ed8:	31676e69 	cmncc	r7, r9, ror #28
     edc:	2f303239 	svccs	0x00303239
     ee0:	34325343 	ldrtcc	r5, [r2], #-835	; 0x343
     ee4:	2f584c30 	svccs	0x00584c30
     ee8:	34327363 	ldrtcc	r7, [r2], #-867	; 0x363
     eec:	2d786c30 	ldclcs	12, cr6, [r8, #-192]!	; 0xffffff40
     ef0:	70733032 	rsbsvc	r3, r3, r2, lsr r0
     ef4:	696c2f72 	stmdbvs	ip!, {r1, r4, r5, r6, r8, r9, sl, fp, sp}^
     ef8:	2f697062 	svccs	0x00697062
     efc:	6c636e69 	stclvs	14, cr6, [r3], #-420	; 0xfffffe5c
     f00:	00656475 	rsbeq	r6, r5, r5, ror r4
     f04:	656c6300 	strbvs	r6, [ip, #-768]!	; 0x300
     f08:	722d6e61 	eorvc	r6, sp, #1552	; 0x610
     f0c:	6f6f6265 	svcvs	0x006f6265
     f10:	00632e74 	rsbeq	r2, r3, r4, ror lr
     f14:	72000001 	andvc	r0, r0, #1
     f18:	682e6970 	stmdavs	lr!, {r4, r5, r6, r8, fp, sp, lr}
     f1c:	00000200 	andeq	r0, r0, r0, lsl #4
     f20:	02050000 	andeq	r0, r5, #0
     f24:	0000a968 	andeq	sl, r0, r8, ror #18
     f28:	832f2f15 	teqhi	pc, #21, 30	; 0x54
     f2c:	0006024b 	andeq	r0, r6, fp, asr #4
     f30:	00a60101 	adceq	r0, r6, r1, lsl #2
     f34:	00020000 	andeq	r0, r2, r0
     f38:	00000080 	andeq	r0, r0, r0, lsl #1
     f3c:	0efb0102 	cdpeq	1, 15, cr0, cr11, cr2, {0}
     f40:	0101000d 	tsteq	r1, sp
     f44:	00000101 	andeq	r0, r0, r1, lsl #2
     f48:	00000100 	andeq	r0, r0, r0, lsl #2
     f4c:	61747301 	cmnvs	r4, r1, lsl #6
     f50:	732d6666 	teqvc	sp, #106954752	; 0x6600000
     f54:	2f006372 	svccs	0x00006372
     f58:	72657355 	rsbvc	r7, r5, #1409286145	; 0x54000001
     f5c:	72622f73 	rsbvc	r2, r2, #460	; 0x1cc
     f60:	6a6e6169 	bvs	1b9950c <__bss_end__+0x1b8cd2c>
     f64:	442f6e75 	strtmi	r6, [pc], #-3701	; f6c <__code_start__-0x7094>
     f68:	746b7365 	strbtvc	r7, [fp], #-869	; 0x365
     f6c:	732f706f 	teqvc	pc, #111	; 0x6f
     f70:	6f6f6863 	svcvs	0x006f6863
     f74:	70532f6c 	subsvc	r2, r3, ip, ror #30
     f78:	676e6972 			; <UNDEFINED> instruction: 0x676e6972
     f7c:	30323931 	eorscc	r3, r2, r1, lsr r9
     f80:	3253432f 	subscc	r4, r3, #-1140850688	; 0xbc000000
     f84:	584c3034 	stmdapl	ip, {r2, r4, r5, ip, sp}^
     f88:	3273632f 	rsbscc	r6, r3, #-1140850688	; 0xbc000000
     f8c:	786c3034 	stmdavc	ip!, {r2, r4, r5, ip, sp}^
     f90:	7330322d 	teqvc	r0, #-805306366	; 0xd0000002
     f94:	6c2f7270 	sfmvs	f7, 4, [pc], #-448	; ddc <__code_start__-0x7224>
     f98:	69706269 	ldmdbvs	r0!, {r0, r3, r5, r6, r9, sp, lr}^
     f9c:	636e692f 	cmnvs	lr, #770048	; 0xbc000
     fa0:	6564756c 	strbvs	r7, [r4, #-1388]!	; 0x56c
     fa4:	73630000 	cmnvc	r3, #0
     fa8:	74726174 	ldrbtvc	r6, [r2], #-372	; 0x174
     fac:	0100632e 	tsteq	r0, lr, lsr #6
     fb0:	70720000 	rsbsvc	r0, r2, r0
     fb4:	00682e69 	rsbeq	r2, r8, r9, ror #28
     fb8:	00000002 	andeq	r0, r0, r2
     fbc:	94020500 	strls	r0, [r2], #-1280	; 0x500
     fc0:	030000a9 	movweq	r0, #169	; 0xa9
     fc4:	3132010c 	teqcc	r2, ip, lsl #2
     fc8:	002f2d2f 	eoreq	r2, pc, pc, lsr #26
     fcc:	49010402 	stmdbmi	r1, {r1, sl}
     fd0:	034a0903 	movteq	r0, #43267	; 0xa903
     fd4:	022f2e0d 	eoreq	r2, pc, #13, 28	; 0xd0
     fd8:	01010006 	tsteq	r1, r6
     fdc:	000000a2 	andeq	r0, r0, r2, lsr #1
     fe0:	008e0002 	addeq	r0, lr, r2
     fe4:	01020000 	mrseq	r0, (UNDEF: 2)
     fe8:	000d0efb 	strdeq	r0, [sp], -fp
     fec:	01010101 	tsteq	r1, r1, lsl #2
     ff0:	01000000 	mrseq	r0, (UNDEF: 0)
     ff4:	73010000 	movwvc	r0, #4096	; 0x1000
     ff8:	66666174 			; <UNDEFINED> instruction: 0x66666174
     ffc:	6372732d 	cmnvs	r2, #-1275068416	; 0xb4000000
    1000:	73552f00 	cmpvc	r5, #0, 30
    1004:	2f737265 	svccs	0x00737265
    1008:	61697262 	cmnvs	r9, r2, ror #4
    100c:	6e756a6e 	vsubvs.f32	s13, s10, s29
    1010:	7365442f 	cmnvc	r5, #788529152	; 0x2f000000
    1014:	706f746b 	rsbvc	r7, pc, fp, ror #8
    1018:	6863732f 	stmdavs	r3!, {r0, r1, r2, r3, r5, r8, r9, ip, sp, lr}^
    101c:	2f6c6f6f 	svccs	0x006c6f6f
    1020:	69727053 	ldmdbvs	r2!, {r0, r1, r4, r6, ip, sp, lr}^
    1024:	3931676e 	ldmdbcc	r1!, {r1, r2, r3, r5, r6, r8, r9, sl, sp, lr}
    1028:	432f3032 	teqmi	pc, #50	; 0x32
    102c:	30343253 	eorscc	r3, r4, r3, asr r2
    1030:	632f584c 	teqvs	pc, #76, 16	; 0x4c0000
    1034:	30343273 	eorscc	r3, r4, r3, ror r2
    1038:	322d786c 	eorcc	r7, sp, #108, 16	; 0x6c0000
    103c:	72707330 	rsbsvc	r7, r0, #48, 6	; 0xc0000000
    1040:	62696c2f 	rsbvs	r6, r9, #12032	; 0x2f00
    1044:	692f6970 	stmdbvs	pc!, {r4, r5, r6, r8, fp, sp, lr}	; <UNPREDICTABLE>
    1048:	756c636e 	strbvc	r6, [ip, #-878]!	; 0x36e
    104c:	00006564 	andeq	r6, r0, r4, ror #10
    1050:	61666564 	cmnvs	r6, r4, ror #10
    1054:	2d746c75 	ldclcs	12, cr6, [r4, #-468]!	; 0xfffffe2c
    1058:	646e6168 	strbtvs	r6, [lr], #-360	; 0x168
    105c:	2d72656c 	cfldr64cs	mvdx6, [r2, #-432]!	; 0xfffffe50
    1060:	74736166 	ldrbtvc	r6, [r3], #-358	; 0x166
    1064:	0100632e 	tsteq	r0, lr, lsr #6
    1068:	70720000 	rsbsvc	r0, r2, r0
    106c:	00682e69 	rsbeq	r2, r8, r9, ror #28
    1070:	00000002 	andeq	r0, r0, r2
    1074:	cc020500 	cfstr32gt	mvfx0, [r2], {-0}
    1078:	130000a9 	movwne	r0, #169	; 0xa9
    107c:	001c0266 	andseq	r0, ip, r6, ror #4
    1080:	00a60101 	adceq	r0, r6, r1, lsl #2
    1084:	00020000 	andeq	r0, r2, r0
    1088:	00000092 	muleq	r0, r2, r0
    108c:	0efb0102 	cdpeq	1, 15, cr0, cr11, cr2, {0}
    1090:	0101000d 	tsteq	r1, sp
    1094:	00000101 	andeq	r0, r0, r1, lsl #2
    1098:	00000100 	andeq	r0, r0, r0, lsl #2
    109c:	61747301 	cmnvs	r4, r1, lsl #6
    10a0:	732d6666 	teqvc	sp, #106954752	; 0x6600000
    10a4:	2f006372 	svccs	0x00006372
    10a8:	72657355 	rsbvc	r7, r5, #1409286145	; 0x54000001
    10ac:	72622f73 	rsbvc	r2, r2, #460	; 0x1cc
    10b0:	6a6e6169 	bvs	1b9965c <__bss_end__+0x1b8ce7c>
    10b4:	442f6e75 	strtmi	r6, [pc], #-3701	; 10bc <__code_start__-0x6f44>
    10b8:	746b7365 	strbtvc	r7, [fp], #-869	; 0x365
    10bc:	732f706f 	teqvc	pc, #111	; 0x6f
    10c0:	6f6f6863 	svcvs	0x006f6863
    10c4:	70532f6c 	subsvc	r2, r3, ip, ror #30
    10c8:	676e6972 			; <UNDEFINED> instruction: 0x676e6972
    10cc:	30323931 	eorscc	r3, r2, r1, lsr r9
    10d0:	3253432f 	subscc	r4, r3, #-1140850688	; 0xbc000000
    10d4:	584c3034 	stmdapl	ip, {r2, r4, r5, ip, sp}^
    10d8:	3273632f 	rsbscc	r6, r3, #-1140850688	; 0xbc000000
    10dc:	786c3034 	stmdavc	ip!, {r2, r4, r5, ip, sp}^
    10e0:	7330322d 	teqvc	r0, #-805306366	; 0xd0000002
    10e4:	6c2f7270 	sfmvs	f7, 4, [pc], #-448	; f2c <__code_start__-0x70d4>
    10e8:	69706269 	ldmdbvs	r0!, {r0, r3, r5, r6, r9, sp, lr}^
    10ec:	636e692f 	cmnvs	lr, #770048	; 0xbc000
    10f0:	6564756c 	strbvs	r7, [r4, #-1388]!	; 0x56c
    10f4:	65640000 	strbvs	r0, [r4, #-0]!
    10f8:	6c756166 	ldfvse	f6, [r5], #-408	; 0xfffffe68
    10fc:	61682d74 	smcvs	33492	; 0x82d4
    1100:	656c646e 	strbvs	r6, [ip, #-1134]!	; 0x46e
    1104:	72702d72 	rsbsvc	r2, r0, #7296	; 0x1c80
    1108:	74656665 	strbtvc	r6, [r5], #-1637	; 0x665
    110c:	632e6863 	teqvs	lr, #6488064	; 0x630000
    1110:	00000100 	andeq	r0, r0, r0, lsl #2
    1114:	2e697072 	mcrcs	0, 3, r7, cr9, cr2, {3}
    1118:	00020068 	andeq	r0, r2, r8, rrx
    111c:	05000000 	streq	r0, [r0, #-0]
    1120:	00aa1002 	adceq	r1, sl, r2
    1124:	02661300 	rsbeq	r1, r6, #0, 6
    1128:	0101001c 	tsteq	r1, ip, lsl r0
    112c:	000000a3 	andeq	r0, r0, r3, lsr #1
    1130:	008f0002 	addeq	r0, pc, r2
    1134:	01020000 	mrseq	r0, (UNDEF: 2)
    1138:	000d0efb 	strdeq	r0, [sp], -fp
    113c:	01010101 	tsteq	r1, r1, lsl #2
    1140:	01000000 	mrseq	r0, (UNDEF: 0)
    1144:	73010000 	movwvc	r0, #4096	; 0x1000
    1148:	66666174 			; <UNDEFINED> instruction: 0x66666174
    114c:	6372732d 	cmnvs	r2, #-1275068416	; 0xb4000000
    1150:	73552f00 	cmpvc	r5, #0, 30
    1154:	2f737265 	svccs	0x00737265
    1158:	61697262 	cmnvs	r9, r2, ror #4
    115c:	6e756a6e 	vsubvs.f32	s13, s10, s29
    1160:	7365442f 	cmnvc	r5, #788529152	; 0x2f000000
    1164:	706f746b 	rsbvc	r7, pc, fp, ror #8
    1168:	6863732f 	stmdavs	r3!, {r0, r1, r2, r3, r5, r8, r9, ip, sp, lr}^
    116c:	2f6c6f6f 	svccs	0x006c6f6f
    1170:	69727053 	ldmdbvs	r2!, {r0, r1, r4, r6, ip, sp, lr}^
    1174:	3931676e 	ldmdbcc	r1!, {r1, r2, r3, r5, r6, r8, r9, sl, sp, lr}
    1178:	432f3032 	teqmi	pc, #50	; 0x32
    117c:	30343253 	eorscc	r3, r4, r3, asr r2
    1180:	632f584c 	teqvs	pc, #76, 16	; 0x4c0000
    1184:	30343273 	eorscc	r3, r4, r3, ror r2
    1188:	322d786c 	eorcc	r7, sp, #108, 16	; 0x6c0000
    118c:	72707330 	rsbsvc	r7, r0, #48, 6	; 0xc0000000
    1190:	62696c2f 	rsbvs	r6, r9, #12032	; 0x2f00
    1194:	692f6970 	stmdbvs	pc!, {r4, r5, r6, r8, fp, sp, lr}	; <UNPREDICTABLE>
    1198:	756c636e 	strbvc	r6, [ip, #-878]!	; 0x36e
    119c:	00006564 	andeq	r6, r0, r4, ror #10
    11a0:	61666564 	cmnvs	r6, r4, ror #10
    11a4:	2d746c75 	ldclcs	12, cr6, [r4, #-468]!	; 0xfffffe2c
    11a8:	646e6168 	strbtvs	r6, [lr], #-360	; 0x168
    11ac:	2d72656c 	cfldr64cs	mvdx6, [r2, #-432]!	; 0xfffffe50
    11b0:	65736572 	ldrbvs	r6, [r3, #-1394]!	; 0x572
    11b4:	00632e74 	rsbeq	r2, r3, r4, ror lr
    11b8:	72000001 	andvc	r0, r0, #1
    11bc:	682e6970 	stmdavs	lr!, {r4, r5, r6, r8, fp, sp, lr}
    11c0:	00000200 	andeq	r0, r0, r0, lsl #4
    11c4:	02050000 	andeq	r0, r5, #0
    11c8:	0000aa54 	andeq	sl, r0, r4, asr sl
    11cc:	1c026613 	stcne	6, cr6, [r2], {19}
    11d0:	ac010100 	stfges	f0, [r1], {-0}
    11d4:	02000000 	andeq	r0, r0, #0
    11d8:	00009800 	andeq	r9, r0, r0, lsl #16
    11dc:	fb010200 	blx	419e6 <__bss_end__+0x35206>
    11e0:	01000d0e 	tsteq	r0, lr, lsl #26
    11e4:	00010101 	andeq	r0, r1, r1, lsl #2
    11e8:	00010000 	andeq	r0, r1, r0
    11ec:	74730100 	ldrbtvc	r0, [r3], #-256	; 0x100
    11f0:	2d666661 	stclcs	6, cr6, [r6, #-388]!	; 0xfffffe7c
    11f4:	00637273 	rsbeq	r7, r3, r3, ror r2
    11f8:	6573552f 	ldrbvs	r5, [r3, #-1327]!	; 0x52f
    11fc:	622f7372 	eorvs	r7, pc, #-939524095	; 0xc8000001
    1200:	6e616972 	mcrvs	9, 3, r6, cr1, cr2, {3}
    1204:	2f6e756a 	svccs	0x006e756a
    1208:	6b736544 	blvs	1cda720 <__bss_end__+0x1ccdf40>
    120c:	2f706f74 	svccs	0x00706f74
    1210:	6f686373 	svcvs	0x00686373
    1214:	532f6c6f 	teqpl	pc, #28416	; 0x6f00
    1218:	6e697270 	mcrvs	2, 3, r7, cr9, cr0, {3}
    121c:	32393167 	eorscc	r3, r9, #-1073741799	; 0xc0000019
    1220:	53432f30 	movtpl	r2, #16176	; 0x3f30
    1224:	4c303432 	cfldrsmi	mvf3, [r0], #-200	; 0xffffff38
    1228:	73632f58 	cmnvc	r3, #88, 30	; 0x160
    122c:	6c303432 	cfldrsvs	mvf3, [r0], #-200	; 0xffffff38
    1230:	30322d78 	eorscc	r2, r2, r8, ror sp
    1234:	2f727073 	svccs	0x00727073
    1238:	7062696c 	rsbvc	r6, r2, ip, ror #18
    123c:	6e692f69 	cdpvs	15, 6, cr2, cr9, cr9, {3}
    1240:	64756c63 	ldrbtvs	r6, [r5], #-3171	; 0xc63
    1244:	64000065 	strvs	r0, [r0], #-101	; 0x65
    1248:	75616665 	strbvc	r6, [r1, #-1637]!	; 0x665
    124c:	682d746c 	stmdavs	sp!, {r2, r3, r5, r6, sl, ip, sp, lr}
    1250:	6c646e61 	stclvs	14, cr6, [r4], #-388	; 0xfffffe7c
    1254:	752d7265 	strvc	r7, [sp, #-613]!	; 0x265
    1258:	6665646e 	strbtvs	r6, [r5], -lr, ror #8
    125c:	64656e69 	strbtvs	r6, [r5], #-3689	; 0xe69
    1260:	736e692d 	cmnvc	lr, #737280	; 0xb4000
    1264:	00632e74 	rsbeq	r2, r3, r4, ror lr
    1268:	72000001 	andvc	r0, r0, #1
    126c:	682e6970 	stmdavs	lr!, {r4, r5, r6, r8, fp, sp, lr}
    1270:	00000200 	andeq	r0, r0, r0, lsl #4
    1274:	02050000 	andeq	r0, r5, #0
    1278:	0000aa98 	muleq	r0, r8, sl
    127c:	1c026613 	stcne	6, cr6, [r2], {19}
    1280:	47010100 	strmi	r0, [r1, -r0, lsl #2]
    1284:	02000000 	andeq	r0, r0, #0
    1288:	00003300 	andeq	r3, r0, r0, lsl #6
    128c:	fb010200 	blx	41a96 <__bss_end__+0x352b6>
    1290:	01000d0e 	tsteq	r0, lr, lsl #26
    1294:	00010101 	andeq	r0, r1, r1, lsl #2
    1298:	00010000 	andeq	r0, r1, r0
    129c:	74730100 	ldrbtvc	r0, [r3], #-256	; 0x100
    12a0:	2d666661 	stclcs	6, cr6, [r6, #-388]!	; 0xfffffe7c
    12a4:	00637273 	rsbeq	r7, r3, r3, ror r2
    12a8:	66656400 	strbtvs	r6, [r5], -r0, lsl #8
    12ac:	746c7561 	strbtvc	r7, [ip], #-1377	; 0x561
    12b0:	6e61682d 	cdpvs	8, 6, cr6, cr1, cr13, {1}
    12b4:	72656c64 	rsbvc	r6, r5, #100, 24	; 0x6400
    12b8:	00632e73 	rsbeq	r2, r3, r3, ror lr
    12bc:	00000001 	andeq	r0, r0, r1
    12c0:	dc020500 	cfstr32le	mvfx0, [r2], {-0}
    12c4:	150000aa 	strne	r0, [r0, #-170]	; 0xaa
    12c8:	0002022f 	andeq	r0, r2, pc, lsr #4
    12cc:	00c90101 	sbceq	r0, r9, r1, lsl #2
    12d0:	00020000 	andeq	r0, r2, r0
    12d4:	0000009a 	muleq	r0, sl, r0
    12d8:	0efb0102 	cdpeq	1, 15, cr0, cr11, cr2, {0}
    12dc:	0101000d 	tsteq	r1, sp
    12e0:	00000101 	andeq	r0, r0, r1, lsl #2
    12e4:	00000100 	andeq	r0, r0, r0, lsl #2
    12e8:	61747301 	cmnvs	r4, r1, lsl #6
    12ec:	732d6666 	teqvc	sp, #106954752	; 0x6600000
    12f0:	2f006372 	svccs	0x00006372
    12f4:	72657355 	rsbvc	r7, r5, #1409286145	; 0x54000001
    12f8:	72622f73 	rsbvc	r2, r2, #460	; 0x1cc
    12fc:	6a6e6169 	bvs	1b998a8 <__bss_end__+0x1b8d0c8>
    1300:	442f6e75 	strtmi	r6, [pc], #-3701	; 1308 <__code_start__-0x6cf8>
    1304:	746b7365 	strbtvc	r7, [fp], #-869	; 0x365
    1308:	732f706f 	teqvc	pc, #111	; 0x6f
    130c:	6f6f6863 	svcvs	0x006f6863
    1310:	70532f6c 	subsvc	r2, r3, ip, ror #30
    1314:	676e6972 			; <UNDEFINED> instruction: 0x676e6972
    1318:	30323931 	eorscc	r3, r2, r1, lsr r9
    131c:	3253432f 	subscc	r4, r3, #-1140850688	; 0xbc000000
    1320:	584c3034 	stmdapl	ip, {r2, r4, r5, ip, sp}^
    1324:	3273632f 	rsbscc	r6, r3, #-1140850688	; 0xbc000000
    1328:	786c3034 	stmdavc	ip!, {r2, r4, r5, ip, sp}^
    132c:	7330322d 	teqvc	r0, #-805306366	; 0xd0000002
    1330:	6c2f7270 	sfmvs	f7, 4, [pc], #-448	; 1178 <__code_start__-0x6e88>
    1334:	69706269 	ldmdbvs	r0!, {r0, r3, r5, r6, r9, sp, lr}^
    1338:	636e692f 	cmnvs	lr, #770048	; 0xbc000
    133c:	6564756c 	strbvs	r7, [r4, #-1388]!	; 0x56c
    1340:	6e690000 	cdpvs	0, 6, cr0, cr9, cr0, {0}
    1344:	72726574 	rsbsvc	r6, r2, #116, 10	; 0x1d000000
    1348:	73747075 	cmnvc	r4, #117	; 0x75
    134c:	632e632d 	teqvs	lr, #-1275068416	; 0xb4000000
    1350:	00000100 	andeq	r0, r0, r0, lsl #2
    1354:	2d697072 	stclcs	0, cr7, [r9, #-456]!	; 0xfffffe38
    1358:	65746e69 	ldrbvs	r6, [r4, #-3689]!	; 0xe69
    135c:	70757272 	rsbsvc	r7, r5, r2, ror r2
    1360:	682e7374 	stmdavs	lr!, {r2, r4, r5, r6, r8, r9, ip, sp, lr}
    1364:	00000200 	andeq	r0, r0, r0, lsl #4
    1368:	2e697072 	mcrcs	0, 3, r7, cr9, cr2, {3}
    136c:	00020068 	andeq	r0, r2, r8, rrx
    1370:	05000000 	streq	r0, [r0, #-0]
    1374:	00aae402 	adceq	lr, sl, r2, lsl #8
    1378:	011a0300 	tsteq	sl, r0, lsl #6
    137c:	67672f31 			; <UNDEFINED> instruction: 0x67672f31
    1380:	2d2f8336 	stccs	3, cr8, [pc, #-216]!	; 12b0 <__code_start__-0x6d50>
    1384:	02040200 	andeq	r0, r4, #0, 4
    1388:	0402002f 	streq	r0, [r2], #-47	; 0x2f
    138c:	02006502 	andeq	r6, r0, #8388608	; 0x800000
    1390:	2e060104 	adfcss	f0, f6, f4
    1394:	0a024c06 	beq	943b4 <__bss_end__+0x87bd4>
    1398:	a2010100 	andge	r0, r1, #0, 2
    139c:	02000000 	andeq	r0, r0, #0
    13a0:	00008000 	andeq	r8, r0, r0
    13a4:	fb010200 	blx	41bae <__bss_end__+0x353ce>
    13a8:	01000d0e 	tsteq	r0, lr, lsl #26
    13ac:	00010101 	andeq	r0, r1, r1, lsl #2
    13b0:	00010000 	andeq	r0, r1, r0
    13b4:	74730100 	ldrbtvc	r0, [r3], #-256	; 0x100
    13b8:	2d666661 	stclcs	6, cr6, [r6, #-388]!	; 0xfffffe7c
    13bc:	00637273 	rsbeq	r7, r3, r3, ror r2
    13c0:	6573552f 	ldrbvs	r5, [r3, #-1327]!	; 0x52f
    13c4:	622f7372 	eorvs	r7, pc, #-939524095	; 0xc8000001
    13c8:	6e616972 	mcrvs	9, 3, r6, cr1, cr2, {3}
    13cc:	2f6e756a 	svccs	0x006e756a
    13d0:	6b736544 	blvs	1cda8e8 <__bss_end__+0x1cce108>
    13d4:	2f706f74 	svccs	0x00706f74
    13d8:	6f686373 	svcvs	0x00686373
    13dc:	532f6c6f 	teqpl	pc, #28416	; 0x6f00
    13e0:	6e697270 	mcrvs	2, 3, r7, cr9, cr0, {3}
    13e4:	32393167 	eorscc	r3, r9, #-1073741799	; 0xc0000019
    13e8:	53432f30 	movtpl	r2, #16176	; 0x3f30
    13ec:	4c303432 	cfldrsmi	mvf3, [r0], #-200	; 0xffffff38
    13f0:	73632f58 	cmnvc	r3, #88, 30	; 0x160
    13f4:	6c303432 	cfldrsvs	mvf3, [r0], #-200	; 0xffffff38
    13f8:	30322d78 	eorscc	r2, r2, r8, ror sp
    13fc:	2f727073 	svccs	0x00727073
    1400:	7062696c 	rsbvc	r6, r2, ip, ror #18
    1404:	6e692f69 	cdpvs	15, 6, cr2, cr9, cr9, {3}
    1408:	64756c63 	ldrbtvs	r6, [r5], #-3171	; 0xc63
    140c:	72000065 	andvc	r0, r0, #101	; 0x65
    1410:	6f6f6265 	svcvs	0x006f6265
    1414:	00632e74 	rsbeq	r2, r3, r4, ror lr
    1418:	72000001 	andvc	r0, r0, #1
    141c:	682e6970 	stmdavs	lr!, {r4, r5, r6, r8, fp, sp, lr}
    1420:	00000200 	andeq	r0, r0, r0, lsl #4
    1424:	02050000 	andeq	r0, r5, #0
    1428:	0000ab50 	andeq	sl, r0, r0, asr fp
    142c:	14010d03 	strne	r0, [r1], #-3331	; 0xd03
    1430:	15852f31 	strne	r2, [r5, #3889]	; 0xf31
    1434:	2f4d4b2f 	svccs	0x004d4b2f
    1438:	67523567 	ldrbvs	r3, [r2, -r7, ror #10]
    143c:	01001002 	tsteq	r0, r2
    1440:	0000ae01 	andeq	sl, r0, r1, lsl #28
    1444:	7f000200 	svcvc	0x00000200
    1448:	02000000 	andeq	r0, r0, #0
    144c:	0d0efb01 	vstreq	d15, [lr, #-4]
    1450:	01010100 	mrseq	r0, (UNDEF: 17)
    1454:	00000001 	andeq	r0, r0, r1
    1458:	01000001 	tsteq	r0, r1
    145c:	66617473 			; <UNDEFINED> instruction: 0x66617473
    1460:	72732d66 	rsbsvc	r2, r3, #6528	; 0x1980
    1464:	552f0063 	strpl	r0, [pc, #-99]!	; 1409 <__code_start__-0x6bf7>
    1468:	73726573 	cmnvc	r2, #482344960	; 0x1cc00000
    146c:	6972622f 	ldmdbvs	r2!, {r0, r1, r2, r3, r5, r9, sp, lr}^
    1470:	756a6e61 	strbvc	r6, [sl, #-3681]!	; 0xe61
    1474:	65442f6e 	strbvs	r2, [r4, #-3950]	; 0xf6e
    1478:	6f746b73 	svcvs	0x00746b73
    147c:	63732f70 	cmnvs	r3, #112, 30	; 0x1c0
    1480:	6c6f6f68 	stclvs	15, cr6, [pc], #-416	; 12e8 <__code_start__-0x6d18>
    1484:	7270532f 	rsbsvc	r5, r0, #-1140850688	; 0xbc000000
    1488:	31676e69 	cmncc	r7, r9, ror #28
    148c:	2f303239 	svccs	0x00303239
    1490:	34325343 	ldrtcc	r5, [r2], #-835	; 0x343
    1494:	2f584c30 	svccs	0x00584c30
    1498:	34327363 	ldrtcc	r7, [r2], #-867	; 0x363
    149c:	2d786c30 	ldclcs	12, cr6, [r8, #-192]!	; 0xffffff40
    14a0:	70733032 	rsbsvc	r3, r3, r2, lsr r0
    14a4:	696c2f72 	stmdbvs	ip!, {r1, r4, r5, r6, r8, r9, sl, fp, sp}^
    14a8:	2f697062 	svccs	0x00697062
    14ac:	6c636e69 	stclvs	14, cr6, [r3], #-420	; 0xfffffe5c
    14b0:	00656475 	rsbeq	r6, r5, r5, ror r4
    14b4:	6d697400 	cfstrdvs	mvd7, [r9, #-0]
    14b8:	632e7265 	teqvs	lr, #1342177286	; 0x50000006
    14bc:	00000100 	andeq	r0, r0, r0, lsl #2
    14c0:	2e697072 	mcrcs	0, 3, r7, cr9, cr2, {3}
    14c4:	00020068 	andeq	r0, r2, r8, rrx
    14c8:	05000000 	streq	r0, [r0, #-0]
    14cc:	00abc402 	adceq	ip, fp, r2, lsl #8
    14d0:	2f141600 	svccs	0x00141600
    14d4:	0402002d 	streq	r0, [r2], #-45	; 0x2d
    14d8:	062e0601 	strteq	r0, [lr], -r1, lsl #12
    14dc:	4b2f316d 	blmi	bcda98 <__bss_end__+0xbc12b8>
    14e0:	4b2f314d 	blmi	bcda1c <__bss_end__+0xbc123c>
    14e4:	4c4b4c30 	mcrrmi	12, 3, r4, fp, cr0
    14e8:	2f2f6a2f 	svccs	0x002f6a2f
    14ec:	08022f84 	stmdaeq	r2, {r2, r7, r8, r9, sl, fp, sp}
    14f0:	1e010100 	adfnes	f0, f1, f0
    14f4:	02000001 	andeq	r0, r0, #1
    14f8:	0000d800 	andeq	sp, r0, r0, lsl #16
    14fc:	fb010200 	blx	41d06 <__bss_end__+0x35526>
    1500:	01000d0e 	tsteq	r0, lr, lsl #26
    1504:	00010101 	andeq	r0, r1, r1, lsl #2
    1508:	00010000 	andeq	r0, r1, r0
    150c:	752f0100 	strvc	r0, [pc, #-256]!	; 1414 <__code_start__-0x6bec>
    1510:	692f7273 	stmdbvs	pc!, {r0, r1, r4, r5, r6, r9, ip, sp, lr}	; <UNPREDICTABLE>
    1514:	756c636e 	strbvc	r6, [ip, #-878]!	; 0x36e
    1518:	6e2f6564 	cfsh64vs	mvdx6, mvdx15, #52
    151c:	696c7765 	stmdbvs	ip!, {r0, r2, r5, r6, r8, r9, sl, ip, sp, lr}^
    1520:	79732f62 	ldmdbvc	r3!, {r1, r5, r6, r8, r9, sl, fp, sp}^
    1524:	752f0073 	strvc	r0, [pc, #-115]!	; 14b9 <__code_start__-0x6b47>
    1528:	6c2f7273 	sfmvs	f7, 4, [pc], #-460	; 1364 <__code_start__-0x6c9c>
    152c:	672f6269 	strvs	r6, [pc, -r9, ror #4]!
    1530:	612f6363 	teqvs	pc, r3, ror #6
    1534:	6e2d6d72 	mcrvs	13, 1, r6, cr13, cr2, {3}
    1538:	2d656e6f 	stclcs	14, cr6, [r5, #-444]!	; 0xfffffe44
    153c:	69626165 	stmdbvs	r2!, {r0, r2, r5, r6, r8, sp, lr}^
    1540:	332e362f 	teqcc	lr, #49283072	; 0x2f00000
    1544:	692f312e 	stmdbvs	pc!, {r1, r2, r3, r5, r8, ip, sp}	; <UNPREDICTABLE>
    1548:	756c636e 	strbvc	r6, [ip, #-878]!	; 0x36e
    154c:	2f006564 	svccs	0x00006564
    1550:	656d6f68 	strbvs	r6, [sp, #-3944]!	; 0xf68
    1554:	676e652f 	strbvs	r6, [lr, -pc, lsr #10]!
    1558:	2f72656c 	svccs	0x0072656c
    155c:	73616c63 	cmnvc	r1, #25344	; 0x6300
    1560:	73632f73 	cmnvc	r3, #460	; 0x1cc
    1564:	6c303432 	cfldrsvs	mvf3, [r0], #-200	; 0xffffff38
    1568:	30322d78 	eorscc	r2, r2, r8, ror sp
    156c:	2f727073 	svccs	0x00727073
    1570:	62696c2f 	rsbvs	r6, r9, #12032	; 0x2f00
    1574:	692f6970 	stmdbvs	pc!, {r4, r5, r6, r8, fp, sp, lr}	; <UNPREDICTABLE>
    1578:	756c636e 	strbvc	r6, [ip, #-878]!	; 0x36e
    157c:	00006564 	andeq	r6, r0, r4, ror #10
    1580:	74726175 	ldrbtvc	r6, [r2], #-373	; 0x175
    1584:	0000632e 	andeq	r6, r0, lr, lsr #6
    1588:	6f6c0000 	svcvs	0x006c0000
    158c:	682e6b63 	stmdavs	lr!, {r0, r1, r5, r6, r8, r9, fp, sp, lr}
    1590:	00000100 	andeq	r0, r0, r0, lsl #2
    1594:	7079745f 	rsbsvc	r7, r9, pc, asr r4
    1598:	682e7365 	stmdavs	lr!, {r0, r2, r5, r6, r8, r9, ip, sp, lr}
    159c:	00000100 	andeq	r0, r0, r0, lsl #2
    15a0:	64647473 	strbtvs	r7, [r4], #-1139	; 0x473
    15a4:	682e6665 	stmdavs	lr!, {r0, r2, r5, r6, r9, sl, sp, lr}
    15a8:	00000200 	andeq	r0, r0, r0, lsl #4
    15ac:	6e656572 	mcrvs	5, 3, r6, cr5, cr2, {3}
    15b0:	00682e74 	rsbeq	r2, r8, r4, ror lr
    15b4:	72000001 	andvc	r0, r0, #1
    15b8:	682e6970 	stmdavs	lr!, {r4, r5, r6, r8, fp, sp, lr}
    15bc:	00000300 	andeq	r0, r0, r0, lsl #6
    15c0:	74726175 	ldrbtvc	r6, [r2], #-373	; 0x175
    15c4:	0300682e 	movweq	r6, #2094	; 0x82e
    15c8:	70670000 	rsbvc	r0, r7, r0
    15cc:	682e6f69 	stmdavs	lr!, {r0, r3, r5, r6, r8, r9, sl, fp, sp, lr}
    15d0:	00000300 	andeq	r0, r0, r0, lsl #6
    15d4:	02050000 	andeq	r0, r5, #0
    15d8:	0000acc0 	andeq	sl, r0, r0, asr #25
    15dc:	67012c03 	strvs	r2, [r1, -r3, lsl #24]
    15e0:	359e0c03 	ldrcc	r0, [lr, #3075]	; 0xc03
    15e4:	68356867 	ldmdavs	r5!, {r0, r1, r2, r5, r6, fp, sp, lr}
    15e8:	852e0c03 	strhi	r0, [lr, #-3075]!	; 0xc03
    15ec:	0369696b 	cmneq	r9, #1753088	; 0x1ac000
    15f0:	676b660c 	strbvs	r6, [fp, -ip, lsl #12]!
    15f4:	68344208 	ldmdavs	r4!, {r3, r9, lr}
    15f8:	8768364b 	strbhi	r3, [r8, -fp, asr #12]!
    15fc:	0402002f 	streq	r0, [r2], #-47	; 0x2f
    1600:	67682f01 	strbvs	r2, [r8, -r1, lsl #30]!
    1604:	004b6730 	subeq	r6, fp, r0, lsr r7
    1608:	2f010402 	svccs	0x00010402
    160c:	2e696768 	cdpcs	7, 6, cr6, cr9, cr8, {3}
    1610:	01000602 	tsteq	r0, r2, lsl #12
    1614:	00010101 	andeq	r0, r1, r1, lsl #2
    1618:	ce000200 	cdpgt	2, 0, cr0, cr0, cr0, {0}
    161c:	02000000 	andeq	r0, r0, #0
    1620:	0d0efb01 	vstreq	d15, [lr, #-4]
    1624:	01010100 	mrseq	r0, (UNDEF: 17)
    1628:	00000001 	andeq	r0, r0, r1
    162c:	01000001 	tsteq	r0, r1
    1630:	7273752f 	rsbsvc	r7, r3, #197132288	; 0xbc00000
    1634:	636e692f 	cmnvs	lr, #770048	; 0xbc000
    1638:	6564756c 	strbvs	r7, [r4, #-1388]!	; 0x56c
    163c:	77656e2f 	strbvc	r6, [r5, -pc, lsr #28]!
    1640:	2f62696c 	svccs	0x0062696c
    1644:	00737973 	rsbseq	r7, r3, r3, ror r9
    1648:	7273752f 	rsbsvc	r7, r3, #197132288	; 0xbc00000
    164c:	62696c2f 	rsbvs	r6, r9, #12032	; 0x2f00
    1650:	6363672f 	cmnvs	r3, #12320768	; 0xbc0000
    1654:	6d72612f 	ldfvse	f6, [r2, #-188]!	; 0xffffff44
    1658:	6e6f6e2d 	cdpvs	14, 6, cr6, cr15, cr13, {1}
    165c:	61652d65 	cmnvs	r5, r5, ror #26
    1660:	362f6962 	strtcc	r6, [pc], -r2, ror #18
    1664:	312e332e 	teqcc	lr, lr, lsr #6
    1668:	636e692f 	cmnvs	lr, #770048	; 0xbc000
    166c:	6564756c 	strbvs	r7, [r4, #-1388]!	; 0x56c
    1670:	6f682f00 	svcvs	0x00682f00
    1674:	652f656d 	strvs	r6, [pc, #-1389]!	; 110f <__code_start__-0x6ef1>
    1678:	656c676e 	strbvs	r6, [ip, #-1902]!	; 0x76e
    167c:	6c632f72 	stclvs	15, cr2, [r3], #-456	; 0xfffffe38
    1680:	2f737361 	svccs	0x00737361
    1684:	34327363 	ldrtcc	r7, [r2], #-867	; 0x363
    1688:	2d786c30 	ldclcs	12, cr6, [r8, #-192]!	; 0xffffff40
    168c:	70733032 	rsbsvc	r3, r3, r2, lsr r0
    1690:	6c2f2f72 	stcvs	15, cr2, [pc], #-456	; 14d0 <__code_start__-0x6b30>
    1694:	69706269 	ldmdbvs	r0!, {r0, r3, r5, r6, r9, sp, lr}^
    1698:	636e692f 	cmnvs	lr, #770048	; 0xbc000
    169c:	6564756c 	strbvs	r7, [r4, #-1388]!	; 0x56c
    16a0:	70670000 	rsbvc	r0, r7, r0
    16a4:	632e6f69 	teqvs	lr, #420	; 0x1a4
    16a8:	00000000 	andeq	r0, r0, r0
    16ac:	6b636f6c 	blvs	18dd464 <__bss_end__+0x18d0c84>
    16b0:	0100682e 	tsteq	r0, lr, lsr #16
    16b4:	745f0000 	ldrbvc	r0, [pc], #-0	; 16bc <__code_start__-0x6944>
    16b8:	73657079 	cmnvc	r5, #121	; 0x79
    16bc:	0100682e 	tsteq	r0, lr, lsr #16
    16c0:	74730000 	ldrbtvc	r0, [r3], #-0
    16c4:	66656464 	strbtvs	r6, [r5], -r4, ror #8
    16c8:	0200682e 	andeq	r6, r0, #3014656	; 0x2e0000
    16cc:	65720000 	ldrbvs	r0, [r2, #-0]!
    16d0:	2e746e65 	cdpcs	14, 7, cr6, cr4, cr5, {3}
    16d4:	00010068 	andeq	r0, r1, r8, rrx
    16d8:	69707200 	ldmdbvs	r0!, {r9, ip, sp, lr}^
    16dc:	0300682e 	movweq	r6, #2094	; 0x82e
    16e0:	70670000 	rsbvc	r0, r7, r0
    16e4:	682e6f69 	stmdavs	lr!, {r0, r3, r5, r6, r8, r9, sl, fp, sp, lr}
    16e8:	00000300 	andeq	r0, r0, r0, lsl #6
    16ec:	02050000 	andeq	r0, r5, #0
    16f0:	0000ae38 	andeq	sl, r0, r8, lsr lr
    16f4:	13012703 	movwne	r2, #5891	; 0x1703
    16f8:	f44f474c 	vst1.16	{d20}, [pc], ip
    16fc:	a14c4b68 	cmpge	ip, r8, ror #22
    1700:	49136a2f 	ldmdbmi	r3, {r0, r1, r2, r3, r5, r9, fp, sp, lr}
    1704:	4913be31 	ldmdbmi	r3, {r0, r4, r5, r9, sl, fp, ip, sp, pc}
    1708:	6a2fbe31 	bvs	bf0fd4 <__bss_end__+0xbe47f4>
    170c:	4f484d2f 	svcmi	0x00484d2f
    1710:	2f324913 	svccs	0x00324913
    1714:	000602b7 			; <UNDEFINED> instruction: 0x000602b7
    1718:	013d0101 	teqeq	sp, r1, lsl #2
    171c:	00020000 	andeq	r0, r2, r0
    1720:	000000e7 	andeq	r0, r0, r7, ror #1
    1724:	0efb0102 	cdpeq	1, 15, cr0, cr11, cr2, {0}
    1728:	0101000d 	tsteq	r1, sp
    172c:	00000101 	andeq	r0, r0, r1, lsl #2
    1730:	00000100 	andeq	r0, r0, r0, lsl #2
    1734:	73752f01 	cmnvc	r5, #1, 30
    1738:	6e692f72 	mcrvs	15, 3, r2, cr9, cr2, {3}
    173c:	64756c63 	ldrbtvs	r6, [r5], #-3171	; 0xc63
    1740:	656e2f65 	strbvs	r2, [lr, #-3941]!	; 0xf65
    1744:	62696c77 	rsbvs	r6, r9, #30464	; 0x7700
    1748:	7379732f 	cmnvc	r9, #-1140850688	; 0xbc000000
    174c:	73752f00 	cmnvc	r5, #0, 30
    1750:	696c2f72 	stmdbvs	ip!, {r1, r4, r5, r6, r8, r9, sl, fp, sp}^
    1754:	63672f62 	cmnvs	r7, #392	; 0x188
    1758:	72612f63 	rsbvc	r2, r1, #396	; 0x18c
    175c:	6f6e2d6d 	svcvs	0x006e2d6d
    1760:	652d656e 	strvs	r6, [sp, #-1390]!	; 0x56e
    1764:	2f696261 	svccs	0x00696261
    1768:	2e332e36 	mrccs	14, 1, r2, cr3, cr6, {1}
    176c:	6e692f31 	mcrvs	15, 3, r2, cr9, cr1, {1}
    1770:	64756c63 	ldrbtvs	r6, [r5], #-3171	; 0xc63
    1774:	682f0065 	stmdavs	pc!, {r0, r2, r5, r6}	; <UNPREDICTABLE>
    1778:	2f656d6f 	svccs	0x00656d6f
    177c:	6c676e65 	stclvs	14, cr6, [r7], #-404	; 0xfffffe6c
    1780:	632f7265 	teqvs	pc, #1342177286	; 0x50000006
    1784:	7373616c 	cmnvc	r3, #108, 2
    1788:	3273632f 	rsbscc	r6, r3, #-1140850688	; 0xbc000000
    178c:	786c3034 	stmdavc	ip!, {r2, r4, r5, ip, sp}^
    1790:	7330322d 	teqvc	r0, #-805306366	; 0xd0000002
    1794:	2f2f7270 	svccs	0x002f7270
    1798:	7062696c 	rsbvc	r6, r2, ip, ror #18
    179c:	6e692f69 	cdpvs	15, 6, cr2, cr9, cr9, {3}
    17a0:	64756c63 	ldrbtvs	r6, [r5], #-3171	; 0xc63
    17a4:	752f0065 	strvc	r0, [pc, #-101]!	; 1747 <__code_start__-0x68b9>
    17a8:	692f7273 	stmdbvs	pc!, {r0, r1, r4, r5, r6, r9, ip, sp, lr}	; <UNPREDICTABLE>
    17ac:	756c636e 	strbvc	r6, [ip, #-878]!	; 0x36e
    17b0:	6e2f6564 	cfsh64vs	mvdx6, mvdx15, #52
    17b4:	696c7765 	stmdbvs	ip!, {r0, r2, r5, r6, r8, r9, sl, ip, sp, lr}^
    17b8:	6b000062 	blvs	1948 <__code_start__-0x66b8>
    17bc:	6c6c616d 	stfvse	f6, [ip], #-436	; 0xfffffe4c
    17c0:	632e636f 	teqvs	lr, #-1140850687	; 0xbc000001
    17c4:	00000000 	andeq	r0, r0, r0
    17c8:	6b636f6c 	blvs	18dd580 <__bss_end__+0x18d0da0>
    17cc:	0100682e 	tsteq	r0, lr, lsr #16
    17d0:	745f0000 	ldrbvc	r0, [pc], #-0	; 17d8 <__code_start__-0x6828>
    17d4:	73657079 	cmnvc	r5, #121	; 0x79
    17d8:	0100682e 	tsteq	r0, lr, lsr #16
    17dc:	74730000 	ldrbtvc	r0, [r3], #-0
    17e0:	66656464 	strbtvs	r6, [r5], -r4, ror #8
    17e4:	0200682e 	andeq	r6, r0, #3014656	; 0x2e0000
    17e8:	65720000 	ldrbvs	r0, [r2, #-0]!
    17ec:	2e746e65 	cdpcs	14, 7, cr6, cr4, cr5, {3}
    17f0:	00010068 	andeq	r0, r1, r8, rrx
    17f4:	69707200 	ldmdbvs	r0!, {r9, ip, sp, lr}^
    17f8:	0300682e 	movweq	r6, #2094	; 0x82e
    17fc:	74730000 	ldrbtvc	r0, [r3], #-0
    1800:	676e6972 			; <UNDEFINED> instruction: 0x676e6972
    1804:	0400682e 	streq	r6, [r0], #-2094	; 0x82e
    1808:	00000000 	andeq	r0, r0, r0
    180c:	af580205 	svcge	0x00580205
    1810:	10030000 	andne	r0, r3, r0
    1814:	01830101 	orreq	r0, r3, r1, lsl #2
    1818:	00831468 	addeq	r1, r3, r8, ror #8
    181c:	7f010402 	svcvc	0x00010402
    1820:	01040200 	mrseq	r0, R12_usr
    1824:	4bb0084c 	blmi	fec0395c <__bss_end__+0xfebf717c>
    1828:	4b4b4c4b 	blmi	12d495c <__bss_end__+0x12c817c>
    182c:	04020068 	streq	r0, [r2], #-104	; 0x68
    1830:	66790301 	ldrbtvs	r0, [r9], -r1, lsl #6
    1834:	ac080903 	stcge	9, cr0, [r8], {3}
    1838:	4e2e012f 	sufmiep	f0, f6, #10.0
    183c:	674b6a4b 	strbvs	r6, [fp, -fp, asr #20]
    1840:	002f4c67 	eoreq	r4, pc, r7, ror #24
    1844:	03010402 	movweq	r0, #5122	; 0x1402
    1848:	02004a76 	andeq	r4, r0, #483328	; 0x76000
    184c:	26080104 	strcs	r0, [r8], -r4, lsl #2
    1850:	012fea08 	teqeq	pc, r8, lsl #20
    1854:	0802019f 	stmdaeq	r2, {r0, r1, r2, r3, r4, r7, r8}
    1858:	Address 0x0000000000001858 is out of bounds.


Disassembly of section .debug_str:

00000000 <.debug_str>:
       0:	676e6f6c 	strbvs	r6, [lr, -ip, ror #30]!
       4:	6e6f6c20 	cdpvs	12, 6, cr6, cr15, cr0, {1}
       8:	6e692067 	cdpvs	0, 6, cr2, cr9, cr7, {3}
       c:	5f5f0074 	svcpl	0x005f0074
      10:	434e5546 	movtmi	r5, #58694	; 0xe546
      14:	4e4f4954 	mcrmi	9, 2, r4, cr15, cr4, {2}
      18:	6c005f5f 	stcvs	15, cr5, [r0], {95}	; 0x5f
      1c:	20676e6f 	rsbcs	r6, r7, pc, ror #28
      20:	676e6f6c 	strbvs	r6, [lr, -ip, ror #30]!
      24:	736e7520 	cmnvc	lr, #32, 10	; 0x8000000
      28:	656e6769 	strbvs	r6, [lr, #-1897]!	; 0x769
      2c:	6e692064 	cdpvs	0, 6, cr2, cr9, cr4, {3}
      30:	552f0074 	strpl	r0, [pc, #-116]!	; ffffffc4 <__bss_end__+0xffff37e4>
      34:	73726573 	cmnvc	r2, #482344960	; 0x1cc00000
      38:	6972622f 	ldmdbvs	r2!, {r0, r1, r2, r3, r5, r9, sp, lr}^
      3c:	756a6e61 	strbvc	r6, [sl, #-3681]!	; 0xe61
      40:	65442f6e 	strbvs	r2, [r4, #-3950]	; 0xf6e
      44:	6f746b73 	svcvs	0x00746b73
      48:	63732f70 	cmnvs	r3, #112, 30	; 0x1c0
      4c:	6c6f6f68 	stclvs	15, cr6, [pc], #-416	; fffffeb4 <__bss_end__+0xffff36d4>
      50:	7270532f 	rsbsvc	r5, r0, #-1140850688	; 0xbc000000
      54:	31676e69 	cmncc	r7, r9, ror #28
      58:	2f303239 	svccs	0x00303239
      5c:	34325343 	ldrtcc	r5, [r2], #-835	; 0x343
      60:	2f584c30 	svccs	0x00584c30
      64:	34327363 	ldrtcc	r7, [r2], #-867	; 0x363
      68:	2d786c30 	ldclcs	12, cr6, [r8, #-192]!	; 0xffffff40
      6c:	70733032 	rsbsvc	r3, r3, r2, lsr r0
      70:	616c2f72 	smcvs	49906	; 0xc2f2
      74:	312f7362 	teqcc	pc, r2, ror #6
      78:	656d2d38 	strbvs	r2, [sp, #-3384]!	; 0xd38
      7c:	6568636d 	strbvs	r6, [r8, #-877]!	; 0x36d
      80:	692d6b63 	pushvs	{r0, r1, r5, r6, r8, r9, fp, sp, lr}
      84:	2f6c706d 	svccs	0x006c706d
      88:	65646f63 	strbvs	r6, [r4, #-3939]!	; 0xf63
      8c:	73657400 	cmnvc	r5, #0, 8
      90:	742f7374 	strtvc	r7, [pc], #-884	; 98 <__code_start__-0x7f68>
      94:	30747365 	rsbscc	r7, r4, r5, ror #6
      98:	4700632e 	strmi	r6, [r0, -lr, lsr #6]
      9c:	4320554e 	teqmi	r0, #327155712	; 0x13800000
      a0:	382e3420 	stmdacc	lr!, {r5, sl, ip, sp}
      a4:	2d20332e 	stccs	3, cr3, [r0, #-184]!	; 0xffffff48
      a8:	7570636d 	ldrbvc	r6, [r0, #-877]!	; 0x36d
      ac:	6d72613d 	ldfvse	f6, [r2, #-244]!	; 0xffffff0c
      b0:	36373131 			; <UNDEFINED> instruction: 0x36373131
      b4:	2d667a6a 	vstmdbcs	r6!, {s15-s120}
      b8:	6d2d2073 	stcvs	0, cr2, [sp, #-460]!	; 0xfffffe34
      bc:	656e7574 	strbvs	r7, [lr, #-1396]!	; 0x574
      c0:	6d72613d 	ldfvse	f6, [r2, #-244]!	; 0xffffff0c
      c4:	36373131 			; <UNDEFINED> instruction: 0x36373131
      c8:	2d667a6a 	vstmdbcs	r6!, {s15-s120}
      cc:	672d2073 			; <UNDEFINED> instruction: 0x672d2073
      d0:	20626467 	rsbcs	r6, r2, r7, ror #8
      d4:	20674f2d 	rsbcs	r4, r7, sp, lsr #30
      d8:	6474732d 	ldrbtvs	r7, [r4], #-813	; 0x32d
      dc:	756e673d 	strbvc	r6, [lr, #-1853]!	; 0x73d
      e0:	2d203939 	stccs	9, cr3, [r0, #-228]!	; 0xffffff1c
      e4:	65726666 	ldrbvs	r6, [r2, #-1638]!	; 0x666
      e8:	61747365 	cmnvs	r4, r5, ror #6
      ec:	6e69646e 	cdpvs	4, 6, cr6, cr9, cr14, {3}
      f0:	662d2067 	strtvs	r2, [sp], -r7, rrx
      f4:	742d6f6e 	strtvc	r6, [sp], #-3950	; 0xf6e
      f8:	656c706f 	strbvs	r7, [ip, #-111]!	; 0x6f
      fc:	2d6c6576 	cfstr64cs	mvdx6, [ip, #-472]!	; 0xfffffe28
     100:	726f6572 	rsbvc	r6, pc, #478150656	; 0x1c800000
     104:	00726564 	rsbseq	r6, r2, r4, ror #10
     108:	69736e75 	ldmdbvs	r3!, {r0, r2, r4, r5, r6, r9, sl, fp, sp, lr}^
     10c:	64656e67 	strbtvs	r6, [r5], #-3687	; 0xe67
     110:	61686320 	cmnvs	r8, r0, lsr #6
     114:	70720072 	rsbsvc	r0, r2, r2, ror r0
     118:	65725f69 	ldrbvs	r5, [r2, #-3945]!	; 0xf69
     11c:	5f746573 	svcpl	0x00746573
     120:	63747570 	cmnvs	r4, #112, 10	; 0x1c000000
     124:	656c6300 	strbvs	r6, [ip, #-768]!	; 0x300
     128:	725f6e61 	subsvc	r6, pc, #1552	; 0x610
     12c:	6f6f6265 	svcvs	0x006f6265
     130:	6f6e0074 	svcvs	0x006e0074
     134:	69616d74 	stmdbvs	r1!, {r2, r4, r5, r6, r8, sl, fp, sp, lr}^
     138:	656d006e 	strbvs	r0, [sp, #-110]!	; 0x6e
     13c:	6568636d 	strbvs	r6, [r8, #-877]!	; 0x36d
     140:	665f6b63 	ldrbvs	r6, [pc], -r3, ror #22
     144:	6873006e 	ldmdavs	r3!, {r1, r2, r3, r5, r6}^
     148:	2074726f 	rsbscs	r7, r4, pc, ror #4
     14c:	69736e75 	ldmdbvs	r3!, {r0, r2, r4, r5, r6, r9, sl, fp, sp, lr}^
     150:	64656e67 	strbtvs	r6, [r5], #-3687	; 0xe67
     154:	746e6920 	strbtvc	r6, [lr], #-2336	; 0x920
     158:	746f6e00 	strbtvc	r6, [pc], #-3584	; 160 <__code_start__-0x7ea0>
     15c:	6e69616d 	powvsez	f6, f1, #5.0
     160:	696c635f 	stmdbvs	ip!, {r0, r1, r2, r3, r4, r6, r8, r9, sp, lr}^
     164:	00746e65 	rsbseq	r6, r4, r5, ror #28
     168:	5f756d6d 	svcpl	0x00756d6d
     16c:	655f7369 	ldrbvs	r7, [pc, #-873]	; fffffe0b <__bss_end__+0xffff362b>
     170:	6c62616e 	stfvse	f6, [r2], #-440	; 0xfffffe48
     174:	73006465 	movwvc	r6, #1125	; 0x465
     178:	74726f68 	ldrbtvc	r6, [r2], #-3944	; 0xf68
     17c:	746e6920 	strbtvc	r6, [lr], #-2336	; 0x920
     180:	7a697300 	bvc	1a5cd88 <__bss_end__+0x1a505a8>
     184:	70797465 	rsbsvc	r7, r9, r5, ror #8
     188:	5f5a0065 	svcpl	0x005a0065
     18c:	6e617262 	cdpvs	2, 6, cr7, cr1, cr2, {3}
     190:	705f6863 	subsvc	r6, pc, r3, ror #16
     194:	00646572 	rsbeq	r6, r4, r2, ror r5
     198:	64697361 	strbtvs	r7, [r9], #-865	; 0x361
     19c:	72756f00 	rsbsvc	r6, r5, #0, 30
     1a0:	756d6d5f 	strbvc	r6, [sp, #-3423]!	; 0xd5f
     1a4:	7365725f 	cmnvc	r5, #-268435451	; 0xf0000005
     1a8:	6d007465 	cfstrsvs	mvf7, [r0, #-404]	; 0xfffffe6c
     1ac:	6d5f756d 	cfldr64vs	mvdx7, [pc, #-436]	; 0 <__code_start__-0x8000>
     1b0:	5f6b7261 	svcpl	0x006b7261
     1b4:	5f636573 	svcpl	0x00636573
     1b8:	64616572 	strbtvs	r6, [r1], #-1394	; 0x572
     1bc:	796c6e6f 	stmdbvc	ip!, {r0, r1, r2, r3, r5, r6, r9, sl, fp, sp, lr}^
     1c0:	7a697300 	bvc	1a5cdc8 <__bss_end__+0x1a505e8>
     1c4:	00745f65 	rsbseq	r5, r4, r5, ror #30
     1c8:	5f756d6d 	svcpl	0x00756d6d
     1cc:	5f636573 	svcpl	0x00636573
     1d0:	73746962 	cmnvc	r4, #1605632	; 0x188000
     1d4:	6c6e6f5f 	stclvs	15, cr6, [lr], #-380	; 0xfffffe84
     1d8:	5f560079 	svcpl	0x00560079
     1dc:	68676968 	stmdavs	r7!, {r3, r5, r6, r8, fp, sp, lr}^
     1e0:	6378655f 	cmnvs	r8, #398458880	; 0x17c00000
     1e4:	5f747065 	svcpl	0x00747065
     1e8:	5f420076 	svcpl	0x00420076
     1ec:	69646e65 	stmdbvs	r4!, {r0, r2, r5, r6, r9, sl, fp, sp, lr}^
     1f0:	6d006e61 	stcvs	14, cr6, [r0, #-388]	; 0xfffffe7c
     1f4:	632e756d 	teqvs	lr, #457179136	; 0x1b400000
     1f8:	65736e00 	ldrbvs	r6, [r3, #-3584]!	; 0xe00
     1fc:	5f490063 	svcpl	0x00490063
     200:	63616369 	cmnvs	r1, #-1543503871	; 0xa4000001
     204:	655f6568 	ldrbvs	r6, [pc, #-1384]	; fffffca4 <__bss_end__+0xffff34c4>
     208:	6c62616e 	stfvse	f6, [r2], #-440	; 0xfffffe48
     20c:	5f410065 	svcpl	0x00410065
     210:	67696c61 	strbvs	r6, [r9, -r1, ror #24]!
     214:	6e656d6e 	cdpvs	13, 6, cr6, cr5, cr14, {3}
     218:	756f0074 	strbvc	r0, [pc, #-116]!	; 1ac <__code_start__-0x7e54>
     21c:	70635f72 	rsbvc	r5, r3, r2, ror pc
     220:	735f3531 	cmpvc	pc, #205520896	; 0xc400000
     224:	705f7465 	subsvc	r7, pc, r5, ror #8
     228:	69636f72 	stmdbvs	r3!, {r1, r4, r5, r6, r8, r9, sl, fp, sp, lr}^
     22c:	74745f64 	ldrbtvc	r5, [r4], #-3940	; 0xf64
     230:	00307262 	eorseq	r7, r0, r2, ror #4
     234:	725f5041 	subsvc	r5, pc, #65	; 0x41
     238:	6e6f5f64 	cdpvs	15, 6, cr5, cr15, cr4, {3}
     23c:	6b00796c 	blvs	1e7f4 <__bss_end__+0x12014>
     240:	6c6c616d 	stfvse	f6, [ip], #-436	; 0xfffffe4c
     244:	615f636f 	cmpvs	pc, pc, ror #6
     248:	6e67696c 	cdpvs	9, 6, cr6, cr7, cr12, {3}
     24c:	73006465 	movwvc	r6, #1125	; 0x465
     250:	625f6365 	subsvs	r6, pc, #-1811939327	; 0x94000001
     254:	5f657361 	svcpl	0x00657361
     258:	72646461 	rsbvc	r6, r4, #1627389952	; 0x61000000
     25c:	756d6d00 	strbvc	r6, [sp, #-3328]!	; 0xd00
     260:	616e655f 	cmnvs	lr, pc, asr r5
     264:	5f656c62 	svcpl	0x00656c62
     268:	00746573 	rsbseq	r6, r4, r3, ror r5
     26c:	74697277 	strbtvc	r7, [r9], #-631	; 0x277
     270:	6f645f65 	svcvs	0x00645f65
     274:	6e69616d 	powvsez	f6, f1, #5.0
     278:	6363615f 	cmnvs	r3, #-1073741801	; 0xc0000017
     27c:	5f737365 	svcpl	0x00737365
     280:	6c727463 	cfldrdvs	mvd7, [r2], #-396	; 0xfffffe74
     284:	756d6d00 	strbvc	r6, [sp, #-3328]!	; 0xd00
     288:	7369645f 	cmnvc	r9, #1593835520	; 0x5f000000
     28c:	656c6261 	strbvs	r6, [ip, #-609]!	; 0x261
     290:	7465735f 	strbtvc	r7, [r5], #-863	; 0x35f
     294:	72756f00 	rsbsvc	r6, r5, #0, 30
     298:	3170635f 	cmncc	r0, pc, asr r3
     29c:	6f645f35 	svcvs	0x00645f35
     2a0:	6e69616d 	powvsez	f6, f1, #5.0
     2a4:	7274635f 	rsbsvc	r6, r4, #2080374785	; 0x7c000001
     2a8:	72775f6c 	rsbsvc	r5, r7, #108, 30	; 0x1b0
     2ac:	646c6600 	strbtvs	r6, [ip], #-1536	; 0x600
     2b0:	6f00745f 	svcvs	0x0000745f
     2b4:	6d5f7275 	lfmvs	f7, 2, [pc, #-468]	; e8 <__code_start__-0x7f18>
     2b8:	645f756d 	ldrbvs	r7, [pc], #-1389	; 2c0 <__code_start__-0x7d40>
     2bc:	62617369 	rsbvs	r7, r1, #-1543503871	; 0xa4000001
     2c0:	735f656c 	cmpvc	pc, #108, 10	; 0x1b000000
     2c4:	615f7465 	cmpvs	pc, r5, ror #8
     2c8:	68006d73 	stmdavs	r0, {r0, r1, r4, r5, r6, r8, sl, fp, sp, lr}
     2cc:	5f687361 	svcpl	0x00687361
     2d0:	6e697270 	mcrvs	2, 3, r7, cr9, cr0, {3}
     2d4:	52520074 	subspl	r0, r2, #116	; 0x74
     2d8:	6361635f 	cmnvs	r1, #2080374785	; 0x7c000001
     2dc:	725f6568 	subsvc	r6, pc, #104, 10	; 0x1a000000
     2e0:	73007065 	movwvc	r7, #101	; 0x65
     2e4:	72657075 	rsbvc	r7, r5, #117	; 0x75
     2e8:	31706300 	cmncc	r0, r0, lsl #6
     2ec:	74635f35 	strbtvc	r5, [r3], #-3893	; 0xf35
     2f0:	725f6c72 	subsvc	r6, pc, #29184	; 0x7200
     2f4:	5f316765 	svcpl	0x00316765
     2f8:	6d007277 	sfmvs	f7, 4, [r0, #-476]	; 0xfffffe24
     2fc:	6d5f756d 	cfldr64vs	mvdx7, [pc, #-436]	; 150 <__code_start__-0x7eb0>
     300:	5f6b7261 	svcpl	0x006b7261
     304:	5f636573 	svcpl	0x00636573
     308:	66007772 			; <UNDEFINED> instruction: 0x66007772
     30c:	6d5f646c 	cfldrdvs	mvd6, [pc, #-432]	; 164 <__code_start__-0x7e9c>
     310:	6d6d006b 	stclvs	0, cr0, [sp, #-428]!	; 0xfffffe54
     314:	74705f75 	ldrbtvc	r5, [r0], #-3957	; 0xf75
     318:	6c6c615f 	stfvse	f6, [ip], #-380	; 0xfffffe84
     31c:	5f00636f 	svcpl	0x0000636f
     320:	65736572 	ldrbvs	r6, [r3, #-1394]!	; 0x572
     324:	64657672 	strbtvs	r7, [r5], #-1650	; 0x672
     328:	725f0030 	subsvc	r0, pc, #48	; 0x30
     32c:	72657365 	rsbvc	r7, r5, #-1811939327	; 0x94000001
     330:	31646576 	smccc	18006	; 0x4656
     334:	5f504100 	svcpl	0x00504100
     338:	66007772 			; <UNDEFINED> instruction: 0x66007772
     33c:	74737269 	ldrbtvc	r7, [r3], #-617	; 0x269
     340:	76656c5f 			; <UNDEFINED> instruction: 0x76656c5f
     344:	645f6c65 	ldrbvs	r6, [pc], #-3173	; 34c <__code_start__-0x7cb4>
     348:	72637365 	rsbvc	r7, r3, #-1811939327	; 0x94000001
     34c:	6f747069 	svcvs	0x00747069
     350:	6d6d0072 	stclvs	0, cr0, [sp, #-456]!	; 0xfffffe38
     354:	616d5f75 	smcvs	54773	; 0xd5f5
     358:	65735f70 	ldrbvs	r5, [r3, #-3952]!	; 0xf70
     35c:	6f697463 	svcvs	0x00697463
     360:	6d6d006e 	stclvs	0, cr0, [sp, #-440]!	; 0xfffffe48
     364:	69645f75 	stmdbvs	r4!, {r0, r2, r4, r5, r6, r8, r9, sl, fp, ip, lr}^
     368:	6c626173 	stfvse	f6, [r2], #-460	; 0xfffffe34
     36c:	70630065 	rsbvc	r0, r3, r5, rrx
     370:	635f3531 	cmpvs	pc, #205520896	; 0xc400000
     374:	5f6c7274 	svcpl	0x006c7274
     378:	31676572 	smccc	30290	; 0x7652
     37c:	0064725f 	rsbeq	r7, r4, pc, asr r2
     380:	765f4556 			; <UNDEFINED> instruction: 0x765f4556
     384:	5f746365 	svcpl	0x00746365
     388:	00746e69 	rsbseq	r6, r4, r9, ror #28
     38c:	6f725f52 	svcvs	0x00725f52
     390:	72705f6d 	rsbsvc	r5, r0, #436	; 0x1b4
     394:	6e00746f 	cdpvs	4, 0, cr7, cr0, cr15, {3}
     398:	65747962 	ldrbvs	r7, [r4, #-2402]!	; 0x962
     39c:	41460073 	hvcmi	24579	; 0x6003
     3a0:	726f665f 	rsbvc	r6, pc, #99614720	; 0x5f00000
     3a4:	615f6563 	cmpvs	pc, r3, ror #10
     3a8:	756f0070 	strbvc	r0, [pc, #-112]!	; 340 <__code_start__-0x7cc0>
     3ac:	6d6d5f72 	stclvs	15, cr5, [sp, #-456]!	; 0xfffffe38
     3b0:	79735f75 	ldmdbvc	r3!, {r0, r2, r4, r5, r6, r8, r9, sl, fp, ip, lr}^
     3b4:	705f636e 	subsvc	r6, pc, lr, ror #6
     3b8:	6d5f6574 	cfldr64vs	mvdx6, [pc, #-464]	; 1f0 <__code_start__-0x7e10>
     3bc:	0073646f 	rsbseq	r6, r3, pc, ror #8
     3c0:	72775f57 	rsbsvc	r5, r7, #348	; 0x15c
     3c4:	5f657469 	svcpl	0x00657469
     3c8:	00667562 	rsbeq	r7, r6, r2, ror #10
     3cc:	72705f53 	rsbsvc	r5, r0, #332	; 0x14c
     3d0:	6d00746f 	cfstrsvs	mvf7, [r0, #-444]	; 0xfffffe44
     3d4:	6d5f756d 	cfldr64vs	mvdx7, [pc, #-436]	; 228 <__code_start__-0x7dd8>
     3d8:	5f6b7261 	svcpl	0x006b7261
     3dc:	5f636573 	svcpl	0x00636573
     3e0:	705f7061 	subsvc	r7, pc, r1, rrx
     3e4:	006d7265 	rsbeq	r7, sp, r5, ror #4
     3e8:	5f756d6d 	svcpl	0x00756d6d
     3ec:	74696e69 	strbtvc	r6, [r9], #-3689	; 0xe69
     3f0:	756d6d00 	strbvc	r6, [sp, #-3328]!	; 0xd00
     3f4:	5f74705f 	svcpl	0x0074705f
     3f8:	6f6c6c61 	svcvs	0x006c6c61
     3fc:	74615f63 	strbtvc	r5, [r1], #-3939	; 0xf63
     400:	554d4d00 	strbpl	r4, [sp, #-3328]	; 0xd00
     404:	616e655f 	cmnvs	lr, pc, asr r5
     408:	64656c62 	strbtvs	r6, [r5], #-3170	; 0xc62
     40c:	755f5500 	ldrbvc	r5, [pc, #-1280]	; ffffff14 <__bss_end__+0xffff3734>
     410:	696c616e 	stmdbvs	ip!, {r1, r2, r3, r5, r6, r8, sp, lr}^
     414:	64656e67 	strbtvs	r6, [r5], #-3687	; 0xe67
     418:	6e697500 	cdpvs	5, 6, cr7, cr9, cr0, {0}
     41c:	5f323374 	svcpl	0x00323374
     420:	50580074 	subspl	r0, r8, r4, ror r0
     424:	0074705f 	rsbseq	r7, r4, pc, asr r0
     428:	745f5254 	ldrbvc	r5, [pc], #-596	; 430 <__code_start__-0x7bd0>
     42c:	725f7865 	subsvc	r7, pc, #6619136	; 0x650000
     430:	70616d65 	rsbvc	r6, r1, r5, ror #26
     434:	646e6900 	strbtvs	r6, [lr], #-2304	; 0x900
     438:	63007865 	movwvs	r7, #2149	; 0x865
     43c:	72746e6f 	rsbsvc	r6, r4, #1776	; 0x6f0
     440:	725f6c6f 	subsvc	r6, pc, #28416	; 0x6f00
     444:	00316765 	eorseq	r6, r1, r5, ror #14
     448:	5f6d7361 	svcpl	0x006d7361
     44c:	5f746f6e 	svcpl	0x00746f6e
     450:	6c706d69 	ldclvs	13, cr6, [r0], #-420	; 0xfffffe5c
     454:	6e656d65 	cdpvs	13, 6, cr6, cr5, cr5, {3}
     458:	00646574 	rsbeq	r6, r4, r4, ror r5
     45c:	5f756d6d 	svcpl	0x00756d6d
     460:	62616e65 	rsbvs	r6, r1, #1616	; 0x650
     464:	6300656c 	movwvs	r6, #1388	; 0x56c
     468:	5f353170 	svcpl	0x00353170
     46c:	6c727463 	cfldrdvs	mvd7, [r2], #-396	; 0xfffffe74
     470:	6765725f 			; <UNDEFINED> instruction: 0x6765725f
     474:	00745f31 	rsbseq	r5, r4, r1, lsr pc
     478:	756e755f 	strbvc	r7, [lr, #-1375]!	; 0x55f
     47c:	31646573 	smccc	18003	; 0x4653
     480:	6d656d00 	stclvs	13, cr6, [r5, #-0]
     484:	00746573 	rsbseq	r6, r4, r3, ror r5
     488:	5f646c66 	svcpl	0x00646c66
     48c:	6e697270 	mcrvs	2, 3, r7, cr9, cr0, {3}
     490:	65720074 	ldrbvs	r0, [r2, #-116]!	; 0x74
     494:	645f6461 	ldrbvs	r6, [pc], #-1121	; 49c <__code_start__-0x7b64>
     498:	69616d6f 	stmdbvs	r1!, {r0, r1, r2, r3, r5, r6, r8, sl, fp, sp, lr}^
     49c:	63615f6e 	cmnvs	r1, #440	; 0x1b8
     4a0:	73736563 	cmnvc	r3, #415236096	; 0x18c00000
     4a4:	7274635f 	rsbsvc	r6, r4, #2080374785	; 0x7c000001
     4a8:	6c66006c 	stclvs	0, cr0, [r6], #-432	; 0xfffffe50
     4ac:	65735f64 	ldrbvs	r5, [r3, #-3940]!	; 0xf64
     4b0:	61625f74 	smcvs	9716	; 0x25f4
     4b4:	615f6573 	cmpvs	pc, r3, ror r5	; <UNPREDICTABLE>
     4b8:	00726464 	rsbseq	r6, r2, r4, ror #8
     4bc:	5f756d6d 	svcpl	0x00756d6d
     4c0:	74736e69 	ldrbtvc	r6, [r3], #-3689	; 0xe69
     4c4:	5f6c6c61 	svcpl	0x006c6c61
     4c8:	646e6168 	strbtvs	r6, [lr], #-360	; 0x168
     4cc:	7372656c 	cmnvc	r2, #108, 10	; 0x1b000000
     4d0:	5f504100 	svcpl	0x00504100
     4d4:	615f6f6e 	cmpvs	pc, lr, ror #30
     4d8:	73656363 	cmnvc	r5, #-1946157055	; 0x8c000001
     4dc:	6f640073 	svcvs	0x00640073
     4e0:	6e69616d 	powvsez	f6, f1, #5.0
     4e4:	62735f00 	rsbsvs	r5, r3, #0, 30
     4e8:	5f00307a 	svcpl	0x0000307a
     4ec:	317a6273 	cmncc	sl, r3, ror r2
     4f0:	756d6d00 	strbvc	r6, [sp, #-3328]!	; 0xd00
     4f4:	70616d5f 	rsbvc	r6, r1, pc, asr sp
     4f8:	6365735f 	cmnvs	r5, #2080374785	; 0x7c000001
     4fc:	6e6f6974 	mcrvs	9, 3, r6, cr15, cr4, {3}
     500:	324c0073 	subcc	r0, ip, #115	; 0x73
     504:	616e655f 	cmnvs	lr, pc, asr r5
     508:	64656c62 	strbtvs	r6, [r5], #-3170	; 0xc62
     50c:	755f4300 	ldrbvc	r4, [pc, #-768]	; 214 <__code_start__-0x7dec>
     510:	6966696e 	stmdbvs	r6!, {r1, r2, r3, r5, r6, r8, fp, sp, lr}^
     514:	655f6465 	ldrbvs	r6, [pc, #-1125]	; b7 <__code_start__-0x7f49>
     518:	6c62616e 	stfvse	f6, [r2], #-440	; 0xfffffe48
     51c:	756f0065 	strbvc	r0, [pc, #-101]!	; 4bf <__code_start__-0x7b41>
     520:	6d6d5f72 	stclvs	15, cr5, [sp, #-456]!	; 0xfffffe38
     524:	6e655f75 	mcrvs	15, 3, r5, cr5, cr5, {3}
     528:	656c6261 	strbvs	r6, [ip, #-609]!	; 0x261
     52c:	7465735f 	strbtvc	r7, [r5], #-863	; 0x35f
     530:	6d73615f 	ldfvse	f6, [r3, #-380]!	; 0xfffffe84
     534:	756d6d00 	strbvc	r6, [sp, #-3328]!	; 0xd00
     538:	6f6f6c5f 	svcvs	0x006f6c5f
     53c:	5f70756b 	svcpl	0x0070756b
     540:	74636573 	strbtvc	r6, [r3], #-1395	; 0x573
     544:	006e6f69 	rsbeq	r6, lr, r9, ror #30
     548:	4d656e4f 	stclmi	14, cr6, [r5, #-316]!	; 0xfffffec4
     54c:	6d6d0042 	stclvs	0, cr0, [sp, #-264]!	; 0xfffffef8
     550:	616d5f75 	smcvs	54773	; 0xd5f5
     554:	735f6b72 	cmpvc	pc, #116736	; 0x1c800
     558:	6e5f6365 	cdpvs	3, 5, cr6, cr15, cr5, {3}
     55c:	63615f6f 	cmnvs	r1, #444	; 0x1bc
     560:	73736563 	cmnvc	r3, #415236096	; 0x18c00000
     564:	746e6900 	strbtvc	r6, [lr], #-2304	; 0x900
     568:	696e695f 	stmdbvs	lr!, {r0, r1, r2, r3, r4, r6, r8, fp, sp, lr}^
     56c:	6d6d0074 	stclvs	0, cr0, [sp, #-464]!	; 0xfffffe30
     570:	65682d75 	strbvs	r2, [r8, #-3445]!	; 0xd75
     574:	7265706c 	rsbvc	r7, r5, #108	; 0x6c
     578:	00632e73 	rsbeq	r2, r3, r3, ror lr
     57c:	5f646c66 	svcpl	0x00646c66
     580:	63656863 	cmnvs	r5, #6488064	; 0x630000
     584:	666f5f6b 	strbtvs	r5, [pc], -fp, ror #30
     588:	74657366 	strbtvc	r7, [r5], #-870	; 0x366
     58c:	61660073 	smcvs	24579	; 0x6003
     590:	685f7473 	ldmdavs	pc, {r0, r1, r4, r5, r6, sl, ip, sp, lr}^	; <UNPREDICTABLE>
     594:	00687361 	rsbeq	r7, r8, r1, ror #6
     598:	746e6f63 	strbtvc	r6, [lr], #-3939	; 0xf63
     59c:	5f6c6f72 	svcpl	0x006c6f72
     5a0:	31676572 	smccc	30290	; 0x7652
     5a4:	6e61735f 	mcrvs	3, 3, r7, cr1, cr15, {2}
     5a8:	5f797469 	svcpl	0x00797469
     5ac:	63656863 	cmnvs	r5, #6488064	; 0x630000
     5b0:	6c66006b 	stclvs	0, cr0, [r6], #-428	; 0xfffffe54
     5b4:	68635f64 	stmdavs	r3!, {r2, r5, r6, r8, r9, sl, fp, ip, lr}^
     5b8:	5f6b6365 	svcpl	0x006b6365
     5bc:	696c6176 	stmdbvs	ip!, {r1, r2, r4, r5, r6, r8, sp, lr}^
     5c0:	68730064 	ldmdavs	r3!, {r2, r5, r6}^
     5c4:	00746669 	rsbseq	r6, r4, r9, ror #12
     5c8:	5f626c74 	svcpl	0x00626c74
     5cc:	666e6f63 	strbtvs	r6, [lr], -r3, ror #30
     5d0:	73006769 	movwvc	r6, #1897	; 0x769
     5d4:	615f7465 	cmpvs	pc, r5, ror #8
     5d8:	63006c6c 	movwvs	r6, #3180	; 0xc6c
     5dc:	6b636568 	blvs	18d9b84 <__bss_end__+0x18cd3a4>
     5e0:	5f6d765f 	svcpl	0x006d765f
     5e4:	75727473 	ldrbvc	r7, [r2, #-1139]!	; 0x473
     5e8:	00737463 	rsbseq	r7, r3, r3, ror #8
     5ec:	746e6f63 	strbtvc	r6, [lr], #-3939	; 0xf63
     5f0:	5f6c6f72 	svcpl	0x006c6f72
     5f4:	31676572 	smccc	30290	; 0x7652
     5f8:	6972705f 	ldmdbvs	r2!, {r0, r1, r2, r3, r4, r6, ip, sp, lr}^
     5fc:	7400746e 	strvc	r7, [r0], #-1134	; 0x46e
     600:	635f626c 	cmpvs	pc, #108, 4	; 0xc0000006
     604:	69666e6f 	stmdbvs	r6!, {r0, r1, r2, r3, r5, r6, r9, sl, fp, sp, lr}^
     608:	68635f67 	stmdavs	r3!, {r0, r1, r2, r5, r6, r8, r9, sl, fp, ip, lr}^
     60c:	5f6b6365 	svcpl	0x006b6365
     610:	7366666f 	cmnvc	r6, #116391936	; 0x6f00000
     614:	00737465 	rsbseq	r7, r3, r5, ror #8
     618:	616d6f64 	cmnvs	sp, r4, ror #30
     61c:	615f6e69 	cmpvs	pc, r9, ror #28
     620:	705f6c63 	subsvc	r6, pc, r3, ror #24
     624:	746e6972 	strbtvc	r6, [lr], #-2418	; 0x972
     628:	6e6f6300 	cdpvs	3, 6, cr6, cr15, cr0, {0}
     62c:	6c6f7274 	sfmvs	f7, 2, [pc], #-464	; 464 <__code_start__-0x7b9c>
     630:	6765725f 			; <UNDEFINED> instruction: 0x6765725f
     634:	68635f31 	stmdavs	r3!, {r0, r4, r5, r8, r9, sl, fp, ip, lr}^
     638:	5f6b6365 	svcpl	0x006b6365
     63c:	7366666f 	cmnvc	r6, #116391936	; 0x6f00000
     640:	00737465 	rsbseq	r7, r3, r5, ror #8
     644:	5f626c74 	svcpl	0x00626c74
     648:	666e6f63 	strbtvs	r6, [lr], -r3, ror #30
     64c:	705f6769 	subsvc	r6, pc, r9, ror #14
     650:	746e6972 	strbtvc	r6, [lr], #-2418	; 0x972
     654:	696e7500 	stmdbvs	lr!, {r8, sl, ip, sp, lr}^
     658:	64656966 	strbtvs	r6, [r5], #-2406	; 0x966
     65c:	6e00705f 	mcrvs	0, 0, r7, cr0, cr15, {2}
     660:	6c5f695f 	mrrcvs	9, 5, r6, pc, cr15	; <UNPREDICTABLE>
     664:	006b636f 	rsbeq	r6, fp, pc, ror #6
     668:	5f645f6e 	svcpl	0x00645f6e
     66c:	6b636f6c 	blvs	18dc424 <__bss_end__+0x18cfc44>
     670:	4d4f4400 	cfstrdmi	mvd4, [pc, #-0]	; 678 <__code_start__-0x7988>
     674:	5f4e4941 	svcpl	0x004e4941
     678:	45474150 	strbmi	r4, [r7, #-336]	; 0x150
     67c:	41434900 	cmpmi	r3, r0, lsl #18
     680:	5f454843 	svcpl	0x00454843
     684:	4e49414d 	dvfmiem	f4, f1, #5.0
     688:	504f5f54 	subpl	r5, pc, r4, asr pc	; <UNPREDICTABLE>
     68c:	0054465f 	subseq	r4, r4, pc, asr r6
     690:	49524150 	ldmdbmi	r2, {r4, r6, r8, lr}^
     694:	455f5954 	ldrbmi	r5, [pc, #-2388]	; fffffd48 <__bss_end__+0xffff3568>
     698:	455f5252 	ldrbmi	r5, [pc, #-594]	; 44e <__code_start__-0x7bb2>
     69c:	00504358 	subseq	r4, r0, r8, asr r3
     6a0:	61746164 	cmnvs	r4, r4, ror #2
     6a4:	6f62615f 	svcvs	0x0062615f
     6a8:	765f7472 			; <UNDEFINED> instruction: 0x765f7472
     6ac:	6f746365 	svcvs	0x00746365
     6b0:	4d490072 	stclmi	0, cr0, [r9, #-456]	; 0xfffffe38
     6b4:	43455250 	movtmi	r5, #21072	; 0x5250
     6b8:	5458455f 	ldrbpl	r4, [r8], #-1375	; 0x55f
     6bc:	5442415f 	strbpl	r4, [r2], #-351	; 0x15f
     6c0:	424c5400 	submi	r5, ip, #0, 8
     6c4:	434f4c5f 	movtmi	r4, #64607	; 0xfc5f
     6c8:	656d004b 	strbvs	r0, [sp, #-75]!	; 0x4b
     6cc:	6568636d 	strbvs	r6, [r8, #-877]!	; 0x36d
     6d0:	632e6b63 	teqvs	lr, #101376	; 0x18c00
     6d4:	4d4f4400 	cfstrdmi	mvd4, [pc, #-0]	; 6dc <__code_start__-0x7924>
     6d8:	6e616d5f 	mcrvs	13, 3, r6, cr1, cr15, {2}
     6dc:	72656761 	rsbvc	r6, r5, #25427968	; 0x1840000
     6e0:	61727400 	cmnvs	r2, r0, lsl #8
     6e4:	695f6b63 	ldmdbvs	pc, {r0, r1, r5, r6, r8, r9, fp, sp, lr}^	; <UNPREDICTABLE>
     6e8:	4c410064 	mcrrmi	0, 6, r0, r1, cr4
     6ec:	4d4e4749 	stclmi	7, cr4, [lr, #-292]	; 0xfffffedc
     6f0:	00544e45 	subseq	r4, r4, r5, asr #28
     6f4:	55424544 	strbpl	r4, [r2, #-1348]	; 0x544
     6f8:	56455f47 	strbpl	r5, [r5], -r7, asr #30
     6fc:	00544e45 	subseq	r4, r4, r5, asr #28
     700:	5f6d6f64 	svcpl	0x006d6f64
     704:	6d006469 	cfstrsvs	mvf6, [r0, #-420]	; 0xfffffe5c
     708:	68636d65 	stmdavs	r3!, {r0, r2, r5, r6, r8, sl, fp, sp, lr}^
     70c:	5f6b6365 	svcpl	0x006b6365
     710:	0066666f 	rsbeq	r6, r6, pc, ror #12
     714:	5f756d6d 	svcpl	0x00756d6d
     718:	75736572 	ldrbvc	r6, [r3, #-1394]!	; 0x572
     71c:	705f656d 	subsvc	r6, pc, sp, ror #10
     720:	73616c00 	cmnvc	r1, #0, 24
     724:	61665f74 	smcvs	26100	; 0x65f4
     728:	00746c75 	rsbseq	r6, r4, r5, ror ip
     72c:	4e415254 	mcrmi	2, 2, r5, cr1, cr4, {2}
     730:	54414c53 	strbpl	r4, [r1], #-3155	; 0xc53
     734:	5f4e4f49 	svcpl	0x004e4f49
     738:	54434553 	strbpl	r4, [r3], #-1363	; 0x553
     73c:	004e4f49 	subeq	r4, lr, r9, asr #30
     740:	636d656d 	cmnvs	sp, #457179136	; 0x1b400000
     744:	6b636568 	blvs	18d9cec <__bss_end__+0x18cd50c>
     748:	6172745f 	cmnvs	r2, pc, asr r4
     74c:	6e655f70 	mcrvs	15, 3, r5, cr5, cr0, {3}
     750:	656c6261 	strbvs	r6, [ip, #-609]!	; 0x261
     754:	4f440064 	svcmi	0x00440064
     758:	6c635f4d 	stclvs	15, cr5, [r3], #-308	; 0xfffffecc
     75c:	746e6569 	strbtvc	r6, [lr], #-1385	; 0x569
     760:	6d656d00 	stclvs	13, cr6, [r5, #-0]
     764:	63656863 	cmnvs	r5, #6488064	; 0x630000
     768:	72745f6b 	rsbsvc	r5, r4, #428	; 0x1ac
     76c:	645f7061 	ldrbvs	r7, [pc], #-97	; 774 <__code_start__-0x788c>
     770:	62617369 	rsbvs	r7, r1, #-1543503871	; 0xa4000001
     774:	6400656c 	strvs	r6, [r0], #-1388	; 0x56c
     778:	00727366 	rsbseq	r7, r2, r6, ror #6
     77c:	5f4d4f44 	svcpl	0x004d4f44
     780:	65736572 	ldrbvs	r6, [r3, #-1394]!	; 0x572
     784:	64657672 	strbtvs	r7, [r5], #-1650	; 0x672
     788:	54584500 	ldrbpl	r4, [r8], #-1280	; 0x500
     78c:	5442415f 	strbpl	r4, [r2], #-351	; 0x15f
     790:	4152545f 	cmpmi	r2, pc, asr r4
     794:	414c534e 	cmpmi	ip, lr, asr #6
     798:	4e4f4954 	mcrmi	9, 2, r4, cr15, cr4, {2}
     79c:	4c564c5f 	mrrcmi	12, 5, r4, r6, cr15
     7a0:	6600325f 			; <UNDEFINED> instruction: 0x6600325f
     7a4:	746c7561 	strbtvc	r7, [ip], #-1377	; 0x561
     7a8:	6165725f 	cmnvs	r5, pc, asr r2
     7ac:	006e6f73 	rsbeq	r6, lr, r3, ror pc
     7b0:	636d656d 	cmnvs	sp, #457179136	; 0x1b400000
     7b4:	6b636568 	blvs	18d9d5c <__bss_end__+0x18cd57c>
     7b8:	5f6f6e5f 	svcpl	0x006f6e5f
     7bc:	65636361 	strbvs	r6, [r3, #-865]!	; 0x361
     7c0:	44007373 	strmi	r7, [r0], #-883	; 0x373
     7c4:	49414d4f 	stmdbmi	r1, {r0, r1, r2, r3, r6, r8, sl, fp, lr}^
     7c8:	45535f4e 	ldrbmi	r5, [r3, #-3918]	; 0xf4e
     7cc:	4f495443 	svcmi	0x00495443
     7d0:	6166004e 	cmnvs	r6, lr, asr #32
     7d4:	65675f72 	strbvs	r5, [r7, #-3954]!	; 0xf72
     7d8:	656d0074 	strbvs	r0, [sp, #-116]!	; 0x74
     7dc:	6568636d 	strbvs	r6, [r8, #-877]!	; 0x36d
     7e0:	6f5f6b63 	svcvs	0x005f6b63
     7e4:	5845006e 	stmdapl	r5, {r1, r2, r3, r5, r6}^
     7e8:	42415f54 	submi	r5, r1, #84, 30	; 0x150
     7ec:	52505f54 	subspl	r5, r0, #84, 30	; 0x150
     7f0:	445f4345 	ldrbmi	r4, [pc], #-837	; 7f8 <__code_start__-0x7808>
     7f4:	00525045 	subseq	r5, r2, r5, asr #32
     7f8:	5f4d4f44 	svcpl	0x004d4f44
     7fc:	615f6f6e 	cmpvs	pc, lr, ror #30
     800:	73656363 	cmnvc	r5, #-1946157055	; 0x8c000001
     804:	45500073 	ldrbmi	r0, [r0, #-115]	; 0x73
     808:	53494d52 	movtpl	r4, #40274	; 0x9d52
     80c:	4e4f4953 	mcrmi	9, 2, r4, cr15, cr3, {2}
     810:	4741505f 	smlsldmi	r5, r1, pc, r0	; <UNPREDICTABLE>
     814:	61660045 	cmnvs	r6, r5, asr #32
     818:	5f746c75 	svcpl	0x00746c75
     81c:	72646461 	rsbvc	r6, r4, #1627389952	; 0x61000000
     820:	494c4100 	stmdbmi	ip, {r8, lr}^
     824:	454d4e47 	strbmi	r4, [sp, #-3655]	; 0xe47
     828:	445f544e 	ldrbmi	r5, [pc], #-1102	; 830 <__code_start__-0x77d0>
     82c:	00525045 	subseq	r5, r2, r5, asr #32
     830:	5f545845 	svcpl	0x00545845
     834:	5f544241 	svcpl	0x00544241
     838:	4e415254 	mcrmi	2, 2, r5, cr1, cr4, {2}
     83c:	54414c53 	strbpl	r4, [r1], #-3155	; 0xc53
     840:	5f4e4f49 	svcpl	0x004e4f49
     844:	5f4c564c 	svcpl	0x004c564c
     848:	616c0031 	cmnvs	ip, r1, lsr r0
     84c:	665f7473 			; <UNDEFINED> instruction: 0x665f7473
     850:	746c7561 	strbtvc	r7, [ip], #-1377	; 0x561
     854:	7465735f 	strbtvc	r7, [r5], #-863	; 0x35f
     858:	75616600 	strbvc	r6, [r1, #-1536]!	; 0x600
     85c:	705f746c 	subsvc	r7, pc, ip, ror #8
     860:	656d0063 	strbvs	r0, [sp, #-99]!	; 0x63
     864:	6568636d 	strbvs	r6, [r8, #-877]!	; 0x36d
     868:	745f6b63 	ldrbvc	r6, [pc], #-2915	; 870 <__code_start__-0x7790>
     86c:	6b636172 	blvs	18d8e3c <__bss_end__+0x18cc65c>
     870:	6b726200 	blvs	1c99078 <__bss_end__+0x1c8c898>
     874:	7265765f 	rsbvc	r7, r5, #99614720	; 0x5f00000
     878:	65736f62 	ldrbvs	r6, [r3, #-3938]!	; 0xf62
     87c:	6200705f 	andvs	r7, r0, #95	; 0x5f
     880:	5f737469 	svcpl	0x00737469
     884:	00746567 	rsbseq	r6, r4, r7, ror #10
     888:	52504f43 	subspl	r4, r0, #268	; 0x10c
     88c:	445f434f 	ldrbmi	r4, [pc], #-847	; 894 <__code_start__-0x776c>
     890:	5f415441 	svcpl	0x00415441
     894:	00544241 	subseq	r4, r4, r1, asr #4
     898:	636d656d 	cmnvs	sp, #457179136	; 0x1b400000
     89c:	6b636568 	blvs	18d9e44 <__bss_end__+0x18cd664>
     8a0:	6172745f 	cmnvs	r2, pc, asr r4
     8a4:	6e655f70 	mcrvs	15, 3, r5, cr5, cr0, {3}
     8a8:	656c6261 	strbvs	r6, [ip, #-609]!	; 0x261
     8ac:	6d6f6400 	cfstrdvs	mvd6, [pc, #-0]	; 8b4 <__code_start__-0x774c>
     8b0:	7265705f 	rsbvc	r7, r5, #95	; 0x5f
     8b4:	65735f6d 	ldrbvs	r5, [r3, #-3949]!	; 0xf6d
     8b8:	616c0074 	smcvs	49156	; 0xc004
     8bc:	665f7473 			; <UNDEFINED> instruction: 0x665f7473
     8c0:	746c7561 	strbtvc	r7, [ip], #-1377	; 0x561
     8c4:	7465675f 	strbtvc	r6, [r5], #-1887	; 0x75f
     8c8:	41525400 	cmpmi	r2, r0, lsl #8
     8cc:	414c534e 	cmpmi	ip, lr, asr #6
     8d0:	4e4f4954 	mcrmi	9, 2, r4, cr15, cr4, {2}
     8d4:	4741505f 	smlsldmi	r5, r1, pc, r0	; <UNPREDICTABLE>
     8d8:	66640045 	strbtvs	r0, [r4], -r5, asr #32
     8dc:	675f7273 			; <UNDEFINED> instruction: 0x675f7273
     8e0:	50007465 	andpl	r7, r0, r5, ror #8
     8e4:	49434552 	stmdbmi	r3, {r1, r4, r6, r8, sl, lr}^
     8e8:	455f4553 	ldrbmi	r4, [pc, #-1363]	; 39d <__code_start__-0x7c63>
     8ec:	415f5458 	cmpmi	pc, r8, asr r4	; <UNPREDICTABLE>
     8f0:	66005442 	strvs	r5, [r0], -r2, asr #8
     8f4:	746c7561 	strbtvc	r7, [ip], #-1377	; 0x561
     8f8:	7078655f 	rsbsvc	r6, r8, pc, asr r5
     8fc:	65746365 	ldrbvs	r6, [r4, #-869]!	; 0x365
     900:	656d0064 	strbvs	r0, [sp, #-100]!	; 0x64
     904:	6568636d 	strbvs	r6, [r8, #-877]!	; 0x36d
     908:	635f6b63 	cmpvs	pc, #101376	; 0x18c00
     90c:	69746e6f 	ldmdbvs	r4!, {r0, r1, r2, r3, r5, r6, r9, sl, fp, sp, lr}^
     910:	5f65756e 	svcpl	0x0065756e
     914:	65746661 	ldrbvs	r6, [r4, #-1633]!	; 0x661
     918:	61665f72 	smcvs	26098	; 0x65f2
     91c:	00746c75 	rsbseq	r6, r4, r5, ror ip
     920:	7473616c 	ldrbtvc	r6, [r3], #-364	; 0x16c
     924:	7561665f 	strbvc	r6, [r1, #-1631]!	; 0x65f
     928:	745f746c 	ldrbvc	r7, [pc], #-1132	; 930 <__code_start__-0x76d0>
     92c:	534d5000 	movtpl	r5, #53248	; 0xd000
     930:	4c545f41 	mrrcmi	15, 4, r5, r4, cr1
     934:	494d5f42 	stmdbmi	sp, {r1, r6, r8, r9, sl, fp, ip, lr}^
     938:	50005353 	andpl	r5, r0, r3, asr r3
     93c:	494d5245 	stmdbmi	sp, {r0, r2, r6, r9, ip, lr}^
     940:	4f495353 	svcmi	0x00495353
     944:	45535f4e 	ldrbmi	r5, [r3, #-3918]	; 0xf4e
     948:	4f495443 	svcmi	0x00495443
     94c:	6f64004e 	svcvs	0x0064004e
     950:	65705f6d 	ldrbvs	r5, [r0, #-3949]!	; 0xf6d
     954:	675f6d72 			; <UNDEFINED> instruction: 0x675f6d72
     958:	70007465 	andvc	r7, r0, r5, ror #8
     95c:	74735f74 	ldrbtvc	r5, [r3], #-3956	; 0xf74
     960:	6d656d00 	stclvs	13, cr6, [r5, #-0]
     964:	63656863 	cmnvs	r5, #6488064	; 0x630000
     968:	6e695f6b 	cdpvs	15, 6, cr5, cr9, cr11, {3}
     96c:	6d007469 	cfstrsvs	mvf7, [r0, #-420]	; 0xfffffe5c
     970:	68636d65 	stmdavs	r3!, {r0, r2, r5, r6, r8, sl, fp, sp, lr}^
     974:	5f6b6365 	svcpl	0x006b6365
     978:	0070616d 	rsbseq	r6, r0, sp, ror #2
     97c:	6362696c 	cmnvs	r2, #108, 18	; 0x1b0000
     980:	7361682f 	cmnvc	r1, #3080192	; 0x2f0000
     984:	00632e68 	rsbeq	r2, r3, r8, ror #28
     988:	20554e47 	subscs	r4, r5, r7, asr #28
     98c:	2e342043 	cdpcs	0, 3, cr2, cr4, cr3, {2}
     990:	20332e38 	eorscs	r2, r3, r8, lsr lr
     994:	70636d2d 	rsbvc	r6, r3, sp, lsr #26
     998:	72613d75 	rsbvc	r3, r1, #7488	; 0x1d40
     99c:	3731316d 	ldrcc	r3, [r1, -sp, ror #2]!
     9a0:	667a6a36 			; <UNDEFINED> instruction: 0x667a6a36
     9a4:	2d20732d 	stccs	3, cr7, [r0, #-180]!	; 0xffffff4c
     9a8:	6e75746d 	cdpvs	4, 7, cr7, cr5, cr13, {3}
     9ac:	72613d65 	rsbvc	r3, r1, #6464	; 0x1940
     9b0:	3731316d 	ldrcc	r3, [r1, -sp, ror #2]!
     9b4:	667a6a36 			; <UNDEFINED> instruction: 0x667a6a36
     9b8:	2d20732d 	stccs	3, cr7, [r0, #-180]!	; 0xffffff4c
     9bc:	62646767 	rsbvs	r6, r4, #27000832	; 0x19c0000
     9c0:	674f2d20 	strbvs	r2, [pc, -r0, lsr #26]
     9c4:	74732d20 	ldrbtvc	r2, [r3], #-3360	; 0xd20
     9c8:	6e673d64 	cdpvs	13, 6, cr3, cr7, cr4, {3}
     9cc:	20393975 	eorscs	r3, r9, r5, ror r9
     9d0:	7266662d 	rsbvc	r6, r6, #47185920	; 0x2d00000
     9d4:	74736565 	ldrbtvc	r6, [r3], #-1381	; 0x565
     9d8:	69646e61 	stmdbvs	r4!, {r0, r5, r6, r9, sl, fp, sp, lr}^
     9dc:	7500676e 	strvc	r6, [r0, #-1902]	; 0x76e
     9e0:	38746e69 	ldmdacc	r4!, {r0, r3, r5, r6, r9, sl, fp, sp, lr}^
     9e4:	2f00745f 	svccs	0x0000745f
     9e8:	72657355 	rsbvc	r7, r5, #1409286145	; 0x54000001
     9ec:	72622f73 	rsbvc	r2, r2, #460	; 0x1cc
     9f0:	6a6e6169 	bvs	1b98f9c <__bss_end__+0x1b8c7bc>
     9f4:	442f6e75 	strtmi	r6, [pc], #-3701	; 9fc <__code_start__-0x7604>
     9f8:	746b7365 	strbtvc	r7, [fp], #-869	; 0x365
     9fc:	732f706f 	teqvc	pc, #111	; 0x6f
     a00:	6f6f6863 	svcvs	0x006f6863
     a04:	70532f6c 	subsvc	r2, r3, ip, ror #30
     a08:	676e6972 			; <UNDEFINED> instruction: 0x676e6972
     a0c:	30323931 	eorscc	r3, r2, r1, lsr r9
     a10:	3253432f 	subscc	r4, r3, #-1140850688	; 0xbc000000
     a14:	584c3034 	stmdapl	ip, {r2, r4, r5, ip, sp}^
     a18:	3273632f 	rsbscc	r6, r3, #-1140850688	; 0xbc000000
     a1c:	786c3034 	stmdavc	ip!, {r2, r4, r5, ip, sp}^
     a20:	7330322d 	teqvc	r0, #-805306366	; 0xd0000002
     a24:	6c2f7270 	sfmvs	f7, 4, [pc], #-448	; 86c <__code_start__-0x7794>
     a28:	69706269 	ldmdbvs	r0!, {r0, r3, r5, r6, r9, sp, lr}^
     a2c:	62696c00 	rsbvs	r6, r9, #0, 24
     a30:	656d2f63 	strbvs	r2, [sp, #-3939]!	; 0xf63
     a34:	7465736d 	strbtvc	r7, [r5], #-877	; 0x36d
     a38:	5f00632e 	svcpl	0x0000632e
     a3c:	756e675f 	strbvc	r6, [lr, #-1887]!	; 0x75f
     a40:	61765f63 	cmnvs	r6, r3, ror #30
     a44:	73696c5f 	cmnvc	r9, #24320	; 0x5f00
     a48:	696c0074 	stmdbvs	ip!, {r2, r4, r5, r6}^
     a4c:	702f6362 	eorvc	r6, pc, r2, ror #6
     a50:	746e6972 	strbtvc	r6, [lr], #-2418	; 0x972
     a54:	00632e6b 	rsbeq	r2, r3, fp, ror #28
     a58:	705f6176 	subsvc	r6, pc, r6, ror r1	; <UNPREDICTABLE>
     a5c:	746e6972 	strbtvc	r6, [lr], #-2418	; 0x972
     a60:	5f5f006b 	svcpl	0x005f006b
     a64:	6c5f6176 	ldfvse	f6, [pc], {118}	; 0x76
     a68:	00747369 	rsbseq	r7, r4, r9, ror #6
     a6c:	70615f5f 	rsbvc	r5, r1, pc, asr pc
     a70:	72617500 	rsbvc	r7, r1, #0, 10
     a74:	75705f74 	ldrbvc	r5, [r0, #-3956]!	; 0xf74
     a78:	69006374 	stmdbvs	r0, {r2, r4, r5, r6, r8, r9, sp, lr}
     a7c:	7265746e 	rsbvc	r7, r5, #1845493760	; 0x6e000000
     a80:	5f6c616e 	svcpl	0x006c616e
     a84:	63747570 	cmnvs	r4, #112, 10	; 0x1c000000
     a88:	00726168 	rsbseq	r6, r2, r8, ror #2
     a8c:	5f697072 	svcpl	0x00697072
     a90:	63747570 	cmnvs	r4, #112, 10	; 0x1c000000
     a94:	00726168 	rsbseq	r6, r2, r8, ror #2
     a98:	6362696c 	cmnvs	r2, #108, 18	; 0x1b0000
     a9c:	7475702f 	ldrbtvc	r7, [r5], #-47	; 0x2f
     aa0:	72616863 	rsbvc	r6, r1, #6488064	; 0x630000
     aa4:	7200632e 	andvc	r6, r0, #-1207959552	; 0xb8000000
     aa8:	735f6970 	cmpvc	pc, #112, 18	; 0x1c0000
     aac:	705f7465 	subsvc	r7, pc, r5, ror #8
     ab0:	00637475 	rsbeq	r7, r3, r5, ror r4
     ab4:	6362696c 	cmnvs	r2, #108, 18	; 0x1b0000
     ab8:	7475702f 	ldrbtvc	r7, [r5], #-47	; 0x2f
     abc:	00632e6b 	rsbeq	r2, r3, fp, ror #28
     ac0:	65746e69 	ldrbvs	r6, [r4, #-3689]!	; 0xe69
     ac4:	6c616e72 	stclvs	14, cr6, [r1], #-456	; 0xfffffe38
     ac8:	7475705f 	ldrbtvc	r7, [r5], #-95	; 0x5f
     acc:	6d66006b 	stclvs	0, cr0, [r6, #-428]!	; 0xfffffe54
     ad0:	74735f74 	ldrbtvc	r5, [r3], #-3956	; 0xf74
     ad4:	00747261 	rsbseq	r7, r4, r1, ror #4
     ad8:	5f67656e 	svcpl	0x0067656e
     adc:	65720070 	ldrbvs	r0, [r2, #-112]!	; 0x70
     ae0:	73726576 	cmnvc	r2, #494927872	; 0x1d800000
     ae4:	73690065 	cmnvc	r9, #101	; 0x65
     ae8:	69676964 	stmdbvs	r7!, {r2, r5, r6, r8, fp, sp, lr}^
     aec:	75700074 	ldrbvc	r0, [r0, #-116]!	; 0x74
     af0:	665f7374 			; <UNDEFINED> instruction: 0x665f7374
     af4:	69730070 	ldmdbvs	r3!, {r4, r5, r6}^
     af8:	64656e67 	strbtvs	r6, [r5], #-3687	; 0xe67
     afc:	6c00705f 	stcvs	0, cr7, [r0], {95}	; 0x5f
     b00:	2f636269 	svccs	0x00636269
     b04:	702d6176 	eorvc	r6, sp, r6, ror r1
     b08:	746e6972 	strbtvc	r6, [lr], #-2418	; 0x972
     b0c:	00632e6b 	rsbeq	r2, r3, fp, ror #28
     b10:	5f697072 	svcpl	0x00697072
     b14:	5f746573 	svcpl	0x00746573
     b18:	7074756f 	rsbsvc	r7, r4, pc, ror #10
     b1c:	77007475 	smlsdxvc	r0, r5, r4, r7
     b20:	68746469 	ldmdavs	r4!, {r0, r3, r5, r6, sl, sp, lr}^
     b24:	74757000 	ldrbtvc	r7, [r5], #-0
     b28:	70665f63 	rsbvc	r5, r6, r3, ror #30
     b2c:	696d6500 	stmdbvs	sp!, {r8, sl, sp, lr}^
     b30:	65720074 	ldrbvs	r0, [r2, #-116]!	; 0x74
     b34:	746f6f62 	strbtvc	r6, [pc], #-3938	; b3c <__code_start__-0x74c4>
     b38:	6e61685f 	mcrvs	8, 3, r6, cr1, cr15, {2}
     b3c:	72656c64 	rsbvc	r6, r5, #100, 24	; 0x6400
     b40:	61747300 	cmnvs	r4, r0, lsl #6
     b44:	732d6666 	teqvc	sp, #106954752	; 0x6600000
     b48:	632f6372 	teqvs	pc, #-939524095	; 0xc8000001
     b4c:	6e61656c 	cdpvs	5, 6, cr6, cr1, cr12, {3}
     b50:	6265722d 	rsbvs	r7, r5, #-805306366	; 0xd0000002
     b54:	2e746f6f 	cdpcs	15, 7, cr6, cr4, cr15, {3}
     b58:	70720063 	rsbsvc	r0, r2, r3, rrx
     b5c:	65725f69 	ldrbvs	r5, [r2, #-3945]!	; 0xf69
     b60:	746f6f62 	strbtvc	r6, [pc], #-3938	; b68 <__code_start__-0x7498>
     b64:	6c656400 	cfstrdvs	mvd6, [r5], #-0
     b68:	6d5f7961 	ldclvs	9, cr7, [pc, #-388]	; 9ec <__code_start__-0x7614>
     b6c:	5f5f0073 	svcpl	0x005f0073
     b70:	5f737362 	svcpl	0x00737362
     b74:	72617473 	rsbvc	r7, r1, #1929379840	; 0x73000000
     b78:	005f5f74 	subseq	r5, pc, r4, ror pc	; <UNPREDICTABLE>
     b7c:	73625f5f 	cmnvc	r2, #380	; 0x17c
     b80:	6e655f73 	mcrvs	15, 3, r5, cr5, cr3, {3}
     b84:	005f5f64 	subseq	r5, pc, r4, ror #30
     b88:	61747363 	cmnvs	r4, r3, ror #6
     b8c:	685f7472 	ldmdavs	pc, {r1, r4, r5, r6, sl, ip, sp, lr}^	; <UNPREDICTABLE>
     b90:	6c646e61 	stclvs	14, cr6, [r4], #-388	; 0xfffffe7c
     b94:	62007265 	andvs	r7, r0, #1342177286	; 0x50000006
     b98:	655f7373 	ldrbvs	r7, [pc, #-883]	; 82d <__code_start__-0x77d3>
     b9c:	5f00646e 	svcpl	0x0000646e
     ba0:	61747363 	cmnvs	r4, r3, ror #6
     ba4:	73007472 	movwvc	r7, #1138	; 0x472
     ba8:	66666174 			; <UNDEFINED> instruction: 0x66666174
     bac:	6372732d 	cmnvs	r2, #-1275068416	; 0xb4000000
     bb0:	7473632f 	ldrbtvc	r6, [r3], #-815	; 0x32f
     bb4:	2e747261 	cdpcs	2, 7, cr7, cr4, cr1, {3}
     bb8:	74730063 	ldrbtvc	r0, [r3], #-99	; 0x63
     bbc:	2d666661 	stclcs	6, cr6, [r6, #-388]!	; 0xfffffe7c
     bc0:	2f637273 	svccs	0x00637273
     bc4:	61666564 	cmnvs	r6, r4, ror #10
     bc8:	2d746c75 	ldclcs	12, cr6, [r4, #-468]!	; 0xfffffe2c
     bcc:	646e6168 	strbtvs	r6, [lr], #-360	; 0x168
     bd0:	2d72656c 	cfldr64cs	mvdx6, [r2, #-432]!	; 0xfffffe50
     bd4:	74736166 	ldrbtvc	r6, [r3], #-358	; 0x166
     bd8:	6600632e 	strvs	r6, [r0], -lr, lsr #6
     bdc:	5f747361 	svcpl	0x00747361
     be0:	65746e69 	ldrbvs	r6, [r4, #-3689]!	; 0xe69
     be4:	70757272 	rsbsvc	r7, r5, r2, ror r2
     be8:	65765f74 	ldrbvs	r5, [r6, #-3956]!	; 0xf74
     bec:	726f7463 	rsbvc	r7, pc, #1660944384	; 0x63000000
     bf0:	61747300 	cmnvs	r4, r0, lsl #6
     bf4:	732d6666 	teqvc	sp, #106954752	; 0x6600000
     bf8:	642f6372 	strtvs	r6, [pc], #-882	; c00 <__code_start__-0x7400>
     bfc:	75616665 	strbvc	r6, [r1, #-1637]!	; 0x665
     c00:	682d746c 	stmdavs	sp!, {r2, r3, r5, r6, sl, ip, sp, lr}
     c04:	6c646e61 	stclvs	14, cr6, [r4], #-388	; 0xfffffe7c
     c08:	702d7265 	eorvc	r7, sp, r5, ror #4
     c0c:	65666572 	strbvs	r6, [r6, #-1394]!	; 0x572
     c10:	2e686374 	mcrcs	3, 3, r6, cr8, cr4, {3}
     c14:	72700063 	rsbsvc	r0, r0, #99	; 0x63
     c18:	74656665 	strbtvc	r6, [r5], #-1637	; 0x665
     c1c:	615f6863 	cmpvs	pc, r3, ror #16
     c20:	74726f62 	ldrbtvc	r6, [r2], #-3938	; 0xf62
     c24:	6365765f 	cmnvs	r5, #99614720	; 0x5f00000
     c28:	00726f74 	rsbseq	r6, r2, r4, ror pc
     c2c:	65736572 	ldrbvs	r6, [r3, #-1394]!	; 0x572
     c30:	65765f74 	ldrbvs	r5, [r6, #-3956]!	; 0xf74
     c34:	726f7463 	rsbvc	r7, pc, #1660944384	; 0x63000000
     c38:	61747300 	cmnvs	r4, r0, lsl #6
     c3c:	732d6666 	teqvc	sp, #106954752	; 0x6600000
     c40:	642f6372 	strtvs	r6, [pc], #-882	; c48 <__code_start__-0x73b8>
     c44:	75616665 	strbvc	r6, [r1, #-1637]!	; 0x665
     c48:	682d746c 	stmdavs	sp!, {r2, r3, r5, r6, sl, ip, sp, lr}
     c4c:	6c646e61 	stclvs	14, cr6, [r4], #-388	; 0xfffffe7c
     c50:	722d7265 	eorvc	r7, sp, #1342177286	; 0x50000006
     c54:	74657365 	strbtvc	r7, [r5], #-869	; 0x365
     c58:	7300632e 	movwvc	r6, #814	; 0x32e
     c5c:	66666174 			; <UNDEFINED> instruction: 0x66666174
     c60:	6372732d 	cmnvs	r2, #-1275068416	; 0xb4000000
     c64:	6665642f 	strbtvs	r6, [r5], -pc, lsr #8
     c68:	746c7561 	strbtvc	r7, [ip], #-1377	; 0x561
     c6c:	6e61682d 	cdpvs	8, 6, cr6, cr1, cr13, {1}
     c70:	72656c64 	rsbvc	r6, r5, #100, 24	; 0x6400
     c74:	646e752d 	strbtvs	r7, [lr], #-1325	; 0x52d
     c78:	6e696665 	cdpvs	6, 6, cr6, cr9, cr5, {3}
     c7c:	692d6465 	pushvs	{r0, r2, r5, r6, sl, sp, lr}
     c80:	2e74736e 	cdpcs	3, 7, cr7, cr4, cr14, {3}
     c84:	6e750063 	cdpvs	0, 7, cr0, cr5, cr3, {3}
     c88:	69666564 	stmdbvs	r6!, {r2, r5, r6, r8, sl, sp, lr}^
     c8c:	5f64656e 	svcpl	0x0064656e
     c90:	74736e69 	ldrbtvc	r6, [r3], #-3689	; 0xe69
     c94:	74637572 	strbtvc	r7, [r3], #-1394	; 0x572
     c98:	5f6e6f69 	svcpl	0x006e6f69
     c9c:	74636576 	strbtvc	r6, [r3], #-1398	; 0x576
     ca0:	7300726f 	movwvc	r7, #623	; 0x26f
     ca4:	66666174 			; <UNDEFINED> instruction: 0x66666174
     ca8:	6372732d 	cmnvs	r2, #-1275068416	; 0xb4000000
     cac:	6665642f 	strbtvs	r6, [r5], -pc, lsr #8
     cb0:	746c7561 	strbtvc	r7, [ip], #-1377	; 0x561
     cb4:	6e61682d 	cdpvs	8, 6, cr6, cr1, cr13, {1}
     cb8:	72656c64 	rsbvc	r6, r5, #100, 24	; 0x6400
     cbc:	00632e73 	rsbeq	r2, r3, r3, ror lr
     cc0:	5f515249 	svcpl	0x00515249
     cc4:	646e6570 	strbtvs	r6, [lr], #-1392	; 0x570
     cc8:	5f676e69 	svcpl	0x00676e69
     ccc:	69440032 	stmdbvs	r4, {r1, r4, r5}^
     cd0:	6c626173 	stfvse	f6, [r2], #-460	; 0xfffffe34
     cd4:	61425f65 	cmpvs	r2, r5, ror #30
     cd8:	5f636973 	svcpl	0x00636973
     cdc:	73515249 	cmpvc	r1, #-1879048188	; 0x90000004
     ce0:	51494600 	cmppl	r9, r0, lsl #12
     ce4:	6e6f635f 	mcrvs	3, 3, r6, cr15, cr15, {2}
     ce8:	6c6f7274 	sfmvs	f7, 2, [pc], #-464	; b20 <__code_start__-0x74e0>
     cec:	6e695f00 	cdpvs	15, 6, cr5, cr9, cr0, {0}
     cf0:	72726574 	rsbsvc	r6, r2, #116, 10	; 0x1d000000
     cf4:	5f747075 	svcpl	0x00747075
     cf8:	6c626174 	stfvse	f6, [r2], #-464	; 0xfffffe30
     cfc:	52490065 	subpl	r0, r9, #101	; 0x65
     d00:	61625f51 	cmnvs	r2, r1, asr pc
     d04:	5f636973 	svcpl	0x00636973
     d08:	646e6570 	strbtvs	r6, [lr], #-1392	; 0x570
     d0c:	00676e69 	rsbeq	r6, r7, r9, ror #28
     d10:	62616e45 	rsbvs	r6, r1, #1104	; 0x450
     d14:	425f656c 	subsmi	r6, pc, #108, 10	; 0x1b000000
     d18:	63697361 	cmnvs	r9, #-2080374783	; 0x84000001
     d1c:	5152495f 	cmppl	r2, pc, asr r9
     d20:	6e450073 	mcrvs	0, 2, r0, cr5, cr3, {3}
     d24:	656c6261 	strbvs	r6, [ip, #-609]!	; 0x261
     d28:	5152495f 	cmppl	r2, pc, asr r9
     d2c:	00315f73 	eorseq	r5, r1, r3, ror pc
     d30:	62616e45 	rsbvs	r6, r1, #1104	; 0x450
     d34:	495f656c 	ldmdbmi	pc, {r2, r3, r5, r6, r8, sl, sp, lr}^	; <UNPREDICTABLE>
     d38:	5f735152 	svcpl	0x00735152
     d3c:	695f0032 	ldmdbvs	pc, {r1, r4, r5}^	; <UNPREDICTABLE>
     d40:	7265746e 	rsbvc	r7, r5, #1845493760	; 0x6e000000
     d44:	74707572 	ldrbtvc	r7, [r0], #-1394	; 0x572
     d48:	6261745f 	rsbvs	r7, r1, #1593835520	; 0x5f000000
     d4c:	655f656c 	ldrbvs	r6, [pc, #-1388]	; 7e8 <__code_start__-0x7818>
     d50:	6400646e 	strvs	r6, [r0], #-1134	; 0x46e
     d54:	625f7665 	subsvs	r7, pc, #105906176	; 0x6500000
     d58:	69727261 	ldmdbvs	r2!, {r0, r5, r6, r9, ip, sp, lr}^
     d5c:	73007265 	movwvc	r7, #613	; 0x265
     d60:	66666174 			; <UNDEFINED> instruction: 0x66666174
     d64:	6372732d 	cmnvs	r2, #-1275068416	; 0xb4000000
     d68:	746e692f 	strbtvc	r6, [lr], #-2351	; 0x92f
     d6c:	75727265 	ldrbvc	r7, [r2, #-613]!	; 0x265
     d70:	2d737470 	cfldrdcs	mvd7, [r3, #-448]!	; 0xfffffe40
     d74:	00632e63 	rsbeq	r2, r3, r3, ror #28
     d78:	5f515249 	svcpl	0x00515249
     d7c:	65736142 	ldrbvs	r6, [r3, #-322]!	; 0x142
     d80:	54555000 	ldrbpl	r5, [r5], #-0
     d84:	44003233 	strmi	r3, [r0], #-563	; 0x233
     d88:	62617369 	rsbvs	r7, r1, #-1543503871	; 0xa4000001
     d8c:	495f656c 	ldmdbmi	pc, {r2, r3, r5, r6, r8, sl, sp, lr}^	; <UNPREDICTABLE>
     d90:	5f735152 	svcpl	0x00735152
     d94:	69440031 	stmdbvs	r4, {r0, r4, r5}^
     d98:	6c626173 	stfvse	f6, [r2], #-460	; 0xfffffe34
     d9c:	52495f65 	subpl	r5, r9, #404	; 0x194
     da0:	325f7351 	subscc	r7, pc, #1140850689	; 0x44000001
     da4:	51524900 	cmppl	r2, r0, lsl #18
     da8:	6e65705f 	mcrvs	0, 3, r7, cr5, cr15, {2}
     dac:	676e6964 	strbvs	r6, [lr, -r4, ror #18]!
     db0:	6100315f 	tstvs	r0, pc, asr r1
     db4:	73755f74 	cmnvc	r5, #116, 30	; 0x1d0
     db8:	6c5f7265 	lfmvs	f7, 2, [pc], {101}	; 0x65
     dbc:	6c657665 	stclvs	6, cr7, [r5], #-404	; 0xfffffe6c
     dc0:	61747300 	cmnvs	r4, r0, lsl #6
     dc4:	732d6666 	teqvc	sp, #106954752	; 0x6600000
     dc8:	722f6372 	eorvc	r6, pc, #-939524095	; 0xc8000001
     dcc:	6f6f6265 	svcvs	0x006f6265
     dd0:	00632e74 	rsbeq	r2, r3, r4, ror lr
     dd4:	525f4d50 	subspl	r4, pc, #80, 26	; 0x1400
     dd8:	5f435453 	svcpl	0x00435453
     ddc:	46435257 			; <UNDEFINED> instruction: 0x46435257
     de0:	55465f47 	strbpl	r5, [r6, #-3911]	; 0xf47
     de4:	525f4c4c 	subspl	r4, pc, #76, 24	; 0x4c00
     de8:	54455345 	strbpl	r5, [r5], #-837	; 0x345
     dec:	5f4d5000 	svcpl	0x004d5000
     df0:	474f4457 	smlsldmi	r4, pc, r7, r4	; <UNPREDICTABLE>
     df4:	74657300 	strbtvc	r7, [r5], #-768	; 0x300
     df8:	6573755f 	ldrbvs	r7, [r3, #-1375]!	; 0x55f
     dfc:	656c5f72 	strbvs	r5, [ip, #-3954]!	; 0xf72
     e00:	006c6576 	rsbeq	r6, ip, r6, ror r5
     e04:	505f4d50 	subspl	r4, pc, r0, asr sp	; <UNPREDICTABLE>
     e08:	57535341 	ldrbpl	r5, [r3, -r1, asr #6]
     e0c:	0044524f 	subeq	r5, r4, pc, asr #4
     e10:	525f4d50 	subspl	r4, pc, #80, 26	; 0x1400
     e14:	00435453 	subeq	r5, r3, r3, asr r4
     e18:	72737063 	rsbsvc	r7, r3, #99	; 0x63
     e1c:	6d697400 	cfstrdvs	mvd7, [r9, #-0]
     e20:	675f7265 	ldrbvs	r7, [pc, -r5, ror #4]
     e24:	755f7465 	ldrbvc	r7, [pc, #-1125]	; 9c7 <__code_start__-0x7639>
     e28:	5f636573 	svcpl	0x00636573
     e2c:	00776172 	rsbseq	r6, r7, r2, ror r1
     e30:	616c6564 	cmnvs	ip, r4, ror #10
     e34:	65735f79 	ldrbvs	r5, [r3, #-3961]!	; 0xf79
     e38:	74730063 	ldrbtvc	r0, [r3], #-99	; 0x63
     e3c:	2d666661 	stclcs	6, cr6, [r6, #-388]!	; 0xfffffe7c
     e40:	2f637273 	svccs	0x00637273
     e44:	656d6974 	strbvs	r6, [sp, #-2420]!	; 0x974
     e48:	00632e72 	rsbeq	r2, r3, r2, ror lr
     e4c:	33544547 	cmpcc	r4, #297795584	; 0x11c00000
     e50:	69740032 	ldmdbvs	r4!, {r1, r4, r5}^
     e54:	00736b63 	rsbseq	r6, r3, r3, ror #22
     e58:	616c6564 	cmnvs	ip, r4, ror #10
     e5c:	79635f79 	stmdbvc	r3!, {r0, r3, r4, r5, r6, r8, r9, sl, fp, ip, lr}^
     e60:	73656c63 	cmnvc	r5, #25344	; 0x6300
     e64:	6c656400 	cfstrdvs	mvd6, [r5], #-0
     e68:	755f7961 	ldrbvc	r7, [pc, #-2401]	; 50f <__code_start__-0x7af1>
     e6c:	69740073 	ldmdbvs	r4!, {r0, r1, r4, r5, r6}^
     e70:	5f72656d 	svcpl	0x0072656d
     e74:	5f746567 	svcpl	0x00746567
     e78:	63657375 	cmnvs	r5, #-738197503	; 0xd4000001
     e7c:	73645f00 	cmnvc	r4, #0, 30
     e80:	61685f6f 	cmnvs	r8, pc, ror #30
     e84:	656c646e 	strbvs	r6, [ip, #-1134]!	; 0x46e
     e88:	69735f00 	ldmdbvs	r3!, {r8, r9, sl, fp, ip, lr}^
     e8c:	5f00657a 	svcpl	0x0000657a
     e90:	646e6172 	strbtvs	r6, [lr], #-370	; 0x172
     e94:	5f003834 	svcpl	0x00003834
     e98:	72656d65 	rsbvc	r6, r5, #6464	; 0x1940
     e9c:	636e6567 	cmnvs	lr, #432013312	; 0x19c00000
     ea0:	61750079 	cmnvs	r5, r9, ror r0
     ea4:	695f7472 	ldmdbvs	pc, {r1, r4, r5, r6, sl, ip, sp, lr}^	; <UNPREDICTABLE>
     ea8:	0074696e 	rsbseq	r6, r4, lr, ror #18
     eac:	7263775f 	rsbvc	r7, r3, #24903680	; 0x17c0000
     eb0:	626d6f74 	rsbvs	r6, sp, #116, 30	; 0x1d0
     eb4:	6174735f 	cmnvs	r4, pc, asr r3
     eb8:	5f006574 	svcpl	0x00006574
     ebc:	72736377 	rsbsvc	r6, r3, #-603979775	; 0xdc000001
     ec0:	626d6f74 	rsbvs	r6, sp, #116, 30	; 0x1d0
     ec4:	74735f73 	ldrbtvc	r5, [r3], #-3955	; 0xf73
     ec8:	00657461 	rsbeq	r7, r5, r1, ror #8
     ecc:	66626c5f 			; <UNDEFINED> instruction: 0x66626c5f
     ed0:	657a6973 	ldrbvs	r6, [sl, #-2419]!	; 0x973
     ed4:	49504700 	ldmdbmi	r0, {r8, r9, sl, lr}^
     ed8:	55465f4f 	strbpl	r5, [r6, #-3919]	; 0xf4f
     edc:	495f434e 	ldmdbmi	pc, {r1, r2, r3, r6, r8, r9, lr}^	; <UNPREDICTABLE>
     ee0:	5455504e 	ldrbpl	r5, [r5], #-78	; 0x4e
     ee4:	626d5f00 	rsbvs	r5, sp, #0, 30
     ee8:	776f7472 			; <UNDEFINED> instruction: 0x776f7472
     eec:	74735f63 	ldrbtvc	r5, [r3], #-3939	; 0xf63
     ef0:	00657461 	rsbeq	r7, r5, r1, ror #8
     ef4:	7463775f 	strbtvc	r7, [r3], #-1887	; 0x75f
     ef8:	5f626d6f 	svcpl	0x00626d6f
     efc:	74617473 	strbtvc	r7, [r1], #-1139	; 0x473
     f00:	5f5f0065 	svcpl	0x005f0065
     f04:	735f6d74 	cmpvc	pc, #116, 26	; 0x1d00
     f08:	73006365 	movwvc	r6, #869	; 0x365
     f0c:	00746174 	rsbseq	r6, r4, r4, ror r1
     f10:	7562755f 	strbvc	r7, [r2, #-1375]!	; 0x55f
     f14:	50470066 	subpl	r0, r7, r6, rrx
     f18:	465f4f49 	ldrbmi	r4, [pc], -r9, asr #30
     f1c:	5f434e55 	svcpl	0x00434e55
     f20:	31544c41 	cmpcc	r4, r1, asr #24
     f24:	61625f00 	cmnvs	r2, r0, lsl #30
     f28:	63006573 	movwvs	r6, #1395	; 0x573
     f2c:	006c746e 	rsbeq	r7, ip, lr, ror #8
     f30:	6d745f5f 	ldclvs	15, cr5, [r4, #-380]!	; 0xfffffe84
     f34:	756f685f 	strbvc	r6, [pc, #-2143]!	; 6dd <__code_start__-0x7923>
     f38:	5f5f0072 	svcpl	0x005f0072
     f3c:	5f006673 	svcpl	0x00006673
     f40:	655f6e6f 	ldrbvs	r6, [pc, #-3695]	; d9 <__code_start__-0x7f27>
     f44:	5f746978 	svcpl	0x00746978
     f48:	73677261 	cmnvc	r7, #268435462	; 0x10000006
     f4c:	6f635f00 	svcvs	0x00635f00
     f50:	65696b6f 	strbvs	r6, [r9, #-2927]!	; 0xb6f
     f54:	735f5f00 	cmpvc	pc, #0, 30
     f58:	65756c67 	ldrbvs	r6, [r5, #-3175]!	; 0xc67
     f5c:	6c665f00 	stclvs	15, cr5, [r6], #-0
     f60:	00736761 	rsbseq	r6, r3, r1, ror #14
     f64:	5f73695f 	svcpl	0x0073695f
     f68:	00617863 	rsbeq	r7, r1, r3, ror #16
     f6c:	6474735f 	ldrbtvs	r7, [r4], #-863	; 0x35f
     f70:	5f006e69 	svcpl	0x00006e69
     f74:	736b6c62 	cmnvc	fp, #25088	; 0x6200
     f78:	00657a69 	rsbeq	r7, r5, r9, ror #20
     f7c:	74726175 	ldrbtvc	r6, [r2], #-373	; 0x175
     f80:	6100632e 	tstvs	r0, lr, lsr #6
     f84:	705f7875 	subsvc	r7, pc, r5, ror r8	; <UNPREDICTABLE>
     f88:	70697265 	rsbvc	r7, r9, r5, ror #4
     f8c:	5f007368 	svcpl	0x00007368
     f90:	62747663 	rsbsvs	r7, r4, #103809024	; 0x6300000
     f94:	2f006675 	svccs	0x00006675
     f98:	656d6f68 	strbvs	r6, [sp, #-3944]!	; 0xf68
     f9c:	676e652f 	strbvs	r6, [lr, -pc, lsr #10]!
     fa0:	2f72656c 	svccs	0x0072656c
     fa4:	73616c63 	cmnvc	r1, #25344	; 0x6300
     fa8:	73632f73 	cmnvc	r3, #460	; 0x1cc
     fac:	6c303432 	cfldrsvs	mvf3, [r0], #-200	; 0xffffff38
     fb0:	30322d78 	eorscc	r2, r2, r8, ror sp
     fb4:	2f727073 	svccs	0x00727073
     fb8:	7062696c 	rsbvc	r6, r2, ip, ror #18
     fbc:	74732f69 	ldrbtvc	r2, [r3], #-3945	; 0xf69
     fc0:	2d666661 	stclcs	6, cr6, [r6, #-388]!	; 0xfffffe7c
     fc4:	76697270 			; <UNDEFINED> instruction: 0x76697270
     fc8:	00657461 	rsbeq	r7, r5, r1, ror #8
     fcc:	73626d5f 	cmnvc	r2, #6080	; 0x17c0
     fd0:	776f7472 			; <UNDEFINED> instruction: 0x776f7472
     fd4:	735f7363 	cmpvc	pc, #-1946157055	; 0x8c000001
     fd8:	65746174 	ldrbvs	r6, [r4, #-372]!	; 0x174
     fdc:	626d5f00 	rsbvs	r5, sp, #0, 30
     fe0:	6e656c72 	mcrvs	12, 3, r6, cr5, cr2, {3}
     fe4:	6174735f 	cmnvs	r4, pc, asr r3
     fe8:	5f006574 	svcpl	0x00006574
     fec:	72616e66 	rsbvc	r6, r1, #1632	; 0x660
     ff0:	61007367 	tstvs	r0, r7, ror #6
     ff4:	655f7875 	ldrbvs	r7, [pc, #-2165]	; 787 <__code_start__-0x7879>
     ff8:	6c62616e 	stfvse	f6, [r2], #-440	; 0xfffffe48
     ffc:	5f007365 	svcpl	0x00007365
    1000:	00736e66 	rsbseq	r6, r3, r6, ror #28
    1004:	6769735f 			; <UNDEFINED> instruction: 0x6769735f
    1008:	6175006e 	cmnvs	r5, lr, rrx
    100c:	635f7472 	cmpvs	pc, #1912602624	; 0x72000000
    1010:	705f6e61 	subsvc	r6, pc, r1, ror #28
    1014:	00637475 	rsbeq	r7, r3, r5, ror r4
    1018:	6f6c665f 	svcvs	0x006c665f
    101c:	745f6b63 	ldrbvc	r6, [pc], #-2915	; 1024 <__code_start__-0x6fdc>
    1020:	74735f00 	ldrbtvc	r5, [r3], #-3840	; 0xf00
    1024:	72726564 	rsbsvc	r6, r2, #100, 10	; 0x19000000
    1028:	69425f00 	stmdbvs	r2, {r8, r9, sl, fp, ip, lr}^
    102c:	746e6967 	strbtvc	r6, [lr], #-2407	; 0x967
    1030:	61675f00 	cmnvs	r7, r0, lsl #30
    1034:	5f616d6d 	svcpl	0x00616d6d
    1038:	6e676973 	mcrvs	9, 3, r6, cr7, cr3, {3}
    103c:	006d6167 	rsbeq	r6, sp, r7, ror #2
    1040:	7365725f 	cmnvc	r5, #-268435451	; 0xf0000005
    1044:	5f746c75 	svcpl	0x00746c75
    1048:	5f5f006b 	svcpl	0x005f006b
    104c:	5f006d74 	svcpl	0x00006d74
    1050:	6863775f 	stmdavs	r3!, {r0, r1, r2, r3, r4, r6, r8, r9, sl, ip, sp, lr}^
    1054:	61750062 	cmnvs	r5, r2, rrx
    1058:	675f7472 			; <UNDEFINED> instruction: 0x675f7472
    105c:	00637465 	rsbeq	r7, r3, r5, ror #8
    1060:	6474735f 	ldrbtvs	r7, [r4], #-863	; 0x35f
    1064:	0074756f 	rsbseq	r7, r4, pc, ror #10
    1068:	7476635f 	ldrbtvc	r6, [r6], #-863	; 0x35f
    106c:	006e656c 	rsbeq	r6, lr, ip, ror #10
    1070:	6c69665f 	stclvs	6, cr6, [r9], #-380	; 0xfffffe84
    1074:	6e5f0065 	cdpvs	0, 5, cr0, cr15, cr5, {3}
    1078:	73626f69 	cmnvc	r2, #420	; 0x1a4
    107c:	74615f00 	strbtvc	r5, [r1], #-3840	; 0xf00
    1080:	74697865 	strbtvc	r7, [r9], #-2149	; 0x865
    1084:	735f0030 	cmpvc	pc, #48	; 0x30
    1088:	616e6769 	cmnvs	lr, r9, ror #14
    108c:	75625f6c 	strbvc	r5, [r2, #-3948]!	; 0xf6c
    1090:	615f0066 	cmpvs	pc, r6, rrx
    1094:	69746373 	ldmdbvs	r4!, {r0, r1, r4, r5, r6, r8, r9, sp, lr}^
    1098:	625f656d 	subsvs	r6, pc, #457179136	; 0x1b400000
    109c:	5f006675 	svcpl	0x00006675
    10a0:	75736572 	ldrbvc	r6, [r3, #-1394]!	; 0x572
    10a4:	5f00746c 	svcpl	0x0000746c
    10a8:	6863775f 	stmdavs	r3!, {r0, r1, r2, r3, r4, r6, r8, r9, sl, ip, sp, lr}^
    10ac:	49504700 	ldmdbmi	r0, {r8, r9, sl, lr}^
    10b0:	55465f4f 	strbpl	r5, [r6, #-3919]	; 0xf4f
    10b4:	415f434e 	cmpmi	pc, lr, asr #6
    10b8:	0032544c 	eorseq	r5, r2, ip, asr #8
    10bc:	746e6977 	strbtvc	r6, [lr], #-2423	; 0x977
    10c0:	5f00745f 	svcpl	0x0000745f
    10c4:	67616c66 	strbvs	r6, [r1, -r6, ror #24]!
    10c8:	5f003273 	svcpl	0x00003273
    10cc:	5f6d745f 	svcpl	0x006d745f
    10d0:	72616579 	rsbvc	r6, r1, #507510784	; 0x1e400000
    10d4:	666f5f00 	strbtvs	r5, [pc], -r0, lsl #30
    10d8:	74657366 	strbtvc	r7, [r5], #-870	; 0x366
    10dc:	69706700 	ldmdbvs	r0!, {r8, r9, sl, sp, lr}^
    10e0:	65735f6f 	ldrbvs	r5, [r3, #-3951]!	; 0xf6f
    10e4:	75665f74 	strbvc	r5, [r6, #-3956]!	; 0xf74
    10e8:	6974636e 	ldmdbvs	r4!, {r1, r2, r3, r5, r6, r8, r9, sp, lr}^
    10ec:	5f006e6f 	svcpl	0x00006e6f
    10f0:	7478656e 	ldrbtvc	r6, [r8], #-1390	; 0x56e
    10f4:	5f5f0066 	svcpl	0x005f0066
    10f8:	6d5f6d74 	ldclvs	13, cr6, [pc, #-464]	; f30 <__code_start__-0x70d0>
    10fc:	5f006e6f 	svcpl	0x00006e6f
    1100:	78657461 	stmdavc	r5!, {r0, r5, r6, sl, ip, sp, lr}^
    1104:	5f007469 	svcpl	0x00007469
    1108:	6964735f 	stmdbvs	r4!, {r0, r1, r2, r3, r4, r6, r8, r9, ip, sp, lr}^
    110c:	696e6964 	stmdbvs	lr!, {r2, r5, r6, r8, fp, sp, lr}^
    1110:	6f5f0074 	svcvs	0x005f0074
    1114:	745f6666 	ldrbvc	r6, [pc], #-1638	; 111c <__code_start__-0x6ee4>
    1118:	72617500 	rsbvc	r7, r1, #0, 10
    111c:	665f0074 			; <UNDEFINED> instruction: 0x665f0074
    1120:	6c656572 	cfstr64vs	mvdx6, [r5], #-456	; 0xfffffe38
    1124:	00747369 	rsbseq	r7, r4, r9, ror #6
    1128:	434f4c5f 	movtmi	r4, #64607	; 0xfc5f
    112c:	45525f4b 	ldrbmi	r5, [r2, #-3915]	; 0xf4b
    1130:	53525543 	cmppl	r2, #281018368	; 0x10c00000
    1134:	5f455649 	svcpl	0x00455649
    1138:	6e5f0054 	mrcvs	0, 2, r0, cr15, cr4, {2}
    113c:	5f007765 	svcpl	0x00007765
    1140:	72655f68 	rsbvc	r5, r5, #104, 30	; 0x1a0
    1144:	006f6e72 	rsbeq	r6, pc, r2, ror lr	; <UNPREDICTABLE>
    1148:	6d745f5f 	ldclvs	15, cr5, [r4, #-380]!	; 0xfffffe84
    114c:	6164795f 	cmnvs	r4, pc, asr r9
    1150:	5f5f0079 	svcpl	0x005f0079
    1154:	66756273 			; <UNDEFINED> instruction: 0x66756273
    1158:	6f695f00 	svcvs	0x00695f00
    115c:	5f007362 	svcpl	0x00007362
    1160:	4c49465f 	mcrrmi	6, 5, r4, r9, cr15
    1164:	6d5f0045 	ldclvs	0, cr0, [pc, #-276]	; 1058 <__code_start__-0x6fa8>
    1168:	61747362 	cmnvs	r4, r2, ror #6
    116c:	745f6574 	ldrbvc	r6, [pc], #-1396	; 1174 <__code_start__-0x6e8c>
    1170:	735f5f00 	cmpvc	pc, #0, 30
    1174:	454c4946 	strbmi	r4, [ip, #-2374]	; 0x946
    1178:	626d5f00 	rsbvs	r5, sp, #0, 30
    117c:	74617473 	strbtvc	r7, [r1], #-1139	; 0x473
    1180:	725f0065 	subsvc	r0, pc, #101	; 0x65
    1184:	5f646e61 	svcpl	0x00646e61
    1188:	7478656e 	ldrbtvc	r6, [r8], #-1390	; 0x56e
    118c:	626d5f00 	rsbvs	r5, sp, #0, 30
    1190:	5f6e656c 	svcpl	0x006e656c
    1194:	74617473 	strbtvc	r7, [r1], #-1139	; 0x473
    1198:	695f0065 	ldmdbvs	pc, {r0, r2, r5, r6}^	; <UNPREDICTABLE>
    119c:	5f00636e 	svcpl	0x0000636e
    11a0:	00646e69 	rsbeq	r6, r4, r9, ror #28
    11a4:	7275635f 	rsbsvc	r6, r5, #2080374785	; 0x7c000001
    11a8:	746e6572 	strbtvc	r6, [lr], #-1394	; 0x572
    11ac:	636f6c5f 	cmnvs	pc, #24320	; 0x5f00
    11b0:	00656c61 	rsbeq	r6, r5, r1, ror #24
    11b4:	6c635f5f 	stclvs	15, cr5, [r3], #-380	; 0xfffffe84
    11b8:	756e6165 	strbvc	r6, [lr, #-357]!	; 0x165
    11bc:	6d5f0070 	ldclvs	0, cr0, [pc, #-448]	; 1004 <__code_start__-0x6ffc>
    11c0:	64777861 	ldrbtvs	r7, [r7], #-2145	; 0x861
    11c4:	725f0073 	subsvc	r0, pc, #115	; 0x73
    11c8:	746e6565 	strbtvc	r6, [lr], #-1381	; 0x565
    11cc:	65735f00 	ldrbvs	r5, [r3, #-3840]!	; 0xf00
    11d0:	5f006465 	svcpl	0x00006465
    11d4:	756f635f 	strbvc	r6, [pc, #-863]!	; e7d <__code_start__-0x7183>
    11d8:	5f00746e 	svcpl	0x0000746e
    11dc:	6c61765f 	stclvs	6, cr7, [r1], #-380	; 0xfffffe84
    11e0:	5f006575 	svcpl	0x00006575
    11e4:	6b656573 	blvs	195a7b8 <__bss_end__+0x194dfd8>
    11e8:	75616200 	strbvc	r6, [r1, #-512]!	; 0x200
    11ec:	665f0064 	ldrbvs	r0, [pc], -r4, rrx
    11f0:	5f736f70 	svcpl	0x00736f70
    11f4:	5f5f0074 	svcpl	0x005f0074
    11f8:	6d5f6d74 	ldclvs	13, cr6, [pc, #-464]	; 1030 <__code_start__-0x6fd0>
    11fc:	73006e69 	movwvc	r6, #3689	; 0xe69
    1200:	74617263 	strbtvc	r7, [r1], #-611	; 0x263
    1204:	5f006863 	svcpl	0x00006863
    1208:	746c756d 	strbtvc	r7, [ip], #-1389	; 0x56d
    120c:	74757000 	ldrbtvc	r7, [r5], #-0
    1210:	47003233 	smladxmi	r0, r3, r2, r3
    1214:	4320554e 	teqmi	r0, #327155712	; 0x13800000
    1218:	36203939 			; <UNDEFINED> instruction: 0x36203939
    121c:	312e332e 	teqcc	lr, lr, lsr #6
    1220:	31303220 	teqcc	r0, r0, lsr #4
    1224:	32363037 	eorscc	r3, r6, #55	; 0x37
    1228:	6d2d2030 	stcvs	0, cr2, [sp, #-192]!	; 0xffffff40
    122c:	3d757063 	ldclcc	0, cr7, [r5, #-396]!	; 0xfffffe74
    1230:	316d7261 	cmncc	sp, r1, ror #4
    1234:	6a363731 	bvs	d8ef00 <__bss_end__+0xd82720>
    1238:	732d667a 	teqvc	sp, #127926272	; 0x7a00000
    123c:	746d2d20 	strbtvc	r2, [sp], #-3360	; 0xd20
    1240:	3d656e75 	stclcc	14, cr6, [r5, #-468]!	; 0xfffffe2c
    1244:	316d7261 	cmncc	sp, r1, ror #4
    1248:	6a363731 	bvs	d8ef14 <__bss_end__+0xd82734>
    124c:	732d667a 	teqvc	sp, #127926272	; 0x7a00000
    1250:	67672d20 	strbvs	r2, [r7, -r0, lsr #26]!
    1254:	2d206264 	sfmcs	f6, 4, [r0, #-400]!	; 0xfffffe70
    1258:	2d20674f 	stccs	7, cr6, [r0, #-316]!	; 0xfffffec4
    125c:	3d647473 	cfstrdcc	mvd7, [r4, #-460]!	; 0xfffffe34
    1260:	39756e67 	ldmdbcc	r5!, {r0, r1, r2, r5, r6, r9, sl, fp, sp, lr}^
    1264:	662d2039 			; <UNDEFINED> instruction: 0x662d2039
    1268:	65657266 	strbvs	r7, [r5, #-614]!	; 0x266
    126c:	6e617473 	mcrvs	4, 3, r7, cr1, cr3, {3}
    1270:	676e6964 	strbvs	r6, [lr, -r4, ror #18]!
    1274:	74735f00 	ldrbtvc	r5, [r3], #-3840	; 0xf00
    1278:	6b6f7472 	blvs	1bde448 <__bss_end__+0x1bd1c68>
    127c:	73616c5f 	cmnvc	r1, #24320	; 0x5f00
    1280:	665f0074 			; <UNDEFINED> instruction: 0x665f0074
    1284:	7079746e 	rsbsvc	r7, r9, lr, ror #8
    1288:	5f007365 	svcpl	0x00007365
    128c:	00646461 	rsbeq	r6, r4, r1, ror #8
    1290:	4c555f5f 	mrrcmi	15, 5, r5, r5, cr15	; <UNPREDICTABLE>
    1294:	00676e6f 	rsbeq	r6, r7, pc, ror #28
    1298:	7465675f 	strbtvc	r6, [r5], #-1887	; 0x75f
    129c:	65746164 	ldrbvs	r6, [r4, #-356]!	; 0x164
    12a0:	7272655f 	rsbsvc	r6, r2, #398458880	; 0x17c00000
    12a4:	6c675f00 	stclvs	15, cr5, [r7], #-0
    12a8:	6c61626f 	sfmvs	f6, 2, [r1], #-444	; 0xfffffe44
    12ac:	706d695f 	rsbvc	r6, sp, pc, asr r9
    12b0:	5f657275 	svcpl	0x00657275
    12b4:	00727470 	rsbseq	r7, r2, r0, ror r4
    12b8:	7275635f 	rsbsvc	r6, r5, #2080374785	; 0x7c000001
    12bc:	746e6572 	strbtvc	r6, [lr], #-1394	; 0x572
    12c0:	7461635f 	strbtvc	r6, [r1], #-863	; 0x35f
    12c4:	726f6765 	rsbvc	r6, pc, #26476544	; 0x1940000
    12c8:	755f0079 	ldrbvc	r0, [pc, #-121]	; 1257 <__code_start__-0x6da9>
    12cc:	6573756e 	ldrbvs	r7, [r3, #-1390]!	; 0x56e
    12d0:	61725f64 	cmnvs	r2, r4, ror #30
    12d4:	5f00646e 	svcpl	0x0000646e
    12d8:	00736477 	rsbseq	r6, r3, r7, ror r4
    12dc:	6d745f5f 	ldclvs	15, cr5, [r4, #-380]!	; 0xfffffe84
    12e0:	6164775f 	cmnvs	r4, pc, asr r7
    12e4:	675f0079 			; <UNDEFINED> instruction: 0x675f0079
    12e8:	0065756c 	rsbeq	r7, r5, ip, ror #10
    12ec:	4f495047 	svcmi	0x00495047
    12f0:	4e55465f 	mrcmi	6, 2, r4, cr5, cr15, {2}
    12f4:	554f5f43 	strbpl	r5, [pc, #-3907]	; 3b9 <__code_start__-0x7c47>
    12f8:	54555054 	ldrbpl	r5, [r5], #-84	; 0x54
    12fc:	6d6e5f00 	stclvs	15, cr5, [lr, #-0]
    1300:	6f6c6c61 	svcvs	0x006c6c61
    1304:	6c5f0063 	mrrcvs	0, 6, r0, pc, cr3	; <UNPREDICTABLE>
    1308:	5f613436 	svcpl	0x00613436
    130c:	00667562 	rsbeq	r7, r6, r2, ror #10
    1310:	33746567 	cmncc	r4, #432013312	; 0x19c00000
    1314:	61750032 	cmnvs	r5, r2, lsr r0
    1318:	635f7472 	cmpvs	pc, #1912602624	; 0x72000000
    131c:	675f6e61 	ldrbvs	r6, [pc, -r1, ror #28]
    1320:	00637465 	rsbeq	r7, r3, r5, ror #8
    1324:	6769735f 			; <UNDEFINED> instruction: 0x6769735f
    1328:	6e75665f 	mrcvs	6, 3, r6, cr5, cr15, {2}
    132c:	726f0063 	rsbvc	r0, pc, #99	; 0x63
    1330:	336e695f 	cmncc	lr, #1556480	; 0x17c000
    1334:	61750032 	cmnvs	r5, r2, lsr r0
    1338:	685f7472 	ldmdavs	pc, {r1, r4, r5, r6, sl, ip, sp, lr}^	; <UNPREDICTABLE>
    133c:	645f7361 	ldrbvs	r7, [pc], #-865	; 1344 <__code_start__-0x6cbc>
    1340:	00617461 	rsbeq	r7, r1, r1, ror #8
    1344:	4f495047 	svcmi	0x00495047
    1348:	4e55465f 	mrcmi	6, 2, r4, cr5, cr15, {2}
    134c:	4c415f43 	mcrrmi	15, 4, r5, r1, cr3
    1350:	5f003054 	svcpl	0x00003054
    1354:	6675626e 	ldrbtvs	r6, [r5], -lr, ror #4
    1358:	6e755f00 	cdpvs	15, 7, cr5, cr5, cr0, {0}
    135c:	64657375 	strbtvs	r7, [r5], #-885	; 0x375
    1360:	49504700 	ldmdbmi	r0, {r8, r9, sl, lr}^
    1364:	55465f4f 	strbpl	r5, [r6, #-3919]	; 0xf4f
    1368:	415f434e 	cmpmi	pc, lr, asr #6
    136c:	0033544c 	eorseq	r5, r3, ip, asr #8
    1370:	4f495047 	svcmi	0x00495047
    1374:	4e55465f 	mrcmi	6, 2, r4, cr5, cr15, {2}
    1378:	4c415f43 	mcrrmi	15, 4, r5, r1, cr3
    137c:	47003454 	smlsdmi	r0, r4, r4, r3
    1380:	5f4f4950 	svcpl	0x004f4950
    1384:	434e5546 	movtmi	r5, #58694	; 0xe546
    1388:	544c415f 	strbpl	r4, [ip], #-351	; 0x15f
    138c:	5f5f0035 	svcpl	0x005f0035
    1390:	695f6d74 	ldmdbvs	pc, {r2, r4, r5, r6, r8, sl, fp, sp, lr}^	; <UNPREDICTABLE>
    1394:	74736473 	ldrbtvc	r6, [r3], #-1139	; 0x473
    1398:	6f6c5f00 	svcvs	0x006c5f00
    139c:	746c6163 	strbtvc	r6, [ip], #-355	; 0x163
    13a0:	5f656d69 	svcpl	0x00656d69
    13a4:	00667562 	rsbeq	r7, r6, r2, ror #10
    13a8:	6f6c635f 	svcvs	0x006c635f
    13ac:	5f006573 	svcpl	0x00006573
    13b0:	00383472 	eorseq	r3, r8, r2, ror r4
    13b4:	74626d5f 	strbtvc	r6, [r2], #-3423	; 0xd5f
    13b8:	5f63776f 	svcpl	0x0063776f
    13bc:	74617473 	strbtvc	r7, [r1], #-1139	; 0x473
    13c0:	705f0065 	subsvc	r0, pc, r5, rrx
    13c4:	5f007335 	svcpl	0x00007335
    13c8:	5f6d745f 	svcpl	0x006d745f
    13cc:	7961646d 	stmdbvc	r1!, {r0, r2, r3, r5, r6, sl, sp, lr}^
    13d0:	69706700 	ldmdbvs	r0!, {r8, r9, sl, sp, lr}^
    13d4:	65735f6f 	ldrbvs	r5, [r3, #-3951]!	; 0xf6f
    13d8:	666f5f74 	uqsub16vs	r5, pc, r4	; <UNPREDICTABLE>
    13dc:	61620066 	cmnvs	r2, r6, rrx
    13e0:	67006b6e 	strvs	r6, [r0, -lr, ror #22]
    13e4:	2e6f6970 	mcrcs	9, 3, r6, cr15, cr0, {3}
    13e8:	70670063 	rsbvc	r0, r7, r3, rrx
    13ec:	725f6f69 	subsvc	r6, pc, #420	; 0x1a4
    13f0:	00646165 	rsbeq	r6, r4, r5, ror #2
    13f4:	6f697067 	svcvs	0x00697067
    13f8:	7465735f 	strbtvc	r7, [r5], #-863	; 0x35f
    13fc:	74756f5f 	ldrbtvc	r6, [r5], #-3935	; 0xf5f
    1400:	00747570 	rsbseq	r7, r4, r0, ror r5
    1404:	6f697067 	svcvs	0x00697067
    1408:	6972775f 	ldmdbvs	r2!, {r0, r1, r2, r3, r4, r6, r8, r9, sl, ip, sp, lr}^
    140c:	67006574 	smlsdxvs	r0, r4, r5, r6
    1410:	5f6f6970 	svcpl	0x006f6970
    1414:	30746573 	rsbscc	r6, r4, r3, ror r5
    1418:	69706700 	ldmdbvs	r0!, {r8, r9, sl, sp, lr}^
    141c:	656c5f6f 	strbvs	r5, [ip, #-3951]!	; 0xf6f
    1420:	67003076 	smlsdxvs	r0, r6, r0, r3
    1424:	5f6f6970 	svcpl	0x006f6970
    1428:	5f746573 	svcpl	0x00746573
    142c:	75706e69 	ldrbvc	r6, [r0, #-3689]!	; 0xe69
    1430:	70670074 	rsbvc	r0, r7, r4, ror r0
    1434:	735f6f69 	cmpvc	pc, #420	; 0x1a4
    1438:	6f5f7465 	svcvs	0x005f7465
    143c:	7067006e 	rsbvc	r0, r7, lr, rrx
    1440:	665f6f69 	ldrbvs	r6, [pc], -r9, ror #30
    1444:	5f636e75 	svcpl	0x00636e75
    1448:	70670074 	rsbvc	r0, r7, r4, ror r0
    144c:	635f6f69 	cmpvs	pc, #420	; 0x1a4
    1450:	0030726c 	eorseq	r7, r0, ip, ror #4
    1454:	6c616d6b 	stclvs	13, cr6, [r1], #-428	; 0xfffffe54
    1458:	2e636f6c 	cdpcs	15, 6, cr6, cr3, cr12, {3}
    145c:	6d6b0063 	stclvs	0, cr0, [fp, #-396]!	; 0xfffffe74
    1460:	6f6c6c61 	svcvs	0x006c6c61
    1464:	6e695f63 	cdpvs	15, 6, cr5, cr9, cr3, {3}
    1468:	64007469 	strvs	r7, [r0], #-1129	; 0x469
    146c:	6c62756f 	cfstr64vs	mvdx7, [r2], #-444	; 0xfffffe44
    1470:	666b0065 	strbtvs	r0, [fp], -r5, rrx
    1474:	5f656572 	svcpl	0x00656572
    1478:	006c6c61 	rsbeq	r6, ip, r1, ror #24
    147c:	6c616d6b 	stclvs	13, cr6, [r1], #-428	; 0xfffffe54
    1480:	5f636f6c 	svcpl	0x00636f6c
    1484:	74696e69 	strbtvc	r6, [r9], #-3689	; 0xe69
    1488:	7465735f 	strbtvc	r7, [r5], #-863	; 0x35f
    148c:	6174735f 	cmnvs	r4, pc, asr r3
    1490:	6b007472 	blvs	1e660 <__bss_end__+0x11e80>
    1494:	65657266 	strbvs	r7, [r5, #-614]!	; 0x266
    1498:	72666b00 	rsbvc	r6, r6, #0, 22
    149c:	615f6565 	cmpvs	pc, r5, ror #10
    14a0:	72657466 	rsbvc	r7, r5, #1711276032	; 0x66000000
    14a4:	616d6b00 	cmnvs	sp, r0, lsl #22
    14a8:	636f6c6c 	cmnvs	pc, #108, 24	; 0x6c00
    14ac:	6165685f 	cmnvs	r5, pc, asr r8
    14b0:	74705f70 	ldrbtvc	r5, [r0], #-3952	; 0xf70
    14b4:	5f5f0072 	svcpl	0x005f0072
    14b8:	70616568 	rsbvc	r6, r1, r8, ror #10
    14bc:	6174735f 	cmnvs	r4, pc, asr r3
    14c0:	5f5f7472 	svcpl	0x005f7472
    14c4:	616d6b00 	cmnvs	sp, r0, lsl #22
    14c8:	636f6c6c 	cmnvs	pc, #108, 24	; 0x6c00
    14cc:	6165685f 	cmnvs	r5, pc, asr r8
    14d0:	74735f70 	ldrbtvc	r5, [r3], #-3952	; 0xf70
    14d4:	00747261 	rsbseq	r7, r4, r1, ror #4
    14d8:	70616568 	rsbvc	r6, r1, r8, ror #10
    14dc:	616d6b00 	cmnvs	sp, r0, lsl #22
    14e0:	636f6c6c 	cmnvs	pc, #108, 24	; 0x6c00
    14e4:	6165685f 	cmnvs	r5, pc, asr r8
    14e8:	6e655f70 	mcrvs	15, 3, r5, cr5, cr0, {3}
    14ec:	6d6b0064 	stclvs	0, cr0, [fp, #-400]!	; 0xfffffe70
    14f0:	6f6c6c61 	svcvs	0x006c6c61
    14f4:	Address 0x00000000000014f4 is out of bounds.


Disassembly of section .debug_frame:

00000000 <.debug_frame>:
   0:	0000000c 	andeq	r0, r0, ip
   4:	ffffffff 			; <UNDEFINED> instruction: 0xffffffff
   8:	7c020001 	stcvc	0, cr0, [r2], {1}
   c:	000d0c0e 	andeq	r0, sp, lr, lsl #24
  10:	0000000c 	andeq	r0, r0, ip
  14:	00000000 	andeq	r0, r0, r0
  18:	00008020 	andeq	r8, r0, r0, lsr #32
  1c:	0000000c 	andeq	r0, r0, ip
  20:	00000014 	andeq	r0, r0, r4, lsl r0
  24:	00000000 	andeq	r0, r0, r0
  28:	0000802c 	andeq	r8, r0, ip, lsr #32
  2c:	000000d8 	ldrdeq	r0, [r0], -r8
  30:	8e040e42 	cdphi	14, 0, cr0, cr4, cr2, {2}
  34:	100e4201 	andne	r4, lr, r1, lsl #4
  38:	0000000c 	andeq	r0, r0, ip
  3c:	ffffffff 			; <UNDEFINED> instruction: 0xffffffff
  40:	7c020001 	stcvc	0, cr0, [r2], {1}
  44:	000d0c0e 	andeq	r0, sp, lr, lsl #24
  48:	00000014 	andeq	r0, r0, r4, lsl r0
  4c:	00000038 	andeq	r0, r0, r8, lsr r0
  50:	00008248 	andeq	r8, r0, r8, asr #4
  54:	00000010 	andeq	r0, r0, r0, lsl r0
  58:	83080e42 	movwhi	r0, #36418	; 0x8e42
  5c:	00018e02 	andeq	r8, r1, r2, lsl #28
  60:	00000014 	andeq	r0, r0, r4, lsl r0
  64:	00000038 	andeq	r0, r0, r8, lsr r0
  68:	00008258 	andeq	r8, r0, r8, asr r2
  6c:	00000090 	muleq	r0, r0, r0
  70:	8e040e42 	cdphi	14, 0, cr0, cr4, cr2, {2}
  74:	100e4201 	andne	r4, lr, r1, lsl #4
  78:	00000020 	andeq	r0, r0, r0, lsr #32
  7c:	00000038 	andeq	r0, r0, r8, lsr r0
  80:	000082e8 	andeq	r8, r0, r8, ror #5
  84:	00000098 	muleq	r0, r8, r0
  88:	84180e42 	ldrhi	r0, [r8], #-3650	; 0xe42
  8c:	86058506 	strhi	r8, [r5], -r6, lsl #10
  90:	88038704 	stmdahi	r3, {r2, r8, r9, sl, pc}
  94:	42018e02 	andmi	r8, r1, #2, 28
  98:	0000200e 	andeq	r2, r0, lr
  9c:	00000014 	andeq	r0, r0, r4, lsl r0
  a0:	00000038 	andeq	r0, r0, r8, lsr r0
  a4:	00008380 	andeq	r8, r0, r0, lsl #7
  a8:	00000010 	andeq	r0, r0, r0, lsl r0
  ac:	83080e42 	movwhi	r0, #36418	; 0x8e42
  b0:	00018e02 	andeq	r8, r1, r2, lsl #28
  b4:	00000014 	andeq	r0, r0, r4, lsl r0
  b8:	00000038 	andeq	r0, r0, r8, lsr r0
  bc:	00008390 	muleq	r0, r0, r3
  c0:	00000010 	andeq	r0, r0, r0, lsl r0
  c4:	83080e42 	movwhi	r0, #36418	; 0x8e42
  c8:	00018e02 	andeq	r8, r1, r2, lsl #28
  cc:	00000014 	andeq	r0, r0, r4, lsl r0
  d0:	00000038 	andeq	r0, r0, r8, lsr r0
  d4:	000083a0 	andeq	r8, r0, r0, lsr #7
  d8:	00000010 	andeq	r0, r0, r0, lsl r0
  dc:	83080e42 	movwhi	r0, #36418	; 0x8e42
  e0:	00018e02 	andeq	r8, r1, r2, lsl #28
  e4:	00000014 	andeq	r0, r0, r4, lsl r0
  e8:	00000038 	andeq	r0, r0, r8, lsr r0
  ec:	000083b0 			; <UNDEFINED> instruction: 0x000083b0
  f0:	00000098 	muleq	r0, r8, r0
  f4:	8e040e42 	cdphi	14, 0, cr0, cr4, cr2, {2}
  f8:	100e4201 	andne	r4, lr, r1, lsl #4
  fc:	00000020 	andeq	r0, r0, r0, lsr #32
 100:	00000038 	andeq	r0, r0, r8, lsr r0
 104:	00008448 	andeq	r8, r0, r8, asr #8
 108:	00000194 	muleq	r0, r4, r1
 10c:	841c0e42 	ldrhi	r0, [ip], #-3650	; 0xe42
 110:	86068507 	strhi	r8, [r6], -r7, lsl #10
 114:	88048705 	stmdahi	r4, {r0, r2, r8, r9, sl, pc}
 118:	8e028903 	cdphi	9, 0, cr8, cr2, cr3, {0}
 11c:	280e4201 	stmdacs	lr, {r0, r9, lr}
 120:	00000020 	andeq	r0, r0, r0, lsr #32
 124:	00000038 	andeq	r0, r0, r8, lsr r0
 128:	000085dc 	ldrdeq	r8, [r0], -ip
 12c:	000000f0 	strdeq	r0, [r0], -r0	; <UNPREDICTABLE>
 130:	841c0e42 	ldrhi	r0, [ip], #-3650	; 0xe42
 134:	86068507 	strhi	r8, [r6], -r7, lsl #10
 138:	88048705 	stmdahi	r4, {r0, r2, r8, r9, sl, pc}
 13c:	8e028903 	cdphi	9, 0, cr8, cr2, cr3, {0}
 140:	280e4201 	stmdacs	lr, {r0, r9, lr}
 144:	00000018 	andeq	r0, r0, r8, lsl r0
 148:	00000038 	andeq	r0, r0, r8, lsr r0
 14c:	000086cc 	andeq	r8, r0, ip, asr #13
 150:	00000094 	muleq	r0, r4, r0
 154:	84080e42 	strhi	r0, [r8], #-3650	; 0xe42
 158:	42018e02 	andmi	r8, r1, #2, 28
 15c:	0000100e 	andeq	r1, r0, lr
 160:	00000014 	andeq	r0, r0, r4, lsl r0
 164:	00000038 	andeq	r0, r0, r8, lsr r0
 168:	00008760 	andeq	r8, r0, r0, ror #14
 16c:	00000090 	muleq	r0, r0, r0
 170:	8e040e42 	cdphi	14, 0, cr0, cr4, cr2, {2}
 174:	100e4201 	andne	r4, lr, r1, lsl #4
 178:	00000014 	andeq	r0, r0, r4, lsl r0
 17c:	00000038 	andeq	r0, r0, r8, lsr r0
 180:	000087f0 	strdeq	r8, [r0], -r0
 184:	00000090 	muleq	r0, r0, r0
 188:	8e040e42 	cdphi	14, 0, cr0, cr4, cr2, {2}
 18c:	100e4201 	andne	r4, lr, r1, lsl #4
 190:	00000014 	andeq	r0, r0, r4, lsl r0
 194:	00000038 	andeq	r0, r0, r8, lsr r0
 198:	00008880 	andeq	r8, r0, r0, lsl #17
 19c:	0000000c 	andeq	r0, r0, ip
 1a0:	83080e42 	movwhi	r0, #36418	; 0x8e42
 1a4:	00018e02 	andeq	r8, r1, r2, lsl #28
 1a8:	00000014 	andeq	r0, r0, r4, lsl r0
 1ac:	00000038 	andeq	r0, r0, r8, lsr r0
 1b0:	0000888c 	andeq	r8, r0, ip, lsl #17
 1b4:	00000080 	andeq	r0, r0, r0, lsl #1
 1b8:	8e040e42 	cdphi	14, 0, cr0, cr4, cr2, {2}
 1bc:	100e4201 	andne	r4, lr, r1, lsl #4
 1c0:	00000014 	andeq	r0, r0, r4, lsl r0
 1c4:	00000038 	andeq	r0, r0, r8, lsr r0
 1c8:	0000890c 	andeq	r8, r0, ip, lsl #18
 1cc:	00000058 	andeq	r0, r0, r8, asr r0
 1d0:	8e040e42 	cdphi	14, 0, cr0, cr4, cr2, {2}
 1d4:	100e4201 	andne	r4, lr, r1, lsl #4
 1d8:	00000014 	andeq	r0, r0, r4, lsl r0
 1dc:	00000038 	andeq	r0, r0, r8, lsr r0
 1e0:	00008964 	andeq	r8, r0, r4, ror #18
 1e4:	00000050 	andeq	r0, r0, r0, asr r0
 1e8:	8e040e42 	cdphi	14, 0, cr0, cr4, cr2, {2}
 1ec:	100e4201 	andne	r4, lr, r1, lsl #4
 1f0:	00000014 	andeq	r0, r0, r4, lsl r0
 1f4:	00000038 	andeq	r0, r0, r8, lsr r0
 1f8:	000089b4 			; <UNDEFINED> instruction: 0x000089b4
 1fc:	00000058 	andeq	r0, r0, r8, asr r0
 200:	8e040e42 	cdphi	14, 0, cr0, cr4, cr2, {2}
 204:	100e4201 	andne	r4, lr, r1, lsl #4
 208:	0000000c 	andeq	r0, r0, ip
 20c:	00000038 	andeq	r0, r0, r8, lsr r0
 210:	00008a0c 	andeq	r8, r0, ip, lsl #20
 214:	00000008 	andeq	r0, r0, r8
 218:	00000014 	andeq	r0, r0, r4, lsl r0
 21c:	00000038 	andeq	r0, r0, r8, lsr r0
 220:	00008a14 	andeq	r8, r0, r4, lsl sl
 224:	0000000c 	andeq	r0, r0, ip
 228:	83080e42 	movwhi	r0, #36418	; 0x8e42
 22c:	00018e02 	andeq	r8, r1, r2, lsl #28
 230:	00000014 	andeq	r0, r0, r4, lsl r0
 234:	00000038 	andeq	r0, r0, r8, lsr r0
 238:	00008a20 	andeq	r8, r0, r0, lsr #20
 23c:	000000bc 	strheq	r0, [r0], -ip
 240:	8e040e42 	cdphi	14, 0, cr0, cr4, cr2, {2}
 244:	100e4201 	andne	r4, lr, r1, lsl #4
 248:	00000014 	andeq	r0, r0, r4, lsl r0
 24c:	00000038 	andeq	r0, r0, r8, lsr r0
 250:	00008adc 	ldrdeq	r8, [r0], -ip
 254:	00000048 	andeq	r0, r0, r8, asr #32
 258:	8e040e42 	cdphi	14, 0, cr0, cr4, cr2, {2}
 25c:	100e4201 	andne	r4, lr, r1, lsl #4
 260:	0000000c 	andeq	r0, r0, ip
 264:	ffffffff 			; <UNDEFINED> instruction: 0xffffffff
 268:	7c020001 	stcvc	0, cr0, [r2], {1}
 26c:	000d0c0e 	andeq	r0, sp, lr, lsl #24
 270:	00000018 	andeq	r0, r0, r8, lsl r0
 274:	00000260 	andeq	r0, r0, r0, ror #4
 278:	00008b24 	andeq	r8, r0, r4, lsr #22
 27c:	00000034 	andeq	r0, r0, r4, lsr r0
 280:	83100e42 	tsthi	r0, #1056	; 0x420
 284:	85038404 	strhi	r8, [r3, #-1028]	; 0x404
 288:	00018e02 	andeq	r8, r1, r2, lsl #28
 28c:	00000014 	andeq	r0, r0, r4, lsl r0
 290:	00000260 	andeq	r0, r0, r0, ror #4
 294:	00008b58 	andeq	r8, r0, r8, asr fp
 298:	00000028 	andeq	r0, r0, r8, lsr #32
 29c:	83080e42 	movwhi	r0, #36418	; 0x8e42
 2a0:	00018e02 	andeq	r8, r1, r2, lsl #28
 2a4:	00000014 	andeq	r0, r0, r4, lsl r0
 2a8:	00000260 	andeq	r0, r0, r0, ror #4
 2ac:	00008b80 	andeq	r8, r0, r0, lsl #23
 2b0:	00000008 	andeq	r0, r0, r8
 2b4:	8e040e42 	cdphi	14, 0, cr0, cr4, cr2, {2}
 2b8:	00000001 	andeq	r0, r0, r1
 2bc:	00000014 	andeq	r0, r0, r4, lsl r0
 2c0:	00000260 	andeq	r0, r0, r0, ror #4
 2c4:	00008b88 	andeq	r8, r0, r8, lsl #23
 2c8:	000001f8 	strdeq	r0, [r0], -r8
 2cc:	8e040e42 	cdphi	14, 0, cr0, cr4, cr2, {2}
 2d0:	100e4201 	andne	r4, lr, r1, lsl #4
 2d4:	00000014 	andeq	r0, r0, r4, lsl r0
 2d8:	00000260 	andeq	r0, r0, r0, ror #4
 2dc:	00008d80 	andeq	r8, r0, r0, lsl #27
 2e0:	00000204 	andeq	r0, r0, r4, lsl #4
 2e4:	84080e42 	strhi	r0, [r8], #-3650	; 0xe42
 2e8:	00018e02 	andeq	r8, r1, r2, lsl #28
 2ec:	00000014 	andeq	r0, r0, r4, lsl r0
 2f0:	00000260 	andeq	r0, r0, r0, ror #4
 2f4:	00008f84 	andeq	r8, r0, r4, lsl #31
 2f8:	00000008 	andeq	r0, r0, r8
 2fc:	8e040e42 	cdphi	14, 0, cr0, cr4, cr2, {2}
 300:	00000001 	andeq	r0, r0, r1
 304:	00000014 	andeq	r0, r0, r4, lsl r0
 308:	00000260 	andeq	r0, r0, r0, ror #4
 30c:	00008f8c 	andeq	r8, r0, ip, lsl #31
 310:	0000004c 	andeq	r0, r0, ip, asr #32
 314:	84080e42 	strhi	r0, [r8], #-3650	; 0xe42
 318:	00018e02 	andeq	r8, r1, r2, lsl #28
 31c:	00000014 	andeq	r0, r0, r4, lsl r0
 320:	00000260 	andeq	r0, r0, r0, ror #4
 324:	00008fd8 	ldrdeq	r8, [r0], -r8	; <UNPREDICTABLE>
 328:	000001c0 	andeq	r0, r0, r0, asr #3
 32c:	8e040e42 	cdphi	14, 0, cr0, cr4, cr2, {2}
 330:	100e4201 	andne	r4, lr, r1, lsl #4
 334:	0000000c 	andeq	r0, r0, ip
 338:	00000260 	andeq	r0, r0, r0, ror #4
 33c:	00009198 	muleq	r0, r8, r1
 340:	00000008 	andeq	r0, r0, r8
 344:	00000018 	andeq	r0, r0, r8, lsl r0
 348:	00000260 	andeq	r0, r0, r0, ror #4
 34c:	000091a0 	andeq	r9, r0, r0, lsr #3
 350:	000000b4 	strheq	r0, [r0], -r4
 354:	84080e42 	strhi	r0, [r8], #-3650	; 0xe42
 358:	42018e02 	andmi	r8, r1, #2, 28
 35c:	0000280e 	andeq	r2, r0, lr, lsl #16
 360:	00000014 	andeq	r0, r0, r4, lsl r0
 364:	00000260 	andeq	r0, r0, r0, ror #4
 368:	00009254 	andeq	r9, r0, r4, asr r2
 36c:	000001d0 	ldrdeq	r0, [r0], -r0	; <UNPREDICTABLE>
 370:	84080e42 	strhi	r0, [r8], #-3650	; 0xe42
 374:	00018e02 	andeq	r8, r1, r2, lsl #28
 378:	00000014 	andeq	r0, r0, r4, lsl r0
 37c:	00000260 	andeq	r0, r0, r0, ror #4
 380:	00009424 	andeq	r9, r0, r4, lsr #8
 384:	00000014 	andeq	r0, r0, r4, lsl r0
 388:	83080e42 	movwhi	r0, #36418	; 0x8e42
 38c:	00018e02 	andeq	r8, r1, r2, lsl #28
 390:	0000000c 	andeq	r0, r0, ip
 394:	ffffffff 			; <UNDEFINED> instruction: 0xffffffff
 398:	7c020001 	stcvc	0, cr0, [r2], {1}
 39c:	000d0c0e 	andeq	r0, sp, lr, lsl #24
 3a0:	0000000c 	andeq	r0, r0, ip
 3a4:	00000390 	muleq	r0, r0, r3
 3a8:	00009438 	andeq	r9, r0, r8, lsr r4
 3ac:	0000001c 	andeq	r0, r0, ip, lsl r0
 3b0:	0000000c 	andeq	r0, r0, ip
 3b4:	00000390 	muleq	r0, r0, r3
 3b8:	00009454 	andeq	r9, r0, r4, asr r4
 3bc:	00000018 	andeq	r0, r0, r8, lsl r0
 3c0:	0000001c 	andeq	r0, r0, ip, lsl r0
 3c4:	00000390 	muleq	r0, r0, r3
 3c8:	0000946c 	andeq	r9, r0, ip, ror #8
 3cc:	000000f0 	strdeq	r0, [r0], -r0	; <UNPREDICTABLE>
 3d0:	84100e42 	ldrhi	r0, [r0], #-3650	; 0xe42
 3d4:	86038504 	strhi	r8, [r3], -r4, lsl #10
 3d8:	42018e02 	andmi	r8, r1, #2, 28
 3dc:	0000280e 	andeq	r2, r0, lr, lsl #16
 3e0:	00000018 	andeq	r0, r0, r8, lsl r0
 3e4:	00000390 	muleq	r0, r0, r3
 3e8:	0000955c 	andeq	r9, r0, ip, asr r5
 3ec:	000000a4 	andeq	r0, r0, r4, lsr #1
 3f0:	84080e42 	strhi	r0, [r8], #-3650	; 0xe42
 3f4:	42018e02 	andmi	r8, r1, #2, 28
 3f8:	0000100e 	andeq	r1, r0, lr
 3fc:	00000018 	andeq	r0, r0, r8, lsl r0
 400:	00000390 	muleq	r0, r0, r3
 404:	00009600 	andeq	r9, r0, r0, lsl #12
 408:	0000009c 	muleq	r0, ip, r0
 40c:	840c0e42 	strhi	r0, [ip], #-3650	; 0xe42
 410:	8e028503 	cfsh32hi	mvfx8, mvfx2, #3
 414:	180e4201 	stmdane	lr, {r0, r9, lr}
 418:	0000000c 	andeq	r0, r0, ip
 41c:	00000390 	muleq	r0, r0, r3
 420:	0000969c 	muleq	r0, ip, r6
 424:	00000014 	andeq	r0, r0, r4, lsl r0
 428:	0000001c 	andeq	r0, r0, ip, lsl r0
 42c:	00000390 	muleq	r0, r0, r3
 430:	000096b0 			; <UNDEFINED> instruction: 0x000096b0
 434:	00000378 	andeq	r0, r0, r8, ror r3
 438:	84100e42 	ldrhi	r0, [r0], #-3650	; 0xe42
 43c:	86038504 	strhi	r8, [r3], -r4, lsl #10
 440:	42018e02 	andmi	r8, r1, #2, 28
 444:	0000180e 	andeq	r1, r0, lr, lsl #16
 448:	00000014 	andeq	r0, r0, r4, lsl r0
 44c:	00000390 	muleq	r0, r0, r3
 450:	00009a28 	andeq	r9, r0, r8, lsr #20
 454:	00000030 	andeq	r0, r0, r0, lsr r0
 458:	83080e42 	movwhi	r0, #36418	; 0x8e42
 45c:	00018e02 	andeq	r8, r1, r2, lsl #28
 460:	00000018 	andeq	r0, r0, r8, lsl r0
 464:	00000390 	muleq	r0, r0, r3
 468:	00009a58 	andeq	r9, r0, r8, asr sl
 46c:	00000150 	andeq	r0, r0, r0, asr r1
 470:	84080e42 	strhi	r0, [r8], #-3650	; 0xe42
 474:	42018e02 	andmi	r8, r1, #2, 28
 478:	0000100e 	andeq	r1, r0, lr
 47c:	00000014 	andeq	r0, r0, r4, lsl r0
 480:	00000390 	muleq	r0, r0, r3
 484:	00009ba8 	andeq	r9, r0, r8, lsr #23
 488:	00000088 	andeq	r0, r0, r8, lsl #1
 48c:	8e040e42 	cdphi	14, 0, cr0, cr4, cr2, {2}
 490:	100e4201 	andne	r4, lr, r1, lsl #4
 494:	00000014 	andeq	r0, r0, r4, lsl r0
 498:	00000390 	muleq	r0, r0, r3
 49c:	00009c30 	andeq	r9, r0, r0, lsr ip
 4a0:	00000070 	andeq	r0, r0, r0, ror r0
 4a4:	8e040e42 	cdphi	14, 0, cr0, cr4, cr2, {2}
 4a8:	100e4201 	andne	r4, lr, r1, lsl #4
 4ac:	00000014 	andeq	r0, r0, r4, lsl r0
 4b0:	00000390 	muleq	r0, r0, r3
 4b4:	00009ca0 	andeq	r9, r0, r0, lsr #25
 4b8:	00000070 	andeq	r0, r0, r0, ror r0
 4bc:	8e040e42 	cdphi	14, 0, cr0, cr4, cr2, {2}
 4c0:	100e4201 	andne	r4, lr, r1, lsl #4
 4c4:	00000014 	andeq	r0, r0, r4, lsl r0
 4c8:	00000390 	muleq	r0, r0, r3
 4cc:	00009d10 	andeq	r9, r0, r0, lsl sp
 4d0:	00000074 	andeq	r0, r0, r4, ror r0
 4d4:	8e040e42 	cdphi	14, 0, cr0, cr4, cr2, {2}
 4d8:	100e4201 	andne	r4, lr, r1, lsl #4
 4dc:	00000014 	andeq	r0, r0, r4, lsl r0
 4e0:	00000390 	muleq	r0, r0, r3
 4e4:	00009d84 	andeq	r9, r0, r4, lsl #27
 4e8:	00000024 	andeq	r0, r0, r4, lsr #32
 4ec:	83080e42 	movwhi	r0, #36418	; 0x8e42
 4f0:	00018e02 	andeq	r8, r1, r2, lsl #28
 4f4:	00000014 	andeq	r0, r0, r4, lsl r0
 4f8:	00000390 	muleq	r0, r0, r3
 4fc:	00009da8 	andeq	r9, r0, r8, lsr #27
 500:	00000018 	andeq	r0, r0, r8, lsl r0
 504:	83080e42 	movwhi	r0, #36418	; 0x8e42
 508:	00018e02 	andeq	r8, r1, r2, lsl #28
 50c:	00000014 	andeq	r0, r0, r4, lsl r0
 510:	00000390 	muleq	r0, r0, r3
 514:	00009dc0 	andeq	r9, r0, r0, asr #27
 518:	0000005c 	andeq	r0, r0, ip, asr r0
 51c:	8e040e42 	cdphi	14, 0, cr0, cr4, cr2, {2}
 520:	100e4201 	andne	r4, lr, r1, lsl #4
 524:	00000014 	andeq	r0, r0, r4, lsl r0
 528:	00000390 	muleq	r0, r0, r3
 52c:	00009e1c 	andeq	r9, r0, ip, lsl lr
 530:	0000005c 	andeq	r0, r0, ip, asr r0
 534:	8e040e42 	cdphi	14, 0, cr0, cr4, cr2, {2}
 538:	100e4201 	andne	r4, lr, r1, lsl #4
 53c:	0000000c 	andeq	r0, r0, ip
 540:	00000390 	muleq	r0, r0, r3
 544:	00009e78 	andeq	r9, r0, r8, ror lr
 548:	0000000c 	andeq	r0, r0, ip
 54c:	0000000c 	andeq	r0, r0, ip
 550:	ffffffff 			; <UNDEFINED> instruction: 0xffffffff
 554:	7c020001 	stcvc	0, cr0, [r2], {1}
 558:	000d0c0e 	andeq	r0, sp, lr, lsl #24
 55c:	00000014 	andeq	r0, r0, r4, lsl r0
 560:	0000054c 	andeq	r0, r0, ip, asr #10
 564:	0000a218 	andeq	sl, r0, r8, lsl r2
 568:	000000f0 	strdeq	r0, [r0], -r0	; <UNPREDICTABLE>
 56c:	84040e42 	strhi	r0, [r4], #-3650	; 0xe42
 570:	00000001 	andeq	r0, r0, r1
 574:	0000000c 	andeq	r0, r0, ip
 578:	ffffffff 			; <UNDEFINED> instruction: 0xffffffff
 57c:	7c020001 	stcvc	0, cr0, [r2], {1}
 580:	000d0c0e 	andeq	r0, sp, lr, lsl #24
 584:	0000000c 	andeq	r0, r0, ip
 588:	00000574 	andeq	r0, r0, r4, ror r5
 58c:	0000a308 	andeq	sl, r0, r8, lsl #6
 590:	00000020 	andeq	r0, r0, r0, lsr #32
 594:	0000000c 	andeq	r0, r0, ip
 598:	ffffffff 			; <UNDEFINED> instruction: 0xffffffff
 59c:	7c020001 	stcvc	0, cr0, [r2], {1}
 5a0:	000d0c0e 	andeq	r0, sp, lr, lsl #24
 5a4:	00000024 	andeq	r0, r0, r4, lsr #32
 5a8:	00000594 	muleq	r0, r4, r5
 5ac:	0000a328 	andeq	sl, r0, r8, lsr #6
 5b0:	00000058 	andeq	r0, r0, r8, asr r0
 5b4:	80100e42 	andshi	r0, r0, r2, asr #28
 5b8:	82038104 	andhi	r8, r3, #4, 2
 5bc:	42018302 	andmi	r8, r1, #134217728	; 0x8000000
 5c0:	07841c0e 	streq	r1, [r4, lr, lsl #24]
 5c4:	058e0685 	streq	r0, [lr, #1669]	; 0x685
 5c8:	00280e42 	eoreq	r0, r8, r2, asr #28
 5cc:	0000000c 	andeq	r0, r0, ip
 5d0:	ffffffff 			; <UNDEFINED> instruction: 0xffffffff
 5d4:	7c020001 	stcvc	0, cr0, [r2], {1}
 5d8:	000d0c0e 	andeq	r0, sp, lr, lsl #24
 5dc:	00000014 	andeq	r0, r0, r4, lsl r0
 5e0:	000005cc 	andeq	r0, r0, ip, asr #11
 5e4:	0000a380 	andeq	sl, r0, r0, lsl #7
 5e8:	00000014 	andeq	r0, r0, r4, lsl r0
 5ec:	84080e42 	strhi	r0, [r8], #-3650	; 0xe42
 5f0:	00018e02 	andeq	r8, r1, r2, lsl #28
 5f4:	0000000c 	andeq	r0, r0, ip
 5f8:	000005cc 	andeq	r0, r0, ip, asr #11
 5fc:	0000a394 	muleq	r0, r4, r3
 600:	00000018 	andeq	r0, r0, r8, lsl r0
 604:	0000000c 	andeq	r0, r0, ip
 608:	000005cc 	andeq	r0, r0, ip, asr #11
 60c:	0000a3ac 	andeq	sl, r0, ip, lsr #7
 610:	00000010 	andeq	r0, r0, r0, lsl r0
 614:	0000000c 	andeq	r0, r0, ip
 618:	ffffffff 			; <UNDEFINED> instruction: 0xffffffff
 61c:	7c020001 	stcvc	0, cr0, [r2], {1}
 620:	000d0c0e 	andeq	r0, sp, lr, lsl #24
 624:	00000018 	andeq	r0, r0, r8, lsl r0
 628:	00000614 	andeq	r0, r0, r4, lsl r6
 62c:	0000a3bc 			; <UNDEFINED> instruction: 0x0000a3bc
 630:	00000034 	andeq	r0, r0, r4, lsr r0
 634:	83100e42 	tsthi	r0, #1056	; 0x420
 638:	85038404 	strhi	r8, [r3, #-1028]	; 0x404
 63c:	00018e02 	andeq	r8, r1, r2, lsl #28
 640:	0000000c 	andeq	r0, r0, ip
 644:	ffffffff 			; <UNDEFINED> instruction: 0xffffffff
 648:	7c020001 	stcvc	0, cr0, [r2], {1}
 64c:	000d0c0e 	andeq	r0, sp, lr, lsl #24
 650:	0000000c 	andeq	r0, r0, ip
 654:	00000640 	andeq	r0, r0, r0, asr #12
 658:	0000a3f0 	strdeq	sl, [r0], -r0
 65c:	00000014 	andeq	r0, r0, r4, lsl r0
 660:	0000000c 	andeq	r0, r0, ip
 664:	00000640 	andeq	r0, r0, r0, asr #12
 668:	0000a404 	andeq	sl, r0, r4, lsl #8
 66c:	0000002c 	andeq	r0, r0, ip, lsr #32
 670:	0000000c 	andeq	r0, r0, ip
 674:	00000640 	andeq	r0, r0, r0, asr #12
 678:	0000a430 	andeq	sl, r0, r0, lsr r4
 67c:	00000040 	andeq	r0, r0, r0, asr #32
 680:	00000020 	andeq	r0, r0, r0, lsr #32
 684:	00000640 	andeq	r0, r0, r0, asr #12
 688:	0000a470 	andeq	sl, r0, r0, ror r4
 68c:	000001bc 			; <UNDEFINED> instruction: 0x000001bc
 690:	84180e42 	ldrhi	r0, [r8], #-3650	; 0xe42
 694:	86058506 	strhi	r8, [r5], -r6, lsl #10
 698:	88038704 	stmdahi	r3, {r2, r8, r9, sl, pc}
 69c:	42018e02 	andmi	r8, r1, #2, 28
 6a0:	0000600e 	andeq	r6, r0, lr
 6a4:	00000014 	andeq	r0, r0, r4, lsl r0
 6a8:	00000640 	andeq	r0, r0, r0, asr #12
 6ac:	0000a62c 	andeq	sl, r0, ip, lsr #12
 6b0:	00000068 	andeq	r0, r0, r8, rrx
 6b4:	8e040e42 	cdphi	14, 0, cr0, cr4, cr2, {2}
 6b8:	100e4201 	andne	r4, lr, r1, lsl #4
 6bc:	00000028 	andeq	r0, r0, r8, lsr #32
 6c0:	00000640 	andeq	r0, r0, r0, asr #12
 6c4:	0000a694 	muleq	r0, r4, r6
 6c8:	000002d4 	ldrdeq	r0, [r0], -r4
 6cc:	84240e42 	strthi	r0, [r4], #-3650	; 0xe42
 6d0:	86088509 	strhi	r8, [r8], -r9, lsl #10
 6d4:	88068707 	stmdahi	r6, {r0, r1, r2, r8, r9, sl, pc}
 6d8:	8a048905 	bhi	122af4 <__bss_end__+0x116314>
 6dc:	8e028b03 	vmlahi.f64	d8, d2, d3
 6e0:	b80e4201 	stmdalt	lr, {r0, r9, lr}
 6e4:	00000001 	andeq	r0, r0, r1
 6e8:	0000000c 	andeq	r0, r0, ip
 6ec:	ffffffff 			; <UNDEFINED> instruction: 0xffffffff
 6f0:	7c020001 	stcvc	0, cr0, [r2], {1}
 6f4:	000d0c0e 	andeq	r0, sp, lr, lsl #24
 6f8:	00000014 	andeq	r0, r0, r4, lsl r0
 6fc:	000006e8 	andeq	r0, r0, r8, ror #13
 700:	0000a968 	andeq	sl, r0, r8, ror #18
 704:	0000002c 	andeq	r0, r0, ip, lsr #32
 708:	83080e42 	movwhi	r0, #36418	; 0x8e42
 70c:	00018e02 	andeq	r8, r1, r2, lsl #28
 710:	0000000c 	andeq	r0, r0, ip
 714:	ffffffff 			; <UNDEFINED> instruction: 0xffffffff
 718:	7c020001 	stcvc	0, cr0, [r2], {1}
 71c:	000d0c0e 	andeq	r0, sp, lr, lsl #24
 720:	00000014 	andeq	r0, r0, r4, lsl r0
 724:	00000710 	andeq	r0, r0, r0, lsl r7
 728:	0000a994 	muleq	r0, r4, r9
 72c:	00000038 	andeq	r0, r0, r8, lsr r0
 730:	83080e42 	movwhi	r0, #36418	; 0x8e42
 734:	00018e02 	andeq	r8, r1, r2, lsl #28
 738:	0000000c 	andeq	r0, r0, ip
 73c:	ffffffff 			; <UNDEFINED> instruction: 0xffffffff
 740:	7c020001 	stcvc	0, cr0, [r2], {1}
 744:	000d0c0e 	andeq	r0, sp, lr, lsl #24
 748:	00000014 	andeq	r0, r0, r4, lsl r0
 74c:	00000738 	andeq	r0, r0, r8, lsr r7
 750:	0000a9cc 	andeq	sl, r0, ip, asr #19
 754:	00000044 	andeq	r0, r0, r4, asr #32
 758:	8e040e42 	cdphi	14, 0, cr0, cr4, cr2, {2}
 75c:	100e4201 	andne	r4, lr, r1, lsl #4
 760:	0000000c 	andeq	r0, r0, ip
 764:	ffffffff 			; <UNDEFINED> instruction: 0xffffffff
 768:	7c020001 	stcvc	0, cr0, [r2], {1}
 76c:	000d0c0e 	andeq	r0, sp, lr, lsl #24
 770:	00000014 	andeq	r0, r0, r4, lsl r0
 774:	00000760 	andeq	r0, r0, r0, ror #14
 778:	0000aa10 	andeq	sl, r0, r0, lsl sl
 77c:	00000044 	andeq	r0, r0, r4, asr #32
 780:	8e040e42 	cdphi	14, 0, cr0, cr4, cr2, {2}
 784:	100e4201 	andne	r4, lr, r1, lsl #4
 788:	0000000c 	andeq	r0, r0, ip
 78c:	ffffffff 			; <UNDEFINED> instruction: 0xffffffff
 790:	7c020001 	stcvc	0, cr0, [r2], {1}
 794:	000d0c0e 	andeq	r0, sp, lr, lsl #24
 798:	00000014 	andeq	r0, r0, r4, lsl r0
 79c:	00000788 	andeq	r0, r0, r8, lsl #15
 7a0:	0000aa54 	andeq	sl, r0, r4, asr sl
 7a4:	00000044 	andeq	r0, r0, r4, asr #32
 7a8:	8e040e42 	cdphi	14, 0, cr0, cr4, cr2, {2}
 7ac:	100e4201 	andne	r4, lr, r1, lsl #4
 7b0:	0000000c 	andeq	r0, r0, ip
 7b4:	ffffffff 			; <UNDEFINED> instruction: 0xffffffff
 7b8:	7c020001 	stcvc	0, cr0, [r2], {1}
 7bc:	000d0c0e 	andeq	r0, sp, lr, lsl #24
 7c0:	00000014 	andeq	r0, r0, r4, lsl r0
 7c4:	000007b0 			; <UNDEFINED> instruction: 0x000007b0
 7c8:	0000aa98 	muleq	r0, r8, sl
 7cc:	00000044 	andeq	r0, r0, r4, asr #32
 7d0:	8e040e42 	cdphi	14, 0, cr0, cr4, cr2, {2}
 7d4:	100e4201 	andne	r4, lr, r1, lsl #4
 7d8:	0000000c 	andeq	r0, r0, ip
 7dc:	ffffffff 			; <UNDEFINED> instruction: 0xffffffff
 7e0:	7c020001 	stcvc	0, cr0, [r2], {1}
 7e4:	000d0c0e 	andeq	r0, sp, lr, lsl #24
 7e8:	0000000c 	andeq	r0, r0, ip
 7ec:	000007d8 	ldrdeq	r0, [r0], -r8
 7f0:	0000aadc 	ldrdeq	sl, [r0], -ip
 7f4:	00000004 	andeq	r0, r0, r4
 7f8:	0000000c 	andeq	r0, r0, ip
 7fc:	000007d8 	ldrdeq	r0, [r0], -r8
 800:	0000aae0 	andeq	sl, r0, r0, ror #21
 804:	00000004 	andeq	r0, r0, r4
 808:	0000000c 	andeq	r0, r0, ip
 80c:	ffffffff 			; <UNDEFINED> instruction: 0xffffffff
 810:	7c020001 	stcvc	0, cr0, [r2], {1}
 814:	000d0c0e 	andeq	r0, sp, lr, lsl #24
 818:	00000014 	andeq	r0, r0, r4, lsl r0
 81c:	00000808 	andeq	r0, r0, r8, lsl #16
 820:	0000aae4 	andeq	sl, r0, r4, ror #21
 824:	0000006c 	andeq	r0, r0, ip, rrx
 828:	83080e42 	movwhi	r0, #36418	; 0x8e42
 82c:	00018e02 	andeq	r8, r1, r2, lsl #28
 830:	0000000c 	andeq	r0, r0, ip
 834:	ffffffff 			; <UNDEFINED> instruction: 0xffffffff
 838:	7c020001 	stcvc	0, cr0, [r2], {1}
 83c:	000d0c0e 	andeq	r0, sp, lr, lsl #24
 840:	0000000c 	andeq	r0, r0, ip
 844:	00000830 	andeq	r0, r0, r0, lsr r8
 848:	0000ab50 	andeq	sl, r0, r0, asr fp
 84c:	00000018 	andeq	r0, r0, r8, lsl r0
 850:	0000000c 	andeq	r0, r0, ip
 854:	00000830 	andeq	r0, r0, r0, lsr r8
 858:	0000ab68 	andeq	sl, r0, r8, ror #22
 85c:	00000014 	andeq	r0, r0, r4, lsl r0
 860:	00000014 	andeq	r0, r0, r4, lsl r0
 864:	00000830 	andeq	r0, r0, r0, lsr r8
 868:	0000ab7c 	andeq	sl, r0, ip, ror fp
 86c:	00000048 	andeq	r0, r0, r8, asr #32
 870:	83080e42 	movwhi	r0, #36418	; 0x8e42
 874:	00018e02 	andeq	r8, r1, r2, lsl #28
 878:	0000000c 	andeq	r0, r0, ip
 87c:	ffffffff 			; <UNDEFINED> instruction: 0xffffffff
 880:	7c020001 	stcvc	0, cr0, [r2], {1}
 884:	000d0c0e 	andeq	r0, sp, lr, lsl #24
 888:	0000000c 	andeq	r0, r0, ip
 88c:	00000878 	andeq	r0, r0, r8, ror r8
 890:	0000abc4 	andeq	sl, r0, r4, asr #23
 894:	0000001c 	andeq	r0, r0, ip, lsl r0
 898:	00000014 	andeq	r0, r0, r4, lsl r0
 89c:	00000878 	andeq	r0, r0, r8, ror r8
 8a0:	0000abe0 	andeq	sl, r0, r0, ror #23
 8a4:	00000014 	andeq	r0, r0, r4, lsl r0
 8a8:	83080e42 	movwhi	r0, #36418	; 0x8e42
 8ac:	00018e02 	andeq	r8, r1, r2, lsl #28
 8b0:	00000014 	andeq	r0, r0, r4, lsl r0
 8b4:	00000878 	andeq	r0, r0, r8, ror r8
 8b8:	0000abf4 	strdeq	sl, [r0], -r4
 8bc:	0000001c 	andeq	r0, r0, ip, lsl r0
 8c0:	84080e42 	strhi	r0, [r8], #-3650	; 0xe42
 8c4:	00018e02 	andeq	r8, r1, r2, lsl #28
 8c8:	00000018 	andeq	r0, r0, r8, lsl r0
 8cc:	00000878 	andeq	r0, r0, r8, ror r8
 8d0:	0000ac10 	andeq	sl, r0, r0, lsl ip
 8d4:	00000024 	andeq	r0, r0, r4, lsr #32
 8d8:	83100e42 	tsthi	r0, #1056	; 0x420
 8dc:	85038404 	strhi	r8, [r3, #-1028]	; 0x404
 8e0:	00018e02 	andeq	r8, r1, r2, lsl #28
 8e4:	00000014 	andeq	r0, r0, r4, lsl r0
 8e8:	00000878 	andeq	r0, r0, r8, ror r8
 8ec:	0000ac34 	andeq	sl, r0, r4, lsr ip
 8f0:	00000014 	andeq	r0, r0, r4, lsl r0
 8f4:	83080e42 	movwhi	r0, #36418	; 0x8e42
 8f8:	00018e02 	andeq	r8, r1, r2, lsl #28
 8fc:	00000014 	andeq	r0, r0, r4, lsl r0
 900:	00000878 	andeq	r0, r0, r8, ror r8
 904:	0000ac48 	andeq	sl, r0, r8, asr #24
 908:	00000014 	andeq	r0, r0, r4, lsl r0
 90c:	83080e42 	movwhi	r0, #36418	; 0x8e42
 910:	00018e02 	andeq	r8, r1, r2, lsl #28
 914:	0000000c 	andeq	r0, r0, ip
 918:	ffffffff 			; <UNDEFINED> instruction: 0xffffffff
 91c:	7c020001 	stcvc	0, cr0, [r2], {1}
 920:	000d0c0e 	andeq	r0, sp, lr, lsl #24
 924:	00000018 	andeq	r0, r0, r8, lsl r0
 928:	00000914 	andeq	r0, r0, r4, lsl r9
 92c:	0000acc0 	andeq	sl, r0, r0, asr #25
 930:	00000020 	andeq	r0, r0, r0, lsr #32
 934:	84100e42 	ldrhi	r0, [r0], #-3650	; 0xe42
 938:	86038504 	strhi	r8, [r3], -r4, lsl #10
 93c:	00018e02 	andeq	r8, r1, r2, lsl #28
 940:	00000014 	andeq	r0, r0, r4, lsl r0
 944:	00000914 	andeq	r0, r0, r4, lsl r9
 948:	0000ace0 	andeq	sl, r0, r0, ror #25
 94c:	000000b0 	strheq	r0, [r0], -r0	; <UNPREDICTABLE>
 950:	84080e42 	strhi	r0, [r8], #-3650	; 0xe42
 954:	00018e02 	andeq	r8, r1, r2, lsl #28
 958:	00000014 	andeq	r0, r0, r4, lsl r0
 95c:	00000914 	andeq	r0, r0, r4, lsl r9
 960:	0000ad90 	muleq	r0, r0, sp
 964:	00000018 	andeq	r0, r0, r8, lsl r0
 968:	84080e42 	strhi	r0, [r8], #-3650	; 0xe42
 96c:	00018e02 	andeq	r8, r1, r2, lsl #28
 970:	00000014 	andeq	r0, r0, r4, lsl r0
 974:	00000914 	andeq	r0, r0, r4, lsl r9
 978:	0000ada8 	andeq	sl, r0, r8, lsr #27
 97c:	00000020 	andeq	r0, r0, r0, lsr #32
 980:	84080e42 	strhi	r0, [r8], #-3650	; 0xe42
 984:	00018e02 	andeq	r8, r1, r2, lsl #28
 988:	00000014 	andeq	r0, r0, r4, lsl r0
 98c:	00000914 	andeq	r0, r0, r4, lsl r9
 990:	0000adc8 	andeq	sl, r0, r8, asr #27
 994:	00000030 	andeq	r0, r0, r0, lsr r0
 998:	84080e42 	strhi	r0, [r8], #-3650	; 0xe42
 99c:	00018e02 	andeq	r8, r1, r2, lsl #28
 9a0:	00000014 	andeq	r0, r0, r4, lsl r0
 9a4:	00000914 	andeq	r0, r0, r4, lsl r9
 9a8:	0000adf8 	strdeq	sl, [r0], -r8
 9ac:	00000030 	andeq	r0, r0, r0, lsr r0
 9b0:	84080e42 	strhi	r0, [r8], #-3650	; 0xe42
 9b4:	00018e02 	andeq	r8, r1, r2, lsl #28
 9b8:	00000014 	andeq	r0, r0, r4, lsl r0
 9bc:	00000914 	andeq	r0, r0, r4, lsl r9
 9c0:	0000ae28 	andeq	sl, r0, r8, lsr #28
 9c4:	00000010 	andeq	r0, r0, r0, lsl r0
 9c8:	84080e42 	strhi	r0, [r8], #-3650	; 0xe42
 9cc:	00018e02 	andeq	r8, r1, r2, lsl #28
 9d0:	0000000c 	andeq	r0, r0, ip
 9d4:	ffffffff 			; <UNDEFINED> instruction: 0xffffffff
 9d8:	7c020001 	stcvc	0, cr0, [r2], {1}
 9dc:	000d0c0e 	andeq	r0, sp, lr, lsl #24
 9e0:	00000018 	andeq	r0, r0, r8, lsl r0
 9e4:	000009d0 	ldrdeq	r0, [r0], -r0	; <UNPREDICTABLE>
 9e8:	0000ae38 	andeq	sl, r0, r8, lsr lr
 9ec:	00000068 	andeq	r0, r0, r8, rrx
 9f0:	84100e4a 	ldrhi	r0, [r0], #-3658	; 0xe4a
 9f4:	86038504 	strhi	r8, [r3], -r4, lsl #10
 9f8:	00018e02 	andeq	r8, r1, r2, lsl #28
 9fc:	00000014 	andeq	r0, r0, r4, lsl r0
 a00:	000009d0 	ldrdeq	r0, [r0], -r0	; <UNPREDICTABLE>
 a04:	0000aea0 	andeq	sl, r0, r0, lsr #29
 a08:	00000010 	andeq	r0, r0, r0, lsl r0
 a0c:	84080e42 	strhi	r0, [r8], #-3650	; 0xe42
 a10:	00018e02 	andeq	r8, r1, r2, lsl #28
 a14:	00000014 	andeq	r0, r0, r4, lsl r0
 a18:	000009d0 	ldrdeq	r0, [r0], -r0	; <UNPREDICTABLE>
 a1c:	0000aeb0 			; <UNDEFINED> instruction: 0x0000aeb0
 a20:	00000024 	andeq	r0, r0, r4, lsr #32
 a24:	84080e46 	strhi	r0, [r8], #-3654	; 0xe46
 a28:	00018e02 	andeq	r8, r1, r2, lsl #28
 a2c:	00000014 	andeq	r0, r0, r4, lsl r0
 a30:	000009d0 	ldrdeq	r0, [r0], -r0	; <UNPREDICTABLE>
 a34:	0000aed4 	ldrdeq	sl, [r0], -r4
 a38:	00000024 	andeq	r0, r0, r4, lsr #32
 a3c:	84080e46 	strhi	r0, [r8], #-3654	; 0xe46
 a40:	00018e02 	andeq	r8, r1, r2, lsl #28
 a44:	00000014 	andeq	r0, r0, r4, lsl r0
 a48:	000009d0 	ldrdeq	r0, [r0], -r0	; <UNPREDICTABLE>
 a4c:	0000aef8 	strdeq	sl, [r0], -r8
 a50:	00000010 	andeq	r0, r0, r0, lsl r0
 a54:	84080e42 	strhi	r0, [r8], #-3650	; 0xe42
 a58:	00018e02 	andeq	r8, r1, r2, lsl #28
 a5c:	00000014 	andeq	r0, r0, r4, lsl r0
 a60:	000009d0 	ldrdeq	r0, [r0], -r0	; <UNPREDICTABLE>
 a64:	0000af08 	andeq	sl, r0, r8, lsl #30
 a68:	0000001c 	andeq	r0, r0, ip, lsl r0
 a6c:	84080e42 	strhi	r0, [r8], #-3650	; 0xe42
 a70:	00018e02 	andeq	r8, r1, r2, lsl #28
 a74:	00000018 	andeq	r0, r0, r8, lsl r0
 a78:	000009d0 	ldrdeq	r0, [r0], -r0	; <UNPREDICTABLE>
 a7c:	0000af24 	andeq	sl, r0, r4, lsr #30
 a80:	00000034 	andeq	r0, r0, r4, lsr r0
 a84:	84080e46 	strhi	r0, [r8], #-3654	; 0xe46
 a88:	4e018e02 	cdpmi	14, 0, cr8, cr1, cr2, {0}
 a8c:	cec4000e 	cdpgt	0, 12, cr0, cr4, cr14, {0}
 a90:	0000000c 	andeq	r0, r0, ip
 a94:	ffffffff 			; <UNDEFINED> instruction: 0xffffffff
 a98:	7c020001 	stcvc	0, cr0, [r2], {1}
 a9c:	000d0c0e 	andeq	r0, sp, lr, lsl #24
 aa0:	0000000c 	andeq	r0, r0, ip
 aa4:	00000a90 	muleq	r0, r0, sl
 aa8:	0000af58 	andeq	sl, r0, r8, asr pc
 aac:	00000010 	andeq	r0, r0, r0, lsl r0
 ab0:	0000000c 	andeq	r0, r0, ip
 ab4:	00000a90 	muleq	r0, r0, sl
 ab8:	0000af68 	andeq	sl, r0, r8, ror #30
 abc:	0000000c 	andeq	r0, r0, ip
 ac0:	00000014 	andeq	r0, r0, r4, lsl r0
 ac4:	00000a90 	muleq	r0, r0, sl
 ac8:	0000af74 	andeq	sl, r0, r4, ror pc
 acc:	00000060 	andeq	r0, r0, r0, rrx
 ad0:	8e040e52 	mcrhi	14, 0, r0, cr4, cr2, {2}
 ad4:	100e4201 	andne	r4, lr, r1, lsl #4
 ad8:	0000001c 	andeq	r0, r0, ip, lsl r0
 adc:	00000a90 	muleq	r0, r0, sl
 ae0:	0000afd4 	ldrdeq	sl, [r0], -r4
 ae4:	00000078 	andeq	r0, r0, r8, ror r0
 ae8:	84080e42 	strhi	r0, [r8], #-3650	; 0xe42
 aec:	42018e02 	andmi	r8, r1, #2, 28
 af0:	0a5a100e 	beq	1684b30 <__bss_end__+0x1678350>
 af4:	0b42080e 	bleq	1082b34 <__bss_end__+0x1076354>
 af8:	0000000c 	andeq	r0, r0, ip
 afc:	00000a90 	muleq	r0, r0, sl
 b00:	0000b04c 	andeq	fp, r0, ip, asr #32
 b04:	00000004 	andeq	r0, r0, r4
 b08:	00000014 	andeq	r0, r0, r4, lsl r0
 b0c:	00000a90 	muleq	r0, r0, sl
 b10:	0000b050 	andeq	fp, r0, r0, asr r0
 b14:	0000000c 	andeq	r0, r0, ip
 b18:	84080e42 	strhi	r0, [r8], #-3650	; 0xe42
 b1c:	00018e02 	andeq	r8, r1, r2, lsl #28
 b20:	0000001c 	andeq	r0, r0, ip, lsl r0
 b24:	00000a90 	muleq	r0, r0, sl
 b28:	0000b05c 	andeq	fp, r0, ip, asr r0
 b2c:	000000ac 	andeq	r0, r0, ip, lsr #1
 b30:	8e040e42 	cdphi	14, 0, cr0, cr4, cr2, {2}
 b34:	100e4201 	andne	r4, lr, r1, lsl #4
 b38:	040e0a5e 	streq	r0, [lr], #-2654	; 0xa5e
 b3c:	00000b42 	andeq	r0, r0, r2, asr #22
 b40:	0000000c 	andeq	r0, r0, ip
 b44:	00000a90 	muleq	r0, r0, sl
 b48:	0000b108 	andeq	fp, r0, r8, lsl #2
 b4c:	00000004 	andeq	r0, r0, r4
 b50:	0000000c 	andeq	r0, r0, ip
 b54:	00000a90 	muleq	r0, r0, sl
 b58:	0000b10c 	andeq	fp, r0, ip, lsl #2
 b5c:	00000014 	andeq	r0, r0, r4, lsl r0
 b60:	0000000c 	andeq	r0, r0, ip
 b64:	00000a90 	muleq	r0, r0, sl
 b68:	0000b120 	andeq	fp, r0, r0, lsr #2
 b6c:	00000010 	andeq	r0, r0, r0, lsl r0

Disassembly of section .debug_ranges:

00000000 <.debug_ranges>:
   0:	000000e4 	andeq	r0, r0, r4, ror #1
   4:	00000108 	andeq	r0, r0, r8, lsl #2
   8:	0000010c 	andeq	r0, r0, ip, lsl #2
   c:	0000011c 	andeq	r0, r0, ip, lsl r1
	...
  18:	000000e4 	andeq	r0, r0, r4, ror #1
  1c:	00000100 	andeq	r0, r0, r0, lsl #2
  20:	0000010c 	andeq	r0, r0, ip, lsl #2
  24:	00000114 	andeq	r0, r0, r4, lsl r1
	...
  30:	00000434 	andeq	r0, r0, r4, lsr r4
  34:	00000458 	andeq	r0, r0, r8, asr r4
  38:	0000045c 	andeq	r0, r0, ip, asr r4
  3c:	00000464 	andeq	r0, r0, r4, ror #8
	...
  48:	0000ab50 	andeq	sl, r0, r0, asr fp
  4c:	0000abc4 	andeq	sl, r0, r4, asr #23
	...
