
tests/test1.elf:     file format elf32-littlearm


Disassembly of section .text:

00008000 <__code_start__>:
    8000:	e3a00013 	mov	r0, #19
    8004:	e129f000 	msr	CPSR_fc, r0
    8008:	e3a01000 	mov	r1, #0
    800c:	ee073f95 	mcr	15, 0, r3, cr7, cr5, {4}
    8010:	e3a0d302 	mov	sp, #134217728	; 0x8000000
    8014:	e3a0b000 	mov	fp, #0
    8018:	eb000ab7 	bl	aafc <_cstart>
    801c:	eb000b30 	bl	ace4 <rpi_reboot>

00008020 <mode_get>:
    8020:	e92d4010 	push	{r4, lr}
    8024:	e24dd008 	sub	sp, sp, #8
    8028:	e200401f 	and	r4, r0, #31
    802c:	e3540012 	cmp	r4, #18
    8030:	13540010 	cmpne	r4, #16
    8034:	0a00000d 	beq	8070 <mode_get+0x50>
    8038:	e3540017 	cmp	r4, #23
    803c:	13540013 	cmpne	r4, #19
    8040:	0a00000a 	beq	8070 <mode_get+0x50>
    8044:	e354001f 	cmp	r4, #31
    8048:	1354001b 	cmpne	r4, #27
    804c:	0a000007 	beq	8070 <mode_get+0x50>
    8050:	eb000929 	bl	a4fc <rpi_reset_putc>
    8054:	e58d4000 	str	r4, [sp]
    8058:	e59f001c 	ldr	r0, [pc, #28]	; 807c <mode_get+0x5c>
    805c:	e59f101c 	ldr	r1, [pc, #28]	; 8080 <mode_get+0x60>
    8060:	e59f201c 	ldr	r2, [pc, #28]	; 8084 <mode_get+0x64>
    8064:	e3a03010 	mov	r3, #16
    8068:	eb000908 	bl	a490 <printk>
    806c:	eb000a97 	bl	aad0 <clean_reboot>
    8070:	e1a00004 	mov	r0, r4
    8074:	e28dd008 	add	sp, sp, #8
    8078:	e8bd8010 	pop	{r4, pc}
    807c:	0000b2a8 	andeq	fp, r0, r8, lsr #5
    8080:	0000b2cc 	andeq	fp, r0, ip, asr #5
    8084:	0000b3e0 	andeq	fp, r0, r0, ror #7

00008088 <notmain_client>:
    8088:	e92d4010 	push	{r4, lr}
    808c:	e24dd008 	sub	sp, sp, #8
    8090:	eb0000b3 	bl	8364 <sys_10_asm>
    8094:	e1a04000 	mov	r4, r0
    8098:	e59f003c 	ldr	r0, [pc, #60]	; 80dc <notmain_client+0x54>
    809c:	e1a01004 	mov	r1, r4
    80a0:	eb0008fa 	bl	a490 <printk>
    80a4:	e354000a 	cmp	r4, #10
    80a8:	0a000008 	beq	80d0 <notmain_client+0x48>
    80ac:	eb000912 	bl	a4fc <rpi_reset_putc>
    80b0:	e59f3028 	ldr	r3, [pc, #40]	; 80e0 <notmain_client+0x58>
    80b4:	e58d3000 	str	r3, [sp]
    80b8:	e59f0024 	ldr	r0, [pc, #36]	; 80e4 <notmain_client+0x5c>
    80bc:	e59f1024 	ldr	r1, [pc, #36]	; 80e8 <notmain_client+0x60>
    80c0:	e59f2024 	ldr	r2, [pc, #36]	; 80ec <notmain_client+0x64>
    80c4:	e3a0300b 	mov	r3, #11
    80c8:	eb0008f0 	bl	a490 <printk>
    80cc:	eb000a7f 	bl	aad0 <clean_reboot>
    80d0:	e59f0018 	ldr	r0, [pc, #24]	; 80f0 <notmain_client+0x68>
    80d4:	e28dd008 	add	sp, sp, #8
    80d8:	e8bd8010 	pop	{r4, pc}
    80dc:	0000b328 	andeq	fp, r0, r8, lsr #6
    80e0:	0000b35c 	andeq	fp, r0, ip, asr r3
    80e4:	0000b338 	andeq	fp, r0, r8, lsr r3
    80e8:	0000b34c 	andeq	fp, r0, ip, asr #6
    80ec:	0000b3b0 			; <UNDEFINED> instruction: 0x0000b3b0
    80f0:	12345678 	eorsne	r5, r4, #120, 12	; 0x7800000

000080f4 <notmain>:
    80f4:	e52de004 	push	{lr}		; (str lr, [sp, #-4]!)
    80f8:	e24dd00c 	sub	sp, sp, #12
    80fc:	eb00009c 	bl	8374 <mmu_is_enabled>
    8100:	e3500000 	cmp	r0, #0
    8104:	0a000008 	beq	812c <notmain+0x38>
    8108:	eb0008fb 	bl	a4fc <rpi_reset_putc>
    810c:	e59f30fc 	ldr	r3, [pc, #252]	; 8210 <notmain+0x11c>
    8110:	e58d3000 	str	r3, [sp]
    8114:	e59f00f8 	ldr	r0, [pc, #248]	; 8214 <notmain+0x120>
    8118:	e59f10f8 	ldr	r1, [pc, #248]	; 8218 <notmain+0x124>
    811c:	e59f20f8 	ldr	r2, [pc, #248]	; 821c <notmain+0x128>
    8120:	e3a03011 	mov	r3, #17
    8124:	eb0008d9 	bl	a490 <printk>
    8128:	eb000a68 	bl	aad0 <clean_reboot>
    812c:	e10f0000 	mrs	r0, CPSR
    8130:	ebffffba 	bl	8020 <mode_get>
    8134:	e3500013 	cmp	r0, #19
    8138:	0a000008 	beq	8160 <notmain+0x6c>
    813c:	eb0008ee 	bl	a4fc <rpi_reset_putc>
    8140:	e59f30d8 	ldr	r3, [pc, #216]	; 8220 <notmain+0x12c>
    8144:	e58d3000 	str	r3, [sp]
    8148:	e59f00c4 	ldr	r0, [pc, #196]	; 8214 <notmain+0x120>
    814c:	e59f10c4 	ldr	r1, [pc, #196]	; 8218 <notmain+0x124>
    8150:	e59f20c4 	ldr	r2, [pc, #196]	; 821c <notmain+0x128>
    8154:	e3a03013 	mov	r3, #19
    8158:	eb0008cc 	bl	a490 <printk>
    815c:	eb000a5b 	bl	aad0 <clean_reboot>
    8160:	e59f00bc 	ldr	r0, [pc, #188]	; 8224 <notmain+0x130>
    8164:	eb000799 	bl	9fd0 <memcheck_fn>
    8168:	e59f30b8 	ldr	r3, [pc, #184]	; 8228 <notmain+0x134>
    816c:	e1500003 	cmp	r0, r3
    8170:	0a000008 	beq	8198 <notmain+0xa4>
    8174:	eb0008e0 	bl	a4fc <rpi_reset_putc>
    8178:	e59f30ac 	ldr	r3, [pc, #172]	; 822c <notmain+0x138>
    817c:	e58d3000 	str	r3, [sp]
    8180:	e59f008c 	ldr	r0, [pc, #140]	; 8214 <notmain+0x120>
    8184:	e59f108c 	ldr	r1, [pc, #140]	; 8218 <notmain+0x124>
    8188:	e59f208c 	ldr	r2, [pc, #140]	; 821c <notmain+0x128>
    818c:	e3a03015 	mov	r3, #21
    8190:	eb0008be 	bl	a490 <printk>
    8194:	eb000a4d 	bl	aad0 <clean_reboot>
    8198:	e10f0000 	mrs	r0, CPSR
    819c:	ebffff9f 	bl	8020 <mode_get>
    81a0:	e3500013 	cmp	r0, #19
    81a4:	0a000008 	beq	81cc <notmain+0xd8>
    81a8:	eb0008d3 	bl	a4fc <rpi_reset_putc>
    81ac:	e59f306c 	ldr	r3, [pc, #108]	; 8220 <notmain+0x12c>
    81b0:	e58d3000 	str	r3, [sp]
    81b4:	e59f0058 	ldr	r0, [pc, #88]	; 8214 <notmain+0x120>
    81b8:	e59f1058 	ldr	r1, [pc, #88]	; 8218 <notmain+0x124>
    81bc:	e59f2058 	ldr	r2, [pc, #88]	; 821c <notmain+0x128>
    81c0:	e3a03016 	mov	r3, #22
    81c4:	eb0008b1 	bl	a490 <printk>
    81c8:	eb000a40 	bl	aad0 <clean_reboot>
    81cc:	eb000068 	bl	8374 <mmu_is_enabled>
    81d0:	e3500000 	cmp	r0, #0
    81d4:	0a000008 	beq	81fc <notmain+0x108>
    81d8:	eb0008c7 	bl	a4fc <rpi_reset_putc>
    81dc:	e59f302c 	ldr	r3, [pc, #44]	; 8210 <notmain+0x11c>
    81e0:	e58d3000 	str	r3, [sp]
    81e4:	e59f0028 	ldr	r0, [pc, #40]	; 8214 <notmain+0x120>
    81e8:	e59f1028 	ldr	r1, [pc, #40]	; 8218 <notmain+0x124>
    81ec:	e59f2028 	ldr	r2, [pc, #40]	; 821c <notmain+0x128>
    81f0:	e3a03019 	mov	r3, #25
    81f4:	eb0008a5 	bl	a490 <printk>
    81f8:	eb000a34 	bl	aad0 <clean_reboot>
    81fc:	e59f002c 	ldr	r0, [pc, #44]	; 8230 <notmain+0x13c>
    8200:	eb0008a2 	bl	a490 <printk>
    8204:	e59f0028 	ldr	r0, [pc, #40]	; 8234 <notmain+0x140>
    8208:	eb0008a0 	bl	a490 <printk>
    820c:	eb000a2f 	bl	aad0 <clean_reboot>
    8210:	0000b368 	andeq	fp, r0, r8, ror #6
    8214:	0000b338 	andeq	fp, r0, r8, lsr r3
    8218:	0000b34c 	andeq	fp, r0, ip, asr #6
    821c:	0000b3c0 	andeq	fp, r0, r0, asr #7
    8220:	0000b37c 	andeq	fp, r0, ip, ror r3
    8224:	00008088 	andeq	r8, r0, r8, lsl #1
    8228:	12345678 	eorsne	r5, r4, #120, 12	; 0x7800000
    822c:	0000b38c 	andeq	fp, r0, ip, lsl #7
    8230:	0000b39c 	muleq	r0, ip, r3
    8234:	0000b3a4 	andeq	fp, r0, r4, lsr #7

00008238 <_interrupt_table>:
    8238:	e59ff020 	ldr	pc, [pc, #32]	; 8260 <_reset_asm>
    823c:	e59ff020 	ldr	pc, [pc, #32]	; 8264 <_undefined_instruction_asm>
    8240:	e59ff020 	ldr	pc, [pc, #32]	; 8268 <_software_interrupt_asm>
    8244:	e59ff020 	ldr	pc, [pc, #32]	; 826c <_prefetch_abort_asm>
    8248:	e59ff020 	ldr	pc, [pc, #32]	; 8270 <_data_abort_asm>
    824c:	e59ff00c 	ldr	pc, [pc, #12]	; 8260 <_reset_asm>
    8250:	e59ff01c 	ldr	pc, [pc, #28]	; 8274 <_interrupt_asm>

00008254 <fast_interrupt_asm>:
    8254:	e3a0d409 	mov	sp, #150994944	; 0x9000000
    8258:	e24ee004 	sub	lr, lr, #4
    825c:	eb000a34 	bl	ab34 <fast_interrupt_vector>

00008260 <_reset_asm>:
    8260:	00008290 	muleq	r0, r0, r2

00008264 <_undefined_instruction_asm>:
    8264:	000082d4 	ldrdeq	r8, [r0], -r4

00008268 <_software_interrupt_asm>:
    8268:	000082e0 	andeq	r8, r0, r0, ror #5

0000826c <_prefetch_abort_asm>:
    826c:	000082b8 			; <UNDEFINED> instruction: 0x000082b8

00008270 <_data_abort_asm>:
    8270:	0000829c 	muleq	r0, ip, r2

00008274 <_interrupt_asm>:
    8274:	00008278 	andeq	r8, r0, r8, ror r2

00008278 <_interrupt_table_end>:
    8278:	e3a0d409 	mov	sp, #150994944	; 0x9000000
    827c:	e24ee004 	sub	lr, lr, #4
    8280:	e92d5fff 	push	{r0, r1, r2, r3, r4, r5, r6, r7, r8, r9, sl, fp, ip, lr}
    8284:	e1a0000e 	mov	r0, lr
    8288:	e8bd5fff 	pop	{r0, r1, r2, r3, r4, r5, r6, r7, r8, r9, sl, fp, ip, lr}
    828c:	e1b0f00e 	movs	pc, lr

00008290 <reset_asm>:
    8290:	e3a0d409 	mov	sp, #150994944	; 0x9000000
    8294:	e24ee004 	sub	lr, lr, #4
    8298:	eb000a47 	bl	abbc <reset_vector>

0000829c <data_abort_asm>:
    829c:	e24ee008 	sub	lr, lr, #8
    82a0:	e3a0d409 	mov	sp, #150994944	; 0x9000000
    82a4:	e92d5fff 	push	{r0, r1, r2, r3, r4, r5, r6, r7, r8, r9, sl, fp, ip, lr}
    82a8:	e1a0000e 	mov	r0, lr
    82ac:	eb00054a 	bl	97dc <data_abort_vector>
    82b0:	e8bd5fff 	pop	{r0, r1, r2, r3, r4, r5, r6, r7, r8, r9, sl, fp, ip, lr}
    82b4:	e1b0f00e 	movs	pc, lr

000082b8 <prefetch_abort_asm>:
    82b8:	e24ee004 	sub	lr, lr, #4
    82bc:	e3a0d409 	mov	sp, #150994944	; 0x9000000
    82c0:	e92d5fff 	push	{r0, r1, r2, r3, r4, r5, r6, r7, r8, r9, sl, fp, ip, lr}
    82c4:	e1a0000e 	mov	r0, lr
    82c8:	eb000a2a 	bl	ab78 <prefetch_abort_vector>
    82cc:	e8bd5fff 	pop	{r0, r1, r2, r3, r4, r5, r6, r7, r8, r9, sl, fp, ip, lr}
    82d0:	e1b0f00e 	movs	pc, lr

000082d4 <undefined_instruction_asm>:
    82d4:	e3a0d409 	mov	sp, #150994944	; 0x9000000
    82d8:	e24ee004 	sub	lr, lr, #4
    82dc:	eb000a47 	bl	ac00 <undefined_instruction_vector>

000082e0 <software_interrupt_asm>:
    82e0:	e92d5ff0 	push	{r4, r5, r6, r7, r8, r9, sl, fp, ip, lr}
    82e4:	e24ee004 	sub	lr, lr, #4
    82e8:	e1a01000 	mov	r1, r0
    82ec:	e1a0000e 	mov	r0, lr
    82f0:	e8bd5ff0 	pop	{r4, r5, r6, r7, r8, r9, sl, fp, ip, lr}
    82f4:	e1b0f00e 	movs	pc, lr

000082f8 <user_trampoline_ret>:
    82f8:	e92d5ff0 	push	{r4, r5, r6, r7, r8, r9, sl, fp, ip, lr}
    82fc:	e10f4000 	mrs	r4, CPSR
    8300:	e129f000 	msr	CPSR_fc, r0
    8304:	ee070f95 	mcr	15, 0, r0, cr7, cr5, {4}
    8308:	e3a0d407 	mov	sp, #117440512	; 0x7000000
    830c:	e1a00002 	mov	r0, r2
    8310:	e12fff31 	blx	r1
    8314:	e1a00004 	mov	r0, r4
    8318:	ef000001 	svc	0x00000001
    831c:	e8bd5ff0 	pop	{r4, r5, r6, r7, r8, r9, sl, fp, ip, lr}
    8320:	e12fff1e 	bx	lr

00008324 <sys_try_lock_asm>:
    8324:	e92d5ff0 	push	{r4, r5, r6, r7, r8, r9, sl, fp, ip, lr}
    8328:	ef000002 	svc	0x00000002
    832c:	e8bd5ff0 	pop	{r4, r5, r6, r7, r8, r9, sl, fp, ip, lr}
    8330:	e12fff1e 	bx	lr

00008334 <sys_foo_asm>:
    8334:	e92d5ff0 	push	{r4, r5, r6, r7, r8, r9, sl, fp, ip, lr}
    8338:	ef000003 	svc	0x00000003
    833c:	e8bd5ff0 	pop	{r4, r5, r6, r7, r8, r9, sl, fp, ip, lr}
    8340:	e12fff1e 	bx	lr

00008344 <run_fn_helper>:
    8344:	e92d5ff0 	push	{r4, r5, r6, r7, r8, r9, sl, fp, ip, lr}
    8348:	e10f4000 	mrs	r4, CPSR
    834c:	e329f010 	msr	CPSR_fc, #16
    8350:	ee070f95 	mcr	15, 0, r0, cr7, cr5, {4}
    8354:	e1a0d001 	mov	sp, r1
    8358:	e12fff30 	blx	r0
    835c:	e8bd5ff0 	pop	{r4, r5, r6, r7, r8, r9, sl, fp, ip, lr}
    8360:	e12fff1e 	bx	lr

00008364 <sys_10_asm>:
    8364:	e92d5ff0 	push	{r4, r5, r6, r7, r8, r9, sl, fp, ip, lr}
    8368:	ef00000a 	svc	0x0000000a
    836c:	e8bd5ff0 	pop	{r4, r5, r6, r7, r8, r9, sl, fp, ip, lr}
    8370:	e12fff1e 	bx	lr

00008374 <mmu_is_enabled>:
    8374:	e92d4008 	push	{r3, lr}
    8378:	eb000730 	bl	a040 <cp15_ctrl_reg1_rd>
    837c:	e2000001 	and	r0, r0, #1
    8380:	e8bd8008 	pop	{r3, pc}

00008384 <mmu_lookup_section>:
    8384:	e52de004 	push	{lr}		; (str lr, [sp, #-4]!)
    8388:	e24dd00c 	sub	sp, sp, #12
    838c:	e3110013 	tst	r1, #19
    8390:	0a000008 	beq	83b8 <mmu_lookup_section+0x34>
    8394:	eb000858 	bl	a4fc <rpi_reset_putc>
    8398:	e59f305c 	ldr	r3, [pc, #92]	; 83fc <mmu_lookup_section+0x78>
    839c:	e58d3000 	str	r3, [sp]
    83a0:	e59f0058 	ldr	r0, [pc, #88]	; 8400 <mmu_lookup_section+0x7c>
    83a4:	e59f1058 	ldr	r1, [pc, #88]	; 8404 <mmu_lookup_section+0x80>
    83a8:	e59f2058 	ldr	r2, [pc, #88]	; 8408 <mmu_lookup_section+0x84>
    83ac:	e3a03010 	mov	r3, #16
    83b0:	eb000836 	bl	a490 <printk>
    83b4:	eb0009c5 	bl	aad0 <clean_reboot>
    83b8:	e1a01a21 	lsr	r1, r1, #20
    83bc:	e0803101 	add	r3, r0, r1, lsl #2
    83c0:	e7d02101 	ldrb	r2, [r0, r1, lsl #2]
    83c4:	e3120003 	tst	r2, #3
    83c8:	1a000008 	bne	83f0 <mmu_lookup_section+0x6c>
    83cc:	eb00084a 	bl	a4fc <rpi_reset_putc>
    83d0:	e59f3034 	ldr	r3, [pc, #52]	; 840c <mmu_lookup_section+0x88>
    83d4:	e58d3000 	str	r3, [sp]
    83d8:	e59f0030 	ldr	r0, [pc, #48]	; 8410 <mmu_lookup_section+0x8c>
    83dc:	e59f1020 	ldr	r1, [pc, #32]	; 8404 <mmu_lookup_section+0x80>
    83e0:	e59f2020 	ldr	r2, [pc, #32]	; 8408 <mmu_lookup_section+0x84>
    83e4:	e3a03013 	mov	r3, #19
    83e8:	eb000828 	bl	a490 <printk>
    83ec:	eb0009b7 	bl	aad0 <clean_reboot>
    83f0:	e1a00003 	mov	r0, r3
    83f4:	e28dd00c 	add	sp, sp, #12
    83f8:	e49df004 	pop	{pc}		; (ldr pc, [sp], #4)
    83fc:	0000b4e8 	andeq	fp, r0, r8, ror #9
    8400:	0000b338 	andeq	fp, r0, r8, lsr r3
    8404:	0000b4e0 	andeq	fp, r0, r0, ror #9
    8408:	0000b3f0 	strdeq	fp, [r0], -r0
    840c:	0000b52c 	andeq	fp, r0, ip, lsr #10
    8410:	0000b4fc 	strdeq	fp, [r0], -ip

00008414 <mmu_mark_sec_ap_perm>:
    8414:	e92d41f0 	push	{r4, r5, r6, r7, r8, lr}
    8418:	e24dd008 	sub	sp, sp, #8
    841c:	e1a08000 	mov	r8, r0
    8420:	e1a05002 	mov	r5, r2
    8424:	e1a01aa1 	lsr	r1, r1, #21
    8428:	e1a07a81 	lsl	r7, r1, #21
    842c:	e3530003 	cmp	r3, #3
    8430:	9a000011 	bls	847c <mmu_mark_sec_ap_perm+0x68>
    8434:	eb000830 	bl	a4fc <rpi_reset_putc>
    8438:	e59f305c 	ldr	r3, [pc, #92]	; 849c <mmu_mark_sec_ap_perm+0x88>
    843c:	e58d3000 	str	r3, [sp]
    8440:	e59f0058 	ldr	r0, [pc, #88]	; 84a0 <mmu_mark_sec_ap_perm+0x8c>
    8444:	e59f1058 	ldr	r1, [pc, #88]	; 84a4 <mmu_mark_sec_ap_perm+0x90>
    8448:	e59f2058 	ldr	r2, [pc, #88]	; 84a8 <mmu_mark_sec_ap_perm+0x94>
    844c:	e3a0301a 	mov	r3, #26
    8450:	eb00080e 	bl	a490 <printk>
    8454:	eb00099d 	bl	aad0 <clean_reboot>
    8458:	e1a00008 	mov	r0, r8
    845c:	e1a01007 	mov	r1, r7
    8460:	ebffffc7 	bl	8384 <mmu_lookup_section>
    8464:	e5d03001 	ldrb	r3, [r0, #1]
    8468:	e3c3300c 	bic	r3, r3, #12
    846c:	e1863003 	orr	r3, r6, r3
    8470:	e5c03001 	strb	r3, [r0, #1]
    8474:	e2844001 	add	r4, r4, #1
    8478:	ea000002 	b	8488 <mmu_mark_sec_ap_perm+0x74>
    847c:	e3a04000 	mov	r4, #0
    8480:	e2036003 	and	r6, r3, #3
    8484:	e1a06106 	lsl	r6, r6, #2
    8488:	e1540005 	cmp	r4, r5
    848c:	3afffff1 	bcc	8458 <mmu_mark_sec_ap_perm+0x44>
    8490:	eb000766 	bl	a230 <our_mmu_sync_pte_mods>
    8494:	e28dd008 	add	sp, sp, #8
    8498:	e8bd81f0 	pop	{r4, r5, r6, r7, r8, pc}
    849c:	0000b56c 	andeq	fp, r0, ip, ror #10
    84a0:	0000b538 	andeq	fp, r0, r8, lsr r5
    84a4:	0000b4e0 	andeq	fp, r0, r0, ror #9
    84a8:	0000b404 	andeq	fp, r0, r4, lsl #8

000084ac <mmu_mark_sec_readonly>:
    84ac:	e92d4008 	push	{r3, lr}
    84b0:	e3a03002 	mov	r3, #2
    84b4:	ebffffd6 	bl	8414 <mmu_mark_sec_ap_perm>
    84b8:	e8bd8008 	pop	{r3, pc}

000084bc <mmu_mark_sec_rw>:
    84bc:	e92d4008 	push	{r3, lr}
    84c0:	e3a03003 	mov	r3, #3
    84c4:	ebffffd2 	bl	8414 <mmu_mark_sec_ap_perm>
    84c8:	e8bd8008 	pop	{r3, pc}

000084cc <mmu_mark_sec_no_access>:
    84cc:	e92d4008 	push	{r3, lr}
    84d0:	e3a03000 	mov	r3, #0
    84d4:	ebffffce 	bl	8414 <mmu_mark_sec_ap_perm>
    84d8:	e8bd8008 	pop	{r3, pc}

000084dc <fld_set_base_addr>:
    84dc:	e52de004 	push	{lr}		; (str lr, [sp, #-4]!)
    84e0:	e24dd00c 	sub	sp, sp, #12
    84e4:	e3110013 	tst	r1, #19
    84e8:	0a000008 	beq	8510 <fld_set_base_addr+0x34>
    84ec:	eb000802 	bl	a4fc <rpi_reset_putc>
    84f0:	e59f3064 	ldr	r3, [pc, #100]	; 855c <fld_set_base_addr+0x80>
    84f4:	e58d3000 	str	r3, [sp]
    84f8:	e59f0060 	ldr	r0, [pc, #96]	; 8560 <fld_set_base_addr+0x84>
    84fc:	e59f1060 	ldr	r1, [pc, #96]	; 8564 <fld_set_base_addr+0x88>
    8500:	e59f2060 	ldr	r2, [pc, #96]	; 8568 <fld_set_base_addr+0x8c>
    8504:	e3a03032 	mov	r3, #50	; 0x32
    8508:	eb0007e0 	bl	a490 <printk>
    850c:	eb00096f 	bl	aad0 <clean_reboot>
    8510:	e1a02a21 	lsr	r2, r1, #20
    8514:	e1d030b2 	ldrh	r3, [r0, #2]
    8518:	e3c33cff 	bic	r3, r3, #65280	; 0xff00
    851c:	e3c330f0 	bic	r3, r3, #240	; 0xf0
    8520:	e1833202 	orr	r3, r3, r2, lsl #4
    8524:	e1c030b2 	strh	r3, [r0, #2]
    8528:	e1510a02 	cmp	r1, r2, lsl #20
    852c:	0a000008 	beq	8554 <fld_set_base_addr+0x78>
    8530:	eb0007f1 	bl	a4fc <rpi_reset_putc>
    8534:	e59f3030 	ldr	r3, [pc, #48]	; 856c <fld_set_base_addr+0x90>
    8538:	e58d3000 	str	r3, [sp]
    853c:	e59f002c 	ldr	r0, [pc, #44]	; 8570 <fld_set_base_addr+0x94>
    8540:	e59f101c 	ldr	r1, [pc, #28]	; 8564 <fld_set_base_addr+0x88>
    8544:	e59f201c 	ldr	r2, [pc, #28]	; 8568 <fld_set_base_addr+0x8c>
    8548:	e3a03037 	mov	r3, #55	; 0x37
    854c:	eb0007cf 	bl	a490 <printk>
    8550:	eb00095e 	bl	aad0 <clean_reboot>
    8554:	e28dd00c 	add	sp, sp, #12
    8558:	e49df004 	pop	{pc}		; (ldr pc, [sp], #4)
    855c:	0000b5b0 			; <UNDEFINED> instruction: 0x0000b5b0
    8560:	0000b57c 	andeq	fp, r0, ip, ror r5
    8564:	0000b4e0 	andeq	fp, r0, r0, ror #9
    8568:	0000b42c 	andeq	fp, r0, ip, lsr #8
    856c:	0000b5dc 	ldrdeq	fp, [r0], -ip
    8570:	0000b338 	andeq	fp, r0, r8, lsr r3

00008574 <mmu_map_section>:
    8574:	e92d43f0 	push	{r4, r5, r6, r7, r8, r9, lr}
    8578:	e24dd00c 	sub	sp, sp, #12
    857c:	e1a04000 	mov	r4, r0
    8580:	e1a09002 	mov	r9, r2
    8584:	e1a08003 	mov	r8, r3
    8588:	e353000f 	cmp	r3, #15
    858c:	9a000008 	bls	85b4 <mmu_map_section+0x40>
    8590:	eb0007d9 	bl	a4fc <rpi_reset_putc>
    8594:	e59f3140 	ldr	r3, [pc, #320]	; 86dc <mmu_map_section+0x168>
    8598:	e58d3000 	str	r3, [sp]
    859c:	e59f013c 	ldr	r0, [pc, #316]	; 86e0 <mmu_map_section+0x16c>
    85a0:	e59f113c 	ldr	r1, [pc, #316]	; 86e4 <mmu_map_section+0x170>
    85a4:	e59f213c 	ldr	r2, [pc, #316]	; 86e8 <mmu_map_section+0x174>
    85a8:	e3a03042 	mov	r3, #66	; 0x42
    85ac:	eb0007b7 	bl	a490 <printk>
    85b0:	eb000946 	bl	aad0 <clean_reboot>
    85b4:	e3110013 	tst	r1, #19
    85b8:	0a000008 	beq	85e0 <mmu_map_section+0x6c>
    85bc:	eb0007ce 	bl	a4fc <rpi_reset_putc>
    85c0:	e59f3124 	ldr	r3, [pc, #292]	; 86ec <mmu_map_section+0x178>
    85c4:	e58d3000 	str	r3, [sp]
    85c8:	e59f0110 	ldr	r0, [pc, #272]	; 86e0 <mmu_map_section+0x16c>
    85cc:	e59f1110 	ldr	r1, [pc, #272]	; 86e4 <mmu_map_section+0x170>
    85d0:	e59f2110 	ldr	r2, [pc, #272]	; 86e8 <mmu_map_section+0x174>
    85d4:	e3a03043 	mov	r3, #67	; 0x43
    85d8:	eb0007ac 	bl	a490 <printk>
    85dc:	eb00093b 	bl	aad0 <clean_reboot>
    85e0:	e3120013 	tst	r2, #19
    85e4:	0a000008 	beq	860c <mmu_map_section+0x98>
    85e8:	eb0007c3 	bl	a4fc <rpi_reset_putc>
    85ec:	e59f30fc 	ldr	r3, [pc, #252]	; 86f0 <mmu_map_section+0x17c>
    85f0:	e58d3000 	str	r3, [sp]
    85f4:	e59f00e4 	ldr	r0, [pc, #228]	; 86e0 <mmu_map_section+0x16c>
    85f8:	e59f10e4 	ldr	r1, [pc, #228]	; 86e4 <mmu_map_section+0x170>
    85fc:	e59f20e4 	ldr	r2, [pc, #228]	; 86e8 <mmu_map_section+0x174>
    8600:	e3a03044 	mov	r3, #68	; 0x44
    8604:	eb0007a1 	bl	a490 <printk>
    8608:	eb000930 	bl	aad0 <clean_reboot>
    860c:	e1a06a21 	lsr	r6, r1, #20
    8610:	e1a07106 	lsl	r7, r6, #2
    8614:	e0805007 	add	r5, r0, r7
    8618:	e7d03106 	ldrb	r3, [r0, r6, lsl #2]
    861c:	e3130003 	tst	r3, #3
    8620:	0a000008 	beq	8648 <mmu_map_section+0xd4>
    8624:	eb0007b4 	bl	a4fc <rpi_reset_putc>
    8628:	e59f30c4 	ldr	r3, [pc, #196]	; 86f4 <mmu_map_section+0x180>
    862c:	e58d3000 	str	r3, [sp]
    8630:	e59f00c0 	ldr	r0, [pc, #192]	; 86f8 <mmu_map_section+0x184>
    8634:	e59f10a8 	ldr	r1, [pc, #168]	; 86e4 <mmu_map_section+0x170>
    8638:	e59f20a8 	ldr	r2, [pc, #168]	; 86e8 <mmu_map_section+0x174>
    863c:	e3a03048 	mov	r3, #72	; 0x48
    8640:	eb000792 	bl	a490 <printk>
    8644:	eb000921 	bl	aad0 <clean_reboot>
    8648:	eb00031d 	bl	92c4 <fld_mk>
    864c:	e7840106 	str	r0, [r4, r6, lsl #2]
    8650:	e5d53002 	ldrb	r3, [r5, #2]
    8654:	e3c33002 	bic	r3, r3, #2
    8658:	e5c53002 	strb	r3, [r5, #2]
    865c:	e5d53001 	ldrb	r3, [r5, #1]
    8660:	e203300f 	and	r3, r3, #15
    8664:	e383300c 	orr	r3, r3, #12
    8668:	e5c53001 	strb	r3, [r5, #1]
    866c:	e19430b7 	ldrh	r3, [r4, r7]
    8670:	e208800f 	and	r8, r8, #15
    8674:	e3c33e1e 	bic	r3, r3, #480	; 0x1e0
    8678:	e1838288 	orr	r8, r3, r8, lsl #5
    867c:	e18480b7 	strh	r8, [r4, r7]
    8680:	e7d43106 	ldrb	r3, [r4, r6, lsl #2]
    8684:	e3c33010 	bic	r3, r3, #16
    8688:	e7c43106 	strb	r3, [r4, r6, lsl #2]
    868c:	e1a00005 	mov	r0, r5
    8690:	e1a01009 	mov	r1, r9
    8694:	ebffff90 	bl	84dc <fld_set_base_addr>
    8698:	e59f305c 	ldr	r3, [pc, #92]	; 86fc <mmu_map_section+0x188>
    869c:	e5933000 	ldr	r3, [r3]
    86a0:	e3530000 	cmp	r3, #0
    86a4:	0a000009 	beq	86d0 <mmu_map_section+0x15c>
    86a8:	e1a00005 	mov	r0, r5
    86ac:	eb000333 	bl	9380 <fld_print>
    86b0:	e59f0048 	ldr	r0, [pc, #72]	; 8700 <mmu_map_section+0x18c>
    86b4:	e1a01004 	mov	r1, r4
    86b8:	e7942106 	ldr	r2, [r4, r6, lsl #2]
    86bc:	eb000773 	bl	a490 <printk>
    86c0:	e59f003c 	ldr	r0, [pc, #60]	; 8704 <mmu_map_section+0x190>
    86c4:	e1a01005 	mov	r1, r5
    86c8:	e3a02004 	mov	r2, #4
    86cc:	eb00015f 	bl	8c50 <hash_print>
    86d0:	e1a00005 	mov	r0, r5
    86d4:	e28dd00c 	add	sp, sp, #12
    86d8:	e8bd83f0 	pop	{r4, r5, r6, r7, r8, r9, pc}
    86dc:	0000b600 	andeq	fp, r0, r0, lsl #12
    86e0:	0000b338 	andeq	fp, r0, r8, lsr r3
    86e4:	0000b4e0 	andeq	fp, r0, r0, ror #9
    86e8:	0000b41c 	andeq	fp, r0, ip, lsl r4
    86ec:	0000b4e8 	andeq	fp, r0, r8, ror #9
    86f0:	0000b60c 	andeq	fp, r0, ip, lsl #12
    86f4:	0000b64c 	andeq	fp, r0, ip, asr #12
    86f8:	0000b620 	andeq	fp, r0, r0, lsr #12
    86fc:	0000c60c 	andeq	ip, r0, ip, lsl #12
    8700:	0000b658 	andeq	fp, r0, r8, asr r6
    8704:	0000b66c 	andeq	fp, r0, ip, ror #12

00008708 <mmu_map_sections>:
    8708:	e92d43f0 	push	{r4, r5, r6, r7, r8, r9, lr}
    870c:	e24dd00c 	sub	sp, sp, #12
    8710:	e1a09000 	mov	r9, r0
    8714:	e1a05001 	mov	r5, r1
    8718:	e1a06002 	mov	r6, r2
    871c:	e1a07003 	mov	r7, r3
    8720:	e59d8028 	ldr	r8, [sp, #40]	; 0x28
    8724:	e358000f 	cmp	r8, #15
    8728:	9a000008 	bls	8750 <mmu_map_sections+0x48>
    872c:	eb000772 	bl	a4fc <rpi_reset_putc>
    8730:	e59f30a8 	ldr	r3, [pc, #168]	; 87e0 <mmu_map_sections+0xd8>
    8734:	e58d3000 	str	r3, [sp]
    8738:	e59f00a4 	ldr	r0, [pc, #164]	; 87e4 <mmu_map_sections+0xdc>
    873c:	e59f10a4 	ldr	r1, [pc, #164]	; 87e8 <mmu_map_sections+0xe0>
    8740:	e59f20a4 	ldr	r2, [pc, #164]	; 87ec <mmu_map_sections+0xe4>
    8744:	e3a03060 	mov	r3, #96	; 0x60
    8748:	eb000750 	bl	a490 <printk>
    874c:	eb0008df 	bl	aad0 <clean_reboot>
    8750:	e3110013 	tst	r1, #19
    8754:	0a000008 	beq	877c <mmu_map_sections+0x74>
    8758:	eb000767 	bl	a4fc <rpi_reset_putc>
    875c:	e59f308c 	ldr	r3, [pc, #140]	; 87f0 <mmu_map_sections+0xe8>
    8760:	e58d3000 	str	r3, [sp]
    8764:	e59f0078 	ldr	r0, [pc, #120]	; 87e4 <mmu_map_sections+0xdc>
    8768:	e59f1078 	ldr	r1, [pc, #120]	; 87e8 <mmu_map_sections+0xe0>
    876c:	e59f2078 	ldr	r2, [pc, #120]	; 87ec <mmu_map_sections+0xe4>
    8770:	e3a03061 	mov	r3, #97	; 0x61
    8774:	eb000745 	bl	a490 <printk>
    8778:	eb0008d4 	bl	aad0 <clean_reboot>
    877c:	e3120013 	tst	r2, #19
    8780:	0a000011 	beq	87cc <mmu_map_sections+0xc4>
    8784:	eb00075c 	bl	a4fc <rpi_reset_putc>
    8788:	e59f3064 	ldr	r3, [pc, #100]	; 87f4 <mmu_map_sections+0xec>
    878c:	e58d3000 	str	r3, [sp]
    8790:	e59f004c 	ldr	r0, [pc, #76]	; 87e4 <mmu_map_sections+0xdc>
    8794:	e59f104c 	ldr	r1, [pc, #76]	; 87e8 <mmu_map_sections+0xe0>
    8798:	e59f204c 	ldr	r2, [pc, #76]	; 87ec <mmu_map_sections+0xe4>
    879c:	e3a03062 	mov	r3, #98	; 0x62
    87a0:	eb00073a 	bl	a490 <printk>
    87a4:	eb0008c9 	bl	aad0 <clean_reboot>
    87a8:	e1a00009 	mov	r0, r9
    87ac:	e1a01005 	mov	r1, r5
    87b0:	e1a02006 	mov	r2, r6
    87b4:	e1a03008 	mov	r3, r8
    87b8:	ebffff6d 	bl	8574 <mmu_map_section>
    87bc:	e2855601 	add	r5, r5, #1048576	; 0x100000
    87c0:	e2866601 	add	r6, r6, #1048576	; 0x100000
    87c4:	e2844001 	add	r4, r4, #1
    87c8:	ea000000 	b	87d0 <mmu_map_sections+0xc8>
    87cc:	e3a04000 	mov	r4, #0
    87d0:	e1540007 	cmp	r4, r7
    87d4:	3afffff3 	bcc	87a8 <mmu_map_sections+0xa0>
    87d8:	e28dd00c 	add	sp, sp, #12
    87dc:	e8bd83f0 	pop	{r4, r5, r6, r7, r8, r9, pc}
    87e0:	0000b600 	andeq	fp, r0, r0, lsl #12
    87e4:	0000b338 	andeq	fp, r0, r8, lsr r3
    87e8:	0000b4e0 	andeq	fp, r0, r0, ror #9
    87ec:	0000b440 	andeq	fp, r0, r0, asr #8
    87f0:	0000b4e8 	andeq	fp, r0, r8, ror #9
    87f4:	0000b60c 	andeq	fp, r0, ip, lsl #12

000087f8 <mmu_pt_alloc_at>:
    87f8:	e92d4010 	push	{r4, lr}
    87fc:	e24dd008 	sub	sp, sp, #8
    8800:	e1a04000 	mov	r4, r0
    8804:	e310000d 	tst	r0, #13
    8808:	0a000008 	beq	8830 <mmu_pt_alloc_at+0x38>
    880c:	eb00073a 	bl	a4fc <rpi_reset_putc>
    8810:	e59f305c 	ldr	r3, [pc, #92]	; 8874 <mmu_pt_alloc_at+0x7c>
    8814:	e58d3000 	str	r3, [sp]
    8818:	e59f0058 	ldr	r0, [pc, #88]	; 8878 <mmu_pt_alloc_at+0x80>
    881c:	e59f1058 	ldr	r1, [pc, #88]	; 887c <mmu_pt_alloc_at+0x84>
    8820:	e59f2058 	ldr	r2, [pc, #88]	; 8880 <mmu_pt_alloc_at+0x88>
    8824:	e3a0306b 	mov	r3, #107	; 0x6b
    8828:	eb000718 	bl	a490 <printk>
    882c:	eb0008a7 	bl	aad0 <clean_reboot>
    8830:	e3510901 	cmp	r1, #16384	; 0x4000
    8834:	0a000008 	beq	885c <mmu_pt_alloc_at+0x64>
    8838:	eb00072f 	bl	a4fc <rpi_reset_putc>
    883c:	e59f3040 	ldr	r3, [pc, #64]	; 8884 <mmu_pt_alloc_at+0x8c>
    8840:	e58d3000 	str	r3, [sp]
    8844:	e59f003c 	ldr	r0, [pc, #60]	; 8888 <mmu_pt_alloc_at+0x90>
    8848:	e59f102c 	ldr	r1, [pc, #44]	; 887c <mmu_pt_alloc_at+0x84>
    884c:	e59f202c 	ldr	r2, [pc, #44]	; 8880 <mmu_pt_alloc_at+0x88>
    8850:	e3a0306f 	mov	r3, #111	; 0x6f
    8854:	eb00070d 	bl	a490 <printk>
    8858:	eb00089c 	bl	aad0 <clean_reboot>
    885c:	e3a01000 	mov	r1, #0
    8860:	e3a02901 	mov	r2, #16384	; 0x4000
    8864:	eb000701 	bl	a470 <memset>
    8868:	e1a00004 	mov	r0, r4
    886c:	e28dd008 	add	sp, sp, #8
    8870:	e8bd8010 	pop	{r4, pc}
    8874:	0000b6b0 			; <UNDEFINED> instruction: 0x0000b6b0
    8878:	0000b678 	andeq	fp, r0, r8, ror r6
    887c:	0000b4e0 	andeq	fp, r0, r0, ror #9
    8880:	0000b454 	andeq	fp, r0, r4, asr r4
    8884:	0000b72c 	andeq	fp, r0, ip, lsr #14
    8888:	0000b6f0 	strdeq	fp, [r0], -r0

0000888c <mmu_pt_alloc>:
    888c:	e52de004 	push	{lr}		; (str lr, [sp, #-4]!)
    8890:	e24dd00c 	sub	sp, sp, #12
    8894:	e3500a01 	cmp	r0, #4096	; 0x1000
    8898:	0a000008 	beq	88c0 <mmu_pt_alloc+0x34>
    889c:	eb000716 	bl	a4fc <rpi_reset_putc>
    88a0:	e59f305c 	ldr	r3, [pc, #92]	; 8904 <mmu_pt_alloc+0x78>
    88a4:	e58d3000 	str	r3, [sp]
    88a8:	e59f0058 	ldr	r0, [pc, #88]	; 8908 <mmu_pt_alloc+0x7c>
    88ac:	e59f1058 	ldr	r1, [pc, #88]	; 890c <mmu_pt_alloc+0x80>
    88b0:	e59f2058 	ldr	r2, [pc, #88]	; 8910 <mmu_pt_alloc+0x84>
    88b4:	e3a03076 	mov	r3, #118	; 0x76
    88b8:	eb0006f4 	bl	a490 <printk>
    88bc:	eb000883 	bl	aad0 <clean_reboot>
    88c0:	e3a01901 	mov	r1, #16384	; 0x4000
    88c4:	eb000a3e 	bl	b1c4 <kmalloc_aligned>
    88c8:	e310000d 	tst	r0, #13
    88cc:	0a000008 	beq	88f4 <mmu_pt_alloc+0x68>
    88d0:	eb000709 	bl	a4fc <rpi_reset_putc>
    88d4:	e59f3038 	ldr	r3, [pc, #56]	; 8914 <mmu_pt_alloc+0x88>
    88d8:	e58d3000 	str	r3, [sp]
    88dc:	e59f0034 	ldr	r0, [pc, #52]	; 8918 <mmu_pt_alloc+0x8c>
    88e0:	e59f1024 	ldr	r1, [pc, #36]	; 890c <mmu_pt_alloc+0x80>
    88e4:	e59f2024 	ldr	r2, [pc, #36]	; 8910 <mmu_pt_alloc+0x84>
    88e8:	e3a0307b 	mov	r3, #123	; 0x7b
    88ec:	eb0006e7 	bl	a490 <printk>
    88f0:	eb000876 	bl	aad0 <clean_reboot>
    88f4:	e3a01901 	mov	r1, #16384	; 0x4000
    88f8:	ebffffbe 	bl	87f8 <mmu_pt_alloc_at>
    88fc:	e28dd00c 	add	sp, sp, #12
    8900:	e49df004 	pop	{pc}		; (ldr pc, [sp], #4)
    8904:	0000b790 	muleq	r0, r0, r7
    8908:	0000b738 	andeq	fp, r0, r8, lsr r7
    890c:	0000b4e0 	andeq	fp, r0, r0, ror #9
    8910:	0000b464 	andeq	fp, r0, r4, ror #8
    8914:	0000b79c 	muleq	r0, ip, r7
    8918:	0000b678 	andeq	fp, r0, r8, ror r6

0000891c <mmu_init>:
    891c:	e52de004 	push	{lr}		; (str lr, [sp, #-4]!)
    8920:	e24dd00c 	sub	sp, sp, #12
    8924:	eb000653 	bl	a278 <our_mmu_reset>
    8928:	eb0005c4 	bl	a040 <cp15_ctrl_reg1_rd>
    892c:	e3800502 	orr	r0, r0, #8388608	; 0x800000
    8930:	eb000637 	bl	a214 <cp15_ctrl_reg1_wr>
    8934:	eb0005c1 	bl	a040 <cp15_ctrl_reg1_rd>
    8938:	e3100502 	tst	r0, #8388608	; 0x800000
    893c:	1a000008 	bne	8964 <mmu_init+0x48>
    8940:	eb0006ed 	bl	a4fc <rpi_reset_putc>
    8944:	e59f304c 	ldr	r3, [pc, #76]	; 8998 <mmu_init+0x7c>
    8948:	e58d3000 	str	r3, [sp]
    894c:	e59f0048 	ldr	r0, [pc, #72]	; 899c <mmu_init+0x80>
    8950:	e59f1048 	ldr	r1, [pc, #72]	; 89a0 <mmu_init+0x84>
    8954:	e59f2048 	ldr	r2, [pc, #72]	; 89a4 <mmu_init+0x88>
    8958:	e3a0308e 	mov	r3, #142	; 0x8e
    895c:	eb0006cb 	bl	a490 <printk>
    8960:	eb00085a 	bl	aad0 <clean_reboot>
    8964:	e3100001 	tst	r0, #1
    8968:	0a000008 	beq	8990 <mmu_init+0x74>
    896c:	eb0006e2 	bl	a4fc <rpi_reset_putc>
    8970:	e59f3030 	ldr	r3, [pc, #48]	; 89a8 <mmu_init+0x8c>
    8974:	e58d3000 	str	r3, [sp]
    8978:	e59f001c 	ldr	r0, [pc, #28]	; 899c <mmu_init+0x80>
    897c:	e59f101c 	ldr	r1, [pc, #28]	; 89a0 <mmu_init+0x84>
    8980:	e59f201c 	ldr	r2, [pc, #28]	; 89a4 <mmu_init+0x88>
    8984:	e3a0308f 	mov	r3, #143	; 0x8f
    8988:	eb0006c0 	bl	a490 <printk>
    898c:	eb00084f 	bl	aad0 <clean_reboot>
    8990:	e28dd00c 	add	sp, sp, #12
    8994:	e49df004 	pop	{pc}		; (ldr pc, [sp], #4)
    8998:	0000b7d8 	ldrdeq	fp, [r0], -r8
    899c:	0000b338 	andeq	fp, r0, r8, lsr r3
    89a0:	0000b4e0 	andeq	fp, r0, r0, ror #9
    89a4:	0000b474 	andeq	fp, r0, r4, ror r4
    89a8:	0000b7e4 	andeq	fp, r0, r4, ror #15

000089ac <mmu_install_handlers>:
    89ac:	e92d4008 	push	{r3, lr}
    89b0:	eb0008a5 	bl	ac4c <int_init>
    89b4:	e8bd8008 	pop	{r3, pc}

000089b8 <mmu_disable_set>:
    89b8:	e52de004 	push	{lr}		; (str lr, [sp, #-4]!)
    89bc:	e24dd00c 	sub	sp, sp, #12
    89c0:	e3100001 	tst	r0, #1
    89c4:	0a000008 	beq	89ec <mmu_disable_set+0x34>
    89c8:	eb0006cb 	bl	a4fc <rpi_reset_putc>
    89cc:	e59f3050 	ldr	r3, [pc, #80]	; 8a24 <mmu_disable_set+0x6c>
    89d0:	e58d3000 	str	r3, [sp]
    89d4:	e59f004c 	ldr	r0, [pc, #76]	; 8a28 <mmu_disable_set+0x70>
    89d8:	e59f104c 	ldr	r1, [pc, #76]	; 8a2c <mmu_disable_set+0x74>
    89dc:	e59f204c 	ldr	r2, [pc, #76]	; 8a30 <mmu_disable_set+0x78>
    89e0:	e3a03098 	mov	r3, #152	; 0x98
    89e4:	eb0006a9 	bl	a490 <printk>
    89e8:	eb000838 	bl	aad0 <clean_reboot>
    89ec:	e3100004 	tst	r0, #4
    89f0:	0a000008 	beq	8a18 <mmu_disable_set+0x60>
    89f4:	eb0006c0 	bl	a4fc <rpi_reset_putc>
    89f8:	e59f3034 	ldr	r3, [pc, #52]	; 8a34 <mmu_disable_set+0x7c>
    89fc:	e58d3000 	str	r3, [sp]
    8a00:	e59f0020 	ldr	r0, [pc, #32]	; 8a28 <mmu_disable_set+0x70>
    8a04:	e59f1020 	ldr	r1, [pc, #32]	; 8a2c <mmu_disable_set+0x74>
    8a08:	e59f2020 	ldr	r2, [pc, #32]	; 8a30 <mmu_disable_set+0x78>
    8a0c:	e3a03099 	mov	r3, #153	; 0x99
    8a10:	eb00069e 	bl	a490 <printk>
    8a14:	eb00082d 	bl	aad0 <clean_reboot>
    8a18:	eb000637 	bl	a2fc <our_mmu_disable_set_asm>
    8a1c:	e28dd00c 	add	sp, sp, #12
    8a20:	e49df004 	pop	{pc}		; (ldr pc, [sp], #4)
    8a24:	0000b7f4 	strdeq	fp, [r0], -r4
    8a28:	0000b338 	andeq	fp, r0, r8, lsr r3
    8a2c:	0000b4e0 	andeq	fp, r0, r0, ror #9
    8a30:	0000b480 	andeq	fp, r0, r0, lsl #9
    8a34:	0000b804 	andeq	fp, r0, r4, lsl #16

00008a38 <mmu_disable>:
    8a38:	e52de004 	push	{lr}		; (str lr, [sp, #-4]!)
    8a3c:	e24dd00c 	sub	sp, sp, #12
    8a40:	eb00057e 	bl	a040 <cp15_ctrl_reg1_rd>
    8a44:	e3100001 	tst	r0, #1
    8a48:	1a000008 	bne	8a70 <mmu_disable+0x38>
    8a4c:	eb0006aa 	bl	a4fc <rpi_reset_putc>
    8a50:	e59f3028 	ldr	r3, [pc, #40]	; 8a80 <mmu_disable+0x48>
    8a54:	e58d3000 	str	r3, [sp]
    8a58:	e59f0024 	ldr	r0, [pc, #36]	; 8a84 <mmu_disable+0x4c>
    8a5c:	e59f1024 	ldr	r1, [pc, #36]	; 8a88 <mmu_disable+0x50>
    8a60:	e59f2024 	ldr	r2, [pc, #36]	; 8a8c <mmu_disable+0x54>
    8a64:	e3a0309e 	mov	r3, #158	; 0x9e
    8a68:	eb000688 	bl	a490 <printk>
    8a6c:	eb000817 	bl	aad0 <clean_reboot>
    8a70:	e3c00001 	bic	r0, r0, #1
    8a74:	ebffffcf 	bl	89b8 <mmu_disable_set>
    8a78:	e28dd00c 	add	sp, sp, #12
    8a7c:	e49df004 	pop	{pc}		; (ldr pc, [sp], #4)
    8a80:	0000b818 	andeq	fp, r0, r8, lsl r8
    8a84:	0000b338 	andeq	fp, r0, r8, lsr r3
    8a88:	0000b4e0 	andeq	fp, r0, r0, ror #9
    8a8c:	0000b490 	muleq	r0, r0, r4

00008a90 <mmu_enable_set>:
    8a90:	e52de004 	push	{lr}		; (str lr, [sp, #-4]!)
    8a94:	e24dd00c 	sub	sp, sp, #12
    8a98:	e3100001 	tst	r0, #1
    8a9c:	1a000008 	bne	8ac4 <mmu_enable_set+0x34>
    8aa0:	eb000695 	bl	a4fc <rpi_reset_putc>
    8aa4:	e59f3024 	ldr	r3, [pc, #36]	; 8ad0 <mmu_enable_set+0x40>
    8aa8:	e58d3000 	str	r3, [sp]
    8aac:	e59f0020 	ldr	r0, [pc, #32]	; 8ad4 <mmu_enable_set+0x44>
    8ab0:	e59f1020 	ldr	r1, [pc, #32]	; 8ad8 <mmu_enable_set+0x48>
    8ab4:	e59f2020 	ldr	r2, [pc, #32]	; 8adc <mmu_enable_set+0x4c>
    8ab8:	e3a030a4 	mov	r3, #164	; 0xa4
    8abc:	eb000673 	bl	a490 <printk>
    8ac0:	eb000802 	bl	aad0 <clean_reboot>
    8ac4:	eb000604 	bl	a2dc <our_mmu_enable_set_asm>
    8ac8:	e28dd00c 	add	sp, sp, #12
    8acc:	e49df004 	pop	{pc}		; (ldr pc, [sp], #4)
    8ad0:	0000b818 	andeq	fp, r0, r8, lsl r8
    8ad4:	0000b338 	andeq	fp, r0, r8, lsr r3
    8ad8:	0000b4e0 	andeq	fp, r0, r0, ror #9
    8adc:	0000b49c 	muleq	r0, ip, r4

00008ae0 <mmu_enable>:
    8ae0:	e52de004 	push	{lr}		; (str lr, [sp, #-4]!)
    8ae4:	e24dd00c 	sub	sp, sp, #12
    8ae8:	eb000554 	bl	a040 <cp15_ctrl_reg1_rd>
    8aec:	e3100001 	tst	r0, #1
    8af0:	0a000008 	beq	8b18 <mmu_enable+0x38>
    8af4:	eb000680 	bl	a4fc <rpi_reset_putc>
    8af8:	e59f3028 	ldr	r3, [pc, #40]	; 8b28 <mmu_enable+0x48>
    8afc:	e58d3000 	str	r3, [sp]
    8b00:	e59f0024 	ldr	r0, [pc, #36]	; 8b2c <mmu_enable+0x4c>
    8b04:	e59f1024 	ldr	r1, [pc, #36]	; 8b30 <mmu_enable+0x50>
    8b08:	e59f2024 	ldr	r2, [pc, #36]	; 8b34 <mmu_enable+0x54>
    8b0c:	e3a030a9 	mov	r3, #169	; 0xa9
    8b10:	eb00065e 	bl	a490 <printk>
    8b14:	eb0007ed 	bl	aad0 <clean_reboot>
    8b18:	e3800001 	orr	r0, r0, #1
    8b1c:	ebffffdb 	bl	8a90 <mmu_enable_set>
    8b20:	e28dd00c 	add	sp, sp, #12
    8b24:	e49df004 	pop	{pc}		; (ldr pc, [sp], #4)
    8b28:	0000b7f4 	strdeq	fp, [r0], -r4
    8b2c:	0000b338 	andeq	fp, r0, r8, lsr r3
    8b30:	0000b4e0 	andeq	fp, r0, r0, ror #9
    8b34:	0000b4ac 	andeq	fp, r0, ip, lsr #9

00008b38 <read_domain_access_ctrl>:
    8b38:	ee130f10 	mrc	15, 0, r0, cr3, cr0, {0}
    8b3c:	e12fff1e 	bx	lr

00008b40 <write_domain_access_ctrl>:
    8b40:	e92d4008 	push	{r3, lr}
    8b44:	eb0005ab 	bl	a1f8 <our_cp15_domain_ctrl_wr>
    8b48:	e8bd8008 	pop	{r3, pc}

00008b4c <set_procid_ttbr0>:
    8b4c:	e52de004 	push	{lr}		; (str lr, [sp, #-4]!)
    8b50:	e24dd00c 	sub	sp, sp, #12
    8b54:	e1b03c20 	lsrs	r3, r0, #24
    8b58:	0a000008 	beq	8b80 <set_procid_ttbr0+0x34>
    8b5c:	eb000666 	bl	a4fc <rpi_reset_putc>
    8b60:	e59f3088 	ldr	r3, [pc, #136]	; 8bf0 <set_procid_ttbr0+0xa4>
    8b64:	e58d3000 	str	r3, [sp]
    8b68:	e59f0084 	ldr	r0, [pc, #132]	; 8bf4 <set_procid_ttbr0+0xa8>
    8b6c:	e59f1084 	ldr	r1, [pc, #132]	; 8bf8 <set_procid_ttbr0+0xac>
    8b70:	e59f2084 	ldr	r2, [pc, #132]	; 8bfc <set_procid_ttbr0+0xb0>
    8b74:	e3a030bb 	mov	r3, #187	; 0xbb
    8b78:	eb000644 	bl	a490 <printk>
    8b7c:	eb0007d3 	bl	aad0 <clean_reboot>
    8b80:	e3500040 	cmp	r0, #64	; 0x40
    8b84:	8a000008 	bhi	8bac <set_procid_ttbr0+0x60>
    8b88:	eb00065b 	bl	a4fc <rpi_reset_putc>
    8b8c:	e59f306c 	ldr	r3, [pc, #108]	; 8c00 <set_procid_ttbr0+0xb4>
    8b90:	e58d3000 	str	r3, [sp]
    8b94:	e59f0058 	ldr	r0, [pc, #88]	; 8bf4 <set_procid_ttbr0+0xa8>
    8b98:	e59f1058 	ldr	r1, [pc, #88]	; 8bf8 <set_procid_ttbr0+0xac>
    8b9c:	e59f2058 	ldr	r2, [pc, #88]	; 8bfc <set_procid_ttbr0+0xb0>
    8ba0:	e3a030bc 	mov	r3, #188	; 0xbc
    8ba4:	eb000639 	bl	a490 <printk>
    8ba8:	eb0007c8 	bl	aad0 <clean_reboot>
    8bac:	e2413001 	sub	r3, r1, #1
    8bb0:	e353003e 	cmp	r3, #62	; 0x3e
    8bb4:	9a000008 	bls	8bdc <set_procid_ttbr0+0x90>
    8bb8:	eb00064f 	bl	a4fc <rpi_reset_putc>
    8bbc:	e59f3040 	ldr	r3, [pc, #64]	; 8c04 <set_procid_ttbr0+0xb8>
    8bc0:	e58d3000 	str	r3, [sp]
    8bc4:	e59f0028 	ldr	r0, [pc, #40]	; 8bf4 <set_procid_ttbr0+0xa8>
    8bc8:	e59f1028 	ldr	r1, [pc, #40]	; 8bf8 <set_procid_ttbr0+0xac>
    8bcc:	e59f2028 	ldr	r2, [pc, #40]	; 8bfc <set_procid_ttbr0+0xb0>
    8bd0:	e3a030bd 	mov	r3, #189	; 0xbd
    8bd4:	eb00062d 	bl	a490 <printk>
    8bd8:	eb0007bc 	bl	aad0 <clean_reboot>
    8bdc:	e1810400 	orr	r0, r1, r0, lsl #8
    8be0:	e1a01002 	mov	r1, r2
    8be4:	eb000599 	bl	a250 <our_cp15_set_procid_ttbr0>
    8be8:	e28dd00c 	add	sp, sp, #12
    8bec:	e49df004 	pop	{pc}		; (ldr pc, [sp], #4)
    8bf0:	0000b828 	andeq	fp, r0, r8, lsr #16
    8bf4:	0000b338 	andeq	fp, r0, r8, lsr r3
    8bf8:	0000b4e0 	andeq	fp, r0, r0, ror #9
    8bfc:	0000b4b8 			; <UNDEFINED> instruction: 0x0000b4b8
    8c00:	0000b83c 	andeq	fp, r0, ip, lsr r8
    8c04:	0000b848 	andeq	fp, r0, r8, asr #16

00008c08 <asm_not_implemented>:
    8c08:	e52de004 	push	{lr}		; (str lr, [sp, #-4]!)
    8c0c:	e24dd00c 	sub	sp, sp, #12
    8c10:	e1a04000 	mov	r4, r0
    8c14:	ebfffdd6 	bl	8374 <mmu_is_enabled>
    8c18:	e3500000 	cmp	r0, #0
    8c1c:	0a000000 	beq	8c24 <asm_not_implemented+0x1c>
    8c20:	ebffff84 	bl	8a38 <mmu_disable>
    8c24:	eb000634 	bl	a4fc <rpi_reset_putc>
    8c28:	e58d4000 	str	r4, [sp]
    8c2c:	e59f0010 	ldr	r0, [pc, #16]	; 8c44 <asm_not_implemented+0x3c>
    8c30:	e59f1010 	ldr	r1, [pc, #16]	; 8c48 <asm_not_implemented+0x40>
    8c34:	e59f2010 	ldr	r2, [pc, #16]	; 8c4c <asm_not_implemented+0x44>
    8c38:	e3a030c5 	mov	r3, #197	; 0xc5
    8c3c:	eb000613 	bl	a490 <printk>
    8c40:	eb0007a2 	bl	aad0 <clean_reboot>
    8c44:	0000b85c 	andeq	fp, r0, ip, asr r8
    8c48:	0000b4e0 	andeq	fp, r0, r0, ror #9
    8c4c:	0000b4cc 	andeq	fp, r0, ip, asr #9

00008c50 <hash_print>:
    8c50:	e92d4038 	push	{r3, r4, r5, lr}
    8c54:	e1a05000 	mov	r5, r0
    8c58:	e1a04002 	mov	r4, r2
    8c5c:	e1a00001 	mov	r0, r1
    8c60:	e1a01002 	mov	r1, r2
    8c64:	eb0005c5 	bl	a380 <fast_hash>
    8c68:	e1a02000 	mov	r2, r0
    8c6c:	e59f000c 	ldr	r0, [pc, #12]	; 8c80 <hash_print+0x30>
    8c70:	e1a01005 	mov	r1, r5
    8c74:	e1a03004 	mov	r3, r4
    8c78:	eb000604 	bl	a490 <printk>
    8c7c:	e8bd8038 	pop	{r3, r4, r5, pc}
    8c80:	0000b894 	muleq	r0, r4, r8

00008c84 <domain_acl_print>:
    8c84:	e92d4008 	push	{r3, lr}
    8c88:	e59f0014 	ldr	r0, [pc, #20]	; 8ca4 <domain_acl_print+0x20>
    8c8c:	eb0005ff 	bl	a490 <printk>
    8c90:	ebffffa8 	bl	8b38 <read_domain_access_ctrl>
    8c94:	e1a01000 	mov	r1, r0
    8c98:	e59f0008 	ldr	r0, [pc, #8]	; 8ca8 <domain_acl_print+0x24>
    8c9c:	eb0005fb 	bl	a490 <printk>
    8ca0:	e8bd8008 	pop	{r3, pc}
    8ca4:	0000b8b0 			; <UNDEFINED> instruction: 0x0000b8b0
    8ca8:	0000b8c8 	andeq	fp, r0, r8, asr #17

00008cac <control_reg1_check_offsets>:
    8cac:	e52de004 	push	{lr}		; (str lr, [sp, #-4]!)
    8cb0:	e49df004 	pop	{pc}		; (ldr pc, [sp], #4)

00008cb4 <control_reg1_sanity_check>:
    8cb4:	e52de004 	push	{lr}		; (str lr, [sp, #-4]!)
    8cb8:	e24dd00c 	sub	sp, sp, #12
    8cbc:	e5d03000 	ldrb	r3, [r0]
    8cc0:	e1a03223 	lsr	r3, r3, #4
    8cc4:	e2033007 	and	r3, r3, #7
    8cc8:	e3530007 	cmp	r3, #7
    8ccc:	0a000008 	beq	8cf4 <control_reg1_sanity_check+0x40>
    8cd0:	eb000609 	bl	a4fc <rpi_reset_putc>
    8cd4:	e59f31a0 	ldr	r3, [pc, #416]	; 8e7c <control_reg1_sanity_check+0x1c8>
    8cd8:	e58d3000 	str	r3, [sp]
    8cdc:	e59f019c 	ldr	r0, [pc, #412]	; 8e80 <control_reg1_sanity_check+0x1cc>
    8ce0:	e59f119c 	ldr	r1, [pc, #412]	; 8e84 <control_reg1_sanity_check+0x1d0>
    8ce4:	e59f219c 	ldr	r2, [pc, #412]	; 8e88 <control_reg1_sanity_check+0x1d4>
    8ce8:	e3a0303b 	mov	r3, #59	; 0x3b
    8cec:	eb0005e7 	bl	a490 <printk>
    8cf0:	eb000776 	bl	aad0 <clean_reboot>
    8cf4:	e5d03002 	ldrb	r3, [r0, #2]
    8cf8:	e3130001 	tst	r3, #1
    8cfc:	1a000008 	bne	8d24 <control_reg1_sanity_check+0x70>
    8d00:	eb0005fd 	bl	a4fc <rpi_reset_putc>
    8d04:	e59f3180 	ldr	r3, [pc, #384]	; 8e8c <control_reg1_sanity_check+0x1d8>
    8d08:	e58d3000 	str	r3, [sp]
    8d0c:	e59f016c 	ldr	r0, [pc, #364]	; 8e80 <control_reg1_sanity_check+0x1cc>
    8d10:	e59f116c 	ldr	r1, [pc, #364]	; 8e84 <control_reg1_sanity_check+0x1d0>
    8d14:	e59f216c 	ldr	r2, [pc, #364]	; 8e88 <control_reg1_sanity_check+0x1d4>
    8d18:	e3a0303c 	mov	r3, #60	; 0x3c
    8d1c:	eb0005db 	bl	a490 <printk>
    8d20:	eb00076a 	bl	aad0 <clean_reboot>
    8d24:	e5d03002 	ldrb	r3, [r0, #2]
    8d28:	e3130004 	tst	r3, #4
    8d2c:	1a000008 	bne	8d54 <control_reg1_sanity_check+0xa0>
    8d30:	eb0005f1 	bl	a4fc <rpi_reset_putc>
    8d34:	e59f3154 	ldr	r3, [pc, #340]	; 8e90 <control_reg1_sanity_check+0x1dc>
    8d38:	e58d3000 	str	r3, [sp]
    8d3c:	e59f013c 	ldr	r0, [pc, #316]	; 8e80 <control_reg1_sanity_check+0x1cc>
    8d40:	e59f113c 	ldr	r1, [pc, #316]	; 8e84 <control_reg1_sanity_check+0x1d0>
    8d44:	e59f213c 	ldr	r2, [pc, #316]	; 8e88 <control_reg1_sanity_check+0x1d4>
    8d48:	e3a0303d 	mov	r3, #61	; 0x3d
    8d4c:	eb0005cf 	bl	a490 <printk>
    8d50:	eb00075e 	bl	aad0 <clean_reboot>
    8d54:	e5d03002 	ldrb	r3, [r0, #2]
    8d58:	e3130002 	tst	r3, #2
    8d5c:	0a000008 	beq	8d84 <control_reg1_sanity_check+0xd0>
    8d60:	eb0005e5 	bl	a4fc <rpi_reset_putc>
    8d64:	e59f3128 	ldr	r3, [pc, #296]	; 8e94 <control_reg1_sanity_check+0x1e0>
    8d68:	e58d3000 	str	r3, [sp]
    8d6c:	e59f010c 	ldr	r0, [pc, #268]	; 8e80 <control_reg1_sanity_check+0x1cc>
    8d70:	e59f110c 	ldr	r1, [pc, #268]	; 8e84 <control_reg1_sanity_check+0x1d0>
    8d74:	e59f210c 	ldr	r2, [pc, #268]	; 8e88 <control_reg1_sanity_check+0x1d4>
    8d78:	e3a03040 	mov	r3, #64	; 0x40
    8d7c:	eb0005c3 	bl	a490 <printk>
    8d80:	eb000752 	bl	aad0 <clean_reboot>
    8d84:	e5d03002 	ldrb	r3, [r0, #2]
    8d88:	e3130008 	tst	r3, #8
    8d8c:	0a000008 	beq	8db4 <control_reg1_sanity_check+0x100>
    8d90:	eb0005d9 	bl	a4fc <rpi_reset_putc>
    8d94:	e59f30fc 	ldr	r3, [pc, #252]	; 8e98 <control_reg1_sanity_check+0x1e4>
    8d98:	e58d3000 	str	r3, [sp]
    8d9c:	e59f00dc 	ldr	r0, [pc, #220]	; 8e80 <control_reg1_sanity_check+0x1cc>
    8da0:	e59f10dc 	ldr	r1, [pc, #220]	; 8e84 <control_reg1_sanity_check+0x1d0>
    8da4:	e59f20dc 	ldr	r2, [pc, #220]	; 8e88 <control_reg1_sanity_check+0x1d4>
    8da8:	e3a03041 	mov	r3, #65	; 0x41
    8dac:	eb0005b7 	bl	a490 <printk>
    8db0:	eb000746 	bl	aad0 <clean_reboot>
    8db4:	e5d03002 	ldrb	r3, [r0, #2]
    8db8:	e3130010 	tst	r3, #16
    8dbc:	0a000008 	beq	8de4 <control_reg1_sanity_check+0x130>
    8dc0:	eb0005cd 	bl	a4fc <rpi_reset_putc>
    8dc4:	e59f30d0 	ldr	r3, [pc, #208]	; 8e9c <control_reg1_sanity_check+0x1e8>
    8dc8:	e58d3000 	str	r3, [sp]
    8dcc:	e59f00ac 	ldr	r0, [pc, #172]	; 8e80 <control_reg1_sanity_check+0x1cc>
    8dd0:	e59f10ac 	ldr	r1, [pc, #172]	; 8e84 <control_reg1_sanity_check+0x1d0>
    8dd4:	e59f20ac 	ldr	r2, [pc, #172]	; 8e88 <control_reg1_sanity_check+0x1d4>
    8dd8:	e3a03042 	mov	r3, #66	; 0x42
    8ddc:	eb0005ab 	bl	a490 <printk>
    8de0:	eb00073a 	bl	aad0 <clean_reboot>
    8de4:	e5d03003 	ldrb	r3, [r0, #3]
    8de8:	e3130004 	tst	r3, #4
    8dec:	0a000008 	beq	8e14 <control_reg1_sanity_check+0x160>
    8df0:	eb0005c1 	bl	a4fc <rpi_reset_putc>
    8df4:	e59f30a4 	ldr	r3, [pc, #164]	; 8ea0 <control_reg1_sanity_check+0x1ec>
    8df8:	e58d3000 	str	r3, [sp]
    8dfc:	e59f007c 	ldr	r0, [pc, #124]	; 8e80 <control_reg1_sanity_check+0x1cc>
    8e00:	e59f107c 	ldr	r1, [pc, #124]	; 8e84 <control_reg1_sanity_check+0x1d0>
    8e04:	e59f207c 	ldr	r2, [pc, #124]	; 8e88 <control_reg1_sanity_check+0x1d4>
    8e08:	e3a0304b 	mov	r3, #75	; 0x4b
    8e0c:	eb00059f 	bl	a490 <printk>
    8e10:	eb00072e 	bl	aad0 <clean_reboot>
    8e14:	e5d03001 	ldrb	r3, [r0, #1]
    8e18:	e3130010 	tst	r3, #16
    8e1c:	0a000008 	beq	8e44 <control_reg1_sanity_check+0x190>
    8e20:	eb0005b5 	bl	a4fc <rpi_reset_putc>
    8e24:	e59f3078 	ldr	r3, [pc, #120]	; 8ea4 <control_reg1_sanity_check+0x1f0>
    8e28:	e58d3000 	str	r3, [sp]
    8e2c:	e59f004c 	ldr	r0, [pc, #76]	; 8e80 <control_reg1_sanity_check+0x1cc>
    8e30:	e59f104c 	ldr	r1, [pc, #76]	; 8e84 <control_reg1_sanity_check+0x1d0>
    8e34:	e59f204c 	ldr	r2, [pc, #76]	; 8e88 <control_reg1_sanity_check+0x1d4>
    8e38:	e3a0304c 	mov	r3, #76	; 0x4c
    8e3c:	eb000593 	bl	a490 <printk>
    8e40:	eb000722 	bl	aad0 <clean_reboot>
    8e44:	e5d03000 	ldrb	r3, [r0]
    8e48:	e3130004 	tst	r3, #4
    8e4c:	0a000008 	beq	8e74 <control_reg1_sanity_check+0x1c0>
    8e50:	eb0005a9 	bl	a4fc <rpi_reset_putc>
    8e54:	e59f304c 	ldr	r3, [pc, #76]	; 8ea8 <control_reg1_sanity_check+0x1f4>
    8e58:	e58d3000 	str	r3, [sp]
    8e5c:	e59f001c 	ldr	r0, [pc, #28]	; 8e80 <control_reg1_sanity_check+0x1cc>
    8e60:	e59f101c 	ldr	r1, [pc, #28]	; 8e84 <control_reg1_sanity_check+0x1d0>
    8e64:	e59f201c 	ldr	r2, [pc, #28]	; 8e88 <control_reg1_sanity_check+0x1d4>
    8e68:	e3a0304d 	mov	r3, #77	; 0x4d
    8e6c:	eb000587 	bl	a490 <printk>
    8e70:	eb000716 	bl	aad0 <clean_reboot>
    8e74:	e28dd00c 	add	sp, sp, #12
    8e78:	e49df004 	pop	{pc}		; (ldr pc, [sp], #4)
    8e7c:	0000ba2c 	andeq	fp, r0, ip, lsr #20
    8e80:	0000b338 	andeq	fp, r0, r8, lsr r3
    8e84:	0000b918 	andeq	fp, r0, r8, lsl r9
    8e88:	0000bc6c 	andeq	fp, r0, ip, ror #24
    8e8c:	0000ba44 	andeq	fp, r0, r4, asr #20
    8e90:	0000ba50 	andeq	fp, r0, r0, asr sl
    8e94:	0000ba5c 	andeq	fp, r0, ip, asr sl
    8e98:	0000ba6c 	andeq	fp, r0, ip, ror #20
    8e9c:	0000ba7c 	andeq	fp, r0, ip, ror sl
    8ea0:	0000ba88 	andeq	fp, r0, r8, lsl #21
    8ea4:	0000ba98 	muleq	r0, r8, sl
    8ea8:	0000baac 	andeq	fp, r0, ip, lsr #21

00008eac <control_reg1_print>:
    8eac:	e92d4010 	push	{r4, lr}
    8eb0:	e1a04000 	mov	r4, r0
    8eb4:	ebffff7e 	bl	8cb4 <control_reg1_sanity_check>
    8eb8:	e59f01a0 	ldr	r0, [pc, #416]	; 9060 <control_reg1_print+0x1b4>
    8ebc:	eb000573 	bl	a490 <printk>
    8ec0:	e5d41003 	ldrb	r1, [r4, #3]
    8ec4:	e1a012a1 	lsr	r1, r1, #5
    8ec8:	e59f0194 	ldr	r0, [pc, #404]	; 9064 <control_reg1_print+0x1b8>
    8ecc:	e2011001 	and	r1, r1, #1
    8ed0:	e59f2190 	ldr	r2, [pc, #400]	; 9068 <control_reg1_print+0x1bc>
    8ed4:	eb00056d 	bl	a490 <printk>
    8ed8:	e5d41003 	ldrb	r1, [r4, #3]
    8edc:	e1a01221 	lsr	r1, r1, #4
    8ee0:	e59f017c 	ldr	r0, [pc, #380]	; 9064 <control_reg1_print+0x1b8>
    8ee4:	e2011001 	and	r1, r1, #1
    8ee8:	e59f217c 	ldr	r2, [pc, #380]	; 906c <control_reg1_print+0x1c0>
    8eec:	eb000567 	bl	a490 <printk>
    8ef0:	e5d41003 	ldrb	r1, [r4, #3]
    8ef4:	e1a01121 	lsr	r1, r1, #2
    8ef8:	e59f0164 	ldr	r0, [pc, #356]	; 9064 <control_reg1_print+0x1b8>
    8efc:	e2011001 	and	r1, r1, #1
    8f00:	e59f2168 	ldr	r2, [pc, #360]	; 9070 <control_reg1_print+0x1c4>
    8f04:	eb000561 	bl	a490 <printk>
    8f08:	e5d41003 	ldrb	r1, [r4, #3]
    8f0c:	e1a010a1 	lsr	r1, r1, #1
    8f10:	e59f014c 	ldr	r0, [pc, #332]	; 9064 <control_reg1_print+0x1b8>
    8f14:	e2011001 	and	r1, r1, #1
    8f18:	e59f2154 	ldr	r2, [pc, #340]	; 9074 <control_reg1_print+0x1c8>
    8f1c:	eb00055b 	bl	a490 <printk>
    8f20:	e5d41003 	ldrb	r1, [r4, #3]
    8f24:	e59f0138 	ldr	r0, [pc, #312]	; 9064 <control_reg1_print+0x1b8>
    8f28:	e2011001 	and	r1, r1, #1
    8f2c:	e59f2144 	ldr	r2, [pc, #324]	; 9078 <control_reg1_print+0x1cc>
    8f30:	eb000556 	bl	a490 <printk>
    8f34:	e5d41002 	ldrb	r1, [r4, #2]
    8f38:	e59f0124 	ldr	r0, [pc, #292]	; 9064 <control_reg1_print+0x1b8>
    8f3c:	e1a013a1 	lsr	r1, r1, #7
    8f40:	e59f2134 	ldr	r2, [pc, #308]	; 907c <control_reg1_print+0x1d0>
    8f44:	eb000551 	bl	a490 <printk>
    8f48:	e5d41002 	ldrb	r1, [r4, #2]
    8f4c:	e1a01321 	lsr	r1, r1, #6
    8f50:	e59f010c 	ldr	r0, [pc, #268]	; 9064 <control_reg1_print+0x1b8>
    8f54:	e2011001 	and	r1, r1, #1
    8f58:	e59f2120 	ldr	r2, [pc, #288]	; 9080 <control_reg1_print+0x1d4>
    8f5c:	eb00054b 	bl	a490 <printk>
    8f60:	e5d41002 	ldrb	r1, [r4, #2]
    8f64:	e1a012a1 	lsr	r1, r1, #5
    8f68:	e59f00f4 	ldr	r0, [pc, #244]	; 9064 <control_reg1_print+0x1b8>
    8f6c:	e2011001 	and	r1, r1, #1
    8f70:	e59f210c 	ldr	r2, [pc, #268]	; 9084 <control_reg1_print+0x1d8>
    8f74:	eb000545 	bl	a490 <printk>
    8f78:	e5d41001 	ldrb	r1, [r4, #1]
    8f7c:	e1a01321 	lsr	r1, r1, #6
    8f80:	e59f00dc 	ldr	r0, [pc, #220]	; 9064 <control_reg1_print+0x1b8>
    8f84:	e2011001 	and	r1, r1, #1
    8f88:	e59f20f8 	ldr	r2, [pc, #248]	; 9088 <control_reg1_print+0x1dc>
    8f8c:	eb00053f 	bl	a490 <printk>
    8f90:	e5d41001 	ldrb	r1, [r4, #1]
    8f94:	e1a01221 	lsr	r1, r1, #4
    8f98:	e59f00c4 	ldr	r0, [pc, #196]	; 9064 <control_reg1_print+0x1b8>
    8f9c:	e2011001 	and	r1, r1, #1
    8fa0:	e59f20e4 	ldr	r2, [pc, #228]	; 908c <control_reg1_print+0x1e0>
    8fa4:	eb000539 	bl	a490 <printk>
    8fa8:	e5d41001 	ldrb	r1, [r4, #1]
    8fac:	e1a011a1 	lsr	r1, r1, #3
    8fb0:	e59f00ac 	ldr	r0, [pc, #172]	; 9064 <control_reg1_print+0x1b8>
    8fb4:	e2011001 	and	r1, r1, #1
    8fb8:	e59f20d0 	ldr	r2, [pc, #208]	; 9090 <control_reg1_print+0x1e4>
    8fbc:	eb000533 	bl	a490 <printk>
    8fc0:	e5d41001 	ldrb	r1, [r4, #1]
    8fc4:	e1a010a1 	lsr	r1, r1, #1
    8fc8:	e59f0094 	ldr	r0, [pc, #148]	; 9064 <control_reg1_print+0x1b8>
    8fcc:	e2011001 	and	r1, r1, #1
    8fd0:	e59f20bc 	ldr	r2, [pc, #188]	; 9094 <control_reg1_print+0x1e8>
    8fd4:	eb00052d 	bl	a490 <printk>
    8fd8:	e5d41001 	ldrb	r1, [r4, #1]
    8fdc:	e59f0080 	ldr	r0, [pc, #128]	; 9064 <control_reg1_print+0x1b8>
    8fe0:	e2011001 	and	r1, r1, #1
    8fe4:	e59f20ac 	ldr	r2, [pc, #172]	; 9098 <control_reg1_print+0x1ec>
    8fe8:	eb000528 	bl	a490 <printk>
    8fec:	e5d41000 	ldrb	r1, [r4]
    8ff0:	e59f006c 	ldr	r0, [pc, #108]	; 9064 <control_reg1_print+0x1b8>
    8ff4:	e1a013a1 	lsr	r1, r1, #7
    8ff8:	e59f209c 	ldr	r2, [pc, #156]	; 909c <control_reg1_print+0x1f0>
    8ffc:	eb000523 	bl	a490 <printk>
    9000:	e5d41000 	ldrb	r1, [r4]
    9004:	e1a011a1 	lsr	r1, r1, #3
    9008:	e59f0054 	ldr	r0, [pc, #84]	; 9064 <control_reg1_print+0x1b8>
    900c:	e2011001 	and	r1, r1, #1
    9010:	e59f2088 	ldr	r2, [pc, #136]	; 90a0 <control_reg1_print+0x1f4>
    9014:	eb00051d 	bl	a490 <printk>
    9018:	e5d41000 	ldrb	r1, [r4]
    901c:	e1a01121 	lsr	r1, r1, #2
    9020:	e59f003c 	ldr	r0, [pc, #60]	; 9064 <control_reg1_print+0x1b8>
    9024:	e2011001 	and	r1, r1, #1
    9028:	e59f2074 	ldr	r2, [pc, #116]	; 90a4 <control_reg1_print+0x1f8>
    902c:	eb000517 	bl	a490 <printk>
    9030:	e5d41000 	ldrb	r1, [r4]
    9034:	e1a010a1 	lsr	r1, r1, #1
    9038:	e59f0024 	ldr	r0, [pc, #36]	; 9064 <control_reg1_print+0x1b8>
    903c:	e2011001 	and	r1, r1, #1
    9040:	e59f2060 	ldr	r2, [pc, #96]	; 90a8 <control_reg1_print+0x1fc>
    9044:	eb000511 	bl	a490 <printk>
    9048:	e5d41000 	ldrb	r1, [r4]
    904c:	e59f0010 	ldr	r0, [pc, #16]	; 9064 <control_reg1_print+0x1b8>
    9050:	e2011001 	and	r1, r1, #1
    9054:	e59f2050 	ldr	r2, [pc, #80]	; 90ac <control_reg1_print+0x200>
    9058:	eb00050c 	bl	a490 <printk>
    905c:	e8bd8010 	pop	{r4, pc}
    9060:	0000bac4 	andeq	fp, r0, r4, asr #21
    9064:	0000badc 	ldrdeq	fp, [r0], -ip
    9068:	0000ba20 	andeq	fp, r0, r0, lsr #20
    906c:	0000ba10 	andeq	fp, r0, r0, lsl sl
    9070:	0000ba8c 	andeq	fp, r0, ip, lsl #21
    9074:	0000ba0c 	andeq	fp, r0, ip, lsl #20
    9078:	0000ba00 	andeq	fp, r0, r0, lsl #20
    907c:	0000b9f8 	strdeq	fp, [r0], -r8
    9080:	0000b9ec 	andeq	fp, r0, ip, ror #19
    9084:	0000b9e8 	andeq	fp, r0, r8, ror #19
    9088:	0000b9d4 	ldrdeq	fp, [r0], -r4
    908c:	0000ba9c 	muleq	r0, ip, sl
    9090:	0000b9b4 			; <UNDEFINED> instruction: 0x0000b9b4
    9094:	0000b9a4 	andeq	fp, r0, r4, lsr #19
    9098:	0000b99c 	muleq	r0, ip, r9
    909c:	0000b990 	muleq	r0, r0, r9
    90a0:	0000b984 	andeq	fp, r0, r4, lsl #19
    90a4:	0000bab0 			; <UNDEFINED> instruction: 0x0000bab0
    90a8:	0000b978 	andeq	fp, r0, r8, ror r9
    90ac:	0000b7e8 	andeq	fp, r0, r8, ror #15

000090b0 <tlb_config_check_offsets>:
    90b0:	e52de004 	push	{lr}		; (str lr, [sp, #-4]!)
    90b4:	e49df004 	pop	{pc}		; (ldr pc, [sp], #4)

000090b8 <tlb_config_print>:
    90b8:	e92d4010 	push	{r4, lr}
    90bc:	e1a04000 	mov	r4, r0
    90c0:	e59f002c 	ldr	r0, [pc, #44]	; 90f4 <tlb_config_print+0x3c>
    90c4:	eb0004f1 	bl	a490 <printk>
    90c8:	e5d41000 	ldrb	r1, [r4]
    90cc:	e59f0024 	ldr	r0, [pc, #36]	; 90f8 <tlb_config_print+0x40>
    90d0:	e2011001 	and	r1, r1, #1
    90d4:	eb0004ed 	bl	a490 <printk>
    90d8:	e59f001c 	ldr	r0, [pc, #28]	; 90fc <tlb_config_print+0x44>
    90dc:	e5d41001 	ldrb	r1, [r4, #1]
    90e0:	eb0004ea 	bl	a490 <printk>
    90e4:	e59f0014 	ldr	r0, [pc, #20]	; 9100 <tlb_config_print+0x48>
    90e8:	e5d41002 	ldrb	r1, [r4, #2]
    90ec:	eb0004e7 	bl	a490 <printk>
    90f0:	e8bd8010 	pop	{r4, pc}
    90f4:	0000bb14 	andeq	fp, r0, r4, lsl fp
    90f8:	0000bb24 	andeq	fp, r0, r4, lsr #22
    90fc:	0000bb34 	andeq	fp, r0, r4, lsr fp
    9100:	0000bb4c 	andeq	fp, r0, ip, asr #22

00009104 <fld_check_valid>:
    9104:	e52de004 	push	{lr}		; (str lr, [sp, #-4]!)
    9108:	e24dd00c 	sub	sp, sp, #12
    910c:	e5d03002 	ldrb	r3, [r0, #2]
    9110:	e3130008 	tst	r3, #8
    9114:	0a000008 	beq	913c <fld_check_valid+0x38>
    9118:	eb0004f7 	bl	a4fc <rpi_reset_putc>
    911c:	e59f3174 	ldr	r3, [pc, #372]	; 9298 <fld_check_valid+0x194>
    9120:	e58d3000 	str	r3, [sp]
    9124:	e59f0170 	ldr	r0, [pc, #368]	; 929c <fld_check_valid+0x198>
    9128:	e59f1170 	ldr	r1, [pc, #368]	; 92a0 <fld_check_valid+0x19c>
    912c:	e59f2170 	ldr	r2, [pc, #368]	; 92a4 <fld_check_valid+0x1a0>
    9130:	e3a0307d 	mov	r3, #125	; 0x7d
    9134:	eb0004d5 	bl	a490 <printk>
    9138:	eb000664 	bl	aad0 <clean_reboot>
    913c:	e5d03000 	ldrb	r3, [r0]
    9140:	e2033003 	and	r3, r3, #3
    9144:	e3530002 	cmp	r3, #2
    9148:	0a000008 	beq	9170 <fld_check_valid+0x6c>
    914c:	eb0004ea 	bl	a4fc <rpi_reset_putc>
    9150:	e59f3150 	ldr	r3, [pc, #336]	; 92a8 <fld_check_valid+0x1a4>
    9154:	e58d3000 	str	r3, [sp]
    9158:	e59f013c 	ldr	r0, [pc, #316]	; 929c <fld_check_valid+0x198>
    915c:	e59f113c 	ldr	r1, [pc, #316]	; 92a0 <fld_check_valid+0x19c>
    9160:	e59f213c 	ldr	r2, [pc, #316]	; 92a4 <fld_check_valid+0x1a0>
    9164:	e3a0307e 	mov	r3, #126	; 0x7e
    9168:	eb0004c8 	bl	a490 <printk>
    916c:	eb000657 	bl	aad0 <clean_reboot>
    9170:	e5d03002 	ldrb	r3, [r0, #2]
    9174:	e3130001 	tst	r3, #1
    9178:	0a000008 	beq	91a0 <fld_check_valid+0x9c>
    917c:	eb0004de 	bl	a4fc <rpi_reset_putc>
    9180:	e59f3124 	ldr	r3, [pc, #292]	; 92ac <fld_check_valid+0x1a8>
    9184:	e58d3000 	str	r3, [sp]
    9188:	e59f010c 	ldr	r0, [pc, #268]	; 929c <fld_check_valid+0x198>
    918c:	e59f110c 	ldr	r1, [pc, #268]	; 92a0 <fld_check_valid+0x19c>
    9190:	e59f210c 	ldr	r2, [pc, #268]	; 92a4 <fld_check_valid+0x1a0>
    9194:	e3a0307f 	mov	r3, #127	; 0x7f
    9198:	eb0004bc 	bl	a490 <printk>
    919c:	eb00064b 	bl	aad0 <clean_reboot>
    91a0:	e5d03001 	ldrb	r3, [r0, #1]
    91a4:	e3130002 	tst	r3, #2
    91a8:	0a000008 	beq	91d0 <fld_check_valid+0xcc>
    91ac:	eb0004d2 	bl	a4fc <rpi_reset_putc>
    91b0:	e59f30f8 	ldr	r3, [pc, #248]	; 92b0 <fld_check_valid+0x1ac>
    91b4:	e58d3000 	str	r3, [sp]
    91b8:	e59f00dc 	ldr	r0, [pc, #220]	; 929c <fld_check_valid+0x198>
    91bc:	e59f10dc 	ldr	r1, [pc, #220]	; 92a0 <fld_check_valid+0x19c>
    91c0:	e59f20dc 	ldr	r2, [pc, #220]	; 92a4 <fld_check_valid+0x1a0>
    91c4:	e3a03080 	mov	r3, #128	; 0x80
    91c8:	eb0004b0 	bl	a490 <printk>
    91cc:	eb00063f 	bl	aad0 <clean_reboot>
    91d0:	e5d03001 	ldrb	r3, [r0, #1]
    91d4:	e3130070 	tst	r3, #112	; 0x70
    91d8:	0a000008 	beq	9200 <fld_check_valid+0xfc>
    91dc:	eb0004c6 	bl	a4fc <rpi_reset_putc>
    91e0:	e59f30cc 	ldr	r3, [pc, #204]	; 92b4 <fld_check_valid+0x1b0>
    91e4:	e58d3000 	str	r3, [sp]
    91e8:	e59f00ac 	ldr	r0, [pc, #172]	; 929c <fld_check_valid+0x198>
    91ec:	e59f10ac 	ldr	r1, [pc, #172]	; 92a0 <fld_check_valid+0x19c>
    91f0:	e59f20ac 	ldr	r2, [pc, #172]	; 92a4 <fld_check_valid+0x1a0>
    91f4:	e3a03081 	mov	r3, #129	; 0x81
    91f8:	eb0004a4 	bl	a490 <printk>
    91fc:	eb000633 	bl	aad0 <clean_reboot>
    9200:	e5d03000 	ldrb	r3, [r0]
    9204:	e3130008 	tst	r3, #8
    9208:	0a000008 	beq	9230 <fld_check_valid+0x12c>
    920c:	eb0004ba 	bl	a4fc <rpi_reset_putc>
    9210:	e59f30a0 	ldr	r3, [pc, #160]	; 92b8 <fld_check_valid+0x1b4>
    9214:	e58d3000 	str	r3, [sp]
    9218:	e59f007c 	ldr	r0, [pc, #124]	; 929c <fld_check_valid+0x198>
    921c:	e59f107c 	ldr	r1, [pc, #124]	; 92a0 <fld_check_valid+0x19c>
    9220:	e59f207c 	ldr	r2, [pc, #124]	; 92a4 <fld_check_valid+0x1a0>
    9224:	e3a03082 	mov	r3, #130	; 0x82
    9228:	eb000498 	bl	a490 <printk>
    922c:	eb000627 	bl	aad0 <clean_reboot>
    9230:	e5d03000 	ldrb	r3, [r0]
    9234:	e3130004 	tst	r3, #4
    9238:	0a000008 	beq	9260 <fld_check_valid+0x15c>
    923c:	eb0004ae 	bl	a4fc <rpi_reset_putc>
    9240:	e59f3074 	ldr	r3, [pc, #116]	; 92bc <fld_check_valid+0x1b8>
    9244:	e58d3000 	str	r3, [sp]
    9248:	e59f004c 	ldr	r0, [pc, #76]	; 929c <fld_check_valid+0x198>
    924c:	e59f104c 	ldr	r1, [pc, #76]	; 92a0 <fld_check_valid+0x19c>
    9250:	e59f204c 	ldr	r2, [pc, #76]	; 92a4 <fld_check_valid+0x1a0>
    9254:	e3a03083 	mov	r3, #131	; 0x83
    9258:	eb00048c 	bl	a490 <printk>
    925c:	eb00061b 	bl	aad0 <clean_reboot>
    9260:	e5d03002 	ldrb	r3, [r0, #2]
    9264:	e3130004 	tst	r3, #4
    9268:	0a000008 	beq	9290 <fld_check_valid+0x18c>
    926c:	eb0004a2 	bl	a4fc <rpi_reset_putc>
    9270:	e59f3048 	ldr	r3, [pc, #72]	; 92c0 <fld_check_valid+0x1bc>
    9274:	e58d3000 	str	r3, [sp]
    9278:	e59f001c 	ldr	r0, [pc, #28]	; 929c <fld_check_valid+0x198>
    927c:	e59f101c 	ldr	r1, [pc, #28]	; 92a0 <fld_check_valid+0x19c>
    9280:	e59f201c 	ldr	r2, [pc, #28]	; 92a4 <fld_check_valid+0x1a0>
    9284:	e3a03084 	mov	r3, #132	; 0x84
    9288:	eb000480 	bl	a490 <printk>
    928c:	eb00060f 	bl	aad0 <clean_reboot>
    9290:	e28dd00c 	add	sp, sp, #12
    9294:	e49df004 	pop	{pc}		; (ldr pc, [sp], #4)
    9298:	0000bb64 	andeq	fp, r0, r4, ror #22
    929c:	0000b338 	andeq	fp, r0, r8, lsr r3
    92a0:	0000b918 	andeq	fp, r0, r8, lsl r9
    92a4:	0000bc88 	andeq	fp, r0, r8, lsl #25
    92a8:	0000bb74 	andeq	fp, r0, r4, ror fp
    92ac:	0000bb84 	andeq	fp, r0, r4, lsl #23
    92b0:	0000bb90 	muleq	r0, r0, fp
    92b4:	0000bb9c 	muleq	r0, ip, fp
    92b8:	0000bba8 	andeq	fp, r0, r8, lsr #23
    92bc:	0000bbb4 			; <UNDEFINED> instruction: 0x0000bbb4
    92c0:	0000bbc0 	andeq	fp, r0, r0, asr #23

000092c4 <fld_mk>:
    92c4:	e3a00002 	mov	r0, #2
    92c8:	e12fff1e 	bx	lr

000092cc <fld_check_offsets>:
    92cc:	e92d4010 	push	{r4, lr}
    92d0:	e24dd020 	sub	sp, sp, #32
    92d4:	ebfffffa 	bl	92c4 <fld_mk>
    92d8:	e28d3020 	add	r3, sp, #32
    92dc:	e5230004 	str	r0, [r3, #-4]!
    92e0:	e1a00003 	mov	r0, r3
    92e4:	ebffff86 	bl	9104 <fld_check_valid>
    92e8:	e59f4074 	ldr	r4, [pc, #116]	; 9364 <fld_check_offsets+0x98>
    92ec:	e1540004 	cmp	r4, r4
    92f0:	0a00000e 	beq	9330 <fld_check_offsets+0x64>
    92f4:	eb000480 	bl	a4fc <rpi_reset_putc>
    92f8:	e58d4000 	str	r4, [sp]
    92fc:	e58d4004 	str	r4, [sp, #4]
    9300:	e59f3060 	ldr	r3, [pc, #96]	; 9368 <fld_check_offsets+0x9c>
    9304:	e58d3008 	str	r3, [sp, #8]
    9308:	e3a03014 	mov	r3, #20
    930c:	e58d300c 	str	r3, [sp, #12]
    9310:	e3a0300c 	mov	r3, #12
    9314:	e58d3010 	str	r3, [sp, #16]
    9318:	e59f004c 	ldr	r0, [pc, #76]	; 936c <fld_check_offsets+0xa0>
    931c:	e59f104c 	ldr	r1, [pc, #76]	; 9370 <fld_check_offsets+0xa4>
    9320:	e59f204c 	ldr	r2, [pc, #76]	; 9374 <fld_check_offsets+0xa8>
    9324:	e3a030a0 	mov	r3, #160	; 0xa0
    9328:	eb000458 	bl	a490 <printk>
    932c:	eb0005e7 	bl	aad0 <clean_reboot>
    9330:	e3740601 	cmn	r4, #1048576	; 0x100000
    9334:	0a000008 	beq	935c <fld_check_offsets+0x90>
    9338:	eb00046f 	bl	a4fc <rpi_reset_putc>
    933c:	e59f3034 	ldr	r3, [pc, #52]	; 9378 <fld_check_offsets+0xac>
    9340:	e58d3000 	str	r3, [sp]
    9344:	e59f0030 	ldr	r0, [pc, #48]	; 937c <fld_check_offsets+0xb0>
    9348:	e59f1020 	ldr	r1, [pc, #32]	; 9370 <fld_check_offsets+0xa4>
    934c:	e59f2020 	ldr	r2, [pc, #32]	; 9374 <fld_check_offsets+0xa8>
    9350:	e3a030a0 	mov	r3, #160	; 0xa0
    9354:	eb00044d 	bl	a490 <printk>
    9358:	eb0005dc 	bl	aad0 <clean_reboot>
    935c:	e28dd020 	add	sp, sp, #32
    9360:	e8bd8010 	pop	{r4, pc}
    9364:	fff00000 			; <UNDEFINED> instruction: 0xfff00000	; IMB
    9368:	0000bc08 	andeq	fp, r0, r8, lsl #24
    936c:	0000b934 	andeq	fp, r0, r4, lsr r9
    9370:	0000b918 	andeq	fp, r0, r8, lsl r9
    9374:	0000bcd0 	ldrdeq	fp, [r0], -r0
    9378:	0000b928 	andeq	fp, r0, r8, lsr #18
    937c:	0000b338 	andeq	fp, r0, r8, lsr r3

00009380 <fld_print>:
    9380:	e92d4010 	push	{r4, lr}
    9384:	e1a04000 	mov	r4, r0
    9388:	e59f0178 	ldr	r0, [pc, #376]	; 9508 <fld_print+0x188>
    938c:	eb00043f 	bl	a490 <printk>
    9390:	e59f0174 	ldr	r0, [pc, #372]	; 950c <fld_print+0x18c>
    9394:	e1a01004 	mov	r1, r4
    9398:	eb00043c 	bl	a490 <printk>
    939c:	e1d410b2 	ldrh	r1, [r4, #2]
    93a0:	e59f0168 	ldr	r0, [pc, #360]	; 9510 <fld_print+0x190>
    93a4:	e1a01221 	lsr	r1, r1, #4
    93a8:	e59f2164 	ldr	r2, [pc, #356]	; 9514 <fld_print+0x194>
    93ac:	eb000437 	bl	a490 <printk>
    93b0:	e1d410b2 	ldrh	r1, [r4, #2]
    93b4:	e1a01221 	lsr	r1, r1, #4
    93b8:	e3510008 	cmp	r1, #8
    93bc:	da000001 	ble	93c8 <fld_print+0x48>
    93c0:	e59f0150 	ldr	r0, [pc, #336]	; 9518 <fld_print+0x198>
    93c4:	eb000431 	bl	a490 <printk>
    93c8:	e1d410b2 	ldrh	r1, [r4, #2]
    93cc:	e1a01221 	lsr	r1, r1, #4
    93d0:	e59f0144 	ldr	r0, [pc, #324]	; 951c <fld_print+0x19c>
    93d4:	e1a01a01 	lsl	r1, r1, #20
    93d8:	eb00042c 	bl	a490 <printk>
    93dc:	e59f013c 	ldr	r0, [pc, #316]	; 9520 <fld_print+0x1a0>
    93e0:	eb00042a 	bl	a490 <printk>
    93e4:	e5d41002 	ldrb	r1, [r4, #2]
    93e8:	e1a010a1 	lsr	r1, r1, #1
    93ec:	e59f011c 	ldr	r0, [pc, #284]	; 9510 <fld_print+0x190>
    93f0:	e2011001 	and	r1, r1, #1
    93f4:	e59f2128 	ldr	r2, [pc, #296]	; 9524 <fld_print+0x1a4>
    93f8:	eb000424 	bl	a490 <printk>
    93fc:	e5d41002 	ldrb	r1, [r4, #2]
    9400:	e59f0108 	ldr	r0, [pc, #264]	; 9510 <fld_print+0x190>
    9404:	e2011001 	and	r1, r1, #1
    9408:	e59f2118 	ldr	r2, [pc, #280]	; 9528 <fld_print+0x1a8>
    940c:	eb00041f 	bl	a490 <printk>
    9410:	e5d41001 	ldrb	r1, [r4, #1]
    9414:	e59f00f4 	ldr	r0, [pc, #244]	; 9510 <fld_print+0x190>
    9418:	e1a013a1 	lsr	r1, r1, #7
    941c:	e59f2108 	ldr	r2, [pc, #264]	; 952c <fld_print+0x1ac>
    9420:	eb00041a 	bl	a490 <printk>
    9424:	e5d41001 	ldrb	r1, [r4, #1]
    9428:	e1a01221 	lsr	r1, r1, #4
    942c:	e59f00dc 	ldr	r0, [pc, #220]	; 9510 <fld_print+0x190>
    9430:	e2011007 	and	r1, r1, #7
    9434:	e59f20f4 	ldr	r2, [pc, #244]	; 9530 <fld_print+0x1b0>
    9438:	eb000414 	bl	a490 <printk>
    943c:	e5d41001 	ldrb	r1, [r4, #1]
    9440:	e1a01121 	lsr	r1, r1, #2
    9444:	e59f00c4 	ldr	r0, [pc, #196]	; 9510 <fld_print+0x190>
    9448:	e2011003 	and	r1, r1, #3
    944c:	e59f20e0 	ldr	r2, [pc, #224]	; 9534 <fld_print+0x1b4>
    9450:	eb00040e 	bl	a490 <printk>
    9454:	e5d41001 	ldrb	r1, [r4, #1]
    9458:	e1a010a1 	lsr	r1, r1, #1
    945c:	e59f00ac 	ldr	r0, [pc, #172]	; 9510 <fld_print+0x190>
    9460:	e2011001 	and	r1, r1, #1
    9464:	e59f20cc 	ldr	r2, [pc, #204]	; 9538 <fld_print+0x1b8>
    9468:	eb000408 	bl	a490 <printk>
    946c:	e1d410b0 	ldrh	r1, [r4]
    9470:	e1a012a1 	lsr	r1, r1, #5
    9474:	e59f0094 	ldr	r0, [pc, #148]	; 9510 <fld_print+0x190>
    9478:	e201100f 	and	r1, r1, #15
    947c:	e59f20b8 	ldr	r2, [pc, #184]	; 953c <fld_print+0x1bc>
    9480:	eb000402 	bl	a490 <printk>
    9484:	e1d410b0 	ldrh	r1, [r4]
    9488:	e1a012a1 	lsr	r1, r1, #5
    948c:	e201100f 	and	r1, r1, #15
    9490:	e3510008 	cmp	r1, #8
    9494:	da000001 	ble	94a0 <fld_print+0x120>
    9498:	e59f0078 	ldr	r0, [pc, #120]	; 9518 <fld_print+0x198>
    949c:	eb0003fb 	bl	a490 <printk>
    94a0:	e5d41000 	ldrb	r1, [r4]
    94a4:	e1a01221 	lsr	r1, r1, #4
    94a8:	e59f0060 	ldr	r0, [pc, #96]	; 9510 <fld_print+0x190>
    94ac:	e2011001 	and	r1, r1, #1
    94b0:	e59f2088 	ldr	r2, [pc, #136]	; 9540 <fld_print+0x1c0>
    94b4:	eb0003f5 	bl	a490 <printk>
    94b8:	e5d41000 	ldrb	r1, [r4]
    94bc:	e1a011a1 	lsr	r1, r1, #3
    94c0:	e59f0048 	ldr	r0, [pc, #72]	; 9510 <fld_print+0x190>
    94c4:	e2011001 	and	r1, r1, #1
    94c8:	e59f2074 	ldr	r2, [pc, #116]	; 9544 <fld_print+0x1c4>
    94cc:	eb0003ef 	bl	a490 <printk>
    94d0:	e5d41000 	ldrb	r1, [r4]
    94d4:	e1a01121 	lsr	r1, r1, #2
    94d8:	e59f0030 	ldr	r0, [pc, #48]	; 9510 <fld_print+0x190>
    94dc:	e2011001 	and	r1, r1, #1
    94e0:	e59f2060 	ldr	r2, [pc, #96]	; 9548 <fld_print+0x1c8>
    94e4:	eb0003e9 	bl	a490 <printk>
    94e8:	e5d41000 	ldrb	r1, [r4]
    94ec:	e59f001c 	ldr	r0, [pc, #28]	; 9510 <fld_print+0x190>
    94f0:	e2011003 	and	r1, r1, #3
    94f4:	e59f2050 	ldr	r2, [pc, #80]	; 954c <fld_print+0x1cc>
    94f8:	eb0003e4 	bl	a490 <printk>
    94fc:	e1a00004 	mov	r0, r4
    9500:	ebfffeff 	bl	9104 <fld_check_valid>
    9504:	e8bd8010 	pop	{r4, pc}
    9508:	0000bc18 	andeq	fp, r0, r8, lsl ip
    950c:	0000bc38 	andeq	fp, r0, r8, lsr ip
    9510:	0000badc 	ldrdeq	fp, [r0], -ip
    9514:	0000bc08 	andeq	fp, r0, r8, lsl #24
    9518:	0000bae8 	andeq	fp, r0, r8, ror #21
    951c:	0000bc40 	andeq	fp, r0, r0, asr #24
    9520:	0000bc54 	andeq	fp, r0, r4, asr ip
    9524:	0000bbfc 	strdeq	fp, [r0], -ip
    9528:	0000bbf8 	strdeq	fp, [r0], -r8
    952c:	0000bbf4 	strdeq	fp, [r0], -r4
    9530:	0000bbf0 	strdeq	fp, [r0], -r0
    9534:	0000bbec 	andeq	fp, r0, ip, ror #23
    9538:	0000bbe8 	andeq	fp, r0, r8, ror #23
    953c:	0000bbe0 	andeq	fp, r0, r0, ror #23
    9540:	0000bbdc 	ldrdeq	fp, [r0], -ip
    9544:	0000bbd8 	ldrdeq	fp, [r0], -r8
    9548:	0000bbd4 	ldrdeq	fp, [r0], -r4
    954c:	0000bbd0 	ldrdeq	fp, [r0], -r0

00009550 <check_vm_structs>:
    9550:	e92d4008 	push	{r3, lr}
    9554:	ebfffdd4 	bl	8cac <control_reg1_check_offsets>
    9558:	ebfffed4 	bl	90b0 <tlb_config_check_offsets>
    955c:	ebffff5a 	bl	92cc <fld_check_offsets>
    9560:	e8bd8008 	pop	{r3, pc}

00009564 <last_fault_get>:
    9564:	e1a03000 	mov	r3, r0
    9568:	e59f200c 	ldr	r2, [pc, #12]	; 957c <last_fault_get+0x18>
    956c:	e8920007 	ldm	r2, {r0, r1, r2}
    9570:	e8830007 	stm	r3, {r0, r1, r2}
    9574:	e1a00003 	mov	r0, r3
    9578:	e12fff1e 	bx	lr
    957c:	0000c614 	andeq	ip, r0, r4, lsl r6

00009580 <last_fault_set>:
    9580:	e59f300c 	ldr	r3, [pc, #12]	; 9594 <last_fault_set+0x14>
    9584:	e5831000 	str	r1, [r3]
    9588:	e5830004 	str	r0, [r3, #4]
    958c:	e5832008 	str	r2, [r3, #8]
    9590:	e12fff1e 	bx	lr
    9594:	0000c614 	andeq	ip, r0, r4, lsl r6

00009598 <fault_expected>:
    9598:	e92d4070 	push	{r4, r5, r6, lr}
    959c:	e24dd018 	sub	sp, sp, #24
    95a0:	e1a06000 	mov	r6, r0
    95a4:	e1a04001 	mov	r4, r1
    95a8:	e1a05002 	mov	r5, r2
    95ac:	e28d000c 	add	r0, sp, #12
    95b0:	ebffffeb 	bl	9564 <last_fault_get>
    95b4:	e59d300c 	ldr	r3, [sp, #12]
    95b8:	e1530004 	cmp	r3, r4
    95bc:	0a000008 	beq	95e4 <fault_expected+0x4c>
    95c0:	eb0003cd 	bl	a4fc <rpi_reset_putc>
    95c4:	e59f309c 	ldr	r3, [pc, #156]	; 9668 <fault_expected+0xd0>
    95c8:	e58d3000 	str	r3, [sp]
    95cc:	e59f0098 	ldr	r0, [pc, #152]	; 966c <fault_expected+0xd4>
    95d0:	e59f1098 	ldr	r1, [pc, #152]	; 9670 <fault_expected+0xd8>
    95d4:	e59f2098 	ldr	r2, [pc, #152]	; 9674 <fault_expected+0xdc>
    95d8:	e3a0302a 	mov	r3, #42	; 0x2a
    95dc:	eb0003ab 	bl	a490 <printk>
    95e0:	eb00053a 	bl	aad0 <clean_reboot>
    95e4:	e59d3010 	ldr	r3, [sp, #16]
    95e8:	e1530006 	cmp	r3, r6
    95ec:	0a000008 	beq	9614 <fault_expected+0x7c>
    95f0:	eb0003c1 	bl	a4fc <rpi_reset_putc>
    95f4:	e59f307c 	ldr	r3, [pc, #124]	; 9678 <fault_expected+0xe0>
    95f8:	e58d3000 	str	r3, [sp]
    95fc:	e59f0068 	ldr	r0, [pc, #104]	; 966c <fault_expected+0xd4>
    9600:	e59f1068 	ldr	r1, [pc, #104]	; 9670 <fault_expected+0xd8>
    9604:	e59f2068 	ldr	r2, [pc, #104]	; 9674 <fault_expected+0xdc>
    9608:	e3a0302b 	mov	r3, #43	; 0x2b
    960c:	eb00039f 	bl	a490 <printk>
    9610:	eb00052e 	bl	aad0 <clean_reboot>
    9614:	e59d3014 	ldr	r3, [sp, #20]
    9618:	e1530005 	cmp	r3, r5
    961c:	0a000008 	beq	9644 <fault_expected+0xac>
    9620:	eb0003b5 	bl	a4fc <rpi_reset_putc>
    9624:	e59f3050 	ldr	r3, [pc, #80]	; 967c <fault_expected+0xe4>
    9628:	e58d3000 	str	r3, [sp]
    962c:	e59f0038 	ldr	r0, [pc, #56]	; 966c <fault_expected+0xd4>
    9630:	e59f1038 	ldr	r1, [pc, #56]	; 9670 <fault_expected+0xd8>
    9634:	e59f2038 	ldr	r2, [pc, #56]	; 9674 <fault_expected+0xdc>
    9638:	e3a0302c 	mov	r3, #44	; 0x2c
    963c:	eb000393 	bl	a490 <printk>
    9640:	eb000522 	bl	aad0 <clean_reboot>
    9644:	e59f0034 	ldr	r0, [pc, #52]	; 9680 <fault_expected+0xe8>
    9648:	eb000390 	bl	a490 <printk>
    964c:	e59f0030 	ldr	r0, [pc, #48]	; 9684 <fault_expected+0xec>
    9650:	e1a01006 	mov	r1, r6
    9654:	e1a02004 	mov	r2, r4
    9658:	e1a03005 	mov	r3, r5
    965c:	eb00038b 	bl	a490 <printk>
    9660:	e28dd018 	add	sp, sp, #24
    9664:	e8bd8070 	pop	{r4, r5, r6, pc}
    9668:	0000bcf0 	strdeq	fp, [r0], -r0
    966c:	0000b338 	andeq	fp, r0, r8, lsr r3
    9670:	0000bce4 	andeq	fp, r0, r4, ror #25
    9674:	0000c1dc 	ldrdeq	ip, [r0], -ip	; <UNPREDICTABLE>
    9678:	0000bd08 	andeq	fp, r0, r8, lsl #26
    967c:	0000bd1c 	andeq	fp, r0, ip, lsl sp
    9680:	0000b39c 	muleq	r0, ip, r3
    9684:	0000bd38 	andeq	fp, r0, r8, lsr sp

00009688 <dom_perm_get>:
    9688:	e92d4010 	push	{r4, lr}
    968c:	e24dd008 	sub	sp, sp, #8
    9690:	e1a04000 	mov	r4, r0
    9694:	ebfffd27 	bl	8b38 <read_domain_access_ctrl>
    9698:	e1a03084 	lsl	r3, r4, #1
    969c:	e2842001 	add	r2, r4, #1
    96a0:	e1a02082 	lsl	r2, r2, #1
    96a4:	e1530002 	cmp	r3, r2
    96a8:	9a000008 	bls	96d0 <dom_perm_get+0x48>
    96ac:	eb000392 	bl	a4fc <rpi_reset_putc>
    96b0:	e59f3060 	ldr	r3, [pc, #96]	; 9718 <dom_perm_get+0x90>
    96b4:	e58d3000 	str	r3, [sp]
    96b8:	e59f005c 	ldr	r0, [pc, #92]	; 971c <dom_perm_get+0x94>
    96bc:	e59f105c 	ldr	r1, [pc, #92]	; 9720 <dom_perm_get+0x98>
    96c0:	e59f205c 	ldr	r2, [pc, #92]	; 9724 <dom_perm_get+0x9c>
    96c4:	e3a0301d 	mov	r3, #29
    96c8:	eb000370 	bl	a490 <printk>
    96cc:	eb0004ff 	bl	aad0 <clean_reboot>
    96d0:	e352001f 	cmp	r2, #31
    96d4:	9a000008 	bls	96fc <dom_perm_get+0x74>
    96d8:	eb000387 	bl	a4fc <rpi_reset_putc>
    96dc:	e59f3044 	ldr	r3, [pc, #68]	; 9728 <dom_perm_get+0xa0>
    96e0:	e58d3000 	str	r3, [sp]
    96e4:	e59f0030 	ldr	r0, [pc, #48]	; 971c <dom_perm_get+0x94>
    96e8:	e59f1030 	ldr	r1, [pc, #48]	; 9720 <dom_perm_get+0x98>
    96ec:	e59f2030 	ldr	r2, [pc, #48]	; 9724 <dom_perm_get+0x9c>
    96f0:	e3a0301e 	mov	r3, #30
    96f4:	eb000365 	bl	a490 <printk>
    96f8:	eb0004f4 	bl	aad0 <clean_reboot>
    96fc:	e0632002 	rsb	r2, r3, r2
    9700:	e2822001 	add	r2, r2, #1
    9704:	e3e01000 	mvn	r1, #0
    9708:	e1e02211 	mvn	r2, r1, lsl r2
    970c:	e0020330 	and	r0, r2, r0, lsr r3
    9710:	e28dd008 	add	sp, sp, #8
    9714:	e8bd8010 	pop	{r4, pc}
    9718:	0000bd7c 	andeq	fp, r0, ip, ror sp
    971c:	0000b338 	andeq	fp, r0, r8, lsr r3
    9720:	0000bd6c 	andeq	fp, r0, ip, ror #26
    9724:	0000c260 	andeq	ip, r0, r0, ror #4
    9728:	0000bd88 	andeq	fp, r0, r8, lsl #27

0000972c <dom_perm_set>:
    972c:	e92d4030 	push	{r4, r5, lr}
    9730:	e24dd00c 	sub	sp, sp, #12
    9734:	e1a04000 	mov	r4, r0
    9738:	e1a05001 	mov	r5, r1
    973c:	e350000f 	cmp	r0, #15
    9740:	9a000008 	bls	9768 <dom_perm_set+0x3c>
    9744:	eb00036c 	bl	a4fc <rpi_reset_putc>
    9748:	e59f3064 	ldr	r3, [pc, #100]	; 97b4 <dom_perm_set+0x88>
    974c:	e58d3000 	str	r3, [sp]
    9750:	e59f0060 	ldr	r0, [pc, #96]	; 97b8 <dom_perm_set+0x8c>
    9754:	e59f1060 	ldr	r1, [pc, #96]	; 97bc <dom_perm_set+0x90>
    9758:	e59f2060 	ldr	r2, [pc, #96]	; 97c0 <dom_perm_set+0x94>
    975c:	e3a03043 	mov	r3, #67	; 0x43
    9760:	eb00034a 	bl	a490 <printk>
    9764:	eb0004d9 	bl	aad0 <clean_reboot>
    9768:	e3510001 	cmp	r1, #1
    976c:	9a000008 	bls	9794 <dom_perm_set+0x68>
    9770:	eb000361 	bl	a4fc <rpi_reset_putc>
    9774:	e59f3048 	ldr	r3, [pc, #72]	; 97c4 <dom_perm_set+0x98>
    9778:	e58d3000 	str	r3, [sp]
    977c:	e59f0034 	ldr	r0, [pc, #52]	; 97b8 <dom_perm_set+0x8c>
    9780:	e59f1034 	ldr	r1, [pc, #52]	; 97bc <dom_perm_set+0x90>
    9784:	e59f2034 	ldr	r2, [pc, #52]	; 97c0 <dom_perm_set+0x94>
    9788:	e3a03044 	mov	r3, #68	; 0x44
    978c:	eb00033f 	bl	a490 <printk>
    9790:	eb0004ce 	bl	aad0 <clean_reboot>
    9794:	ebfffce7 	bl	8b38 <read_domain_access_ctrl>
    9798:	e1a04084 	lsl	r4, r4, #1
    979c:	e3a03003 	mov	r3, #3
    97a0:	e1c00413 	bic	r0, r0, r3, lsl r4
    97a4:	e1800415 	orr	r0, r0, r5, lsl r4
    97a8:	ebfffce4 	bl	8b40 <write_domain_access_ctrl>
    97ac:	e28dd00c 	add	sp, sp, #12
    97b0:	e8bd8030 	pop	{r4, r5, pc}
    97b4:	0000b600 	andeq	fp, r0, r0, lsl #12
    97b8:	0000b338 	andeq	fp, r0, r8, lsr r3
    97bc:	0000bce4 	andeq	fp, r0, r4, ror #25
    97c0:	0000c284 	andeq	ip, r0, r4, lsl #5
    97c4:	0000bd90 	muleq	r0, r0, sp

000097c8 <memcheck_continue_after_fault>:
    97c8:	e3a02001 	mov	r2, #1
    97cc:	e59f3004 	ldr	r3, [pc, #4]	; 97d8 <memcheck_continue_after_fault+0x10>
    97d0:	e5832000 	str	r2, [r3]
    97d4:	e12fff1e 	bx	lr
    97d8:	0000c620 	andeq	ip, r0, r0, lsr #12

000097dc <data_abort_vector>:
    97dc:	e92d4070 	push	{r4, r5, r6, lr}
    97e0:	e24dd008 	sub	sp, sp, #8
    97e4:	e1a06000 	mov	r6, r0
    97e8:	ee154f10 	mrc	15, 0, r4, cr5, cr0, {0}
    97ec:	ee165f10 	mrc	15, 0, r5, cr6, cr0, {0}
    97f0:	e59f02f0 	ldr	r0, [pc, #752]	; 9ae8 <data_abort_vector+0x30c>
    97f4:	eb000325 	bl	a490 <printk>
    97f8:	e204200f 	and	r2, r4, #15
    97fc:	e2044b01 	and	r4, r4, #1024	; 0x400
    9800:	e1824324 	orr	r4, r2, r4, lsr #6
    9804:	e1a00006 	mov	r0, r6
    9808:	e1a01005 	mov	r1, r5
    980c:	e1a02004 	mov	r2, r4
    9810:	ebffff5a 	bl	9580 <last_fault_set>
    9814:	e354001a 	cmp	r4, #26
    9818:	979ff104 	ldrls	pc, [pc, r4, lsl #2]
    981c:	ea0000a8 	b	9ac4 <data_abort_vector+0x2e8>
    9820:	000098a8 	andeq	r9, r0, r8, lsr #17
    9824:	0000988c 	andeq	r9, r0, ip, lsl #17
    9828:	00009aa8 	andeq	r9, r0, r8, lsr #21
    982c:	000098c4 	andeq	r9, r0, r4, asr #17
    9830:	000098e0 	andeq	r9, r0, r0, ror #17
    9834:	00009934 	andeq	r9, r0, r4, lsr r9
    9838:	00009ac4 	andeq	r9, r0, r4, asr #21
    983c:	00009948 	andeq	r9, r0, r8, asr #18
    9840:	00009a00 	andeq	r9, r0, r0, lsl #20
    9844:	00009964 	andeq	r9, r0, r4, ror #18
    9848:	00009a1c 	andeq	r9, r0, ip, lsl sl
    984c:	000099a8 	andeq	r9, r0, r8, lsr #19
    9850:	000098fc 	strdeq	r9, [r0], -ip
    9854:	000099c4 	andeq	r9, r0, r4, asr #19
    9858:	00009918 	andeq	r9, r0, r8, lsl r9
    985c:	000099e4 	andeq	r9, r0, r4, ror #19
    9860:	00009ac4 	andeq	r9, r0, r4, asr #21
    9864:	00009ac4 	andeq	r9, r0, r4, asr #21
    9868:	00009ac4 	andeq	r9, r0, r4, asr #21
    986c:	00009ac4 	andeq	r9, r0, r4, asr #21
    9870:	00009a38 	andeq	r9, r0, r8, lsr sl
    9874:	00009ac4 	andeq	r9, r0, r4, asr #21
    9878:	00009a70 	andeq	r9, r0, r0, ror sl
    987c:	00009ac4 	andeq	r9, r0, r4, asr #21
    9880:	00009a8c 	andeq	r9, r0, ip, lsl #21
    9884:	00009ac4 	andeq	r9, r0, r4, asr #21
    9888:	00009a54 	andeq	r9, r0, r4, asr sl
    988c:	eb00031a 	bl	a4fc <rpi_reset_putc>
    9890:	e59f0254 	ldr	r0, [pc, #596]	; 9aec <data_abort_vector+0x310>
    9894:	e59f1254 	ldr	r1, [pc, #596]	; 9af0 <data_abort_vector+0x314>
    9898:	e59f2254 	ldr	r2, [pc, #596]	; 9af4 <data_abort_vector+0x318>
    989c:	e3a0308b 	mov	r3, #139	; 0x8b
    98a0:	eb0002fa 	bl	a490 <printk>
    98a4:	eb000489 	bl	aad0 <clean_reboot>
    98a8:	eb000313 	bl	a4fc <rpi_reset_putc>
    98ac:	e59f0244 	ldr	r0, [pc, #580]	; 9af8 <data_abort_vector+0x31c>
    98b0:	e59f1238 	ldr	r1, [pc, #568]	; 9af0 <data_abort_vector+0x314>
    98b4:	e59f2238 	ldr	r2, [pc, #568]	; 9af4 <data_abort_vector+0x318>
    98b8:	e3a0308e 	mov	r3, #142	; 0x8e
    98bc:	eb0002f3 	bl	a490 <printk>
    98c0:	eb000482 	bl	aad0 <clean_reboot>
    98c4:	eb00030c 	bl	a4fc <rpi_reset_putc>
    98c8:	e59f022c 	ldr	r0, [pc, #556]	; 9afc <data_abort_vector+0x320>
    98cc:	e59f121c 	ldr	r1, [pc, #540]	; 9af0 <data_abort_vector+0x314>
    98d0:	e59f221c 	ldr	r2, [pc, #540]	; 9af4 <data_abort_vector+0x318>
    98d4:	e3a03091 	mov	r3, #145	; 0x91
    98d8:	eb0002ec 	bl	a490 <printk>
    98dc:	eb00047b 	bl	aad0 <clean_reboot>
    98e0:	eb000305 	bl	a4fc <rpi_reset_putc>
    98e4:	e59f0214 	ldr	r0, [pc, #532]	; 9b00 <data_abort_vector+0x324>
    98e8:	e59f1200 	ldr	r1, [pc, #512]	; 9af0 <data_abort_vector+0x314>
    98ec:	e59f2200 	ldr	r2, [pc, #512]	; 9af4 <data_abort_vector+0x318>
    98f0:	e3a03094 	mov	r3, #148	; 0x94
    98f4:	eb0002e5 	bl	a490 <printk>
    98f8:	eb000474 	bl	aad0 <clean_reboot>
    98fc:	eb0002fe 	bl	a4fc <rpi_reset_putc>
    9900:	e59f01fc 	ldr	r0, [pc, #508]	; 9b04 <data_abort_vector+0x328>
    9904:	e59f11e4 	ldr	r1, [pc, #484]	; 9af0 <data_abort_vector+0x314>
    9908:	e59f21e4 	ldr	r2, [pc, #484]	; 9af4 <data_abort_vector+0x318>
    990c:	e3a03097 	mov	r3, #151	; 0x97
    9910:	eb0002de 	bl	a490 <printk>
    9914:	eb00046d 	bl	aad0 <clean_reboot>
    9918:	eb0002f7 	bl	a4fc <rpi_reset_putc>
    991c:	e59f01e4 	ldr	r0, [pc, #484]	; 9b08 <data_abort_vector+0x32c>
    9920:	e59f11c8 	ldr	r1, [pc, #456]	; 9af0 <data_abort_vector+0x314>
    9924:	e59f21c8 	ldr	r2, [pc, #456]	; 9af4 <data_abort_vector+0x318>
    9928:	e3a0309a 	mov	r3, #154	; 0x9a
    992c:	eb0002d7 	bl	a490 <printk>
    9930:	eb000466 	bl	aad0 <clean_reboot>
    9934:	e59f01d0 	ldr	r0, [pc, #464]	; 9b0c <data_abort_vector+0x330>
    9938:	eb0002d4 	bl	a490 <printk>
    993c:	e59f01cc 	ldr	r0, [pc, #460]	; 9b10 <data_abort_vector+0x334>
    9940:	eb0002d2 	bl	a490 <printk>
    9944:	eb000461 	bl	aad0 <clean_reboot>
    9948:	eb0002eb 	bl	a4fc <rpi_reset_putc>
    994c:	e59f01c0 	ldr	r0, [pc, #448]	; 9b14 <data_abort_vector+0x338>
    9950:	e59f1198 	ldr	r1, [pc, #408]	; 9af0 <data_abort_vector+0x314>
    9954:	e59f2198 	ldr	r2, [pc, #408]	; 9af4 <data_abort_vector+0x318>
    9958:	e3a030a0 	mov	r3, #160	; 0xa0
    995c:	eb0002cb 	bl	a490 <printk>
    9960:	eb00045a 	bl	aad0 <clean_reboot>
    9964:	e59f01ac 	ldr	r0, [pc, #428]	; 9b18 <data_abort_vector+0x33c>
    9968:	eb0002c8 	bl	a490 <printk>
    996c:	e59f31a8 	ldr	r3, [pc, #424]	; 9b1c <data_abort_vector+0x340>
    9970:	e5933000 	ldr	r3, [r3]
    9974:	e3530000 	cmp	r3, #0
    9978:	1a000004 	bne	9990 <data_abort_vector+0x1b4>
    997c:	e59f0188 	ldr	r0, [pc, #392]	; 9b0c <data_abort_vector+0x330>
    9980:	eb0002c2 	bl	a490 <printk>
    9984:	e59f0194 	ldr	r0, [pc, #404]	; 9b20 <data_abort_vector+0x344>
    9988:	eb0002c0 	bl	a490 <printk>
    998c:	eb00044f 	bl	aad0 <clean_reboot>
    9990:	e59f0174 	ldr	r0, [pc, #372]	; 9b0c <data_abort_vector+0x330>
    9994:	eb0002bd 	bl	a490 <printk>
    9998:	e59f0184 	ldr	r0, [pc, #388]	; 9b24 <data_abort_vector+0x348>
    999c:	eb0002bb 	bl	a490 <printk>
    99a0:	eb00015a 	bl	9f10 <memcheck_trap_disable>
    99a4:	ea00004d 	b	9ae0 <data_abort_vector+0x304>
    99a8:	eb0002d3 	bl	a4fc <rpi_reset_putc>
    99ac:	e59f0174 	ldr	r0, [pc, #372]	; 9b28 <data_abort_vector+0x34c>
    99b0:	e59f1138 	ldr	r1, [pc, #312]	; 9af0 <data_abort_vector+0x314>
    99b4:	e59f2138 	ldr	r2, [pc, #312]	; 9af4 <data_abort_vector+0x318>
    99b8:	e3a030ad 	mov	r3, #173	; 0xad
    99bc:	eb0002b3 	bl	a490 <printk>
    99c0:	eb000442 	bl	aad0 <clean_reboot>
    99c4:	eb0002cc 	bl	a4fc <rpi_reset_putc>
    99c8:	e58d5000 	str	r5, [sp]
    99cc:	e59f0158 	ldr	r0, [pc, #344]	; 9b2c <data_abort_vector+0x350>
    99d0:	e59f1118 	ldr	r1, [pc, #280]	; 9af0 <data_abort_vector+0x314>
    99d4:	e59f2118 	ldr	r2, [pc, #280]	; 9af4 <data_abort_vector+0x318>
    99d8:	e3a030b0 	mov	r3, #176	; 0xb0
    99dc:	eb0002ab 	bl	a490 <printk>
    99e0:	eb00043a 	bl	aad0 <clean_reboot>
    99e4:	eb0002c4 	bl	a4fc <rpi_reset_putc>
    99e8:	e59f0140 	ldr	r0, [pc, #320]	; 9b30 <data_abort_vector+0x354>
    99ec:	e59f10fc 	ldr	r1, [pc, #252]	; 9af0 <data_abort_vector+0x314>
    99f0:	e59f20fc 	ldr	r2, [pc, #252]	; 9af4 <data_abort_vector+0x318>
    99f4:	e3a030b3 	mov	r3, #179	; 0xb3
    99f8:	eb0002a4 	bl	a490 <printk>
    99fc:	eb000433 	bl	aad0 <clean_reboot>
    9a00:	eb0002bd 	bl	a4fc <rpi_reset_putc>
    9a04:	e59f0128 	ldr	r0, [pc, #296]	; 9b34 <data_abort_vector+0x358>
    9a08:	e59f10e0 	ldr	r1, [pc, #224]	; 9af0 <data_abort_vector+0x314>
    9a0c:	e59f20e0 	ldr	r2, [pc, #224]	; 9af4 <data_abort_vector+0x318>
    9a10:	e3a030b6 	mov	r3, #182	; 0xb6
    9a14:	eb00029d 	bl	a490 <printk>
    9a18:	eb00042c 	bl	aad0 <clean_reboot>
    9a1c:	eb0002b6 	bl	a4fc <rpi_reset_putc>
    9a20:	e59f0110 	ldr	r0, [pc, #272]	; 9b38 <data_abort_vector+0x35c>
    9a24:	e59f10c4 	ldr	r1, [pc, #196]	; 9af0 <data_abort_vector+0x314>
    9a28:	e59f20c4 	ldr	r2, [pc, #196]	; 9af4 <data_abort_vector+0x318>
    9a2c:	e3a030b9 	mov	r3, #185	; 0xb9
    9a30:	eb000296 	bl	a490 <printk>
    9a34:	eb000425 	bl	aad0 <clean_reboot>
    9a38:	eb0002af 	bl	a4fc <rpi_reset_putc>
    9a3c:	e59f00f8 	ldr	r0, [pc, #248]	; 9b3c <data_abort_vector+0x360>
    9a40:	e59f10a8 	ldr	r1, [pc, #168]	; 9af0 <data_abort_vector+0x314>
    9a44:	e59f20a8 	ldr	r2, [pc, #168]	; 9af4 <data_abort_vector+0x318>
    9a48:	e3a030bc 	mov	r3, #188	; 0xbc
    9a4c:	eb00028f 	bl	a490 <printk>
    9a50:	eb00041e 	bl	aad0 <clean_reboot>
    9a54:	eb0002a8 	bl	a4fc <rpi_reset_putc>
    9a58:	e59f00e0 	ldr	r0, [pc, #224]	; 9b40 <data_abort_vector+0x364>
    9a5c:	e59f108c 	ldr	r1, [pc, #140]	; 9af0 <data_abort_vector+0x314>
    9a60:	e59f208c 	ldr	r2, [pc, #140]	; 9af4 <data_abort_vector+0x318>
    9a64:	e3a030bf 	mov	r3, #191	; 0xbf
    9a68:	eb000288 	bl	a490 <printk>
    9a6c:	eb000417 	bl	aad0 <clean_reboot>
    9a70:	eb0002a1 	bl	a4fc <rpi_reset_putc>
    9a74:	e59f00c8 	ldr	r0, [pc, #200]	; 9b44 <data_abort_vector+0x368>
    9a78:	e59f1070 	ldr	r1, [pc, #112]	; 9af0 <data_abort_vector+0x314>
    9a7c:	e59f2070 	ldr	r2, [pc, #112]	; 9af4 <data_abort_vector+0x318>
    9a80:	e3a030c2 	mov	r3, #194	; 0xc2
    9a84:	eb000281 	bl	a490 <printk>
    9a88:	eb000410 	bl	aad0 <clean_reboot>
    9a8c:	eb00029a 	bl	a4fc <rpi_reset_putc>
    9a90:	e59f00b0 	ldr	r0, [pc, #176]	; 9b48 <data_abort_vector+0x36c>
    9a94:	e59f1054 	ldr	r1, [pc, #84]	; 9af0 <data_abort_vector+0x314>
    9a98:	e59f2054 	ldr	r2, [pc, #84]	; 9af4 <data_abort_vector+0x318>
    9a9c:	e3a030c5 	mov	r3, #197	; 0xc5
    9aa0:	eb00027a 	bl	a490 <printk>
    9aa4:	eb000409 	bl	aad0 <clean_reboot>
    9aa8:	eb000293 	bl	a4fc <rpi_reset_putc>
    9aac:	e59f0098 	ldr	r0, [pc, #152]	; 9b4c <data_abort_vector+0x370>
    9ab0:	e59f1038 	ldr	r1, [pc, #56]	; 9af0 <data_abort_vector+0x314>
    9ab4:	e59f2038 	ldr	r2, [pc, #56]	; 9af4 <data_abort_vector+0x318>
    9ab8:	e3a030c8 	mov	r3, #200	; 0xc8
    9abc:	eb000273 	bl	a490 <printk>
    9ac0:	eb000402 	bl	aad0 <clean_reboot>
    9ac4:	eb00028c 	bl	a4fc <rpi_reset_putc>
    9ac8:	e59f0080 	ldr	r0, [pc, #128]	; 9b50 <data_abort_vector+0x374>
    9acc:	e59f101c 	ldr	r1, [pc, #28]	; 9af0 <data_abort_vector+0x314>
    9ad0:	e59f201c 	ldr	r2, [pc, #28]	; 9af4 <data_abort_vector+0x318>
    9ad4:	e3a030cb 	mov	r3, #203	; 0xcb
    9ad8:	eb00026c 	bl	a490 <printk>
    9adc:	eb0003fb 	bl	aad0 <clean_reboot>
    9ae0:	e28dd008 	add	sp, sp, #8
    9ae4:	e8bd8070 	pop	{r4, r5, r6, pc}
    9ae8:	0000bdbc 			; <UNDEFINED> instruction: 0x0000bdbc
    9aec:	0000bdd4 	ldrdeq	fp, [r0], -r4
    9af0:	0000bce4 	andeq	fp, r0, r4, ror #25
    9af4:	0000c1ec 	andeq	ip, r0, ip, ror #3
    9af8:	0000bdf8 	strdeq	fp, [r0], -r8
    9afc:	0000be14 	andeq	fp, r0, r4, lsl lr
    9b00:	0000be3c 	andeq	fp, r0, ip, lsr lr
    9b04:	0000be68 	andeq	fp, r0, r8, ror #28
    9b08:	0000be94 	muleq	r0, r4, lr
    9b0c:	0000b39c 	muleq	r0, ip, r3
    9b10:	0000bec0 	andeq	fp, r0, r0, asr #29
    9b14:	0000bee8 	andeq	fp, r0, r8, ror #29
    9b18:	0000bf10 	andeq	fp, r0, r0, lsl pc
    9b1c:	0000c620 	andeq	ip, r0, r0, lsr #12
    9b20:	0000bf28 	andeq	fp, r0, r8, lsr #30
    9b24:	0000bf38 	andeq	fp, r0, r8, lsr pc
    9b28:	0000bf50 	andeq	fp, r0, r0, asr pc
    9b2c:	0000bf74 	andeq	fp, r0, r4, ror pc
    9b30:	0000bfa4 	andeq	fp, r0, r4, lsr #31
    9b34:	0000bfcc 	andeq	fp, r0, ip, asr #31
    9b38:	0000bff4 	strdeq	fp, [r0], -r4
    9b3c:	0000c01c 	andeq	ip, r0, ip, lsl r0
    9b40:	0000c038 	andeq	ip, r0, r8, lsr r0
    9b44:	0000c060 	andeq	ip, r0, r0, rrx
    9b48:	0000c08c 	andeq	ip, r0, ip, lsl #1
    9b4c:	0000c0b4 	strheq	ip, [r0], -r4
    9b50:	0000c0d4 	ldrdeq	ip, [r0], -r4

00009b54 <interrupt_vector>:
    9b54:	e92d4008 	push	{r3, lr}
    9b58:	ebfffbb6 	bl	8a38 <mmu_disable>
    9b5c:	eb000266 	bl	a4fc <rpi_reset_putc>
    9b60:	e59f0010 	ldr	r0, [pc, #16]	; 9b78 <interrupt_vector+0x24>
    9b64:	e59f1010 	ldr	r1, [pc, #16]	; 9b7c <interrupt_vector+0x28>
    9b68:	e59f2010 	ldr	r2, [pc, #16]	; 9b80 <interrupt_vector+0x2c>
    9b6c:	e3a030e4 	mov	r3, #228	; 0xe4
    9b70:	eb000246 	bl	a490 <printk>
    9b74:	eb0003d5 	bl	aad0 <clean_reboot>
    9b78:	0000c0fc 	strdeq	ip, [r0], -ip	; <UNPREDICTABLE>
    9b7c:	0000bce4 	andeq	fp, r0, r4, ror #25
    9b80:	0000c200 	andeq	ip, r0, r0, lsl #4

00009b84 <memcheck_init>:
    9b84:	e92d4010 	push	{r4, lr}
    9b88:	e24dd008 	sub	sp, sp, #8
    9b8c:	ebfffb62 	bl	891c <mmu_init>
    9b90:	ebfff9f7 	bl	8374 <mmu_is_enabled>
    9b94:	e3500000 	cmp	r0, #0
    9b98:	0a000008 	beq	9bc0 <memcheck_init+0x3c>
    9b9c:	eb000256 	bl	a4fc <rpi_reset_putc>
    9ba0:	e59f311c 	ldr	r3, [pc, #284]	; 9cc4 <memcheck_init+0x140>
    9ba4:	e58d3000 	str	r3, [sp]
    9ba8:	e59f0118 	ldr	r0, [pc, #280]	; 9cc8 <memcheck_init+0x144>
    9bac:	e59f1118 	ldr	r1, [pc, #280]	; 9ccc <memcheck_init+0x148>
    9bb0:	e59f2118 	ldr	r2, [pc, #280]	; 9cd0 <memcheck_init+0x14c>
    9bb4:	e3a030f4 	mov	r3, #244	; 0xf4
    9bb8:	eb000234 	bl	a490 <printk>
    9bbc:	eb0003c3 	bl	aad0 <clean_reboot>
    9bc0:	e3a00601 	mov	r0, #1048576	; 0x100000
    9bc4:	e3a01901 	mov	r1, #16384	; 0x4000
    9bc8:	ebfffb0a 	bl	87f8 <mmu_pt_alloc_at>
    9bcc:	e59f3100 	ldr	r3, [pc, #256]	; 9cd4 <memcheck_init+0x150>
    9bd0:	e5830000 	str	r0, [r3]
    9bd4:	e3500601 	cmp	r0, #1048576	; 0x100000
    9bd8:	0a000008 	beq	9c00 <memcheck_init+0x7c>
    9bdc:	eb000246 	bl	a4fc <rpi_reset_putc>
    9be0:	e59f30f0 	ldr	r3, [pc, #240]	; 9cd8 <memcheck_init+0x154>
    9be4:	e58d3000 	str	r3, [sp]
    9be8:	e59f00d8 	ldr	r0, [pc, #216]	; 9cc8 <memcheck_init+0x144>
    9bec:	e59f10d8 	ldr	r1, [pc, #216]	; 9ccc <memcheck_init+0x148>
    9bf0:	e59f20d8 	ldr	r2, [pc, #216]	; 9cd0 <memcheck_init+0x14c>
    9bf4:	e3a030f9 	mov	r3, #249	; 0xf9
    9bf8:	eb000224 	bl	a490 <printk>
    9bfc:	eb0003b3 	bl	aad0 <clean_reboot>
    9c00:	e3a01000 	mov	r1, #0
    9c04:	e1a02001 	mov	r2, r1
    9c08:	e3a03001 	mov	r3, #1
    9c0c:	ebfffa58 	bl	8574 <mmu_map_section>
    9c10:	e59f40bc 	ldr	r4, [pc, #188]	; 9cd4 <memcheck_init+0x150>
    9c14:	e5940000 	ldr	r0, [r4]
    9c18:	e3a01601 	mov	r1, #1048576	; 0x100000
    9c1c:	e1a02001 	mov	r2, r1
    9c20:	e3a03001 	mov	r3, #1
    9c24:	ebfffa52 	bl	8574 <mmu_map_section>
    9c28:	e5940000 	ldr	r0, [r4]
    9c2c:	e3a0167f 	mov	r1, #133169152	; 0x7f00000
    9c30:	e1a02001 	mov	r2, r1
    9c34:	e3a03001 	mov	r3, #1
    9c38:	ebfffa4d 	bl	8574 <mmu_map_section>
    9c3c:	e5940000 	ldr	r0, [r4]
    9c40:	e3a0166f 	mov	r1, #116391936	; 0x6f00000
    9c44:	e1a02001 	mov	r2, r1
    9c48:	e3a03001 	mov	r3, #1
    9c4c:	ebfffa48 	bl	8574 <mmu_map_section>
    9c50:	e5940000 	ldr	r0, [r4]
    9c54:	e3a01202 	mov	r1, #536870912	; 0x20000000
    9c58:	e1a02001 	mov	r2, r1
    9c5c:	e3a03001 	mov	r3, #1
    9c60:	ebfffa43 	bl	8574 <mmu_map_section>
    9c64:	e59f2070 	ldr	r2, [pc, #112]	; 9cdc <memcheck_init+0x158>
    9c68:	e5940000 	ldr	r0, [r4]
    9c6c:	e1a01002 	mov	r1, r2
    9c70:	e3a03001 	mov	r3, #1
    9c74:	ebfffa3e 	bl	8574 <mmu_map_section>
    9c78:	e59f2060 	ldr	r2, [pc, #96]	; 9ce0 <memcheck_init+0x15c>
    9c7c:	e5940000 	ldr	r0, [r4]
    9c80:	e1a01002 	mov	r1, r2
    9c84:	e3a03001 	mov	r3, #1
    9c88:	ebfffa39 	bl	8574 <mmu_map_section>
    9c8c:	e5940000 	ldr	r0, [r4]
    9c90:	e3a0168f 	mov	r1, #149946368	; 0x8f00000
    9c94:	e1a02001 	mov	r2, r1
    9c98:	e3a03001 	mov	r3, #1
    9c9c:	ebfffa34 	bl	8574 <mmu_map_section>
    9ca0:	ebfffb41 	bl	89ac <mmu_install_handlers>
    9ca4:	e3a00004 	mov	r0, #4
    9ca8:	ebfffba4 	bl	8b40 <write_domain_access_ctrl>
    9cac:	e59f0030 	ldr	r0, [pc, #48]	; 9ce4 <memcheck_init+0x160>
    9cb0:	e3a01001 	mov	r1, #1
    9cb4:	e5942000 	ldr	r2, [r4]
    9cb8:	ebfffba3 	bl	8b4c <set_procid_ttbr0>
    9cbc:	e28dd008 	add	sp, sp, #8
    9cc0:	e8bd8010 	pop	{r4, pc}
    9cc4:	0000b368 	andeq	fp, r0, r8, ror #6
    9cc8:	0000b338 	andeq	fp, r0, r8, lsr r3
    9ccc:	0000bce4 	andeq	fp, r0, r4, ror #25
    9cd0:	0000c214 	andeq	ip, r0, r4, lsl r2
    9cd4:	0000c624 	andeq	ip, r0, r4, lsr #12
    9cd8:	0000c118 	andeq	ip, r0, r8, lsl r1
    9cdc:	20100000 	andscs	r0, r0, r0
    9ce0:	20200000 	eorcs	r0, r0, r0
    9ce4:	0000140e 	andeq	r1, r0, lr, lsl #8

00009ce8 <memcheck_on>:
    9ce8:	e52de004 	push	{lr}		; (str lr, [sp, #-4]!)
    9cec:	e24dd00c 	sub	sp, sp, #12
    9cf0:	e59f005c 	ldr	r0, [pc, #92]	; 9d54 <memcheck_on+0x6c>
    9cf4:	e59f105c 	ldr	r1, [pc, #92]	; 9d58 <memcheck_on+0x70>
    9cf8:	e59f205c 	ldr	r2, [pc, #92]	; 9d5c <memcheck_on+0x74>
    9cfc:	e59f305c 	ldr	r3, [pc, #92]	; 9d60 <memcheck_on+0x78>
    9d00:	eb0001e2 	bl	a490 <printk>
    9d04:	ebfffb75 	bl	8ae0 <mmu_enable>
    9d08:	ebfff999 	bl	8374 <mmu_is_enabled>
    9d0c:	e3500000 	cmp	r0, #0
    9d10:	1a000008 	bne	9d38 <memcheck_on+0x50>
    9d14:	eb0001f8 	bl	a4fc <rpi_reset_putc>
    9d18:	e59f3044 	ldr	r3, [pc, #68]	; 9d64 <memcheck_on+0x7c>
    9d1c:	e58d3000 	str	r3, [sp]
    9d20:	e59f0040 	ldr	r0, [pc, #64]	; 9d68 <memcheck_on+0x80>
    9d24:	e59f102c 	ldr	r1, [pc, #44]	; 9d58 <memcheck_on+0x70>
    9d28:	e59f202c 	ldr	r2, [pc, #44]	; 9d5c <memcheck_on+0x74>
    9d2c:	e59f3038 	ldr	r3, [pc, #56]	; 9d6c <memcheck_on+0x84>
    9d30:	eb0001d6 	bl	a490 <printk>
    9d34:	eb000365 	bl	aad0 <clean_reboot>
    9d38:	e59f0030 	ldr	r0, [pc, #48]	; 9d70 <memcheck_on+0x88>
    9d3c:	e59f1014 	ldr	r1, [pc, #20]	; 9d58 <memcheck_on+0x70>
    9d40:	e59f2014 	ldr	r2, [pc, #20]	; 9d5c <memcheck_on+0x74>
    9d44:	e59f3028 	ldr	r3, [pc, #40]	; 9d74 <memcheck_on+0x8c>
    9d48:	eb0001d0 	bl	a490 <printk>
    9d4c:	e28dd00c 	add	sp, sp, #12
    9d50:	e49df004 	pop	{pc}		; (ldr pc, [sp], #4)
    9d54:	0000c124 	andeq	ip, r0, r4, lsr #2
    9d58:	0000bce4 	andeq	fp, r0, r4, ror #25
    9d5c:	0000c224 	andeq	ip, r0, r4, lsr #4
    9d60:	0000011e 	andeq	r0, r0, lr, lsl r1
    9d64:	0000c14c 	andeq	ip, r0, ip, asr #2
    9d68:	0000b338 	andeq	fp, r0, r8, lsr r3
    9d6c:	00000121 	andeq	r0, r0, r1, lsr #2
    9d70:	0000c160 	andeq	ip, r0, r0, ror #2
    9d74:	00000122 	andeq	r0, r0, r2, lsr #2

00009d78 <memcheck_off>:
    9d78:	e52de004 	push	{lr}		; (str lr, [sp, #-4]!)
    9d7c:	e24dd00c 	sub	sp, sp, #12
    9d80:	ebfffb2c 	bl	8a38 <mmu_disable>
    9d84:	ebfff97a 	bl	8374 <mmu_is_enabled>
    9d88:	e3500000 	cmp	r0, #0
    9d8c:	0a000008 	beq	9db4 <memcheck_off+0x3c>
    9d90:	eb0001d9 	bl	a4fc <rpi_reset_putc>
    9d94:	e59f3034 	ldr	r3, [pc, #52]	; 9dd0 <memcheck_off+0x58>
    9d98:	e58d3000 	str	r3, [sp]
    9d9c:	e59f0030 	ldr	r0, [pc, #48]	; 9dd4 <memcheck_off+0x5c>
    9da0:	e59f1030 	ldr	r1, [pc, #48]	; 9dd8 <memcheck_off+0x60>
    9da4:	e59f2030 	ldr	r2, [pc, #48]	; 9ddc <memcheck_off+0x64>
    9da8:	e59f3030 	ldr	r3, [pc, #48]	; 9de0 <memcheck_off+0x68>
    9dac:	eb0001b7 	bl	a490 <printk>
    9db0:	eb000346 	bl	aad0 <clean_reboot>
    9db4:	e59f0028 	ldr	r0, [pc, #40]	; 9de4 <memcheck_off+0x6c>
    9db8:	e59f1018 	ldr	r1, [pc, #24]	; 9dd8 <memcheck_off+0x60>
    9dbc:	e59f2018 	ldr	r2, [pc, #24]	; 9ddc <memcheck_off+0x64>
    9dc0:	e59f3020 	ldr	r3, [pc, #32]	; 9de8 <memcheck_off+0x70>
    9dc4:	eb0001b1 	bl	a490 <printk>
    9dc8:	e28dd00c 	add	sp, sp, #12
    9dcc:	e49df004 	pop	{pc}		; (ldr pc, [sp], #4)
    9dd0:	0000b368 	andeq	fp, r0, r8, ror #6
    9dd4:	0000b338 	andeq	fp, r0, r8, lsr r3
    9dd8:	0000bce4 	andeq	fp, r0, r4, ror #25
    9ddc:	0000c230 	andeq	ip, r0, r0, lsr r2
    9de0:	00000129 	andeq	r0, r0, r9, lsr #2
    9de4:	0000c178 	andeq	ip, r0, r8, ror r1
    9de8:	0000012a 	andeq	r0, r0, sl, lsr #2

00009dec <memcheck_map>:
    9dec:	e52de004 	push	{lr}		; (str lr, [sp, #-4]!)
    9df0:	e24dd00c 	sub	sp, sp, #12
    9df4:	e1a02000 	mov	r2, r0
    9df8:	e3c034ff 	bic	r3, r0, #-16777216	; 0xff000000
    9dfc:	e3d3160f 	bics	r1, r3, #15728640	; 0xf00000
    9e00:	0a000008 	beq	9e28 <memcheck_map+0x3c>
    9e04:	eb0001bc 	bl	a4fc <rpi_reset_putc>
    9e08:	e59f3038 	ldr	r3, [pc, #56]	; 9e48 <memcheck_map+0x5c>
    9e0c:	e58d3000 	str	r3, [sp]
    9e10:	e59f0034 	ldr	r0, [pc, #52]	; 9e4c <memcheck_map+0x60>
    9e14:	e59f1034 	ldr	r1, [pc, #52]	; 9e50 <memcheck_map+0x64>
    9e18:	e59f2034 	ldr	r2, [pc, #52]	; 9e54 <memcheck_map+0x68>
    9e1c:	e59f3034 	ldr	r3, [pc, #52]	; 9e58 <memcheck_map+0x6c>
    9e20:	eb00019a 	bl	a490 <printk>
    9e24:	eb000329 	bl	aad0 <clean_reboot>
    9e28:	e59f302c 	ldr	r3, [pc, #44]	; 9e5c <memcheck_map+0x70>
    9e2c:	e5930000 	ldr	r0, [r3]
    9e30:	e1a01002 	mov	r1, r2
    9e34:	e2822601 	add	r2, r2, #1048576	; 0x100000
    9e38:	e3a03001 	mov	r3, #1
    9e3c:	ebfff9cc 	bl	8574 <mmu_map_section>
    9e40:	e28dd00c 	add	sp, sp, #12
    9e44:	e49df004 	pop	{pc}		; (ldr pc, [sp], #4)
    9e48:	0000c190 	muleq	r0, r0, r1
    9e4c:	0000b338 	andeq	fp, r0, r8, lsr r3
    9e50:	0000bce4 	andeq	fp, r0, r4, ror #25
    9e54:	0000c240 	andeq	ip, r0, r0, asr #4
    9e58:	0000012e 	andeq	r0, r0, lr, lsr #2
    9e5c:	0000c624 	andeq	ip, r0, r4, lsr #12

00009e60 <memcheck_track>:
    9e60:	e52de004 	push	{lr}		; (str lr, [sp, #-4]!)
    9e64:	e24dd00c 	sub	sp, sp, #12
    9e68:	e1a02000 	mov	r2, r0
    9e6c:	e3c034ff 	bic	r3, r0, #-16777216	; 0xff000000
    9e70:	e3d3160f 	bics	r1, r3, #15728640	; 0xf00000
    9e74:	0a000008 	beq	9e9c <memcheck_track+0x3c>
    9e78:	eb00019f 	bl	a4fc <rpi_reset_putc>
    9e7c:	e59f3038 	ldr	r3, [pc, #56]	; 9ebc <memcheck_track+0x5c>
    9e80:	e58d3000 	str	r3, [sp]
    9e84:	e59f0034 	ldr	r0, [pc, #52]	; 9ec0 <memcheck_track+0x60>
    9e88:	e59f1034 	ldr	r1, [pc, #52]	; 9ec4 <memcheck_track+0x64>
    9e8c:	e59f2034 	ldr	r2, [pc, #52]	; 9ec8 <memcheck_track+0x68>
    9e90:	e59f3034 	ldr	r3, [pc, #52]	; 9ecc <memcheck_track+0x6c>
    9e94:	eb00017d 	bl	a490 <printk>
    9e98:	eb00030c 	bl	aad0 <clean_reboot>
    9e9c:	e59f302c 	ldr	r3, [pc, #44]	; 9ed0 <memcheck_track+0x70>
    9ea0:	e5930000 	ldr	r0, [r3]
    9ea4:	e1a01002 	mov	r1, r2
    9ea8:	e2822601 	add	r2, r2, #1048576	; 0x100000
    9eac:	e3a03002 	mov	r3, #2
    9eb0:	ebfff9af 	bl	8574 <mmu_map_section>
    9eb4:	e28dd00c 	add	sp, sp, #12
    9eb8:	e49df004 	pop	{pc}		; (ldr pc, [sp], #4)
    9ebc:	0000c190 	muleq	r0, r0, r1
    9ec0:	0000b338 	andeq	fp, r0, r8, lsr r3
    9ec4:	0000bce4 	andeq	fp, r0, r4, ror #25
    9ec8:	0000c250 	andeq	ip, r0, r0, asr r2
    9ecc:	00000135 	andeq	r0, r0, r5, lsr r1
    9ed0:	0000c624 	andeq	ip, r0, r4, lsr #12

00009ed4 <memcheck_no_access>:
    9ed4:	e92d4008 	push	{r3, lr}
    9ed8:	e1a01a20 	lsr	r1, r0, #20
    9edc:	e59f3010 	ldr	r3, [pc, #16]	; 9ef4 <memcheck_no_access+0x20>
    9ee0:	e5930000 	ldr	r0, [r3]
    9ee4:	e1a01a01 	lsl	r1, r1, #20
    9ee8:	e3a02001 	mov	r2, #1
    9eec:	ebfff976 	bl	84cc <mmu_mark_sec_no_access>
    9ef0:	e8bd8008 	pop	{r3, pc}
    9ef4:	0000c624 	andeq	ip, r0, r4, lsr #12

00009ef8 <memcheck_trap_enabled>:
    9ef8:	e92d4008 	push	{r3, lr}
    9efc:	e3a00002 	mov	r0, #2
    9f00:	ebfffde0 	bl	9688 <dom_perm_get>
    9f04:	e2700001 	rsbs	r0, r0, #1
    9f08:	33a00000 	movcc	r0, #0
    9f0c:	e8bd8008 	pop	{r3, pc}

00009f10 <memcheck_trap_disable>:
    9f10:	e52de004 	push	{lr}		; (str lr, [sp, #-4]!)
    9f14:	e24dd00c 	sub	sp, sp, #12
    9f18:	e3a00002 	mov	r0, #2
    9f1c:	e3a01001 	mov	r1, #1
    9f20:	ebfffe01 	bl	972c <dom_perm_set>
    9f24:	ebfffff3 	bl	9ef8 <memcheck_trap_enabled>
    9f28:	e3500000 	cmp	r0, #0
    9f2c:	0a000008 	beq	9f54 <memcheck_trap_disable+0x44>
    9f30:	eb000171 	bl	a4fc <rpi_reset_putc>
    9f34:	e59f3020 	ldr	r3, [pc, #32]	; 9f5c <memcheck_trap_disable+0x4c>
    9f38:	e58d3000 	str	r3, [sp]
    9f3c:	e59f001c 	ldr	r0, [pc, #28]	; 9f60 <memcheck_trap_disable+0x50>
    9f40:	e59f101c 	ldr	r1, [pc, #28]	; 9f64 <memcheck_trap_disable+0x54>
    9f44:	e59f201c 	ldr	r2, [pc, #28]	; 9f68 <memcheck_trap_disable+0x58>
    9f48:	e59f301c 	ldr	r3, [pc, #28]	; 9f6c <memcheck_trap_disable+0x5c>
    9f4c:	eb00014f 	bl	a490 <printk>
    9f50:	eb0002de 	bl	aad0 <clean_reboot>
    9f54:	e28dd00c 	add	sp, sp, #12
    9f58:	e49df004 	pop	{pc}		; (ldr pc, [sp], #4)
    9f5c:	0000c1a8 	andeq	ip, r0, r8, lsr #3
    9f60:	0000b338 	andeq	fp, r0, r8, lsr r3
    9f64:	0000bce4 	andeq	fp, r0, r4, ror #25
    9f68:	0000c26c 	andeq	ip, r0, ip, ror #4
    9f6c:	0000014a 	andeq	r0, r0, sl, asr #2

00009f70 <memcheck_trap_enable>:
    9f70:	e52de004 	push	{lr}		; (str lr, [sp, #-4]!)
    9f74:	e24dd00c 	sub	sp, sp, #12
    9f78:	e3a00002 	mov	r0, #2
    9f7c:	e3a01000 	mov	r1, #0
    9f80:	ebfffde9 	bl	972c <dom_perm_set>
    9f84:	ebffffdb 	bl	9ef8 <memcheck_trap_enabled>
    9f88:	e3500000 	cmp	r0, #0
    9f8c:	1a000008 	bne	9fb4 <memcheck_trap_enable+0x44>
    9f90:	eb000159 	bl	a4fc <rpi_reset_putc>
    9f94:	e59f3020 	ldr	r3, [pc, #32]	; 9fbc <memcheck_trap_enable+0x4c>
    9f98:	e58d3000 	str	r3, [sp]
    9f9c:	e59f001c 	ldr	r0, [pc, #28]	; 9fc0 <memcheck_trap_enable+0x50>
    9fa0:	e59f101c 	ldr	r1, [pc, #28]	; 9fc4 <memcheck_trap_enable+0x54>
    9fa4:	e59f201c 	ldr	r2, [pc, #28]	; 9fc8 <memcheck_trap_enable+0x58>
    9fa8:	e59f301c 	ldr	r3, [pc, #28]	; 9fcc <memcheck_trap_enable+0x5c>
    9fac:	eb000137 	bl	a490 <printk>
    9fb0:	eb0002c6 	bl	aad0 <clean_reboot>
    9fb4:	e28dd00c 	add	sp, sp, #12
    9fb8:	e49df004 	pop	{pc}		; (ldr pc, [sp], #4)
    9fbc:	0000c1c4 	andeq	ip, r0, r4, asr #3
    9fc0:	0000b338 	andeq	fp, r0, r8, lsr r3
    9fc4:	0000bce4 	andeq	fp, r0, r4, ror #25
    9fc8:	0000c294 	muleq	r0, r4, r2
    9fcc:	0000014e 	andeq	r0, r0, lr, asr #2

00009fd0 <memcheck_fn>:
    9fd0:	e92d4010 	push	{r4, lr}
    9fd4:	e1a04000 	mov	r4, r0
    9fd8:	eb00031b 	bl	ac4c <int_init>
    9fdc:	e12fff34 	blx	r4
    9fe0:	e59f0000 	ldr	r0, [pc]	; 9fe8 <memcheck_fn+0x18>
    9fe4:	e8bd8010 	pop	{r4, pc}
    9fe8:	12345678 	eorsne	r5, r4, #120, 12	; 0x7800000

00009fec <cp15_sync>:
    9fec:	e3a02000 	mov	r2, #0
    9ff0:	ee072fd5 	mcr	15, 0, r2, cr7, cr5, {6}
    9ff4:	ee072f9a 	mcr	15, 0, r2, cr7, cr10, {4}
    9ff8:	ee072f95 	mcr	15, 0, r2, cr7, cr5, {4}
    9ffc:	e12fff1e 	bx	lr

0000a000 <cp15_barrier>:
    a000:	e3a02000 	mov	r2, #0
    a004:	ee072f9a 	mcr	15, 0, r2, cr7, cr10, {4}
    a008:	ee072f95 	mcr	15, 0, r2, cr7, cr5, {4}
    a00c:	e12fff1e 	bx	lr

0000a010 <cp15_ttbr0_rd>:
    a010:	ee120f10 	mrc	15, 0, r0, cr2, cr0, {0}
    a014:	e12fff1e 	bx	lr

0000a018 <cp15_ttbr1_rd>:
    a018:	ee120f30 	mrc	15, 0, r0, cr2, cr0, {1}
    a01c:	e12fff1e 	bx	lr

0000a020 <cp15_ttbr_ctrl_rd>:
    a020:	ee120f50 	mrc	15, 0, r0, cr2, cr0, {2}
    a024:	e12fff1e 	bx	lr

0000a028 <cp15_domain_ctrl_rd>:
    a028:	ee130f10 	mrc	15, 0, r0, cr3, cr0, {0}
    a02c:	e12fff1e 	bx	lr

0000a030 <cp15_cache_type_rd>:
    a030:	ee100f30 	mrc	15, 0, r0, cr0, cr0, {1}
    a034:	e12fff1e 	bx	lr

0000a038 <cp15_tlb_config_rd>:
    a038:	ee100f70 	mrc	15, 0, r0, cr0, cr0, {3}
    a03c:	e12fff1e 	bx	lr

0000a040 <cp15_ctrl_reg1_rd>:
    a040:	ee110f10 	mrc	15, 0, r0, cr1, cr0, {0}
    a044:	e12fff1e 	bx	lr

0000a048 <cp15_ctrl_reg1_rd_u32>:
    a048:	ee110f10 	mrc	15, 0, r0, cr1, cr0, {0}
    a04c:	e12fff1e 	bx	lr

0000a050 <cp15_procid_rd>:
    a050:	ee1d0f30 	mrc	15, 0, r0, cr13, cr0, {1}
    a054:	e12fff1e 	bx	lr

0000a058 <cp15_dsb>:
    a058:	e3a02000 	mov	r2, #0
    a05c:	ee072f9a 	mcr	15, 0, r2, cr7, cr10, {4}
    a060:	e12fff1e 	bx	lr

0000a064 <cp15_dmb>:
    a064:	e3a02000 	mov	r2, #0
    a068:	ee072fba 	mcr	15, 0, r2, cr7, cr10, {5}
    a06c:	e12fff1e 	bx	lr

0000a070 <cp15_prefetch_flush>:
    a070:	e3a02000 	mov	r2, #0
    a074:	ee072f95 	mcr	15, 0, r2, cr7, cr5, {4}
    a078:	e12fff1e 	bx	lr

0000a07c <cp15_btb_flush>:
    a07c:	e3a02000 	mov	r2, #0
    a080:	ee072fd5 	mcr	15, 0, r2, cr7, cr5, {6}
    a084:	e12fff1e 	bx	lr

0000a088 <cp15_caches_inv>:
    a088:	e3a00000 	mov	r0, #0
    a08c:	ee070f15 	mcr	15, 0, r0, cr7, cr5, {0}
    a090:	ee070f15 	mcr	15, 0, r0, cr7, cr5, {0}
    a094:	ee070f15 	mcr	15, 0, r0, cr7, cr5, {0}
    a098:	ee070f15 	mcr	15, 0, r0, cr7, cr5, {0}
    a09c:	e320f000 	nop	{0}
    a0a0:	e320f000 	nop	{0}
    a0a4:	e320f000 	nop	{0}
    a0a8:	e320f000 	nop	{0}
    a0ac:	e320f000 	nop	{0}
    a0b0:	e320f000 	nop	{0}
    a0b4:	e320f000 	nop	{0}
    a0b8:	e320f000 	nop	{0}
    a0bc:	e320f000 	nop	{0}
    a0c0:	e320f000 	nop	{0}
    a0c4:	e320f000 	nop	{0}
    a0c8:	ee070f16 	mcr	15, 0, r0, cr7, cr6, {0}
    a0cc:	ee070f9a 	mcr	15, 0, r0, cr7, cr10, {4}
    a0d0:	ee070fd5 	mcr	15, 0, r0, cr7, cr5, {6}
    a0d4:	ee070f9a 	mcr	15, 0, r0, cr7, cr10, {4}
    a0d8:	ee070f95 	mcr	15, 0, r0, cr7, cr5, {4}
    a0dc:	e12fff1e 	bx	lr

0000a0e0 <cp15_dcache_clean_inv>:
    a0e0:	e3a00000 	mov	r0, #0
    a0e4:	ee070f1e 	mcr	15, 0, r0, cr7, cr14, {0}
    a0e8:	ee070f9a 	mcr	15, 0, r0, cr7, cr10, {4}
    a0ec:	ee070fd5 	mcr	15, 0, r0, cr7, cr5, {6}
    a0f0:	ee070f9a 	mcr	15, 0, r0, cr7, cr10, {4}
    a0f4:	ee070f95 	mcr	15, 0, r0, cr7, cr5, {4}
    a0f8:	e12fff1e 	bx	lr

0000a0fc <cp15_icache_inv>:
    a0fc:	e3a00000 	mov	r0, #0
    a100:	ee070f15 	mcr	15, 0, r0, cr7, cr5, {0}
    a104:	ee070f15 	mcr	15, 0, r0, cr7, cr5, {0}
    a108:	ee070f15 	mcr	15, 0, r0, cr7, cr5, {0}
    a10c:	ee070f15 	mcr	15, 0, r0, cr7, cr5, {0}
    a110:	e320f000 	nop	{0}
    a114:	e320f000 	nop	{0}
    a118:	e320f000 	nop	{0}
    a11c:	e320f000 	nop	{0}
    a120:	e320f000 	nop	{0}
    a124:	e320f000 	nop	{0}
    a128:	e320f000 	nop	{0}
    a12c:	e320f000 	nop	{0}
    a130:	e320f000 	nop	{0}
    a134:	e320f000 	nop	{0}
    a138:	e320f000 	nop	{0}
    a13c:	ee070f9a 	mcr	15, 0, r0, cr7, cr10, {4}
    a140:	ee070fd5 	mcr	15, 0, r0, cr7, cr5, {6}
    a144:	ee070f9a 	mcr	15, 0, r0, cr7, cr10, {4}
    a148:	ee070f95 	mcr	15, 0, r0, cr7, cr5, {4}
    a14c:	e12fff1e 	bx	lr

0000a150 <cp15_itlb_inv>:
    a150:	e3a00000 	mov	r0, #0
    a154:	ee080f15 	mcr	15, 0, r0, cr8, cr5, {0}
    a158:	ee070f9a 	mcr	15, 0, r0, cr7, cr10, {4}
    a15c:	ee070fd5 	mcr	15, 0, r0, cr7, cr5, {6}
    a160:	ee070f9a 	mcr	15, 0, r0, cr7, cr10, {4}
    a164:	ee070f95 	mcr	15, 0, r0, cr7, cr5, {4}
    a168:	e12fff1e 	bx	lr

0000a16c <cp15_dtlb_inv>:
    a16c:	e3a00000 	mov	r0, #0
    a170:	ee080f16 	mcr	15, 0, r0, cr8, cr6, {0}
    a174:	ee070f9a 	mcr	15, 0, r0, cr7, cr10, {4}
    a178:	ee070fd5 	mcr	15, 0, r0, cr7, cr5, {6}
    a17c:	ee070f9a 	mcr	15, 0, r0, cr7, cr10, {4}
    a180:	ee070f95 	mcr	15, 0, r0, cr7, cr5, {4}
    a184:	e12fff1e 	bx	lr

0000a188 <cp15_tlbs_inv>:
    a188:	e3a00000 	mov	r0, #0
    a18c:	ee080f17 	mcr	15, 0, r0, cr8, cr7, {0}
    a190:	ee070f9a 	mcr	15, 0, r0, cr7, cr10, {4}
    a194:	ee070fd5 	mcr	15, 0, r0, cr7, cr5, {6}
    a198:	ee070f9a 	mcr	15, 0, r0, cr7, cr10, {4}
    a19c:	ee070f95 	mcr	15, 0, r0, cr7, cr5, {4}
    a1a0:	e12fff1e 	bx	lr

0000a1a4 <cp15_ttbr0_wr>:
    a1a4:	e3a01000 	mov	r1, #0
    a1a8:	ee020f10 	mcr	15, 0, r0, cr2, cr0, {0}
    a1ac:	ee071f9a 	mcr	15, 0, r1, cr7, cr10, {4}
    a1b0:	ee071fd5 	mcr	15, 0, r1, cr7, cr5, {6}
    a1b4:	ee071f9a 	mcr	15, 0, r1, cr7, cr10, {4}
    a1b8:	ee071f95 	mcr	15, 0, r1, cr7, cr5, {4}
    a1bc:	e12fff1e 	bx	lr

0000a1c0 <cp15_ttbr1_wr>:
    a1c0:	e3a01000 	mov	r1, #0
    a1c4:	ee020f10 	mcr	15, 0, r0, cr2, cr0, {0}
    a1c8:	ee071f9a 	mcr	15, 0, r1, cr7, cr10, {4}
    a1cc:	ee071fd5 	mcr	15, 0, r1, cr7, cr5, {6}
    a1d0:	ee071f9a 	mcr	15, 0, r1, cr7, cr10, {4}
    a1d4:	ee071f95 	mcr	15, 0, r1, cr7, cr5, {4}
    a1d8:	e12fff1e 	bx	lr

0000a1dc <cp15_ttbr_ctrl_wr>:
    a1dc:	e3a01000 	mov	r1, #0
    a1e0:	ee020f50 	mcr	15, 0, r0, cr2, cr0, {2}
    a1e4:	ee071f9a 	mcr	15, 0, r1, cr7, cr10, {4}
    a1e8:	ee071fd5 	mcr	15, 0, r1, cr7, cr5, {6}
    a1ec:	ee071f9a 	mcr	15, 0, r1, cr7, cr10, {4}
    a1f0:	ee071f95 	mcr	15, 0, r1, cr7, cr5, {4}
    a1f4:	e12fff1e 	bx	lr

0000a1f8 <our_cp15_domain_ctrl_wr>:
    a1f8:	e3a01000 	mov	r1, #0
    a1fc:	ee030f10 	mcr	15, 0, r0, cr3, cr0, {0}
    a200:	ee071f9a 	mcr	15, 0, r1, cr7, cr10, {4}
    a204:	ee071fd5 	mcr	15, 0, r1, cr7, cr5, {6}
    a208:	ee071f9a 	mcr	15, 0, r1, cr7, cr10, {4}
    a20c:	ee071f95 	mcr	15, 0, r1, cr7, cr5, {4}
    a210:	e12fff1e 	bx	lr

0000a214 <cp15_ctrl_reg1_wr>:
    a214:	e3a01000 	mov	r1, #0
    a218:	ee010f10 	mcr	15, 0, r0, cr1, cr0, {0}
    a21c:	ee071f9a 	mcr	15, 0, r1, cr7, cr10, {4}
    a220:	ee071fd5 	mcr	15, 0, r1, cr7, cr5, {6}
    a224:	ee071f9a 	mcr	15, 0, r1, cr7, cr10, {4}
    a228:	ee071f95 	mcr	15, 0, r1, cr7, cr5, {4}
    a22c:	e12fff1e 	bx	lr

0000a230 <our_mmu_sync_pte_mods>:
    a230:	e3a02000 	mov	r2, #0
    a234:	ee072f1e 	mcr	15, 0, r2, cr7, cr14, {0}
    a238:	ee072f9a 	mcr	15, 0, r2, cr7, cr10, {4}
    a23c:	ee082f17 	mcr	15, 0, r2, cr8, cr7, {0}
    a240:	ee072fd5 	mcr	15, 0, r2, cr7, cr5, {6}
    a244:	ee072f9a 	mcr	15, 0, r2, cr7, cr10, {4}
    a248:	ee072f95 	mcr	15, 0, r2, cr7, cr5, {4}
    a24c:	e12fff1e 	bx	lr

0000a250 <our_cp15_set_procid_ttbr0>:
    a250:	e3a02000 	mov	r2, #0
    a254:	ee072f9a 	mcr	15, 0, r2, cr7, cr10, {4}
    a258:	ee0d2f30 	mcr	15, 0, r2, cr13, cr0, {1}
    a25c:	ee072f95 	mcr	15, 0, r2, cr7, cr5, {4}
    a260:	ee021f10 	mcr	15, 0, r1, cr2, cr0, {0}
    a264:	ee022f30 	mcr	15, 0, r2, cr2, cr0, {1}
    a268:	ee072f95 	mcr	15, 0, r2, cr7, cr5, {4}
    a26c:	ee0d0f30 	mcr	15, 0, r0, cr13, cr0, {1}
    a270:	ee072f9a 	mcr	15, 0, r2, cr7, cr10, {4}
    a274:	e12fff1e 	bx	lr

0000a278 <our_mmu_reset>:
    a278:	e3a00000 	mov	r0, #0
    a27c:	e3a00000 	mov	r0, #0
    a280:	ee070f16 	mcr	15, 0, r0, cr7, cr6, {0}
    a284:	ee070f15 	mcr	15, 0, r0, cr7, cr5, {0}
    a288:	ee070f15 	mcr	15, 0, r0, cr7, cr5, {0}
    a28c:	ee070f15 	mcr	15, 0, r0, cr7, cr5, {0}
    a290:	ee070f15 	mcr	15, 0, r0, cr7, cr5, {0}
    a294:	e320f000 	nop	{0}
    a298:	e320f000 	nop	{0}
    a29c:	e320f000 	nop	{0}
    a2a0:	e320f000 	nop	{0}
    a2a4:	e320f000 	nop	{0}
    a2a8:	e320f000 	nop	{0}
    a2ac:	e320f000 	nop	{0}
    a2b0:	e320f000 	nop	{0}
    a2b4:	e320f000 	nop	{0}
    a2b8:	e320f000 	nop	{0}
    a2bc:	e320f000 	nop	{0}
    a2c0:	ee080f17 	mcr	15, 0, r0, cr8, cr7, {0}
    a2c4:	ee070f9a 	mcr	15, 0, r0, cr7, cr10, {4}
    a2c8:	ee070f9a 	mcr	15, 0, r0, cr7, cr10, {4}
    a2cc:	ee070fd5 	mcr	15, 0, r0, cr7, cr5, {6}
    a2d0:	ee070f9a 	mcr	15, 0, r0, cr7, cr10, {4}
    a2d4:	ee070f95 	mcr	15, 0, r0, cr7, cr5, {4}
    a2d8:	e12fff1e 	bx	lr

0000a2dc <our_mmu_enable_set_asm>:
    a2dc:	e3a01000 	mov	r1, #0
    a2e0:	ee071f9a 	mcr	15, 0, r1, cr7, cr10, {4}
    a2e4:	ee010f10 	mcr	15, 0, r0, cr1, cr0, {0}
    a2e8:	ee071f9a 	mcr	15, 0, r1, cr7, cr10, {4}
    a2ec:	ee071fd5 	mcr	15, 0, r1, cr7, cr5, {6}
    a2f0:	ee071f9a 	mcr	15, 0, r1, cr7, cr10, {4}
    a2f4:	ee071f95 	mcr	15, 0, r1, cr7, cr5, {4}
    a2f8:	e12fff1e 	bx	lr

0000a2fc <our_mmu_disable_set_asm>:
    a2fc:	e3a01000 	mov	r1, #0
    a300:	ee071f9a 	mcr	15, 0, r1, cr7, cr10, {4}
    a304:	ee071f1e 	mcr	15, 0, r1, cr7, cr14, {0}
    a308:	ee071f9a 	mcr	15, 0, r1, cr7, cr10, {4}
    a30c:	ee071f95 	mcr	15, 0, r1, cr7, cr5, {4}
    a310:	ee112f10 	mrc	15, 0, r2, cr1, cr0, {0}
    a314:	e3c22004 	bic	r2, r2, #4
    a318:	ee012f10 	mcr	15, 0, r2, cr1, cr0, {0}
    a31c:	ee071f9a 	mcr	15, 0, r1, cr7, cr10, {4}
    a320:	ee071f95 	mcr	15, 0, r1, cr7, cr5, {4}
    a324:	ee010f10 	mcr	15, 0, r0, cr1, cr0, {0}
    a328:	ee071f9a 	mcr	15, 0, r1, cr7, cr10, {4}
    a32c:	ee071f95 	mcr	15, 0, r1, cr7, cr5, {4}
    a330:	ee071f15 	mcr	15, 0, r1, cr7, cr5, {0}
    a334:	ee071f15 	mcr	15, 0, r1, cr7, cr5, {0}
    a338:	ee071f15 	mcr	15, 0, r1, cr7, cr5, {0}
    a33c:	ee071f15 	mcr	15, 0, r1, cr7, cr5, {0}
    a340:	e320f000 	nop	{0}
    a344:	e320f000 	nop	{0}
    a348:	e320f000 	nop	{0}
    a34c:	e320f000 	nop	{0}
    a350:	e320f000 	nop	{0}
    a354:	e320f000 	nop	{0}
    a358:	e320f000 	nop	{0}
    a35c:	e320f000 	nop	{0}
    a360:	e320f000 	nop	{0}
    a364:	e320f000 	nop	{0}
    a368:	e320f000 	nop	{0}
    a36c:	ee071f9a 	mcr	15, 0, r1, cr7, cr10, {4}
    a370:	ee071fd5 	mcr	15, 0, r1, cr7, cr5, {6}
    a374:	ee071f9a 	mcr	15, 0, r1, cr7, cr10, {4}
    a378:	ee071f95 	mcr	15, 0, r1, cr7, cr5, {4}
    a37c:	e12fff1e 	bx	lr

0000a380 <fast_hash>:
    a380:	e52d4004 	push	{r4}		; (str r4, [sp, #-4]!)
    a384:	e1a02001 	mov	r2, r1
    a388:	e1a03000 	mov	r3, r0
    a38c:	e3500000 	cmp	r0, #0
    a390:	13510000 	cmpne	r1, #0
    a394:	da000032 	ble	a464 <fast_hash+0xe4>
    a398:	e2014003 	and	r4, r1, #3
    a39c:	e1a01141 	asr	r1, r1, #2
    a3a0:	ea00000b 	b	a3d4 <fast_hash+0x54>
    a3a4:	e5d3c001 	ldrb	ip, [r3, #1]
    a3a8:	e5d30000 	ldrb	r0, [r3]
    a3ac:	e080040c 	add	r0, r0, ip, lsl #8
    a3b0:	e0800002 	add	r0, r0, r2
    a3b4:	e5d3c003 	ldrb	ip, [r3, #3]
    a3b8:	e5d32002 	ldrb	r2, [r3, #2]
    a3bc:	e082240c 	add	r2, r2, ip, lsl #8
    a3c0:	e0202582 	eor	r2, r0, r2, lsl #11
    a3c4:	e0222800 	eor	r2, r2, r0, lsl #16
    a3c8:	e2833004 	add	r3, r3, #4
    a3cc:	e08225a2 	add	r2, r2, r2, lsr #11
    a3d0:	e2411001 	sub	r1, r1, #1
    a3d4:	e3510000 	cmp	r1, #0
    a3d8:	cafffff1 	bgt	a3a4 <fast_hash+0x24>
    a3dc:	e3540002 	cmp	r4, #2
    a3e0:	0a00000d 	beq	a41c <fast_hash+0x9c>
    a3e4:	e3540003 	cmp	r4, #3
    a3e8:	0a000002 	beq	a3f8 <fast_hash+0x78>
    a3ec:	e3540001 	cmp	r4, #1
    a3f0:	1a000014 	bne	a448 <fast_hash+0xc8>
    a3f4:	ea00000f 	b	a438 <fast_hash+0xb8>
    a3f8:	e5d30001 	ldrb	r0, [r3, #1]
    a3fc:	e5d31000 	ldrb	r1, [r3]
    a400:	e0811400 	add	r1, r1, r0, lsl #8
    a404:	e0812002 	add	r2, r1, r2
    a408:	e0222802 	eor	r2, r2, r2, lsl #16
    a40c:	e1d330d2 	ldrsb	r3, [r3, #2]
    a410:	e0222903 	eor	r2, r2, r3, lsl #18
    a414:	e08225a2 	add	r2, r2, r2, lsr #11
    a418:	ea00000a 	b	a448 <fast_hash+0xc8>
    a41c:	e5d31001 	ldrb	r1, [r3, #1]
    a420:	e5d33000 	ldrb	r3, [r3]
    a424:	e0833401 	add	r3, r3, r1, lsl #8
    a428:	e0832002 	add	r2, r3, r2
    a42c:	e0222582 	eor	r2, r2, r2, lsl #11
    a430:	e08228a2 	add	r2, r2, r2, lsr #17
    a434:	ea000003 	b	a448 <fast_hash+0xc8>
    a438:	e1d330d0 	ldrsb	r3, [r3]
    a43c:	e0832002 	add	r2, r3, r2
    a440:	e0222502 	eor	r2, r2, r2, lsl #10
    a444:	e08220a2 	add	r2, r2, r2, lsr #1
    a448:	e0220182 	eor	r0, r2, r2, lsl #3
    a44c:	e08002a0 	add	r0, r0, r0, lsr #5
    a450:	e0200200 	eor	r0, r0, r0, lsl #4
    a454:	e08008a0 	add	r0, r0, r0, lsr #17
    a458:	e0200c80 	eor	r0, r0, r0, lsl #25
    a45c:	e0800320 	add	r0, r0, r0, lsr #6
    a460:	ea000000 	b	a468 <fast_hash+0xe8>
    a464:	e3a00000 	mov	r0, #0
    a468:	e49d4004 	pop	{r4}		; (ldr r4, [sp], #4)
    a46c:	e12fff1e 	bx	lr

0000a470 <memset>:
    a470:	e0802002 	add	r2, r0, r2
    a474:	e1a03000 	mov	r3, r0
    a478:	ea000001 	b	a484 <memset+0x14>
    a47c:	e5c31000 	strb	r1, [r3]
    a480:	e2833001 	add	r3, r3, #1
    a484:	e1530002 	cmp	r3, r2
    a488:	3afffffb 	bcc	a47c <memset+0xc>
    a48c:	e12fff1e 	bx	lr

0000a490 <printk>:
    a490:	e92d000f 	push	{r0, r1, r2, r3}
    a494:	e92d4030 	push	{r4, r5, lr}
    a498:	e24dd00c 	sub	sp, sp, #12
    a49c:	e28d301c 	add	r3, sp, #28
    a4a0:	e58d3004 	str	r3, [sp, #4]
    a4a4:	e59f4034 	ldr	r4, [pc, #52]	; a4e0 <printk+0x50>
    a4a8:	e1a00004 	mov	r0, r4
    a4ac:	e3a01b01 	mov	r1, #1024	; 0x400
    a4b0:	e59d2018 	ldr	r2, [sp, #24]
    a4b4:	eb0000d0 	bl	a7fc <va_printk>
    a4b8:	e1a05000 	mov	r5, r0
    a4bc:	e59f3020 	ldr	r3, [pc, #32]	; a4e4 <printk+0x54>
    a4c0:	e5933000 	ldr	r3, [r3]
    a4c4:	e1a00004 	mov	r0, r4
    a4c8:	e12fff33 	blx	r3
    a4cc:	e1a00005 	mov	r0, r5
    a4d0:	e28dd00c 	add	sp, sp, #12
    a4d4:	e8bd4030 	pop	{r4, r5, lr}
    a4d8:	e28dd010 	add	sp, sp, #16
    a4dc:	e12fff1e 	bx	lr
    a4e0:	0000c628 	andeq	ip, r0, r8, lsr #12
    a4e4:	0000b29c 	muleq	r0, ip, r2

0000a4e8 <internal_putchar>:
    a4e8:	e92d4010 	push	{r4, lr}
    a4ec:	e1a04000 	mov	r4, r0
    a4f0:	eb00029a 	bl	af60 <uart_putc>
    a4f4:	e1a00004 	mov	r0, r4
    a4f8:	e8bd8010 	pop	{r4, pc}

0000a4fc <rpi_reset_putc>:
    a4fc:	e59f2008 	ldr	r2, [pc, #8]	; a50c <rpi_reset_putc+0x10>
    a500:	e59f3008 	ldr	r3, [pc, #8]	; a510 <rpi_reset_putc+0x14>
    a504:	e5832000 	str	r2, [r3]
    a508:	e12fff1e 	bx	lr
    a50c:	0000a4e8 	andeq	sl, r0, r8, ror #9
    a510:	0000b298 	muleq	r0, r8, r2

0000a514 <rpi_set_putc>:
    a514:	e59f3004 	ldr	r3, [pc, #4]	; a520 <rpi_set_putc+0xc>
    a518:	e5830000 	str	r0, [r3]
    a51c:	e12fff1e 	bx	lr
    a520:	0000b298 	muleq	r0, r8, r2

0000a524 <internal_putk>:
    a524:	e92d4038 	push	{r3, r4, r5, lr}
    a528:	e1a04000 	mov	r4, r0
    a52c:	e59f5020 	ldr	r5, [pc, #32]	; a554 <internal_putk+0x30>
    a530:	ea000002 	b	a540 <internal_putk+0x1c>
    a534:	e5953000 	ldr	r3, [r5]
    a538:	e12fff33 	blx	r3
    a53c:	e2844001 	add	r4, r4, #1
    a540:	e5d40000 	ldrb	r0, [r4]
    a544:	e3500000 	cmp	r0, #0
    a548:	1afffff9 	bne	a534 <internal_putk+0x10>
    a54c:	e3a00001 	mov	r0, #1
    a550:	e8bd8038 	pop	{r3, r4, r5, pc}
    a554:	0000b298 	muleq	r0, r8, r2

0000a558 <isdigit>:
    a558:	e2400030 	sub	r0, r0, #48	; 0x30
    a55c:	e3500009 	cmp	r0, #9
    a560:	83a00000 	movhi	r0, #0
    a564:	93a00001 	movls	r0, #1
    a568:	e12fff1e 	bx	lr

0000a56c <pad>:
    a56c:	e0611000 	rsb	r1, r1, r0
    a570:	e3a03020 	mov	r3, #32
    a574:	ea000002 	b	a584 <pad+0x18>
    a578:	e5c03000 	strb	r3, [r0]
    a57c:	e2811001 	add	r1, r1, #1
    a580:	e2800001 	add	r0, r0, #1
    a584:	e1510002 	cmp	r1, r2
    a588:	bafffffa 	blt	a578 <pad+0xc>
    a58c:	e3a03000 	mov	r3, #0
    a590:	e5c03000 	strb	r3, [r0]
    a594:	e12fff1e 	bx	lr

0000a598 <reverse>:
    a598:	e063c002 	rsb	ip, r3, r2
    a59c:	e28cc001 	add	ip, ip, #1
    a5a0:	e15c0001 	cmp	ip, r1
    a5a4:	c061100c 	rsbgt	r1, r1, ip
    a5a8:	c0833001 	addgt	r3, r3, r1
    a5ac:	e2422001 	sub	r2, r2, #1
    a5b0:	e1a01000 	mov	r1, r0
    a5b4:	ea000002 	b	a5c4 <reverse+0x2c>
    a5b8:	e452c001 	ldrb	ip, [r2], #-1
    a5bc:	e5c1c000 	strb	ip, [r1]
    a5c0:	e2811001 	add	r1, r1, #1
    a5c4:	e1520003 	cmp	r2, r3
    a5c8:	2afffffa 	bcs	a5b8 <reverse+0x20>
    a5cc:	e3a03000 	mov	r3, #0
    a5d0:	e5c13000 	strb	r3, [r1]
    a5d4:	e12fff1e 	bx	lr

0000a5d8 <emit>:
    a5d8:	e92d41f0 	push	{r4, r5, r6, r7, r8, lr}
    a5dc:	e24dd048 	sub	sp, sp, #72	; 0x48
    a5e0:	e1a05001 	mov	r5, r1
    a5e4:	e1a04002 	mov	r4, r2
    a5e8:	e59d2060 	ldr	r2, [sp, #96]	; 0x60
    a5ec:	e1520004 	cmp	r2, r4
    a5f0:	c2442001 	subgt	r2, r4, #1
    a5f4:	e1a0c003 	mov	ip, r3
    a5f8:	e2400002 	sub	r0, r0, #2
    a5fc:	e350000e 	cmp	r0, #14
    a600:	979ff100 	ldrls	pc, [pc, r0, lsl #2]
    a604:	ea000048 	b	a72c <emit+0x154>
    a608:	0000a704 	andeq	sl, r0, r4, lsl #14
    a60c:	0000a72c 	andeq	sl, r0, ip, lsr #14
    a610:	0000a72c 	andeq	sl, r0, ip, lsr #14
    a614:	0000a72c 	andeq	sl, r0, ip, lsr #14
    a618:	0000a72c 	andeq	sl, r0, ip, lsr #14
    a61c:	0000a72c 	andeq	sl, r0, ip, lsr #14
    a620:	0000a6f8 	strdeq	sl, [r0], -r8
    a624:	0000a72c 	andeq	sl, r0, ip, lsr #14
    a628:	0000a644 	andeq	sl, r0, r4, asr #12
    a62c:	0000a72c 	andeq	sl, r0, ip, lsr #14
    a630:	0000a72c 	andeq	sl, r0, ip, lsr #14
    a634:	0000a72c 	andeq	sl, r0, ip, lsr #14
    a638:	0000a72c 	andeq	sl, r0, ip, lsr #14
    a63c:	0000a72c 	andeq	sl, r0, ip, lsr #14
    a640:	0000a6b8 			; <UNDEFINED> instruction: 0x0000a6b8
    a644:	e59d1064 	ldr	r1, [sp, #100]	; 0x64
    a648:	e2911000 	adds	r1, r1, #0
    a64c:	13a01001 	movne	r1, #1
    a650:	e0111fa3 	ands	r1, r1, r3, lsr #31
    a654:	1263c000 	rsbne	ip, r3, #0
    a658:	13a08001 	movne	r8, #1
    a65c:	03a08000 	moveq	r8, #0
    a660:	e28d1008 	add	r1, sp, #8
    a664:	e59f7108 	ldr	r7, [pc, #264]	; a774 <emit+0x19c>
    a668:	e59f6108 	ldr	r6, [pc, #264]	; a778 <emit+0x1a0>
    a66c:	ea000000 	b	a674 <emit+0x9c>
    a670:	e1a01000 	mov	r1, r0
    a674:	e2810001 	add	r0, r1, #1
    a678:	e083ec97 	umull	lr, r3, r7, ip
    a67c:	e1a031a3 	lsr	r3, r3, #3
    a680:	e1a0e003 	mov	lr, r3
    a684:	e0833103 	add	r3, r3, r3, lsl #2
    a688:	e1a03083 	lsl	r3, r3, #1
    a68c:	e063300c 	rsb	r3, r3, ip
    a690:	e7d63003 	ldrb	r3, [r6, r3]
    a694:	e5c13000 	strb	r3, [r1]
    a698:	e1a0c00e 	mov	ip, lr
    a69c:	e35e0000 	cmp	lr, #0
    a6a0:	1afffff2 	bne	a670 <emit+0x98>
    a6a4:	e3580000 	cmp	r8, #0
    a6a8:	12810002 	addne	r0, r1, #2
    a6ac:	13a0302d 	movne	r3, #45	; 0x2d
    a6b0:	15c13001 	strbne	r3, [r1, #1]
    a6b4:	ea000025 	b	a750 <emit+0x178>
    a6b8:	e28d3008 	add	r3, sp, #8
    a6bc:	e59fe0b8 	ldr	lr, [pc, #184]	; a77c <emit+0x1a4>
    a6c0:	ea000000 	b	a6c8 <emit+0xf0>
    a6c4:	e1a03000 	mov	r3, r0
    a6c8:	e2830001 	add	r0, r3, #1
    a6cc:	e20c100f 	and	r1, ip, #15
    a6d0:	e7de1001 	ldrb	r1, [lr, r1]
    a6d4:	e5c31000 	strb	r1, [r3]
    a6d8:	e1b0c22c 	lsrs	ip, ip, #4
    a6dc:	1afffff8 	bne	a6c4 <emit+0xec>
    a6e0:	e3a01078 	mov	r1, #120	; 0x78
    a6e4:	e5c31001 	strb	r1, [r3, #1]
    a6e8:	e2830003 	add	r0, r3, #3
    a6ec:	e3a01030 	mov	r1, #48	; 0x30
    a6f0:	e5c31002 	strb	r1, [r3, #2]
    a6f4:	ea000015 	b	a750 <emit+0x178>
    a6f8:	e5cd3008 	strb	r3, [sp, #8]
    a6fc:	e28d0009 	add	r0, sp, #9
    a700:	ea000012 	b	a750 <emit+0x178>
    a704:	e28d3008 	add	r3, sp, #8
    a708:	e59fe070 	ldr	lr, [pc, #112]	; a780 <emit+0x1a8>
    a70c:	e2830001 	add	r0, r3, #1
    a710:	e20c1001 	and	r1, ip, #1
    a714:	e7de1001 	ldrb	r1, [lr, r1]
    a718:	e5c31000 	strb	r1, [r3]
    a71c:	e1a03000 	mov	r3, r0
    a720:	e1b0c0ac 	lsrs	ip, ip, #1
    a724:	1afffff8 	bne	a70c <emit+0x134>
    a728:	ea000008 	b	a750 <emit+0x178>
    a72c:	ebffff72 	bl	a4fc <rpi_reset_putc>
    a730:	e59f304c 	ldr	r3, [pc, #76]	; a784 <emit+0x1ac>
    a734:	e58d3000 	str	r3, [sp]
    a738:	e59f0048 	ldr	r0, [pc, #72]	; a788 <emit+0x1b0>
    a73c:	e59f1048 	ldr	r1, [pc, #72]	; a78c <emit+0x1b4>
    a740:	e59f2048 	ldr	r2, [pc, #72]	; a790 <emit+0x1b8>
    a744:	e3a03077 	mov	r3, #119	; 0x77
    a748:	ebffff50 	bl	a490 <printk>
    a74c:	eb0000df 	bl	aad0 <clean_reboot>
    a750:	e28d1008 	add	r1, sp, #8
    a754:	ebffff84 	bl	a56c <pad>
    a758:	e1a02000 	mov	r2, r0
    a75c:	e1a00005 	mov	r0, r5
    a760:	e1a01004 	mov	r1, r4
    a764:	e28d3008 	add	r3, sp, #8
    a768:	ebffff8a 	bl	a598 <reverse>
    a76c:	e28dd048 	add	sp, sp, #72	; 0x48
    a770:	e8bd81f0 	pop	{r4, r5, r6, r7, r8, pc}
    a774:	cccccccd 	stclgt	12, cr12, [ip], {205}	; 0xcd
    a778:	0000c2e4 	andeq	ip, r0, r4, ror #5
    a77c:	0000c2f0 	strdeq	ip, [r0], -r0
    a780:	0000c304 	andeq	ip, r0, r4, lsl #6
    a784:	0000ba68 	andeq	fp, r0, r8, ror #20
    a788:	0000b338 	andeq	fp, r0, r8, lsr r3
    a78c:	0000c2d0 	ldrdeq	ip, [r0], -r0
    a790:	0000c2ac 	andeq	ip, r0, ip, lsr #5

0000a794 <rpi_set_output>:
    a794:	e52de004 	push	{lr}		; (str lr, [sp, #-4]!)
    a798:	e24dd00c 	sub	sp, sp, #12
    a79c:	e3500000 	cmp	r0, #0
    a7a0:	1a000008 	bne	a7c8 <rpi_set_output+0x34>
    a7a4:	ebffff54 	bl	a4fc <rpi_reset_putc>
    a7a8:	e59f3034 	ldr	r3, [pc, #52]	; a7e4 <rpi_set_output+0x50>
    a7ac:	e58d3000 	str	r3, [sp]
    a7b0:	e59f0030 	ldr	r0, [pc, #48]	; a7e8 <rpi_set_output+0x54>
    a7b4:	e59f1030 	ldr	r1, [pc, #48]	; a7ec <rpi_set_output+0x58>
    a7b8:	e59f2030 	ldr	r2, [pc, #48]	; a7f0 <rpi_set_output+0x5c>
    a7bc:	e3a03020 	mov	r3, #32
    a7c0:	ebffff32 	bl	a490 <printk>
    a7c4:	eb0000c1 	bl	aad0 <clean_reboot>
    a7c8:	e59f3024 	ldr	r3, [pc, #36]	; a7f4 <rpi_set_output+0x60>
    a7cc:	e5830000 	str	r0, [r3]
    a7d0:	e3510000 	cmp	r1, #0
    a7d4:	159f301c 	ldrne	r3, [pc, #28]	; a7f8 <rpi_set_output+0x64>
    a7d8:	15831000 	strne	r1, [r3]
    a7dc:	e28dd00c 	add	sp, sp, #12
    a7e0:	e49df004 	pop	{pc}		; (ldr pc, [sp], #4)
    a7e4:	0000c308 	andeq	ip, r0, r8, lsl #6
    a7e8:	0000b338 	andeq	fp, r0, r8, lsr r3
    a7ec:	0000c2d0 	ldrdeq	ip, [r0], -r0
    a7f0:	0000c2b4 			; <UNDEFINED> instruction: 0x0000c2b4
    a7f4:	0000b298 	muleq	r0, r8, r2
    a7f8:	0000b29c 	muleq	r0, ip, r2

0000a7fc <va_printk>:
    a7fc:	e92d4ff0 	push	{r4, r5, r6, r7, r8, r9, sl, fp, lr}
    a800:	e24dd094 	sub	sp, sp, #148	; 0x94
    a804:	e1a0b000 	mov	fp, r0
    a808:	e58d200c 	str	r2, [sp, #12]
    a80c:	e1a0a003 	mov	sl, r3
    a810:	e2411001 	sub	r1, r1, #1
    a814:	e0808001 	add	r8, r0, r1
    a818:	e3a03000 	mov	r3, #0
    a81c:	e5c03000 	strb	r3, [r0]
    a820:	e1a04000 	mov	r4, r0
    a824:	e1a06002 	mov	r6, r2
    a828:	ea000095 	b	aa84 <va_printk+0x288>
    a82c:	e3530025 	cmp	r3, #37	; 0x25
    a830:	12866001 	addne	r6, r6, #1
    a834:	15c43000 	strbne	r3, [r4]
    a838:	12844001 	addne	r4, r4, #1
    a83c:	1a000090 	bne	aa84 <va_printk+0x288>
    a840:	e5d62001 	ldrb	r2, [r6, #1]
    a844:	e3520025 	cmp	r2, #37	; 0x25
    a848:	05c43000 	strbeq	r3, [r4]
    a84c:	02866002 	addeq	r6, r6, #2
    a850:	02844001 	addeq	r4, r4, #1
    a854:	0a00008a 	beq	aa84 <va_printk+0x288>
    a858:	e2866001 	add	r6, r6, #1
    a85c:	e3a07000 	mov	r7, #0
    a860:	ea000004 	b	a878 <va_printk+0x7c>
    a864:	e0877107 	add	r7, r7, r7, lsl #2
    a868:	e1a07087 	lsl	r7, r7, #1
    a86c:	e0877005 	add	r7, r7, r5
    a870:	e2477030 	sub	r7, r7, #48	; 0x30
    a874:	e2866001 	add	r6, r6, #1
    a878:	e5d65000 	ldrb	r5, [r6]
    a87c:	e1a09005 	mov	r9, r5
    a880:	e1a00005 	mov	r0, r5
    a884:	ebffff33 	bl	a558 <isdigit>
    a888:	e3500000 	cmp	r0, #0
    a88c:	1afffff4 	bne	a864 <va_printk+0x68>
    a890:	e357001f 	cmp	r7, #31
    a894:	9a000008 	bls	a8bc <va_printk+0xc0>
    a898:	ebffff17 	bl	a4fc <rpi_reset_putc>
    a89c:	e59f320c 	ldr	r3, [pc, #524]	; aab0 <va_printk+0x2b4>
    a8a0:	e58d3000 	str	r3, [sp]
    a8a4:	e59f0208 	ldr	r0, [pc, #520]	; aab4 <va_printk+0x2b8>
    a8a8:	e59f1208 	ldr	r1, [pc, #520]	; aab8 <va_printk+0x2bc>
    a8ac:	e59f2208 	ldr	r2, [pc, #520]	; aabc <va_printk+0x2c0>
    a8b0:	e3a03095 	mov	r3, #149	; 0x95
    a8b4:	ebfffef5 	bl	a490 <printk>
    a8b8:	eb000084 	bl	aad0 <clean_reboot>
    a8bc:	e2455062 	sub	r5, r5, #98	; 0x62
    a8c0:	e3550016 	cmp	r5, #22
    a8c4:	979ff105 	ldrls	pc, [pc, r5, lsl #2]
    a8c8:	ea000052 	b	aa18 <va_printk+0x21c>
    a8cc:	0000a9bc 			; <UNDEFINED> instruction: 0x0000a9bc
    a8d0:	0000a9f0 	strdeq	sl, [r0], -r0
    a8d4:	0000a944 	andeq	sl, r0, r4, asr #18
    a8d8:	0000aa18 	andeq	sl, r0, r8, lsl sl
    a8dc:	0000a928 	andeq	sl, r0, r8, lsr #18
    a8e0:	0000aa18 	andeq	sl, r0, r8, lsl sl
    a8e4:	0000aa18 	andeq	sl, r0, r8, lsl sl
    a8e8:	0000aa18 	andeq	sl, r0, r8, lsl sl
    a8ec:	0000aa18 	andeq	sl, r0, r8, lsl sl
    a8f0:	0000aa18 	andeq	sl, r0, r8, lsl sl
    a8f4:	0000aa18 	andeq	sl, r0, r8, lsl sl
    a8f8:	0000aa18 	andeq	sl, r0, r8, lsl sl
    a8fc:	0000aa18 	andeq	sl, r0, r8, lsl sl
    a900:	0000aa18 	andeq	sl, r0, r8, lsl sl
    a904:	0000a994 	muleq	r0, r4, r9
    a908:	0000aa18 	andeq	sl, r0, r8, lsl sl
    a90c:	0000aa18 	andeq	sl, r0, r8, lsl sl
    a910:	0000a9e4 	andeq	sl, r0, r4, ror #19
    a914:	0000aa18 	andeq	sl, r0, r8, lsl sl
    a918:	0000a96c 	andeq	sl, r0, ip, ror #18
    a91c:	0000aa18 	andeq	sl, r0, r8, lsl sl
    a920:	0000aa18 	andeq	sl, r0, r8, lsl sl
    a924:	0000a994 	muleq	r0, r4, r9
    a928:	ebfffef3 	bl	a4fc <rpi_reset_putc>
    a92c:	e59f018c 	ldr	r0, [pc, #396]	; aac0 <va_printk+0x2c4>
    a930:	e59f1180 	ldr	r1, [pc, #384]	; aab8 <va_printk+0x2bc>
    a934:	e59f2180 	ldr	r2, [pc, #384]	; aabc <va_printk+0x2c0>
    a938:	e3a0309b 	mov	r3, #155	; 0x9b
    a93c:	ebfffed3 	bl	a490 <printk>
    a940:	eb000062 	bl	aad0 <clean_reboot>
    a944:	e59a3000 	ldr	r3, [sl]
    a948:	e28aa004 	add	sl, sl, #4
    a94c:	e58d7000 	str	r7, [sp]
    a950:	e3a02001 	mov	r2, #1
    a954:	e58d2004 	str	r2, [sp, #4]
    a958:	e3a0000a 	mov	r0, #10
    a95c:	e28d1010 	add	r1, sp, #16
    a960:	e3a02080 	mov	r2, #128	; 0x80
    a964:	ebffff1b 	bl	a5d8 <emit>
    a968:	ea00003b 	b	aa5c <va_printk+0x260>
    a96c:	e59a3000 	ldr	r3, [sl]
    a970:	e28aa004 	add	sl, sl, #4
    a974:	e58d7000 	str	r7, [sp]
    a978:	e3a02000 	mov	r2, #0
    a97c:	e58d2004 	str	r2, [sp, #4]
    a980:	e3a0000a 	mov	r0, #10
    a984:	e28d1010 	add	r1, sp, #16
    a988:	e3a02080 	mov	r2, #128	; 0x80
    a98c:	ebffff11 	bl	a5d8 <emit>
    a990:	ea000031 	b	aa5c <va_printk+0x260>
    a994:	e59a3000 	ldr	r3, [sl]
    a998:	e28aa004 	add	sl, sl, #4
    a99c:	e58d7000 	str	r7, [sp]
    a9a0:	e3a02000 	mov	r2, #0
    a9a4:	e58d2004 	str	r2, [sp, #4]
    a9a8:	e3a00010 	mov	r0, #16
    a9ac:	e08d1000 	add	r1, sp, r0
    a9b0:	e3a02080 	mov	r2, #128	; 0x80
    a9b4:	ebffff07 	bl	a5d8 <emit>
    a9b8:	ea000027 	b	aa5c <va_printk+0x260>
    a9bc:	e59a3000 	ldr	r3, [sl]
    a9c0:	e28aa004 	add	sl, sl, #4
    a9c4:	e58d7000 	str	r7, [sp]
    a9c8:	e3a02000 	mov	r2, #0
    a9cc:	e58d2004 	str	r2, [sp, #4]
    a9d0:	e3a00002 	mov	r0, #2
    a9d4:	e28d1010 	add	r1, sp, #16
    a9d8:	e3a02080 	mov	r2, #128	; 0x80
    a9dc:	ebfffefd 	bl	a5d8 <emit>
    a9e0:	ea00001d 	b	aa5c <va_printk+0x260>
    a9e4:	e59a0000 	ldr	r0, [sl]
    a9e8:	e28aa004 	add	sl, sl, #4
    a9ec:	ea00001a 	b	aa5c <va_printk+0x260>
    a9f0:	e59a3000 	ldr	r3, [sl]
    a9f4:	e28aa004 	add	sl, sl, #4
    a9f8:	e58d7000 	str	r7, [sp]
    a9fc:	e3a02000 	mov	r2, #0
    aa00:	e58d2004 	str	r2, [sp, #4]
    aa04:	e3a00008 	mov	r0, #8
    aa08:	e28d1010 	add	r1, sp, #16
    aa0c:	e3a02080 	mov	r2, #128	; 0x80
    aa10:	ebfffef0 	bl	a5d8 <emit>
    aa14:	ea000010 	b	aa5c <va_printk+0x260>
    aa18:	e3a03000 	mov	r3, #0
    aa1c:	e5c63001 	strb	r3, [r6, #1]
    aa20:	e59f009c 	ldr	r0, [pc, #156]	; aac4 <va_printk+0x2c8>
    aa24:	e1a01009 	mov	r1, r9
    aa28:	e1a02009 	mov	r2, r9
    aa2c:	ebfffe97 	bl	a490 <printk>
    aa30:	e59f3090 	ldr	r3, [pc, #144]	; aac8 <va_printk+0x2cc>
    aa34:	e5933000 	ldr	r3, [r3]
    aa38:	e59d000c 	ldr	r0, [sp, #12]
    aa3c:	e12fff33 	blx	r3
    aa40:	ebfffead 	bl	a4fc <rpi_reset_putc>
    aa44:	e59f0080 	ldr	r0, [pc, #128]	; aacc <va_printk+0x2d0>
    aa48:	e59f1068 	ldr	r1, [pc, #104]	; aab8 <va_printk+0x2bc>
    aa4c:	e59f2068 	ldr	r2, [pc, #104]	; aabc <va_printk+0x2c0>
    aa50:	e3a030bf 	mov	r3, #191	; 0xbf
    aa54:	ebfffe8d 	bl	a490 <printk>
    aa58:	eb00001c 	bl	aad0 <clean_reboot>
    aa5c:	e2866001 	add	r6, r6, #1
    aa60:	ea000002 	b	aa70 <va_printk+0x274>
    aa64:	e2800001 	add	r0, r0, #1
    aa68:	e5c43000 	strb	r3, [r4]
    aa6c:	e2844001 	add	r4, r4, #1
    aa70:	e1540008 	cmp	r4, r8
    aa74:	2a000002 	bcs	aa84 <va_printk+0x288>
    aa78:	e5d03000 	ldrb	r3, [r0]
    aa7c:	e3530000 	cmp	r3, #0
    aa80:	1afffff7 	bne	aa64 <va_printk+0x268>
    aa84:	e5d63000 	ldrb	r3, [r6]
    aa88:	e3530000 	cmp	r3, #0
    aa8c:	0a000001 	beq	aa98 <va_printk+0x29c>
    aa90:	e1540008 	cmp	r4, r8
    aa94:	3affff64 	bcc	a82c <va_printk+0x30>
    aa98:	e2840001 	add	r0, r4, #1
    aa9c:	e3a03000 	mov	r3, #0
    aaa0:	e5c43000 	strb	r3, [r4]
    aaa4:	e06b0000 	rsb	r0, fp, r0
    aaa8:	e28dd094 	add	sp, sp, #148	; 0x94
    aaac:	e8bd8ff0 	pop	{r4, r5, r6, r7, r8, r9, sl, fp, pc}
    aab0:	0000c310 	andeq	ip, r0, r0, lsl r3
    aab4:	0000b338 	andeq	fp, r0, r8, lsr r3
    aab8:	0000c2d0 	ldrdeq	ip, [r0], -r0
    aabc:	0000c2c4 	andeq	ip, r0, r4, asr #5
    aac0:	0000c31c 	andeq	ip, r0, ip, lsl r3
    aac4:	0000c344 	andeq	ip, r0, r4, asr #6
    aac8:	0000b29c 	muleq	r0, ip, r2
    aacc:	0000c374 	andeq	ip, r0, r4, ror r3

0000aad0 <clean_reboot>:
    aad0:	e92d4008 	push	{r3, lr}
    aad4:	eb00005b 	bl	ac48 <reboot_handler>
    aad8:	e59f3014 	ldr	r3, [pc, #20]	; aaf4 <clean_reboot+0x24>
    aadc:	e5933000 	ldr	r3, [r3]
    aae0:	e59f0010 	ldr	r0, [pc, #16]	; aaf8 <clean_reboot+0x28>
    aae4:	e12fff33 	blx	r3
    aae8:	e3a00064 	mov	r0, #100	; 0x64
    aaec:	eb0000aa 	bl	ad9c <delay_ms>
    aaf0:	eb00007b 	bl	ace4 <rpi_reboot>
    aaf4:	0000b29c 	muleq	r0, ip, r2
    aaf8:	0000c394 	muleq	r0, r4, r3

0000aafc <_cstart>:
    aafc:	e92d4008 	push	{r3, lr}
    ab00:	e59f3024 	ldr	r3, [pc, #36]	; ab2c <_cstart+0x30>
    ab04:	e59f2024 	ldr	r2, [pc, #36]	; ab30 <_cstart+0x34>
    ab08:	e3a01000 	mov	r1, #0
    ab0c:	ea000001 	b	ab18 <_cstart+0x1c>
    ab10:	e5831000 	str	r1, [r3]
    ab14:	e2833004 	add	r3, r3, #4
    ab18:	e1530002 	cmp	r3, r2
    ab1c:	3afffffb 	bcc	ab10 <_cstart+0x14>
    ab20:	eb000047 	bl	ac44 <cstart_handler>
    ab24:	ebfff572 	bl	80f4 <notmain>
    ab28:	ebffffe8 	bl	aad0 <clean_reboot>
    ab2c:	0000c60c 	andeq	ip, r0, ip, lsl #12
    ab30:	0000ca28 	andeq	ip, r0, r8, lsr #20

0000ab34 <fast_interrupt_vector>:
    ab34:	e52de004 	push	{lr}		; (str lr, [sp, #-4]!)
    ab38:	e24dd00c 	sub	sp, sp, #12
    ab3c:	e1a04000 	mov	r4, r0
    ab40:	ebfffe6d 	bl	a4fc <rpi_reset_putc>
    ab44:	e59f301c 	ldr	r3, [pc, #28]	; ab68 <fast_interrupt_vector+0x34>
    ab48:	e58d3000 	str	r3, [sp]
    ab4c:	e58d4004 	str	r4, [sp, #4]
    ab50:	e59f0014 	ldr	r0, [pc, #20]	; ab6c <fast_interrupt_vector+0x38>
    ab54:	e59f1014 	ldr	r1, [pc, #20]	; ab70 <fast_interrupt_vector+0x3c>
    ab58:	e59f2014 	ldr	r2, [pc, #20]	; ab74 <fast_interrupt_vector+0x40>
    ab5c:	e3a03002 	mov	r3, #2
    ab60:	ebfffe4a 	bl	a490 <printk>
    ab64:	ebffffd9 	bl	aad0 <clean_reboot>
    ab68:	0000c418 	andeq	ip, r0, r8, lsl r4
    ab6c:	0000c3b8 			; <UNDEFINED> instruction: 0x0000c3b8
    ab70:	0000c3f4 	strdeq	ip, [r0], -r4
    ab74:	0000c3a0 	andeq	ip, r0, r0, lsr #7

0000ab78 <prefetch_abort_vector>:
    ab78:	e52de004 	push	{lr}		; (str lr, [sp, #-4]!)
    ab7c:	e24dd00c 	sub	sp, sp, #12
    ab80:	e1a04000 	mov	r4, r0
    ab84:	ebfffe5c 	bl	a4fc <rpi_reset_putc>
    ab88:	e59f301c 	ldr	r3, [pc, #28]	; abac <prefetch_abort_vector+0x34>
    ab8c:	e58d3000 	str	r3, [sp]
    ab90:	e58d4004 	str	r4, [sp, #4]
    ab94:	e59f0014 	ldr	r0, [pc, #20]	; abb0 <prefetch_abort_vector+0x38>
    ab98:	e59f1014 	ldr	r1, [pc, #20]	; abb4 <prefetch_abort_vector+0x3c>
    ab9c:	e59f2014 	ldr	r2, [pc, #20]	; abb8 <prefetch_abort_vector+0x40>
    aba0:	e3a03002 	mov	r3, #2
    aba4:	ebfffe39 	bl	a490 <printk>
    aba8:	ebffffc8 	bl	aad0 <clean_reboot>
    abac:	0000c460 	andeq	ip, r0, r0, ror #8
    abb0:	0000c3b8 			; <UNDEFINED> instruction: 0x0000c3b8
    abb4:	0000c438 	andeq	ip, r0, r8, lsr r4
    abb8:	0000c420 	andeq	ip, r0, r0, lsr #8

0000abbc <reset_vector>:
    abbc:	e52de004 	push	{lr}		; (str lr, [sp, #-4]!)
    abc0:	e24dd00c 	sub	sp, sp, #12
    abc4:	e1a04000 	mov	r4, r0
    abc8:	ebfffe4b 	bl	a4fc <rpi_reset_putc>
    abcc:	e59f301c 	ldr	r3, [pc, #28]	; abf0 <reset_vector+0x34>
    abd0:	e58d3000 	str	r3, [sp]
    abd4:	e58d4004 	str	r4, [sp, #4]
    abd8:	e59f0014 	ldr	r0, [pc, #20]	; abf4 <reset_vector+0x38>
    abdc:	e59f1014 	ldr	r1, [pc, #20]	; abf8 <reset_vector+0x3c>
    abe0:	e59f2014 	ldr	r2, [pc, #20]	; abfc <reset_vector+0x40>
    abe4:	e3a03002 	mov	r3, #2
    abe8:	ebfffe28 	bl	a490 <printk>
    abec:	ebffffb7 	bl	aad0 <clean_reboot>
    abf0:	0000c4a4 	andeq	ip, r0, r4, lsr #9
    abf4:	0000c3b8 			; <UNDEFINED> instruction: 0x0000c3b8
    abf8:	0000c480 	andeq	ip, r0, r0, lsl #9
    abfc:	0000c470 	andeq	ip, r0, r0, ror r4

0000ac00 <undefined_instruction_vector>:
    ac00:	e52de004 	push	{lr}		; (str lr, [sp, #-4]!)
    ac04:	e24dd00c 	sub	sp, sp, #12
    ac08:	e1a04000 	mov	r4, r0
    ac0c:	ebfffe3a 	bl	a4fc <rpi_reset_putc>
    ac10:	e59f301c 	ldr	r3, [pc, #28]	; ac34 <undefined_instruction_vector+0x34>
    ac14:	e58d3000 	str	r3, [sp]
    ac18:	e58d4004 	str	r4, [sp, #4]
    ac1c:	e59f0014 	ldr	r0, [pc, #20]	; ac38 <undefined_instruction_vector+0x38>
    ac20:	e59f1014 	ldr	r1, [pc, #20]	; ac3c <undefined_instruction_vector+0x3c>
    ac24:	e59f2014 	ldr	r2, [pc, #20]	; ac40 <undefined_instruction_vector+0x40>
    ac28:	e3a03002 	mov	r3, #2
    ac2c:	ebfffe17 	bl	a490 <printk>
    ac30:	ebffffa6 	bl	aad0 <clean_reboot>
    ac34:	0000c4f8 	strdeq	ip, [r0], -r8
    ac38:	0000c3b8 			; <UNDEFINED> instruction: 0x0000c3b8
    ac3c:	0000c4cc 	andeq	ip, r0, ip, asr #9
    ac40:	0000c4ac 	andeq	ip, r0, ip, lsr #9

0000ac44 <cstart_handler>:
    ac44:	e12fff1e 	bx	lr

0000ac48 <reboot_handler>:
    ac48:	e12fff1e 	bx	lr

0000ac4c <int_init>:
    ac4c:	e92d4008 	push	{r3, lr}
    ac50:	eb00005b 	bl	adc4 <dev_barrier>
    ac54:	e59f004c 	ldr	r0, [pc, #76]	; aca8 <int_init+0x5c>
    ac58:	e3e01000 	mvn	r1, #0
    ac5c:	eb000060 	bl	ade4 <PUT32>
    ac60:	e59f0044 	ldr	r0, [pc, #68]	; acac <int_init+0x60>
    ac64:	e3e01000 	mvn	r1, #0
    ac68:	eb00005d 	bl	ade4 <PUT32>
    ac6c:	eb000054 	bl	adc4 <dev_barrier>
    ac70:	e59f3038 	ldr	r3, [pc, #56]	; acb0 <int_init+0x64>
    ac74:	e59f0038 	ldr	r0, [pc, #56]	; acb4 <int_init+0x68>
    ac78:	e0630000 	rsb	r0, r3, r0
    ac7c:	e1a00140 	asr	r0, r0, #2
    ac80:	e3a03000 	mov	r3, #0
    ac84:	e59fc024 	ldr	ip, [pc, #36]	; acb0 <int_init+0x64>
    ac88:	ea000003 	b	ac9c <int_init+0x50>
    ac8c:	e1a02103 	lsl	r2, r3, #2
    ac90:	e79c1103 	ldr	r1, [ip, r3, lsl #2]
    ac94:	e5821000 	str	r1, [r2]
    ac98:	e2833001 	add	r3, r3, #1
    ac9c:	e1530000 	cmp	r3, r0
    aca0:	3afffff9 	bcc	ac8c <int_init+0x40>
    aca4:	e8bd8008 	pop	{r3, pc}
    aca8:	2000b21c 	andcs	fp, r0, ip, lsl r2
    acac:	2000b220 	andcs	fp, r0, r0, lsr #4
    acb0:	00008238 	andeq	r8, r0, r8, lsr r2
    acb4:	00008278 	andeq	r8, r0, r8, ror r2

0000acb8 <at_user_level>:
    acb8:	e10f0000 	mrs	r0, CPSR
    acbc:	e200001f 	and	r0, r0, #31
    acc0:	e3500010 	cmp	r0, #16
    acc4:	13a00000 	movne	r0, #0
    acc8:	03a00001 	moveq	r0, #1
    accc:	e12fff1e 	bx	lr

0000acd0 <set_user_level>:
    acd0:	e10f3000 	mrs	r3, CPSR
    acd4:	e3c3301f 	bic	r3, r3, #31
    acd8:	e3833010 	orr	r3, r3, #16
    acdc:	e129f003 	msr	CPSR_fc, r3
    ace0:	e12fff1e 	bx	lr

0000ace4 <rpi_reboot>:
    ace4:	e92d4008 	push	{r3, lr}
    ace8:	ebfffff2 	bl	acb8 <at_user_level>
    acec:	e3500000 	cmp	r0, #0
    acf0:	0a000000 	beq	acf8 <rpi_reboot+0x14>
    acf4:	ebfffff5 	bl	acd0 <set_user_level>
    acf8:	e3a0001e 	mov	r0, #30
    acfc:	eb000026 	bl	ad9c <delay_ms>
    ad00:	e59f0014 	ldr	r0, [pc, #20]	; ad1c <rpi_reboot+0x38>
    ad04:	e59f1014 	ldr	r1, [pc, #20]	; ad20 <rpi_reboot+0x3c>
    ad08:	eb000035 	bl	ade4 <PUT32>
    ad0c:	e59f0010 	ldr	r0, [pc, #16]	; ad24 <rpi_reboot+0x40>
    ad10:	e59f1010 	ldr	r1, [pc, #16]	; ad28 <rpi_reboot+0x44>
    ad14:	eb000032 	bl	ade4 <PUT32>
    ad18:	eafffffe 	b	ad18 <rpi_reboot+0x34>
    ad1c:	20100024 	andscs	r0, r0, r4, lsr #32
    ad20:	5a000001 	bpl	ad2c <delay_cycles>
    ad24:	2010001c 	andscs	r0, r0, ip, lsl r0
    ad28:	5a000020 	bpl	adb0 <delay_sec>

0000ad2c <delay_cycles>:
    ad2c:	ea000001 	b	ad38 <delay_cycles+0xc>
    ad30:	e2811000 	add	r1, r1, #0
    ad34:	e1a00003 	mov	r0, r3
    ad38:	e2403001 	sub	r3, r0, #1
    ad3c:	e3500000 	cmp	r0, #0
    ad40:	1afffffa 	bne	ad30 <delay_cycles+0x4>
    ad44:	e12fff1e 	bx	lr

0000ad48 <timer_get_usec_raw>:
    ad48:	e92d4008 	push	{r3, lr}
    ad4c:	e59f0004 	ldr	r0, [pc, #4]	; ad58 <timer_get_usec_raw+0x10>
    ad50:	eb00002f 	bl	ae14 <GET32>
    ad54:	e8bd8008 	pop	{r3, pc}
    ad58:	20003004 	andcs	r3, r0, r4

0000ad5c <timer_get_usec>:
    ad5c:	e92d4010 	push	{r4, lr}
    ad60:	eb000017 	bl	adc4 <dev_barrier>
    ad64:	ebfffff7 	bl	ad48 <timer_get_usec_raw>
    ad68:	e1a04000 	mov	r4, r0
    ad6c:	eb000014 	bl	adc4 <dev_barrier>
    ad70:	e1a00004 	mov	r0, r4
    ad74:	e8bd8010 	pop	{r4, pc}

0000ad78 <delay_us>:
    ad78:	e92d4038 	push	{r3, r4, r5, lr}
    ad7c:	e1a05000 	mov	r5, r0
    ad80:	ebfffff5 	bl	ad5c <timer_get_usec>
    ad84:	e1a04000 	mov	r4, r0
    ad88:	ebfffff3 	bl	ad5c <timer_get_usec>
    ad8c:	e0640000 	rsb	r0, r4, r0
    ad90:	e1500005 	cmp	r0, r5
    ad94:	3afffffb 	bcc	ad88 <delay_us+0x10>
    ad98:	e8bd8038 	pop	{r3, r4, r5, pc}

0000ad9c <delay_ms>:
    ad9c:	e92d4008 	push	{r3, lr}
    ada0:	e3a03ffa 	mov	r3, #1000	; 0x3e8
    ada4:	e0000093 	mul	r0, r3, r0
    ada8:	ebfffff2 	bl	ad78 <delay_us>
    adac:	e8bd8008 	pop	{r3, pc}

0000adb0 <delay_sec>:
    adb0:	e92d4008 	push	{r3, lr}
    adb4:	e3a03ffa 	mov	r3, #1000	; 0x3e8
    adb8:	e0000093 	mul	r0, r3, r0
    adbc:	ebfffff6 	bl	ad9c <delay_ms>
    adc0:	e8bd8008 	pop	{r3, pc}

0000adc4 <dev_barrier>:
    adc4:	ea000002 	b	add4 <dsb>

0000adc8 <dmb>:
    adc8:	e3a00000 	mov	r0, #0
    adcc:	ee070fba 	mcr	15, 0, r0, cr7, cr10, {5}
    add0:	e12fff1e 	bx	lr

0000add4 <dsb>:
    add4:	ee070f9a 	mcr	15, 0, r0, cr7, cr10, {4}
    add8:	e12fff1e 	bx	lr

0000addc <put32>:
    addc:	e5801000 	str	r1, [r0]
    ade0:	e12fff1e 	bx	lr

0000ade4 <PUT32>:
    ade4:	e5801000 	str	r1, [r0]
    ade8:	e12fff1e 	bx	lr

0000adec <put16>:
    adec:	e1c010b0 	strh	r1, [r0]
    adf0:	e12fff1e 	bx	lr

0000adf4 <PUT16>:
    adf4:	e1c010b0 	strh	r1, [r0]
    adf8:	e12fff1e 	bx	lr

0000adfc <put8>:
    adfc:	e5c01000 	strb	r1, [r0]
    ae00:	e12fff1e 	bx	lr

0000ae04 <PUT8>:
    ae04:	e5c01000 	strb	r1, [r0]
    ae08:	e12fff1e 	bx	lr

0000ae0c <get32>:
    ae0c:	e5900000 	ldr	r0, [r0]
    ae10:	e12fff1e 	bx	lr

0000ae14 <GET32>:
    ae14:	e5900000 	ldr	r0, [r0]
    ae18:	e12fff1e 	bx	lr

0000ae1c <GETPC>:
    ae1c:	e1a0000e 	mov	r0, lr
    ae20:	e12fff1e 	bx	lr

0000ae24 <dummy>:
    ae24:	e12fff1e 	bx	lr

0000ae28 <or_in32>:
    ae28:	e92d4070 	push	{r4, r5, r6, lr}
    ae2c:	e1a04000 	mov	r4, r0
    ae30:	e1a05001 	mov	r5, r1
    ae34:	ebfffff4 	bl	ae0c <get32>
    ae38:	e1801005 	orr	r1, r0, r5
    ae3c:	e1a00004 	mov	r0, r4
    ae40:	ebffffe5 	bl	addc <put32>
    ae44:	e8bd8070 	pop	{r4, r5, r6, pc}

0000ae48 <uart_init>:
    ae48:	e92d4010 	push	{r4, lr}
    ae4c:	e3a01002 	mov	r1, #2
    ae50:	e3a0000e 	mov	r0, #14
    ae54:	eb000051 	bl	afa0 <gpio_set_function>
    ae58:	e3a01002 	mov	r1, #2
    ae5c:	e3a0000f 	mov	r0, #15
    ae60:	eb00004e 	bl	afa0 <gpio_set_function>
    ae64:	ebffffd6 	bl	adc4 <dev_barrier>
    ae68:	e3a01001 	mov	r1, #1
    ae6c:	e59f0064 	ldr	r0, [pc, #100]	; aed8 <uart_init+0x90>
    ae70:	ebffffec 	bl	ae28 <or_in32>
    ae74:	ebffffd2 	bl	adc4 <dev_barrier>
    ae78:	e59f405c 	ldr	r4, [pc, #92]	; aedc <uart_init+0x94>
    ae7c:	e3a01000 	mov	r1, #0
    ae80:	e1a00004 	mov	r0, r4
    ae84:	ebffffd4 	bl	addc <put32>
    ae88:	e3a01000 	mov	r1, #0
    ae8c:	e59f004c 	ldr	r0, [pc, #76]	; aee0 <uart_init+0x98>
    ae90:	ebffffd1 	bl	addc <put32>
    ae94:	e3a01003 	mov	r1, #3
    ae98:	e59f0044 	ldr	r0, [pc, #68]	; aee4 <uart_init+0x9c>
    ae9c:	ebffffce 	bl	addc <put32>
    aea0:	e3a01000 	mov	r1, #0
    aea4:	e59f003c 	ldr	r0, [pc, #60]	; aee8 <uart_init+0xa0>
    aea8:	ebffffcb 	bl	addc <put32>
    aeac:	e3a010c7 	mov	r1, #199	; 0xc7
    aeb0:	e59f0034 	ldr	r0, [pc, #52]	; aeec <uart_init+0xa4>
    aeb4:	ebffffc8 	bl	addc <put32>
    aeb8:	e59f1030 	ldr	r1, [pc, #48]	; aef0 <uart_init+0xa8>
    aebc:	e59f0030 	ldr	r0, [pc, #48]	; aef4 <uart_init+0xac>
    aec0:	ebffffc5 	bl	addc <put32>
    aec4:	e3a01003 	mov	r1, #3
    aec8:	e1a00004 	mov	r0, r4
    aecc:	ebffffc2 	bl	addc <put32>
    aed0:	ebffffbb 	bl	adc4 <dev_barrier>
    aed4:	e8bd8010 	pop	{r4, pc}
    aed8:	20215004 	eorcs	r5, r1, r4
    aedc:	20215060 	eorcs	r5, r1, r0, rrx
    aee0:	20215044 	eorcs	r5, r1, r4, asr #32
    aee4:	2021504c 	eorcs	r5, r1, ip, asr #32
    aee8:	20215050 	eorcs	r5, r1, r0, asr r0
    aeec:	20215048 	eorcs	r5, r1, r8, asr #32
    aef0:	0000010e 	andeq	r0, r0, lr, lsl #2
    aef4:	20215068 	eorcs	r5, r1, r8, rrx

0000aef8 <uart_can_getc>:
    aef8:	e92d4010 	push	{r4, lr}
    aefc:	e59f0008 	ldr	r0, [pc, #8]	; af0c <uart_can_getc+0x14>
    af00:	ebffffc1 	bl	ae0c <get32>
    af04:	e2000001 	and	r0, r0, #1
    af08:	e8bd8010 	pop	{r4, pc}
    af0c:	20215064 	eorcs	r5, r1, r4, rrx

0000af10 <uart_can_putc>:
    af10:	e92d4010 	push	{r4, lr}
    af14:	e59f0010 	ldr	r0, [pc, #16]	; af2c <uart_can_putc+0x1c>
    af18:	ebffffbb 	bl	ae0c <get32>
    af1c:	e3100002 	tst	r0, #2
    af20:	13a00001 	movne	r0, #1
    af24:	03a00000 	moveq	r0, #0
    af28:	e8bd8010 	pop	{r4, pc}
    af2c:	20215064 	eorcs	r5, r1, r4, rrx

0000af30 <uart_getc>:
    af30:	e92d4010 	push	{r4, lr}
    af34:	ebffffa2 	bl	adc4 <dev_barrier>
    af38:	ebffffee 	bl	aef8 <uart_can_getc>
    af3c:	e3500000 	cmp	r0, #0
    af40:	0afffffc 	beq	af38 <uart_getc+0x8>
    af44:	e59f0010 	ldr	r0, [pc, #16]	; af5c <uart_getc+0x2c>
    af48:	ebffffaf 	bl	ae0c <get32>
    af4c:	e6ef4070 	uxtb	r4, r0
    af50:	ebffff9b 	bl	adc4 <dev_barrier>
    af54:	e1a00004 	mov	r0, r4
    af58:	e8bd8010 	pop	{r4, pc}
    af5c:	20215040 	eorcs	r5, r1, r0, asr #32

0000af60 <uart_putc>:
    af60:	e92d4010 	push	{r4, lr}
    af64:	e1a04000 	mov	r4, r0
    af68:	ebffff95 	bl	adc4 <dev_barrier>
    af6c:	ebffffe7 	bl	af10 <uart_can_putc>
    af70:	e3500000 	cmp	r0, #0
    af74:	0afffffc 	beq	af6c <uart_putc+0xc>
    af78:	e6ef1074 	uxtb	r1, r4
    af7c:	e59f0008 	ldr	r0, [pc, #8]	; af8c <uart_putc+0x2c>
    af80:	ebffff95 	bl	addc <put32>
    af84:	ebffff8e 	bl	adc4 <dev_barrier>
    af88:	e8bd8010 	pop	{r4, pc}
    af8c:	20215040 	eorcs	r5, r1, r0, asr #32

0000af90 <uart_has_data>:
    af90:	e92d4010 	push	{r4, lr}
    af94:	ebffff8a 	bl	adc4 <dev_barrier>
    af98:	ebffffd6 	bl	aef8 <uart_can_getc>
    af9c:	e8bd8010 	pop	{r4, pc}

0000afa0 <gpio_set_function>:
    afa0:	e350001f 	cmp	r0, #31
    afa4:	812fff1e 	bxhi	lr
    afa8:	e3d13007 	bics	r3, r1, #7
    afac:	112fff1e 	bxne	lr
    afb0:	e92d4070 	push	{r4, r5, r6, lr}
    afb4:	e1a05001 	mov	r5, r1
    afb8:	e59f3044 	ldr	r3, [pc, #68]	; b004 <gpio_set_function+0x64>
    afbc:	e0832093 	umull	r2, r3, r3, r0
    afc0:	e1a031a3 	lsr	r3, r3, #3
    afc4:	e1a06003 	mov	r6, r3
    afc8:	e0833103 	add	r3, r3, r3, lsl #2
    afcc:	e1a02083 	lsl	r2, r3, #1
    afd0:	e0403002 	sub	r3, r0, r2
    afd4:	e0834083 	add	r4, r3, r3, lsl #1
    afd8:	e2866302 	add	r6, r6, #134217728	; 0x8000000
    afdc:	e2866702 	add	r6, r6, #524288	; 0x80000
    afe0:	e1a06106 	lsl	r6, r6, #2
    afe4:	e1a00006 	mov	r0, r6
    afe8:	ebffff89 	bl	ae14 <GET32>
    afec:	e3a01007 	mov	r1, #7
    aff0:	e1c01411 	bic	r1, r0, r1, lsl r4
    aff4:	e1811415 	orr	r1, r1, r5, lsl r4
    aff8:	e1a00006 	mov	r0, r6
    affc:	ebffff78 	bl	ade4 <PUT32>
    b000:	e8bd8070 	pop	{r4, r5, r6, pc}
    b004:	cccccccd 	stclgt	12, cr12, [ip], {205}	; 0xcd

0000b008 <gpio_set_output>:
    b008:	e92d4010 	push	{r4, lr}
    b00c:	e3a01001 	mov	r1, #1
    b010:	ebffffe2 	bl	afa0 <gpio_set_function>
    b014:	e8bd8010 	pop	{r4, pc}

0000b018 <gpio_set_on>:
    b018:	e350001f 	cmp	r0, #31
    b01c:	812fff1e 	bxhi	lr
    b020:	e92d4010 	push	{r4, lr}
    b024:	e3a01001 	mov	r1, #1
    b028:	e1a01011 	lsl	r1, r1, r0
    b02c:	e59f0004 	ldr	r0, [pc, #4]	; b038 <gpio_set_on+0x20>
    b030:	ebffff6b 	bl	ade4 <PUT32>
    b034:	e8bd8010 	pop	{r4, pc}
    b038:	2020001c 	eorcs	r0, r0, ip, lsl r0

0000b03c <gpio_set_off>:
    b03c:	e350001f 	cmp	r0, #31
    b040:	812fff1e 	bxhi	lr
    b044:	e92d4010 	push	{r4, lr}
    b048:	e3a01001 	mov	r1, #1
    b04c:	e1a01011 	lsl	r1, r1, r0
    b050:	e59f0004 	ldr	r0, [pc, #4]	; b05c <gpio_set_off+0x20>
    b054:	ebffff62 	bl	ade4 <PUT32>
    b058:	e8bd8010 	pop	{r4, pc}
    b05c:	20200028 	eorcs	r0, r0, r8, lsr #32

0000b060 <gpio_set_input>:
    b060:	e92d4010 	push	{r4, lr}
    b064:	e3a01000 	mov	r1, #0
    b068:	ebffffcc 	bl	afa0 <gpio_set_function>
    b06c:	e8bd8010 	pop	{r4, pc}

0000b070 <gpio_write>:
    b070:	e92d4010 	push	{r4, lr}
    b074:	e3510000 	cmp	r1, #0
    b078:	1a000001 	bne	b084 <gpio_write+0x14>
    b07c:	ebffffee 	bl	b03c <gpio_set_off>
    b080:	e8bd8010 	pop	{r4, pc}
    b084:	ebffffe3 	bl	b018 <gpio_set_on>
    b088:	e8bd8010 	pop	{r4, pc}

0000b08c <gpio_read>:
    b08c:	e350001f 	cmp	r0, #31
    b090:	8a000007 	bhi	b0b4 <gpio_read+0x28>
    b094:	e92d4010 	push	{r4, lr}
    b098:	e200401f 	and	r4, r0, #31
    b09c:	e59f3018 	ldr	r3, [pc, #24]	; b0bc <gpio_read+0x30>
    b0a0:	e08302a0 	add	r0, r3, r0, lsr #5
    b0a4:	ebffff5a 	bl	ae14 <GET32>
    b0a8:	e1a00430 	lsr	r0, r0, r4
    b0ac:	e2000001 	and	r0, r0, #1
    b0b0:	e8bd8010 	pop	{r4, pc}
    b0b4:	e3e00000 	mvn	r0, #0
    b0b8:	e12fff1e 	bx	lr
    b0bc:	20200034 	eorcs	r0, r0, r4, lsr r0

0000b0c0 <kmalloc_heap_end>:
    b0c0:	e59f3004 	ldr	r3, [pc, #4]	; b0cc <kmalloc_heap_end+0xc>
    b0c4:	e5930000 	ldr	r0, [r3]
    b0c8:	e12fff1e 	bx	lr
    b0cc:	0000b2a0 	andeq	fp, r0, r0, lsr #5

0000b0d0 <kmalloc_heap_start>:
    b0d0:	e59f0000 	ldr	r0, [pc]	; b0d8 <kmalloc_heap_start+0x8>
    b0d4:	e12fff1e 	bx	lr
    b0d8:	0000ca28 	andeq	ip, r0, r8, lsr #20

0000b0dc <kmalloc_init_set_start>:
    b0dc:	e59f3044 	ldr	r3, [pc, #68]	; b128 <kmalloc_init_set_start+0x4c>
    b0e0:	e5933000 	ldr	r3, [r3]
    b0e4:	e1500003 	cmp	r0, r3
    b0e8:	9a000003 	bls	b0fc <kmalloc_init_set_start+0x20>
    b0ec:	e59f3034 	ldr	r3, [pc, #52]	; b128 <kmalloc_init_set_start+0x4c>
    b0f0:	e5830000 	str	r0, [r3]
    b0f4:	e5830004 	str	r0, [r3, #4]
    b0f8:	e12fff1e 	bx	lr
    b0fc:	e52de004 	push	{lr}		; (str lr, [sp, #-4]!)
    b100:	e24dd00c 	sub	sp, sp, #12
    b104:	ebfffcfc 	bl	a4fc <rpi_reset_putc>
    b108:	e59f301c 	ldr	r3, [pc, #28]	; b12c <kmalloc_init_set_start+0x50>
    b10c:	e58d3000 	str	r3, [sp]
    b110:	e3a03016 	mov	r3, #22
    b114:	e59f2014 	ldr	r2, [pc, #20]	; b130 <kmalloc_init_set_start+0x54>
    b118:	e59f1014 	ldr	r1, [pc, #20]	; b134 <kmalloc_init_set_start+0x58>
    b11c:	e59f0014 	ldr	r0, [pc, #20]	; b138 <kmalloc_init_set_start+0x5c>
    b120:	ebfffcda 	bl	a490 <printk>
    b124:	ebfffe69 	bl	aad0 <clean_reboot>
    b128:	0000b2a0 	andeq	fp, r0, r0, lsr #5
    b12c:	0000c544 	andeq	ip, r0, r4, asr #10
    b130:	0000c508 	andeq	ip, r0, r8, lsl #10
    b134:	0000c538 	andeq	ip, r0, r8, lsr r5
    b138:	0000b338 	andeq	fp, r0, r8, lsr r3

0000b13c <kmalloc>:
    b13c:	e92d4010 	push	{r4, lr}
    b140:	e24dd008 	sub	sp, sp, #8
    b144:	e3500000 	cmp	r0, #0
    b148:	0a00000b 	beq	b17c <kmalloc+0x40>
    b14c:	e2802007 	add	r2, r0, #7
    b150:	e3c22007 	bic	r2, r2, #7
    b154:	e59f3044 	ldr	r3, [pc, #68]	; b1a0 <kmalloc+0x64>
    b158:	e5934000 	ldr	r4, [r3]
    b15c:	e0841002 	add	r1, r4, r2
    b160:	e5831000 	str	r1, [r3]
    b164:	e3a01000 	mov	r1, #0
    b168:	e1a00004 	mov	r0, r4
    b16c:	ebfffcbf 	bl	a470 <memset>
    b170:	e1a00004 	mov	r0, r4
    b174:	e28dd008 	add	sp, sp, #8
    b178:	e8bd8010 	pop	{r4, pc}
    b17c:	ebfffcde 	bl	a4fc <rpi_reset_putc>
    b180:	e59f301c 	ldr	r3, [pc, #28]	; b1a4 <kmalloc+0x68>
    b184:	e58d3000 	str	r3, [sp]
    b188:	e3a0301b 	mov	r3, #27
    b18c:	e59f2014 	ldr	r2, [pc, #20]	; b1a8 <kmalloc+0x6c>
    b190:	e59f1014 	ldr	r1, [pc, #20]	; b1ac <kmalloc+0x70>
    b194:	e59f0014 	ldr	r0, [pc, #20]	; b1b0 <kmalloc+0x74>
    b198:	ebfffcbc 	bl	a490 <printk>
    b19c:	ebfffe4b 	bl	aad0 <clean_reboot>
    b1a0:	0000b2a0 	andeq	fp, r0, r0, lsr #5
    b1a4:	0000c550 	andeq	ip, r0, r0, asr r5
    b1a8:	0000c520 	andeq	ip, r0, r0, lsr #10
    b1ac:	0000c538 	andeq	ip, r0, r8, lsr r5
    b1b0:	0000b338 	andeq	fp, r0, r8, lsr r3

0000b1b4 <kmalloc_init>:
    b1b4:	e12fff1e 	bx	lr

0000b1b8 <kmalloc_heap_ptr>:
    b1b8:	e92d4010 	push	{r4, lr}
    b1bc:	ebffffc3 	bl	b0d0 <kmalloc_heap_start>
    b1c0:	e8bd8010 	pop	{r4, pc}

0000b1c4 <kmalloc_aligned>:
    b1c4:	e52de004 	push	{lr}		; (str lr, [sp, #-4]!)
    b1c8:	e24dd00c 	sub	sp, sp, #12
    b1cc:	e2613000 	rsb	r3, r1, #0
    b1d0:	e1d12003 	bics	r2, r1, r3
    b1d4:	1a00000c 	bne	b20c <kmalloc_aligned+0x48>
    b1d8:	e59f2074 	ldr	r2, [pc, #116]	; b254 <kmalloc_aligned+0x90>
    b1dc:	e5922000 	ldr	r2, [r2]
    b1e0:	e0812002 	add	r2, r1, r2
    b1e4:	e2422001 	sub	r2, r2, #1
    b1e8:	e0033002 	and	r3, r3, r2
    b1ec:	e2411001 	sub	r1, r1, #1
    b1f0:	e1130001 	tst	r3, r1
    b1f4:	1a00000d 	bne	b230 <kmalloc_aligned+0x6c>
    b1f8:	e59f2054 	ldr	r2, [pc, #84]	; b254 <kmalloc_aligned+0x90>
    b1fc:	e5823000 	str	r3, [r2]
    b200:	ebffffcd 	bl	b13c <kmalloc>
    b204:	e28dd00c 	add	sp, sp, #12
    b208:	e49df004 	pop	{pc}		; (ldr pc, [sp], #4)
    b20c:	ebfffcba 	bl	a4fc <rpi_reset_putc>
    b210:	e59f3040 	ldr	r3, [pc, #64]	; b258 <kmalloc_aligned+0x94>
    b214:	e58d3000 	str	r3, [sp]
    b218:	e3a0302a 	mov	r3, #42	; 0x2a
    b21c:	e59f2038 	ldr	r2, [pc, #56]	; b25c <kmalloc_aligned+0x98>
    b220:	e59f1038 	ldr	r1, [pc, #56]	; b260 <kmalloc_aligned+0x9c>
    b224:	e59f0038 	ldr	r0, [pc, #56]	; b264 <kmalloc_aligned+0xa0>
    b228:	ebfffc98 	bl	a490 <printk>
    b22c:	ebfffe27 	bl	aad0 <clean_reboot>
    b230:	ebfffcb1 	bl	a4fc <rpi_reset_putc>
    b234:	e59f302c 	ldr	r3, [pc, #44]	; b268 <kmalloc_aligned+0xa4>
    b238:	e58d3000 	str	r3, [sp]
    b23c:	e3a03030 	mov	r3, #48	; 0x30
    b240:	e59f2014 	ldr	r2, [pc, #20]	; b25c <kmalloc_aligned+0x98>
    b244:	e59f1014 	ldr	r1, [pc, #20]	; b260 <kmalloc_aligned+0x9c>
    b248:	e59f001c 	ldr	r0, [pc, #28]	; b26c <kmalloc_aligned+0xa8>
    b24c:	ebfffc8f 	bl	a490 <printk>
    b250:	ebfffe1e 	bl	aad0 <clean_reboot>
    b254:	0000b2a0 	andeq	fp, r0, r0, lsr #5
    b258:	0000c588 	andeq	ip, r0, r8, lsl #11
    b25c:	0000c528 	andeq	ip, r0, r8, lsr #10
    b260:	0000c538 	andeq	ip, r0, r8, lsr r5
    b264:	0000c554 	andeq	ip, r0, r4, asr r5
    b268:	0000c5e0 	andeq	ip, r0, r0, ror #11
    b26c:	0000c5b4 			; <UNDEFINED> instruction: 0x0000c5b4

0000b270 <kfree>:
    b270:	e12fff1e 	bx	lr

0000b274 <kfree_all>:
    b274:	e59f3008 	ldr	r3, [pc, #8]	; b284 <kfree_all+0x10>
    b278:	e5932004 	ldr	r2, [r3, #4]
    b27c:	e5832000 	str	r2, [r3]
    b280:	e12fff1e 	bx	lr
    b284:	0000b2a0 	andeq	fp, r0, r0, lsr #5

0000b288 <kfree_after>:
    b288:	e59f3004 	ldr	r3, [pc, #4]	; b294 <kfree_after+0xc>
    b28c:	e5830000 	str	r0, [r3]
    b290:	e12fff1e 	bx	lr
    b294:	0000b2a0 	andeq	fp, r0, r0, lsr #5

Disassembly of section .data:

0000b298 <__data_start__>:
    b298:	0000a4e8 	andeq	sl, r0, r8, ror #9

0000b29c <putk>:
    b29c:	0000a524 	andeq	sl, r0, r4, lsr #10

0000b2a0 <heap>:
    b2a0:	0000ca28 	andeq	ip, r0, r8, lsr #20

0000b2a4 <heap_start>:
    b2a4:	0000ca28 	andeq	ip, r0, r8, lsr #20

Disassembly of section .rodata:

0000b2a8 <__FUNCTION__.4532-0x108>:
    b2a8:	494e4150 	stmdbmi	lr, {r4, r6, r8, lr}^
    b2ac:	73253a43 	teqvc	r5, #274432	; 0x43000
    b2b0:	3a73253a 	bcc	1cd47a0 <__bss_end__+0x1cc7d78>
    b2b4:	693a6425 	ldmdbvs	sl!, {r0, r2, r5, sl, sp, lr}
    b2b8:	67656c6c 	strbvs	r6, [r5, -ip, ror #24]!
    b2bc:	6d206c61 	stcvs	12, cr6, [r0, #-388]!	; 0xfffffe7c
    b2c0:	3a65646f 	bcc	1964484 <__bss_end__+0x1957a5c>
    b2c4:	0a782520 	beq	1e1474c <__bss_end__+0x1e07d24>
    b2c8:	0000000a 	andeq	r0, r0, sl
    b2cc:	6573552f 	ldrbvs	r5, [r3, #-1327]!	; 0x52f
    b2d0:	622f7372 	eorvs	r7, pc, #-939524095	; 0xc8000001
    b2d4:	6e616972 	mcrvs	9, 3, r6, cr1, cr2, {3}
    b2d8:	2f6e756a 	svccs	0x006e756a
    b2dc:	6b736544 	blvs	1ce47f4 <__bss_end__+0x1cd7dcc>
    b2e0:	2f706f74 	svccs	0x00706f74
    b2e4:	6f686373 	svcvs	0x00686373
    b2e8:	532f6c6f 	teqpl	pc, #28416	; 0x6f00
    b2ec:	6e697270 	mcrvs	2, 3, r7, cr9, cr0, {3}
    b2f0:	32393167 	eorscc	r3, r9, #-1073741799	; 0xc0000019
    b2f4:	53432f30 	movtpl	r2, #16176	; 0x3f30
    b2f8:	4c303432 	cfldrsmi	mvf3, [r0], #-200	; 0xffffff38
    b2fc:	73632f58 	cmnvc	r3, #88, 30	; 0x160
    b300:	6c303432 	cfldrsvs	mvf3, [r0], #-200	; 0xffffff38
    b304:	30322d78 	eorscc	r2, r2, r8, ror sp
    b308:	2f727073 	svccs	0x00727073
    b30c:	7062696c 	rsbvc	r6, r2, ip, ror #18
    b310:	6e692f69 	cdpvs	15, 6, cr2, cr9, cr9, {3}
    b314:	64756c63 	ldrbtvs	r6, [r5], #-3171	; 0xc63
    b318:	70632f65 	rsbvc	r2, r3, r5, ror #30
    b31c:	752d7273 	strvc	r7, [sp, #-627]!	; 0x273
    b320:	2e6c6974 	mcrcs	9, 3, r6, cr12, cr4, {3}
    b324:	00000068 	andeq	r0, r0, r8, rrx
    b328:	63737973 	cmnvs	r3, #1884160	; 0x1cc000
    b32c:	31206c61 	teqcc	r0, r1, ror #24
    b330:	253d2030 	ldrcs	r2, [sp, #-48]!	; 0x30
    b334:	00000a64 	andeq	r0, r0, r4, ror #20
    b338:	494e4150 	stmdbmi	lr, {r4, r6, r8, lr}^
    b33c:	73253a43 	teqvc	r5, #274432	; 0x43000
    b340:	3a73253a 	bcc	1cd4830 <__bss_end__+0x1cc7e08>
    b344:	253a6425 	ldrcs	r6, [sl, #-1061]!	; 0x425
    b348:	00000a73 	andeq	r0, r0, r3, ror sl
    b34c:	74736574 	ldrbtvc	r6, [r3], #-1396	; 0x574
    b350:	65742f73 	ldrbvs	r2, [r4, #-3955]!	; 0xf73
    b354:	2e317473 	mrccs	4, 1, r7, cr1, cr3, {3}
    b358:	00000063 	andeq	r0, r0, r3, rrx
    b35c:	20746572 	rsbscs	r6, r4, r2, ror r5
    b360:	31203d3d 	teqcc	r0, sp, lsr sp
    b364:	00000030 	andeq	r0, r0, r0, lsr r0
    b368:	756d6d21 	strbvc	r6, [sp, #-3361]!	; 0xd21
    b36c:	5f73695f 	svcpl	0x0073695f
    b370:	62616e65 	rsbvs	r6, r1, #1616	; 0x650
    b374:	2864656c 	stmdacs	r4!, {r2, r3, r5, r6, r8, sl, sp, lr}^
    b378:	00000029 	andeq	r0, r0, r9, lsr #32
    b37c:	65646f6d 	strbvs	r6, [r4, #-3949]!	; 0xf6d
    b380:	5f73695f 	svcpl	0x0073695f
    b384:	65707573 	ldrbvs	r7, [r0, #-1395]!	; 0x573
    b388:	00292872 	eoreq	r2, r9, r2, ror r8
    b38c:	3d3d2078 	ldccc	0, cr2, [sp, #-480]!	; 0xfffffe20
    b390:	31783020 	cmncc	r8, r0, lsr #32
    b394:	35343332 	ldrcc	r3, [r4, #-818]!	; 0x332
    b398:	00383736 	eorseq	r3, r8, r6, lsr r7
    b39c:	43415254 	movtmi	r5, #4692	; 0x1254
    b3a0:	00003a45 	andeq	r3, r0, r5, asr #20
    b3a4:	63637573 	cmnvs	r3, #482344960	; 0x1cc00000
    b3a8:	21737365 	cmncs	r3, r5, ror #6
    b3ac:	00000a21 	andeq	r0, r0, r1, lsr #20

0000b3b0 <__FUNCTION__.4532>:
    b3b0:	6d746f6e 	ldclvs	15, cr6, [r4, #-440]!	; 0xfffffe48
    b3b4:	5f6e6961 	svcpl	0x006e6961
    b3b8:	65696c63 	strbvs	r6, [r9, #-3171]!	; 0xc63
    b3bc:	0000746e 	andeq	r7, r0, lr, ror #8

0000b3c0 <__FUNCTION__.4536>:
    b3c0:	6d746f6e 	ldclvs	15, cr6, [r4, #-440]!	; 0xfffffe48
    b3c4:	006e6961 	rsbeq	r6, lr, r1, ror #18

0000b3c8 <__FUNCTION__.4500>:
    b3c8:	65646f6d 	strbvs	r6, [r4, #-3949]!	; 0xf6d
    b3cc:	7465675f 	strbtvc	r6, [r5], #-1887	; 0x75f
    b3d0:	00000000 	andeq	r0, r0, r0

0000b3d4 <__FUNCTION__.4466>:
    b3d4:	73746962 	cmnvc	r4, #1605632	; 0x188000
    b3d8:	7465675f 	strbtvc	r6, [r5], #-1887	; 0x75f
    b3dc:	00000000 	andeq	r0, r0, r0

0000b3e0 <__FUNCTION__.4495>:
    b3e0:	65646f6d 	strbvs	r6, [r4, #-3949]!	; 0xf6d
    b3e4:	67656c5f 			; <UNDEFINED> instruction: 0x67656c5f
    b3e8:	00006c61 	andeq	r6, r0, r1, ror #24

0000b3ec <OneMB>:
    b3ec:	00100000 	andseq	r0, r0, r0

0000b3f0 <__FUNCTION__.4417>:
    b3f0:	5f756d6d 	svcpl	0x00756d6d
    b3f4:	6b6f6f6c 	blvs	1be71ac <__bss_end__+0x1bda784>
    b3f8:	735f7075 	cmpvc	pc, #117	; 0x75
    b3fc:	69746365 	ldmdbvs	r4!, {r0, r2, r5, r6, r8, r9, sp, lr}^
    b400:	00006e6f 	andeq	r6, r0, pc, ror #28

0000b404 <__FUNCTION__.4426>:
    b404:	5f756d6d 	svcpl	0x00756d6d
    b408:	6b72616d 	blvs	1ca39c4 <__bss_end__+0x1c96f9c>
    b40c:	6365735f 	cmnvs	r5, #2080374785	; 0x7c000001
    b410:	5f70615f 	svcpl	0x0070615f
    b414:	6d726570 	cfldr64vs	mvdx6, [r2, #-448]!	; 0xfffffe40
    b418:	00000000 	andeq	r0, r0, r0

0000b41c <__FUNCTION__.4458>:
    b41c:	5f756d6d 	svcpl	0x00756d6d
    b420:	5f70616d 	svcpl	0x0070616d
    b424:	74636573 	strbtvc	r6, [r3], #-1395	; 0x573
    b428:	006e6f69 	rsbeq	r6, lr, r9, ror #30

0000b42c <__FUNCTION__.4451>:
    b42c:	5f646c66 	svcpl	0x00646c66
    b430:	5f746573 	svcpl	0x00746573
    b434:	65736162 	ldrbvs	r6, [r3, #-354]!	; 0x162
    b438:	6464615f 	strbtvs	r6, [r4], #-351	; 0x15f
    b43c:	00000072 	andeq	r0, r0, r2, ror r0

0000b440 <__FUNCTION__.4468>:
    b440:	5f756d6d 	svcpl	0x00756d6d
    b444:	5f70616d 	svcpl	0x0070616d
    b448:	74636573 	strbtvc	r6, [r3], #-1395	; 0x573
    b44c:	736e6f69 	cmnvc	lr, #420	; 0x1a4
    b450:	00000000 	andeq	r0, r0, r0

0000b454 <__FUNCTION__.4477>:
    b454:	5f756d6d 	svcpl	0x00756d6d
    b458:	615f7470 	cmpvs	pc, r0, ror r4	; <UNPREDICTABLE>
    b45c:	636f6c6c 	cmnvs	pc, #108, 24	; 0x6c00
    b460:	0074615f 	rsbseq	r6, r4, pc, asr r1

0000b464 <__FUNCTION__.4483>:
    b464:	5f756d6d 	svcpl	0x00756d6d
    b468:	615f7470 	cmpvs	pc, r0, ror r4	; <UNPREDICTABLE>
    b46c:	636f6c6c 	cmnvs	pc, #108, 24	; 0x6c00
    b470:	00000000 	andeq	r0, r0, r0

0000b474 <__FUNCTION__.4490>:
    b474:	5f756d6d 	svcpl	0x00756d6d
    b478:	74696e69 	strbtvc	r6, [r9], #-3689	; 0xe69
    b47c:	00000000 	andeq	r0, r0, r0

0000b480 <__FUNCTION__.4497>:
    b480:	5f756d6d 	svcpl	0x00756d6d
    b484:	61736964 	cmnvs	r3, r4, ror #18
    b488:	5f656c62 	svcpl	0x00656c62
    b48c:	00746573 	rsbseq	r6, r4, r3, ror r5

0000b490 <__FUNCTION__.4502>:
    b490:	5f756d6d 	svcpl	0x00756d6d
    b494:	61736964 	cmnvs	r3, r4, ror #18
    b498:	00656c62 	rsbeq	r6, r5, r2, ror #24

0000b49c <__FUNCTION__.4506>:
    b49c:	5f756d6d 	svcpl	0x00756d6d
    b4a0:	62616e65 	rsbvs	r6, r1, #1616	; 0x650
    b4a4:	735f656c 	cmpvc	pc, #108, 10	; 0x1b000000
    b4a8:	00007465 	andeq	r7, r0, r5, ror #8

0000b4ac <__FUNCTION__.4511>:
    b4ac:	5f756d6d 	svcpl	0x00756d6d
    b4b0:	62616e65 	rsbvs	r6, r1, #1616	; 0x650
    b4b4:	0000656c 	andeq	r6, r0, ip, ror #10

0000b4b8 <__FUNCTION__.4524>:
    b4b8:	5f746573 	svcpl	0x00746573
    b4bc:	636f7270 	cmnvs	pc, #112, 4
    b4c0:	745f6469 	ldrbvc	r6, [pc], #-1129	; b4c8 <__FUNCTION__.4524+0x10>
    b4c4:	30726274 	rsbscc	r6, r2, r4, ror r2
    b4c8:	00000000 	andeq	r0, r0, r0

0000b4cc <__FUNCTION__.4528>:
    b4cc:	5f6d7361 	svcpl	0x006d7361
    b4d0:	5f746f6e 	svcpl	0x00746f6e
    b4d4:	6c706d69 	ldclvs	13, cr6, [r0], #-420	; 0xfffffe5c
    b4d8:	6e656d65 	cdpvs	13, 6, cr6, cr5, cr5, {3}
    b4dc:	00646574 	rsbeq	r6, r4, r4, ror r5
    b4e0:	2e756d6d 	cdpcs	13, 7, cr6, cr5, cr13, {3}
    b4e4:	00000063 	andeq	r0, r0, r3, rrx
    b4e8:	615f7369 	cmpvs	pc, r9, ror #6
    b4ec:	6e67696c 	cdpvs	9, 6, cr6, cr7, cr12, {3}
    b4f0:	76286465 	strtvc	r6, [r8], -r5, ror #8
    b4f4:	32202c61 	eorcc	r2, r0, #24832	; 0x6100
    b4f8:	00002930 	andeq	r2, r0, r0, lsr r9
    b4fc:	4f525245 	svcmi	0x00525245
    b500:	73253a52 	teqvc	r5, #335872	; 0x52000
    b504:	3a73253a 	bcc	1cd49f4 <__bss_end__+0x1cc7fcc>
    b508:	203a6425 	eorscs	r6, sl, r5, lsr #8
    b50c:	534c4146 	movtpl	r4, #49478	; 0xc146
    b510:	253c2845 	ldrcs	r2, [ip, #-2117]!	; 0x845
    b514:	3a293e73 	bcc	a5aee8 <__bss_end__+0xa4e4c0>
    b518:	766e6920 	strbtvc	r6, [lr], -r0, lsr #18
    b51c:	64696c61 	strbtvs	r6, [r9], #-3169	; 0xc61
    b520:	63657320 	cmnvs	r5, #32, 6	; 0x80000000
    b524:	6e6f6974 	mcrvs	9, 3, r6, cr15, cr4, {3}
    b528:	0000000a 	andeq	r0, r0, sl
    b52c:	2d657470 	cfstrdcs	mvd7, [r5, #-448]!	; 0xfffffe40
    b530:	6761743e 			; <UNDEFINED> instruction: 0x6761743e
    b534:	00000000 	andeq	r0, r0, r0
    b538:	4f525245 	svcmi	0x00525245
    b53c:	73253a52 	teqvc	r5, #335872	; 0x52000
    b540:	3a73253a 	bcc	1cd4a30 <__bss_end__+0x1cc8008>
    b544:	203a6425 	eorscs	r6, sl, r5, lsr #8
    b548:	534c4146 	movtpl	r4, #49478	; 0xc146
    b54c:	253c2845 	ldrcs	r2, [ip, #-2117]!	; 0x845
    b550:	3a293e73 	bcc	a5af24 <__bss_end__+0xa4e4fc>
    b554:	766e6920 	strbtvc	r6, [lr], -r0, lsr #18
    b558:	64696c61 	strbtvs	r6, [r9], #-3169	; 0xc61
    b55c:	72657020 	rsbvc	r7, r5, #32
    b560:	7373696d 	cmnvc	r3, #1785856	; 0x1b4000
    b564:	0a6e6f69 	beq	1ba7310 <__bss_end__+0x1b9a8e8>
    b568:	00000000 	andeq	r0, r0, r0
    b56c:	6d726570 	cfldr64vs	mvdx6, [r2, #-448]!	; 0xfffffe40
    b570:	203d3c20 	eorscs	r3, sp, r0, lsr #24
    b574:	31316230 	teqcc	r1, r0, lsr r2
    b578:	00000000 	andeq	r0, r0, r0
    b57c:	4f525245 	svcmi	0x00525245
    b580:	73253a52 	teqvc	r5, #335872	; 0x52000
    b584:	3a73253a 	bcc	1cd4a74 <__bss_end__+0x1cc804c>
    b588:	203a6425 	eorscs	r6, sl, r5, lsr #8
    b58c:	534c4146 	movtpl	r4, #49478	; 0xc146
    b590:	253c2845 	ldrcs	r2, [ip, #-2117]!	; 0x845
    b594:	3a293e73 	bcc	a5af68 <__bss_end__+0xa4e540>
    b598:	64646120 	strbtvs	r6, [r4], #-288	; 0x120
    b59c:	73692072 	cmnvc	r9, #114	; 0x72
    b5a0:	746f6e20 	strbtvc	r6, [pc], #-3616	; b5a8 <__FUNCTION__.4528+0xdc>
    b5a4:	696c6120 	stmdbvs	ip!, {r5, r8, sp, lr}^
    b5a8:	64656e67 	strbtvs	r6, [r5], #-3687	; 0xe67
    b5ac:	00000a21 	andeq	r0, r0, r1, lsr #20
    b5b0:	61282828 	teqvs	r8, r8, lsr #16
    b5b4:	29726464 	ldmdbcs	r2!, {r2, r5, r6, sl, sp, lr}^
    b5b8:	28202620 	stmdacs	r0!, {r5, r9, sl, sp}
    b5bc:	70797428 	rsbsvc	r7, r9, r8, lsr #8
    b5c0:	28666f65 	stmdacs	r6!, {r0, r2, r5, r6, r8, r9, sl, fp, sp, lr}^
    b5c4:	72646461 	rsbvc	r6, r4, #1627389952	; 0x61000000
    b5c8:	32282929 	eorcc	r2, r8, #671744	; 0xa4000
    b5cc:	2d202930 	stccs	9, cr2, [r0, #-192]!	; 0xffffff40
    b5d0:	29293120 	stmdbcs	r9!, {r5, r8, ip, sp}
    b5d4:	203d3d20 	eorscs	r3, sp, r0, lsr #26
    b5d8:	00002930 	andeq	r2, r0, r0, lsr r9
    b5dc:	3e2d6628 	cfmadda32cc	mvax1, mvax6, mvfx13, mvfx8
    b5e0:	5f636573 	svcpl	0x00636573
    b5e4:	65736162 	ldrbvs	r6, [r3, #-354]!	; 0x162
    b5e8:	6464615f 	strbtvs	r6, [r4], #-351	; 0x15f
    b5ec:	3c3c2072 	ldccc	0, cr2, [ip], #-456	; 0xfffffe38
    b5f0:	29303220 	ldmdbcs	r0!, {r5, r9, ip, sp}
    b5f4:	203d3d20 	eorscs	r3, sp, r0, lsr #26
    b5f8:	72646461 	rsbvc	r6, r4, #1627389952	; 0x61000000
    b5fc:	00000000 	andeq	r0, r0, r0
    b600:	206d6f64 	rsbcs	r6, sp, r4, ror #30
    b604:	3631203c 			; <UNDEFINED> instruction: 0x3631203c
    b608:	00000000 	andeq	r0, r0, r0
    b60c:	615f7369 	cmpvs	pc, r9, ror #6
    b610:	6e67696c 	cdpvs	9, 6, cr6, cr7, cr12, {3}
    b614:	70286465 	eorvc	r6, r8, r5, ror #8
    b618:	32202c61 	eorcc	r2, r0, #24832	; 0x6100
    b61c:	00002930 	andeq	r2, r0, r0, lsr r9
    b620:	4f525245 	svcmi	0x00525245
    b624:	73253a52 	teqvc	r5, #335872	; 0x52000
    b628:	3a73253a 	bcc	1cd4b18 <__bss_end__+0x1cc80f0>
    b62c:	203a6425 	eorscs	r6, sl, r5, lsr #8
    b630:	534c4146 	movtpl	r4, #49478	; 0xc146
    b634:	253c2845 	ldrcs	r2, [ip, #-2117]!	; 0x845
    b638:	3a293e73 	bcc	a5b00c <__bss_end__+0xa4e5e4>
    b63c:	726c6120 	rsbvc	r6, ip, #32, 2
    b640:	79646165 	stmdbvc	r4!, {r0, r2, r5, r6, r8, sp, lr}^
    b644:	74657320 	strbtvc	r7, [r5], #-800	; 0x320
    b648:	0000000a 	andeq	r0, r0, sl
    b64c:	65747021 	ldrbvs	r7, [r4, #-33]!	; 0x21
    b650:	61743e2d 	cmnvs	r4, sp, lsr #28
    b654:	00000067 	andeq	r0, r0, r7, rrx
    b658:	702e796d 	eorvc	r7, lr, sp, ror #18
    b65c:	20406574 	subcs	r6, r0, r4, ror r5
    b660:	78257830 	stmdavc	r5!, {r4, r5, fp, ip, sp, lr}
    b664:	25203d20 	strcs	r3, [r0, #-3360]!	; 0xd20
    b668:	00000a62 	andeq	r0, r0, r2, ror #20
    b66c:	20455450 	subcs	r5, r5, r0, asr r4
    b670:	3a637263 	bcc	18e8004 <__bss_end__+0x18db5dc>
    b674:	00000000 	andeq	r0, r0, r0
    b678:	4f525245 	svcmi	0x00525245
    b67c:	73253a52 	teqvc	r5, #335872	; 0x52000
    b680:	3a73253a 	bcc	1cd4b70 <__bss_end__+0x1cc8148>
    b684:	203a6425 	eorscs	r6, sl, r5, lsr #8
    b688:	534c4146 	movtpl	r4, #49478	; 0xc146
    b68c:	253c2845 	ldrcs	r2, [ip, #-2117]!	; 0x845
    b690:	3a293e73 	bcc	a5b064 <__bss_end__+0xa4e63c>
    b694:	73756d20 	cmnvc	r5, #32, 26	; 0x800
    b698:	65622074 	strbvs	r2, [r2, #-116]!	; 0x74
    b69c:	2d343120 	ldfcss	f3, [r4, #-128]!	; 0xffffff80
    b6a0:	20746962 	rsbscs	r6, r4, r2, ror #18
    b6a4:	67696c61 	strbvs	r6, [r9, -r1, ror #24]!
    b6a8:	2164656e 	cmncs	r4, lr, ror #10
    b6ac:	0000000a 	andeq	r0, r0, sl
    b6b0:	28282828 	stmdacs	r8!, {r3, r5, fp, sp}
    b6b4:	746e6975 	strbtvc	r6, [lr], #-2421	; 0x975
    b6b8:	745f3233 	ldrbvc	r3, [pc], #-563	; b6c0 <__FUNCTION__.4528+0x1f4>
    b6bc:	64646129 	strbtvs	r6, [r4], #-297	; 0x129
    b6c0:	26202972 			; <UNDEFINED> instruction: 0x26202972
    b6c4:	74282820 	strtvc	r2, [r8], #-2080	; 0x820
    b6c8:	6f657079 	svcvs	0x00657079
    b6cc:	75282866 	strvc	r2, [r8, #-2150]!	; 0x866
    b6d0:	33746e69 	cmncc	r4, #1680	; 0x690
    b6d4:	29745f32 	ldmdbcs	r4!, {r1, r4, r5, r8, r9, sl, fp, ip, lr}^
    b6d8:	72646461 	rsbvc	r6, r4, #1627389952	; 0x61000000
    b6dc:	31282929 	teqcc	r8, r9, lsr #18
    b6e0:	2d202934 	stccs	9, cr2, [r0, #-208]!	; 0xffffff30
    b6e4:	29293120 	stmdbcs	r9!, {r5, r8, ip, sp}
    b6e8:	203d3d20 	eorscs	r3, sp, r0, lsr #26
    b6ec:	00002930 	andeq	r2, r0, r0, lsr r9
    b6f0:	4f525245 	svcmi	0x00525245
    b6f4:	73253a52 	teqvc	r5, #335872	; 0x52000
    b6f8:	3a73253a 	bcc	1cd4be8 <__bss_end__+0x1cc81c0>
    b6fc:	203a6425 	eorscs	r6, sl, r5, lsr #8
    b700:	534c4146 	movtpl	r4, #49478	; 0xc146
    b704:	253c2845 	ldrcs	r2, [ip, #-2117]!	; 0x845
    b708:	3a293e73 	bcc	a5b0dc <__bss_end__+0xa4e6b4>
    b70c:	6c6e6f20 	stclvs	15, cr6, [lr], #-128	; 0xffffff80
    b710:	61682079 	smcvs	33289	; 0x8209
    b714:	6e69646e 	cdpvs	4, 6, cr6, cr9, cr14, {3}
    b718:	75662067 	strbvc	r2, [r6, #-103]!	; 0x67
    b71c:	61206c6c 	teqvs	r0, ip, ror #24
    b720:	636f6c6c 	cmnvs	pc, #108, 24	; 0x6c00
    b724:	6f697461 	svcvs	0x00697461
    b728:	00000a6e 	andeq	r0, r0, lr, ror #20
    b72c:	7479626e 	ldrbtvc	r6, [r9], #-622	; 0x26e
    b730:	3d207365 	stccc	3, cr7, [r0, #-404]!	; 0xfffffe6c
    b734:	006e203d 	rsbeq	r2, lr, sp, lsr r0
    b738:	4f525245 	svcmi	0x00525245
    b73c:	73253a52 	teqvc	r5, #335872	; 0x52000
    b740:	3a73253a 	bcc	1cd4c30 <__bss_end__+0x1cc8208>
    b744:	203a6425 	eorscs	r6, sl, r5, lsr #8
    b748:	534c4146 	movtpl	r4, #49478	; 0xc146
    b74c:	253c2845 	ldrcs	r2, [ip, #-2117]!	; 0x845
    b750:	3a293e73 	bcc	a5b124 <__bss_end__+0xa4e6fc>
    b754:	20657720 	rsbcs	r7, r5, r0, lsr #14
    b758:	796c6e6f 	stmdbvc	ip!, {r0, r1, r2, r3, r5, r6, r9, sl, fp, sp, lr}^
    b75c:	6e616820 	cdpvs	8, 6, cr6, cr1, cr0, {1}
    b760:	6e696c64 	cdpvs	12, 6, cr6, cr9, cr4, {3}
    b764:	20612067 	rsbcs	r2, r1, r7, rrx
    b768:	6c6c7566 	cfstr64vs	mvdx7, [ip], #-408	; 0xfffffe68
    b76c:	6f702d79 	svcvs	0x00702d79
    b770:	616c7570 	smcvs	51024	; 0xc750
    b774:	20646574 	rsbcs	r6, r4, r4, ror r5
    b778:	65676170 	strbvs	r6, [r7, #-368]!	; 0x170
    b77c:	62617420 	rsbvs	r7, r1, #32, 8	; 0x20000000
    b780:	7220656c 	eorvc	r6, r0, #108, 10	; 0x1b000000
    b784:	74686769 	strbtvc	r6, [r8], #-1897	; 0x769
    b788:	776f6e20 	strbvc	r6, [pc, -r0, lsr #28]!
    b78c:	0000000a 	andeq	r0, r0, sl
    b790:	3d3d206e 	ldccc	0, cr2, [sp, #-440]!	; 0xfffffe48
    b794:	39303420 	ldmdbcc	r0!, {r5, sl, ip, sp}
    b798:	00000036 	andeq	r0, r0, r6, lsr r0
    b79c:	28282828 	stmdacs	r8!, {r3, r5, fp, sp}
    b7a0:	746e6975 	strbtvc	r6, [lr], #-2421	; 0x975
    b7a4:	745f3233 	ldrbvc	r3, [pc], #-563	; b7ac <__FUNCTION__.4528+0x2e0>
    b7a8:	29747029 	ldmdbcs	r4!, {r0, r3, r5, ip, sp, lr}^
    b7ac:	28202620 	stmdacs	r0!, {r5, r9, sl, sp}
    b7b0:	70797428 	rsbsvc	r7, r9, r8, lsr #8
    b7b4:	28666f65 	stmdacs	r6!, {r0, r2, r5, r6, r8, r9, sl, fp, sp, lr}^
    b7b8:	6e697528 	cdpvs	5, 6, cr7, cr9, cr8, {1}
    b7bc:	5f323374 	svcpl	0x00323374
    b7c0:	74702974 	ldrbtvc	r2, [r0], #-2420	; 0x974
    b7c4:	31282929 	teqcc	r8, r9, lsr #18
    b7c8:	2d202934 	stccs	9, cr2, [r0, #-208]!	; 0xffffff30
    b7cc:	29293120 	stmdbcs	r9!, {r5, r8, ip, sp}
    b7d0:	203d3d20 	eorscs	r3, sp, r0, lsr #26
    b7d4:	00002930 	andeq	r2, r0, r0, lsr r9
    b7d8:	582e3163 	stmdapl	lr!, {r0, r1, r5, r6, r8, ip, sp}
    b7dc:	74705f50 	ldrbtvc	r5, [r0], #-3920	; 0xf50
    b7e0:	00000000 	andeq	r0, r0, r0
    b7e4:	2e316321 	cdpcs	3, 3, cr6, cr1, cr1, {1}
    b7e8:	5f554d4d 	svcpl	0x00554d4d
    b7ec:	62616e65 	rsbvs	r6, r1, #1616	; 0x650
    b7f0:	0064656c 	rsbeq	r6, r4, ip, ror #10
    b7f4:	4d2e6321 	stcmi	3, cr6, [lr, #-132]!	; 0xffffff7c
    b7f8:	655f554d 	ldrbvs	r5, [pc, #-1357]	; b2b3 <__data_end__+0xb>
    b7fc:	6c62616e 	stfvse	f6, [r2], #-440	; 0xfffffe48
    b800:	00006465 	andeq	r6, r0, r5, ror #8
    b804:	432e6321 	teqmi	lr, #-2080374784	; 0x84000000
    b808:	696e755f 	stmdbvs	lr!, {r0, r1, r2, r3, r4, r6, r8, sl, ip, sp, lr}^
    b80c:	64656966 	strbtvs	r6, [r5], #-2406	; 0x966
    b810:	616e655f 	cmnvs	lr, pc, asr r5
    b814:	00656c62 	rsbeq	r6, r5, r2, ror #24
    b818:	4d4d2e63 	stclmi	14, cr2, [sp, #-396]	; 0xfffffe74
    b81c:	6e655f55 	mcrvs	15, 3, r5, cr5, cr5, {2}
    b820:	656c6261 	strbvs	r6, [ip, #-609]!	; 0x261
    b824:	00000064 	andeq	r0, r0, r4, rrx
    b828:	64697028 	strbtvs	r7, [r9], #-40	; 0x28
    b82c:	203e3e20 	eorscs	r3, lr, r0, lsr #28
    b830:	20293432 	eorcs	r3, r9, r2, lsr r4
    b834:	30203d3d 	eorcc	r3, r0, sp, lsr sp
    b838:	00000000 	andeq	r0, r0, r0
    b83c:	20646970 	rsbcs	r6, r4, r0, ror r9
    b840:	3436203e 	ldrtcc	r2, [r6], #-62	; 0x3e
    b844:	00000000 	andeq	r0, r0, r0
    b848:	64697361 	strbtvs	r7, [r9], #-865	; 0x361
    b84c:	36203c20 	strtcc	r3, [r0], -r0, lsr #24
    b850:	26262034 			; <UNDEFINED> instruction: 0x26262034
    b854:	69736120 	ldmdbvs	r3!, {r5, r8, sp, lr}^
    b858:	00000064 	andeq	r0, r0, r4, rrx
    b85c:	494e4150 	stmdbmi	lr, {r4, r6, r8, lr}^
    b860:	73253a43 	teqvc	r5, #274432	; 0x43000
    b864:	3a73253a 	bcc	1cd4d54 <__bss_end__+0x1cc832c>
    b868:	633a6425 	teqvs	sl, #620756992	; 0x25000000
    b86c:	656c6c61 	strbvs	r6, [ip, #-3169]!	; 0xc61
    b870:	6e752064 	cdpvs	0, 7, cr2, cr5, cr4, {3}
    b874:	6c706d69 	ldclvs	13, cr6, [r0], #-420	; 0xfffffe5c
    b878:	6e656d65 	cdpvs	13, 6, cr6, cr5, cr5, {3}
    b87c:	20646574 	rsbcs	r6, r4, r4, ror r5
    b880:	206d7361 	rsbcs	r7, sp, r1, ror #6
    b884:	74756f72 	ldrbtvc	r6, [r5], #-3954	; 0xf72
    b888:	20656e69 	rsbcs	r6, r5, r9, ror #28
    b88c:	25207461 	strcs	r7, [r0, #-1121]!	; 0x461
    b890:	000a0a78 	andeq	r0, sl, r8, ror sl
    b894:	48534148 	ldmdami	r3, {r3, r6, r8, lr}^
    b898:	3a73253a 	bcc	1cd4d88 <__bss_end__+0x1cc8360>
    b89c:	73616820 	cmnvc	r1, #32, 16	; 0x200000
    b8a0:	78253d68 	stmdavc	r5!, {r3, r5, r6, r8, sl, fp, ip, sp}
    b8a4:	79626e2c 	stmdbvc	r2!, {r2, r3, r5, r9, sl, fp, sp, lr}^
    b8a8:	3d736574 	cfldr64cc	mvdx6, [r3, #-464]!	; 0xfffffe30
    b8ac:	000a6425 	andeq	r6, sl, r5, lsr #8
    b8b0:	616d6f64 	cmnvs	sp, r4, ror #30
    b8b4:	61206e69 	teqvs	r0, r9, ror #28
    b8b8:	73656363 	cmnvc	r5, #-1946157055	; 0x8c000001
    b8bc:	6f632073 	svcvs	0x00632073
    b8c0:	6f72746e 	svcvs	0x0072746e
    b8c4:	000a3a6c 	andeq	r3, sl, ip, ror #20
    b8c8:	0a622509 	beq	1894cf4 <__bss_end__+0x18882cc>
    b8cc:	00000000 	andeq	r0, r0, r0
    b8d0:	494e4150 	stmdbmi	lr, {r4, r6, r8, lr}^
    b8d4:	73253a43 	teqvc	r5, #274432	; 0x43000
    b8d8:	3a73253a 	bcc	1cd4dc8 <__bss_end__+0x1cc83a0>
    b8dc:	6f3a6425 	svcvs	0x003a6425
    b8e0:	65736666 	ldrbvs	r6, [r3, #-1638]!	; 0x666
    b8e4:	72772074 	rsbsvc	r2, r7, #116	; 0x74
    b8e8:	3a676e6f 	bcc	19e72ac <__bss_end__+0x19da884>
    b8ec:	70786520 	rsbsvc	r6, r8, r0, lsr #10
    b8f0:	20746365 	rsbscs	r6, r4, r5, ror #6
    b8f4:	67207825 	strvs	r7, [r0, -r5, lsr #16]!
    b8f8:	2520746f 	strcs	r7, [r0, #-1135]!	; 0x46f
    b8fc:	73252078 	teqvc	r5, #120	; 0x78
    b900:	666f5b20 	strbtvs	r5, [pc], -r0, lsr #22
    b904:	64253d66 	strtvs	r3, [r5], #-3430	; 0xd66
    b908:	69626e2c 	stmdbvs	r2!, {r2, r3, r5, r9, sl, fp, sp, lr}^
    b90c:	253d7374 	ldrcs	r7, [sp, #-884]!	; 0x374
    b910:	0a0a5d64 	beq	2a2ea8 <__bss_end__+0x296480>
    b914:	00000000 	andeq	r0, r0, r0
    b918:	2d756d6d 	ldclcs	13, cr6, [r5, #-436]!	; 0xfffffe4c
    b91c:	706c6568 	rsbvc	r6, ip, r8, ror #10
    b920:	2e737265 	cdpcs	2, 7, cr7, cr3, cr5, {3}
    b924:	00000063 	andeq	r0, r0, r3, rrx
    b928:	20752e78 	rsbscs	r2, r5, r8, ror lr
    b92c:	65203d3d 	strvs	r3, [r0, #-3389]!	; 0xd3d
    b930:	00007078 	andeq	r7, r0, r8, ror r0
    b934:	494e4150 	stmdbmi	lr, {r4, r6, r8, lr}^
    b938:	73253a43 	teqvc	r5, #274432	; 0x43000
    b93c:	3a73253a 	bcc	1cd4e2c <__bss_end__+0x1cc8404>
    b940:	773a6425 	ldrvc	r6, [sl, -r5, lsr #8]!
    b944:	68746469 	ldmdavs	r4!, {r0, r3, r5, r6, sl, sp, lr}^
    b948:	6f727720 	svcvs	0x00727720
    b94c:	203a676e 	eorscs	r6, sl, lr, ror #14
    b950:	65707865 	ldrbvs	r7, [r0, #-2149]!	; 0x865
    b954:	25207463 	strcs	r7, [r0, #-1123]!	; 0x463
    b958:	6f672078 	svcvs	0x00672078
    b95c:	78252074 	stmdavc	r5!, {r2, r4, r5, r6, sp}
    b960:	20732520 	rsbscs	r2, r3, r0, lsr #10
    b964:	66666f5b 	uqsaxvs	r6, r6, fp
    b968:	2c64253d 	cfstr64cs	mvdx2, [r4], #-244	; 0xffffff0c
    b96c:	7469626e 	strbtvc	r6, [r9], #-622	; 0x26e
    b970:	64253d73 	strtvs	r3, [r5], #-3443	; 0xd73
    b974:	000a0a5d 	andeq	r0, sl, sp, asr sl
    b978:	6c615f41 	stclvs	15, cr5, [r1], #-260	; 0xfffffefc
    b97c:	6d6e6769 	stclvs	7, cr6, [lr, #-420]!	; 0xfffffe5c
    b980:	00746e65 	rsbseq	r6, r4, r5, ror #28
    b984:	72775f57 	rsbsvc	r5, r7, #348	; 0x15c
    b988:	5f657469 	svcpl	0x00657469
    b98c:	00667562 	rsbeq	r7, r6, r2, ror #10
    b990:	6e655f42 	cdpvs	15, 6, cr5, cr5, cr2, {2}
    b994:	6e616964 	cdpvs	9, 6, cr6, cr1, cr4, {3}
    b998:	00000000 	andeq	r0, r0, r0
    b99c:	72705f53 	rsbsvc	r5, r0, #332	; 0x14c
    b9a0:	0000746f 	andeq	r7, r0, pc, ror #8
    b9a4:	6f725f52 	svcvs	0x00725f52
    b9a8:	72705f6d 	rsbsvc	r5, r0, #436	; 0x1b4
    b9ac:	0000746f 	andeq	r7, r0, pc, ror #8
    b9b0:	00000046 	andeq	r0, r0, r6, asr #32
    b9b4:	72625f5a 	rsbvc	r5, r2, #360	; 0x168
    b9b8:	68636e61 	stmdavs	r3!, {r0, r5, r6, r9, sl, fp, sp, lr}^
    b9bc:	6572705f 	ldrbvs	r7, [r2, #-95]!	; 0x5f
    b9c0:	00000064 	andeq	r0, r0, r4, rrx
    b9c4:	69685f56 	stmdbvs	r8!, {r1, r2, r4, r6, r8, r9, sl, fp, ip, lr}^
    b9c8:	655f6867 	ldrbvs	r6, [pc, #-2151]	; b169 <kmalloc+0x2d>
    b9cc:	70656378 	rsbvc	r6, r5, r8, ror r3
    b9d0:	00765f74 	rsbseq	r5, r6, r4, ror pc
    b9d4:	635f5252 	cmpvs	pc, #536870917	; 0x20000005
    b9d8:	65686361 	strbvs	r6, [r8, #-865]!	; 0x361
    b9dc:	7065725f 	rsbvc	r7, r5, pc, asr r2
    b9e0:	00000000 	andeq	r0, r0, r0
    b9e4:	0000344c 	andeq	r3, r0, ip, asr #8
    b9e8:	00003146 	andeq	r3, r0, r6, asr #2
    b9ec:	6e755f55 	mrcvs	15, 3, r5, cr5, cr5, {2}
    b9f0:	67696c61 	strbvs	r6, [r9, -r1, ror #24]!
    b9f4:	0064656e 	rsbeq	r6, r4, lr, ror #10
    b9f8:	705f5058 	subsvc	r5, pc, r8, asr r0	; <UNPREDICTABLE>
    b9fc:	00000074 	andeq	r0, r0, r4, ror r0
    ba00:	765f4556 			; <UNDEFINED> instruction: 0x765f4556
    ba04:	5f746365 	svcpl	0x00746365
    ba08:	00746e69 	rsbseq	r6, r4, r9, ror #28
    ba0c:	00004545 	andeq	r4, r0, r5, asr #10
    ba10:	745f5254 	ldrbvc	r5, [pc], #-596	; ba18 <__FUNCTION__.4528+0x54c>
    ba14:	725f7865 	subsvc	r7, pc, #6619136	; 0x650000
    ba18:	70616d65 	rsbvc	r6, r1, r5, ror #26
    ba1c:	00000000 	andeq	r0, r0, r0
    ba20:	665f4146 	ldrbvs	r4, [pc], -r6, asr #2
    ba24:	6563726f 	strbvs	r7, [r3, #-623]!	; 0x26f
    ba28:	0070615f 	rsbseq	r6, r0, pc, asr r1
    ba2c:	5f3e2d72 	svcpl	0x003e2d72
    ba30:	73756e75 	cmnvc	r5, #1872	; 0x750
    ba34:	20316465 	eorscs	r6, r1, r5, ror #8
    ba38:	30203d3d 	eorcc	r3, r0, sp, lsr sp
    ba3c:	31313162 	teqcc	r1, r2, ror #2
    ba40:	00000000 	andeq	r0, r0, r0
    ba44:	5f3e2d72 	svcpl	0x003e2d72
    ba48:	3d207464 	cfstrscc	mvf7, [r0, #-400]!	; 0xfffffe70
    ba4c:	0031203d 	eorseq	r2, r1, sp, lsr r0
    ba50:	5f3e2d72 	svcpl	0x003e2d72
    ba54:	3d207469 	cfstrscc	mvf7, [r0, #-420]!	; 0xfffffe5c
    ba58:	0031203d 	eorseq	r2, r1, sp, lsr r0
    ba5c:	5f3e2d72 	svcpl	0x003e2d72
    ba60:	307a6273 	rsbscc	r6, sl, r3, ror r2
    ba64:	203d3d20 	eorscs	r3, sp, r0, lsr #26
    ba68:	00000030 	andeq	r0, r0, r0, lsr r0
    ba6c:	5f3e2d72 	svcpl	0x003e2d72
    ba70:	317a6273 	cmncc	sl, r3, ror r2
    ba74:	203d3d20 	eorscs	r3, sp, r0, lsr #26
    ba78:	00000030 	andeq	r0, r0, r0, lsr r0
    ba7c:	5f3e2d72 	svcpl	0x003e2d72
    ba80:	3d207473 	cfstrscc	mvf7, [r0, #-460]!	; 0xfffffe34
    ba84:	0030203d 	eorseq	r2, r0, sp, lsr r0
    ba88:	3e2d7221 	cdpcc	2, 2, cr7, cr13, cr1, {1}
    ba8c:	655f324c 	ldrbvs	r3, [pc, #-588]	; b848 <__FUNCTION__.4528+0x37c>
    ba90:	6c62616e 	stfvse	f6, [r2], #-440	; 0xfffffe48
    ba94:	00006465 	andeq	r6, r0, r5, ror #8
    ba98:	3e2d7221 	cdpcc	2, 2, cr7, cr13, cr1, {1}
    ba9c:	63695f49 	cmnvs	r9, #292	; 0x124
    baa0:	65686361 	strbvs	r6, [r8, #-865]!	; 0x361
    baa4:	616e655f 	cmnvs	lr, pc, asr r5
    baa8:	00656c62 	rsbeq	r6, r5, r2, ror #24
    baac:	3e2d7221 	cdpcc	2, 2, cr7, cr13, cr1, {1}
    bab0:	6e755f43 	cdpvs	15, 7, cr5, cr5, cr3, {2}
    bab4:	65696669 	strbvs	r6, [r9, #-1641]!	; 0x669
    bab8:	6e655f64 	cdpvs	15, 6, cr5, cr5, cr4, {3}
    babc:	656c6261 	strbvs	r6, [ip, #-609]!	; 0x261
    bac0:	00000000 	andeq	r0, r0, r0
    bac4:	74737973 	ldrbtvc	r7, [r3], #-2419	; 0x973
    bac8:	63206d65 	teqvs	r0, #6464	; 0x1940
    bacc:	72746e6f 	rsbsvc	r6, r4, #1776	; 0x6f0
    bad0:	72206c6f 	eorvc	r6, r0, #28416	; 0x6f00
    bad4:	0a3d6765 	beq	f65870 <__bss_end__+0xf58e48>
    bad8:	00000000 	andeq	r0, r0, r0
    badc:	25623009 	strbcs	r3, [r2, #-9]!
    bae0:	203d0962 	eorscs	r0, sp, r2, ror #18
    bae4:	000a7325 	andeq	r7, sl, r5, lsr #6
    bae8:	25783009 	ldrbcs	r3, [r8, #-9]!
    baec:	00000a78 	andeq	r0, r0, r8, ror sl
    baf0:	66696e75 			; <UNDEFINED> instruction: 0x66696e75
    baf4:	5f646569 	svcpl	0x00646569
    baf8:	00000070 	andeq	r0, r0, r0, ror r0
    bafc:	5f645f6e 	svcpl	0x00645f6e
    bb00:	6b636f6c 	blvs	18e78b8 <__bss_end__+0x18dae90>
    bb04:	00000000 	andeq	r0, r0, r0
    bb08:	5f695f6e 	svcpl	0x00695f6e
    bb0c:	6b636f6c 	blvs	18e78c4 <__bss_end__+0x18dae9c>
    bb10:	00000000 	andeq	r0, r0, r0
    bb14:	20424c54 	subcs	r4, r2, r4, asr ip
    bb18:	666e6f63 	strbtvs	r6, [lr], -r3, ror #30
    bb1c:	0a3a6769 	beq	ea58c8 <__bss_end__+0xe98ea0>
    bb20:	00000000 	andeq	r0, r0, r0
    bb24:	696e7509 	stmdbvs	lr!, {r0, r3, r8, sl, ip, sp, lr}^
    bb28:	64656966 	strbtvs	r6, [r5], #-2406	; 0x966
    bb2c:	0a64253d 	beq	1915028 <__bss_end__+0x1908600>
    bb30:	00000000 	andeq	r0, r0, r0
    bb34:	636f6c09 	cmnvs	pc, #2304	; 0x900
    bb38:	6c62616b 	stfvse	f6, [r2], #-428	; 0xfffffe54
    bb3c:	61642065 	cmnvs	r4, r5, rrx
    bb40:	65206174 	strvs	r6, [r0, #-372]!	; 0x174
    bb44:	253d746e 	ldrcs	r7, [sp, #-1134]!	; 0x46e
    bb48:	00000a64 	andeq	r0, r0, r4, ror #20
    bb4c:	636f6c09 	cmnvs	pc, #2304	; 0x900
    bb50:	6c62616b 	stfvse	f6, [r2], #-428	; 0xfffffe54
    bb54:	6e692065 	cdpvs	0, 6, cr2, cr9, cr5, {3}
    bb58:	65207473 	strvs	r7, [r0, #-1139]!	; 0x473
    bb5c:	253d746e 	ldrcs	r7, [sp, #-1134]!	; 0x46e
    bb60:	00000a64 	andeq	r0, r0, r4, ror #20
    bb64:	5f3e2d66 	svcpl	0x003e2d66
    bb68:	317a6273 	cmncc	sl, r3, ror r2
    bb6c:	203d3d20 	eorscs	r3, sp, r0, lsr #26
    bb70:	00000030 	andeq	r0, r0, r0, lsr r0
    bb74:	743e2d66 	ldrtvc	r2, [lr], #-3430	; 0xd66
    bb78:	3d206761 	stccc	7, cr6, [r0, #-388]!	; 0xfffffe7c
    bb7c:	6230203d 	eorsvs	r2, r0, #61	; 0x3d
    bb80:	00003031 	andeq	r3, r0, r1, lsr r0
    bb84:	533e2d66 	teqpl	lr, #6528	; 0x1980
    bb88:	203d3d20 	eorscs	r3, sp, r0, lsr #26
    bb8c:	00000030 	andeq	r0, r0, r0, lsr r0
    bb90:	493e2d66 	ldmdbmi	lr!, {r1, r2, r5, r6, r8, sl, fp, sp}
    bb94:	3d20504d 	stccc	0, cr5, [r0, #-308]!	; 0xfffffecc
    bb98:	0030203d 	eorseq	r2, r0, sp, lsr r0
    bb9c:	543e2d66 	ldrtpl	r2, [lr], #-3430	; 0xd66
    bba0:	3d205845 	stccc	8, cr5, [r0, #-276]!	; 0xfffffeec
    bba4:	0030203d 	eorseq	r2, r0, sp, lsr r0
    bba8:	433e2d66 	teqmi	lr, #6528	; 0x1980
    bbac:	203d3d20 	eorscs	r3, sp, r0, lsr #26
    bbb0:	00000030 	andeq	r0, r0, r0, lsr r0
    bbb4:	423e2d66 	eorsmi	r2, lr, #6528	; 0x1980
    bbb8:	203d3d20 	eorscs	r3, sp, r0, lsr #26
    bbbc:	00000030 	andeq	r0, r0, r0, lsr r0
    bbc0:	733e2d66 	teqvc	lr, #6528	; 0x1980
    bbc4:	72657075 	rsbvc	r7, r5, #117	; 0x75
    bbc8:	203d3d20 	eorscs	r3, sp, r0, lsr #26
    bbcc:	00000030 	andeq	r0, r0, r0, lsr r0
    bbd0:	00676174 	rsbeq	r6, r7, r4, ror r1
    bbd4:	00000042 	andeq	r0, r0, r2, asr #32
    bbd8:	00000043 	andeq	r0, r0, r3, asr #32
    bbdc:	00004e58 	andeq	r4, r0, r8, asr lr
    bbe0:	616d6f64 	cmnvs	sp, r4, ror #30
    bbe4:	00006e69 	andeq	r6, r0, r9, ror #28
    bbe8:	00504d49 	subseq	r4, r0, r9, asr #26
    bbec:	00005041 	andeq	r5, r0, r1, asr #32
    bbf0:	00584554 	subseq	r4, r8, r4, asr r5
    bbf4:	00585041 	subseq	r5, r8, r1, asr #32
    bbf8:	00000053 	andeq	r0, r0, r3, asr r0
    bbfc:	0000476e 	andeq	r4, r0, lr, ror #14
    bc00:	65707573 	ldrbvs	r7, [r0, #-1395]!	; 0x573
    bc04:	00000072 	andeq	r0, r0, r2, ror r0
    bc08:	5f636573 	svcpl	0x00636573
    bc0c:	65736162 	ldrbvs	r6, [r3, #-354]!	; 0x162
    bc10:	6464615f 	strbtvs	r6, [r4], #-351	; 0x15f
    bc14:	00000072 	andeq	r0, r0, r2, ror r0
    bc18:	2d2d2d2d 	stccs	13, cr2, [sp, #-180]!	; 0xffffff4c
    bc1c:	2d2d2d2d 	stccs	13, cr2, [sp, #-180]!	; 0xffffff4c
    bc20:	2d2d2d2d 	stccs	13, cr2, [sp, #-180]!	; 0xffffff4c
    bc24:	2d2d2d2d 	stccs	13, cr2, [sp, #-180]!	; 0xffffff4c
    bc28:	2d2d2d2d 	stccs	13, cr2, [sp, #-180]!	; 0xffffff4c
    bc2c:	2d2d2d2d 	stccs	13, cr2, [sp, #-180]!	; 0xffffff4c
    bc30:	2d2d2d2d 	stccs	13, cr2, [sp, #-180]!	; 0xffffff4c
    bc34:	000a2d2d 	andeq	r2, sl, sp, lsr #26
    bc38:	78257830 	stmdavc	r5!, {r4, r5, fp, ip, sp, lr}
    bc3c:	00000a3a 	andeq	r0, r0, sl, lsr sl
    bc40:	2d202009 	stccs	0, cr2, [r0, #-36]!	; 0xffffffdc
    bc44:	76203e2d 	strtvc	r3, [r0], -sp, lsr #28
    bc48:	78303d61 	ldmdavc	r0!, {r0, r5, r6, r8, sl, fp, ip, sp}
    bc4c:	0a783825 	beq	1e19ce8 <__bss_end__+0x1e0d2c0>
    bc50:	00000000 	andeq	r0, r0, r0
    bc54:	20202009 	eorcs	r2, r0, r9
    bc58:	20202020 	eorcs	r2, r0, r0, lsr #32
    bc5c:	20202020 	eorcs	r2, r0, r0, lsr #32
    bc60:	34353637 	ldrtcc	r3, [r5], #-1591	; 0x637
    bc64:	30313233 	eorscc	r3, r1, r3, lsr r2
    bc68:	0000000a 	andeq	r0, r0, sl

0000bc6c <__FUNCTION__.4576>:
    bc6c:	746e6f63 	strbtvc	r6, [lr], #-3939	; 0xf63
    bc70:	5f6c6f72 	svcpl	0x006c6f72
    bc74:	31676572 	smccc	30290	; 0x7652
    bc78:	6e61735f 	mcrvs	3, 3, r7, cr1, cr15, {2}
    bc7c:	5f797469 	svcpl	0x00797469
    bc80:	63656863 	cmnvs	r5, #6488064	; 0x630000
    bc84:	0000006b 	andeq	r0, r0, fp, rrx

0000bc88 <__FUNCTION__.4619>:
    bc88:	5f646c66 	svcpl	0x00646c66
    bc8c:	63656863 	cmnvs	r5, #6488064	; 0x630000
    bc90:	61765f6b 	cmnvs	r6, fp, ror #30
    bc94:	0064696c 	rsbeq	r6, r4, ip, ror #18

0000bc98 <__FUNCTION__.4390>:
    bc98:	746e6f63 	strbtvc	r6, [lr], #-3939	; 0xf63
    bc9c:	5f6c6f72 	svcpl	0x006c6f72
    bca0:	31676572 	smccc	30290	; 0x7652
    bca4:	6568635f 	strbvs	r6, [r8, #-863]!	; 0x35f
    bca8:	6f5f6b63 	svcvs	0x005f6b63
    bcac:	65736666 	ldrbvs	r6, [r3, #-1638]!	; 0x666
    bcb0:	00007374 	andeq	r7, r0, r4, ror r3

0000bcb4 <__FUNCTION__.4592>:
    bcb4:	5f626c74 	svcpl	0x00626c74
    bcb8:	666e6f63 	strbtvs	r6, [lr], -r3, ror #30
    bcbc:	635f6769 	cmpvs	pc, #27525120	; 0x1a40000
    bcc0:	6b636568 	blvs	18e5268 <__bss_end__+0x18d8840>
    bcc4:	66666f5f 	uqsaxvs	r6, r6, pc	; <UNPREDICTABLE>
    bcc8:	73746573 	cmnvc	r4, #482344960	; 0x1cc00000
    bccc:	00000000 	andeq	r0, r0, r0

0000bcd0 <__FUNCTION__.4628>:
    bcd0:	5f646c66 	svcpl	0x00646c66
    bcd4:	63656863 	cmnvs	r5, #6488064	; 0x630000
    bcd8:	666f5f6b 	strbtvs	r5, [pc], -fp, ror #30
    bcdc:	74657366 	strbtvc	r7, [r5], #-870	; 0x366
    bce0:	00000073 	andeq	r0, r0, r3, ror r0
    bce4:	636d656d 	cmnvs	sp, #457179136	; 0x1b400000
    bce8:	6b636568 	blvs	18e5290 <__bss_end__+0x18d8868>
    bcec:	0000632e 	andeq	r6, r0, lr, lsr #6
    bcf0:	61662e6c 	cmnvs	r6, ip, ror #28
    bcf4:	5f746c75 	svcpl	0x00746c75
    bcf8:	72646461 	rsbvc	r6, r4, #1627389952	; 0x61000000
    bcfc:	203d3d20 	eorscs	r3, sp, r0, lsr #26
    bd00:	72646461 	rsbvc	r6, r4, #1627389952	; 0x61000000
    bd04:	00000000 	andeq	r0, r0, r0
    bd08:	61662e6c 	cmnvs	r6, ip, ror #28
    bd0c:	5f746c75 	svcpl	0x00746c75
    bd10:	3d206370 	stccc	3, cr6, [r0, #-448]!	; 0xfffffe40
    bd14:	6370203d 	cmnvs	r0, #61	; 0x3d
    bd18:	00000000 	andeq	r0, r0, r0
    bd1c:	61662e6c 	cmnvs	r6, ip, ror #28
    bd20:	5f746c75 	svcpl	0x00746c75
    bd24:	73616572 	cmnvc	r1, #478150656	; 0x1c800000
    bd28:	3d206e6f 	stccc	14, cr6, [r0, #-444]!	; 0xfffffe44
    bd2c:	6572203d 	ldrbvs	r2, [r2, #-61]!	; 0x3d
    bd30:	6e6f7361 	cdpvs	3, 6, cr7, cr15, cr1, {3}
    bd34:	00000000 	andeq	r0, r0, r0
    bd38:	20776173 	rsbscs	r6, r7, r3, ror r1
    bd3c:	65707865 	ldrbvs	r7, [r0, #-2149]!	; 0x865
    bd40:	64657463 	strbtvs	r7, [r5], #-1123	; 0x463
    bd44:	75616620 	strbvc	r6, [r1, #-1568]!	; 0x620
    bd48:	6120746c 	teqvs	r0, ip, ror #8
    bd4c:	63702074 	cmnvs	r0, #116	; 0x74
    bd50:	2c70253d 	cfldr64cs	mvdx2, [r0], #-244	; 0xffffff0c
    bd54:	64646120 	strbtvs	r6, [r4], #-288	; 0x120
    bd58:	70253d72 	eorvc	r3, r5, r2, ror sp
    bd5c:	6572202c 	ldrbvs	r2, [r2, #-44]!	; 0x2c
    bd60:	6e6f7361 	cdpvs	3, 6, cr7, cr15, cr1, {3}
    bd64:	0a64253d 	beq	1915260 <__bss_end__+0x1908838>
    bd68:	00000000 	andeq	r0, r0, r0
    bd6c:	69622f2e 	stmdbvs	r2!, {r1, r2, r3, r5, r8, r9, sl, fp, sp}^
    bd70:	75732d74 	ldrbvc	r2, [r3, #-3444]!	; 0xd74
    bd74:	726f7070 	rsbvc	r7, pc, #112	; 0x70
    bd78:	00682e74 	rsbeq	r2, r8, r4, ror lr
    bd7c:	3c20626c 	sfmcc	f6, 4, [r0], #-432	; 0xfffffe50
    bd80:	6275203d 	rsbsvs	r2, r5, #61	; 0x3d
    bd84:	00000000 	andeq	r0, r0, r0
    bd88:	3c206275 	sfmcc	f6, 4, [r0], #-468	; 0xfffffe2c
    bd8c:	00323320 	eorseq	r3, r2, r0, lsr #6
    bd90:	6d726570 	cfldr64vs	mvdx6, [r2, #-448]!	; 0xfffffe40
    bd94:	203d3d20 	eorscs	r3, sp, r0, lsr #26
    bd98:	5f4d4f44 	svcpl	0x004d4f44
    bd9c:	65696c63 	strbvs	r6, [r9, #-3171]!	; 0xc63
    bda0:	7c20746e 	cfstrsvc	mvf7, [r0], #-440	; 0xfffffe48
    bda4:	6570207c 	ldrbvs	r2, [r0, #-124]!	; 0x7c
    bda8:	3d206d72 	stccc	13, cr6, [r0, #-456]!	; 0xfffffe38
    bdac:	4f44203d 	svcmi	0x0044203d
    bdb0:	6f6e5f4d 	svcvs	0x006e5f4d
    bdb4:	6363615f 	cmnvs	r3, #-1073741801	; 0xc0000017
    bdb8:	00737365 	rsbseq	r7, r3, r5, ror #6
    bdbc:	64206e49 	strtvs	r6, [r0], #-3657	; 0xe49
    bdc0:	20617461 	rsbcs	r7, r1, r1, ror #8
    bdc4:	726f6261 	rsbvc	r6, pc, #268435462	; 0x10000006
    bdc8:	65762074 	ldrbvs	r2, [r6, #-116]!	; 0x74
    bdcc:	726f7463 	rsbvc	r7, pc, #1660944384	; 0x63000000
    bdd0:	0000000a 	andeq	r0, r0, sl
    bdd4:	494e4150 	stmdbmi	lr, {r4, r6, r8, lr}^
    bdd8:	73253a43 	teqvc	r5, #274432	; 0x43000
    bddc:	3a73253a 	bcc	1cd52cc <__bss_end__+0x1cc88a4>
    bde0:	413a6425 	teqmi	sl, r5, lsr #8
    bde4:	6e67696c 	cdpvs	9, 6, cr6, cr7, cr12, {3}
    bde8:	746e656d 	strbtvc	r6, [lr], #-1389	; 0x56d
    bdec:	75616620 	strbvc	r6, [r1, #-1568]!	; 0x620
    bdf0:	0a0a746c 	beq	2a8fa8 <__bss_end__+0x29c580>
    bdf4:	00000000 	andeq	r0, r0, r0
    bdf8:	494e4150 	stmdbmi	lr, {r4, r6, r8, lr}^
    bdfc:	73253a43 	teqvc	r5, #274432	; 0x43000
    be00:	3a73253a 	bcc	1cd52f0 <__bss_end__+0x1cc88c8>
    be04:	543a6425 	ldrtpl	r6, [sl], #-1061	; 0x425
    be08:	4d20424c 	sfmmi	f4, 4, [r0, #-304]!	; 0xfffffed0
    be0c:	20737369 	rsbscs	r7, r3, r9, ror #6
    be10:	00000a0a 	andeq	r0, r0, sl, lsl #20
    be14:	494e4150 	stmdbmi	lr, {r4, r6, r8, lr}^
    be18:	73253a43 	teqvc	r5, #274432	; 0x43000
    be1c:	3a73253a 	bcc	1cd530c <__bss_end__+0x1cc88e4>
    be20:	443a6425 	ldrtmi	r6, [sl], #-1061	; 0x425
    be24:	41207065 	teqmi	r0, r5, rrx
    be28:	6e67696c 	cdpvs	9, 6, cr6, cr7, cr12, {3}
    be2c:	746e656d 	strbtvc	r6, [lr], #-1389	; 0x56d
    be30:	75616620 	strbvc	r6, [r1, #-1568]!	; 0x620
    be34:	0a0a746c 	beq	2a8fec <__bss_end__+0x29c5c4>
    be38:	00000000 	andeq	r0, r0, r0
    be3c:	494e4150 	stmdbmi	lr, {r4, r6, r8, lr}^
    be40:	73253a43 	teqvc	r5, #274432	; 0x43000
    be44:	3a73253a 	bcc	1cd5334 <__bss_end__+0x1cc890c>
    be48:	493a6425 	ldmdbmi	sl!, {r0, r2, r5, sl, sp, lr}
    be4c:	68636143 	stmdavs	r3!, {r0, r1, r6, r8, sp, lr}^
    be50:	614d2065 	cmpvs	sp, r5, rrx
    be54:	65746e69 	ldrbvs	r6, [r4, #-3689]!	; 0xe69
    be58:	636e616e 	cmnvs	lr, #-2147483621	; 0x8000001b
    be5c:	61662065 	cmnvs	r6, r5, rrx
    be60:	0a746c75 	beq	1d2703c <__bss_end__+0x1d1a614>
    be64:	0000000a 	andeq	r0, r0, sl
    be68:	494e4150 	stmdbmi	lr, {r4, r6, r8, lr}^
    be6c:	73253a43 	teqvc	r5, #274432	; 0x43000
    be70:	3a73253a 	bcc	1cd5360 <__bss_end__+0x1cc8938>
    be74:	543a6425 	ldrtpl	r6, [sl], #-1061	; 0x425
    be78:	736e6172 	cmnvc	lr, #-2147483620	; 0x8000001c
    be7c:	6974616c 	ldmdbvs	r4!, {r2, r3, r5, r6, r8, sp, lr}^
    be80:	4c206e6f 	stcmi	14, cr6, [r0], #-444	; 0xfffffe44
    be84:	6c657665 	stclvs	6, cr7, [r5], #-404	; 0xfffffe6c
    be88:	66203120 	strtvs	r3, [r0], -r0, lsr #2
    be8c:	746c7561 	strbtvc	r7, [ip], #-1377	; 0x561
    be90:	00000a0a 	andeq	r0, r0, sl, lsl #20
    be94:	494e4150 	stmdbmi	lr, {r4, r6, r8, lr}^
    be98:	73253a43 	teqvc	r5, #274432	; 0x43000
    be9c:	3a73253a 	bcc	1cd538c <__bss_end__+0x1cc8964>
    bea0:	543a6425 	ldrtpl	r6, [sl], #-1061	; 0x425
    bea4:	736e6172 	cmnvc	lr, #-2147483620	; 0x8000001c
    bea8:	6974616c 	ldmdbvs	r4!, {r2, r3, r5, r6, r8, sp, lr}^
    beac:	6c206e6f 	stcvs	14, cr6, [r0], #-444	; 0xfffffe44
    beb0:	6c657665 	stclvs	6, cr7, [r5], #-404	; 0xfffffe6c
    beb4:	66203220 	strtvs	r3, [r0], -r0, lsr #4
    beb8:	746c7561 	strbtvc	r7, [ip], #-1377	; 0x561
    bebc:	00000a0a 	andeq	r0, r0, sl, lsl #20
    bec0:	74636573 	strbtvc	r6, [r3], #-1395	; 0x573
    bec4:	206e6f69 	rsbcs	r6, lr, r9, ror #30
    bec8:	74616c78 	strbtvc	r6, [r1], #-3192	; 0xc78
    becc:	61662065 	cmnvs	r6, r5, rrx
    bed0:	3a746c75 	bcc	1d270ac <__bss_end__+0x1d1a684>
    bed4:	64646120 	strbtvs	r6, [r4], #-288	; 0x120
    bed8:	70253d72 	eorvc	r3, r5, r2, ror sp
    bedc:	7461202c 	strbtvc	r2, [r1], #-44	; 0x2c
    bee0:	3d637020 	stclcc	0, cr7, [r3, #-128]!	; 0xffffff80
    bee4:	000a7025 	andeq	r7, sl, r5, lsr #32
    bee8:	494e4150 	stmdbmi	lr, {r4, r6, r8, lr}^
    beec:	73253a43 	teqvc	r5, #274432	; 0x43000
    bef0:	3a73253a 	bcc	1cd53e0 <__bss_end__+0x1cc89b8>
    bef4:	543a6425 	ldrtpl	r6, [sl], #-1061	; 0x425
    bef8:	736e6172 	cmnvc	lr, #-2147483620	; 0x8000001c
    befc:	6974616c 	ldmdbvs	r4!, {r2, r3, r5, r6, r8, sp, lr}^
    bf00:	70206e6f 	eorvc	r6, r0, pc, ror #28
    bf04:	20656761 	rsbcs	r6, r5, r1, ror #14
    bf08:	6c756166 	ldfvse	f6, [r5], #-408	; 0xfffffe68
    bf0c:	000a0a74 	andeq	r0, sl, r4, ror sl
    bf10:	616d6f44 	cmnvs	sp, r4, asr #30
    bf14:	73206e69 	teqvc	r0, #1680	; 0x690
    bf18:	69746365 	ldmdbvs	r4!, {r0, r2, r5, r6, r8, r9, sp, lr}^
    bf1c:	66206e6f 	strtvs	r6, [r0], -pc, ror #28
    bf20:	746c7561 	strbtvc	r7, [ip], #-1377	; 0x561
    bf24:	0000000a 	andeq	r0, r0, sl
    bf28:	6e696f47 	cdpvs	15, 6, cr6, cr9, cr7, {2}
    bf2c:	6f742067 	svcvs	0x00742067
    bf30:	65696420 	strbvs	r6, [r9, #-1056]!	; 0x420
    bf34:	00000a21 	andeq	r0, r0, r1, lsr #20
    bf38:	6e696f67 	cdpvs	15, 6, cr6, cr9, cr7, {3}
    bf3c:	6f742067 	svcvs	0x00742067
    bf40:	79727420 	ldmdbvc	r2!, {r5, sl, ip, sp, lr}^
    bf44:	206f7420 	rsbcs	r7, pc, r0, lsr #8
    bf48:	75736572 	ldrbvc	r6, [r3, #-1394]!	; 0x572
    bf4c:	000a656d 	andeq	r6, sl, sp, ror #10
    bf50:	494e4150 	stmdbmi	lr, {r4, r6, r8, lr}^
    bf54:	73253a43 	teqvc	r5, #274432	; 0x43000
    bf58:	3a73253a 	bcc	1cd5448 <__bss_end__+0x1cc8a20>
    bf5c:	443a6425 	ldrtmi	r6, [sl], #-1061	; 0x425
    bf60:	69616d6f 	stmdbvs	r1!, {r0, r1, r2, r3, r5, r6, r8, sl, fp, sp, lr}^
    bf64:	6170206e 	cmnvs	r0, lr, rrx
    bf68:	66206567 	strtvs	r6, [r0], -r7, ror #10
    bf6c:	746c7561 	strbtvc	r7, [ip], #-1377	; 0x561
    bf70:	00000a0a 	andeq	r0, r0, sl, lsl #20
    bf74:	494e4150 	stmdbmi	lr, {r4, r6, r8, lr}^
    bf78:	73253a43 	teqvc	r5, #274432	; 0x43000
    bf7c:	3a73253a 	bcc	1cd546c <__bss_end__+0x1cc8a44>
    bf80:	733a6425 	teqvc	sl, #620756992	; 0x25000000
    bf84:	69746365 	ldmdbvs	r4!, {r0, r2, r5, r6, r8, r9, sp, lr}^
    bf88:	70206e6f 	eorvc	r6, r0, pc, ror #28
    bf8c:	696d7265 	stmdbvs	sp!, {r0, r2, r5, r6, r9, ip, sp, lr}^
    bf90:	6f697373 	svcvs	0x00697373
    bf94:	6166206e 	cmnvs	r6, lr, rrx
    bf98:	3a746c75 	bcc	1d27174 <__bss_end__+0x1d1a74c>
    bf9c:	0a782520 	beq	1e15424 <__bss_end__+0x1e089fc>
    bfa0:	00000000 	andeq	r0, r0, r0
    bfa4:	494e4150 	stmdbmi	lr, {r4, r6, r8, lr}^
    bfa8:	73253a43 	teqvc	r5, #274432	; 0x43000
    bfac:	3a73253a 	bcc	1cd549c <__bss_end__+0x1cc8a74>
    bfb0:	503a6425 	eorspl	r6, sl, r5, lsr #8
    bfb4:	696d7265 	stmdbvs	sp!, {r0, r2, r5, r6, r9, ip, sp, lr}^
    bfb8:	6f697373 	svcvs	0x00697373
    bfbc:	6170206e 	cmnvs	r0, lr, rrx
    bfc0:	66206567 	strtvs	r6, [r0], -r7, ror #10
    bfc4:	746c7561 	strbtvc	r7, [ip], #-1377	; 0x561
    bfc8:	00000a0a 	andeq	r0, r0, sl, lsl #20
    bfcc:	494e4150 	stmdbmi	lr, {r4, r6, r8, lr}^
    bfd0:	73253a43 	teqvc	r5, #274432	; 0x43000
    bfd4:	3a73253a 	bcc	1cd54c4 <__bss_end__+0x1cc8a9c>
    bfd8:	503a6425 	eorspl	r6, sl, r5, lsr #8
    bfdc:	69636572 	stmdbvs	r3!, {r1, r4, r5, r6, r8, sl, sp, lr}^
    bfe0:	65206573 	strvs	r6, [r0, #-1395]!	; 0x573
    bfe4:	72657478 	rsbvc	r7, r5, #120, 8	; 0x78000000
    bfe8:	206c616e 	rsbcs	r6, ip, lr, ror #2
    bfec:	726f6261 	rsbvc	r6, pc, #268435462	; 0x10000006
    bff0:	000a0a74 	andeq	r0, sl, r4, ror sl
    bff4:	494e4150 	stmdbmi	lr, {r4, r6, r8, lr}^
    bff8:	73253a43 	teqvc	r5, #274432	; 0x43000
    bffc:	3a73253a 	bcc	1cd54ec <__bss_end__+0x1cc8ac4>
    c000:	453a6425 	ldrmi	r6, [sl, #-1061]!	; 0x425
    c004:	72657478 	rsbvc	r7, r5, #120, 8	; 0x78000000
    c008:	206c616e 	rsbcs	r6, ip, lr, ror #2
    c00c:	726f6261 	rsbvc	r6, pc, #268435462	; 0x10000006
    c010:	72702074 	rsbsvc	r2, r0, #116	; 0x74
    c014:	73696365 	cmnvc	r9, #-1811939327	; 0x94000001
    c018:	000a0a65 	andeq	r0, sl, r5, ror #20
    c01c:	494e4150 	stmdbmi	lr, {r4, r6, r8, lr}^
    c020:	73253a43 	teqvc	r5, #274432	; 0x43000
    c024:	3a73253a 	bcc	1cd5514 <__bss_end__+0x1cc8aec>
    c028:	543a6425 	ldrtpl	r6, [sl], #-1061	; 0x425
    c02c:	4c20424c 	sfmmi	f4, 4, [r0], #-304	; 0xfffffed0
    c030:	0a6b636f 	beq	1ae4df4 <__bss_end__+0x1ad83cc>
    c034:	0000000a 	andeq	r0, r0, sl
    c038:	494e4150 	stmdbmi	lr, {r4, r6, r8, lr}^
    c03c:	73253a43 	teqvc	r5, #274432	; 0x43000
    c040:	3a73253a 	bcc	1cd5530 <__bss_end__+0x1cc8b08>
    c044:	433a6425 	teqmi	sl, #620756992	; 0x25000000
    c048:	6f72706f 	svcvs	0x0072706f
    c04c:	73736563 	cmnvc	r3, #415236096	; 0x18c00000
    c050:	6420726f 	strtvs	r7, [r0], #-623	; 0x26f
    c054:	20617461 	rsbcs	r7, r1, r1, ror #8
    c058:	726f6261 	rsbvc	r6, pc, #268435462	; 0x10000006
    c05c:	000a0a74 	andeq	r0, sl, r4, ror sl
    c060:	494e4150 	stmdbmi	lr, {r4, r6, r8, lr}^
    c064:	73253a43 	teqvc	r5, #274432	; 0x43000
    c068:	3a73253a 	bcc	1cd5558 <__bss_end__+0x1cc8b30>
    c06c:	493a6425 	ldmdbmi	sl!, {r0, r2, r5, sl, sp, lr}
    c070:	6572706d 	ldrbvs	r7, [r2, #-109]!	; 0x6d
    c074:	65736963 	ldrbvs	r6, [r3, #-2403]!	; 0x963
    c078:	74786520 	ldrbtvc	r6, [r8], #-1312	; 0x520
    c07c:	616e7265 	cmnvs	lr, r5, ror #4
    c080:	6261206c 	rsbvs	r2, r1, #108	; 0x6c
    c084:	0a74726f 	beq	1d28a48 <__bss_end__+0x1d1c020>
    c088:	0000000a 	andeq	r0, r0, sl
    c08c:	494e4150 	stmdbmi	lr, {r4, r6, r8, lr}^
    c090:	73253a43 	teqvc	r5, #274432	; 0x43000
    c094:	3a73253a 	bcc	1cd5584 <__bss_end__+0x1cc8b5c>
    c098:	503a6425 	eorspl	r6, sl, r5, lsr #8
    c09c:	74697261 	strbtvc	r7, [r9], #-609	; 0x261
    c0a0:	72652079 	rsbvc	r2, r5, #121	; 0x79
    c0a4:	20726f72 	rsbscs	r6, r2, r2, ror pc
    c0a8:	65637865 	strbvs	r7, [r3, #-2149]!	; 0x865
    c0ac:	6f697470 	svcvs	0x00697470
    c0b0:	000a0a6e 	andeq	r0, sl, lr, ror #20
    c0b4:	494e4150 	stmdbmi	lr, {r4, r6, r8, lr}^
    c0b8:	73253a43 	teqvc	r5, #274432	; 0x43000
    c0bc:	3a73253a 	bcc	1cd55ac <__bss_end__+0x1cc8b84>
    c0c0:	443a6425 	ldrtmi	r6, [sl], #-1061	; 0x425
    c0c4:	67756265 	ldrbvs	r6, [r5, -r5, ror #4]!
    c0c8:	65766520 	ldrbvs	r6, [r6, #-1312]!	; 0x520
    c0cc:	0a0a746e 	beq	2a928c <__bss_end__+0x29c864>
    c0d0:	00000000 	andeq	r0, r0, r0
    c0d4:	494e4150 	stmdbmi	lr, {r4, r6, r8, lr}^
    c0d8:	73253a43 	teqvc	r5, #274432	; 0x43000
    c0dc:	3a73253a 	bcc	1cd55cc <__bss_end__+0x1cc8ba4>
    c0e0:	573a6425 	ldrpl	r6, [sl, -r5, lsr #8]!
    c0e4:	63204654 	teqvs	r0, #84, 12	; 0x5400000
    c0e8:	20657361 	rsbcs	r7, r5, r1, ror #6
    c0ec:	74207369 	strtvc	r7, [r0], #-873	; 0x369
    c0f0:	21736968 	cmncs	r3, r8, ror #18
    c0f4:	3f3f213f 	svccc	0x003f213f
    c0f8:	0000000a 	andeq	r0, r0, sl
    c0fc:	494e4150 	stmdbmi	lr, {r4, r6, r8, lr}^
    c100:	73253a43 	teqvc	r5, #274432	; 0x43000
    c104:	3a73253a 	bcc	1cd55f4 <__bss_end__+0x1cc8bcc>
    c108:	693a6425 	ldmdbvs	sl!, {r0, r2, r5, sl, sp, lr}
    c10c:	736f706d 	cmnvc	pc, #109	; 0x6d
    c110:	6c626973 	stclvs	9, cr6, [r2], #-460	; 0xfffffe34
    c114:	000a0a65 	andeq	r0, sl, r5, ror #20
    c118:	3d207470 	cfstrscc	mvf7, [r0, #-448]!	; 0xfffffe40
    c11c:	6162203d 	cmnvs	r2, sp, lsr r0
    c120:	00006573 	andeq	r6, r0, r3, ror r5
    c124:	253a7325 	ldrcs	r7, [sl, #-805]!	; 0x325
    c128:	64253a73 	strtvs	r3, [r5], #-2675	; 0xa73
    c12c:	6d656d3a 	stclvs	13, cr6, [r5, #-232]!	; 0xffffff18
    c130:	63656863 	cmnvs	r5, #6488064	; 0x630000
    c134:	61203a6b 	teqvs	r0, fp, ror #20
    c138:	74756f62 	ldrbtvc	r6, [r5], #-3938	; 0xf62
    c13c:	206f7420 	rsbcs	r7, pc, r0, lsr #8
    c140:	6e727574 	mrcvs	5, 3, r7, cr2, cr4, {3}
    c144:	0a4e4f20 	beq	139fdcc <__bss_end__+0x13933a4>
    c148:	00000000 	andeq	r0, r0, r0
    c14c:	5f756d6d 	svcpl	0x00756d6d
    c150:	655f7369 	ldrbvs	r7, [pc, #-873]	; bdef <__FUNCTION__.4628+0x11f>
    c154:	6c62616e 	stfvse	f6, [r2], #-440	; 0xfffffe48
    c158:	29286465 	stmdbcs	r8!, {r0, r2, r5, r6, sl, sp, lr}
    c15c:	00000000 	andeq	r0, r0, r0
    c160:	253a7325 	ldrcs	r7, [sl, #-805]!	; 0x325
    c164:	64253a73 	strtvs	r3, [r5], #-2675	; 0xa73
    c168:	6d656d3a 	stclvs	13, cr6, [r5, #-232]!	; 0xffffff18
    c16c:	63656863 	cmnvs	r5, #6488064	; 0x630000
    c170:	4f203a6b 	svcmi	0x00203a6b
    c174:	00000a4e 	andeq	r0, r0, lr, asr #20
    c178:	253a7325 	ldrcs	r7, [sl, #-805]!	; 0x325
    c17c:	64253a73 	strtvs	r3, [r5], #-2675	; 0xa73
    c180:	6d656d3a 	stclvs	13, cr6, [r5, #-232]!	; 0xffffff18
    c184:	63656863 	cmnvs	r5, #6488064	; 0x630000
    c188:	4f203a6b 	svcmi	0x00203a6b
    c18c:	000a4646 	andeq	r4, sl, r6, asr #12
    c190:	615f7369 	cmpvs	pc, r9, ror #6
    c194:	6e67696c 	cdpvs	9, 6, cr6, cr7, cr12, {3}
    c198:	62286465 	eorvs	r6, r8, #1694498816	; 0x65000000
    c19c:	2c657361 	stclcs	3, cr7, [r5], #-388	; 0xfffffe7c
    c1a0:	4d656e4f 	stclmi	14, cr6, [r5, #-316]!	; 0xfffffec4
    c1a4:	00002942 	andeq	r2, r0, r2, asr #18
    c1a8:	6d656d21 	stclvs	13, cr6, [r5, #-132]!	; 0xffffff7c
    c1ac:	63656863 	cmnvs	r5, #6488064	; 0x630000
    c1b0:	72745f6b 	rsbsvc	r5, r4, #428	; 0x1ac
    c1b4:	655f7061 	ldrbvs	r7, [pc, #-97]	; c15b <__FUNCTION__.4628+0x48b>
    c1b8:	6c62616e 	stfvse	f6, [r2], #-440	; 0xfffffe48
    c1bc:	29286465 	stmdbcs	r8!, {r0, r2, r5, r6, sl, sp, lr}
    c1c0:	00000000 	andeq	r0, r0, r0
    c1c4:	636d656d 	cmnvs	sp, #457179136	; 0x1b400000
    c1c8:	6b636568 	blvs	18e5770 <__bss_end__+0x18d8d48>
    c1cc:	6172745f 	cmnvs	r2, pc, asr r4
    c1d0:	6e655f70 	mcrvs	15, 3, r5, cr5, cr0, {3}
    c1d4:	656c6261 	strbvs	r6, [ip, #-609]!	; 0x261
    c1d8:	00292864 	eoreq	r2, r9, r4, ror #16

0000c1dc <__FUNCTION__.4649>:
    c1dc:	6c756166 	ldfvse	f6, [r5], #-408	; 0xfffffe68
    c1e0:	78655f74 	stmdavc	r5!, {r2, r4, r5, r6, r8, r9, sl, fp, ip, lr}^
    c1e4:	74636570 	strbtvc	r6, [r3], #-1392	; 0x570
    c1e8:	00006465 	andeq	r6, r0, r5, ror #8

0000c1ec <__FUNCTION__.4702>:
    c1ec:	61746164 	cmnvs	r4, r4, ror #2
    c1f0:	6f62615f 	svcvs	0x0062615f
    c1f4:	765f7472 			; <UNDEFINED> instruction: 0x765f7472
    c1f8:	6f746365 	svcvs	0x00746365
    c1fc:	00000072 	andeq	r0, r0, r2, ror r0

0000c200 <__FUNCTION__.4725>:
    c200:	65746e69 	ldrbvs	r6, [r4, #-3689]!	; 0xe69
    c204:	70757272 	rsbsvc	r7, r5, r2, ror r2
    c208:	65765f74 	ldrbvs	r5, [r6, #-3956]!	; 0xf74
    c20c:	726f7463 	rsbvc	r7, pc, #1660944384	; 0x63000000
    c210:	00000000 	andeq	r0, r0, r0

0000c214 <__FUNCTION__.4730>:
    c214:	636d656d 	cmnvs	sp, #457179136	; 0x1b400000
    c218:	6b636568 	blvs	18e57c0 <__bss_end__+0x18d8d98>
    c21c:	696e695f 	stmdbvs	lr!, {r0, r1, r2, r3, r4, r6, r8, fp, sp, lr}^
    c220:	00000074 	andeq	r0, r0, r4, ror r0

0000c224 <__FUNCTION__.4735>:
    c224:	636d656d 	cmnvs	sp, #457179136	; 0x1b400000
    c228:	6b636568 	blvs	18e57d0 <__bss_end__+0x18d8da8>
    c22c:	006e6f5f 	rsbeq	r6, lr, pc, asr pc

0000c230 <__FUNCTION__.4739>:
    c230:	636d656d 	cmnvs	sp, #457179136	; 0x1b400000
    c234:	6b636568 	blvs	18e57dc <__bss_end__+0x18d8db4>
    c238:	66666f5f 	uqsaxvs	r6, r6, pc	; <UNPREDICTABLE>
    c23c:	00000000 	andeq	r0, r0, r0

0000c240 <__FUNCTION__.4743>:
    c240:	636d656d 	cmnvs	sp, #457179136	; 0x1b400000
    c244:	6b636568 	blvs	18e57ec <__bss_end__+0x18d8dc4>
    c248:	70616d5f 	rsbvc	r6, r1, pc, asr sp
    c24c:	00000000 	andeq	r0, r0, r0

0000c250 <__FUNCTION__.4747>:
    c250:	636d656d 	cmnvs	sp, #457179136	; 0x1b400000
    c254:	6b636568 	blvs	18e57fc <__bss_end__+0x18d8dd4>
    c258:	6172745f 	cmnvs	r2, pc, asr r4
    c25c:	00006b63 	andeq	r6, r0, r3, ror #22

0000c260 <__FUNCTION__.4466>:
    c260:	73746962 	cmnvc	r4, #1605632	; 0x188000
    c264:	7465675f 	strbtvc	r6, [r5], #-1887	; 0x75f
    c268:	00000000 	andeq	r0, r0, r0

0000c26c <__FUNCTION__.4758>:
    c26c:	636d656d 	cmnvs	sp, #457179136	; 0x1b400000
    c270:	6b636568 	blvs	18e5818 <__bss_end__+0x18d8df0>
    c274:	6172745f 	cmnvs	r2, pc, asr r4
    c278:	69645f70 	stmdbvs	r4!, {r4, r5, r6, r8, r9, sl, fp, ip, lr}^
    c27c:	6c626173 	stfvse	f6, [r2], #-460	; 0xfffffe34
    c280:	00000065 	andeq	r0, r0, r5, rrx

0000c284 <__FUNCTION__.4658>:
    c284:	5f6d6f64 	svcpl	0x006d6f64
    c288:	6d726570 	cfldr64vs	mvdx6, [r2, #-448]!	; 0xfffffe40
    c28c:	7465735f 	strbtvc	r7, [r5], #-863	; 0x35f
    c290:	00000000 	andeq	r0, r0, r0

0000c294 <__FUNCTION__.4762>:
    c294:	636d656d 	cmnvs	sp, #457179136	; 0x1b400000
    c298:	6b636568 	blvs	18e5840 <__bss_end__+0x18d8e18>
    c29c:	6172745f 	cmnvs	r2, pc, asr r4
    c2a0:	6e655f70 	mcrvs	15, 3, r5, cr5, cr0, {3}
    c2a4:	656c6261 	strbvs	r6, [ip, #-609]!	; 0x261
    c2a8:	00000000 	andeq	r0, r0, r0

0000c2ac <__FUNCTION__.4249>:
    c2ac:	74696d65 	strbtvc	r6, [r9], #-3429	; 0xd65
    c2b0:	00000000 	andeq	r0, r0, r0

0000c2b4 <__FUNCTION__.4197>:
    c2b4:	5f697072 	svcpl	0x00697072
    c2b8:	5f746573 	svcpl	0x00746573
    c2bc:	7074756f 	rsbsvc	r7, r4, pc, ror #10
    c2c0:	00007475 	andeq	r7, r0, r5, ror r4

0000c2c4 <__FUNCTION__.4272>:
    c2c4:	705f6176 	subsvc	r6, pc, r6, ror r1	; <UNPREDICTABLE>
    c2c8:	746e6972 	strbtvc	r6, [lr], #-2418	; 0x972
    c2cc:	0000006b 	andeq	r0, r0, fp, rrx
    c2d0:	6362696c 	cmnvs	r2, #108, 18	; 0x1b0000
    c2d4:	2d61762f 	stclcs	6, cr7, [r1, #-188]!	; 0xffffff44
    c2d8:	6e697270 	mcrvs	2, 3, r7, cr9, cr0, {3}
    c2dc:	632e6b74 	teqvs	lr, #116, 22	; 0x1d000
    c2e0:	00000000 	andeq	r0, r0, r0
    c2e4:	33323130 	teqcc	r2, #48, 2
    c2e8:	37363534 			; <UNDEFINED> instruction: 0x37363534
    c2ec:	00003938 	andeq	r3, r0, r8, lsr r9
    c2f0:	33323130 	teqcc	r2, #48, 2
    c2f4:	37363534 			; <UNDEFINED> instruction: 0x37363534
    c2f8:	62613938 	rsbvs	r3, r1, #56, 18	; 0xe0000
    c2fc:	66656463 	strbtvs	r6, [r5], -r3, ror #8
    c300:	00000000 	andeq	r0, r0, r0
    c304:	00003130 	andeq	r3, r0, r0, lsr r1
    c308:	63747570 	cmnvs	r4, #112, 10	; 0x1c000000
    c30c:	0070665f 	rsbseq	r6, r0, pc, asr r6
    c310:	74646977 	strbtvc	r6, [r4], #-2423	; 0x977
    c314:	203c2068 	eorscs	r2, ip, r8, rrx
    c318:	00003233 	andeq	r3, r0, r3, lsr r2
    c31c:	494e4150 	stmdbmi	lr, {r4, r6, r8, lr}^
    c320:	73253a43 	teqvc	r5, #274432	; 0x43000
    c324:	3a73253a 	bcc	1cd5814 <__bss_end__+0x1cc8dec>
    c328:	663a6425 	ldrtvs	r6, [sl], -r5, lsr #8
    c32c:	74616f6c 	strbtvc	r6, [r1], #-3948	; 0xf6c
    c330:	746f6e20 	strbtvc	r6, [pc], #-3616	; c338 <__FUNCTION__.4272+0x74>
    c334:	616e6520 	cmnvs	lr, r0, lsr #10
    c338:	64656c62 	strbtvs	r6, [r5], #-3170	; 0xc62
    c33c:	0a212121 	beq	8547c8 <__bss_end__+0x847da0>
    c340:	00000000 	andeq	r0, r0, r0
    c344:	6e697270 	mcrvs	2, 3, r7, cr9, cr0, {3}
    c348:	203a6b74 	eorscs	r6, sl, r4, ror fp
    c34c:	20746f6e 	rsbscs	r6, r4, lr, ror #30
    c350:	646e6168 	strbtvs	r6, [lr], #-360	; 0x168
    c354:	676e696c 	strbvs	r6, [lr, -ip, ror #18]!
    c358:	65707320 	ldrbvs	r7, [r0, #-800]!	; 0x320
    c35c:	69666963 	stmdbvs	r6!, {r0, r1, r5, r6, r8, fp, sp, lr}^
    c360:	27207265 	strcs	r7, [r0, -r5, ror #4]!
    c364:	20276325 	eorcs	r6, r7, r5, lsr #6
    c368:	63736128 	cmnvs	r3, #40, 2
    c36c:	253d6969 	ldrcs	r6, [sp, #-2409]!	; 0x969
    c370:	000a2964 	andeq	r2, sl, r4, ror #18
    c374:	494e4150 	stmdbmi	lr, {r4, r6, r8, lr}^
    c378:	73253a43 	teqvc	r5, #274432	; 0x43000
    c37c:	3a73253a 	bcc	1cd586c <__bss_end__+0x1cc8e44>
    c380:	703a6425 	eorsvc	r6, sl, r5, lsr #8
    c384:	746e6972 	strbtvc	r6, [lr], #-2418	; 0x972
    c388:	7265206b 	rsbvc	r2, r5, #107	; 0x6b
    c38c:	0a726f72 	beq	1ca815c <__bss_end__+0x1c9b734>
    c390:	0000000a 	andeq	r0, r0, sl
    c394:	454e4f44 	strbmi	r4, [lr, #-3908]	; 0xf44
    c398:	0a212121 	beq	854824 <__bss_end__+0x847dfc>
    c39c:	00000000 	andeq	r0, r0, r0

0000c3a0 <__FUNCTION__.4220>:
    c3a0:	74736166 	ldrbtvc	r6, [r3], #-358	; 0x166
    c3a4:	746e695f 	strbtvc	r6, [lr], #-2399	; 0x95f
    c3a8:	75727265 	ldrbvc	r7, [r2, #-613]!	; 0x265
    c3ac:	765f7470 			; <UNDEFINED> instruction: 0x765f7470
    c3b0:	6f746365 	svcvs	0x00746365
    c3b4:	00000072 	andeq	r0, r0, r2, ror r0
    c3b8:	494e4150 	stmdbmi	lr, {r4, r6, r8, lr}^
    c3bc:	73253a43 	teqvc	r5, #274432	; 0x43000
    c3c0:	3a73253a 	bcc	1cd58b0 <__bss_end__+0x1cc8e88>
    c3c4:	453a6425 	ldrmi	r6, [sl, #-1061]!	; 0x425
    c3c8:	524f5252 	subpl	r5, pc, #536870917	; 0x20000005
    c3cc:	6e75203a 	mrcvs	0, 3, r2, cr5, cr10, {1}
    c3d0:	646e6168 	strbtvs	r6, [lr], #-360	; 0x168
    c3d4:	2064656c 	rsbcs	r6, r4, ip, ror #10
    c3d8:	65637865 	strbvs	r7, [r3, #-2149]!	; 0x865
    c3dc:	6f697470 	svcvs	0x00697470
    c3e0:	253c206e 	ldrcs	r2, [ip, #-110]!	; 0x6e
    c3e4:	61203e73 	teqvs	r0, r3, ror lr
    c3e8:	43502074 	cmpmi	r0, #116	; 0x74
    c3ec:	0a78253d 	beq	1e158e8 <__bss_end__+0x1e08ec0>
    c3f0:	0000000a 	andeq	r0, r0, sl
    c3f4:	66617473 			; <UNDEFINED> instruction: 0x66617473
    c3f8:	72732d66 	rsbsvc	r2, r3, #6528	; 0x1980
    c3fc:	65642f63 	strbvs	r2, [r4, #-3939]!	; 0xf63
    c400:	6c756166 	ldfvse	f6, [r5], #-408	; 0xfffffe68
    c404:	61682d74 	smcvs	33492	; 0x82d4
    c408:	656c646e 	strbvs	r6, [ip, #-1134]!	; 0x46e
    c40c:	61662d72 	smcvs	25298	; 0x62d2
    c410:	632e7473 	teqvs	lr, #1929379840	; 0x73000000
    c414:	00000000 	andeq	r0, r0, r0
    c418:	74736166 	ldrbtvc	r6, [r3], #-358	; 0x166
    c41c:	00000000 	andeq	r0, r0, r0

0000c420 <__FUNCTION__.4220>:
    c420:	66657270 			; <UNDEFINED> instruction: 0x66657270
    c424:	68637465 	stmdavs	r3!, {r0, r2, r5, r6, sl, ip, sp, lr}^
    c428:	6f62615f 	svcvs	0x0062615f
    c42c:	765f7472 			; <UNDEFINED> instruction: 0x765f7472
    c430:	6f746365 	svcvs	0x00746365
    c434:	00000072 	andeq	r0, r0, r2, ror r0
    c438:	66617473 			; <UNDEFINED> instruction: 0x66617473
    c43c:	72732d66 	rsbsvc	r2, r3, #6528	; 0x1980
    c440:	65642f63 	strbvs	r2, [r4, #-3939]!	; 0xf63
    c444:	6c756166 	ldfvse	f6, [r5], #-408	; 0xfffffe68
    c448:	61682d74 	smcvs	33492	; 0x82d4
    c44c:	656c646e 	strbvs	r6, [ip, #-1134]!	; 0x46e
    c450:	72702d72 	rsbsvc	r2, r0, #7296	; 0x1c80
    c454:	74656665 	strbtvc	r6, [r5], #-1637	; 0x665
    c458:	632e6863 	teqvs	lr, #6488064	; 0x630000
    c45c:	00000000 	andeq	r0, r0, r0
    c460:	66657270 			; <UNDEFINED> instruction: 0x66657270
    c464:	68637465 	stmdavs	r3!, {r0, r2, r5, r6, sl, ip, sp, lr}^
    c468:	6f626120 	svcvs	0x00626120
    c46c:	00007472 	andeq	r7, r0, r2, ror r4

0000c470 <__FUNCTION__.4220>:
    c470:	65736572 	ldrbvs	r6, [r3, #-1394]!	; 0x572
    c474:	65765f74 	ldrbvs	r5, [r6, #-3956]!	; 0xf74
    c478:	726f7463 	rsbvc	r7, pc, #1660944384	; 0x63000000
    c47c:	00000000 	andeq	r0, r0, r0
    c480:	66617473 			; <UNDEFINED> instruction: 0x66617473
    c484:	72732d66 	rsbsvc	r2, r3, #6528	; 0x1980
    c488:	65642f63 	strbvs	r2, [r4, #-3939]!	; 0xf63
    c48c:	6c756166 	ldfvse	f6, [r5], #-408	; 0xfffffe68
    c490:	61682d74 	smcvs	33492	; 0x82d4
    c494:	656c646e 	strbvs	r6, [ip, #-1134]!	; 0x46e
    c498:	65722d72 	ldrbvs	r2, [r2, #-3442]!	; 0xd72
    c49c:	2e746573 	mrccs	5, 3, r6, cr4, cr3, {3}
    c4a0:	00000063 	andeq	r0, r0, r3, rrx
    c4a4:	65736572 	ldrbvs	r6, [r3, #-1394]!	; 0x572
    c4a8:	00000074 	andeq	r0, r0, r4, ror r0

0000c4ac <__FUNCTION__.4220>:
    c4ac:	65646e75 	strbvs	r6, [r4, #-3701]!	; 0xe75
    c4b0:	656e6966 	strbvs	r6, [lr, #-2406]!	; 0x966
    c4b4:	6e695f64 	cdpvs	15, 6, cr5, cr9, cr4, {3}
    c4b8:	75727473 	ldrbvc	r7, [r2, #-1139]!	; 0x473
    c4bc:	6f697463 	svcvs	0x00697463
    c4c0:	65765f6e 	ldrbvs	r5, [r6, #-3950]!	; 0xf6e
    c4c4:	726f7463 	rsbvc	r7, pc, #1660944384	; 0x63000000
    c4c8:	00000000 	andeq	r0, r0, r0
    c4cc:	66617473 			; <UNDEFINED> instruction: 0x66617473
    c4d0:	72732d66 	rsbsvc	r2, r3, #6528	; 0x1980
    c4d4:	65642f63 	strbvs	r2, [r4, #-3939]!	; 0xf63
    c4d8:	6c756166 	ldfvse	f6, [r5], #-408	; 0xfffffe68
    c4dc:	61682d74 	smcvs	33492	; 0x82d4
    c4e0:	656c646e 	strbvs	r6, [ip, #-1134]!	; 0x46e
    c4e4:	6e752d72 	mrcvs	13, 3, r2, cr5, cr2, {3}
    c4e8:	69666564 	stmdbvs	r6!, {r2, r5, r6, r8, sl, sp, lr}^
    c4ec:	2d64656e 	cfstr64cs	mvdx6, [r4, #-440]!	; 0xfffffe48
    c4f0:	74736e69 	ldrbtvc	r6, [r3], #-3689	; 0xe69
    c4f4:	0000632e 	andeq	r6, r0, lr, lsr #6
    c4f8:	65646e75 	strbvs	r6, [r4, #-3701]!	; 0xe75
    c4fc:	656e6966 	strbvs	r6, [lr, #-2406]!	; 0x966
    c500:	6e692064 	cdpvs	0, 6, cr2, cr9, cr4, {3}
    c504:	00007473 	andeq	r7, r0, r3, ror r4

0000c508 <__FUNCTION__.4241>:
    c508:	6c616d6b 	stclvs	13, cr6, [r1], #-428	; 0xfffffe54
    c50c:	5f636f6c 	svcpl	0x00636f6c
    c510:	74696e69 	strbtvc	r6, [r9], #-3689	; 0xe69
    c514:	7465735f 	strbtvc	r7, [r5], #-863	; 0x35f
    c518:	6174735f 	cmnvs	r4, pc, asr r3
    c51c:	00007472 	andeq	r7, r0, r2, ror r4

0000c520 <__FUNCTION__.4245>:
    c520:	6c616d6b 	stclvs	13, cr6, [r1], #-428	; 0xfffffe54
    c524:	00636f6c 	rsbeq	r6, r3, ip, ror #30

0000c528 <__FUNCTION__.4257>:
    c528:	6c616d6b 	stclvs	13, cr6, [r1], #-428	; 0xfffffe54
    c52c:	5f636f6c 	svcpl	0x00636f6c
    c530:	67696c61 	strbvs	r6, [r9, -r1, ror #24]!
    c534:	0064656e 	rsbeq	r6, r4, lr, ror #10
    c538:	6c616d6b 	stclvs	13, cr6, [r1], #-428	; 0xfffffe54
    c53c:	2e636f6c 	cdpcs	15, 6, cr6, cr3, cr12, {3}
    c540:	00000063 	andeq	r0, r0, r3, rrx
    c544:	72646461 	rsbvc	r6, r4, #1627389952	; 0x61000000
    c548:	68203e20 	stmdavs	r0!, {r5, r9, sl, fp, ip, sp}
    c54c:	00706165 	rsbseq	r6, r0, r5, ror #2
    c550:	00007a73 	andeq	r7, r0, r3, ror sl
    c554:	4f525245 	svcmi	0x00525245
    c558:	73253a52 	teqvc	r5, #335872	; 0x52000
    c55c:	3a73253a 	bcc	1cd5a4c <__bss_end__+0x1cc9024>
    c560:	203a6425 	eorscs	r6, sl, r5, lsr #8
    c564:	534c4146 	movtpl	r4, #49478	; 0xc146
    c568:	253c2845 	ldrcs	r2, [ip, #-2117]!	; 0x845
    c56c:	3a293e73 	bcc	a5bf40 <__bss_end__+0xa4f518>
    c570:	73736120 	cmnvc	r3, #32, 2
    c574:	6e696d75 	mcrvs	13, 3, r6, cr9, cr5, {3}
    c578:	6f702067 	svcvs	0x00702067
    c57c:	20726577 	rsbscs	r6, r2, r7, ror r5
    c580:	7420666f 	strtvc	r6, [r0], #-1647	; 0x66f
    c584:	000a6f77 	andeq	r6, sl, r7, ror pc
    c588:	61282828 	teqvs	r8, r8, lsr #16
    c58c:	6e67696c 	cdpvs	9, 6, cr6, cr7, cr12, {3}
    c590:	746e656d 	strbtvc	r6, [lr], #-1389	; 0x56d
    c594:	282d2629 	stmdacs	sp!, {r0, r3, r5, r9, sl, sp}
    c598:	67696c61 	strbvs	r6, [r9, -r1, ror #24]!
    c59c:	6e656d6e 	cdpvs	13, 6, cr6, cr5, cr14, {3}
    c5a0:	20292974 	eorcs	r2, r9, r4, ror r9
    c5a4:	28203d3d 	stmdacs	r0!, {r0, r2, r3, r4, r5, r8, sl, fp, ip, sp}
    c5a8:	67696c61 	strbvs	r6, [r9, -r1, ror #24]!
    c5ac:	6e656d6e 	cdpvs	13, 6, cr6, cr5, cr14, {3}
    c5b0:	00292974 	eoreq	r2, r9, r4, ror r9
    c5b4:	4f525245 	svcmi	0x00525245
    c5b8:	73253a52 	teqvc	r5, #335872	; 0x52000
    c5bc:	3a73253a 	bcc	1cd5aac <__bss_end__+0x1cc9084>
    c5c0:	203a6425 	eorscs	r6, sl, r5, lsr #8
    c5c4:	534c4146 	movtpl	r4, #49478	; 0xc146
    c5c8:	253c2845 	ldrcs	r2, [ip, #-2117]!	; 0x845
    c5cc:	3a293e73 	bcc	a5bfa0 <__bss_end__+0xa4f578>
    c5d0:	706d6920 	rsbvc	r6, sp, r0, lsr #18
    c5d4:	6973736f 	ldmdbvs	r3!, {r0, r1, r2, r3, r5, r6, r8, r9, ip, sp, lr}^
    c5d8:	0a656c62 	beq	1967768 <__bss_end__+0x195ad40>
    c5dc:	00000000 	andeq	r0, r0, r0
    c5e0:	68282828 	stmdavs	r8!, {r3, r5, fp, sp}
    c5e4:	20262029 	eorcs	r2, r6, r9, lsr #32
    c5e8:	79742828 	ldmdbvc	r4!, {r3, r5, fp, sp}^
    c5ec:	666f6570 			; <UNDEFINED> instruction: 0x666f6570
    c5f0:	29296828 	stmdbcs	r9!, {r3, r5, fp, sp, lr}
    c5f4:	696c6128 	stmdbvs	ip!, {r3, r5, r8, sp, lr}^
    c5f8:	656d6e67 	strbvs	r6, [sp, #-3687]!	; 0xe67
    c5fc:	2029746e 	eorcs	r7, r9, lr, ror #8
    c600:	2931202d 	ldmdbcs	r1!, {r0, r2, r3, r5, sp}
    c604:	3d3d2029 	ldccc	0, cr2, [sp, #-164]!	; 0xffffff5c
    c608:	00293020 	eoreq	r3, r9, r0, lsr #32

Disassembly of section .bss:

0000c60c <__bss_start__>:
    c60c:	00000000 	andeq	r0, r0, r0

0000c610 <pt_st>:
    c610:	00000000 	andeq	r0, r0, r0

0000c614 <last_fault>:
	...

0000c620 <mmu_resume_p>:
    c620:	00000000 	andeq	r0, r0, r0

0000c624 <pt>:
    c624:	00000000 	andeq	r0, r0, r0

0000c628 <buf.4189>:
	...

Disassembly of section .ARM.attributes:

00000000 <.ARM.attributes>:
   0:	00002a41 	andeq	r2, r0, r1, asr #20
   4:	61656100 	cmnvs	r5, r0, lsl #2
   8:	01006962 	tsteq	r0, r2, ror #18
   c:	00000020 	andeq	r0, r0, r0, lsr #32
  10:	4b5a3605 	blmi	168d82c <__bss_end__+0x1680e04>
  14:	08070600 	stmdaeq	r7, {r9, sl}
  18:	12010901 	andne	r0, r1, #16384	; 0x4000
  1c:	15011404 	strne	r1, [r1, #-1028]	; 0x404
  20:	18031701 	stmdane	r3, {r0, r8, r9, sl, ip}
  24:	22011a01 	andcs	r1, r1, #4096	; 0x1000
  28:	Address 0x0000000000000028 is out of bounds.


Disassembly of section .comment:

00000000 <.comment>:
   0:	3a434347 	bcc	10d0d24 <__bss_end__+0x10c42fc>
   4:	4e472820 	cdpmi	8, 4, cr2, cr7, cr0, {1}
   8:	34202955 	strtcc	r2, [r0], #-2389	; 0x955
   c:	332e382e 	teqcc	lr, #3014656	; 0x2e0000
  10:	43434700 	movtmi	r4, #14080	; 0x3700
  14:	3128203a 	teqcc	r8, sl, lsr r0
  18:	2e363a35 	mrccs	10, 1, r3, cr6, cr5, {1}
  1c:	2b312e33 	blcs	c4b8f0 <__bss_end__+0xc3eec8>
  20:	326e7673 	rsbcc	r7, lr, #120586240	; 0x7300000
  24:	33303335 	teqcc	r0, #-738197504	; 0xd4000000
  28:	62312d39 	eorsvs	r2, r1, #3648	; 0xe40
  2c:	646c6975 	strbtvs	r6, [ip], #-2421	; 0x975
  30:	36202931 			; <UNDEFINED> instruction: 0x36202931
  34:	312e332e 	teqcc	lr, lr, lsr #6
  38:	31303220 	teqcc	r0, r0, lsr #4
  3c:	32363037 	eorscc	r3, r6, #55	; 0x37
  40:	Address 0x0000000000000040 is out of bounds.


Disassembly of section .debug_info:

00000000 <.debug_info>:
       0:	00000657 	andeq	r0, r0, r7, asr r6
       4:	00000004 	andeq	r0, r0, r4
       8:	01040000 	mrseq	r0, (UNDEF: 4)
       c:	0000007c 	andeq	r0, r0, ip, ror r0
      10:	00011901 	andeq	r1, r1, r1, lsl #18
      14:	00017100 	andeq	r7, r1, r0, lsl #2
      18:	00802000 	addeq	r2, r0, r0
      1c:	00021800 	andeq	r1, r2, r0, lsl #16
      20:	00000000 	andeq	r0, r0, r0
      24:	05040200 	streq	r0, [r4, #-512]	; 0x200
      28:	00746e69 	rsbseq	r6, r4, r9, ror #28
      2c:	f3070403 	vshl.u8	d0, d3, d7
      30:	03000000 	movweq	r0, #0
      34:	003e0601 	eorseq	r0, lr, r1, lsl #12
      38:	02030000 	andeq	r0, r3, #0
      3c:	00014905 	andeq	r4, r1, r5, lsl #18
      40:	05040300 	streq	r0, [r4, #-768]	; 0x300
      44:	0000012c 	andeq	r0, r0, ip, lsr #2
      48:	27050803 	strcs	r0, [r5, -r3, lsl #16]
      4c:	03000001 	movweq	r0, #1
      50:	003c0801 	eorseq	r0, ip, r1, lsl #16
      54:	02030000 	andeq	r0, r3, #0
      58:	00001207 	andeq	r1, r0, r7, lsl #4
      5c:	00570400 	subseq	r0, r7, r0, lsl #8
      60:	34080000 	strcc	r0, [r8], #-0
      64:	00000068 	andeq	r0, r0, r8, rrx
      68:	ee070403 	cdp	4, 0, cr0, cr7, cr3, {0}
      6c:	03000000 	movweq	r0, #0
      70:	00e90708 	rsceq	r0, r9, r8, lsl #14
      74:	04030000 	streq	r0, [r3], #-0
      78:	00011007 	andeq	r1, r1, r7
      7c:	08010300 	stmdaeq	r1, {r8, r9}
      80:	00000045 	andeq	r0, r0, r5, asr #32
      84:	008a0405 	addeq	r0, sl, r5, lsl #8
      88:	7d060000 	stcvc	0, cr0, [r6, #-0]
      8c:	07000000 	streq	r0, [r0, -r0]
      90:	0000007d 	andeq	r0, r0, sp, ror r0
      94:	0000009f 	muleq	r0, pc, r0	; <UNPREDICTABLE>
      98:	00007608 	andeq	r7, r0, r8, lsl #12
      9c:	09000700 	stmdbeq	r0, {r8, r9, sl}
      a0:	000001cc 	andeq	r0, r0, ip, asr #3
      a4:	005d2604 	subseq	r2, sp, r4, lsl #12
      a8:	bb030000 	bllt	c00b0 <__bss_end__+0xb3688>
      ac:	0a000000 	beq	b4 <__code_start__-0x7f4c>
      b0:	0000016c 	andeq	r0, r0, ip, ror #2
      b4:	005d2704 	subseq	r2, sp, r4, lsl #14
      b8:	09000000 	stmdbeq	r0, {}	; <UNPREDICTABLE>
      bc:	00000135 	andeq	r0, r0, r5, lsr r1
      c0:	00252801 	eoreq	r2, r5, r1, lsl #16
      c4:	d7030000 	strle	r0, [r3, -r0]
      c8:	0b000000 	bleq	d0 <__code_start__-0x7f30>
      cc:	0000010b 	andeq	r0, r0, fp, lsl #2
      d0:	005d2801 	subseq	r2, sp, r1, lsl #16
      d4:	0c000000 	stceq	0, cr0, [r0], {-0}
      d8:	00000153 	andeq	r0, r0, r3, asr r1
      dc:	00252901 	eoreq	r2, r5, r1, lsl #18
      e0:	09030000 	stmdbeq	r3, {}	; <UNPREDICTABLE>
      e4:	00000009 	andeq	r0, r0, r9
      e8:	005d1c02 	subseq	r1, sp, r2, lsl #24
      ec:	27030000 	strcs	r0, [r3, -r0]
      f0:	0d000001 	stceq	0, cr0, [r0, #-4]
      f4:	1c020078 	stcne	0, cr0, [r2], {120}	; 0x78
      f8:	0000005d 	andeq	r0, r0, sp, asr r0
      fc:	00626c0d 	rsbeq	r6, r2, sp, lsl #24
     100:	002c1c02 	eoreq	r1, ip, r2, lsl #24
     104:	750d0000 	strvc	r0, [sp, #-0]
     108:	1c020062 	stcne	0, cr0, [r2], {98}	; 0x62
     10c:	0000002c 	andeq	r0, r0, ip, lsr #32
     110:	0000600e 	andeq	r6, r0, lr
     114:	00013700 	andeq	r3, r1, r0, lsl #14
     118:	00000900 	andeq	r0, r0, r0, lsl #18
     11c:	006e0f00 	rsbeq	r0, lr, r0, lsl #30
     120:	002c1f02 	eoreq	r1, ip, r2, lsl #30
     124:	07000000 	streq	r0, [r0, -r0]
     128:	0000007d 	andeq	r0, r0, sp, ror r0
     12c:	00000137 	andeq	r0, r0, r7, lsr r1
     130:	00007608 	andeq	r7, r0, r8, lsl #12
     134:	06000800 	streq	r0, [r0], -r0, lsl #16
     138:	00000127 	andeq	r0, r0, r7, lsr #2
     13c:	00016109 	andeq	r6, r1, r9, lsl #2
     140:	25080100 	strcs	r0, [r8, #-256]	; 0x100
     144:	03000000 	movweq	r0, #0
     148:	00000165 	andeq	r0, r0, r5, ror #2
     14c:	00010b0b 	andeq	r0, r1, fp, lsl #22
     150:	2c080100 	stfcss	f0, [r8], {-0}
     154:	0e000000 	cdpeq	0, 0, cr0, cr0, cr0, {0}
     158:	00000060 	andeq	r0, r0, r0, rrx
     15c:	00000175 	andeq	r0, r0, r5, ror r1
     160:	00000161 	andeq	r0, r0, r1, ror #2
     164:	007d0700 	rsbseq	r0, sp, r0, lsl #14
     168:	01750000 	cmneq	r5, r0
     16c:	76080000 	strvc	r0, [r8], -r0
     170:	0a000000 	beq	178 <__code_start__-0x7e88>
     174:	01650600 	cmneq	r5, r0, lsl #12
     178:	00100000 	andseq	r0, r0, r0
     17c:	01000000 	mrseq	r0, (UNDEF: 0)
     180:	00005d12 	andeq	r5, r0, r2, lsl sp
     184:	00802000 	addeq	r2, r0, r0
     188:	00006800 	andeq	r6, r0, r0, lsl #16
     18c:	769c0100 	ldrvc	r0, [ip], r0, lsl #2
     190:	11000002 	tstne	r0, r2
     194:	0000016c 	andeq	r0, r0, ip, ror #2
     198:	005d1201 	subseq	r1, sp, r1, lsl #4
     19c:	00000000 	andeq	r0, r0, r0
     1a0:	0b0a0000 	bleq	2801a8 <__bss_end__+0x273780>
     1a4:	01000001 	tsteq	r0, r1
     1a8:	00002c13 	andeq	r2, r0, r3, lsl ip
     1ac:	00601200 	rsbeq	r1, r0, r0, lsl #4
     1b0:	02760000 	rsbseq	r0, r6, #0
     1b4:	03050000 	movweq	r0, #20480	; 0x5000
     1b8:	0000b3c8 	andeq	fp, r0, r8, asr #7
     1bc:	0000e313 	andeq	lr, r0, r3, lsl r3
     1c0:	00802800 	addeq	r2, r0, r0, lsl #16
     1c4:	00000400 	andeq	r0, r0, r0, lsl #8
     1c8:	00130100 	andseq	r0, r3, r0, lsl #2
     1cc:	14000002 	strne	r0, [r0], #-2
     1d0:	00000106 	andeq	r0, r0, r6, lsl #2
     1d4:	00fc1404 	rscseq	r1, ip, r4, lsl #8
     1d8:	15000000 	strne	r0, [r0, #-0]
     1dc:	000000f3 	strdeq	r0, [r0], -r3
     1e0:	0000003a 	andeq	r0, r0, sl, lsr r0
     1e4:	00802816 	addeq	r2, r0, r6, lsl r8
     1e8:	00000400 	andeq	r0, r0, r0, lsl #8
     1ec:	011d1700 	tsteq	sp, r0, lsl #14
     1f0:	18050000 	stmdane	r5, {}	; <UNPREDICTABLE>
     1f4:	00000110 	andeq	r0, r0, r0, lsl r1
     1f8:	b3d40305 	bicslt	r0, r4, #335544320	; 0x14000000
     1fc:	00000000 	andeq	r0, r0, r0
     200:	00013c19 	andeq	r3, r1, r9, lsl ip
     204:	00802c00 	addeq	r2, r0, r0, lsl #24
     208:	00004400 	andeq	r4, r0, r0, lsl #8
     20c:	15140100 	ldrne	r0, [r4, #-256]	; 0x100
     210:	0000014c 	andeq	r0, r0, ip, asr #2
     214:	00000074 	andeq	r0, r0, r4, ror r0
     218:	00802c16 	addeq	r2, r0, r6, lsl ip
     21c:	00004400 	andeq	r4, r0, r0, lsl #8
     220:	01571800 	cmpeq	r7, r0, lsl #16
     224:	03050000 	movweq	r0, #20480	; 0x5000
     228:	0000b3e0 	andeq	fp, r0, r0, ror #7
     22c:	0080541a 	addeq	r5, r0, sl, lsl r4
     230:	00060000 	andeq	r0, r6, r0
     234:	806c1b00 	rsbhi	r1, ip, r0, lsl #22
     238:	06070000 	streq	r0, [r7], -r0
     23c:	026a0000 	rsbeq	r0, sl, #0
     240:	011c0000 	tsteq	ip, r0
     244:	1c400153 	stfnee	f0, [r0], {83}	; 0x53
     248:	03055201 	movweq	r5, #20993	; 0x5201
     24c:	0000b3e0 	andeq	fp, r0, r0, ror #7
     250:	0551011c 	ldrbeq	r0, [r1, #-284]	; 0x11c
     254:	00b2cc03 	adcseq	ip, r2, r3, lsl #24
     258:	50011c00 	andpl	r1, r1, r0, lsl #24
     25c:	b2a80305 	adclt	r0, r8, #335544320	; 0x14000000
     260:	021c0000 	andseq	r0, ip, #0
     264:	7402007d 	strvc	r0, [r2], #-125	; 0x7d
     268:	701a0000 	andsvc	r0, sl, r0
     26c:	1d000080 	stcne	0, cr0, [r0, #-512]	; 0xfffffe00
     270:	00000006 	andeq	r0, r0, r6
     274:	27060000 	strcs	r0, [r6, -r0]
     278:	1d000001 	stcne	0, cr0, [r0, #-4]
     27c:	0000002d 	andeq	r0, r0, sp, lsr #32
     280:	00250403 	eoreq	r0, r5, r3, lsl #8
     284:	80880000 	addhi	r0, r8, r0
     288:	006c0000 	rsbeq	r0, ip, r0
     28c:	9c010000 	stcls	0, cr0, [r1], {-0}
     290:	0000032e 	andeq	r0, r0, lr, lsr #6
     294:	0001001e 	andeq	r0, r1, lr, lsl r0
     298:	25050300 	strcs	r0, [r5, #-768]	; 0x300
     29c:	1f000000 	svcne	0x00000000
     2a0:	00746572 	rsbseq	r6, r4, r2, ror r5
     2a4:	00250803 	eoreq	r0, r5, r3, lsl #16
     2a8:	00920000 	addseq	r0, r2, r0
     2ac:	60120000 	andsvs	r0, r2, r0
     2b0:	3e000000 	cdpcc	0, 0, cr0, cr0, cr0, {0}
     2b4:	05000003 	streq	r0, [r0, #-3]
     2b8:	00b3b003 	adcseq	fp, r3, r3
     2bc:	80941a00 	addshi	r1, r4, r0, lsl #20
     2c0:	06240000 	strteq	r0, [r4], -r0
     2c4:	a41b0000 	ldrge	r0, [fp], #-0
     2c8:	07000080 	streq	r0, [r0, -r0, lsl #1]
     2cc:	e3000006 	movw	r0, #6
     2d0:	1c000002 	stcne	0, cr0, [r0], {2}
     2d4:	74025101 	strvc	r5, [r2], #-257	; 0x101
     2d8:	50011c00 	andpl	r1, r1, r0, lsl #24
     2dc:	b3280305 	teqlt	r8, #335544320	; 0x14000000
     2e0:	1a000000 	bne	2e8 <__code_start__-0x7d18>
     2e4:	000080b0 	strheq	r8, [r0], -r0
     2e8:	00000600 	andeq	r0, r0, r0, lsl #12
     2ec:	0080cc1b 	addeq	ip, r0, fp, lsl ip
     2f0:	00060700 	andeq	r0, r6, r0, lsl #14
     2f4:	00032400 	andeq	r2, r3, r0, lsl #8
     2f8:	53011c00 	movwpl	r1, #7168	; 0x1c00
     2fc:	011c3b01 	tsteq	ip, r1, lsl #22
     300:	b0030552 	andlt	r0, r3, r2, asr r5
     304:	1c0000b3 	stcne	0, cr0, [r0], {179}	; 0xb3
     308:	03055101 	movweq	r5, #20737	; 0x5101
     30c:	0000b34c 	andeq	fp, r0, ip, asr #6
     310:	0550011c 	ldrbeq	r0, [r0, #-284]	; 0x11c
     314:	00b33803 	adcseq	r3, r3, r3, lsl #16
     318:	7d021c00 	stcvc	12, cr1, [r2, #-0]
     31c:	5c030500 	cfstr32pl	mvfx0, [r3], {-0}
     320:	000000b3 	strheq	r0, [r0], -r3
     324:	0080d01a 	addeq	sp, r0, sl, lsl r0
     328:	00061d00 	andeq	r1, r6, r0, lsl #26
     32c:	7d070000 	stcvc	0, cr0, [r7, #-0]
     330:	3e000000 	cdpcc	0, 0, cr0, cr0, cr0, {0}
     334:	08000003 	stmdaeq	r0, {r0, r1}
     338:	00000076 	andeq	r0, r0, r6, ror r0
     33c:	2e06000e 	cdpcs	0, 0, cr0, cr6, cr14, {0}
     340:	20000003 	andcs	r0, r0, r3
     344:	00000025 	andeq	r0, r0, r5, lsr #32
     348:	80f41003 	rscshi	r1, r4, r3
     34c:	01440000 	mrseq	r0, (UNDEF: 68)
     350:	9c010000 	stcls	0, cr0, [r1], {-0}
     354:	000005fb 	strdeq	r0, [r0], -fp
     358:	00006012 	andeq	r6, r0, r2, lsl r0
     35c:	0005fb00 	andeq	pc, r5, r0, lsl #22
     360:	c0030500 	andgt	r0, r3, r0, lsl #10
     364:	1f0000b3 	svcne	0x000000b3
     368:	14030078 	strne	r0, [r3], #-120	; 0x78
     36c:	00000025 	andeq	r0, r0, r5, lsr #32
     370:	000000b0 	strheq	r0, [r0], -r0	; <UNPREDICTABLE>
     374:	0000d713 	andeq	sp, r0, r3, lsl r7
     378:	00812c00 	addeq	r2, r1, r0, lsl #24
     37c:	00000800 	andeq	r0, r0, r0, lsl #16
     380:	ce130300 	cdpgt	3, 1, cr0, cr3, cr0, {0}
     384:	19000003 	stmdbne	r0, {r0, r1}
     388:	000000bb 	strheq	r0, [r0], -fp
     38c:	0000812c 	andeq	r8, r0, ip, lsr #2
     390:	00000008 	andeq	r0, r0, r8
     394:	cb142901 	blgt	50a7a0 <__bss_end__+0x4fdd78>
     398:	13000000 	movwne	r0, #0
     39c:	00009f13 	andeq	r9, r0, r3, lsl pc
     3a0:	00812c00 	addeq	r2, r1, r0, lsl #24
     3a4:	00000400 	andeq	r0, r0, r0, lsl #8
     3a8:	c3280100 	teqgt	r8, #0, 2
     3ac:	16000003 	strne	r0, [r0], -r3
     3b0:	0000812c 	andeq	r8, r0, ip, lsr #2
     3b4:	00000004 	andeq	r0, r0, r4
     3b8:	0000af21 	andeq	sl, r0, r1, lsr #30
     3bc:	0000ce00 	andeq	ip, r0, r0, lsl #28
     3c0:	1a000000 	bne	3c8 <__code_start__-0x7c38>
     3c4:	00008134 	andeq	r8, r0, r4, lsr r1
     3c8:	0000017a 	andeq	r0, r0, sl, ror r1
     3cc:	d7130000 	ldrle	r0, [r3, -r0]
     3d0:	98000000 	stmdals	r0, {}	; <UNPREDICTABLE>
     3d4:	08000081 	stmdaeq	r0, {r0, r7}
     3d8:	03000000 	movweq	r0, #0
     3dc:	00042816 	andeq	r2, r4, r6, lsl r8
     3e0:	00bb1900 	adcseq	r1, fp, r0, lsl #18
     3e4:	81980000 	orrshi	r0, r8, r0
     3e8:	00080000 	andeq	r0, r8, r0
     3ec:	29010000 	stmdbcs	r1, {}	; <UNPREDICTABLE>
     3f0:	0000cb14 	andeq	ip, r0, r4, lsl fp
     3f4:	9f131300 	svcls	0x00131300
     3f8:	98000000 	stmdals	r0, {}	; <UNPREDICTABLE>
     3fc:	04000081 	streq	r0, [r0], #-129	; 0x81
     400:	01000000 	mrseq	r0, (UNDEF: 0)
     404:	00041d28 	andeq	r1, r4, r8, lsr #26
     408:	81981600 	orrshi	r1, r8, r0, lsl #12
     40c:	00040000 	andeq	r0, r4, r0
     410:	af210000 	svcge	0x00210000
     414:	e1000000 	mrs	r0, (UNDEF: 0)
     418:	00000000 	andeq	r0, r0, r0
     41c:	81a01a00 	lslhi	r1, r0, #20
     420:	017a0000 	cmneq	sl, r0
     424:	00000000 	andeq	r0, r0, r0
     428:	0081001a 	addeq	r0, r1, sl, lsl r0
     42c:	00062f00 	andeq	r2, r6, r0, lsl #30
     430:	810c1a00 	tsthi	ip, r0, lsl #20
     434:	06000000 	streq	r0, [r0], -r0
     438:	281b0000 	ldmdacs	fp, {}	; <UNPREDICTABLE>
     43c:	07000081 	streq	r0, [r0, -r1, lsl #1]
     440:	72000006 	andvc	r0, r0, #6
     444:	1c000004 	stcne	0, cr0, [r0], {4}
     448:	41015301 	tstmi	r1, r1, lsl #6
     44c:	0552011c 	ldrbeq	r0, [r2, #-284]	; 0x11c
     450:	00b3c003 	adcseq	ip, r3, r3
     454:	51011c00 	tstpl	r1, r0, lsl #24
     458:	b34c0305 	movtlt	r0, #49925	; 0xc305
     45c:	011c0000 	tsteq	ip, r0
     460:	38030550 	stmdacc	r3, {r4, r6, r8, sl}
     464:	1c0000b3 	stcne	0, cr0, [r0], {179}	; 0xb3
     468:	05007d02 	streq	r7, [r0, #-3330]	; 0xd02
     46c:	00b36803 	adcseq	r6, r3, r3, lsl #16
     470:	2c1a0000 	ldccs	0, cr0, [sl], {-0}
     474:	1d000081 	stcne	0, cr0, [r0, #-516]	; 0xfffffdfc
     478:	1a000006 	bne	498 <__code_start__-0x7b68>
     47c:	00008140 	andeq	r8, r0, r0, asr #2
     480:	00000600 	andeq	r0, r0, r0, lsl #12
     484:	00815c1b 	addeq	r5, r1, fp, lsl ip
     488:	00060700 	andeq	r0, r6, r0, lsl #14
     48c:	0004bc00 	andeq	fp, r4, r0, lsl #24
     490:	53011c00 	movwpl	r1, #7168	; 0x1c00
     494:	011c4301 	tsteq	ip, r1, lsl #6
     498:	c0030552 	andgt	r0, r3, r2, asr r5
     49c:	1c0000b3 	stcne	0, cr0, [r0], {179}	; 0xb3
     4a0:	03055101 	movweq	r5, #20737	; 0x5101
     4a4:	0000b34c 	andeq	fp, r0, ip, asr #6
     4a8:	0550011c 	ldrbeq	r0, [r0, #-284]	; 0x11c
     4ac:	00b33803 	adcseq	r3, r3, r3, lsl #16
     4b0:	7d021c00 	stcvc	12, cr1, [r2, #-0]
     4b4:	7c030500 	cfstr32vc	mvfx0, [r3], {-0}
     4b8:	000000b3 	strheq	r0, [r0], -r3
     4bc:	0081601a 	addeq	r6, r1, sl, lsl r0
     4c0:	00061d00 	andeq	r1, r6, r0, lsl #26
     4c4:	81681b00 	cmnhi	r8, r0, lsl #22
     4c8:	063a0000 	ldrteq	r0, [sl], -r0
     4cc:	04dc0000 	ldrbeq	r0, [ip], #0
     4d0:	011c0000 	tsteq	ip, r0
     4d4:	88030550 	stmdahi	r3, {r4, r6, r8, sl}
     4d8:	00000080 	andeq	r0, r0, r0, lsl #1
     4dc:	0081781a 	addeq	r7, r1, sl, lsl r8
     4e0:	00060000 	andeq	r0, r6, r0
     4e4:	81941b00 	orrshi	r1, r4, r0, lsl #22
     4e8:	06070000 	streq	r0, [r7], -r0
     4ec:	051d0000 	ldreq	r0, [sp, #-0]
     4f0:	011c0000 	tsteq	ip, r0
     4f4:	1c450153 	stfnee	f0, [r5], {83}	; 0x53
     4f8:	03055201 	movweq	r5, #20993	; 0x5201
     4fc:	0000b3c0 	andeq	fp, r0, r0, asr #7
     500:	0551011c 	ldrbeq	r0, [r1, #-284]	; 0x11c
     504:	00b34c03 	adcseq	r4, r3, r3, lsl #24
     508:	50011c00 	andpl	r1, r1, r0, lsl #24
     50c:	b3380305 	teqlt	r8, #335544320	; 0x14000000
     510:	021c0000 	andseq	r0, ip, #0
     514:	0305007d 	movweq	r0, #20605	; 0x507d
     518:	0000b38c 	andeq	fp, r0, ip, lsl #7
     51c:	81981a00 	orrshi	r1, r8, r0, lsl #20
     520:	061d0000 	ldreq	r0, [sp], -r0
     524:	ac1a0000 	ldcge	0, cr0, [sl], {-0}
     528:	00000081 	andeq	r0, r0, r1, lsl #1
     52c:	1b000006 	blne	54c <__code_start__-0x7ab4>
     530:	000081c8 	andeq	r8, r0, r8, asr #3
     534:	00000607 	andeq	r0, r0, r7, lsl #12
     538:	00000567 	andeq	r0, r0, r7, ror #10
     53c:	0153011c 	cmpeq	r3, ip, lsl r1
     540:	52011c46 	andpl	r1, r1, #17920	; 0x4600
     544:	b3c00305 	biclt	r0, r0, #335544320	; 0x14000000
     548:	011c0000 	tsteq	ip, r0
     54c:	4c030551 	cfstr32mi	mvfx0, [r3], {81}	; 0x51
     550:	1c0000b3 	stcne	0, cr0, [r0], {179}	; 0xb3
     554:	03055001 	movweq	r5, #20481	; 0x5001
     558:	0000b338 	andeq	fp, r0, r8, lsr r3
     55c:	007d021c 	rsbseq	r0, sp, ip, lsl r2
     560:	b37c0305 	cmnlt	ip, #335544320	; 0x14000000
     564:	1a000000 	bne	56c <__code_start__-0x7a94>
     568:	000081cc 	andeq	r8, r0, ip, asr #3
     56c:	0000061d 	andeq	r0, r0, sp, lsl r6
     570:	0081d01a 	addeq	sp, r1, sl, lsl r0
     574:	00062f00 	andeq	r2, r6, r0, lsl #30
     578:	81dc1a00 	bicshi	r1, ip, r0, lsl #20
     57c:	06000000 	streq	r0, [r0], -r0
     580:	f81b0000 			; <UNDEFINED> instruction: 0xf81b0000
     584:	07000081 	streq	r0, [r0, -r1, lsl #1]
     588:	ba000006 	blt	5a8 <__code_start__-0x7a58>
     58c:	1c000005 	stcne	0, cr0, [r0], {5}
     590:	49015301 	stmdbmi	r1, {r0, r8, r9, ip, lr}
     594:	0552011c 	ldrbeq	r0, [r2, #-284]	; 0x11c
     598:	00b3c003 	adcseq	ip, r3, r3
     59c:	51011c00 	tstpl	r1, r0, lsl #24
     5a0:	b34c0305 	movtlt	r0, #49925	; 0xc305
     5a4:	011c0000 	tsteq	ip, r0
     5a8:	38030550 	stmdacc	r3, {r4, r6, r8, sl}
     5ac:	1c0000b3 	stcne	0, cr0, [r0], {179}	; 0xb3
     5b0:	05007d02 	streq	r7, [r0, #-3330]	; 0xd02
     5b4:	00b36803 	adcseq	r6, r3, r3, lsl #16
     5b8:	fc1a0000 	ldc2	0, cr0, [sl], {-0}
     5bc:	1d000081 	stcne	0, cr0, [r0, #-516]	; 0xfffffdfc
     5c0:	1b000006 	blne	5e0 <__code_start__-0x7a20>
     5c4:	00008204 	andeq	r8, r0, r4, lsl #4
     5c8:	00000607 	andeq	r0, r0, r7, lsl #12
     5cc:	000005da 	ldrdeq	r0, [r0], -sl
     5d0:	0550011c 	ldrbeq	r0, [r0, #-284]	; 0x11c
     5d4:	00b39c03 	adcseq	r9, r3, r3, lsl #24
     5d8:	0c1b0000 	ldceq	0, cr0, [fp], {-0}
     5dc:	07000082 	streq	r0, [r0, -r2, lsl #1]
     5e0:	f1000006 	cps	#6
     5e4:	1c000005 	stcne	0, cr0, [r0], {5}
     5e8:	03055001 	movweq	r5, #20481	; 0x5001
     5ec:	0000b3a4 	andeq	fp, r0, r4, lsr #7
     5f0:	82101a00 	andshi	r1, r0, #0, 20
     5f4:	061d0000 	ldreq	r0, [sp], -r0
     5f8:	06000000 	streq	r0, [r0], -r0
     5fc:	0000008f 	andeq	r0, r0, pc, lsl #1
     600:	0001d522 	andeq	sp, r1, r2, lsr #10
     604:	231e0500 	tstcs	lr, #0, 10
     608:	00000a9d 	muleq	r0, sp, sl
     60c:	00252905 	eoreq	r2, r5, r5, lsl #18
     610:	061d0000 	ldreq	r0, [sp], -r0
     614:	84240000 	strthi	r0, [r4], #-0
     618:	25000000 	strcs	r0, [r0, #-0]
     61c:	004a2200 	subeq	r2, sl, r0, lsl #4
     620:	65050000 	strvs	r0, [r5, #-0]
     624:	0001001e 	andeq	r0, r1, lr, lsl r0
     628:	25050300 	strcs	r0, [r5, #-768]	; 0x300
     62c:	1e000000 	cdpne	0, 0, cr0, cr0, cr0, {0}
     630:	0000006d 	andeq	r0, r0, sp, rrx
     634:	00256c06 	eoreq	r6, r5, r6, lsl #24
     638:	3d230000 	stccc	0, cr0, [r3, #-0]
     63c:	07000001 	streq	r0, [r0, -r1]
     640:	00002521 	andeq	r2, r0, r1, lsr #10
     644:	00064f00 	andeq	r4, r6, r0, lsl #30
     648:	064f2400 	strbeq	r2, [pc], -r0, lsl #8
     64c:	05000000 	streq	r0, [r0, #-0]
     650:	00065504 	andeq	r5, r6, r4, lsl #10
     654:	00252600 	eoreq	r2, r5, r0, lsl #12
     658:	4e000000 	cdpmi	0, 0, cr0, cr0, cr0, {0}
     65c:	04000015 	streq	r0, [r0], #-21
     660:	0001ff00 	andeq	pc, r1, r0, lsl #30
     664:	7c010400 	cfstrsvc	mvf0, [r1], {-0}
     668:	01000000 	mrseq	r0, (UNDEF: 0)
     66c:	0000024d 	andeq	r0, r0, sp, asr #4
     670:	00000171 	andeq	r0, r0, r1, ror r1
     674:	00008374 	andeq	r8, r0, r4, ror r3
     678:	000008dc 	ldrdeq	r0, [r0], -ip
     67c:	000001aa 	andeq	r0, r0, sl, lsr #3
     680:	69050402 	stmdbvs	r5, {r1, sl}
     684:	0300746e 	movweq	r7, #1134	; 0x46e
     688:	0000021b 	andeq	r0, r0, fp, lsl r2
     68c:	0037d403 	eorseq	sp, r7, r3, lsl #8
     690:	04040000 	streq	r0, [r4], #-0
     694:	0000f307 	andeq	pc, r0, r7, lsl #6
     698:	06010400 	streq	r0, [r1], -r0, lsl #8
     69c:	0000003e 	andeq	r0, r0, lr, lsr r0
     6a0:	49050204 	stmdbmi	r5, {r2, r9}
     6a4:	04000001 	streq	r0, [r0], #-1
     6a8:	012c0504 	teqeq	ip, r4, lsl #10
     6ac:	08040000 	stmdaeq	r4, {}	; <UNPREDICTABLE>
     6b0:	00012705 	andeq	r2, r1, r5, lsl #14
     6b4:	08010400 	stmdaeq	r1, {sl}
     6b8:	0000003c 	andeq	r0, r0, ip, lsr r0
     6bc:	12070204 	andne	r0, r7, #4, 4	; 0x40000000
     6c0:	03000000 	movweq	r0, #0
     6c4:	00000057 	andeq	r0, r0, r7, asr r0
     6c8:	00733404 	rsbseq	r3, r3, r4, lsl #8
     6cc:	04040000 	streq	r0, [r4], #-0
     6d0:	0000ee07 	andeq	lr, r0, r7, lsl #28
     6d4:	07080400 	streq	r0, [r8, -r0, lsl #8]
     6d8:	000000e9 	andeq	r0, r0, r9, ror #1
     6dc:	10070404 	andne	r0, r7, r4, lsl #8
     6e0:	05000001 	streq	r0, [r0, #-1]
     6e4:	08010404 	stmdaeq	r1, {r2, sl}
     6e8:	00000045 	andeq	r0, r0, r5, asr #32
     6ec:	00970406 	addseq	r0, r7, r6, lsl #8
     6f0:	8a070000 	bhi	1c06f8 <__bss_end__+0x1b3cd0>
     6f4:	08000000 	stmdaeq	r0, {}	; <UNPREDICTABLE>
     6f8:	00000486 	andeq	r0, r0, r6, lsl #9
     6fc:	572a0504 	strpl	r0, [sl, -r4, lsl #10]!
     700:	09000002 	stmdbeq	r0, {r1}
     704:	00000455 	andeq	r0, r0, r5, asr r4
     708:	00372c05 	eorseq	r2, r7, r5, lsl #24
     70c:	01040000 	mrseq	r0, (UNDEF: 4)
     710:	6809001f 	stmdavs	r9, {r0, r1, r2, r3, r4}
     714:	05000002 	streq	r0, [r0, #-2]
     718:	0000372d 	andeq	r3, r0, sp, lsr #14
     71c:	1e010400 	cfcpysne	mvf0, mvf1
     720:	05580900 	ldrbeq	r0, [r8, #-2304]	; 0x900
     724:	2e050000 	cdpcs	0, 0, cr0, cr5, cr0, {0}
     728:	00000037 	andeq	r0, r0, r7, lsr r0
     72c:	001d0104 	andseq	r0, sp, r4, lsl #2
     730:	00041409 	andeq	r1, r4, r9, lsl #8
     734:	37310500 	ldrcc	r0, [r1, -r0, lsl #10]!
     738:	04000000 	streq	r0, [r0], #-0
     73c:	09001c01 	stmdbeq	r0, {r0, sl, fp, ip}
     740:	000004c3 	andeq	r0, r0, r3, asr #9
     744:	00373205 	eorseq	r3, r7, r5, lsl #4
     748:	03040000 	movweq	r0, #16384	; 0x4000
     74c:	44090019 	strmi	r0, [r9], #-25
     750:	05000002 	streq	r0, [r0, #-2]
     754:	00003733 	andeq	r3, r0, r3, lsr r7
     758:	18010400 	stmdane	r1, {sl}
     75c:	04200900 	strteq	r0, [r0], #-2304	; 0x900
     760:	34050000 	strcc	r0, [r5], #-0
     764:	00000037 	andeq	r0, r0, r7, lsr r0
     768:	00170104 	andseq	r0, r7, r4, lsl #2
     76c:	0003e009 	andeq	lr, r3, r9
     770:	37350500 	ldrcc	r0, [r5, -r0, lsl #10]!
     774:	04000000 	streq	r0, [r0], #-0
     778:	0a001601 	beq	5f84 <__code_start__-0x207c>
     77c:	36050046 	strcc	r0, [r5], -r6, asr #32
     780:	00000037 	andeq	r0, r0, r7, lsr r0
     784:	00150104 	andseq	r0, r5, r4, lsl #2
     788:	0001e409 	andeq	lr, r1, r9, lsl #8
     78c:	37370500 	ldrcc	r0, [r7, -r0, lsl #10]!
     790:	04000000 	streq	r0, [r0], #-0
     794:	09001401 	stmdbeq	r0, {r0, sl, ip}
     798:	00000258 	andeq	r0, r0, r8, asr r2
     79c:	00373805 	eorseq	r3, r7, r5, lsl #16
     7a0:	01040000 	mrseq	r0, (UNDEF: 4)
     7a4:	34090013 	strcc	r0, [r9], #-19
     7a8:	05000002 	streq	r0, [r0, #-2]
     7ac:	00003739 	andeq	r3, r0, r9, lsr r7
     7b0:	12010400 	andne	r0, r1, #0, 8
     7b4:	03300900 	teqeq	r0, #0, 18
     7b8:	3a050000 	bcc	1407c0 <__bss_end__+0x133d98>
     7bc:	00000037 	andeq	r0, r0, r7, lsr r0
     7c0:	00110104 	andseq	r0, r1, r4, lsl #2
     7c4:	00344c0a 	eorseq	r4, r4, sl, lsl #24
     7c8:	00373b05 	eorseq	r3, r7, r5, lsl #22
     7cc:	01040000 	mrseq	r0, (UNDEF: 4)
     7d0:	5f0a0010 	svcpl	0x000a0010
     7d4:	05007464 	streq	r7, [r0, #-1124]	; 0x464
     7d8:	0000373c 	andeq	r3, r0, ip, lsr r7
     7dc:	0f010400 	svceq	0x00010400
     7e0:	05300900 	ldreq	r0, [r0, #-2304]!	; 0x900
     7e4:	3d050000 	stccc	0, cr0, [r5, #-0]
     7e8:	00000037 	andeq	r0, r0, r7, lsr r0
     7ec:	000e0104 	andeq	r0, lr, r4, lsl #2
     7f0:	74695f0a 	strbtvc	r5, [r9], #-3850	; 0xf0a
     7f4:	373e0500 	ldrcc	r0, [lr, -r0, lsl #10]!
     7f8:	04000000 	streq	r0, [r0], #-0
     7fc:	09000d01 	stmdbeq	r0, {r0, r8, sl, fp}
     800:	00000536 	andeq	r0, r0, r6, lsr r5
     804:	00373f05 	eorseq	r3, r7, r5, lsl #30
     808:	01040000 	mrseq	r0, (UNDEF: 4)
     80c:	5f0a000c 	svcpl	0x000a000c
     810:	05007473 	streq	r7, [r0, #-1139]	; 0x473
     814:	00003740 	andeq	r3, r0, r0, asr #14
     818:	0b010400 	bleq	41820 <__bss_end__+0x34df8>
     81c:	31460a00 	cmpcc	r6, r0, lsl #20
     820:	37410500 	strbcc	r0, [r1, -r0, lsl #10]
     824:	04000000 	streq	r0, [r0], #-0
     828:	09000a01 	stmdbeq	r0, {r0, r9, fp}
     82c:	00000461 	andeq	r0, r0, r1, ror #8
     830:	00374205 	eorseq	r4, r7, r5, lsl #4
     834:	01040000 	mrseq	r0, (UNDEF: 4)
     838:	6d090009 	stcvs	0, cr0, [r9, #-36]	; 0xffffffdc
     83c:	05000004 	streq	r0, [r0, #-4]
     840:	00003743 	andeq	r3, r0, r3, asr #14
     844:	08010400 	stmdaeq	r1, {sl}
     848:	03d40900 	bicseq	r0, r4, #0, 18
     84c:	45050000 	strmi	r0, [r5, #-0]
     850:	00000037 	andeq	r0, r0, r7, lsr r0
     854:	00070104 	andeq	r0, r7, r4, lsl #2
     858:	0045450a 	subeq	r4, r5, sl, lsl #10
     85c:	00374605 	eorseq	r4, r7, r5, lsl #12
     860:	01040000 	mrseq	r0, (UNDEF: 4)
     864:	4d090006 	stcmi	0, cr0, [r9, #-24]	; 0xffffffe8
     868:	05000005 	streq	r0, [r0, #-5]
     86c:	00003747 	andeq	r3, r0, r7, asr #14
     870:	05010400 	streq	r0, [r1, #-1024]	; 0x400
     874:	03730900 	cmneq	r3, #0, 18
     878:	48050000 	stmdami	r5, {}	; <UNPREDICTABLE>
     87c:	00000037 	andeq	r0, r0, r7, lsr r0
     880:	00040104 	andeq	r0, r4, r4, lsl #2
     884:	00047309 	andeq	r7, r4, r9, lsl #6
     888:	37490500 	strbcc	r0, [r9, -r0, lsl #10]
     88c:	04000000 	streq	r0, [r0], #-0
     890:	09000301 	stmdbeq	r0, {r0, r8, r9}
     894:	000003f2 	strdeq	r0, [r0], -r2
     898:	00374a05 	eorseq	r4, r7, r5, lsl #20
     89c:	01040000 	mrseq	r0, (UNDEF: 4)
     8a0:	7e090002 	cdpvc	0, 0, cr0, cr9, cr2, {0}
     8a4:	05000003 	streq	r0, [r0, #-3]
     8a8:	0000374b 	andeq	r3, r0, fp, asr #14
     8ac:	00020400 	andeq	r0, r2, r0, lsl #8
     8b0:	b2030000 	andlt	r0, r3, #0
     8b4:	05000004 	streq	r0, [r0, #-4]
     8b8:	00009c4c 	andeq	r9, r0, ip, asr #24
     8bc:	038f0800 	orreq	r0, pc, #0, 16
     8c0:	06040000 	streq	r0, [r4], -r0
     8c4:	00033846 	andeq	r3, r3, r6, asr #16
     8c8:	61740a00 	cmnvs	r4, r0, lsl #20
     8cc:	48060067 	stmdami	r6, {r0, r1, r2, r5, r6}
     8d0:	00000037 	andeq	r0, r0, r7, lsr r0
     8d4:	001e0204 	andseq	r0, lr, r4, lsl #4
     8d8:	0600420a 	streq	r4, [r0], -sl, lsl #4
     8dc:	00003749 	andeq	r3, r0, r9, asr #14
     8e0:	1d010400 	cfstrsne	mvf0, [r1, #-0]
     8e4:	00430a00 	subeq	r0, r3, r0, lsl #20
     8e8:	00374a06 	eorseq	r4, r7, r6, lsl #20
     8ec:	01040000 	mrseq	r0, (UNDEF: 4)
     8f0:	580a001c 	stmdapl	sl, {r2, r3, r4}
     8f4:	4b06004e 	blmi	180a34 <__bss_end__+0x17400c>
     8f8:	00000037 	andeq	r0, r0, r7, lsr r0
     8fc:	001b0104 	andseq	r0, fp, r4, lsl #2
     900:	00052909 	andeq	r2, r5, r9, lsl #18
     904:	374e0600 	strbcc	r0, [lr, -r0, lsl #12]
     908:	04000000 	streq	r0, [r0], #-0
     90c:	0a001704 	beq	6524 <__code_start__-0x1adc>
     910:	00504d49 	subseq	r4, r0, r9, asr #26
     914:	00374f06 	eorseq	r4, r7, r6, lsl #30
     918:	01040000 	mrseq	r0, (UNDEF: 4)
     91c:	410a0016 	tstmi	sl, r6, lsl r0
     920:	52060050 	andpl	r0, r6, #80	; 0x50
     924:	00000037 	andeq	r0, r0, r7, lsr r0
     928:	00140204 	andseq	r0, r4, r4, lsl #4
     92c:	5845540a 	stmdapl	r5, {r1, r3, sl, ip, lr}^
     930:	37530600 	ldrbcc	r0, [r3, -r0, lsl #12]
     934:	04000000 	streq	r0, [r0], #-0
     938:	0a001103 	beq	4d4c <__code_start__-0x32b4>
     93c:	00585041 	subseq	r5, r8, r1, asr #32
     940:	00375406 	eorseq	r5, r7, r6, lsl #8
     944:	01040000 	mrseq	r0, (UNDEF: 4)
     948:	530a0010 	movwpl	r0, #40976	; 0xa010
     94c:	37550600 	ldrbcc	r0, [r5, -r0, lsl #12]
     950:	04000000 	streq	r0, [r0], #-0
     954:	0a000f01 	beq	4560 <__code_start__-0x3aa0>
     958:	0600476e 	streq	r4, [r0], -lr, ror #14
     95c:	00003756 	andeq	r3, r0, r6, asr r7
     960:	0e010400 	cfcpyseq	mvf0, mvf1
     964:	015b0900 	cmpeq	fp, r0, lsl #18
     968:	57060000 	strpl	r0, [r6, -r0]
     96c:	00000037 	andeq	r0, r0, r7, lsr r0
     970:	000d0104 	andeq	r0, sp, r4, lsl #2
     974:	00053609 	andeq	r3, r5, r9, lsl #12
     978:	37580600 	ldrbcc	r0, [r8, -r0, lsl #12]
     97c:	04000000 	streq	r0, [r0], #-0
     980:	09000c01 	stmdbeq	r0, {r0, sl, fp}
     984:	000002a9 	andeq	r0, r0, r9, lsr #5
     988:	00375906 	eorseq	r5, r7, r6, lsl #18
     98c:	0c040000 	stceq	0, cr0, [r4], {-0}
     990:	03000000 	movweq	r0, #0
     994:	00000307 	andeq	r0, r0, r7, lsl #6
     998:	02625a06 	rsbeq	r5, r2, #24576	; 0x6000
     99c:	010b0000 	mrseq	r0, (UNDEF: 11)
     9a0:	035e5e06 	cmpeq	lr, #6, 28	; 0x60
     9a4:	890c0000 	stmdbhi	ip, {}	; <UNPREDICTABLE>
     9a8:	03000003 	movweq	r0, #3
     9ac:	00051c0c 	andeq	r1, r5, ip, lsl #24
     9b0:	8e0c0000 	cdphi	0, 0, cr0, cr12, cr0, {0}
     9b4:	02000002 	andeq	r0, r0, #2
     9b8:	02220d00 	eoreq	r0, r2, #0, 26
     9bc:	78020000 	stmdavc	r2, {}	; <UNPREDICTABLE>
     9c0:	00000037 	andeq	r0, r0, r7, lsr r0
     9c4:	00037803 	andeq	r7, r3, r3, lsl #16
     9c8:	00750e00 	rsbseq	r0, r5, r0, lsl #28
     9cc:	00377802 	eorseq	r7, r7, r2, lsl #16
     9d0:	0f000000 	svceq	0x00000000
     9d4:	0000006d 	andeq	r0, r0, sp, rrx
     9d8:	00250b01 	eoreq	r0, r5, r1, lsl #22
     9dc:	83740000 	cmnhi	r4, #0
     9e0:	00100000 	andseq	r0, r0, r0
     9e4:	9c010000 	stcls	0, cr0, [r1], {-0}
     9e8:	0000039b 	muleq	r0, fp, r3
     9ec:	00837c10 	addeq	r7, r3, r0, lsl ip
     9f0:	00144000 	andseq	r4, r4, r0
     9f4:	800f0000 	andhi	r0, pc, r0
     9f8:	01000005 	tsteq	r0, r5
     9fc:	0004920f 	andeq	r9, r4, pc, lsl #4
     a00:	00838400 	addeq	r8, r3, r0, lsl #8
     a04:	00009000 	andeq	r9, r0, r0
     a08:	929c0100 	addsls	r0, ip, #0, 2
     a0c:	11000004 	tstne	r0, r4
     a10:	01007470 	tsteq	r0, r0, ror r4
     a14:	0004920f 	andeq	r9, r4, pc, lsl #4
     a18:	0000f400 	andeq	pc, r0, r0, lsl #8
     a1c:	61761100 	cmnvs	r6, r0, lsl #2
     a20:	370f0100 	strcc	r0, [pc, -r0, lsl #2]
     a24:	47000000 	strmi	r0, [r0, -r0]
     a28:	12000001 	andne	r0, r0, #1
     a2c:	00000060 	andeq	r0, r0, r0, rrx
     a30:	000004a8 	andeq	r0, r0, r8, lsr #9
     a34:	b3f00305 	mvnslt	r0, #335544320	; 0x14000000
     a38:	80130000 	andshi	r0, r3, r0
     a3c:	01000004 	tsteq	r0, r4
     a40:	00003711 	andeq	r3, r0, r1, lsl r7
     a44:	00018100 	andeq	r8, r1, r0, lsl #2
     a48:	74701400 	ldrbtvc	r1, [r0], #-1024	; 0x400
     a4c:	12010065 	andne	r0, r1, #101	; 0x65
     a50:	00000492 	muleq	r0, r2, r4
     a54:	000001af 	andeq	r0, r0, pc, lsr #3
     a58:	00839810 	addeq	r9, r3, r0, lsl r8
     a5c:	00144b00 	andseq	r4, r4, r0, lsl #22
     a60:	83b41500 			; <UNDEFINED> instruction: 0x83b41500
     a64:	14520000 	ldrbne	r0, [r2], #-0
     a68:	043e0000 	ldrteq	r0, [lr], #-0
     a6c:	01160000 	tsteq	r6, r0
     a70:	16400153 			; <UNDEFINED> instruction: 0x16400153
     a74:	03055201 	movweq	r5, #20993	; 0x5201
     a78:	0000b3f0 	strdeq	fp, [r0], -r0
     a7c:	05510116 	ldrbeq	r0, [r1, #-278]	; 0x116
     a80:	00b4e003 	adcseq	lr, r4, r3
     a84:	50011600 	andpl	r1, r1, r0, lsl #12
     a88:	b3380305 	teqlt	r8, #335544320	; 0x14000000
     a8c:	02160000 	andseq	r0, r6, #0
     a90:	0305007d 	movweq	r0, #20605	; 0x507d
     a94:	0000b4e8 	andeq	fp, r0, r8, ror #9
     a98:	83b81000 			; <UNDEFINED> instruction: 0x83b81000
     a9c:	14680000 	strbtne	r0, [r8], #-0
     aa0:	d0100000 	andsle	r0, r0, r0
     aa4:	4b000083 	blmi	cb8 <__code_start__-0x7348>
     aa8:	15000014 	strne	r0, [r0, #-20]
     aac:	000083ec 	andeq	r8, r0, ip, ror #7
     ab0:	00001452 	andeq	r1, r0, r2, asr r4
     ab4:	00000488 	andeq	r0, r0, r8, lsl #9
     ab8:	01530116 	cmpeq	r3, r6, lsl r1
     abc:	52011643 	andpl	r1, r1, #70254592	; 0x4300000
     ac0:	b3f00305 	mvnslt	r0, #335544320	; 0x14000000
     ac4:	01160000 	tsteq	r6, r0
     ac8:	e0030551 	and	r0, r3, r1, asr r5
     acc:	160000b4 			; <UNDEFINED> instruction: 0x160000b4
     ad0:	03055001 	movweq	r5, #20481	; 0x5001
     ad4:	0000b4fc 	strdeq	fp, [r0], -ip
     ad8:	007d0216 	rsbseq	r0, sp, r6, lsl r2
     adc:	b52c0305 	strlt	r0, [ip, #-773]!	; 0x305
     ae0:	10000000 	andne	r0, r0, r0
     ae4:	000083f0 	strdeq	r8, [r0], -r0
     ae8:	00001468 	andeq	r1, r0, r8, ror #8
     aec:	38040600 	stmdacc	r4, {r9, sl}
     af0:	17000003 	strne	r0, [r0, -r3]
     af4:	0000008a 	andeq	r0, r0, sl, lsl #1
     af8:	000004a8 	andeq	r0, r0, r8, lsr #9
     afc:	00008118 	andeq	r8, r0, r8, lsl r1
     b00:	07001200 	streq	r1, [r0, -r0, lsl #4]
     b04:	00000498 	muleq	r0, r8, r4
     b08:	00042719 	andeq	r2, r4, r9, lsl r7
     b0c:	14180100 	ldrne	r0, [r8], #-256	; 0x100
     b10:	98000084 	stmdals	r0, {r2, r7}
     b14:	01000000 	mrseq	r0, (UNDEF: 0)
     b18:	0005be9c 	muleq	r5, ip, lr
     b1c:	74701100 	ldrbtvc	r1, [r0], #-256	; 0x100
     b20:	92180100 	andsls	r0, r8, #0, 2
     b24:	e3000004 	movw	r0, #4
     b28:	11000001 	tstne	r0, r1
     b2c:	01006176 	tsteq	r0, r6, ror r1
     b30:	00003718 	andeq	r3, r0, r8, lsl r7
     b34:	00022500 	andeq	r2, r2, r0, lsl #10
     b38:	02531a00 	subseq	r1, r3, #0, 20
     b3c:	18010000 	stmdane	r1, {}	; <UNPREDICTABLE>
     b40:	00000037 	andeq	r0, r0, r7, lsr r0
     b44:	00000246 	andeq	r0, r0, r6, asr #4
     b48:	0004371a 	andeq	r3, r4, sl, lsl r7
     b4c:	37180100 	ldrcc	r0, [r8, -r0, lsl #2]
     b50:	88000000 	stmdahi	r0, {}	; <UNPREDICTABLE>
     b54:	12000002 	andne	r0, r0, #2
     b58:	00000060 	andeq	r0, r0, r0, rrx
     b5c:	000005ce 	andeq	r0, r0, lr, asr #11
     b60:	b4040305 	strlt	r0, [r4], #-773	; 0x305
     b64:	5e1b0000 	cdppl	0, 1, cr0, cr11, cr0, {0}
     b68:	24000003 	strcs	r0, [r0], #-3
     b6c:	08000084 	stmdaeq	r0, {r2, r7}
     b70:	01000000 	mrseq	r0, (UNDEF: 0)
     b74:	00052819 	andeq	r2, r5, r9, lsl r8
     b78:	036e1c00 	cmneq	lr, #0, 24
     b7c:	02c20000 	sbceq	r0, r2, #0
     b80:	1d000000 	stcne	0, cr0, [r0, #-0]
     b84:	00000000 	andeq	r0, r0, r0
     b88:	0000056a 	andeq	r0, r0, sl, ror #10
     b8c:	01006914 	tsteq	r0, r4, lsl r9
     b90:	0000251b 	andeq	r2, r0, fp, lsl r5
     b94:	0002e300 	andeq	lr, r2, r0, lsl #6
     b98:	00181e00 	andseq	r1, r8, r0, lsl #28
     b9c:	70140000 	andsvc	r0, r4, r0
     ba0:	01006574 	tsteq	r0, r4, ror r5
     ba4:	0004921f 	andeq	r9, r4, pc, lsl r2
     ba8:	00030100 	andeq	r0, r3, r0, lsl #2
     bac:	84641f00 	strbthi	r1, [r4], #-3840	; 0xf00
     bb0:	039b0000 	orrseq	r0, fp, #0
     bb4:	01160000 	tsteq	r6, r0
     bb8:	00770251 	rsbseq	r0, r7, r1, asr r2
     bbc:	02500116 	subseq	r0, r0, #-2147483643	; 0x80000005
     bc0:	00000078 	andeq	r0, r0, r8, ror r0
     bc4:	84381000 	ldrthi	r1, [r8], #-0
     bc8:	144b0000 	strbne	r0, [fp], #-0
     bcc:	54150000 	ldrpl	r0, [r5], #-0
     bd0:	52000084 	andpl	r0, r0, #132	; 0x84
     bd4:	ab000014 	blge	c2c <__code_start__-0x73d4>
     bd8:	16000005 	strne	r0, [r0], -r5
     bdc:	4a015301 	bmi	557e8 <__bss_end__+0x48dc0>
     be0:	05520116 	ldrbeq	r0, [r2, #-278]	; 0x116
     be4:	00b40403 	adcseq	r0, r4, r3, lsl #8
     be8:	51011600 	tstpl	r1, r0, lsl #12
     bec:	b4e00305 	strbtlt	r0, [r0], #773	; 0x305
     bf0:	01160000 	tsteq	r6, r0
     bf4:	38030550 	stmdacc	r3, {r4, r6, r8, sl}
     bf8:	160000b5 			; <UNDEFINED> instruction: 0x160000b5
     bfc:	05007d02 	streq	r7, [r0, #-3330]	; 0xd02
     c00:	00b56c03 	adcseq	r6, r5, r3, lsl #24
     c04:	58100000 	ldmdapl	r0, {}	; <UNPREDICTABLE>
     c08:	68000084 	stmdavs	r0, {r2, r7}
     c0c:	10000014 	andne	r0, r0, r4, lsl r0
     c10:	00008494 	muleq	r0, r4, r4
     c14:	0000146f 	andeq	r1, r0, pc, ror #8
     c18:	008a1700 	addeq	r1, sl, r0, lsl #14
     c1c:	05ce0000 	strbeq	r0, [lr]
     c20:	81180000 	tsthi	r8, r0
     c24:	14000000 	strne	r0, [r0], #-0
     c28:	05be0700 	ldreq	r0, [lr, #1792]!	; 0x700
     c2c:	05200000 	streq	r0, [r0, #-0]!
     c30:	01000002 	tsteq	r0, r2
     c34:	0084ac26 	addeq	sl, r4, r6, lsr #24
     c38:	00001000 	andeq	r1, r0, r0
     c3c:	389c0100 	ldmcc	ip, {r8}
     c40:	11000006 	tstne	r0, r6
     c44:	01007470 	tsteq	r0, r0, ror r4
     c48:	00049226 	andeq	r9, r4, r6, lsr #4
     c4c:	00031400 	andeq	r1, r3, r0, lsl #8
     c50:	61761100 	cmnvs	r6, r0, lsl #2
     c54:	37260100 	strcc	r0, [r6, -r0, lsl #2]!
     c58:	35000000 	strcc	r0, [r0, #-0]
     c5c:	1a000003 	bne	c70 <__code_start__-0x7390>
     c60:	00000253 	andeq	r0, r0, r3, asr r2
     c64:	00372601 	eorseq	r2, r7, r1, lsl #12
     c68:	03560000 	cmpeq	r6, #0
     c6c:	b81f0000 	ldmdalt	pc, {}	; <UNPREDICTABLE>
     c70:	ad000084 	stcge	0, cr0, [r0, #-528]	; 0xfffffdf0
     c74:	16000004 	strne	r0, [r0], -r4
     c78:	32015301 	andcc	r5, r1, #67108864	; 0x4000000
     c7c:	03520116 	cmpeq	r2, #-2147483643	; 0x80000005
     c80:	165201f3 			; <UNDEFINED> instruction: 0x165201f3
     c84:	f3035101 	vrhadd.u8	d5, d3, d1
     c88:	01165101 	tsteq	r6, r1, lsl #2
     c8c:	01f30350 	mvnseq	r0, r0, asr r3
     c90:	20000050 	andcs	r0, r0, r0, asr r0
     c94:	0000034f 	andeq	r0, r0, pc, asr #6
     c98:	84bc2901 	ldrthi	r2, [ip], #2305	; 0x901
     c9c:	00100000 	andseq	r0, r0, r0
     ca0:	9c010000 	stcls	0, cr0, [r1], {-0}
     ca4:	0000069d 	muleq	r0, sp, r6
     ca8:	00747011 	rsbseq	r7, r4, r1, lsl r0
     cac:	04922901 	ldreq	r2, [r2], #2305	; 0x901
     cb0:	03770000 	cmneq	r7, #0
     cb4:	76110000 	ldrvc	r0, [r1], -r0
     cb8:	29010061 	stmdbcs	r1, {r0, r5, r6}
     cbc:	00000037 	andeq	r0, r0, r7, lsr r0
     cc0:	00000398 	muleq	r0, r8, r3
     cc4:	0002531a 	andeq	r5, r2, sl, lsl r3
     cc8:	37290100 	strcc	r0, [r9, -r0, lsl #2]!
     ccc:	b9000000 	stmdblt	r0, {}	; <UNPREDICTABLE>
     cd0:	1f000003 	svcne	0x00000003
     cd4:	000084c8 	andeq	r8, r0, r8, asr #9
     cd8:	000004ad 	andeq	r0, r0, sp, lsr #9
     cdc:	01530116 	cmpeq	r3, r6, lsl r1
     ce0:	52011633 	andpl	r1, r1, #53477376	; 0x3300000
     ce4:	5201f303 	andpl	pc, r1, #201326592	; 0xc000000
     ce8:	03510116 	cmpeq	r1, #-2147483643	; 0x80000005
     cec:	165101f3 			; <UNDEFINED> instruction: 0x165101f3
     cf0:	f3035001 	vhadd.u8	d5, d3, d1
     cf4:	00005001 	andeq	r5, r0, r1
     cf8:	00059920 	andeq	r9, r5, r0, lsr #18
     cfc:	cc2c0100 	stfgts	f0, [ip], #-0
     d00:	10000084 	andne	r0, r0, r4, lsl #1
     d04:	01000000 	mrseq	r0, (UNDEF: 0)
     d08:	0007029c 	muleq	r7, ip, r2
     d0c:	74701100 	ldrbtvc	r1, [r0], #-256	; 0x100
     d10:	922c0100 	eorls	r0, ip, #0, 2
     d14:	da000004 	ble	d2c <__code_start__-0x72d4>
     d18:	11000003 	tstne	r0, r3
     d1c:	01006176 	tsteq	r0, r6, ror r1
     d20:	0000372c 	andeq	r3, r0, ip, lsr #14
     d24:	0003fb00 	andeq	pc, r3, r0, lsl #22
     d28:	02531a00 	subseq	r1, r3, #0, 20
     d2c:	2c010000 	stccs	0, cr0, [r1], {-0}
     d30:	00000037 	andeq	r0, r0, r7, lsr r0
     d34:	0000041c 	andeq	r0, r0, ip, lsl r4
     d38:	0084d81f 	addeq	sp, r4, pc, lsl r8
     d3c:	0004ad00 	andeq	sl, r4, r0, lsl #26
     d40:	53011600 	movwpl	r1, #5632	; 0x1600
     d44:	01163001 	tsteq	r6, r1
     d48:	01f30352 	mvnseq	r0, r2, asr r3
     d4c:	51011652 	tstpl	r1, r2, asr r6
     d50:	5101f303 	tstpl	r1, r3, lsl #6
     d54:	03500116 	cmpeq	r0, #-2147483643	; 0x80000005
     d58:	005001f3 	ldrsheq	r0, [r0], #-19	; 0xffffffed
     d5c:	04f51900 	ldrbteq	r1, [r5], #2304	; 0x900
     d60:	31010000 	mrscc	r0, (UNDEF: 1)
     d64:	000084dc 	ldrdeq	r8, [r0], -ip
     d68:	00000098 	muleq	r0, r8, r0
     d6c:	07d99c01 	ldrbeq	r9, [r9, r1, lsl #24]
     d70:	66110000 	ldrvs	r0, [r1], -r0
     d74:	92310100 	eorsls	r0, r1, #0, 2
     d78:	3d000004 	stccc	0, cr0, [r0, #-16]
     d7c:	1a000004 	bne	d94 <__code_start__-0x726c>
     d80:	000002b2 			; <UNDEFINED> instruction: 0x000002b2
     d84:	00373101 	eorseq	r3, r7, r1, lsl #2
     d88:	04820000 	streq	r0, [r2], #0
     d8c:	60120000 	andsvs	r0, r2, r0
     d90:	e9000000 	stmdb	r0, {}	; <UNPREDICTABLE>
     d94:	05000007 	streq	r0, [r0, #-7]
     d98:	00b42c03 	adcseq	r2, r4, r3, lsl #24
     d9c:	84f01000 	ldrbthi	r1, [r0], #0
     da0:	144b0000 	strbne	r0, [fp], #-0
     da4:	0c150000 	ldceq	0, cr0, [r5], {-0}
     da8:	52000085 	andpl	r0, r0, #133	; 0x85
     dac:	84000014 	strhi	r0, [r0], #-20
     db0:	16000007 	strne	r0, [r0], -r7
     db4:	08025301 	stmdaeq	r2, {r0, r8, r9, ip, lr}
     db8:	52011632 	andpl	r1, r1, #52428800	; 0x3200000
     dbc:	b42c0305 	strtlt	r0, [ip], #-773	; 0x305
     dc0:	01160000 	tsteq	r6, r0
     dc4:	e0030551 	and	r0, r3, r1, asr r5
     dc8:	160000b4 			; <UNDEFINED> instruction: 0x160000b4
     dcc:	03055001 	movweq	r5, #20481	; 0x5001
     dd0:	0000b57c 	andeq	fp, r0, ip, ror r5
     dd4:	007d0216 	rsbseq	r0, sp, r6, lsl r2
     dd8:	b5b00305 	ldrlt	r0, [r0, #773]!	; 0x305
     ddc:	10000000 	andne	r0, r0, r0
     de0:	00008510 	andeq	r8, r0, r0, lsl r5
     de4:	00001468 	andeq	r1, r0, r8, ror #8
     de8:	00853410 	addeq	r3, r5, r0, lsl r4
     dec:	00144b00 	andseq	r4, r4, r0, lsl #22
     df0:	85501500 	ldrbhi	r1, [r0, #-1280]	; 0x500
     df4:	14520000 	ldrbne	r0, [r2], #-0
     df8:	07cf0000 	strbeq	r0, [pc, r0]
     dfc:	01160000 	tsteq	r6, r0
     e00:	37080253 	smlsdcc	r8, r3, r2, r0
     e04:	05520116 	ldrbeq	r0, [r2, #-278]	; 0x116
     e08:	00b42c03 	adcseq	r2, r4, r3, lsl #24
     e0c:	51011600 	tstpl	r1, r0, lsl #12
     e10:	b4e00305 	strbtlt	r0, [r0], #773	; 0x305
     e14:	01160000 	tsteq	r6, r0
     e18:	38030550 	stmdacc	r3, {r4, r6, r8, sl}
     e1c:	160000b3 			; <UNDEFINED> instruction: 0x160000b3
     e20:	05007d02 	streq	r7, [r0, #-3330]	; 0xd02
     e24:	00b5dc03 	adcseq	sp, r5, r3, lsl #24
     e28:	54100000 	ldrpl	r0, [r0], #-0
     e2c:	68000085 	stmdavs	r0, {r0, r2, r7}
     e30:	00000014 	andeq	r0, r0, r4, lsl r0
     e34:	00008a17 	andeq	r8, r0, r7, lsl sl
     e38:	0007e900 	andeq	lr, r7, r0, lsl #18
     e3c:	00811800 	addeq	r1, r1, r0, lsl #16
     e40:	00110000 	andseq	r0, r1, r0
     e44:	0007d907 	andeq	sp, r7, r7, lsl #18
     e48:	03a60f00 			; <UNDEFINED> instruction: 0x03a60f00
     e4c:	41010000 	mrsmi	r0, (UNDEF: 1)
     e50:	00000492 	muleq	r0, r2, r4
     e54:	00008574 	andeq	r8, r0, r4, ror r5
     e58:	00000194 	muleq	r0, r4, r1
     e5c:	0a0c9c01 	beq	327e68 <__bss_end__+0x31b440>
     e60:	70110000 	andsvc	r0, r1, r0
     e64:	41010074 	tstmi	r1, r4, ror r0
     e68:	00000492 	muleq	r0, r2, r4
     e6c:	000004c7 	andeq	r0, r0, r7, asr #9
     e70:	00617611 	rsbeq	r7, r1, r1, lsl r6
     e74:	00684101 	rsbeq	r4, r8, r1, lsl #2
     e78:	054b0000 	strbeq	r0, [fp, #-0]
     e7c:	70110000 	andsvc	r0, r1, r0
     e80:	41010061 	tstmi	r1, r1, rrx
     e84:	00000068 	andeq	r0, r0, r8, rrx
     e88:	000005d0 	ldrdeq	r0, [r0], -r0	; <UNPREDICTABLE>
     e8c:	6d6f6411 	cfstrdvs	mvd6, [pc, #-68]!	; e50 <__code_start__-0x71b0>
     e90:	68410100 	stmdavs	r1, {r8}^
     e94:	54000000 	strpl	r0, [r0], #-0
     e98:	12000006 	andne	r0, r0, #6
     e9c:	00000060 	andeq	r0, r0, r0, rrx
     ea0:	00000a1c 	andeq	r0, r0, ip, lsl sl
     ea4:	b41c0305 	ldrlt	r0, [ip], #-773	; 0x305
     ea8:	80130000 	andshi	r0, r3, r0
     eac:	01000004 	tsteq	r0, r4
     eb0:	00003746 	andeq	r3, r0, r6, asr #14
     eb4:	0006c200 	andeq	ip, r6, r0, lsl #4
     eb8:	74701400 	ldrbtvc	r1, [r0], #-1024	; 0x400
     ebc:	47010065 	strmi	r0, [r1, -r5, rrx]
     ec0:	00000492 	muleq	r0, r2, r4
     ec4:	000006e5 	andeq	r0, r0, r5, ror #13
     ec8:	00859410 	addeq	r9, r5, r0, lsl r4
     ecc:	00144b00 	andseq	r4, r4, r0, lsl #22
     ed0:	85b01500 	ldrhi	r1, [r0, #1280]!	; 0x500
     ed4:	14520000 	ldrbne	r0, [r2], #-0
     ed8:	08af0000 	stmiaeq	pc!, {}	; <UNPREDICTABLE>
     edc:	01160000 	tsteq	r6, r0
     ee0:	42080253 	andmi	r0, r8, #805306373	; 0x30000005
     ee4:	05520116 	ldrbeq	r0, [r2, #-278]	; 0x116
     ee8:	00b41c03 	adcseq	r1, r4, r3, lsl #24
     eec:	51011600 	tstpl	r1, r0, lsl #12
     ef0:	b4e00305 	strbtlt	r0, [r0], #773	; 0x305
     ef4:	01160000 	tsteq	r6, r0
     ef8:	38030550 	stmdacc	r3, {r4, r6, r8, sl}
     efc:	160000b3 			; <UNDEFINED> instruction: 0x160000b3
     f00:	05007d02 	streq	r7, [r0, #-3330]	; 0xd02
     f04:	00b60003 	adcseq	r0, r6, r3
     f08:	b4100000 	ldrlt	r0, [r0], #-0
     f0c:	68000085 	stmdavs	r0, {r0, r2, r7}
     f10:	10000014 	andne	r0, r0, r4, lsl r0
     f14:	000085c0 	andeq	r8, r0, r0, asr #11
     f18:	0000144b 	andeq	r1, r0, fp, asr #8
     f1c:	0085dc15 	addeq	sp, r5, r5, lsl ip
     f20:	00145200 	andseq	r5, r4, r0, lsl #4
     f24:	0008fa00 	andeq	pc, r8, r0, lsl #20
     f28:	53011600 	movwpl	r1, #5632	; 0x1600
     f2c:	16430802 	strbne	r0, [r3], -r2, lsl #16
     f30:	03055201 	movweq	r5, #20993	; 0x5201
     f34:	0000b41c 	andeq	fp, r0, ip, lsl r4
     f38:	05510116 	ldrbeq	r0, [r1, #-278]	; 0x116
     f3c:	00b4e003 	adcseq	lr, r4, r3
     f40:	50011600 	andpl	r1, r1, r0, lsl #12
     f44:	b3380305 	teqlt	r8, #335544320	; 0x14000000
     f48:	02160000 	andseq	r0, r6, #0
     f4c:	0305007d 	movweq	r0, #20605	; 0x507d
     f50:	0000b4e8 	andeq	fp, r0, r8, ror #9
     f54:	85e01000 	strbhi	r1, [r0, #0]!
     f58:	14680000 	strbtne	r0, [r8], #-0
     f5c:	ec100000 	ldc	0, cr0, [r0], {-0}
     f60:	4b000085 	blmi	117c <__code_start__-0x6e84>
     f64:	15000014 	strne	r0, [r0, #-20]
     f68:	00008608 	andeq	r8, r0, r8, lsl #12
     f6c:	00001452 	andeq	r1, r0, r2, asr r4
     f70:	00000945 	andeq	r0, r0, r5, asr #18
     f74:	02530116 	subseq	r0, r3, #-2147483643	; 0x80000005
     f78:	01164408 	tsteq	r6, r8, lsl #8
     f7c:	1c030552 	cfstr32ne	mvfx0, [r3], {82}	; 0x52
     f80:	160000b4 			; <UNDEFINED> instruction: 0x160000b4
     f84:	03055101 	movweq	r5, #20737	; 0x5101
     f88:	0000b4e0 	andeq	fp, r0, r0, ror #9
     f8c:	05500116 	ldrbeq	r0, [r0, #-278]	; 0x116
     f90:	00b33803 	adcseq	r3, r3, r3, lsl #16
     f94:	7d021600 	stcvc	6, cr1, [r2, #-0]
     f98:	0c030500 	cfstr32eq	mvfx0, [r3], {-0}
     f9c:	000000b6 	strheq	r0, [r0], -r6
     fa0:	00860c10 	addeq	r0, r6, r0, lsl ip
     fa4:	00146800 	andseq	r6, r4, r0, lsl #16
     fa8:	86281000 	strthi	r1, [r8], -r0
     fac:	144b0000 	strbne	r0, [fp], #-0
     fb0:	44150000 	ldrmi	r0, [r5], #-0
     fb4:	52000086 	andpl	r0, r0, #134	; 0x86
     fb8:	90000014 	andls	r0, r0, r4, lsl r0
     fbc:	16000009 	strne	r0, [r0], -r9
     fc0:	08025301 	stmdaeq	r2, {r0, r8, r9, ip, lr}
     fc4:	52011648 	andpl	r1, r1, #72, 12	; 0x4800000
     fc8:	b41c0305 	ldrlt	r0, [ip], #-773	; 0x305
     fcc:	01160000 	tsteq	r6, r0
     fd0:	e0030551 	and	r0, r3, r1, asr r5
     fd4:	160000b4 			; <UNDEFINED> instruction: 0x160000b4
     fd8:	03055001 	movweq	r5, #20481	; 0x5001
     fdc:	0000b620 	andeq	fp, r0, r0, lsr #12
     fe0:	007d0216 	rsbseq	r0, sp, r6, lsl r2
     fe4:	b64c0305 	strblt	r0, [ip], -r5, lsl #6
     fe8:	10000000 	andne	r0, r0, r0
     fec:	00008648 	andeq	r8, r0, r8, asr #12
     ff0:	00001468 	andeq	r1, r0, r8, ror #8
     ff4:	00864c10 	addeq	r4, r6, r0, lsl ip
     ff8:	00147600 	andseq	r7, r4, r0, lsl #12
     ffc:	86981500 	ldrhi	r1, [r8], r0, lsl #10
    1000:	07020000 	streq	r0, [r2, -r0]
    1004:	09bc0000 	ldmibeq	ip!, {}	; <UNPREDICTABLE>
    1008:	01160000 	tsteq	r6, r0
    100c:	00790251 	rsbseq	r0, r9, r1, asr r2
    1010:	02500116 	subseq	r0, r0, #-2147483643	; 0x80000005
    1014:	15000075 	strne	r0, [r0, #-117]	; 0x75
    1018:	000086b0 			; <UNDEFINED> instruction: 0x000086b0
    101c:	00001481 	andeq	r1, r0, r1, lsl #9
    1020:	000009d0 	ldrdeq	r0, [r0], -r0	; <UNPREDICTABLE>
    1024:	02500116 	subseq	r0, r0, #-2147483643	; 0x80000005
    1028:	15000075 	strne	r0, [r0, #-117]	; 0x75
    102c:	000086c0 	andeq	r8, r0, r0, asr #13
    1030:	00001452 	andeq	r1, r0, r2, asr r4
    1034:	000009ed 	andeq	r0, r0, sp, ror #19
    1038:	02510116 	subseq	r0, r1, #-2147483643	; 0x80000005
    103c:	01160074 	tsteq	r6, r4, ror r0
    1040:	58030550 	stmdapl	r3, {r4, r6, r8, sl}
    1044:	000000b6 	strheq	r0, [r0], -r6
    1048:	0086d01f 	addeq	sp, r6, pc, lsl r0
    104c:	00149200 	andseq	r9, r4, r0, lsl #4
    1050:	52011600 	andpl	r1, r1, #0, 12
    1054:	01163401 	tsteq	r6, r1, lsl #8
    1058:	00750251 	rsbseq	r0, r5, r1, asr r2
    105c:	05500116 	ldrbeq	r0, [r0, #-278]	; 0x116
    1060:	00b66c03 	adcseq	r6, r6, r3, lsl #24
    1064:	17000000 	strne	r0, [r0, -r0]
    1068:	0000008a 	andeq	r0, r0, sl, lsl #1
    106c:	00000a1c 	andeq	r0, r0, ip, lsl sl
    1070:	00008118 	andeq	r8, r0, r8, lsl r1
    1074:	07000f00 	streq	r0, [r0, -r0, lsl #30]
    1078:	00000a0c 	andeq	r0, r0, ip, lsl #20
    107c:	00053c20 	andeq	r3, r5, r0, lsr #24
    1080:	085f0100 	ldmdaeq	pc, {r8}^	; <UNPREDICTABLE>
    1084:	f0000087 			; <UNDEFINED> instruction: 0xf0000087
    1088:	01000000 	mrseq	r0, (UNDEF: 0)
    108c:	000ba79c 	muleq	fp, ip, r7
    1090:	74701100 	ldrbtvc	r1, [r0], #-256	; 0x100
    1094:	925f0100 	subsls	r0, pc, #0, 2
    1098:	03000004 	movweq	r0, #4
    109c:	11000007 	tstne	r0, r7
    10a0:	01006176 	tsteq	r0, r6, ror r1
    10a4:	0000375f 	andeq	r3, r0, pc, asr r7
    10a8:	00077100 	andeq	r7, r7, r0, lsl #2
    10ac:	61701100 	cmnvs	r0, r0, lsl #2
    10b0:	375f0100 	ldrbcc	r0, [pc, -r0, lsl #2]
    10b4:	d1000000 	mrsle	r0, (UNDEF: 0)
    10b8:	1a000007 	bne	10dc <__code_start__-0x6f24>
    10bc:	00000253 	andeq	r0, r0, r3, asr r2
    10c0:	00375f01 	eorseq	r5, r7, r1, lsl #30
    10c4:	08310000 	ldmdaeq	r1!, {}	; <UNPREDICTABLE>
    10c8:	64210000 	strtvs	r0, [r1], #-0
    10cc:	01006d6f 	tsteq	r0, pc, ror #26
    10d0:	0000685f 	andeq	r6, r0, pc, asr r8
    10d4:	00910200 	addseq	r0, r1, r0, lsl #4
    10d8:	00006012 	andeq	r6, r0, r2, lsl r0
    10dc:	000bb700 	andeq	fp, fp, r0, lsl #14
    10e0:	40030500 	andmi	r0, r3, r0, lsl #10
    10e4:	1d0000b4 	stcne	0, cr0, [r0, #-720]	; 0xfffffd30
    10e8:	00000030 	andeq	r0, r0, r0, lsr r0
    10ec:	00000ac5 	andeq	r0, r0, r5, asr #21
    10f0:	01006914 	tsteq	r0, r4, lsl r9
    10f4:	00003763 	andeq	r3, r0, r3, ror #14
    10f8:	00089f00 	andeq	r9, r8, r0, lsl #30
    10fc:	87bc1f00 	ldrhi	r1, [ip, r0, lsl #30]!
    1100:	07ee0000 	strbeq	r0, [lr, r0]!
    1104:	01160000 	tsteq	r6, r0
    1108:	00780253 	rsbseq	r0, r8, r3, asr r2
    110c:	02520116 	subseq	r0, r2, #-2147483643	; 0x80000005
    1110:	01160076 	tsteq	r6, r6, ror r0
    1114:	00750251 	rsbseq	r0, r5, r1, asr r2
    1118:	02500116 	subseq	r0, r0, #-2147483643	; 0x80000005
    111c:	00000079 	andeq	r0, r0, r9, ror r0
    1120:	00873010 	addeq	r3, r7, r0, lsl r0
    1124:	00144b00 	andseq	r4, r4, r0, lsl #22
    1128:	874c1500 	strbhi	r1, [ip, -r0, lsl #10]
    112c:	14520000 	ldrbne	r0, [r2], #-0
    1130:	0b070000 	bleq	1c1138 <__bss_end__+0x1b4710>
    1134:	01160000 	tsteq	r6, r0
    1138:	60080253 	andvs	r0, r8, r3, asr r2
    113c:	05520116 	ldrbeq	r0, [r2, #-278]	; 0x116
    1140:	00b44003 	adcseq	r4, r4, r3
    1144:	51011600 	tstpl	r1, r0, lsl #12
    1148:	b4e00305 	strbtlt	r0, [r0], #773	; 0x305
    114c:	01160000 	tsteq	r6, r0
    1150:	38030550 	stmdacc	r3, {r4, r6, r8, sl}
    1154:	160000b3 			; <UNDEFINED> instruction: 0x160000b3
    1158:	05007d02 	streq	r7, [r0, #-3330]	; 0xd02
    115c:	00b60003 	adcseq	r0, r6, r3
    1160:	50100000 	andspl	r0, r0, r0
    1164:	68000087 	stmdavs	r0, {r0, r1, r2, r7}
    1168:	10000014 	andne	r0, r0, r4, lsl r0
    116c:	0000875c 	andeq	r8, r0, ip, asr r7
    1170:	0000144b 	andeq	r1, r0, fp, asr #8
    1174:	00877815 	addeq	r7, r7, r5, lsl r8
    1178:	00145200 	andseq	r5, r4, r0, lsl #4
    117c:	000b5200 	andeq	r5, fp, r0, lsl #4
    1180:	53011600 	movwpl	r1, #5632	; 0x1600
    1184:	16610802 	strbtne	r0, [r1], -r2, lsl #16
    1188:	03055201 	movweq	r5, #20993	; 0x5201
    118c:	0000b440 	andeq	fp, r0, r0, asr #8
    1190:	05510116 	ldrbeq	r0, [r1, #-278]	; 0x116
    1194:	00b4e003 	adcseq	lr, r4, r3
    1198:	50011600 	andpl	r1, r1, r0, lsl #12
    119c:	b3380305 	teqlt	r8, #335544320	; 0x14000000
    11a0:	02160000 	andseq	r0, r6, #0
    11a4:	0305007d 	movweq	r0, #20605	; 0x507d
    11a8:	0000b4e8 	andeq	fp, r0, r8, ror #9
    11ac:	877c1000 	ldrbhi	r1, [ip, -r0]!
    11b0:	14680000 	strbtne	r0, [r8], #-0
    11b4:	88100000 	ldmdahi	r0, {}	; <UNPREDICTABLE>
    11b8:	4b000087 	blmi	13dc <__code_start__-0x6c24>
    11bc:	15000014 	strne	r0, [r0, #-20]
    11c0:	000087a4 	andeq	r8, r0, r4, lsr #15
    11c4:	00001452 	andeq	r1, r0, r2, asr r4
    11c8:	00000b9d 	muleq	r0, sp, fp
    11cc:	02530116 	subseq	r0, r3, #-2147483643	; 0x80000005
    11d0:	01166208 	tsteq	r6, r8, lsl #4
    11d4:	40030552 	andmi	r0, r3, r2, asr r5
    11d8:	160000b4 			; <UNDEFINED> instruction: 0x160000b4
    11dc:	03055101 	movweq	r5, #20737	; 0x5101
    11e0:	0000b4e0 	andeq	fp, r0, r0, ror #9
    11e4:	05500116 	ldrbeq	r0, [r0, #-278]	; 0x116
    11e8:	00b33803 	adcseq	r3, r3, r3, lsl #16
    11ec:	7d021600 	stcvc	6, cr1, [r2, #-0]
    11f0:	0c030500 	cfstr32eq	mvfx0, [r3], {-0}
    11f4:	000000b6 	strheq	r0, [r0], -r6
    11f8:	0087a810 	addeq	sl, r7, r0, lsl r8
    11fc:	00146800 	andseq	r6, r4, r0, lsl #16
    1200:	8a170000 	bhi	5c1208 <__bss_end__+0x5b47e0>
    1204:	b7000000 	strlt	r0, [r0, -r0]
    1208:	1800000b 	stmdane	r0, {r0, r1, r3}
    120c:	00000081 	andeq	r0, r0, r1, lsl #1
    1210:	a7070010 	smladge	r7, r0, r0, r0
    1214:	0f00000b 	svceq	0x0000000b
    1218:	00000445 	andeq	r0, r0, r5, asr #8
    121c:	04926a01 	ldreq	r6, [r2], #2561	; 0xa01
    1220:	87f80000 	ldrbhi	r0, [r8, r0]!
    1224:	00940000 	addseq	r0, r4, r0
    1228:	9c010000 	stcls	0, cr0, [r1], {-0}
    122c:	00000cc8 	andeq	r0, r0, r8, asr #25
    1230:	0002b21a 	andeq	fp, r2, sl, lsl r2
    1234:	886a0100 	stmdahi	sl!, {r8}^
    1238:	bd000000 	stclt	0, cr0, [r0, #-0]
    123c:	1a000008 	bne	1264 <__code_start__-0x6d9c>
    1240:	000003eb 	andeq	r0, r0, fp, ror #7
    1244:	00376a01 	eorseq	r6, r7, r1, lsl #20
    1248:	09120000 	ldmdbeq	r2, {}	; <UNPREDICTABLE>
    124c:	60120000 	andsvs	r0, r2, r0
    1250:	c8000000 	stmdagt	r0, {}	; <UNPREDICTABLE>
    1254:	0500000c 	streq	r0, [r0, #-12]
    1258:	00b45403 	adcseq	r5, r4, r3, lsl #8
    125c:	74701400 	ldrbtvc	r1, [r0], #-1024	; 0x400
    1260:	926c0100 	rsbls	r0, ip, #0, 2
    1264:	65000004 	strvs	r0, [r0, #-4]
    1268:	22000009 	andcs	r0, r0, #9
    126c:	6e01006e 	cdpvs	0, 0, cr0, cr1, cr14, {3}
    1270:	00000037 	andeq	r0, r0, r7, lsr r0
    1274:	10104000 	andsne	r4, r0, r0
    1278:	4b000088 	blmi	14a0 <__code_start__-0x6b60>
    127c:	15000014 	strne	r0, [r0, #-20]
    1280:	0000882c 	andeq	r8, r0, ip, lsr #16
    1284:	00001452 	andeq	r1, r0, r2, asr r4
    1288:	00000c5d 	andeq	r0, r0, sp, asr ip
    128c:	02530116 	subseq	r0, r3, #-2147483643	; 0x80000005
    1290:	01166b08 	tsteq	r6, r8, lsl #22
    1294:	54030552 	strpl	r0, [r3], #-1362	; 0x552
    1298:	160000b4 			; <UNDEFINED> instruction: 0x160000b4
    129c:	03055101 	movweq	r5, #20737	; 0x5101
    12a0:	0000b4e0 	andeq	fp, r0, r0, ror #9
    12a4:	05500116 	ldrbeq	r0, [r0, #-278]	; 0x116
    12a8:	00b67803 	adcseq	r7, r6, r3, lsl #16
    12ac:	7d021600 	stcvc	6, cr1, [r2, #-0]
    12b0:	b0030500 	andlt	r0, r3, r0, lsl #10
    12b4:	000000b6 	strheq	r0, [r0], -r6
    12b8:	00883010 	addeq	r3, r8, r0, lsl r0
    12bc:	00146800 	andseq	r6, r4, r0, lsl #16
    12c0:	883c1000 	ldmdahi	ip!, {ip}
    12c4:	144b0000 	strbne	r0, [fp], #-0
    12c8:	58150000 	ldmdapl	r5, {}	; <UNPREDICTABLE>
    12cc:	52000088 	andpl	r0, r0, #136	; 0x88
    12d0:	a8000014 	stmdage	r0, {r2, r4}
    12d4:	1600000c 	strne	r0, [r0], -ip
    12d8:	08025301 	stmdaeq	r2, {r0, r8, r9, ip, lr}
    12dc:	5201166f 	andpl	r1, r1, #116391936	; 0x6f00000
    12e0:	b4540305 	ldrblt	r0, [r4], #-773	; 0x305
    12e4:	01160000 	tsteq	r6, r0
    12e8:	e0030551 	and	r0, r3, r1, asr r5
    12ec:	160000b4 			; <UNDEFINED> instruction: 0x160000b4
    12f0:	03055001 	movweq	r5, #20481	; 0x5001
    12f4:	0000b6f0 	strdeq	fp, [r0], -r0
    12f8:	007d0216 	rsbseq	r0, sp, r6, lsl r2
    12fc:	b72c0305 	strlt	r0, [ip, -r5, lsl #6]!
    1300:	10000000 	andne	r0, r0, r0
    1304:	0000885c 	andeq	r8, r0, ip, asr r8
    1308:	00001468 	andeq	r1, r0, r8, ror #8
    130c:	0088681f 	addeq	r6, r8, pc, lsl r8
    1310:	0014b400 	andseq	fp, r4, r0, lsl #8
    1314:	52011600 	andpl	r1, r1, #0, 12
    1318:	40000a03 	andmi	r0, r0, r3, lsl #20
    131c:	01510116 	cmpeq	r1, r6, lsl r1
    1320:	07000030 	smladxeq	r0, r0, r0, r0
    1324:	00000a0c 	andeq	r0, r0, ip, lsl #20
    1328:	0003660f 	andeq	r6, r3, pc, lsl #12
    132c:	92750100 	rsbsls	r0, r5, #0, 2
    1330:	8c000004 	stchi	0, cr0, [r0], {4}
    1334:	90000088 	andls	r0, r0, r8, lsl #1
    1338:	01000000 	mrseq	r0, (UNDEF: 0)
    133c:	000dda9c 	muleq	sp, ip, sl
    1340:	006e1100 	rsbeq	r1, lr, r0, lsl #2
    1344:	00377501 	eorseq	r7, r7, r1, lsl #10
    1348:	09a40000 	stmibeq	r4!, {}	; <UNPREDICTABLE>
    134c:	60120000 	andsvs	r0, r2, r0
    1350:	ea000000 	b	1358 <__code_start__-0x6ca8>
    1354:	0500000d 	streq	r0, [r0, #-13]
    1358:	00b46403 	adcseq	r6, r4, r3, lsl #8
    135c:	03eb2300 	mvneq	r2, #0, 6
    1360:	77010000 	strvc	r0, [r1, -r0]
    1364:	00000037 	andeq	r0, r0, r7, lsr r0
    1368:	70144000 	andsvc	r4, r4, r0
    136c:	7a010074 	bvc	41544 <__bss_end__+0x34b1c>
    1370:	00000492 	muleq	r0, r2, r4
    1374:	000009de 	ldrdeq	r0, [r0], -lr
    1378:	0088a010 	addeq	sl, r8, r0, lsl r0
    137c:	00144b00 	andseq	r4, r4, r0, lsl #22
    1380:	88bc1500 	ldmhi	ip!, {r8, sl, ip}
    1384:	14520000 	ldrbne	r0, [r2], #-0
    1388:	0d5f0000 	ldcleq	0, cr0, [pc, #-0]	; 1390 <__code_start__-0x6c70>
    138c:	01160000 	tsteq	r6, r0
    1390:	76080253 			; <UNDEFINED> instruction: 0x76080253
    1394:	05520116 	ldrbeq	r0, [r2, #-278]	; 0x116
    1398:	00b46403 	adcseq	r6, r4, r3, lsl #8
    139c:	51011600 	tstpl	r1, r0, lsl #12
    13a0:	b4e00305 	strbtlt	r0, [r0], #773	; 0x305
    13a4:	01160000 	tsteq	r6, r0
    13a8:	38030550 	stmdacc	r3, {r4, r6, r8, sl}
    13ac:	160000b7 			; <UNDEFINED> instruction: 0x160000b7
    13b0:	05007d02 	streq	r7, [r0, #-3330]	; 0xd02
    13b4:	00b79003 	adcseq	r9, r7, r3
    13b8:	c0100000 	andsgt	r0, r0, r0
    13bc:	68000088 	stmdavs	r0, {r3, r7}
    13c0:	15000014 	strne	r0, [r0, #-20]
    13c4:	000088c8 	andeq	r8, r0, r8, asr #17
    13c8:	000014d3 	ldrdeq	r1, [r0], -r3
    13cc:	00000d7d 	andeq	r0, r0, sp, ror sp
    13d0:	03510116 	cmpeq	r1, #-2147483643	; 0x80000005
    13d4:	0040000a 	subeq	r0, r0, sl
    13d8:	0088d410 	addeq	sp, r8, r0, lsl r4
    13dc:	00144b00 	andseq	r4, r4, r0, lsl #22
    13e0:	88f01500 	ldmhi	r0!, {r8, sl, ip}^
    13e4:	14520000 	ldrbne	r0, [r2], #-0
    13e8:	0dbf0000 	ldceq	0, cr0, [pc]	; 13f0 <__code_start__-0x6c10>
    13ec:	01160000 	tsteq	r6, r0
    13f0:	7b080253 	blvc	201d44 <__bss_end__+0x1f531c>
    13f4:	05520116 	ldrbeq	r0, [r2, #-278]	; 0x116
    13f8:	00b46403 	adcseq	r6, r4, r3, lsl #8
    13fc:	51011600 	tstpl	r1, r0, lsl #12
    1400:	b4e00305 	strbtlt	r0, [r0], #773	; 0x305
    1404:	01160000 	tsteq	r6, r0
    1408:	78030550 	stmdavc	r3, {r4, r6, r8, sl}
    140c:	160000b6 			; <UNDEFINED> instruction: 0x160000b6
    1410:	05007d02 	streq	r7, [r0, #-3330]	; 0xd02
    1414:	00b79c03 	adcseq	r9, r7, r3, lsl #24
    1418:	f4100000 			; <UNDEFINED> instruction: 0xf4100000
    141c:	68000088 	stmdavs	r0, {r3, r7}
    1420:	1f000014 	svcne	0x00000014
    1424:	000088fc 	strdeq	r8, [r0], -ip
    1428:	00000bbc 			; <UNDEFINED> instruction: 0x00000bbc
    142c:	03510116 	cmpeq	r1, #-2147483643	; 0x80000005
    1430:	0040000a 	subeq	r0, r0, sl
    1434:	008a1700 	addeq	r1, sl, r0, lsl #14
    1438:	0dea0000 	stcleq	0, cr0, [sl]
    143c:	81180000 	tsthi	r8, r0
    1440:	0c000000 	stceq	0, cr0, [r0], {-0}
    1444:	0dda0700 	ldcleq	7, cr0, [sl]
    1448:	3c200000 	stccc	0, cr0, [r0], #-0
    144c:	01000004 	tsteq	r0, r4
    1450:	00891c86 	addeq	r1, r9, r6, lsl #25
    1454:	00009000 	andeq	r9, r0, r0
    1458:	dc9c0100 	ldfles	f0, [ip], {0}
    145c:	1400000e 	strne	r0, [r0], #-14
    1460:	01003163 	tsteq	r0, r3, ror #2
    1464:	00009c89 	andeq	r9, r0, r9, lsl #25
    1468:	0009fc00 	andeq	pc, r9, r0, lsl #24
    146c:	00601200 	rsbeq	r1, r0, r0, lsl #4
    1470:	0eec0000 	cdpeq	0, 14, cr0, cr12, cr0, {0}
    1474:	03050000 	movweq	r0, #20480	; 0x5000
    1478:	0000b474 	andeq	fp, r0, r4, ror r4
    147c:	00892810 	addeq	r2, r9, r0, lsl r8
    1480:	0014ed00 	andseq	lr, r4, r0, lsl #26
    1484:	892c1000 	stmdbhi	ip!, {ip}
    1488:	14400000 	strbne	r0, [r0], #-0
    148c:	34100000 	ldrcc	r0, [r0], #-0
    1490:	f4000089 	vst4.32	{d0-d3}, [r0], r9
    1494:	10000014 	andne	r0, r0, r4, lsl r0
    1498:	00008938 	andeq	r8, r0, r8, lsr r9
    149c:	00001440 	andeq	r1, r0, r0, asr #8
    14a0:	00894410 	addeq	r4, r9, r0, lsl r4
    14a4:	00144b00 	andseq	r4, r4, r0, lsl #22
    14a8:	89601500 	stmdbhi	r0!, {r8, sl, ip}^
    14ac:	14520000 	ldrbne	r0, [r2], #-0
    14b0:	0e870000 	cdpeq	0, 8, cr0, cr7, cr0, {0}
    14b4:	01160000 	tsteq	r6, r0
    14b8:	8e080253 	mcrhi	2, 0, r0, cr8, cr3, {2}
    14bc:	05520116 	ldrbeq	r0, [r2, #-278]	; 0x116
    14c0:	00b47403 	adcseq	r7, r4, r3, lsl #8
    14c4:	51011600 	tstpl	r1, r0, lsl #12
    14c8:	b4e00305 	strbtlt	r0, [r0], #773	; 0x305
    14cc:	01160000 	tsteq	r6, r0
    14d0:	38030550 	stmdacc	r3, {r4, r6, r8, sl}
    14d4:	160000b3 			; <UNDEFINED> instruction: 0x160000b3
    14d8:	05007d02 	streq	r7, [r0, #-3330]	; 0xd02
    14dc:	00b7d803 	adcseq	sp, r7, r3, lsl #16
    14e0:	64100000 	ldrvs	r0, [r0], #-0
    14e4:	68000089 	stmdavs	r0, {r0, r3, r7}
    14e8:	10000014 	andne	r0, r0, r4, lsl r0
    14ec:	00008970 	andeq	r8, r0, r0, ror r9
    14f0:	0000144b 	andeq	r1, r0, fp, asr #8
    14f4:	00898c15 	addeq	r8, r9, r5, lsl ip
    14f8:	00145200 	andseq	r5, r4, r0, lsl #4
    14fc:	000ed200 	andeq	sp, lr, r0, lsl #4
    1500:	53011600 	movwpl	r1, #5632	; 0x1600
    1504:	168f0802 	strne	r0, [pc], r2, lsl #16
    1508:	03055201 	movweq	r5, #20993	; 0x5201
    150c:	0000b474 	andeq	fp, r0, r4, ror r4
    1510:	05510116 	ldrbeq	r0, [r1, #-278]	; 0x116
    1514:	00b4e003 	adcseq	lr, r4, r3
    1518:	50011600 	andpl	r1, r1, r0, lsl #12
    151c:	b3380305 	teqlt	r8, #335544320	; 0x14000000
    1520:	02160000 	andseq	r0, r6, #0
    1524:	0305007d 	movweq	r0, #20605	; 0x507d
    1528:	0000b7e4 	andeq	fp, r0, r4, ror #15
    152c:	89901000 	ldmibhi	r0, {ip}
    1530:	14680000 	strbtne	r0, [r8], #-0
    1534:	17000000 	strne	r0, [r0, -r0]
    1538:	0000008a 	andeq	r0, r0, sl, lsl #1
    153c:	00000eec 	andeq	r0, r0, ip, ror #29
    1540:	00008118 	andeq	r8, r0, r8, lsl r1
    1544:	07000800 	streq	r0, [r0, -r0, lsl #16]
    1548:	00000edc 	ldrdeq	r0, [r0], -ip
    154c:	00050720 	andeq	r0, r5, r0, lsr #14
    1550:	ac920100 	ldfges	f0, [r2], {0}
    1554:	0c000089 	stceq	0, cr0, [r0], {137}	; 0x89
    1558:	01000000 	mrseq	r0, (UNDEF: 0)
    155c:	000f109c 	muleq	pc, ip, r0	; <UNPREDICTABLE>
    1560:	89b41000 	ldmibhi	r4!, {ip}
    1564:	15050000 	strne	r0, [r5, #-0]
    1568:	20000000 	andcs	r0, r0, r0
    156c:	000002df 	ldrdeq	r0, [r0], -pc	; <UNPREDICTABLE>
    1570:	89b89701 	ldmibhi	r8!, {r0, r8, r9, sl, ip, pc}
    1574:	00800000 	addeq	r0, r0, r0
    1578:	9c010000 	stcls	0, cr0, [r1], {-0}
    157c:	00000fe1 	andeq	r0, r0, r1, ror #31
    1580:	01006311 	tsteq	r0, r1, lsl r3
    1584:	00025797 	muleq	r2, r7, r7
    1588:	000a2500 	andeq	r2, sl, r0, lsl #10
    158c:	00601200 	rsbeq	r1, r0, r0, lsl #4
    1590:	0fe10000 	svceq	0x00e10000
    1594:	03050000 	movweq	r0, #20480	; 0x5000
    1598:	0000b480 	andeq	fp, r0, r0, lsl #9
    159c:	0089cc10 	addeq	ip, r9, r0, lsl ip
    15a0:	00144b00 	andseq	r4, r4, r0, lsl #22
    15a4:	89e81500 	stmibhi	r8!, {r8, sl, ip}^
    15a8:	14520000 	ldrbne	r0, [r2], #-0
    15ac:	0f830000 	svceq	0x00830000
    15b0:	01160000 	tsteq	r6, r0
    15b4:	98080253 	stmdals	r8, {r0, r1, r4, r6, r9}
    15b8:	05520116 	ldrbeq	r0, [r2, #-278]	; 0x116
    15bc:	00b48003 	adcseq	r8, r4, r3
    15c0:	51011600 	tstpl	r1, r0, lsl #12
    15c4:	b4e00305 	strbtlt	r0, [r0], #773	; 0x305
    15c8:	01160000 	tsteq	r6, r0
    15cc:	38030550 	stmdacc	r3, {r4, r6, r8, sl}
    15d0:	160000b3 			; <UNDEFINED> instruction: 0x160000b3
    15d4:	05007d02 	streq	r7, [r0, #-3330]	; 0xd02
    15d8:	00b7f403 	adcseq	pc, r7, r3, lsl #8
    15dc:	ec100000 	ldc	0, cr0, [r0], {-0}
    15e0:	68000089 	stmdavs	r0, {r0, r3, r7}
    15e4:	10000014 	andne	r0, r0, r4, lsl r0
    15e8:	000089f8 	strdeq	r8, [r0], -r8	; <UNPREDICTABLE>
    15ec:	0000144b 	andeq	r1, r0, fp, asr #8
    15f0:	008a1415 	addeq	r1, sl, r5, lsl r4
    15f4:	00145200 	andseq	r5, r4, r0, lsl #4
    15f8:	000fce00 	andeq	ip, pc, r0, lsl #28
    15fc:	53011600 	movwpl	r1, #5632	; 0x1600
    1600:	16990802 	ldrne	r0, [r9], r2, lsl #16
    1604:	03055201 	movweq	r5, #20993	; 0x5201
    1608:	0000b480 	andeq	fp, r0, r0, lsl #9
    160c:	05510116 	ldrbeq	r0, [r1, #-278]	; 0x116
    1610:	00b4e003 	adcseq	lr, r4, r3
    1614:	50011600 	andpl	r1, r1, r0, lsl #12
    1618:	b3380305 	teqlt	r8, #335544320	; 0x14000000
    161c:	02160000 	andseq	r0, r6, #0
    1620:	0305007d 	movweq	r0, #20605	; 0x507d
    1624:	0000b804 	andeq	fp, r0, r4, lsl #16
    1628:	8a181000 	bhi	605630 <__bss_end__+0x5f8c08>
    162c:	14680000 	strbtne	r0, [r8], #-0
    1630:	1c100000 	ldcne	0, cr0, [r0], {-0}
    1634:	0c00008a 	stceq	0, cr0, [r0], {138}	; 0x8a
    1638:	00000015 	andeq	r0, r0, r5, lsl r0
    163c:	000a0c07 	andeq	r0, sl, r7, lsl #24
    1640:	03b62000 			; <UNDEFINED> instruction: 0x03b62000
    1644:	9c010000 	stcls	0, cr0, [r1], {-0}
    1648:	00008a38 	andeq	r8, r0, r8, lsr sl
    164c:	00000058 	andeq	r0, r0, r8, asr r0
    1650:	10759c01 	rsbsne	r9, r5, r1, lsl #24
    1654:	63140000 	tstvs	r4, #0
    1658:	579d0100 	ldrpl	r0, [sp, r0, lsl #2]
    165c:	4e000002 	cdpmi	0, 0, cr0, cr0, cr2, {0}
    1660:	1200000a 	andne	r0, r0, #10
    1664:	00000060 	andeq	r0, r0, r0, rrx
    1668:	00001085 	andeq	r1, r0, r5, lsl #1
    166c:	b4900305 	ldrlt	r0, [r0], #773	; 0x305
    1670:	44100000 	ldrmi	r0, [r0], #-0
    1674:	4000008a 	andmi	r0, r0, sl, lsl #1
    1678:	10000014 	andne	r0, r0, r4, lsl r0
    167c:	00008a50 	andeq	r8, r0, r0, asr sl
    1680:	0000144b 	andeq	r1, r0, fp, asr #8
    1684:	008a6c15 	addeq	r6, sl, r5, lsl ip
    1688:	00145200 	andseq	r5, r4, r0, lsl #4
    168c:	00106200 	andseq	r6, r0, r0, lsl #4
    1690:	53011600 	movwpl	r1, #5632	; 0x1600
    1694:	169e0802 	ldrne	r0, [lr], r2, lsl #16
    1698:	03055201 	movweq	r5, #20993	; 0x5201
    169c:	0000b490 	muleq	r0, r0, r4
    16a0:	05510116 	ldrbeq	r0, [r1, #-278]	; 0x116
    16a4:	00b4e003 	adcseq	lr, r4, r3
    16a8:	50011600 	andpl	r1, r1, r0, lsl #12
    16ac:	b3380305 	teqlt	r8, #335544320	; 0x14000000
    16b0:	02160000 	andseq	r0, r6, #0
    16b4:	0305007d 	movweq	r0, #20605	; 0x507d
    16b8:	0000b818 	andeq	fp, r0, r8, lsl r8
    16bc:	8a701000 	bhi	1c056c4 <__bss_end__+0x1bf8c9c>
    16c0:	14680000 	strbtne	r0, [r8], #-0
    16c4:	78100000 	ldmdavc	r0, {}	; <UNPREDICTABLE>
    16c8:	1000008a 	andne	r0, r0, sl, lsl #1
    16cc:	0000000f 	andeq	r0, r0, pc
    16d0:	00008a17 	andeq	r8, r0, r7, lsl sl
    16d4:	00108500 	andseq	r8, r0, r0, lsl #10
    16d8:	00811800 	addeq	r1, r1, r0, lsl #16
    16dc:	000b0000 	andeq	r0, fp, r0
    16e0:	00107507 	andseq	r7, r0, r7, lsl #10
    16e4:	02b72000 	adcseq	r2, r7, #0
    16e8:	a3010000 	movwge	r0, #4096	; 0x1000
    16ec:	00008a90 	muleq	r0, r0, sl
    16f0:	00000050 	andeq	r0, r0, r0, asr r0
    16f4:	11109c01 	tstne	r0, r1, lsl #24
    16f8:	63110000 	tstvs	r1, #0
    16fc:	57a30100 	strpl	r0, [r3, r0, lsl #2]!
    1700:	6c000002 	stcvs	0, cr0, [r0], {2}
    1704:	1200000a 	andne	r0, r0, #10
    1708:	00000060 	andeq	r0, r0, r0, rrx
    170c:	00001120 	andeq	r1, r0, r0, lsr #2
    1710:	b49c0305 	ldrlt	r0, [ip], #773	; 0x305
    1714:	a4100000 	ldrge	r0, [r0], #-0
    1718:	4b00008a 	blmi	1948 <__code_start__-0x66b8>
    171c:	15000014 	strne	r0, [r0, #-20]
    1720:	00008ac0 	andeq	r8, r0, r0, asr #21
    1724:	00001452 	andeq	r1, r0, r2, asr r4
    1728:	000010fd 	strdeq	r1, [r0], -sp
    172c:	02530116 	subseq	r0, r3, #-2147483643	; 0x80000005
    1730:	0116a408 	tsteq	r6, r8, lsl #8
    1734:	9c030552 	cfstr32ls	mvfx0, [r3], {82}	; 0x52
    1738:	160000b4 			; <UNDEFINED> instruction: 0x160000b4
    173c:	03055101 	movweq	r5, #20737	; 0x5101
    1740:	0000b4e0 	andeq	fp, r0, r0, ror #9
    1744:	05500116 	ldrbeq	r0, [r0, #-278]	; 0x116
    1748:	00b33803 	adcseq	r3, r3, r3, lsl #16
    174c:	7d021600 	stcvc	6, cr1, [r2, #-0]
    1750:	18030500 	stmdane	r3, {r8, sl}
    1754:	000000b8 	strheq	r0, [r0], -r8
    1758:	008ac410 	addeq	ip, sl, r0, lsl r4
    175c:	00146800 	andseq	r6, r4, r0, lsl #16
    1760:	8ac81000 	bhi	ff205768 <__bss_end__+0xff1f8d40>
    1764:	151d0000 	ldrne	r0, [sp, #-0]
    1768:	17000000 	strne	r0, [r0, -r0]
    176c:	0000008a 	andeq	r0, r0, sl, lsl #1
    1770:	00001120 	andeq	r1, r0, r0, lsr #2
    1774:	00008118 	andeq	r8, r0, r8, lsl r1
    1778:	07000e00 	streq	r0, [r0, -r0, lsl #28]
    177c:	00001110 	andeq	r1, r0, r0, lsl r1
    1780:	0004a720 	andeq	sl, r4, r0, lsr #14
    1784:	e0a70100 	adc	r0, r7, r0, lsl #2
    1788:	5800008a 	stmdapl	r0, {r1, r3, r7}
    178c:	01000000 	mrseq	r0, (UNDEF: 0)
    1790:	0011b49c 	mulseq	r1, ip, r4
    1794:	00631400 	rsbeq	r1, r3, r0, lsl #8
    1798:	0257a801 	subseq	sl, r7, #65536	; 0x10000
    179c:	0a8a0000 	beq	fe2817a4 <__bss_end__+0xfe274d7c>
    17a0:	60120000 	andsvs	r0, r2, r0
    17a4:	c4000000 	strgt	r0, [r0], #-0
    17a8:	05000011 	streq	r0, [r0, #-17]
    17ac:	00b4ac03 	adcseq	sl, r4, r3, lsl #24
    17b0:	8aec1000 	bhi	ffb057b8 <__bss_end__+0xffaf8d90>
    17b4:	14400000 	strbne	r0, [r0], #-0
    17b8:	f8100000 			; <UNDEFINED> instruction: 0xf8100000
    17bc:	4b00008a 	blmi	19ec <__code_start__-0x6614>
    17c0:	15000014 	strne	r0, [r0, #-20]
    17c4:	00008b14 	andeq	r8, r0, r4, lsl fp
    17c8:	00001452 	andeq	r1, r0, r2, asr r4
    17cc:	000011a1 	andeq	r1, r0, r1, lsr #3
    17d0:	02530116 	subseq	r0, r3, #-2147483643	; 0x80000005
    17d4:	0116a908 	tsteq	r6, r8, lsl #18
    17d8:	ac030552 	cfstr32ge	mvfx0, [r3], {82}	; 0x52
    17dc:	160000b4 			; <UNDEFINED> instruction: 0x160000b4
    17e0:	03055101 	movweq	r5, #20737	; 0x5101
    17e4:	0000b4e0 	andeq	fp, r0, r0, ror #9
    17e8:	05500116 	ldrbeq	r0, [r0, #-278]	; 0x116
    17ec:	00b33803 	adcseq	r3, r3, r3, lsl #16
    17f0:	7d021600 	stcvc	6, cr1, [r2, #-0]
    17f4:	f4030500 	vst3.8	{d0,d2,d4}, [r3], r0
    17f8:	000000b7 	strheq	r0, [r0], -r7
    17fc:	008b1810 	addeq	r1, fp, r0, lsl r8
    1800:	00146800 	andseq	r6, r4, r0, lsl #16
    1804:	8b201000 	blhi	80580c <__bss_end__+0x7f8de4>
    1808:	108a0000 	addne	r0, sl, r0
    180c:	17000000 	strne	r0, [r0, -r0]
    1810:	0000008a 	andeq	r0, r0, sl, lsl #1
    1814:	000011c4 	andeq	r1, r0, r4, asr #3
    1818:	00008118 	andeq	r8, r0, r8, lsl r1
    181c:	07000a00 	streq	r0, [r0, -r0, lsl #20]
    1820:	000011b4 			; <UNDEFINED> instruction: 0x000011b4
    1824:	0004dd0f 	andeq	sp, r4, pc, lsl #26
    1828:	68af0100 	stmiavs	pc!, {r8}	; <UNPREDICTABLE>
    182c:	38000000 	stmdacc	r0, {}	; <UNPREDICTABLE>
    1830:	0800008b 	stmdaeq	r0, {r0, r1, r3, r7}
    1834:	01000000 	mrseq	r0, (UNDEF: 0)
    1838:	0011ee9c 	mulseq	r1, ip, lr
    183c:	00722400 	rsbseq	r2, r2, r0, lsl #8
    1840:	0068b001 	rsbeq	fp, r8, r1
    1844:	50010000 	andpl	r0, r1, r0
    1848:	02c62000 	sbceq	r2, r6, #0
    184c:	b4010000 	strlt	r0, [r1], #-0
    1850:	00008b40 	andeq	r8, r0, r0, asr #22
    1854:	0000000c 	andeq	r0, r0, ip
    1858:	12229c01 	eorne	r9, r2, #256	; 0x100
    185c:	72110000 	andsvc	r0, r1, #0
    1860:	37b40100 	ldrcc	r0, [r4, r0, lsl #2]!
    1864:	a8000000 	stmdage	r0, {}	; <UNPREDICTABLE>
    1868:	1f00000a 	svcne	0x0000000a
    186c:	00008b48 	andeq	r8, r0, r8, asr #22
    1870:	0000152e 	andeq	r1, r0, lr, lsr #10
    1874:	03500116 	cmpeq	r0, #-2147483643	; 0x80000005
    1878:	005001f3 	ldrsheq	r0, [r0], #-19	; 0xffffffed
    187c:	027d2000 	rsbseq	r2, sp, #0
    1880:	ba010000 	blt	41888 <__bss_end__+0x34e60>
    1884:	00008b4c 	andeq	r8, r0, ip, asr #22
    1888:	000000bc 	strheq	r0, [r0], -ip
    188c:	13729c01 	cmnne	r2, #256	; 0x100
    1890:	70110000 	andsvc	r0, r1, r0
    1894:	01006469 	tsteq	r0, r9, ror #8
    1898:	000037ba 			; <UNDEFINED> instruction: 0x000037ba
    189c:	000ac900 	andeq	ip, sl, r0, lsl #18
    18a0:	01f21a00 	mvnseq	r1, r0, lsl #20
    18a4:	ba010000 	blt	418ac <__bss_end__+0x34e84>
    18a8:	00000037 	andeq	r0, r0, r7, lsr r0
    18ac:	00000b35 	andeq	r0, r0, r5, lsr fp
    18b0:	00747011 	rsbseq	r7, r4, r1, lsl r0
    18b4:	0492ba01 	ldreq	fp, [r2], #2561	; 0xa01
    18b8:	0bae0000 	bleq	feb818c0 <__bss_end__+0xfeb74e98>
    18bc:	60120000 	andsvs	r0, r2, r0
    18c0:	72000000 	andvc	r0, r0, #0
    18c4:	05000013 	streq	r0, [r0, #-19]
    18c8:	00b4b803 	adcseq	fp, r4, r3, lsl #16
    18cc:	8b601000 	blhi	18058d4 <__bss_end__+0x17f8eac>
    18d0:	144b0000 	strbne	r0, [fp], #-0
    18d4:	7c150000 	ldcvc	0, cr0, [r5], {-0}
    18d8:	5200008b 	andpl	r0, r0, #139	; 0x8b
    18dc:	b4000014 	strlt	r0, [r0], #-20
    18e0:	16000012 			; <UNDEFINED> instruction: 0x16000012
    18e4:	08025301 	stmdaeq	r2, {r0, r8, r9, ip, lr}
    18e8:	520116bb 	andpl	r1, r1, #196083712	; 0xbb00000
    18ec:	b4b80305 	ldrtlt	r0, [r8], #773	; 0x305
    18f0:	01160000 	tsteq	r6, r0
    18f4:	e0030551 	and	r0, r3, r1, asr r5
    18f8:	160000b4 			; <UNDEFINED> instruction: 0x160000b4
    18fc:	03055001 	movweq	r5, #20481	; 0x5001
    1900:	0000b338 	andeq	fp, r0, r8, lsr r3
    1904:	007d0216 	rsbseq	r0, sp, r6, lsl r2
    1908:	b8280305 	stmdalt	r8!, {r0, r2, r8, r9}
    190c:	10000000 	andne	r0, r0, r0
    1910:	00008b80 	andeq	r8, r0, r0, lsl #23
    1914:	00001468 	andeq	r1, r0, r8, ror #8
    1918:	008b8c10 	addeq	r8, fp, r0, lsl ip
    191c:	00144b00 	andseq	r4, r4, r0, lsl #22
    1920:	8ba81500 	blhi	fea06d28 <__bss_end__+0xfe9fa300>
    1924:	14520000 	ldrbne	r0, [r2], #-0
    1928:	12ff0000 	rscsne	r0, pc, #0
    192c:	01160000 	tsteq	r6, r0
    1930:	bc080253 	sfmlt	f0, 4, [r8], {83}	; 0x53
    1934:	05520116 	ldrbeq	r0, [r2, #-278]	; 0x116
    1938:	00b4b803 	adcseq	fp, r4, r3, lsl #16
    193c:	51011600 	tstpl	r1, r0, lsl #12
    1940:	b4e00305 	strbtlt	r0, [r0], #773	; 0x305
    1944:	01160000 	tsteq	r6, r0
    1948:	38030550 	stmdacc	r3, {r4, r6, r8, sl}
    194c:	160000b3 			; <UNDEFINED> instruction: 0x160000b3
    1950:	05007d02 	streq	r7, [r0, #-3330]	; 0xd02
    1954:	00b83c03 	adcseq	r3, r8, r3, lsl #24
    1958:	ac100000 	ldcge	0, cr0, [r0], {-0}
    195c:	6800008b 	stmdavs	r0, {r0, r1, r3, r7}
    1960:	10000014 	andne	r0, r0, r4, lsl r0
    1964:	00008bbc 			; <UNDEFINED> instruction: 0x00008bbc
    1968:	0000144b 	andeq	r1, r0, fp, asr #8
    196c:	008bd815 	addeq	sp, fp, r5, lsl r8
    1970:	00145200 	andseq	r5, r4, r0, lsl #4
    1974:	00134a00 	andseq	r4, r3, r0, lsl #20
    1978:	53011600 	movwpl	r1, #5632	; 0x1600
    197c:	16bd0802 	ldrtne	r0, [sp], r2, lsl #16
    1980:	03055201 	movweq	r5, #20993	; 0x5201
    1984:	0000b4b8 			; <UNDEFINED> instruction: 0x0000b4b8
    1988:	05510116 	ldrbeq	r0, [r1, #-278]	; 0x116
    198c:	00b4e003 	adcseq	lr, r4, r3
    1990:	50011600 	andpl	r1, r1, r0, lsl #12
    1994:	b3380305 	teqlt	r8, #335544320	; 0x14000000
    1998:	02160000 	andseq	r0, r6, #0
    199c:	0305007d 	movweq	r0, #20605	; 0x507d
    19a0:	0000b848 	andeq	fp, r0, r8, asr #16
    19a4:	8bdc1000 	blhi	ff7059ac <__bss_end__+0xff6f8f84>
    19a8:	14680000 	strbtne	r0, [r8], #-0
    19ac:	e81f0000 	ldmda	pc, {}	; <UNPREDICTABLE>
    19b0:	3f00008b 	svccc	0x0000008b
    19b4:	16000015 			; <UNDEFINED> instruction: 0x16000015
    19b8:	f3035101 	vrhadd.u8	d5, d3, d1
    19bc:	01165201 	tsteq	r6, r1, lsl #4
    19c0:	01f30950 	mvnseq	r0, r0, asr r9
    19c4:	f3243850 	vceq.i32	<illegal reg q1.5>, q2, q0
    19c8:	00215101 	eoreq	r5, r1, r1, lsl #2
    19cc:	0ba70700 	bleq	fe9c35d4 <__bss_end__+0xfe9b6bac>
    19d0:	93200000 	teqls	r0, #0
    19d4:	01000004 	tsteq	r0, r4
    19d8:	008c08c2 	addeq	r0, ip, r2, asr #17
    19dc:	00004800 	andeq	r4, r0, r0, lsl #16
    19e0:	049c0100 	ldreq	r0, [ip], #256	; 0x100
    19e4:	11000014 	tstne	r0, r4, lsl r0
    19e8:	0100726c 	tsteq	r0, ip, ror #4
    19ec:	000037c2 	andeq	r3, r0, r2, asr #15
    19f0:	000c1a00 	andeq	r1, ip, r0, lsl #20
    19f4:	00601200 	rsbeq	r1, r0, r0, lsl #4
    19f8:	14140000 	ldrne	r0, [r4], #-0
    19fc:	03050000 	movweq	r0, #20480	; 0x5000
    1a00:	0000b4cc 	andeq	fp, r0, ip, asr #9
    1a04:	008c1810 	addeq	r1, ip, r0, lsl r8
    1a08:	00037800 	andeq	r7, r3, r0, lsl #16
    1a0c:	8c241000 	stchi	0, cr1, [r4], #-0
    1a10:	0fe60000 	svceq	0x00e60000
    1a14:	28100000 	ldmdacs	r0, {}	; <UNPREDICTABLE>
    1a18:	4b00008c 	blmi	1c50 <__code_start__-0x63b0>
    1a1c:	15000014 	strne	r0, [r0, #-20]
    1a20:	00008c40 	andeq	r8, r0, r0, asr #24
    1a24:	00001452 	andeq	r1, r0, r2, asr r4
    1a28:	000013fa 	strdeq	r1, [r0], -sl
    1a2c:	02530116 	subseq	r0, r3, #-2147483643	; 0x80000005
    1a30:	0116c508 	tsteq	r6, r8, lsl #10
    1a34:	cc030552 	cfstr32gt	mvfx0, [r3], {82}	; 0x52
    1a38:	160000b4 			; <UNDEFINED> instruction: 0x160000b4
    1a3c:	03055101 	movweq	r5, #20737	; 0x5101
    1a40:	0000b4e0 	andeq	fp, r0, r0, ror #9
    1a44:	05500116 	ldrbeq	r0, [r0, #-278]	; 0x116
    1a48:	00b85c03 	adcseq	r5, r8, r3, lsl #24
    1a4c:	7d021600 	stcvc	6, cr1, [r2, #-0]
    1a50:	00740200 	rsbseq	r0, r4, r0, lsl #4
    1a54:	8c441000 	marhi	acc0, r1, r4
    1a58:	14680000 	strbtne	r0, [r8], #-0
    1a5c:	17000000 	strne	r0, [r0, -r0]
    1a60:	0000008a 	andeq	r0, r0, sl, lsl #1
    1a64:	00001414 	andeq	r1, r0, r4, lsl r4
    1a68:	00008118 	andeq	r8, r0, r8, lsl r1
    1a6c:	07001300 	streq	r1, [r0, -r0, lsl #6]
    1a70:	00001404 	andeq	r1, r0, r4, lsl #8
    1a74:	00059325 	andeq	r9, r5, r5, lsr #6
    1a78:	2a070100 	bcs	1c1e80 <__bss_end__+0x1b5458>
    1a7c:	05000014 	streq	r0, [r0, #-20]
    1a80:	00b3ec03 	adcseq	lr, r3, r3, lsl #24
    1a84:	00370700 	eorseq	r0, r7, r0, lsl #14
    1a88:	c0250000 	eorgt	r0, r5, r0
    1a8c:	01000008 	tsteq	r0, r8
    1a90:	00002509 	andeq	r2, r0, r9, lsl #10
    1a94:	0c030500 	cfstr32eq	mvfx0, [r3], {-0}
    1a98:	260000c6 	strcs	r0, [r0], -r6, asr #1
    1a9c:	000003c2 	andeq	r0, r0, r2, asr #7
    1aa0:	02574e05 	subseq	r4, r7, #5, 28	; 0x50
    1aa4:	d5270000 	strle	r0, [r7, #-0]!
    1aa8:	07000001 	streq	r0, [r0, -r1]
    1aac:	0a9d281e 	beq	fe74bb2c <__bss_end__+0xfe73f104>
    1ab0:	29070000 	stmdbcs	r7, {}	; <UNPREDICTABLE>
    1ab4:	00000025 	andeq	r0, r0, r5, lsr #32
    1ab8:	00001468 	andeq	r1, r0, r8, ror #8
    1abc:	00009129 	andeq	r9, r0, r9, lsr #2
    1ac0:	27002a00 	strcs	r2, [r0, -r0, lsl #20]
    1ac4:	0000004a 	andeq	r0, r0, sl, asr #32
    1ac8:	fe276507 	cdp2	5, 2, cr6, cr7, cr7, {0}
    1acc:	02000003 	andeq	r0, r0, #3
    1ad0:	035f2652 	cmpeq	pc, #85983232	; 0x5200000
    1ad4:	73060000 	movwvc	r0, #24576	; 0x6000
    1ad8:	00000338 	andeq	r0, r0, r8, lsr r3
    1adc:	0004d32b 	andeq	sp, r4, fp, lsr #6
    1ae0:	92700600 	rsbsls	r0, r0, #0, 12
    1ae4:	29000014 	stmdbcs	r0, {r2, r4}
    1ae8:	00000492 	muleq	r0, r2, r4
    1aec:	03252b00 	teqeq	r5, #0, 22
    1af0:	7a060000 	bvc	181af8 <__bss_end__+0x1750d0>
    1af4:	000014ad 	andeq	r1, r0, sp, lsr #9
    1af8:	00009129 	andeq	r9, r0, r9, lsr #2
    1afc:	14ad2900 	strtne	r2, [sp], #2304	; 0x900
    1b00:	37290000 	strcc	r0, [r9, -r0]!
    1b04:	00000000 	andeq	r0, r0, r0
    1b08:	14b30406 	ldrtne	r0, [r3], #1030	; 0x406
    1b0c:	282c0000 	stmdacs	ip!, {}	; <UNPREDICTABLE>
    1b10:	000004cc 	andeq	r0, r0, ip, asr #9
    1b14:	00881b08 	addeq	r1, r8, r8, lsl #22
    1b18:	14d30000 	ldrbne	r0, [r3], #0
    1b1c:	88290000 	stmdahi	r9!, {}	; <UNPREDICTABLE>
    1b20:	29000000 	stmdbcs	r0, {}	; <UNPREDICTABLE>
    1b24:	00000025 	andeq	r0, r0, r5, lsr #32
    1b28:	00002c29 	andeq	r2, r0, r9, lsr #24
    1b2c:	99280000 	stmdbls	r8!, {}	; <UNPREDICTABLE>
    1b30:	07000002 	streq	r0, [r0, -r2]
    1b34:	0000886d 	andeq	r8, r0, sp, ror #16
    1b38:	0014ed00 	andseq	lr, r4, r0, lsl #26
    1b3c:	00372900 	eorseq	r2, r7, r0, lsl #18
    1b40:	37290000 	strcc	r0, [r9, -r0]!
    1b44:	00000000 	andeq	r0, r0, r0
    1b48:	0001f727 	andeq	pc, r1, r7, lsr #14
    1b4c:	2b5b0200 	blcs	16c2354 <__bss_end__+0x16b592c>
    1b50:	0000033d 	andeq	r0, r0, sp, lsr r3
    1b54:	15055005 	strne	r5, [r5, #-5]
    1b58:	57290000 	strpl	r0, [r9, -r0]!
    1b5c:	00000002 	andeq	r0, r0, r2
    1b60:	0005b027 	andeq	fp, r5, r7, lsr #32
    1b64:	2b360900 	blcs	d83f6c <__bss_end__+0xd77544>
    1b68:	0000030d 	andeq	r0, r0, sp, lsl #6
    1b6c:	151d6602 	ldrne	r6, [sp, #-1538]	; 0x602
    1b70:	57290000 	strpl	r0, [r9, -r0]!
    1b74:	00000002 	andeq	r0, r0, r2
    1b78:	0005692b 	andeq	r6, r5, fp, lsr #18
    1b7c:	2e670200 	cdpcs	2, 6, cr0, cr7, cr0, {0}
    1b80:	29000015 	stmdbcs	r0, {r0, r2, r4}
    1b84:	00000257 	andeq	r0, r0, r7, asr r2
    1b88:	02ef2b00 	rsceq	r2, pc, #0, 22
    1b8c:	56020000 	strpl	r0, [r2], -r0
    1b90:	0000153f 	andeq	r1, r0, pc, lsr r5
    1b94:	00006829 	andeq	r6, r0, r9, lsr #16
    1b98:	742d0000 	strtvc	r0, [sp], #-0
    1b9c:	02000002 	andeq	r0, r0, #2
    1ba0:	00682960 	rsbeq	r2, r8, r0, ror #18
    1ba4:	92290000 	eorls	r0, r9, #0
    1ba8:	00000004 	andeq	r0, r0, r4
    1bac:	00119e00 	andseq	r9, r1, r0, lsl #28
    1bb0:	77000400 	strvc	r0, [r0, -r0, lsl #8]
    1bb4:	04000004 	streq	r0, [r0], #-4
    1bb8:	00007c01 	andeq	r7, r0, r1, lsl #24
    1bbc:	05b90100 	ldreq	r0, [r9, #256]!	; 0x100
    1bc0:	01710000 	cmneq	r1, r0
    1bc4:	8c500000 	mrahi	r0, r0, acc0
    1bc8:	09140000 	ldmdbeq	r4, {}	; <UNPREDICTABLE>
    1bcc:	04a30000 	strteq	r0, [r3], #0
    1bd0:	04020000 	streq	r0, [r2], #-0
    1bd4:	746e6905 	strbtvc	r6, [lr], #-2309	; 0x905
    1bd8:	07040300 	streq	r0, [r4, -r0, lsl #6]
    1bdc:	000000f3 	strdeq	r0, [r0], -r3
    1be0:	3e060103 	adfccs	f0, f6, f3
    1be4:	03000000 	movweq	r0, #0
    1be8:	01490502 	cmpeq	r9, r2, lsl #10
    1bec:	04030000 	streq	r0, [r3], #-0
    1bf0:	00012c05 	andeq	r2, r1, r5, lsl #24
    1bf4:	05080300 	streq	r0, [r8, #-768]	; 0x300
    1bf8:	00000127 	andeq	r0, r0, r7, lsr #2
    1bfc:	3c080103 	stfccs	f0, [r8], {3}
    1c00:	03000000 	movweq	r0, #0
    1c04:	00120702 	andseq	r0, r2, r2, lsl #14
    1c08:	57040000 	strpl	r0, [r4, -r0]
    1c0c:	04000000 	streq	r0, [r0], #-0
    1c10:	00006834 	andeq	r6, r0, r4, lsr r8
    1c14:	07040300 	streq	r0, [r4, -r0, lsl #6]
    1c18:	000000ee 	andeq	r0, r0, lr, ror #1
    1c1c:	e9070803 	stmdb	r7, {r0, r1, fp}
    1c20:	03000000 	movweq	r0, #0
    1c24:	01100704 	tsteq	r0, r4, lsl #14
    1c28:	01030000 	mrseq	r0, (UNDEF: 3)
    1c2c:	00004508 	andeq	r4, r0, r8, lsl #10
    1c30:	8a040500 	bhi	103038 <__bss_end__+0xf6610>
    1c34:	06000000 	streq	r0, [r0], -r0
    1c38:	0000007d 	andeq	r0, r0, sp, ror r0
    1c3c:	00007d07 	andeq	r7, r0, r7, lsl #26
    1c40:	00009f00 	andeq	r9, r0, r0, lsl #30
    1c44:	00760800 	rsbseq	r0, r6, r0, lsl #16
    1c48:	00190000 	andseq	r0, r9, r0
    1c4c:	00007d07 	andeq	r7, r0, r7, lsl #26
    1c50:	0000af00 	andeq	sl, r0, r0, lsl #30
    1c54:	00760800 	rsbseq	r0, r6, r0, lsl #16
    1c58:	00180000 	andseq	r0, r8, r0
    1c5c:	00061309 	andeq	r1, r6, r9, lsl #6
    1c60:	08020400 	stmdaeq	r2, {sl}
    1c64:	00000107 	andeq	r0, r0, r7, lsl #2
    1c68:	0006a00a 	andeq	sl, r6, sl
    1c6c:	2c0a0200 	sfmcs	f0, 4, [sl], {-0}
    1c70:	04000000 	streq	r0, [r0], #-0
    1c74:	0a001f01 	beq	9880 <data_abort_vector+0xa4>
    1c78:	00000530 	andeq	r0, r0, r0, lsr r5
    1c7c:	002c0b02 	eoreq	r0, ip, r2, lsl #22
    1c80:	07040000 	streq	r0, [r4, -r0]
    1c84:	b30a0018 	movwlt	r0, #40984	; 0xa018
    1c88:	02000006 	andeq	r0, r0, #6
    1c8c:	00002c0c 	andeq	r2, r0, ip, lsl #24
    1c90:	10080400 	andne	r0, r8, r0, lsl #8
    1c94:	06aa0a00 	strteq	r0, [sl], r0, lsl #20
    1c98:	0d020000 	stceq	0, cr0, [r2, #-0]
    1c9c:	0000002c 	andeq	r0, r0, ip, lsr #32
    1ca0:	00080804 	andeq	r0, r8, r4, lsl #16
    1ca4:	0005360a 	andeq	r3, r5, sl, lsl #12
    1ca8:	2c0e0200 	sfmcs	f0, 4, [lr], {-0}
    1cac:	04000000 	streq	r0, [r0], #-0
    1cb0:	00000008 	andeq	r0, r0, r8
    1cb4:	00048609 	andeq	r8, r4, r9, lsl #12
    1cb8:	2a020400 	bcs	82cc0 <__bss_end__+0x76298>
    1cbc:	000002c2 	andeq	r0, r0, r2, asr #5
    1cc0:	0004550a 	andeq	r5, r4, sl, lsl #10
    1cc4:	2c2c0200 	sfmcs	f0, 4, [ip], #-0
    1cc8:	04000000 	streq	r0, [r0], #-0
    1ccc:	0a001f01 	beq	98d8 <data_abort_vector+0xfc>
    1cd0:	00000268 	andeq	r0, r0, r8, ror #4
    1cd4:	002c2d02 	eoreq	r2, ip, r2, lsl #26
    1cd8:	01040000 	mrseq	r0, (UNDEF: 4)
    1cdc:	580a001e 	stmdapl	sl, {r1, r2, r3, r4}
    1ce0:	02000005 	andeq	r0, r0, #5
    1ce4:	00002c2e 	andeq	r2, r0, lr, lsr #24
    1ce8:	1d010400 	cfstrsne	mvf0, [r1, #-0]
    1cec:	04140a00 	ldreq	r0, [r4], #-2560	; 0xa00
    1cf0:	31020000 	mrscc	r0, (UNDEF: 2)
    1cf4:	0000002c 	andeq	r0, r0, ip, lsr #32
    1cf8:	001c0104 	andseq	r0, ip, r4, lsl #2
    1cfc:	0004c30a 	andeq	ip, r4, sl, lsl #6
    1d00:	2c320200 	lfmcs	f0, 4, [r2], #-0
    1d04:	04000000 	streq	r0, [r0], #-0
    1d08:	0a001903 	beq	811c <notmain+0x28>
    1d0c:	00000244 	andeq	r0, r0, r4, asr #4
    1d10:	002c3302 	eoreq	r3, ip, r2, lsl #6
    1d14:	01040000 	mrseq	r0, (UNDEF: 4)
    1d18:	200a0018 	andcs	r0, sl, r8, lsl r0
    1d1c:	02000004 	andeq	r0, r0, #4
    1d20:	00002c34 	andeq	r2, r0, r4, lsr ip
    1d24:	17010400 	strne	r0, [r1, -r0, lsl #8]
    1d28:	03e00a00 	mvneq	r0, #0, 20
    1d2c:	35020000 	strcc	r0, [r2, #-0]
    1d30:	0000002c 	andeq	r0, r0, ip, lsr #32
    1d34:	00160104 	andseq	r0, r6, r4, lsl #2
    1d38:	0200460b 	andeq	r4, r0, #11534336	; 0xb00000
    1d3c:	00002c36 	andeq	r2, r0, r6, lsr ip
    1d40:	15010400 	strne	r0, [r1, #-1024]	; 0x400
    1d44:	01e40a00 	mvneq	r0, r0, lsl #20
    1d48:	37020000 	strcc	r0, [r2, -r0]
    1d4c:	0000002c 	andeq	r0, r0, ip, lsr #32
    1d50:	00140104 	andseq	r0, r4, r4, lsl #2
    1d54:	0002580a 	andeq	r5, r2, sl, lsl #16
    1d58:	2c380200 	lfmcs	f0, 4, [r8], #-0
    1d5c:	04000000 	streq	r0, [r0], #-0
    1d60:	0a001301 	beq	696c <__code_start__-0x1694>
    1d64:	00000234 	andeq	r0, r0, r4, lsr r2
    1d68:	002c3902 	eoreq	r3, ip, r2, lsl #18
    1d6c:	01040000 	mrseq	r0, (UNDEF: 4)
    1d70:	300a0012 	andcc	r0, sl, r2, lsl r0
    1d74:	02000003 	andeq	r0, r0, #3
    1d78:	00002c3a 	andeq	r2, r0, sl, lsr ip
    1d7c:	11010400 	tstne	r1, r0, lsl #8
    1d80:	344c0b00 	strbcc	r0, [ip], #-2816	; 0xb00
    1d84:	2c3b0200 	lfmcs	f0, 4, [fp], #-0
    1d88:	04000000 	streq	r0, [r0], #-0
    1d8c:	0b001001 	bleq	5d98 <__code_start__-0x2268>
    1d90:	0074645f 	rsbseq	r6, r4, pc, asr r4
    1d94:	002c3c02 	eoreq	r3, ip, r2, lsl #24
    1d98:	01040000 	mrseq	r0, (UNDEF: 4)
    1d9c:	300a000f 	andcc	r0, sl, pc
    1da0:	02000005 	andeq	r0, r0, #5
    1da4:	00002c3d 	andeq	r2, r0, sp, lsr ip
    1da8:	0e010400 	cfcpyseq	mvf0, mvf1
    1dac:	695f0b00 	ldmdbvs	pc, {r8, r9, fp}^	; <UNPREDICTABLE>
    1db0:	3e020074 	mcrcc	0, 0, r0, cr2, cr4, {3}
    1db4:	0000002c 	andeq	r0, r0, ip, lsr #32
    1db8:	000d0104 	andeq	r0, sp, r4, lsl #2
    1dbc:	0005360a 	andeq	r3, r5, sl, lsl #12
    1dc0:	2c3f0200 	lfmcs	f0, 4, [pc], #-0	; 1dc8 <__code_start__-0x6238>
    1dc4:	04000000 	streq	r0, [r0], #-0
    1dc8:	0b000c01 	bleq	4dd4 <__code_start__-0x322c>
    1dcc:	0074735f 	rsbseq	r7, r4, pc, asr r3
    1dd0:	002c4002 	eoreq	r4, ip, r2
    1dd4:	01040000 	mrseq	r0, (UNDEF: 4)
    1dd8:	460b000b 	strmi	r0, [fp], -fp
    1ddc:	41020031 	tstmi	r2, r1, lsr r0
    1de0:	0000002c 	andeq	r0, r0, ip, lsr #32
    1de4:	000a0104 	andeq	r0, sl, r4, lsl #2
    1de8:	0004610a 	andeq	r6, r4, sl, lsl #2
    1dec:	2c420200 	sfmcs	f0, 2, [r2], {-0}
    1df0:	04000000 	streq	r0, [r0], #-0
    1df4:	0a000901 	beq	4200 <__code_start__-0x3e00>
    1df8:	0000046d 	andeq	r0, r0, sp, ror #8
    1dfc:	002c4302 	eoreq	r4, ip, r2, lsl #6
    1e00:	01040000 	mrseq	r0, (UNDEF: 4)
    1e04:	d40a0008 	strle	r0, [sl], #-8
    1e08:	02000003 	andeq	r0, r0, #3
    1e0c:	00002c45 	andeq	r2, r0, r5, asr #24
    1e10:	07010400 	streq	r0, [r1, -r0, lsl #8]
    1e14:	45450b00 	strbmi	r0, [r5, #-2816]	; 0xb00
    1e18:	2c460200 	sfmcs	f0, 2, [r6], {-0}
    1e1c:	04000000 	streq	r0, [r0], #-0
    1e20:	0a000601 	beq	362c <__code_start__-0x49d4>
    1e24:	0000054d 	andeq	r0, r0, sp, asr #10
    1e28:	002c4702 	eoreq	r4, ip, r2, lsl #14
    1e2c:	01040000 	mrseq	r0, (UNDEF: 4)
    1e30:	730a0005 	movwvc	r0, #40965	; 0xa005
    1e34:	02000003 	andeq	r0, r0, #3
    1e38:	00002c48 	andeq	r2, r0, r8, asr #24
    1e3c:	04010400 	streq	r0, [r1], #-1024	; 0x400
    1e40:	04730a00 	ldrbteq	r0, [r3], #-2560	; 0xa00
    1e44:	49020000 	stmdbmi	r2, {}	; <UNPREDICTABLE>
    1e48:	0000002c 	andeq	r0, r0, ip, lsr #32
    1e4c:	00030104 	andeq	r0, r3, r4, lsl #2
    1e50:	0003f20a 	andeq	pc, r3, sl, lsl #4
    1e54:	2c4a0200 	sfmcs	f0, 2, [sl], {-0}
    1e58:	04000000 	streq	r0, [r0], #-0
    1e5c:	0a000201 	beq	2668 <__code_start__-0x5998>
    1e60:	0000037e 	andeq	r0, r0, lr, ror r3
    1e64:	002c4b02 	eoreq	r4, ip, r2, lsl #22
    1e68:	02040000 	andeq	r0, r4, #0
    1e6c:	09000000 	stmdbeq	r0, {}	; <UNPREDICTABLE>
    1e70:	0000038f 	andeq	r0, r0, pc, lsl #7
    1e74:	98460304 	stmdals	r6, {r2, r8, r9}^
    1e78:	0b000003 	bleq	1e8c <__code_start__-0x6174>
    1e7c:	00676174 	rsbeq	r6, r7, r4, ror r1
    1e80:	002c4803 	eoreq	r4, ip, r3, lsl #16
    1e84:	02040000 	andeq	r0, r4, #0
    1e88:	420b001e 	andmi	r0, fp, #30
    1e8c:	2c490300 	mcrrcs	3, 0, r0, r9, cr0
    1e90:	04000000 	streq	r0, [r0], #-0
    1e94:	0b001d01 	bleq	92a0 <fld_check_valid+0x19c>
    1e98:	4a030043 	bmi	c1fac <__bss_end__+0xb5584>
    1e9c:	0000002c 	andeq	r0, r0, ip, lsr #32
    1ea0:	001c0104 	andseq	r0, ip, r4, lsl #2
    1ea4:	004e580b 	subeq	r5, lr, fp, lsl #16
    1ea8:	002c4b03 	eoreq	r4, ip, r3, lsl #22
    1eac:	01040000 	mrseq	r0, (UNDEF: 4)
    1eb0:	290a001b 	stmdbcs	sl, {r0, r1, r3, r4}
    1eb4:	03000005 	movweq	r0, #5
    1eb8:	00002c4e 	andeq	r2, r0, lr, asr #24
    1ebc:	17040400 	strne	r0, [r4, -r0, lsl #8]
    1ec0:	4d490b00 	vstrmi	d16, [r9, #-0]
    1ec4:	4f030050 	svcmi	0x00030050
    1ec8:	0000002c 	andeq	r0, r0, ip, lsr #32
    1ecc:	00160104 	andseq	r0, r6, r4, lsl #2
    1ed0:	0050410b 	subseq	r4, r0, fp, lsl #2
    1ed4:	002c5203 	eoreq	r5, ip, r3, lsl #4
    1ed8:	02040000 	andeq	r0, r4, #0
    1edc:	540b0014 	strpl	r0, [fp], #-20
    1ee0:	03005845 	movweq	r5, #2117	; 0x845
    1ee4:	00002c53 	andeq	r2, r0, r3, asr ip
    1ee8:	11030400 	tstne	r3, r0, lsl #8
    1eec:	50410b00 	subpl	r0, r1, r0, lsl #22
    1ef0:	54030058 	strpl	r0, [r3], #-88	; 0x58
    1ef4:	0000002c 	andeq	r0, r0, ip, lsr #32
    1ef8:	00100104 	andseq	r0, r0, r4, lsl #2
    1efc:	0300530b 	movweq	r5, #779	; 0x30b
    1f00:	00002c55 	andeq	r2, r0, r5, asr ip
    1f04:	0f010400 	svceq	0x00010400
    1f08:	476e0b00 	strbmi	r0, [lr, -r0, lsl #22]!
    1f0c:	2c560300 	mrrccs	3, 0, r0, r6, cr0
    1f10:	04000000 	streq	r0, [r0], #-0
    1f14:	0a000e01 	beq	5720 <__code_start__-0x28e0>
    1f18:	0000015b 	andeq	r0, r0, fp, asr r1
    1f1c:	002c5703 	eoreq	r5, ip, r3, lsl #14
    1f20:	01040000 	mrseq	r0, (UNDEF: 4)
    1f24:	360a000d 	strcc	r0, [sl], -sp
    1f28:	03000005 	movweq	r0, #5
    1f2c:	00002c58 	andeq	r2, r0, r8, asr ip
    1f30:	0c010400 	cfstrseq	mvf0, [r1], {-0}
    1f34:	02a90a00 	adceq	r0, r9, #0, 20
    1f38:	59030000 	stmdbpl	r3, {}	; <UNPREDICTABLE>
    1f3c:	0000002c 	andeq	r0, r0, ip, lsr #32
    1f40:	00000c04 	andeq	r0, r0, r4, lsl #24
    1f44:	03070400 	movweq	r0, #29696	; 0x7400
    1f48:	5a030000 	bpl	c1f50 <__bss_end__+0xb5528>
    1f4c:	000002c2 	andeq	r0, r0, r2, asr #5
    1f50:	0003250c 	andeq	r2, r3, ip, lsl #10
    1f54:	500f0100 	andpl	r0, pc, r0, lsl #2
    1f58:	3400008c 	strcc	r0, [r0], #-140	; 0x8c
    1f5c:	01000000 	mrseq	r0, (UNDEF: 0)
    1f60:	00041e9c 	muleq	r4, ip, lr
    1f64:	736d0d00 	cmnvc	sp, #0, 26
    1f68:	0f010067 	svceq	0x00010067
    1f6c:	00000084 	andeq	r0, r0, r4, lsl #1
    1f70:	00000c38 	andeq	r0, r0, r8, lsr ip
    1f74:	00137c0e 	andseq	r7, r3, lr, lsl #24
    1f78:	1e0f0100 	adfnee	f0, f7, f0
    1f7c:	56000004 	strpl	r0, [r0], -r4
    1f80:	0d00000c 	stceq	0, cr0, [r0, #-48]	; 0xffffffd0
    1f84:	0f01006e 	svceq	0x0001006e
    1f88:	0000002c 	andeq	r0, r0, ip, lsr #32
    1f8c:	00000c82 	andeq	r0, r0, r2, lsl #25
    1f90:	008c680f 	addeq	r6, ip, pc, lsl #16
    1f94:	00115800 	andseq	r5, r1, r0, lsl #16
    1f98:	0003fe00 	andeq	pc, r3, r0, lsl #28
    1f9c:	51011000 	mrspl	r1, (UNDEF: 1)
    1fa0:	10007402 	andne	r7, r0, r2, lsl #8
    1fa4:	f3035001 	vhadd.u8	d5, d3, d1
    1fa8:	11005101 	tstne	r0, r1, lsl #2
    1fac:	00008c7c 	andeq	r8, r0, ip, ror ip
    1fb0:	00001172 	andeq	r1, r0, r2, ror r1
    1fb4:	02530110 	subseq	r0, r3, #16, 2
    1fb8:	01100074 	tsteq	r0, r4, ror r0
    1fbc:	00750251 	rsbseq	r0, r5, r1, asr r2
    1fc0:	05500110 	ldrbeq	r0, [r0, #-272]	; 0x110
    1fc4:	00b89403 	adcseq	r9, r8, r3, lsl #8
    1fc8:	05000000 	streq	r0, [r0, #-0]
    1fcc:	00042404 	andeq	r2, r4, r4, lsl #8
    1fd0:	630c1200 	movwvs	r1, #49664	; 0xc200
    1fd4:	01000006 	tsteq	r0, r6
    1fd8:	008c8417 	addeq	r8, ip, r7, lsl r4
    1fdc:	00002800 	andeq	r2, r0, r0, lsl #16
    1fe0:	6e9c0100 	fmlvse	f0, f4, f0
    1fe4:	0f000004 	svceq	0x00000004
    1fe8:	00008c90 	muleq	r0, r0, ip
    1fec:	00001172 	andeq	r1, r0, r2, ror r1
    1ff0:	00000451 	andeq	r0, r0, r1, asr r4
    1ff4:	05500110 	ldrbeq	r0, [r0, #-272]	; 0x110
    1ff8:	00b8b003 	adcseq	fp, r8, r3
    1ffc:	94130000 	ldrls	r0, [r3], #-0
    2000:	8800008c 	stmdahi	r0, {r2, r3, r7}
    2004:	11000011 	tstne	r0, r1, lsl r0
    2008:	00008ca0 	andeq	r8, r0, r0, lsr #25
    200c:	00001172 	andeq	r1, r0, r2, ror r1
    2010:	05500110 	ldrbeq	r0, [r0, #-272]	; 0x110
    2014:	00b8c803 	adcseq	ip, r8, r3, lsl #16
    2018:	14000000 	strne	r0, [r0], #-0
    201c:	00000674 	andeq	r0, r0, r4, ror r6
    2020:	8cac2001 	stchi	0, cr2, [ip], #4
    2024:	00080000 	andeq	r0, r8, r0
    2028:	9c010000 	stcls	0, cr0, [r1], {-0}
    202c:	00000493 	muleq	r0, r3, r4
    2030:	00006015 	andeq	r6, r0, r5, lsl r0
    2034:	0004a300 	andeq	sl, r4, r0, lsl #6
    2038:	98030500 	stmdals	r3, {r8, sl}
    203c:	000000bc 	strheq	r0, [r0], -ip
    2040:	00007d07 	andeq	r7, r0, r7, lsl #26
    2044:	0004a300 	andeq	sl, r4, r0, lsl #6
    2048:	00760800 	rsbseq	r0, r6, r0, lsl #16
    204c:	001a0000 	andseq	r0, sl, r0
    2050:	00049306 	andeq	r9, r4, r6, lsl #6
    2054:	05e31400 	strbeq	r1, [r3, #1024]!	; 0x400
    2058:	39010000 	stmdbcc	r1, {}	; <UNPREDICTABLE>
    205c:	00008cb4 			; <UNDEFINED> instruction: 0x00008cb4
    2060:	000001f8 	strdeq	r0, [r0], -r8
    2064:	077d9c01 	ldrbeq	r9, [sp, -r1, lsl #24]!
    2068:	720d0000 	andvc	r0, sp, #0
    206c:	7d390100 	ldfvcs	f0, [r9, #-0]
    2070:	a0000007 	andge	r0, r0, r7
    2074:	1500000c 	strne	r0, [r0, #-12]
    2078:	00000060 	andeq	r0, r0, r0, rrx
    207c:	00000783 	andeq	r0, r0, r3, lsl #15
    2080:	bc6c0305 	stcllt	3, cr0, [ip], #-20	; 0xffffffec
    2084:	d4130000 	ldrle	r0, [r3], #-0
    2088:	9300008c 	movwls	r0, #140	; 0x8c
    208c:	0f000011 	svceq	0x00000011
    2090:	00008cf0 	strdeq	r8, [r0], -r0
    2094:	00001172 	andeq	r1, r0, r2, ror r1
    2098:	0000051b 	andeq	r0, r0, fp, lsl r5
    209c:	02530110 	subseq	r0, r3, #16, 2
    20a0:	01103b08 	tsteq	r0, r8, lsl #22
    20a4:	6c030552 	cfstr32vs	mvfx0, [r3], {82}	; 0x52
    20a8:	100000bc 	strhne	r0, [r0], -ip
    20ac:	03055101 	movweq	r5, #20737	; 0x5101
    20b0:	0000b918 	andeq	fp, r0, r8, lsl r9
    20b4:	05500110 	ldrbeq	r0, [r0, #-272]	; 0x110
    20b8:	00b33803 	adcseq	r3, r3, r3, lsl #16
    20bc:	7d021000 	stcvc	0, cr1, [r2, #-0]
    20c0:	2c030500 	cfstr32cs	mvfx0, [r3], {-0}
    20c4:	000000ba 	strheq	r0, [r0], -sl
    20c8:	008cf413 	addeq	pc, ip, r3, lsl r4	; <UNPREDICTABLE>
    20cc:	00119a00 	andseq	r9, r1, r0, lsl #20
    20d0:	8d041300 	stchi	3, cr1, [r4, #-0]
    20d4:	11930000 	orrsne	r0, r3, r0
    20d8:	200f0000 	andcs	r0, pc, r0
    20dc:	7200008d 	andvc	r0, r0, #141	; 0x8d
    20e0:	66000011 			; <UNDEFINED> instruction: 0x66000011
    20e4:	10000005 	andne	r0, r0, r5
    20e8:	08025301 	stmdaeq	r2, {r0, r8, r9, ip, lr}
    20ec:	5201103c 	andpl	r1, r1, #60	; 0x3c
    20f0:	bc6c0305 	stcllt	3, cr0, [ip], #-20	; 0xffffffec
    20f4:	01100000 	tsteq	r0, r0
    20f8:	18030551 	stmdane	r3, {r0, r4, r6, r8, sl}
    20fc:	100000b9 	strhne	r0, [r0], -r9
    2100:	03055001 	movweq	r5, #20481	; 0x5001
    2104:	0000b338 	andeq	fp, r0, r8, lsr r3
    2108:	007d0210 	rsbseq	r0, sp, r0, lsl r2
    210c:	ba440305 	blt	1102d28 <__bss_end__+0x10f6300>
    2110:	13000000 	movwne	r0, #0
    2114:	00008d24 	andeq	r8, r0, r4, lsr #26
    2118:	0000119a 	muleq	r0, sl, r1
    211c:	008d3413 	addeq	r3, sp, r3, lsl r4
    2120:	00119300 	andseq	r9, r1, r0, lsl #6
    2124:	8d500f00 	ldclhi	15, cr0, [r0, #-0]
    2128:	11720000 	cmnne	r2, r0
    212c:	05b10000 	ldreq	r0, [r1, #0]!
    2130:	01100000 	tsteq	r0, r0
    2134:	3d080253 	sfmcc	f0, 4, [r8, #-332]	; 0xfffffeb4
    2138:	05520110 	ldrbeq	r0, [r2, #-272]	; 0x110
    213c:	00bc6c03 	adcseq	r6, ip, r3, lsl #24
    2140:	51011000 	mrspl	r1, (UNDEF: 1)
    2144:	b9180305 	ldmdblt	r8, {r0, r2, r8, r9}
    2148:	01100000 	tsteq	r0, r0
    214c:	38030550 	stmdacc	r3, {r4, r6, r8, sl}
    2150:	100000b3 	strhne	r0, [r0], -r3
    2154:	05007d02 	streq	r7, [r0, #-3330]	; 0xd02
    2158:	00ba5003 	adcseq	r5, sl, r3
    215c:	54130000 	ldrpl	r0, [r3], #-0
    2160:	9a00008d 	bls	239c <__code_start__-0x5c64>
    2164:	13000011 	movwne	r0, #17
    2168:	00008d64 	andeq	r8, r0, r4, ror #26
    216c:	00001193 	muleq	r0, r3, r1
    2170:	008d800f 	addeq	r8, sp, pc
    2174:	00117200 	andseq	r7, r1, r0, lsl #4
    2178:	0005fc00 	andeq	pc, r5, r0, lsl #24
    217c:	53011000 	movwpl	r1, #4096	; 0x1000
    2180:	10400802 	subne	r0, r0, r2, lsl #16
    2184:	03055201 	movweq	r5, #20993	; 0x5201
    2188:	0000bc6c 	andeq	fp, r0, ip, ror #24
    218c:	05510110 	ldrbeq	r0, [r1, #-272]	; 0x110
    2190:	00b91803 	adcseq	r1, r9, r3, lsl #16
    2194:	50011000 	andpl	r1, r1, r0
    2198:	b3380305 	teqlt	r8, #335544320	; 0x14000000
    219c:	02100000 	andseq	r0, r0, #0
    21a0:	0305007d 	movweq	r0, #20605	; 0x507d
    21a4:	0000ba5c 	andeq	fp, r0, ip, asr sl
    21a8:	8d841300 	stchi	3, cr1, [r4]
    21ac:	119a0000 	orrsne	r0, sl, r0
    21b0:	94130000 	ldrls	r0, [r3], #-0
    21b4:	9300008d 	movwls	r0, #141	; 0x8d
    21b8:	0f000011 	svceq	0x00000011
    21bc:	00008db0 			; <UNDEFINED> instruction: 0x00008db0
    21c0:	00001172 	andeq	r1, r0, r2, ror r1
    21c4:	00000647 	andeq	r0, r0, r7, asr #12
    21c8:	02530110 	subseq	r0, r3, #16, 2
    21cc:	01104108 	tsteq	r0, r8, lsl #2
    21d0:	6c030552 	cfstr32vs	mvfx0, [r3], {82}	; 0x52
    21d4:	100000bc 	strhne	r0, [r0], -ip
    21d8:	03055101 	movweq	r5, #20737	; 0x5101
    21dc:	0000b918 	andeq	fp, r0, r8, lsl r9
    21e0:	05500110 	ldrbeq	r0, [r0, #-272]	; 0x110
    21e4:	00b33803 	adcseq	r3, r3, r3, lsl #16
    21e8:	7d021000 	stcvc	0, cr1, [r2, #-0]
    21ec:	6c030500 	cfstr32vs	mvfx0, [r3], {-0}
    21f0:	000000ba 	strheq	r0, [r0], -sl
    21f4:	008db413 	addeq	fp, sp, r3, lsl r4
    21f8:	00119a00 	andseq	r9, r1, r0, lsl #20
    21fc:	8dc41300 	stclhi	3, cr1, [r4]
    2200:	11930000 	orrsne	r0, r3, r0
    2204:	e00f0000 	and	r0, pc, r0
    2208:	7200008d 	andvc	r0, r0, #141	; 0x8d
    220c:	92000011 	andls	r0, r0, #17
    2210:	10000006 	andne	r0, r0, r6
    2214:	08025301 	stmdaeq	r2, {r0, r8, r9, ip, lr}
    2218:	52011042 	andpl	r1, r1, #66	; 0x42
    221c:	bc6c0305 	stcllt	3, cr0, [ip], #-20	; 0xffffffec
    2220:	01100000 	tsteq	r0, r0
    2224:	18030551 	stmdane	r3, {r0, r4, r6, r8, sl}
    2228:	100000b9 	strhne	r0, [r0], -r9
    222c:	03055001 	movweq	r5, #20481	; 0x5001
    2230:	0000b338 	andeq	fp, r0, r8, lsr r3
    2234:	007d0210 	rsbseq	r0, sp, r0, lsl r2
    2238:	ba7c0305 	blt	1f02e54 <__bss_end__+0x1ef642c>
    223c:	13000000 	movwne	r0, #0
    2240:	00008de4 	andeq	r8, r0, r4, ror #27
    2244:	0000119a 	muleq	r0, sl, r1
    2248:	008df413 	addeq	pc, sp, r3, lsl r4	; <UNPREDICTABLE>
    224c:	00119300 	andseq	r9, r1, r0, lsl #6
    2250:	8e100f00 	cdphi	15, 1, cr0, cr0, cr0, {0}
    2254:	11720000 	cmnne	r2, r0
    2258:	06dd0000 	ldrbeq	r0, [sp], r0
    225c:	01100000 	tsteq	r0, r0
    2260:	4b080253 	blmi	202bb4 <__bss_end__+0x1f618c>
    2264:	05520110 	ldrbeq	r0, [r2, #-272]	; 0x110
    2268:	00bc6c03 	adcseq	r6, ip, r3, lsl #24
    226c:	51011000 	mrspl	r1, (UNDEF: 1)
    2270:	b9180305 	ldmdblt	r8, {r0, r2, r8, r9}
    2274:	01100000 	tsteq	r0, r0
    2278:	38030550 	stmdacc	r3, {r4, r6, r8, sl}
    227c:	100000b3 	strhne	r0, [r0], -r3
    2280:	05007d02 	streq	r7, [r0, #-3330]	; 0xd02
    2284:	00ba8803 	adcseq	r8, sl, r3, lsl #16
    2288:	14130000 	ldrne	r0, [r3], #-0
    228c:	9a00008e 	bls	24cc <__code_start__-0x5b34>
    2290:	13000011 	movwne	r0, #17
    2294:	00008e24 	andeq	r8, r0, r4, lsr #28
    2298:	00001193 	muleq	r0, r3, r1
    229c:	008e400f 	addeq	r4, lr, pc
    22a0:	00117200 	andseq	r7, r1, r0, lsl #4
    22a4:	00072800 	andeq	r2, r7, r0, lsl #16
    22a8:	53011000 	movwpl	r1, #4096	; 0x1000
    22ac:	104c0802 	subne	r0, ip, r2, lsl #16
    22b0:	03055201 	movweq	r5, #20993	; 0x5201
    22b4:	0000bc6c 	andeq	fp, r0, ip, ror #24
    22b8:	05510110 	ldrbeq	r0, [r1, #-272]	; 0x110
    22bc:	00b91803 	adcseq	r1, r9, r3, lsl #16
    22c0:	50011000 	andpl	r1, r1, r0
    22c4:	b3380305 	teqlt	r8, #335544320	; 0x14000000
    22c8:	02100000 	andseq	r0, r0, #0
    22cc:	0305007d 	movweq	r0, #20605	; 0x507d
    22d0:	0000ba98 	muleq	r0, r8, sl
    22d4:	8e441300 	cdphi	3, 4, cr1, cr4, cr0, {0}
    22d8:	119a0000 	orrsne	r0, sl, r0
    22dc:	54130000 	ldrpl	r0, [r3], #-0
    22e0:	9300008e 	movwls	r0, #142	; 0x8e
    22e4:	0f000011 	svceq	0x00000011
    22e8:	00008e70 	andeq	r8, r0, r0, ror lr
    22ec:	00001172 	andeq	r1, r0, r2, ror r1
    22f0:	00000773 	andeq	r0, r0, r3, ror r7
    22f4:	02530110 	subseq	r0, r3, #16, 2
    22f8:	01104d08 	tsteq	r0, r8, lsl #26
    22fc:	6c030552 	cfstr32vs	mvfx0, [r3], {82}	; 0x52
    2300:	100000bc 	strhne	r0, [r0], -ip
    2304:	03055101 	movweq	r5, #20737	; 0x5101
    2308:	0000b918 	andeq	fp, r0, r8, lsl r9
    230c:	05500110 	ldrbeq	r0, [r0, #-272]	; 0x110
    2310:	00b33803 	adcseq	r3, r3, r3, lsl #16
    2314:	7d021000 	stcvc	0, cr1, [r2, #-0]
    2318:	ac030500 	cfstr32ge	mvfx0, [r3], {-0}
    231c:	000000ba 	strheq	r0, [r0], -sl
    2320:	008e7413 	addeq	r7, lr, r3, lsl r4
    2324:	00119a00 	andseq	r9, r1, r0, lsl #20
    2328:	04050000 	streq	r0, [r5], #-0
    232c:	00000107 	andeq	r0, r0, r7, lsl #2
    2330:	00008f06 	andeq	r8, r0, r6, lsl #30
    2334:	06370c00 	ldrteq	r0, [r7], -r0, lsl #24
    2338:	50010000 	andpl	r0, r1, r0
    233c:	00008eac 	andeq	r8, r0, ip, lsr #29
    2340:	00000204 	andeq	r0, r0, r4, lsl #4
    2344:	0a129c01 	beq	4a9350 <__bss_end__+0x49c928>
    2348:	720d0000 	andvc	r0, sp, #0
    234c:	7d500100 	ldfvce	f0, [r0, #-0]
    2350:	94000007 	strls	r0, [r0], #-7
    2354:	0f00000d 	svceq	0x0000000d
    2358:	00008eb8 			; <UNDEFINED> instruction: 0x00008eb8
    235c:	000004a8 	andeq	r0, r0, r8, lsr #9
    2360:	000007be 			; <UNDEFINED> instruction: 0x000007be
    2364:	02500110 	subseq	r0, r0, #16, 2
    2368:	0f000074 	svceq	0x00000074
    236c:	00008ec0 	andeq	r8, r0, r0, asr #29
    2370:	00001172 	andeq	r1, r0, r2, ror r1
    2374:	000007d5 	ldrdeq	r0, [r0], -r5
    2378:	05500110 	ldrbeq	r0, [r0, #-272]	; 0x110
    237c:	00bac403 	adcseq	ip, sl, r3, lsl #8
    2380:	d80f0000 	stmdale	pc, {}	; <UNPREDICTABLE>
    2384:	7200008e 	andvc	r0, r0, #142	; 0x8e
    2388:	f5000011 			; <UNDEFINED> instruction: 0xf5000011
    238c:	10000007 	andne	r0, r0, r7
    2390:	03055201 	movweq	r5, #20993	; 0x5201
    2394:	0000ba20 	andeq	fp, r0, r0, lsr #20
    2398:	05500110 	ldrbeq	r0, [r0, #-272]	; 0x110
    239c:	00badc03 	adcseq	sp, sl, r3, lsl #24
    23a0:	f00f0000 			; <UNDEFINED> instruction: 0xf00f0000
    23a4:	7200008e 	andvc	r0, r0, #142	; 0x8e
    23a8:	15000011 	strne	r0, [r0, #-17]
    23ac:	10000008 	andne	r0, r0, r8
    23b0:	03055201 	movweq	r5, #20993	; 0x5201
    23b4:	0000ba10 	andeq	fp, r0, r0, lsl sl
    23b8:	05500110 	ldrbeq	r0, [r0, #-272]	; 0x110
    23bc:	00badc03 	adcseq	sp, sl, r3, lsl #24
    23c0:	080f0000 	stmdaeq	pc, {}	; <UNPREDICTABLE>
    23c4:	7200008f 	andvc	r0, r0, #143	; 0x8f
    23c8:	35000011 	strcc	r0, [r0, #-17]
    23cc:	10000008 	andne	r0, r0, r8
    23d0:	03055201 	movweq	r5, #20993	; 0x5201
    23d4:	0000ba8c 	andeq	fp, r0, ip, lsl #21
    23d8:	05500110 	ldrbeq	r0, [r0, #-272]	; 0x110
    23dc:	00badc03 	adcseq	sp, sl, r3, lsl #24
    23e0:	200f0000 	andcs	r0, pc, r0
    23e4:	7200008f 	andvc	r0, r0, #143	; 0x8f
    23e8:	55000011 	strpl	r0, [r0, #-17]
    23ec:	10000008 	andne	r0, r0, r8
    23f0:	03055201 	movweq	r5, #20993	; 0x5201
    23f4:	0000ba0c 	andeq	fp, r0, ip, lsl #20
    23f8:	05500110 	ldrbeq	r0, [r0, #-272]	; 0x110
    23fc:	00badc03 	adcseq	sp, sl, r3, lsl #24
    2400:	340f0000 	strcc	r0, [pc], #-0	; 2408 <__code_start__-0x5bf8>
    2404:	7200008f 	andvc	r0, r0, #143	; 0x8f
    2408:	75000011 	strvc	r0, [r0, #-17]
    240c:	10000008 	andne	r0, r0, r8
    2410:	03055201 	movweq	r5, #20993	; 0x5201
    2414:	0000ba00 	andeq	fp, r0, r0, lsl #20
    2418:	05500110 	ldrbeq	r0, [r0, #-272]	; 0x110
    241c:	00badc03 	adcseq	sp, sl, r3, lsl #24
    2420:	480f0000 	stmdami	pc, {}	; <UNPREDICTABLE>
    2424:	7200008f 	andvc	r0, r0, #143	; 0x8f
    2428:	95000011 	strls	r0, [r0, #-17]
    242c:	10000008 	andne	r0, r0, r8
    2430:	03055201 	movweq	r5, #20993	; 0x5201
    2434:	0000b9f8 	strdeq	fp, [r0], -r8
    2438:	05500110 	ldrbeq	r0, [r0, #-272]	; 0x110
    243c:	00badc03 	adcseq	sp, sl, r3, lsl #24
    2440:	600f0000 	andvs	r0, pc, r0
    2444:	7200008f 	andvc	r0, r0, #143	; 0x8f
    2448:	b5000011 	strlt	r0, [r0, #-17]
    244c:	10000008 	andne	r0, r0, r8
    2450:	03055201 	movweq	r5, #20993	; 0x5201
    2454:	0000b9ec 	andeq	fp, r0, ip, ror #19
    2458:	05500110 	ldrbeq	r0, [r0, #-272]	; 0x110
    245c:	00badc03 	adcseq	sp, sl, r3, lsl #24
    2460:	780f0000 	stmdavc	pc, {}	; <UNPREDICTABLE>
    2464:	7200008f 	andvc	r0, r0, #143	; 0x8f
    2468:	d5000011 	strle	r0, [r0, #-17]
    246c:	10000008 	andne	r0, r0, r8
    2470:	03055201 	movweq	r5, #20993	; 0x5201
    2474:	0000b9e8 	andeq	fp, r0, r8, ror #19
    2478:	05500110 	ldrbeq	r0, [r0, #-272]	; 0x110
    247c:	00badc03 	adcseq	sp, sl, r3, lsl #24
    2480:	900f0000 	andls	r0, pc, r0
    2484:	7200008f 	andvc	r0, r0, #143	; 0x8f
    2488:	f5000011 			; <UNDEFINED> instruction: 0xf5000011
    248c:	10000008 	andne	r0, r0, r8
    2490:	03055201 	movweq	r5, #20993	; 0x5201
    2494:	0000b9d4 	ldrdeq	fp, [r0], -r4
    2498:	05500110 	ldrbeq	r0, [r0, #-272]	; 0x110
    249c:	00badc03 	adcseq	sp, sl, r3, lsl #24
    24a0:	a80f0000 	stmdage	pc, {}	; <UNPREDICTABLE>
    24a4:	7200008f 	andvc	r0, r0, #143	; 0x8f
    24a8:	15000011 	strne	r0, [r0, #-17]
    24ac:	10000009 	andne	r0, r0, r9
    24b0:	03055201 	movweq	r5, #20993	; 0x5201
    24b4:	0000ba9c 	muleq	r0, ip, sl
    24b8:	05500110 	ldrbeq	r0, [r0, #-272]	; 0x110
    24bc:	00badc03 	adcseq	sp, sl, r3, lsl #24
    24c0:	c00f0000 	andgt	r0, pc, r0
    24c4:	7200008f 	andvc	r0, r0, #143	; 0x8f
    24c8:	35000011 	strcc	r0, [r0, #-17]
    24cc:	10000009 	andne	r0, r0, r9
    24d0:	03055201 	movweq	r5, #20993	; 0x5201
    24d4:	0000b9b4 			; <UNDEFINED> instruction: 0x0000b9b4
    24d8:	05500110 	ldrbeq	r0, [r0, #-272]	; 0x110
    24dc:	00badc03 	adcseq	sp, sl, r3, lsl #24
    24e0:	d80f0000 	stmdale	pc, {}	; <UNPREDICTABLE>
    24e4:	7200008f 	andvc	r0, r0, #143	; 0x8f
    24e8:	55000011 	strpl	r0, [r0, #-17]
    24ec:	10000009 	andne	r0, r0, r9
    24f0:	03055201 	movweq	r5, #20993	; 0x5201
    24f4:	0000b9a4 	andeq	fp, r0, r4, lsr #19
    24f8:	05500110 	ldrbeq	r0, [r0, #-272]	; 0x110
    24fc:	00badc03 	adcseq	sp, sl, r3, lsl #24
    2500:	ec0f0000 	stc	0, cr0, [pc], {-0}
    2504:	7200008f 	andvc	r0, r0, #143	; 0x8f
    2508:	75000011 	strvc	r0, [r0, #-17]
    250c:	10000009 	andne	r0, r0, r9
    2510:	03055201 	movweq	r5, #20993	; 0x5201
    2514:	0000b99c 	muleq	r0, ip, r9
    2518:	05500110 	ldrbeq	r0, [r0, #-272]	; 0x110
    251c:	00badc03 	adcseq	sp, sl, r3, lsl #24
    2520:	000f0000 	andeq	r0, pc, r0
    2524:	72000090 	andvc	r0, r0, #144	; 0x90
    2528:	95000011 	strls	r0, [r0, #-17]
    252c:	10000009 	andne	r0, r0, r9
    2530:	03055201 	movweq	r5, #20993	; 0x5201
    2534:	0000b990 	muleq	r0, r0, r9
    2538:	05500110 	ldrbeq	r0, [r0, #-272]	; 0x110
    253c:	00badc03 	adcseq	sp, sl, r3, lsl #24
    2540:	180f0000 	stmdane	pc, {}	; <UNPREDICTABLE>
    2544:	72000090 	andvc	r0, r0, #144	; 0x90
    2548:	b5000011 	strlt	r0, [r0, #-17]
    254c:	10000009 	andne	r0, r0, r9
    2550:	03055201 	movweq	r5, #20993	; 0x5201
    2554:	0000b984 	andeq	fp, r0, r4, lsl #19
    2558:	05500110 	ldrbeq	r0, [r0, #-272]	; 0x110
    255c:	00badc03 	adcseq	sp, sl, r3, lsl #24
    2560:	300f0000 	andcc	r0, pc, r0
    2564:	72000090 	andvc	r0, r0, #144	; 0x90
    2568:	d5000011 	strle	r0, [r0, #-17]
    256c:	10000009 	andne	r0, r0, r9
    2570:	03055201 	movweq	r5, #20993	; 0x5201
    2574:	0000bab0 			; <UNDEFINED> instruction: 0x0000bab0
    2578:	05500110 	ldrbeq	r0, [r0, #-272]	; 0x110
    257c:	00badc03 	adcseq	sp, sl, r3, lsl #24
    2580:	480f0000 	stmdami	pc, {}	; <UNPREDICTABLE>
    2584:	72000090 	andvc	r0, r0, #144	; 0x90
    2588:	f5000011 			; <UNDEFINED> instruction: 0xf5000011
    258c:	10000009 	andne	r0, r0, r9
    2590:	03055201 	movweq	r5, #20993	; 0x5201
    2594:	0000b978 	andeq	fp, r0, r8, ror r9
    2598:	05500110 	ldrbeq	r0, [r0, #-272]	; 0x110
    259c:	00badc03 	adcseq	sp, sl, r3, lsl #24
    25a0:	5c110000 	ldcpl	0, cr0, [r1], {-0}
    25a4:	72000090 	andvc	r0, r0, #144	; 0x90
    25a8:	10000011 	andne	r0, r0, r1, lsl r0
    25ac:	03055201 	movweq	r5, #20993	; 0x5201
    25b0:	0000b7e8 	andeq	fp, r0, r8, ror #15
    25b4:	05500110 	ldrbeq	r0, [r0, #-272]	; 0x110
    25b8:	00badc03 	adcseq	sp, sl, r3, lsl #24
    25bc:	14000000 	strne	r0, [r0], #-0
    25c0:	0000064a 	andeq	r0, r0, sl, asr #12
    25c4:	90b06c01 	adcsls	r6, r0, r1, lsl #24
    25c8:	00080000 	andeq	r0, r8, r0
    25cc:	9c010000 	stcls	0, cr0, [r1], {-0}
    25d0:	00000a37 	andeq	r0, r0, r7, lsr sl
    25d4:	00006015 	andeq	r6, r0, r5, lsl r0
    25d8:	000a3700 	andeq	r3, sl, r0, lsl #14
    25dc:	b4030500 	strlt	r0, [r3], #-1280	; 0x500
    25e0:	000000bc 	strheq	r0, [r0], -ip
    25e4:	00009f06 	andeq	r9, r0, r6, lsl #30
    25e8:	068f0c00 	streq	r0, [pc], r0, lsl #24
    25ec:	72010000 	andvc	r0, r1, #0
    25f0:	000090b8 	strheq	r9, [r0], -r8
    25f4:	0000004c 	andeq	r0, r0, ip, asr #32
    25f8:	0ab79c01 	beq	fede9604 <__bss_end__+0xfeddcbdc>
    25fc:	630d0000 	movwvs	r0, #53248	; 0xd000
    2600:	b7720100 	ldrblt	r0, [r2, -r0, lsl #2]!
    2604:	b200000a 	andlt	r0, r0, #10
    2608:	0f00000d 	svceq	0x0000000d
    260c:	000090c8 	andeq	r9, r0, r8, asr #1
    2610:	00001172 	andeq	r1, r0, r2, ror r1
    2614:	00000a75 	andeq	r0, r0, r5, ror sl
    2618:	05500110 	ldrbeq	r0, [r0, #-272]	; 0x110
    261c:	00bb1403 	adcseq	r1, fp, r3, lsl #8
    2620:	d80f0000 	stmdale	pc, {}	; <UNPREDICTABLE>
    2624:	72000090 	andvc	r0, r0, #144	; 0x90
    2628:	8c000011 	stchi	0, cr0, [r0], {17}
    262c:	1000000a 	andne	r0, r0, sl
    2630:	03055001 	movweq	r5, #20481	; 0x5001
    2634:	0000bb24 	andeq	fp, r0, r4, lsr #22
    2638:	90e40f00 	rscls	r0, r4, r0, lsl #30
    263c:	11720000 	cmnne	r2, r0
    2640:	0aa30000 	beq	fe8c2648 <__bss_end__+0xfe8b5c20>
    2644:	01100000 	tsteq	r0, r0
    2648:	34030550 	strcc	r0, [r3], #-1360	; 0x550
    264c:	000000bb 	strheq	r0, [r0], -fp
    2650:	0090f011 	addseq	pc, r0, r1, lsl r0	; <UNPREDICTABLE>
    2654:	00117200 	andseq	r7, r1, r0, lsl #4
    2658:	50011000 	andpl	r1, r1, r0
    265c:	bb4c0305 	bllt	1303278 <__bss_end__+0x12f6850>
    2660:	00000000 	andeq	r0, r0, r0
    2664:	00af0405 	adceq	r0, pc, r5, lsl #8
    2668:	fd140000 	ldc2	0, cr0, [r4, #-0]
    266c:	01000005 	tsteq	r0, r5
    2670:	0091047c 	addseq	r0, r1, ip, ror r4
    2674:	0001c000 	andeq	ip, r1, r0
    2678:	479c0100 	ldrmi	r0, [ip, r0, lsl #2]
    267c:	0d00000d 	stceq	0, cr0, [r0, #-52]	; 0xffffffcc
    2680:	7c010066 	stcvc	0, cr0, [r1], {102}	; 0x66
    2684:	00000d47 	andeq	r0, r0, r7, asr #26
    2688:	00000dd0 	ldrdeq	r0, [r0], -r0	; <UNPREDICTABLE>
    268c:	00006015 	andeq	r6, r0, r5, lsl r0
    2690:	000d5d00 	andeq	r5, sp, r0, lsl #26
    2694:	88030500 	stmdahi	r3, {r8, sl}
    2698:	130000bc 	movwne	r0, #188	; 0xbc
    269c:	0000911c 	andeq	r9, r0, ip, lsl r1
    26a0:	00001193 	muleq	r0, r3, r1
    26a4:	0091380f 	addseq	r3, r1, pc, lsl #16
    26a8:	00117200 	andseq	r7, r1, r0, lsl #4
    26ac:	000b3000 	andeq	r3, fp, r0
    26b0:	53011000 	movwpl	r1, #4096	; 0x1000
    26b4:	107d0802 	rsbsne	r0, sp, r2, lsl #16
    26b8:	03055201 	movweq	r5, #20993	; 0x5201
    26bc:	0000bc88 	andeq	fp, r0, r8, lsl #25
    26c0:	05510110 	ldrbeq	r0, [r1, #-272]	; 0x110
    26c4:	00b91803 	adcseq	r1, r9, r3, lsl #16
    26c8:	50011000 	andpl	r1, r1, r0
    26cc:	b3380305 	teqlt	r8, #335544320	; 0x14000000
    26d0:	02100000 	andseq	r0, r0, #0
    26d4:	0305007d 	movweq	r0, #20605	; 0x507d
    26d8:	0000bb64 	andeq	fp, r0, r4, ror #22
    26dc:	913c1300 	teqls	ip, r0, lsl #6
    26e0:	119a0000 	orrsne	r0, sl, r0
    26e4:	50130000 	andspl	r0, r3, r0
    26e8:	93000091 	movwls	r0, #145	; 0x91
    26ec:	0f000011 	svceq	0x00000011
    26f0:	0000916c 	andeq	r9, r0, ip, ror #2
    26f4:	00001172 	andeq	r1, r0, r2, ror r1
    26f8:	00000b7b 	andeq	r0, r0, fp, ror fp
    26fc:	02530110 	subseq	r0, r3, #16, 2
    2700:	01107e08 	tsteq	r0, r8, lsl #28
    2704:	88030552 	stmdahi	r3, {r1, r4, r6, r8, sl}
    2708:	100000bc 	strhne	r0, [r0], -ip
    270c:	03055101 	movweq	r5, #20737	; 0x5101
    2710:	0000b918 	andeq	fp, r0, r8, lsl r9
    2714:	05500110 	ldrbeq	r0, [r0, #-272]	; 0x110
    2718:	00b33803 	adcseq	r3, r3, r3, lsl #16
    271c:	7d021000 	stcvc	0, cr1, [r2, #-0]
    2720:	74030500 	strvc	r0, [r3], #-1280	; 0x500
    2724:	000000bb 	strheq	r0, [r0], -fp
    2728:	00917013 	addseq	r7, r1, r3, lsl r0
    272c:	00119a00 	andseq	r9, r1, r0, lsl #20
    2730:	91801300 	orrls	r1, r0, r0, lsl #6
    2734:	11930000 	orrsne	r0, r3, r0
    2738:	9c0f0000 	stcls	0, cr0, [pc], {-0}
    273c:	72000091 	andvc	r0, r0, #145	; 0x91
    2740:	c6000011 			; <UNDEFINED> instruction: 0xc6000011
    2744:	1000000b 	andne	r0, r0, fp
    2748:	08025301 	stmdaeq	r2, {r0, r8, r9, ip, lr}
    274c:	5201107f 	andpl	r1, r1, #127	; 0x7f
    2750:	bc880305 	stclt	3, cr0, [r8], {5}
    2754:	01100000 	tsteq	r0, r0
    2758:	18030551 	stmdane	r3, {r0, r4, r6, r8, sl}
    275c:	100000b9 	strhne	r0, [r0], -r9
    2760:	03055001 	movweq	r5, #20481	; 0x5001
    2764:	0000b338 	andeq	fp, r0, r8, lsr r3
    2768:	007d0210 	rsbseq	r0, sp, r0, lsl r2
    276c:	bb840305 	bllt	fe103388 <__bss_end__+0xfe0f6960>
    2770:	13000000 	movwne	r0, #0
    2774:	000091a0 	andeq	r9, r0, r0, lsr #3
    2778:	0000119a 	muleq	r0, sl, r1
    277c:	0091b013 	addseq	fp, r1, r3, lsl r0
    2780:	00119300 	andseq	r9, r1, r0, lsl #6
    2784:	91cc0f00 	bicls	r0, ip, r0, lsl #30
    2788:	11720000 	cmnne	r2, r0
    278c:	0c110000 	ldceq	0, cr0, [r1], {-0}
    2790:	01100000 	tsteq	r0, r0
    2794:	80080253 	andhi	r0, r8, r3, asr r2
    2798:	05520110 	ldrbeq	r0, [r2, #-272]	; 0x110
    279c:	00bc8803 	adcseq	r8, ip, r3, lsl #16
    27a0:	51011000 	mrspl	r1, (UNDEF: 1)
    27a4:	b9180305 	ldmdblt	r8, {r0, r2, r8, r9}
    27a8:	01100000 	tsteq	r0, r0
    27ac:	38030550 	stmdacc	r3, {r4, r6, r8, sl}
    27b0:	100000b3 	strhne	r0, [r0], -r3
    27b4:	05007d02 	streq	r7, [r0, #-3330]	; 0xd02
    27b8:	00bb9003 	adcseq	r9, fp, r3
    27bc:	d0130000 	andsle	r0, r3, r0
    27c0:	9a000091 	bls	2a0c <__code_start__-0x55f4>
    27c4:	13000011 	movwne	r0, #17
    27c8:	000091e0 	andeq	r9, r0, r0, ror #3
    27cc:	00001193 	muleq	r0, r3, r1
    27d0:	0091fc0f 	addseq	pc, r1, pc, lsl #24
    27d4:	00117200 	andseq	r7, r1, r0, lsl #4
    27d8:	000c5c00 	andeq	r5, ip, r0, lsl #24
    27dc:	53011000 	movwpl	r1, #4096	; 0x1000
    27e0:	10810802 	addne	r0, r1, r2, lsl #16
    27e4:	03055201 	movweq	r5, #20993	; 0x5201
    27e8:	0000bc88 	andeq	fp, r0, r8, lsl #25
    27ec:	05510110 	ldrbeq	r0, [r1, #-272]	; 0x110
    27f0:	00b91803 	adcseq	r1, r9, r3, lsl #16
    27f4:	50011000 	andpl	r1, r1, r0
    27f8:	b3380305 	teqlt	r8, #335544320	; 0x14000000
    27fc:	02100000 	andseq	r0, r0, #0
    2800:	0305007d 	movweq	r0, #20605	; 0x507d
    2804:	0000bb9c 	muleq	r0, ip, fp
    2808:	92001300 	andls	r1, r0, #0, 6
    280c:	119a0000 	orrsne	r0, sl, r0
    2810:	10130000 	andsne	r0, r3, r0
    2814:	93000092 	movwls	r0, #146	; 0x92
    2818:	0f000011 	svceq	0x00000011
    281c:	0000922c 	andeq	r9, r0, ip, lsr #4
    2820:	00001172 	andeq	r1, r0, r2, ror r1
    2824:	00000ca7 	andeq	r0, r0, r7, lsr #25
    2828:	02530110 	subseq	r0, r3, #16, 2
    282c:	01108208 	tsteq	r0, r8, lsl #4
    2830:	88030552 	stmdahi	r3, {r1, r4, r6, r8, sl}
    2834:	100000bc 	strhne	r0, [r0], -ip
    2838:	03055101 	movweq	r5, #20737	; 0x5101
    283c:	0000b918 	andeq	fp, r0, r8, lsl r9
    2840:	05500110 	ldrbeq	r0, [r0, #-272]	; 0x110
    2844:	00b33803 	adcseq	r3, r3, r3, lsl #16
    2848:	7d021000 	stcvc	0, cr1, [r2, #-0]
    284c:	a8030500 	stmdage	r3, {r8, sl}
    2850:	000000bb 	strheq	r0, [r0], -fp
    2854:	00923013 	addseq	r3, r2, r3, lsl r0
    2858:	00119a00 	andseq	r9, r1, r0, lsl #20
    285c:	92401300 	subls	r1, r0, #0, 6
    2860:	11930000 	orrsne	r0, r3, r0
    2864:	5c0f0000 	stcpl	0, cr0, [pc], {-0}
    2868:	72000092 	andvc	r0, r0, #146	; 0x92
    286c:	f2000011 	vqadd.s8	d0, d0, d1
    2870:	1000000c 	andne	r0, r0, ip
    2874:	08025301 	stmdaeq	r2, {r0, r8, r9, ip, lr}
    2878:	52011083 	andpl	r1, r1, #131	; 0x83
    287c:	bc880305 	stclt	3, cr0, [r8], {5}
    2880:	01100000 	tsteq	r0, r0
    2884:	18030551 	stmdane	r3, {r0, r4, r6, r8, sl}
    2888:	100000b9 	strhne	r0, [r0], -r9
    288c:	03055001 	movweq	r5, #20481	; 0x5001
    2890:	0000b338 	andeq	fp, r0, r8, lsr r3
    2894:	007d0210 	rsbseq	r0, sp, r0, lsl r2
    2898:	bbb40305 	bllt	fed034b4 <__bss_end__+0xfecf6a8c>
    289c:	13000000 	movwne	r0, #0
    28a0:	00009260 	andeq	r9, r0, r0, ror #4
    28a4:	0000119a 	muleq	r0, sl, r1
    28a8:	00927013 	addseq	r7, r2, r3, lsl r0
    28ac:	00119300 	andseq	r9, r1, r0, lsl #6
    28b0:	928c0f00 	addls	r0, ip, #0, 30
    28b4:	11720000 	cmnne	r2, r0
    28b8:	0d3d0000 	ldceq	0, cr0, [sp, #-0]
    28bc:	01100000 	tsteq	r0, r0
    28c0:	84080253 	strhi	r0, [r8], #-595	; 0x253
    28c4:	05520110 	ldrbeq	r0, [r2, #-272]	; 0x110
    28c8:	00bc8803 	adcseq	r8, ip, r3, lsl #16
    28cc:	51011000 	mrspl	r1, (UNDEF: 1)
    28d0:	b9180305 	ldmdblt	r8, {r0, r2, r8, r9}
    28d4:	01100000 	tsteq	r0, r0
    28d8:	38030550 	stmdacc	r3, {r4, r6, r8, sl}
    28dc:	100000b3 	strhne	r0, [r0], -r3
    28e0:	05007d02 	streq	r7, [r0, #-3330]	; 0xd02
    28e4:	00bbc003 	adcseq	ip, fp, r3
    28e8:	90130000 	andsls	r0, r3, r0
    28ec:	9a000092 	bls	2b3c <__code_start__-0x54c4>
    28f0:	00000011 	andeq	r0, r0, r1, lsl r0
    28f4:	03980405 	orrseq	r0, r8, #83886080	; 0x5000000
    28f8:	7d070000 	stcvc	0, cr0, [r7, #-0]
    28fc:	5d000000 	stcpl	0, cr0, [r0, #-0]
    2900:	0800000d 	stmdaeq	r0, {r0, r2, r3}
    2904:	00000076 	andeq	r0, r0, r6, ror r0
    2908:	4d06000f 	stcmi	0, cr0, [r6, #-60]	; 0xffffffc4
    290c:	1600000d 	strne	r0, [r0], -sp
    2910:	0000035f 	andeq	r0, r0, pc, asr r3
    2914:	03988801 	orrseq	r8, r8, #65536	; 0x10000
    2918:	92c40000 	sbcls	r0, r4, #0
    291c:	00080000 	andeq	r0, r8, r0
    2920:	9c010000 	stcls	0, cr0, [r1], {-0}
    2924:	0005c714 	andeq	ip, r5, r4, lsl r7
    2928:	cc8d0100 	stfgts	f0, [sp], {0}
    292c:	b4000092 	strlt	r0, [r0], #-146	; 0x92
    2930:	01000000 	mrseq	r0, (UNDEF: 0)
    2934:	000ecf9c 	muleq	lr, ip, pc	; <UNPREDICTABLE>
    2938:	00661700 	rsbeq	r1, r6, r0, lsl #14
    293c:	03988e01 	orrseq	r8, r8, #1, 28
    2940:	91020000 	mrsls	r0, (UNDEF: 2)
    2944:	00601574 	rsbeq	r1, r0, r4, ror r5
    2948:	0edf0000 	cdpeq	0, 13, cr0, cr15, cr0, {0}
    294c:	03050000 	movweq	r0, #20480	; 0x5000
    2950:	0000bcd0 	ldrdeq	fp, [r0], -r0
    2954:	0092e818 	addseq	lr, r2, r8, lsl r8
    2958:	00007400 	andeq	r7, r0, r0, lsl #8
    295c:	000eb500 	andeq	fp, lr, r0, lsl #10
    2960:	755f1900 	ldrbvc	r1, [pc, #-2304]	; 2068 <__code_start__-0x5f98>
    2964:	a0010400 	andge	r0, r1, r0, lsl #8
    2968:	00000dd2 	ldrdeq	r0, [r0], -r2
    296c:	0100731a 	tsteq	r0, sl, lsl r3
    2970:	000398a0 	andeq	r9, r3, r0, lsr #17
    2974:	00751a00 	rsbseq	r1, r5, r0, lsl #20
    2978:	002ca001 	eoreq	sl, ip, r1
    297c:	17000000 	strne	r0, [r0, -r0]
    2980:	a0010078 	andge	r0, r1, r8, ror r0
    2984:	00000db4 			; <UNDEFINED> instruction: 0x00000db4
    2988:	651b5301 	ldrvs	r5, [fp, #-769]	; 0x301
    298c:	01007078 	tsteq	r0, r8, ror r0
    2990:	00002ca0 	andeq	r2, r0, r0, lsr #25
    2994:	40808000 	addmi	r8, r0, r0
    2998:	00060d1c 	andeq	r0, r6, ip, lsl sp
    299c:	2ca00100 	stfcss	f0, [r0]
    29a0:	14000000 	strne	r0, [r0], #-0
    29a4:	00061e1d 	andeq	r1, r6, sp, lsl lr
    29a8:	2ca00100 	stfcss	f0, [r0]
    29ac:	ff000000 			; <UNDEFINED> instruction: 0xff000000
    29b0:	92f8130f 	rscsls	r1, r8, #1006632960	; 0x3c000000
    29b4:	11930000 	orrsne	r0, r3, r0
    29b8:	2c0f0000 	stccs	0, cr0, [pc], {-0}
    29bc:	72000093 	andvc	r0, r0, #147	; 0x93
    29c0:	60000011 	andvs	r0, r0, r1, lsl r0
    29c4:	1000000e 	andne	r0, r0, lr
    29c8:	08025301 	stmdaeq	r2, {r0, r8, r9, ip, lr}
    29cc:	520110a0 	andpl	r1, r1, #160	; 0xa0
    29d0:	bcd00305 	ldcllt	3, cr0, [r0], {5}
    29d4:	01100000 	tsteq	r0, r0
    29d8:	18030551 	stmdane	r3, {r0, r4, r6, r8, sl}
    29dc:	100000b9 	strhne	r0, [r0], -r9
    29e0:	03055001 	movweq	r5, #20481	; 0x5001
    29e4:	0000b934 	andeq	fp, r0, r4, lsr r9
    29e8:	107d0210 	rsbsne	r0, sp, r0, lsl r2
    29ec:	02103c01 	andseq	r3, r0, #256	; 0x100
    29f0:	44010c7d 	strmi	r0, [r1], #-3197	; 0xc7d
    29f4:	087d0210 	ldmdaeq	sp!, {r4, r9}^
    29f8:	bc080305 	stclt	3, cr0, [r8], {5}
    29fc:	02100000 	andseq	r0, r0, #0
    2a00:	7402047d 	strvc	r0, [r2], #-1149	; 0x47d
    2a04:	7d021000 	stcvc	0, cr1, [r2, #-0]
    2a08:	00740200 	rsbseq	r0, r4, r0, lsl #4
    2a0c:	93301300 	teqls	r0, #0, 6
    2a10:	119a0000 	orrsne	r0, sl, r0
    2a14:	3c130000 	ldccc	0, cr0, [r3], {-0}
    2a18:	93000093 	movwls	r0, #147	; 0x93
    2a1c:	0f000011 	svceq	0x00000011
    2a20:	00009358 	andeq	r9, r0, r8, asr r3
    2a24:	00001172 	andeq	r1, r0, r2, ror r1
    2a28:	00000eab 	andeq	r0, r0, fp, lsr #29
    2a2c:	02530110 	subseq	r0, r3, #16, 2
    2a30:	0110a008 	tsteq	r0, r8
    2a34:	d0030552 	andle	r0, r3, r2, asr r5
    2a38:	100000bc 	strhne	r0, [r0], -ip
    2a3c:	03055101 	movweq	r5, #20737	; 0x5101
    2a40:	0000b918 	andeq	fp, r0, r8, lsl r9
    2a44:	05500110 	ldrbeq	r0, [r0, #-272]	; 0x110
    2a48:	00b33803 	adcseq	r3, r3, r3, lsl #16
    2a4c:	7d021000 	stcvc	0, cr1, [r2, #-0]
    2a50:	28030500 	stmdacs	r3, {r8, sl}
    2a54:	000000b9 	strheq	r0, [r0], -r9
    2a58:	00935c13 	addseq	r5, r3, r3, lsl ip
    2a5c:	00119a00 	andseq	r9, r1, r0, lsl #20
    2a60:	d8130000 	ldmdale	r3, {}	; <UNPREDICTABLE>
    2a64:	62000092 	andvs	r0, r0, #146	; 0x92
    2a68:	1100000d 	tstne	r0, sp
    2a6c:	000092e8 	andeq	r9, r0, r8, ror #5
    2a70:	00000abd 			; <UNDEFINED> instruction: 0x00000abd
    2a74:	02500110 	subseq	r0, r0, #16, 2
    2a78:	00006c91 	muleq	r0, r1, ip
    2a7c:	00007d07 	andeq	r7, r0, r7, lsl #26
    2a80:	000edf00 	andeq	sp, lr, r0, lsl #30
    2a84:	00760800 	rsbseq	r0, r6, r0, lsl #16
    2a88:	00110000 	andseq	r0, r1, r0
    2a8c:	000ecf06 	andeq	ip, lr, r6, lsl #30
    2a90:	04d30c00 	ldrbeq	r0, [r3], #3072	; 0xc00
    2a94:	a3010000 	movwge	r0, #4096	; 0x1000
    2a98:	00009380 	andeq	r9, r0, r0, lsl #7
    2a9c:	000001d0 	ldrdeq	r0, [r0], -r0	; <UNPREDICTABLE>
    2aa0:	11279c01 	teqne	r7, r1, lsl #24
    2aa4:	660d0000 	strvs	r0, [sp], -r0
    2aa8:	47a30100 	strmi	r0, [r3, r0, lsl #2]!
    2aac:	ab00000d 	blge	2ae8 <__code_start__-0x5518>
    2ab0:	0f00000e 	svceq	0x0000000e
    2ab4:	00009390 	muleq	r0, r0, r3
    2ab8:	00001172 	andeq	r1, r0, r2, ror r1
    2abc:	00000f1d 	andeq	r0, r0, sp, lsl pc
    2ac0:	05500110 	ldrbeq	r0, [r0, #-272]	; 0x110
    2ac4:	00bc1803 	adcseq	r1, ip, r3, lsl #16
    2ac8:	9c0f0000 	stcls	0, cr0, [pc], {-0}
    2acc:	72000093 	andvc	r0, r0, #147	; 0x93
    2ad0:	3a000011 	bcc	2b1c <__code_start__-0x54e4>
    2ad4:	1000000f 	andne	r0, r0, pc
    2ad8:	74025101 	strvc	r5, [r2], #-257	; 0x101
    2adc:	50011000 	andpl	r1, r1, r0
    2ae0:	bc380305 	ldclt	3, cr0, [r8], #-20	; 0xffffffec
    2ae4:	0f000000 	svceq	0x00000000
    2ae8:	000093b0 			; <UNDEFINED> instruction: 0x000093b0
    2aec:	00001172 	andeq	r1, r0, r2, ror r1
    2af0:	00000f5a 	andeq	r0, r0, sl, asr pc
    2af4:	05520110 	ldrbeq	r0, [r2, #-272]	; 0x110
    2af8:	00bc0803 	adcseq	r0, ip, r3, lsl #16
    2afc:	50011000 	andpl	r1, r1, r0
    2b00:	badc0305 	blt	ff70371c <__bss_end__+0xff6f6cf4>
    2b04:	0f000000 	svceq	0x00000000
    2b08:	000093c8 	andeq	r9, r0, r8, asr #7
    2b0c:	00001172 	andeq	r1, r0, r2, ror r1
    2b10:	00000f71 	andeq	r0, r0, r1, ror pc
    2b14:	05500110 	ldrbeq	r0, [r0, #-272]	; 0x110
    2b18:	00bae803 	adcseq	lr, sl, r3, lsl #16
    2b1c:	dc0f0000 	stcle	0, cr0, [pc], {-0}
    2b20:	72000093 	andvc	r0, r0, #147	; 0x93
    2b24:	88000011 	stmdahi	r0, {r0, r4}
    2b28:	1000000f 	andne	r0, r0, pc
    2b2c:	03055001 	movweq	r5, #20481	; 0x5001
    2b30:	0000bc40 	andeq	fp, r0, r0, asr #24
    2b34:	93e40f00 	mvnls	r0, #0, 30
    2b38:	11720000 	cmnne	r2, r0
    2b3c:	0f9f0000 	svceq	0x009f0000
    2b40:	01100000 	tsteq	r0, r0
    2b44:	54030550 	strpl	r0, [r3], #-1360	; 0x550
    2b48:	000000bc 	strheq	r0, [r0], -ip
    2b4c:	0093fc0f 	addseq	pc, r3, pc, lsl #24
    2b50:	00117200 	andseq	r7, r1, r0, lsl #4
    2b54:	000fbf00 	andeq	fp, pc, r0, lsl #30
    2b58:	52011000 	andpl	r1, r1, #0
    2b5c:	bbfc0305 	bllt	fff03778 <__bss_end__+0xffef6d50>
    2b60:	01100000 	tsteq	r0, r0
    2b64:	dc030550 	cfstr32le	mvfx0, [r3], {80}	; 0x50
    2b68:	000000ba 	strheq	r0, [r0], -sl
    2b6c:	0094100f 	addseq	r1, r4, pc
    2b70:	00117200 	andseq	r7, r1, r0, lsl #4
    2b74:	000fdf00 	andeq	sp, pc, r0, lsl #30
    2b78:	52011000 	andpl	r1, r1, #0
    2b7c:	bbf80305 	bllt	ffe03798 <__bss_end__+0xffdf6d70>
    2b80:	01100000 	tsteq	r0, r0
    2b84:	dc030550 	cfstr32le	mvfx0, [r3], {80}	; 0x50
    2b88:	000000ba 	strheq	r0, [r0], -sl
    2b8c:	0094240f 	addseq	r2, r4, pc, lsl #8
    2b90:	00117200 	andseq	r7, r1, r0, lsl #4
    2b94:	000fff00 	andeq	pc, pc, r0, lsl #30
    2b98:	52011000 	andpl	r1, r1, #0
    2b9c:	bbf40305 	bllt	ffd037b8 <__bss_end__+0xffcf6d90>
    2ba0:	01100000 	tsteq	r0, r0
    2ba4:	dc030550 	cfstr32le	mvfx0, [r3], {80}	; 0x50
    2ba8:	000000ba 	strheq	r0, [r0], -sl
    2bac:	00943c0f 	addseq	r3, r4, pc, lsl #24
    2bb0:	00117200 	andseq	r7, r1, r0, lsl #4
    2bb4:	00101f00 	andseq	r1, r0, r0, lsl #30
    2bb8:	52011000 	andpl	r1, r1, #0
    2bbc:	bbf00305 	bllt	ffc037d8 <__bss_end__+0xffbf6db0>
    2bc0:	01100000 	tsteq	r0, r0
    2bc4:	dc030550 	cfstr32le	mvfx0, [r3], {80}	; 0x50
    2bc8:	000000ba 	strheq	r0, [r0], -sl
    2bcc:	0094540f 	addseq	r5, r4, pc, lsl #8
    2bd0:	00117200 	andseq	r7, r1, r0, lsl #4
    2bd4:	00103f00 	andseq	r3, r0, r0, lsl #30
    2bd8:	52011000 	andpl	r1, r1, #0
    2bdc:	bbec0305 	bllt	ffb037f8 <__bss_end__+0xffaf6dd0>
    2be0:	01100000 	tsteq	r0, r0
    2be4:	dc030550 	cfstr32le	mvfx0, [r3], {80}	; 0x50
    2be8:	000000ba 	strheq	r0, [r0], -sl
    2bec:	00946c0f 	addseq	r6, r4, pc, lsl #24
    2bf0:	00117200 	andseq	r7, r1, r0, lsl #4
    2bf4:	00105f00 	andseq	r5, r0, r0, lsl #30
    2bf8:	52011000 	andpl	r1, r1, #0
    2bfc:	bbe80305 	bllt	ffa03818 <__bss_end__+0xff9f6df0>
    2c00:	01100000 	tsteq	r0, r0
    2c04:	dc030550 	cfstr32le	mvfx0, [r3], {80}	; 0x50
    2c08:	000000ba 	strheq	r0, [r0], -sl
    2c0c:	0094840f 	addseq	r8, r4, pc, lsl #8
    2c10:	00117200 	andseq	r7, r1, r0, lsl #4
    2c14:	00107f00 	andseq	r7, r0, r0, lsl #30
    2c18:	52011000 	andpl	r1, r1, #0
    2c1c:	bbe00305 	bllt	ff803838 <__bss_end__+0xff7f6e10>
    2c20:	01100000 	tsteq	r0, r0
    2c24:	dc030550 	cfstr32le	mvfx0, [r3], {80}	; 0x50
    2c28:	000000ba 	strheq	r0, [r0], -sl
    2c2c:	0094a00f 	addseq	sl, r4, pc
    2c30:	00117200 	andseq	r7, r1, r0, lsl #4
    2c34:	00109600 	andseq	r9, r0, r0, lsl #12
    2c38:	50011000 	andpl	r1, r1, r0
    2c3c:	bae80305 	blt	ffa03858 <__bss_end__+0xff9f6e30>
    2c40:	0f000000 	svceq	0x00000000
    2c44:	000094b8 			; <UNDEFINED> instruction: 0x000094b8
    2c48:	00001172 	andeq	r1, r0, r2, ror r1
    2c4c:	000010b6 	strheq	r1, [r0], -r6
    2c50:	05520110 	ldrbeq	r0, [r2, #-272]	; 0x110
    2c54:	00bbdc03 	adcseq	sp, fp, r3, lsl #24
    2c58:	50011000 	andpl	r1, r1, r0
    2c5c:	badc0305 	blt	ff703878 <__bss_end__+0xff6f6e50>
    2c60:	0f000000 	svceq	0x00000000
    2c64:	000094d0 	ldrdeq	r9, [r0], -r0
    2c68:	00001172 	andeq	r1, r0, r2, ror r1
    2c6c:	000010d6 	ldrdeq	r1, [r0], -r6
    2c70:	05520110 	ldrbeq	r0, [r2, #-272]	; 0x110
    2c74:	00bbd803 	adcseq	sp, fp, r3, lsl #16
    2c78:	50011000 	andpl	r1, r1, r0
    2c7c:	badc0305 	blt	ff703898 <__bss_end__+0xff6f6e70>
    2c80:	0f000000 	svceq	0x00000000
    2c84:	000094e8 	andeq	r9, r0, r8, ror #9
    2c88:	00001172 	andeq	r1, r0, r2, ror r1
    2c8c:	000010f6 	strdeq	r1, [r0], -r6
    2c90:	05520110 	ldrbeq	r0, [r2, #-272]	; 0x110
    2c94:	00bbd403 	adcseq	sp, fp, r3, lsl #8
    2c98:	50011000 	andpl	r1, r1, r0
    2c9c:	badc0305 	blt	ff7038b8 <__bss_end__+0xff6f6e90>
    2ca0:	0f000000 	svceq	0x00000000
    2ca4:	000094fc 	strdeq	r9, [r0], -ip
    2ca8:	00001172 	andeq	r1, r0, r2, ror r1
    2cac:	00001116 	andeq	r1, r0, r6, lsl r1
    2cb0:	05520110 	ldrbeq	r0, [r2, #-272]	; 0x110
    2cb4:	00bbd003 	adcseq	sp, fp, r3
    2cb8:	50011000 	andpl	r1, r1, r0
    2cbc:	badc0305 	blt	ff7038d8 <__bss_end__+0xff6f6eb0>
    2cc0:	11000000 	mrsne	r0, (UNDEF: 0)
    2cc4:	00009504 	andeq	r9, r0, r4, lsl #10
    2cc8:	00000abd 			; <UNDEFINED> instruction: 0x00000abd
    2ccc:	02500110 	subseq	r0, r0, #16, 2
    2cd0:	00000074 	andeq	r0, r0, r4, ror r0
    2cd4:	0006260c 	andeq	r2, r6, ip, lsl #12
    2cd8:	50bd0100 	adcspl	r0, sp, r0, lsl #2
    2cdc:	14000095 	strne	r0, [r0], #-149	; 0x95
    2ce0:	01000000 	mrseq	r0, (UNDEF: 0)
    2ce4:	0011589c 	mulseq	r1, ip, r8
    2ce8:	95581300 	ldrbls	r1, [r8, #-768]	; 0x300
    2cec:	046e0000 	strbteq	r0, [lr], #-0
    2cf0:	5c130000 	ldcpl	0, cr0, [r3], {-0}
    2cf4:	12000095 	andne	r0, r0, #149	; 0x95
    2cf8:	1300000a 	movwne	r0, #10
    2cfc:	00009560 	andeq	r9, r0, r0, ror #10
    2d00:	00000d77 	andeq	r0, r0, r7, ror sp
    2d04:	05d91e00 	ldrbeq	r1, [r9, #3584]	; 0xe00
    2d08:	05050000 	streq	r0, [r5, #-0]
    2d0c:	0000005d 	andeq	r0, r0, sp, asr r0
    2d10:	00001172 	andeq	r1, r0, r2, ror r1
    2d14:	00041e1f 	andeq	r1, r4, pc, lsl lr
    2d18:	00251f00 	eoreq	r1, r5, r0, lsl #30
    2d1c:	1e000000 	cdpne	0, 0, cr0, cr0, cr0, {0}
    2d20:	00000a9d 	muleq	r0, sp, sl
    2d24:	00252906 	eoreq	r2, r5, r6, lsl #18
    2d28:	11880000 	orrne	r0, r8, r0
    2d2c:	841f0000 	ldrhi	r0, [pc], #-0	; 2d34 <__code_start__-0x52cc>
    2d30:	20000000 	andcs	r0, r0, r0
    2d34:	04dd2100 	ldrbeq	r2, [sp], #256	; 0x100
    2d38:	6e070000 	cdpvs	0, 0, cr0, cr7, cr0, {0}
    2d3c:	0000005d 	andeq	r0, r0, sp, asr r0
    2d40:	0001d522 	andeq	sp, r1, r2, lsr #10
    2d44:	221e0600 	andscs	r0, lr, #0, 12
    2d48:	0000004a 	andeq	r0, r0, sl, asr #32
    2d4c:	a7006506 	strge	r6, [r0, -r6, lsl #10]
    2d50:	04000016 	streq	r0, [r0], #-22
    2d54:	00065c00 	andeq	r5, r6, r0, lsl #24
    2d58:	7c010400 	cfstrsvc	mvf0, [r1], {-0}
    2d5c:	01000000 	mrseq	r0, (UNDEF: 0)
    2d60:	00000715 	andeq	r0, r0, r5, lsl r7
    2d64:	00000171 	andeq	r0, r0, r1, ror r1
    2d68:	00009564 	andeq	r9, r0, r4, ror #10
    2d6c:	00000a88 	andeq	r0, r0, r8, lsl #21
    2d70:	00000727 	andeq	r0, r0, r7, lsr #14
    2d74:	69050402 	stmdbvs	r5, {r1, sl}
    2d78:	0300746e 	movweq	r7, #1134	; 0x46e
    2d7c:	00f30704 	rscseq	r0, r3, r4, lsl #14
    2d80:	01030000 	mrseq	r0, (UNDEF: 3)
    2d84:	00003e06 	andeq	r3, r0, r6, lsl #28
    2d88:	05020300 	streq	r0, [r2, #-768]	; 0x300
    2d8c:	00000149 	andeq	r0, r0, r9, asr #2
    2d90:	2c050403 	cfstrscs	mvf0, [r5], {3}
    2d94:	03000001 	movweq	r0, #1
    2d98:	01270508 	teqeq	r7, r8, lsl #10
    2d9c:	01030000 	mrseq	r0, (UNDEF: 3)
    2da0:	00003c08 	andeq	r3, r0, r8, lsl #24
    2da4:	07020300 	streq	r0, [r2, -r0, lsl #6]
    2da8:	00000012 	andeq	r0, r0, r2, lsl r0
    2dac:	00005704 	andeq	r5, r0, r4, lsl #14
    2db0:	68340500 	ldmdavs	r4!, {r8, sl}
    2db4:	03000000 	movweq	r0, #0
    2db8:	00ee0704 	rsceq	r0, lr, r4, lsl #14
    2dbc:	08030000 	stmdaeq	r3, {}	; <UNPREDICTABLE>
    2dc0:	0000e907 	andeq	lr, r0, r7, lsl #18
    2dc4:	07040300 	streq	r0, [r4, -r0, lsl #6]
    2dc8:	00000110 	andeq	r0, r0, r0, lsl r1
    2dcc:	01030405 	tsteq	r3, r5, lsl #8
    2dd0:	00004508 	andeq	r4, r0, r8, lsl #10
    2dd4:	8c040600 	stchi	6, cr0, [r4], {-0}
    2dd8:	07000000 	streq	r0, [r0, -r0]
    2ddc:	0000007f 	andeq	r0, r0, pc, ror r0
    2de0:	00038f08 	andeq	r8, r3, r8, lsl #30
    2de4:	46040400 	strmi	r0, [r4], -r0, lsl #8
    2de8:	00000167 	andeq	r0, r0, r7, ror #2
    2dec:	67617409 	strbvs	r7, [r1, -r9, lsl #8]!
    2df0:	2c480400 	cfstrdcs	mvd0, [r8], {-0}
    2df4:	04000000 	streq	r0, [r0], #-0
    2df8:	09001e02 	stmdbeq	r0, {r1, r9, sl, fp, ip}
    2dfc:	49040042 	stmdbmi	r4, {r1, r6}
    2e00:	0000002c 	andeq	r0, r0, ip, lsr #32
    2e04:	001d0104 	andseq	r0, sp, r4, lsl #2
    2e08:	04004309 	streq	r4, [r0], #-777	; 0x309
    2e0c:	00002c4a 	andeq	r2, r0, sl, asr #24
    2e10:	1c010400 	cfstrsne	mvf0, [r1], {-0}
    2e14:	4e580900 	cdpmi	9, 5, cr0, cr8, cr0, {0}
    2e18:	2c4b0400 	cfstrdcs	mvd0, [fp], {-0}
    2e1c:	04000000 	streq	r0, [r0], #-0
    2e20:	0a001b01 	beq	9a2c <data_abort_vector+0x250>
    2e24:	00000529 	andeq	r0, r0, r9, lsr #10
    2e28:	002c4e04 	eoreq	r4, ip, r4, lsl #28
    2e2c:	04040000 	streq	r0, [r4], #-0
    2e30:	49090017 	stmdbmi	r9, {r0, r1, r2, r4}
    2e34:	0400504d 	streq	r5, [r0], #-77	; 0x4d
    2e38:	00002c4f 	andeq	r2, r0, pc, asr #24
    2e3c:	16010400 	strne	r0, [r1], -r0, lsl #8
    2e40:	50410900 	subpl	r0, r1, r0, lsl #18
    2e44:	2c520400 	cfldrdcs	mvd0, [r2], {-0}
    2e48:	04000000 	streq	r0, [r0], #-0
    2e4c:	09001402 	stmdbeq	r0, {r1, sl, ip}
    2e50:	00584554 	subseq	r4, r8, r4, asr r5
    2e54:	002c5304 	eoreq	r5, ip, r4, lsl #6
    2e58:	03040000 	movweq	r0, #16384	; 0x4000
    2e5c:	41090011 	tstmi	r9, r1, lsl r0
    2e60:	04005850 	streq	r5, [r0], #-2128	; 0x850
    2e64:	00002c54 	andeq	r2, r0, r4, asr ip
    2e68:	10010400 	andne	r0, r1, r0, lsl #8
    2e6c:	00530900 	subseq	r0, r3, r0, lsl #18
    2e70:	002c5504 	eoreq	r5, ip, r4, lsl #10
    2e74:	01040000 	mrseq	r0, (UNDEF: 4)
    2e78:	6e09000f 	cdpvs	0, 0, cr0, cr9, cr15, {0}
    2e7c:	56040047 	strpl	r0, [r4], -r7, asr #32
    2e80:	0000002c 	andeq	r0, r0, ip, lsr #32
    2e84:	000e0104 	andeq	r0, lr, r4, lsl #2
    2e88:	00015b0a 	andeq	r5, r1, sl, lsl #22
    2e8c:	2c570400 	cfldrdcs	mvd0, [r7], {-0}
    2e90:	04000000 	streq	r0, [r0], #-0
    2e94:	0a000d01 	beq	62a0 <__code_start__-0x1d60>
    2e98:	00000536 	andeq	r0, r0, r6, lsr r5
    2e9c:	002c5804 	eoreq	r5, ip, r4, lsl #16
    2ea0:	01040000 	mrseq	r0, (UNDEF: 4)
    2ea4:	a90a000c 	stmdbge	sl, {r2, r3}
    2ea8:	04000002 	streq	r0, [r0], #-2
    2eac:	00002c59 	andeq	r2, r0, r9, asr ip
    2eb0:	000c0400 	andeq	r0, ip, r0, lsl #8
    2eb4:	07040000 	streq	r0, [r4, -r0]
    2eb8:	04000003 	streq	r0, [r0], #-3
    2ebc:	0000915a 	andeq	r9, r0, sl, asr r1
    2ec0:	04010b00 	streq	r0, [r1], #-2816	; 0xb00
    2ec4:	00019368 	andeq	r9, r1, r8, ror #6
    2ec8:	08430c00 	stmdaeq	r3, {sl, fp}^
    2ecc:	0c000000 	stceq	0, cr0, [r0], {-0}
    2ed0:	000007a1 	andeq	r0, r0, r1, lsr #15
    2ed4:	07c70c01 	strbeq	r0, [r7, r1, lsl #24]
    2ed8:	0c020000 	stceq	0, cr0, [r2], {-0}
    2edc:	00000720 	andeq	r0, r0, r0, lsr #14
    2ee0:	0c0d0003 	stceq	0, cr0, [sp], {3}
    2ee4:	01c02f06 	biceq	r2, r0, r6, lsl #30
    2ee8:	610e0000 	mrsvs	r0, (UNDEF: 14)
    2eec:	06000008 	streq	r0, [r0], -r8
    2ef0:	00005d30 	andeq	r5, r0, r0, lsr sp
    2ef4:	a40e0000 	strge	r0, [lr], #-0
    2ef8:	06000008 	streq	r0, [r0], -r8
    2efc:	00005d31 	andeq	r5, r0, r1, lsr sp
    2f00:	ee0e0400 	cfcpys	mvf0, mvf14
    2f04:	06000007 	streq	r0, [r0], -r7
    2f08:	00005d32 	andeq	r5, r0, r2, lsr sp
    2f0c:	04000800 	streq	r0, [r0], #-2048	; 0x800
    2f10:	00000962 	andeq	r0, r0, r2, ror #18
    2f14:	01933306 	orrseq	r3, r3, r6, lsl #6
    2f18:	040b0000 	streq	r0, [fp], #-0
    2f1c:	01dd1301 	bicseq	r1, sp, r1, lsl #6
    2f20:	930c0000 	movwls	r0, #49152	; 0xc000
    2f24:	80000005 	andhi	r0, r0, r5
    2f28:	0000c080 	andeq	ip, r0, r0, lsl #1
    2f2c:	1601010b 	strne	r0, [r1], -fp, lsl #2
    2f30:	000001f2 	strdeq	r0, [r0], -r2
    2f34:	00074b0c 	andeq	r4, r7, ip, lsl #22
    2f38:	2c0c0100 	stfcss	f0, [ip], {-0}
    2f3c:	02000007 	andeq	r0, r0, #7
    2f40:	01010b00 	tsteq	r1, r0, lsl #22
    2f44:	00026d60 	andeq	r6, r2, r0, ror #26
    2f48:	07350c00 	ldreq	r0, [r5, -r0, lsl #24]!
    2f4c:	0c010000 	stceq	0, cr0, [r1], {-0}
    2f50:	0000096f 	andeq	r0, r0, pc, ror #18
    2f54:	086c0c00 	stmdaeq	ip!, {sl, fp}^
    2f58:	0c030000 	stceq	0, cr0, [r3], {-0}
    2f5c:	000006c8 	andeq	r0, r0, r8, asr #13
    2f60:	087b0c04 	ldmdaeq	fp!, {r2, sl, fp}^
    2f64:	0c0c0000 	stceq	0, cr0, [ip], {-0}
    2f68:	000007d4 	ldrdeq	r0, [r0], -r4
    2f6c:	07770c0e 	ldrbeq	r0, [r7, -lr, lsl #24]!
    2f70:	0c050000 	stceq	0, cr0, [r5], {-0}
    2f74:	0000090b 	andeq	r0, r0, fp, lsl #18
    2f78:	080e0c07 	stmdaeq	lr, {r0, r1, r2, sl, fp}
    2f7c:	0c090000 	stceq	0, cr0, [r9], {-0}
    2f80:	000006bc 			; <UNDEFINED> instruction: 0x000006bc
    2f84:	097d0c0b 	ldmdbeq	sp!, {r0, r1, r3, sl, fp}^
    2f88:	0c0d0000 	stceq	0, cr0, [sp], {-0}
    2f8c:	00000851 	andeq	r0, r0, r1, asr r8
    2f90:	09250c0f 	stmdbeq	r5!, {r0, r1, r2, r3, sl, fp}
    2f94:	0c080000 	stceq	0, cr0, [r8], {-0}
    2f98:	00000831 	andeq	r0, r0, r1, lsr r8
    2f9c:	070c0c0a 	streq	r0, [ip, -sl, lsl #24]
    2fa0:	0c140000 	ldceq	0, cr0, [r4], {-0}
    2fa4:	000008ca 	andeq	r0, r0, sl, asr #17
    2fa8:	06fd0c1a 	usateq	r0, #29, sl, lsl #24
    2fac:	0c160000 	ldceq	0, cr0, [r6], {-0}
    2fb0:	000006db 	ldrdeq	r0, [r0], -fp
    2fb4:	073f0c18 			; <UNDEFINED> instruction: 0x073f0c18
    2fb8:	00020000 	andeq	r0, r2, r0
    2fbc:	00091c0f 	andeq	r1, r9, pc, lsl #24
    2fc0:	5d5f0300 	ldclpl	3, cr0, [pc, #-0]	; 2fc8 <__code_start__-0x5038>
    2fc4:	03000000 	movweq	r0, #0
    2fc8:	00000289 	andeq	r0, r0, r9, lsl #5
    2fcc:	74657210 	strbtvc	r7, [r5], #-528	; 0x210
    2fd0:	5d5f0300 	ldclpl	3, cr0, [pc, #-0]	; 2fd8 <__code_start__-0x5028>
    2fd4:	00000000 	andeq	r0, r0, r0
    2fd8:	00081d0f 	andeq	r1, r8, pc, lsl #26
    2fdc:	5d630300 	stclpl	3, cr0, [r3, #-0]
    2fe0:	03000000 	movweq	r0, #0
    2fe4:	000002a5 	andeq	r0, r0, r5, lsr #5
    2fe8:	74657210 	strbtvc	r7, [r5], #-528	; 0x210
    2fec:	5d630300 	stclpl	3, cr0, [r3, #-0]
    2ff0:	00000000 	andeq	r0, r0, r0
    2ff4:	0008fc11 	andeq	pc, r8, r1, lsl ip	; <UNPREDICTABLE>
    2ff8:	c01e0100 	andsgt	r0, lr, r0, lsl #2
    2ffc:	64000001 	strvs	r0, [r0], #-1
    3000:	1c000095 	stcne	0, cr0, [r0], {149}	; 0x95
    3004:	01000000 	mrseq	r0, (UNDEF: 0)
    3008:	0895129c 	ldmeq	r5, {r2, r3, r4, r7, r9, ip}
    300c:	21010000 	mrscs	r0, (UNDEF: 1)
    3010:	00009580 	andeq	r9, r0, r0, lsl #11
    3014:	00000018 	andeq	r0, r0, r8, lsl r0
    3018:	02f79c01 	rscseq	r9, r7, #256	; 0x100
    301c:	a4130000 	ldrge	r0, [r3], #-0
    3020:	01000008 	tsteq	r0, r8
    3024:	00005d21 	andeq	r5, r0, r1, lsr #26
    3028:	13500100 	cmpne	r0, #0, 2
    302c:	00000861 	andeq	r0, r0, r1, ror #16
    3030:	005d2101 	subseq	r2, sp, r1, lsl #2
    3034:	51010000 	mrspl	r0, (UNDEF: 1)
    3038:	0007f413 	andeq	pc, r7, r3, lsl r4	; <UNPREDICTABLE>
    303c:	5d210100 	stfpls	f0, [r1, #-0]
    3040:	01000000 	mrseq	r0, (UNDEF: 0)
    3044:	35120052 	ldrcc	r0, [r2, #-82]	; 0x52
    3048:	01000009 	tsteq	r0, r9
    304c:	00959828 	addseq	r9, r5, r8, lsr #16
    3050:	0000f000 	andeq	pc, r0, r0
    3054:	859c0100 	ldrhi	r0, [ip, #256]	; 0x100
    3058:	14000004 	strne	r0, [r0], #-4
    305c:	01006370 	tsteq	r0, r0, ror r3
    3060:	00005d28 	andeq	r5, r0, r8, lsr #26
    3064:	000ec900 	andeq	ip, lr, r0, lsl #18
    3068:	02b21500 	adcseq	r1, r2, #0, 10
    306c:	28010000 	stmdacs	r1, {}	; <UNPREDICTABLE>
    3070:	0000005d 	andeq	r0, r0, sp, asr r0
    3074:	00000ef5 	strdeq	r0, [r0], -r5
    3078:	0007f415 	andeq	pc, r7, r5, lsl r4	; <UNPREDICTABLE>
    307c:	5d280100 	stfpls	f0, [r8, #-0]
    3080:	21000000 	mrscs	r0, (UNDEF: 0)
    3084:	1600000f 	strne	r0, [r0], -pc
    3088:	2901006c 	stmdbcs	r1, {r2, r3, r5, r6}
    308c:	000001c0 	andeq	r0, r0, r0, asr #3
    3090:	17649102 	strbne	r9, [r4, -r2, lsl #2]!
    3094:	00000060 	andeq	r0, r0, r0, rrx
    3098:	00000495 	muleq	r0, r5, r4
    309c:	c1dc0305 	bicsgt	r0, ip, r5, lsl #6
    30a0:	b4180000 	ldrlt	r0, [r8], #-0
    30a4:	a5000095 	strge	r0, [r0, #-149]	; 0x95
    30a8:	67000002 	strvs	r0, [r0, -r2]
    30ac:	19000003 	stmdbne	r0, {r0, r1}
    30b0:	91025001 	tstls	r2, r1
    30b4:	c41a005c 	ldrgt	r0, [sl], #-92	; 0x5c
    30b8:	c8000095 	stmdagt	r0, {r0, r2, r4, r7}
    30bc:	18000015 	stmdane	r0, {r0, r2, r4}
    30c0:	000095e0 	andeq	r9, r0, r0, ror #11
    30c4:	000015cf 	andeq	r1, r0, pc, asr #11
    30c8:	000003a9 	andeq	r0, r0, r9, lsr #7
    30cc:	02530119 	subseq	r0, r3, #1073741830	; 0x40000006
    30d0:	01192a08 	tsteq	r9, r8, lsl #20
    30d4:	dc030552 	cfstr32le	mvfx0, [r3], {82}	; 0x52
    30d8:	190000c1 	stmdbne	r0, {r0, r6, r7}
    30dc:	03055101 	movweq	r5, #20737	; 0x5101
    30e0:	0000bce4 	andeq	fp, r0, r4, ror #25
    30e4:	05500119 	ldrbeq	r0, [r0, #-281]	; 0x119
    30e8:	00b33803 	adcseq	r3, r3, r3, lsl #16
    30ec:	7d021900 	stcvc	9, cr1, [r2, #-0]
    30f0:	f0030500 			; <UNDEFINED> instruction: 0xf0030500
    30f4:	000000bc 	strheq	r0, [r0], -ip
    30f8:	0095e41a 	addseq	lr, r5, sl, lsl r4
    30fc:	0015e500 	andseq	lr, r5, r0, lsl #10
    3100:	95f41a00 	ldrbls	r1, [r4, #2560]!	; 0xa00
    3104:	15c80000 	strbne	r0, [r8]
    3108:	10180000 	andsne	r0, r8, r0
    310c:	cf000096 	svcgt	0x00000096
    3110:	f4000015 	vst4.8	{d0-d3}, [r0 :64], r5
    3114:	19000003 	stmdbne	r0, {r0, r1}
    3118:	08025301 	stmdaeq	r2, {r0, r8, r9, ip, lr}
    311c:	5201192b 	andpl	r1, r1, #704512	; 0xac000
    3120:	c1dc0305 	bicsgt	r0, ip, r5, lsl #6
    3124:	01190000 	tsteq	r9, r0
    3128:	e4030551 	str	r0, [r3], #-1361	; 0x551
    312c:	190000bc 	stmdbne	r0, {r2, r3, r4, r5, r7}
    3130:	03055001 	movweq	r5, #20481	; 0x5001
    3134:	0000b338 	andeq	fp, r0, r8, lsr r3
    3138:	007d0219 	rsbseq	r0, sp, r9, lsl r2
    313c:	bd080305 	stclt	3, cr0, [r8, #-20]	; 0xffffffec
    3140:	1a000000 	bne	3148 <__code_start__-0x4eb8>
    3144:	00009614 	andeq	r9, r0, r4, lsl r6
    3148:	000015e5 	andeq	r1, r0, r5, ror #11
    314c:	0096241a 	addseq	r2, r6, sl, lsl r4
    3150:	0015c800 	andseq	ip, r5, r0, lsl #16
    3154:	96401800 	strbls	r1, [r0], -r0, lsl #16
    3158:	15cf0000 	strbne	r0, [pc]	; 3160 <__code_start__-0x4ea0>
    315c:	043f0000 	ldrteq	r0, [pc], #-0	; 3164 <__code_start__-0x4e9c>
    3160:	01190000 	tsteq	r9, r0
    3164:	2c080253 	sfmcs	f0, 4, [r8], {83}	; 0x53
    3168:	05520119 	ldrbeq	r0, [r2, #-281]	; 0x119
    316c:	00c1dc03 	sbceq	sp, r1, r3, lsl #24
    3170:	51011900 	tstpl	r1, r0, lsl #18
    3174:	bce40305 	stcllt	3, cr0, [r4], #20
    3178:	01190000 	tsteq	r9, r0
    317c:	38030550 	stmdacc	r3, {r4, r6, r8, sl}
    3180:	190000b3 	stmdbne	r0, {r0, r1, r4, r5, r7}
    3184:	05007d02 	streq	r7, [r0, #-3330]	; 0xd02
    3188:	00bd1c03 	adcseq	r1, sp, r3, lsl #24
    318c:	441a0000 	ldrmi	r0, [sl], #-0
    3190:	e5000096 	str	r0, [r0, #-150]	; 0x96
    3194:	18000015 	stmdane	r0, {r0, r2, r4}
    3198:	0000964c 	andeq	r9, r0, ip, asr #12
    319c:	000015cf 	andeq	r1, r0, pc, asr #11
    31a0:	0000045f 	andeq	r0, r0, pc, asr r4
    31a4:	05500119 	ldrbeq	r0, [r0, #-281]	; 0x119
    31a8:	00b39c03 	adcseq	r9, r3, r3, lsl #24
    31ac:	601b0000 	andsvs	r0, fp, r0
    31b0:	cf000096 	svcgt	0x00000096
    31b4:	19000015 	stmdbne	r0, {r0, r2, r4}
    31b8:	75025301 	strvc	r5, [r2, #-769]	; 0x301
    31bc:	52011900 	andpl	r1, r1, #0, 18
    31c0:	19007402 	stmdbne	r0, {r1, sl, ip, sp, lr}
    31c4:	76025101 	strvc	r5, [r2], -r1, lsl #2
    31c8:	50011900 	andpl	r1, r1, r0, lsl #18
    31cc:	bd380305 	ldclt	3, cr0, [r8, #-20]!	; 0xffffffec
    31d0:	00000000 	andeq	r0, r0, r0
    31d4:	00007f1c 	andeq	r7, r0, ip, lsl pc
    31d8:	00049500 	andeq	r9, r4, r0, lsl #10
    31dc:	00761d00 	rsbseq	r1, r6, r0, lsl #26
    31e0:	000e0000 	andeq	r0, lr, r0
    31e4:	00048507 	andeq	r8, r4, r7, lsl #10
    31e8:	00090f00 	andeq	r0, r9, r0, lsl #30
    31ec:	1c020000 	stcne	0, cr0, [r2], {-0}
    31f0:	0000005d 	andeq	r0, r0, sp, asr r0
    31f4:	0004de03 	andeq	sp, r4, r3, lsl #28
    31f8:	00781e00 	rsbseq	r1, r8, r0, lsl #28
    31fc:	005d1c02 	subseq	r1, sp, r2, lsl #24
    3200:	6c1e0000 	ldcvs	0, cr0, [lr], {-0}
    3204:	1c020062 	stcne	0, cr0, [r2], {98}	; 0x62
    3208:	0000002c 	andeq	r0, r0, ip, lsr #32
    320c:	0062751e 	rsbeq	r7, r2, lr, lsl r5
    3210:	002c1c02 	eoreq	r1, ip, r2, lsl #24
    3214:	601f0000 	andsvs	r0, pc, r0
    3218:	ee000000 	cdp	0, 0, cr0, cr0, cr0, {0}
    321c:	09000004 	stmdbeq	r0, {r2}
    3220:	10000000 	andne	r0, r0, r0
    3224:	1f02006e 	svcne	0x0002006e
    3228:	0000002c 	andeq	r0, r0, ip, lsr #32
    322c:	007f1c00 	rsbseq	r1, pc, r0, lsl #24
    3230:	04ee0000 	strbteq	r0, [lr], #0
    3234:	761d0000 	ldrvc	r0, [sp], -r0
    3238:	08000000 	stmdaeq	r0, {}	; <UNPREDICTABLE>
    323c:	04de0700 	ldrbeq	r0, [lr], #1792	; 0x700
    3240:	90200000 	eorls	r0, r0, r0
    3244:	01000009 	tsteq	r0, r9
    3248:	00002c3b 	andeq	r2, r0, fp, lsr ip
    324c:	00968800 	addseq	r8, r6, r0, lsl #16
    3250:	0000a400 	andeq	sl, r0, r0, lsl #8
    3254:	139c0100 	orrsne	r0, ip, #0, 2
    3258:	14000006 	strne	r0, [r0], #-6
    325c:	006d6f64 	rsbeq	r6, sp, r4, ror #30
    3260:	002c3b01 	eoreq	r3, ip, r1, lsl #22
    3264:	0f4d0000 	svceq	0x004d0000
    3268:	78210000 	stmdavc	r1!, {}	; <UNPREDICTABLE>
    326c:	2c3c0100 	ldfcss	f0, [ip], #-0
    3270:	79000000 	stmdbvc	r0, {}	; <UNPREDICTABLE>
    3274:	2200000f 	andcs	r0, r0, #15
    3278:	0000049a 	muleq	r0, sl, r4
    327c:	000096a4 	andeq	r9, r0, r4, lsr #13
    3280:	00000068 	andeq	r0, r0, r8, rrx
    3284:	06093d01 	streq	r3, [r9], -r1, lsl #26
    3288:	bd230000 	stclt	0, cr0, [r3, #-0]
    328c:	a2000004 	andge	r0, r0, #4
    3290:	2300000f 	movwcs	r0, #15
    3294:	000004b3 			; <UNDEFINED> instruction: 0x000004b3
    3298:	0000100a 	andeq	r1, r0, sl
    329c:	0004aa23 	andeq	sl, r4, r3, lsr #20
    32a0:	00105100 	andseq	r5, r0, r0, lsl #2
    32a4:	96a42400 	strtls	r2, [r4], r0, lsl #8
    32a8:	00680000 	rsbeq	r0, r8, r0
    32ac:	d4250000 	strtle	r0, [r5], #-0
    32b0:	7a000004 	bvc	32c8 <__code_start__-0x4d38>
    32b4:	26000010 			; <UNDEFINED> instruction: 0x26000010
    32b8:	000004c7 	andeq	r0, r0, r7, asr #9
    32bc:	c2600305 	rsbgt	r0, r0, #335544320	; 0x14000000
    32c0:	b01a0000 	andslt	r0, sl, r0
    32c4:	c8000096 	stmdagt	r0, {r1, r2, r4, r7}
    32c8:	18000015 	stmdane	r0, {r0, r2, r4}
    32cc:	000096cc 	andeq	r9, r0, ip, asr #13
    32d0:	000015cf 	andeq	r1, r0, pc, asr #11
    32d4:	000005b4 			; <UNDEFINED> instruction: 0x000005b4
    32d8:	01530119 	cmpeq	r3, r9, lsl r1
    32dc:	5201194d 	andpl	r1, r1, #1261568	; 0x134000
    32e0:	c2600305 	rsbgt	r0, r0, #335544320	; 0x14000000
    32e4:	01190000 	tsteq	r9, r0
    32e8:	6c030551 	cfstr32vs	mvfx0, [r3], {81}	; 0x51
    32ec:	190000bd 	stmdbne	r0, {r0, r2, r3, r4, r5, r7}
    32f0:	03055001 	movweq	r5, #20481	; 0x5001
    32f4:	0000b338 	andeq	fp, r0, r8, lsr r3
    32f8:	007d0219 	rsbseq	r0, sp, r9, lsl r2
    32fc:	bd7c0305 	ldcllt	3, cr0, [ip, #-20]!	; 0xffffffec
    3300:	1a000000 	bne	3308 <__code_start__-0x4cf8>
    3304:	000096d0 	ldrdeq	r9, [r0], -r0
    3308:	000015e5 	andeq	r1, r0, r5, ror #11
    330c:	0096dc1a 	addseq	sp, r6, sl, lsl ip
    3310:	0015c800 	andseq	ip, r5, r0, lsl #16
    3314:	96f81800 	ldrbtls	r1, [r8], r0, lsl #16
    3318:	15cf0000 	strbne	r0, [pc]	; 3320 <__code_start__-0x4ce0>
    331c:	05fe0000 	ldrbeq	r0, [lr, #0]!
    3320:	01190000 	tsteq	r9, r0
    3324:	194e0153 	stmdbne	lr, {r0, r1, r4, r6, r8}^
    3328:	03055201 	movweq	r5, #20993	; 0x5201
    332c:	0000c260 	andeq	ip, r0, r0, ror #4
    3330:	05510119 	ldrbeq	r0, [r1, #-281]	; 0x119
    3334:	00bd6c03 	adcseq	r6, sp, r3, lsl #24
    3338:	50011900 	andpl	r1, r1, r0, lsl #18
    333c:	b3380305 	teqlt	r8, #335544320	; 0x14000000
    3340:	02190000 	andseq	r0, r9, #0
    3344:	0305007d 	movweq	r0, #20605	; 0x507d
    3348:	0000bd88 	andeq	fp, r0, r8, lsl #27
    334c:	96fc1a00 	ldrbtls	r1, [ip], r0, lsl #20
    3350:	15e50000 	strbne	r0, [r5, #0]!
    3354:	00000000 	andeq	r0, r0, r0
    3358:	0096981a 	addseq	r9, r6, sl, lsl r8
    335c:	0015ec00 	andseq	lr, r5, r0, lsl #24
    3360:	ef270000 	svc	0x00270000
    3364:	01000008 	tsteq	r0, r8
    3368:	00972c42 	addseq	r2, r7, r2, asr #24
    336c:	00009c00 	andeq	r9, r0, r0, lsl #24
    3370:	0d9c0100 	ldfeqs	f0, [ip]
    3374:	14000007 	strne	r0, [r0], #-7
    3378:	006d6f64 	rsbeq	r6, sp, r4, ror #30
    337c:	002c4201 	eoreq	r4, ip, r1, lsl #4
    3380:	10b80000 	adcsne	r0, r8, r0
    3384:	37150000 	ldrcc	r0, [r5, -r0]
    3388:	01000004 	tsteq	r0, r4
    338c:	00002c42 	andeq	r2, r0, r2, asr #24
    3390:	00111000 	andseq	r1, r1, r0
    3394:	00601700 	rsbeq	r1, r0, r0, lsl #14
    3398:	071d0000 	ldreq	r0, [sp, -r0]
    339c:	03050000 	movweq	r0, #20480	; 0x5000
    33a0:	0000c284 	andeq	ip, r0, r4, lsl #5
    33a4:	63616421 	cmnvs	r1, #553648128	; 0x21000000
    33a8:	2c460100 	stfcse	f0, [r6], {-0}
    33ac:	68000000 	stmdavs	r0, {}	; <UNPREDICTABLE>
    33b0:	1a000011 	bne	33fc <__code_start__-0x4c04>
    33b4:	00009748 	andeq	r9, r0, r8, asr #14
    33b8:	000015c8 	andeq	r1, r0, r8, asr #11
    33bc:	00976418 	addseq	r6, r7, r8, lsl r4
    33c0:	0015cf00 	andseq	ip, r5, r0, lsl #30
    33c4:	0006a600 	andeq	sl, r6, r0, lsl #12
    33c8:	53011900 	movwpl	r1, #6400	; 0x1900
    33cc:	19430802 	stmdbne	r3, {r1, fp}^
    33d0:	03055201 	movweq	r5, #20993	; 0x5201
    33d4:	0000c284 	andeq	ip, r0, r4, lsl #5
    33d8:	05510119 	ldrbeq	r0, [r1, #-281]	; 0x119
    33dc:	00bce403 	adcseq	lr, ip, r3, lsl #8
    33e0:	50011900 	andpl	r1, r1, r0, lsl #18
    33e4:	b3380305 	teqlt	r8, #335544320	; 0x14000000
    33e8:	02190000 	andseq	r0, r9, #0
    33ec:	0305007d 	movweq	r0, #20605	; 0x507d
    33f0:	0000b600 	andeq	fp, r0, r0, lsl #12
    33f4:	97681a00 	strbls	r1, [r8, -r0, lsl #20]!
    33f8:	15e50000 	strbne	r0, [r5, #0]!
    33fc:	741a0000 	ldrvc	r0, [sl], #-0
    3400:	c8000097 	stmdagt	r0, {r0, r1, r2, r4, r7}
    3404:	18000015 	stmdane	r0, {r0, r2, r4}
    3408:	00009790 	muleq	r0, r0, r7
    340c:	000015cf 	andeq	r1, r0, pc, asr #11
    3410:	000006f1 	strdeq	r0, [r0], -r1
    3414:	02530119 	subseq	r0, r3, #1073741830	; 0x40000006
    3418:	01194408 	tsteq	r9, r8, lsl #8
    341c:	84030552 	strhi	r0, [r3], #-1362	; 0x552
    3420:	190000c2 	stmdbne	r0, {r1, r6, r7}
    3424:	03055101 	movweq	r5, #20737	; 0x5101
    3428:	0000bce4 	andeq	fp, r0, r4, ror #25
    342c:	05500119 	ldrbeq	r0, [r0, #-281]	; 0x119
    3430:	00b33803 	adcseq	r3, r3, r3, lsl #16
    3434:	7d021900 	stcvc	9, cr1, [r2, #-0]
    3438:	90030500 	andls	r0, r3, r0, lsl #10
    343c:	000000bd 	strheq	r0, [r0], -sp
    3440:	0097941a 	addseq	r9, r7, sl, lsl r4
    3444:	0015e500 	andseq	lr, r5, r0, lsl #10
    3448:	97981a00 	ldrls	r1, [r8, r0, lsl #20]
    344c:	15ec0000 	strbne	r0, [ip, #0]!
    3450:	ac1a0000 	ldcge	0, cr0, [sl], {-0}
    3454:	f7000097 			; <UNDEFINED> instruction: 0xf7000097
    3458:	00000015 	andeq	r0, r0, r5, lsl r0
    345c:	00007f1c 	andeq	r7, r0, ip, lsl pc
    3460:	00071d00 	andeq	r1, r7, r0, lsl #26
    3464:	00761d00 	rsbseq	r1, r6, r0, lsl #26
    3468:	000c0000 	andeq	r0, ip, r0
    346c:	00070d07 	andeq	r0, r7, r7, lsl #26
    3470:	09442800 	stmdbeq	r4, {fp, sp}^
    3474:	52010000 	andpl	r0, r1, #0
    3478:	000097c8 	andeq	r9, r0, r8, asr #15
    347c:	00000014 	andeq	r0, r0, r4, lsl r0
    3480:	eb129c01 	bl	4aa48c <__bss_end__+0x49da64>
    3484:	01000006 	tsteq	r0, r6
    3488:	0097dc77 	addseq	sp, r7, r7, ror ip
    348c:	00037800 	andeq	r7, r3, r0, lsl #16
    3490:	639c0100 	orrsvs	r0, ip, #0, 2
    3494:	1400000d 	strne	r0, [r0], #-13
    3498:	0100726c 	tsteq	r0, ip, ror #4
    349c:	00002c77 	andeq	r2, r0, r7, ror ip
    34a0:	00118e00 	andseq	r8, r1, r0, lsl #28
    34a4:	07c22900 	strbeq	r2, [r2, r0, lsl #18]
    34a8:	7d010000 	stcvc	0, cr0, [r1, #-0]
    34ac:	0000002c 	andeq	r0, r0, ip, lsr #32
    34b0:	0008612a 	andeq	r6, r8, sl, lsr #2
    34b4:	2c7e0100 	ldfcse	f0, [lr], #-0
    34b8:	01000000 	mrseq	r0, (UNDEF: 0)
    34bc:	07f42b55 	ubfxeq	r2, r5, #22, #21
    34c0:	86010000 	strhi	r0, [r1], -r0
    34c4:	0000002c 	andeq	r0, r0, ip, lsr #32
    34c8:	000011ba 			; <UNDEFINED> instruction: 0x000011ba
    34cc:	00006017 	andeq	r6, r0, r7, lsl r0
    34d0:	000d7300 	andeq	r7, sp, r0, lsl #6
    34d4:	ec030500 	cfstr32	mvfx0, [r3], {-0}
    34d8:	220000c1 	andcs	r0, r0, #193	; 0xc1
    34dc:	0000026d 	andeq	r0, r0, sp, ror #4
    34e0:	000097e8 	andeq	r9, r0, r8, ror #15
    34e4:	00000004 	andeq	r0, r0, r4
    34e8:	07af7d01 	streq	r7, [pc, r1, lsl #26]!
    34ec:	e8240000 	stmda	r4!, {}	; <UNPREDICTABLE>
    34f0:	04000097 	streq	r0, [r0], #-151	; 0x97
    34f4:	2c000000 	stccs	0, cr0, [r0], {-0}
    34f8:	0000027d 	andeq	r0, r0, sp, ror r2
    34fc:	89220000 	stmdbhi	r2!, {}	; <UNPREDICTABLE>
    3500:	ec000002 	stc	0, cr0, [r0], {2}
    3504:	04000097 	streq	r0, [r0], #-151	; 0x97
    3508:	01000000 	mrseq	r0, (UNDEF: 0)
    350c:	0007d67e 	andeq	sp, r7, lr, ror r6
    3510:	97ec2400 	strbls	r2, [ip, r0, lsl #8]!
    3514:	00040000 	andeq	r0, r4, r0
    3518:	99250000 	stmdbls	r5!, {}	; <UNPREDICTABLE>
    351c:	cd000002 	stcgt	0, cr0, [r0, #-8]
    3520:	00000011 	andeq	r0, r0, r1, lsl r0
    3524:	97f81800 	ldrbls	r1, [r8, r0, lsl #16]!
    3528:	15cf0000 	strbne	r0, [pc]	; 3530 <__code_start__-0x4ad0>
    352c:	07ed0000 	strbeq	r0, [sp, r0]!
    3530:	01190000 	tsteq	r9, r0
    3534:	bc030550 	cfstr32lt	mvfx0, [r3], {80}	; 0x50
    3538:	000000bd 	strheq	r0, [r0], -sp
    353c:	00981418 	addseq	r1, r8, r8, lsl r4
    3540:	0002ba00 	andeq	fp, r2, r0, lsl #20
    3544:	00080d00 	andeq	r0, r8, r0, lsl #26
    3548:	52011900 	andpl	r1, r1, #0, 18
    354c:	19007402 	stmdbne	r0, {r1, sl, ip, sp, lr}
    3550:	75025101 	strvc	r5, [r2, #-257]	; 0x101
    3554:	50011900 	andpl	r1, r1, r0, lsl #18
    3558:	00007602 	andeq	r7, r0, r2, lsl #12
    355c:	0098901a 	addseq	r9, r8, sl, lsl r0
    3560:	0015c800 	andseq	ip, r5, r0, lsl #16
    3564:	98a41800 	stmials	r4!, {fp, ip}
    3568:	15cf0000 	strbne	r0, [pc]	; 3570 <__code_start__-0x4a90>
    356c:	08450000 	stmdaeq	r5, {}^	; <UNPREDICTABLE>
    3570:	01190000 	tsteq	r9, r0
    3574:	8b080253 	blhi	203ec8 <__bss_end__+0x1f74a0>
    3578:	05520119 	ldrbeq	r0, [r2, #-281]	; 0x119
    357c:	00c1ec03 	sbceq	lr, r1, r3, lsl #24
    3580:	51011900 	tstpl	r1, r0, lsl #18
    3584:	bce40305 	stcllt	3, cr0, [r4], #20
    3588:	01190000 	tsteq	r9, r0
    358c:	d4030550 	strle	r0, [r3], #-1360	; 0x550
    3590:	000000bd 	strheq	r0, [r0], -sp
    3594:	0098a81a 	addseq	sl, r8, sl, lsl r8
    3598:	0015e500 	andseq	lr, r5, r0, lsl #10
    359c:	98ac1a00 	stmials	ip!, {r9, fp, ip}
    35a0:	15c80000 	strbne	r0, [r8]
    35a4:	c0180000 	andsgt	r0, r8, r0
    35a8:	cf000098 	svcgt	0x00000098
    35ac:	86000015 			; <UNDEFINED> instruction: 0x86000015
    35b0:	19000008 	stmdbne	r0, {r3}
    35b4:	08025301 	stmdaeq	r2, {r0, r8, r9, ip, lr}
    35b8:	5201198e 	andpl	r1, r1, #2326528	; 0x238000
    35bc:	c1ec0305 	mvngt	r0, r5, lsl #6
    35c0:	01190000 	tsteq	r9, r0
    35c4:	e4030551 	str	r0, [r3], #-1361	; 0x551
    35c8:	190000bc 	stmdbne	r0, {r2, r3, r4, r5, r7}
    35cc:	03055001 	movweq	r5, #20481	; 0x5001
    35d0:	0000bdf8 	strdeq	fp, [r0], -r8
    35d4:	98c41a00 	stmials	r4, {r9, fp, ip}^
    35d8:	15e50000 	strbne	r0, [r5, #0]!
    35dc:	c81a0000 	ldmdagt	sl, {}	; <UNPREDICTABLE>
    35e0:	c8000098 	stmdagt	r0, {r3, r4, r7}
    35e4:	18000015 	stmdane	r0, {r0, r2, r4}
    35e8:	000098dc 	ldrdeq	r9, [r0], -ip
    35ec:	000015cf 	andeq	r1, r0, pc, asr #11
    35f0:	000008c7 	andeq	r0, r0, r7, asr #17
    35f4:	02530119 	subseq	r0, r3, #1073741830	; 0x40000006
    35f8:	01199108 	tsteq	r9, r8, lsl #2
    35fc:	ec030552 	cfstr32	mvfx0, [r3], {82}	; 0x52
    3600:	190000c1 	stmdbne	r0, {r0, r6, r7}
    3604:	03055101 	movweq	r5, #20737	; 0x5101
    3608:	0000bce4 	andeq	fp, r0, r4, ror #25
    360c:	05500119 	ldrbeq	r0, [r0, #-281]	; 0x119
    3610:	00be1403 	adcseq	r1, lr, r3, lsl #8
    3614:	e01a0000 	ands	r0, sl, r0
    3618:	e5000098 	str	r0, [r0, #-152]	; 0x98
    361c:	1a000015 	bne	3678 <__code_start__-0x4988>
    3620:	000098e4 	andeq	r9, r0, r4, ror #17
    3624:	000015c8 	andeq	r1, r0, r8, asr #11
    3628:	0098f818 	addseq	pc, r8, r8, lsl r8	; <UNPREDICTABLE>
    362c:	0015cf00 	andseq	ip, r5, r0, lsl #30
    3630:	00090800 	andeq	r0, r9, r0, lsl #16
    3634:	53011900 	movwpl	r1, #6400	; 0x1900
    3638:	19940802 	ldmibne	r4, {r1, fp}
    363c:	03055201 	movweq	r5, #20993	; 0x5201
    3640:	0000c1ec 	andeq	ip, r0, ip, ror #3
    3644:	05510119 	ldrbeq	r0, [r1, #-281]	; 0x119
    3648:	00bce403 	adcseq	lr, ip, r3, lsl #8
    364c:	50011900 	andpl	r1, r1, r0, lsl #18
    3650:	be3c0305 	cdplt	3, 3, cr0, cr12, cr5, {0}
    3654:	1a000000 	bne	365c <__code_start__-0x49a4>
    3658:	000098fc 	strdeq	r9, [r0], -ip
    365c:	000015e5 	andeq	r1, r0, r5, ror #11
    3660:	0099001a 	addseq	r0, r9, sl, lsl r0
    3664:	0015c800 	andseq	ip, r5, r0, lsl #16
    3668:	99141800 	ldmdbls	r4, {fp, ip}
    366c:	15cf0000 	strbne	r0, [pc]	; 3674 <__code_start__-0x498c>
    3670:	09490000 	stmdbeq	r9, {}^	; <UNPREDICTABLE>
    3674:	01190000 	tsteq	r9, r0
    3678:	97080253 	smlsdls	r8, r3, r2, r0
    367c:	05520119 	ldrbeq	r0, [r2, #-281]	; 0x119
    3680:	00c1ec03 	sbceq	lr, r1, r3, lsl #24
    3684:	51011900 	tstpl	r1, r0, lsl #18
    3688:	bce40305 	stcllt	3, cr0, [r4], #20
    368c:	01190000 	tsteq	r9, r0
    3690:	68030550 	stmdavs	r3, {r4, r6, r8, sl}
    3694:	000000be 	strheq	r0, [r0], -lr
    3698:	0099181a 	addseq	r1, r9, sl, lsl r8
    369c:	0015e500 	andseq	lr, r5, r0, lsl #10
    36a0:	991c1a00 	ldmdbls	ip, {r9, fp, ip}
    36a4:	15c80000 	strbne	r0, [r8]
    36a8:	30180000 	andscc	r0, r8, r0
    36ac:	cf000099 	svcgt	0x00000099
    36b0:	8a000015 	bhi	370c <__code_start__-0x48f4>
    36b4:	19000009 	stmdbne	r0, {r0, r3}
    36b8:	08025301 	stmdaeq	r2, {r0, r8, r9, ip, lr}
    36bc:	5201199a 	andpl	r1, r1, #2523136	; 0x268000
    36c0:	c1ec0305 	mvngt	r0, r5, lsl #6
    36c4:	01190000 	tsteq	r9, r0
    36c8:	e4030551 	str	r0, [r3], #-1361	; 0x551
    36cc:	190000bc 	stmdbne	r0, {r2, r3, r4, r5, r7}
    36d0:	03055001 	movweq	r5, #20481	; 0x5001
    36d4:	0000be94 	muleq	r0, r4, lr
    36d8:	99341a00 	ldmdbls	r4!, {r9, fp, ip}
    36dc:	15e50000 	strbne	r0, [r5, #0]!
    36e0:	3c180000 	ldccc	0, cr0, [r8], {-0}
    36e4:	cf000099 	svcgt	0x00000099
    36e8:	aa000015 	bge	3744 <__code_start__-0x48bc>
    36ec:	19000009 	stmdbne	r0, {r0, r3}
    36f0:	03055001 	movweq	r5, #20481	; 0x5001
    36f4:	0000b39c 	muleq	r0, ip, r3
    36f8:	99441800 	stmdbls	r4, {fp, ip}^
    36fc:	15cf0000 	strbne	r0, [pc]	; 3704 <__code_start__-0x48fc>
    3700:	09c10000 	stmibeq	r1, {}^	; <UNPREDICTABLE>
    3704:	01190000 	tsteq	r9, r0
    3708:	c0030550 	andgt	r0, r3, r0, asr r5
    370c:	000000be 	strheq	r0, [r0], -lr
    3710:	0099481a 	addseq	r4, r9, sl, lsl r8
    3714:	0015e500 	andseq	lr, r5, r0, lsl #10
    3718:	994c1a00 	stmdbls	ip, {r9, fp, ip}^
    371c:	15c80000 	strbne	r0, [r8]
    3720:	60180000 	andsvs	r0, r8, r0
    3724:	cf000099 	svcgt	0x00000099
    3728:	02000015 	andeq	r0, r0, #21
    372c:	1900000a 	stmdbne	r0, {r1, r3}
    3730:	08025301 	stmdaeq	r2, {r0, r8, r9, ip, lr}
    3734:	520119a0 	andpl	r1, r1, #160, 18	; 0x280000
    3738:	c1ec0305 	mvngt	r0, r5, lsl #6
    373c:	01190000 	tsteq	r9, r0
    3740:	e4030551 	str	r0, [r3], #-1361	; 0x551
    3744:	190000bc 	stmdbne	r0, {r2, r3, r4, r5, r7}
    3748:	03055001 	movweq	r5, #20481	; 0x5001
    374c:	0000bee8 	andeq	fp, r0, r8, ror #29
    3750:	99641a00 	stmdbls	r4!, {r9, fp, ip}^
    3754:	15e50000 	strbne	r0, [r5, #0]!
    3758:	6c180000 	ldcvs	0, cr0, [r8], {-0}
    375c:	cf000099 	svcgt	0x00000099
    3760:	22000015 	andcs	r0, r0, #21
    3764:	1900000a 	stmdbne	r0, {r1, r3}
    3768:	03055001 	movweq	r5, #20481	; 0x5001
    376c:	0000bf10 	andeq	fp, r0, r0, lsl pc
    3770:	99841800 	stmibls	r4, {fp, ip}
    3774:	15cf0000 	strbne	r0, [pc]	; 377c <__code_start__-0x4884>
    3778:	0a390000 	beq	e43780 <__bss_end__+0xe36d58>
    377c:	01190000 	tsteq	r9, r0
    3780:	9c030550 	cfstr32ls	mvfx0, [r3], {80}	; 0x50
    3784:	000000b3 	strheq	r0, [r0], -r3
    3788:	00998c18 	addseq	r8, r9, r8, lsl ip
    378c:	0015cf00 	andseq	ip, r5, r0, lsl #30
    3790:	000a5000 	andeq	r5, sl, r0
    3794:	50011900 	andpl	r1, r1, r0, lsl #18
    3798:	bf280305 	svclt	0x00280305
    379c:	1a000000 	bne	37a4 <__code_start__-0x485c>
    37a0:	00009990 	muleq	r0, r0, r9
    37a4:	000015e5 	andeq	r1, r0, r5, ror #11
    37a8:	00999818 	addseq	r9, r9, r8, lsl r8
    37ac:	0015cf00 	andseq	ip, r5, r0, lsl #30
    37b0:	000a7000 	andeq	r7, sl, r0
    37b4:	50011900 	andpl	r1, r1, r0, lsl #18
    37b8:	b39c0305 	orrslt	r0, ip, #335544320	; 0x14000000
    37bc:	18000000 	stmdane	r0, {}	; <UNPREDICTABLE>
    37c0:	000099a0 	andeq	r9, r0, r0, lsr #19
    37c4:	000015cf 	andeq	r1, r0, pc, asr #11
    37c8:	00000a87 	andeq	r0, r0, r7, lsl #21
    37cc:	05500119 	ldrbeq	r0, [r0, #-281]	; 0x119
    37d0:	00bf3803 	adcseq	r3, pc, r3, lsl #16
    37d4:	a41a0000 	ldrge	r0, [sl], #-0
    37d8:	de000099 	mcrle	0, 0, r0, cr0, cr9, {4}
    37dc:	1a000013 	bne	3830 <__code_start__-0x47d0>
    37e0:	000099ac 	andeq	r9, r0, ip, lsr #19
    37e4:	000015c8 	andeq	r1, r0, r8, asr #11
    37e8:	0099c018 	addseq	ip, r9, r8, lsl r0
    37ec:	0015cf00 	andseq	ip, r5, r0, lsl #30
    37f0:	000ac800 	andeq	ip, sl, r0, lsl #16
    37f4:	53011900 	movwpl	r1, #6400	; 0x1900
    37f8:	19ad0802 	stmibne	sp!, {r1, fp}
    37fc:	03055201 	movweq	r5, #20993	; 0x5201
    3800:	0000c1ec 	andeq	ip, r0, ip, ror #3
    3804:	05510119 	ldrbeq	r0, [r1, #-281]	; 0x119
    3808:	00bce403 	adcseq	lr, ip, r3, lsl #8
    380c:	50011900 	andpl	r1, r1, r0, lsl #18
    3810:	bf500305 	svclt	0x00500305
    3814:	1a000000 	bne	381c <__code_start__-0x47e4>
    3818:	000099c4 	andeq	r9, r0, r4, asr #19
    381c:	000015e5 	andeq	r1, r0, r5, ror #11
    3820:	0099c81a 	addseq	ip, r9, sl, lsl r8
    3824:	0015c800 	andseq	ip, r5, r0, lsl #16
    3828:	99e01800 	stmibls	r0!, {fp, ip}^
    382c:	15cf0000 	strbne	r0, [pc]	; 3834 <__code_start__-0x47cc>
    3830:	0b100000 	bleq	403838 <__bss_end__+0x3f6e10>
    3834:	01190000 	tsteq	r9, r0
    3838:	b0080253 	andlt	r0, r8, r3, asr r2
    383c:	05520119 	ldrbeq	r0, [r2, #-281]	; 0x119
    3840:	00c1ec03 	sbceq	lr, r1, r3, lsl #24
    3844:	51011900 	tstpl	r1, r0, lsl #18
    3848:	bce40305 	stcllt	3, cr0, [r4], #20
    384c:	01190000 	tsteq	r9, r0
    3850:	74030550 	strvc	r0, [r3], #-1360	; 0x550
    3854:	190000bf 	stmdbne	r0, {r0, r1, r2, r3, r4, r5, r7}
    3858:	02007d02 	andeq	r7, r0, #2, 26	; 0x80
    385c:	1a000075 	bne	3a38 <__code_start__-0x45c8>
    3860:	000099e4 	andeq	r9, r0, r4, ror #19
    3864:	000015e5 	andeq	r1, r0, r5, ror #11
    3868:	0099e81a 	addseq	lr, r9, sl, lsl r8
    386c:	0015c800 	andseq	ip, r5, r0, lsl #16
    3870:	99fc1800 	ldmibls	ip!, {fp, ip}^
    3874:	15cf0000 	strbne	r0, [pc]	; 387c <__code_start__-0x4784>
    3878:	0b510000 	bleq	1443880 <__bss_end__+0x1436e58>
    387c:	01190000 	tsteq	r9, r0
    3880:	b3080253 	movwlt	r0, #33363	; 0x8253
    3884:	05520119 	ldrbeq	r0, [r2, #-281]	; 0x119
    3888:	00c1ec03 	sbceq	lr, r1, r3, lsl #24
    388c:	51011900 	tstpl	r1, r0, lsl #18
    3890:	bce40305 	stcllt	3, cr0, [r4], #20
    3894:	01190000 	tsteq	r9, r0
    3898:	a4030550 	strge	r0, [r3], #-1360	; 0x550
    389c:	000000bf 	strheq	r0, [r0], -pc	; <UNPREDICTABLE>
    38a0:	009a001a 	addseq	r0, sl, sl, lsl r0
    38a4:	0015e500 	andseq	lr, r5, r0, lsl #10
    38a8:	9a041a00 	bls	10a0b0 <__bss_end__+0xfd688>
    38ac:	15c80000 	strbne	r0, [r8]
    38b0:	18180000 	ldmdane	r8, {}	; <UNPREDICTABLE>
    38b4:	cf00009a 	svcgt	0x0000009a
    38b8:	92000015 	andls	r0, r0, #21
    38bc:	1900000b 	stmdbne	r0, {r0, r1, r3}
    38c0:	08025301 	stmdaeq	r2, {r0, r8, r9, ip, lr}
    38c4:	520119b6 	andpl	r1, r1, #2981888	; 0x2d8000
    38c8:	c1ec0305 	mvngt	r0, r5, lsl #6
    38cc:	01190000 	tsteq	r9, r0
    38d0:	e4030551 	str	r0, [r3], #-1361	; 0x551
    38d4:	190000bc 	stmdbne	r0, {r2, r3, r4, r5, r7}
    38d8:	03055001 	movweq	r5, #20481	; 0x5001
    38dc:	0000bfcc 	andeq	fp, r0, ip, asr #31
    38e0:	9a1c1a00 	bls	70a0e8 <__bss_end__+0x6fd6c0>
    38e4:	15e50000 	strbne	r0, [r5, #0]!
    38e8:	201a0000 	andscs	r0, sl, r0
    38ec:	c800009a 	stmdagt	r0, {r1, r3, r4, r7}
    38f0:	18000015 	stmdane	r0, {r0, r2, r4}
    38f4:	00009a34 	andeq	r9, r0, r4, lsr sl
    38f8:	000015cf 	andeq	r1, r0, pc, asr #11
    38fc:	00000bd3 	ldrdeq	r0, [r0], -r3
    3900:	02530119 	subseq	r0, r3, #1073741830	; 0x40000006
    3904:	0119b908 	tsteq	r9, r8, lsl #18
    3908:	ec030552 	cfstr32	mvfx0, [r3], {82}	; 0x52
    390c:	190000c1 	stmdbne	r0, {r0, r6, r7}
    3910:	03055101 	movweq	r5, #20737	; 0x5101
    3914:	0000bce4 	andeq	fp, r0, r4, ror #25
    3918:	05500119 	ldrbeq	r0, [r0, #-281]	; 0x119
    391c:	00bff403 	adcseq	pc, pc, r3, lsl #8
    3920:	381a0000 	ldmdacc	sl, {}	; <UNPREDICTABLE>
    3924:	e500009a 	str	r0, [r0, #-154]	; 0x9a
    3928:	1a000015 	bne	3984 <__code_start__-0x467c>
    392c:	00009a3c 	andeq	r9, r0, ip, lsr sl
    3930:	000015c8 	andeq	r1, r0, r8, asr #11
    3934:	009a5018 	addseq	r5, sl, r8, lsl r0
    3938:	0015cf00 	andseq	ip, r5, r0, lsl #30
    393c:	000c1400 	andeq	r1, ip, r0, lsl #8
    3940:	53011900 	movwpl	r1, #6400	; 0x1900
    3944:	19bc0802 	ldmibne	ip!, {r1, fp}
    3948:	03055201 	movweq	r5, #20993	; 0x5201
    394c:	0000c1ec 	andeq	ip, r0, ip, ror #3
    3950:	05510119 	ldrbeq	r0, [r1, #-281]	; 0x119
    3954:	00bce403 	adcseq	lr, ip, r3, lsl #8
    3958:	50011900 	andpl	r1, r1, r0, lsl #18
    395c:	c01c0305 	andsgt	r0, ip, r5, lsl #6
    3960:	1a000000 	bne	3968 <__code_start__-0x4698>
    3964:	00009a54 	andeq	r9, r0, r4, asr sl
    3968:	000015e5 	andeq	r1, r0, r5, ror #11
    396c:	009a581a 	addseq	r5, sl, sl, lsl r8
    3970:	0015c800 	andseq	ip, r5, r0, lsl #16
    3974:	9a6c1800 	bls	1b0997c <__bss_end__+0x1afcf54>
    3978:	15cf0000 	strbne	r0, [pc]	; 3980 <__code_start__-0x4680>
    397c:	0c550000 	mraeq	r0, r5, acc0
    3980:	01190000 	tsteq	r9, r0
    3984:	bf080253 	svclt	0x00080253
    3988:	05520119 	ldrbeq	r0, [r2, #-281]	; 0x119
    398c:	00c1ec03 	sbceq	lr, r1, r3, lsl #24
    3990:	51011900 	tstpl	r1, r0, lsl #18
    3994:	bce40305 	stcllt	3, cr0, [r4], #20
    3998:	01190000 	tsteq	r9, r0
    399c:	38030550 	stmdacc	r3, {r4, r6, r8, sl}
    39a0:	000000c0 	andeq	r0, r0, r0, asr #1
    39a4:	009a701a 	addseq	r7, sl, sl, lsl r0
    39a8:	0015e500 	andseq	lr, r5, r0, lsl #10
    39ac:	9a741a00 	bls	1d0a1b4 <__bss_end__+0x1cfd78c>
    39b0:	15c80000 	strbne	r0, [r8]
    39b4:	88180000 	ldmdahi	r8, {}	; <UNPREDICTABLE>
    39b8:	cf00009a 	svcgt	0x0000009a
    39bc:	96000015 			; <UNDEFINED> instruction: 0x96000015
    39c0:	1900000c 	stmdbne	r0, {r2, r3}
    39c4:	08025301 	stmdaeq	r2, {r0, r8, r9, ip, lr}
    39c8:	520119c2 	andpl	r1, r1, #3178496	; 0x308000
    39cc:	c1ec0305 	mvngt	r0, r5, lsl #6
    39d0:	01190000 	tsteq	r9, r0
    39d4:	e4030551 	str	r0, [r3], #-1361	; 0x551
    39d8:	190000bc 	stmdbne	r0, {r2, r3, r4, r5, r7}
    39dc:	03055001 	movweq	r5, #20481	; 0x5001
    39e0:	0000c060 	andeq	ip, r0, r0, rrx
    39e4:	9a8c1a00 	bls	fe30a1ec <__bss_end__+0xfe2fd7c4>
    39e8:	15e50000 	strbne	r0, [r5, #0]!
    39ec:	901a0000 	andsls	r0, sl, r0
    39f0:	c800009a 	stmdagt	r0, {r1, r3, r4, r7}
    39f4:	18000015 	stmdane	r0, {r0, r2, r4}
    39f8:	00009aa4 	andeq	r9, r0, r4, lsr #21
    39fc:	000015cf 	andeq	r1, r0, pc, asr #11
    3a00:	00000cd7 	ldrdeq	r0, [r0], -r7
    3a04:	02530119 	subseq	r0, r3, #1073741830	; 0x40000006
    3a08:	0119c508 	tsteq	r9, r8, lsl #10
    3a0c:	ec030552 	cfstr32	mvfx0, [r3], {82}	; 0x52
    3a10:	190000c1 	stmdbne	r0, {r0, r6, r7}
    3a14:	03055101 	movweq	r5, #20737	; 0x5101
    3a18:	0000bce4 	andeq	fp, r0, r4, ror #25
    3a1c:	05500119 	ldrbeq	r0, [r0, #-281]	; 0x119
    3a20:	00c08c03 	sbceq	r8, r0, r3, lsl #24
    3a24:	a81a0000 	ldmdage	sl, {}	; <UNPREDICTABLE>
    3a28:	e500009a 	str	r0, [r0, #-154]	; 0x9a
    3a2c:	1a000015 	bne	3a88 <__code_start__-0x4578>
    3a30:	00009aac 	andeq	r9, r0, ip, lsr #21
    3a34:	000015c8 	andeq	r1, r0, r8, asr #11
    3a38:	009ac018 	addseq	ip, sl, r8, lsl r0
    3a3c:	0015cf00 	andseq	ip, r5, r0, lsl #30
    3a40:	000d1800 	andeq	r1, sp, r0, lsl #16
    3a44:	53011900 	movwpl	r1, #6400	; 0x1900
    3a48:	19c80802 	stmibne	r8, {r1, fp}^
    3a4c:	03055201 	movweq	r5, #20993	; 0x5201
    3a50:	0000c1ec 	andeq	ip, r0, ip, ror #3
    3a54:	05510119 	ldrbeq	r0, [r1, #-281]	; 0x119
    3a58:	00bce403 	adcseq	lr, ip, r3, lsl #8
    3a5c:	50011900 	andpl	r1, r1, r0, lsl #18
    3a60:	c0b40305 	adcsgt	r0, r4, r5, lsl #6
    3a64:	1a000000 	bne	3a6c <__code_start__-0x4594>
    3a68:	00009ac4 	andeq	r9, r0, r4, asr #21
    3a6c:	000015e5 	andeq	r1, r0, r5, ror #11
    3a70:	009ac81a 	addseq	ip, sl, sl, lsl r8
    3a74:	0015c800 	andseq	ip, r5, r0, lsl #16
    3a78:	9adc1800 	bls	ff709a80 <__bss_end__+0xff6fd058>
    3a7c:	15cf0000 	strbne	r0, [pc]	; 3a84 <__code_start__-0x457c>
    3a80:	0d590000 	ldcleq	0, cr0, [r9, #-0]
    3a84:	01190000 	tsteq	r9, r0
    3a88:	cb080253 	blgt	2043dc <__bss_end__+0x1f79b4>
    3a8c:	05520119 	ldrbeq	r0, [r2, #-281]	; 0x119
    3a90:	00c1ec03 	sbceq	lr, r1, r3, lsl #24
    3a94:	51011900 	tstpl	r1, r0, lsl #18
    3a98:	bce40305 	stcllt	3, cr0, [r4], #20
    3a9c:	01190000 	tsteq	r9, r0
    3aa0:	d4030550 	strle	r0, [r3], #-1360	; 0x550
    3aa4:	000000c0 	andeq	r0, r0, r0, asr #1
    3aa8:	009ae01a 	addseq	lr, sl, sl, lsl r0
    3aac:	0015e500 	andseq	lr, r5, r0, lsl #10
    3ab0:	7f1c0000 	svcvc	0x001c0000
    3ab4:	73000000 	movwvc	r0, #0
    3ab8:	1d00000d 	stcne	0, cr0, [r0, #-52]	; 0xffffffcc
    3abc:	00000076 	andeq	r0, r0, r6, ror r0
    3ac0:	63070011 	movwvs	r0, #28689	; 0x7011
    3ac4:	1200000d 	andne	r0, r0, #13
    3ac8:	00000c22 	andeq	r0, r0, r2, lsr #24
    3acc:	9b54e201 	blls	153c2d8 <__bss_end__+0x152f8b0>
    3ad0:	00300000 	eorseq	r0, r0, r0
    3ad4:	9c010000 	stcls	0, cr0, [r1], {-0}
    3ad8:	00000df5 	strdeq	r0, [r0], -r5
    3adc:	00726c14 	rsbseq	r6, r2, r4, lsl ip
    3ae0:	002ce201 	eoreq	lr, ip, r1, lsl #4
    3ae4:	11e00000 	mvnne	r0, r0
    3ae8:	60170000 	andsvs	r0, r7, r0
    3aec:	05000000 	streq	r0, [r0, #-0]
    3af0:	0500000e 	streq	r0, [r0, #-14]
    3af4:	00c20003 	sbceq	r0, r2, r3
    3af8:	9b5c1a00 	blls	170a300 <__bss_end__+0x16fd8d8>
    3afc:	16080000 	strne	r0, [r8], -r0
    3b00:	601a0000 	andsvs	r0, sl, r0
    3b04:	c800009b 	stmdagt	r0, {r0, r1, r3, r4, r7}
    3b08:	18000015 	stmdane	r0, {r0, r2, r4}
    3b0c:	00009b74 	andeq	r9, r0, r4, ror fp
    3b10:	000015cf 	andeq	r1, r0, pc, asr #11
    3b14:	00000deb 	andeq	r0, r0, fp, ror #27
    3b18:	02530119 	subseq	r0, r3, #1073741830	; 0x40000006
    3b1c:	0119e408 	tsteq	r9, r8, lsl #8
    3b20:	00030552 	andeq	r0, r3, r2, asr r5
    3b24:	190000c2 	stmdbne	r0, {r1, r6, r7}
    3b28:	03055101 	movweq	r5, #20737	; 0x5101
    3b2c:	0000bce4 	andeq	fp, r0, r4, ror #25
    3b30:	05500119 	ldrbeq	r0, [r0, #-281]	; 0x119
    3b34:	00c0fc03 	sbceq	pc, r0, r3, lsl #24
    3b38:	781a0000 	ldmdavc	sl, {}	; <UNPREDICTABLE>
    3b3c:	e500009b 	str	r0, [r0, #-155]	; 0x9b
    3b40:	00000015 	andeq	r0, r0, r5, lsl r0
    3b44:	00007f1c 	andeq	r7, r0, ip, lsl pc
    3b48:	000e0500 	andeq	r0, lr, r0, lsl #10
    3b4c:	00761d00 	rsbseq	r1, r6, r0, lsl #26
    3b50:	00100000 	andseq	r0, r0, r0
    3b54:	000df507 	andeq	pc, sp, r7, lsl #10
    3b58:	09a31200 	stmibeq	r3!, {r9, ip}
    3b5c:	f0010000 			; <UNDEFINED> instruction: 0xf0010000
    3b60:	00009b84 	andeq	r9, r0, r4, lsl #23
    3b64:	00000164 	andeq	r0, r0, r4, ror #2
    3b68:	10469c01 	subne	r9, r6, r1, lsl #24
    3b6c:	60170000 	andsvs	r0, r7, r0
    3b70:	56000000 	strpl	r0, [r0], -r0
    3b74:	05000010 	streq	r0, [r0, #-16]
    3b78:	00c21403 	sbceq	r1, r2, r3, lsl #8
    3b7c:	0f632d00 	svceq	0x00632d00
    3b80:	f6010000 			; <UNDEFINED> instruction: 0xf6010000
    3b84:	0000007d 	andeq	r0, r0, sp, ror r0
    3b88:	00100000 	andseq	r0, r0, r0
    3b8c:	009b901a 	addseq	r9, fp, sl, lsl r0
    3b90:	00160f00 	andseq	r0, r6, r0, lsl #30
    3b94:	9b941a00 	blls	fe50a39c <__bss_end__+0xfe4fd974>
    3b98:	16160000 	ldrne	r0, [r6], -r0
    3b9c:	a01a0000 	andsge	r0, sl, r0
    3ba0:	c800009b 	stmdagt	r0, {r0, r1, r3, r4, r7}
    3ba4:	18000015 	stmdane	r0, {r0, r2, r4}
    3ba8:	00009bbc 			; <UNDEFINED> instruction: 0x00009bbc
    3bac:	000015cf 	andeq	r1, r0, pc, asr #11
    3bb0:	00000e91 	muleq	r0, r1, lr
    3bb4:	02530119 	subseq	r0, r3, #1073741830	; 0x40000006
    3bb8:	0119f408 	tsteq	r9, r8, lsl #8
    3bbc:	14030552 	strne	r0, [r3], #-1362	; 0x552
    3bc0:	190000c2 	stmdbne	r0, {r1, r6, r7}
    3bc4:	03055101 	movweq	r5, #20737	; 0x5101
    3bc8:	0000bce4 	andeq	fp, r0, r4, ror #25
    3bcc:	05500119 	ldrbeq	r0, [r0, #-281]	; 0x119
    3bd0:	00b33803 	adcseq	r3, r3, r3, lsl #16
    3bd4:	7d021900 	stcvc	9, cr1, [r2, #-0]
    3bd8:	68030500 	stmdavs	r3, {r8, sl}
    3bdc:	000000b3 	strheq	r0, [r0], -r3
    3be0:	009bc01a 	addseq	ip, fp, sl, lsl r0
    3be4:	0015e500 	andseq	lr, r5, r0, lsl #10
    3be8:	9bcc1800 	blls	ff309bf0 <__bss_end__+0xff2fd1c8>
    3bec:	16210000 	strtne	r0, [r1], -r0
    3bf0:	0eb60000 	cdpeq	0, 11, cr0, cr6, cr0, {0}
    3bf4:	01190000 	tsteq	r9, r0
    3bf8:	000a0351 	andeq	r0, sl, r1, asr r3
    3bfc:	50011940 	andpl	r1, r1, r0, asr #18
    3c00:	24404003 	strbcs	r4, [r0], #-3
    3c04:	9be01a00 	blls	ff80a40c <__bss_end__+0xff7fd9e4>
    3c08:	15c80000 	strbne	r0, [r8]
    3c0c:	fc180000 	ldc2	0, cr0, [r8], {-0}
    3c10:	cf00009b 	svcgt	0x0000009b
    3c14:	f8000015 			; <UNDEFINED> instruction: 0xf8000015
    3c18:	1900000e 	stmdbne	r0, {r1, r2, r3}
    3c1c:	08025301 	stmdaeq	r2, {r0, r8, r9, ip, lr}
    3c20:	520119f9 	andpl	r1, r1, #4079616	; 0x3e4000
    3c24:	c2140305 	andsgt	r0, r4, #335544320	; 0x14000000
    3c28:	01190000 	tsteq	r9, r0
    3c2c:	e4030551 	str	r0, [r3], #-1361	; 0x551
    3c30:	190000bc 	stmdbne	r0, {r2, r3, r4, r5, r7}
    3c34:	03055001 	movweq	r5, #20481	; 0x5001
    3c38:	0000b338 	andeq	fp, r0, r8, lsr r3
    3c3c:	007d0219 	rsbseq	r0, sp, r9, lsl r2
    3c40:	c1180305 	tstgt	r8, r5, lsl #6
    3c44:	1a000000 	bne	3c4c <__code_start__-0x43b4>
    3c48:	00009c00 	andeq	r9, r0, r0, lsl #24
    3c4c:	000015e5 	andeq	r1, r0, r5, ror #11
    3c50:	009c1018 	addseq	r1, ip, r8, lsl r0
    3c54:	00163b00 	andseq	r3, r6, r0, lsl #22
    3c58:	000f1e00 	andeq	r1, pc, r0, lsl #28
    3c5c:	53011900 	movwpl	r1, #6400	; 0x1900
    3c60:	01193101 	tsteq	r9, r1, lsl #2
    3c64:	19300152 	ldmdbne	r0!, {r1, r4, r6, r8}
    3c68:	30015101 	andcc	r5, r1, r1, lsl #2
    3c6c:	9c281800 	stcls	8, cr1, [r8], #-0
    3c70:	163b0000 	ldrtne	r0, [fp], -r0
    3c74:	0f3f0000 	svceq	0x003f0000
    3c78:	01190000 	tsteq	r9, r0
    3c7c:	19310153 	ldmdbne	r1!, {r0, r1, r4, r6, r8}
    3c80:	40035201 	andmi	r5, r3, r1, lsl #4
    3c84:	01192440 	tsteq	r9, r0, asr #8
    3c88:	40400351 	submi	r0, r0, r1, asr r3
    3c8c:	3c180024 	ldccc	0, cr0, [r8], {36}	; 0x24
    3c90:	3b00009c 	blcc	3f08 <__code_start__-0x40f8>
    3c94:	62000016 	andvs	r0, r0, #22
    3c98:	1900000f 	stmdbne	r0, {r0, r1, r2, r3}
    3c9c:	31015301 	tstcc	r1, r1, lsl #6
    3ca0:	04520119 	ldrbeq	r0, [r2], #-281	; 0x119
    3ca4:	2443fe08 	strbcs	pc, [r3], #-3592	; 0xe08	; <UNPREDICTABLE>
    3ca8:	04510119 	ldrbeq	r0, [r1], #-281	; 0x119
    3cac:	2443fe08 	strbcs	pc, [r3], #-3592	; 0xe08	; <UNPREDICTABLE>
    3cb0:	9c501800 	mrrcls	8, 0, r1, r0, cr0
    3cb4:	163b0000 	ldrtne	r0, [fp], -r0
    3cb8:	0f850000 	svceq	0x00850000
    3cbc:	01190000 	tsteq	r9, r0
    3cc0:	19310153 	ldmdbne	r1!, {r0, r1, r4, r6, r8}
    3cc4:	08045201 	stmdaeq	r4, {r0, r9, ip, lr}
    3cc8:	192443de 	stmdbne	r4!, {r1, r2, r3, r4, r6, r7, r8, r9, lr}
    3ccc:	08045101 	stmdaeq	r4, {r0, r8, ip, lr}
    3cd0:	002443de 	ldrdeq	r4, [r4], -lr	; <UNPREDICTABLE>
    3cd4:	009c6418 	addseq	r6, ip, r8, lsl r4
    3cd8:	00163b00 	andseq	r3, r6, r0, lsl #22
    3cdc:	000fa600 	andeq	sl, pc, r0, lsl #12
    3ce0:	53011900 	movwpl	r1, #6400	; 0x1900
    3ce4:	01193101 	tsteq	r9, r1, lsl #2
    3ce8:	49400352 	stmdbmi	r0, {r1, r4, r6, r8, r9}^
    3cec:	51011924 	tstpl	r1, r4, lsr #18
    3cf0:	24494003 	strbcs	r4, [r9], #-3
    3cf4:	9c781800 	ldclls	8, cr1, [r8], #-0
    3cf8:	163b0000 	ldrtne	r0, [fp], -r0
    3cfc:	0fcb0000 	svceq	0x00cb0000
    3d00:	01190000 	tsteq	r9, r0
    3d04:	19310153 	ldmdbne	r1!, {r0, r1, r4, r6, r8}
    3d08:	0c055201 	sfmeq	f5, 4, [r5], {1}
    3d0c:	20100000 	andscs	r0, r0, r0
    3d10:	05510119 	ldrbeq	r0, [r1, #-281]	; 0x119
    3d14:	1000000c 	andne	r0, r0, ip
    3d18:	8c180020 	ldchi	0, cr0, [r8], {32}
    3d1c:	3b00009c 	blcc	3f94 <__code_start__-0x406c>
    3d20:	f0000016 			; <UNDEFINED> instruction: 0xf0000016
    3d24:	1900000f 	stmdbne	r0, {r0, r1, r2, r3}
    3d28:	31015301 	tstcc	r1, r1, lsl #6
    3d2c:	05520119 	ldrbeq	r0, [r2, #-281]	; 0x119
    3d30:	2000000c 	andcs	r0, r0, ip
    3d34:	51011920 	tstpl	r1, r0, lsr #18
    3d38:	00000c05 	andeq	r0, r0, r5, lsl #24
    3d3c:	18002020 	stmdane	r0, {r5, sp}
    3d40:	00009ca0 	andeq	r9, r0, r0, lsr #25
    3d44:	0000163b 	andeq	r1, r0, fp, lsr r6
    3d48:	00001013 	andeq	r1, r0, r3, lsl r0
    3d4c:	01530119 	cmpeq	r3, r9, lsl r1
    3d50:	52011931 	andpl	r1, r1, #802816	; 0xc4000
    3d54:	448f0804 	strmi	r0, [pc], #2052	; 3d5c <__code_start__-0x42a4>
    3d58:	51011924 	tstpl	r1, r4, lsr #18
    3d5c:	448f0804 	strmi	r0, [pc], #2052	; 3d64 <__code_start__-0x429c>
    3d60:	a41a0024 	ldrge	r0, [sl], #-36	; 0x24
    3d64:	5f00009c 	svcpl	0x0000009c
    3d68:	18000016 	stmdane	r0, {r1, r2, r4}
    3d6c:	00009cac 	andeq	r9, r0, ip, lsr #25
    3d70:	000015f7 	strdeq	r1, [r0], -r7
    3d74:	0000102f 	andeq	r1, r0, pc, lsr #32
    3d78:	01500119 	cmpeq	r0, r9, lsl r1
    3d7c:	bc1b0034 	ldclt	0, cr0, [fp], {52}	; 0x34
    3d80:	6600009c 			; <UNDEFINED> instruction: 0x6600009c
    3d84:	19000016 	stmdbne	r0, {r1, r2, r4}
    3d88:	31015101 	tstcc	r1, r1, lsl #2
    3d8c:	03500119 	cmpeq	r0, #1073741830	; 0x40000006
    3d90:	00140e0a 	andseq	r0, r4, sl, lsl #28
    3d94:	007f1c00 	rsbseq	r1, pc, r0, lsl #24
    3d98:	10560000 	subsne	r0, r6, r0
    3d9c:	761d0000 	ldrvc	r0, [sp], -r0
    3da0:	0d000000 	stceq	0, cr0, [r0, #-0]
    3da4:	10460700 	subne	r0, r6, r0, lsl #14
    3da8:	252e0000 	strcs	r0, [lr, #-0]!
    3dac:	01000008 	tsteq	r0, r8
    3db0:	9ce8011d 	stflse	f0, [r8], #116	; 0x74
    3db4:	00900000 	addseq	r0, r0, r0
    3db8:	9c010000 	stcls	0, cr0, [r1], {-0}
    3dbc:	0000113b 	andeq	r1, r0, fp, lsr r1
    3dc0:	00006017 	andeq	r6, r0, r7, lsl r0
    3dc4:	00114b00 	andseq	r4, r1, r0, lsl #22
    3dc8:	24030500 	strcs	r0, [r3], #-1280	; 0x500
    3dcc:	180000c2 	stmdane	r0, {r1, r6, r7}
    3dd0:	00009d04 	andeq	r9, r0, r4, lsl #26
    3dd4:	000015cf 	andeq	r1, r0, pc, asr #11
    3dd8:	000010b0 	strheq	r1, [r0], -r0
    3ddc:	03530119 	cmpeq	r3, #1073741830	; 0x40000006
    3de0:	19011e0a 	stmdbne	r1, {r1, r3, r9, sl, fp, ip}
    3de4:	03055201 	movweq	r5, #20993	; 0x5201
    3de8:	0000c224 	andeq	ip, r0, r4, lsr #4
    3dec:	05510119 	ldrbeq	r0, [r1, #-281]	; 0x119
    3df0:	00bce403 	adcseq	lr, ip, r3, lsl #8
    3df4:	50011900 	andpl	r1, r1, r0, lsl #18
    3df8:	c1240305 	teqgt	r4, r5, lsl #6
    3dfc:	1a000000 	bne	3e04 <__code_start__-0x41fc>
    3e00:	00009d08 	andeq	r9, r0, r8, lsl #26
    3e04:	00001681 	andeq	r1, r0, r1, lsl #13
    3e08:	009d0c1a 	addseq	r0, sp, sl, lsl ip
    3e0c:	00161600 	andseq	r1, r6, r0, lsl #12
    3e10:	9d181a00 	vldrls	s2, [r8, #-0]
    3e14:	15c80000 	strbne	r0, [r8]
    3e18:	34180000 	ldrcc	r0, [r8], #-0
    3e1c:	cf00009d 	svcgt	0x0000009d
    3e20:	05000015 	streq	r0, [r0, #-21]
    3e24:	19000011 	stmdbne	r0, {r0, r4}
    3e28:	0a035301 	beq	d8a34 <__bss_end__+0xcc00c>
    3e2c:	01190121 	tsteq	r9, r1, lsr #2
    3e30:	24030552 	strcs	r0, [r3], #-1362	; 0x552
    3e34:	190000c2 	stmdbne	r0, {r1, r6, r7}
    3e38:	03055101 	movweq	r5, #20737	; 0x5101
    3e3c:	0000bce4 	andeq	fp, r0, r4, ror #25
    3e40:	05500119 	ldrbeq	r0, [r0, #-281]	; 0x119
    3e44:	00b33803 	adcseq	r3, r3, r3, lsl #16
    3e48:	7d021900 	stcvc	9, cr1, [r2, #-0]
    3e4c:	4c030500 	cfstr32mi	mvfx0, [r3], {-0}
    3e50:	000000c1 	andeq	r0, r0, r1, asr #1
    3e54:	009d381a 	addseq	r3, sp, sl, lsl r8
    3e58:	0015e500 	andseq	lr, r5, r0, lsl #10
    3e5c:	9d4c1b00 	vstrls	d17, [ip, #-0]
    3e60:	15cf0000 	strbne	r0, [pc]	; 3e68 <__code_start__-0x4198>
    3e64:	01190000 	tsteq	r9, r0
    3e68:	220a0353 	andcs	r0, sl, #1275068417	; 0x4c000001
    3e6c:	52011901 	andpl	r1, r1, #16384	; 0x4000
    3e70:	c2240305 	eorgt	r0, r4, #335544320	; 0x14000000
    3e74:	01190000 	tsteq	r9, r0
    3e78:	e4030551 	str	r0, [r3], #-1361	; 0x551
    3e7c:	190000bc 	stmdbne	r0, {r2, r3, r4, r5, r7}
    3e80:	03055001 	movweq	r5, #20481	; 0x5001
    3e84:	0000c160 	andeq	ip, r0, r0, ror #2
    3e88:	7f1c0000 	svcvc	0x001c0000
    3e8c:	4b000000 	blmi	3e94 <__code_start__-0x416c>
    3e90:	1d000011 	stcne	0, cr0, [r0, #-68]	; 0xffffffbc
    3e94:	00000076 	andeq	r0, r0, r6, ror r0
    3e98:	3b07000b 	blcc	1c3ecc <__bss_end__+0x1b74a4>
    3e9c:	2e000011 	mcrcs	0, 0, r0, cr0, cr1, {0}
    3ea0:	00000752 	andeq	r0, r0, r2, asr r7
    3ea4:	78012601 	stmdavc	r1, {r0, r9, sl, sp}
    3ea8:	7400009d 	strvc	r0, [r0], #-157	; 0x9d
    3eac:	01000000 	mrseq	r0, (UNDEF: 0)
    3eb0:	0012009c 	mulseq	r2, ip, r0
    3eb4:	00601700 	rsbeq	r1, r0, r0, lsl #14
    3eb8:	12000000 	andne	r0, r0, #0
    3ebc:	03050000 	movweq	r0, #20480	; 0x5000
    3ec0:	0000c230 	andeq	ip, r0, r0, lsr r2
    3ec4:	009d841a 	addseq	r8, sp, sl, lsl r4
    3ec8:	00160800 	andseq	r0, r6, r0, lsl #16
    3ecc:	9d881a00 	vstrls	s2, [r8]
    3ed0:	16160000 	ldrne	r0, [r6], -r0
    3ed4:	941a0000 	ldrls	r0, [sl], #-0
    3ed8:	c800009d 	stmdagt	r0, {r0, r2, r3, r4, r7}
    3edc:	18000015 	stmdane	r0, {r0, r2, r4}
    3ee0:	00009db0 			; <UNDEFINED> instruction: 0x00009db0
    3ee4:	000015cf 	andeq	r1, r0, pc, asr #11
    3ee8:	000011ca 	andeq	r1, r0, sl, asr #3
    3eec:	03530119 	cmpeq	r3, #1073741830	; 0x40000006
    3ef0:	1901290a 	stmdbne	r1, {r1, r3, r8, fp, sp}
    3ef4:	03055201 	movweq	r5, #20993	; 0x5201
    3ef8:	0000c230 	andeq	ip, r0, r0, lsr r2
    3efc:	05510119 	ldrbeq	r0, [r1, #-281]	; 0x119
    3f00:	00bce403 	adcseq	lr, ip, r3, lsl #8
    3f04:	50011900 	andpl	r1, r1, r0, lsl #18
    3f08:	b3380305 	teqlt	r8, #335544320	; 0x14000000
    3f0c:	02190000 	andseq	r0, r9, #0
    3f10:	0305007d 	movweq	r0, #20605	; 0x507d
    3f14:	0000b368 	andeq	fp, r0, r8, ror #6
    3f18:	9db41a00 	ldcls	10, cr1, [r4]
    3f1c:	15e50000 	strbne	r0, [r5, #0]!
    3f20:	c81b0000 	ldmdagt	fp, {}	; <UNPREDICTABLE>
    3f24:	cf00009d 	svcgt	0x0000009d
    3f28:	19000015 	stmdbne	r0, {r0, r2, r4}
    3f2c:	0a035301 	beq	d8b38 <__bss_end__+0xcc110>
    3f30:	0119012a 	tsteq	r9, sl, lsr #2
    3f34:	30030552 	andcc	r0, r3, r2, asr r5
    3f38:	190000c2 	stmdbne	r0, {r1, r6, r7}
    3f3c:	03055101 	movweq	r5, #20737	; 0x5101
    3f40:	0000bce4 	andeq	fp, r0, r4, ror #25
    3f44:	05500119 	ldrbeq	r0, [r0, #-281]	; 0x119
    3f48:	00c17803 	sbceq	r7, r1, r3, lsl #16
    3f4c:	07000000 	streq	r0, [r0, -r0]
    3f50:	0000070d 	andeq	r0, r0, sp, lsl #14
    3f54:	0009b12e 	andeq	fp, r9, lr, lsr #2
    3f58:	012d0100 	teqeq	sp, r0, lsl #2
    3f5c:	00009dec 	andeq	r9, r0, ip, ror #27
    3f60:	00000074 	andeq	r0, r0, r4, ror r0
    3f64:	12a89c01 	adcne	r9, r8, #256	; 0x100
    3f68:	632f0000 	teqvs	pc, #0
    3f6c:	0100000f 	tsteq	r0, pc
    3f70:	005d012d 	subseq	r0, sp, sp, lsr #2
    3f74:	12010000 	andne	r0, r1, #0
    3f78:	60170000 	andsvs	r0, r7, r0
    3f7c:	a8000000 	stmdage	r0, {}	; <UNPREDICTABLE>
    3f80:	05000012 	streq	r0, [r0, #-18]
    3f84:	00c24003 	sbceq	r4, r2, r3
    3f88:	9e081a00 	vmlals.f32	s2, s16, s0
    3f8c:	15c80000 	strbne	r0, [r8]
    3f90:	24180000 	ldrcs	r0, [r8], #-0
    3f94:	cf00009e 	svcgt	0x0000009e
    3f98:	7d000015 	stcvc	0, cr0, [r0, #-84]	; 0xffffffac
    3f9c:	19000012 	stmdbne	r0, {r1, r4}
    3fa0:	0a035301 	beq	d8bac <__bss_end__+0xcc184>
    3fa4:	0119012e 	tsteq	r9, lr, lsr #2
    3fa8:	40030552 	andmi	r0, r3, r2, asr r5
    3fac:	190000c2 	stmdbne	r0, {r1, r6, r7}
    3fb0:	03055101 	movweq	r5, #20737	; 0x5101
    3fb4:	0000bce4 	andeq	fp, r0, r4, ror #25
    3fb8:	05500119 	ldrbeq	r0, [r0, #-281]	; 0x119
    3fbc:	00b33803 	adcseq	r3, r3, r3, lsl #16
    3fc0:	7d021900 	stcvc	9, cr1, [r2, #-0]
    3fc4:	90030500 	andls	r0, r3, r0, lsl #10
    3fc8:	000000c1 	andeq	r0, r0, r1, asr #1
    3fcc:	009e281a 	addseq	r2, lr, sl, lsl r8
    3fd0:	0015e500 	andseq	lr, r5, r0, lsl #10
    3fd4:	9e401b00 	vmlals.f64	d17, d0, d0
    3fd8:	163b0000 	ldrtne	r0, [fp], -r0
    3fdc:	01190000 	tsteq	r9, r0
    3fe0:	19310153 	ldmdbne	r1!, {r0, r1, r4, r6, r8}
    3fe4:	f3075201 	vhsub.u8	d5, d7, d1
    3fe8:	80235001 	eorhi	r5, r3, r1
    3fec:	01194080 	tsteq	r9, r0, lsl #1
    3ff0:	01f30351 	mvnseq	r0, r1, asr r3
    3ff4:	07000050 	smlsdeq	r0, r0, r0, r0
    3ff8:	0000070d 	andeq	r0, r0, sp, lsl #14
    3ffc:	0008ad2e 	andeq	sl, r8, lr, lsr #26
    4000:	01340100 	teqeq	r4, r0, lsl #2
    4004:	00009e60 	andeq	r9, r0, r0, ror #28
    4008:	00000074 	andeq	r0, r0, r4, ror r0
    400c:	13509c01 	cmpne	r0, #256	; 0x100
    4010:	632f0000 	teqvs	pc, #0
    4014:	0100000f 	tsteq	r0, pc
    4018:	005d0134 	subseq	r0, sp, r4, lsr r1
    401c:	12510000 	subsne	r0, r1, #0
    4020:	60170000 	andsvs	r0, r7, r0
    4024:	50000000 	andpl	r0, r0, r0
    4028:	05000013 	streq	r0, [r0, #-19]
    402c:	00c25003 	sbceq	r5, r2, r3
    4030:	9e7c1a00 	vaddls.f32	s3, s24, s0
    4034:	15c80000 	strbne	r0, [r8]
    4038:	98180000 	ldmdals	r8, {}	; <UNPREDICTABLE>
    403c:	cf00009e 	svcgt	0x0000009e
    4040:	25000015 	strcs	r0, [r0, #-21]
    4044:	19000013 	stmdbne	r0, {r0, r1, r4}
    4048:	0a035301 	beq	d8c54 <__bss_end__+0xcc22c>
    404c:	01190135 	tsteq	r9, r5, lsr r1
    4050:	50030552 	andpl	r0, r3, r2, asr r5
    4054:	190000c2 	stmdbne	r0, {r1, r6, r7}
    4058:	03055101 	movweq	r5, #20737	; 0x5101
    405c:	0000bce4 	andeq	fp, r0, r4, ror #25
    4060:	05500119 	ldrbeq	r0, [r0, #-281]	; 0x119
    4064:	00b33803 	adcseq	r3, r3, r3, lsl #16
    4068:	7d021900 	stcvc	9, cr1, [r2, #-0]
    406c:	90030500 	andls	r0, r3, r0, lsl #10
    4070:	000000c1 	andeq	r0, r0, r1, asr #1
    4074:	009e9c1a 	addseq	r9, lr, sl, lsl ip
    4078:	0015e500 	andseq	lr, r5, r0, lsl #10
    407c:	9eb41b00 	vmovls.f64	d1, #64	; 0x40
    4080:	163b0000 	ldrtne	r0, [fp], -r0
    4084:	01190000 	tsteq	r9, r0
    4088:	19320153 	ldmdbne	r2!, {r0, r1, r4, r6, r8}
    408c:	f3075201 	vhsub.u8	d5, d7, d1
    4090:	80235001 	eorhi	r5, r3, r1
    4094:	01194080 	tsteq	r9, r0, lsl #1
    4098:	01f30351 	mvnseq	r0, r1, asr r3
    409c:	07000050 	smlsdeq	r0, r0, r0, r0
    40a0:	00000485 	andeq	r0, r0, r5, lsl #9
    40a4:	0007fb2e 	andeq	pc, r7, lr, lsr #22
    40a8:	013b0100 	teqeq	fp, r0, lsl #2
    40ac:	00009ed4 	ldrdeq	r9, [r0], -r4
    40b0:	00000024 	andeq	r0, r0, r4, lsr #32
    40b4:	139f9c01 	orrsne	r9, pc, #256	; 0x100
    40b8:	632f0000 	teqvs	pc, #0
    40bc:	0100000f 	tsteq	r0, pc
    40c0:	005d013b 	subseq	r0, sp, fp, lsr r1
    40c4:	12a10000 	adcne	r0, r1, #0
    40c8:	60300000 	eorsvs	r0, r0, r0
    40cc:	af000000 	svcge	0x00000000
    40d0:	1b000013 	blne	4124 <__code_start__-0x3edc>
    40d4:	00009ef0 	strdeq	r9, [r0], -r0
    40d8:	00001688 	andeq	r1, r0, r8, lsl #13
    40dc:	01520119 	cmpeq	r2, r9, lsl r1
    40e0:	51011931 	tstpl	r1, r1, lsr r9
    40e4:	5001f307 	andpl	pc, r1, r7, lsl #6
    40e8:	24442544 	strbcs	r2, [r4], #-1348	; 0x544
    40ec:	7f1c0000 	svcvc	0x001c0000
    40f0:	af000000 	svcge	0x00000000
    40f4:	1d000013 	stcne	0, cr0, [r0, #-76]	; 0xffffffb4
    40f8:	00000076 	andeq	r0, r0, r6, ror r0
    40fc:	9f070012 	svcls	0x00070012
    4100:	31000013 	tstcc	r0, r3, lsl r0
    4104:	0000078b 	andeq	r0, r0, fp, lsl #15
    4108:	2c014201 	sfmcs	f4, 4, [r1], {1}
    410c:	f8000000 			; <UNDEFINED> instruction: 0xf8000000
    4110:	1800009e 	stmdane	r0, {r1, r2, r3, r4, r7}
    4114:	01000000 	mrseq	r0, (UNDEF: 0)
    4118:	0013de9c 	mulseq	r3, ip, lr
    411c:	9f041b00 	svcls	0x00041b00
    4120:	04f30000 	ldrbteq	r0, [r3], #0
    4124:	01190000 	tsteq	r9, r0
    4128:	00320150 	eorseq	r0, r2, r0, asr r1
    412c:	07ac2e00 	streq	r2, [ip, r0, lsl #28]!
    4130:	48010000 	stmdami	r1, {}	; <UNPREDICTABLE>
    4134:	009f1001 	addseq	r1, pc, r1
    4138:	00006000 	andeq	r6, r0, r0
    413c:	719c0100 	orrsvc	r0, ip, r0, lsl #2
    4140:	17000014 	smladne	r0, r4, r0, r0
    4144:	00000060 	andeq	r0, r0, r0, rrx
    4148:	00001481 	andeq	r1, r0, r1, lsl #9
    414c:	c26c0305 	rsbgt	r0, ip, #335544320	; 0x14000000
    4150:	24180000 	ldrcs	r0, [r8], #-0
    4154:	1300009f 	movwne	r0, #159	; 0x9f
    4158:	1b000006 	blne	4178 <__code_start__-0x3e88>
    415c:	19000014 	stmdbne	r0, {r2, r4}
    4160:	31015101 	tstcc	r1, r1, lsl #2
    4164:	01500119 	cmpeq	r0, r9, lsl r1
    4168:	281a0032 	ldmdacs	sl, {r1, r4, r5}
    416c:	b400009f 	strlt	r0, [r0], #-159	; 0x9f
    4170:	1a000013 	bne	41c4 <__code_start__-0x3e3c>
    4174:	00009f34 	andeq	r9, r0, r4, lsr pc
    4178:	000015c8 	andeq	r1, r0, r8, asr #11
    417c:	009f5018 	addseq	r5, pc, r8, lsl r0	; <UNPREDICTABLE>
    4180:	0015cf00 	andseq	ip, r5, r0, lsl #30
    4184:	00146700 	andseq	r6, r4, r0, lsl #14
    4188:	53011900 	movwpl	r1, #6400	; 0x1900
    418c:	014a0a03 	cmpeq	sl, r3, lsl #20
    4190:	05520119 	ldrbeq	r0, [r2, #-281]	; 0x119
    4194:	00c26c03 	sbceq	r6, r2, r3, lsl #24
    4198:	51011900 	tstpl	r1, r0, lsl #18
    419c:	bce40305 	stcllt	3, cr0, [r4], #20
    41a0:	01190000 	tsteq	r9, r0
    41a4:	38030550 	stmdacc	r3, {r4, r6, r8, sl}
    41a8:	190000b3 	stmdbne	r0, {r0, r1, r4, r5, r7}
    41ac:	05007d02 	streq	r7, [r0, #-3330]	; 0xd02
    41b0:	00c1a803 	sbceq	sl, r1, r3, lsl #16
    41b4:	541a0000 	ldrpl	r0, [sl], #-0
    41b8:	e500009f 	str	r0, [r0, #-159]	; 0x9f
    41bc:	00000015 	andeq	r0, r0, r5, lsl r0
    41c0:	00007f1c 	andeq	r7, r0, ip, lsl pc
    41c4:	00148100 	andseq	r8, r4, r0, lsl #2
    41c8:	00761d00 	rsbseq	r1, r6, r0, lsl #26
    41cc:	00150000 	andseq	r0, r5, r0
    41d0:	00147107 	andseq	r7, r4, r7, lsl #2
    41d4:	08da2e00 	ldmeq	sl, {r9, sl, fp, sp}^
    41d8:	4c010000 	stcmi	0, cr0, [r1], {-0}
    41dc:	009f7001 	addseq	r7, pc, r1
    41e0:	00006000 	andeq	r6, r0, r0
    41e4:	199c0100 	ldmibne	ip, {r8}
    41e8:	17000015 	smladne	r0, r5, r0, r0
    41ec:	00000060 	andeq	r0, r0, r0, rrx
    41f0:	00001529 	andeq	r1, r0, r9, lsr #10
    41f4:	c2940305 	addsgt	r0, r4, #335544320	; 0x14000000
    41f8:	84180000 	ldrhi	r0, [r8], #-0
    41fc:	1300009f 	movwne	r0, #159	; 0x9f
    4200:	c3000006 	movwgt	r0, #6
    4204:	19000014 	stmdbne	r0, {r2, r4}
    4208:	30015101 	andcc	r5, r1, r1, lsl #2
    420c:	01500119 	cmpeq	r0, r9, lsl r1
    4210:	881a0032 	ldmdahi	sl, {r1, r4, r5}
    4214:	b400009f 	strlt	r0, [r0], #-159	; 0x9f
    4218:	1a000013 	bne	426c <__code_start__-0x3d94>
    421c:	00009f94 	muleq	r0, r4, pc	; <UNPREDICTABLE>
    4220:	000015c8 	andeq	r1, r0, r8, asr #11
    4224:	009fb018 	addseq	fp, pc, r8, lsl r0	; <UNPREDICTABLE>
    4228:	0015cf00 	andseq	ip, r5, r0, lsl #30
    422c:	00150f00 	andseq	r0, r5, r0, lsl #30
    4230:	53011900 	movwpl	r1, #6400	; 0x1900
    4234:	014e0a03 	cmpeq	lr, r3, lsl #20
    4238:	05520119 	ldrbeq	r0, [r2, #-281]	; 0x119
    423c:	00c29403 	sbceq	r9, r2, r3, lsl #8
    4240:	51011900 	tstpl	r1, r0, lsl #18
    4244:	bce40305 	stcllt	3, cr0, [r4], #20
    4248:	01190000 	tsteq	r9, r0
    424c:	38030550 	stmdacc	r3, {r4, r6, r8, sl}
    4250:	190000b3 	stmdbne	r0, {r0, r1, r4, r5, r7}
    4254:	05007d02 	streq	r7, [r0, #-3330]	; 0xd02
    4258:	00c1c403 	sbceq	ip, r1, r3, lsl #8
    425c:	b41a0000 	ldrlt	r0, [sl], #-0
    4260:	e500009f 	str	r0, [r0, #-159]	; 0x9f
    4264:	00000015 	andeq	r0, r0, r5, lsl r0
    4268:	00007f1c 	andeq	r7, r0, ip, lsl pc
    426c:	00152900 	andseq	r2, r5, r0, lsl #18
    4270:	00761d00 	rsbseq	r1, r6, r0, lsl #26
    4274:	00140000 	andseq	r0, r4, r0
    4278:	00151907 	andseq	r1, r5, r7, lsl #18
    427c:	013d3100 	teqeq	sp, r0, lsl #2
    4280:	51010000 	mrspl	r0, (UNDEF: 1)
    4284:	00002501 	andeq	r2, r0, r1, lsl #10
    4288:	009fd000 	addseq	sp, pc, r0
    428c:	00001c00 	andeq	r1, r0, r0, lsl #24
    4290:	699c0100 	ldmibvs	ip, {r8}
    4294:	32000015 	andcc	r0, r0, #21
    4298:	01006e66 	tsteq	r0, r6, ror #28
    429c:	156e0151 	strbne	r0, [lr, #-337]!	; 0x151
    42a0:	12e00000 	rscne	r0, r0, #0
    42a4:	dc1a0000 	ldcle	0, cr0, [sl], {-0}
    42a8:	a300009f 	movwge	r0, #159	; 0x9f
    42ac:	33000016 	movwcc	r0, #22
    42b0:	00009fe0 	andeq	r9, r0, r0, ror #31
    42b4:	00007402 	andeq	r7, r0, r2, lsl #8
    42b8:	00002534 	andeq	r2, r0, r4, lsr r5
    42bc:	69040600 	stmdbvs	r4, {r9, sl}
    42c0:	2a000015 	bcs	431c <__code_start__-0x3ce4>
    42c4:	0000099d 	muleq	r0, sp, r9
    42c8:	15851801 	strne	r1, [r5, #2049]	; 0x801
    42cc:	03050000 	movweq	r0, #20480	; 0x5000
    42d0:	0000c610 	andeq	ip, r0, r0, lsl r6
    42d4:	01670406 	cmneq	r7, r6, lsl #8
    42d8:	6c2a0000 	stcvs	0, cr0, [sl], #-0
    42dc:	01000007 	tsteq	r0, r7
    42e0:	0001c01d 	andeq	ip, r1, sp, lsl r0
    42e4:	14030500 	strne	r0, [r3], #-1280	; 0x500
    42e8:	2a0000c6 	bcs	4608 <__code_start__-0x39f8>
    42ec:	0000075f 	andeq	r0, r0, pc, asr r7
    42f0:	002c5101 	eoreq	r5, ip, r1, lsl #2
    42f4:	03050000 	movweq	r0, #20480	; 0x5000
    42f8:	0000c620 	andeq	ip, r0, r0, lsr #12
    42fc:	00747016 	rsbseq	r7, r4, r6, lsl r0
    4300:	1585ed01 	strne	lr, [r5, #3329]	; 0xd01
    4304:	03050000 	movweq	r0, #20480	; 0x5000
    4308:	0000c624 	andeq	ip, r0, r4, lsr #12
    430c:	0008bc35 	andeq	fp, r8, r5, lsr ip
    4310:	25c20300 	strbcs	r0, [r2, #768]	; 0x300
    4314:	36000000 	strcc	r0, [r0], -r0
    4318:	000001d5 	ldrdeq	r0, [r0], -r5
    431c:	9d371e07 	ldcls	14, cr1, [r7, #-28]!	; 0xffffffe4
    4320:	0700000a 	streq	r0, [r0, -sl]
    4324:	00002529 	andeq	r2, r0, r9, lsr #10
    4328:	0015e500 	andseq	lr, r5, r0, lsl #10
    432c:	00863800 	addeq	r3, r6, r0, lsl #16
    4330:	00390000 	eorseq	r0, r9, r0
    4334:	00004a36 	andeq	r4, r0, r6, lsr sl
    4338:	3a650700 	bcc	1945f40 <__bss_end__+0x1939518>
    433c:	000004dd 	ldrdeq	r0, [r0], -sp
    4340:	005d6e08 	subseq	r6, sp, r8, lsl #28
    4344:	c63b0000 	ldrtgt	r0, [fp], -r0
    4348:	08000002 	stmdaeq	r0, {r1}
    434c:	00160848 	andseq	r0, r6, r8, asr #16
    4350:	002c3800 	eoreq	r3, ip, r0, lsl #16
    4354:	36000000 	strcc	r0, [r0], -r0
    4358:	000003b6 			; <UNDEFINED> instruction: 0x000003b6
    435c:	3c363b08 	ldccc	11, cr3, [r6], #-32	; 0xffffffe0
    4360:	08000004 	stmdaeq	r0, {r2}
    4364:	006d3a0d 	rsbeq	r3, sp, sp, lsl #20
    4368:	6c080000 	stcvs	0, cr0, [r8], {-0}
    436c:	00000025 	andeq	r0, r0, r5, lsr #32
    4370:	00044537 	andeq	r4, r4, r7, lsr r5
    4374:	85210800 	strhi	r0, [r1, #-2048]!	; 0x800
    4378:	3b000015 	blcc	43d4 <__code_start__-0x3c2c>
    437c:	38000016 	stmdacc	r0, {r1, r2, r4}
    4380:	0000007d 	andeq	r0, r0, sp, ror r0
    4384:	00002c38 	andeq	r2, r0, r8, lsr ip
    4388:	a6370000 	ldrtge	r0, [r7], -r0
    438c:	08000003 	stmdaeq	r0, {r0, r1}
    4390:	00158525 	andseq	r8, r5, r5, lsr #10
    4394:	00165f00 	andseq	r5, r6, r0, lsl #30
    4398:	15853800 	strne	r3, [r5, #2048]	; 0x800
    439c:	5d380000 	ldcpl	0, cr0, [r8, #-0]
    43a0:	38000000 	stmdacc	r0, {}	; <UNPREDICTABLE>
    43a4:	0000005d 	andeq	r0, r0, sp, asr r0
    43a8:	00005d38 	andeq	r5, r0, r8, lsr sp
    43ac:	07360000 	ldreq	r0, [r6, -r0]!
    43b0:	08000005 	stmdaeq	r0, {r0, r2}
    43b4:	027d3b0f 	rsbseq	r3, sp, #15360	; 0x3c00
    43b8:	45080000 	strmi	r0, [r8, #-0]
    43bc:	00001681 	andeq	r1, r0, r1, lsl #13
    43c0:	00002c38 	andeq	r2, r0, r8, lsr ip
    43c4:	002c3800 	eoreq	r3, ip, r0, lsl #16
    43c8:	85380000 	ldrhi	r0, [r8, #-0]!
    43cc:	00000015 	andeq	r0, r0, r5, lsl r0
    43d0:	0004a736 	andeq	sl, r4, r6, lsr r7
    43d4:	3b3a0800 	blcc	e863dc <__bss_end__+0xe799b4>
    43d8:	00000599 	muleq	r0, r9, r5
    43dc:	16a33308 	strtne	r3, [r3], r8, lsl #6
    43e0:	85380000 	ldrhi	r0, [r8, #-0]!
    43e4:	38000015 	stmdacc	r0, {r0, r2, r4}
    43e8:	0000002c 	andeq	r0, r0, ip, lsr #32
    43ec:	00002c38 	andeq	r2, r0, r8, lsr ip
    43f0:	b0360000 	eorslt	r0, r6, r0
    43f4:	09000005 	stmdbeq	r0, {r0, r2}
    43f8:	01120036 	tsteq	r2, r6, lsr r0
    43fc:	00040000 	andeq	r0, r4, r0
    4400:	000009b9 			; <UNDEFINED> instruction: 0x000009b9
    4404:	09ca0104 	stmibeq	sl, {r2, r8}^
    4408:	be010000 	cdplt	0, 0, cr0, cr1, cr0, {0}
    440c:	29000009 	stmdbcs	r0, {r0, r3}
    4410:	8000000a 	andhi	r0, r0, sl
    4414:	f00000a3 			; <UNDEFINED> instruction: 0xf00000a3
    4418:	78000000 	stmdavc	r0, {}	; <UNPREDICTABLE>
    441c:	02000009 	andeq	r0, r0, #9
    4420:	6e690504 	cdpvs	5, 6, cr0, cr9, cr4, {0}
    4424:	04030074 	streq	r0, [r3], #-116	; 0x74
    4428:	0000f307 	andeq	pc, r0, r7, lsl #6
    442c:	06010300 	streq	r0, [r1], -r0, lsl #6
    4430:	0000003e 	andeq	r0, r0, lr, lsr r0
    4434:	49050203 	stmdbmi	r5, {r0, r1, r9}
    4438:	03000001 	movweq	r0, #1
    443c:	012c0504 	teqeq	ip, r4, lsl #10
    4440:	08030000 	stmdaeq	r3, {}	; <UNPREDICTABLE>
    4444:	00012705 	andeq	r2, r1, r5, lsl #14
    4448:	0a210400 	beq	845450 <__bss_end__+0x838a28>
    444c:	2e020000 	cdpcs	0, 0, cr0, cr2, cr0, {0}
    4450:	0000005a 	andeq	r0, r0, sl, asr r0
    4454:	3c080103 	stfccs	f0, [r8], {3}
    4458:	03000000 	movweq	r0, #0
    445c:	00120702 	andseq	r0, r2, r2, lsl #14
    4460:	57040000 	strpl	r0, [r4, -r0]
    4464:	02000000 	andeq	r0, r0, #0
    4468:	00007334 	andeq	r7, r0, r4, lsr r3
    446c:	07040300 	streq	r0, [r4, -r0, lsl #6]
    4470:	000000ee 	andeq	r0, r0, lr, ror #1
    4474:	e9070803 	stmdb	r7, {r0, r1, fp}
    4478:	03000000 	movweq	r0, #0
    447c:	01100704 	tsteq	r0, r4, lsl #14
    4480:	01030000 	mrseq	r0, (UNDEF: 3)
    4484:	00004508 	andeq	r4, r0, r8, lsl #10
    4488:	95040500 	strls	r0, [r4, #-1280]	; 0x500
    448c:	06000000 	streq	r0, [r0], -r0
    4490:	00000088 	andeq	r0, r0, r8, lsl #1
    4494:	0005d907 	andeq	sp, r5, r7, lsl #18
    4498:	680f0100 	stmdavs	pc, {r8}	; <UNPREDICTABLE>
    449c:	80000000 	andhi	r0, r0, r0
    44a0:	f00000a3 			; <UNDEFINED> instruction: 0xf00000a3
    44a4:	01000000 	mrseq	r0, (UNDEF: 0)
    44a8:	00010e9c 	muleq	r1, ip, lr
    44ac:	137b0800 	cmnne	fp, #0, 16
    44b0:	0f010000 	svceq	0x00010000
    44b4:	0000010e 	andeq	r0, r0, lr, lsl #2
    44b8:	000012fe 	strdeq	r1, [r0], -lr
    44bc:	6e656c09 	cdpvs	12, 6, cr6, cr5, cr9, {0}
    44c0:	250f0100 	strcs	r0, [pc, #-256]	; 43c8 <__code_start__-0x3c38>
    44c4:	38000000 	stmdacc	r0, {}	; <UNPREDICTABLE>
    44c8:	0a000013 	beq	451c <__code_start__-0x3ae4>
    44cc:	0000137c 	andeq	r1, r0, ip, ror r3
    44d0:	008f1001 	addeq	r1, pc, r1
    44d4:	13770000 	cmnne	r7, #0
    44d8:	de0a0000 	cdple	0, 0, cr0, cr10, cr0, {0}
    44dc:	01000005 	tsteq	r0, r5
    44e0:	00006811 	andeq	r6, r0, r1, lsl r8
    44e4:	0013b600 	andseq	fp, r3, r0, lsl #12
    44e8:	6d740b00 	vldmdbvs	r4!, {d16-d15}
    44ec:	11010070 	tstne	r1, r0, ror r0
    44f0:	00000068 	andeq	r0, r0, r8, rrx
    44f4:	00001400 	andeq	r1, r0, r0, lsl #8
    44f8:	6d65720b 	sfmvs	f7, 2, [r5, #-44]!	; 0xffffffd4
    44fc:	25120100 	ldrcs	r0, [r2, #-256]	; 0x100
    4500:	4b000000 	blmi	4508 <__code_start__-0x3af8>
    4504:	00000014 	andeq	r0, r0, r4, lsl r0
    4508:	01140405 	tsteq	r4, r5, lsl #8
    450c:	000c0000 	andeq	r0, ip, r0
    4510:	000000db 	ldrdeq	r0, [r0], -fp
    4514:	0a5d0004 	beq	174452c <__bss_end__+0x1737b04>
    4518:	01040000 	mrseq	r0, (UNDEF: 4)
    451c:	000009ca 	andeq	r0, r0, sl, asr #19
    4520:	000a6f01 	andeq	r6, sl, r1, lsl #30
    4524:	000a2900 	andeq	r2, sl, r0, lsl #18
    4528:	00a47000 	adceq	r7, r4, r0
    452c:	00002000 	andeq	r2, r0, r0
    4530:	000a5a00 	andeq	r5, sl, r0, lsl #20
    4534:	06010200 	streq	r0, [r1], -r0, lsl #4
    4538:	0000003e 	andeq	r0, r0, lr, lsr r0
    453c:	3c080102 	stfccs	f0, [r8], {2}
    4540:	02000000 	andeq	r0, r0, #0
    4544:	01490502 	cmpeq	r9, r2, lsl #10
    4548:	02020000 	andeq	r0, r2, #0
    454c:	00001207 	andeq	r1, r0, r7, lsl #4
    4550:	05040300 	streq	r0, [r4, #-768]	; 0x300
    4554:	00746e69 	rsbseq	r6, r4, r9, ror #28
    4558:	f3070402 	vshl.u8	d0, d2, d7
    455c:	02000000 	andeq	r0, r0, #0
    4560:	01270508 	teqeq	r7, r8, lsl #10
    4564:	08020000 	stmdaeq	r2, {}	; <UNPREDICTABLE>
    4568:	0000e907 	andeq	lr, r0, r7, lsl #18
    456c:	05040200 	streq	r0, [r4, #-512]	; 0x200
    4570:	0000012c 	andeq	r0, r0, ip, lsr #2
    4574:	10070402 	andne	r0, r7, r2, lsl #8
    4578:	04000001 	streq	r0, [r0], #-1
    457c:	07040204 	streq	r0, [r4, -r4, lsl #4]
    4580:	000000ee 	andeq	r0, r0, lr, ror #1
    4584:	007a0405 	rsbseq	r0, sl, r5, lsl #8
    4588:	01020000 	mrseq	r0, (UNDEF: 2)
    458c:	00004508 	andeq	r4, r0, r8, lsl #10
    4590:	021b0600 	andseq	r0, fp, #0, 12
    4594:	d4020000 	strle	r0, [r2], #-0
    4598:	00000048 	andeq	r0, r0, r8, asr #32
    459c:	0004cc07 	andeq	ip, r4, r7, lsl #24
    45a0:	6b1b0300 	blvs	6c51a8 <__bss_end__+0x6b8780>
    45a4:	70000000 	andvc	r0, r0, r0
    45a8:	200000a4 	andcs	r0, r0, r4, lsr #1
    45ac:	01000000 	mrseq	r0, (UNDEF: 0)
    45b0:	705f089c 			; <UNDEFINED> instruction: 0x705f089c
    45b4:	6b030100 	blvs	c49bc <__bss_end__+0xb7f94>
    45b8:	01000000 	mrseq	r0, (UNDEF: 0)
    45bc:	00630850 	rsbeq	r0, r3, r0, asr r8
    45c0:	00410301 	subeq	r0, r1, r1, lsl #6
    45c4:	51010000 	mrspl	r0, (UNDEF: 1)
    45c8:	01006e09 	tsteq	r0, r9, lsl #28
    45cc:	00008103 	andeq	r8, r0, r3, lsl #2
    45d0:	00145e00 	andseq	r5, r4, r0, lsl #28
    45d4:	00700a00 	rsbseq	r0, r0, r0, lsl #20
    45d8:	00740401 	rsbseq	r0, r4, r1, lsl #8
    45dc:	147f0000 	ldrbtne	r0, [pc], #-0	; 45e4 <__code_start__-0x3a1c>
    45e0:	650b0000 	strvs	r0, [fp, #-0]
    45e4:	74040100 	strvc	r0, [r4], #-256	; 0x100
    45e8:	01000000 	mrseq	r0, (UNDEF: 0)
    45ec:	91000052 	qaddls	r0, r2, r0
    45f0:	04000001 	streq	r0, [r0], #-1
    45f4:	000afa00 	andeq	pc, sl, r0, lsl #20
    45f8:	ca010400 	bgt	45600 <__bss_end__+0x38bd8>
    45fc:	01000009 	tsteq	r0, r9
    4600:	00000a8c 	andeq	r0, r0, ip, lsl #21
    4604:	00000a29 	andeq	r0, r0, r9, lsr #20
    4608:	0000a490 	muleq	r0, r0, r4
    460c:	00000058 	andeq	r0, r0, r8, asr r0
    4610:	00000b4a 	andeq	r0, r0, sl, asr #22
    4614:	000a7d02 	andeq	r7, sl, r2, lsl #26
    4618:	30280200 	eorcc	r0, r8, r0, lsl #4
    461c:	03000000 	movweq	r0, #0
    4620:	00000aa4 	andeq	r0, r0, r4, lsr #21
    4624:	47000304 	strmi	r0, [r0, -r4, lsl #6]
    4628:	04000000 	streq	r0, [r0], #-0
    462c:	00000aae 	andeq	r0, r0, lr, lsr #21
    4630:	00000047 	andeq	r0, r0, r7, asr #32
    4634:	04050000 	streq	r0, [r5], #-0
    4638:	000aa602 	andeq	sl, sl, r2, lsl #12
    463c:	25620200 	strbcs	r0, [r2, #-512]!	; 0x200
    4640:	06000000 	streq	r0, [r0], -r0
    4644:	6e690504 	cdpvs	5, 6, cr0, cr9, cr4, {0}
    4648:	04070074 	streq	r0, [r7], #-116	; 0x74
    464c:	0000f307 	andeq	pc, r0, r7, lsl #6
    4650:	06010700 	streq	r0, [r1], -r0, lsl #14
    4654:	0000003e 	andeq	r0, r0, lr, lsr r0
    4658:	49050207 	stmdbmi	r5, {r0, r1, r2, r9}
    465c:	07000001 	streq	r0, [r0, -r1]
    4660:	012c0504 	teqeq	ip, r4, lsl #10
    4664:	08070000 	stmdaeq	r7, {}	; <UNPREDICTABLE>
    4668:	00012705 	andeq	r2, r1, r5, lsl #14
    466c:	08010700 	stmdaeq	r1, {r8, r9, sl}
    4670:	0000003c 	andeq	r0, r0, ip, lsr r0
    4674:	12070207 	andne	r0, r7, #1879048192	; 0x70000000
    4678:	07000000 	streq	r0, [r0, -r0]
    467c:	00ee0704 	rsceq	r0, lr, r4, lsl #14
    4680:	08070000 	stmdaeq	r7, {}	; <UNPREDICTABLE>
    4684:	0000e907 	andeq	lr, r0, r7, lsl #18
    4688:	07040700 	streq	r0, [r4, -r0, lsl #14]
    468c:	00000110 	andeq	r0, r0, r0, lsl r1
    4690:	00a70408 	adceq	r0, r7, r8, lsl #8
    4694:	01070000 	mrseq	r0, (UNDEF: 7)
    4698:	00004508 	andeq	r4, r0, r8, lsl #10
    469c:	b4040800 	strlt	r0, [r4], #-2048	; 0x800
    46a0:	09000000 	stmdbeq	r0, {}	; <UNPREDICTABLE>
    46a4:	000000a7 	andeq	r0, r0, r7, lsr #1
    46a8:	000a9d0a 	andeq	r9, sl, sl, lsl #26
    46ac:	54060100 	strpl	r0, [r6], #-256	; 0x100
    46b0:	90000000 	andls	r0, r0, r0
    46b4:	580000a4 	stmdapl	r0, {r2, r5, r7}
    46b8:	01000000 	mrseq	r0, (UNDEF: 0)
    46bc:	0001439c 	muleq	r1, ip, r3
    46c0:	6d660b00 	vstmdbvs	r6!, {d16-d15}
    46c4:	06010074 			; <UNDEFINED> instruction: 0x06010074
    46c8:	000000ae 	andeq	r0, r0, lr, lsr #1
    46cc:	0c709102 	ldfeqp	f1, [r0], #-8
    46d0:	6675620d 	ldrbtvs	r6, [r5], -sp, lsl #4
    46d4:	43080100 	movwmi	r0, #33024	; 0x8100
    46d8:	05000001 	streq	r0, [r0, #-1]
    46dc:	00c62803 	sbceq	r2, r6, r3, lsl #16
    46e0:	0f850e00 	svceq	0x00850e00
    46e4:	09010000 	stmdbeq	r1, {}	; <UNPREDICTABLE>
    46e8:	00000049 	andeq	r0, r0, r9, asr #32
    46ec:	0f5c9102 	svceq	0x005c9102
    46f0:	01007a73 	tsteq	r0, r3, ror sl
    46f4:	0000540c 	andeq	r5, r0, ip, lsl #8
    46f8:	0014aa00 	andseq	sl, r4, r0, lsl #20
    46fc:	a4b81000 	ldrtge	r1, [r8], #0
    4700:	01740000 	cmneq	r4, r0
    4704:	01360000 	teqeq	r6, r0
    4708:	01110000 	tsteq	r1, r0
    470c:	4c910253 	lfmmi	f0, 4, [r1], {83}	; 0x53
    4710:	03520111 	cmpeq	r2, #1073741828	; 0x40000004
    4714:	11064891 			; <UNDEFINED> instruction: 0x11064891
    4718:	0a035101 	beq	d8b24 <__bss_end__+0xcc0fc>
    471c:	01110400 	tsteq	r1, r0, lsl #8
    4720:	00740250 	rsbseq	r0, r4, r0, asr r2
    4724:	a4cc1200 	strbge	r1, [ip], #512	; 0x200
    4728:	01110000 	tsteq	r1, r0
    472c:	00740250 	rsbseq	r0, r4, r0, asr r2
    4730:	a7130000 	ldrge	r0, [r3, -r0]
    4734:	54000000 	strpl	r0, [r0], #-0
    4738:	14000001 	strne	r0, [r0], #-1
    473c:	0000009a 	muleq	r0, sl, r0
    4740:	150003ff 	strne	r0, [r0, #-1023]	; 0x3ff
    4744:	00000054 	andeq	r0, r0, r4, asr r0
    4748:	00000163 	andeq	r0, r0, r3, ror #2
    474c:	0000ae16 	andeq	sl, r0, r6, lsl lr
    4750:	0b170000 	bleq	5c4758 <__bss_end__+0x5b7d30>
    4754:	0400000b 	streq	r0, [r0], #-11
    4758:	00016e22 	andeq	r6, r1, r2, lsr #28
    475c:	54040800 	strpl	r0, [r4], #-2048	; 0x800
    4760:	18000001 	stmdane	r0, {r0}
    4764:	00000a9a 	muleq	r0, sl, sl
    4768:	00540205 	subseq	r0, r4, r5, lsl #4
    476c:	a1160000 	tstge	r6, r0
    4770:	16000000 	strne	r0, [r0], -r0
    4774:	00000054 	andeq	r0, r0, r4, asr r0
    4778:	0000ae16 	andeq	sl, r0, r6, lsl lr
    477c:	00491600 	subeq	r1, r9, r0, lsl #12
    4780:	00000000 	andeq	r0, r0, r0
    4784:	00000113 	andeq	r0, r0, r3, lsl r1
    4788:	0c2b0004 	stceq	0, cr0, [fp], #-16
    478c:	01040000 	mrseq	r0, (UNDEF: 4)
    4790:	000009ca 	andeq	r0, r0, sl, asr #19
    4794:	000ada01 	andeq	sp, sl, r1, lsl #20
    4798:	000a2900 	andeq	r2, sl, r0, lsl #18
    479c:	00a4e800 	adceq	lr, r4, r0, lsl #16
    47a0:	00003c00 	andeq	r3, r0, r0, lsl #24
    47a4:	000c5a00 	andeq	r5, ip, r0, lsl #20
    47a8:	05040200 	streq	r0, [r4, #-512]	; 0x200
    47ac:	00746e69 	rsbseq	r6, r4, r9, ror #28
    47b0:	f3070403 	vshl.u8	d0, d3, d7
    47b4:	03000000 	movweq	r0, #0
    47b8:	003e0601 	eorseq	r0, lr, r1, lsl #12
    47bc:	02030000 	andeq	r0, r3, #0
    47c0:	00014905 	andeq	r4, r1, r5, lsl #18
    47c4:	05040300 	streq	r0, [r4, #-768]	; 0x300
    47c8:	0000012c 	andeq	r0, r0, ip, lsr #2
    47cc:	27050803 	strcs	r0, [r5, -r3, lsl #16]
    47d0:	03000001 	movweq	r0, #1
    47d4:	003c0801 	eorseq	r0, ip, r1, lsl #16
    47d8:	02030000 	andeq	r0, r3, #0
    47dc:	00001207 	andeq	r1, r0, r7, lsl #4
    47e0:	07040300 	streq	r0, [r4, -r0, lsl #6]
    47e4:	000000ee 	andeq	r0, r0, lr, ror #1
    47e8:	e9070803 	stmdb	r7, {r0, r1, fp}
    47ec:	03000000 	movweq	r0, #0
    47f0:	01100704 	tsteq	r0, r4, lsl #14
    47f4:	01030000 	mrseq	r0, (UNDEF: 3)
    47f8:	00004508 	andeq	r4, r0, r8, lsl #10
    47fc:	0abd0400 	beq	fef45804 <__bss_end__+0xfef38ddc>
    4800:	03010000 	movweq	r0, #4096	; 0x1000
    4804:	00000025 	andeq	r0, r0, r5, lsr #32
    4808:	0000a4e8 	andeq	sl, r0, r8, ror #9
    480c:	00000014 	andeq	r0, r0, r4, lsl r0
    4810:	00b09c01 	adcseq	r9, r0, r1, lsl #24
    4814:	63050000 	movwvs	r0, #20480	; 0x5000
    4818:	25030100 	strcs	r0, [r3, #-256]	; 0x100
    481c:	d3000000 	movwle	r0, #0
    4820:	06000014 			; <UNDEFINED> instruction: 0x06000014
    4824:	0000a4f4 	strdeq	sl, [r0], -r4
    4828:	00000109 	andeq	r0, r0, r9, lsl #2
    482c:	02500107 	subseq	r0, r0, #-1073741823	; 0xc0000001
    4830:	00000074 	andeq	r0, r0, r4, ror r0
    4834:	0001d508 	andeq	sp, r1, r8, lsl #10
    4838:	fc080100 	stc2	1, cr0, [r8], {-0}
    483c:	180000a4 	stmdane	r0, {r2, r5, r7}
    4840:	01000000 	mrseq	r0, (UNDEF: 0)
    4844:	0ae9099c 	beq	ffa46ebc <__bss_end__+0xffa3a494>
    4848:	0b010000 	bleq	44850 <__bss_end__+0x37e28>
    484c:	0000a514 	andeq	sl, r0, r4, lsl r5
    4850:	00000010 	andeq	r0, r0, r0, lsl r0
    4854:	00e39c01 	rsceq	r9, r3, r1, lsl #24
    4858:	660a0000 	strvs	r0, [sl], -r0
    485c:	0b010070 	bleq	44a24 <__bss_end__+0x37ffc>
    4860:	000000f2 	strdeq	r0, [r0], -r2
    4864:	0b005001 	bleq	18870 <__bss_end__+0xbe48>
    4868:	00000025 	andeq	r0, r0, r5, lsr #32
    486c:	000000f2 	strdeq	r0, [r0], -r2
    4870:	0000250c 	andeq	r2, r0, ip, lsl #10
    4874:	040d0000 	streq	r0, [sp], #-0
    4878:	000000e3 	andeq	r0, r0, r3, ror #1
    487c:	000ace0e 	andeq	ip, sl, lr, lsl #28
    4880:	f2060100 	vrhadd.s8	d0, d6, d0
    4884:	05000000 	streq	r0, [r0, #-0]
    4888:	00b29803 	adcseq	r9, r2, r3, lsl #16
    488c:	0ab30f00 	beq	fecc8494 <__bss_end__+0xfecbba6c>
    4890:	3c020000 	stccc	0, cr0, [r2], {-0}
    4894:	00002c0c 	andeq	r2, r0, ip, lsl #24
    4898:	ee000000 	cdp	0, 0, cr0, cr0, cr0, {0}
    489c:	04000000 	streq	r0, [r0], #-0
    48a0:	000d1300 	andeq	r1, sp, r0, lsl #6
    48a4:	ca010400 	bgt	458ac <__bss_end__+0x38e84>
    48a8:	01000009 	tsteq	r0, r9
    48ac:	00000af6 	strdeq	r0, [r0], -r6
    48b0:	00000a29 	andeq	r0, r0, r9, lsr #20
    48b4:	0000a524 	andeq	sl, r0, r4, lsr #10
    48b8:	00000034 	andeq	r0, r0, r4, lsr r0
    48bc:	00000cf2 	strdeq	r0, [r0], -r2
    48c0:	69050402 	stmdbvs	r5, {r1, sl}
    48c4:	0300746e 	movweq	r7, #1134	; 0x46e
    48c8:	00f30704 	rscseq	r0, r3, r4, lsl #14
    48cc:	01030000 	mrseq	r0, (UNDEF: 3)
    48d0:	00003e06 	andeq	r3, r0, r6, lsl #28
    48d4:	05020300 	streq	r0, [r2, #-768]	; 0x300
    48d8:	00000149 	andeq	r0, r0, r9, asr #2
    48dc:	2c050403 	cfstrscs	mvf0, [r5], {3}
    48e0:	03000001 	movweq	r0, #1
    48e4:	01270508 	teqeq	r7, r8, lsl #10
    48e8:	01030000 	mrseq	r0, (UNDEF: 3)
    48ec:	00003c08 	andeq	r3, r0, r8, lsl #24
    48f0:	07020300 	streq	r0, [r2, -r0, lsl #6]
    48f4:	00000012 	andeq	r0, r0, r2, lsl r0
    48f8:	ee070403 	cdp	4, 0, cr0, cr7, cr3, {0}
    48fc:	03000000 	movweq	r0, #0
    4900:	00e90708 	rsceq	r0, r9, r8, lsl #14
    4904:	04030000 	streq	r0, [r3], #-0
    4908:	00011007 	andeq	r1, r1, r7
    490c:	08010300 	stmdaeq	r1, {r8, r9}
    4910:	00000045 	andeq	r0, r0, r5, asr #32
    4914:	007f0404 	rsbseq	r0, pc, r4, lsl #8
    4918:	72050000 	andvc	r0, r5, #0
    491c:	06000000 	streq	r0, [r0], -r0
    4920:	00000b02 	andeq	r0, r0, r2, lsl #22
    4924:	00250401 	eoreq	r0, r5, r1, lsl #8
    4928:	a5240000 	strge	r0, [r4, #-0]!
    492c:	00340000 	eorseq	r0, r4, r0
    4930:	9c010000 	stcls	0, cr0, [r1], {-0}
    4934:	000000ab 	andeq	r0, r0, fp, lsr #1
    4938:	01007007 	tsteq	r0, r7
    493c:	00007904 	andeq	r7, r0, r4, lsl #18
    4940:	0014f100 	andseq	pc, r4, r0, lsl #2
    4944:	25080000 	strcs	r0, [r8, #-0]
    4948:	ba000000 	blt	4950 <__code_start__-0x36b0>
    494c:	09000000 	stmdbeq	r0, {}	; <UNPREDICTABLE>
    4950:	00000025 	andeq	r0, r0, r5, lsr #32
    4954:	0ace0a00 	beq	ff38715c <__bss_end__+0xff37a734>
    4958:	1d020000 	stcne	0, cr0, [r2, #-0]
    495c:	000000c5 	andeq	r0, r0, r5, asr #1
    4960:	00ab0404 	adceq	r0, fp, r4, lsl #8
    4964:	25080000 	strcs	r0, [r8, #-0]
    4968:	da000000 	ble	4970 <__code_start__-0x3690>
    496c:	09000000 	stmdbeq	r0, {}	; <UNPREDICTABLE>
    4970:	00000079 	andeq	r0, r0, r9, ror r0
    4974:	0b0b0b00 	bleq	2c757c <__bss_end__+0x2bab54>
    4978:	0c010000 	stceq	0, cr0, [r1], {-0}
    497c:	000000eb 	andeq	r0, r0, fp, ror #1
    4980:	b29c0305 	addslt	r0, ip, #335544320	; 0x14000000
    4984:	04040000 	streq	r0, [r4], #-0
    4988:	000000cb 	andeq	r0, r0, fp, asr #1
    498c:	0006e500 	andeq	lr, r6, r0, lsl #10
    4990:	ac000400 	cfstrsge	mvf0, [r0], {-0}
    4994:	0400000d 	streq	r0, [r0], #-13
    4998:	0009ca01 	andeq	ip, r9, r1, lsl #20
    499c:	0b410100 	bleq	1044da4 <__bss_end__+0x103837c>
    49a0:	0a290000 	beq	a449a8 <__bss_end__+0xa37f80>
    49a4:	a5580000 	ldrbge	r0, [r8, #-0]
    49a8:	05780000 	ldrbeq	r0, [r8, #-0]!
    49ac:	0d960000 	ldceq	0, cr0, [r6]
    49b0:	04020000 	streq	r0, [r2], #-0
    49b4:	746e6905 	strbtvc	r6, [lr], #-2309	; 0x905
    49b8:	07040300 	streq	r0, [r4, -r0, lsl #6]
    49bc:	000000f3 	strdeq	r0, [r0], -r3
    49c0:	3e060103 	adfccs	f0, f6, f3
    49c4:	03000000 	movweq	r0, #0
    49c8:	01490502 	cmpeq	r9, r2, lsl #10
    49cc:	04030000 	streq	r0, [r3], #-0
    49d0:	00012c05 	andeq	r2, r1, r5, lsl #24
    49d4:	05080300 	streq	r0, [r8, #-768]	; 0x300
    49d8:	00000127 	andeq	r0, r0, r7, lsr #2
    49dc:	3c080103 	stfccs	f0, [r8], {3}
    49e0:	03000000 	movweq	r0, #0
    49e4:	00120702 	andseq	r0, r2, r2, lsl #14
    49e8:	04030000 	streq	r0, [r3], #-0
    49ec:	0000ee07 	andeq	lr, r0, r7, lsl #28
    49f0:	07080300 	streq	r0, [r8, -r0, lsl #6]
    49f4:	000000e9 	andeq	r0, r0, r9, ror #1
    49f8:	10070403 	andne	r0, r7, r3, lsl #8
    49fc:	04000001 	streq	r0, [r0], #-1
    4a00:	7a040504 	bvc	105e18 <__bss_end__+0xf93f0>
    4a04:	03000000 	movweq	r0, #0
    4a08:	00450801 	subeq	r0, r5, r1, lsl #16
    4a0c:	04050000 	streq	r0, [r5], #-0
    4a10:	00000087 	andeq	r0, r0, r7, lsl #1
    4a14:	00007a06 	andeq	r7, r0, r6, lsl #20
    4a18:	0a7d0700 	beq	1f46620 <__bss_end__+0x1f39bf8>
    4a1c:	28020000 	stmdacs	r2, {}	; <UNPREDICTABLE>
    4a20:	00000097 	muleq	r0, r7, r0
    4a24:	000aa408 	andeq	sl, sl, r8, lsl #8
    4a28:	00040400 	andeq	r0, r4, r0, lsl #8
    4a2c:	000000ae 	andeq	r0, r0, lr, lsr #1
    4a30:	000aae09 	andeq	sl, sl, r9, lsl #28
    4a34:	00007200 	andeq	r7, r0, r0, lsl #4
    4a38:	07000000 	streq	r0, [r0, -r0]
    4a3c:	00000aa6 	andeq	r0, r0, r6, lsr #21
    4a40:	008c6202 	addeq	r6, ip, r2, lsl #4
    4a44:	280a0000 	stmdacs	sl, {}	; <UNPREDICTABLE>
    4a48:	0100000b 	tsteq	r0, fp
    4a4c:	00002527 	andeq	r2, r0, r7, lsr #10
    4a50:	00a55800 	adceq	r5, r5, r0, lsl #16
    4a54:	00001400 	andeq	r1, r0, r0, lsl #8
    4a58:	e09c0100 	adds	r0, ip, r0, lsl #2
    4a5c:	0b000000 	bleq	4a64 <__code_start__-0x359c>
    4a60:	27010063 	strcs	r0, [r1, -r3, rrx]
    4a64:	00000025 	andeq	r0, r0, r5, lsr #32
    4a68:	0000150f 	andeq	r1, r0, pc, lsl #10
    4a6c:	61700c00 	cmnvs	r0, r0, lsl #24
    4a70:	2e010064 	cdpcs	0, 0, cr0, cr1, cr4, {3}
    4a74:	00000074 	andeq	r0, r0, r4, ror r0
    4a78:	0000a56c 	andeq	sl, r0, ip, ror #10
    4a7c:	0000002c 	andeq	r0, r0, ip, lsr #32
    4a80:	01309c01 	teqeq	r0, r1, lsl #24
    4a84:	700b0000 	andvc	r0, fp, r0
    4a88:	742e0100 	strtvc	r0, [lr], #-256	; 0x100
    4a8c:	3d000000 	stccc	0, cr0, [r0, #-0]
    4a90:	0d000015 	stceq	0, cr0, [r0, #-84]	; 0xffffffac
    4a94:	00000f63 	andeq	r0, r0, r3, ror #30
    4a98:	00742e01 	rsbseq	r2, r4, r1, lsl #28
    4a9c:	15680000 	strbne	r0, [r8, #-0]!
    4aa0:	610e0000 	mrsvs	r0, (UNDEF: 14)
    4aa4:	0100000b 	tsteq	r0, fp
    4aa8:	0000252e 	andeq	r2, r0, lr, lsr #10
    4aac:	0f520100 	svceq	0x00520100
    4ab0:	006e656c 	rsbeq	r6, lr, ip, ror #10
    4ab4:	00252f01 	eoreq	r2, r5, r1, lsl #30
    4ab8:	51010000 	mrspl	r0, (UNDEF: 1)
    4abc:	0b200a00 	bleq	8072c4 <__bss_end__+0x7fa89c>
    4ac0:	37010000 	strcc	r0, [r1, -r0]
    4ac4:	00000074 	andeq	r0, r0, r4, ror r0
    4ac8:	0000a598 	muleq	r0, r8, r5
    4acc:	00000040 	andeq	r0, r0, r0, asr #32
    4ad0:	019c9c01 	orrseq	r9, ip, r1, lsl #24
    4ad4:	640b0000 	strvs	r0, [fp], #-0
    4ad8:	01007473 	tsteq	r0, r3, ror r4
    4adc:	00007437 	andeq	r7, r0, r7, lsr r4
    4ae0:	00158900 	andseq	r8, r5, r0, lsl #18
    4ae4:	006e0b00 	rsbeq	r0, lr, r0, lsl #22
    4ae8:	00253701 	eoreq	r3, r5, r1, lsl #14
    4aec:	15c10000 	strbne	r0, [r1]
    4af0:	700b0000 	andvc	r0, fp, r0
    4af4:	74370100 	ldrtvc	r0, [r7], #-256	; 0x100
    4af8:	e2000000 	and	r0, r0, #0
    4afc:	0d000015 	stceq	0, cr0, [r0, #-84]	; 0xffffffac
    4b00:	0000150f 	andeq	r1, r0, pc, lsl #10
    4b04:	00743701 	rsbseq	r3, r4, r1, lsl #14
    4b08:	16180000 	ldrne	r0, [r8], -r0
    4b0c:	6c100000 	ldcvs	0, cr0, [r0], {-0}
    4b10:	01006e65 	tsteq	r0, r5, ror #28
    4b14:	00002539 	andeq	r2, r0, r9, lsr r5
    4b18:	00163600 	andseq	r3, r6, r0, lsl #12
    4b1c:	00730f00 	rsbseq	r0, r3, r0, lsl #30
    4b20:	00743d01 	rsbseq	r3, r4, r1, lsl #26
    4b24:	50010000 	andpl	r0, r1, r0
    4b28:	0b6f0a00 	bleq	1bc7330 <__bss_end__+0x1bba908>
    4b2c:	47010000 	strmi	r0, [r1, -r0]
    4b30:	00000074 	andeq	r0, r0, r4, ror r0
    4b34:	0000a5d8 	ldrdeq	sl, [r0], -r8
    4b38:	000001bc 			; <UNDEFINED> instruction: 0x000001bc
    4b3c:	02df9c01 	sbcseq	r9, pc, #256	; 0x100
    4b40:	630d0000 	movwvs	r0, #53248	; 0xd000
    4b44:	0100000f 	tsteq	r0, pc
    4b48:	00002c47 	andeq	r2, r0, r7, asr #24
    4b4c:	00165d00 	andseq	r5, r6, r0, lsl #26
    4b50:	73640b00 	cmnvc	r4, #0, 22
    4b54:	47010074 	smlsdxmi	r1, r4, r0, r0
    4b58:	00000074 	andeq	r0, r0, r4, ror r0
    4b5c:	0000168b 	andeq	r1, r0, fp, lsl #13
    4b60:	01006e0b 	tsteq	r0, fp, lsl #28
    4b64:	00002547 	andeq	r2, r0, r7, asr #10
    4b68:	0016f900 	andseq	pc, r6, r0, lsl #18
    4b6c:	61760b00 	cmnvs	r6, r0, lsl #22
    4b70:	4701006c 	strmi	r0, [r1, -ip, rrx]
    4b74:	00000025 	andeq	r0, r0, r5, lsr #32
    4b78:	00001725 	andeq	r1, r0, r5, lsr #14
    4b7c:	000b610d 	andeq	r6, fp, sp, lsl #2
    4b80:	25470100 	strbcs	r0, [r7, #-256]	; 0x100
    4b84:	a4000000 	strge	r0, [r0], #-0
    4b88:	0e000017 	mcreq	0, 0, r0, cr0, cr7, {0}
    4b8c:	00000b38 	andeq	r0, r0, r8, lsr fp
    4b90:	00254701 	eoreq	r4, r5, r1, lsl #14
    4b94:	91020000 	mrsls	r0, (UNDEF: 2)
    4b98:	75620f04 	strbvc	r0, [r2, #-3844]!	; 0xf04
    4b9c:	4c010066 	stcmi	0, cr0, [r1], {102}	; 0x66
    4ba0:	000002df 	ldrdeq	r0, [r0], -pc	; <UNPREDICTABLE>
    4ba4:	7fa89103 	svcvc	0x00a89103
    4ba8:	01007010 	tsteq	r0, r0, lsl r0
    4bac:	0000744c 	andeq	r7, r0, ip, asr #8
    4bb0:	0017ce00 	andseq	ip, r7, r0, lsl #28
    4bb4:	00751000 	rsbseq	r1, r5, r0
    4bb8:	002c4d01 	eoreq	r4, ip, r1, lsl #26
    4bbc:	18b80000 	ldmne	r8!, {}	; <UNPREDICTABLE>
    4bc0:	60110000 	andsvs	r0, r1, r0
    4bc4:	ff000000 			; <UNDEFINED> instruction: 0xff000000
    4bc8:	05000002 	streq	r0, [r0, #-2]
    4bcc:	00c2ac03 	sbceq	sl, r2, r3, lsl #24
    4bd0:	a6441200 	strbge	r1, [r4], -r0, lsl #4
    4bd4:	00740000 	rsbseq	r0, r4, r0
    4bd8:	02610000 	rsbeq	r0, r1, #0
    4bdc:	1a130000 	bne	4c4be4 <__bss_end__+0x4b81bc>
    4be0:	0100000b 	tsteq	r0, fp
    4be4:	00002c52 	andeq	r2, r0, r2, asr ip
    4be8:	00197b00 	andseq	r7, r9, r0, lsl #22
    4bec:	30140000 	andscc	r0, r4, r0
    4bf0:	c40000a7 	strgt	r0, [r0], #-167	; 0xa7
    4bf4:	15000006 	strne	r0, [r0, #-6]
    4bf8:	0000a74c 	andeq	sl, r0, ip, asr #14
    4bfc:	000006cb 	andeq	r0, r0, fp, asr #13
    4c00:	000002a3 	andeq	r0, r0, r3, lsr #5
    4c04:	02530116 	subseq	r0, r3, #-2147483643	; 0x80000005
    4c08:	01167708 	tsteq	r6, r8, lsl #14
    4c0c:	ac030552 	cfstr32ge	mvfx0, [r3], {82}	; 0x52
    4c10:	160000c2 	strne	r0, [r0], -r2, asr #1
    4c14:	03055101 	movweq	r5, #20737	; 0x5101
    4c18:	0000c2d0 	ldrdeq	ip, [r0], -r0
    4c1c:	05500116 	ldrbeq	r0, [r0, #-278]	; 0x116
    4c20:	00b33803 	adcseq	r3, r3, r3, lsl #16
    4c24:	7d021600 	stcvc	6, cr1, [r2, #-0]
    4c28:	68030500 	stmdavs	r3, {r8, sl}
    4c2c:	000000ba 	strheq	r0, [r0], -sl
    4c30:	00a75014 	adceq	r5, r7, r4, lsl r0
    4c34:	0006e100 	andeq	lr, r6, r0, lsl #2
    4c38:	a7581500 	ldrbge	r1, [r8, -r0, lsl #10]
    4c3c:	00e00000 	rsceq	r0, r0, r0
    4c40:	02c10000 	sbceq	r0, r1, #0
    4c44:	01160000 	tsteq	r6, r0
    4c48:	a0910351 	addsge	r0, r1, r1, asr r3
    4c4c:	6c17007f 	ldcvs	0, cr0, [r7], {127}	; 0x7f
    4c50:	300000a7 	andcc	r0, r0, r7, lsr #1
    4c54:	16000001 	strne	r0, [r0], -r1
    4c58:	91035301 	tstls	r3, r1, lsl #6
    4c5c:	01167fa0 	tsteq	r6, r0, lsr #31
    4c60:	00740251 	rsbseq	r0, r4, r1, asr r2
    4c64:	02500116 	subseq	r0, r0, #-2147483643	; 0x80000005
    4c68:	00000075 	andeq	r0, r0, r5, ror r0
    4c6c:	00007a18 	andeq	r7, r0, r8, lsl sl
    4c70:	0002ef00 	andeq	lr, r2, r0, lsl #30
    4c74:	006b1900 	rsbeq	r1, fp, r0, lsl #18
    4c78:	003f0000 	eorseq	r0, pc, r0
    4c7c:	00007a18 	andeq	r7, r0, r8, lsl sl
    4c80:	0002ff00 	andeq	pc, r2, r0, lsl #30
    4c84:	006b1900 	rsbeq	r1, fp, r0, lsl #18
    4c88:	00040000 	andeq	r0, r4, r0
    4c8c:	0002ef06 	andeq	lr, r2, r6, lsl #30
    4c90:	0b521a00 	bleq	148b498 <__bss_end__+0x147ea70>
    4c94:	1f010000 	svcne	0x00010000
    4c98:	0000a794 	muleq	r0, r4, r7
    4c9c:	00000068 	andeq	r0, r0, r8, rrx
    4ca0:	03929c01 	orrseq	r9, r2, #256	; 0x100
    4ca4:	670d0000 	strvs	r0, [sp, -r0]
    4ca8:	0100000b 	tsteq	r0, fp
    4cac:	0003a11f 	andeq	sl, r3, pc, lsl r1
    4cb0:	0019a700 	andseq	sl, r9, r0, lsl #14
    4cb4:	0b300d00 	bleq	c080bc <__bss_end__+0xbfb694>
    4cb8:	1f010000 	svcne	0x00010000
    4cbc:	000003b6 			; <UNDEFINED> instruction: 0x000003b6
    4cc0:	000019d3 	ldrdeq	r1, [r0], -r3
    4cc4:	00006011 	andeq	r6, r0, r1, lsl r0
    4cc8:	0003cc00 	andeq	ip, r3, r0, lsl #24
    4ccc:	b4030500 	strlt	r0, [r3], #-1280	; 0x500
    4cd0:	140000c2 	strne	r0, [r0], #-194	; 0xc2
    4cd4:	0000a7a8 	andeq	sl, r0, r8, lsr #15
    4cd8:	000006c4 	andeq	r0, r0, r4, asr #13
    4cdc:	00a7c415 	adceq	ip, r7, r5, lsl r4
    4ce0:	0006cb00 	andeq	ip, r6, r0, lsl #22
    4ce4:	00038800 	andeq	r8, r3, r0, lsl #16
    4ce8:	53011600 	movwpl	r1, #5632	; 0x1600
    4cec:	16200802 	strtne	r0, [r0], -r2, lsl #16
    4cf0:	03055201 	movweq	r5, #20993	; 0x5201
    4cf4:	0000c2b4 			; <UNDEFINED> instruction: 0x0000c2b4
    4cf8:	05510116 	ldrbeq	r0, [r1, #-278]	; 0x116
    4cfc:	00c2d003 	sbceq	sp, r2, r3
    4d00:	50011600 	andpl	r1, r1, r0, lsl #12
    4d04:	b3380305 	teqlt	r8, #335544320	; 0x14000000
    4d08:	02160000 	andseq	r0, r6, #0
    4d0c:	0305007d 	movweq	r0, #20605	; 0x507d
    4d10:	0000c308 	andeq	ip, r0, r8, lsl #6
    4d14:	a7c81400 	strbge	r1, [r8, r0, lsl #8]
    4d18:	06e10000 	strbteq	r0, [r1], r0
    4d1c:	1b000000 	blne	4d24 <__code_start__-0x32dc>
    4d20:	00000025 	andeq	r0, r0, r5, lsr #32
    4d24:	000003a1 	andeq	r0, r0, r1, lsr #7
    4d28:	0000251c 	andeq	r2, r0, ip, lsl r5
    4d2c:	04050000 	streq	r0, [r5], #-0
    4d30:	00000392 	muleq	r0, r2, r3
    4d34:	0000251b 	andeq	r2, r0, fp, lsl r5
    4d38:	0003b600 	andeq	fp, r3, r0, lsl #12
    4d3c:	00811c00 	addeq	r1, r1, r0, lsl #24
    4d40:	05000000 	streq	r0, [r0, #-0]
    4d44:	0003a704 	andeq	sl, r3, r4, lsl #14
    4d48:	007a1800 	rsbseq	r1, sl, r0, lsl #16
    4d4c:	03cc0000 	biceq	r0, ip, #0
    4d50:	6b190000 	blvs	644d58 <__bss_end__+0x638330>
    4d54:	0e000000 	cdpeq	0, 0, cr0, cr0, cr0, {0}
    4d58:	03bc0600 			; <UNDEFINED> instruction: 0x03bc0600
    4d5c:	9a1d0000 	bls	744d64 <__bss_end__+0x73833c>
    4d60:	0100000a 	tsteq	r0, sl
    4d64:	0000257f 	andeq	r2, r0, pc, ror r5
    4d68:	00a7fc00 	adceq	pc, r7, r0, lsl #24
    4d6c:	0002d400 	andeq	sp, r2, r0, lsl #8
    4d70:	899c0100 	ldmibhi	ip, {r8}
    4d74:	0b000006 	bleq	4d94 <__code_start__-0x326c>
    4d78:	00667562 	rsbeq	r7, r6, r2, ror #10
    4d7c:	00747f01 	rsbseq	r7, r4, r1, lsl #30
    4d80:	19ff0000 	ldmibne	pc!, {}^	; <UNPREDICTABLE>
    4d84:	6e0b0000 	cdpvs	0, 0, cr0, cr11, cr0, {0}
    4d88:	257f0100 	ldrbcs	r0, [pc, #-256]!	; 4c90 <__code_start__-0x3370>
    4d8c:	2b000000 	blcs	4d94 <__code_start__-0x326c>
    4d90:	0b00001a 	bleq	4e00 <__code_start__-0x3200>
    4d94:	00746d66 	rsbseq	r6, r4, r6, ror #26
    4d98:	00817f01 	addeq	r7, r1, r1, lsl #30
    4d9c:	1a590000 	bne	1644da4 <__bss_end__+0x163837c>
    4da0:	850d0000 	strhi	r0, [sp, #-0]
    4da4:	0100000f 	tsteq	r0, pc
    4da8:	0000ae7f 	andeq	sl, r0, pc, ror lr
    4dac:	001a7700 	andseq	r7, sl, r0, lsl #14
    4db0:	00701000 	rsbseq	r1, r0, r0
    4db4:	00748001 	rsbseq	r8, r4, r1
    4db8:	1a8a0000 	bne	fe284dc0 <__bss_end__+0xfe278398>
    4dbc:	65100000 	ldrvs	r0, [r0, #-0]
    4dc0:	74800100 	strvc	r0, [r0], #256	; 0x100
    4dc4:	08000000 	stmdaeq	r0, {}	; <UNPREDICTABLE>
    4dc8:	1300001b 	movwne	r0, #27
    4dcc:	00000b10 	andeq	r0, r0, r0, lsl fp
    4dd0:	00818301 	addeq	r8, r1, r1, lsl #6
    4dd4:	1b2f0000 	blne	bc4ddc <__bss_end__+0xbb83b4>
    4dd8:	60110000 	andsvs	r0, r1, r0
    4ddc:	99000000 	stmdbls	r0, {}	; <UNPREDICTABLE>
    4de0:	05000006 	streq	r0, [r0, #-6]
    4de4:	00c2c403 	sbceq	ip, r2, r3, lsl #8
    4de8:	a8581e00 	ldmdage	r8, {r9, sl, fp, ip}^
    4dec:	022c0000 	eoreq	r0, ip, #0
    4df0:	73100000 	tstvc	r0, #0
    4df4:	748e0100 	strvc	r0, [lr], #256	; 0x100
    4df8:	4f000000 	svcmi	0x00000000
    4dfc:	0f00001b 	svceq	0x0000001b
    4e00:	006d756e 	rsbeq	r7, sp, lr, ror #10
    4e04:	069e8e01 	ldreq	r8, [lr], r1, lsl #28
    4e08:	91030000 	mrsls	r0, (UNDEF: 3)
    4e0c:	61137ed8 			; <UNDEFINED> instruction: 0x61137ed8
    4e10:	0100000b 	tsteq	r0, fp
    4e14:	00002c8f 	andeq	r2, r0, pc, lsl #25
    4e18:	001ba400 	andseq	sl, fp, r0, lsl #8
    4e1c:	a8881500 	stmge	r8, {r8, sl, ip}
    4e20:	00b90000 	adcseq	r0, r9, r0
    4e24:	04a40000 	strteq	r0, [r4], #0
    4e28:	01160000 	tsteq	r6, r0
    4e2c:	00750250 	rsbseq	r0, r5, r0, asr r2
    4e30:	a89c1400 	ldmge	ip, {sl, ip}
    4e34:	06c40000 	strbeq	r0, [r4], r0
    4e38:	b8150000 	ldmdalt	r5, {}	; <UNPREDICTABLE>
    4e3c:	cb0000a8 	blgt	50e4 <__code_start__-0x2f1c>
    4e40:	e6000006 	str	r0, [r0], -r6
    4e44:	16000004 	strne	r0, [r0], -r4
    4e48:	08025301 	stmdaeq	r2, {r0, r8, r9, ip, lr}
    4e4c:	52011695 	andpl	r1, r1, #156237824	; 0x9500000
    4e50:	c2c40305 	sbcgt	r0, r4, #335544320	; 0x14000000
    4e54:	01160000 	tsteq	r6, r0
    4e58:	d0030551 	andle	r0, r3, r1, asr r5
    4e5c:	160000c2 	strne	r0, [r0], -r2, asr #1
    4e60:	03055001 	movweq	r5, #20481	; 0x5001
    4e64:	0000b338 	andeq	fp, r0, r8, lsr r3
    4e68:	007d0216 	rsbseq	r0, sp, r6, lsl r2
    4e6c:	c3100305 	tstgt	r0, #335544320	; 0x14000000
    4e70:	14000000 	strne	r0, [r0], #-0
    4e74:	0000a8bc 			; <UNDEFINED> instruction: 0x0000a8bc
    4e78:	000006e1 	andeq	r0, r0, r1, ror #13
    4e7c:	00a92c14 	adceq	r2, r9, r4, lsl ip
    4e80:	0006c400 	andeq	ip, r6, r0, lsl #8
    4e84:	a9401500 	stmdbge	r0, {r8, sl, ip}^
    4e88:	06cb0000 	strbeq	r0, [fp], r0
    4e8c:	05270000 	streq	r0, [r7, #-0]!
    4e90:	01160000 	tsteq	r6, r0
    4e94:	9b080253 	blls	2057e8 <__bss_end__+0x1f8dc0>
    4e98:	05520116 	ldrbeq	r0, [r2, #-278]	; 0x116
    4e9c:	00c2c403 	sbceq	ip, r2, r3, lsl #8
    4ea0:	51011600 	tstpl	r1, r0, lsl #12
    4ea4:	c2d00305 	sbcsgt	r0, r0, #335544320	; 0x14000000
    4ea8:	01160000 	tsteq	r6, r0
    4eac:	1c030550 	cfstr32ne	mvfx0, [r3], {80}	; 0x50
    4eb0:	000000c3 	andeq	r0, r0, r3, asr #1
    4eb4:	00a94414 	adceq	r4, r9, r4, lsl r4
    4eb8:	0006e100 	andeq	lr, r6, r0, lsl #2
    4ebc:	a9681500 	stmdbge	r8!, {r8, sl, ip}^
    4ec0:	019c0000 	orrseq	r0, ip, r0
    4ec4:	055d0000 	ldrbeq	r0, [sp, #-0]
    4ec8:	01160000 	tsteq	r6, r0
    4ecc:	80080252 	andhi	r0, r8, r2, asr r2
    4ed0:	03510116 	cmpeq	r1, #-2147483643	; 0x80000005
    4ed4:	167ed091 			; <UNDEFINED> instruction: 0x167ed091
    4ed8:	3a015001 	bcc	58ee4 <__bss_end__+0x4c4bc>
    4edc:	047d0216 	ldrbteq	r0, [sp], #-534	; 0x216
    4ee0:	02163101 	andseq	r3, r6, #1073741824	; 0x40000000
    4ee4:	7702007d 	smlsdxvc	r2, sp, r0, r0
    4ee8:	90150000 	andsls	r0, r5, r0
    4eec:	9c0000a9 	stcls	0, cr0, [r0], {169}	; 0xa9
    4ef0:	8a000001 	bhi	4efc <__code_start__-0x3104>
    4ef4:	16000005 	strne	r0, [r0], -r5
    4ef8:	08025201 	stmdaeq	r2, {r0, r9, ip, lr}
    4efc:	51011680 	smlabbpl	r1, r0, r6, r1
    4f00:	7ed09103 	atnvcs	f1, f3
    4f04:	01500116 	cmpeq	r0, r6, lsl r1
    4f08:	7d02163a 	stcvc	6, cr1, [r2, #-232]	; 0xffffff18
    4f0c:	16300104 	ldrtne	r0, [r0], -r4, lsl #2
    4f10:	02007d02 	andeq	r7, r0, #2, 26	; 0x80
    4f14:	15000077 	strne	r0, [r0, #-119]	; 0x77
    4f18:	0000a9b8 			; <UNDEFINED> instruction: 0x0000a9b8
    4f1c:	0000019c 	muleq	r0, ip, r1
    4f20:	000005b7 			; <UNDEFINED> instruction: 0x000005b7
    4f24:	02520116 	subseq	r0, r2, #-2147483643	; 0x80000005
    4f28:	01168008 	tsteq	r6, r8
    4f2c:	d0910351 	addsle	r0, r1, r1, asr r3
    4f30:	5001167e 	andpl	r1, r1, lr, ror r6
    4f34:	02164001 	andseq	r4, r6, #1
    4f38:	3001047d 	andcc	r0, r1, sp, ror r4
    4f3c:	007d0216 	rsbseq	r0, sp, r6, lsl r2
    4f40:	00007702 	andeq	r7, r0, r2, lsl #14
    4f44:	00a9e015 	adceq	lr, r9, r5, lsl r0
    4f48:	00019c00 	andeq	r9, r1, r0, lsl #24
    4f4c:	0005e400 	andeq	lr, r5, r0, lsl #8
    4f50:	52011600 	andpl	r1, r1, #0, 12
    4f54:	16800802 	strne	r0, [r0], r2, lsl #16
    4f58:	91035101 	tstls	r3, r1, lsl #2
    4f5c:	01167ed0 			; <UNDEFINED> instruction: 0x01167ed0
    4f60:	16320150 			; <UNDEFINED> instruction: 0x16320150
    4f64:	01047d02 	tsteq	r4, r2, lsl #26
    4f68:	7d021630 	stcvc	6, cr1, [r2, #-192]	; 0xffffff40
    4f6c:	00770200 	rsbseq	r0, r7, r0, lsl #4
    4f70:	aa141500 	bge	50a378 <__bss_end__+0x4fd950>
    4f74:	019c0000 	orrseq	r0, ip, r0
    4f78:	06110000 	ldreq	r0, [r1], -r0
    4f7c:	01160000 	tsteq	r6, r0
    4f80:	80080252 	andhi	r0, r8, r2, asr r2
    4f84:	03510116 	cmpeq	r1, #-2147483643	; 0x80000005
    4f88:	167ed091 			; <UNDEFINED> instruction: 0x167ed091
    4f8c:	38015001 	stmdacc	r1, {r0, ip, lr}
    4f90:	047d0216 	ldrbteq	r0, [sp], #-534	; 0x216
    4f94:	02163001 	andseq	r3, r6, #1
    4f98:	7702007d 	smlsdxvc	r2, sp, r0, r0
    4f9c:	30150000 	andscc	r0, r5, r0
    4fa0:	cb0000aa 	blgt	5250 <__code_start__-0x2db0>
    4fa4:	34000006 	strcc	r0, [r0], #-6
    4fa8:	16000006 	strne	r0, [r0], -r6
    4fac:	79025201 	stmdbvc	r2, {r0, r9, ip, lr}
    4fb0:	51011600 	tstpl	r1, r0, lsl #12
    4fb4:	16007902 	strne	r7, [r0], -r2, lsl #18
    4fb8:	03055001 	movweq	r5, #20481	; 0x5001
    4fbc:	0000c344 	andeq	ip, r0, r4, asr #6
    4fc0:	aa401f00 	bge	100cbc8 <__bss_end__+0x10001a0>
    4fc4:	06460000 	strbeq	r0, [r6], -r0
    4fc8:	01160000 	tsteq	r6, r0
    4fcc:	cc910450 	cfldrsgt	mvf0, [r1], {80}	; 0x50
    4fd0:	1400067e 	strne	r0, [r0], #-1662	; 0x67e
    4fd4:	0000aa44 	andeq	sl, r0, r4, asr #20
    4fd8:	000006c4 	andeq	r0, r0, r4, asr #13
    4fdc:	00aa5815 	adceq	r5, sl, r5, lsl r8
    4fe0:	0006cb00 	andeq	ip, r6, r0, lsl #22
    4fe4:	00067e00 	andeq	r7, r6, r0, lsl #28
    4fe8:	53011600 	movwpl	r1, #5632	; 0x1600
    4fec:	16bf0802 	ldrtne	r0, [pc], r2, lsl #16
    4ff0:	03055201 	movweq	r5, #20993	; 0x5201
    4ff4:	0000c2c4 	andeq	ip, r0, r4, asr #5
    4ff8:	05510116 	ldrbeq	r0, [r1, #-278]	; 0x116
    4ffc:	00c2d003 	sbceq	sp, r2, r3
    5000:	50011600 	andpl	r1, r1, r0, lsl #12
    5004:	c3740305 	cmngt	r4, #335544320	; 0x14000000
    5008:	14000000 	strne	r0, [r0], #-0
    500c:	0000aa5c 	andeq	sl, r0, ip, asr sl
    5010:	000006e1 	andeq	r0, r0, r1, ror #13
    5014:	7a180000 	bvc	60501c <__bss_end__+0x5f85f4>
    5018:	99000000 	stmdbls	r0, {}	; <UNPREDICTABLE>
    501c:	19000006 	stmdbne	r0, {r1, r2}
    5020:	0000006b 	andeq	r0, r0, fp, rrx
    5024:	89060009 	stmdbhi	r6, {r0, r3}
    5028:	18000006 	stmdane	r0, {r1, r2}
    502c:	0000007a 	andeq	r0, r0, sl, ror r0
    5030:	000006ae 	andeq	r0, r0, lr, lsr #13
    5034:	00006b19 	andeq	r6, r0, r9, lsl fp
    5038:	20007f00 	andcs	r7, r0, r0, lsl #30
    503c:	00000ace 	andeq	r0, r0, lr, asr #21
    5040:	03a11d03 			; <UNDEFINED> instruction: 0x03a11d03
    5044:	0b200000 	bleq	80504c <__bss_end__+0x7f8624>
    5048:	0300000b 	movweq	r0, #11
    504c:	0003b622 	andeq	fp, r3, r2, lsr #12
    5050:	01d52100 	bicseq	r2, r5, r0, lsl #2
    5054:	1e030000 	cdpne	0, 0, cr0, cr3, cr0, {0}
    5058:	000a9d22 	andeq	r9, sl, r2, lsr #26
    505c:	25290300 	strcs	r0, [r9, #-768]!	; 0x300
    5060:	e1000000 	mrs	r0, (UNDEF: 0)
    5064:	1c000006 	stcne	0, cr0, [r0], {6}
    5068:	00000081 	andeq	r0, r0, r1, lsl #1
    506c:	4a210023 	bmi	845100 <__bss_end__+0x8386d8>
    5070:	03000000 	movweq	r0, #0
    5074:	010f0065 	tsteq	pc, r5, rrx
    5078:	00040000 	andeq	r0, r4, r0
    507c:	00000f95 	muleq	r0, r5, pc	; <UNPREDICTABLE>
    5080:	09ca0104 	stmibeq	sl, {r2, r8}^
    5084:	83010000 	movwhi	r0, #4096	; 0x1000
    5088:	2900000b 	stmdbcs	r0, {r0, r1, r3}
    508c:	d000000a 	andle	r0, r0, sl
    5090:	2c0000aa 	stccs	0, cr0, [r0], {170}	; 0xaa
    5094:	8b000000 	blhi	509c <__code_start__-0x2f64>
    5098:	0200000f 	andeq	r0, r0, #15
    509c:	6e690504 	cdpvs	5, 6, cr0, cr9, cr4, {0}
    50a0:	04030074 	streq	r0, [r3], #-116	; 0x74
    50a4:	0000f307 	andeq	pc, r0, r7, lsl #6
    50a8:	06010300 	streq	r0, [r1], -r0, lsl #6
    50ac:	0000003e 	andeq	r0, r0, lr, lsr r0
    50b0:	49050203 	stmdbmi	r5, {r0, r1, r9}
    50b4:	03000001 	movweq	r0, #1
    50b8:	012c0504 	teqeq	ip, r4, lsl #10
    50bc:	08030000 	stmdaeq	r3, {}	; <UNPREDICTABLE>
    50c0:	00012705 	andeq	r2, r1, r5, lsl #14
    50c4:	08010300 	stmdaeq	r1, {r8, r9}
    50c8:	0000003c 	andeq	r0, r0, ip, lsr r0
    50cc:	12070203 	andne	r0, r7, #805306368	; 0x30000000
    50d0:	03000000 	movweq	r0, #0
    50d4:	00ee0704 	rsceq	r0, lr, r4, lsl #14
    50d8:	08030000 	stmdaeq	r3, {}	; <UNPREDICTABLE>
    50dc:	0000e907 	andeq	lr, r0, r7, lsl #18
    50e0:	07040300 	streq	r0, [r4, -r0, lsl #6]
    50e4:	00000110 	andeq	r0, r0, r0, lsl r1
    50e8:	45080103 	strmi	r0, [r8, #-259]	; 0x103
    50ec:	04000000 	streq	r0, [r0], #-0
    50f0:	00007f04 	andeq	r7, r0, r4, lsl #30
    50f4:	00720500 	rsbseq	r0, r2, r0, lsl #10
    50f8:	4a060000 	bmi	185100 <__bss_end__+0x1786d8>
    50fc:	01000000 	mrseq	r0, (UNDEF: 0)
    5100:	00aad004 	adceq	sp, sl, r4
    5104:	00002c00 	andeq	r2, r0, r0, lsl #24
    5108:	d39c0100 	orrsle	r0, ip, #0, 2
    510c:	07000000 	streq	r0, [r0, -r0]
    5110:	0000aad8 	ldrdeq	sl, [r0], -r8
    5114:	000000f3 	strdeq	r0, [r0], -r3
    5118:	00aae808 	adceq	lr, sl, r8, lsl #16
    511c:	0000b500 	andeq	fp, r0, r0, lsl #10
    5120:	50010900 	andpl	r0, r1, r0, lsl #18
    5124:	c3940305 	orrsgt	r0, r4, #335544320	; 0x14000000
    5128:	0a000000 	beq	5130 <__code_start__-0x2ed0>
    512c:	0000aaf0 	strdeq	sl, [r0], -r0
    5130:	000000fa 	strdeq	r0, [r0], -sl
    5134:	000000c9 	andeq	r0, r0, r9, asr #1
    5138:	02500109 	subseq	r0, r0, #1073741826	; 0x40000002
    513c:	07006408 	streq	r6, [r0, -r8, lsl #8]
    5140:	0000aaf4 	strdeq	sl, [r0], -r4
    5144:	0000010b 	andeq	r0, r0, fp, lsl #2
    5148:	00250b00 	eoreq	r0, r5, r0, lsl #22
    514c:	00e20000 	rsceq	r0, r2, r0
    5150:	790c0000 	stmdbvc	ip, {}	; <UNPREDICTABLE>
    5154:	00000000 	andeq	r0, r0, r0
    5158:	000b0b0d 	andeq	r0, fp, sp, lsl #22
    515c:	ed220200 	sfm	f0, 4, [r2, #-0]
    5160:	04000000 	streq	r0, [r0], #-0
    5164:	0000d304 	andeq	sp, r0, r4, lsl #6
    5168:	0b740e00 	bleq	1d08970 <__bss_end__+0x1cfbf48>
    516c:	dc020000 	stcle	0, cr0, [r2], {-0}
    5170:	000ba70f 	andeq	sl, fp, pc, lsl #14
    5174:	0b4f0200 	bleq	13c597c <__bss_end__+0x13b8f54>
    5178:	0c000001 	stceq	0, cr0, [r0], {1}
    517c:	0000002c 	andeq	r0, r0, ip, lsr #32
    5180:	0b9c0e00 	bleq	fe708988 <__bss_end__+0xfe6fbf60>
    5184:	62020000 	andvs	r0, r2, #0
    5188:	00010f00 	andeq	r0, r1, r0, lsl #30
    518c:	5f000400 	svcpl	0x00000400
    5190:	04000010 	streq	r0, [r0], #-16
    5194:	0009ca01 	andeq	ip, r9, r1, lsl #20
    5198:	0be90100 	bleq	ffa455a0 <__bss_end__+0xffa38b78>
    519c:	0a290000 	beq	a451a4 <__bss_end__+0xa3877c>
    51a0:	aafc0000 	bge	fff051a8 <__bss_end__+0xffef8780>
    51a4:	00380000 	eorseq	r0, r8, r0
    51a8:	102c0000 	eorne	r0, ip, r0
    51ac:	04020000 	streq	r0, [r2], #-0
    51b0:	746e6905 	strbtvc	r6, [lr], #-2309	; 0x905
    51b4:	07040300 	streq	r0, [r4, -r0, lsl #6]
    51b8:	000000f3 	strdeq	r0, [r0], -r3
    51bc:	3e060103 	adfccs	f0, f6, f3
    51c0:	03000000 	movweq	r0, #0
    51c4:	01490502 	cmpeq	r9, r2, lsl #10
    51c8:	04030000 	streq	r0, [r3], #-0
    51cc:	00012c05 	andeq	r2, r1, r5, lsl #24
    51d0:	05080300 	streq	r0, [r8, #-768]	; 0x300
    51d4:	00000127 	andeq	r0, r0, r7, lsr #2
    51d8:	3c080103 	stfccs	f0, [r8], {3}
    51dc:	03000000 	movweq	r0, #0
    51e0:	00120702 	andseq	r0, r2, r2, lsl #14
    51e4:	04030000 	streq	r0, [r3], #-0
    51e8:	0000ee07 	andeq	lr, r0, r7, lsl #28
    51ec:	07080300 	streq	r0, [r8, -r0, lsl #6]
    51f0:	000000e9 	andeq	r0, r0, r9, ror #1
    51f4:	10070403 	andne	r0, r7, r3, lsl #8
    51f8:	03000001 	movweq	r0, #1
    51fc:	00450801 	subeq	r0, r5, r1, lsl #16
    5200:	e1040000 	mrs	r0, (UNDEF: 4)
    5204:	0100000b 	tsteq	r0, fp
    5208:	00aafc0d 	adceq	pc, sl, sp, lsl #24
    520c:	00003800 	andeq	r3, r0, r0, lsl #16
    5210:	e19c0100 	orrs	r0, ip, r0, lsl #2
    5214:	05000000 	streq	r0, [r0, #-0]
    5218:	00000bb0 			; <UNDEFINED> instruction: 0x00000bb0
    521c:	00250e01 	eoreq	r0, r5, r1, lsl #28
    5220:	be050000 	cdplt	0, 0, cr0, cr5, cr0, {0}
    5224:	0100000b 	tsteq	r0, fp
    5228:	0000250e 	andeq	r2, r0, lr, lsl #10
    522c:	00250600 	eoreq	r0, r5, r0, lsl #12
    5230:	0f010000 	svceq	0x00010000
    5234:	73736207 	cmnvc	r3, #1879048192	; 0x70000000
    5238:	e1110100 	tst	r1, r0, lsl #2
    523c:	ce000000 	cdpgt	0, 0, cr0, cr0, cr0, {0}
    5240:	0800001b 	stmdaeq	r0, {r0, r1, r3, r4}
    5244:	00000bd9 	ldrdeq	r0, [r0], -r9
    5248:	00e11201 	rsceq	r1, r1, r1, lsl #4
    524c:	24090000 	strcs	r0, [r9], #-0
    5250:	fd0000ab 	stc2	0, cr0, [r0, #-684]	; 0xfffffd54
    5254:	09000000 	stmdbeq	r0, {}	; <UNPREDICTABLE>
    5258:	0000ab28 	andeq	sl, r0, r8, lsr #22
    525c:	00000104 	andeq	r0, r0, r4, lsl #2
    5260:	00ab2c09 	adceq	r2, fp, r9, lsl #24
    5264:	00010b00 	andeq	r0, r1, r0, lsl #22
    5268:	040a0000 	streq	r0, [sl], #-0
    526c:	00000025 	andeq	r0, r0, r5, lsr #32
    5270:	000bb005 	andeq	fp, fp, r5
    5274:	250e0100 	strcs	r0, [lr, #-256]	; 0x100
    5278:	05000000 	streq	r0, [r0, #-0]
    527c:	00000bbe 			; <UNDEFINED> instruction: 0x00000bbe
    5280:	00250e01 	eoreq	r0, r5, r1, lsl #28
    5284:	ca060000 	bgt	18528c <__bss_end__+0x178864>
    5288:	0200000b 	andeq	r0, r0, #11
    528c:	002506da 	ldrdeq	r0, [r5], -sl	; <UNPREDICTABLE>
    5290:	d7020000 	strle	r0, [r2, -r0]
    5294:	00004a06 	andeq	r4, r0, r6, lsl #20
    5298:	00650200 	rsbeq	r0, r5, r0, lsl #4
    529c:	0000013e 	andeq	r0, r0, lr, lsr r1
    52a0:	10f30004 	rscsne	r0, r3, r4
    52a4:	01040000 	mrseq	r0, (UNDEF: 4)
    52a8:	000009ca 	andeq	r0, r0, sl, asr #19
    52ac:	000bfc01 	andeq	pc, fp, r1, lsl #24
    52b0:	000a2900 	andeq	r2, sl, r0, lsl #18
    52b4:	00ab3400 	adceq	r3, fp, r0, lsl #8
    52b8:	00004400 	andeq	r4, r0, r0, lsl #8
    52bc:	0010d600 	andseq	sp, r0, r0, lsl #12
    52c0:	05040200 	streq	r0, [r4, #-512]	; 0x200
    52c4:	00746e69 	rsbseq	r6, r4, r9, ror #28
    52c8:	f3070403 	vshl.u8	d0, d3, d7
    52cc:	03000000 	movweq	r0, #0
    52d0:	003e0601 	eorseq	r0, lr, r1, lsl #12
    52d4:	02030000 	andeq	r0, r3, #0
    52d8:	00014905 	andeq	r4, r1, r5, lsl #18
    52dc:	05040300 	streq	r0, [r4, #-768]	; 0x300
    52e0:	0000012c 	andeq	r0, r0, ip, lsr #2
    52e4:	27050803 	strcs	r0, [r5, -r3, lsl #16]
    52e8:	03000001 	movweq	r0, #1
    52ec:	003c0801 	eorseq	r0, ip, r1, lsl #16
    52f0:	02030000 	andeq	r0, r3, #0
    52f4:	00001207 	andeq	r1, r0, r7, lsl #4
    52f8:	07040300 	streq	r0, [r4, -r0, lsl #6]
    52fc:	000000ee 	andeq	r0, r0, lr, ror #1
    5300:	e9070803 	stmdb	r7, {r0, r1, fp}
    5304:	03000000 	movweq	r0, #0
    5308:	01100704 	tsteq	r0, r4, lsl #14
    530c:	01030000 	mrseq	r0, (UNDEF: 3)
    5310:	00004508 	andeq	r4, r0, r8, lsl #10
    5314:	7f040400 	svcvc	0x00040400
    5318:	05000000 	streq	r0, [r0, #-0]
    531c:	00000072 	andeq	r0, r0, r2, ror r0
    5320:	000c1d06 	andeq	r1, ip, r6, lsl #26
    5324:	34020100 	strcc	r0, [r2], #-256	; 0x100
    5328:	440000ab 	strmi	r0, [r0], #-171	; 0xab
    532c:	01000000 	mrseq	r0, (UNDEF: 0)
    5330:	0001089c 	muleq	r1, ip, r8
    5334:	63700700 	cmnvs	r0, #0, 14
    5338:	2c020100 	stfcss	f0, [r2], {-0}
    533c:	ee000000 	cdp	0, 0, cr0, cr0, cr0, {0}
    5340:	0800001b 	stmdaeq	r0, {r0, r1, r3, r4}
    5344:	00000060 	andeq	r0, r0, r0, rrx
    5348:	00000118 	andeq	r0, r0, r8, lsl r1
    534c:	c3a00305 	movgt	r0, #335544320	; 0x14000000
    5350:	44090000 	strmi	r0, [r9], #-0
    5354:	1d0000ab 	stcne	0, cr0, [r0, #-684]	; 0xfffffd54
    5358:	0a000001 	beq	5364 <__code_start__-0x2c9c>
    535c:	0000ab64 	andeq	sl, r0, r4, ror #22
    5360:	00000124 	andeq	r0, r0, r4, lsr #2
    5364:	000000fe 	strdeq	r0, [r0], -lr
    5368:	0153010b 	cmpeq	r3, fp, lsl #2
    536c:	52010b32 	andpl	r0, r1, #51200	; 0xc800
    5370:	c3a00305 	movgt	r0, #335544320	; 0x14000000
    5374:	010b0000 	mrseq	r0, (UNDEF: 11)
    5378:	f4030551 	vst3.16	{d0,d2,d4}, [r3 :64], r1
    537c:	0b0000c3 	bleq	5690 <__code_start__-0x2970>
    5380:	03055001 	movweq	r5, #20481	; 0x5001
    5384:	0000c3b8 			; <UNDEFINED> instruction: 0x0000c3b8
    5388:	047d020b 	ldrbteq	r0, [sp], #-523	; 0x20b
    538c:	0b007402 	bleq	2239c <__bss_end__+0x15974>
    5390:	05007d02 	streq	r7, [r0, #-3330]	; 0xd02
    5394:	00c41803 	sbceq	r1, r4, r3, lsl #16
    5398:	68090000 	stmdavs	r9, {}	; <UNPREDICTABLE>
    539c:	3a0000ab 	bcc	5650 <__code_start__-0x29b0>
    53a0:	00000001 	andeq	r0, r0, r1
    53a4:	0000720c 	andeq	r7, r0, ip, lsl #4
    53a8:	00011800 	andeq	r1, r1, r0, lsl #16
    53ac:	006b0d00 	rsbeq	r0, fp, r0, lsl #26
    53b0:	00150000 	andseq	r0, r5, r0
    53b4:	00010805 	andeq	r0, r1, r5, lsl #16
    53b8:	01d50e00 	bicseq	r0, r5, r0, lsl #28
    53bc:	1e020000 	cdpne	0, 0, cr0, cr2, cr0, {0}
    53c0:	000a9d0f 	andeq	r9, sl, pc, lsl #26
    53c4:	25290200 	strcs	r0, [r9, #-512]!	; 0x200
    53c8:	3a000000 	bcc	53d0 <__code_start__-0x2c30>
    53cc:	10000001 	andne	r0, r0, r1
    53d0:	00000079 	andeq	r0, r0, r9, ror r0
    53d4:	4a0e0011 	bmi	385420 <__bss_end__+0x3789f8>
    53d8:	02000000 	andeq	r0, r0, #0
    53dc:	013e0065 	teqeq	lr, r5, rrx
    53e0:	00040000 	andeq	r0, r4, r0
    53e4:	000011cb 	andeq	r1, r0, fp, asr #3
    53e8:	09ca0104 	stmibeq	sl, {r2, r8}^
    53ec:	33010000 	movwcc	r0, #4096	; 0x1000
    53f0:	2900000c 	stmdbcs	r0, {r2, r3}
    53f4:	7800000a 	stmdavc	r0, {r1, r3}
    53f8:	440000ab 	strmi	r0, [r0], #-171	; 0xab
    53fc:	7c000000 	stcvc	0, cr0, [r0], {-0}
    5400:	02000011 	andeq	r0, r0, #17
    5404:	6e690504 	cdpvs	5, 6, cr0, cr9, cr4, {0}
    5408:	04030074 	streq	r0, [r3], #-116	; 0x74
    540c:	0000f307 	andeq	pc, r0, r7, lsl #6
    5410:	06010300 	streq	r0, [r1], -r0, lsl #6
    5414:	0000003e 	andeq	r0, r0, lr, lsr r0
    5418:	49050203 	stmdbmi	r5, {r0, r1, r9}
    541c:	03000001 	movweq	r0, #1
    5420:	012c0504 	teqeq	ip, r4, lsl #10
    5424:	08030000 	stmdaeq	r3, {}	; <UNPREDICTABLE>
    5428:	00012705 	andeq	r2, r1, r5, lsl #14
    542c:	08010300 	stmdaeq	r1, {r8, r9}
    5430:	0000003c 	andeq	r0, r0, ip, lsr r0
    5434:	12070203 	andne	r0, r7, #805306368	; 0x30000000
    5438:	03000000 	movweq	r0, #0
    543c:	00ee0704 	rsceq	r0, lr, r4, lsl #14
    5440:	08030000 	stmdaeq	r3, {}	; <UNPREDICTABLE>
    5444:	0000e907 	andeq	lr, r0, r7, lsl #18
    5448:	07040300 	streq	r0, [r4, -r0, lsl #6]
    544c:	00000110 	andeq	r0, r0, r0, lsl r1
    5450:	45080103 	strmi	r0, [r8, #-259]	; 0x103
    5454:	04000000 	streq	r0, [r0], #-0
    5458:	00007f04 	andeq	r7, r0, r4, lsl #30
    545c:	00720500 	rsbseq	r0, r2, r0, lsl #10
    5460:	58060000 	stmdapl	r6, {}	; <UNPREDICTABLE>
    5464:	0100000c 	tsteq	r0, ip
    5468:	00ab7802 	adceq	r7, fp, r2, lsl #16
    546c:	00004400 	andeq	r4, r0, r0, lsl #8
    5470:	089c0100 	ldmeq	ip, {r8}
    5474:	07000001 	streq	r0, [r0, -r1]
    5478:	01006370 	tsteq	r0, r0, ror r3
    547c:	00002c02 	andeq	r2, r0, r2, lsl #24
    5480:	001c0c00 	andseq	r0, ip, r0, lsl #24
    5484:	00600800 	rsbeq	r0, r0, r0, lsl #16
    5488:	01180000 	tsteq	r8, r0
    548c:	03050000 	movweq	r0, #20480	; 0x5000
    5490:	0000c420 	andeq	ip, r0, r0, lsr #8
    5494:	00ab8809 	adceq	r8, fp, r9, lsl #16
    5498:	00011d00 	andeq	r1, r1, r0, lsl #26
    549c:	aba80a00 	blge	fea07ca4 <__bss_end__+0xfe9fb27c>
    54a0:	01240000 	teqeq	r4, r0
    54a4:	00fe0000 	rscseq	r0, lr, r0
    54a8:	010b0000 	mrseq	r0, (UNDEF: 11)
    54ac:	0b320153 	bleq	c85a00 <__bss_end__+0xc78fd8>
    54b0:	03055201 	movweq	r5, #20993	; 0x5201
    54b4:	0000c420 	andeq	ip, r0, r0, lsr #8
    54b8:	0551010b 	ldrbeq	r0, [r1, #-267]	; 0x10b
    54bc:	00c43803 	sbceq	r3, r4, r3, lsl #16
    54c0:	50010b00 	andpl	r0, r1, r0, lsl #22
    54c4:	c3b80305 			; <UNDEFINED> instruction: 0xc3b80305
    54c8:	020b0000 	andeq	r0, fp, #0
    54cc:	7402047d 	strvc	r0, [r2], #-1149	; 0x47d
    54d0:	7d020b00 	vstrvc	d0, [r2, #-0]
    54d4:	60030500 	andvs	r0, r3, r0, lsl #10
    54d8:	000000c4 	andeq	r0, r0, r4, asr #1
    54dc:	00abac09 	adceq	sl, fp, r9, lsl #24
    54e0:	00013a00 	andeq	r3, r1, r0, lsl #20
    54e4:	720c0000 	andvc	r0, ip, #0
    54e8:	18000000 	stmdane	r0, {}	; <UNPREDICTABLE>
    54ec:	0d000001 	stceq	0, cr0, [r0, #-4]
    54f0:	0000006b 	andeq	r0, r0, fp, rrx
    54f4:	08050015 	stmdaeq	r5, {r0, r2, r4}
    54f8:	0e000001 	cdpeq	0, 0, cr0, cr0, cr1, {0}
    54fc:	000001d5 	ldrdeq	r0, [r0], -r5
    5500:	9d0f1e02 	stcls	14, cr1, [pc, #-8]	; 5500 <__code_start__-0x2b00>
    5504:	0200000a 	andeq	r0, r0, #10
    5508:	00002529 	andeq	r2, r0, r9, lsr #10
    550c:	00013a00 	andeq	r3, r1, r0, lsl #20
    5510:	00791000 	rsbseq	r1, r9, r0
    5514:	00110000 	andseq	r0, r1, r0
    5518:	00004a0e 	andeq	r4, r0, lr, lsl #20
    551c:	00650200 	rsbeq	r0, r5, r0, lsl #4
    5520:	0000013e 	andeq	r0, r0, lr, lsr r1
    5524:	12a30004 	adcne	r0, r3, #4
    5528:	01040000 	mrseq	r0, (UNDEF: 4)
    552c:	000009ca 	andeq	r0, r0, sl, asr #19
    5530:	000c7b01 	andeq	r7, ip, r1, lsl #22
    5534:	000a2900 	andeq	r2, sl, r0, lsl #18
    5538:	00abbc00 	adceq	fp, fp, r0, lsl #24
    553c:	00004400 	andeq	r4, r0, r0, lsl #8
    5540:	00122600 	andseq	r2, r2, r0, lsl #12
    5544:	05040200 	streq	r0, [r4, #-512]	; 0x200
    5548:	00746e69 	rsbseq	r6, r4, r9, ror #28
    554c:	f3070403 	vshl.u8	d0, d3, d7
    5550:	03000000 	movweq	r0, #0
    5554:	003e0601 	eorseq	r0, lr, r1, lsl #12
    5558:	02030000 	andeq	r0, r3, #0
    555c:	00014905 	andeq	r4, r1, r5, lsl #18
    5560:	05040300 	streq	r0, [r4, #-768]	; 0x300
    5564:	0000012c 	andeq	r0, r0, ip, lsr #2
    5568:	27050803 	strcs	r0, [r5, -r3, lsl #16]
    556c:	03000001 	movweq	r0, #1
    5570:	003c0801 	eorseq	r0, ip, r1, lsl #16
    5574:	02030000 	andeq	r0, r3, #0
    5578:	00001207 	andeq	r1, r0, r7, lsl #4
    557c:	07040300 	streq	r0, [r4, -r0, lsl #6]
    5580:	000000ee 	andeq	r0, r0, lr, ror #1
    5584:	e9070803 	stmdb	r7, {r0, r1, fp}
    5588:	03000000 	movweq	r0, #0
    558c:	01100704 	tsteq	r0, r4, lsl #14
    5590:	01030000 	mrseq	r0, (UNDEF: 3)
    5594:	00004508 	andeq	r4, r0, r8, lsl #10
    5598:	7f040400 	svcvc	0x00040400
    559c:	05000000 	streq	r0, [r0, #-0]
    55a0:	00000072 	andeq	r0, r0, r2, ror r0
    55a4:	000c6e06 	andeq	r6, ip, r6, lsl #28
    55a8:	bc020100 	stflts	f0, [r2], {-0}
    55ac:	440000ab 	strmi	r0, [r0], #-171	; 0xab
    55b0:	01000000 	mrseq	r0, (UNDEF: 0)
    55b4:	0001089c 	muleq	r1, ip, r8
    55b8:	63700700 	cmnvs	r0, #0, 14
    55bc:	2c020100 	stfcss	f0, [r2], {-0}
    55c0:	2a000000 	bcs	55c8 <__code_start__-0x2a38>
    55c4:	0800001c 	stmdaeq	r0, {r2, r3, r4}
    55c8:	00000060 	andeq	r0, r0, r0, rrx
    55cc:	00000118 	andeq	r0, r0, r8, lsl r1
    55d0:	c4700305 	ldrbtgt	r0, [r0], #-773	; 0x305
    55d4:	cc090000 	stcgt	0, cr0, [r9], {-0}
    55d8:	1d0000ab 	stcne	0, cr0, [r0, #-684]	; 0xfffffd54
    55dc:	0a000001 	beq	55e8 <__code_start__-0x2a18>
    55e0:	0000abec 	andeq	sl, r0, ip, ror #23
    55e4:	00000124 	andeq	r0, r0, r4, lsr #2
    55e8:	000000fe 	strdeq	r0, [r0], -lr
    55ec:	0153010b 	cmpeq	r3, fp, lsl #2
    55f0:	52010b32 	andpl	r0, r1, #51200	; 0xc800
    55f4:	c4700305 	ldrbtgt	r0, [r0], #-773	; 0x305
    55f8:	010b0000 	mrseq	r0, (UNDEF: 11)
    55fc:	80030551 	andhi	r0, r3, r1, asr r5
    5600:	0b0000c4 	bleq	5918 <__code_start__-0x26e8>
    5604:	03055001 	movweq	r5, #20481	; 0x5001
    5608:	0000c3b8 			; <UNDEFINED> instruction: 0x0000c3b8
    560c:	047d020b 	ldrbteq	r0, [sp], #-523	; 0x20b
    5610:	0b007402 	bleq	22620 <__bss_end__+0x15bf8>
    5614:	05007d02 	streq	r7, [r0, #-3330]	; 0xd02
    5618:	00c4a403 	sbceq	sl, r4, r3, lsl #8
    561c:	f0090000 			; <UNDEFINED> instruction: 0xf0090000
    5620:	3a0000ab 	bcc	58d4 <__code_start__-0x272c>
    5624:	00000001 	andeq	r0, r0, r1
    5628:	0000720c 	andeq	r7, r0, ip, lsl #4
    562c:	00011800 	andeq	r1, r1, r0, lsl #16
    5630:	006b0d00 	rsbeq	r0, fp, r0, lsl #26
    5634:	000c0000 	andeq	r0, ip, r0
    5638:	00010805 	andeq	r0, r1, r5, lsl #16
    563c:	01d50e00 	bicseq	r0, r5, r0, lsl #28
    5640:	1e020000 	cdpne	0, 0, cr0, cr2, cr0, {0}
    5644:	000a9d0f 	andeq	r9, sl, pc, lsl #26
    5648:	25290200 	strcs	r0, [r9, #-512]!	; 0x200
    564c:	3a000000 	bcc	5654 <__code_start__-0x29ac>
    5650:	10000001 	andne	r0, r0, r1
    5654:	00000079 	andeq	r0, r0, r9, ror r0
    5658:	4a0e0011 	bmi	3856a4 <__bss_end__+0x378c7c>
    565c:	02000000 	andeq	r0, r0, #0
    5660:	013e0065 	teqeq	lr, r5, rrx
    5664:	00040000 	andeq	r0, r4, r0
    5668:	0000137b 	andeq	r1, r0, fp, ror r3
    566c:	09ca0104 	stmibeq	sl, {r2, r8}^
    5670:	9d010000 	stcls	0, cr0, [r1, #-0]
    5674:	2900000c 	stmdbcs	r0, {r2, r3}
    5678:	0000000a 	andeq	r0, r0, sl
    567c:	440000ac 	strmi	r0, [r0], #-172	; 0xac
    5680:	cd000000 	stcgt	0, cr0, [r0, #-0]
    5684:	02000012 	andeq	r0, r0, #18
    5688:	6e690504 	cdpvs	5, 6, cr0, cr9, cr4, {0}
    568c:	04030074 	streq	r0, [r3], #-116	; 0x74
    5690:	0000f307 	andeq	pc, r0, r7, lsl #6
    5694:	06010300 	streq	r0, [r1], -r0, lsl #6
    5698:	0000003e 	andeq	r0, r0, lr, lsr r0
    569c:	49050203 	stmdbmi	r5, {r0, r1, r9}
    56a0:	03000001 	movweq	r0, #1
    56a4:	012c0504 	teqeq	ip, r4, lsl #10
    56a8:	08030000 	stmdaeq	r3, {}	; <UNPREDICTABLE>
    56ac:	00012705 	andeq	r2, r1, r5, lsl #14
    56b0:	08010300 	stmdaeq	r1, {r8, r9}
    56b4:	0000003c 	andeq	r0, r0, ip, lsr r0
    56b8:	12070203 	andne	r0, r7, #805306368	; 0x30000000
    56bc:	03000000 	movweq	r0, #0
    56c0:	00ee0704 	rsceq	r0, lr, r4, lsl #14
    56c4:	08030000 	stmdaeq	r3, {}	; <UNPREDICTABLE>
    56c8:	0000e907 	andeq	lr, r0, r7, lsl #18
    56cc:	07040300 	streq	r0, [r4, -r0, lsl #6]
    56d0:	00000110 	andeq	r0, r0, r0, lsl r1
    56d4:	45080103 	strmi	r0, [r8, #-259]	; 0x103
    56d8:	04000000 	streq	r0, [r0], #-0
    56dc:	00007f04 	andeq	r7, r0, r4, lsl #30
    56e0:	00720500 	rsbseq	r0, r2, r0, lsl #10
    56e4:	c8060000 	stmdagt	r6, {}	; <UNPREDICTABLE>
    56e8:	0100000c 	tsteq	r0, ip
    56ec:	00ac0002 	adceq	r0, ip, r2
    56f0:	00004400 	andeq	r4, r0, r0, lsl #8
    56f4:	089c0100 	ldmeq	ip, {r8}
    56f8:	07000001 	streq	r0, [r0, -r1]
    56fc:	01006370 	tsteq	r0, r0, ror r3
    5700:	00002c02 	andeq	r2, r0, r2, lsl #24
    5704:	001c4800 	andseq	r4, ip, r0, lsl #16
    5708:	00600800 	rsbeq	r0, r0, r0, lsl #16
    570c:	01180000 	tsteq	r8, r0
    5710:	03050000 	movweq	r0, #20480	; 0x5000
    5714:	0000c4ac 	andeq	ip, r0, ip, lsr #9
    5718:	00ac1009 	adceq	r1, ip, r9
    571c:	00011d00 	andeq	r1, r1, r0, lsl #26
    5720:	ac300a00 	ldcge	10, cr0, [r0], #-0
    5724:	01240000 	teqeq	r4, r0
    5728:	00fe0000 	rscseq	r0, lr, r0
    572c:	010b0000 	mrseq	r0, (UNDEF: 11)
    5730:	0b320153 	bleq	c85c84 <__bss_end__+0xc7925c>
    5734:	03055201 	movweq	r5, #20993	; 0x5201
    5738:	0000c4ac 	andeq	ip, r0, ip, lsr #9
    573c:	0551010b 	ldrbeq	r0, [r1, #-267]	; 0x10b
    5740:	00c4cc03 	sbceq	ip, r4, r3, lsl #24
    5744:	50010b00 	andpl	r0, r1, r0, lsl #22
    5748:	c3b80305 			; <UNDEFINED> instruction: 0xc3b80305
    574c:	020b0000 	andeq	r0, fp, #0
    5750:	7402047d 	strvc	r0, [r2], #-1149	; 0x47d
    5754:	7d020b00 	vstrvc	d0, [r2, #-0]
    5758:	f8030500 			; <UNDEFINED> instruction: 0xf8030500
    575c:	000000c4 	andeq	r0, r0, r4, asr #1
    5760:	00ac3409 	adceq	r3, ip, r9, lsl #8
    5764:	00013a00 	andeq	r3, r1, r0, lsl #20
    5768:	720c0000 	andvc	r0, ip, #0
    576c:	18000000 	stmdane	r0, {}	; <UNPREDICTABLE>
    5770:	0d000001 	stceq	0, cr0, [r0, #-4]
    5774:	0000006b 	andeq	r0, r0, fp, rrx
    5778:	0805001c 	stmdaeq	r5, {r2, r3, r4}
    577c:	0e000001 	cdpeq	0, 0, cr0, cr0, cr1, {0}
    5780:	000001d5 	ldrdeq	r0, [r0], -r5
    5784:	9d0f1e02 	stcls	14, cr1, [pc, #-8]	; 5784 <__code_start__-0x287c>
    5788:	0200000a 	andeq	r0, r0, #10
    578c:	00002529 	andeq	r2, r0, r9, lsr #10
    5790:	00013a00 	andeq	r3, r1, r0, lsl #20
    5794:	00791000 	rsbseq	r1, r9, r0
    5798:	00110000 	andseq	r0, r1, r0
    579c:	00004a0e 	andeq	r4, r0, lr, lsl #20
    57a0:	00650200 	rsbeq	r0, r5, r0, lsl #4
    57a4:	00000098 	muleq	r0, r8, r0
    57a8:	14530004 	ldrbne	r0, [r3], #-4
    57ac:	01040000 	mrseq	r0, (UNDEF: 4)
    57b0:	000009ca 	andeq	r0, r0, sl, asr #19
    57b4:	000ce501 	andeq	lr, ip, r1, lsl #10
    57b8:	000a2900 	andeq	r2, sl, r0, lsl #18
    57bc:	00ac4400 	adceq	r4, ip, r0, lsl #8
    57c0:	00000800 	andeq	r0, r0, r0, lsl #16
    57c4:	00137d00 	andseq	r7, r3, r0, lsl #26
    57c8:	05040200 	streq	r0, [r4, #-512]	; 0x200
    57cc:	00746e69 	rsbseq	r6, r4, r9, ror #28
    57d0:	f3070403 	vshl.u8	d0, d3, d7
    57d4:	03000000 	movweq	r0, #0
    57d8:	003e0601 	eorseq	r0, lr, r1, lsl #12
    57dc:	02030000 	andeq	r0, r3, #0
    57e0:	00014905 	andeq	r4, r1, r5, lsl #18
    57e4:	05040300 	streq	r0, [r4, #-768]	; 0x300
    57e8:	0000012c 	andeq	r0, r0, ip, lsr #2
    57ec:	27050803 	strcs	r0, [r5, -r3, lsl #16]
    57f0:	03000001 	movweq	r0, #1
    57f4:	003c0801 	eorseq	r0, ip, r1, lsl #16
    57f8:	02030000 	andeq	r0, r3, #0
    57fc:	00001207 	andeq	r1, r0, r7, lsl #4
    5800:	07040300 	streq	r0, [r4, -r0, lsl #6]
    5804:	000000ee 	andeq	r0, r0, lr, ror #1
    5808:	e9070803 	stmdb	r7, {r0, r1, fp}
    580c:	03000000 	movweq	r0, #0
    5810:	01100704 	tsteq	r0, r4, lsl #14
    5814:	01030000 	mrseq	r0, (UNDEF: 3)
    5818:	00004508 	andeq	r4, r0, r8, lsl #10
    581c:	0bca0400 	bleq	ff286824 <__bss_end__+0xff279dfc>
    5820:	04010000 	streq	r0, [r1], #-0
    5824:	0000ac44 	andeq	sl, r0, r4, asr #24
    5828:	00000004 	andeq	r0, r0, r4
    582c:	74049c01 	strvc	r9, [r4], #-3073	; 0xc01
    5830:	0100000b 	tsteq	r0, fp
    5834:	00ac4805 	adceq	r4, ip, r5, lsl #16
    5838:	00000400 	andeq	r0, r0, r0, lsl #8
    583c:	009c0100 	addseq	r0, ip, r0, lsl #2
    5840:	000001d7 	ldrdeq	r0, [r0], -r7
    5844:	14950004 	ldrne	r0, [r5], #4
    5848:	01040000 	mrseq	r0, (UNDEF: 4)
    584c:	000009ca 	andeq	r0, r0, sl, asr #19
    5850:	000da101 	andeq	sl, sp, r1, lsl #2
    5854:	000a2900 	andeq	r2, sl, r0, lsl #18
    5858:	00ac4c00 	adceq	r4, ip, r0, lsl #24
    585c:	00006c00 	andeq	r6, r0, r0, lsl #24
    5860:	0013c800 	andseq	ip, r3, r0, lsl #16
    5864:	05040200 	streq	r0, [r4, #-512]	; 0x200
    5868:	00746e69 	rsbseq	r6, r4, r9, ror #28
    586c:	f3070403 	vshl.u8	d0, d3, d7
    5870:	03000000 	movweq	r0, #0
    5874:	003e0601 	eorseq	r0, lr, r1, lsl #12
    5878:	02030000 	andeq	r0, r3, #0
    587c:	00014905 	andeq	r4, r1, r5, lsl #18
    5880:	05040300 	streq	r0, [r4, #-768]	; 0x300
    5884:	0000012c 	andeq	r0, r0, ip, lsr #2
    5888:	27050803 	strcs	r0, [r5, -r3, lsl #16]
    588c:	03000001 	movweq	r0, #1
    5890:	003c0801 	eorseq	r0, ip, r1, lsl #16
    5894:	02030000 	andeq	r0, r3, #0
    5898:	00001207 	andeq	r1, r0, r7, lsl #4
    589c:	07040300 	streq	r0, [r4, -r0, lsl #6]
    58a0:	000000ee 	andeq	r0, r0, lr, ror #1
    58a4:	e9070803 	stmdb	r7, {r0, r1, fp}
    58a8:	03000000 	movweq	r0, #0
    58ac:	01100704 	tsteq	r0, r4, lsl #14
    58b0:	01030000 	mrseq	r0, (UNDEF: 3)
    58b4:	00004508 	andeq	r4, r0, r8, lsl #10
    58b8:	02040400 	andeq	r0, r4, #0, 8
    58bc:	0000f014 	andeq	pc, r0, r4, lsl r0	; <UNPREDICTABLE>
    58c0:	0dba0500 	cfldr32eq	mvfx0, [sl]
    58c4:	e4800000 	str	r0, [r0], #0
    58c8:	05028082 	streq	r8, [r2, #-130]	; 0x82
    58cc:	00000d40 	andeq	r0, r0, r0, asr #26
    58d0:	8082e480 	addhi	lr, r2, r0, lsl #9
    58d4:	0de70502 	cfstr64eq	mvdx0, [r7, #8]!
    58d8:	e4840000 	str	r0, [r4], #0
    58dc:	05028082 	streq	r8, [r2, #-130]	; 0x82
    58e0:	00000d02 	andeq	r0, r0, r2, lsl #26
    58e4:	8082e488 	addhi	lr, r2, r8, lsl #9
    58e8:	0d230502 	cfstr32eq	mvfx0, [r3, #-8]!
    58ec:	e48c0000 	str	r0, [ip], #0
    58f0:	05028082 	streq	r8, [r2, #-130]	; 0x82
    58f4:	00000d64 	andeq	r0, r0, r4, ror #26
    58f8:	8082e490 	umullhi	lr, r2, r0, r4
    58fc:	0d720502 	cfldr64eq	mvdx0, [r2, #-8]!
    5900:	e4940000 	ldr	r0, [r4], #0
    5904:	05028082 	streq	r8, [r2, #-130]	; 0x82
    5908:	00000d52 	andeq	r0, r0, r2, asr sp
    590c:	8082e498 	umullhi	lr, r2, r8, r4
    5910:	0dc90502 	cfstr64eq	mvdx0, [r9, #8]
    5914:	e49c0000 	ldr	r0, [ip], #0
    5918:	05028082 	streq	r8, [r2, #-130]	; 0x82
    591c:	00000dd8 	ldrdeq	r0, [r0], -r8
    5920:	8082e4a0 	addhi	lr, r2, r0, lsr #9
    5924:	0d100502 	cfldr32eq	mvfx0, [r0, #-8]
    5928:	e4a40000 	strt	r0, [r4], #0
    592c:	00028082 	andeq	r8, r2, r2, lsl #1
    5930:	0005b006 	andeq	fp, r5, r6
    5934:	4c1b0100 	ldfmis	f0, [fp], {-0}
    5938:	6c0000ac 	stcvs	0, cr0, [r0], {172}	; 0xac
    593c:	01000000 	mrseq	r0, (UNDEF: 0)
    5940:	0001a59c 	muleq	r1, ip, r5
    5944:	0d2f0700 	stceq	7, cr0, [pc, #-0]	; 594c <__code_start__-0x26b4>
    5948:	23010000 	movwcs	r0, #4096	; 0x1000
    594c:	0000002c 	andeq	r0, r0, ip, lsr #32
    5950:	000d8007 	andeq	r8, sp, r7
    5954:	2c240100 	stfcss	f0, [r4], #-0
    5958:	08000000 	stmdaeq	r0, {}	; <UNPREDICTABLE>
    595c:	00747364 	rsbseq	r7, r4, r4, ror #6
    5960:	01a52701 			; <UNDEFINED> instruction: 0x01a52701
    5964:	09000000 	stmdbeq	r0, {}	; <UNPREDICTABLE>
    5968:	00637273 	rsbeq	r7, r3, r3, ror r2
    596c:	01a52801 			; <UNDEFINED> instruction: 0x01a52801
    5970:	6e0a0000 	cdpvs	0, 0, cr0, cr10, cr0, {0}
    5974:	2c290100 	stfcss	f0, [r9], #-0
    5978:	01000000 	mrseq	r0, (UNDEF: 0)
    597c:	ac800b50 	vstmiage	r0, {d0-<overflow reg d39>}
    5980:	00240000 	eoreq	r0, r4, r0
    5984:	01580000 	cmpeq	r8, r0
    5988:	690c0000 	stmdbvs	ip, {}	; <UNPREDICTABLE>
    598c:	252a0100 	strcs	r0, [sl, #-256]!	; 0x100
    5990:	66000000 	strvs	r0, [r0], -r0
    5994:	0000001c 	andeq	r0, r0, ip, lsl r0
    5998:	00ac540d 	adceq	r5, ip, sp, lsl #8
    599c:	0001c100 	andeq	ip, r1, r0, lsl #2
    59a0:	ac600e00 	stclge	14, cr0, [r0], #-0
    59a4:	01c80000 	biceq	r0, r8, r0
    59a8:	017e0000 	cmneq	lr, r0
    59ac:	010f0000 	mrseq	r0, CPSR
    59b0:	ff090251 			; <UNDEFINED> instruction: 0xff090251
    59b4:	0550010f 	ldrbeq	r0, [r0, #-271]	; 0x10f
    59b8:	00b21c0c 	adcseq	r1, r2, ip, lsl #24
    59bc:	6c0e0020 	stcvs	0, cr0, [lr], {32}
    59c0:	c80000ac 	stmdagt	r0, {r2, r3, r5, r7}
    59c4:	9b000001 	blls	59d0 <__code_start__-0x2630>
    59c8:	0f000001 	svceq	0x00000001
    59cc:	09025101 	stmdbeq	r2, {r0, r8, ip, lr}
    59d0:	50010fff 	strdpl	r0, [r1], -pc	; <UNPREDICTABLE>
    59d4:	b2200c05 	eorlt	r0, r0, #1280	; 0x500
    59d8:	0d002000 	stceq	0, cr2, [r0, #-0]
    59dc:	0000ac70 	andeq	sl, r0, r0, ror ip
    59e0:	000001c1 	andeq	r0, r0, r1, asr #3
    59e4:	2c041000 	stccs	0, cr1, [r4], {-0}
    59e8:	07000000 	streq	r0, [r0, -r0]
    59ec:	00000d2f 	andeq	r0, r0, pc, lsr #26
    59f0:	002c2301 	eoreq	r2, ip, r1, lsl #6
    59f4:	80070000 	andhi	r0, r7, r0
    59f8:	0100000d 	tsteq	r0, sp
    59fc:	00002c24 	andeq	r2, r0, r4, lsr #24
    5a00:	0d951100 	ldfeqs	f1, [r5]
    5a04:	89030000 	stmdbhi	r3, {}	; <UNPREDICTABLE>
    5a08:	000dc312 	andeq	ip, sp, r2, lsl r3
    5a0c:	139b0300 	orrsne	r0, fp, #0, 6
    5a10:	0000002c 	andeq	r0, r0, ip, lsr #32
    5a14:	00002c13 	andeq	r2, r0, r3, lsl ip
    5a18:	ad000000 	stcge	0, cr0, [r0, #-0]
    5a1c:	04000001 	streq	r0, [r0], #-1
    5a20:	00159b00 	andseq	r9, r5, r0, lsl #22
    5a24:	ca010400 	bgt	46a2c <__bss_end__+0x3a004>
    5a28:	01000009 	tsteq	r0, r9
    5a2c:	00000e03 	andeq	r0, r0, r3, lsl #28
    5a30:	00000a29 	andeq	r0, r0, r9, lsr #20
    5a34:	00000048 	andeq	r0, r0, r8, asr #32
    5a38:	00000000 	andeq	r0, r0, r0
    5a3c:	00001495 	muleq	r0, r5, r4
    5a40:	69050402 	stmdbvs	r5, {r1, sl}
    5a44:	0300746e 	movweq	r7, #1134	; 0x46e
    5a48:	00f30704 	rscseq	r0, r3, r4, lsl #14
    5a4c:	01030000 	mrseq	r0, (UNDEF: 3)
    5a50:	00003e06 	andeq	r3, r0, r6, lsl #28
    5a54:	05020300 	streq	r0, [r2, #-768]	; 0x300
    5a58:	00000149 	andeq	r0, r0, r9, asr #2
    5a5c:	2c050403 	cfstrscs	mvf0, [r5], {3}
    5a60:	03000001 	movweq	r0, #1
    5a64:	01270508 	teqeq	r7, r8, lsl #10
    5a68:	01030000 	mrseq	r0, (UNDEF: 3)
    5a6c:	00003c08 	andeq	r3, r0, r8, lsl #24
    5a70:	07020300 	streq	r0, [r2, -r0, lsl #6]
    5a74:	00000012 	andeq	r0, r0, r2, lsl r0
    5a78:	ee070403 	cdp	4, 0, cr0, cr7, cr3, {0}
    5a7c:	03000000 	movweq	r0, #0
    5a80:	00e90708 	rsceq	r0, r9, r8, lsl #14
    5a84:	04030000 	streq	r0, [r3], #-0
    5a88:	00011007 	andeq	r1, r1, r7
    5a8c:	08010300 	stmdaeq	r1, {r8, r9}
    5a90:	00000045 	andeq	r0, r0, r5, asr #32
    5a94:	000df504 	andeq	pc, sp, r4, lsl #10
    5a98:	250e0100 	strcs	r0, [lr, #-256]	; 0x100
    5a9c:	b8000000 	stmdalt	r0, {}	; <UNPREDICTABLE>
    5aa0:	180000ac 	stmdane	r0, {r2, r3, r5, r7}
    5aa4:	01000000 	mrseq	r0, (UNDEF: 0)
    5aa8:	0000a29c 	muleq	r0, ip, r2
    5aac:	016c0500 	cmneq	ip, r0, lsl #10
    5ab0:	0f010000 	svceq	0x00010000
    5ab4:	0000002c 	andeq	r0, r0, ip, lsr #32
    5ab8:	00001c85 	andeq	r1, r0, r5, lsl #25
    5abc:	0e370600 	cfmsuba32eq	mvax0, mvax0, mvfx7, mvfx0
    5ac0:	17010000 	strne	r0, [r1, -r0]
    5ac4:	0000acd0 	ldrdeq	sl, [r0], -r0
    5ac8:	00000014 	andeq	r0, r0, r4, lsl r0
    5acc:	00c79c01 	sbceq	r9, r7, r1, lsl #24
    5ad0:	6c050000 	stcvs	0, cr0, [r5], {-0}
    5ad4:	01000001 	tsteq	r0, r1
    5ad8:	00002c18 	andeq	r2, r0, r8, lsl ip
    5adc:	001ca400 	andseq	sl, ip, r0, lsl #8
    5ae0:	9c060000 	stcls	0, cr0, [r6], {-0}
    5ae4:	0100000b 	tsteq	r0, fp
    5ae8:	00ace41f 	adceq	lr, ip, pc, lsl r4
    5aec:	00004800 	andeq	r4, r0, r0, lsl #16
    5af0:	779c0100 	ldrvc	r0, [ip, r0, lsl #2]
    5af4:	07000001 	streq	r0, [r0, -r1]
    5af8:	00000e52 	andeq	r0, r0, r2, asr lr
    5afc:	01772a01 	cmneq	r7, r1, lsl #20
    5b00:	001c0000 	andseq	r0, ip, r0
    5b04:	2f072010 	svccs	0x00072010
    5b08:	0100000e 	tsteq	r0, lr
    5b0c:	0001772b 	andeq	r7, r1, fp, lsr #14
    5b10:	10002400 	andne	r2, r0, r0, lsl #8
    5b14:	0e460720 	cdpeq	7, 4, cr0, cr6, cr0, {1}
    5b18:	2c010000 	stccs	0, cr0, [r1], {-0}
    5b1c:	00000177 	andeq	r0, r0, r7, ror r1
    5b20:	5a000000 	bpl	5b28 <__code_start__-0x24d8>
    5b24:	000e1608 	andeq	r1, lr, r8, lsl #12
    5b28:	772d0100 	strvc	r0, [sp, -r0, lsl #2]!
    5b2c:	20000001 	andcs	r0, r0, r1
    5b30:	00acec09 	adceq	lr, ip, r9, lsl #24
    5b34:	00007900 	andeq	r7, r0, r0, lsl #18
    5b38:	acf80900 	ldclge	9, cr0, [r8]
    5b3c:	00a20000 	adceq	r0, r2, r0
    5b40:	000a0000 	andeq	r0, sl, r0
    5b44:	8d0000ad 	stchi	0, cr0, [r0, #-692]	; 0xfffffd4c
    5b48:	3a000001 	bcc	5b54 <__code_start__-0x24ac>
    5b4c:	0b000001 	bleq	5b58 <__code_start__-0x24a8>
    5b50:	4e015001 	cdpmi	0, 0, cr5, cr1, cr1, {0}
    5b54:	ad0c0a00 	vstrge	s0, [ip, #-0]
    5b58:	019e0000 	orrseq	r0, lr, r0
    5b5c:	015a0000 	cmpeq	sl, r0
    5b60:	010b0000 	mrseq	r0, (UNDEF: 11)
    5b64:	010c0551 	tsteq	ip, r1, asr r5
    5b68:	0b5a0000 	bleq	1685b70 <__bss_end__+0x1679148>
    5b6c:	0c055001 	stceq	0, cr5, [r5], {1}
    5b70:	20100024 	andscs	r0, r0, r4, lsr #32
    5b74:	ad180c00 	ldcge	12, cr0, [r8, #-0]
    5b78:	019e0000 	orrseq	r0, lr, r0
    5b7c:	010b0000 	mrseq	r0, (UNDEF: 11)
    5b80:	200c0551 	andcs	r0, ip, r1, asr r5
    5b84:	0b5a0000 	bleq	1685b8c <__bss_end__+0x1679164>
    5b88:	0c055001 	stceq	0, cr5, [r5], {1}
    5b8c:	2010001c 	andscs	r0, r0, ip, lsl r0
    5b90:	250d0000 	strcs	r0, [sp, #-0]
    5b94:	08000000 	stmdaeq	r0, {}	; <UNPREDICTABLE>
    5b98:	00000df8 	strdeq	r0, [r0], -r8
    5b9c:	01880d01 	orreq	r0, r8, r1, lsl #26
    5ba0:	0d100000 	ldceq	0, cr0, [r0, #-0]
    5ba4:	0000002c 	andeq	r0, r0, ip, lsr #32
    5ba8:	000ba70e 	andeq	sl, fp, lr, lsl #14
    5bac:	9e4f0200 	cdpls	2, 4, cr0, cr15, cr0, {0}
    5bb0:	0f000001 	svceq	0x00000001
    5bb4:	0000002c 	andeq	r0, r0, ip, lsr #32
    5bb8:	0dc31000 	stcleq	0, cr1, [r3]
    5bbc:	9b020000 	blls	85bc4 <__bss_end__+0x7919c>
    5bc0:	00002c0f 	andeq	r2, r0, pc, lsl #24
    5bc4:	002c0f00 	eoreq	r0, ip, r0, lsl #30
    5bc8:	00000000 	andeq	r0, r0, r0
    5bcc:	000001f7 	strdeq	r0, [r0], -r7
    5bd0:	16890004 	strne	r0, [r9], r4
    5bd4:	01040000 	mrseq	r0, (UNDEF: 4)
    5bd8:	000009ca 	andeq	r0, r0, sl, asr #19
    5bdc:	000e7701 	andeq	r7, lr, r1, lsl #14
    5be0:	000a2900 	andeq	r2, sl, r0, lsl #18
    5be4:	00ad2c00 	adceq	r2, sp, r0, lsl #24
    5be8:	00009800 	andeq	r9, r0, r0, lsl #16
    5bec:	00153b00 	andseq	r3, r5, r0, lsl #22
    5bf0:	05040200 	streq	r0, [r4, #-512]	; 0x200
    5bf4:	00746e69 	rsbseq	r6, r4, r9, ror #28
    5bf8:	f3070403 	vshl.u8	d0, d3, d7
    5bfc:	03000000 	movweq	r0, #0
    5c00:	003e0601 	eorseq	r0, lr, r1, lsl #12
    5c04:	02030000 	andeq	r0, r3, #0
    5c08:	00014905 	andeq	r4, r1, r5, lsl #18
    5c0c:	05040300 	streq	r0, [r4, #-768]	; 0x300
    5c10:	0000012c 	andeq	r0, r0, ip, lsr #2
    5c14:	27050803 	strcs	r0, [r5, -r3, lsl #16]
    5c18:	03000001 	movweq	r0, #1
    5c1c:	003c0801 	eorseq	r0, ip, r1, lsl #16
    5c20:	02030000 	andeq	r0, r3, #0
    5c24:	00001207 	andeq	r1, r0, r7, lsl #4
    5c28:	07040300 	streq	r0, [r4, -r0, lsl #6]
    5c2c:	000000ee 	andeq	r0, r0, lr, ror #1
    5c30:	e9070803 	stmdb	r7, {r0, r1, fp}
    5c34:	03000000 	movweq	r0, #0
    5c38:	01100704 	tsteq	r0, r4, lsl #14
    5c3c:	01030000 	mrseq	r0, (UNDEF: 3)
    5c40:	00004508 	andeq	r4, r0, r8, lsl #10
    5c44:	0e950400 	cdpeq	4, 9, cr0, cr5, cr0, {0}
    5c48:	05010000 	streq	r0, [r1, #-0]
    5c4c:	0000ad2c 	andeq	sl, r0, ip, lsr #26
    5c50:	0000001c 	andeq	r0, r0, ip, lsl r0
    5c54:	009e9c01 	addseq	r9, lr, r1, lsl #24
    5c58:	8f050000 	svchi	0x00050000
    5c5c:	0100000e 	tsteq	r0, lr
    5c60:	00002c05 	andeq	r2, r0, r5, lsl #24
    5c64:	001cce00 	andseq	ip, ip, r0, lsl #28
    5c68:	5a060000 	bpl	185c70 <__bss_end__+0x179248>
    5c6c:	0100000e 	tsteq	r0, lr
    5c70:	00002c11 	andeq	r2, r0, r1, lsl ip
    5c74:	00ad4800 	adceq	r4, sp, r0, lsl #16
    5c78:	00001400 	andeq	r1, r0, r0, lsl #8
    5c7c:	cb9c0100 	blgt	fe706084 <__bss_end__+0xfe6f965c>
    5c80:	07000000 	streq	r0, [r0, -r0]
    5c84:	0000ad54 	andeq	sl, r0, r4, asr sp
    5c88:	000001de 	ldrdeq	r0, [r0], -lr
    5c8c:	05500108 	ldrbeq	r0, [r0, #-264]	; 0x108
    5c90:	0030040c 	eorseq	r0, r0, ip, lsl #8
    5c94:	06000020 	streq	r0, [r0], -r0, lsr #32
    5c98:	00000eab 	andeq	r0, r0, fp, lsr #29
    5c9c:	002c1601 	eoreq	r1, ip, r1, lsl #12
    5ca0:	ad5c0000 	ldclge	0, cr0, [ip, #-0]
    5ca4:	001c0000 	andseq	r0, ip, r0
    5ca8:	9c010000 	stcls	0, cr0, [r1], {-0}
    5cac:	0000010d 	andeq	r0, r0, sp, lsl #2
    5cb0:	01007509 	tsteq	r0, r9, lsl #10
    5cb4:	00002c1a 	andeq	r2, r0, sl, lsl ip
    5cb8:	001d0200 	andseq	r0, sp, r0, lsl #4
    5cbc:	ad640a00 	vstmdbge	r4!, {s1-s0}
    5cc0:	01f30000 	mvnseq	r0, r0
    5cc4:	680a0000 	stmdavs	sl, {}	; <UNPREDICTABLE>
    5cc8:	9e0000ad 	cdpls	0, 0, cr0, cr0, cr13, {5}
    5ccc:	0a000000 	beq	5cd4 <__code_start__-0x232c>
    5cd0:	0000ad70 	andeq	sl, r0, r0, ror sp
    5cd4:	000001f3 	strdeq	r0, [r0], -r3
    5cd8:	0ea20400 	cdpeq	4, 10, cr0, cr2, cr0, {0}
    5cdc:	1f010000 	svcne	0x00010000
    5ce0:	0000ad78 	andeq	sl, r0, r8, ror sp
    5ce4:	00000024 	andeq	r0, r0, r4, lsr #32
    5ce8:	016b9c01 	cmneq	fp, r1, lsl #24
    5cec:	750b0000 	strvc	r0, [fp, #-0]
    5cf0:	1f010073 	svcne	0x00010073
    5cf4:	0000002c 	andeq	r0, r0, ip, lsr #32
    5cf8:	00001d20 	andeq	r1, r0, r0, lsr #26
    5cfc:	0062720c 	rsbeq	r7, r2, ip, lsl #4
    5d00:	002c2001 	eoreq	r2, ip, r1
    5d04:	54010000 	strpl	r0, [r1], #-0
    5d08:	00ad880d 	adceq	r8, sp, sp, lsl #16
    5d0c:	00001000 	andeq	r1, r0, r0
    5d10:	00016100 	andeq	r6, r1, r0, lsl #2
    5d14:	61720900 	cmnvs	r2, r0, lsl #18
    5d18:	2c220100 	stfcss	f0, [r2], #-0
    5d1c:	3e000000 	cdpcc	0, 0, cr0, cr0, cr0, {0}
    5d20:	0a00001d 	beq	5d9c <__code_start__-0x2264>
    5d24:	0000ad8c 	andeq	sl, r0, ip, lsl #27
    5d28:	000000cb 	andeq	r0, r0, fp, asr #1
    5d2c:	ad840a00 	vstrge	s0, [r4]
    5d30:	00cb0000 	sbceq	r0, fp, r0
    5d34:	04000000 	streq	r0, [r0], #-0
    5d38:	00000ba7 	andeq	r0, r0, r7, lsr #23
    5d3c:	ad9c2801 	ldcge	8, cr2, [ip, #4]
    5d40:	00140000 	andseq	r0, r4, r0
    5d44:	9c010000 	stcls	0, cr0, [r1], {-0}
    5d48:	000001a4 	andeq	r0, r0, r4, lsr #3
    5d4c:	00736d0b 	rsbseq	r6, r3, fp, lsl #26
    5d50:	002c2801 	eoreq	r2, ip, r1, lsl #16
    5d54:	1d510000 	ldclne	0, cr0, [r1, #-0]
    5d58:	ac070000 	stcge	0, cr0, [r7], {-0}
    5d5c:	0d0000ad 	stceq	0, cr0, [r0, #-692]	; 0xfffffd4c
    5d60:	08000001 	stmdaeq	r0, {r0}
    5d64:	f3075001 	vhadd.u8	d5, d7, d1
    5d68:	e80a5001 	stmda	sl, {r0, ip, lr}
    5d6c:	00001e03 	andeq	r1, r0, r3, lsl #28
    5d70:	000e6d04 	andeq	r6, lr, r4, lsl #26
    5d74:	b02b0100 	eorlt	r0, fp, r0, lsl #2
    5d78:	140000ad 	strne	r0, [r0], #-173	; 0xad
    5d7c:	01000000 	mrseq	r0, (UNDEF: 0)
    5d80:	0001de9c 	muleq	r1, ip, lr
    5d84:	65730b00 	ldrbvs	r0, [r3, #-2816]!	; 0xb00
    5d88:	2b010063 	blcs	45f1c <__bss_end__+0x394f4>
    5d8c:	0000002c 	andeq	r0, r0, ip, lsr #32
    5d90:	00001d72 	andeq	r1, r0, r2, ror sp
    5d94:	00adc007 	adceq	ip, sp, r7
    5d98:	00016b00 	andeq	r6, r1, r0, lsl #22
    5d9c:	50010800 	andpl	r0, r1, r0, lsl #16
    5da0:	5001f307 	andpl	pc, r1, r7, lsl #6
    5da4:	1e03e80a 	cdpne	8, 0, cr14, cr3, cr10, {0}
    5da8:	890e0000 	stmdbhi	lr, {}	; <UNPREDICTABLE>
    5dac:	0200000e 	andeq	r0, r0, #14
    5db0:	00002ca7 	andeq	r2, r0, r7, lsr #25
    5db4:	0001f300 	andeq	pc, r1, r0, lsl #6
    5db8:	002c0f00 	eoreq	r0, ip, r0, lsl #30
    5dbc:	10000000 	andne	r0, r0, r0
    5dc0:	00000d95 	muleq	r0, r5, sp
    5dc4:	c5008902 	strgt	r8, [r0, #-2306]	; 0x902
    5dc8:	0400000c 	streq	r0, [r0], #-12
    5dcc:	00177f00 	andseq	r7, r7, r0, lsl #30
    5dd0:	50010400 	andpl	r0, r1, r0, lsl #8
    5dd4:	0c000012 	stceq	0, cr0, [r0], {18}
    5dd8:	00000fb9 			; <UNDEFINED> instruction: 0x00000fb9
    5ddc:	00000fd4 	ldrdeq	r0, [r0], -r4
    5de0:	0000ae28 	andeq	sl, r0, r8, lsr #28
    5de4:	00000178 	andeq	r0, r0, r8, ror r1
    5de8:	000015ed 	andeq	r1, r0, sp, ror #11
    5dec:	69050402 	stmdbvs	r5, {r1, sl}
    5df0:	0300746e 	movweq	r7, #1134	; 0x46e
    5df4:	00f30704 	rscseq	r0, r3, r4, lsl #14
    5df8:	2c040000 	stccs	0, cr0, [r4], {-0}
    5dfc:	03000000 	movweq	r0, #0
    5e00:	003e0601 	eorseq	r0, lr, r1, lsl #12
    5e04:	02030000 	andeq	r0, r3, #0
    5e08:	00014905 	andeq	r4, r1, r5, lsl #18
    5e0c:	05040300 	streq	r0, [r4, #-768]	; 0x300
    5e10:	0000012c 	andeq	r0, r0, ip, lsr #2
    5e14:	27050803 	strcs	r0, [r5, -r3, lsl #16]
    5e18:	03000001 	movweq	r0, #1
    5e1c:	003c0801 	eorseq	r0, ip, r1, lsl #16
    5e20:	02030000 	andeq	r0, r3, #0
    5e24:	00001207 	andeq	r1, r0, r7, lsl #4
    5e28:	07040300 	streq	r0, [r4, -r0, lsl #6]
    5e2c:	000000ee 	andeq	r0, r0, lr, ror #1
    5e30:	e9070803 	stmdb	r7, {r0, r1, fp}
    5e34:	05000000 	streq	r0, [r0, #-0]
    5e38:	00001165 	andeq	r1, r0, r5, ror #2
    5e3c:	00250702 	eoreq	r0, r5, r2, lsl #14
    5e40:	4f050000 	svcmi	0x00050000
    5e44:	03000011 	movweq	r0, #17
    5e48:	0000462c 	andeq	r4, r0, ip, lsr #12
    5e4c:	122b0500 	eorne	r0, fp, #0, 10
    5e50:	72030000 	andvc	r0, r3, #0
    5e54:	00000046 	andeq	r0, r0, r6, asr #32
    5e58:	0010f906 	andseq	pc, r0, r6, lsl #18
    5e5c:	01650400 	cmneq	r5, r0, lsl #8
    5e60:	0000002c 	andeq	r0, r0, ip, lsr #32
    5e64:	a6030407 	strge	r0, [r3], -r7, lsl #8
    5e68:	000000bc 	strheq	r0, [r0], -ip
    5e6c:	0010e408 	andseq	lr, r0, r8, lsl #8
    5e70:	91a80300 			; <UNDEFINED> instruction: 0x91a80300
    5e74:	08000000 	stmdaeq	r0, {}	; <UNPREDICTABLE>
    5e78:	0000108c 	andeq	r1, r0, ip, lsl #1
    5e7c:	00bca903 	adcseq	sl, ip, r3, lsl #18
    5e80:	09000000 	stmdbeq	r0, {}	; <UNPREDICTABLE>
    5e84:	00000054 	andeq	r0, r0, r4, asr r0
    5e88:	000000cc 	andeq	r0, r0, ip, asr #1
    5e8c:	0000cc0a 	andeq	ip, r0, sl, lsl #24
    5e90:	03000300 	movweq	r0, #768	; 0x300
    5e94:	01100704 	tsteq	r0, r4, lsl #14
    5e98:	080b0000 	stmdaeq	fp, {}	; <UNPREDICTABLE>
    5e9c:	00f4a303 	rscseq	sl, r4, r3, lsl #6
    5ea0:	100c0000 	andne	r0, ip, r0
    5ea4:	03000012 	movweq	r0, #18
    5ea8:	000025a5 	andeq	r2, r0, r5, lsr #11
    5eac:	180c0000 	stmdane	ip, {}	; <UNPREDICTABLE>
    5eb0:	03000012 	movweq	r0, #18
    5eb4:	00009daa 	andeq	r9, r0, sl, lsr #27
    5eb8:	05000400 	streq	r0, [r0, #-1024]	; 0x400
    5ebc:	000011a3 	andeq	r1, r0, r3, lsr #3
    5ec0:	00d3ab03 	sbcseq	sl, r3, r3, lsl #22
    5ec4:	55050000 	strpl	r0, [r5, #-0]
    5ec8:	03000010 	movweq	r0, #16
    5ecc:	000070af 	andeq	r7, r0, pc, lsr #1
    5ed0:	0e040d00 	cdpeq	13, 0, cr0, cr4, cr0, {0}
    5ed4:	00011204 	andeq	r1, r1, r4, lsl #4
    5ed8:	08010300 	stmdaeq	r1, {r8, r9}
    5edc:	00000045 	andeq	r0, r0, r5, asr #32
    5ee0:	0001120f 	andeq	r1, r1, pc, lsl #4
    5ee4:	12cd0500 	sbcne	r0, sp, #0, 10
    5ee8:	16050000 	strne	r0, [r5], -r0
    5eec:	00000062 	andeq	r0, r0, r2, rrx
    5ef0:	00106610 	andseq	r6, r0, r0, lsl r6
    5ef4:	2d051800 	stccs	8, cr1, [r5, #-0]
    5ef8:	0000017c 	andeq	r0, r0, ip, ror r1
    5efc:	0011c40c 	andseq	ip, r1, ip, lsl #8
    5f00:	7c2f0500 	cfstr32vc	mvfx0, [pc], #-0	; 5f08 <__code_start__-0x20f8>
    5f04:	00000001 	andeq	r0, r0, r1
    5f08:	006b5f11 	rsbeq	r5, fp, r1, lsl pc
    5f0c:	00253005 	eoreq	r3, r5, r5
    5f10:	0c040000 	stceq	0, cr0, [r4], {-0}
    5f14:	000011fb 	strdeq	r1, [r0], -fp
    5f18:	00253005 	eoreq	r3, r5, r5
    5f1c:	0c080000 	stceq	0, cr0, [r8], {-0}
    5f20:	00001041 	andeq	r1, r0, r1, asr #32
    5f24:	00253005 	eoreq	r3, r5, r5
    5f28:	0c0c0000 	stceq	0, cr0, [ip], {-0}
    5f2c:	00001314 	andeq	r1, r0, r4, lsl r3
    5f30:	00253005 	eoreq	r3, r5, r5
    5f34:	11100000 	tstne	r0, r0
    5f38:	0500785f 	streq	r7, [r0, #-2143]	; 0x85f
    5f3c:	00018231 	andeq	r8, r1, r1, lsr r2
    5f40:	0e001400 	cfcpyseq	mvf1, mvf0
    5f44:	00012904 	andeq	r2, r1, r4, lsl #18
    5f48:	011e0900 	tsteq	lr, r0, lsl #18
    5f4c:	01920000 	orrseq	r0, r2, r0
    5f50:	cc0a0000 	stcgt	0, cr0, [sl], {-0}
    5f54:	00000000 	andeq	r0, r0, r0
    5f58:	10871000 	addne	r1, r7, r0
    5f5c:	05240000 	streq	r0, [r4, #-0]!
    5f60:	00020b35 	andeq	r0, r2, r5, lsr fp
    5f64:	0f3f0c00 	svceq	0x003f0c00
    5f68:	37050000 	strcc	r0, [r5, -r0]
    5f6c:	00000025 	andeq	r0, r0, r5, lsr #32
    5f70:	12330c00 	eorsne	r0, r3, #0, 24
    5f74:	38050000 	stmdacc	r5, {}	; <UNPREDICTABLE>
    5f78:	00000025 	andeq	r0, r0, r5, lsr #32
    5f7c:	0f6d0c04 	svceq	0x006d0c04
    5f80:	39050000 	stmdbcc	r5, {}	; <UNPREDICTABLE>
    5f84:	00000025 	andeq	r0, r0, r5, lsr #32
    5f88:	14040c08 	strne	r0, [r4], #-3080	; 0xc08
    5f8c:	3a050000 	bcc	145f94 <__bss_end__+0x13956c>
    5f90:	00000025 	andeq	r0, r0, r5, lsr #32
    5f94:	11330c0c 	teqne	r3, ip, lsl #24
    5f98:	3b050000 	blcc	145fa0 <__bss_end__+0x139578>
    5f9c:	00000025 	andeq	r0, r0, r5, lsr #32
    5fa0:	11080c10 	tstne	r8, r0, lsl ip
    5fa4:	3c050000 	stccc	0, cr0, [r5], {-0}
    5fa8:	00000025 	andeq	r0, r0, r5, lsr #32
    5fac:	13190c14 	tstne	r9, #20, 24	; 0x1400
    5fb0:	3d050000 	stccc	0, cr0, [r5, #-0]
    5fb4:	00000025 	andeq	r0, r0, r5, lsr #32
    5fb8:	11850c18 	orrne	r0, r5, r8, lsl ip
    5fbc:	3e050000 	cdpcc	0, 0, cr0, cr5, cr0, {0}
    5fc0:	00000025 	andeq	r0, r0, r5, lsr #32
    5fc4:	13cb0c1c 	bicne	r0, fp, #28, 24	; 0x1c00
    5fc8:	3f050000 	svccc	0x00050000
    5fcc:	00000025 	andeq	r0, r0, r5, lsr #32
    5fd0:	7c120020 	ldcvc	0, cr0, [r2], {32}
    5fd4:	0800000f 	stmdaeq	r0, {r0, r1, r2, r3}
    5fd8:	4b480501 	blmi	12073e4 <__bss_end__+0x11fa9bc>
    5fdc:	0c000002 	stceq	0, cr0, [r0], {2}
    5fe0:	00001028 	andeq	r1, r0, r8, lsr #32
    5fe4:	024b4905 	subeq	r4, fp, #81920	; 0x14000
    5fe8:	0c000000 	stceq	0, cr0, [r0], {-0}
    5fec:	00000eba 			; <UNDEFINED> instruction: 0x00000eba
    5ff0:	024b4a05 	subeq	r4, fp, #20480	; 0x5000
    5ff4:	13800000 	orrne	r0, r0, #0
    5ff8:	000012bf 			; <UNDEFINED> instruction: 0x000012bf
    5ffc:	011e4c05 	tsteq	lr, r5, lsl #24
    6000:	01000000 	mrseq	r0, (UNDEF: 0)
    6004:	000fa113 	andeq	sl, pc, r3, lsl r1	; <UNPREDICTABLE>
    6008:	1e4f0500 	cdpne	5, 4, cr0, cr15, cr0, {0}
    600c:	04000001 	streq	r0, [r0], #-1
    6010:	0a090001 	beq	24601c <__bss_end__+0x2395f4>
    6014:	5b000001 	blpl	6020 <__code_start__-0x1fe0>
    6018:	0a000002 	beq	6028 <__code_start__-0x1fd8>
    601c:	000000cc 	andeq	r0, r0, ip, asr #1
    6020:	3c12001f 	ldccc	0, cr0, [r2], {31}
    6024:	90000011 	andls	r0, r0, r1, lsl r0
    6028:	995b0501 	ldmdbls	fp, {r0, r8, sl}^
    602c:	0c000002 	stceq	0, cr0, [r0], {2}
    6030:	000011c4 	andeq	r1, r0, r4, asr #3
    6034:	02995c05 	addseq	r5, r9, #1280	; 0x500
    6038:	0c000000 	stceq	0, cr0, [r0], {-0}
    603c:	000011dc 	ldrdeq	r1, [r0], -ip
    6040:	00255d05 	eoreq	r5, r5, r5, lsl #26
    6044:	0c040000 	stceq	0, cr0, [r4], {-0}
    6048:	0000103c 	andeq	r1, r0, ip, lsr r0
    604c:	029f5f05 	addseq	r5, pc, #5, 30
    6050:	0c080000 	stceq	0, cr0, [r8], {-0}
    6054:	00000f7c 	andeq	r0, r0, ip, ror pc
    6058:	020b6005 	andeq	r6, fp, #5
    605c:	00880000 	addeq	r0, r8, r0
    6060:	025b040e 	subseq	r0, fp, #234881024	; 0xe000000
    6064:	af090000 	svcge	0x00090000
    6068:	af000002 	svcge	0x00000002
    606c:	0a000002 	beq	607c <__code_start__-0x1f84>
    6070:	000000cc 	andeq	r0, r0, ip, asr #1
    6074:	040e001f 	streq	r0, [lr], #-31
    6078:	000002b5 			; <UNDEFINED> instruction: 0x000002b5
    607c:	118f1014 	orrne	r1, pc, r4, lsl r0	; <UNPREDICTABLE>
    6080:	05080000 	streq	r0, [r8, #-0]
    6084:	0002db73 	andeq	sp, r2, r3, ror fp
    6088:	0f620c00 	svceq	0x00620c00
    608c:	74050000 	strvc	r0, [r5], #-0
    6090:	000002db 	ldrdeq	r0, [r0], -fp
    6094:	0ec60c00 	cdpeq	12, 12, cr0, cr6, cr0, {0}
    6098:	75050000 	strvc	r0, [r5, #-0]
    609c:	00000025 	andeq	r0, r0, r5, lsr #32
    60a0:	040e0004 	streq	r0, [lr], #-4
    60a4:	00000054 	andeq	r0, r0, r4, asr r0
    60a8:	0011ae10 	andseq	sl, r1, r0, lsl lr
    60ac:	b3056800 	movwlt	r6, #22528	; 0x5800
    60b0:	0000040b 	andeq	r0, r0, fp, lsl #8
    60b4:	00705f11 	rsbseq	r5, r0, r1, lsl pc
    60b8:	02dbb405 	sbcseq	fp, fp, #83886080	; 0x5000000
    60bc:	11000000 	mrsne	r0, (UNDEF: 0)
    60c0:	0500725f 	streq	r7, [r0, #-607]	; 0x25f
    60c4:	000025b5 			; <UNDEFINED> instruction: 0x000025b5
    60c8:	5f110400 	svcpl	0x00110400
    60cc:	b6050077 			; <UNDEFINED> instruction: 0xb6050077
    60d0:	00000025 	andeq	r0, r0, r5, lsr #32
    60d4:	0f9a0c08 	svceq	0x009a0c08
    60d8:	b7050000 	strlt	r0, [r5, -r0]
    60dc:	0000003f 	andeq	r0, r0, pc, lsr r0
    60e0:	10ad0c0c 	adcne	r0, sp, ip, lsl #24
    60e4:	b8050000 	stmdalt	r5, {}	; <UNPREDICTABLE>
    60e8:	0000003f 	andeq	r0, r0, pc, lsr r0
    60ec:	625f110e 	subsvs	r1, pc, #-2147483645	; 0x80000003
    60f0:	b9050066 	stmdblt	r5, {r1, r2, r5, r6}
    60f4:	000002b6 			; <UNDEFINED> instruction: 0x000002b6
    60f8:	0f090c10 	svceq	0x00090c10
    60fc:	ba050000 	blt	146104 <__bss_end__+0x1396dc>
    6100:	00000025 	andeq	r0, r0, r5, lsr #32
    6104:	0f8a0c18 	svceq	0x008a0c18
    6108:	c1050000 	mrsgt	r0, (UNDEF: 5)
    610c:	0000010a 	andeq	r0, r0, sl, lsl #2
    6110:	142b0c1c 	strtne	r0, [fp], #-3100	; 0xc1c
    6114:	c3050000 	movwgt	r0, #20480	; 0x5000
    6118:	00000566 	andeq	r0, r0, r6, ror #10
    611c:	14450c20 	strbne	r0, [r5], #-3104	; 0xc20
    6120:	c5050000 	strgt	r0, [r5, #-0]
    6124:	00000590 	muleq	r0, r0, r5
    6128:	12200c24 	eorne	r0, r0, #36, 24	; 0x2400
    612c:	c8050000 	stmdagt	r5, {}	; <UNPREDICTABLE>
    6130:	000005b4 			; <UNDEFINED> instruction: 0x000005b4
    6134:	13e50c28 	mvnne	r0, #40, 24	; 0x2800
    6138:	c9050000 	stmdbgt	r5, {}	; <UNPREDICTABLE>
    613c:	000005ce 	andeq	r0, r0, lr, asr #11
    6140:	755f112c 	ldrbvc	r1, [pc, #-300]	; 601c <__code_start__-0x1fe4>
    6144:	cc050062 	stcgt	0, cr0, [r5], {98}	; 0x62
    6148:	000002b6 			; <UNDEFINED> instruction: 0x000002b6
    614c:	755f1130 	ldrbvc	r1, [pc, #-304]	; 6024 <__code_start__-0x1fdc>
    6150:	cd050070 	stcgt	0, cr0, [r5, #-448]	; 0xfffffe40
    6154:	000002db 	ldrdeq	r0, [r0], -fp
    6158:	755f1138 	ldrbvc	r1, [pc, #-312]	; 6028 <__code_start__-0x1fd8>
    615c:	ce050072 	mcrgt	0, 0, r0, cr5, cr2, {3}
    6160:	00000025 	andeq	r0, r0, r5, lsr #32
    6164:	0f4d0c3c 	svceq	0x004d0c3c
    6168:	d1050000 	mrsle	r0, (UNDEF: 5)
    616c:	000005d4 	ldrdeq	r0, [r0], -r4
    6170:	13900c40 	orrsne	r0, r0, #64, 24	; 0x4000
    6174:	d2050000 	andle	r0, r5, #0
    6178:	000005e4 	andeq	r0, r0, r4, ror #11
    617c:	6c5f1143 	ldfvse	f1, [pc], {67}	; 0x43
    6180:	d5050062 	strle	r0, [r5, #-98]	; 0x62
    6184:	000002b6 			; <UNDEFINED> instruction: 0x000002b6
    6188:	0fb00c44 	svceq	0x00b00c44
    618c:	d8050000 	stmdale	r5, {}	; <UNPREDICTABLE>
    6190:	00000025 	andeq	r0, r0, r5, lsr #32
    6194:	11120c4c 	tstne	r2, ip, asr #24
    6198:	d9050000 	stmdble	r5, {}	; <UNPREDICTABLE>
    619c:	0000007b 	andeq	r0, r0, fp, ror r0
    61a0:	137b0c50 	cmnne	fp, #80, 24	; 0x5000
    61a4:	dc050000 	stcle	0, cr0, [r5], {-0}
    61a8:	00000429 	andeq	r0, r0, r9, lsr #8
    61ac:	06b60c54 	ssateq	r0, #23, r4, asr #24
    61b0:	e0050000 	and	r0, r5, r0
    61b4:	000000ff 	strdeq	r0, [r0], -pc	; <UNPREDICTABLE>
    61b8:	11b60c58 			; <UNDEFINED> instruction: 0x11b60c58
    61bc:	e2050000 	and	r0, r5, #0
    61c0:	000000f4 	strdeq	r0, [r0], -r4
    61c4:	11000c5c 	tstne	r0, ip, asr ip
    61c8:	e3050000 	movw	r0, #20480	; 0x5000
    61cc:	00000025 	andeq	r0, r0, r5, lsr #32
    61d0:	25150064 	ldrcs	r0, [r5, #-100]	; 0x64
    61d4:	29000000 	stmdbcs	r0, {}	; <UNPREDICTABLE>
    61d8:	16000004 	strne	r0, [r0], -r4
    61dc:	00000429 	andeq	r0, r0, r9, lsr #8
    61e0:	00010a16 	andeq	r0, r1, r6, lsl sl
    61e4:	010c1600 	tsteq	ip, r0, lsl #12
    61e8:	25160000 	ldrcs	r0, [r6, #-0]
    61ec:	00000000 	andeq	r0, r0, r0
    61f0:	0434040e 	ldrteq	r0, [r4], #-1038	; 0x40e
    61f4:	290f0000 	stmdbcs	pc, {}	; <UNPREDICTABLE>
    61f8:	17000004 	strne	r0, [r0, -r4]
    61fc:	00001203 	andeq	r1, r0, r3, lsl #4
    6200:	38050428 	stmdacc	r5, {r3, r5, sl}
    6204:	00056602 	andeq	r6, r5, r2, lsl #12
    6208:	117e1800 	cmnne	lr, r0, lsl #16
    620c:	3a050000 	bcc	146214 <__bss_end__+0x1397ec>
    6210:	00002502 	andeq	r2, r0, r2, lsl #10
    6214:	a9180000 	ldmdbge	r8, {}	; <UNPREDICTABLE>
    6218:	0500000f 	streq	r0, [r0, #-15]
    621c:	063b023f 			; <UNDEFINED> instruction: 0x063b023f
    6220:	18040000 	stmdane	r4, {}	; <UNPREDICTABLE>
    6224:	0000109d 	muleq	r0, sp, r0
    6228:	3b023f05 	blcc	95e44 <__bss_end__+0x8941c>
    622c:	08000006 	stmdaeq	r0, {r1, r2}
    6230:	00105e18 	andseq	r5, r0, r8, lsl lr
    6234:	023f0500 	eorseq	r0, pc, #0, 10
    6238:	0000063b 	andeq	r0, r0, fp, lsr r6
    623c:	11d7180c 	bicsne	r1, r7, ip, lsl #16
    6240:	41050000 	mrsmi	r0, (UNDEF: 5)
    6244:	00002502 	andeq	r2, r0, r2, lsl #10
    6248:	d4181000 	ldrle	r1, [r8], #-0
    624c:	0500000e 	streq	r0, [r0, #-14]
    6250:	081d0242 	ldmdaeq	sp, {r1, r6, r9}
    6254:	18140000 	ldmdane	r4, {}	; <UNPREDICTABLE>
    6258:	000012f5 	strdeq	r1, [r0], -r5
    625c:	25024405 	strcs	r4, [r2, #-1029]	; 0x405
    6260:	30000000 	andcc	r0, r0, r0
    6264:	0011e118 	andseq	lr, r1, r8, lsl r1
    6268:	02450500 	subeq	r0, r5, #0, 10
    626c:	0000058a 	andeq	r0, r0, sl, lsl #11
    6270:	11441834 	cmpne	r4, r4, lsr r8
    6274:	47050000 	strmi	r0, [r5, -r0]
    6278:	00002502 	andeq	r2, r0, r2, lsl #10
    627c:	f1183800 			; <UNDEFINED> instruction: 0xf1183800
    6280:	05000011 	streq	r0, [r0, #-17]
    6284:	08380249 	ldmdaeq	r8!, {r0, r3, r6, r9}
    6288:	183c0000 	ldmdane	ip!, {}	; <UNPREDICTABLE>
    628c:	000010dc 	ldrdeq	r1, [r0], -ip
    6290:	7c024c05 	stcvc	12, cr4, [r2], {5}
    6294:	40000001 	andmi	r0, r0, r1
    6298:	00107d18 	andseq	r7, r0, r8, lsl sp
    629c:	024d0500 	subeq	r0, sp, #0, 10
    62a0:	00000025 	andeq	r0, r0, r5, lsr #32
    62a4:	13ff1844 	mvnsne	r1, #68, 16	; 0x440000
    62a8:	4e050000 	cdpmi	0, 0, cr0, cr5, cr0, {0}
    62ac:	00017c02 	andeq	r7, r1, r2, lsl #24
    62b0:	5b184800 	blpl	6182b8 <__bss_end__+0x60b890>
    62b4:	05000011 	streq	r0, [r0, #-17]
    62b8:	083e024f 	ldmdaeq	lr!, {r0, r1, r2, r3, r6, r9}
    62bc:	184c0000 	stmdane	ip, {}^	; <UNPREDICTABLE>
    62c0:	000010a5 	andeq	r1, r0, r5, lsr #1
    62c4:	25025205 	strcs	r5, [r2, #-517]	; 0x205
    62c8:	50000000 	andpl	r0, r0, r0
    62cc:	000fcc18 	andeq	ip, pc, r8, lsl ip	; <UNPREDICTABLE>
    62d0:	02530500 	subseq	r0, r3, #0, 10
    62d4:	0000010c 	andeq	r0, r0, ip, lsl #2
    62d8:	11771854 	cmnne	r7, r4, asr r8
    62dc:	76050000 	strvc	r0, [r5], -r0
    62e0:	0007fb02 	andeq	pc, r7, r2, lsl #22
    62e4:	3c195800 	ldccc	8, cr5, [r9], {-0}
    62e8:	05000011 	streq	r0, [r0, #-17]
    62ec:	0299027a 	addseq	r0, r9, #-1610612729	; 0xa0000007
    62f0:	01480000 	mrseq	r0, (UNDEF: 72)
    62f4:	0010ba19 	andseq	fp, r0, r9, lsl sl
    62f8:	027b0500 	rsbseq	r0, fp, #0, 10
    62fc:	0000025b 	andeq	r0, r0, fp, asr r2
    6300:	6119014c 	tstvs	r9, ip, asr #2
    6304:	05000013 	streq	r0, [r0, #-19]
    6308:	084f027f 	stmdaeq	pc, {r0, r1, r2, r3, r4, r5, r6, r9}^	; <UNPREDICTABLE>
    630c:	02dc0000 	sbcseq	r0, ip, #0
    6310:	000f9219 	andeq	r9, pc, r9, lsl r2	; <UNPREDICTABLE>
    6314:	02840500 	addeq	r0, r4, #0, 10
    6318:	00000600 	andeq	r0, r0, r0, lsl #12
    631c:	771902e0 	ldrvc	r0, [r9, -r0, ror #5]
    6320:	0500000f 	streq	r0, [r0, #-15]
    6324:	085b0285 	ldmdaeq	fp, {r0, r2, r7, r9}^
    6328:	02ec0000 	rsceq	r0, ip, #0
    632c:	0b040e00 	bleq	109b34 <__bss_end__+0xfd10c>
    6330:	15000004 	strne	r0, [r0, #-4]
    6334:	00000025 	andeq	r0, r0, r5, lsr #32
    6338:	0000058a 	andeq	r0, r0, sl, lsl #11
    633c:	00042916 	andeq	r2, r4, r6, lsl r9
    6340:	010a1600 	tsteq	sl, r0, lsl #12
    6344:	8a160000 	bhi	58634c <__bss_end__+0x579924>
    6348:	16000005 	strne	r0, [r0], -r5
    634c:	00000025 	andeq	r0, r0, r5, lsr #32
    6350:	19040e00 	stmdbne	r4, {r9, sl, fp}
    6354:	0e000001 	cdpeq	0, 0, cr0, cr0, cr1, {0}
    6358:	00056c04 	andeq	r6, r5, r4, lsl #24
    635c:	00861500 	addeq	r1, r6, r0, lsl #10
    6360:	05b40000 	ldreq	r0, [r4, #0]!
    6364:	29160000 	ldmdbcs	r6, {}	; <UNPREDICTABLE>
    6368:	16000004 	strne	r0, [r0], -r4
    636c:	0000010a 	andeq	r0, r0, sl, lsl #2
    6370:	00008616 	andeq	r8, r0, r6, lsl r6
    6374:	00251600 	eoreq	r1, r5, r0, lsl #12
    6378:	0e000000 	cdpeq	0, 0, cr0, cr0, cr0, {0}
    637c:	00059604 	andeq	r9, r5, r4, lsl #12
    6380:	00251500 	eoreq	r1, r5, r0, lsl #10
    6384:	05ce0000 	strbeq	r0, [lr]
    6388:	29160000 	ldmdbcs	r6, {}	; <UNPREDICTABLE>
    638c:	16000004 	strne	r0, [r0], -r4
    6390:	0000010a 	andeq	r0, r0, sl, lsl #2
    6394:	ba040e00 	blt	109b9c <__bss_end__+0xfd174>
    6398:	09000005 	stmdbeq	r0, {r0, r2}
    639c:	00000054 	andeq	r0, r0, r4, asr r0
    63a0:	000005e4 	andeq	r0, r0, r4, ror #11
    63a4:	0000cc0a 	andeq	ip, r0, sl, lsl #24
    63a8:	09000200 	stmdbeq	r0, {r9}
    63ac:	00000054 	andeq	r0, r0, r4, asr r0
    63b0:	000005f4 	strdeq	r0, [r0], -r4
    63b4:	0000cc0a 	andeq	ip, r0, sl, lsl #24
    63b8:	06000000 	streq	r0, [r0], -r0
    63bc:	0000119c 	muleq	r0, ip, r1
    63c0:	e1011d05 	tst	r1, r5, lsl #26
    63c4:	1a000002 	bne	63d4 <__code_start__-0x1c2c>
    63c8:	00001323 	andeq	r1, r0, r3, lsr #6
    63cc:	0121050c 	teqeq	r1, ip, lsl #10
    63d0:	00000635 	andeq	r0, r0, r5, lsr r6
    63d4:	0011c418 	andseq	ip, r1, r8, lsl r4
    63d8:	01230500 	teqeq	r3, r0, lsl #10
    63dc:	00000635 	andeq	r0, r0, r5, lsr r6
    63e0:	10b31800 	adcsne	r1, r3, r0, lsl #16
    63e4:	24050000 	strcs	r0, [r5], #-0
    63e8:	00002501 	andeq	r2, r0, r1, lsl #10
    63ec:	96180400 	ldrls	r0, [r8], -r0, lsl #8
    63f0:	05000011 	streq	r0, [r0, #-17]
    63f4:	063b0125 	ldrteq	r0, [fp], -r5, lsr #2
    63f8:	00080000 	andeq	r0, r8, r0
    63fc:	0600040e 	streq	r0, [r0], -lr, lsl #8
    6400:	040e0000 	streq	r0, [lr], #-0
    6404:	000005f4 	strdeq	r0, [r0], -r4
    6408:	000ecc1a 	andeq	ip, lr, sl, lsl ip
    640c:	3d050e00 	stccc	14, cr0, [r5, #-0]
    6410:	00067601 	andeq	r7, r6, r1, lsl #12
    6414:	120a1800 	andne	r1, sl, #0, 16
    6418:	3e050000 	cdpcc	0, 0, cr0, cr5, cr0, {0}
    641c:	00067601 	andeq	r7, r6, r1, lsl #12
    6420:	44180000 	ldrmi	r0, [r8], #-0
    6424:	05000012 	streq	r0, [r0, #-18]
    6428:	0676013f 			; <UNDEFINED> instruction: 0x0676013f
    642c:	18060000 	stmdane	r6, {}	; <UNPREDICTABLE>
    6430:	000012c8 	andeq	r1, r0, r8, asr #5
    6434:	5b014005 	blpl	56450 <__bss_end__+0x49a28>
    6438:	0c000000 	stceq	0, cr0, [r0], {-0}
    643c:	005b0900 	subseq	r0, fp, r0, lsl #18
    6440:	06860000 	streq	r0, [r6], r0
    6444:	cc0a0000 	stcgt	0, cr0, [sl], {-0}
    6448:	02000000 	andeq	r0, r0, #0
    644c:	05d01b00 	ldrbeq	r1, [r0, #2816]	; 0xb00
    6450:	07870257 			; <UNDEFINED> instruction: 0x07870257
    6454:	07180000 	ldreq	r0, [r8, -r0]
    6458:	05000013 	streq	r0, [r0, #-19]
    645c:	002c0259 	eoreq	r0, ip, r9, asr r2
    6460:	18000000 	stmdane	r0, {}	; <UNPREDICTABLE>
    6464:	000012b2 			; <UNDEFINED> instruction: 0x000012b2
    6468:	0c025a05 	stceq	10, cr5, [r2], {5}
    646c:	04000001 	streq	r0, [r0], #-1
    6470:	0010cf18 	andseq	ip, r0, r8, lsl pc
    6474:	025b0500 	subseq	r0, fp, #0, 10
    6478:	00000787 	andeq	r0, r0, r7, lsl #15
    647c:	13d61808 	bicsne	r1, r6, #8, 16	; 0x80000
    6480:	5c050000 	stcpl	0, cr0, [r5], {-0}
    6484:	00019202 	andeq	r9, r1, r2, lsl #4
    6488:	6e182400 	cfmulsvs	mvf2, mvf8, mvf0
    648c:	05000010 	streq	r0, [r0, #-16]
    6490:	0025025d 	eoreq	r0, r5, sp, asr r2
    6494:	18480000 	stmdane	r8, {}^	; <UNPREDICTABLE>
    6498:	000011bf 			; <UNDEFINED> instruction: 0x000011bf
    649c:	69025e05 	stmdbvs	r2, {r0, r2, r9, sl, fp, ip, lr}
    64a0:	50000000 	andpl	r0, r0, r0
    64a4:	0013ec18 	andseq	lr, r3, r8, lsl ip
    64a8:	025f0500 	subseq	r0, pc, #0, 10
    64ac:	00000641 	andeq	r0, r0, r1, asr #12
    64b0:	11ca1858 	bicne	r1, sl, r8, asr r8
    64b4:	60050000 	andvs	r0, r5, r0
    64b8:	0000f402 	andeq	pc, r0, r2, lsl #8
    64bc:	f1186800 			; <UNDEFINED> instruction: 0xf1186800
    64c0:	05000013 	streq	r0, [r0, #-19]
    64c4:	00f40261 	rscseq	r0, r4, r1, ror #4
    64c8:	18700000 	ldmdane	r0!, {}^	; <UNPREDICTABLE>
    64cc:	00000f31 	andeq	r0, r0, r1, lsr pc
    64d0:	f4026205 	vst1.8	{d6-d9}, [r2], r5
    64d4:	78000000 	stmdavc	r0, {}	; <UNPREDICTABLE>
    64d8:	00134318 	andseq	r4, r3, r8, lsl r3
    64dc:	02630500 	rsbeq	r0, r3, #0, 10
    64e0:	00000797 	muleq	r0, r7, r7
    64e4:	10c31880 	sbcne	r1, r3, r0, lsl #17
    64e8:	64050000 	strvs	r0, [r5], #-0
    64ec:	0007a702 	andeq	sl, r7, r2, lsl #14
    64f0:	d5188800 	ldrle	r8, [r8, #-2048]	; 0x800
    64f4:	05000012 	streq	r0, [r0, #-18]
    64f8:	00250265 	eoreq	r0, r5, r5, ror #4
    64fc:	18a00000 	stmiane	r0!, {}	; <UNPREDICTABLE>
    6500:	0000101a 	andeq	r1, r0, sl, lsl r0
    6504:	f4026605 	vst1.8	{d6-d8}, [r2], r5
    6508:	a4000000 	strge	r0, [r0], #-0
    650c:	000f2218 	andeq	r2, pc, r8, lsl r2	; <UNPREDICTABLE>
    6510:	02670500 	rsbeq	r0, r7, #0, 10
    6514:	000000f4 	strdeq	r0, [r0], -r4
    6518:	100918ac 	andne	r1, r9, ip, lsr #17
    651c:	68050000 	stmdavs	r5, {}	; <UNPREDICTABLE>
    6520:	0000f402 	andeq	pc, r0, r2, lsl #8
    6524:	e918b400 	ldmdb	r8, {sl, ip, sp, pc}
    6528:	0500000e 	streq	r0, [r0, #-14]
    652c:	00f40269 	rscseq	r0, r4, r9, ror #4
    6530:	18bc0000 	ldmne	ip!, {}	; <UNPREDICTABLE>
    6534:	00000ef8 	strdeq	r0, [r0], -r8
    6538:	f4026a05 	vst1.8	{d6-d7}, [r2], r5
    653c:	c4000000 	strgt	r0, [r0], #-0
    6540:	00117c18 	andseq	r7, r1, r8, lsl ip
    6544:	026b0500 	rsbeq	r0, fp, #0, 10
    6548:	00000025 	andeq	r0, r0, r5, lsr #32
    654c:	120900cc 	andne	r0, r9, #204	; 0xcc
    6550:	97000001 	strls	r0, [r0, -r1]
    6554:	0a000007 	beq	6578 <__code_start__-0x1a88>
    6558:	000000cc 	andeq	r0, r0, ip, asr #1
    655c:	12090019 	andne	r0, r9, #25
    6560:	a7000001 	strge	r0, [r0, -r1]
    6564:	0a000007 	beq	6588 <__code_start__-0x1a78>
    6568:	000000cc 	andeq	r0, r0, ip, asr #1
    656c:	12090007 	andne	r0, r9, #7
    6570:	b7000001 	strlt	r0, [r0, -r1]
    6574:	0a000007 	beq	6598 <__code_start__-0x1a68>
    6578:	000000cc 	andeq	r0, r0, ip, asr #1
    657c:	f01b0017 			; <UNDEFINED> instruction: 0xf01b0017
    6580:	db027005 	blle	a259c <__bss_end__+0x95b74>
    6584:	18000007 	stmdane	r0, {r0, r1, r2}
    6588:	0000112c 	andeq	r1, r0, ip, lsr #2
    658c:	db027305 	blle	a31a8 <__bss_end__+0x96780>
    6590:	00000007 	andeq	r0, r0, r7
    6594:	00133a18 	andseq	r3, r3, r8, lsl sl
    6598:	02740500 	rsbseq	r0, r4, #0, 10
    659c:	000007eb 	andeq	r0, r0, fp, ror #15
    65a0:	db090078 	blle	246788 <__bss_end__+0x239d60>
    65a4:	eb000002 	bl	65b4 <__code_start__-0x1a4c>
    65a8:	0a000007 	beq	65cc <__code_start__-0x1a34>
    65ac:	000000cc 	andeq	r0, r0, ip, asr #1
    65b0:	2c09001d 	stccs	0, cr0, [r9], {29}
    65b4:	fb000000 	blx	65be <__code_start__-0x1a42>
    65b8:	0a000007 	beq	65dc <__code_start__-0x1a24>
    65bc:	000000cc 	andeq	r0, r0, ip, asr #1
    65c0:	f01c001d 			; <UNDEFINED> instruction: 0xf01c001d
    65c4:	1d025505 	cfstr32ne	mvfx5, [r2, #-20]	; 0xffffffec
    65c8:	1d000008 	stcne	0, cr0, [r0, #-32]	; 0xffffffe0
    65cc:	00001203 	andeq	r1, r0, r3, lsl #4
    65d0:	86026c05 	strhi	r6, [r2], -r5, lsl #24
    65d4:	1d000006 	stcne	0, cr0, [r0, #-24]	; 0xffffffe8
    65d8:	00001396 	muleq	r0, r6, r3
    65dc:	b7027505 	strlt	r7, [r2, -r5, lsl #10]
    65e0:	00000007 	andeq	r0, r0, r7
    65e4:	00011209 	andeq	r1, r1, r9, lsl #4
    65e8:	00082d00 	andeq	r2, r8, r0, lsl #26
    65ec:	00cc0a00 	sbceq	r0, ip, r0, lsl #20
    65f0:	00180000 	andseq	r0, r8, r0
    65f4:	0008381e 	andeq	r3, r8, lr, lsl r8
    65f8:	04291600 	strteq	r1, [r9], #-1536	; 0x600
    65fc:	0e000000 	cdpeq	0, 0, cr0, cr0, cr0, {0}
    6600:	00082d04 	andeq	r2, r8, r4, lsl #26
    6604:	7c040e00 	stcvc	14, cr0, [r4], {-0}
    6608:	1e000001 	cdpne	0, 0, cr0, cr0, cr1, {0}
    660c:	0000084f 	andeq	r0, r0, pc, asr #16
    6610:	00002516 	andeq	r2, r0, r6, lsl r5
    6614:	040e0000 	streq	r0, [lr], #-0
    6618:	00000855 	andeq	r0, r0, r5, asr r8
    661c:	0844040e 	stmdaeq	r4, {r1, r2, r3, sl}^
    6620:	f4090000 	vst4.8	{d0-d3}, [r9], r0
    6624:	6b000005 	blvs	6640 <__code_start__-0x19c0>
    6628:	0a000008 	beq	6650 <__code_start__-0x19b0>
    662c:	000000cc 	andeq	r0, r0, ip, asr #1
    6630:	e91f0002 	ldmdb	pc, {r1}	; <UNPREDICTABLE>
    6634:	05000012 	streq	r0, [r0, #-18]
    6638:	042902fd 	strteq	r0, [r9], #-765	; 0x2fd
    663c:	e21f0000 	ands	r0, pc, #0
    6640:	05000012 	streq	r0, [r0, #-18]
    6644:	042f02fe 	strteq	r0, [pc], #-766	; 664c <__code_start__-0x19b4>
    6648:	25150000 	ldrcs	r0, [r5, #-0]
    664c:	92000000 	andls	r0, r0, #0
    6650:	16000008 	strne	r0, [r0], -r8
    6654:	00000025 	andeq	r0, r0, r5, lsr #32
    6658:	0ace2000 	beq	ff38e660 <__bss_end__+0xff381c38>
    665c:	1d060000 	stcne	0, cr0, [r6, #-0]
    6660:	0000089d 	muleq	r0, sp, r8
    6664:	0883040e 	stmeq	r3, {r1, r2, r3, sl}
    6668:	25150000 	ldrcs	r0, [r5, #-0]
    666c:	b2000000 	andlt	r0, r0, #0
    6670:	16000008 	strne	r0, [r0], -r8
    6674:	0000058a 	andeq	r0, r0, sl, lsl #11
    6678:	0b0b2000 	bleq	2ce680 <__bss_end__+0x2c1c58>
    667c:	22060000 	andcs	r0, r6, #0
    6680:	000008bd 			; <UNDEFINED> instruction: 0x000008bd
    6684:	08a3040e 	stmiaeq	r3!, {r1, r2, r3, sl}
    6688:	01210000 	teqeq	r1, r0
    668c:	00000054 	andeq	r0, r0, r4, asr r0
    6690:	09000c08 	stmdbeq	r0, {r3, sl, fp}
    6694:	12220000 	eorne	r0, r2, #0
    6698:	0000000f 	andeq	r0, r0, pc
    669c:	00132922 	andseq	r2, r3, r2, lsr #18
    66a0:	81220100 	teqhi	r2, r0, lsl #2
    66a4:	04000013 	streq	r0, [r0], #-19
    66a8:	000f5322 	andeq	r5, pc, r2, lsr #6
    66ac:	ea220500 	b	887ab4 <__bss_end__+0x87b08c>
    66b0:	06000010 			; <UNDEFINED> instruction: 0x06000010
    66b4:	00139e22 	andseq	r9, r3, r2, lsr #28
    66b8:	ad220700 	stcge	7, cr0, [r2, #-0]
    66bc:	03000013 	movweq	r0, #19
    66c0:	0013bc22 	andseq	fp, r3, r2, lsr #24
    66c4:	10000200 	andne	r0, r0, r0, lsl #4
    66c8:	00000fc0 	andeq	r0, r0, r0, asr #31
    66cc:	9006072c 	andls	r0, r6, ip, lsr #14
    66d0:	11000009 	tstne	r0, r9
    66d4:	07006f69 	streq	r6, [r0, -r9, ror #30]
    66d8:	00003309 	andeq	r3, r0, r9, lsl #6
    66dc:	69110000 	ldmdbvs	r1, {}	; <UNPREDICTABLE>
    66e0:	07007265 	streq	r7, [r0, -r5, ror #4]
    66e4:	0000330a 	andeq	r3, r0, sl, lsl #6
    66e8:	69110400 	ldmdbvs	r1, {sl}
    66ec:	07007269 	streq	r7, [r0, -r9, ror #4]
    66f0:	00003311 	andeq	r3, r0, r1, lsl r3
    66f4:	6c110800 	ldcvs	8, cr0, [r1], {-0}
    66f8:	07007263 	streq	r7, [r0, -r3, ror #4]
    66fc:	00003313 	andeq	r3, r0, r3, lsl r3
    6700:	6d110c00 	ldcvs	12, cr0, [r1, #-0]
    6704:	07007263 	streq	r7, [r0, -r3, ror #4]
    6708:	00003314 	andeq	r3, r0, r4, lsl r3
    670c:	6c111000 	ldcvs	0, cr1, [r1], {-0}
    6710:	07007273 	smlsdxeq	r0, r3, r2, r7
    6714:	00003315 	andeq	r3, r0, r5, lsl r3
    6718:	6d111400 	cfldrsvs	mvf1, [r1, #-0]
    671c:	07007273 	smlsdxeq	r0, r3, r2, r7
    6720:	00003316 	andeq	r3, r0, r6, lsl r3
    6724:	3c0c1800 	stccc	8, cr1, [ip], {-0}
    6728:	07000012 	smladeq	r0, r2, r0, r0
    672c:	00003317 	andeq	r3, r0, r7, lsl r3
    6730:	680c1c00 	stmdavs	ip, {sl, fp, ip}
    6734:	0700000f 	streq	r0, [r0, -pc]
    6738:	0000331b 	andeq	r3, r0, fp, lsl r3
    673c:	480c2000 	stmdami	ip, {sp}
    6740:	0700000f 	streq	r0, [r0, -pc]
    6744:	0000331d 	andeq	r3, r0, sp, lsl r3
    6748:	260c2400 	strcs	r2, [ip], -r0, lsl #8
    674c:	07000012 	smladeq	r0, r2, r0, r0
    6750:	0000331e 	andeq	r3, r0, lr, lsl r3
    6754:	23002800 	movwcs	r2, #2048	; 0x800
    6758:	00001030 	andeq	r1, r0, r0, lsr r0
    675c:	09a50701 	stmibeq	r5!, {r0, r8, r9, sl}
    6760:	50040000 	andpl	r0, r4, r0
    6764:	040e2021 	streq	r2, [lr], #-33	; 0x21
    6768:	00000033 	andeq	r0, r0, r3, lsr r0
    676c:	00099f0f 	andeq	r9, r9, pc, lsl #30
    6770:	11562300 	cmpne	r6, r0, lsl #6
    6774:	28010000 	stmdacs	r1, {}	; <UNPREDICTABLE>
    6778:	000009bf 			; <UNDEFINED> instruction: 0x000009bf
    677c:	20215040 	eorcs	r5, r1, r0, asr #32
    6780:	0900040e 	stmdbeq	r0, {r1, r2, r3, sl}
    6784:	b90f0000 	stmdblt	pc, {}	; <UNPREDICTABLE>
    6788:	24000009 	strcs	r0, [r0], #-9
    678c:	00001373 	andeq	r1, r0, r3, ror r3
    6790:	0025a701 	eoreq	sl, r5, r1, lsl #14
    6794:	af900000 	svcge	0x00900000
    6798:	00100000 	andseq	r0, r0, r0
    679c:	9c010000 	stcls	0, cr0, [r1], {-0}
    67a0:	000009f0 	strdeq	r0, [r0], -r0	; <UNPREDICTABLE>
    67a4:	00af9825 	adceq	r9, pc, r5, lsr #16
    67a8:	000c9c00 	andeq	r9, ip, r0, lsl #24
    67ac:	af9c2500 	svcge	0x009c2500
    67b0:	0ad20000 	beq	ff4867b8 <__bss_end__+0xff479d90>
    67b4:	26000000 	strcs	r0, [r0], -r0
    67b8:	00000ab3 			; <UNDEFINED> instruction: 0x00000ab3
    67bc:	af609f01 	svcge	0x00609f01
    67c0:	00300000 	eorseq	r0, r0, r0
    67c4:	9c010000 	stcls	0, cr0, [r1], {-0}
    67c8:	00000a4e 	andeq	r0, r0, lr, asr #20
    67cc:	01006327 	tsteq	r0, r7, lsr #6
    67d0:	00002c9f 	muleq	r0, pc, ip	; <UNPREDICTABLE>
    67d4:	001d9300 	andseq	r9, sp, r0, lsl #6
    67d8:	af6c2500 	svcge	0x006c2500
    67dc:	0c9c0000 	ldceq	0, cr0, [ip], {0}
    67e0:	70250000 	eorvc	r0, r5, r0
    67e4:	a50000af 	strge	r0, [r0, #-175]	; 0xaf
    67e8:	2800000a 	stmdacs	r0, {r1, r3}
    67ec:	0000af84 	andeq	sl, r0, r4, lsl #31
    67f0:	00000ca7 	andeq	r0, r0, r7, lsr #25
    67f4:	00000a44 	andeq	r0, r0, r4, asr #20
    67f8:	05500129 	ldrbeq	r0, [r0, #-297]	; 0x129
    67fc:	2150400c 	cmpcs	r0, ip
    6800:	51012920 	tstpl	r1, r0, lsr #18
    6804:	08007405 	stmdaeq	r0, {r0, r2, sl, ip, sp, lr}
    6808:	25001aff 	strcs	r1, [r0, #-2815]	; 0xaff
    680c:	0000af88 	andeq	sl, r0, r8, lsl #31
    6810:	00000c9c 	muleq	r0, ip, ip
    6814:	10932400 	addsne	r2, r3, r0, lsl #8
    6818:	97010000 	strls	r0, [r1, -r0]
    681c:	00000025 	andeq	r0, r0, r5, lsr #32
    6820:	0000af30 	andeq	sl, r0, r0, lsr pc
    6824:	00000030 	andeq	r0, r0, r0, lsr r0
    6828:	0aa59c01 	beq	fe96d834 <__bss_end__+0xfe960e0c>
    682c:	632a0000 	teqvs	sl, #0
    6830:	259b0100 	ldrcs	r0, [fp, #256]	; 0x100
    6834:	01000000 	mrseq	r0, (UNDEF: 0)
    6838:	af382554 	svcge	0x00382554
    683c:	0c9c0000 	ldceq	0, cr0, [ip], {0}
    6840:	3c250000 	stccc	0, cr0, [r5], #-0
    6844:	d20000af 	andle	r0, r0, #175	; 0xaf
    6848:	2800000a 	stmdacs	r0, {r1, r3}
    684c:	0000af4c 	andeq	sl, r0, ip, asr #30
    6850:	00000cb2 			; <UNDEFINED> instruction: 0x00000cb2
    6854:	00000a9b 	muleq	r0, fp, sl
    6858:	05500129 	ldrbeq	r0, [r0, #-297]	; 0x129
    685c:	2150400c 	cmpcs	r0, ip
    6860:	54250020 	strtpl	r0, [r5], #-32
    6864:	9c0000af 	stcls	0, cr0, [r0], {175}	; 0xaf
    6868:	0000000c 	andeq	r0, r0, ip
    686c:	00104724 	andseq	r4, r0, r4, lsr #14
    6870:	25880100 	strcs	r0, [r8, #256]	; 0x100
    6874:	10000000 	andne	r0, r0, r0
    6878:	200000af 	andcs	r0, r0, pc, lsr #1
    687c:	01000000 	mrseq	r0, (UNDEF: 0)
    6880:	000ad29c 	muleq	sl, ip, r2
    6884:	af1c2b00 	svcge	0x001c2b00
    6888:	0cb20000 	ldceq	0, cr0, [r2]
    688c:	01290000 	teqeq	r9, r0
    6890:	640c0550 	strvs	r0, [ip], #-1360	; 0x550
    6894:	00202150 	eoreq	r2, r0, r0, asr r1
    6898:	13532400 	cmpne	r3, #0, 8
    689c:	7f010000 	svcvc	0x00010000
    68a0:	00000025 	andeq	r0, r0, r5, lsr #32
    68a4:	0000aef8 	strdeq	sl, [r0], -r8
    68a8:	00000018 	andeq	r0, r0, r8, lsl r0
    68ac:	0aff9c01 	beq	fffed8b8 <__bss_end__+0xfffe0e90>
    68b0:	042b0000 	strteq	r0, [fp], #-0
    68b4:	b20000af 	andlt	r0, r0, #175	; 0xaf
    68b8:	2900000c 	stmdbcs	r0, {r2, r3}
    68bc:	0c055001 	stceq	0, cr5, [r5], {1}
    68c0:	20215064 	eorcs	r5, r1, r4, rrx
    68c4:	df260000 	svcle	0x00260000
    68c8:	0100000e 	tsteq	r0, lr
    68cc:	00ae483a 	adceq	r4, lr, sl, lsr r8
    68d0:	0000b000 	andeq	fp, r0, r0
    68d4:	3d9c0100 	ldfccs	f0, [ip]
    68d8:	2800000c 	stmdacs	r0, {r2, r3}
    68dc:	0000ae58 	andeq	sl, r0, r8, asr lr
    68e0:	00000cbd 			; <UNDEFINED> instruction: 0x00000cbd
    68e4:	00000b2c 	andeq	r0, r0, ip, lsr #22
    68e8:	01500129 	cmpeq	r0, r9, lsr #2
    68ec:	5101293e 	tstpl	r1, lr, lsr r9
    68f0:	28003201 	stmdacs	r0, {r0, r9, ip, sp}
    68f4:	0000ae64 	andeq	sl, r0, r4, ror #28
    68f8:	00000cbd 			; <UNDEFINED> instruction: 0x00000cbd
    68fc:	00000b44 	andeq	r0, r0, r4, asr #22
    6900:	01500129 	cmpeq	r0, r9, lsr #2
    6904:	5101293f 	tstpl	r1, pc, lsr r9
    6908:	25003201 	strcs	r3, [r0, #-513]	; 0x201
    690c:	0000ae68 	andeq	sl, r0, r8, ror #28
    6910:	00000c9c 	muleq	r0, ip, ip
    6914:	00ae7428 	adceq	r7, lr, r8, lsr #8
    6918:	000c3d00 	andeq	r3, ip, r0, lsl #26
    691c:	000b6900 	andeq	r6, fp, r0, lsl #18
    6920:	50012900 	andpl	r2, r1, r0, lsl #18
    6924:	50040c05 	andpl	r0, r4, r5, lsl #24
    6928:	01292021 	teqeq	r9, r1, lsr #32
    692c:	00310151 	eorseq	r0, r1, r1, asr r1
    6930:	00ae7825 	adceq	r7, lr, r5, lsr #16
    6934:	000c9c00 	andeq	r9, ip, r0, lsl #24
    6938:	ae882800 	cdpge	8, 8, cr2, cr8, cr0, {0}
    693c:	0ca70000 	stceq	0, cr0, [r7]
    6940:	0b8b0000 	bleq	fe2c6948 <__bss_end__+0xfe2b9f20>
    6944:	01290000 	teqeq	r9, r0
    6948:	00740250 	rsbseq	r0, r4, r0, asr r2
    694c:	01510129 	cmpeq	r1, r9, lsr #2
    6950:	94280030 	strtls	r0, [r8], #-48	; 0x30
    6954:	a70000ae 	strge	r0, [r0, -lr, lsr #1]
    6958:	a700000c 	strge	r0, [r0, -ip]
    695c:	2900000b 	stmdbcs	r0, {r0, r1, r3}
    6960:	0c055001 	stceq	0, cr5, [r5], {1}
    6964:	20215044 	eorcs	r5, r1, r4, asr #32
    6968:	01510129 	cmpeq	r1, r9, lsr #2
    696c:	a0280030 	eorge	r0, r8, r0, lsr r0
    6970:	a70000ae 	strge	r0, [r0, -lr, lsr #1]
    6974:	c300000c 	movwgt	r0, #12
    6978:	2900000b 	stmdbcs	r0, {r0, r1, r3}
    697c:	0c055001 	stceq	0, cr5, [r5], {1}
    6980:	2021504c 	eorcs	r5, r1, ip, asr #32
    6984:	01510129 	cmpeq	r1, r9, lsr #2
    6988:	ac280033 	stcge	0, cr0, [r8], #-204	; 0xffffff34
    698c:	a70000ae 	strge	r0, [r0, -lr, lsr #1]
    6990:	df00000c 	svcle	0x0000000c
    6994:	2900000b 	stmdbcs	r0, {r0, r1, r3}
    6998:	0c055001 	stceq	0, cr5, [r5], {1}
    699c:	20215050 	eorcs	r5, r1, r0, asr r0
    69a0:	01510129 	cmpeq	r1, r9, lsr #2
    69a4:	b8280030 	stmdalt	r8!, {r4, r5}
    69a8:	a70000ae 	strge	r0, [r0, -lr, lsr #1]
    69ac:	fc00000c 	stc2	0, cr0, [r0], {12}
    69b0:	2900000b 	stmdbcs	r0, {r0, r1, r3}
    69b4:	0c055001 	stceq	0, cr5, [r5], {1}
    69b8:	20215048 	eorcs	r5, r1, r8, asr #32
    69bc:	02510129 	subseq	r0, r1, #1073741834	; 0x4000000a
    69c0:	2800c708 	stmdacs	r0, {r3, r8, r9, sl, lr, pc}
    69c4:	0000aec4 	andeq	sl, r0, r4, asr #29
    69c8:	00000ca7 	andeq	r0, r0, r7, lsr #25
    69cc:	00000c1a 	andeq	r0, r0, sl, lsl ip
    69d0:	05500129 	ldrbeq	r0, [r0, #-297]	; 0x129
    69d4:	2150680c 	cmpcs	r0, ip, lsl #16
    69d8:	51012920 	tstpl	r1, r0, lsr #18
    69dc:	010e0a03 	tsteq	lr, r3, lsl #20
    69e0:	aed02800 	cdpge	8, 13, cr2, cr0, cr0, {0}
    69e4:	0ca70000 	stceq	0, cr0, [r7]
    69e8:	0c330000 	ldceq	0, cr0, [r3], #-0
    69ec:	01290000 	teqeq	r9, r0
    69f0:	00740250 	rsbseq	r0, r4, r0, asr r2
    69f4:	01510129 	cmpeq	r1, r9, lsr #2
    69f8:	d4250033 	strtle	r0, [r5], #-51	; 0x33
    69fc:	9c0000ae 	stcls	0, cr0, [r0], {174}	; 0xae
    6a00:	0000000c 	andeq	r0, r0, ip
    6a04:	00136b2c 	andseq	r6, r3, ip, lsr #22
    6a08:	282d0100 	stmdacs	sp!, {r8}
    6a0c:	200000ae 	andcs	r0, r0, lr, lsr #1
    6a10:	01000000 	mrseq	r0, (UNDEF: 0)
    6a14:	000c959c 	muleq	ip, ip, r5
    6a18:	02b22d00 	adcseq	r2, r2, #0, 26
    6a1c:	2d010000 	stccs	0, cr0, [r1, #-0]
    6a20:	00000c95 	muleq	r0, r5, ip
    6a24:	00001db1 			; <UNDEFINED> instruction: 0x00001db1
    6a28:	6c617627 	stclvs	6, cr7, [r1], #-156	; 0xffffff64
    6a2c:	2c2d0100 	stfcss	f0, [sp], #-0
    6a30:	cf000000 	svcgt	0x00000000
    6a34:	2800001d 	stmdacs	r0, {r0, r2, r3, r4}
    6a38:	0000ae38 	andeq	sl, r0, r8, lsr lr
    6a3c:	00000cb2 			; <UNDEFINED> instruction: 0x00000cb2
    6a40:	00000c84 	andeq	r0, r0, r4, lsl #25
    6a44:	02500129 	subseq	r0, r0, #1073741834	; 0x4000000a
    6a48:	2b000074 	blcs	6c20 <__code_start__-0x13e0>
    6a4c:	0000ae44 	andeq	sl, r0, r4, asr #28
    6a50:	00000ca7 	andeq	r0, r0, r7, lsr #25
    6a54:	02500129 	subseq	r0, r0, #1073741834	; 0x4000000a
    6a58:	00000074 	andeq	r0, r0, r4, ror r0
    6a5c:	0c9b040e 	cfldrseq	mvf0, [fp], {14}
    6a60:	2f2e0000 	svccs	0x002e0000
    6a64:	00000d95 	muleq	r0, r5, sp
    6a68:	00000d95 	muleq	r0, r5, sp
    6a6c:	4a2f8906 	bmi	be8e8c <__bss_end__+0xbdc464>
    6a70:	4a000012 	bmi	6ac0 <__code_start__-0x1540>
    6a74:	06000012 			; <UNDEFINED> instruction: 0x06000012
    6a78:	134d2f9c 	movtne	r2, #57244	; 0xdf9c
    6a7c:	134d0000 	movtne	r0, #53248	; 0xd000
    6a80:	a8060000 	stmdage	r6, {}	; <UNPREDICTABLE>
    6a84:	00111a2f 	andseq	r1, r1, pc, lsr #20
    6a88:	00111a00 	andseq	r1, r1, r0, lsl #20
    6a8c:	00190800 	andseq	r0, r9, r0, lsl #16
    6a90:	00000b70 	andeq	r0, r0, r0, ror fp
    6a94:	19f30004 	ldmibne	r3!, {r2}^
    6a98:	01040000 	mrseq	r0, (UNDEF: 4)
    6a9c:	00001250 	andeq	r1, r0, r0, asr r2
    6aa0:	0014200c 	andseq	r2, r4, ip
    6aa4:	000fd400 	andeq	sp, pc, r0, lsl #8
    6aa8:	00afa000 	adceq	sl, pc, r0
    6aac:	00012000 	andeq	r2, r1, r0
    6ab0:	00170f00 	andseq	r0, r7, r0, lsl #30
    6ab4:	05040200 	streq	r0, [r4, #-512]	; 0x200
    6ab8:	00746e69 	rsbseq	r6, r4, r9, ror #28
    6abc:	f3070403 	vshl.u8	d0, d3, d7
    6ac0:	04000000 	streq	r0, [r0], #-0
    6ac4:	0000002c 	andeq	r0, r0, ip, lsr #32
    6ac8:	3e060103 	adfccs	f0, f6, f3
    6acc:	03000000 	movweq	r0, #0
    6ad0:	01490502 	cmpeq	r9, r2, lsl #10
    6ad4:	04030000 	streq	r0, [r3], #-0
    6ad8:	00012c05 	andeq	r2, r1, r5, lsl #24
    6adc:	05080300 	streq	r0, [r8, #-768]	; 0x300
    6ae0:	00000127 	andeq	r0, r0, r7, lsr #2
    6ae4:	3c080103 	stfccs	f0, [r8], {3}
    6ae8:	03000000 	movweq	r0, #0
    6aec:	00120702 	andseq	r0, r2, r2, lsl #14
    6af0:	04030000 	streq	r0, [r3], #-0
    6af4:	0000ee07 	andeq	lr, r0, r7, lsl #28
    6af8:	07080300 	streq	r0, [r8, -r0, lsl #6]
    6afc:	000000e9 	andeq	r0, r0, r9, ror #1
    6b00:	00116505 	andseq	r6, r1, r5, lsl #10
    6b04:	25070200 	strcs	r0, [r7, #-512]	; 0x200
    6b08:	05000000 	streq	r0, [r0, #-0]
    6b0c:	0000114f 	andeq	r1, r0, pc, asr #2
    6b10:	00462c03 	subeq	r2, r6, r3, lsl #24
    6b14:	2b050000 	blcs	146b1c <__bss_end__+0x13a0f4>
    6b18:	03000012 	movweq	r0, #18
    6b1c:	00004672 	andeq	r4, r0, r2, ror r6
    6b20:	10f90600 	rscsne	r0, r9, r0, lsl #12
    6b24:	65040000 	strvs	r0, [r4, #-0]
    6b28:	00002c01 	andeq	r2, r0, r1, lsl #24
    6b2c:	03040700 	movweq	r0, #18176	; 0x4700
    6b30:	0000bca6 	andeq	fp, r0, r6, lsr #25
    6b34:	10e40800 	rscne	r0, r4, r0, lsl #16
    6b38:	a8030000 	stmdage	r3, {}	; <UNPREDICTABLE>
    6b3c:	00000091 	muleq	r0, r1, r0
    6b40:	00108c08 	andseq	r8, r0, r8, lsl #24
    6b44:	bca90300 	stclt	3, cr0, [r9]
    6b48:	00000000 	andeq	r0, r0, r0
    6b4c:	00005409 	andeq	r5, r0, r9, lsl #8
    6b50:	0000cc00 	andeq	ip, r0, r0, lsl #24
    6b54:	00cc0a00 	sbceq	r0, ip, r0, lsl #20
    6b58:	00030000 	andeq	r0, r3, r0
    6b5c:	10070403 	andne	r0, r7, r3, lsl #8
    6b60:	0b000001 	bleq	6b6c <__code_start__-0x1494>
    6b64:	f4a30308 	vld4.8	{d0[0],d1[0],d2[0],d3[0]}, [r3], r8
    6b68:	0c000000 	stceq	0, cr0, [r0], {-0}
    6b6c:	00001210 	andeq	r1, r0, r0, lsl r2
    6b70:	0025a503 	eoreq	sl, r5, r3, lsl #10
    6b74:	0c000000 	stceq	0, cr0, [r0], {-0}
    6b78:	00001218 	andeq	r1, r0, r8, lsl r2
    6b7c:	009daa03 	addseq	sl, sp, r3, lsl #20
    6b80:	00040000 	andeq	r0, r4, r0
    6b84:	0011a305 	andseq	sl, r1, r5, lsl #6
    6b88:	d3ab0300 			; <UNDEFINED> instruction: 0xd3ab0300
    6b8c:	05000000 	streq	r0, [r0, #-0]
    6b90:	00001055 	andeq	r1, r0, r5, asr r0
    6b94:	0070af03 	rsbseq	sl, r0, r3, lsl #30
    6b98:	040d0000 	streq	r0, [sp], #-0
    6b9c:	0112040e 	tsteq	r2, lr, lsl #8
    6ba0:	01030000 	mrseq	r0, (UNDEF: 3)
    6ba4:	00004508 	andeq	r4, r0, r8, lsl #10
    6ba8:	01120400 	tsteq	r2, r0, lsl #8
    6bac:	cd050000 	stcgt	0, cr0, [r5, #-0]
    6bb0:	05000012 	streq	r0, [r0, #-18]
    6bb4:	00006216 	andeq	r6, r0, r6, lsl r2
    6bb8:	10660f00 	rsbne	r0, r6, r0, lsl #30
    6bbc:	05180000 	ldreq	r0, [r8, #-0]
    6bc0:	00017c2d 	andeq	r7, r1, sp, lsr #24
    6bc4:	11c40c00 	bicne	r0, r4, r0, lsl #24
    6bc8:	2f050000 	svccs	0x00050000
    6bcc:	0000017c 	andeq	r0, r0, ip, ror r1
    6bd0:	6b5f1000 	blvs	17cabd8 <__bss_end__+0x17be1b0>
    6bd4:	25300500 	ldrcs	r0, [r0, #-1280]!	; 0x500
    6bd8:	04000000 	streq	r0, [r0], #-0
    6bdc:	0011fb0c 	andseq	pc, r1, ip, lsl #22
    6be0:	25300500 	ldrcs	r0, [r0, #-1280]!	; 0x500
    6be4:	08000000 	stmdaeq	r0, {}	; <UNPREDICTABLE>
    6be8:	0010410c 	andseq	r4, r0, ip, lsl #2
    6bec:	25300500 	ldrcs	r0, [r0, #-1280]!	; 0x500
    6bf0:	0c000000 	stceq	0, cr0, [r0], {-0}
    6bf4:	0013140c 	andseq	r1, r3, ip, lsl #8
    6bf8:	25300500 	ldrcs	r0, [r0, #-1280]!	; 0x500
    6bfc:	10000000 	andne	r0, r0, r0
    6c00:	00785f10 	rsbseq	r5, r8, r0, lsl pc
    6c04:	01823105 	orreq	r3, r2, r5, lsl #2
    6c08:	00140000 	andseq	r0, r4, r0
    6c0c:	0129040e 	teqeq	r9, lr, lsl #8
    6c10:	1e090000 	cdpne	0, 0, cr0, cr9, cr0, {0}
    6c14:	92000001 	andls	r0, r0, #1
    6c18:	0a000001 	beq	6c24 <__code_start__-0x13dc>
    6c1c:	000000cc 	andeq	r0, r0, ip, asr #1
    6c20:	870f0000 	strhi	r0, [pc, -r0]
    6c24:	24000010 	strcs	r0, [r0], #-16
    6c28:	020b3505 	andeq	r3, fp, #20971520	; 0x1400000
    6c2c:	3f0c0000 	svccc	0x000c0000
    6c30:	0500000f 	streq	r0, [r0, #-15]
    6c34:	00002537 	andeq	r2, r0, r7, lsr r5
    6c38:	330c0000 	movwcc	r0, #49152	; 0xc000
    6c3c:	05000012 	streq	r0, [r0, #-18]
    6c40:	00002538 	andeq	r2, r0, r8, lsr r5
    6c44:	6d0c0400 	cfstrsvs	mvf0, [ip, #-0]
    6c48:	0500000f 	streq	r0, [r0, #-15]
    6c4c:	00002539 	andeq	r2, r0, r9, lsr r5
    6c50:	040c0800 	streq	r0, [ip], #-2048	; 0x800
    6c54:	05000014 	streq	r0, [r0, #-20]
    6c58:	0000253a 	andeq	r2, r0, sl, lsr r5
    6c5c:	330c0c00 	movwcc	r0, #52224	; 0xcc00
    6c60:	05000011 	streq	r0, [r0, #-17]
    6c64:	0000253b 	andeq	r2, r0, fp, lsr r5
    6c68:	080c1000 	stmdaeq	ip, {ip}
    6c6c:	05000011 	streq	r0, [r0, #-17]
    6c70:	0000253c 	andeq	r2, r0, ip, lsr r5
    6c74:	190c1400 	stmdbne	ip, {sl, ip}
    6c78:	05000013 	streq	r0, [r0, #-19]
    6c7c:	0000253d 	andeq	r2, r0, sp, lsr r5
    6c80:	850c1800 	strhi	r1, [ip, #-2048]	; 0x800
    6c84:	05000011 	streq	r0, [r0, #-17]
    6c88:	0000253e 	andeq	r2, r0, lr, lsr r5
    6c8c:	cb0c1c00 	blgt	30dc94 <__bss_end__+0x30126c>
    6c90:	05000013 	streq	r0, [r0, #-19]
    6c94:	0000253f 	andeq	r2, r0, pc, lsr r5
    6c98:	11002000 	mrsne	r2, (UNDEF: 0)
    6c9c:	00000f7c 	andeq	r0, r0, ip, ror pc
    6ca0:	48050108 	stmdami	r5, {r3, r8}
    6ca4:	0000024b 	andeq	r0, r0, fp, asr #4
    6ca8:	0010280c 	andseq	r2, r0, ip, lsl #16
    6cac:	4b490500 	blmi	12480b4 <__bss_end__+0x123b68c>
    6cb0:	00000002 	andeq	r0, r0, r2
    6cb4:	000eba0c 	andeq	fp, lr, ip, lsl #20
    6cb8:	4b4a0500 	blmi	12880c0 <__bss_end__+0x127b698>
    6cbc:	80000002 	andhi	r0, r0, r2
    6cc0:	0012bf12 	andseq	fp, r2, r2, lsl pc
    6cc4:	1e4c0500 	cdpne	5, 4, cr0, cr12, cr0, {0}
    6cc8:	00000001 	andeq	r0, r0, r1
    6ccc:	0fa11201 	svceq	0x00a11201
    6cd0:	4f050000 	svcmi	0x00050000
    6cd4:	0000011e 	andeq	r0, r0, lr, lsl r1
    6cd8:	09000104 	stmdbeq	r0, {r2, r8}
    6cdc:	0000010a 	andeq	r0, r0, sl, lsl #2
    6ce0:	0000025b 	andeq	r0, r0, fp, asr r2
    6ce4:	0000cc0a 	andeq	ip, r0, sl, lsl #24
    6ce8:	11001f00 	tstne	r0, r0, lsl #30
    6cec:	0000113c 	andeq	r1, r0, ip, lsr r1
    6cf0:	5b050190 	blpl	147338 <__bss_end__+0x13a910>
    6cf4:	00000299 	muleq	r0, r9, r2
    6cf8:	0011c40c 	andseq	ip, r1, ip, lsl #8
    6cfc:	995c0500 	ldmdbls	ip, {r8, sl}^
    6d00:	00000002 	andeq	r0, r0, r2
    6d04:	0011dc0c 	andseq	sp, r1, ip, lsl #24
    6d08:	255d0500 	ldrbcs	r0, [sp, #-1280]	; 0x500
    6d0c:	04000000 	streq	r0, [r0], #-0
    6d10:	00103c0c 	andseq	r3, r0, ip, lsl #24
    6d14:	9f5f0500 	svcls	0x005f0500
    6d18:	08000002 	stmdaeq	r0, {r1}
    6d1c:	000f7c0c 	andeq	r7, pc, ip, lsl #24
    6d20:	0b600500 	bleq	1808128 <__bss_end__+0x17fb700>
    6d24:	88000002 	stmdahi	r0, {r1}
    6d28:	5b040e00 	blpl	10a530 <__bss_end__+0xfdb08>
    6d2c:	09000002 	stmdbeq	r0, {r1}
    6d30:	000002af 	andeq	r0, r0, pc, lsr #5
    6d34:	000002af 	andeq	r0, r0, pc, lsr #5
    6d38:	0000cc0a 	andeq	ip, r0, sl, lsl #24
    6d3c:	0e001f00 	cdpeq	15, 0, cr1, cr0, cr0, {0}
    6d40:	0002b504 	andeq	fp, r2, r4, lsl #10
    6d44:	8f0f1300 	svchi	0x000f1300
    6d48:	08000011 	stmdaeq	r0, {r0, r4}
    6d4c:	02db7305 	sbcseq	r7, fp, #335544320	; 0x14000000
    6d50:	620c0000 	andvs	r0, ip, #0
    6d54:	0500000f 	streq	r0, [r0, #-15]
    6d58:	0002db74 	andeq	sp, r2, r4, ror fp
    6d5c:	c60c0000 	strgt	r0, [ip], -r0
    6d60:	0500000e 	streq	r0, [r0, #-14]
    6d64:	00002575 	andeq	r2, r0, r5, ror r5
    6d68:	0e000400 	cfcpyseq	mvf0, mvf0
    6d6c:	00005404 	andeq	r5, r0, r4, lsl #8
    6d70:	11ae0f00 			; <UNDEFINED> instruction: 0x11ae0f00
    6d74:	05680000 	strbeq	r0, [r8, #-0]!
    6d78:	00040bb3 			; <UNDEFINED> instruction: 0x00040bb3
    6d7c:	705f1000 	subsvc	r1, pc, r0
    6d80:	dbb40500 	blle	fed08188 <__bss_end__+0xfecfb760>
    6d84:	00000002 	andeq	r0, r0, r2
    6d88:	00725f10 	rsbseq	r5, r2, r0, lsl pc
    6d8c:	0025b505 	eoreq	fp, r5, r5, lsl #10
    6d90:	10040000 	andne	r0, r4, r0
    6d94:	0500775f 	streq	r7, [r0, #-1887]	; 0x75f
    6d98:	000025b6 			; <UNDEFINED> instruction: 0x000025b6
    6d9c:	9a0c0800 	bls	308da4 <__bss_end__+0x2fc37c>
    6da0:	0500000f 	streq	r0, [r0, #-15]
    6da4:	00003fb7 			; <UNDEFINED> instruction: 0x00003fb7
    6da8:	ad0c0c00 	stcge	12, cr0, [ip, #-0]
    6dac:	05000010 	streq	r0, [r0, #-16]
    6db0:	00003fb8 			; <UNDEFINED> instruction: 0x00003fb8
    6db4:	5f100e00 	svcpl	0x00100e00
    6db8:	05006662 	streq	r6, [r0, #-1634]	; 0x662
    6dbc:	0002b6b9 			; <UNDEFINED> instruction: 0x0002b6b9
    6dc0:	090c1000 	stmdbeq	ip, {ip}
    6dc4:	0500000f 	streq	r0, [r0, #-15]
    6dc8:	000025ba 			; <UNDEFINED> instruction: 0x000025ba
    6dcc:	8a0c1800 	bhi	30cdd4 <__bss_end__+0x3003ac>
    6dd0:	0500000f 	streq	r0, [r0, #-15]
    6dd4:	00010ac1 	andeq	r0, r1, r1, asr #21
    6dd8:	2b0c1c00 	blcs	30dde0 <__bss_end__+0x3013b8>
    6ddc:	05000014 	streq	r0, [r0, #-20]
    6de0:	000566c3 	andeq	r6, r5, r3, asr #13
    6de4:	450c2000 	strmi	r2, [ip, #-0]
    6de8:	05000014 	streq	r0, [r0, #-20]
    6dec:	000590c5 	andeq	r9, r5, r5, asr #1
    6df0:	200c2400 	andcs	r2, ip, r0, lsl #8
    6df4:	05000012 	streq	r0, [r0, #-18]
    6df8:	0005b4c8 	andeq	fp, r5, r8, asr #9
    6dfc:	e50c2800 	str	r2, [ip, #-2048]	; 0x800
    6e00:	05000013 	streq	r0, [r0, #-19]
    6e04:	0005cec9 	andeq	ip, r5, r9, asr #29
    6e08:	5f102c00 	svcpl	0x00102c00
    6e0c:	05006275 	streq	r6, [r0, #-629]	; 0x275
    6e10:	0002b6cc 	andeq	fp, r2, ip, asr #13
    6e14:	5f103000 	svcpl	0x00103000
    6e18:	05007075 	streq	r7, [r0, #-117]	; 0x75
    6e1c:	0002dbcd 	andeq	sp, r2, sp, asr #23
    6e20:	5f103800 	svcpl	0x00103800
    6e24:	05007275 	streq	r7, [r0, #-629]	; 0x275
    6e28:	000025ce 	andeq	r2, r0, lr, asr #11
    6e2c:	4d0c3c00 	stcmi	12, cr3, [ip, #-0]
    6e30:	0500000f 	streq	r0, [r0, #-15]
    6e34:	0005d4d1 	ldrdeq	sp, [r5], -r1
    6e38:	900c4000 	andls	r4, ip, r0
    6e3c:	05000013 	streq	r0, [r0, #-19]
    6e40:	0005e4d2 	ldrdeq	lr, [r5], -r2
    6e44:	5f104300 	svcpl	0x00104300
    6e48:	0500626c 	streq	r6, [r0, #-620]	; 0x26c
    6e4c:	0002b6d5 	ldrdeq	fp, [r2], -r5
    6e50:	b00c4400 	andlt	r4, ip, r0, lsl #8
    6e54:	0500000f 	streq	r0, [r0, #-15]
    6e58:	000025d8 	ldrdeq	r2, [r0], -r8
    6e5c:	120c4c00 	andne	r4, ip, #0, 24
    6e60:	05000011 	streq	r0, [r0, #-17]
    6e64:	00007bd9 	ldrdeq	r7, [r0], -r9
    6e68:	7b0c5000 	blvc	31ae70 <__bss_end__+0x30e448>
    6e6c:	05000013 	streq	r0, [r0, #-19]
    6e70:	000429dc 	ldrdeq	r2, [r4], -ip
    6e74:	b60c5400 	strlt	r5, [ip], -r0, lsl #8
    6e78:	05000006 	streq	r0, [r0, #-6]
    6e7c:	0000ffe0 	andeq	pc, r0, r0, ror #31
    6e80:	b60c5800 	strlt	r5, [ip], -r0, lsl #16
    6e84:	05000011 	streq	r0, [r0, #-17]
    6e88:	0000f4e2 	andeq	pc, r0, r2, ror #9
    6e8c:	000c5c00 	andeq	r5, ip, r0, lsl #24
    6e90:	05000011 	streq	r0, [r0, #-17]
    6e94:	000025e3 	andeq	r2, r0, r3, ror #11
    6e98:	14006400 	strne	r6, [r0], #-1024	; 0x400
    6e9c:	00000025 	andeq	r0, r0, r5, lsr #32
    6ea0:	00000429 	andeq	r0, r0, r9, lsr #8
    6ea4:	00042915 	andeq	r2, r4, r5, lsl r9
    6ea8:	010a1500 	tsteq	sl, r0, lsl #10
    6eac:	0c150000 	ldceq	0, cr0, [r5], {-0}
    6eb0:	15000001 	strne	r0, [r0, #-1]
    6eb4:	00000025 	andeq	r0, r0, r5, lsr #32
    6eb8:	34040e00 	strcc	r0, [r4], #-3584	; 0xe00
    6ebc:	04000004 	streq	r0, [r0], #-4
    6ec0:	00000429 	andeq	r0, r0, r9, lsr #8
    6ec4:	00120316 	andseq	r0, r2, r6, lsl r3
    6ec8:	05042800 	streq	r2, [r4, #-2048]	; 0x800
    6ecc:	05660238 	strbeq	r0, [r6, #-568]!	; 0x238
    6ed0:	7e170000 	cdpvc	0, 1, cr0, cr7, cr0, {0}
    6ed4:	05000011 	streq	r0, [r0, #-17]
    6ed8:	0025023a 	eoreq	r0, r5, sl, lsr r2
    6edc:	17000000 	strne	r0, [r0, -r0]
    6ee0:	00000fa9 	andeq	r0, r0, r9, lsr #31
    6ee4:	3b023f05 	blcc	96b00 <__bss_end__+0x8a0d8>
    6ee8:	04000006 	streq	r0, [r0], #-6
    6eec:	00109d17 	andseq	r9, r0, r7, lsl sp
    6ef0:	023f0500 	eorseq	r0, pc, #0, 10
    6ef4:	0000063b 	andeq	r0, r0, fp, lsr r6
    6ef8:	105e1708 	subsne	r1, lr, r8, lsl #14
    6efc:	3f050000 	svccc	0x00050000
    6f00:	00063b02 	andeq	r3, r6, r2, lsl #22
    6f04:	d7170c00 	ldrle	r0, [r7, -r0, lsl #24]
    6f08:	05000011 	streq	r0, [r0, #-17]
    6f0c:	00250241 	eoreq	r0, r5, r1, asr #4
    6f10:	17100000 	ldrne	r0, [r0, -r0]
    6f14:	00000ed4 	ldrdeq	r0, [r0], -r4
    6f18:	1d024205 	sfmne	f4, 4, [r2, #-20]	; 0xffffffec
    6f1c:	14000008 	strne	r0, [r0], #-8
    6f20:	0012f517 	andseq	pc, r2, r7, lsl r5	; <UNPREDICTABLE>
    6f24:	02440500 	subeq	r0, r4, #0, 10
    6f28:	00000025 	andeq	r0, r0, r5, lsr #32
    6f2c:	11e11730 	mvnne	r1, r0, lsr r7
    6f30:	45050000 	strmi	r0, [r5, #-0]
    6f34:	00058a02 	andeq	r8, r5, r2, lsl #20
    6f38:	44173400 	ldrmi	r3, [r7], #-1024	; 0x400
    6f3c:	05000011 	streq	r0, [r0, #-17]
    6f40:	00250247 	eoreq	r0, r5, r7, asr #4
    6f44:	17380000 	ldrne	r0, [r8, -r0]!
    6f48:	000011f1 	strdeq	r1, [r0], -r1	; <UNPREDICTABLE>
    6f4c:	38024905 	stmdacc	r2, {r0, r2, r8, fp, lr}
    6f50:	3c000008 	stccc	0, cr0, [r0], {8}
    6f54:	0010dc17 	andseq	sp, r0, r7, lsl ip
    6f58:	024c0500 	subeq	r0, ip, #0, 10
    6f5c:	0000017c 	andeq	r0, r0, ip, ror r1
    6f60:	107d1740 	rsbsne	r1, sp, r0, asr #14
    6f64:	4d050000 	stcmi	0, cr0, [r5, #-0]
    6f68:	00002502 	andeq	r2, r0, r2, lsl #10
    6f6c:	ff174400 			; <UNDEFINED> instruction: 0xff174400
    6f70:	05000013 	streq	r0, [r0, #-19]
    6f74:	017c024e 	cmneq	ip, lr, asr #4
    6f78:	17480000 	strbne	r0, [r8, -r0]
    6f7c:	0000115b 	andeq	r1, r0, fp, asr r1
    6f80:	3e024f05 	cdpcc	15, 0, cr4, cr2, cr5, {0}
    6f84:	4c000008 	stcmi	0, cr0, [r0], {8}
    6f88:	0010a517 	andseq	sl, r0, r7, lsl r5
    6f8c:	02520500 	subseq	r0, r2, #0, 10
    6f90:	00000025 	andeq	r0, r0, r5, lsr #32
    6f94:	0fcc1750 	svceq	0x00cc1750
    6f98:	53050000 	movwpl	r0, #20480	; 0x5000
    6f9c:	00010c02 	andeq	r0, r1, r2, lsl #24
    6fa0:	77175400 	ldrvc	r5, [r7, -r0, lsl #8]
    6fa4:	05000011 	streq	r0, [r0, #-17]
    6fa8:	07fb0276 			; <UNDEFINED> instruction: 0x07fb0276
    6fac:	18580000 	ldmdane	r8, {}^	; <UNPREDICTABLE>
    6fb0:	0000113c 	andeq	r1, r0, ip, lsr r1
    6fb4:	99027a05 	stmdbls	r2, {r0, r2, r9, fp, ip, sp, lr}
    6fb8:	48000002 	stmdami	r0, {r1}
    6fbc:	10ba1801 	adcsne	r1, sl, r1, lsl #16
    6fc0:	7b050000 	blvc	146fc8 <__bss_end__+0x13a5a0>
    6fc4:	00025b02 	andeq	r5, r2, r2, lsl #22
    6fc8:	18014c00 	stmdane	r1, {sl, fp, lr}
    6fcc:	00001361 	andeq	r1, r0, r1, ror #6
    6fd0:	4f027f05 	svcmi	0x00027f05
    6fd4:	dc000008 	stcle	0, cr0, [r0], {8}
    6fd8:	0f921802 	svceq	0x00921802
    6fdc:	84050000 	strhi	r0, [r5], #-0
    6fe0:	00060002 	andeq	r0, r6, r2
    6fe4:	1802e000 	stmdane	r2, {sp, lr, pc}
    6fe8:	00000f77 	andeq	r0, r0, r7, ror pc
    6fec:	5b028505 	blpl	a8408 <__bss_end__+0x9b9e0>
    6ff0:	ec000008 	stc	0, cr0, [r0], {8}
    6ff4:	040e0002 	streq	r0, [lr], #-2
    6ff8:	0000040b 	andeq	r0, r0, fp, lsl #8
    6ffc:	00002514 	andeq	r2, r0, r4, lsl r5
    7000:	00058a00 	andeq	r8, r5, r0, lsl #20
    7004:	04291500 	strteq	r1, [r9], #-1280	; 0x500
    7008:	0a150000 	beq	547010 <__bss_end__+0x53a5e8>
    700c:	15000001 	strne	r0, [r0, #-1]
    7010:	0000058a 	andeq	r0, r0, sl, lsl #11
    7014:	00002515 	andeq	r2, r0, r5, lsl r5
    7018:	040e0000 	streq	r0, [lr], #-0
    701c:	00000119 	andeq	r0, r0, r9, lsl r1
    7020:	056c040e 	strbeq	r0, [ip, #-1038]!	; 0x40e
    7024:	86140000 	ldrhi	r0, [r4], -r0
    7028:	b4000000 	strlt	r0, [r0], #-0
    702c:	15000005 	strne	r0, [r0, #-5]
    7030:	00000429 	andeq	r0, r0, r9, lsr #8
    7034:	00010a15 	andeq	r0, r1, r5, lsl sl
    7038:	00861500 	addeq	r1, r6, r0, lsl #10
    703c:	25150000 	ldrcs	r0, [r5, #-0]
    7040:	00000000 	andeq	r0, r0, r0
    7044:	0596040e 	ldreq	r0, [r6, #1038]	; 0x40e
    7048:	25140000 	ldrcs	r0, [r4, #-0]
    704c:	ce000000 	cdpgt	0, 0, cr0, cr0, cr0, {0}
    7050:	15000005 	strne	r0, [r0, #-5]
    7054:	00000429 	andeq	r0, r0, r9, lsr #8
    7058:	00010a15 	andeq	r0, r1, r5, lsl sl
    705c:	040e0000 	streq	r0, [lr], #-0
    7060:	000005ba 			; <UNDEFINED> instruction: 0x000005ba
    7064:	00005409 	andeq	r5, r0, r9, lsl #8
    7068:	0005e400 	andeq	lr, r5, r0, lsl #8
    706c:	00cc0a00 	sbceq	r0, ip, r0, lsl #20
    7070:	00020000 	andeq	r0, r2, r0
    7074:	00005409 	andeq	r5, r0, r9, lsl #8
    7078:	0005f400 	andeq	pc, r5, r0, lsl #8
    707c:	00cc0a00 	sbceq	r0, ip, r0, lsl #20
    7080:	00000000 	andeq	r0, r0, r0
    7084:	00119c06 	andseq	r9, r1, r6, lsl #24
    7088:	011d0500 	tsteq	sp, r0, lsl #10
    708c:	000002e1 	andeq	r0, r0, r1, ror #5
    7090:	00132319 	andseq	r2, r3, r9, lsl r3
    7094:	21050c00 	tstcs	r5, r0, lsl #24
    7098:	00063501 	andeq	r3, r6, r1, lsl #10
    709c:	11c41700 	bicne	r1, r4, r0, lsl #14
    70a0:	23050000 	movwcs	r0, #20480	; 0x5000
    70a4:	00063501 	andeq	r3, r6, r1, lsl #10
    70a8:	b3170000 	tstlt	r7, #0
    70ac:	05000010 	streq	r0, [r0, #-16]
    70b0:	00250124 	eoreq	r0, r5, r4, lsr #2
    70b4:	17040000 	strne	r0, [r4, -r0]
    70b8:	00001196 	muleq	r0, r6, r1
    70bc:	3b012505 	blcc	504d8 <__bss_end__+0x43ab0>
    70c0:	08000006 	stmdaeq	r0, {r1, r2}
    70c4:	00040e00 	andeq	r0, r4, r0, lsl #28
    70c8:	0e000006 	cdpeq	0, 0, cr0, cr0, cr6, {0}
    70cc:	0005f404 	andeq	pc, r5, r4, lsl #8
    70d0:	0ecc1900 	cdpeq	9, 12, cr1, cr12, cr0, {0}
    70d4:	050e0000 	streq	r0, [lr, #-0]
    70d8:	0676013d 			; <UNDEFINED> instruction: 0x0676013d
    70dc:	0a170000 	beq	5c70e4 <__bss_end__+0x5ba6bc>
    70e0:	05000012 	streq	r0, [r0, #-18]
    70e4:	0676013e 			; <UNDEFINED> instruction: 0x0676013e
    70e8:	17000000 	strne	r0, [r0, -r0]
    70ec:	00001244 	andeq	r1, r0, r4, asr #4
    70f0:	76013f05 	strvc	r3, [r1], -r5, lsl #30
    70f4:	06000006 	streq	r0, [r0], -r6
    70f8:	0012c817 	andseq	ip, r2, r7, lsl r8
    70fc:	01400500 	cmpeq	r0, r0, lsl #10
    7100:	0000005b 	andeq	r0, r0, fp, asr r0
    7104:	5b09000c 	blpl	24713c <__bss_end__+0x23a714>
    7108:	86000000 	strhi	r0, [r0], -r0
    710c:	0a000006 	beq	712c <__code_start__-0xed4>
    7110:	000000cc 	andeq	r0, r0, ip, asr #1
    7114:	d01a0002 	andsle	r0, sl, r2
    7118:	87025705 	strhi	r5, [r2, -r5, lsl #14]
    711c:	17000007 	strne	r0, [r0, -r7]
    7120:	00001307 	andeq	r1, r0, r7, lsl #6
    7124:	2c025905 	stccs	9, cr5, [r2], {5}
    7128:	00000000 	andeq	r0, r0, r0
    712c:	0012b217 	andseq	fp, r2, r7, lsl r2
    7130:	025a0500 	subseq	r0, sl, #0, 10
    7134:	0000010c 	andeq	r0, r0, ip, lsl #2
    7138:	10cf1704 	sbcne	r1, pc, r4, lsl #14
    713c:	5b050000 	blpl	147144 <__bss_end__+0x13a71c>
    7140:	00078702 	andeq	r8, r7, r2, lsl #14
    7144:	d6170800 	ldrle	r0, [r7], -r0, lsl #16
    7148:	05000013 	streq	r0, [r0, #-19]
    714c:	0192025c 	orrseq	r0, r2, ip, asr r2
    7150:	17240000 	strne	r0, [r4, -r0]!
    7154:	0000106e 	andeq	r1, r0, lr, rrx
    7158:	25025d05 	strcs	r5, [r2, #-3333]	; 0xd05
    715c:	48000000 	stmdami	r0, {}	; <UNPREDICTABLE>
    7160:	0011bf17 	andseq	fp, r1, r7, lsl pc
    7164:	025e0500 	subseq	r0, lr, #0, 10
    7168:	00000069 	andeq	r0, r0, r9, rrx
    716c:	13ec1750 	mvnne	r1, #80, 14	; 0x1400000
    7170:	5f050000 	svcpl	0x00050000
    7174:	00064102 	andeq	r4, r6, r2, lsl #2
    7178:	ca175800 	bgt	5dd180 <__bss_end__+0x5d0758>
    717c:	05000011 	streq	r0, [r0, #-17]
    7180:	00f40260 	rscseq	r0, r4, r0, ror #4
    7184:	17680000 	strbne	r0, [r8, -r0]!
    7188:	000013f1 	strdeq	r1, [r0], -r1	; <UNPREDICTABLE>
    718c:	f4026105 	vst4.8	{d6,d8,d10,d12}, [r2], r5
    7190:	70000000 	andvc	r0, r0, r0
    7194:	000f3117 	andeq	r3, pc, r7, lsl r1	; <UNPREDICTABLE>
    7198:	02620500 	rsbeq	r0, r2, #0, 10
    719c:	000000f4 	strdeq	r0, [r0], -r4
    71a0:	13431778 	movtne	r1, #14200	; 0x3778
    71a4:	63050000 	movwvs	r0, #20480	; 0x5000
    71a8:	00079702 	andeq	r9, r7, r2, lsl #14
    71ac:	c3178000 	tstgt	r7, #0
    71b0:	05000010 	streq	r0, [r0, #-16]
    71b4:	07a70264 	streq	r0, [r7, r4, ror #4]!
    71b8:	17880000 	strne	r0, [r8, r0]
    71bc:	000012d5 	ldrdeq	r1, [r0], -r5
    71c0:	25026505 	strcs	r6, [r2, #-1285]	; 0x505
    71c4:	a0000000 	andge	r0, r0, r0
    71c8:	00101a17 	andseq	r1, r0, r7, lsl sl
    71cc:	02660500 	rsbeq	r0, r6, #0, 10
    71d0:	000000f4 	strdeq	r0, [r0], -r4
    71d4:	0f2217a4 	svceq	0x002217a4
    71d8:	67050000 	strvs	r0, [r5, -r0]
    71dc:	0000f402 	andeq	pc, r0, r2, lsl #8
    71e0:	0917ac00 	ldmdbeq	r7, {sl, fp, sp, pc}
    71e4:	05000010 	streq	r0, [r0, #-16]
    71e8:	00f40268 	rscseq	r0, r4, r8, ror #4
    71ec:	17b40000 	ldrne	r0, [r4, r0]!
    71f0:	00000ee9 	andeq	r0, r0, r9, ror #29
    71f4:	f4026905 	vst2.8	{d6,d8}, [r2], r5
    71f8:	bc000000 	stclt	0, cr0, [r0], {-0}
    71fc:	000ef817 	andeq	pc, lr, r7, lsl r8	; <UNPREDICTABLE>
    7200:	026a0500 	rsbeq	r0, sl, #0, 10
    7204:	000000f4 	strdeq	r0, [r0], -r4
    7208:	117c17c4 	cmnne	ip, r4, asr #15
    720c:	6b050000 	blvs	147214 <__bss_end__+0x13a7ec>
    7210:	00002502 	andeq	r2, r0, r2, lsl #10
    7214:	0900cc00 	stmdbeq	r0, {sl, fp, lr, pc}
    7218:	00000112 	andeq	r0, r0, r2, lsl r1
    721c:	00000797 	muleq	r0, r7, r7
    7220:	0000cc0a 	andeq	ip, r0, sl, lsl #24
    7224:	09001900 	stmdbeq	r0, {r8, fp, ip}
    7228:	00000112 	andeq	r0, r0, r2, lsl r1
    722c:	000007a7 	andeq	r0, r0, r7, lsr #15
    7230:	0000cc0a 	andeq	ip, r0, sl, lsl #24
    7234:	09000700 	stmdbeq	r0, {r8, r9, sl}
    7238:	00000112 	andeq	r0, r0, r2, lsl r1
    723c:	000007b7 			; <UNDEFINED> instruction: 0x000007b7
    7240:	0000cc0a 	andeq	ip, r0, sl, lsl #24
    7244:	1a001700 	bne	ce4c <__bss_end__+0x424>
    7248:	027005f0 	rsbseq	r0, r0, #240, 10	; 0x3c000000
    724c:	000007db 	ldrdeq	r0, [r0], -fp
    7250:	00112c17 	andseq	r2, r1, r7, lsl ip
    7254:	02730500 	rsbseq	r0, r3, #0, 10
    7258:	000007db 	ldrdeq	r0, [r0], -fp
    725c:	133a1700 	teqne	sl, #0, 14
    7260:	74050000 	strvc	r0, [r5], #-0
    7264:	0007eb02 	andeq	lr, r7, r2, lsl #22
    7268:	09007800 	stmdbeq	r0, {fp, ip, sp, lr}
    726c:	000002db 	ldrdeq	r0, [r0], -fp
    7270:	000007eb 	andeq	r0, r0, fp, ror #15
    7274:	0000cc0a 	andeq	ip, r0, sl, lsl #24
    7278:	09001d00 	stmdbeq	r0, {r8, sl, fp, ip}
    727c:	0000002c 	andeq	r0, r0, ip, lsr #32
    7280:	000007fb 	strdeq	r0, [r0], -fp
    7284:	0000cc0a 	andeq	ip, r0, sl, lsl #24
    7288:	1b001d00 	blne	e690 <__bss_end__+0x1c68>
    728c:	025505f0 	subseq	r0, r5, #240, 10	; 0x3c000000
    7290:	0000081d 	andeq	r0, r0, sp, lsl r8
    7294:	0012031c 	andseq	r0, r2, ip, lsl r3
    7298:	026c0500 	rsbeq	r0, ip, #0, 10
    729c:	00000686 	andeq	r0, r0, r6, lsl #13
    72a0:	0013961c 	andseq	r9, r3, ip, lsl r6
    72a4:	02750500 	rsbseq	r0, r5, #0, 10
    72a8:	000007b7 			; <UNDEFINED> instruction: 0x000007b7
    72ac:	01120900 	tsteq	r2, r0, lsl #18
    72b0:	082d0000 	stmdaeq	sp!, {}	; <UNPREDICTABLE>
    72b4:	cc0a0000 	stcgt	0, cr0, [sl], {-0}
    72b8:	18000000 	stmdane	r0, {}	; <UNPREDICTABLE>
    72bc:	08381d00 	ldmdaeq	r8!, {r8, sl, fp, ip}
    72c0:	29150000 	ldmdbcs	r5, {}	; <UNPREDICTABLE>
    72c4:	00000004 	andeq	r0, r0, r4
    72c8:	082d040e 	stmdaeq	sp!, {r1, r2, r3, sl}
    72cc:	040e0000 	streq	r0, [lr], #-0
    72d0:	0000017c 	andeq	r0, r0, ip, ror r1
    72d4:	00084f1d 	andeq	r4, r8, sp, lsl pc
    72d8:	00251500 	eoreq	r1, r5, r0, lsl #10
    72dc:	0e000000 	cdpeq	0, 0, cr0, cr0, cr0, {0}
    72e0:	00085504 	andeq	r5, r8, r4, lsl #10
    72e4:	44040e00 	strmi	r0, [r4], #-3584	; 0xe00
    72e8:	09000008 	stmdbeq	r0, {r3}
    72ec:	000005f4 	strdeq	r0, [r0], -r4
    72f0:	0000086b 	andeq	r0, r0, fp, ror #16
    72f4:	0000cc0a 	andeq	ip, r0, sl, lsl #24
    72f8:	1e000200 	cdpne	2, 0, cr0, cr0, cr0, {0}
    72fc:	000012e9 	andeq	r1, r0, r9, ror #5
    7300:	2902fd05 	stmdbcs	r2, {r0, r2, r8, sl, fp, ip, sp, lr, pc}
    7304:	1e000004 	cdpne	0, 0, cr0, cr0, cr4, {0}
    7308:	000012e2 	andeq	r1, r0, r2, ror #5
    730c:	2f02fe05 	svccs	0x0002fe05
    7310:	14000004 	strne	r0, [r0], #-4
    7314:	00000025 	andeq	r0, r0, r5, lsr #32
    7318:	00000892 	muleq	r0, r2, r8
    731c:	00002515 	andeq	r2, r0, r5, lsl r5
    7320:	ce1f0000 	cdpgt	0, 1, cr0, cr15, cr0, {0}
    7324:	0600000a 	streq	r0, [r0], -sl
    7328:	00089d1d 	andeq	r9, r8, sp, lsl sp
    732c:	83040e00 	movwhi	r0, #19968	; 0x4e00
    7330:	14000008 	strne	r0, [r0], #-8
    7334:	00000025 	andeq	r0, r0, r5, lsr #32
    7338:	000008b2 			; <UNDEFINED> instruction: 0x000008b2
    733c:	00058a15 	andeq	r8, r5, r5, lsl sl
    7340:	0b1f0000 	bleq	7c7348 <__bss_end__+0x7ba920>
    7344:	0600000b 	streq	r0, [r0], -fp
    7348:	0008bd22 	andeq	fp, r8, r2, lsr #26
    734c:	a3040e00 	movwge	r0, #19968	; 0x4e00
    7350:	20000008 	andcs	r0, r0, r8
    7354:	00005401 	andeq	r5, r0, r1, lsl #8
    7358:	000c0700 	andeq	r0, ip, r0, lsl #14
    735c:	21000009 	tstcs	r0, r9
    7360:	00000f12 	andeq	r0, r0, r2, lsl pc
    7364:	13292100 	teqne	r9, #0, 2
    7368:	21010000 	mrscs	r0, (UNDEF: 1)
    736c:	00001381 	andeq	r1, r0, r1, lsl #7
    7370:	0f532104 	svceq	0x00532104
    7374:	21050000 	mrscs	r0, (UNDEF: 5)
    7378:	000010ea 	andeq	r1, r0, sl, ror #1
    737c:	139e2106 	orrsne	r2, lr, #-2147483647	; 0x80000001
    7380:	21070000 	mrscs	r0, (UNDEF: 7)
    7384:	000013ad 	andeq	r1, r0, sp, lsr #7
    7388:	13bc2103 			; <UNDEFINED> instruction: 0x13bc2103
    738c:	00020000 	andeq	r0, r2, r0
    7390:	00147b05 	andseq	r7, r4, r5, lsl #22
    7394:	c3150700 	tstgt	r5, #0, 14
    7398:	22000008 	andcs	r0, r0, #8
    739c:	0000144c 	andeq	r1, r0, ip, asr #8
    73a0:	00331d01 	eorseq	r1, r3, r1, lsl #26
    73a4:	001c0000 	andseq	r0, ip, r0
    73a8:	87222020 	strhi	r2, [r2, -r0, lsr #32]!
    73ac:	01000014 	tsteq	r0, r4, lsl r0
    73b0:	0000331e 	andeq	r3, r0, lr, lsl r3
    73b4:	20002800 	andcs	r2, r0, r0, lsl #16
    73b8:	14562220 	ldrbne	r2, [r6], #-544	; 0x220
    73bc:	1f010000 	svcne	0x00010000
    73c0:	00000033 	andeq	r0, r0, r3, lsr r0
    73c4:	20200034 	eorcs	r0, r0, r4, lsr r0
    73c8:	00142723 	andseq	r2, r4, r3, lsr #14
    73cc:	25560100 	ldrbcs	r0, [r6, #-256]	; 0x100
    73d0:	8c000000 	stchi	0, cr0, [r0], {-0}
    73d4:	340000b0 	strcc	r0, [r0], #-176	; 0xb0
    73d8:	01000000 	mrseq	r0, (UNDEF: 0)
    73dc:	0009989c 	muleq	r9, ip, r8
    73e0:	69702400 	ldmdbvs	r0!, {sl, sp}^
    73e4:	5601006e 	strpl	r0, [r1], -lr, rrx
    73e8:	0000002c 	andeq	r0, r0, ip, lsr #32
    73ec:	00001ded 	andeq	r1, r0, sp, ror #27
    73f0:	00141b25 	andseq	r1, r4, r5, lsr #22
    73f4:	2c590100 	ldfcse	f0, [r9], {-0}
    73f8:	27000000 	strcs	r0, [r0, -r0]
    73fc:	2600001e 			; <UNDEFINED> instruction: 0x2600001e
    7400:	0066666f 	rsbeq	r6, r6, pc, ror #12
    7404:	002c5a01 	eoreq	r5, ip, r1, lsl #20
    7408:	1e650000 	cdpne	0, 6, cr0, cr5, cr0, {0}
    740c:	a8270000 	stmdage	r7!, {}	; <UNPREDICTABLE>
    7410:	5d0000b0 	stcpl	0, cr0, [r0, #-704]	; 0xfffffd40
    7414:	2800000b 	stmdacs	r0, {r0, r1, r3}
    7418:	f30b5001 	vhadd.u8	d5, d11, d1
    741c:	25355001 	ldrcs	r5, [r5, #-1]!
    7420:	8080b423 	addhi	fp, r0, r3, lsr #8
    7424:	00000281 	andeq	r0, r0, r1, lsl #5
    7428:	00144129 	andseq	r4, r4, r9, lsr #2
    742c:	704f0100 	subvc	r0, pc, r0, lsl #2
    7430:	1c0000b0 	stcne	0, cr0, [r0], {176}	; 0xb0
    7434:	01000000 	mrseq	r0, (UNDEF: 0)
    7438:	0009e89c 	muleq	r9, ip, r8
    743c:	69702400 	ldmdbvs	r0!, {sl, sp}^
    7440:	4f01006e 	svcmi	0x0001006e
    7444:	0000002c 	andeq	r0, r0, ip, lsr #32
    7448:	00001e78 	andeq	r1, r0, r8, ror lr
    744c:	01007624 	tsteq	r0, r4, lsr #12
    7450:	00002c4f 	andeq	r2, r0, pc, asr #24
    7454:	001eb200 	andseq	fp, lr, r0, lsl #4
    7458:	b0802a00 	addlt	r2, r0, r0, lsl #20
    745c:	0a230000 	beq	8c7464 <__bss_end__+0x8baa3c>
    7460:	09de0000 	ldmibeq	lr, {}^	; <UNPREDICTABLE>
    7464:	01280000 	teqeq	r8, r0
    7468:	01f30350 	mvnseq	r0, r0, asr r3
    746c:	882b0050 	stmdahi	fp!, {r4, r6}
    7470:	640000b0 	strvs	r0, [r0], #-176	; 0xb0
    7474:	0000000a 	andeq	r0, r0, sl
    7478:	00146029 	andseq	r6, r4, r9, lsr #32
    747c:	604a0100 	subvs	r0, sl, r0, lsl #2
    7480:	100000b0 	strhne	r0, [r0], -r0	; <UNPREDICTABLE>
    7484:	01000000 	mrseq	r0, (UNDEF: 0)
    7488:	000a239c 	muleq	sl, ip, r3
    748c:	69702400 	ldmdbvs	r0!, {sl, sp}^
    7490:	4a01006e 	bmi	47650 <__bss_end__+0x3ac28>
    7494:	0000002c 	andeq	r0, r0, ip, lsr #32
    7498:	00001eec 	andeq	r1, r0, ip, ror #29
    749c:	00b06c27 	adcseq	r6, r0, r7, lsr #24
    74a0:	000ae000 	andeq	lr, sl, r0
    74a4:	50012800 	andpl	r2, r1, r0, lsl #16
    74a8:	5001f303 	andpl	pc, r1, r3, lsl #6
    74ac:	01510128 	cmpeq	r1, r8, lsr #2
    74b0:	29000030 	stmdbcs	r0, {r4, r5}
    74b4:	0000140e 	andeq	r1, r0, lr, lsl #8
    74b8:	b03c4301 	eorslt	r4, ip, r1, lsl #6
    74bc:	00240000 	eoreq	r0, r4, r0
    74c0:	9c010000 	stcls	0, cr0, [r1], {-0}
    74c4:	00000a64 	andeq	r0, r0, r4, ror #20
    74c8:	6e697024 	cdpvs	0, 6, cr7, cr9, cr4, {1}
    74cc:	2c430100 	stfcse	f0, [r3], {-0}
    74d0:	0d000000 	stceq	0, cr0, [r0, #-0]
    74d4:	2700001f 	smladcs	r0, pc, r0, r0	; <UNPREDICTABLE>
    74d8:	0000b058 	andeq	fp, r0, r8, asr r0
    74dc:	00000b68 	andeq	r0, r0, r8, ror #22
    74e0:	05500128 	ldrbeq	r0, [r0, #-296]	; 0x128
    74e4:	2000280c 	andcs	r2, r0, ip, lsl #16
    74e8:	51012820 	tstpl	r1, r0, lsr #16
    74ec:	01f33105 	mvnseq	r3, r5, lsl #2
    74f0:	00002450 	andeq	r2, r0, r0, asr r4
    74f4:	00146f29 	andseq	r6, r4, r9, lsr #30
    74f8:	183c0100 	ldmdane	ip!, {r8}
    74fc:	240000b0 	strcs	r0, [r0], #-176	; 0xb0
    7500:	01000000 	mrseq	r0, (UNDEF: 0)
    7504:	000aa59c 	muleq	sl, ip, r5
    7508:	69702400 	ldmdbvs	r0!, {sl, sp}^
    750c:	3c01006e 	stccc	0, cr0, [r1], {110}	; 0x6e
    7510:	0000002c 	andeq	r0, r0, ip, lsr #32
    7514:	00001f2e 	andeq	r1, r0, lr, lsr #30
    7518:	00b03427 	adcseq	r3, r0, r7, lsr #8
    751c:	000b6800 	andeq	r6, fp, r0, lsl #16
    7520:	50012800 	andpl	r2, r1, r0, lsl #16
    7524:	001c0c05 	andseq	r0, ip, r5, lsl #24
    7528:	01282020 	teqeq	r8, r0, lsr #32
    752c:	f3310551 	vqrshl.u64	q0, <illegal reg q0.5>, <illegal reg q0.5>
    7530:	00245001 	eoreq	r5, r4, r1
    7534:	14312900 	ldrtne	r2, [r1], #-2304	; 0x900
    7538:	37010000 	strcc	r0, [r1, -r0]
    753c:	0000b008 	andeq	fp, r0, r8
    7540:	00000010 	andeq	r0, r0, r0, lsl r0
    7544:	0ae09c01 	beq	ff82e550 <__bss_end__+0xff821b28>
    7548:	70240000 	eorvc	r0, r4, r0
    754c:	01006e69 	tsteq	r0, r9, ror #28
    7550:	00002c37 	andeq	r2, r0, r7, lsr ip
    7554:	001f4f00 	andseq	r4, pc, r0, lsl #30
    7558:	b0142700 	andslt	r2, r4, r0, lsl #14
    755c:	0ae00000 	beq	ff807564 <__bss_end__+0xff7fab3c>
    7560:	01280000 	teqeq	r8, r0
    7564:	01f30350 	mvnseq	r0, r0, asr r3
    7568:	51012850 	tstpl	r1, r0, asr r8
    756c:	00003101 	andeq	r3, r0, r1, lsl #2
    7570:	00111a29 	andseq	r1, r1, r9, lsr #20
    7574:	a0280100 	eorge	r0, r8, r0, lsl #2
    7578:	680000af 	stmdavs	r0, {r0, r1, r2, r3, r5, r7}
    757c:	01000000 	mrseq	r0, (UNDEF: 0)
    7580:	000b5d9c 	muleq	fp, ip, sp
    7584:	69702400 	ldmdbvs	r0!, {sl, sp}^
    7588:	2801006e 	stmdacs	r1, {r1, r2, r3, r5, r6}
    758c:	0000002c 	andeq	r0, r0, ip, lsr #32
    7590:	00001f70 	andeq	r1, r0, r0, ror pc
    7594:	0013662c 	andseq	r6, r3, ip, lsr #12
    7598:	00280100 	eoreq	r0, r8, r0, lsl #2
    759c:	91000009 	tstls	r0, r9
    75a0:	2d00001f 	stccs	0, cr0, [r0, #-124]	; 0xffffff84
    75a4:	0066666f 	rsbeq	r6, r6, pc, ror #12
    75a8:	002c2d01 	eoreq	r2, ip, r1, lsl #26
    75ac:	54010000 	strpl	r0, [r1], #-0
    75b0:	0100672d 	tsteq	r0, sp, lsr #14
    75b4:	00002c2f 	andeq	r2, r0, pc, lsr #24
    75b8:	26560100 	ldrbcs	r0, [r6], -r0, lsl #2
    75bc:	31010076 	tstcc	r1, r6, ror r0
    75c0:	0000002c 	andeq	r0, r0, ip, lsr #32
    75c4:	00001fb2 			; <UNDEFINED> instruction: 0x00001fb2
    75c8:	00afec2a 	adceq	lr, pc, sl, lsr #24
    75cc:	000b5d00 	andeq	r5, fp, r0, lsl #26
    75d0:	000b4c00 	andeq	r4, fp, r0, lsl #24
    75d4:	50012800 	andpl	r2, r1, r0, lsl #16
    75d8:	00007602 	andeq	r7, r0, r2, lsl #12
    75dc:	00b00027 	adcseq	r0, r0, r7, lsr #32
    75e0:	000b6800 	andeq	r6, fp, r0, lsl #16
    75e4:	50012800 	andpl	r2, r1, r0, lsl #16
    75e8:	00007602 	andeq	r7, r0, r2, lsl #12
    75ec:	0e892e00 	cdpeq	14, 8, cr2, cr9, cr0, {0}
    75f0:	0e890000 	cdpeq	0, 8, cr0, cr9, cr0, {0}
    75f4:	a7060000 	strge	r0, [r6, -r0]
    75f8:	000dc32e 	andeq	ip, sp, lr, lsr #6
    75fc:	000dc300 	andeq	ip, sp, r0, lsl #6
    7600:	009b0600 	addseq	r0, fp, r0, lsl #12
    7604:	00000c4c 	andeq	r0, r0, ip, asr #24
    7608:	1c610004 	stclne	0, cr0, [r1], #-16
    760c:	01040000 	mrseq	r0, (UNDEF: 4)
    7610:	00001250 	andeq	r1, r0, r0, asr r2
    7614:	0014910c 	andseq	r9, r4, ip, lsl #2
    7618:	000fd400 	andeq	sp, pc, r0, lsl #8
    761c:	00b0c000 	adcseq	ip, r0, r0
    7620:	0001d800 	andeq	sp, r1, r0, lsl #16
    7624:	00181400 	andseq	r1, r8, r0, lsl #8
    7628:	05040200 	streq	r0, [r4, #-512]	; 0x200
    762c:	00746e69 	rsbseq	r6, r4, r9, ror #28
    7630:	f3070403 	vshl.u8	d0, d3, d7
    7634:	03000000 	movweq	r0, #0
    7638:	003e0601 	eorseq	r0, lr, r1, lsl #12
    763c:	02030000 	andeq	r0, r3, #0
    7640:	00014905 	andeq	r4, r1, r5, lsl #18
    7644:	05040300 	streq	r0, [r4, #-768]	; 0x300
    7648:	0000012c 	andeq	r0, r0, ip, lsr #2
    764c:	27050803 	strcs	r0, [r5, -r3, lsl #16]
    7650:	03000001 	movweq	r0, #1
    7654:	003c0801 	eorseq	r0, ip, r1, lsl #16
    7658:	02030000 	andeq	r0, r3, #0
    765c:	00001207 	andeq	r1, r0, r7, lsl #4
    7660:	07040300 	streq	r0, [r4, -r0, lsl #6]
    7664:	000000ee 	andeq	r0, r0, lr, ror #1
    7668:	e9070803 	stmdb	r7, {r0, r1, fp}
    766c:	04000000 	streq	r0, [r0], #-0
    7670:	00001165 	andeq	r1, r0, r5, ror #2
    7674:	00250702 	eoreq	r0, r5, r2, lsl #14
    7678:	4f040000 	svcmi	0x00040000
    767c:	03000011 	movweq	r0, #17
    7680:	0000412c 	andeq	r4, r0, ip, lsr #2
    7684:	122b0400 	eorne	r0, fp, #0, 8
    7688:	72030000 	andvc	r0, r3, #0
    768c:	00000041 	andeq	r0, r0, r1, asr #32
    7690:	0010f905 	andseq	pc, r0, r5, lsl #18
    7694:	01650400 	cmneq	r5, r0, lsl #8
    7698:	0000002c 	andeq	r0, r0, ip, lsr #32
    769c:	a6030406 	strge	r0, [r3], -r6, lsl #8
    76a0:	000000b7 	strheq	r0, [r0], -r7
    76a4:	0010e407 	andseq	lr, r0, r7, lsl #8
    76a8:	8ca80300 	stchi	3, cr0, [r8]
    76ac:	07000000 	streq	r0, [r0, -r0]
    76b0:	0000108c 	andeq	r1, r0, ip, lsl #1
    76b4:	00b7a903 	adcseq	sl, r7, r3, lsl #18
    76b8:	08000000 	stmdaeq	r0, {}	; <UNPREDICTABLE>
    76bc:	0000004f 	andeq	r0, r0, pc, asr #32
    76c0:	000000c7 	andeq	r0, r0, r7, asr #1
    76c4:	0000c709 	andeq	ip, r0, r9, lsl #14
    76c8:	03000300 	movweq	r0, #768	; 0x300
    76cc:	01100704 	tsteq	r0, r4, lsl #14
    76d0:	080a0000 	stmdaeq	sl, {}	; <UNPREDICTABLE>
    76d4:	00efa303 	rsceq	sl, pc, r3, lsl #6
    76d8:	100b0000 	andne	r0, fp, r0
    76dc:	03000012 	movweq	r0, #18
    76e0:	000025a5 	andeq	r2, r0, r5, lsr #11
    76e4:	180b0000 	stmdane	fp, {}	; <UNPREDICTABLE>
    76e8:	03000012 	movweq	r0, #18
    76ec:	000098aa 	andeq	r9, r0, sl, lsr #17
    76f0:	04000400 	streq	r0, [r0], #-1024	; 0x400
    76f4:	000011a3 	andeq	r1, r0, r3, lsr #3
    76f8:	00ceab03 	sbceq	sl, lr, r3, lsl #22
    76fc:	55040000 	strpl	r0, [r4, #-0]
    7700:	03000010 	movweq	r0, #16
    7704:	00006baf 	andeq	r6, r0, pc, lsr #23
    7708:	0d040c00 	stceq	12, cr0, [r4, #-0]
    770c:	00010d04 	andeq	r0, r1, r4, lsl #26
    7710:	08010300 	stmdaeq	r1, {r8, r9}
    7714:	00000045 	andeq	r0, r0, r5, asr #32
    7718:	00010d0e 	andeq	r0, r1, lr, lsl #26
    771c:	12cd0400 	sbcne	r0, sp, #0, 8
    7720:	16050000 	strne	r0, [r5], -r0
    7724:	0000005d 	andeq	r0, r0, sp, asr r0
    7728:	0010660f 	andseq	r6, r0, pc, lsl #12
    772c:	2d051800 	stccs	8, cr1, [r5, #-0]
    7730:	00000177 	andeq	r0, r0, r7, ror r1
    7734:	0011c40b 	andseq	ip, r1, fp, lsl #8
    7738:	772f0500 	strvc	r0, [pc, -r0, lsl #10]!
    773c:	00000001 	andeq	r0, r0, r1
    7740:	006b5f10 	rsbeq	r5, fp, r0, lsl pc
    7744:	00253005 	eoreq	r3, r5, r5
    7748:	0b040000 	bleq	107750 <__bss_end__+0xfad28>
    774c:	000011fb 	strdeq	r1, [r0], -fp
    7750:	00253005 	eoreq	r3, r5, r5
    7754:	0b080000 	bleq	20775c <__bss_end__+0x1fad34>
    7758:	00001041 	andeq	r1, r0, r1, asr #32
    775c:	00253005 	eoreq	r3, r5, r5
    7760:	0b0c0000 	bleq	307768 <__bss_end__+0x2fad40>
    7764:	00001314 	andeq	r1, r0, r4, lsl r3
    7768:	00253005 	eoreq	r3, r5, r5
    776c:	10100000 	andsne	r0, r0, r0
    7770:	0500785f 	streq	r7, [r0, #-2143]	; 0x85f
    7774:	00017d31 	andeq	r7, r1, r1, lsr sp
    7778:	0d001400 	cfstrseq	mvf1, [r0, #-0]
    777c:	00012404 	andeq	r2, r1, r4, lsl #8
    7780:	01190800 	tsteq	r9, r0, lsl #16
    7784:	018d0000 	orreq	r0, sp, r0
    7788:	c7090000 	strgt	r0, [r9, -r0]
    778c:	00000000 	andeq	r0, r0, r0
    7790:	10870f00 	addne	r0, r7, r0, lsl #30
    7794:	05240000 	streq	r0, [r4, #-0]!
    7798:	00020635 	andeq	r0, r2, r5, lsr r6
    779c:	0f3f0b00 	svceq	0x003f0b00
    77a0:	37050000 	strcc	r0, [r5, -r0]
    77a4:	00000025 	andeq	r0, r0, r5, lsr #32
    77a8:	12330b00 	eorsne	r0, r3, #0, 22
    77ac:	38050000 	stmdacc	r5, {}	; <UNPREDICTABLE>
    77b0:	00000025 	andeq	r0, r0, r5, lsr #32
    77b4:	0f6d0b04 	svceq	0x006d0b04
    77b8:	39050000 	stmdbcc	r5, {}	; <UNPREDICTABLE>
    77bc:	00000025 	andeq	r0, r0, r5, lsr #32
    77c0:	14040b08 	strne	r0, [r4], #-2824	; 0xb08
    77c4:	3a050000 	bcc	1477cc <__bss_end__+0x13ada4>
    77c8:	00000025 	andeq	r0, r0, r5, lsr #32
    77cc:	11330b0c 	teqne	r3, ip, lsl #22
    77d0:	3b050000 	blcc	1477d8 <__bss_end__+0x13adb0>
    77d4:	00000025 	andeq	r0, r0, r5, lsr #32
    77d8:	11080b10 	tstne	r8, r0, lsl fp
    77dc:	3c050000 	stccc	0, cr0, [r5], {-0}
    77e0:	00000025 	andeq	r0, r0, r5, lsr #32
    77e4:	13190b14 	tstne	r9, #20, 22	; 0x5000
    77e8:	3d050000 	stccc	0, cr0, [r5, #-0]
    77ec:	00000025 	andeq	r0, r0, r5, lsr #32
    77f0:	11850b18 	orrne	r0, r5, r8, lsl fp
    77f4:	3e050000 	cdpcc	0, 0, cr0, cr5, cr0, {0}
    77f8:	00000025 	andeq	r0, r0, r5, lsr #32
    77fc:	13cb0b1c 	bicne	r0, fp, #28, 22	; 0x7000
    7800:	3f050000 	svccc	0x00050000
    7804:	00000025 	andeq	r0, r0, r5, lsr #32
    7808:	7c110020 	ldcvc	0, cr0, [r1], {32}
    780c:	0800000f 	stmdaeq	r0, {r0, r1, r2, r3}
    7810:	46480501 	strbmi	r0, [r8], -r1, lsl #10
    7814:	0b000002 	bleq	7824 <__code_start__-0x7dc>
    7818:	00001028 	andeq	r1, r0, r8, lsr #32
    781c:	02464905 	subeq	r4, r6, #81920	; 0x14000
    7820:	0b000000 	bleq	7828 <__code_start__-0x7d8>
    7824:	00000eba 			; <UNDEFINED> instruction: 0x00000eba
    7828:	02464a05 	subeq	r4, r6, #20480	; 0x5000
    782c:	12800000 	addne	r0, r0, #0
    7830:	000012bf 			; <UNDEFINED> instruction: 0x000012bf
    7834:	01194c05 	tsteq	r9, r5, lsl #24
    7838:	01000000 	mrseq	r0, (UNDEF: 0)
    783c:	000fa112 	andeq	sl, pc, r2, lsl r1	; <UNPREDICTABLE>
    7840:	194f0500 	stmdbne	pc, {r8, sl}^	; <UNPREDICTABLE>
    7844:	04000001 	streq	r0, [r0], #-1
    7848:	05080001 	streq	r0, [r8, #-1]
    784c:	56000001 	strpl	r0, [r0], -r1
    7850:	09000002 	stmdbeq	r0, {r1}
    7854:	000000c7 	andeq	r0, r0, r7, asr #1
    7858:	3c11001f 	ldccc	0, cr0, [r1], {31}
    785c:	90000011 	andls	r0, r0, r1, lsl r0
    7860:	945b0501 	ldrbls	r0, [fp], #-1281	; 0x501
    7864:	0b000002 	bleq	7874 <__code_start__-0x78c>
    7868:	000011c4 	andeq	r1, r0, r4, asr #3
    786c:	02945c05 	addseq	r5, r4, #1280	; 0x500
    7870:	0b000000 	bleq	7878 <__code_start__-0x788>
    7874:	000011dc 	ldrdeq	r1, [r0], -ip
    7878:	00255d05 	eoreq	r5, r5, r5, lsl #26
    787c:	0b040000 	bleq	107884 <__bss_end__+0xfae5c>
    7880:	0000103c 	andeq	r1, r0, ip, lsr r0
    7884:	029a5f05 	addseq	r5, sl, #5, 30
    7888:	0b080000 	bleq	207890 <__bss_end__+0x1fae68>
    788c:	00000f7c 	andeq	r0, r0, ip, ror pc
    7890:	02066005 	andeq	r6, r6, #5
    7894:	00880000 	addeq	r0, r8, r0
    7898:	0256040d 	subseq	r0, r6, #218103808	; 0xd000000
    789c:	aa080000 	bge	2078a4 <__bss_end__+0x1fae7c>
    78a0:	aa000002 	bge	78b0 <__code_start__-0x750>
    78a4:	09000002 	stmdbeq	r0, {r1}
    78a8:	000000c7 	andeq	r0, r0, r7, asr #1
    78ac:	040d001f 	streq	r0, [sp], #-31
    78b0:	000002b0 			; <UNDEFINED> instruction: 0x000002b0
    78b4:	118f0f13 	orrne	r0, pc, r3, lsl pc	; <UNPREDICTABLE>
    78b8:	05080000 	streq	r0, [r8, #-0]
    78bc:	0002d673 	andeq	sp, r2, r3, ror r6
    78c0:	0f620b00 	svceq	0x00620b00
    78c4:	74050000 	strvc	r0, [r5], #-0
    78c8:	000002d6 	ldrdeq	r0, [r0], -r6
    78cc:	0ec60b00 	vdiveq.f64	d16, d6, d0
    78d0:	75050000 	strvc	r0, [r5, #-0]
    78d4:	00000025 	andeq	r0, r0, r5, lsr #32
    78d8:	040d0004 	streq	r0, [sp], #-4
    78dc:	0000004f 	andeq	r0, r0, pc, asr #32
    78e0:	0011ae0f 	andseq	sl, r1, pc, lsl #28
    78e4:	b3056800 	movwlt	r6, #22528	; 0x5800
    78e8:	00000406 	andeq	r0, r0, r6, lsl #8
    78ec:	00705f10 	rsbseq	r5, r0, r0, lsl pc
    78f0:	02d6b405 	sbcseq	fp, r6, #83886080	; 0x5000000
    78f4:	10000000 	andne	r0, r0, r0
    78f8:	0500725f 	streq	r7, [r0, #-607]	; 0x25f
    78fc:	000025b5 			; <UNDEFINED> instruction: 0x000025b5
    7900:	5f100400 	svcpl	0x00100400
    7904:	b6050077 			; <UNDEFINED> instruction: 0xb6050077
    7908:	00000025 	andeq	r0, r0, r5, lsr #32
    790c:	0f9a0b08 	svceq	0x009a0b08
    7910:	b7050000 	strlt	r0, [r5, -r0]
    7914:	0000003a 	andeq	r0, r0, sl, lsr r0
    7918:	10ad0b0c 	adcne	r0, sp, ip, lsl #22
    791c:	b8050000 	stmdalt	r5, {}	; <UNPREDICTABLE>
    7920:	0000003a 	andeq	r0, r0, sl, lsr r0
    7924:	625f100e 	subsvs	r1, pc, #14
    7928:	b9050066 	stmdblt	r5, {r1, r2, r5, r6}
    792c:	000002b1 			; <UNDEFINED> instruction: 0x000002b1
    7930:	0f090b10 	svceq	0x00090b10
    7934:	ba050000 	blt	14793c <__bss_end__+0x13af14>
    7938:	00000025 	andeq	r0, r0, r5, lsr #32
    793c:	0f8a0b18 	svceq	0x008a0b18
    7940:	c1050000 	mrsgt	r0, (UNDEF: 5)
    7944:	00000105 	andeq	r0, r0, r5, lsl #2
    7948:	142b0b1c 	strtne	r0, [fp], #-2844	; 0xb1c
    794c:	c3050000 	movwgt	r0, #20480	; 0x5000
    7950:	00000561 	andeq	r0, r0, r1, ror #10
    7954:	14450b20 	strbne	r0, [r5], #-2848	; 0xb20
    7958:	c5050000 	strgt	r0, [r5, #-0]
    795c:	0000058b 	andeq	r0, r0, fp, lsl #11
    7960:	12200b24 	eorne	r0, r0, #36, 22	; 0x9000
    7964:	c8050000 	stmdagt	r5, {}	; <UNPREDICTABLE>
    7968:	000005af 	andeq	r0, r0, pc, lsr #11
    796c:	13e50b28 	mvnne	r0, #40, 22	; 0xa000
    7970:	c9050000 	stmdbgt	r5, {}	; <UNPREDICTABLE>
    7974:	000005c9 	andeq	r0, r0, r9, asr #11
    7978:	755f102c 	ldrbvc	r1, [pc, #-44]	; 7954 <__code_start__-0x6ac>
    797c:	cc050062 	stcgt	0, cr0, [r5], {98}	; 0x62
    7980:	000002b1 			; <UNDEFINED> instruction: 0x000002b1
    7984:	755f1030 	ldrbvc	r1, [pc, #-48]	; 795c <__code_start__-0x6a4>
    7988:	cd050070 	stcgt	0, cr0, [r5, #-448]	; 0xfffffe40
    798c:	000002d6 	ldrdeq	r0, [r0], -r6
    7990:	755f1038 	ldrbvc	r1, [pc, #-56]	; 7960 <__code_start__-0x6a0>
    7994:	ce050072 	mcrgt	0, 0, r0, cr5, cr2, {3}
    7998:	00000025 	andeq	r0, r0, r5, lsr #32
    799c:	0f4d0b3c 	svceq	0x004d0b3c
    79a0:	d1050000 	mrsle	r0, (UNDEF: 5)
    79a4:	000005cf 	andeq	r0, r0, pc, asr #11
    79a8:	13900b40 	orrsne	r0, r0, #64, 22	; 0x10000
    79ac:	d2050000 	andle	r0, r5, #0
    79b0:	000005df 	ldrdeq	r0, [r0], -pc	; <UNPREDICTABLE>
    79b4:	6c5f1043 	mrrcvs	0, 4, r1, pc, cr3	; <UNPREDICTABLE>
    79b8:	d5050062 	strle	r0, [r5, #-98]	; 0x62
    79bc:	000002b1 			; <UNDEFINED> instruction: 0x000002b1
    79c0:	0fb00b44 	svceq	0x00b00b44
    79c4:	d8050000 	stmdale	r5, {}	; <UNPREDICTABLE>
    79c8:	00000025 	andeq	r0, r0, r5, lsr #32
    79cc:	11120b4c 	tstne	r2, ip, asr #22
    79d0:	d9050000 	stmdble	r5, {}	; <UNPREDICTABLE>
    79d4:	00000076 	andeq	r0, r0, r6, ror r0
    79d8:	137b0b50 	cmnne	fp, #80, 22	; 0x14000
    79dc:	dc050000 	stcle	0, cr0, [r5], {-0}
    79e0:	00000424 	andeq	r0, r0, r4, lsr #8
    79e4:	06b60b54 	ssateq	r0, #23, r4, asr #22
    79e8:	e0050000 	and	r0, r5, r0
    79ec:	000000fa 	strdeq	r0, [r0], -sl
    79f0:	11b60b58 			; <UNDEFINED> instruction: 0x11b60b58
    79f4:	e2050000 	and	r0, r5, #0
    79f8:	000000ef 	andeq	r0, r0, pc, ror #1
    79fc:	11000b5c 	tstne	r0, ip, asr fp
    7a00:	e3050000 	movw	r0, #20480	; 0x5000
    7a04:	00000025 	andeq	r0, r0, r5, lsr #32
    7a08:	25140064 	ldrcs	r0, [r4, #-100]	; 0x64
    7a0c:	24000000 	strcs	r0, [r0], #-0
    7a10:	15000004 	strne	r0, [r0, #-4]
    7a14:	00000424 	andeq	r0, r0, r4, lsr #8
    7a18:	00010515 	andeq	r0, r1, r5, lsl r5
    7a1c:	01071500 	tsteq	r7, r0, lsl #10
    7a20:	25150000 	ldrcs	r0, [r5, #-0]
    7a24:	00000000 	andeq	r0, r0, r0
    7a28:	042f040d 	strteq	r0, [pc], #-1037	; 7a30 <__code_start__-0x5d0>
    7a2c:	240e0000 	strcs	r0, [lr], #-0
    7a30:	16000004 	strne	r0, [r0], -r4
    7a34:	00001203 	andeq	r1, r0, r3, lsl #4
    7a38:	38050428 	stmdacc	r5, {r3, r5, sl}
    7a3c:	00056102 	andeq	r6, r5, r2, lsl #2
    7a40:	117e1700 	cmnne	lr, r0, lsl #14
    7a44:	3a050000 	bcc	147a4c <__bss_end__+0x13b024>
    7a48:	00002502 	andeq	r2, r0, r2, lsl #10
    7a4c:	a9170000 	ldmdbge	r7, {}	; <UNPREDICTABLE>
    7a50:	0500000f 	streq	r0, [r0, #-15]
    7a54:	0636023f 			; <UNDEFINED> instruction: 0x0636023f
    7a58:	17040000 	strne	r0, [r4, -r0]
    7a5c:	0000109d 	muleq	r0, sp, r0
    7a60:	36023f05 	strcc	r3, [r2], -r5, lsl #30
    7a64:	08000006 	stmdaeq	r0, {r1, r2}
    7a68:	00105e17 	andseq	r5, r0, r7, lsl lr
    7a6c:	023f0500 	eorseq	r0, pc, #0, 10
    7a70:	00000636 	andeq	r0, r0, r6, lsr r6
    7a74:	11d7170c 	bicsne	r1, r7, ip, lsl #14
    7a78:	41050000 	mrsmi	r0, (UNDEF: 5)
    7a7c:	00002502 	andeq	r2, r0, r2, lsl #10
    7a80:	d4171000 	ldrle	r1, [r7], #-0
    7a84:	0500000e 	streq	r0, [r0, #-14]
    7a88:	08180242 	ldmdaeq	r8, {r1, r6, r9}
    7a8c:	17140000 	ldrne	r0, [r4, -r0]
    7a90:	000012f5 	strdeq	r1, [r0], -r5
    7a94:	25024405 	strcs	r4, [r2, #-1029]	; 0x405
    7a98:	30000000 	andcc	r0, r0, r0
    7a9c:	0011e117 	andseq	lr, r1, r7, lsl r1
    7aa0:	02450500 	subeq	r0, r5, #0, 10
    7aa4:	00000585 	andeq	r0, r0, r5, lsl #11
    7aa8:	11441734 	cmpne	r4, r4, lsr r7
    7aac:	47050000 	strmi	r0, [r5, -r0]
    7ab0:	00002502 	andeq	r2, r0, r2, lsl #10
    7ab4:	f1173800 			; <UNDEFINED> instruction: 0xf1173800
    7ab8:	05000011 	streq	r0, [r0, #-17]
    7abc:	08330249 	ldmdaeq	r3!, {r0, r3, r6, r9}
    7ac0:	173c0000 	ldrne	r0, [ip, -r0]!
    7ac4:	000010dc 	ldrdeq	r1, [r0], -ip
    7ac8:	77024c05 	strvc	r4, [r2, -r5, lsl #24]
    7acc:	40000001 	andmi	r0, r0, r1
    7ad0:	00107d17 	andseq	r7, r0, r7, lsl sp
    7ad4:	024d0500 	subeq	r0, sp, #0, 10
    7ad8:	00000025 	andeq	r0, r0, r5, lsr #32
    7adc:	13ff1744 	mvnsne	r1, #68, 14	; 0x1100000
    7ae0:	4e050000 	cdpmi	0, 0, cr0, cr5, cr0, {0}
    7ae4:	00017702 	andeq	r7, r1, r2, lsl #14
    7ae8:	5b174800 	blpl	5d9af0 <__bss_end__+0x5cd0c8>
    7aec:	05000011 	streq	r0, [r0, #-17]
    7af0:	0839024f 	ldmdaeq	r9!, {r0, r1, r2, r3, r6, r9}
    7af4:	174c0000 	strbne	r0, [ip, -r0]
    7af8:	000010a5 	andeq	r1, r0, r5, lsr #1
    7afc:	25025205 	strcs	r5, [r2, #-517]	; 0x205
    7b00:	50000000 	andpl	r0, r0, r0
    7b04:	000fcc17 	andeq	ip, pc, r7, lsl ip	; <UNPREDICTABLE>
    7b08:	02530500 	subseq	r0, r3, #0, 10
    7b0c:	00000107 	andeq	r0, r0, r7, lsl #2
    7b10:	11771754 	cmnne	r7, r4, asr r7
    7b14:	76050000 	strvc	r0, [r5], -r0
    7b18:	0007f602 	andeq	pc, r7, r2, lsl #12
    7b1c:	3c185800 	ldccc	8, cr5, [r8], {-0}
    7b20:	05000011 	streq	r0, [r0, #-17]
    7b24:	0294027a 	addseq	r0, r4, #-1610612729	; 0xa0000007
    7b28:	01480000 	mrseq	r0, (UNDEF: 72)
    7b2c:	0010ba18 	andseq	fp, r0, r8, lsl sl
    7b30:	027b0500 	rsbseq	r0, fp, #0, 10
    7b34:	00000256 	andeq	r0, r0, r6, asr r2
    7b38:	6118014c 	tstvs	r8, ip, asr #2
    7b3c:	05000013 	streq	r0, [r0, #-19]
    7b40:	084a027f 	stmdaeq	sl, {r0, r1, r2, r3, r4, r5, r6, r9}^
    7b44:	02dc0000 	sbcseq	r0, ip, #0
    7b48:	000f9218 	andeq	r9, pc, r8, lsl r2	; <UNPREDICTABLE>
    7b4c:	02840500 	addeq	r0, r4, #0, 10
    7b50:	000005fb 	strdeq	r0, [r0], -fp
    7b54:	771802e0 	ldrvc	r0, [r8, -r0, ror #5]
    7b58:	0500000f 	streq	r0, [r0, #-15]
    7b5c:	08560285 	ldmdaeq	r6, {r0, r2, r7, r9}^
    7b60:	02ec0000 	rsceq	r0, ip, #0
    7b64:	06040d00 	streq	r0, [r4], -r0, lsl #26
    7b68:	14000004 	strne	r0, [r0], #-4
    7b6c:	00000025 	andeq	r0, r0, r5, lsr #32
    7b70:	00000585 	andeq	r0, r0, r5, lsl #11
    7b74:	00042415 	andeq	r2, r4, r5, lsl r4
    7b78:	01051500 	tsteq	r5, r0, lsl #10
    7b7c:	85150000 	ldrhi	r0, [r5, #-0]
    7b80:	15000005 	strne	r0, [r0, #-5]
    7b84:	00000025 	andeq	r0, r0, r5, lsr #32
    7b88:	14040d00 	strne	r0, [r4], #-3328	; 0xd00
    7b8c:	0d000001 	stceq	0, cr0, [r0, #-4]
    7b90:	00056704 	andeq	r6, r5, r4, lsl #14
    7b94:	00811400 	addeq	r1, r1, r0, lsl #8
    7b98:	05af0000 	streq	r0, [pc, #0]!	; 7ba0 <__code_start__-0x460>
    7b9c:	24150000 	ldrcs	r0, [r5], #-0
    7ba0:	15000004 	strne	r0, [r0, #-4]
    7ba4:	00000105 	andeq	r0, r0, r5, lsl #2
    7ba8:	00008115 	andeq	r8, r0, r5, lsl r1
    7bac:	00251500 	eoreq	r1, r5, r0, lsl #10
    7bb0:	0d000000 	stceq	0, cr0, [r0, #-0]
    7bb4:	00059104 	andeq	r9, r5, r4, lsl #2
    7bb8:	00251400 	eoreq	r1, r5, r0, lsl #8
    7bbc:	05c90000 	strbeq	r0, [r9]
    7bc0:	24150000 	ldrcs	r0, [r5], #-0
    7bc4:	15000004 	strne	r0, [r0, #-4]
    7bc8:	00000105 	andeq	r0, r0, r5, lsl #2
    7bcc:	b5040d00 	strlt	r0, [r4, #-3328]	; 0xd00
    7bd0:	08000005 	stmdaeq	r0, {r0, r2}
    7bd4:	0000004f 	andeq	r0, r0, pc, asr #32
    7bd8:	000005df 	ldrdeq	r0, [r0], -pc	; <UNPREDICTABLE>
    7bdc:	0000c709 	andeq	ip, r0, r9, lsl #14
    7be0:	08000200 	stmdaeq	r0, {r9}
    7be4:	0000004f 	andeq	r0, r0, pc, asr #32
    7be8:	000005ef 	andeq	r0, r0, pc, ror #11
    7bec:	0000c709 	andeq	ip, r0, r9, lsl #14
    7bf0:	05000000 	streq	r0, [r0, #-0]
    7bf4:	0000119c 	muleq	r0, ip, r1
    7bf8:	dc011d05 	stcle	13, cr1, [r1], {5}
    7bfc:	19000002 	stmdbne	r0, {r1}
    7c00:	00001323 	andeq	r1, r0, r3, lsr #6
    7c04:	0121050c 	teqeq	r1, ip, lsl #10
    7c08:	00000630 	andeq	r0, r0, r0, lsr r6
    7c0c:	0011c417 	andseq	ip, r1, r7, lsl r4
    7c10:	01230500 	teqeq	r3, r0, lsl #10
    7c14:	00000630 	andeq	r0, r0, r0, lsr r6
    7c18:	10b31700 	adcsne	r1, r3, r0, lsl #14
    7c1c:	24050000 	strcs	r0, [r5], #-0
    7c20:	00002501 	andeq	r2, r0, r1, lsl #10
    7c24:	96170400 	ldrls	r0, [r7], -r0, lsl #8
    7c28:	05000011 	streq	r0, [r0, #-17]
    7c2c:	06360125 	ldrteq	r0, [r6], -r5, lsr #2
    7c30:	00080000 	andeq	r0, r8, r0
    7c34:	05fb040d 	ldrbeq	r0, [fp, #1037]!	; 0x40d
    7c38:	040d0000 	streq	r0, [sp], #-0
    7c3c:	000005ef 	andeq	r0, r0, pc, ror #11
    7c40:	000ecc19 	andeq	ip, lr, r9, lsl ip
    7c44:	3d050e00 	stccc	14, cr0, [r5, #-0]
    7c48:	00067101 	andeq	r7, r6, r1, lsl #2
    7c4c:	120a1700 	andne	r1, sl, #0, 14
    7c50:	3e050000 	cdpcc	0, 0, cr0, cr5, cr0, {0}
    7c54:	00067101 	andeq	r7, r6, r1, lsl #2
    7c58:	44170000 	ldrmi	r0, [r7], #-0
    7c5c:	05000012 	streq	r0, [r0, #-18]
    7c60:	0671013f 			; <UNDEFINED> instruction: 0x0671013f
    7c64:	17060000 	strne	r0, [r6, -r0]
    7c68:	000012c8 	andeq	r1, r0, r8, asr #5
    7c6c:	56014005 	strpl	r4, [r1], -r5
    7c70:	0c000000 	stceq	0, cr0, [r0], {-0}
    7c74:	00560800 	subseq	r0, r6, r0, lsl #16
    7c78:	06810000 	streq	r0, [r1], r0
    7c7c:	c7090000 	strgt	r0, [r9, -r0]
    7c80:	02000000 	andeq	r0, r0, #0
    7c84:	05d01a00 	ldrbeq	r1, [r0, #2560]	; 0xa00
    7c88:	07820257 			; <UNDEFINED> instruction: 0x07820257
    7c8c:	07170000 	ldreq	r0, [r7, -r0]
    7c90:	05000013 	streq	r0, [r0, #-19]
    7c94:	002c0259 	eoreq	r0, ip, r9, asr r2
    7c98:	17000000 	strne	r0, [r0, -r0]
    7c9c:	000012b2 			; <UNDEFINED> instruction: 0x000012b2
    7ca0:	07025a05 	streq	r5, [r2, -r5, lsl #20]
    7ca4:	04000001 	streq	r0, [r0], #-1
    7ca8:	0010cf17 	andseq	ip, r0, r7, lsl pc
    7cac:	025b0500 	subseq	r0, fp, #0, 10
    7cb0:	00000782 	andeq	r0, r0, r2, lsl #15
    7cb4:	13d61708 	bicsne	r1, r6, #8, 14	; 0x200000
    7cb8:	5c050000 	stcpl	0, cr0, [r5], {-0}
    7cbc:	00018d02 	andeq	r8, r1, r2, lsl #26
    7cc0:	6e172400 	cfmulsvs	mvf2, mvf7, mvf0
    7cc4:	05000010 	streq	r0, [r0, #-16]
    7cc8:	0025025d 	eoreq	r0, r5, sp, asr r2
    7ccc:	17480000 	strbne	r0, [r8, -r0]
    7cd0:	000011bf 			; <UNDEFINED> instruction: 0x000011bf
    7cd4:	64025e05 	strvs	r5, [r2], #-3589	; 0xe05
    7cd8:	50000000 	andpl	r0, r0, r0
    7cdc:	0013ec17 	andseq	lr, r3, r7, lsl ip
    7ce0:	025f0500 	subseq	r0, pc, #0, 10
    7ce4:	0000063c 	andeq	r0, r0, ip, lsr r6
    7ce8:	11ca1758 	bicne	r1, sl, r8, asr r7
    7cec:	60050000 	andvs	r0, r5, r0
    7cf0:	0000ef02 	andeq	lr, r0, r2, lsl #30
    7cf4:	f1176800 			; <UNDEFINED> instruction: 0xf1176800
    7cf8:	05000013 	streq	r0, [r0, #-19]
    7cfc:	00ef0261 	rsceq	r0, pc, r1, ror #4
    7d00:	17700000 	ldrbne	r0, [r0, -r0]!
    7d04:	00000f31 	andeq	r0, r0, r1, lsr pc
    7d08:	ef026205 	svc	0x00026205
    7d0c:	78000000 	stmdavc	r0, {}	; <UNPREDICTABLE>
    7d10:	00134317 	andseq	r4, r3, r7, lsl r3
    7d14:	02630500 	rsbeq	r0, r3, #0, 10
    7d18:	00000792 	muleq	r0, r2, r7
    7d1c:	10c31780 	sbcne	r1, r3, r0, lsl #15
    7d20:	64050000 	strvs	r0, [r5], #-0
    7d24:	0007a202 	andeq	sl, r7, r2, lsl #4
    7d28:	d5178800 	ldrle	r8, [r7, #-2048]	; 0x800
    7d2c:	05000012 	streq	r0, [r0, #-18]
    7d30:	00250265 	eoreq	r0, r5, r5, ror #4
    7d34:	17a00000 	strne	r0, [r0, r0]!
    7d38:	0000101a 	andeq	r1, r0, sl, lsl r0
    7d3c:	ef026605 	svc	0x00026605
    7d40:	a4000000 	strge	r0, [r0], #-0
    7d44:	000f2217 	andeq	r2, pc, r7, lsl r2	; <UNPREDICTABLE>
    7d48:	02670500 	rsbeq	r0, r7, #0, 10
    7d4c:	000000ef 	andeq	r0, r0, pc, ror #1
    7d50:	100917ac 	andne	r1, r9, ip, lsr #15
    7d54:	68050000 	stmdavs	r5, {}	; <UNPREDICTABLE>
    7d58:	0000ef02 	andeq	lr, r0, r2, lsl #30
    7d5c:	e917b400 	ldmdb	r7, {sl, ip, sp, pc}
    7d60:	0500000e 	streq	r0, [r0, #-14]
    7d64:	00ef0269 	rsceq	r0, pc, r9, ror #4
    7d68:	17bc0000 	ldrne	r0, [ip, r0]!
    7d6c:	00000ef8 	strdeq	r0, [r0], -r8
    7d70:	ef026a05 	svc	0x00026a05
    7d74:	c4000000 	strgt	r0, [r0], #-0
    7d78:	00117c17 	andseq	r7, r1, r7, lsl ip
    7d7c:	026b0500 	rsbeq	r0, fp, #0, 10
    7d80:	00000025 	andeq	r0, r0, r5, lsr #32
    7d84:	0d0800cc 	stceq	0, cr0, [r8, #-816]	; 0xfffffcd0
    7d88:	92000001 	andls	r0, r0, #1
    7d8c:	09000007 	stmdbeq	r0, {r0, r1, r2}
    7d90:	000000c7 	andeq	r0, r0, r7, asr #1
    7d94:	0d080019 	stceq	0, cr0, [r8, #-100]	; 0xffffff9c
    7d98:	a2000001 	andge	r0, r0, #1
    7d9c:	09000007 	stmdbeq	r0, {r0, r1, r2}
    7da0:	000000c7 	andeq	r0, r0, r7, asr #1
    7da4:	0d080007 	stceq	0, cr0, [r8, #-28]	; 0xffffffe4
    7da8:	b2000001 	andlt	r0, r0, #1
    7dac:	09000007 	stmdbeq	r0, {r0, r1, r2}
    7db0:	000000c7 	andeq	r0, r0, r7, asr #1
    7db4:	f01a0017 			; <UNDEFINED> instruction: 0xf01a0017
    7db8:	d6027005 	strle	r7, [r2], -r5
    7dbc:	17000007 	strne	r0, [r0, -r7]
    7dc0:	0000112c 	andeq	r1, r0, ip, lsr #2
    7dc4:	d6027305 	strle	r7, [r2], -r5, lsl #6
    7dc8:	00000007 	andeq	r0, r0, r7
    7dcc:	00133a17 	andseq	r3, r3, r7, lsl sl
    7dd0:	02740500 	rsbseq	r0, r4, #0, 10
    7dd4:	000007e6 	andeq	r0, r0, r6, ror #15
    7dd8:	d6080078 			; <UNDEFINED> instruction: 0xd6080078
    7ddc:	e6000002 	str	r0, [r0], -r2
    7de0:	09000007 	stmdbeq	r0, {r0, r1, r2}
    7de4:	000000c7 	andeq	r0, r0, r7, asr #1
    7de8:	2c08001d 	stccs	0, cr0, [r8], {29}
    7dec:	f6000000 			; <UNDEFINED> instruction: 0xf6000000
    7df0:	09000007 	stmdbeq	r0, {r0, r1, r2}
    7df4:	000000c7 	andeq	r0, r0, r7, asr #1
    7df8:	f01b001d 			; <UNDEFINED> instruction: 0xf01b001d
    7dfc:	18025505 	stmdane	r2, {r0, r2, r8, sl, ip, lr}
    7e00:	1c000008 	stcne	0, cr0, [r0], {8}
    7e04:	00001203 	andeq	r1, r0, r3, lsl #4
    7e08:	81026c05 	tsthi	r2, r5, lsl #24
    7e0c:	1c000006 	stcne	0, cr0, [r0], {6}
    7e10:	00001396 	muleq	r0, r6, r3
    7e14:	b2027505 	andlt	r7, r2, #20971520	; 0x1400000
    7e18:	00000007 	andeq	r0, r0, r7
    7e1c:	00010d08 	andeq	r0, r1, r8, lsl #26
    7e20:	00082800 	andeq	r2, r8, r0, lsl #16
    7e24:	00c70900 	sbceq	r0, r7, r0, lsl #18
    7e28:	00180000 	andseq	r0, r8, r0
    7e2c:	0008331d 	andeq	r3, r8, sp, lsl r3
    7e30:	04241500 	strteq	r1, [r4], #-1280	; 0x500
    7e34:	0d000000 	stceq	0, cr0, [r0, #-0]
    7e38:	00082804 	andeq	r2, r8, r4, lsl #16
    7e3c:	77040d00 	strvc	r0, [r4, -r0, lsl #26]
    7e40:	1d000001 	stcne	0, cr0, [r0, #-4]
    7e44:	0000084a 	andeq	r0, r0, sl, asr #16
    7e48:	00002515 	andeq	r2, r0, r5, lsl r5
    7e4c:	040d0000 	streq	r0, [sp], #-0
    7e50:	00000850 	andeq	r0, r0, r0, asr r8
    7e54:	083f040d 	ldmdaeq	pc!, {r0, r2, r3, sl}	; <UNPREDICTABLE>
    7e58:	ef080000 	svc	0x00080000
    7e5c:	66000005 	strvs	r0, [r0], -r5
    7e60:	09000008 	stmdbeq	r0, {r3}
    7e64:	000000c7 	andeq	r0, r0, r7, asr #1
    7e68:	e91e0002 	ldmdb	lr, {r1}
    7e6c:	05000012 	streq	r0, [r0, #-18]
    7e70:	042402fd 	strteq	r0, [r4], #-765	; 0x2fd
    7e74:	e21e0000 	ands	r0, lr, #0
    7e78:	05000012 	streq	r0, [r0, #-18]
    7e7c:	042a02fe 	strteq	r0, [sl], #-766	; 0x2fe
    7e80:	25140000 	ldrcs	r0, [r4, #-0]
    7e84:	8d000000 	stchi	0, cr0, [r0, #-0]
    7e88:	15000008 	strne	r0, [r0, #-8]
    7e8c:	00000025 	andeq	r0, r0, r5, lsr #32
    7e90:	0ace1f00 	beq	ff38fa98 <__bss_end__+0xff383070>
    7e94:	1d060000 	stcne	0, cr0, [r6, #-0]
    7e98:	00000898 	muleq	r0, r8, r8
    7e9c:	087e040d 	ldmdaeq	lr!, {r0, r2, r3, sl}^
    7ea0:	25140000 	ldrcs	r0, [r4, #-0]
    7ea4:	ad000000 	stcge	0, cr0, [r0, #-0]
    7ea8:	15000008 	strne	r0, [r0, #-8]
    7eac:	00000585 	andeq	r0, r0, r5, lsl #11
    7eb0:	0b0b1f00 	bleq	2cfab8 <__bss_end__+0x2c3090>
    7eb4:	22060000 	andcs	r0, r6, #0
    7eb8:	000008b8 			; <UNDEFINED> instruction: 0x000008b8
    7ebc:	089e040d 	ldmeq	lr, {r0, r2, r3, sl}
    7ec0:	08030000 	stmdaeq	r3, {}	; <UNPREDICTABLE>
    7ec4:	0014a804 	andseq	sl, r4, r4, lsl #16
    7ec8:	14f31f00 	ldrbtne	r1, [r3], #3840	; 0xf00
    7ecc:	0d010000 	stceq	0, cr0, [r1, #-0]
    7ed0:	0000010d 	andeq	r0, r0, sp, lsl #2
    7ed4:	00151520 	andseq	r1, r5, r0, lsr #10
    7ed8:	070e0100 	streq	r0, [lr, -r0, lsl #2]
    7edc:	05000001 	streq	r0, [r0, #-1]
    7ee0:	00b2a003 	adcseq	sl, r2, r3
    7ee4:	150a2000 	strne	r2, [sl, #-0]
    7ee8:	0f010000 	svceq	0x00010000
    7eec:	00000107 	andeq	r0, r0, r7, lsl #2
    7ef0:	b2a40305 	adclt	r0, r4, #335544320	; 0x14000000
    7ef4:	d6210000 	strtle	r0, [r1], -r0
    7ef8:	01000014 	tsteq	r0, r4, lsl r0
    7efc:	00b28838 	adcseq	r8, r2, r8, lsr r8
    7f00:	00001000 	andeq	r1, r0, r0
    7f04:	139c0100 	orrsne	r0, ip, #0, 2
    7f08:	22000009 	andcs	r0, r0, #9
    7f0c:	38010070 	stmdacc	r1, {r4, r5, r6}
    7f10:	00000105 	andeq	r0, r0, r5, lsl #2
    7f14:	23005001 	movwcs	r5, #1
    7f18:	000014af 	andeq	r1, r0, pc, lsr #9
    7f1c:	b2743701 	rsbslt	r3, r4, #262144	; 0x40000
    7f20:	00140000 	andseq	r0, r4, r0
    7f24:	9c010000 	stcls	0, cr0, [r1], {-0}
    7f28:	0014d021 	andseq	sp, r4, r1, lsr #32
    7f2c:	70360100 	eorsvc	r0, r6, r0, lsl #2
    7f30:	040000b2 	streq	r0, [r0], #-178	; 0xb2
    7f34:	01000000 	mrseq	r0, (UNDEF: 0)
    7f38:	0009459c 	muleq	r9, ip, r5
    7f3c:	00702200 	rsbseq	r2, r0, r0, lsl #4
    7f40:	01053601 	tsteq	r5, r1, lsl #12
    7f44:	50010000 	andpl	r0, r1, r0
    7f48:	02992400 	addseq	r2, r9, #0, 8
    7f4c:	29010000 	stmdbcs	r1, {}	; <UNPREDICTABLE>
    7f50:	00000105 	andeq	r0, r0, r5, lsl #2
    7f54:	0000b1c4 	andeq	fp, r0, r4, asr #3
    7f58:	000000ac 	andeq	r0, r0, ip, lsr #1
    7f5c:	0a449c01 	beq	112ef68 <__bss_end__+0x1122540>
    7f60:	eb250000 	bl	947f68 <__bss_end__+0x93b540>
    7f64:	01000003 	tsteq	r0, r3
    7f68:	00002c29 	andeq	r2, r0, r9, lsr #24
    7f6c:	001fe300 	andseq	lr, pc, r0, lsl #6
    7f70:	026a2500 	rsbeq	r2, sl, #0, 10
    7f74:	29010000 	stmdbcs	r1, {}	; <UNPREDICTABLE>
    7f78:	0000002c 	andeq	r0, r0, ip, lsr #32
    7f7c:	00002036 	andeq	r2, r0, r6, lsr r0
    7f80:	00006026 	andeq	r6, r0, r6, lsr #32
    7f84:	000a5400 	andeq	r5, sl, r0, lsl #8
    7f88:	28030500 	stmdacs	r3, {r8, sl}
    7f8c:	270000c5 	strcs	r0, [r0, -r5, asr #1]
    7f90:	2e010068 	cdpcs	0, 0, cr0, cr1, cr8, {3}
    7f94:	0000002c 	andeq	r0, r0, ip, lsr #32
    7f98:	0000207d 	andeq	r2, r0, sp, ror r0
    7f9c:	00b20428 	adcseq	r0, r2, r8, lsr #8
    7fa0:	000a8d00 	andeq	r8, sl, r0, lsl #26
    7fa4:	0009ad00 	andeq	sl, r9, r0, lsl #26
    7fa8:	50012900 	andpl	r2, r1, r0, lsl #18
    7fac:	5001f303 	andpl	pc, r1, r3, lsl #6
    7fb0:	b2102a00 	andslt	r2, r0, #0, 20
    7fb4:	0c230000 	stceq	0, cr0, [r3], #-0
    7fb8:	2c280000 	stccs	0, cr0, [r8], #-0
    7fbc:	2e0000b2 	mcrcs	0, 0, r0, cr0, cr2, {5}
    7fc0:	ef00000c 	svc	0x0000000c
    7fc4:	29000009 	stmdbcs	r0, {r0, r3}
    7fc8:	03055001 	movweq	r5, #20481	; 0x5001
    7fcc:	0000c554 	andeq	ip, r0, r4, asr r5
    7fd0:	05510129 	ldrbeq	r0, [r1, #-297]	; 0x129
    7fd4:	00c53803 	sbceq	r3, r5, r3, lsl #16
    7fd8:	52012900 	andpl	r2, r1, #0, 18
    7fdc:	c5280305 	strgt	r0, [r8, #-773]!	; 0x305
    7fe0:	01290000 	teqeq	r9, r0
    7fe4:	2a080253 	bcs	208938 <__bss_end__+0x1fbf10>
    7fe8:	007d0229 	rsbseq	r0, sp, r9, lsr #4
    7fec:	c5880305 	strgt	r0, [r8, #773]	; 0x305
    7ff0:	2a000000 	bcs	7ff8 <__code_start__-0x8>
    7ff4:	0000b230 	andeq	fp, r0, r0, lsr r2
    7ff8:	00000c39 	andeq	r0, r0, r9, lsr ip
    7ffc:	00b2342a 	adcseq	r3, r2, sl, lsr #8
    8000:	000c2300 	andeq	r2, ip, r0, lsl #6
    8004:	b2502800 	subslt	r2, r0, #0, 16
    8008:	0c2e0000 	stceq	0, cr0, [lr], #-0
    800c:	0a3a0000 	beq	e88014 <__bss_end__+0xe7b5ec>
    8010:	01290000 	teqeq	r9, r0
    8014:	b4030550 	strlt	r0, [r3], #-1360	; 0x550
    8018:	290000c5 	stmdbcs	r0, {r0, r2, r6, r7}
    801c:	03055101 	movweq	r5, #20737	; 0x5101
    8020:	0000c538 	andeq	ip, r0, r8, lsr r5
    8024:	05520129 	ldrbeq	r0, [r2, #-297]	; 0x129
    8028:	00c52803 	sbceq	r2, r5, r3, lsl #16
    802c:	53012900 	movwpl	r2, #6400	; 0x1900
    8030:	29300802 	ldmdbcs	r0!, {r1, fp}
    8034:	05007d02 	streq	r7, [r0, #-3330]	; 0xd02
    8038:	00c5e003 	sbceq	lr, r5, r3
    803c:	542a0000 	strtpl	r0, [sl], #-0
    8040:	390000b2 	stmdbcc	r0, {r1, r4, r5, r7}
    8044:	0000000c 	andeq	r0, r0, ip
    8048:	00011408 	andeq	r1, r1, r8, lsl #8
    804c:	000a5400 	andeq	r5, sl, r0, lsl #8
    8050:	00c70900 	sbceq	r0, r7, r0, lsl #18
    8054:	000f0000 	andeq	r0, pc, r0
    8058:	000a440e 	andeq	r4, sl, lr, lsl #8
    805c:	14e22400 	strbtne	r2, [r2], #1024	; 0x400
    8060:	25010000 	strcs	r0, [r1, #-0]
    8064:	00000105 	andeq	r0, r0, r5, lsl #2
    8068:	0000b1b8 			; <UNDEFINED> instruction: 0x0000b1b8
    806c:	0000000c 	andeq	r0, r0, ip
    8070:	0a7c9c01 	beq	1f2f07c <__bss_end__+0x1f22654>
    8074:	c02a0000 	eorgt	r0, sl, r0
    8078:	f90000b1 			; <UNDEFINED> instruction: 0xf90000b1
    807c:	0000000b 	andeq	r0, r0, fp
    8080:	00149b23 	andseq	r9, r4, r3, lsr #22
    8084:	b4240100 	strtlt	r0, [r4], #-256	; 0x100
    8088:	040000b1 	streq	r0, [r0], #-177	; 0xb1
    808c:	01000000 	mrseq	r0, (UNDEF: 0)
    8090:	152b249c 	strne	r2, [fp, #-1180]!	; 0x49c
    8094:	1a010000 	bne	4809c <__bss_end__+0x3b674>
    8098:	00000105 	andeq	r0, r0, r5, lsl #2
    809c:	0000b13c 	andeq	fp, r0, ip, lsr r1
    80a0:	00000078 	andeq	r0, r0, r8, ror r0
    80a4:	0b429c01 	bleq	10af0b0 <__bss_end__+0x10a2688>
    80a8:	732b0000 	teqvc	fp, #0
    80ac:	1a01007a 	bne	4829c <__bss_end__+0x3b874>
    80b0:	0000002c 	andeq	r0, r0, ip, lsr #32
    80b4:	000020b5 	strheq	r2, [r0], -r5
    80b8:	00006026 	andeq	r6, r0, r6, lsr #32
    80bc:	000b5200 	andeq	r5, fp, r0, lsl #4
    80c0:	20030500 	andcs	r0, r3, r0, lsl #10
    80c4:	2c0000c5 	stccs	0, cr0, [r0], {197}	; 0xc5
    80c8:	000002b2 			; <UNDEFINED> instruction: 0x000002b2
    80cc:	01051e01 	tsteq	r5, r1, lsl #28
    80d0:	20ff0000 	rscscs	r0, pc, r0
    80d4:	70280000 	eorvc	r0, r8, r0
    80d8:	440000b1 	strmi	r0, [r0], #-177	; 0xb1
    80dc:	f700000c 			; <UNDEFINED> instruction: 0xf700000c
    80e0:	2900000a 	stmdbcs	r0, {r1, r3}
    80e4:	74025001 	strvc	r5, [r2], #-1
    80e8:	51012900 	tstpl	r1, r0, lsl #18
    80ec:	01293001 	teqeq	r9, r1
    80f0:	01f30852 	mvnseq	r0, r2, asr r8
    80f4:	09072350 	stmdbeq	r7, {r4, r6, r8, r9, sp}
    80f8:	2a001af8 	bcs	ece0 <__bss_end__+0x22b8>
    80fc:	0000b180 	andeq	fp, r0, r0, lsl #3
    8100:	00000c23 	andeq	r0, r0, r3, lsr #24
    8104:	00b19c28 	adcseq	r9, r1, r8, lsr #24
    8108:	000c2e00 	andeq	r2, ip, r0, lsl #28
    810c:	000b3800 	andeq	r3, fp, r0, lsl #16
    8110:	50012900 	andpl	r2, r1, r0, lsl #18
    8114:	b3380305 	teqlt	r8, #335544320	; 0x14000000
    8118:	01290000 	teqeq	r9, r0
    811c:	38030551 	stmdacc	r3, {r0, r4, r6, r8, sl}
    8120:	290000c5 	stmdbcs	r0, {r0, r2, r6, r7}
    8124:	03055201 	movweq	r5, #20993	; 0x5201
    8128:	0000c520 	andeq	ip, r0, r0, lsr #10
    812c:	01530129 	cmpeq	r3, r9, lsr #2
    8130:	7d02294b 	stcvc	9, cr2, [r2, #-300]	; 0xfffffed4
    8134:	50030500 	andpl	r0, r3, r0, lsl #10
    8138:	000000c5 	andeq	r0, r0, r5, asr #1
    813c:	00b1a02a 	adcseq	sl, r1, sl, lsr #32
    8140:	000c3900 	andeq	r3, ip, r0, lsl #18
    8144:	14080000 	strne	r0, [r8], #-0
    8148:	52000001 	andpl	r0, r0, #1
    814c:	0900000b 	stmdbeq	r0, {r0, r1, r3}
    8150:	000000c7 	andeq	r0, r0, r7, asr #1
    8154:	420e0007 	andmi	r0, lr, #7
    8158:	2100000b 	tstcs	r0, fp
    815c:	000014b9 			; <UNDEFINED> instruction: 0x000014b9
    8160:	b0dc1401 	sbcslt	r1, ip, r1, lsl #8
    8164:	00600000 	rsbeq	r0, r0, r0
    8168:	9c010000 	stcls	0, cr0, [r1], {-0}
    816c:	00000be4 	andeq	r0, r0, r4, ror #23
    8170:	0002b125 	andeq	fp, r2, r5, lsr #2
    8174:	2c140100 	ldfcss	f0, [r4], {-0}
    8178:	12000000 	andne	r0, r0, #0
    817c:	2c000021 	stccs	0, cr0, [r0], {33}	; 0x21
    8180:	000002b2 			; <UNDEFINED> instruction: 0x000002b2
    8184:	01071501 	tsteq	r7, r1, lsl #10
    8188:	21330000 	teqcs	r3, r0
    818c:	60260000 	eorvs	r0, r6, r0
    8190:	f4000000 	vst4.8	{d0-d3}, [r0], r0
    8194:	0500000b 	streq	r0, [r0, #-11]
    8198:	00c50803 	sbceq	r0, r5, r3, lsl #16
    819c:	b1082a00 	tstlt	r8, r0, lsl #20
    81a0:	0c230000 	stceq	0, cr0, [r3], #-0
    81a4:	24280000 	strtcs	r0, [r8], #-0
    81a8:	2e0000b1 	mcrcs	0, 0, r0, cr0, cr1, {5}
    81ac:	da00000c 	ble	81e4 <notmain+0xf0>
    81b0:	2900000b 	stmdbcs	r0, {r0, r1, r3}
    81b4:	03055001 	movweq	r5, #20481	; 0x5001
    81b8:	0000b338 	andeq	fp, r0, r8, lsr r3
    81bc:	05510129 	ldrbeq	r0, [r1, #-297]	; 0x129
    81c0:	00c53803 	sbceq	r3, r5, r3, lsl #16
    81c4:	52012900 	andpl	r2, r1, #0, 18
    81c8:	c5080305 	strgt	r0, [r8, #-773]	; 0x305
    81cc:	01290000 	teqeq	r9, r0
    81d0:	29460153 	stmdbcs	r6, {r0, r1, r4, r6, r8}^
    81d4:	05007d02 	streq	r7, [r0, #-3330]	; 0xd02
    81d8:	00c54403 	sbceq	r4, r5, r3, lsl #8
    81dc:	282a0000 	stmdacs	sl!, {}	; <UNPREDICTABLE>
    81e0:	390000b1 	stmdbcc	r0, {r0, r4, r5, r7}
    81e4:	0000000c 	andeq	r0, r0, ip
    81e8:	00011408 	andeq	r1, r1, r8, lsl #8
    81ec:	000bf400 	andeq	pc, fp, r0, lsl #8
    81f0:	00c70900 	sbceq	r0, r7, r0, lsl #18
    81f4:	00160000 	andseq	r0, r6, r0
    81f8:	000be40e 	andeq	lr, fp, lr, lsl #8
    81fc:	15022d00 	strne	r2, [r2, #-3328]	; 0xd00
    8200:	12010000 	andne	r0, r1, #0
    8204:	00000105 	andeq	r0, r0, r5, lsl #2
    8208:	0000b0d0 	ldrdeq	fp, [r0], -r0
    820c:	0000000c 	andeq	r0, r0, ip
    8210:	1a2d9c01 	bne	b6f21c <__bss_end__+0xb627f4>
    8214:	01000015 	tsteq	r0, r5, lsl r0
    8218:	00010511 	andeq	r0, r1, r1, lsl r5
    821c:	00b0c000 	adcseq	ip, r0, r0
    8220:	00001000 	andeq	r1, r0, r0
    8224:	2e9c0100 	fmlcse	f0, f4, f0
    8228:	000001d5 	ldrdeq	r0, [r0], -r5
    822c:	000001d5 	ldrdeq	r0, [r0], -r5
    8230:	9d2e1e06 	stcls	14, cr1, [lr, #-24]!	; 0xffffffe8
    8234:	9d00000a 	stcls	0, cr0, [r0, #-40]	; 0xffffffd8
    8238:	0600000a 	streq	r0, [r0], -sl
    823c:	004a2e29 	subeq	r2, sl, r9, lsr #28
    8240:	004a0000 	subeq	r0, sl, r0
    8244:	65060000 	strvs	r0, [r6, #-0]
    8248:	0004cc2e 	andeq	ip, r4, lr, lsr #24
    824c:	0004cc00 	andeq	ip, r4, r0, lsl #24
    8250:	00190700 	andseq	r0, r9, r0, lsl #14

Disassembly of section .debug_abbrev:

00000000 <.debug_abbrev>:
       0:	25011101 	strcs	r1, [r1, #-257]	; 0x101
       4:	030b130e 	movweq	r1, #45838	; 0xb30e
       8:	110e1b0e 	tstne	lr, lr, lsl #22
       c:	10061201 	andne	r1, r6, r1, lsl #4
      10:	02000017 	andeq	r0, r0, #23
      14:	0b0b0024 	bleq	2c00ac <__bss_end__+0x2b3684>
      18:	08030b3e 	stmdaeq	r3, {r1, r2, r3, r4, r5, r8, r9, fp}
      1c:	24030000 	strcs	r0, [r3], #-0
      20:	3e0b0b00 	vmlacc.f64	d0, d11, d0
      24:	000e030b 	andeq	r0, lr, fp, lsl #6
      28:	00160400 	andseq	r0, r6, r0, lsl #8
      2c:	0b3a0e03 	bleq	e83840 <__bss_end__+0xe76e18>
      30:	13490b3b 	movtne	r0, #39739	; 0x9b3b
      34:	0f050000 	svceq	0x00050000
      38:	490b0b00 	stmdbmi	fp, {r8, r9, fp}
      3c:	06000013 			; <UNDEFINED> instruction: 0x06000013
      40:	13490026 	movtne	r0, #36902	; 0x9026
      44:	01070000 	mrseq	r0, (UNDEF: 7)
      48:	01134901 	tsteq	r3, r1, lsl #18
      4c:	08000013 	stmdaeq	r0, {r0, r1, r4}
      50:	13490021 	movtne	r0, #36897	; 0x9021
      54:	00000b2f 	andeq	r0, r0, pc, lsr #22
      58:	03012e09 	movweq	r2, #7689	; 0x1e09
      5c:	3b0b3a0e 	blcc	2ce89c <__bss_end__+0x2c1e74>
      60:	4919270b 	ldmdbmi	r9, {r0, r1, r3, r8, r9, sl, sp}
      64:	010b2013 	tsteq	fp, r3, lsl r0
      68:	0a000013 	beq	bc <__code_start__-0x7f44>
      6c:	0e030034 	mcreq	0, 0, r0, cr3, cr4, {1}
      70:	0b3b0b3a 	bleq	ec2d60 <__bss_end__+0xeb6338>
      74:	00001349 	andeq	r1, r0, r9, asr #6
      78:	0300050b 	movweq	r0, #1291	; 0x50b
      7c:	3b0b3a0e 	blcc	2ce8bc <__bss_end__+0x2c1e94>
      80:	0013490b 	andseq	r4, r3, fp, lsl #18
      84:	002e0c00 	eoreq	r0, lr, r0, lsl #24
      88:	0b3a0e03 	bleq	e8389c <__bss_end__+0xe76e74>
      8c:	19270b3b 	stmdbne	r7!, {r0, r1, r3, r4, r5, r8, r9, fp}
      90:	0b201349 	bleq	804dbc <__bss_end__+0x7f8394>
      94:	050d0000 	streq	r0, [sp, #-0]
      98:	3a080300 	bcc	200ca0 <__bss_end__+0x1f4278>
      9c:	490b3b0b 	stmdbmi	fp, {r0, r1, r3, r8, r9, fp, ip, sp}
      a0:	0e000013 	mcreq	0, 0, r0, cr0, cr3, {0}
      a4:	0e030034 	mcreq	0, 0, r0, cr3, cr4, {1}
      a8:	19341349 	ldmdbne	r4!, {r0, r3, r6, r8, r9, ip}
      ac:	00000e1c 	andeq	r0, r0, ip, lsl lr
      b0:	0300340f 	movweq	r3, #1039	; 0x40f
      b4:	3b0b3a08 	blcc	2ce8dc <__bss_end__+0x2c1eb4>
      b8:	0013490b 	andseq	r4, r3, fp, lsl #18
      bc:	012e1000 	teqeq	lr, r0
      c0:	0b3a0e03 	bleq	e838d4 <__bss_end__+0xe76eac>
      c4:	19270b3b 	stmdbne	r7!, {r0, r1, r3, r4, r5, r8, r9, fp}
      c8:	01111349 	tsteq	r1, r9, asr #6
      cc:	18400612 	stmdane	r0, {r1, r4, r9, sl}^
      d0:	01194297 			; <UNDEFINED> instruction: 0x01194297
      d4:	11000013 	tstne	r0, r3, lsl r0
      d8:	0e030005 	cdpeq	0, 0, cr0, cr3, cr5, {0}
      dc:	0b3b0b3a 	bleq	ec2dcc <__bss_end__+0xeb63a4>
      e0:	17021349 	strne	r1, [r2, -r9, asr #6]
      e4:	34120000 	ldrcc	r0, [r2], #-0
      e8:	490e0300 	stmdbmi	lr, {r8, r9}
      ec:	02193413 	andseq	r3, r9, #318767104	; 0x13000000
      f0:	13000018 	movwne	r0, #24
      f4:	1331011d 	teqne	r1, #1073741831	; 0x40000007
      f8:	06120111 			; <UNDEFINED> instruction: 0x06120111
      fc:	0b590b58 	bleq	1642e64 <__bss_end__+0x163643c>
     100:	00001301 	andeq	r1, r0, r1, lsl #6
     104:	31000514 	tstcc	r0, r4, lsl r5
     108:	000b1c13 	andeq	r1, fp, r3, lsl ip
     10c:	00051500 	andeq	r1, r5, r0, lsl #10
     110:	17021331 	smladxne	r2, r1, r3, r1
     114:	0b160000 	bleq	58011c <__bss_end__+0x5736f4>
     118:	12011101 	andne	r1, r1, #1073741824	; 0x40000000
     11c:	17000006 	strne	r0, [r0, -r6]
     120:	13310034 	teqne	r1, #52	; 0x34
     124:	00000b1c 	andeq	r0, r0, ip, lsl fp
     128:	31003418 	tstcc	r0, r8, lsl r4
     12c:	00180213 	andseq	r0, r8, r3, lsl r2
     130:	011d1900 	tsteq	sp, r0, lsl #18
     134:	01111331 	tsteq	r1, r1, lsr r3
     138:	0b580612 	bleq	1601988 <__bss_end__+0x15f4f60>
     13c:	00000b59 	andeq	r0, r0, r9, asr fp
     140:	0182891a 	orreq	r8, r2, sl, lsl r9
     144:	31011100 	mrscc	r1, (UNDEF: 17)
     148:	1b000013 	blne	19c <__code_start__-0x7e64>
     14c:	01018289 	smlabbeq	r1, r9, r2, r8
     150:	13310111 	teqne	r1, #1073741828	; 0x40000004
     154:	00001301 	andeq	r1, r0, r1, lsl #6
     158:	01828a1c 	orreq	r8, r2, ip, lsl sl
     15c:	91180200 	tstls	r8, r0, lsl #4
     160:	00001842 	andeq	r1, r0, r2, asr #16
     164:	3f012e1d 	svccc	0x00012e1d
     168:	3a0e0319 	bcc	380dd4 <__bss_end__+0x3743ac>
     16c:	490b3b0b 	stmdbmi	fp, {r0, r1, r3, r8, r9, fp, ip, sp}
     170:	12011113 	andne	r1, r1, #-1073741820	; 0xc0000004
     174:	97184006 	ldrls	r4, [r8, -r6]
     178:	13011942 	movwne	r1, #6466	; 0x1942
     17c:	2e1e0000 	cdpcs	0, 1, cr0, cr14, cr0, {0}
     180:	03193f00 	tsteq	r9, #0, 30
     184:	3b0b3a0e 	blcc	2ce9c4 <__bss_end__+0x2c1f9c>
     188:	4919270b 	ldmdbmi	r9, {r0, r1, r3, r8, r9, sl, sp}
     18c:	00193c13 	andseq	r3, r9, r3, lsl ip
     190:	00341f00 	eorseq	r1, r4, r0, lsl #30
     194:	0b3a0803 	bleq	e821a8 <__bss_end__+0xe75780>
     198:	13490b3b 	movtne	r0, #39739	; 0x9b3b
     19c:	00001702 	andeq	r1, r0, r2, lsl #14
     1a0:	3f012e20 	svccc	0x00012e20
     1a4:	3a0e0319 	bcc	380e10 <__bss_end__+0x3743e8>
     1a8:	270b3b0b 	strcs	r3, [fp, -fp, lsl #22]
     1ac:	12011119 	andne	r1, r1, #1073741830	; 0x40000006
     1b0:	97184006 	ldrls	r4, [r8, -r6]
     1b4:	13011942 	movwne	r1, #6466	; 0x1942
     1b8:	34210000 	strtcc	r0, [r1], #-0
     1bc:	02133100 	andseq	r3, r3, #0, 2
     1c0:	22000017 	andcs	r0, r0, #23
     1c4:	193f002e 	ldmdbne	pc!, {r1, r2, r3, r5}	; <UNPREDICTABLE>
     1c8:	0b3a0e03 	bleq	e839dc <__bss_end__+0xe76fb4>
     1cc:	19270b3b 	stmdbne	r7!, {r0, r1, r3, r4, r5, r8, r9, fp}
     1d0:	0000193c 	andeq	r1, r0, ip, lsr r9
     1d4:	3f012e23 	svccc	0x00012e23
     1d8:	3a0e0319 	bcc	380e44 <__bss_end__+0x37441c>
     1dc:	270b3b0b 	strcs	r3, [fp, -fp, lsl #22]
     1e0:	3c134919 	ldccc	9, cr4, [r3], {25}
     1e4:	00130119 	andseq	r0, r3, r9, lsl r1
     1e8:	00052400 	andeq	r2, r5, r0, lsl #8
     1ec:	00001349 	andeq	r1, r0, r9, asr #6
     1f0:	00001825 	andeq	r1, r0, r5, lsr #16
     1f4:	00152600 	andseq	r2, r5, r0, lsl #12
     1f8:	13491927 	movtne	r1, #39207	; 0x9927
     1fc:	01000000 	mrseq	r0, (UNDEF: 0)
     200:	0e250111 	mcreq	1, 1, r0, cr5, cr1, {0}
     204:	0e030b13 	vmoveq.32	d3[0], r0
     208:	01110e1b 	tsteq	r1, fp, lsl lr
     20c:	17100612 			; <UNDEFINED> instruction: 0x17100612
     210:	24020000 	strcs	r0, [r2], #-0
     214:	3e0b0b00 	vmlacc.f64	d0, d11, d0
     218:	0008030b 	andeq	r0, r8, fp, lsl #6
     21c:	00160300 	andseq	r0, r6, r0, lsl #6
     220:	0b3a0e03 	bleq	e83a34 <__bss_end__+0xe7700c>
     224:	13490b3b 	movtne	r0, #39739	; 0x9b3b
     228:	24040000 	strcs	r0, [r4], #-0
     22c:	3e0b0b00 	vmlacc.f64	d0, d11, d0
     230:	000e030b 	andeq	r0, lr, fp, lsl #6
     234:	000f0500 	andeq	r0, pc, r0, lsl #10
     238:	00000b0b 	andeq	r0, r0, fp, lsl #22
     23c:	0b000f06 	bleq	3e5c <__code_start__-0x41a4>
     240:	0013490b 	andseq	r4, r3, fp, lsl #18
     244:	00260700 	eoreq	r0, r6, r0, lsl #14
     248:	00001349 	andeq	r1, r0, r9, asr #6
     24c:	03011308 	movweq	r1, #4872	; 0x1308
     250:	3a0b0b0e 	bcc	2c2e90 <__bss_end__+0x2b6468>
     254:	010b3b0b 	tsteq	fp, fp, lsl #22
     258:	09000013 	stmdbeq	r0, {r0, r1, r4}
     25c:	0e03000d 	cdpeq	0, 0, cr0, cr3, cr13, {0}
     260:	0b3b0b3a 	bleq	ec2f50 <__bss_end__+0xeb6528>
     264:	0b0b1349 	bleq	2c4f90 <__bss_end__+0x2b8568>
     268:	0b0c0b0d 	bleq	302ea4 <__bss_end__+0x2f647c>
     26c:	00000b38 	andeq	r0, r0, r8, lsr fp
     270:	03000d0a 	movweq	r0, #3338	; 0xd0a
     274:	3b0b3a08 	blcc	2cea9c <__bss_end__+0x2c2074>
     278:	0b13490b 	bleq	4d26ac <__bss_end__+0x4c5c84>
     27c:	0c0b0d0b 	stceq	13, cr0, [fp], {11}
     280:	000b380b 	andeq	r3, fp, fp, lsl #16
     284:	01040b00 	tsteq	r4, r0, lsl #22
     288:	0b3a0b0b 	bleq	e82ebc <__bss_end__+0xe76494>
     28c:	13010b3b 	movwne	r0, #6971	; 0x1b3b
     290:	280c0000 	stmdacs	ip, {}	; <UNPREDICTABLE>
     294:	1c0e0300 	stcne	3, cr0, [lr], {-0}
     298:	0d00000d 	stceq	0, cr0, [r0, #-52]	; 0xffffffcc
     29c:	0e03012e 	adfeqsp	f0, f3, #0.5
     2a0:	0b3b0b3a 	bleq	ec2f90 <__bss_end__+0xeb6568>
     2a4:	13491927 	movtne	r1, #39207	; 0x9927
     2a8:	13010b20 	movwne	r0, #6944	; 0x1b20
     2ac:	050e0000 	streq	r0, [lr, #-0]
     2b0:	3a080300 	bcc	200eb8 <__bss_end__+0x1f4490>
     2b4:	490b3b0b 	stmdbmi	fp, {r0, r1, r3, r8, r9, fp, ip, sp}
     2b8:	0f000013 	svceq	0x00000013
     2bc:	193f012e 	ldmdbne	pc!, {r1, r2, r3, r5, r8}	; <UNPREDICTABLE>
     2c0:	0b3a0e03 	bleq	e83ad4 <__bss_end__+0xe770ac>
     2c4:	19270b3b 	stmdbne	r7!, {r0, r1, r3, r4, r5, r8, r9, fp}
     2c8:	01111349 	tsteq	r1, r9, asr #6
     2cc:	18400612 	stmdane	r0, {r1, r4, r9, sl}^
     2d0:	01194297 			; <UNDEFINED> instruction: 0x01194297
     2d4:	10000013 	andne	r0, r0, r3, lsl r0
     2d8:	00018289 	andeq	r8, r1, r9, lsl #5
     2dc:	13310111 	teqne	r1, #1073741828	; 0x40000004
     2e0:	05110000 	ldreq	r0, [r1, #-0]
     2e4:	3a080300 	bcc	200eec <__bss_end__+0x1f44c4>
     2e8:	490b3b0b 	stmdbmi	fp, {r0, r1, r3, r8, r9, fp, ip, sp}
     2ec:	00170213 	andseq	r0, r7, r3, lsl r2
     2f0:	00341200 	eorseq	r1, r4, r0, lsl #4
     2f4:	13490e03 	movtne	r0, #40451	; 0x9e03
     2f8:	18021934 	stmdane	r2, {r2, r4, r5, r8, fp, ip}
     2fc:	34130000 	ldrcc	r0, [r3], #-0
     300:	3a0e0300 	bcc	380f08 <__bss_end__+0x3744e0>
     304:	490b3b0b 	stmdbmi	fp, {r0, r1, r3, r8, r9, fp, ip, sp}
     308:	00170213 	andseq	r0, r7, r3, lsl r2
     30c:	00341400 	eorseq	r1, r4, r0, lsl #8
     310:	0b3a0803 	bleq	e82324 <__bss_end__+0xe758fc>
     314:	13490b3b 	movtne	r0, #39739	; 0x9b3b
     318:	00001702 	andeq	r1, r0, r2, lsl #14
     31c:	01828915 	orreq	r8, r2, r5, lsl r9
     320:	31011101 	tstcc	r1, r1, lsl #2
     324:	00130113 	andseq	r0, r3, r3, lsl r1
     328:	828a1600 	addhi	r1, sl, #0, 12
     32c:	18020001 	stmdane	r2, {r0}
     330:	00184291 	mulseq	r8, r1, r2
     334:	01011700 	tsteq	r1, r0, lsl #14
     338:	13011349 	movwne	r1, #4937	; 0x1349
     33c:	21180000 	tstcs	r8, r0
     340:	2f134900 	svccs	0x00134900
     344:	1900000b 	stmdbne	r0, {r0, r1, r3}
     348:	0e03012e 	adfeqsp	f0, f3, #0.5
     34c:	0b3b0b3a 	bleq	ec303c <__bss_end__+0xeb6614>
     350:	01111927 	tsteq	r1, r7, lsr #18
     354:	18400612 	stmdane	r0, {r1, r4, r9, sl}^
     358:	01194297 			; <UNDEFINED> instruction: 0x01194297
     35c:	1a000013 	bne	3b0 <__code_start__-0x7c50>
     360:	0e030005 	cdpeq	0, 0, cr0, cr3, cr5, {0}
     364:	0b3b0b3a 	bleq	ec3054 <__bss_end__+0xeb662c>
     368:	17021349 	strne	r1, [r2, -r9, asr #6]
     36c:	1d1b0000 	ldcne	0, cr0, [fp, #-0]
     370:	11133101 	tstne	r3, r1, lsl #2
     374:	58061201 	stmdapl	r6, {r0, r9, ip}
     378:	010b590b 	tsteq	fp, fp, lsl #18
     37c:	1c000013 	stcne	0, cr0, [r0], {19}
     380:	13310005 	teqne	r1, #5
     384:	00001702 	andeq	r1, r0, r2, lsl #14
     388:	55010b1d 	strpl	r0, [r1, #-2845]	; 0xb1d
     38c:	00130117 	andseq	r0, r3, r7, lsl r1
     390:	010b1e00 	tsteq	fp, r0, lsl #28
     394:	00001755 	andeq	r1, r0, r5, asr r7
     398:	0182891f 	orreq	r8, r2, pc, lsl r9
     39c:	31011101 	tstcc	r1, r1, lsl #2
     3a0:	20000013 	andcs	r0, r0, r3, lsl r0
     3a4:	193f012e 	ldmdbne	pc!, {r1, r2, r3, r5, r8}	; <UNPREDICTABLE>
     3a8:	0b3a0e03 	bleq	e83bbc <__bss_end__+0xe77194>
     3ac:	19270b3b 	stmdbne	r7!, {r0, r1, r3, r4, r5, r8, r9, fp}
     3b0:	06120111 			; <UNDEFINED> instruction: 0x06120111
     3b4:	42971840 	addsmi	r1, r7, #64, 16	; 0x400000
     3b8:	00130119 	andseq	r0, r3, r9, lsl r1
     3bc:	00052100 	andeq	r2, r5, r0, lsl #2
     3c0:	0b3a0803 	bleq	e823d4 <__bss_end__+0xe759ac>
     3c4:	13490b3b 	movtne	r0, #39739	; 0x9b3b
     3c8:	00001802 	andeq	r1, r0, r2, lsl #16
     3cc:	03003422 	movweq	r3, #1058	; 0x422
     3d0:	3b0b3a08 	blcc	2cebf8 <__bss_end__+0x2c21d0>
     3d4:	1c13490b 	ldcne	9, cr4, [r3], {11}
     3d8:	23000005 	movwcs	r0, #5
     3dc:	0e030034 	mcreq	0, 0, r0, cr3, cr4, {1}
     3e0:	0b3b0b3a 	bleq	ec30d0 <__bss_end__+0xeb66a8>
     3e4:	051c1349 	ldreq	r1, [ip, #-841]	; 0x349
     3e8:	34240000 	strtcc	r0, [r4], #-0
     3ec:	3a080300 	bcc	200ff4 <__bss_end__+0x1f45cc>
     3f0:	490b3b0b 	stmdbmi	fp, {r0, r1, r3, r8, r9, fp, ip, sp}
     3f4:	00180213 	andseq	r0, r8, r3, lsl r2
     3f8:	00342500 	eorseq	r2, r4, r0, lsl #10
     3fc:	0b3a0e03 	bleq	e83c10 <__bss_end__+0xe771e8>
     400:	13490b3b 	movtne	r0, #39739	; 0x9b3b
     404:	00001802 	andeq	r1, r0, r2, lsl #16
     408:	3f002e26 	svccc	0x00002e26
     40c:	3a0e0319 	bcc	381078 <__bss_end__+0x374650>
     410:	270b3b0b 	strcs	r3, [fp, -fp, lsl #22]
     414:	3c134919 	ldccc	9, cr4, [r3], {25}
     418:	27000019 	smladcs	r0, r9, r0, r0
     41c:	193f002e 	ldmdbne	pc!, {r1, r2, r3, r5}	; <UNPREDICTABLE>
     420:	0b3a0e03 	bleq	e83c34 <__bss_end__+0xe7720c>
     424:	19270b3b 	stmdbne	r7!, {r0, r1, r3, r4, r5, r8, r9, fp}
     428:	0000193c 	andeq	r1, r0, ip, lsr r9
     42c:	3f012e28 	svccc	0x00012e28
     430:	3a0e0319 	bcc	38109c <__bss_end__+0x374674>
     434:	270b3b0b 	strcs	r3, [fp, -fp, lsl #22]
     438:	3c134919 	ldccc	9, cr4, [r3], {25}
     43c:	00130119 	andseq	r0, r3, r9, lsl r1
     440:	00052900 	andeq	r2, r5, r0, lsl #18
     444:	00001349 	andeq	r1, r0, r9, asr #6
     448:	0000182a 	andeq	r1, r0, sl, lsr #16
     44c:	012e2b00 	teqeq	lr, r0, lsl #22
     450:	0e03193f 	mcreq	9, 0, r1, cr3, cr15, {1}
     454:	0b3b0b3a 	bleq	ec3144 <__bss_end__+0xeb671c>
     458:	193c1927 	ldmdbne	ip!, {r0, r1, r2, r5, r8, fp, ip}
     45c:	00001301 	andeq	r1, r0, r1, lsl #6
     460:	0000262c 	andeq	r2, r0, ip, lsr #12
     464:	012e2d00 	teqeq	lr, r0, lsl #26
     468:	0e03193f 	mcreq	9, 0, r1, cr3, cr15, {1}
     46c:	0b3b0b3a 	bleq	ec315c <__bss_end__+0xeb6734>
     470:	193c1927 	ldmdbne	ip!, {r0, r1, r2, r5, r8, fp, ip}
     474:	01000000 	mrseq	r0, (UNDEF: 0)
     478:	0e250111 	mcreq	1, 1, r0, cr5, cr1, {0}
     47c:	0e030b13 	vmoveq.32	d3[0], r0
     480:	01110e1b 	tsteq	r1, fp, lsl lr
     484:	17100612 			; <UNDEFINED> instruction: 0x17100612
     488:	24020000 	strcs	r0, [r2], #-0
     48c:	3e0b0b00 	vmlacc.f64	d0, d11, d0
     490:	0008030b 	andeq	r0, r8, fp, lsl #6
     494:	00240300 	eoreq	r0, r4, r0, lsl #6
     498:	0b3e0b0b 	bleq	f830cc <__bss_end__+0xf766a4>
     49c:	00000e03 	andeq	r0, r0, r3, lsl #28
     4a0:	03001604 	movweq	r1, #1540	; 0x604
     4a4:	3b0b3a0e 	blcc	2cece4 <__bss_end__+0x2c22bc>
     4a8:	0013490b 	andseq	r4, r3, fp, lsl #18
     4ac:	000f0500 	andeq	r0, pc, r0, lsl #10
     4b0:	13490b0b 	movtne	r0, #39691	; 0x9b0b
     4b4:	26060000 	strcs	r0, [r6], -r0
     4b8:	00134900 	andseq	r4, r3, r0, lsl #18
     4bc:	01010700 	tsteq	r1, r0, lsl #14
     4c0:	13011349 	movwne	r1, #4937	; 0x1349
     4c4:	21080000 	mrscs	r0, (UNDEF: 8)
     4c8:	2f134900 	svccs	0x00134900
     4cc:	0900000b 	stmdbeq	r0, {r0, r1, r3}
     4d0:	0e030113 	mcreq	1, 0, r0, cr3, cr3, {0}
     4d4:	0b3a0b0b 	bleq	e83108 <__bss_end__+0xe766e0>
     4d8:	13010b3b 	movwne	r0, #6971	; 0x1b3b
     4dc:	0d0a0000 	stceq	0, cr0, [sl, #-0]
     4e0:	3a0e0300 	bcc	3810e8 <__bss_end__+0x3746c0>
     4e4:	490b3b0b 	stmdbmi	fp, {r0, r1, r3, r8, r9, fp, ip, sp}
     4e8:	0d0b0b13 	vstreq	d0, [fp, #-76]	; 0xffffffb4
     4ec:	380b0c0b 	stmdacc	fp, {r0, r1, r3, sl, fp}
     4f0:	0b00000b 	bleq	524 <__code_start__-0x7adc>
     4f4:	0803000d 	stmdaeq	r3, {r0, r2, r3}
     4f8:	0b3b0b3a 	bleq	ec31e8 <__bss_end__+0xeb67c0>
     4fc:	0b0b1349 	bleq	2c5228 <__bss_end__+0x2b8800>
     500:	0b0c0b0d 	bleq	30313c <__bss_end__+0x2f6714>
     504:	00000b38 	andeq	r0, r0, r8, lsr fp
     508:	3f012e0c 	svccc	0x00012e0c
     50c:	3a0e0319 	bcc	381178 <__bss_end__+0x374750>
     510:	270b3b0b 	strcs	r3, [fp, -fp, lsl #22]
     514:	12011119 	andne	r1, r1, #1073741830	; 0x40000006
     518:	97184006 	ldrls	r4, [r8, -r6]
     51c:	13011942 	movwne	r1, #6466	; 0x1942
     520:	050d0000 	streq	r0, [sp, #-0]
     524:	3a080300 	bcc	20112c <__bss_end__+0x1f4704>
     528:	490b3b0b 	stmdbmi	fp, {r0, r1, r3, r8, r9, fp, ip, sp}
     52c:	00170213 	andseq	r0, r7, r3, lsl r2
     530:	00050e00 	andeq	r0, r5, r0, lsl #28
     534:	0b3a0e03 	bleq	e83d48 <__bss_end__+0xe77320>
     538:	13490b3b 	movtne	r0, #39739	; 0x9b3b
     53c:	00001702 	andeq	r1, r0, r2, lsl #14
     540:	0182890f 	orreq	r8, r2, pc, lsl #18
     544:	31011101 	tstcc	r1, r1, lsl #2
     548:	00130113 	andseq	r0, r3, r3, lsl r1
     54c:	828a1000 	addhi	r1, sl, #0
     550:	18020001 	stmdane	r2, {r0}
     554:	00184291 	mulseq	r8, r1, r2
     558:	82891100 	addhi	r1, r9, #0, 2
     55c:	01110101 	tsteq	r1, r1, lsl #2
     560:	00001331 	andeq	r1, r0, r1, lsr r3
     564:	00002612 	andeq	r2, r0, r2, lsl r6
     568:	82891300 	addhi	r1, r9, #0, 6
     56c:	01110001 	tsteq	r1, r1
     570:	00001331 	andeq	r1, r0, r1, lsr r3
     574:	03012e14 	movweq	r2, #7700	; 0x1e14
     578:	3b0b3a0e 	blcc	2cedb8 <__bss_end__+0x2c2390>
     57c:	1119270b 	tstne	r9, fp, lsl #14
     580:	40061201 	andmi	r1, r6, r1, lsl #4
     584:	19429718 	stmdbne	r2, {r3, r4, r8, r9, sl, ip, pc}^
     588:	00001301 	andeq	r1, r0, r1, lsl #6
     58c:	03003415 	movweq	r3, #1045	; 0x415
     590:	3413490e 	ldrcc	r4, [r3], #-2318	; 0x90e
     594:	00180219 	andseq	r0, r8, r9, lsl r2
     598:	002e1600 	eoreq	r1, lr, r0, lsl #12
     59c:	0e03193f 	mcreq	9, 0, r1, cr3, cr15, {1}
     5a0:	0b3b0b3a 	bleq	ec3290 <__bss_end__+0xeb6868>
     5a4:	13491927 	movtne	r1, #39207	; 0x9927
     5a8:	06120111 			; <UNDEFINED> instruction: 0x06120111
     5ac:	42971840 	addsmi	r1, r7, #64, 16	; 0x400000
     5b0:	17000019 	smladne	r0, r9, r0, r0
     5b4:	08030034 	stmdaeq	r3, {r2, r4, r5}
     5b8:	0b3b0b3a 	bleq	ec32a8 <__bss_end__+0xeb6880>
     5bc:	18021349 	stmdane	r2, {r0, r3, r6, r8, r9, ip}
     5c0:	0b180000 	bleq	6005c8 <__bss_end__+0x5f3ba0>
     5c4:	12011101 	andne	r1, r1, #1073741824	; 0x40000000
     5c8:	00130106 	andseq	r0, r3, r6, lsl #2
     5cc:	01171900 	tsteq	r7, r0, lsl #18
     5d0:	0b0b0803 	bleq	2c25e4 <__bss_end__+0x2b5bbc>
     5d4:	0b3b0b3a 	bleq	ec32c4 <__bss_end__+0xeb689c>
     5d8:	00001301 	andeq	r1, r0, r1, lsl #6
     5dc:	03000d1a 	movweq	r0, #3354	; 0xd1a
     5e0:	3b0b3a08 	blcc	2cee08 <__bss_end__+0x2c23e0>
     5e4:	0013490b 	andseq	r4, r3, fp, lsl #18
     5e8:	00341b00 	eorseq	r1, r4, r0, lsl #22
     5ec:	0b3a0803 	bleq	e82600 <__bss_end__+0xe75bd8>
     5f0:	13490b3b 	movtne	r0, #39739	; 0x9b3b
     5f4:	00000d1c 	andeq	r0, r0, ip, lsl sp
     5f8:	0300341c 	movweq	r3, #1052	; 0x41c
     5fc:	3b0b3a0e 	blcc	2cee3c <__bss_end__+0x2c2414>
     600:	1c13490b 	ldcne	9, cr4, [r3], {11}
     604:	1d00000b 	stcne	0, cr0, [r0, #-44]	; 0xffffffd4
     608:	0e030034 	mcreq	0, 0, r0, cr3, cr4, {1}
     60c:	0b3b0b3a 	bleq	ec32fc <__bss_end__+0xeb68d4>
     610:	051c1349 	ldreq	r1, [ip, #-841]	; 0x349
     614:	2e1e0000 	cdpcs	0, 1, cr0, cr14, cr0, {0}
     618:	03193f01 	tsteq	r9, #1, 30
     61c:	3b0b3a0e 	blcc	2cee5c <__bss_end__+0x2c2434>
     620:	4919270b 	ldmdbmi	r9, {r0, r1, r3, r8, r9, sl, sp}
     624:	01193c13 	tsteq	r9, r3, lsl ip
     628:	1f000013 	svcne	0x00000013
     62c:	13490005 	movtne	r0, #36869	; 0x9005
     630:	18200000 	stmdane	r0!, {}	; <UNPREDICTABLE>
     634:	21000000 	mrscs	r0, (UNDEF: 0)
     638:	193f002e 	ldmdbne	pc!, {r1, r2, r3, r5}	; <UNPREDICTABLE>
     63c:	0b3a0e03 	bleq	e83e50 <__bss_end__+0xe77428>
     640:	19270b3b 	stmdbne	r7!, {r0, r1, r3, r4, r5, r8, r9, fp}
     644:	193c1349 	ldmdbne	ip!, {r0, r3, r6, r8, r9, ip}
     648:	2e220000 	cdpcs	0, 2, cr0, cr2, cr0, {0}
     64c:	03193f00 	tsteq	r9, #0, 30
     650:	3b0b3a0e 	blcc	2cee90 <__bss_end__+0x2c2468>
     654:	3c19270b 	ldccc	7, cr2, [r9], {11}
     658:	00000019 	andeq	r0, r0, r9, lsl r0
     65c:	25011101 	strcs	r1, [r1, #-257]	; 0x101
     660:	030b130e 	movweq	r1, #45838	; 0xb30e
     664:	110e1b0e 	tstne	lr, lr, lsl #22
     668:	10061201 	andne	r1, r6, r1, lsl #4
     66c:	02000017 	andeq	r0, r0, #23
     670:	0b0b0024 	bleq	2c0708 <__bss_end__+0x2b3ce0>
     674:	08030b3e 	stmdaeq	r3, {r1, r2, r3, r4, r5, r8, r9, fp}
     678:	24030000 	strcs	r0, [r3], #-0
     67c:	3e0b0b00 	vmlacc.f64	d0, d11, d0
     680:	000e030b 	andeq	r0, lr, fp, lsl #6
     684:	00160400 	andseq	r0, r6, r0, lsl #8
     688:	0b3a0e03 	bleq	e83e9c <__bss_end__+0xe77474>
     68c:	13490b3b 	movtne	r0, #39739	; 0x9b3b
     690:	0f050000 	svceq	0x00050000
     694:	000b0b00 	andeq	r0, fp, r0, lsl #22
     698:	000f0600 	andeq	r0, pc, r0, lsl #12
     69c:	13490b0b 	movtne	r0, #39691	; 0x9b0b
     6a0:	26070000 	strcs	r0, [r7], -r0
     6a4:	00134900 	andseq	r4, r3, r0, lsl #18
     6a8:	01130800 	tsteq	r3, r0, lsl #16
     6ac:	0b0b0e03 	bleq	2c3ec0 <__bss_end__+0x2b7498>
     6b0:	0b3b0b3a 	bleq	ec33a0 <__bss_end__+0xeb6978>
     6b4:	00001301 	andeq	r1, r0, r1, lsl #6
     6b8:	03000d09 	movweq	r0, #3337	; 0xd09
     6bc:	3b0b3a08 	blcc	2ceee4 <__bss_end__+0x2c24bc>
     6c0:	0b13490b 	bleq	4d2af4 <__bss_end__+0x4c60cc>
     6c4:	0c0b0d0b 	stceq	13, cr0, [fp], {11}
     6c8:	000b380b 	andeq	r3, fp, fp, lsl #16
     6cc:	000d0a00 	andeq	r0, sp, r0, lsl #20
     6d0:	0b3a0e03 	bleq	e83ee4 <__bss_end__+0xe774bc>
     6d4:	13490b3b 	movtne	r0, #39739	; 0x9b3b
     6d8:	0b0d0b0b 	bleq	34330c <__bss_end__+0x3368e4>
     6dc:	0b380b0c 	bleq	e03314 <__bss_end__+0xdf68ec>
     6e0:	040b0000 	streq	r0, [fp], #-0
     6e4:	3a0b0b01 	bcc	2c32f0 <__bss_end__+0x2b68c8>
     6e8:	010b3b0b 	tsteq	fp, fp, lsl #22
     6ec:	0c000013 	stceq	0, cr0, [r0], {19}
     6f0:	0e030028 	cdpeq	0, 0, cr0, cr3, cr8, {1}
     6f4:	00000d1c 	andeq	r0, r0, ip, lsl sp
     6f8:	0b01130d 	bleq	45334 <__bss_end__+0x3890c>
     6fc:	3b0b3a0b 	blcc	2cef30 <__bss_end__+0x2c2508>
     700:	0013010b 	andseq	r0, r3, fp, lsl #2
     704:	000d0e00 	andeq	r0, sp, r0, lsl #28
     708:	0b3a0e03 	bleq	e83f1c <__bss_end__+0xe774f4>
     70c:	13490b3b 	movtne	r0, #39739	; 0x9b3b
     710:	00000b38 	andeq	r0, r0, r8, lsr fp
     714:	03012e0f 	movweq	r2, #7695	; 0x1e0f
     718:	3b0b3a0e 	blcc	2cef58 <__bss_end__+0x2c2530>
     71c:	4919270b 	ldmdbmi	r9, {r0, r1, r3, r8, r9, sl, sp}
     720:	010b2013 	tsteq	fp, r3, lsl r0
     724:	10000013 	andne	r0, r0, r3, lsl r0
     728:	08030034 	stmdaeq	r3, {r2, r4, r5}
     72c:	0b3b0b3a 	bleq	ec341c <__bss_end__+0xeb69f4>
     730:	00001349 	andeq	r1, r0, r9, asr #6
     734:	3f002e11 	svccc	0x00002e11
     738:	3a0e0319 	bcc	3813a4 <__bss_end__+0x37497c>
     73c:	270b3b0b 	strcs	r3, [fp, -fp, lsl #22]
     740:	11134919 	tstne	r3, r9, lsl r9
     744:	40061201 	andmi	r1, r6, r1, lsl #4
     748:	19429718 	stmdbne	r2, {r3, r4, r8, r9, sl, ip, pc}^
     74c:	2e120000 	cdpcs	0, 1, cr0, cr2, cr0, {0}
     750:	03193f01 	tsteq	r9, #1, 30
     754:	3b0b3a0e 	blcc	2cef94 <__bss_end__+0x2c256c>
     758:	1119270b 	tstne	r9, fp, lsl #14
     75c:	40061201 	andmi	r1, r6, r1, lsl #4
     760:	19429718 	stmdbne	r2, {r3, r4, r8, r9, sl, ip, pc}^
     764:	00001301 	andeq	r1, r0, r1, lsl #6
     768:	03000513 	movweq	r0, #1299	; 0x513
     76c:	3b0b3a0e 	blcc	2cefac <__bss_end__+0x2c2584>
     770:	0213490b 	andseq	r4, r3, #180224	; 0x2c000
     774:	14000018 	strne	r0, [r0], #-24
     778:	08030005 	stmdaeq	r3, {r0, r2}
     77c:	0b3b0b3a 	bleq	ec346c <__bss_end__+0xeb6a44>
     780:	17021349 	strne	r1, [r2, -r9, asr #6]
     784:	05150000 	ldreq	r0, [r5, #-0]
     788:	3a0e0300 	bcc	381390 <__bss_end__+0x374968>
     78c:	490b3b0b 	stmdbmi	fp, {r0, r1, r3, r8, r9, fp, ip, sp}
     790:	00170213 	andseq	r0, r7, r3, lsl r2
     794:	00341600 	eorseq	r1, r4, r0, lsl #12
     798:	0b3a0803 	bleq	e827ac <__bss_end__+0xe75d84>
     79c:	13490b3b 	movtne	r0, #39739	; 0x9b3b
     7a0:	00001802 	andeq	r1, r0, r2, lsl #16
     7a4:	03003417 	movweq	r3, #1047	; 0x417
     7a8:	3413490e 	ldrcc	r4, [r3], #-2318	; 0x90e
     7ac:	00180219 	andseq	r0, r8, r9, lsl r2
     7b0:	82891800 	addhi	r1, r9, #0, 16
     7b4:	01110101 	tsteq	r1, r1, lsl #2
     7b8:	13011331 	movwne	r1, #4913	; 0x1331
     7bc:	8a190000 	bhi	6407c4 <__bss_end__+0x633d9c>
     7c0:	02000182 	andeq	r0, r0, #-2147483616	; 0x80000020
     7c4:	18429118 	stmdane	r2, {r3, r4, r8, ip, pc}^
     7c8:	891a0000 	ldmdbhi	sl, {}	; <UNPREDICTABLE>
     7cc:	11000182 	smlabbne	r0, r2, r1, r0
     7d0:	00133101 	andseq	r3, r3, r1, lsl #2
     7d4:	82891b00 	addhi	r1, r9, #0, 22
     7d8:	01110101 	tsteq	r1, r1, lsl #2
     7dc:	00001331 	andeq	r1, r0, r1, lsr r3
     7e0:	4901011c 	stmdbmi	r1, {r2, r3, r4, r8}
     7e4:	00130113 	andseq	r0, r3, r3, lsl r1
     7e8:	00211d00 	eoreq	r1, r1, r0, lsl #26
     7ec:	0b2f1349 	bleq	bc5518 <__bss_end__+0xbb8af0>
     7f0:	051e0000 	ldreq	r0, [lr, #-0]
     7f4:	3a080300 	bcc	2013fc <__bss_end__+0x1f49d4>
     7f8:	490b3b0b 	stmdbmi	fp, {r0, r1, r3, r8, r9, fp, ip, sp}
     7fc:	1f000013 	svcne	0x00000013
     800:	0e030034 	mcreq	0, 0, r0, cr3, cr4, {1}
     804:	19341349 	ldmdbne	r4!, {r0, r3, r6, r8, r9, ip}
     808:	00000e1c 	andeq	r0, r0, ip, lsl lr
     80c:	03012e20 	movweq	r2, #7712	; 0x1e20
     810:	3b0b3a0e 	blcc	2cf050 <__bss_end__+0x2c2628>
     814:	4919270b 	ldmdbmi	r9, {r0, r1, r3, r8, r9, sl, sp}
     818:	12011113 	andne	r1, r1, #-1073741820	; 0xc0000004
     81c:	97184006 	ldrls	r4, [r8, -r6]
     820:	13011942 	movwne	r1, #6466	; 0x1942
     824:	34210000 	strtcc	r0, [r1], #-0
     828:	3a080300 	bcc	201430 <__bss_end__+0x1f4a08>
     82c:	490b3b0b 	stmdbmi	fp, {r0, r1, r3, r8, r9, fp, ip, sp}
     830:	00170213 	andseq	r0, r7, r3, lsl r2
     834:	011d2200 	tsteq	sp, r0, lsl #4
     838:	01111331 	tsteq	r1, r1, lsr r3
     83c:	0b580612 	bleq	160208c <__bss_end__+0x15f5664>
     840:	13010b59 	movwne	r0, #7001	; 0x1b59
     844:	05230000 	streq	r0, [r3, #-0]!
     848:	02133100 	andseq	r3, r3, #0, 2
     84c:	24000017 	strcs	r0, [r0], #-23
     850:	0111010b 	tsteq	r1, fp, lsl #2
     854:	00000612 	andeq	r0, r0, r2, lsl r6
     858:	31003425 	tstcc	r0, r5, lsr #8
     85c:	00170213 	andseq	r0, r7, r3, lsl r2
     860:	00342600 	eorseq	r2, r4, r0, lsl #12
     864:	18021331 	stmdane	r2, {r0, r4, r5, r8, r9, ip}
     868:	2e270000 	cdpcs	0, 2, cr0, cr7, cr0, {0}
     86c:	3a0e0301 	bcc	381478 <__bss_end__+0x374a50>
     870:	270b3b0b 	strcs	r3, [fp, -fp, lsl #22]
     874:	12011119 	andne	r1, r1, #1073741830	; 0x40000006
     878:	97184006 	ldrls	r4, [r8, -r6]
     87c:	13011942 	movwne	r1, #6466	; 0x1942
     880:	2e280000 	cdpcs	0, 2, cr0, cr8, cr0, {0}
     884:	03193f00 	tsteq	r9, #0, 30
     888:	3b0b3a0e 	blcc	2cf0c8 <__bss_end__+0x2c26a0>
     88c:	1119270b 	tstne	r9, fp, lsl #14
     890:	40061201 	andmi	r1, r6, r1, lsl #4
     894:	19429718 	stmdbne	r2, {r3, r4, r8, r9, sl, ip, pc}^
     898:	34290000 	strtcc	r0, [r9], #-0
     89c:	3a0e0300 	bcc	3814a4 <__bss_end__+0x374a7c>
     8a0:	490b3b0b 	stmdbmi	fp, {r0, r1, r3, r8, r9, fp, ip, sp}
     8a4:	2a000013 	bcs	8f8 <__code_start__-0x7708>
     8a8:	0e030034 	mcreq	0, 0, r0, cr3, cr4, {1}
     8ac:	0b3b0b3a 	bleq	ec359c <__bss_end__+0xeb6b74>
     8b0:	18021349 	stmdane	r2, {r0, r3, r6, r8, r9, ip}
     8b4:	342b0000 	strtcc	r0, [fp], #-0
     8b8:	3a0e0300 	bcc	3814c0 <__bss_end__+0x374a98>
     8bc:	490b3b0b 	stmdbmi	fp, {r0, r1, r3, r8, r9, fp, ip, sp}
     8c0:	00170213 	andseq	r0, r7, r3, lsl r2
     8c4:	00342c00 	eorseq	r2, r4, r0, lsl #24
     8c8:	00001331 	andeq	r1, r0, r1, lsr r3
     8cc:	0300342d 	movweq	r3, #1069	; 0x42d
     8d0:	3b0b3a0e 	blcc	2cf110 <__bss_end__+0x2c26e8>
     8d4:	1c13490b 	ldcne	9, cr4, [r3], {11}
     8d8:	2e000006 	cdpcs	0, 0, cr0, cr0, cr6, {0}
     8dc:	193f012e 	ldmdbne	pc!, {r1, r2, r3, r5, r8}	; <UNPREDICTABLE>
     8e0:	0b3a0e03 	bleq	e840f4 <__bss_end__+0xe776cc>
     8e4:	1927053b 	stmdbne	r7!, {r0, r1, r3, r4, r5, r8, sl}
     8e8:	06120111 			; <UNDEFINED> instruction: 0x06120111
     8ec:	42971840 	addsmi	r1, r7, #64, 16	; 0x400000
     8f0:	00130119 	andseq	r0, r3, r9, lsl r1
     8f4:	00052f00 	andeq	r2, r5, r0, lsl #30
     8f8:	0b3a0e03 	bleq	e8410c <__bss_end__+0xe776e4>
     8fc:	1349053b 	movtne	r0, #38203	; 0x953b
     900:	00001702 	andeq	r1, r0, r2, lsl #14
     904:	03003430 	movweq	r3, #1072	; 0x430
     908:	3413490e 	ldrcc	r4, [r3], #-2318	; 0x90e
     90c:	31000019 	tstcc	r0, r9, lsl r0
     910:	193f012e 	ldmdbne	pc!, {r1, r2, r3, r5, r8}	; <UNPREDICTABLE>
     914:	0b3a0e03 	bleq	e84128 <__bss_end__+0xe77700>
     918:	1927053b 	stmdbne	r7!, {r0, r1, r3, r4, r5, r8, sl}
     91c:	01111349 	tsteq	r1, r9, asr #6
     920:	18400612 	stmdane	r0, {r1, r4, r9, sl}^
     924:	01194297 			; <UNDEFINED> instruction: 0x01194297
     928:	32000013 	andcc	r0, r0, #19
     92c:	08030005 	stmdaeq	r3, {r0, r2}
     930:	053b0b3a 	ldreq	r0, [fp, #-2874]!	; 0xb3a
     934:	17021349 	strne	r1, [r2, -r9, asr #6]
     938:	89330000 	ldmdbhi	r3!, {}	; <UNPREDICTABLE>
     93c:	11000182 	smlabbne	r0, r2, r1, r0
     940:	18429301 	stmdane	r2, {r0, r8, r9, ip, pc}^
     944:	15340000 	ldrne	r0, [r4, #-0]!
     948:	49192700 	ldmdbmi	r9, {r8, r9, sl, sp}
     94c:	35000013 	strcc	r0, [r0, #-19]
     950:	0e030034 	mcreq	0, 0, r0, cr3, cr4, {1}
     954:	0b3b0b3a 	bleq	ec3644 <__bss_end__+0xeb6c1c>
     958:	193f1349 	ldmdbne	pc!, {r0, r3, r6, r8, r9, ip}	; <UNPREDICTABLE>
     95c:	0000193c 	andeq	r1, r0, ip, lsr r9
     960:	3f002e36 	svccc	0x00002e36
     964:	3a0e0319 	bcc	3815d0 <__bss_end__+0x374ba8>
     968:	270b3b0b 	strcs	r3, [fp, -fp, lsl #22]
     96c:	00193c19 	andseq	r3, r9, r9, lsl ip
     970:	012e3700 	teqeq	lr, r0, lsl #14
     974:	0e03193f 	mcreq	9, 0, r1, cr3, cr15, {1}
     978:	0b3b0b3a 	bleq	ec3668 <__bss_end__+0xeb6c40>
     97c:	13491927 	movtne	r1, #39207	; 0x9927
     980:	1301193c 	movwne	r1, #6460	; 0x193c
     984:	05380000 	ldreq	r0, [r8, #-0]!
     988:	00134900 	andseq	r4, r3, r0, lsl #18
     98c:	00183900 	andseq	r3, r8, r0, lsl #18
     990:	2e3a0000 	cdpcs	0, 3, cr0, cr10, cr0, {0}
     994:	03193f00 	tsteq	r9, #0, 30
     998:	3b0b3a0e 	blcc	2cf1d8 <__bss_end__+0x2c27b0>
     99c:	4919270b 	ldmdbmi	r9, {r0, r1, r3, r8, r9, sl, sp}
     9a0:	00193c13 	andseq	r3, r9, r3, lsl ip
     9a4:	012e3b00 	teqeq	lr, r0, lsl #22
     9a8:	0e03193f 	mcreq	9, 0, r1, cr3, cr15, {1}
     9ac:	0b3b0b3a 	bleq	ec369c <__bss_end__+0xeb6c74>
     9b0:	193c1927 	ldmdbne	ip!, {r0, r1, r2, r5, r8, fp, ip}
     9b4:	00001301 	andeq	r1, r0, r1, lsl #6
     9b8:	01110100 	tsteq	r1, r0, lsl #2
     9bc:	0b130e25 	bleq	4c4258 <__bss_end__+0x4b7830>
     9c0:	0e1b0e03 	cdpeq	14, 1, cr0, cr11, cr3, {0}
     9c4:	06120111 			; <UNDEFINED> instruction: 0x06120111
     9c8:	00001710 	andeq	r1, r0, r0, lsl r7
     9cc:	0b002402 	bleq	99dc <data_abort_vector+0x200>
     9d0:	030b3e0b 	movweq	r3, #48651	; 0xbe0b
     9d4:	03000008 	movweq	r0, #8
     9d8:	0b0b0024 	bleq	2c0a70 <__bss_end__+0x2b4048>
     9dc:	0e030b3e 	vmoveq.16	d3[0], r0
     9e0:	16040000 	strne	r0, [r4], -r0
     9e4:	3a0e0300 	bcc	3815ec <__bss_end__+0x374bc4>
     9e8:	490b3b0b 	stmdbmi	fp, {r0, r1, r3, r8, r9, fp, ip, sp}
     9ec:	05000013 	streq	r0, [r0, #-19]
     9f0:	0b0b000f 	bleq	2c0a34 <__bss_end__+0x2b400c>
     9f4:	00001349 	andeq	r1, r0, r9, asr #6
     9f8:	49002606 	stmdbmi	r0, {r1, r2, r9, sl, sp}
     9fc:	07000013 	smladeq	r0, r3, r0, r0
     a00:	193f012e 	ldmdbne	pc!, {r1, r2, r3, r5, r8}	; <UNPREDICTABLE>
     a04:	0b3a0e03 	bleq	e84218 <__bss_end__+0xe777f0>
     a08:	19270b3b 	stmdbne	r7!, {r0, r1, r3, r4, r5, r8, r9, fp}
     a0c:	01111349 	tsteq	r1, r9, asr #6
     a10:	18400612 	stmdane	r0, {r1, r4, r9, sl}^
     a14:	01194297 			; <UNDEFINED> instruction: 0x01194297
     a18:	08000013 	stmdaeq	r0, {r0, r1, r4}
     a1c:	0e030005 	cdpeq	0, 0, cr0, cr3, cr5, {0}
     a20:	0b3b0b3a 	bleq	ec3710 <__bss_end__+0xeb6ce8>
     a24:	17021349 	strne	r1, [r2, -r9, asr #6]
     a28:	05090000 	streq	r0, [r9, #-0]
     a2c:	3a080300 	bcc	201634 <__bss_end__+0x1f4c0c>
     a30:	490b3b0b 	stmdbmi	fp, {r0, r1, r3, r8, r9, fp, ip, sp}
     a34:	00170213 	andseq	r0, r7, r3, lsl r2
     a38:	00340a00 	eorseq	r0, r4, r0, lsl #20
     a3c:	0b3a0e03 	bleq	e84250 <__bss_end__+0xe77828>
     a40:	13490b3b 	movtne	r0, #39739	; 0x9b3b
     a44:	00001702 	andeq	r1, r0, r2, lsl #14
     a48:	0300340b 	movweq	r3, #1035	; 0x40b
     a4c:	3b0b3a08 	blcc	2cf274 <__bss_end__+0x2c284c>
     a50:	0213490b 	andseq	r4, r3, #180224	; 0x2c000
     a54:	0c000017 	stceq	0, cr0, [r0], {23}
     a58:	00000026 	andeq	r0, r0, r6, lsr #32
     a5c:	01110100 	tsteq	r1, r0, lsl #2
     a60:	0b130e25 	bleq	4c42fc <__bss_end__+0x4b78d4>
     a64:	0e1b0e03 	cdpeq	14, 1, cr0, cr11, cr3, {0}
     a68:	06120111 			; <UNDEFINED> instruction: 0x06120111
     a6c:	00001710 	andeq	r1, r0, r0, lsl r7
     a70:	0b002402 	bleq	9a80 <data_abort_vector+0x2a4>
     a74:	030b3e0b 	movweq	r3, #48651	; 0xbe0b
     a78:	0300000e 	movweq	r0, #14
     a7c:	0b0b0024 	bleq	2c0b14 <__bss_end__+0x2b40ec>
     a80:	08030b3e 	stmdaeq	r3, {r1, r2, r3, r4, r5, r8, r9, fp}
     a84:	0f040000 	svceq	0x00040000
     a88:	000b0b00 	andeq	r0, fp, r0, lsl #22
     a8c:	000f0500 	andeq	r0, pc, r0, lsl #10
     a90:	13490b0b 	movtne	r0, #39691	; 0x9b0b
     a94:	16060000 	strne	r0, [r6], -r0
     a98:	3a0e0300 	bcc	3816a0 <__bss_end__+0x374c78>
     a9c:	490b3b0b 	stmdbmi	fp, {r0, r1, r3, r8, r9, fp, ip, sp}
     aa0:	07000013 	smladeq	r0, r3, r0, r0
     aa4:	193f012e 	ldmdbne	pc!, {r1, r2, r3, r5, r8}	; <UNPREDICTABLE>
     aa8:	0b3a0e03 	bleq	e842bc <__bss_end__+0xe77894>
     aac:	19270b3b 	stmdbne	r7!, {r0, r1, r3, r4, r5, r8, r9, fp}
     ab0:	01111349 	tsteq	r1, r9, asr #6
     ab4:	18400612 	stmdane	r0, {r1, r4, r9, sl}^
     ab8:	00194297 	mulseq	r9, r7, r2
     abc:	00050800 	andeq	r0, r5, r0, lsl #16
     ac0:	0b3a0803 	bleq	e82ad4 <__bss_end__+0xe760ac>
     ac4:	13490b3b 	movtne	r0, #39739	; 0x9b3b
     ac8:	00001802 	andeq	r1, r0, r2, lsl #16
     acc:	03000509 	movweq	r0, #1289	; 0x509
     ad0:	3b0b3a08 	blcc	2cf2f8 <__bss_end__+0x2c28d0>
     ad4:	0213490b 	andseq	r4, r3, #180224	; 0x2c000
     ad8:	0a000017 	beq	b3c <__code_start__-0x74c4>
     adc:	08030034 	stmdaeq	r3, {r2, r4, r5}
     ae0:	0b3b0b3a 	bleq	ec37d0 <__bss_end__+0xeb6da8>
     ae4:	17021349 	strne	r1, [r2, -r9, asr #6]
     ae8:	340b0000 	strcc	r0, [fp], #-0
     aec:	3a080300 	bcc	2016f4 <__bss_end__+0x1f4ccc>
     af0:	490b3b0b 	stmdbmi	fp, {r0, r1, r3, r8, r9, fp, ip, sp}
     af4:	00180213 	andseq	r0, r8, r3, lsl r2
     af8:	11010000 	mrsne	r0, (UNDEF: 1)
     afc:	130e2501 	movwne	r2, #58625	; 0xe501
     b00:	1b0e030b 	blne	381734 <__bss_end__+0x374d0c>
     b04:	1201110e 	andne	r1, r1, #-2147483645	; 0x80000003
     b08:	00171006 	andseq	r1, r7, r6
     b0c:	00160200 	andseq	r0, r6, r0, lsl #4
     b10:	0b3a0e03 	bleq	e84324 <__bss_end__+0xe778fc>
     b14:	13490b3b 	movtne	r0, #39739	; 0x9b3b
     b18:	13030000 	movwne	r0, #12288	; 0x3000
     b1c:	0b0e0301 	bleq	381728 <__bss_end__+0x374d00>
     b20:	3b0b3a0b 	blcc	2cf354 <__bss_end__+0x2c292c>
     b24:	0013010b 	andseq	r0, r3, fp, lsl #2
     b28:	000d0400 	andeq	r0, sp, r0, lsl #8
     b2c:	13490e03 	movtne	r0, #40451	; 0x9e03
     b30:	19340b38 	ldmdbne	r4!, {r3, r4, r5, r8, r9, fp}
     b34:	0f050000 	svceq	0x00050000
     b38:	000b0b00 	andeq	r0, fp, r0, lsl #22
     b3c:	00240600 	eoreq	r0, r4, r0, lsl #12
     b40:	0b3e0b0b 	bleq	f83774 <__bss_end__+0xf76d4c>
     b44:	00000803 	andeq	r0, r0, r3, lsl #16
     b48:	0b002407 	bleq	9b6c <interrupt_vector+0x18>
     b4c:	030b3e0b 	movweq	r3, #48651	; 0xbe0b
     b50:	0800000e 	stmdaeq	r0, {r1, r2, r3}
     b54:	0b0b000f 	bleq	2c0b98 <__bss_end__+0x2b4170>
     b58:	00001349 	andeq	r1, r0, r9, asr #6
     b5c:	49002609 	stmdbmi	r0, {r0, r3, r9, sl, sp}
     b60:	0a000013 	beq	bb4 <__code_start__-0x744c>
     b64:	193f012e 	ldmdbne	pc!, {r1, r2, r3, r5, r8}	; <UNPREDICTABLE>
     b68:	0b3a0e03 	bleq	e8437c <__bss_end__+0xe77954>
     b6c:	19270b3b 	stmdbne	r7!, {r0, r1, r3, r4, r5, r8, r9, fp}
     b70:	01111349 	tsteq	r1, r9, asr #6
     b74:	18400612 	stmdane	r0, {r1, r4, r9, sl}^
     b78:	01194297 			; <UNDEFINED> instruction: 0x01194297
     b7c:	0b000013 	bleq	bd0 <__code_start__-0x7430>
     b80:	08030005 	stmdaeq	r3, {r0, r2}
     b84:	0b3b0b3a 	bleq	ec3874 <__bss_end__+0xeb6e4c>
     b88:	18021349 	stmdane	r2, {r0, r3, r6, r8, r9, ip}
     b8c:	180c0000 	stmdane	ip, {}	; <UNPREDICTABLE>
     b90:	0d000000 	stceq	0, cr0, [r0, #-0]
     b94:	08030034 	stmdaeq	r3, {r2, r4, r5}
     b98:	0b3b0b3a 	bleq	ec3888 <__bss_end__+0xeb6e60>
     b9c:	18021349 	stmdane	r2, {r0, r3, r6, r8, r9, ip}
     ba0:	340e0000 	strcc	r0, [lr], #-0
     ba4:	3a0e0300 	bcc	3817ac <__bss_end__+0x374d84>
     ba8:	490b3b0b 	stmdbmi	fp, {r0, r1, r3, r8, r9, fp, ip, sp}
     bac:	00180213 	andseq	r0, r8, r3, lsl r2
     bb0:	00340f00 	eorseq	r0, r4, r0, lsl #30
     bb4:	0b3a0803 	bleq	e82bc8 <__bss_end__+0xe761a0>
     bb8:	13490b3b 	movtne	r0, #39739	; 0x9b3b
     bbc:	00001702 	andeq	r1, r0, r2, lsl #14
     bc0:	01828910 	orreq	r8, r2, r0, lsl r9
     bc4:	31011101 	tstcc	r1, r1, lsl #2
     bc8:	00130113 	andseq	r0, r3, r3, lsl r1
     bcc:	828a1100 	addhi	r1, sl, #0, 2
     bd0:	18020001 	stmdane	r2, {r0}
     bd4:	00184291 	mulseq	r8, r1, r2
     bd8:	82891200 	addhi	r1, r9, #0, 4
     bdc:	01110101 	tsteq	r1, r1, lsl #2
     be0:	01130000 	tsteq	r3, r0
     be4:	01134901 	tsteq	r3, r1, lsl #18
     be8:	14000013 	strne	r0, [r0], #-19
     bec:	13490021 	movtne	r0, #36897	; 0x9021
     bf0:	0000052f 	andeq	r0, r0, pc, lsr #10
     bf4:	27011515 	smladcs	r1, r5, r5, r1
     bf8:	01134919 	tsteq	r3, r9, lsl r9
     bfc:	16000013 			; <UNDEFINED> instruction: 0x16000013
     c00:	13490005 	movtne	r0, #36869	; 0x9005
     c04:	34170000 	ldrcc	r0, [r7], #-0
     c08:	3a0e0300 	bcc	381810 <__bss_end__+0x374de8>
     c0c:	490b3b0b 	stmdbmi	fp, {r0, r1, r3, r8, r9, fp, ip, sp}
     c10:	3c193f13 	ldccc	15, cr3, [r9], {19}
     c14:	18000019 	stmdane	r0, {r0, r3, r4}
     c18:	193f012e 	ldmdbne	pc!, {r1, r2, r3, r5, r8}	; <UNPREDICTABLE>
     c1c:	0b3a0e03 	bleq	e84430 <__bss_end__+0xe77a08>
     c20:	19270b3b 	stmdbne	r7!, {r0, r1, r3, r4, r5, r8, r9, fp}
     c24:	193c1349 	ldmdbne	ip!, {r0, r3, r6, r8, r9, ip}
     c28:	01000000 	mrseq	r0, (UNDEF: 0)
     c2c:	0e250111 	mcreq	1, 1, r0, cr5, cr1, {0}
     c30:	0e030b13 	vmoveq.32	d3[0], r0
     c34:	01110e1b 	tsteq	r1, fp, lsl lr
     c38:	17100612 			; <UNDEFINED> instruction: 0x17100612
     c3c:	24020000 	strcs	r0, [r2], #-0
     c40:	3e0b0b00 	vmlacc.f64	d0, d11, d0
     c44:	0008030b 	andeq	r0, r8, fp, lsl #6
     c48:	00240300 	eoreq	r0, r4, r0, lsl #6
     c4c:	0b3e0b0b 	bleq	f83880 <__bss_end__+0xf76e58>
     c50:	00000e03 	andeq	r0, r0, r3, lsl #28
     c54:	03012e04 	movweq	r2, #7684	; 0x1e04
     c58:	3b0b3a0e 	blcc	2cf498 <__bss_end__+0x2c2a70>
     c5c:	4919270b 	ldmdbmi	r9, {r0, r1, r3, r8, r9, sl, sp}
     c60:	12011113 	andne	r1, r1, #-1073741820	; 0xc0000004
     c64:	97184006 	ldrls	r4, [r8, -r6]
     c68:	13011942 	movwne	r1, #6466	; 0x1942
     c6c:	05050000 	streq	r0, [r5, #-0]
     c70:	3a080300 	bcc	201878 <__bss_end__+0x1f4e50>
     c74:	490b3b0b 	stmdbmi	fp, {r0, r1, r3, r8, r9, fp, ip, sp}
     c78:	00170213 	andseq	r0, r7, r3, lsl r2
     c7c:	82890600 	addhi	r0, r9, #0, 12
     c80:	01110101 	tsteq	r1, r1, lsl #2
     c84:	00001331 	andeq	r1, r0, r1, lsr r3
     c88:	01828a07 	orreq	r8, r2, r7, lsl #20
     c8c:	91180200 	tstls	r8, r0, lsl #4
     c90:	00001842 	andeq	r1, r0, r2, asr #16
     c94:	3f002e08 	svccc	0x00002e08
     c98:	3a0e0319 	bcc	381904 <__bss_end__+0x374edc>
     c9c:	270b3b0b 	strcs	r3, [fp, -fp, lsl #22]
     ca0:	12011119 	andne	r1, r1, #1073741830	; 0x40000006
     ca4:	97184006 	ldrls	r4, [r8, -r6]
     ca8:	00001942 	andeq	r1, r0, r2, asr #18
     cac:	3f012e09 	svccc	0x00012e09
     cb0:	3a0e0319 	bcc	38191c <__bss_end__+0x374ef4>
     cb4:	270b3b0b 	strcs	r3, [fp, -fp, lsl #22]
     cb8:	12011119 	andne	r1, r1, #1073741830	; 0x40000006
     cbc:	97184006 	ldrls	r4, [r8, -r6]
     cc0:	13011942 	movwne	r1, #6466	; 0x1942
     cc4:	050a0000 	streq	r0, [sl, #-0]
     cc8:	3a080300 	bcc	2018d0 <__bss_end__+0x1f4ea8>
     ccc:	490b3b0b 	stmdbmi	fp, {r0, r1, r3, r8, r9, fp, ip, sp}
     cd0:	00180213 	andseq	r0, r8, r3, lsl r2
     cd4:	01150b00 	tsteq	r5, r0, lsl #22
     cd8:	13491927 	movtne	r1, #39207	; 0x9927
     cdc:	00001301 	andeq	r1, r0, r1, lsl #6
     ce0:	4900050c 	stmdbmi	r0, {r2, r3, r8, sl}
     ce4:	0d000013 	stceq	0, cr0, [r0, #-76]	; 0xffffffb4
     ce8:	0b0b000f 	bleq	2c0d2c <__bss_end__+0x2b4304>
     cec:	00001349 	andeq	r1, r0, r9, asr #6
     cf0:	0300340e 	movweq	r3, #1038	; 0x40e
     cf4:	3b0b3a0e 	blcc	2cf534 <__bss_end__+0x2c2b0c>
     cf8:	3f13490b 	svccc	0x0013490b
     cfc:	00180219 	andseq	r0, r8, r9, lsl r2
     d00:	012e0f00 	teqeq	lr, r0, lsl #30
     d04:	0e03193f 	mcreq	9, 0, r1, cr3, cr15, {1}
     d08:	0b3b0b3a 	bleq	ec39f8 <__bss_end__+0xeb6fd0>
     d0c:	193c1927 	ldmdbne	ip!, {r0, r1, r2, r5, r8, fp, ip}
     d10:	01000000 	mrseq	r0, (UNDEF: 0)
     d14:	0e250111 	mcreq	1, 1, r0, cr5, cr1, {0}
     d18:	0e030b13 	vmoveq.32	d3[0], r0
     d1c:	01110e1b 	tsteq	r1, fp, lsl lr
     d20:	17100612 			; <UNDEFINED> instruction: 0x17100612
     d24:	24020000 	strcs	r0, [r2], #-0
     d28:	3e0b0b00 	vmlacc.f64	d0, d11, d0
     d2c:	0008030b 	andeq	r0, r8, fp, lsl #6
     d30:	00240300 	eoreq	r0, r4, r0, lsl #6
     d34:	0b3e0b0b 	bleq	f83968 <__bss_end__+0xf76f40>
     d38:	00000e03 	andeq	r0, r0, r3, lsl #28
     d3c:	0b000f04 	bleq	4954 <__code_start__-0x36ac>
     d40:	0013490b 	andseq	r4, r3, fp, lsl #18
     d44:	00260500 	eoreq	r0, r6, r0, lsl #10
     d48:	00001349 	andeq	r1, r0, r9, asr #6
     d4c:	3f012e06 	svccc	0x00012e06
     d50:	3a0e0319 	bcc	3819bc <__bss_end__+0x374f94>
     d54:	270b3b0b 	strcs	r3, [fp, -fp, lsl #22]
     d58:	11134919 	tstne	r3, r9, lsl r9
     d5c:	40061201 	andmi	r1, r6, r1, lsl #4
     d60:	19429618 	stmdbne	r2, {r3, r4, r9, sl, ip, pc}^
     d64:	00001301 	andeq	r1, r0, r1, lsl #6
     d68:	03000507 	movweq	r0, #1287	; 0x507
     d6c:	3b0b3a08 	blcc	2cf594 <__bss_end__+0x2c2b6c>
     d70:	0213490b 	andseq	r4, r3, #180224	; 0x2c000
     d74:	08000017 	stmdaeq	r0, {r0, r1, r2, r4}
     d78:	19270115 	stmdbne	r7!, {r0, r2, r4, r8}
     d7c:	13011349 	movwne	r1, #4937	; 0x1349
     d80:	05090000 	streq	r0, [r9, #-0]
     d84:	00134900 	andseq	r4, r3, r0, lsl #18
     d88:	00340a00 	eorseq	r0, r4, r0, lsl #20
     d8c:	0b3a0e03 	bleq	e845a0 <__bss_end__+0xe77b78>
     d90:	13490b3b 	movtne	r0, #39739	; 0x9b3b
     d94:	193c193f 	ldmdbne	ip!, {r0, r1, r2, r3, r4, r5, r8, fp, ip}
     d98:	340b0000 	strcc	r0, [fp], #-0
     d9c:	3a0e0300 	bcc	3819a4 <__bss_end__+0x374f7c>
     da0:	490b3b0b 	stmdbmi	fp, {r0, r1, r3, r8, r9, fp, ip, sp}
     da4:	02193f13 	andseq	r3, r9, #19, 30	; 0x4c
     da8:	00000018 	andeq	r0, r0, r8, lsl r0
     dac:	25011101 	strcs	r1, [r1, #-257]	; 0x101
     db0:	030b130e 	movweq	r1, #45838	; 0xb30e
     db4:	110e1b0e 	tstne	lr, lr, lsl #22
     db8:	10061201 	andne	r1, r6, r1, lsl #4
     dbc:	02000017 	andeq	r0, r0, #23
     dc0:	0b0b0024 	bleq	2c0e58 <__bss_end__+0x2b4430>
     dc4:	08030b3e 	stmdaeq	r3, {r1, r2, r3, r4, r5, r8, r9, fp}
     dc8:	24030000 	strcs	r0, [r3], #-0
     dcc:	3e0b0b00 	vmlacc.f64	d0, d11, d0
     dd0:	000e030b 	andeq	r0, lr, fp, lsl #6
     dd4:	000f0400 	andeq	r0, pc, r0, lsl #8
     dd8:	00000b0b 	andeq	r0, r0, fp, lsl #22
     ddc:	0b000f05 	bleq	49f8 <__code_start__-0x3608>
     de0:	0013490b 	andseq	r4, r3, fp, lsl #18
     de4:	00260600 	eoreq	r0, r6, r0, lsl #12
     de8:	00001349 	andeq	r1, r0, r9, asr #6
     dec:	03001607 	movweq	r1, #1543	; 0x607
     df0:	3b0b3a0e 	blcc	2cf630 <__bss_end__+0x2c2c08>
     df4:	0013490b 	andseq	r4, r3, fp, lsl #18
     df8:	01130800 	tsteq	r3, r0, lsl #16
     dfc:	0b0b0e03 	bleq	2c4610 <__bss_end__+0x2b7be8>
     e00:	0b3b0b3a 	bleq	ec3af0 <__bss_end__+0xeb70c8>
     e04:	00001301 	andeq	r1, r0, r1, lsl #6
     e08:	03000d09 	movweq	r0, #3337	; 0xd09
     e0c:	3813490e 	ldmdacc	r3, {r1, r2, r3, r8, fp, lr}
     e10:	0019340b 	andseq	r3, r9, fp, lsl #8
     e14:	012e0a00 	teqeq	lr, r0, lsl #20
     e18:	0b3a0e03 	bleq	e8462c <__bss_end__+0xe77c04>
     e1c:	19270b3b 	stmdbne	r7!, {r0, r1, r3, r4, r5, r8, r9, fp}
     e20:	01111349 	tsteq	r1, r9, asr #6
     e24:	18400612 	stmdane	r0, {r1, r4, r9, sl}^
     e28:	01194297 			; <UNDEFINED> instruction: 0x01194297
     e2c:	0b000013 	bleq	e80 <__code_start__-0x7180>
     e30:	08030005 	stmdaeq	r3, {r0, r2}
     e34:	0b3b0b3a 	bleq	ec3b24 <__bss_end__+0xeb70fc>
     e38:	17021349 	strne	r1, [r2, -r9, asr #6]
     e3c:	2e0c0000 	cdpcs	0, 0, cr0, cr12, cr0, {0}
     e40:	3a080301 	bcc	201a4c <__bss_end__+0x1f5024>
     e44:	270b3b0b 	strcs	r3, [fp, -fp, lsl #22]
     e48:	11134919 	tstne	r3, r9, lsl r9
     e4c:	40061201 	andmi	r1, r6, r1, lsl #4
     e50:	19429718 	stmdbne	r2, {r3, r4, r8, r9, sl, ip, pc}^
     e54:	00001301 	andeq	r1, r0, r1, lsl #6
     e58:	0300050d 	movweq	r0, #1293	; 0x50d
     e5c:	3b0b3a0e 	blcc	2cf69c <__bss_end__+0x2c2c74>
     e60:	0213490b 	andseq	r4, r3, #180224	; 0x2c000
     e64:	0e000017 	mcreq	0, 0, r0, cr0, cr7, {0}
     e68:	0e030005 	cdpeq	0, 0, cr0, cr3, cr5, {0}
     e6c:	0b3b0b3a 	bleq	ec3b5c <__bss_end__+0xeb7134>
     e70:	18021349 	stmdane	r2, {r0, r3, r6, r8, r9, ip}
     e74:	340f0000 	strcc	r0, [pc], #-0	; e7c <__code_start__-0x7184>
     e78:	3a080300 	bcc	201a80 <__bss_end__+0x1f5058>
     e7c:	490b3b0b 	stmdbmi	fp, {r0, r1, r3, r8, r9, fp, ip, sp}
     e80:	00180213 	andseq	r0, r8, r3, lsl r2
     e84:	00341000 	eorseq	r1, r4, r0
     e88:	0b3a0803 	bleq	e82e9c <__bss_end__+0xe76474>
     e8c:	13490b3b 	movtne	r0, #39739	; 0x9b3b
     e90:	00001702 	andeq	r1, r0, r2, lsl #14
     e94:	03003411 	movweq	r3, #1041	; 0x411
     e98:	3413490e 	ldrcc	r4, [r3], #-2318	; 0x90e
     e9c:	00180219 	andseq	r0, r8, r9, lsl r2
     ea0:	010b1200 	mrseq	r1, R11_fiq
     ea4:	06120111 			; <UNDEFINED> instruction: 0x06120111
     ea8:	00001301 	andeq	r1, r0, r1, lsl #6
     eac:	03003413 	movweq	r3, #1043	; 0x413
     eb0:	3b0b3a0e 	blcc	2cf6f0 <__bss_end__+0x2c2cc8>
     eb4:	0213490b 	andseq	r4, r3, #180224	; 0x2c000
     eb8:	14000017 	strne	r0, [r0], #-23
     ebc:	00018289 	andeq	r8, r1, r9, lsl #5
     ec0:	13310111 	teqne	r1, #1073741828	; 0x40000004
     ec4:	89150000 	ldmdbhi	r5, {}	; <UNPREDICTABLE>
     ec8:	11010182 	smlabbne	r1, r2, r1, r0
     ecc:	01133101 	tsteq	r3, r1, lsl #2
     ed0:	16000013 			; <UNDEFINED> instruction: 0x16000013
     ed4:	0001828a 	andeq	r8, r1, sl, lsl #5
     ed8:	42911802 	addsmi	r1, r1, #131072	; 0x20000
     edc:	17000018 	smladne	r0, r8, r0, r0
     ee0:	01018289 	smlabbeq	r1, r9, r2, r8
     ee4:	13310111 	teqne	r1, #1073741828	; 0x40000004
     ee8:	01180000 	tsteq	r8, r0
     eec:	01134901 	tsteq	r3, r1, lsl #18
     ef0:	19000013 	stmdbne	r0, {r0, r1, r4}
     ef4:	13490021 	movtne	r0, #36897	; 0x9021
     ef8:	00000b2f 	andeq	r0, r0, pc, lsr #22
     efc:	3f012e1a 	svccc	0x00012e1a
     f00:	3a0e0319 	bcc	381b6c <__bss_end__+0x375144>
     f04:	270b3b0b 	strcs	r3, [fp, -fp, lsl #22]
     f08:	12011119 	andne	r1, r1, #1073741830	; 0x40000006
     f0c:	97184006 	ldrls	r4, [r8, -r6]
     f10:	13011942 	movwne	r1, #6466	; 0x1942
     f14:	151b0000 	ldrne	r0, [fp, #-0]
     f18:	49192701 	ldmdbmi	r9, {r0, r8, r9, sl, sp}
     f1c:	00130113 	andseq	r0, r3, r3, lsl r1
     f20:	00051c00 	andeq	r1, r5, r0, lsl #24
     f24:	00001349 	andeq	r1, r0, r9, asr #6
     f28:	3f012e1d 	svccc	0x00012e1d
     f2c:	3a0e0319 	bcc	381b98 <__bss_end__+0x375170>
     f30:	270b3b0b 	strcs	r3, [fp, -fp, lsl #22]
     f34:	11134919 	tstne	r3, r9, lsl r9
     f38:	40061201 	andmi	r1, r6, r1, lsl #4
     f3c:	19429718 	stmdbne	r2, {r3, r4, r8, r9, sl, ip, pc}^
     f40:	00001301 	andeq	r1, r0, r1, lsl #6
     f44:	11010b1e 	tstne	r1, lr, lsl fp
     f48:	00061201 	andeq	r1, r6, r1, lsl #4
     f4c:	82891f00 	addhi	r1, r9, #0, 30
     f50:	01110101 	tsteq	r1, r1, lsl #2
     f54:	00001301 	andeq	r1, r0, r1, lsl #6
     f58:	03003420 	movweq	r3, #1056	; 0x420
     f5c:	3b0b3a0e 	blcc	2cf79c <__bss_end__+0x2c2d74>
     f60:	3f13490b 	svccc	0x0013490b
     f64:	00193c19 	andseq	r3, r9, r9, lsl ip
     f68:	002e2100 	eoreq	r2, lr, r0, lsl #2
     f6c:	0e03193f 	mcreq	9, 0, r1, cr3, cr15, {1}
     f70:	0b3b0b3a 	bleq	ec3c60 <__bss_end__+0xeb7238>
     f74:	193c1927 	ldmdbne	ip!, {r0, r1, r2, r5, r8, fp, ip}
     f78:	2e220000 	cdpcs	0, 2, cr0, cr2, cr0, {0}
     f7c:	03193f01 	tsteq	r9, #1, 30
     f80:	3b0b3a0e 	blcc	2cf7c0 <__bss_end__+0x2c2d98>
     f84:	4919270b 	ldmdbmi	r9, {r0, r1, r3, r8, r9, sl, sp}
     f88:	01193c13 	tsteq	r9, r3, lsl ip
     f8c:	23000013 	movwcs	r0, #19
     f90:	00000018 	andeq	r0, r0, r8, lsl r0
     f94:	01110100 	tsteq	r1, r0, lsl #2
     f98:	0b130e25 	bleq	4c4834 <__bss_end__+0x4b7e0c>
     f9c:	0e1b0e03 	cdpeq	14, 1, cr0, cr11, cr3, {0}
     fa0:	06120111 			; <UNDEFINED> instruction: 0x06120111
     fa4:	00001710 	andeq	r1, r0, r0, lsl r7
     fa8:	0b002402 	bleq	9fb8 <memcheck_trap_enable+0x48>
     fac:	030b3e0b 	movweq	r3, #48651	; 0xbe0b
     fb0:	03000008 	movweq	r0, #8
     fb4:	0b0b0024 	bleq	2c104c <__bss_end__+0x2b4624>
     fb8:	0e030b3e 	vmoveq.16	d3[0], r0
     fbc:	0f040000 	svceq	0x00040000
     fc0:	490b0b00 	stmdbmi	fp, {r8, r9, fp}
     fc4:	05000013 	streq	r0, [r0, #-19]
     fc8:	13490026 	movtne	r0, #36902	; 0x9026
     fcc:	2e060000 	cdpcs	0, 0, cr0, cr6, cr0, {0}
     fd0:	03193f01 	tsteq	r9, #1, 30
     fd4:	3b0b3a0e 	blcc	2cf814 <__bss_end__+0x2c2dec>
     fd8:	1119270b 	tstne	r9, fp, lsl #14
     fdc:	40061201 	andmi	r1, r6, r1, lsl #4
     fe0:	19429718 	stmdbne	r2, {r3, r4, r8, r9, sl, ip, pc}^
     fe4:	00001301 	andeq	r1, r0, r1, lsl #6
     fe8:	01828907 	orreq	r8, r2, r7, lsl #18
     fec:	31011100 	mrscc	r1, (UNDEF: 17)
     ff0:	08000013 	stmdaeq	r0, {r0, r1, r4}
     ff4:	01018289 	smlabbeq	r1, r9, r2, r8
     ff8:	13010111 	movwne	r0, #4369	; 0x1111
     ffc:	8a090000 	bhi	241004 <__bss_end__+0x2345dc>
    1000:	02000182 	andeq	r0, r0, #-2147483616	; 0x80000020
    1004:	18429118 	stmdane	r2, {r3, r4, r8, ip, pc}^
    1008:	890a0000 	stmdbhi	sl, {}	; <UNPREDICTABLE>
    100c:	11010182 	smlabbne	r1, r2, r1, r0
    1010:	01133101 	tsteq	r3, r1, lsl #2
    1014:	0b000013 	bleq	1068 <__code_start__-0x6f98>
    1018:	19270115 	stmdbne	r7!, {r0, r2, r4, r8}
    101c:	13011349 	movwne	r1, #4937	; 0x1349
    1020:	050c0000 	streq	r0, [ip, #-0]
    1024:	00134900 	andseq	r4, r3, r0, lsl #18
    1028:	00340d00 	eorseq	r0, r4, r0, lsl #26
    102c:	0b3a0e03 	bleq	e84840 <__bss_end__+0xe77e18>
    1030:	13490b3b 	movtne	r0, #39739	; 0x9b3b
    1034:	193c193f 	ldmdbne	ip!, {r0, r1, r2, r3, r4, r5, r8, fp, ip}
    1038:	2e0e0000 	cdpcs	0, 0, cr0, cr14, cr0, {0}
    103c:	03193f00 	tsteq	r9, #0, 30
    1040:	3b0b3a0e 	blcc	2cf880 <__bss_end__+0x2c2e58>
    1044:	3c19270b 	ldccc	7, cr2, [r9], {11}
    1048:	0f000019 	svceq	0x00000019
    104c:	193f012e 	ldmdbne	pc!, {r1, r2, r3, r5, r8}	; <UNPREDICTABLE>
    1050:	0b3a0e03 	bleq	e84864 <__bss_end__+0xe77e3c>
    1054:	19270b3b 	stmdbne	r7!, {r0, r1, r3, r4, r5, r8, r9, fp}
    1058:	1301193c 	movwne	r1, #6460	; 0x193c
    105c:	01000000 	mrseq	r0, (UNDEF: 0)
    1060:	0e250111 	mcreq	1, 1, r0, cr5, cr1, {0}
    1064:	0e030b13 	vmoveq.32	d3[0], r0
    1068:	01110e1b 	tsteq	r1, fp, lsl lr
    106c:	17100612 			; <UNDEFINED> instruction: 0x17100612
    1070:	24020000 	strcs	r0, [r2], #-0
    1074:	3e0b0b00 	vmlacc.f64	d0, d11, d0
    1078:	0008030b 	andeq	r0, r8, fp, lsl #6
    107c:	00240300 	eoreq	r0, r4, r0, lsl #6
    1080:	0b3e0b0b 	bleq	f83cb4 <__bss_end__+0xf7728c>
    1084:	00000e03 	andeq	r0, r0, r3, lsl #28
    1088:	3f012e04 	svccc	0x00012e04
    108c:	3a0e0319 	bcc	381cf8 <__bss_end__+0x3752d0>
    1090:	110b3b0b 	tstne	fp, fp, lsl #22
    1094:	40061201 	andmi	r1, r6, r1, lsl #4
    1098:	19429718 	stmdbne	r2, {r3, r4, r8, r9, sl, ip, pc}^
    109c:	00001301 	andeq	r1, r0, r1, lsl #6
    10a0:	03003405 	movweq	r3, #1029	; 0x405
    10a4:	3b0b3a0e 	blcc	2cf8e4 <__bss_end__+0x2c2ebc>
    10a8:	3f13490b 	svccc	0x0013490b
    10ac:	00193c19 	andseq	r3, r9, r9, lsl ip
    10b0:	002e0600 	eoreq	r0, lr, r0, lsl #12
    10b4:	0e03193f 	mcreq	9, 0, r1, cr3, cr15, {1}
    10b8:	0b3b0b3a 	bleq	ec3da8 <__bss_end__+0xeb7380>
    10bc:	193c1927 	ldmdbne	ip!, {r0, r1, r2, r5, r8, fp, ip}
    10c0:	34070000 	strcc	r0, [r7], #-0
    10c4:	3a080300 	bcc	201ccc <__bss_end__+0x1f52a4>
    10c8:	490b3b0b 	stmdbmi	fp, {r0, r1, r3, r8, r9, fp, ip, sp}
    10cc:	00170213 	andseq	r0, r7, r3, lsl r2
    10d0:	00340800 	eorseq	r0, r4, r0, lsl #16
    10d4:	0b3a0e03 	bleq	e848e8 <__bss_end__+0xe77ec0>
    10d8:	13490b3b 	movtne	r0, #39739	; 0x9b3b
    10dc:	89090000 	stmdbhi	r9, {}	; <UNPREDICTABLE>
    10e0:	11000182 	smlabbne	r0, r2, r1, r0
    10e4:	00133101 	andseq	r3, r3, r1, lsl #2
    10e8:	000f0a00 	andeq	r0, pc, r0, lsl #20
    10ec:	13490b0b 	movtne	r0, #39691	; 0x9b0b
    10f0:	01000000 	mrseq	r0, (UNDEF: 0)
    10f4:	0e250111 	mcreq	1, 1, r0, cr5, cr1, {0}
    10f8:	0e030b13 	vmoveq.32	d3[0], r0
    10fc:	01110e1b 	tsteq	r1, fp, lsl lr
    1100:	17100612 			; <UNDEFINED> instruction: 0x17100612
    1104:	24020000 	strcs	r0, [r2], #-0
    1108:	3e0b0b00 	vmlacc.f64	d0, d11, d0
    110c:	0008030b 	andeq	r0, r8, fp, lsl #6
    1110:	00240300 	eoreq	r0, r4, r0, lsl #6
    1114:	0b3e0b0b 	bleq	f83d48 <__bss_end__+0xf77320>
    1118:	00000e03 	andeq	r0, r0, r3, lsl #28
    111c:	0b000f04 	bleq	4d34 <__code_start__-0x32cc>
    1120:	0013490b 	andseq	r4, r3, fp, lsl #18
    1124:	00260500 	eoreq	r0, r6, r0, lsl #10
    1128:	00001349 	andeq	r1, r0, r9, asr #6
    112c:	3f012e06 	svccc	0x00012e06
    1130:	3a0e0319 	bcc	381d9c <__bss_end__+0x375374>
    1134:	270b3b0b 	strcs	r3, [fp, -fp, lsl #22]
    1138:	12011119 	andne	r1, r1, #1073741830	; 0x40000006
    113c:	97184006 	ldrls	r4, [r8, -r6]
    1140:	13011942 	movwne	r1, #6466	; 0x1942
    1144:	05070000 	streq	r0, [r7, #-0]
    1148:	3a080300 	bcc	201d50 <__bss_end__+0x1f5328>
    114c:	490b3b0b 	stmdbmi	fp, {r0, r1, r3, r8, r9, fp, ip, sp}
    1150:	00170213 	andseq	r0, r7, r3, lsl r2
    1154:	00340800 	eorseq	r0, r4, r0, lsl #16
    1158:	13490e03 	movtne	r0, #40451	; 0x9e03
    115c:	18021934 	stmdane	r2, {r2, r4, r5, r8, fp, ip}
    1160:	89090000 	stmdbhi	r9, {}	; <UNPREDICTABLE>
    1164:	11000182 	smlabbne	r0, r2, r1, r0
    1168:	00133101 	andseq	r3, r3, r1, lsl #2
    116c:	82890a00 	addhi	r0, r9, #0, 20
    1170:	01110101 	tsteq	r1, r1, lsl #2
    1174:	13011331 	movwne	r1, #4913	; 0x1331
    1178:	8a0b0000 	bhi	2c1180 <__bss_end__+0x2b4758>
    117c:	02000182 	andeq	r0, r0, #-2147483616	; 0x80000020
    1180:	18429118 	stmdane	r2, {r3, r4, r8, ip, pc}^
    1184:	010c0000 	mrseq	r0, (UNDEF: 12)
    1188:	01134901 	tsteq	r3, r1, lsl #18
    118c:	0d000013 	stceq	0, cr0, [r0, #-76]	; 0xffffffb4
    1190:	13490021 	movtne	r0, #36897	; 0x9021
    1194:	00000b2f 	andeq	r0, r0, pc, lsr #22
    1198:	3f002e0e 	svccc	0x00002e0e
    119c:	3a0e0319 	bcc	381e08 <__bss_end__+0x3753e0>
    11a0:	270b3b0b 	strcs	r3, [fp, -fp, lsl #22]
    11a4:	00193c19 	andseq	r3, r9, r9, lsl ip
    11a8:	012e0f00 	teqeq	lr, r0, lsl #30
    11ac:	0e03193f 	mcreq	9, 0, r1, cr3, cr15, {1}
    11b0:	0b3b0b3a 	bleq	ec3ea0 <__bss_end__+0xeb7478>
    11b4:	13491927 	movtne	r1, #39207	; 0x9927
    11b8:	1301193c 	movwne	r1, #6460	; 0x193c
    11bc:	05100000 	ldreq	r0, [r0, #-0]
    11c0:	00134900 	andseq	r4, r3, r0, lsl #18
    11c4:	00181100 	andseq	r1, r8, r0, lsl #2
    11c8:	01000000 	mrseq	r0, (UNDEF: 0)
    11cc:	0e250111 	mcreq	1, 1, r0, cr5, cr1, {0}
    11d0:	0e030b13 	vmoveq.32	d3[0], r0
    11d4:	01110e1b 	tsteq	r1, fp, lsl lr
    11d8:	17100612 			; <UNDEFINED> instruction: 0x17100612
    11dc:	24020000 	strcs	r0, [r2], #-0
    11e0:	3e0b0b00 	vmlacc.f64	d0, d11, d0
    11e4:	0008030b 	andeq	r0, r8, fp, lsl #6
    11e8:	00240300 	eoreq	r0, r4, r0, lsl #6
    11ec:	0b3e0b0b 	bleq	f83e20 <__bss_end__+0xf773f8>
    11f0:	00000e03 	andeq	r0, r0, r3, lsl #28
    11f4:	0b000f04 	bleq	4e0c <__code_start__-0x31f4>
    11f8:	0013490b 	andseq	r4, r3, fp, lsl #18
    11fc:	00260500 	eoreq	r0, r6, r0, lsl #10
    1200:	00001349 	andeq	r1, r0, r9, asr #6
    1204:	3f012e06 	svccc	0x00012e06
    1208:	3a0e0319 	bcc	381e74 <__bss_end__+0x37544c>
    120c:	270b3b0b 	strcs	r3, [fp, -fp, lsl #22]
    1210:	12011119 	andne	r1, r1, #1073741830	; 0x40000006
    1214:	97184006 	ldrls	r4, [r8, -r6]
    1218:	13011942 	movwne	r1, #6466	; 0x1942
    121c:	05070000 	streq	r0, [r7, #-0]
    1220:	3a080300 	bcc	201e28 <__bss_end__+0x1f5400>
    1224:	490b3b0b 	stmdbmi	fp, {r0, r1, r3, r8, r9, fp, ip, sp}
    1228:	00170213 	andseq	r0, r7, r3, lsl r2
    122c:	00340800 	eorseq	r0, r4, r0, lsl #16
    1230:	13490e03 	movtne	r0, #40451	; 0x9e03
    1234:	18021934 	stmdane	r2, {r2, r4, r5, r8, fp, ip}
    1238:	89090000 	stmdbhi	r9, {}	; <UNPREDICTABLE>
    123c:	11000182 	smlabbne	r0, r2, r1, r0
    1240:	00133101 	andseq	r3, r3, r1, lsl #2
    1244:	82890a00 	addhi	r0, r9, #0, 20
    1248:	01110101 	tsteq	r1, r1, lsl #2
    124c:	13011331 	movwne	r1, #4913	; 0x1331
    1250:	8a0b0000 	bhi	2c1258 <__bss_end__+0x2b4830>
    1254:	02000182 	andeq	r0, r0, #-2147483616	; 0x80000020
    1258:	18429118 	stmdane	r2, {r3, r4, r8, ip, pc}^
    125c:	010c0000 	mrseq	r0, (UNDEF: 12)
    1260:	01134901 	tsteq	r3, r1, lsl #18
    1264:	0d000013 	stceq	0, cr0, [r0, #-76]	; 0xffffffb4
    1268:	13490021 	movtne	r0, #36897	; 0x9021
    126c:	00000b2f 	andeq	r0, r0, pc, lsr #22
    1270:	3f002e0e 	svccc	0x00002e0e
    1274:	3a0e0319 	bcc	381ee0 <__bss_end__+0x3754b8>
    1278:	270b3b0b 	strcs	r3, [fp, -fp, lsl #22]
    127c:	00193c19 	andseq	r3, r9, r9, lsl ip
    1280:	012e0f00 	teqeq	lr, r0, lsl #30
    1284:	0e03193f 	mcreq	9, 0, r1, cr3, cr15, {1}
    1288:	0b3b0b3a 	bleq	ec3f78 <__bss_end__+0xeb7550>
    128c:	13491927 	movtne	r1, #39207	; 0x9927
    1290:	1301193c 	movwne	r1, #6460	; 0x193c
    1294:	05100000 	ldreq	r0, [r0, #-0]
    1298:	00134900 	andseq	r4, r3, r0, lsl #18
    129c:	00181100 	andseq	r1, r8, r0, lsl #2
    12a0:	01000000 	mrseq	r0, (UNDEF: 0)
    12a4:	0e250111 	mcreq	1, 1, r0, cr5, cr1, {0}
    12a8:	0e030b13 	vmoveq.32	d3[0], r0
    12ac:	01110e1b 	tsteq	r1, fp, lsl lr
    12b0:	17100612 			; <UNDEFINED> instruction: 0x17100612
    12b4:	24020000 	strcs	r0, [r2], #-0
    12b8:	3e0b0b00 	vmlacc.f64	d0, d11, d0
    12bc:	0008030b 	andeq	r0, r8, fp, lsl #6
    12c0:	00240300 	eoreq	r0, r4, r0, lsl #6
    12c4:	0b3e0b0b 	bleq	f83ef8 <__bss_end__+0xf774d0>
    12c8:	00000e03 	andeq	r0, r0, r3, lsl #28
    12cc:	0b000f04 	bleq	4ee4 <__code_start__-0x311c>
    12d0:	0013490b 	andseq	r4, r3, fp, lsl #18
    12d4:	00260500 	eoreq	r0, r6, r0, lsl #10
    12d8:	00001349 	andeq	r1, r0, r9, asr #6
    12dc:	3f012e06 	svccc	0x00012e06
    12e0:	3a0e0319 	bcc	381f4c <__bss_end__+0x375524>
    12e4:	270b3b0b 	strcs	r3, [fp, -fp, lsl #22]
    12e8:	12011119 	andne	r1, r1, #1073741830	; 0x40000006
    12ec:	97184006 	ldrls	r4, [r8, -r6]
    12f0:	13011942 	movwne	r1, #6466	; 0x1942
    12f4:	05070000 	streq	r0, [r7, #-0]
    12f8:	3a080300 	bcc	201f00 <__bss_end__+0x1f54d8>
    12fc:	490b3b0b 	stmdbmi	fp, {r0, r1, r3, r8, r9, fp, ip, sp}
    1300:	00170213 	andseq	r0, r7, r3, lsl r2
    1304:	00340800 	eorseq	r0, r4, r0, lsl #16
    1308:	13490e03 	movtne	r0, #40451	; 0x9e03
    130c:	18021934 	stmdane	r2, {r2, r4, r5, r8, fp, ip}
    1310:	89090000 	stmdbhi	r9, {}	; <UNPREDICTABLE>
    1314:	11000182 	smlabbne	r0, r2, r1, r0
    1318:	00133101 	andseq	r3, r3, r1, lsl #2
    131c:	82890a00 	addhi	r0, r9, #0, 20
    1320:	01110101 	tsteq	r1, r1, lsl #2
    1324:	13011331 	movwne	r1, #4913	; 0x1331
    1328:	8a0b0000 	bhi	2c1330 <__bss_end__+0x2b4908>
    132c:	02000182 	andeq	r0, r0, #-2147483616	; 0x80000020
    1330:	18429118 	stmdane	r2, {r3, r4, r8, ip, pc}^
    1334:	010c0000 	mrseq	r0, (UNDEF: 12)
    1338:	01134901 	tsteq	r3, r1, lsl #18
    133c:	0d000013 	stceq	0, cr0, [r0, #-76]	; 0xffffffb4
    1340:	13490021 	movtne	r0, #36897	; 0x9021
    1344:	00000b2f 	andeq	r0, r0, pc, lsr #22
    1348:	3f002e0e 	svccc	0x00002e0e
    134c:	3a0e0319 	bcc	381fb8 <__bss_end__+0x375590>
    1350:	270b3b0b 	strcs	r3, [fp, -fp, lsl #22]
    1354:	00193c19 	andseq	r3, r9, r9, lsl ip
    1358:	012e0f00 	teqeq	lr, r0, lsl #30
    135c:	0e03193f 	mcreq	9, 0, r1, cr3, cr15, {1}
    1360:	0b3b0b3a 	bleq	ec4050 <__bss_end__+0xeb7628>
    1364:	13491927 	movtne	r1, #39207	; 0x9927
    1368:	1301193c 	movwne	r1, #6460	; 0x193c
    136c:	05100000 	ldreq	r0, [r0, #-0]
    1370:	00134900 	andseq	r4, r3, r0, lsl #18
    1374:	00181100 	andseq	r1, r8, r0, lsl #2
    1378:	01000000 	mrseq	r0, (UNDEF: 0)
    137c:	0e250111 	mcreq	1, 1, r0, cr5, cr1, {0}
    1380:	0e030b13 	vmoveq.32	d3[0], r0
    1384:	01110e1b 	tsteq	r1, fp, lsl lr
    1388:	17100612 			; <UNDEFINED> instruction: 0x17100612
    138c:	24020000 	strcs	r0, [r2], #-0
    1390:	3e0b0b00 	vmlacc.f64	d0, d11, d0
    1394:	0008030b 	andeq	r0, r8, fp, lsl #6
    1398:	00240300 	eoreq	r0, r4, r0, lsl #6
    139c:	0b3e0b0b 	bleq	f83fd0 <__bss_end__+0xf775a8>
    13a0:	00000e03 	andeq	r0, r0, r3, lsl #28
    13a4:	0b000f04 	bleq	4fbc <__code_start__-0x3044>
    13a8:	0013490b 	andseq	r4, r3, fp, lsl #18
    13ac:	00260500 	eoreq	r0, r6, r0, lsl #10
    13b0:	00001349 	andeq	r1, r0, r9, asr #6
    13b4:	3f012e06 	svccc	0x00012e06
    13b8:	3a0e0319 	bcc	382024 <__bss_end__+0x3755fc>
    13bc:	270b3b0b 	strcs	r3, [fp, -fp, lsl #22]
    13c0:	12011119 	andne	r1, r1, #1073741830	; 0x40000006
    13c4:	97184006 	ldrls	r4, [r8, -r6]
    13c8:	13011942 	movwne	r1, #6466	; 0x1942
    13cc:	05070000 	streq	r0, [r7, #-0]
    13d0:	3a080300 	bcc	201fd8 <__bss_end__+0x1f55b0>
    13d4:	490b3b0b 	stmdbmi	fp, {r0, r1, r3, r8, r9, fp, ip, sp}
    13d8:	00170213 	andseq	r0, r7, r3, lsl r2
    13dc:	00340800 	eorseq	r0, r4, r0, lsl #16
    13e0:	13490e03 	movtne	r0, #40451	; 0x9e03
    13e4:	18021934 	stmdane	r2, {r2, r4, r5, r8, fp, ip}
    13e8:	89090000 	stmdbhi	r9, {}	; <UNPREDICTABLE>
    13ec:	11000182 	smlabbne	r0, r2, r1, r0
    13f0:	00133101 	andseq	r3, r3, r1, lsl #2
    13f4:	82890a00 	addhi	r0, r9, #0, 20
    13f8:	01110101 	tsteq	r1, r1, lsl #2
    13fc:	13011331 	movwne	r1, #4913	; 0x1331
    1400:	8a0b0000 	bhi	2c1408 <__bss_end__+0x2b49e0>
    1404:	02000182 	andeq	r0, r0, #-2147483616	; 0x80000020
    1408:	18429118 	stmdane	r2, {r3, r4, r8, ip, pc}^
    140c:	010c0000 	mrseq	r0, (UNDEF: 12)
    1410:	01134901 	tsteq	r3, r1, lsl #18
    1414:	0d000013 	stceq	0, cr0, [r0, #-76]	; 0xffffffb4
    1418:	13490021 	movtne	r0, #36897	; 0x9021
    141c:	00000b2f 	andeq	r0, r0, pc, lsr #22
    1420:	3f002e0e 	svccc	0x00002e0e
    1424:	3a0e0319 	bcc	382090 <__bss_end__+0x375668>
    1428:	270b3b0b 	strcs	r3, [fp, -fp, lsl #22]
    142c:	00193c19 	andseq	r3, r9, r9, lsl ip
    1430:	012e0f00 	teqeq	lr, r0, lsl #30
    1434:	0e03193f 	mcreq	9, 0, r1, cr3, cr15, {1}
    1438:	0b3b0b3a 	bleq	ec4128 <__bss_end__+0xeb7700>
    143c:	13491927 	movtne	r1, #39207	; 0x9927
    1440:	1301193c 	movwne	r1, #6460	; 0x193c
    1444:	05100000 	ldreq	r0, [r0, #-0]
    1448:	00134900 	andseq	r4, r3, r0, lsl #18
    144c:	00181100 	andseq	r1, r8, r0, lsl #2
    1450:	01000000 	mrseq	r0, (UNDEF: 0)
    1454:	0e250111 	mcreq	1, 1, r0, cr5, cr1, {0}
    1458:	0e030b13 	vmoveq.32	d3[0], r0
    145c:	01110e1b 	tsteq	r1, fp, lsl lr
    1460:	17100612 			; <UNDEFINED> instruction: 0x17100612
    1464:	24020000 	strcs	r0, [r2], #-0
    1468:	3e0b0b00 	vmlacc.f64	d0, d11, d0
    146c:	0008030b 	andeq	r0, r8, fp, lsl #6
    1470:	00240300 	eoreq	r0, r4, r0, lsl #6
    1474:	0b3e0b0b 	bleq	f840a8 <__bss_end__+0xf77680>
    1478:	00000e03 	andeq	r0, r0, r3, lsl #28
    147c:	3f002e04 	svccc	0x00002e04
    1480:	3a0e0319 	bcc	3820ec <__bss_end__+0x3756c4>
    1484:	270b3b0b 	strcs	r3, [fp, -fp, lsl #22]
    1488:	12011119 	andne	r1, r1, #1073741830	; 0x40000006
    148c:	97184006 	ldrls	r4, [r8, -r6]
    1490:	00001942 	andeq	r1, r0, r2, asr #18
    1494:	01110100 	tsteq	r1, r0, lsl #2
    1498:	0b130e25 	bleq	4c4d34 <__bss_end__+0x4b830c>
    149c:	0e1b0e03 	cdpeq	14, 1, cr0, cr11, cr3, {0}
    14a0:	06120111 			; <UNDEFINED> instruction: 0x06120111
    14a4:	00001710 	andeq	r1, r0, r0, lsl r7
    14a8:	0b002402 	bleq	a4b8 <printk+0x28>
    14ac:	030b3e0b 	movweq	r3, #48651	; 0xbe0b
    14b0:	03000008 	movweq	r0, #8
    14b4:	0b0b0024 	bleq	2c154c <__bss_end__+0x2b4b24>
    14b8:	0e030b3e 	vmoveq.16	d3[0], r0
    14bc:	04040000 	streq	r0, [r4], #-0
    14c0:	3a0b0b01 	bcc	2c40cc <__bss_end__+0x2b76a4>
    14c4:	010b3b0b 	tsteq	fp, fp, lsl #22
    14c8:	05000013 	streq	r0, [r0, #-19]
    14cc:	0e030028 	cdpeq	0, 0, cr0, cr3, cr8, {1}
    14d0:	00000d1c 	andeq	r0, r0, ip, lsl sp
    14d4:	3f012e06 	svccc	0x00012e06
    14d8:	3a0e0319 	bcc	382144 <__bss_end__+0x37571c>
    14dc:	270b3b0b 	strcs	r3, [fp, -fp, lsl #22]
    14e0:	12011119 	andne	r1, r1, #1073741830	; 0x40000006
    14e4:	97184006 	ldrls	r4, [r8, -r6]
    14e8:	13011942 	movwne	r1, #6466	; 0x1942
    14ec:	34070000 	strcc	r0, [r7], #-0
    14f0:	3a0e0300 	bcc	3820f8 <__bss_end__+0x3756d0>
    14f4:	490b3b0b 	stmdbmi	fp, {r0, r1, r3, r8, r9, fp, ip, sp}
    14f8:	3c193f13 	ldccc	15, cr3, [r9], {19}
    14fc:	08000019 	stmdaeq	r0, {r0, r3, r4}
    1500:	08030034 	stmdaeq	r3, {r2, r4, r5}
    1504:	0b3b0b3a 	bleq	ec41f4 <__bss_end__+0xeb77cc>
    1508:	0b1c1349 	bleq	706234 <__bss_end__+0x6f980c>
    150c:	34090000 	strcc	r0, [r9], #-0
    1510:	3a080300 	bcc	202118 <__bss_end__+0x1f56f0>
    1514:	490b3b0b 	stmdbmi	fp, {r0, r1, r3, r8, r9, fp, ip, sp}
    1518:	0a000013 	beq	156c <__code_start__-0x6a94>
    151c:	08030034 	stmdaeq	r3, {r2, r4, r5}
    1520:	0b3b0b3a 	bleq	ec4210 <__bss_end__+0xeb77e8>
    1524:	18021349 	stmdane	r2, {r0, r3, r6, r8, r9, ip}
    1528:	0b0b0000 	bleq	2c1530 <__bss_end__+0x2b4b08>
    152c:	12011101 	andne	r1, r1, #1073741824	; 0x40000000
    1530:	00130106 	andseq	r0, r3, r6, lsl #2
    1534:	00340c00 	eorseq	r0, r4, r0, lsl #24
    1538:	0b3a0803 	bleq	e8354c <__bss_end__+0xe76b24>
    153c:	13490b3b 	movtne	r0, #39739	; 0x9b3b
    1540:	00001702 	andeq	r1, r0, r2, lsl #14
    1544:	0182890d 	orreq	r8, r2, sp, lsl #18
    1548:	31011100 	mrscc	r1, (UNDEF: 17)
    154c:	0e000013 	mcreq	0, 0, r0, cr0, cr3, {0}
    1550:	01018289 	smlabbeq	r1, r9, r2, r8
    1554:	13310111 	teqne	r1, #1073741828	; 0x40000004
    1558:	00001301 	andeq	r1, r0, r1, lsl #6
    155c:	01828a0f 	orreq	r8, r2, pc, lsl #20
    1560:	91180200 	tstls	r8, r0, lsl #4
    1564:	00001842 	andeq	r1, r0, r2, asr #16
    1568:	0b000f10 	bleq	51b0 <__code_start__-0x2e50>
    156c:	0013490b 	andseq	r4, r3, fp, lsl #18
    1570:	002e1100 	eoreq	r1, lr, r0, lsl #2
    1574:	0e03193f 	mcreq	9, 0, r1, cr3, cr15, {1}
    1578:	0b3b0b3a 	bleq	ec4268 <__bss_end__+0xeb7840>
    157c:	193c1927 	ldmdbne	ip!, {r0, r1, r2, r5, r8, fp, ip}
    1580:	2e120000 	cdpcs	0, 1, cr0, cr2, cr0, {0}
    1584:	03193f01 	tsteq	r9, #1, 30
    1588:	3b0b3a0e 	blcc	2cfdc8 <__bss_end__+0x2c33a0>
    158c:	3c19270b 	ldccc	7, cr2, [r9], {11}
    1590:	13000019 	movwne	r0, #25
    1594:	13490005 	movtne	r0, #36869	; 0x9005
    1598:	01000000 	mrseq	r0, (UNDEF: 0)
    159c:	0e250111 	mcreq	1, 1, r0, cr5, cr1, {0}
    15a0:	0e030b13 	vmoveq.32	d3[0], r0
    15a4:	17550e1b 	smmlane	r5, fp, lr, r0
    15a8:	17100111 			; <UNDEFINED> instruction: 0x17100111
    15ac:	24020000 	strcs	r0, [r2], #-0
    15b0:	3e0b0b00 	vmlacc.f64	d0, d11, d0
    15b4:	0008030b 	andeq	r0, r8, fp, lsl #6
    15b8:	00240300 	eoreq	r0, r4, r0, lsl #6
    15bc:	0b3e0b0b 	bleq	f841f0 <__bss_end__+0xf777c8>
    15c0:	00000e03 	andeq	r0, r0, r3, lsl #28
    15c4:	3f012e04 	svccc	0x00012e04
    15c8:	3a0e0319 	bcc	382234 <__bss_end__+0x37580c>
    15cc:	270b3b0b 	strcs	r3, [fp, -fp, lsl #22]
    15d0:	11134919 	tstne	r3, r9, lsl r9
    15d4:	40061201 	andmi	r1, r6, r1, lsl #4
    15d8:	19429718 	stmdbne	r2, {r3, r4, r8, r9, sl, ip, pc}^
    15dc:	00001301 	andeq	r1, r0, r1, lsl #6
    15e0:	03003405 	movweq	r3, #1029	; 0x405
    15e4:	3b0b3a0e 	blcc	2cfe24 <__bss_end__+0x2c33fc>
    15e8:	0213490b 	andseq	r4, r3, #180224	; 0x2c000
    15ec:	06000017 			; <UNDEFINED> instruction: 0x06000017
    15f0:	193f012e 	ldmdbne	pc!, {r1, r2, r3, r5, r8}	; <UNPREDICTABLE>
    15f4:	0b3a0e03 	bleq	e84e08 <__bss_end__+0xe783e0>
    15f8:	19270b3b 	stmdbne	r7!, {r0, r1, r3, r4, r5, r8, r9, fp}
    15fc:	06120111 			; <UNDEFINED> instruction: 0x06120111
    1600:	42971840 	addsmi	r1, r7, #64, 16	; 0x400000
    1604:	00130119 	andseq	r0, r3, r9, lsl r1
    1608:	00340700 	eorseq	r0, r4, r0, lsl #14
    160c:	0b3a0e03 	bleq	e84e20 <__bss_end__+0xe783f8>
    1610:	13490b3b 	movtne	r0, #39739	; 0x9b3b
    1614:	0000061c 	andeq	r0, r0, ip, lsl r6
    1618:	03003408 	movweq	r3, #1032	; 0x408
    161c:	3b0b3a0e 	blcc	2cfe5c <__bss_end__+0x2c3434>
    1620:	1c13490b 	ldcne	9, cr4, [r3], {11}
    1624:	0900000b 	stmdbeq	r0, {r0, r1, r3}
    1628:	00018289 	andeq	r8, r1, r9, lsl #5
    162c:	13310111 	teqne	r1, #1073741828	; 0x40000004
    1630:	890a0000 	stmdbhi	sl, {}	; <UNPREDICTABLE>
    1634:	11010182 	smlabbne	r1, r2, r1, r0
    1638:	01133101 	tsteq	r3, r1, lsl #2
    163c:	0b000013 	bleq	1690 <__code_start__-0x6970>
    1640:	0001828a 	andeq	r8, r1, sl, lsl #5
    1644:	42911802 	addsmi	r1, r1, #131072	; 0x20000
    1648:	0c000018 	stceq	0, cr0, [r0], {24}
    164c:	01018289 	smlabbeq	r1, r9, r2, r8
    1650:	13310111 	teqne	r1, #1073741828	; 0x40000004
    1654:	260d0000 	strcs	r0, [sp], -r0
    1658:	00134900 	andseq	r4, r3, r0, lsl #18
    165c:	012e0e00 	teqeq	lr, r0, lsl #28
    1660:	0e03193f 	mcreq	9, 0, r1, cr3, cr15, {1}
    1664:	0b3b0b3a 	bleq	ec4354 <__bss_end__+0xeb792c>
    1668:	193c1927 	ldmdbne	ip!, {r0, r1, r2, r5, r8, fp, ip}
    166c:	00001301 	andeq	r1, r0, r1, lsl #6
    1670:	4900050f 	stmdbmi	r0, {r0, r1, r2, r3, r8, sl}
    1674:	10000013 	andne	r0, r0, r3, lsl r0
    1678:	193f012e 	ldmdbne	pc!, {r1, r2, r3, r5, r8}	; <UNPREDICTABLE>
    167c:	0b3a0e03 	bleq	e84e90 <__bss_end__+0xe78468>
    1680:	19270b3b 	stmdbne	r7!, {r0, r1, r3, r4, r5, r8, r9, fp}
    1684:	0000193c 	andeq	r1, r0, ip, lsr r9
    1688:	01110100 	tsteq	r1, r0, lsl #2
    168c:	0b130e25 	bleq	4c4f28 <__bss_end__+0x4b8500>
    1690:	0e1b0e03 	cdpeq	14, 1, cr0, cr11, cr3, {0}
    1694:	06120111 			; <UNDEFINED> instruction: 0x06120111
    1698:	00001710 	andeq	r1, r0, r0, lsl r7
    169c:	0b002402 	bleq	a6ac <emit+0xd4>
    16a0:	030b3e0b 	movweq	r3, #48651	; 0xbe0b
    16a4:	03000008 	movweq	r0, #8
    16a8:	0b0b0024 	bleq	2c1740 <__bss_end__+0x2b4d18>
    16ac:	0e030b3e 	vmoveq.16	d3[0], r0
    16b0:	2e040000 	cdpcs	0, 0, cr0, cr4, cr0, {0}
    16b4:	03193f01 	tsteq	r9, #1, 30
    16b8:	3b0b3a0e 	blcc	2cfef8 <__bss_end__+0x2c34d0>
    16bc:	1119270b 	tstne	r9, fp, lsl #14
    16c0:	40061201 	andmi	r1, r6, r1, lsl #4
    16c4:	19429718 	stmdbne	r2, {r3, r4, r8, r9, sl, ip, pc}^
    16c8:	00001301 	andeq	r1, r0, r1, lsl #6
    16cc:	03000505 	movweq	r0, #1285	; 0x505
    16d0:	3b0b3a0e 	blcc	2cff10 <__bss_end__+0x2c34e8>
    16d4:	0213490b 	andseq	r4, r3, #180224	; 0x2c000
    16d8:	06000017 			; <UNDEFINED> instruction: 0x06000017
    16dc:	193f012e 	ldmdbne	pc!, {r1, r2, r3, r5, r8}	; <UNPREDICTABLE>
    16e0:	0b3a0e03 	bleq	e84ef4 <__bss_end__+0xe784cc>
    16e4:	19270b3b 	stmdbne	r7!, {r0, r1, r3, r4, r5, r8, r9, fp}
    16e8:	01111349 	tsteq	r1, r9, asr #6
    16ec:	18400612 	stmdane	r0, {r1, r4, r9, sl}^
    16f0:	01194297 			; <UNDEFINED> instruction: 0x01194297
    16f4:	07000013 	smladeq	r0, r3, r0, r0
    16f8:	01018289 	smlabbeq	r1, r9, r2, r8
    16fc:	13310111 	teqne	r1, #1073741828	; 0x40000004
    1700:	8a080000 	bhi	201708 <__bss_end__+0x1f4ce0>
    1704:	02000182 	andeq	r0, r0, #-2147483616	; 0x80000020
    1708:	18429118 	stmdane	r2, {r3, r4, r8, ip, pc}^
    170c:	34090000 	strcc	r0, [r9], #-0
    1710:	3a080300 	bcc	202318 <__bss_end__+0x1f58f0>
    1714:	490b3b0b 	stmdbmi	fp, {r0, r1, r3, r8, r9, fp, ip, sp}
    1718:	00170213 	andseq	r0, r7, r3, lsl r2
    171c:	82890a00 	addhi	r0, r9, #0, 20
    1720:	01110001 	tsteq	r1, r1
    1724:	00001331 	andeq	r1, r0, r1, lsr r3
    1728:	0300050b 	movweq	r0, #1291	; 0x50b
    172c:	3b0b3a08 	blcc	2cff54 <__bss_end__+0x2c352c>
    1730:	0213490b 	andseq	r4, r3, #180224	; 0x2c000
    1734:	0c000017 	stceq	0, cr0, [r0], {23}
    1738:	08030034 	stmdaeq	r3, {r2, r4, r5}
    173c:	0b3b0b3a 	bleq	ec442c <__bss_end__+0xeb7a04>
    1740:	18021349 	stmdane	r2, {r0, r3, r6, r8, r9, ip}
    1744:	0b0d0000 	bleq	34174c <__bss_end__+0x334d24>
    1748:	12011101 	andne	r1, r1, #1073741824	; 0x40000000
    174c:	00130106 	andseq	r0, r3, r6, lsl #2
    1750:	012e0e00 	teqeq	lr, r0, lsl #28
    1754:	0e03193f 	mcreq	9, 0, r1, cr3, cr15, {1}
    1758:	0b3b0b3a 	bleq	ec4448 <__bss_end__+0xeb7a20>
    175c:	13491927 	movtne	r1, #39207	; 0x9927
    1760:	1301193c 	movwne	r1, #6460	; 0x193c
    1764:	050f0000 	streq	r0, [pc, #-0]	; 176c <__code_start__-0x6894>
    1768:	00134900 	andseq	r4, r3, r0, lsl #18
    176c:	002e1000 	eoreq	r1, lr, r0
    1770:	0e03193f 	mcreq	9, 0, r1, cr3, cr15, {1}
    1774:	0b3b0b3a 	bleq	ec4464 <__bss_end__+0xeb7a3c>
    1778:	193c1927 	ldmdbne	ip!, {r0, r1, r2, r5, r8, fp, ip}
    177c:	01000000 	mrseq	r0, (UNDEF: 0)
    1780:	0e250111 	mcreq	1, 1, r0, cr5, cr1, {0}
    1784:	0e030b13 	vmoveq.32	d3[0], r0
    1788:	01110e1b 	tsteq	r1, fp, lsl lr
    178c:	17100612 			; <UNDEFINED> instruction: 0x17100612
    1790:	24020000 	strcs	r0, [r2], #-0
    1794:	3e0b0b00 	vmlacc.f64	d0, d11, d0
    1798:	0008030b 	andeq	r0, r8, fp, lsl #6
    179c:	00240300 	eoreq	r0, r4, r0, lsl #6
    17a0:	0b3e0b0b 	bleq	f843d4 <__bss_end__+0xf779ac>
    17a4:	00000e03 	andeq	r0, r0, r3, lsl #28
    17a8:	49003504 	stmdbmi	r0, {r2, r8, sl, ip, sp}
    17ac:	05000013 	streq	r0, [r0, #-19]
    17b0:	0e030016 	mcreq	0, 0, r0, cr3, cr6, {0}
    17b4:	0b3b0b3a 	bleq	ec44a4 <__bss_end__+0xeb7a7c>
    17b8:	00001349 	andeq	r1, r0, r9, asr #6
    17bc:	03001606 	movweq	r1, #1542	; 0x606
    17c0:	3b0b3a0e 	blcc	2d0000 <__bss_end__+0x2c35d8>
    17c4:	00134905 	andseq	r4, r3, r5, lsl #18
    17c8:	01170700 	tsteq	r7, r0, lsl #14
    17cc:	0b3a0b0b 	bleq	e84400 <__bss_end__+0xe779d8>
    17d0:	13010b3b 	movwne	r0, #6971	; 0x1b3b
    17d4:	0d080000 	stceq	0, cr0, [r8, #-0]
    17d8:	3a0e0300 	bcc	3823e0 <__bss_end__+0x3759b8>
    17dc:	490b3b0b 	stmdbmi	fp, {r0, r1, r3, r8, r9, fp, ip, sp}
    17e0:	09000013 	stmdbeq	r0, {r0, r1, r4}
    17e4:	13490101 	movtne	r0, #37121	; 0x9101
    17e8:	00001301 	andeq	r1, r0, r1, lsl #6
    17ec:	4900210a 	stmdbmi	r0, {r1, r3, r8, sp}
    17f0:	000b2f13 	andeq	r2, fp, r3, lsl pc
    17f4:	01130b00 	tsteq	r3, r0, lsl #22
    17f8:	0b3a0b0b 	bleq	e8442c <__bss_end__+0xe77a04>
    17fc:	13010b3b 	movwne	r0, #6971	; 0x1b3b
    1800:	0d0c0000 	stceq	0, cr0, [ip, #-0]
    1804:	3a0e0300 	bcc	38240c <__bss_end__+0x3759e4>
    1808:	490b3b0b 	stmdbmi	fp, {r0, r1, r3, r8, r9, fp, ip, sp}
    180c:	000b3813 	andeq	r3, fp, r3, lsl r8
    1810:	000f0d00 	andeq	r0, pc, r0, lsl #26
    1814:	00000b0b 	andeq	r0, r0, fp, lsl #22
    1818:	0b000f0e 	bleq	5458 <__code_start__-0x2ba8>
    181c:	0013490b 	andseq	r4, r3, fp, lsl #18
    1820:	00260f00 	eoreq	r0, r6, r0, lsl #30
    1824:	00001349 	andeq	r1, r0, r9, asr #6
    1828:	03011310 	movweq	r1, #4880	; 0x1310
    182c:	3a0b0b0e 	bcc	2c446c <__bss_end__+0x2b7a44>
    1830:	010b3b0b 	tsteq	fp, fp, lsl #22
    1834:	11000013 	tstne	r0, r3, lsl r0
    1838:	0803000d 	stmdaeq	r3, {r0, r2, r3}
    183c:	0b3b0b3a 	bleq	ec452c <__bss_end__+0xeb7b04>
    1840:	0b381349 	bleq	e0656c <__bss_end__+0xdf9b44>
    1844:	13120000 	tstne	r2, #0
    1848:	0b0e0301 	bleq	382454 <__bss_end__+0x375a2c>
    184c:	3b0b3a05 	blcc	2d0068 <__bss_end__+0x2c3640>
    1850:	0013010b 	andseq	r0, r3, fp, lsl #2
    1854:	000d1300 	andeq	r1, sp, r0, lsl #6
    1858:	0b3a0e03 	bleq	e8506c <__bss_end__+0xe78644>
    185c:	13490b3b 	movtne	r0, #39739	; 0x9b3b
    1860:	00000538 	andeq	r0, r0, r8, lsr r5
    1864:	27001514 	smladcs	r0, r4, r5, r1
    1868:	15000019 	strne	r0, [r0, #-25]
    186c:	19270115 	stmdbne	r7!, {r0, r2, r4, r8}
    1870:	13011349 	movwne	r1, #4937	; 0x1349
    1874:	05160000 	ldreq	r0, [r6, #-0]
    1878:	00134900 	andseq	r4, r3, r0, lsl #18
    187c:	01131700 	tsteq	r3, r0, lsl #14
    1880:	050b0e03 	streq	r0, [fp, #-3587]	; 0xe03
    1884:	053b0b3a 	ldreq	r0, [fp, #-2874]!	; 0xb3a
    1888:	00001301 	andeq	r1, r0, r1, lsl #6
    188c:	03000d18 	movweq	r0, #3352	; 0xd18
    1890:	3b0b3a0e 	blcc	2d00d0 <__bss_end__+0x2c36a8>
    1894:	38134905 	ldmdacc	r3, {r0, r2, r8, fp, lr}
    1898:	1900000b 	stmdbne	r0, {r0, r1, r3}
    189c:	0e03000d 	cdpeq	0, 0, cr0, cr3, cr13, {0}
    18a0:	053b0b3a 	ldreq	r0, [fp, #-2874]!	; 0xb3a
    18a4:	05381349 	ldreq	r1, [r8, #-841]!	; 0x349
    18a8:	131a0000 	tstne	sl, #0
    18ac:	0b0e0301 	bleq	3824b8 <__bss_end__+0x375a90>
    18b0:	3b0b3a0b 	blcc	2d00e4 <__bss_end__+0x2c36bc>
    18b4:	00130105 	andseq	r0, r3, r5, lsl #2
    18b8:	01131b00 	tsteq	r3, r0, lsl #22
    18bc:	0b3a0b0b 	bleq	e844f0 <__bss_end__+0xe77ac8>
    18c0:	1301053b 	movwne	r0, #5435	; 0x153b
    18c4:	171c0000 	ldrne	r0, [ip, -r0]
    18c8:	3a0b0b01 	bcc	2c44d4 <__bss_end__+0x2b7aac>
    18cc:	01053b0b 	tsteq	r5, fp, lsl #22
    18d0:	1d000013 	stcne	0, cr0, [r0, #-76]	; 0xffffffb4
    18d4:	0e03000d 	cdpeq	0, 0, cr0, cr3, cr13, {0}
    18d8:	053b0b3a 	ldreq	r0, [fp, #-2874]!	; 0xb3a
    18dc:	00001349 	andeq	r1, r0, r9, asr #6
    18e0:	2701151e 	smladcs	r1, lr, r5, r1
    18e4:	00130119 	andseq	r0, r3, r9, lsl r1
    18e8:	00341f00 	eorseq	r1, r4, r0, lsl #30
    18ec:	0b3a0e03 	bleq	e85100 <__bss_end__+0xe786d8>
    18f0:	1349053b 	movtne	r0, #38203	; 0x953b
    18f4:	193c193f 	ldmdbne	ip!, {r0, r1, r2, r3, r4, r5, r8, fp, ip}
    18f8:	34200000 	strtcc	r0, [r0], #-0
    18fc:	3a0e0300 	bcc	382504 <__bss_end__+0x375adc>
    1900:	490b3b0b 	stmdbmi	fp, {r0, r1, r3, r8, r9, fp, ip, sp}
    1904:	3c193f13 	ldccc	15, cr3, [r9], {19}
    1908:	21000019 	tstcs	r0, r9, lsl r0
    190c:	0b0b0104 	bleq	2c1d24 <__bss_end__+0x2b52fc>
    1910:	0b3a1349 	bleq	e8663c <__bss_end__+0xe79c14>
    1914:	13010b3b 	movwne	r0, #6971	; 0x1b3b
    1918:	28220000 	stmdacs	r2!, {}	; <UNPREDICTABLE>
    191c:	1c0e0300 	stcne	3, cr0, [lr], {-0}
    1920:	2300000b 	movwcs	r0, #11
    1924:	0e030034 	mcreq	0, 0, r0, cr3, cr4, {1}
    1928:	0b3b0b3a 	bleq	ec4618 <__bss_end__+0xeb7bf0>
    192c:	061c1349 	ldreq	r1, [ip], -r9, asr #6
    1930:	2e240000 	cdpcs	0, 2, cr0, cr4, cr0, {0}
    1934:	03193f01 	tsteq	r9, #1, 30
    1938:	3b0b3a0e 	blcc	2d0178 <__bss_end__+0x2c3750>
    193c:	4919270b 	ldmdbmi	r9, {r0, r1, r3, r8, r9, sl, sp}
    1940:	12011113 	andne	r1, r1, #-1073741820	; 0xc0000004
    1944:	97184006 	ldrls	r4, [r8, -r6]
    1948:	13011942 	movwne	r1, #6466	; 0x1942
    194c:	89250000 	stmdbhi	r5!, {}	; <UNPREDICTABLE>
    1950:	11000182 	smlabbne	r0, r2, r1, r0
    1954:	00133101 	andseq	r3, r3, r1, lsl #2
    1958:	012e2600 	teqeq	lr, r0, lsl #12
    195c:	0e03193f 	mcreq	9, 0, r1, cr3, cr15, {1}
    1960:	0b3b0b3a 	bleq	ec4650 <__bss_end__+0xeb7c28>
    1964:	01111927 	tsteq	r1, r7, lsr #18
    1968:	18400612 	stmdane	r0, {r1, r4, r9, sl}^
    196c:	01194297 			; <UNDEFINED> instruction: 0x01194297
    1970:	27000013 	smladcs	r0, r3, r0, r0
    1974:	08030005 	stmdaeq	r3, {r0, r2}
    1978:	0b3b0b3a 	bleq	ec4668 <__bss_end__+0xeb7c40>
    197c:	17021349 	strne	r1, [r2, -r9, asr #6]
    1980:	89280000 	stmdbhi	r8!, {}	; <UNPREDICTABLE>
    1984:	11010182 	smlabbne	r1, r2, r1, r0
    1988:	01133101 	tsteq	r3, r1, lsl #2
    198c:	29000013 	stmdbcs	r0, {r0, r1, r4}
    1990:	0001828a 	andeq	r8, r1, sl, lsl #5
    1994:	42911802 	addsmi	r1, r1, #131072	; 0x20000
    1998:	2a000018 	bcs	1a00 <__code_start__-0x6600>
    199c:	08030034 	stmdaeq	r3, {r2, r4, r5}
    19a0:	0b3b0b3a 	bleq	ec4690 <__bss_end__+0xeb7c68>
    19a4:	18021349 	stmdane	r2, {r0, r3, r6, r8, r9, ip}
    19a8:	892b0000 	stmdbhi	fp!, {}	; <UNPREDICTABLE>
    19ac:	11010182 	smlabbne	r1, r2, r1, r0
    19b0:	00133101 	andseq	r3, r3, r1, lsl #2
    19b4:	012e2c00 	teqeq	lr, r0, lsl #24
    19b8:	0b3a0e03 	bleq	e851cc <__bss_end__+0xe787a4>
    19bc:	19270b3b 	stmdbne	r7!, {r0, r1, r3, r4, r5, r8, r9, fp}
    19c0:	06120111 			; <UNDEFINED> instruction: 0x06120111
    19c4:	42971840 	addsmi	r1, r7, #64, 16	; 0x400000
    19c8:	00130119 	andseq	r0, r3, r9, lsl r1
    19cc:	00052d00 	andeq	r2, r5, r0, lsl #26
    19d0:	0b3a0e03 	bleq	e851e4 <__bss_end__+0xe787bc>
    19d4:	13490b3b 	movtne	r0, #39739	; 0x9b3b
    19d8:	00001702 	andeq	r1, r0, r2, lsl #14
    19dc:	0000352e 	andeq	r3, r0, lr, lsr #10
    19e0:	002e2f00 	eoreq	r2, lr, r0, lsl #30
    19e4:	193c193f 	ldmdbne	ip!, {r0, r1, r2, r3, r4, r5, r8, fp, ip}
    19e8:	0e030e6e 	cdpeq	14, 0, cr0, cr3, cr14, {3}
    19ec:	0b3b0b3a 	bleq	ec46dc <__bss_end__+0xeb7cb4>
    19f0:	01000000 	mrseq	r0, (UNDEF: 0)
    19f4:	0e250111 	mcreq	1, 1, r0, cr5, cr1, {0}
    19f8:	0e030b13 	vmoveq.32	d3[0], r0
    19fc:	01110e1b 	tsteq	r1, fp, lsl lr
    1a00:	17100612 			; <UNDEFINED> instruction: 0x17100612
    1a04:	24020000 	strcs	r0, [r2], #-0
    1a08:	3e0b0b00 	vmlacc.f64	d0, d11, d0
    1a0c:	0008030b 	andeq	r0, r8, fp, lsl #6
    1a10:	00240300 	eoreq	r0, r4, r0, lsl #6
    1a14:	0b3e0b0b 	bleq	f84648 <__bss_end__+0xf77c20>
    1a18:	00000e03 	andeq	r0, r0, r3, lsl #28
    1a1c:	49002604 	stmdbmi	r0, {r2, r9, sl, sp}
    1a20:	05000013 	streq	r0, [r0, #-19]
    1a24:	0e030016 	mcreq	0, 0, r0, cr3, cr6, {0}
    1a28:	0b3b0b3a 	bleq	ec4718 <__bss_end__+0xeb7cf0>
    1a2c:	00001349 	andeq	r1, r0, r9, asr #6
    1a30:	03001606 	movweq	r1, #1542	; 0x606
    1a34:	3b0b3a0e 	blcc	2d0274 <__bss_end__+0x2c384c>
    1a38:	00134905 	andseq	r4, r3, r5, lsl #18
    1a3c:	01170700 	tsteq	r7, r0, lsl #14
    1a40:	0b3a0b0b 	bleq	e84674 <__bss_end__+0xe77c4c>
    1a44:	13010b3b 	movwne	r0, #6971	; 0x1b3b
    1a48:	0d080000 	stceq	0, cr0, [r8, #-0]
    1a4c:	3a0e0300 	bcc	382654 <__bss_end__+0x375c2c>
    1a50:	490b3b0b 	stmdbmi	fp, {r0, r1, r3, r8, r9, fp, ip, sp}
    1a54:	09000013 	stmdbeq	r0, {r0, r1, r4}
    1a58:	13490101 	movtne	r0, #37121	; 0x9101
    1a5c:	00001301 	andeq	r1, r0, r1, lsl #6
    1a60:	4900210a 	stmdbmi	r0, {r1, r3, r8, sp}
    1a64:	000b2f13 	andeq	r2, fp, r3, lsl pc
    1a68:	01130b00 	tsteq	r3, r0, lsl #22
    1a6c:	0b3a0b0b 	bleq	e846a0 <__bss_end__+0xe77c78>
    1a70:	13010b3b 	movwne	r0, #6971	; 0x1b3b
    1a74:	0d0c0000 	stceq	0, cr0, [ip, #-0]
    1a78:	3a0e0300 	bcc	382680 <__bss_end__+0x375c58>
    1a7c:	490b3b0b 	stmdbmi	fp, {r0, r1, r3, r8, r9, fp, ip, sp}
    1a80:	000b3813 	andeq	r3, fp, r3, lsl r8
    1a84:	000f0d00 	andeq	r0, pc, r0, lsl #26
    1a88:	00000b0b 	andeq	r0, r0, fp, lsl #22
    1a8c:	0b000f0e 	bleq	56cc <__code_start__-0x2934>
    1a90:	0013490b 	andseq	r4, r3, fp, lsl #18
    1a94:	01130f00 	tsteq	r3, r0, lsl #30
    1a98:	0b0b0e03 	bleq	2c52ac <__bss_end__+0x2b8884>
    1a9c:	0b3b0b3a 	bleq	ec478c <__bss_end__+0xeb7d64>
    1aa0:	00001301 	andeq	r1, r0, r1, lsl #6
    1aa4:	03000d10 	movweq	r0, #3344	; 0xd10
    1aa8:	3b0b3a08 	blcc	2d02d0 <__bss_end__+0x2c38a8>
    1aac:	3813490b 	ldmdacc	r3, {r0, r1, r3, r8, fp, lr}
    1ab0:	1100000b 	tstne	r0, fp
    1ab4:	0e030113 	mcreq	1, 0, r0, cr3, cr3, {0}
    1ab8:	0b3a050b 	bleq	e82eec <__bss_end__+0xe764c4>
    1abc:	13010b3b 	movwne	r0, #6971	; 0x1b3b
    1ac0:	0d120000 	ldceq	0, cr0, [r2, #-0]
    1ac4:	3a0e0300 	bcc	3826cc <__bss_end__+0x375ca4>
    1ac8:	490b3b0b 	stmdbmi	fp, {r0, r1, r3, r8, r9, fp, ip, sp}
    1acc:	00053813 	andeq	r3, r5, r3, lsl r8
    1ad0:	00151300 	andseq	r1, r5, r0, lsl #6
    1ad4:	00001927 	andeq	r1, r0, r7, lsr #18
    1ad8:	27011514 	smladcs	r1, r4, r5, r1
    1adc:	01134919 	tsteq	r3, r9, lsl r9
    1ae0:	15000013 	strne	r0, [r0, #-19]
    1ae4:	13490005 	movtne	r0, #36869	; 0x9005
    1ae8:	13160000 	tstne	r6, #0
    1aec:	0b0e0301 	bleq	3826f8 <__bss_end__+0x375cd0>
    1af0:	3b0b3a05 	blcc	2d030c <__bss_end__+0x2c38e4>
    1af4:	00130105 	andseq	r0, r3, r5, lsl #2
    1af8:	000d1700 	andeq	r1, sp, r0, lsl #14
    1afc:	0b3a0e03 	bleq	e85310 <__bss_end__+0xe788e8>
    1b00:	1349053b 	movtne	r0, #38203	; 0x953b
    1b04:	00000b38 	andeq	r0, r0, r8, lsr fp
    1b08:	03000d18 	movweq	r0, #3352	; 0xd18
    1b0c:	3b0b3a0e 	blcc	2d034c <__bss_end__+0x2c3924>
    1b10:	38134905 	ldmdacc	r3, {r0, r2, r8, fp, lr}
    1b14:	19000005 	stmdbne	r0, {r0, r2}
    1b18:	0e030113 	mcreq	1, 0, r0, cr3, cr3, {0}
    1b1c:	0b3a0b0b 	bleq	e84750 <__bss_end__+0xe77d28>
    1b20:	1301053b 	movwne	r0, #5435	; 0x153b
    1b24:	131a0000 	tstne	sl, #0
    1b28:	3a0b0b01 	bcc	2c4734 <__bss_end__+0x2b7d0c>
    1b2c:	01053b0b 	tsteq	r5, fp, lsl #22
    1b30:	1b000013 	blne	1b84 <__code_start__-0x647c>
    1b34:	0b0b0117 	bleq	2c1f98 <__bss_end__+0x2b5570>
    1b38:	053b0b3a 	ldreq	r0, [fp, #-2874]!	; 0xb3a
    1b3c:	00001301 	andeq	r1, r0, r1, lsl #6
    1b40:	03000d1c 	movweq	r0, #3356	; 0xd1c
    1b44:	3b0b3a0e 	blcc	2d0384 <__bss_end__+0x2c395c>
    1b48:	00134905 	andseq	r4, r3, r5, lsl #18
    1b4c:	01151d00 	tsteq	r5, r0, lsl #26
    1b50:	13011927 	movwne	r1, #6439	; 0x1927
    1b54:	341e0000 	ldrcc	r0, [lr], #-0
    1b58:	3a0e0300 	bcc	382760 <__bss_end__+0x375d38>
    1b5c:	49053b0b 	stmdbmi	r5, {r0, r1, r3, r8, r9, fp, ip, sp}
    1b60:	3c193f13 	ldccc	15, cr3, [r9], {19}
    1b64:	1f000019 	svcne	0x00000019
    1b68:	0e030034 	mcreq	0, 0, r0, cr3, cr4, {1}
    1b6c:	0b3b0b3a 	bleq	ec485c <__bss_end__+0xeb7e34>
    1b70:	193f1349 	ldmdbne	pc!, {r0, r3, r6, r8, r9, ip}	; <UNPREDICTABLE>
    1b74:	0000193c 	andeq	r1, r0, ip, lsr r9
    1b78:	0b010420 	bleq	42c00 <__bss_end__+0x361d8>
    1b7c:	3a13490b 	bcc	4d3fb0 <__bss_end__+0x4c7588>
    1b80:	010b3b0b 	tsteq	fp, fp, lsl #22
    1b84:	21000013 	tstcs	r0, r3, lsl r0
    1b88:	0e030028 	cdpeq	0, 0, cr0, cr3, cr8, {1}
    1b8c:	00000b1c 	andeq	r0, r0, ip, lsl fp
    1b90:	03003422 	movweq	r3, #1058	; 0x422
    1b94:	3b0b3a0e 	blcc	2d03d4 <__bss_end__+0x2c39ac>
    1b98:	1c13490b 	ldcne	9, cr4, [r3], {11}
    1b9c:	23000006 	movwcs	r0, #6
    1ba0:	193f012e 	ldmdbne	pc!, {r1, r2, r3, r5, r8}	; <UNPREDICTABLE>
    1ba4:	0b3a0e03 	bleq	e853b8 <__bss_end__+0xe78990>
    1ba8:	19270b3b 	stmdbne	r7!, {r0, r1, r3, r4, r5, r8, r9, fp}
    1bac:	01111349 	tsteq	r1, r9, asr #6
    1bb0:	18400612 	stmdane	r0, {r1, r4, r9, sl}^
    1bb4:	01194297 			; <UNDEFINED> instruction: 0x01194297
    1bb8:	24000013 	strcs	r0, [r0], #-19
    1bbc:	08030005 	stmdaeq	r3, {r0, r2}
    1bc0:	0b3b0b3a 	bleq	ec48b0 <__bss_end__+0xeb7e88>
    1bc4:	17021349 	strne	r1, [r2, -r9, asr #6]
    1bc8:	34250000 	strtcc	r0, [r5], #-0
    1bcc:	3a0e0300 	bcc	3827d4 <__bss_end__+0x375dac>
    1bd0:	490b3b0b 	stmdbmi	fp, {r0, r1, r3, r8, r9, fp, ip, sp}
    1bd4:	00170213 	andseq	r0, r7, r3, lsl r2
    1bd8:	00342600 	eorseq	r2, r4, r0, lsl #12
    1bdc:	0b3a0803 	bleq	e83bf0 <__bss_end__+0xe771c8>
    1be0:	13490b3b 	movtne	r0, #39739	; 0x9b3b
    1be4:	00001702 	andeq	r1, r0, r2, lsl #14
    1be8:	01828927 	orreq	r8, r2, r7, lsr #18
    1bec:	31011101 	tstcc	r1, r1, lsl #2
    1bf0:	28000013 	stmdacs	r0, {r0, r1, r4}
    1bf4:	0001828a 	andeq	r8, r1, sl, lsl #5
    1bf8:	42911802 	addsmi	r1, r1, #131072	; 0x20000
    1bfc:	29000018 	stmdbcs	r0, {r3, r4}
    1c00:	193f012e 	ldmdbne	pc!, {r1, r2, r3, r5, r8}	; <UNPREDICTABLE>
    1c04:	0b3a0e03 	bleq	e85418 <__bss_end__+0xe789f0>
    1c08:	19270b3b 	stmdbne	r7!, {r0, r1, r3, r4, r5, r8, r9, fp}
    1c0c:	06120111 			; <UNDEFINED> instruction: 0x06120111
    1c10:	42971840 	addsmi	r1, r7, #64, 16	; 0x400000
    1c14:	00130119 	andseq	r0, r3, r9, lsl r1
    1c18:	82892a00 	addhi	r2, r9, #0, 20
    1c1c:	01110101 	tsteq	r1, r1, lsl #2
    1c20:	13011331 	movwne	r1, #4913	; 0x1331
    1c24:	892b0000 	stmdbhi	fp!, {}	; <UNPREDICTABLE>
    1c28:	11000182 	smlabbne	r0, r2, r1, r0
    1c2c:	00133101 	andseq	r3, r3, r1, lsl #2
    1c30:	00052c00 	andeq	r2, r5, r0, lsl #24
    1c34:	0b3a0e03 	bleq	e85448 <__bss_end__+0xe78a20>
    1c38:	13490b3b 	movtne	r0, #39739	; 0x9b3b
    1c3c:	00001702 	andeq	r1, r0, r2, lsl #14
    1c40:	0300342d 	movweq	r3, #1069	; 0x42d
    1c44:	3b0b3a08 	blcc	2d046c <__bss_end__+0x2c3a44>
    1c48:	0213490b 	andseq	r4, r3, #180224	; 0x2c000
    1c4c:	2e000018 	mcrcs	0, 0, r0, cr0, cr8, {0}
    1c50:	193f002e 	ldmdbne	pc!, {r1, r2, r3, r5}	; <UNPREDICTABLE>
    1c54:	0e6e193c 	mcreq	9, 3, r1, cr14, cr12, {1}
    1c58:	0b3a0e03 	bleq	e8546c <__bss_end__+0xe78a44>
    1c5c:	00000b3b 	andeq	r0, r0, fp, lsr fp
    1c60:	01110100 	tsteq	r1, r0, lsl #2
    1c64:	0b130e25 	bleq	4c5500 <__bss_end__+0x4b8ad8>
    1c68:	0e1b0e03 	cdpeq	14, 1, cr0, cr11, cr3, {0}
    1c6c:	06120111 			; <UNDEFINED> instruction: 0x06120111
    1c70:	00001710 	andeq	r1, r0, r0, lsl r7
    1c74:	0b002402 	bleq	ac84 <int_init+0x38>
    1c78:	030b3e0b 	movweq	r3, #48651	; 0xbe0b
    1c7c:	03000008 	movweq	r0, #8
    1c80:	0b0b0024 	bleq	2c1d18 <__bss_end__+0x2b52f0>
    1c84:	0e030b3e 	vmoveq.16	d3[0], r0
    1c88:	16040000 	strne	r0, [r4], -r0
    1c8c:	3a0e0300 	bcc	382894 <__bss_end__+0x375e6c>
    1c90:	490b3b0b 	stmdbmi	fp, {r0, r1, r3, r8, r9, fp, ip, sp}
    1c94:	05000013 	streq	r0, [r0, #-19]
    1c98:	0e030016 	mcreq	0, 0, r0, cr3, cr6, {0}
    1c9c:	053b0b3a 	ldreq	r0, [fp, #-2874]!	; 0xb3a
    1ca0:	00001349 	andeq	r1, r0, r9, asr #6
    1ca4:	0b011706 	bleq	478c4 <__bss_end__+0x3ae9c>
    1ca8:	3b0b3a0b 	blcc	2d04dc <__bss_end__+0x2c3ab4>
    1cac:	0013010b 	andseq	r0, r3, fp, lsl #2
    1cb0:	000d0700 	andeq	r0, sp, r0, lsl #14
    1cb4:	0b3a0e03 	bleq	e854c8 <__bss_end__+0xe78aa0>
    1cb8:	13490b3b 	movtne	r0, #39739	; 0x9b3b
    1cbc:	01080000 	mrseq	r0, (UNDEF: 8)
    1cc0:	01134901 	tsteq	r3, r1, lsl #18
    1cc4:	09000013 	stmdbeq	r0, {r0, r1, r4}
    1cc8:	13490021 	movtne	r0, #36897	; 0x9021
    1ccc:	00000b2f 	andeq	r0, r0, pc, lsr #22
    1cd0:	0b01130a 	bleq	46900 <__bss_end__+0x39ed8>
    1cd4:	3b0b3a0b 	blcc	2d0508 <__bss_end__+0x2c3ae0>
    1cd8:	0013010b 	andseq	r0, r3, fp, lsl #2
    1cdc:	000d0b00 	andeq	r0, sp, r0, lsl #22
    1ce0:	0b3a0e03 	bleq	e854f4 <__bss_end__+0xe78acc>
    1ce4:	13490b3b 	movtne	r0, #39739	; 0x9b3b
    1ce8:	00000b38 	andeq	r0, r0, r8, lsr fp
    1cec:	0b000f0c 	bleq	5924 <__code_start__-0x26dc>
    1cf0:	0d00000b 	stceq	0, cr0, [r0, #-44]	; 0xffffffd4
    1cf4:	0b0b000f 	bleq	2c1d38 <__bss_end__+0x2b5310>
    1cf8:	00001349 	andeq	r1, r0, r9, asr #6
    1cfc:	4900260e 	stmdbmi	r0, {r1, r2, r3, r9, sl, sp}
    1d00:	0f000013 	svceq	0x00000013
    1d04:	0e030113 	mcreq	1, 0, r0, cr3, cr3, {0}
    1d08:	0b3a0b0b 	bleq	e8493c <__bss_end__+0xe77f14>
    1d0c:	13010b3b 	movwne	r0, #6971	; 0x1b3b
    1d10:	0d100000 	ldceq	0, cr0, [r0, #-0]
    1d14:	3a080300 	bcc	20291c <__bss_end__+0x1f5ef4>
    1d18:	490b3b0b 	stmdbmi	fp, {r0, r1, r3, r8, r9, fp, ip, sp}
    1d1c:	000b3813 	andeq	r3, fp, r3, lsl r8
    1d20:	01131100 	tsteq	r3, r0, lsl #2
    1d24:	050b0e03 	streq	r0, [fp, #-3587]	; 0xe03
    1d28:	0b3b0b3a 	bleq	ec4a18 <__bss_end__+0xeb7ff0>
    1d2c:	00001301 	andeq	r1, r0, r1, lsl #6
    1d30:	03000d12 	movweq	r0, #3346	; 0xd12
    1d34:	3b0b3a0e 	blcc	2d0574 <__bss_end__+0x2c3b4c>
    1d38:	3813490b 	ldmdacc	r3, {r0, r1, r3, r8, fp, lr}
    1d3c:	13000005 	movwne	r0, #5
    1d40:	19270015 	stmdbne	r7!, {r0, r2, r4}
    1d44:	15140000 	ldrne	r0, [r4, #-0]
    1d48:	49192701 	ldmdbmi	r9, {r0, r8, r9, sl, sp}
    1d4c:	00130113 	andseq	r0, r3, r3, lsl r1
    1d50:	00051500 	andeq	r1, r5, r0, lsl #10
    1d54:	00001349 	andeq	r1, r0, r9, asr #6
    1d58:	03011316 	movweq	r1, #4886	; 0x1316
    1d5c:	3a050b0e 	bcc	14499c <__bss_end__+0x137f74>
    1d60:	01053b0b 	tsteq	r5, fp, lsl #22
    1d64:	17000013 	smladne	r0, r3, r0, r0
    1d68:	0e03000d 	cdpeq	0, 0, cr0, cr3, cr13, {0}
    1d6c:	053b0b3a 	ldreq	r0, [fp, #-2874]!	; 0xb3a
    1d70:	0b381349 	bleq	e06a9c <__bss_end__+0xdfa074>
    1d74:	0d180000 	ldceq	0, cr0, [r8, #-0]
    1d78:	3a0e0300 	bcc	382980 <__bss_end__+0x375f58>
    1d7c:	49053b0b 	stmdbmi	r5, {r0, r1, r3, r8, r9, fp, ip, sp}
    1d80:	00053813 	andeq	r3, r5, r3, lsl r8
    1d84:	01131900 	tsteq	r3, r0, lsl #18
    1d88:	0b0b0e03 	bleq	2c559c <__bss_end__+0x2b8b74>
    1d8c:	053b0b3a 	ldreq	r0, [fp, #-2874]!	; 0xb3a
    1d90:	00001301 	andeq	r1, r0, r1, lsl #6
    1d94:	0b01131a 	bleq	46a04 <__bss_end__+0x39fdc>
    1d98:	3b0b3a0b 	blcc	2d05cc <__bss_end__+0x2c3ba4>
    1d9c:	00130105 	andseq	r0, r3, r5, lsl #2
    1da0:	01171b00 	tsteq	r7, r0, lsl #22
    1da4:	0b3a0b0b 	bleq	e849d8 <__bss_end__+0xe77fb0>
    1da8:	1301053b 	movwne	r0, #5435	; 0x153b
    1dac:	0d1c0000 	ldceq	0, cr0, [ip, #-0]
    1db0:	3a0e0300 	bcc	3829b8 <__bss_end__+0x375f90>
    1db4:	49053b0b 	stmdbmi	r5, {r0, r1, r3, r8, r9, fp, ip, sp}
    1db8:	1d000013 	stcne	0, cr0, [r0, #-76]	; 0xffffffb4
    1dbc:	19270115 	stmdbne	r7!, {r0, r2, r4, r8}
    1dc0:	00001301 	andeq	r1, r0, r1, lsl #6
    1dc4:	0300341e 	movweq	r3, #1054	; 0x41e
    1dc8:	3b0b3a0e 	blcc	2d0608 <__bss_end__+0x2c3be0>
    1dcc:	3f134905 	svccc	0x00134905
    1dd0:	00193c19 	andseq	r3, r9, r9, lsl ip
    1dd4:	00341f00 	eorseq	r1, r4, r0, lsl #30
    1dd8:	0b3a0e03 	bleq	e855ec <__bss_end__+0xe78bc4>
    1ddc:	13490b3b 	movtne	r0, #39739	; 0x9b3b
    1de0:	193c193f 	ldmdbne	ip!, {r0, r1, r2, r3, r4, r5, r8, fp, ip}
    1de4:	34200000 	strtcc	r0, [r0], #-0
    1de8:	3a0e0300 	bcc	3829f0 <__bss_end__+0x375fc8>
    1dec:	490b3b0b 	stmdbmi	fp, {r0, r1, r3, r8, r9, fp, ip, sp}
    1df0:	00180213 	andseq	r0, r8, r3, lsl r2
    1df4:	012e2100 	teqeq	lr, r0, lsl #2
    1df8:	0e03193f 	mcreq	9, 0, r1, cr3, cr15, {1}
    1dfc:	0b3b0b3a 	bleq	ec4aec <__bss_end__+0xeb80c4>
    1e00:	01111927 	tsteq	r1, r7, lsr #18
    1e04:	18400612 	stmdane	r0, {r1, r4, r9, sl}^
    1e08:	01194297 			; <UNDEFINED> instruction: 0x01194297
    1e0c:	22000013 	andcs	r0, r0, #19
    1e10:	08030005 	stmdaeq	r3, {r0, r2}
    1e14:	0b3b0b3a 	bleq	ec4b04 <__bss_end__+0xeb80dc>
    1e18:	18021349 	stmdane	r2, {r0, r3, r6, r8, r9, ip}
    1e1c:	2e230000 	cdpcs	0, 2, cr0, cr3, cr0, {0}
    1e20:	03193f00 	tsteq	r9, #0, 30
    1e24:	3b0b3a0e 	blcc	2d0664 <__bss_end__+0x2c3c3c>
    1e28:	1119270b 	tstne	r9, fp, lsl #14
    1e2c:	40061201 	andmi	r1, r6, r1, lsl #4
    1e30:	19429718 	stmdbne	r2, {r3, r4, r8, r9, sl, ip, pc}^
    1e34:	2e240000 	cdpcs	0, 2, cr0, cr4, cr0, {0}
    1e38:	03193f01 	tsteq	r9, #1, 30
    1e3c:	3b0b3a0e 	blcc	2d067c <__bss_end__+0x2c3c54>
    1e40:	4919270b 	ldmdbmi	r9, {r0, r1, r3, r8, r9, sl, sp}
    1e44:	12011113 	andne	r1, r1, #-1073741820	; 0xc0000004
    1e48:	97184006 	ldrls	r4, [r8, -r6]
    1e4c:	13011942 	movwne	r1, #6466	; 0x1942
    1e50:	05250000 	streq	r0, [r5, #-0]!
    1e54:	3a0e0300 	bcc	382a5c <__bss_end__+0x376034>
    1e58:	490b3b0b 	stmdbmi	fp, {r0, r1, r3, r8, r9, fp, ip, sp}
    1e5c:	00170213 	andseq	r0, r7, r3, lsl r2
    1e60:	00342600 	eorseq	r2, r4, r0, lsl #12
    1e64:	13490e03 	movtne	r0, #40451	; 0x9e03
    1e68:	18021934 	stmdane	r2, {r2, r4, r5, r8, fp, ip}
    1e6c:	34270000 	strtcc	r0, [r7], #-0
    1e70:	3a080300 	bcc	202a78 <__bss_end__+0x1f6050>
    1e74:	490b3b0b 	stmdbmi	fp, {r0, r1, r3, r8, r9, fp, ip, sp}
    1e78:	00170213 	andseq	r0, r7, r3, lsl r2
    1e7c:	82892800 	addhi	r2, r9, #0, 16
    1e80:	01110101 	tsteq	r1, r1, lsl #2
    1e84:	13011331 	movwne	r1, #4913	; 0x1331
    1e88:	8a290000 	bhi	a41e90 <__bss_end__+0xa35468>
    1e8c:	02000182 	andeq	r0, r0, #-2147483616	; 0x80000020
    1e90:	18429118 	stmdane	r2, {r3, r4, r8, ip, pc}^
    1e94:	892a0000 	stmdbhi	sl!, {}	; <UNPREDICTABLE>
    1e98:	11000182 	smlabbne	r0, r2, r1, r0
    1e9c:	00133101 	andseq	r3, r3, r1, lsl #2
    1ea0:	00052b00 	andeq	r2, r5, r0, lsl #22
    1ea4:	0b3a0803 	bleq	e83eb8 <__bss_end__+0xe77490>
    1ea8:	13490b3b 	movtne	r0, #39739	; 0x9b3b
    1eac:	00001702 	andeq	r1, r0, r2, lsl #14
    1eb0:	0300342c 	movweq	r3, #1068	; 0x42c
    1eb4:	3b0b3a0e 	blcc	2d06f4 <__bss_end__+0x2c3ccc>
    1eb8:	0213490b 	andseq	r4, r3, #180224	; 0x2c000
    1ebc:	2d000017 	stccs	0, cr0, [r0, #-92]	; 0xffffffa4
    1ec0:	193f002e 	ldmdbne	pc!, {r1, r2, r3, r5}	; <UNPREDICTABLE>
    1ec4:	0b3a0e03 	bleq	e856d8 <__bss_end__+0xe78cb0>
    1ec8:	19270b3b 	stmdbne	r7!, {r0, r1, r3, r4, r5, r8, r9, fp}
    1ecc:	01111349 	tsteq	r1, r9, asr #6
    1ed0:	18400612 	stmdane	r0, {r1, r4, r9, sl}^
    1ed4:	00194297 	mulseq	r9, r7, r2
    1ed8:	002e2e00 	eoreq	r2, lr, r0, lsl #28
    1edc:	193c193f 	ldmdbne	ip!, {r0, r1, r2, r3, r4, r5, r8, fp, ip}
    1ee0:	0e030e6e 	cdpeq	14, 0, cr0, cr3, cr14, {3}
    1ee4:	0b3b0b3a 	bleq	ec4bd4 <__bss_end__+0xeb81ac>
    1ee8:	Address 0x0000000000001ee8 is out of bounds.


Disassembly of section .debug_loc:

00000000 <.debug_loc>:
       0:	00000000 	andeq	r0, r0, r0
       4:	00000033 	andeq	r0, r0, r3, lsr r0
       8:	33500001 	cmpcc	r0, #1
       c:	50000000 	andpl	r0, r0, r0
      10:	04000000 	streq	r0, [r0], #-0
      14:	5001f300 	andpl	pc, r1, r0, lsl #6
      18:	0000509f 	muleq	r0, pc, r0	; <UNPREDICTABLE>
      1c:	00005400 	andeq	r5, r0, r0, lsl #8
      20:	50000100 	andpl	r0, r0, r0, lsl #2
      24:	00000054 	andeq	r0, r0, r4, asr r0
      28:	00000068 	andeq	r0, r0, r8, rrx
      2c:	01f30004 	mvnseq	r0, r4
      30:	00009f50 	andeq	r9, r0, r0, asr pc
      34:	00000000 	andeq	r0, r0, r0
      38:	00080000 	andeq	r0, r8, r0
      3c:	00330000 	eorseq	r0, r3, r0
      40:	00010000 	andeq	r0, r1, r0
      44:	00003350 	andeq	r3, r0, r0, asr r3
      48:	00005000 	andeq	r5, r0, r0
      4c:	f3000400 	vshl.u8	d0, d0, d0
      50:	509f5001 	addspl	r5, pc, r1
      54:	54000000 	strpl	r0, [r0], #-0
      58:	01000000 	mrseq	r0, (UNDEF: 0)
      5c:	00545000 	subseq	r5, r4, r0
      60:	00680000 	rsbeq	r0, r8, r0
      64:	00040000 	andeq	r0, r4, r0
      68:	9f5001f3 	svcls	0x005001f3
	...
      74:	0000000c 	andeq	r0, r0, ip
      78:	0000005c 	andeq	r0, r0, ip, asr r0
      7c:	5c540001 	mrrcpl	0, 0, r0, r4, cr1
      80:	68000000 	stmdavs	r0, {}	; <UNPREDICTABLE>
      84:	01000000 	mrseq	r0, (UNDEF: 0)
      88:	00005000 	andeq	r5, r0, r0
      8c:	00000000 	andeq	r0, r0, r0
      90:	00780000 	rsbseq	r0, r8, r0
      94:	007c0000 	rsbseq	r0, ip, r0
      98:	00010000 	andeq	r0, r1, r0
      9c:	00007c50 	andeq	r7, r0, r0, asr ip
      a0:	0000bc00 	andeq	fp, r0, r0, lsl #24
      a4:	54000100 	strpl	r0, [r0], #-256	; 0x100
	...
      b0:	00000148 	andeq	r0, r0, r8, asr #2
      b4:	00000157 	andeq	r0, r0, r7, asr r1
      b8:	78500001 	ldmdavc	r0, {r0}^
      bc:	7c000001 	stcvc	0, cr0, [r0], {1}
      c0:	01000001 	tsteq	r0, r1
      c4:	00005000 	andeq	r5, r0, r0
      c8:	00000000 	andeq	r0, r0, r0
      cc:	01100000 	tsteq	r0, r0
      d0:	01130000 	tsteq	r3, r0
      d4:	00010000 	andeq	r0, r1, r0
      d8:	00000050 	andeq	r0, r0, r0, asr r0
      dc:	00000000 	andeq	r0, r0, r0
      e0:	00017c00 	andeq	r7, r1, r0, lsl #24
      e4:	00017f00 	andeq	r7, r1, r0, lsl #30
      e8:	50000100 	andpl	r0, r0, r0, lsl #2
	...
      f4:	00000010 	andeq	r0, r0, r0, lsl r0
      f8:	00000023 	andeq	r0, r0, r3, lsr #32
      fc:	23500001 	cmpcs	r0, #1
     100:	44000000 	strmi	r0, [r0], #-0
     104:	04000000 	streq	r0, [r0], #-0
     108:	5001f300 	andpl	pc, r1, r0, lsl #6
     10c:	0000449f 	muleq	r0, pc, r4	; <UNPREDICTABLE>
     110:	00005b00 	andeq	r5, r0, r0, lsl #22
     114:	50000100 	andpl	r0, r0, r0, lsl #2
     118:	0000005b 	andeq	r0, r0, fp, asr r0
     11c:	0000007c 	andeq	r0, r0, ip, ror r0
     120:	01f30004 	mvnseq	r0, r4
     124:	007c9f50 	rsbseq	r9, ip, r0, asr pc
     128:	00800000 	addeq	r0, r0, r0
     12c:	00010000 	andeq	r0, r1, r0
     130:	00008050 	andeq	r8, r0, r0, asr r0
     134:	0000a000 	andeq	sl, r0, r0
     138:	f3000400 	vshl.u8	d0, d0, d0
     13c:	009f5001 	addseq	r5, pc, r1
     140:	00000000 	andeq	r0, r0, r0
     144:	10000000 	andne	r0, r0, r0
     148:	23000000 	movwcs	r0, #0
     14c:	01000000 	mrseq	r0, (UNDEF: 0)
     150:	00235100 	eoreq	r5, r3, r0, lsl #2
     154:	00440000 	subeq	r0, r4, r0
     158:	00040000 	andeq	r0, r4, r0
     15c:	9f5101f3 	svcls	0x005101f3
     160:	00000044 	andeq	r0, r0, r4, asr #32
     164:	00000048 	andeq	r0, r0, r8, asr #32
     168:	48510001 	ldmdami	r1, {r0}^
     16c:	a0000000 	andge	r0, r0, r0
     170:	04000000 	streq	r0, [r0], #-0
     174:	5101f300 	mrspl	pc, SP_irq	; <UNPREDICTABLE>
     178:	0000009f 	muleq	r0, pc, r0	; <UNPREDICTABLE>
     17c:	00000000 	andeq	r0, r0, r0
     180:	00004800 	andeq	r4, r0, r0, lsl #16
     184:	00005b00 	andeq	r5, r0, r0, lsl #22
     188:	51000100 	mrspl	r0, (UNDEF: 16)
     18c:	0000005b 	andeq	r0, r0, fp, asr r0
     190:	0000007c 	andeq	r0, r0, ip, ror r0
     194:	01f30006 	mvnseq	r0, r6
     198:	9f254451 	svcls	0x00254451
     19c:	0000007c 	andeq	r0, r0, ip, ror r0
     1a0:	000000a0 	andeq	r0, r0, r0, lsr #1
     1a4:	00510001 	subseq	r0, r1, r1
     1a8:	00000000 	andeq	r0, r0, r0
     1ac:	4c000000 	stcmi	0, cr0, [r0], {-0}
     1b0:	5b000000 	blpl	1b8 <__code_start__-0x7e48>
     1b4:	01000000 	mrseq	r0, (UNDEF: 0)
     1b8:	005b5300 	subseq	r5, fp, r0, lsl #6
     1bc:	007c0000 	rsbseq	r0, ip, r0
     1c0:	000c0000 	andeq	r0, ip, r0
     1c4:	445101f3 	ldrbmi	r0, [r1], #-499	; 0x1f3
     1c8:	f3243225 	vhsub.u32	d3, d4, d21
     1cc:	9f225001 	svcls	0x00225001
     1d0:	0000007c 	andeq	r0, r0, ip, ror r0
     1d4:	000000a0 	andeq	r0, r0, r0, lsr #1
     1d8:	00530001 	subseq	r0, r3, r1
     1dc:	00000000 	andeq	r0, r0, r0
     1e0:	a0000000 	andge	r0, r0, r0
     1e4:	c3000000 	movwgt	r0, #0
     1e8:	01000000 	mrseq	r0, (UNDEF: 0)
     1ec:	00c35000 	sbceq	r5, r3, r0
     1f0:	01080000 	mrseq	r0, (UNDEF: 8)
     1f4:	00010000 	andeq	r0, r1, r0
     1f8:	00010858 	andeq	r0, r1, r8, asr r8
     1fc:	00011400 	andeq	r1, r1, r0, lsl #8
     200:	50000100 	andpl	r0, r0, r0, lsl #2
     204:	00000114 	andeq	r0, r0, r4, lsl r1
     208:	00000128 	andeq	r0, r0, r8, lsr #2
     20c:	28580001 	ldmdacs	r8, {r0}^
     210:	38000001 	stmdacc	r0, {r0}
     214:	04000001 	streq	r0, [r0], #-1
     218:	5001f300 	andpl	pc, r1, r0, lsl #6
     21c:	0000009f 	muleq	r0, pc, r0	; <UNPREDICTABLE>
     220:	00000000 	andeq	r0, r0, r0
     224:	0000a000 	andeq	sl, r0, r0
     228:	0000b400 	andeq	fp, r0, r0, lsl #8
     22c:	51000100 	mrspl	r0, (UNDEF: 16)
     230:	000000b4 	strheq	r0, [r0], -r4
     234:	000000b8 	strheq	r0, [r0], -r8
     238:	01f30004 	mvnseq	r0, r4
     23c:	00009f51 	andeq	r9, r0, r1, asr pc
     240:	00000000 	andeq	r0, r0, r0
     244:	00a00000 	adceq	r0, r0, r0
     248:	00c30000 	sbceq	r0, r3, r0
     24c:	00010000 	andeq	r0, r1, r0
     250:	0000c352 	andeq	ip, r0, r2, asr r3
     254:	00010800 	andeq	r0, r1, r0, lsl #16
     258:	55000100 	strpl	r0, [r0, #-256]	; 0x100
     25c:	00000108 	andeq	r0, r0, r8, lsl #2
     260:	00000114 	andeq	r0, r0, r4, lsl r1
     264:	14520001 	ldrbne	r0, [r2], #-1
     268:	28000001 	stmdacs	r0, {r0}
     26c:	01000001 	tsteq	r0, r1
     270:	01285500 	teqeq	r8, r0, lsl #10
     274:	01380000 	teqeq	r8, r0
     278:	00040000 	andeq	r0, r4, r0
     27c:	9f5201f3 	svcls	0x005201f3
	...
     288:	000000a0 	andeq	r0, r0, r0, lsr #1
     28c:	000000c3 	andeq	r0, r0, r3, asr #1
     290:	c3530001 	cmpgt	r3, #1
     294:	08000000 	stmdaeq	r0, {}	; <UNPREDICTABLE>
     298:	04000001 	streq	r0, [r0], #-1
     29c:	5301f300 	movwpl	pc, #4864	; 0x1300	; <UNPREDICTABLE>
     2a0:	0001089f 	muleq	r1, pc, r8	; <UNPREDICTABLE>
     2a4:	00011400 	andeq	r1, r1, r0, lsl #8
     2a8:	53000100 	movwpl	r0, #256	; 0x100
     2ac:	00000114 	andeq	r0, r0, r4, lsl r1
     2b0:	00000138 	andeq	r0, r0, r8, lsr r1
     2b4:	01f30004 	mvnseq	r0, r4
     2b8:	00009f53 	andeq	r9, r0, r3, asr pc
     2bc:	00000000 	andeq	r0, r0, r0
     2c0:	00b00000 	adcseq	r0, r0, r0
     2c4:	00b40000 	adcseq	r0, r4, r0
     2c8:	00010000 	andeq	r0, r1, r0
     2cc:	0000b451 	andeq	fp, r0, r1, asr r4
     2d0:	00013800 	andeq	r3, r1, r0, lsl #16
     2d4:	f3000400 	vshl.u8	d0, d0, d0
     2d8:	009f5101 	addseq	r5, pc, r1, lsl #2
     2dc:	00000000 	andeq	r0, r0, r0
     2e0:	e4000000 	str	r0, [r0], #-0
     2e4:	08000000 	stmdaeq	r0, {}	; <UNPREDICTABLE>
     2e8:	01000001 	tsteq	r0, r1
     2ec:	01145400 	tsteq	r4, r0, lsl #8
     2f0:	01280000 	teqeq	r8, r0
     2f4:	00010000 	andeq	r0, r1, r0
     2f8:	00000054 	andeq	r0, r0, r4, asr r0
     2fc:	00000000 	andeq	r0, r0, r0
     300:	0000f000 	andeq	pc, r0, r0
     304:	00010800 	andeq	r0, r1, r0, lsl #16
     308:	50000100 	andpl	r0, r0, r0, lsl #2
	...
     314:	00000138 	andeq	r0, r0, r8, lsr r1
     318:	00000143 	andeq	r0, r0, r3, asr #2
     31c:	43500001 	cmpmi	r0, #1
     320:	48000001 	stmdami	r0, {r0}
     324:	04000001 	streq	r0, [r0], #-1
     328:	5001f300 	andpl	pc, r1, r0, lsl #6
     32c:	0000009f 	muleq	r0, pc, r0	; <UNPREDICTABLE>
     330:	00000000 	andeq	r0, r0, r0
     334:	00013800 	andeq	r3, r1, r0, lsl #16
     338:	00014300 	andeq	r4, r1, r0, lsl #6
     33c:	51000100 	mrspl	r0, (UNDEF: 16)
     340:	00000143 	andeq	r0, r0, r3, asr #2
     344:	00000148 	andeq	r0, r0, r8, asr #2
     348:	01f30004 	mvnseq	r0, r4
     34c:	00009f51 	andeq	r9, r0, r1, asr pc
     350:	00000000 	andeq	r0, r0, r0
     354:	01380000 	teqeq	r8, r0
     358:	01430000 	mrseq	r0, (UNDEF: 67)
     35c:	00010000 	andeq	r0, r1, r0
     360:	00014352 	andeq	r4, r1, r2, asr r3
     364:	00014800 	andeq	r4, r1, r0, lsl #16
     368:	f3000400 	vshl.u8	d0, d0, d0
     36c:	009f5201 	addseq	r5, pc, r1, lsl #4
     370:	00000000 	andeq	r0, r0, r0
     374:	48000000 	stmdami	r0, {}	; <UNPREDICTABLE>
     378:	53000001 	movwpl	r0, #1
     37c:	01000001 	tsteq	r0, r1
     380:	01535000 	cmpeq	r3, r0
     384:	01580000 	cmpeq	r8, r0
     388:	00040000 	andeq	r0, r4, r0
     38c:	9f5001f3 	svcls	0x005001f3
	...
     398:	00000148 	andeq	r0, r0, r8, asr #2
     39c:	00000153 	andeq	r0, r0, r3, asr r1
     3a0:	53510001 	cmppl	r1, #1
     3a4:	58000001 	stmdapl	r0, {r0}
     3a8:	04000001 	streq	r0, [r0], #-1
     3ac:	5101f300 	mrspl	pc, SP_irq	; <UNPREDICTABLE>
     3b0:	0000009f 	muleq	r0, pc, r0	; <UNPREDICTABLE>
     3b4:	00000000 	andeq	r0, r0, r0
     3b8:	00014800 	andeq	r4, r1, r0, lsl #16
     3bc:	00015300 	andeq	r5, r1, r0, lsl #6
     3c0:	52000100 	andpl	r0, r0, #0, 2
     3c4:	00000153 	andeq	r0, r0, r3, asr r1
     3c8:	00000158 	andeq	r0, r0, r8, asr r1
     3cc:	01f30004 	mvnseq	r0, r4
     3d0:	00009f52 	andeq	r9, r0, r2, asr pc
     3d4:	00000000 	andeq	r0, r0, r0
     3d8:	01580000 	cmpeq	r8, r0
     3dc:	01630000 	cmneq	r3, r0
     3e0:	00010000 	andeq	r0, r1, r0
     3e4:	00016350 	andeq	r6, r1, r0, asr r3
     3e8:	00016800 	andeq	r6, r1, r0, lsl #16
     3ec:	f3000400 	vshl.u8	d0, d0, d0
     3f0:	009f5001 	addseq	r5, pc, r1
     3f4:	00000000 	andeq	r0, r0, r0
     3f8:	58000000 	stmdapl	r0, {}	; <UNPREDICTABLE>
     3fc:	63000001 	movwvs	r0, #1
     400:	01000001 	tsteq	r0, r1
     404:	01635100 	cmneq	r3, r0, lsl #2
     408:	01680000 	cmneq	r8, r0
     40c:	00040000 	andeq	r0, r4, r0
     410:	9f5101f3 	svcls	0x005101f3
	...
     41c:	00000158 	andeq	r0, r0, r8, asr r1
     420:	00000163 	andeq	r0, r0, r3, ror #2
     424:	63520001 	cmpvs	r2, #1
     428:	68000001 	stmdavs	r0, {r0}
     42c:	04000001 	streq	r0, [r0], #-1
     430:	5201f300 	andpl	pc, r1, #0, 6
     434:	0000009f 	muleq	r0, pc, r0	; <UNPREDICTABLE>
     438:	00000000 	andeq	r0, r0, r0
     43c:	00016800 	andeq	r6, r1, r0, lsl #16
     440:	00017b00 	andeq	r7, r1, r0, lsl #22
     444:	50000100 	andpl	r0, r0, r0, lsl #2
     448:	0000017b 	andeq	r0, r0, fp, ror r1
     44c:	0000019c 	muleq	r0, ip, r1
     450:	01f30004 	mvnseq	r0, r4
     454:	019c9f50 	orrseq	r9, ip, r0, asr pc
     458:	01bf0000 			; <UNDEFINED> instruction: 0x01bf0000
     45c:	00010000 	andeq	r0, r1, r0
     460:	0001bf50 	andeq	fp, r1, r0, asr pc
     464:	0001e000 	andeq	lr, r1, r0
     468:	f3000400 	vshl.u8	d0, d0, d0
     46c:	e09f5001 	adds	r5, pc, r1
     470:	00000001 	andeq	r0, r0, r1
     474:	01000002 	tsteq	r0, r2
     478:	00005000 	andeq	r5, r0, r0
     47c:	00000000 	andeq	r0, r0, r0
     480:	01680000 	cmneq	r8, r0
     484:	017b0000 	cmneq	fp, r0
     488:	00010000 	andeq	r0, r1, r0
     48c:	00017b51 	andeq	r7, r1, r1, asr fp
     490:	00019c00 	andeq	r9, r1, r0, lsl #24
     494:	f3000400 	vshl.u8	d0, d0, d0
     498:	9c9f5101 	ldflss	f5, [pc], {1}
     49c:	bf000001 	svclt	0x00000001
     4a0:	01000001 	tsteq	r0, r1
     4a4:	01bf5100 			; <UNDEFINED> instruction: 0x01bf5100
     4a8:	01e00000 	mvneq	r0, r0
     4ac:	00040000 	andeq	r0, r4, r0
     4b0:	9f5101f3 	svcls	0x005101f3
     4b4:	000001e0 	andeq	r0, r0, r0, ror #3
     4b8:	00000200 	andeq	r0, r0, r0, lsl #4
     4bc:	00510001 	subseq	r0, r1, r1
	...
     4c8:	1f000002 	svcne	0x00000002
     4cc:	01000002 	tsteq	r0, r2
     4d0:	021f5000 	andseq	r5, pc, #0
     4d4:	02400000 	subeq	r0, r0, #0
     4d8:	00010000 	andeq	r0, r1, r0
     4dc:	00024054 	andeq	r4, r2, r4, asr r0
     4e0:	00024b00 	andeq	r4, r2, r0, lsl #22
     4e4:	50000100 	andpl	r0, r0, r0, lsl #2
     4e8:	0000024b 	andeq	r0, r0, fp, asr #4
     4ec:	0000026c 	andeq	r0, r0, ip, ror #4
     4f0:	6c540001 	mrrcvs	0, 0, r0, r4, cr1
     4f4:	77000002 	strvc	r0, [r0, -r2]
     4f8:	01000002 	tsteq	r0, r2
     4fc:	02775000 	rsbseq	r5, r7, #0
     500:	02980000 	addseq	r0, r8, #0
     504:	00010000 	andeq	r0, r1, r0
     508:	00029854 	andeq	r9, r2, r4, asr r8
     50c:	0002b300 	andeq	fp, r2, r0, lsl #6
     510:	50000100 	andpl	r0, r0, r0, lsl #2
     514:	000002b3 			; <UNDEFINED> instruction: 0x000002b3
     518:	000002d4 	ldrdeq	r0, [r0], -r4
     51c:	d4540001 	ldrble	r0, [r4], #-1
     520:	d7000002 	strle	r0, [r0, -r2]
     524:	01000002 	tsteq	r0, r2
     528:	02d75000 	sbcseq	r5, r7, #0
     52c:	03680000 	cmneq	r8, #0
     530:	00010000 	andeq	r0, r1, r0
     534:	00036854 	andeq	r6, r3, r4, asr r8
     538:	00039400 	andeq	r9, r3, r0, lsl #8
     53c:	f3000400 	vshl.u8	d0, d0, d0
     540:	009f5001 	addseq	r5, pc, r1
	...
     54c:	1f000002 	svcne	0x00000002
     550:	01000002 	tsteq	r0, r2
     554:	021f5100 	andseq	r5, pc, #0, 2
     558:	02400000 	subeq	r0, r0, #0
     55c:	00040000 	andeq	r0, r4, r0
     560:	9f5101f3 	svcls	0x005101f3
     564:	00000240 	andeq	r0, r0, r0, asr #4
     568:	0000024b 	andeq	r0, r0, fp, asr #4
     56c:	4b510001 	blmi	1440578 <__bss_end__+0x1433b50>
     570:	6c000002 	stcvs	0, cr0, [r0], {2}
     574:	04000002 	streq	r0, [r0], #-2
     578:	5101f300 	mrspl	pc, SP_irq	; <UNPREDICTABLE>
     57c:	00026c9f 	muleq	r2, pc, ip	; <UNPREDICTABLE>
     580:	00027700 	andeq	r7, r2, r0, lsl #14
     584:	51000100 	mrspl	r0, (UNDEF: 16)
     588:	00000277 	andeq	r0, r0, r7, ror r2
     58c:	00000298 	muleq	r0, r8, r2
     590:	01f30004 	mvnseq	r0, r4
     594:	02989f51 	addseq	r9, r8, #324	; 0x144
     598:	02b30000 	adcseq	r0, r3, #0
     59c:	00010000 	andeq	r0, r1, r0
     5a0:	0002b351 	andeq	fp, r2, r1, asr r3
     5a4:	0002d400 	andeq	sp, r2, r0, lsl #8
     5a8:	f3000400 	vshl.u8	d0, d0, d0
     5ac:	d49f5101 	ldrle	r5, [pc], #257	; 5b4 <__code_start__-0x7a4c>
     5b0:	d7000002 	strle	r0, [r0, -r2]
     5b4:	01000002 	tsteq	r0, r2
     5b8:	02d75100 	sbcseq	r5, r7, #0, 2
     5bc:	03940000 	orrseq	r0, r4, #0
     5c0:	00040000 	andeq	r0, r4, r0
     5c4:	9f5101f3 	svcls	0x005101f3
	...
     5d0:	00000200 	andeq	r0, r0, r0, lsl #4
     5d4:	0000021f 	andeq	r0, r0, pc, lsl r2
     5d8:	1f520001 	svcne	0x00520001
     5dc:	40000002 	andmi	r0, r0, r2
     5e0:	01000002 	tsteq	r0, r2
     5e4:	02405900 	subeq	r5, r0, #0, 18
     5e8:	024b0000 	subeq	r0, fp, #0
     5ec:	00010000 	andeq	r0, r1, r0
     5f0:	00024b52 	andeq	r4, r2, r2, asr fp
     5f4:	00026c00 	andeq	r6, r2, r0, lsl #24
     5f8:	59000100 	stmdbpl	r0, {r8}
     5fc:	0000026c 	andeq	r0, r0, ip, ror #4
     600:	00000277 	andeq	r0, r0, r7, ror r2
     604:	77520001 	ldrbvc	r0, [r2, -r1]
     608:	98000002 	stmdals	r0, {r1}
     60c:	01000002 	tsteq	r0, r2
     610:	02985900 	addseq	r5, r8, #0, 18
     614:	02b30000 	adcseq	r0, r3, #0
     618:	00010000 	andeq	r0, r1, r0
     61c:	0002b352 	andeq	fp, r2, r2, asr r3
     620:	0002d400 	andeq	sp, r2, r0, lsl #8
     624:	59000100 	stmdbpl	r0, {r8}
     628:	000002d4 	ldrdeq	r0, [r0], -r4
     62c:	000002d7 	ldrdeq	r0, [r0], -r7
     630:	d7520001 	ldrble	r0, [r2, -r1]
     634:	68000002 	stmdavs	r0, {r1}
     638:	01000003 	tsteq	r0, r3
     63c:	03685900 	cmneq	r8, #0, 18
     640:	03940000 	orrseq	r0, r4, #0
     644:	00040000 	andeq	r0, r4, r0
     648:	9f5201f3 	svcls	0x005201f3
	...
     654:	00000200 	andeq	r0, r0, r0, lsl #4
     658:	0000021f 	andeq	r0, r0, pc, lsl r2
     65c:	1f530001 	svcne	0x00530001
     660:	40000002 	andmi	r0, r0, r2
     664:	01000002 	tsteq	r0, r2
     668:	02405800 	subeq	r5, r0, #0, 16
     66c:	024b0000 	subeq	r0, fp, #0
     670:	00010000 	andeq	r0, r1, r0
     674:	00024b53 	andeq	r4, r2, r3, asr fp
     678:	00026c00 	andeq	r6, r2, r0, lsl #24
     67c:	58000100 	stmdapl	r0, {r8}
     680:	0000026c 	andeq	r0, r0, ip, ror #4
     684:	00000277 	andeq	r0, r0, r7, ror r2
     688:	77530001 	ldrbvc	r0, [r3, -r1]
     68c:	98000002 	stmdals	r0, {r1}
     690:	01000002 	tsteq	r0, r2
     694:	02985800 	addseq	r5, r8, #0, 16
     698:	02a80000 	adceq	r0, r8, #0
     69c:	00010000 	andeq	r0, r1, r0
     6a0:	0002a853 	andeq	sl, r2, r3, asr r8
     6a4:	00030000 	andeq	r0, r3, r0
     6a8:	58000100 	stmdapl	r0, {r8}
     6ac:	00000300 	andeq	r0, r0, r0, lsl #6
     6b0:	00000394 	muleq	r0, r4, r3
     6b4:	01f30004 	mvnseq	r0, r4
     6b8:	00009f53 	andeq	r9, r0, r3, asr pc
     6bc:	00000000 	andeq	r0, r0, r0
     6c0:	029c0000 	addseq	r0, ip, #0
     6c4:	03680000 	cmneq	r8, #0
     6c8:	00010000 	andeq	r0, r1, r0
     6cc:	00036856 	andeq	r6, r3, r6, asr r8
     6d0:	00039400 	andeq	r9, r3, r0, lsl #8
     6d4:	f3000600 	vmax.u8	d0, d0, d0
     6d8:	25445101 	strbcs	r5, [r4, #-257]	; 0x101
     6dc:	0000009f 	muleq	r0, pc, r0	; <UNPREDICTABLE>
     6e0:	00000000 	andeq	r0, r0, r0
     6e4:	0002a400 	andeq	sl, r2, r0, lsl #8
     6e8:	00036800 	andeq	r6, r3, r0, lsl #16
     6ec:	55000100 	strpl	r0, [r0, #-256]	; 0x100
     6f0:	00000368 	andeq	r0, r0, r8, ror #6
     6f4:	00000394 	muleq	r0, r4, r3
     6f8:	00500001 	subseq	r0, r0, r1
     6fc:	00000000 	andeq	r0, r0, r0
     700:	94000000 	strls	r0, [r0], #-0
     704:	bb000003 	bllt	718 <__code_start__-0x78e8>
     708:	01000003 	tsteq	r0, r3
     70c:	03bb5000 			; <UNDEFINED> instruction: 0x03bb5000
     710:	03dc0000 	bicseq	r0, ip, #0
     714:	00010000 	andeq	r0, r1, r0
     718:	0003dc59 	andeq	sp, r3, r9, asr ip
     71c:	0003e700 	andeq	lr, r3, r0, lsl #14
     720:	50000100 	andpl	r0, r0, r0, lsl #2
     724:	000003e7 	andeq	r0, r0, r7, ror #7
     728:	00000408 	andeq	r0, r0, r8, lsl #8
     72c:	08590001 	ldmdaeq	r9, {r0}^
     730:	13000004 	movwne	r0, #4
     734:	01000004 	tsteq	r0, r4
     738:	04135000 	ldreq	r5, [r3], #-0
     73c:	04580000 	ldrbeq	r0, [r8], #-0
     740:	00010000 	andeq	r0, r1, r0
     744:	00045859 	andeq	r5, r4, r9, asr r8
     748:	00045c00 	andeq	r5, r4, r0, lsl #24
     74c:	50000100 	andpl	r0, r0, r0, lsl #2
     750:	0000045c 	andeq	r0, r0, ip, asr r4
     754:	0000046c 	andeq	r0, r0, ip, ror #8
     758:	6c590001 	mrrcvs	0, 0, r0, r9, cr1
     75c:	84000004 	strhi	r0, [r0], #-4
     760:	04000004 	streq	r0, [r0], #-4
     764:	5001f300 	andpl	pc, r1, r0, lsl #6
     768:	0000009f 	muleq	r0, pc, r0	; <UNPREDICTABLE>
     76c:	00000000 	andeq	r0, r0, r0
     770:	00039400 	andeq	r9, r3, r0, lsl #8
     774:	0003bb00 	andeq	fp, r3, r0, lsl #22
     778:	51000100 	mrspl	r0, (UNDEF: 16)
     77c:	000003bb 			; <UNDEFINED> instruction: 0x000003bb
     780:	000003dc 	ldrdeq	r0, [r0], -ip
     784:	dc550001 	mrrcle	0, 0, r0, r5, cr1
     788:	e7000003 	str	r0, [r0, -r3]
     78c:	01000003 	tsteq	r0, r3
     790:	03e75100 	mvneq	r5, #0, 2
     794:	04080000 	streq	r0, [r8], #-0
     798:	00010000 	andeq	r0, r1, r0
     79c:	00040855 	andeq	r0, r4, r5, asr r8
     7a0:	00041300 	andeq	r1, r4, r0, lsl #6
     7a4:	51000100 	mrspl	r0, (UNDEF: 16)
     7a8:	00000413 	andeq	r0, r0, r3, lsl r4
     7ac:	00000458 	andeq	r0, r0, r8, asr r4
     7b0:	58550001 	ldmdapl	r5, {r0}^
     7b4:	5c000004 	stcpl	0, cr0, [r0], {4}
     7b8:	01000004 	tsteq	r0, r4
     7bc:	045c5100 	ldrbeq	r5, [ip], #-256	; 0x100
     7c0:	046c0000 	strbteq	r0, [ip], #-0
     7c4:	00010000 	andeq	r0, r1, r0
     7c8:	00000055 	andeq	r0, r0, r5, asr r0
     7cc:	00000000 	andeq	r0, r0, r0
     7d0:	00039400 	andeq	r9, r3, r0, lsl #8
     7d4:	0003bb00 	andeq	fp, r3, r0, lsl #22
     7d8:	52000100 	andpl	r0, r0, #0, 2
     7dc:	000003bb 			; <UNDEFINED> instruction: 0x000003bb
     7e0:	000003dc 	ldrdeq	r0, [r0], -ip
     7e4:	dc560001 	mrrcle	0, 0, r0, r6, cr1
     7e8:	e7000003 	str	r0, [r0, -r3]
     7ec:	01000003 	tsteq	r0, r3
     7f0:	03e75200 	mvneq	r5, #0, 4
     7f4:	04080000 	streq	r0, [r8], #-0
     7f8:	00010000 	andeq	r0, r1, r0
     7fc:	00040856 	andeq	r0, r4, r6, asr r8
     800:	00041300 	andeq	r1, r4, r0, lsl #6
     804:	52000100 	andpl	r0, r0, #0, 2
     808:	00000413 	andeq	r0, r0, r3, lsl r4
     80c:	00000458 	andeq	r0, r0, r8, asr r4
     810:	58560001 	ldmdapl	r6, {r0}^
     814:	5c000004 	stcpl	0, cr0, [r0], {4}
     818:	01000004 	tsteq	r0, r4
     81c:	045c5200 	ldrbeq	r5, [ip], #-512	; 0x200
     820:	046c0000 	strbteq	r0, [ip], #-0
     824:	00010000 	andeq	r0, r1, r0
     828:	00000056 	andeq	r0, r0, r6, asr r0
     82c:	00000000 	andeq	r0, r0, r0
     830:	00039400 	andeq	r9, r3, r0, lsl #8
     834:	0003bb00 	andeq	fp, r3, r0, lsl #22
     838:	53000100 	movwpl	r0, #256	; 0x100
     83c:	000003bb 			; <UNDEFINED> instruction: 0x000003bb
     840:	000003dc 	ldrdeq	r0, [r0], -ip
     844:	dc570001 	mrrcle	0, 0, r0, r7, cr1
     848:	e7000003 	str	r0, [r0, -r3]
     84c:	01000003 	tsteq	r0, r3
     850:	03e75300 	mvneq	r5, #0, 6
     854:	04080000 	streq	r0, [r8], #-0
     858:	00010000 	andeq	r0, r1, r0
     85c:	00040857 	andeq	r0, r4, r7, asr r8
     860:	00041300 	andeq	r1, r4, r0, lsl #6
     864:	53000100 	movwpl	r0, #256	; 0x100
     868:	00000413 	andeq	r0, r0, r3, lsl r4
     86c:	00000458 	andeq	r0, r0, r8, asr r4
     870:	58570001 	ldmdapl	r7, {r0}^
     874:	5c000004 	stcpl	0, cr0, [r0], {4}
     878:	01000004 	tsteq	r0, r4
     87c:	045c5300 	ldrbeq	r5, [ip], #-768	; 0x300
     880:	046c0000 	strbteq	r0, [ip], #-0
     884:	00010000 	andeq	r0, r1, r0
     888:	00046c57 	andeq	r6, r4, r7, asr ip
     88c:	00048400 	andeq	r8, r4, r0, lsl #8
     890:	f3000400 	vshl.u8	d0, d0, d0
     894:	009f5301 	addseq	r5, pc, r1, lsl #6
     898:	00000000 	andeq	r0, r0, r0
     89c:	34000000 	strcc	r0, [r0], #-0
     8a0:	58000004 	stmdapl	r0, {r2}
     8a4:	01000004 	tsteq	r0, r4
     8a8:	045c5400 	ldrbeq	r5, [ip], #-1024	; 0x400
     8ac:	046c0000 	strbteq	r0, [ip], #-0
     8b0:	00010000 	andeq	r0, r1, r0
     8b4:	00000054 	andeq	r0, r0, r4, asr r0
     8b8:	00000000 	andeq	r0, r0, r0
     8bc:	00048400 	andeq	r8, r4, r0, lsl #8
     8c0:	00049b00 	andeq	r9, r4, r0, lsl #22
     8c4:	50000100 	andpl	r0, r0, r0, lsl #2
     8c8:	0000049b 	muleq	r0, fp, r4
     8cc:	000004bc 			; <UNDEFINED> instruction: 0x000004bc
     8d0:	bc540001 	mrrclt	0, 0, r0, r4, cr1
     8d4:	c7000004 	strgt	r0, [r0, -r4]
     8d8:	01000004 	tsteq	r0, r4
     8dc:	04c75000 	strbeq	r5, [r7], #0
     8e0:	04e80000 	strbteq	r0, [r8], #0
     8e4:	00010000 	andeq	r0, r1, r0
     8e8:	0004e854 	andeq	lr, r4, r4, asr r8
     8ec:	0004f300 	andeq	pc, r4, r0, lsl #6
     8f0:	50000100 	andpl	r0, r0, r0, lsl #2
     8f4:	000004f3 	strdeq	r0, [r0], -r3
     8f8:	00000500 	andeq	r0, r0, r0, lsl #10
     8fc:	00540001 	subseq	r0, r4, r1
     900:	18000005 	stmdane	r0, {r0, r2}
     904:	01000005 	tsteq	r0, r5
     908:	00005000 	andeq	r5, r0, r0
     90c:	00000000 	andeq	r0, r0, r0
     910:	04840000 	streq	r0, [r4], #0
     914:	049b0000 	ldreq	r0, [fp], #0
     918:	00010000 	andeq	r0, r1, r0
     91c:	00049b51 	andeq	r9, r4, r1, asr fp
     920:	0004bc00 	andeq	fp, r4, r0, lsl #24
     924:	f3000400 	vshl.u8	d0, d0, d0
     928:	bc9f5101 	ldflts	f5, [pc], {1}
     92c:	c7000004 	strgt	r0, [r0, -r4]
     930:	01000004 	tsteq	r0, r4
     934:	04c75100 	strbeq	r5, [r7], #256	; 0x100
     938:	04e80000 	strbteq	r0, [r8], #0
     93c:	00040000 	andeq	r0, r4, r0
     940:	9f5101f3 	svcls	0x005101f3
     944:	000004e8 	andeq	r0, r0, r8, ror #9
     948:	000004ec 	andeq	r0, r0, ip, ror #9
     94c:	ec510001 	mrrc	0, 0, r0, r1, cr1
     950:	18000004 	stmdane	r0, {r2}
     954:	04000005 	streq	r0, [r0], #-5
     958:	5101f300 	mrspl	pc, SP_irq	; <UNPREDICTABLE>
     95c:	0000009f 	muleq	r0, pc, r0	; <UNPREDICTABLE>
     960:	00000000 	andeq	r0, r0, r0
     964:	0004bc00 	andeq	fp, r4, r0, lsl #24
     968:	0004c700 	andeq	ip, r4, r0, lsl #14
     96c:	50000100 	andpl	r0, r0, r0, lsl #2
     970:	000004c7 	andeq	r0, r0, r7, asr #9
     974:	000004e8 	andeq	r0, r0, r8, ror #9
     978:	e8540001 	ldmda	r4, {r0}^
     97c:	f3000004 	vhadd.u8	d0, d0, d4
     980:	01000004 	tsteq	r0, r4
     984:	04f35000 	ldrbteq	r5, [r3], #0
     988:	05000000 	streq	r0, [r0, #-0]
     98c:	00010000 	andeq	r0, r1, r0
     990:	00050054 	andeq	r0, r5, r4, asr r0
     994:	00051800 	andeq	r1, r5, r0, lsl #16
     998:	50000100 	andpl	r0, r0, r0, lsl #2
	...
     9a4:	00000518 	andeq	r0, r0, r8, lsl r5
     9a8:	0000052b 	andeq	r0, r0, fp, lsr #10
     9ac:	2b500001 	blcs	14009b8 <__bss_end__+0x13f3f90>
     9b0:	4c000005 	stcmi	0, cr0, [r0], {5}
     9b4:	04000005 	streq	r0, [r0], #-5
     9b8:	5001f300 	andpl	pc, r1, r0, lsl #6
     9bc:	00054c9f 	muleq	r5, pc, ip	; <UNPREDICTABLE>
     9c0:	00055300 	andeq	r5, r5, r0, lsl #6
     9c4:	50000100 	andpl	r0, r0, r0, lsl #2
     9c8:	00000553 	andeq	r0, r0, r3, asr r5
     9cc:	000005a8 	andeq	r0, r0, r8, lsr #11
     9d0:	01f30004 	mvnseq	r0, r4
     9d4:	00009f50 	andeq	r9, r0, r0, asr pc
     9d8:	00000000 	andeq	r0, r0, r0
     9dc:	05540000 	ldrbeq	r0, [r4, #-0]
     9e0:	055f0000 	ldrbeq	r0, [pc, #-0]	; 9e8 <__code_start__-0x7618>
     9e4:	00010000 	andeq	r0, r1, r0
     9e8:	00058050 	andeq	r8, r5, r0, asr r0
     9ec:	00058700 	andeq	r8, r5, r0, lsl #14
     9f0:	50000100 	andpl	r0, r0, r0, lsl #2
	...
     9fc:	000005c4 	andeq	r0, r0, r4, asr #11
     a00:	000005cf 	andeq	r0, r0, pc, asr #11
     a04:	f0500001 			; <UNDEFINED> instruction: 0xf0500001
     a08:	fb000005 	blx	a26 <__code_start__-0x75da>
     a0c:	01000005 	tsteq	r0, r5
     a10:	061c5000 	ldreq	r5, [ip], -r0
     a14:	06380000 	ldrteq	r0, [r8], -r0
     a18:	00010000 	andeq	r0, r1, r0
     a1c:	00000050 	andeq	r0, r0, r0, asr r0
     a20:	00000000 	andeq	r0, r0, r0
     a24:	00064400 	andeq	r4, r6, r0, lsl #8
     a28:	00065700 	andeq	r5, r6, r0, lsl #14
     a2c:	50000100 	andpl	r0, r0, r0, lsl #2
     a30:	00000678 	andeq	r0, r0, r8, ror r6
     a34:	00000683 	andeq	r0, r0, r3, lsl #13
     a38:	a4500001 	ldrbge	r0, [r0], #-1
     a3c:	a7000006 	strge	r0, [r0, -r6]
     a40:	01000006 	tsteq	r0, r6
     a44:	00005000 	andeq	r5, r0, r0
     a48:	00000000 	andeq	r0, r0, r0
     a4c:	06d00000 	ldrbeq	r0, [r0], r0
     a50:	06db0000 	ldrbeq	r0, [fp], r0
     a54:	00010000 	andeq	r0, r1, r0
     a58:	0006fc50 	andeq	pc, r6, r0, asr ip	; <UNPREDICTABLE>
     a5c:	00070000 	andeq	r0, r7, r0
     a60:	50000100 	andpl	r0, r0, r0, lsl #2
	...
     a6c:	0000071c 	andeq	r0, r0, ip, lsl r7
     a70:	0000072f 	andeq	r0, r0, pc, lsr #14
     a74:	50500001 	subspl	r0, r0, r1
     a78:	53000007 	movwpl	r0, #7
     a7c:	01000007 	tsteq	r0, r7
     a80:	00005000 	andeq	r5, r0, r0
     a84:	00000000 	andeq	r0, r0, r0
     a88:	07780000 	ldrbeq	r0, [r8, -r0]!
     a8c:	07830000 	streq	r0, [r3, r0]
     a90:	00010000 	andeq	r0, r1, r0
     a94:	0007a450 	andeq	sl, r7, r0, asr r4
     a98:	0007a800 	andeq	sl, r7, r0, lsl #16
     a9c:	50000100 	andpl	r0, r0, r0, lsl #2
	...
     aa8:	000007cc 	andeq	r0, r0, ip, asr #15
     aac:	000007d3 	ldrdeq	r0, [r0], -r3
     ab0:	d3500001 	cmple	r0, #1
     ab4:	d8000007 	stmdale	r0, {r0, r1, r2}
     ab8:	04000007 	streq	r0, [r0], #-7
     abc:	5001f300 	andpl	pc, r1, r0, lsl #6
     ac0:	0000009f 	muleq	r0, pc, r0	; <UNPREDICTABLE>
     ac4:	00000000 	andeq	r0, r0, r0
     ac8:	0007d800 	andeq	sp, r7, r0, lsl #16
     acc:	0007eb00 	andeq	lr, r7, r0, lsl #22
     ad0:	50000100 	andpl	r0, r0, r0, lsl #2
     ad4:	000007eb 	andeq	r0, r0, fp, ror #15
     ad8:	0000080c 	andeq	r0, r0, ip, lsl #16
     adc:	01f30004 	mvnseq	r0, r4
     ae0:	080c9f50 	stmdaeq	ip, {r4, r6, r8, r9, sl, fp, ip, pc}
     ae4:	08170000 	ldmdaeq	r7, {}	; <UNPREDICTABLE>
     ae8:	00010000 	andeq	r0, r1, r0
     aec:	00081750 	andeq	r1, r8, r0, asr r7
     af0:	00083800 	andeq	r3, r8, r0, lsl #16
     af4:	f3000400 	vshl.u8	d0, d0, d0
     af8:	389f5001 	ldmcc	pc, {r0, ip, lr}	; <UNPREDICTABLE>
     afc:	47000008 	strmi	r0, [r0, -r8]
     b00:	01000008 	tsteq	r0, r8
     b04:	08475000 	stmdaeq	r7, {ip, lr}^
     b08:	08680000 	stmdaeq	r8!, {}^	; <UNPREDICTABLE>
     b0c:	00040000 	andeq	r0, r4, r0
     b10:	9f5001f3 	svcls	0x005001f3
     b14:	00000868 	andeq	r0, r0, r8, ror #16
     b18:	0000086c 	andeq	r0, r0, ip, ror #16
     b1c:	6c500001 	mrrcvs	0, 0, r0, r0, cr1	; <UNPREDICTABLE>
     b20:	94000008 	strls	r0, [r0], #-8
     b24:	04000008 	streq	r0, [r0], #-8
     b28:	5001f300 	andpl	pc, r1, r0, lsl #6
     b2c:	0000009f 	muleq	r0, pc, r0	; <UNPREDICTABLE>
     b30:	00000000 	andeq	r0, r0, r0
     b34:	0007d800 	andeq	sp, r7, r0, lsl #16
     b38:	0007eb00 	andeq	lr, r7, r0, lsl #22
     b3c:	51000100 	mrspl	r0, (UNDEF: 16)
     b40:	000007eb 	andeq	r0, r0, fp, ror #15
     b44:	0000080c 	andeq	r0, r0, ip, lsl #16
     b48:	01f30004 	mvnseq	r0, r4
     b4c:	080c9f51 	stmdaeq	ip, {r0, r4, r6, r8, r9, sl, fp, ip, pc}
     b50:	08170000 	ldmdaeq	r7, {}	; <UNPREDICTABLE>
     b54:	00010000 	andeq	r0, r1, r0
     b58:	00081751 	andeq	r1, r8, r1, asr r7
     b5c:	00083800 	andeq	r3, r8, r0, lsl #16
     b60:	f3000400 	vshl.u8	d0, d0, d0
     b64:	389f5101 	ldmcc	pc, {r0, r8, ip, lr}	; <UNPREDICTABLE>
     b68:	47000008 	strmi	r0, [r0, -r8]
     b6c:	01000008 	tsteq	r0, r8
     b70:	08475100 	stmdaeq	r7, {r8, ip, lr}^
     b74:	08680000 	stmdaeq	r8!, {}^	; <UNPREDICTABLE>
     b78:	00040000 	andeq	r0, r4, r0
     b7c:	9f5101f3 	svcls	0x005101f3
     b80:	00000868 	andeq	r0, r0, r8, ror #16
     b84:	00000870 	andeq	r0, r0, r0, ror r8
     b88:	70510001 	subsvc	r0, r1, r1
     b8c:	73000008 	movwvc	r0, #8
     b90:	03000008 	movweq	r0, #8
     b94:	9f017300 	svcls	0x00017300
     b98:	00000873 	andeq	r0, r0, r3, ror r8
     b9c:	00000894 	muleq	r0, r4, r8
     ba0:	01f30004 	mvnseq	r0, r4
     ba4:	00009f51 	andeq	r9, r0, r1, asr pc
     ba8:	00000000 	andeq	r0, r0, r0
     bac:	07d80000 	ldrbeq	r0, [r8, r0]
     bb0:	07eb0000 	strbeq	r0, [fp, r0]!
     bb4:	00010000 	andeq	r0, r1, r0
     bb8:	0007eb52 	andeq	lr, r7, r2, asr fp
     bbc:	00080c00 	andeq	r0, r8, r0, lsl #24
     bc0:	f3000400 	vshl.u8	d0, d0, d0
     bc4:	0c9f5201 	lfmeq	f5, 4, [pc], {1}
     bc8:	17000008 	strne	r0, [r0, -r8]
     bcc:	01000008 	tsteq	r0, r8
     bd0:	08175200 	ldmdaeq	r7, {r9, ip, lr}
     bd4:	08380000 	ldmdaeq	r8!, {}	; <UNPREDICTABLE>
     bd8:	00040000 	andeq	r0, r4, r0
     bdc:	9f5201f3 	svcls	0x005201f3
     be0:	00000838 	andeq	r0, r0, r8, lsr r8
     be4:	00000847 	andeq	r0, r0, r7, asr #16
     be8:	47520001 	ldrbmi	r0, [r2, -r1]
     bec:	68000008 	stmdavs	r0, {r3}
     bf0:	04000008 	streq	r0, [r0], #-8
     bf4:	5201f300 	andpl	pc, r1, #0, 6
     bf8:	0008689f 	muleq	r8, pc, r8	; <UNPREDICTABLE>
     bfc:	00087300 	andeq	r7, r8, r0, lsl #6
     c00:	52000100 	andpl	r0, r0, #0, 2
     c04:	00000873 	andeq	r0, r0, r3, ror r8
     c08:	00000894 	muleq	r0, r4, r8
     c0c:	01f30004 	mvnseq	r0, r4
     c10:	00009f52 	andeq	r9, r0, r2, asr pc
     c14:	00000000 	andeq	r0, r0, r0
     c18:	08940000 	ldmeq	r4, {}	; <UNPREDICTABLE>
     c1c:	08a30000 	stmiaeq	r3!, {}	; <UNPREDICTABLE>
     c20:	00010000 	andeq	r0, r1, r0
     c24:	0008a350 	andeq	sl, r8, r0, asr r3
     c28:	0008dc00 	andeq	sp, r8, r0, lsl #24
     c2c:	54000100 	strpl	r0, [r0], #-256	; 0x100
	...
     c3c:	00000010 	andeq	r0, r0, r0, lsl r0
     c40:	10500001 	subsne	r0, r0, r1
     c44:	34000000 	strcc	r0, [r0], #-0
     c48:	01000000 	mrseq	r0, (UNDEF: 0)
     c4c:	00005500 	andeq	r5, r0, r0, lsl #10
	...
     c58:	00140000 	andseq	r0, r4, r0
     c5c:	00010000 	andeq	r0, r1, r0
     c60:	00001451 	andeq	r1, r0, r1, asr r4
     c64:	00001700 	andeq	r1, r0, r0, lsl #14
     c68:	50000100 	andpl	r0, r0, r0, lsl #2
     c6c:	00000017 	andeq	r0, r0, r7, lsl r0
     c70:	00000034 	andeq	r0, r0, r4, lsr r0
     c74:	01f30004 	mvnseq	r0, r4
     c78:	00009f51 	andeq	r9, r0, r1, asr pc
	...
     c84:	00170000 	andseq	r0, r7, r0
     c88:	00010000 	andeq	r0, r1, r0
     c8c:	00001752 	andeq	r1, r0, r2, asr r7
     c90:	00003400 	andeq	r3, r0, r0, lsl #8
     c94:	54000100 	strpl	r0, [r0], #-256	; 0x100
	...
     ca0:	00000064 	andeq	r0, r0, r4, rrx
     ca4:	00000083 	andeq	r0, r0, r3, lsl #1
     ca8:	83500001 	cmphi	r0, #1
     cac:	a4000000 	strge	r0, [r0], #-0
     cb0:	04000000 	streq	r0, [r0], #-0
     cb4:	5001f300 	andpl	pc, r1, r0, lsl #6
     cb8:	0000a49f 	muleq	r0, pc, r4	; <UNPREDICTABLE>
     cbc:	0000b300 	andeq	fp, r0, r0, lsl #6
     cc0:	50000100 	andpl	r0, r0, r0, lsl #2
     cc4:	000000b3 	strheq	r0, [r0], -r3
     cc8:	000000d4 	ldrdeq	r0, [r0], -r4
     ccc:	01f30004 	mvnseq	r0, r4
     cd0:	00d49f50 	sbcseq	r9, r4, r0, asr pc
     cd4:	00e30000 	rsceq	r0, r3, r0
     cd8:	00010000 	andeq	r0, r1, r0
     cdc:	0000e350 	andeq	lr, r0, r0, asr r3
     ce0:	00010400 	andeq	r0, r1, r0, lsl #8
     ce4:	f3000400 	vshl.u8	d0, d0, d0
     ce8:	049f5001 	ldreq	r5, [pc], #1	; cf0 <__code_start__-0x7310>
     cec:	13000001 	movwne	r0, #1
     cf0:	01000001 	tsteq	r0, r1
     cf4:	01135000 	tsteq	r3, r0
     cf8:	01340000 	teqeq	r4, r0
     cfc:	00040000 	andeq	r0, r4, r0
     d00:	9f5001f3 	svcls	0x005001f3
     d04:	00000134 	andeq	r0, r0, r4, lsr r1
     d08:	00000143 	andeq	r0, r0, r3, asr #2
     d0c:	43500001 	cmpmi	r0, #1
     d10:	64000001 	strvs	r0, [r0], #-1
     d14:	04000001 	streq	r0, [r0], #-1
     d18:	5001f300 	andpl	pc, r1, r0, lsl #6
     d1c:	0001649f 	muleq	r1, pc, r4	; <UNPREDICTABLE>
     d20:	00017300 	andeq	r7, r1, r0, lsl #6
     d24:	50000100 	andpl	r0, r0, r0, lsl #2
     d28:	00000173 	andeq	r0, r0, r3, ror r1
     d2c:	00000194 	muleq	r0, r4, r1
     d30:	01f30004 	mvnseq	r0, r4
     d34:	01949f50 	orrseq	r9, r4, r0, asr pc
     d38:	01a30000 			; <UNDEFINED> instruction: 0x01a30000
     d3c:	00010000 	andeq	r0, r1, r0
     d40:	0001a350 	andeq	sl, r1, r0, asr r3
     d44:	0001c400 	andeq	ip, r1, r0, lsl #8
     d48:	f3000400 	vshl.u8	d0, d0, d0
     d4c:	c49f5001 	ldrgt	r5, [pc], #1	; d54 <__code_start__-0x72ac>
     d50:	d3000001 	movwle	r0, #1
     d54:	01000001 	tsteq	r0, r1
     d58:	01d35000 	bicseq	r5, r3, r0
     d5c:	01f40000 	mvnseq	r0, r0
     d60:	00040000 	andeq	r0, r4, r0
     d64:	9f5001f3 	svcls	0x005001f3
     d68:	000001f4 	strdeq	r0, [r0], -r4
     d6c:	00000203 	andeq	r0, r0, r3, lsl #4
     d70:	03500001 	cmpeq	r0, #1
     d74:	24000002 	strcs	r0, [r0], #-2
     d78:	04000002 	streq	r0, [r0], #-2
     d7c:	5001f300 	andpl	pc, r1, r0, lsl #6
     d80:	0002249f 	muleq	r2, pc, r4	; <UNPREDICTABLE>
     d84:	00025c00 	andeq	r5, r2, r0, lsl #24
     d88:	50000100 	andpl	r0, r0, r0, lsl #2
	...
     d94:	0000025c 	andeq	r0, r0, ip, asr r2
     d98:	00000267 	andeq	r0, r0, r7, ror #4
     d9c:	67500001 	ldrbvs	r0, [r0, -r1]
     da0:	60000002 	andvs	r0, r0, r2
     da4:	01000004 	tsteq	r0, r4
     da8:	00005400 	andeq	r5, r0, r0, lsl #8
     dac:	00000000 	andeq	r0, r0, r0
     db0:	04680000 	strbteq	r0, [r8], #-0
     db4:	04740000 	ldrbteq	r0, [r4], #-0
     db8:	00010000 	andeq	r0, r1, r0
     dbc:	00047450 	andeq	r7, r4, r0, asr r4
     dc0:	0004b400 	andeq	fp, r4, r0, lsl #8
     dc4:	54000100 	strpl	r0, [r0], #-256	; 0x100
	...
     dd0:	000004b4 			; <UNDEFINED> instruction: 0x000004b4
     dd4:	000004cb 	andeq	r0, r0, fp, asr #9
     dd8:	cb500001 	blgt	1400de4 <__bss_end__+0x13f43bc>
     ddc:	ec000004 	stc	0, cr0, [r0], {4}
     de0:	04000004 	streq	r0, [r0], #-4
     de4:	5001f300 	andpl	pc, r1, r0, lsl #6
     de8:	0004ec9f 	muleq	r4, pc, ip	; <UNPREDICTABLE>
     dec:	0004ff00 	andeq	pc, r4, r0, lsl #30
     df0:	50000100 	andpl	r0, r0, r0, lsl #2
     df4:	000004ff 	strdeq	r0, [r0], -pc	; <UNPREDICTABLE>
     df8:	00000520 	andeq	r0, r0, r0, lsr #10
     dfc:	01f30004 	mvnseq	r0, r4
     e00:	05209f50 	streq	r9, [r0, #-3920]!	; 0xf50
     e04:	052f0000 	streq	r0, [pc, #-0]!	; e0c <__code_start__-0x71f4>
     e08:	00010000 	andeq	r0, r1, r0
     e0c:	00052f50 	andeq	r2, r5, r0, asr pc
     e10:	00055000 	andeq	r5, r5, r0
     e14:	f3000400 	vshl.u8	d0, d0, d0
     e18:	509f5001 	addspl	r5, pc, r1
     e1c:	5f000005 	svcpl	0x00000005
     e20:	01000005 	tsteq	r0, r5
     e24:	055f5000 	ldrbeq	r5, [pc, #-0]	; e2c <__code_start__-0x71d4>
     e28:	05800000 	streq	r0, [r0]
     e2c:	00040000 	andeq	r0, r4, r0
     e30:	9f5001f3 	svcls	0x005001f3
     e34:	00000580 	andeq	r0, r0, r0, lsl #11
     e38:	0000058f 	andeq	r0, r0, pc, lsl #11
     e3c:	8f500001 	svchi	0x00500001
     e40:	b0000005 	andlt	r0, r0, r5
     e44:	04000005 	streq	r0, [r0], #-5
     e48:	5001f300 	andpl	pc, r1, r0, lsl #6
     e4c:	0005b09f 	muleq	r5, pc, r0	; <UNPREDICTABLE>
     e50:	0005bf00 	andeq	fp, r5, r0, lsl #30
     e54:	50000100 	andpl	r0, r0, r0, lsl #2
     e58:	000005bf 			; <UNDEFINED> instruction: 0x000005bf
     e5c:	000005e0 	andeq	r0, r0, r0, ror #11
     e60:	01f30004 	mvnseq	r0, r4
     e64:	05e09f50 	strbeq	r9, [r0, #3920]!	; 0xf50
     e68:	05ef0000 	strbeq	r0, [pc, #0]!	; e70 <__code_start__-0x7190>
     e6c:	00010000 	andeq	r0, r1, r0
     e70:	0005ef50 	andeq	lr, r5, r0, asr pc
     e74:	00061000 	andeq	r1, r6, r0
     e78:	f3000400 	vshl.u8	d0, d0, d0
     e7c:	109f5001 	addsne	r5, pc, r1
     e80:	1f000006 	svcne	0x00000006
     e84:	01000006 	tsteq	r0, r6
     e88:	061f5000 	ldreq	r5, [pc], -r0
     e8c:	06400000 	strbeq	r0, [r0], -r0
     e90:	00040000 	andeq	r0, r4, r0
     e94:	9f5001f3 	svcls	0x005001f3
     e98:	00000640 	andeq	r0, r0, r0, asr #12
     e9c:	00000674 	andeq	r0, r0, r4, ror r6
     ea0:	00500001 	subseq	r0, r0, r1
     ea4:	00000000 	andeq	r0, r0, r0
     ea8:	30000000 	andcc	r0, r0, r0
     eac:	3c000007 	stccc	0, cr0, [r0], {7}
     eb0:	01000007 	tsteq	r0, r7
     eb4:	073c5000 	ldreq	r5, [ip, -r0]!
     eb8:	09000000 	stmdbeq	r0, {}	; <UNPREDICTABLE>
     ebc:	00010000 	andeq	r0, r1, r0
     ec0:	00000054 	andeq	r0, r0, r4, asr r0
     ec4:	00000000 	andeq	r0, r0, r0
     ec8:	00003400 	andeq	r3, r0, r0, lsl #8
     ecc:	00004c00 	andeq	r4, r0, r0, lsl #24
     ed0:	50000100 	andpl	r0, r0, r0, lsl #2
     ed4:	0000004c 	andeq	r0, r0, ip, asr #32
     ed8:	00000104 	andeq	r0, r0, r4, lsl #2
     edc:	04560001 	ldrbeq	r0, [r6], #-1
     ee0:	24000001 	strcs	r0, [r0], #-1
     ee4:	04000001 	streq	r0, [r0], #-1
     ee8:	5001f300 	andpl	pc, r1, r0, lsl #6
     eec:	0000009f 	muleq	r0, pc, r0	; <UNPREDICTABLE>
     ef0:	00000000 	andeq	r0, r0, r0
     ef4:	00003400 	andeq	r3, r0, r0, lsl #8
     ef8:	00004f00 	andeq	r4, r0, r0, lsl #30
     efc:	51000100 	mrspl	r0, (UNDEF: 16)
     f00:	0000004f 	andeq	r0, r0, pc, asr #32
     f04:	00000104 	andeq	r0, r0, r4, lsl #2
     f08:	04540001 	ldrbeq	r0, [r4], #-1
     f0c:	24000001 	strcs	r0, [r0], #-1
     f10:	04000001 	streq	r0, [r0], #-1
     f14:	5101f300 	mrspl	pc, SP_irq	; <UNPREDICTABLE>
     f18:	0000009f 	muleq	r0, pc, r0	; <UNPREDICTABLE>
     f1c:	00000000 	andeq	r0, r0, r0
     f20:	00003400 	andeq	r3, r0, r0, lsl #8
     f24:	00004f00 	andeq	r4, r0, r0, lsl #30
     f28:	52000100 	andpl	r0, r0, #0, 2
     f2c:	0000004f 	andeq	r0, r0, pc, asr #32
     f30:	00000104 	andeq	r0, r0, r4, lsl #2
     f34:	04550001 	ldrbeq	r0, [r5], #-1
     f38:	24000001 	strcs	r0, [r0], #-1
     f3c:	04000001 	streq	r0, [r0], #-1
     f40:	5201f300 	andpl	pc, r1, #0, 6
     f44:	0000009f 	muleq	r0, pc, r0	; <UNPREDICTABLE>
     f48:	00000000 	andeq	r0, r0, r0
     f4c:	00012400 	andeq	r2, r1, r0, lsl #8
     f50:	00013300 	andeq	r3, r1, r0, lsl #6
     f54:	50000100 	andpl	r0, r0, r0, lsl #2
     f58:	00000133 	andeq	r0, r0, r3, lsr r1
     f5c:	000001b4 			; <UNDEFINED> instruction: 0x000001b4
     f60:	b4540001 	ldrblt	r0, [r4], #-1
     f64:	c8000001 	stmdagt	r0, {r0}
     f68:	04000001 	streq	r0, [r0], #-1
     f6c:	5001f300 	andpl	pc, r1, r0, lsl #6
     f70:	0000009f 	muleq	r0, pc, r0	; <UNPREDICTABLE>
     f74:	00000000 	andeq	r0, r0, r0
     f78:	00013400 	andeq	r3, r1, r0, lsl #8
     f7c:	00014b00 	andeq	r4, r1, r0, lsl #22
     f80:	50000100 	andpl	r0, r0, r0, lsl #2
     f84:	0000016c 	andeq	r0, r0, ip, ror #2
     f88:	00000177 	andeq	r0, r0, r7, ror r1
     f8c:	98500001 	ldmdals	r0, {r0}^
     f90:	ac000001 	stcge	0, cr0, [r0], {1}
     f94:	01000001 	tsteq	r0, r1
     f98:	00005000 	andeq	r5, r0, r0
     f9c:	00000000 	andeq	r0, r0, r0
     fa0:	01400000 	mrseq	r0, (UNDEF: 64)
     fa4:	014b0000 	mrseq	r0, (UNDEF: 75)
     fa8:	00010000 	andeq	r0, r1, r0
     fac:	00014b52 	andeq	r4, r1, r2, asr fp
     fb0:	00016c00 	andeq	r6, r1, r0, lsl #24
     fb4:	74000500 	strvc	r0, [r0], #-1280	; 0x500
     fb8:	9f243101 	svcls	0x00243101
     fbc:	0000016c 	andeq	r0, r0, ip, ror #2
     fc0:	00000177 	andeq	r0, r0, r7, ror r1
     fc4:	77520001 	ldrbvc	r0, [r2, -r1]
     fc8:	98000001 	stmdals	r0, {r0}
     fcc:	05000001 	streq	r0, [r0, #-1]
     fd0:	31017400 	tstcc	r1, r0, lsl #8
     fd4:	01989f24 	orrseq	r9, r8, r4, lsr #30
     fd8:	019c0000 	orrseq	r0, ip, r0
     fdc:	00010000 	andeq	r0, r1, r0
     fe0:	00019c52 	andeq	r9, r1, r2, asr ip
     fe4:	0001b400 	andeq	fp, r1, r0, lsl #8
     fe8:	74000500 	strvc	r0, [r0], #-1280	; 0x500
     fec:	9f243101 	svcls	0x00243101
     ff0:	000001b4 			; <UNDEFINED> instruction: 0x000001b4
     ff4:	000001c8 	andeq	r0, r0, r8, asr #3
     ff8:	01f30008 	mvnseq	r0, r8
     ffc:	31012350 	tstcc	r1, r0, asr r3
    1000:	00009f24 	andeq	r9, r0, r4, lsr #30
    1004:	00000000 	andeq	r0, r0, r0
    1008:	01400000 	mrseq	r0, (UNDEF: 64)
    100c:	014b0000 	mrseq	r0, (UNDEF: 75)
    1010:	00010000 	andeq	r0, r1, r0
    1014:	00014b53 	andeq	r4, r1, r3, asr fp
    1018:	00016c00 	andeq	r6, r1, r0, lsl #24
    101c:	74000500 	strvc	r0, [r0], #-1280	; 0x500
    1020:	9f243100 	svcls	0x00243100
    1024:	0000016c 	andeq	r0, r0, ip, ror #2
    1028:	00000177 	andeq	r0, r0, r7, ror r1
    102c:	77530001 	ldrbvc	r0, [r3, -r1]
    1030:	98000001 	stmdals	r0, {r0}
    1034:	05000001 	streq	r0, [r0, #-1]
    1038:	31007400 	tstcc	r0, r0, lsl #8
    103c:	01989f24 	orrseq	r9, r8, r4, lsr #30
    1040:	01c80000 	biceq	r0, r8, r0
    1044:	00010000 	andeq	r0, r1, r0
    1048:	00000053 	andeq	r0, r0, r3, asr r0
    104c:	00000000 	andeq	r0, r0, r0
    1050:	00014000 	andeq	r4, r1, r0
    1054:	00014b00 	andeq	r4, r1, r0, lsl #22
    1058:	50000100 	andpl	r0, r0, r0, lsl #2
    105c:	0000016c 	andeq	r0, r0, ip, ror #2
    1060:	00000177 	andeq	r0, r0, r7, ror r1
    1064:	98500001 	ldmdals	r0, {r0}^
    1068:	ac000001 	stcge	0, cr0, [r0], {1}
    106c:	01000001 	tsteq	r0, r1
    1070:	00005000 	andeq	r5, r0, r0
    1074:	00000000 	andeq	r0, r0, r0
    1078:	01a00000 	moveq	r0, r0
    107c:	01a80000 			; <UNDEFINED> instruction: 0x01a80000
    1080:	00010000 	andeq	r0, r1, r0
    1084:	0001a852 	andeq	sl, r1, r2, asr r8
    1088:	0001b400 	andeq	fp, r1, r0, lsl #8
    108c:	74000a00 	strvc	r0, [r0], #-2560	; 0xa00
    1090:	73243101 	teqvc	r4, #1073741824	; 0x40000000
    1094:	01231c00 	teqeq	r3, r0, lsl #24
    1098:	0001b49f 	muleq	r1, pc, r4	; <UNPREDICTABLE>
    109c:	0001c800 	andeq	ip, r1, r0, lsl #16
    10a0:	f3000d00 	vpadd.f32	d0, d0, d0
    10a4:	01235001 	teqeq	r3, r1
    10a8:	00732431 	rsbseq	r2, r3, r1, lsr r4
    10ac:	9f01231c 	svcls	0x0001231c
	...
    10b8:	000001c8 	andeq	r0, r0, r8, asr #3
    10bc:	000001e3 	andeq	r0, r0, r3, ror #3
    10c0:	e3500001 	cmp	r0, #1
    10c4:	04000001 	streq	r0, [r0], #-1
    10c8:	01000002 	tsteq	r0, r2
    10cc:	02045400 	andeq	r5, r4, #0, 8
    10d0:	020f0000 	andeq	r0, pc, #0
    10d4:	00010000 	andeq	r0, r1, r0
    10d8:	00020f50 	andeq	r0, r2, r0, asr pc
    10dc:	00023000 	andeq	r3, r2, r0
    10e0:	54000100 	strpl	r0, [r0], #-256	; 0x100
    10e4:	00000230 	andeq	r0, r0, r0, lsr r2
    10e8:	00000233 	andeq	r0, r0, r3, lsr r2
    10ec:	33500001 	cmpcc	r0, #1
    10f0:	38000002 	stmdacc	r0, {r1}
    10f4:	01000002 	tsteq	r0, r2
    10f8:	02385400 	eorseq	r5, r8, #0, 8
    10fc:	02640000 	rsbeq	r0, r4, #0
    1100:	00040000 	andeq	r0, r4, r0
    1104:	9f5001f3 	svcls	0x005001f3
	...
    1110:	000001c8 	andeq	r0, r0, r8, asr #3
    1114:	000001e3 	andeq	r0, r0, r3, ror #3
    1118:	e3510001 	cmp	r1, #1
    111c:	04000001 	streq	r0, [r0], #-1
    1120:	01000002 	tsteq	r0, r2
    1124:	02045500 	andeq	r5, r4, #0, 10
    1128:	020f0000 	andeq	r0, pc, #0
    112c:	00010000 	andeq	r0, r1, r0
    1130:	00020f51 	andeq	r0, r2, r1, asr pc
    1134:	00023000 	andeq	r3, r2, r0
    1138:	55000100 	strpl	r0, [r0, #-256]	; 0x100
    113c:	00000230 	andeq	r0, r0, r0, lsr r2
    1140:	00000233 	andeq	r0, r0, r3, lsr r2
    1144:	33510001 	cmpcc	r1, #1
    1148:	50000002 	andpl	r0, r0, r2
    114c:	01000002 	tsteq	r0, r2
    1150:	02505500 	subseq	r5, r0, #0, 10
    1154:	02640000 	rsbeq	r0, r4, #0
    1158:	00040000 	andeq	r0, r4, r0
    115c:	9f5101f3 	svcls	0x005101f3
	...
    1168:	00000240 	andeq	r0, r0, r0, asr #4
    116c:	00000244 	andeq	r0, r0, r4, asr #4
    1170:	00750009 	rsbseq	r0, r5, r9
    1174:	70240074 	eorvc	r0, r4, r4, ror r0
    1178:	449f2100 	ldrmi	r2, [pc], #256	; 1180 <__code_start__-0x6e80>
    117c:	47000002 	strmi	r0, [r0, -r2]
    1180:	01000002 	tsteq	r0, r2
    1184:	00005000 	andeq	r5, r0, r0
    1188:	00000000 	andeq	r0, r0, r0
    118c:	02780000 	rsbseq	r0, r8, #0
    1190:	02900000 	addseq	r0, r0, #0
    1194:	00010000 	andeq	r0, r1, r0
    1198:	00029050 	andeq	r9, r2, r0, asr r0
    119c:	00058400 	andeq	r8, r5, r0, lsl #8
    11a0:	56000100 	strpl	r0, [r0], -r0, lsl #2
    11a4:	00000584 	andeq	r0, r0, r4, lsl #11
    11a8:	000005f0 	strdeq	r0, [r0], -r0	; <UNPREDICTABLE>
    11ac:	01f30004 	mvnseq	r0, r4
    11b0:	00009f50 	andeq	r9, r0, r0, asr pc
    11b4:	00000000 	andeq	r0, r0, r0
    11b8:	02a00000 	adceq	r0, r0, #0
    11bc:	05840000 	streq	r0, [r4]
    11c0:	00010000 	andeq	r0, r1, r0
    11c4:	00000054 	andeq	r0, r0, r4, asr r0
    11c8:	00000000 	andeq	r0, r0, r0
    11cc:	00028c00 	andeq	r8, r2, r0, lsl #24
    11d0:	00058400 	andeq	r8, r5, r0, lsl #8
    11d4:	55000100 	strpl	r0, [r0, #-256]	; 0x100
	...
    11e0:	000005f0 	strdeq	r0, [r0], -r0	; <UNPREDICTABLE>
    11e4:	000005f7 	strdeq	r0, [r0], -r7
    11e8:	f7500001 			; <UNDEFINED> instruction: 0xf7500001
    11ec:	20000005 	andcs	r0, r0, r5
    11f0:	04000006 	streq	r0, [r0], #-6
    11f4:	5001f300 	andpl	pc, r1, r0, lsl #6
    11f8:	0000009f 	muleq	r0, pc, r0	; <UNPREDICTABLE>
    11fc:	00000000 	andeq	r0, r0, r0
    1200:	00088800 	andeq	r8, r8, r0, lsl #16
    1204:	0008a300 	andeq	sl, r8, r0, lsl #6
    1208:	50000100 	andpl	r0, r0, r0, lsl #2
    120c:	000008a3 	andeq	r0, r0, r3, lsr #17
    1210:	000008c4 	andeq	r0, r0, r4, asr #17
    1214:	01f30004 	mvnseq	r0, r4
    1218:	08c49f50 	stmiaeq	r4, {r4, r6, r8, r9, sl, fp, ip, pc}^
    121c:	08cc0000 	stmiaeq	ip, {}^	; <UNPREDICTABLE>
    1220:	00010000 	andeq	r0, r1, r0
    1224:	0008cc50 	andeq	ip, r8, r0, asr ip
    1228:	0008d400 	andeq	sp, r8, r0, lsl #8
    122c:	52000100 	andpl	r0, r0, #0, 2
    1230:	000008d4 	ldrdeq	r0, [r0], -r4
    1234:	000008db 	ldrdeq	r0, [r0], -fp
    1238:	db510001 	blle	1441244 <__bss_end__+0x143481c>
    123c:	fc000008 	stc2	0, cr0, [r0], {8}
    1240:	04000008 	streq	r0, [r0], #-8
    1244:	5001f300 	andpl	pc, r1, r0, lsl #6
    1248:	0000009f 	muleq	r0, pc, r0	; <UNPREDICTABLE>
    124c:	00000000 	andeq	r0, r0, r0
    1250:	0008fc00 	andeq	pc, r8, r0, lsl #24
    1254:	00091700 	andeq	r1, r9, r0, lsl #14
    1258:	50000100 	andpl	r0, r0, r0, lsl #2
    125c:	00000917 	andeq	r0, r0, r7, lsl r9
    1260:	00000938 	andeq	r0, r0, r8, lsr r9
    1264:	01f30004 	mvnseq	r0, r4
    1268:	09389f50 	ldmdbeq	r8!, {r4, r6, r8, r9, sl, fp, ip, pc}
    126c:	09400000 	stmdbeq	r0, {}^	; <UNPREDICTABLE>
    1270:	00010000 	andeq	r0, r1, r0
    1274:	00094050 	andeq	r4, r9, r0, asr r0
    1278:	00094800 	andeq	r4, r9, r0, lsl #16
    127c:	52000100 	andpl	r0, r0, #0, 2
    1280:	00000948 	andeq	r0, r0, r8, asr #18
    1284:	0000094f 	andeq	r0, r0, pc, asr #18
    1288:	4f510001 	svcmi	0x00510001
    128c:	70000009 	andvc	r0, r0, r9
    1290:	04000009 	streq	r0, [r0], #-9
    1294:	5001f300 	andpl	pc, r1, r0, lsl #6
    1298:	0000009f 	muleq	r0, pc, r0	; <UNPREDICTABLE>
    129c:	00000000 	andeq	r0, r0, r0
    12a0:	00097000 	andeq	r7, r9, r0
    12a4:	00097800 	andeq	r7, r9, r0, lsl #16
    12a8:	50000100 	andpl	r0, r0, r0, lsl #2
    12ac:	00000978 	andeq	r0, r0, r8, ror r9
    12b0:	00000984 	andeq	r0, r0, r4, lsl #19
    12b4:	00710005 	rsbseq	r0, r1, r5
    12b8:	849f2444 	ldrhi	r2, [pc], #1092	; 12c0 <__code_start__-0x6d40>
    12bc:	8b000009 	blhi	12e8 <__code_start__-0x6d18>
    12c0:	01000009 	tsteq	r0, r9
    12c4:	098b5100 	stmibeq	fp, {r8, ip, lr}
    12c8:	09940000 	ldmibeq	r4, {}	; <UNPREDICTABLE>
    12cc:	00080000 	andeq	r0, r8, r0
    12d0:	445001f3 	ldrbmi	r0, [r0], #-499	; 0x1f3
    12d4:	9f244425 	svcls	0x00244425
	...
    12e0:	00000a6c 	andeq	r0, r0, ip, ror #20
    12e4:	00000a77 	andeq	r0, r0, r7, ror sl
    12e8:	77500001 	ldrbvc	r0, [r0, -r1]
    12ec:	8800000a 	stmdahi	r0, {r1, r3}
    12f0:	0100000a 	tsteq	r0, sl
    12f4:	00005400 	andeq	r5, r0, r0, lsl #8
	...
    1300:	00240000 	eoreq	r0, r4, r0
    1304:	00010000 	andeq	r0, r1, r0
    1308:	00002450 	andeq	r2, r0, r0, asr r4
    130c:	0000e400 	andeq	lr, r0, r0, lsl #8
    1310:	f3000400 	vshl.u8	d0, d0, d0
    1314:	e49f5001 	ldr	r5, [pc], #1	; 131c <__code_start__-0x6ce4>
    1318:	e8000000 	stmda	r0, {}	; <UNPREDICTABLE>
    131c:	01000000 	mrseq	r0, (UNDEF: 0)
    1320:	00e85000 	rsceq	r5, r8, r0
    1324:	00f00000 	rscseq	r0, r0, r0
    1328:	00040000 	andeq	r0, r4, r0
    132c:	9f5001f3 	svcls	0x005001f3
	...
    133c:	00000020 	andeq	r0, r0, r0, lsr #32
    1340:	20510001 	subscs	r0, r1, r1
    1344:	80000000 	andhi	r0, r0, r0
    1348:	01000000 	mrseq	r0, (UNDEF: 0)
    134c:	009c5100 	addseq	r5, ip, r0, lsl #2
    1350:	00a00000 	adceq	r0, r0, r0
    1354:	00010000 	andeq	r0, r1, r0
    1358:	0000b851 	andeq	fp, r0, r1, asr r8
    135c:	0000c800 	andeq	ip, r0, r0, lsl #16
    1360:	51000100 	mrspl	r0, (UNDEF: 16)
    1364:	000000e4 	andeq	r0, r0, r4, ror #1
    1368:	000000e8 	andeq	r0, r0, r8, ror #1
    136c:	00510001 	subseq	r0, r1, r1
    1370:	00000000 	andeq	r0, r0, r0
    1374:	04000000 	streq	r0, [r0], #-0
    1378:	24000000 	strcs	r0, [r0], #-0
    137c:	01000000 	mrseq	r0, (UNDEF: 0)
    1380:	00245000 	eoreq	r5, r4, r0
    1384:	00900000 	addseq	r0, r0, r0
    1388:	00010000 	andeq	r0, r1, r0
    138c:	00009c53 	andeq	r9, r0, r3, asr ip
    1390:	0000a400 	andeq	sl, r0, r0, lsl #8
    1394:	53000100 	movwpl	r0, #256	; 0x100
    1398:	000000b8 	strheq	r0, [r0], -r8
    139c:	000000bc 	strheq	r0, [r0], -ip
    13a0:	e4530001 	ldrb	r0, [r3], #-1
    13a4:	e8000000 	stmda	r0, {}	; <UNPREDICTABLE>
    13a8:	01000000 	mrseq	r0, (UNDEF: 0)
    13ac:	00005000 	andeq	r5, r0, r0
    13b0:	00000000 	andeq	r0, r0, r0
    13b4:	00080000 	andeq	r0, r8, r0
    13b8:	00200000 	eoreq	r0, r0, r0
    13bc:	00010000 	andeq	r0, r1, r0
    13c0:	00002051 	andeq	r2, r0, r1, asr r0
    13c4:	00003400 	andeq	r3, r0, r0, lsl #8
    13c8:	52000100 	andpl	r0, r0, #0, 2
    13cc:	00000034 	andeq	r0, r0, r4, lsr r0
    13d0:	00000048 	andeq	r0, r0, r8, asr #32
    13d4:	48500001 	ldmdami	r0, {r0}^
    13d8:	cc000000 	stcgt	0, cr0, [r0], {-0}
    13dc:	01000000 	mrseq	r0, (UNDEF: 0)
    13e0:	00cc5200 	sbceq	r5, ip, r0, lsl #4
    13e4:	00e00000 	rsceq	r0, r0, r0
    13e8:	00010000 	andeq	r0, r1, r0
    13ec:	0000e450 	andeq	lr, r0, r0, asr r4
    13f0:	0000e800 	andeq	lr, r0, r0, lsl #16
    13f4:	51000100 	mrspl	r0, (UNDEF: 16)
	...
    1400:	00000044 	andeq	r0, r0, r4, asr #32
    1404:	00000048 	andeq	r0, r0, r8, asr #32
    1408:	48520001 	ldmdami	r2, {r0}^
    140c:	4c000000 	stcmi	0, cr0, [r0], {-0}
    1410:	12000000 	andne	r0, r0, #0
    1414:	38007c00 	stmdacc	r0, {sl, fp, ip, sp, lr}
    1418:	94027324 	strls	r7, [r2], #-804	; 0x324
    141c:	1aff0801 	bne	fffc3428 <__bss_end__+0xfffb6a00>
    1420:	70243b22 	eorvc	r3, r4, r2, lsr #22
    1424:	4c9f2700 	ldcmi	7, cr2, [pc], {0}
    1428:	54000000 	strpl	r0, [r0], #-0
    142c:	12000000 	andne	r0, r0, #0
    1430:	38007c00 	stmdacc	r0, {sl, fp, ip, sp, lr}
    1434:	947e7324 	ldrbtls	r7, [lr], #-804	; 0x324
    1438:	1aff0801 	bne	fffc3444 <__bss_end__+0xfffb6a1c>
    143c:	70243b22 	eorvc	r3, r4, r2, lsr #22
    1440:	009f2700 	addseq	r2, pc, r0, lsl #14
    1444:	00000000 	andeq	r0, r0, r0
    1448:	1c000000 	stcne	0, cr0, [r0], {-0}
    144c:	e4000000 	str	r0, [r0], #-0
    1450:	01000000 	mrseq	r0, (UNDEF: 0)
    1454:	00005400 	andeq	r5, r0, r0, lsl #8
	...
    1460:	00040000 	andeq	r0, r4, r0
    1464:	00010000 	andeq	r0, r1, r0
    1468:	00000452 	andeq	r0, r0, r2, asr r4
    146c:	00002000 	andeq	r2, r0, r0
    1470:	f3000400 	vshl.u8	d0, d0, d0
    1474:	009f5201 	addseq	r5, pc, r1, lsl #4
	...
    1480:	0c000000 	stceq	0, cr0, [r0], {-0}
    1484:	01000000 	mrseq	r0, (UNDEF: 0)
    1488:	000c5000 	andeq	r5, ip, r0
    148c:	00140000 	andseq	r0, r4, r0
    1490:	00030000 	andeq	r0, r3, r0
    1494:	149f0173 	ldrne	r0, [pc], #371	; 149c <__code_start__-0x6b64>
    1498:	20000000 	andcs	r0, r0, r0
    149c:	01000000 	mrseq	r0, (UNDEF: 0)
    14a0:	00005300 	andeq	r5, r0, r0, lsl #6
    14a4:	00000000 	andeq	r0, r0, r0
    14a8:	002c0000 	eoreq	r0, ip, r0
    14ac:	00380000 	eorseq	r0, r8, r0
    14b0:	00010000 	andeq	r0, r1, r0
    14b4:	00003850 	andeq	r3, r0, r0, asr r8
    14b8:	00004800 	andeq	r4, r0, r0, lsl #16
    14bc:	55000100 	strpl	r0, [r0, #-256]	; 0x100
    14c0:	00000048 	andeq	r0, r0, r8, asr #32
    14c4:	00000058 	andeq	r0, r0, r8, asr r0
    14c8:	00500001 	subseq	r0, r0, r1
	...
    14d4:	0b000000 	bleq	14dc <__code_start__-0x6b24>
    14d8:	01000000 	mrseq	r0, (UNDEF: 0)
    14dc:	000b5000 	andeq	r5, fp, r0
    14e0:	00140000 	andseq	r0, r4, r0
    14e4:	00010000 	andeq	r0, r1, r0
    14e8:	00000054 	andeq	r0, r0, r4, asr r0
	...
    14f4:	00001000 	andeq	r1, r0, r0
    14f8:	50000100 	andpl	r0, r0, r0, lsl #2
    14fc:	00000010 	andeq	r0, r0, r0, lsl r0
    1500:	00000034 	andeq	r0, r0, r4, lsr r0
    1504:	00540001 	subseq	r0, r4, r1
	...
    1510:	04000000 	streq	r0, [r0], #-0
    1514:	01000000 	mrseq	r0, (UNDEF: 0)
    1518:	00045000 	andeq	r5, r4, r0
    151c:	000c0000 	andeq	r0, ip, r0
    1520:	00030000 	andeq	r0, r3, r0
    1524:	0c9f3070 	ldceq	0, cr3, [pc], {112}	; 0x70
    1528:	14000000 	strne	r0, [r0], #-0
    152c:	04000000 	streq	r0, [r0], #-0
    1530:	5001f300 	andpl	pc, r1, r0, lsl #6
    1534:	0000009f 	muleq	r0, pc, r0	; <UNPREDICTABLE>
    1538:	00000000 	andeq	r0, r0, r0
    153c:	00001400 	andeq	r1, r0, r0, lsl #8
    1540:	00002000 	andeq	r2, r0, r0
    1544:	50000100 	andpl	r0, r0, r0, lsl #2
    1548:	00000020 	andeq	r0, r0, r0, lsr #32
    154c:	0000002c 	andeq	r0, r0, ip, lsr #32
    1550:	01700003 	cmneq	r0, r3
    1554:	00002c9f 	muleq	r0, pc, ip	; <UNPREDICTABLE>
    1558:	00004000 	andeq	r4, r0, r0
    155c:	50000100 	andpl	r0, r0, r0, lsl #2
	...
    1568:	00000014 	andeq	r0, r0, r4, lsl r0
    156c:	00000018 	andeq	r0, r0, r8, lsl r0
    1570:	18510001 	ldmdane	r1, {r0}^
    1574:	40000000 	andmi	r0, r0, r0
    1578:	04000000 	streq	r0, [r0], #-0
    157c:	5101f300 	mrspl	pc, SP_irq	; <UNPREDICTABLE>
    1580:	0000009f 	muleq	r0, pc, r0	; <UNPREDICTABLE>
    1584:	00000000 	andeq	r0, r0, r0
    1588:	00004000 	andeq	r4, r0, r0
    158c:	00006000 	andeq	r6, r0, r0
    1590:	50000100 	andpl	r0, r0, r0, lsl #2
    1594:	00000060 	andeq	r0, r0, r0, rrx
    1598:	0000006c 	andeq	r0, r0, ip, rrx
    159c:	01710003 	cmneq	r1, r3
    15a0:	00006c9f 	muleq	r0, pc, ip	; <UNPREDICTABLE>
    15a4:	00007400 	andeq	r7, r0, r0, lsl #8
    15a8:	51000100 	mrspl	r0, (UNDEF: 16)
    15ac:	00000074 	andeq	r0, r0, r4, ror r0
    15b0:	00000080 	andeq	r0, r0, r0, lsl #1
    15b4:	01710003 	cmneq	r1, r3
    15b8:	0000009f 	muleq	r0, pc, r0	; <UNPREDICTABLE>
    15bc:	00000000 	andeq	r0, r0, r0
    15c0:	00004000 	andeq	r4, r0, r0
    15c4:	00005000 	andeq	r5, r0, r0
    15c8:	51000100 	mrspl	r0, (UNDEF: 16)
    15cc:	00000050 	andeq	r0, r0, r0, asr r0
    15d0:	00000080 	andeq	r0, r0, r0, lsl #1
    15d4:	01f30004 	mvnseq	r0, r4
    15d8:	00009f51 	andeq	r9, r0, r1, asr pc
    15dc:	00000000 	andeq	r0, r0, r0
    15e0:	00400000 	subeq	r0, r0, r0
    15e4:	00580000 	subseq	r0, r8, r0
    15e8:	00010000 	andeq	r0, r1, r0
    15ec:	00005852 	andeq	r5, r0, r2, asr r8
    15f0:	00006400 	andeq	r6, r0, r0, lsl #8
    15f4:	52000100 	andpl	r0, r0, #0, 2
    15f8:	00000064 	andeq	r0, r0, r4, rrx
    15fc:	00000068 	andeq	r0, r0, r8, rrx
    1600:	01720003 	cmneq	r2, r3
    1604:	0000689f 	muleq	r0, pc, r8	; <UNPREDICTABLE>
    1608:	00008000 	andeq	r8, r0, r0
    160c:	52000100 	andpl	r0, r0, #0, 2
	...
    1618:	00000040 	andeq	r0, r0, r0, asr #32
    161c:	00000054 	andeq	r0, r0, r4, asr r0
    1620:	54530001 	ldrbpl	r0, [r3], #-1
    1624:	78000000 	stmdavc	r0, {}	; <UNPREDICTABLE>
    1628:	01000000 	mrseq	r0, (UNDEF: 0)
    162c:	00005300 	andeq	r5, r0, r0, lsl #6
    1630:	00000000 	andeq	r0, r0, r0
    1634:	00480000 	subeq	r0, r8, r0
    1638:	00600000 	rsbeq	r0, r0, r0
    163c:	00010000 	andeq	r0, r1, r0
    1640:	0000605c 	andeq	r6, r0, ip, asr r0
    1644:	00008000 	andeq	r8, r0, r0
    1648:	f3000a00 	vpmax.u8	d0, d0, d0
    164c:	01f35201 	mvnseq	r5, r1, lsl #4
    1650:	01231c53 	teqeq	r3, r3, asr ip
    1654:	0000009f 	muleq	r0, pc, r0	; <UNPREDICTABLE>
    1658:	00000000 	andeq	r0, r0, r0
    165c:	00008000 	andeq	r8, r0, r0
    1660:	0000a400 	andeq	sl, r0, r0, lsl #8
    1664:	50000100 	andpl	r0, r0, r0, lsl #2
    1668:	000000a4 	andeq	r0, r0, r4, lsr #1
    166c:	00000118 	andeq	r0, r0, r8, lsl r1
    1670:	02700003 	rsbseq	r0, r0, #3
    1674:	0001189f 	muleq	r1, pc, r8	; <UNPREDICTABLE>
    1678:	00023c00 	andeq	r3, r2, r0, lsl #24
    167c:	f3000400 	vshl.u8	d0, d0, d0
    1680:	009f5001 	addseq	r5, pc, r1
    1684:	00000000 	andeq	r0, r0, r0
    1688:	80000000 	andhi	r0, r0, r0
    168c:	f0000000 			; <UNDEFINED> instruction: 0xf0000000
    1690:	01000000 	mrseq	r0, (UNDEF: 0)
    1694:	00f05100 	rscseq	r5, r0, r0, lsl #2
    1698:	01600000 	cmneq	r0, r0
    169c:	00010000 	andeq	r0, r1, r0
    16a0:	00016055 	andeq	r6, r1, r5, asr r0
    16a4:	00016c00 	andeq	r6, r1, r0, lsl #24
    16a8:	51000100 	mrspl	r0, (UNDEF: 16)
    16ac:	0000016c 	andeq	r0, r0, ip, ror #2
    16b0:	000001a0 	andeq	r0, r0, r0, lsr #3
    16b4:	a0550001 	subsge	r0, r5, r1
    16b8:	b4000001 	strlt	r0, [r0], #-1
    16bc:	01000001 	tsteq	r0, r1
    16c0:	01b45100 			; <UNDEFINED> instruction: 0x01b45100
    16c4:	01d40000 	bicseq	r0, r4, r0
    16c8:	00010000 	andeq	r0, r1, r0
    16cc:	0001d455 	andeq	sp, r1, r5, asr r4
    16d0:	0001d700 	andeq	sp, r1, r0, lsl #14
    16d4:	51000100 	mrspl	r0, (UNDEF: 16)
    16d8:	000001d7 	ldrdeq	r0, [r0], -r7
    16dc:	0000021c 	andeq	r0, r0, ip, lsl r2
    16e0:	1c550001 	mrrcne	0, 0, r0, r5, cr1
    16e4:	3c000002 	stccc	0, cr0, [r0], {2}
    16e8:	04000002 	streq	r0, [r0], #-2
    16ec:	5101f300 	mrspl	pc, SP_irq	; <UNPREDICTABLE>
    16f0:	0000009f 	muleq	r0, pc, r0	; <UNPREDICTABLE>
    16f4:	00000000 	andeq	r0, r0, r0
    16f8:	00008000 	andeq	r8, r0, r0
    16fc:	00009400 	andeq	r9, r0, r0, lsl #8
    1700:	52000100 	andpl	r0, r0, #0, 2
    1704:	00000094 	muleq	r0, r4, r0
    1708:	0000021c 	andeq	r0, r0, ip, lsl r2
    170c:	1c540001 	mrrcne	0, 0, r0, r4, cr1
    1710:	3c000002 	stccc	0, cr0, [r0], {2}
    1714:	04000002 	streq	r0, [r0], #-2
    1718:	5201f300 	andpl	pc, r1, #0, 6
    171c:	0000009f 	muleq	r0, pc, r0	; <UNPREDICTABLE>
    1720:	00000000 	andeq	r0, r0, r0
    1724:	00008000 	andeq	r8, r0, r0
    1728:	00010000 	andeq	r0, r1, r0
    172c:	53000100 	movwpl	r0, #256	; 0x100
    1730:	00000104 	andeq	r0, r0, r4, lsl #2
    1734:	00000108 	andeq	r0, r0, r8, lsl #2
    1738:	60530001 	subsvs	r0, r3, r1
    173c:	64000001 	strvs	r0, [r0], #-1
    1740:	01000001 	tsteq	r0, r1
    1744:	01645300 	cmneq	r4, r0, lsl #6
    1748:	016c0000 	cmneq	ip, r0
    174c:	00010000 	andeq	r0, r1, r0
    1750:	00016c5c 	andeq	r6, r1, ip, asr ip
    1754:	0001a000 	andeq	sl, r1, r0
    1758:	f3000400 	vshl.u8	d0, d0, d0
    175c:	a09f5301 	addsge	r5, pc, r1, lsl #6
    1760:	b0000001 	andlt	r0, r0, r1
    1764:	01000001 	tsteq	r0, r1
    1768:	01b05300 	lslseq	r5, r0, #6
    176c:	01b40000 			; <UNDEFINED> instruction: 0x01b40000
    1770:	00010000 	andeq	r0, r1, r0
    1774:	0001b45c 	andeq	fp, r1, ip, asr r4
    1778:	0001d400 	andeq	sp, r1, r0, lsl #8
    177c:	f3000400 	vshl.u8	d0, d0, d0
    1780:	d49f5301 	ldrle	r5, [pc], #769	; 1788 <__code_start__-0x6878>
    1784:	d7000001 	strle	r0, [r0, -r1]
    1788:	01000001 	tsteq	r0, r1
    178c:	01d75300 	bicseq	r5, r7, r0, lsl #6
    1790:	01f80000 	mvnseq	r0, r0
    1794:	00040000 	andeq	r0, r4, r0
    1798:	9f5301f3 	svcls	0x005301f3
	...
    17a4:	00000080 	andeq	r0, r0, r0, lsl #1
    17a8:	0000009c 	muleq	r0, ip, r0
    17ac:	00910002 	addseq	r0, r1, r2
    17b0:	0000009c 	muleq	r0, ip, r0
    17b4:	000001d7 	ldrdeq	r0, [r0], -r7
    17b8:	f8520001 			; <UNDEFINED> instruction: 0xf8520001
    17bc:	ff000001 			; <UNDEFINED> instruction: 0xff000001
    17c0:	01000001 	tsteq	r0, r1
    17c4:	00005200 	andeq	r5, r0, r0, lsl #4
    17c8:	00000000 	andeq	r0, r0, r0
    17cc:	009c0000 	addseq	r0, ip, r0
    17d0:	010c0000 	mrseq	r0, (UNDEF: 12)
    17d4:	00040000 	andeq	r0, r4, r0
    17d8:	9f7fa091 	svcls	0x007fa091
    17dc:	0000010c 	andeq	r0, r0, ip, lsl #2
    17e0:	00000118 	andeq	r0, r0, r8, lsl r1
    17e4:	18510001 	ldmdane	r1, {r0}^
    17e8:	1c000001 	stcne	0, cr0, [r0], {1}
    17ec:	01000001 	tsteq	r0, r1
    17f0:	011c5000 	tsteq	ip, r0
    17f4:	01200000 	teqeq	r0, r0
    17f8:	00010000 	andeq	r0, r1, r0
    17fc:	00012051 	andeq	r2, r1, r1, asr r0
    1800:	00016000 	andeq	r6, r1, r0
    1804:	50000100 	andpl	r0, r0, r0, lsl #2
    1808:	00000160 	andeq	r0, r0, r0, ror #2
    180c:	00000164 	andeq	r0, r0, r4, ror #2
    1810:	a0910004 	addsge	r0, r1, r4
    1814:	01649f7f 	smceq	18943	; 0x49ff
    1818:	016c0000 	cmneq	ip, r0
    181c:	00010000 	andeq	r0, r1, r0
    1820:	00016c53 	andeq	r6, r1, r3, asr ip
    1824:	00017000 	andeq	r7, r1, r0
    1828:	50000100 	andpl	r0, r0, r0, lsl #2
    182c:	00000170 	andeq	r0, r0, r0, ror r1
    1830:	00000174 	andeq	r0, r0, r4, ror r1
    1834:	74530001 	ldrbvc	r0, [r3], #-1
    1838:	88000001 	stmdahi	r0, {r0}
    183c:	01000001 	tsteq	r0, r1
    1840:	01885000 	orreq	r5, r8, r0
    1844:	01940000 	orrseq	r0, r4, r0
    1848:	00030000 	andeq	r0, r3, r0
    184c:	949f0170 	ldrls	r0, [pc], #368	; 1854 <__code_start__-0x67ac>
    1850:	a0000001 	andge	r0, r0, r1
    1854:	01000001 	tsteq	r0, r1
    1858:	01a05000 	moveq	r5, r0
    185c:	01a80000 			; <UNDEFINED> instruction: 0x01a80000
    1860:	00040000 	andeq	r0, r4, r0
    1864:	9f7fa191 	svcls	0x007fa191
    1868:	000001a8 	andeq	r0, r0, r8, lsr #3
    186c:	000001ac 	andeq	r0, r0, ip, lsr #3
    1870:	ac500001 	mrrcge	0, 0, r0, r0, cr1	; <UNPREDICTABLE>
    1874:	b0000001 	andlt	r0, r0, r1
    1878:	04000001 	streq	r0, [r0], #-1
    187c:	7fa09100 	svcvc	0x00a09100
    1880:	0001b09f 	muleq	r1, pc, r0	; <UNPREDICTABLE>
    1884:	0001b800 	andeq	fp, r1, r0, lsl #16
    1888:	53000100 	movwpl	r0, #256	; 0x100
    188c:	000001b8 			; <UNDEFINED> instruction: 0x000001b8
    1890:	000001d4 	ldrdeq	r0, [r0], -r4
    1894:	d4500001 	ldrble	r0, [r0], #-1
    1898:	f8000001 			; <UNDEFINED> instruction: 0xf8000001
    189c:	04000001 	streq	r0, [r0], #-1
    18a0:	7fa09100 	svcvc	0x00a09100
    18a4:	0001f89f 	muleq	r1, pc, r8	; <UNPREDICTABLE>
    18a8:	0001ff00 	andeq	pc, r1, r0, lsl #30
    18ac:	50000100 	andpl	r0, r0, r0, lsl #2
	...
    18b8:	000000a0 	andeq	r0, r0, r0, lsr #1
    18bc:	000000ec 	andeq	r0, r0, ip, ror #1
    18c0:	ec5c0001 	mrrc	0, 0, r0, ip, cr1
    18c4:	00000000 	andeq	r0, r0, r0
    18c8:	01000001 	tsteq	r0, r1
    18cc:	01005300 	mrseq	r5, LR_irq
    18d0:	01040000 	mrseq	r0, (UNDEF: 4)
    18d4:	00010000 	andeq	r0, r1, r0
    18d8:	0001045c 	andeq	r0, r1, ip, asr r4
    18dc:	00010800 	andeq	r0, r1, r0, lsl #16
    18e0:	53000100 	movwpl	r0, #256	; 0x100
    18e4:	00000108 	andeq	r0, r0, r8, lsl #2
    18e8:	00000160 	andeq	r0, r0, r0, ror #2
    18ec:	605c0001 	subsvs	r0, ip, r1
    18f0:	64000001 	strvs	r0, [r0], #-1
    18f4:	01000001 	tsteq	r0, r1
    18f8:	01645300 	cmneq	r4, r0, lsl #6
    18fc:	01800000 	orreq	r0, r0, r0
    1900:	00010000 	andeq	r0, r1, r0
    1904:	0001805c 	andeq	r8, r1, ip, asr r0
    1908:	00018400 	andeq	r8, r1, r0, lsl #8
    190c:	7c000500 	cfstr32vc	mvfx0, [r0], {-0}
    1910:	9f253400 	svcls	0x00253400
    1914:	00000184 	andeq	r0, r0, r4, lsl #3
    1918:	000001a0 	andeq	r0, r0, r0, lsr #3
    191c:	a05c0001 	subsge	r0, ip, r1
    1920:	b0000001 	andlt	r0, r0, r1
    1924:	01000001 	tsteq	r0, r1
    1928:	01b05300 	lslseq	r5, r0, #6
    192c:	01c40000 	biceq	r0, r4, r0
    1930:	00010000 	andeq	r0, r1, r0
    1934:	0001c45c 	andeq	ip, r1, ip, asr r4
    1938:	0001cc00 	andeq	ip, r1, r0, lsl #24
    193c:	7c000500 	cfstr32vc	mvfx0, [r0], {-0}
    1940:	9f253100 	svcls	0x00253100
    1944:	000001cc 	andeq	r0, r0, ip, asr #3
    1948:	000001d4 	ldrdeq	r0, [r0], -r4
    194c:	d45c0001 	ldrble	r0, [ip], #-1
    1950:	d7000001 	strle	r0, [r0, -r1]
    1954:	01000001 	tsteq	r0, r1
    1958:	01d75300 	bicseq	r5, r7, r0, lsl #6
    195c:	01f80000 	mvnseq	r0, r0
    1960:	00040000 	andeq	r0, r4, r0
    1964:	9f5301f3 	svcls	0x005301f3
    1968:	000001f8 	strdeq	r0, [r0], -r8
    196c:	000001ff 	strdeq	r0, [r0], -pc	; <UNPREDICTABLE>
    1970:	005c0001 	subseq	r0, ip, r1
    1974:	00000000 	andeq	r0, r0, r0
    1978:	ec000000 	stc	0, cr0, [r0], {-0}
    197c:	fc000000 	stc2	0, cr0, [r0], {-0}
    1980:	02000000 	andeq	r0, r0, #0
    1984:	fc9f3000 	ldc2	0, cr3, [pc], {0}
    1988:	04000000 	streq	r0, [r0], #-0
    198c:	02000001 	andeq	r0, r0, #1
    1990:	049f3100 	ldreq	r3, [pc], #256	; 1998 <__code_start__-0x6668>
    1994:	08000001 	stmdaeq	r0, {r0}
    1998:	02000001 	andeq	r0, r0, #1
    199c:	009f3000 	addseq	r3, pc, r0
    19a0:	00000000 	andeq	r0, r0, r0
    19a4:	3c000000 	stccc	0, cr0, [r0], {-0}
    19a8:	4f000002 	svcmi	0x00000002
    19ac:	01000002 	tsteq	r0, r2
    19b0:	024f5000 	subeq	r5, pc, #0
    19b4:	02700000 	rsbseq	r0, r0, #0
    19b8:	00040000 	andeq	r0, r4, r0
    19bc:	9f5001f3 	svcls	0x005001f3
    19c0:	00000270 	andeq	r0, r0, r0, ror r2
    19c4:	000002a4 	andeq	r0, r0, r4, lsr #5
    19c8:	00500001 	subseq	r0, r0, r1
    19cc:	00000000 	andeq	r0, r0, r0
    19d0:	3c000000 	stccc	0, cr0, [r0], {-0}
    19d4:	4f000002 	svcmi	0x00000002
    19d8:	01000002 	tsteq	r0, r2
    19dc:	024f5100 	subeq	r5, pc, #0, 2
    19e0:	02700000 	rsbseq	r0, r0, #0
    19e4:	00040000 	andeq	r0, r4, r0
    19e8:	9f5101f3 	svcls	0x005101f3
    19ec:	00000270 	andeq	r0, r0, r0, ror r2
    19f0:	000002a4 	andeq	r0, r0, r4, lsr #5
    19f4:	00510001 	subseq	r0, r1, r1
    19f8:	00000000 	andeq	r0, r0, r0
    19fc:	a4000000 	strge	r0, [r0], #-0
    1a00:	d4000002 	strle	r0, [r0], #-2
    1a04:	01000002 	tsteq	r0, r2
    1a08:	02d45000 	sbcseq	r5, r4, #0
    1a0c:	05580000 	ldrbeq	r0, [r8, #-0]
    1a10:	00010000 	andeq	r0, r1, r0
    1a14:	0005585b 	andeq	r5, r5, fp, asr r8
    1a18:	00057800 	andeq	r7, r5, r0, lsl #16
    1a1c:	f3000400 	vshl.u8	d0, d0, d0
    1a20:	009f5001 	addseq	r5, pc, r1
    1a24:	00000000 	andeq	r0, r0, r0
    1a28:	a4000000 	strge	r0, [r0], #-0
    1a2c:	bc000002 	stclt	0, cr0, [r0], {2}
    1a30:	01000002 	tsteq	r0, r2
    1a34:	02bc5100 	adcseq	r5, ip, #0, 2
    1a38:	02d40000 	sbcseq	r0, r4, #0
    1a3c:	00030000 	andeq	r0, r3, r0
    1a40:	d49f0171 	ldrle	r0, [pc], #369	; 1a48 <__code_start__-0x65b8>
    1a44:	78000002 	stmdavc	r0, {r1}
    1a48:	04000005 	streq	r0, [r0], #-5
    1a4c:	5101f300 	mrspl	pc, SP_irq	; <UNPREDICTABLE>
    1a50:	0000009f 	muleq	r0, pc, r0	; <UNPREDICTABLE>
    1a54:	00000000 	andeq	r0, r0, r0
    1a58:	0002a400 	andeq	sl, r2, r0, lsl #8
    1a5c:	0002d400 	andeq	sp, r2, r0, lsl #8
    1a60:	52000100 	andpl	r0, r0, #0, 2
    1a64:	000002d4 	ldrdeq	r0, [r0], -r4
    1a68:	00000558 	andeq	r0, r0, r8, asr r5
    1a6c:	00560001 	subseq	r0, r6, r1
    1a70:	00000000 	andeq	r0, r0, r0
    1a74:	a4000000 	strge	r0, [r0], #-0
    1a78:	c4000002 	strgt	r0, [r0], #-2
    1a7c:	01000002 	tsteq	r0, r2
    1a80:	00005300 	andeq	r5, r0, r0, lsl #6
    1a84:	00000000 	andeq	r0, r0, r0
    1a88:	02b80000 	adcseq	r0, r8, #0
    1a8c:	02d40000 	sbcseq	r0, r4, #0
    1a90:	00010000 	andeq	r0, r1, r0
    1a94:	0002d450 	andeq	sp, r2, r0, asr r4
    1a98:	0002d800 	andeq	sp, r2, r0, lsl #16
    1a9c:	54000100 	strpl	r0, [r0], #-256	; 0x100
    1aa0:	000002d8 	ldrdeq	r0, [r0], -r8
    1aa4:	000002e4 	andeq	r0, r0, r4, ror #5
    1aa8:	01740003 	cmneq	r4, r3
    1aac:	0002e49f 	muleq	r2, pc, r4	; <UNPREDICTABLE>
    1ab0:	0002f000 	andeq	pc, r2, r0
    1ab4:	54000100 	strpl	r0, [r0], #-256	; 0x100
    1ab8:	000002f0 	strdeq	r0, [r0], -r0	; <UNPREDICTABLE>
    1abc:	000002fc 	strdeq	r0, [r0], -ip
    1ac0:	01740003 	cmneq	r4, r3
    1ac4:	0002fc9f 	muleq	r2, pc, ip	; <UNPREDICTABLE>
    1ac8:	00050c00 	andeq	r0, r5, r0, lsl #24
    1acc:	54000100 	strpl	r0, [r0], #-256	; 0x100
    1ad0:	0000050c 	andeq	r0, r0, ip, lsl #10
    1ad4:	00000518 	andeq	r0, r0, r8, lsl r5
    1ad8:	01740003 	cmneq	r4, r3
    1adc:	0005189f 	muleq	r5, pc, r8	; <UNPREDICTABLE>
    1ae0:	00054400 	andeq	r4, r5, r0, lsl #8
    1ae4:	54000100 	strpl	r0, [r0], #-256	; 0x100
    1ae8:	00000544 	andeq	r0, r0, r4, asr #10
    1aec:	00000550 	andeq	r0, r0, r0, asr r5
    1af0:	50500001 	subspl	r0, r0, r1
    1af4:	58000005 	stmdapl	r0, {r0, r2}
    1af8:	03000005 	movweq	r0, #5
    1afc:	9f017400 	svcls	0x00017400
	...
    1b08:	000002c0 	andeq	r0, r0, r0, asr #5
    1b0c:	00000558 	andeq	r0, r0, r8, asr r5
    1b10:	58580001 	ldmdapl	r8, {r0}^
    1b14:	78000005 	stmdavc	r0, {r0, r2}
    1b18:	0a000005 	beq	1b34 <__code_start__-0x64cc>
    1b1c:	5101f300 	mrspl	pc, SP_irq	; <UNPREDICTABLE>
    1b20:	225001f3 	subscs	r0, r0, #-1073741764	; 0xc000003c
    1b24:	009f1c31 	addseq	r1, pc, r1, lsr ip	; <UNPREDICTABLE>
    1b28:	00000000 	andeq	r0, r0, r0
    1b2c:	c8000000 	stmdagt	r0, {}	; <UNPREDICTABLE>
    1b30:	d4000002 	strle	r0, [r0], #-2
    1b34:	01000002 	tsteq	r0, r2
    1b38:	02d45200 	sbcseq	r5, r4, #0, 4
    1b3c:	05780000 	ldrbeq	r0, [r8, #-0]!
    1b40:	00030000 	andeq	r0, r3, r0
    1b44:	007ecc91 			; <UNDEFINED> instruction: 0x007ecc91
    1b48:	00000000 	andeq	r0, r0, r0
    1b4c:	10000000 	andne	r0, r0, r0
    1b50:	14000004 	strne	r0, [r0], #-4
    1b54:	01000004 	tsteq	r0, r4
    1b58:	04385000 	ldrteq	r5, [r8], #-0
    1b5c:	043c0000 	ldrteq	r0, [ip], #-0
    1b60:	00010000 	andeq	r0, r1, r0
    1b64:	00046050 	andeq	r6, r4, r0, asr r0
    1b68:	00046400 	andeq	r6, r4, r0, lsl #8
    1b6c:	50000100 	andpl	r0, r0, r0, lsl #2
    1b70:	00000488 	andeq	r0, r0, r8, lsl #9
    1b74:	0000048c 	andeq	r0, r0, ip, lsl #9
    1b78:	94500001 	ldrbls	r0, [r0], #-1
    1b7c:	98000004 	stmdals	r0, {r2}
    1b80:	01000004 	tsteq	r0, r4
    1b84:	04bc5000 	ldrteq	r5, [ip], #0
    1b88:	04c00000 	strbeq	r0, [r0], #0
    1b8c:	00010000 	andeq	r0, r1, r0
    1b90:	00050450 	andeq	r0, r5, r0, asr r4
    1b94:	00052c00 	andeq	r2, r5, r0, lsl #24
    1b98:	50000100 	andpl	r0, r0, r0, lsl #2
	...
    1ba4:	00000304 	andeq	r0, r0, r4, lsl #6
    1ba8:	0000030c 	andeq	r0, r0, ip, lsl #6
    1bac:	9f300002 	svcls	0x00300002
    1bb0:	0000030c 	andeq	r0, r0, ip, lsl #6
    1bb4:	00000310 	andeq	r0, r0, r0, lsl r3
    1bb8:	1c570001 	mrrcne	0, 0, r0, r7, cr1
    1bbc:	2c000003 	stccs	0, cr0, [r0], {3}
    1bc0:	01000005 	tsteq	r0, r5
    1bc4:	00005700 	andeq	r5, r0, r0, lsl #14
    1bc8:	00000000 	andeq	r0, r0, r0
    1bcc:	00140000 	andseq	r0, r4, r0
    1bd0:	001c0000 	andseq	r0, ip, r0
    1bd4:	00030000 	andeq	r0, r3, r0
    1bd8:	1c9f0473 	cfldrsne	mvf0, [pc], {115}	; 0x73
    1bdc:	27000000 	strcs	r0, [r0, -r0]
    1be0:	01000000 	mrseq	r0, (UNDEF: 0)
    1be4:	00005300 	andeq	r5, r0, r0, lsl #6
	...
    1bf0:	000f0000 	andeq	r0, pc, r0
    1bf4:	00010000 	andeq	r0, r1, r0
    1bf8:	00000f50 	andeq	r0, r0, r0, asr pc
    1bfc:	00004400 	andeq	r4, r0, r0, lsl #8
    1c00:	54000100 	strpl	r0, [r0], #-256	; 0x100
	...
    1c10:	0000000f 	andeq	r0, r0, pc
    1c14:	0f500001 	svceq	0x00500001
    1c18:	44000000 	strmi	r0, [r0], #-0
    1c1c:	01000000 	mrseq	r0, (UNDEF: 0)
    1c20:	00005400 	andeq	r5, r0, r0, lsl #8
	...
    1c2c:	000f0000 	andeq	r0, pc, r0
    1c30:	00010000 	andeq	r0, r1, r0
    1c34:	00000f50 	andeq	r0, r0, r0, asr pc
    1c38:	00004400 	andeq	r4, r0, r0, lsl #8
    1c3c:	54000100 	strpl	r0, [r0], #-256	; 0x100
	...
    1c4c:	0000000f 	andeq	r0, r0, pc
    1c50:	0f500001 	svceq	0x00500001
    1c54:	44000000 	strmi	r0, [r0], #-0
    1c58:	01000000 	mrseq	r0, (UNDEF: 0)
    1c5c:	00005400 	andeq	r5, r0, r0, lsl #8
    1c60:	00000000 	andeq	r0, r0, r0
    1c64:	00340000 	eorseq	r0, r4, r0
    1c68:	00400000 	subeq	r0, r0, r0
    1c6c:	00020000 	andeq	r0, r2, r0
    1c70:	00409f30 	subeq	r9, r0, r0, lsr pc
    1c74:	006c0000 	rsbeq	r0, ip, r0
    1c78:	00010000 	andeq	r0, r1, r0
    1c7c:	00000053 	andeq	r0, r0, r3, asr r0
    1c80:	00000000 	andeq	r0, r0, r0
    1c84:	00acb800 	adceq	fp, ip, r0, lsl #16
    1c88:	00acbc00 	adceq	fp, ip, r0, lsl #24
    1c8c:	30000200 	andcc	r0, r0, r0, lsl #4
    1c90:	00acbc9f 	umlaleq	fp, ip, pc, ip	; <UNPREDICTABLE>
    1c94:	00acc000 	adceq	ip, ip, r0
    1c98:	50000100 	andpl	r0, r0, r0, lsl #2
	...
    1ca4:	0000acd0 	ldrdeq	sl, [r0], -r0
    1ca8:	0000acd4 	ldrdeq	sl, [r0], -r4
    1cac:	9f300002 	svcls	0x00300002
    1cb0:	0000acd4 	ldrdeq	sl, [r0], -r4
    1cb4:	0000acd8 	ldrdeq	sl, [r0], -r8
    1cb8:	dc530001 	mrrcle	0, 0, r0, r3, cr1
    1cbc:	e40000ac 	str	r0, [r0], #-172	; 0xac
    1cc0:	010000ac 	smlatbeq	r0, ip, r0, r0
    1cc4:	00005300 	andeq	r5, r0, r0, lsl #6
	...
    1cd0:	00040000 	andeq	r0, r4, r0
    1cd4:	00010000 	andeq	r0, r1, r0
    1cd8:	00000450 	andeq	r0, r0, r0, asr r4
    1cdc:	00000c00 	andeq	r0, r0, r0, lsl #24
    1ce0:	53000100 	movwpl	r0, #256	; 0x100
    1ce4:	0000000c 	andeq	r0, r0, ip
    1ce8:	00000010 	andeq	r0, r0, r0, lsl r0
    1cec:	10500001 	subsne	r0, r0, r1
    1cf0:	1c000000 	stcne	0, cr0, [r0], {-0}
    1cf4:	01000000 	mrseq	r0, (UNDEF: 0)
    1cf8:	00005300 	andeq	r5, r0, r0, lsl #6
    1cfc:	00000000 	andeq	r0, r0, r0
    1d00:	00400000 	subeq	r0, r0, r0
    1d04:	00430000 	subeq	r0, r3, r0
    1d08:	00010000 	andeq	r0, r1, r0
    1d0c:	00004350 	andeq	r4, r0, r0, asr r3
    1d10:	00004c00 	andeq	r4, r0, r0, lsl #24
    1d14:	54000100 	strpl	r0, [r0], #-256	; 0x100
	...
    1d20:	0000004c 	andeq	r0, r0, ip, asr #32
    1d24:	00000057 	andeq	r0, r0, r7, asr r0
    1d28:	57500001 	ldrbpl	r0, [r0, -r1]
    1d2c:	70000000 	andvc	r0, r0, r0
    1d30:	01000000 	mrseq	r0, (UNDEF: 0)
    1d34:	00005500 	andeq	r5, r0, r0, lsl #10
    1d38:	00000000 	andeq	r0, r0, r0
    1d3c:	00600000 	rsbeq	r0, r0, r0
    1d40:	00640000 	rsbeq	r0, r4, r0
    1d44:	00010000 	andeq	r0, r1, r0
    1d48:	00000050 	andeq	r0, r0, r0, asr r0
    1d4c:	00000000 	andeq	r0, r0, r0
    1d50:	00007000 	andeq	r7, r0, r0
    1d54:	00007c00 	andeq	r7, r0, r0, lsl #24
    1d58:	50000100 	andpl	r0, r0, r0, lsl #2
    1d5c:	0000007c 	andeq	r0, r0, ip, ror r0
    1d60:	00000084 	andeq	r0, r0, r4, lsl #1
    1d64:	01f30004 	mvnseq	r0, r4
    1d68:	00009f50 	andeq	r9, r0, r0, asr pc
    1d6c:	00000000 	andeq	r0, r0, r0
    1d70:	00840000 	addeq	r0, r4, r0
    1d74:	00900000 	addseq	r0, r0, r0
    1d78:	00010000 	andeq	r0, r1, r0
    1d7c:	00009050 	andeq	r9, r0, r0, asr r0
    1d80:	00009800 	andeq	r9, r0, r0, lsl #16
    1d84:	f3000400 	vshl.u8	d0, d0, d0
    1d88:	009f5001 	addseq	r5, pc, r1
    1d8c:	00000000 	andeq	r0, r0, r0
    1d90:	38000000 	stmdacc	r0, {}	; <UNPREDICTABLE>
    1d94:	43000001 	movwmi	r0, #1
    1d98:	01000001 	tsteq	r0, r1
    1d9c:	01435000 	mrseq	r5, (UNDEF: 67)
    1da0:	01680000 	cmneq	r8, r0
    1da4:	00010000 	andeq	r0, r1, r0
    1da8:	00000054 	andeq	r0, r0, r4, asr r0
	...
    1db4:	00000f00 	andeq	r0, r0, r0, lsl #30
    1db8:	50000100 	andpl	r0, r0, r0, lsl #2
    1dbc:	0000000f 	andeq	r0, r0, pc
    1dc0:	00000020 	andeq	r0, r0, r0, lsr #32
    1dc4:	00540001 	subseq	r0, r4, r1
	...
    1dd0:	0f000000 	svceq	0x00000000
    1dd4:	01000000 	mrseq	r0, (UNDEF: 0)
    1dd8:	000f5100 	andeq	r5, pc, r0, lsl #2
    1ddc:	00200000 	eoreq	r0, r0, r0
    1de0:	00010000 	andeq	r0, r1, r0
    1de4:	00000055 	andeq	r0, r0, r5, asr r0
    1de8:	00000000 	andeq	r0, r0, r0
    1dec:	0000ec00 	andeq	lr, r0, r0, lsl #24
    1df0:	00010400 	andeq	r0, r1, r0, lsl #8
    1df4:	50000100 	andpl	r0, r0, r0, lsl #2
    1df8:	00000104 	andeq	r0, r0, r4, lsl #2
    1dfc:	00000114 	andeq	r0, r0, r4, lsl r1
    1e00:	01f30004 	mvnseq	r0, r4
    1e04:	01149f50 	tsteq	r4, r0, asr pc
    1e08:	01180000 	tsteq	r8, r0
    1e0c:	00010000 	andeq	r0, r1, r0
    1e10:	00011850 	andeq	r1, r1, r0, asr r8
    1e14:	00012000 	andeq	r2, r1, r0
    1e18:	f3000400 	vshl.u8	d0, d0, d0
    1e1c:	009f5001 	addseq	r5, pc, r1
    1e20:	00000000 	andeq	r0, r0, r0
    1e24:	f8000000 			; <UNDEFINED> instruction: 0xf8000000
    1e28:	04000000 	streq	r0, [r0], #-0
    1e2c:	0b000001 	bleq	1e38 <__code_start__-0x61c8>
    1e30:	35007000 	strcc	r7, [r0, #-0]
    1e34:	80b42325 	adcshi	r2, r4, r5, lsr #6
    1e38:	9f028180 	svcls	0x00028180
    1e3c:	00000104 	andeq	r0, r0, r4, lsl #2
    1e40:	00000107 	andeq	r0, r0, r7, lsl #2
    1e44:	07500001 	ldrbeq	r0, [r0, -r1]
    1e48:	14000001 	strne	r0, [r0], #-1
    1e4c:	0c000001 	stceq	0, cr0, [r0], {1}
    1e50:	5001f300 	andpl	pc, r1, r0, lsl #6
    1e54:	b4232535 	strtlt	r2, [r3], #-1333	; 0x535
    1e58:	02818080 	addeq	r8, r1, #128	; 0x80
    1e5c:	0000009f 	muleq	r0, pc, r0	; <UNPREDICTABLE>
    1e60:	00000000 	andeq	r0, r0, r0
    1e64:	0000fc00 	andeq	pc, r0, r0, lsl #24
    1e68:	00011400 	andeq	r1, r1, r0, lsl #8
    1e6c:	54000100 	strpl	r0, [r0], #-256	; 0x100
	...
    1e78:	000000d0 	ldrdeq	r0, [r0], -r0	; <UNPREDICTABLE>
    1e7c:	000000df 	ldrdeq	r0, [r0], -pc	; <UNPREDICTABLE>
    1e80:	df500001 	svcle	0x00500001
    1e84:	e4000000 	str	r0, [r0], #-0
    1e88:	04000000 	streq	r0, [r0], #-0
    1e8c:	5001f300 	andpl	pc, r1, r0, lsl #6
    1e90:	0000e49f 	muleq	r0, pc, r4	; <UNPREDICTABLE>
    1e94:	0000e700 	andeq	lr, r0, r0, lsl #14
    1e98:	50000100 	andpl	r0, r0, r0, lsl #2
    1e9c:	000000e7 	andeq	r0, r0, r7, ror #1
    1ea0:	000000ec 	andeq	r0, r0, ip, ror #1
    1ea4:	01f30004 	mvnseq	r0, r4
    1ea8:	00009f50 	andeq	r9, r0, r0, asr pc
    1eac:	00000000 	andeq	r0, r0, r0
    1eb0:	00d00000 	sbcseq	r0, r0, r0
    1eb4:	00df0000 	sbcseq	r0, pc, r0
    1eb8:	00010000 	andeq	r0, r1, r0
    1ebc:	0000df51 	andeq	sp, r0, r1, asr pc
    1ec0:	0000e400 	andeq	lr, r0, r0, lsl #8
    1ec4:	f3000400 	vshl.u8	d0, d0, d0
    1ec8:	e49f5101 	ldr	r5, [pc], #257	; 1ed0 <__code_start__-0x6130>
    1ecc:	e7000000 	str	r0, [r0, -r0]
    1ed0:	01000000 	mrseq	r0, (UNDEF: 0)
    1ed4:	00e75100 	rsceq	r5, r7, r0, lsl #2
    1ed8:	00ec0000 	rsceq	r0, ip, r0
    1edc:	00040000 	andeq	r0, r4, r0
    1ee0:	9f5101f3 	svcls	0x005101f3
	...
    1eec:	000000c0 	andeq	r0, r0, r0, asr #1
    1ef0:	000000cb 	andeq	r0, r0, fp, asr #1
    1ef4:	cb500001 	blgt	1401f00 <__bss_end__+0x13f54d8>
    1ef8:	d0000000 	andle	r0, r0, r0
    1efc:	04000000 	streq	r0, [r0], #-0
    1f00:	5001f300 	andpl	pc, r1, r0, lsl #6
    1f04:	0000009f 	muleq	r0, pc, r0	; <UNPREDICTABLE>
    1f08:	00000000 	andeq	r0, r0, r0
    1f0c:	00009c00 	andeq	r9, r0, r0, lsl #24
    1f10:	0000b400 	andeq	fp, r0, r0, lsl #8
    1f14:	50000100 	andpl	r0, r0, r0, lsl #2
    1f18:	000000b4 	strheq	r0, [r0], -r4
    1f1c:	000000c0 	andeq	r0, r0, r0, asr #1
    1f20:	01f30004 	mvnseq	r0, r4
    1f24:	00009f50 	andeq	r9, r0, r0, asr pc
    1f28:	00000000 	andeq	r0, r0, r0
    1f2c:	00780000 	rsbseq	r0, r8, r0
    1f30:	00900000 	addseq	r0, r0, r0
    1f34:	00010000 	andeq	r0, r1, r0
    1f38:	00009050 	andeq	r9, r0, r0, asr r0
    1f3c:	00009c00 	andeq	r9, r0, r0, lsl #24
    1f40:	f3000400 	vshl.u8	d0, d0, d0
    1f44:	009f5001 	addseq	r5, pc, r1
    1f48:	00000000 	andeq	r0, r0, r0
    1f4c:	68000000 	stmdavs	r0, {}	; <UNPREDICTABLE>
    1f50:	73000000 	movwvc	r0, #0
    1f54:	01000000 	mrseq	r0, (UNDEF: 0)
    1f58:	00735000 	rsbseq	r5, r3, r0
    1f5c:	00780000 	rsbseq	r0, r8, r0
    1f60:	00040000 	andeq	r0, r4, r0
    1f64:	9f5001f3 	svcls	0x005001f3
	...
    1f74:	00000048 	andeq	r0, r0, r8, asr #32
    1f78:	48500001 	ldmdami	r0, {r0}^
    1f7c:	68000000 	stmdavs	r0, {}	; <UNPREDICTABLE>
    1f80:	04000000 	streq	r0, [r0], #-0
    1f84:	5001f300 	andpl	pc, r1, r0, lsl #6
    1f88:	0000009f 	muleq	r0, pc, r0	; <UNPREDICTABLE>
	...
    1f94:	00004b00 	andeq	r4, r0, r0, lsl #22
    1f98:	51000100 	mrspl	r0, (UNDEF: 16)
    1f9c:	0000004b 	andeq	r0, r0, fp, asr #32
    1fa0:	00000068 	andeq	r0, r0, r8, rrx
    1fa4:	01f30004 	mvnseq	r0, r4
    1fa8:	00009f51 	andeq	r9, r0, r1, asr pc
    1fac:	00000000 	andeq	r0, r0, r0
    1fb0:	004c0000 	subeq	r0, ip, r0
    1fb4:	00540000 	subseq	r0, r4, r0
    1fb8:	00010000 	andeq	r0, r1, r0
    1fbc:	00005450 	andeq	r5, r0, r0, asr r4
    1fc0:	00005800 	andeq	r5, r0, r0, lsl #16
    1fc4:	75000900 	strvc	r0, [r0, #-2304]	; 0x900
    1fc8:	24007400 	strcs	r7, [r0], #-1024	; 0x400
    1fcc:	9f210071 	svcls	0x00210071
    1fd0:	00000058 	andeq	r0, r0, r8, asr r0
    1fd4:	0000005f 	andeq	r0, r0, pc, asr r0
    1fd8:	00510001 	subseq	r0, r1, r1
    1fdc:	00000000 	andeq	r0, r0, r0
    1fe0:	04000000 	streq	r0, [r0], #-0
    1fe4:	43000001 	movwmi	r0, #1
    1fe8:	01000001 	tsteq	r0, r1
    1fec:	01435000 	mrseq	r5, (UNDEF: 67)
    1ff0:	014c0000 	mrseq	r0, (UNDEF: 76)
    1ff4:	00040000 	andeq	r0, r4, r0
    1ff8:	9f5001f3 	svcls	0x005001f3
    1ffc:	0000014c 	andeq	r0, r0, ip, asr #2
    2000:	0000014f 	andeq	r0, r0, pc, asr #2
    2004:	4f500001 	svcmi	0x00500001
    2008:	70000001 	andvc	r0, r0, r1
    200c:	04000001 	streq	r0, [r0], #-1
    2010:	5001f300 	andpl	pc, r1, r0, lsl #6
    2014:	0001709f 	muleq	r1, pc, r0	; <UNPREDICTABLE>
    2018:	00017300 	andeq	r7, r1, r0, lsl #6
    201c:	50000100 	andpl	r0, r0, r0, lsl #2
    2020:	00000173 	andeq	r0, r0, r3, ror r1
    2024:	000001b0 			; <UNDEFINED> instruction: 0x000001b0
    2028:	01f30004 	mvnseq	r0, r4
    202c:	00009f50 	andeq	r9, r0, r0, asr pc
    2030:	00000000 	andeq	r0, r0, r0
    2034:	01040000 	mrseq	r0, (UNDEF: 4)
    2038:	01300000 	teqeq	r0, r0
    203c:	00010000 	andeq	r0, r1, r0
    2040:	00013051 	andeq	r3, r1, r1, asr r0
    2044:	00014300 	andeq	r4, r1, r0, lsl #6
    2048:	71000300 	mrsvc	r0, LR_irq
    204c:	01439f01 	cmpeq	r3, r1, lsl #30
    2050:	014c0000 	mrseq	r0, (UNDEF: 76)
    2054:	00040000 	andeq	r0, r4, r0
    2058:	9f5101f3 	svcls	0x005101f3
    205c:	0000014c 	andeq	r0, r0, ip, asr #2
    2060:	0000014f 	andeq	r0, r0, pc, asr #2
    2064:	4f510001 	svcmi	0x00510001
    2068:	b0000001 	andlt	r0, r0, r1
    206c:	04000001 	streq	r0, [r0], #-1
    2070:	5101f300 	mrspl	pc, SP_irq	; <UNPREDICTABLE>
    2074:	0000009f 	muleq	r0, pc, r0	; <UNPREDICTABLE>
    2078:	00000000 	andeq	r0, r0, r0
    207c:	00012000 	andeq	r2, r1, r0
    2080:	00012400 	andeq	r2, r1, r0, lsl #8
    2084:	52000100 	andpl	r0, r0, #0, 2
    2088:	00000124 	andeq	r0, r0, r4, lsr #2
    208c:	0000012c 	andeq	r0, r0, ip, lsr #2
    2090:	a0030005 	andge	r0, r3, r5
    2094:	2c0000b2 	stccs	0, cr0, [r0], {178}	; 0xb2
    2098:	43000001 	movwmi	r0, #1
    209c:	01000001 	tsteq	r0, r1
    20a0:	01705300 	cmneq	r0, r0, lsl #6
    20a4:	01730000 	cmneq	r3, r0
    20a8:	00010000 	andeq	r0, r1, r0
    20ac:	00000053 	andeq	r0, r0, r3, asr r0
    20b0:	00000000 	andeq	r0, r0, r0
    20b4:	00007c00 	andeq	r7, r0, r0, lsl #24
    20b8:	00009400 	andeq	r9, r0, r0, lsl #8
    20bc:	50000100 	andpl	r0, r0, r0, lsl #2
    20c0:	00000094 	muleq	r0, r4, r0
    20c4:	000000af 	andeq	r0, r0, pc, lsr #1
    20c8:	af520001 	svcge	0x00520001
    20cc:	bc000000 	stclt	0, cr0, [r0], {-0}
    20d0:	09000000 	stmdbeq	r0, {}	; <UNPREDICTABLE>
    20d4:	5001f300 	andpl	pc, r1, r0, lsl #6
    20d8:	f8090723 			; <UNDEFINED> instruction: 0xf8090723
    20dc:	00bc9f1a 	adcseq	r9, ip, sl, lsl pc
    20e0:	00bf0000 	adcseq	r0, pc, r0
    20e4:	00010000 	andeq	r0, r1, r0
    20e8:	0000bf50 	andeq	fp, r0, r0, asr pc
    20ec:	0000f400 	andeq	pc, r0, r0, lsl #8
    20f0:	f3000400 	vshl.u8	d0, d0, d0
    20f4:	009f5001 	addseq	r5, pc, r1
    20f8:	00000000 	andeq	r0, r0, r0
    20fc:	9c000000 	stcls	0, cr0, [r0], {-0}
    2100:	bc000000 	stclt	0, cr0, [r0], {-0}
    2104:	01000000 	mrseq	r0, (UNDEF: 0)
    2108:	00005400 	andeq	r5, r0, r0, lsl #8
    210c:	00000000 	andeq	r0, r0, r0
    2110:	001c0000 	andseq	r0, ip, r0
    2114:	00470000 	subeq	r0, r7, r0
    2118:	00010000 	andeq	r0, r1, r0
    211c:	00004750 	andeq	r4, r0, r0, asr r7
    2120:	00007c00 	andeq	r7, r0, r0, lsl #24
    2124:	f3000400 	vshl.u8	d0, d0, d0
    2128:	009f5001 	addseq	r5, pc, r1
    212c:	00000000 	andeq	r0, r0, r0
    2130:	1c000000 	stcne	0, cr0, [r0], {-0}
    2134:	47000000 	strmi	r0, [r0, -r0]
    2138:	01000000 	mrseq	r0, (UNDEF: 0)
    213c:	00475000 	subeq	r5, r7, r0
    2140:	007c0000 	rsbseq	r0, ip, r0
    2144:	00040000 	andeq	r0, r4, r0
    2148:	9f5001f3 	svcls	0x005001f3
	...

Disassembly of section .debug_aranges:

00000000 <.debug_aranges>:
   0:	0000001c 	andeq	r0, r0, ip, lsl r0
   4:	00000002 	andeq	r0, r0, r2
   8:	00040000 	andeq	r0, r4, r0
   c:	00000000 	andeq	r0, r0, r0
  10:	00008020 	andeq	r8, r0, r0, lsr #32
  14:	00000218 	andeq	r0, r0, r8, lsl r2
	...
  20:	0000001c 	andeq	r0, r0, ip, lsl r0
  24:	065b0002 	ldrbeq	r0, [fp], -r2
  28:	00040000 	andeq	r0, r4, r0
  2c:	00000000 	andeq	r0, r0, r0
  30:	00008374 	andeq	r8, r0, r4, ror r3
  34:	000008dc 	ldrdeq	r0, [r0], -ip
	...
  40:	0000001c 	andeq	r0, r0, ip, lsl r0
  44:	1bad0002 	blne	feb40054 <__bss_end__+0xfeb3362c>
  48:	00040000 	andeq	r0, r4, r0
  4c:	00000000 	andeq	r0, r0, r0
  50:	00008c50 	andeq	r8, r0, r0, asr ip
  54:	00000914 	andeq	r0, r0, r4, lsl r9
	...
  60:	0000001c 	andeq	r0, r0, ip, lsl r0
  64:	2d4f0002 	stclcs	0, cr0, [pc, #-8]	; 64 <__code_start__-0x7f9c>
  68:	00040000 	andeq	r0, r4, r0
  6c:	00000000 	andeq	r0, r0, r0
  70:	00009564 	andeq	r9, r0, r4, ror #10
  74:	00000a88 	andeq	r0, r0, r8, lsl #21
	...
  80:	0000001c 	andeq	r0, r0, ip, lsl r0
  84:	43fa0002 	mvnsmi	r0, #2
  88:	00040000 	andeq	r0, r4, r0
  8c:	00000000 	andeq	r0, r0, r0
  90:	0000a380 	andeq	sl, r0, r0, lsl #7
  94:	000000f0 	strdeq	r0, [r0], -r0	; <UNPREDICTABLE>
	...
  a0:	0000001c 	andeq	r0, r0, ip, lsl r0
  a4:	45100002 	ldrmi	r0, [r0, #-2]
  a8:	00040000 	andeq	r0, r4, r0
  ac:	00000000 	andeq	r0, r0, r0
  b0:	0000a470 	andeq	sl, r0, r0, ror r4
  b4:	00000020 	andeq	r0, r0, r0, lsr #32
	...
  c0:	0000001c 	andeq	r0, r0, ip, lsl r0
  c4:	45ef0002 	strbmi	r0, [pc, #2]!	; ce <__code_start__-0x7f32>
  c8:	00040000 	andeq	r0, r4, r0
  cc:	00000000 	andeq	r0, r0, r0
  d0:	0000a490 	muleq	r0, r0, r4
  d4:	00000058 	andeq	r0, r0, r8, asr r0
	...
  e0:	0000001c 	andeq	r0, r0, ip, lsl r0
  e4:	47840002 	strmi	r0, [r4, r2]
  e8:	00040000 	andeq	r0, r4, r0
  ec:	00000000 	andeq	r0, r0, r0
  f0:	0000a4e8 	andeq	sl, r0, r8, ror #9
  f4:	0000003c 	andeq	r0, r0, ip, lsr r0
	...
 100:	0000001c 	andeq	r0, r0, ip, lsl r0
 104:	489b0002 	ldmmi	fp, {r1}
 108:	00040000 	andeq	r0, r4, r0
 10c:	00000000 	andeq	r0, r0, r0
 110:	0000a524 	andeq	sl, r0, r4, lsr #10
 114:	00000034 	andeq	r0, r0, r4, lsr r0
	...
 120:	0000001c 	andeq	r0, r0, ip, lsl r0
 124:	498d0002 	stmibmi	sp, {r1}
 128:	00040000 	andeq	r0, r4, r0
 12c:	00000000 	andeq	r0, r0, r0
 130:	0000a558 	andeq	sl, r0, r8, asr r5
 134:	00000578 	andeq	r0, r0, r8, ror r5
	...
 140:	0000001c 	andeq	r0, r0, ip, lsl r0
 144:	50760002 	rsbspl	r0, r6, r2
 148:	00040000 	andeq	r0, r4, r0
 14c:	00000000 	andeq	r0, r0, r0
 150:	0000aad0 	ldrdeq	sl, [r0], -r0
 154:	0000002c 	andeq	r0, r0, ip, lsr #32
	...
 160:	0000001c 	andeq	r0, r0, ip, lsl r0
 164:	51890002 	orrpl	r0, r9, r2
 168:	00040000 	andeq	r0, r4, r0
 16c:	00000000 	andeq	r0, r0, r0
 170:	0000aafc 	strdeq	sl, [r0], -ip
 174:	00000038 	andeq	r0, r0, r8, lsr r0
	...
 180:	0000001c 	andeq	r0, r0, ip, lsl r0
 184:	529c0002 	addspl	r0, ip, #2
 188:	00040000 	andeq	r0, r4, r0
 18c:	00000000 	andeq	r0, r0, r0
 190:	0000ab34 	andeq	sl, r0, r4, lsr fp
 194:	00000044 	andeq	r0, r0, r4, asr #32
	...
 1a0:	0000001c 	andeq	r0, r0, ip, lsl r0
 1a4:	53de0002 	bicspl	r0, lr, #2
 1a8:	00040000 	andeq	r0, r4, r0
 1ac:	00000000 	andeq	r0, r0, r0
 1b0:	0000ab78 	andeq	sl, r0, r8, ror fp
 1b4:	00000044 	andeq	r0, r0, r4, asr #32
	...
 1c0:	0000001c 	andeq	r0, r0, ip, lsl r0
 1c4:	55200002 	strpl	r0, [r0, #-2]!
 1c8:	00040000 	andeq	r0, r4, r0
 1cc:	00000000 	andeq	r0, r0, r0
 1d0:	0000abbc 			; <UNDEFINED> instruction: 0x0000abbc
 1d4:	00000044 	andeq	r0, r0, r4, asr #32
	...
 1e0:	0000001c 	andeq	r0, r0, ip, lsl r0
 1e4:	56620002 	strbtpl	r0, [r2], -r2
 1e8:	00040000 	andeq	r0, r4, r0
 1ec:	00000000 	andeq	r0, r0, r0
 1f0:	0000ac00 	andeq	sl, r0, r0, lsl #24
 1f4:	00000044 	andeq	r0, r0, r4, asr #32
	...
 200:	0000001c 	andeq	r0, r0, ip, lsl r0
 204:	57a40002 	strpl	r0, [r4, r2]!
 208:	00040000 	andeq	r0, r4, r0
 20c:	00000000 	andeq	r0, r0, r0
 210:	0000ac44 	andeq	sl, r0, r4, asr #24
 214:	00000008 	andeq	r0, r0, r8
	...
 220:	0000001c 	andeq	r0, r0, ip, lsl r0
 224:	58400002 	stmdapl	r0, {r1}^
 228:	00040000 	andeq	r0, r4, r0
 22c:	00000000 	andeq	r0, r0, r0
 230:	0000ac4c 	andeq	sl, r0, ip, asr #24
 234:	0000006c 	andeq	r0, r0, ip, rrx
	...
 240:	0000001c 	andeq	r0, r0, ip, lsl r0
 244:	5a1b0002 	bpl	6c0254 <__bss_end__+0x6b382c>
 248:	00040000 	andeq	r0, r4, r0
 24c:	00000000 	andeq	r0, r0, r0
 250:	0000acb8 			; <UNDEFINED> instruction: 0x0000acb8
 254:	00000074 	andeq	r0, r0, r4, ror r0
	...
 260:	0000001c 	andeq	r0, r0, ip, lsl r0
 264:	5bcc0002 	blpl	ff300274 <__bss_end__+0xff2f384c>
 268:	00040000 	andeq	r0, r4, r0
 26c:	00000000 	andeq	r0, r0, r0
 270:	0000ad2c 	andeq	sl, r0, ip, lsr #26
 274:	00000098 	muleq	r0, r8, r0
	...
 280:	0000001c 	andeq	r0, r0, ip, lsl r0
 284:	5dc70002 	stclpl	0, cr0, [r7, #8]
 288:	00040000 	andeq	r0, r4, r0
 28c:	00000000 	andeq	r0, r0, r0
 290:	0000ae28 	andeq	sl, r0, r8, lsr #28
 294:	00000178 	andeq	r0, r0, r8, ror r1
	...
 2a0:	0000001c 	andeq	r0, r0, ip, lsl r0
 2a4:	6a900002 	bvs	fe4002b4 <__bss_end__+0xfe3f388c>
 2a8:	00040000 	andeq	r0, r4, r0
 2ac:	00000000 	andeq	r0, r0, r0
 2b0:	0000afa0 	andeq	sl, r0, r0, lsr #31
 2b4:	00000120 	andeq	r0, r0, r0, lsr #2
	...
 2c0:	0000001c 	andeq	r0, r0, ip, lsl r0
 2c4:	76040002 	strvc	r0, [r4], -r2
 2c8:	00040000 	andeq	r0, r4, r0
 2cc:	00000000 	andeq	r0, r0, r0
 2d0:	0000b0c0 	andeq	fp, r0, r0, asr #1
 2d4:	000001d8 	ldrdeq	r0, [r0], -r8
	...

Disassembly of section .debug_line:

00000000 <.debug_line>:
       0:	000001a6 	andeq	r0, r0, r6, lsr #3
       4:	01290002 	teqeq	r9, r2
       8:	01020000 	mrseq	r0, (UNDEF: 2)
       c:	000d0efb 	strdeq	r0, [sp], -fp
      10:	01010101 	tsteq	r1, r1, lsl #2
      14:	01000000 	mrseq	r0, (UNDEF: 0)
      18:	2f010000 	svccs	0x00010000
      1c:	72657355 	rsbvc	r7, r5, #1409286145	; 0x54000001
      20:	72622f73 	rsbvc	r2, r2, #460	; 0x1cc
      24:	6a6e6169 	bvs	1b985d0 <__bss_end__+0x1b8bba8>
      28:	442f6e75 	strtmi	r6, [pc], #-3701	; 30 <__code_start__-0x7fd0>
      2c:	746b7365 	strbtvc	r7, [fp], #-869	; 0x365
      30:	732f706f 	teqvc	pc, #111	; 0x6f
      34:	6f6f6863 	svcvs	0x006f6863
      38:	70532f6c 	subsvc	r2, r3, ip, ror #30
      3c:	676e6972 			; <UNDEFINED> instruction: 0x676e6972
      40:	30323931 	eorscc	r3, r2, r1, lsr r9
      44:	3253432f 	subscc	r4, r3, #-1140850688	; 0xbc000000
      48:	584c3034 	stmdapl	ip, {r2, r4, r5, ip, sp}^
      4c:	3273632f 	rsbscc	r6, r3, #-1140850688	; 0xbc000000
      50:	786c3034 	stmdavc	ip!, {r2, r4, r5, ip, sp}^
      54:	7330322d 	teqvc	r0, #-805306366	; 0xd0000002
      58:	6c2f7270 	sfmvs	f7, 4, [pc], #-448	; fffffea0 <__bss_end__+0xffff3478>
      5c:	69706269 	ldmdbvs	r0!, {r0, r3, r5, r6, r9, sp, lr}^
      60:	636e692f 	cmnvs	lr, #770048	; 0xbc000
      64:	6564756c 	strbvs	r7, [r4, #-1388]!	; 0x56c
      68:	74002e00 	strvc	r2, [r0], #-3584	; 0xe00
      6c:	73747365 	cmnvc	r4, #-1811939327	; 0x94000001
      70:	73752f00 	cmnvc	r5, #0, 30
      74:	6f6c2f72 	svcvs	0x006c2f72
      78:	2f6c6163 	svccs	0x006c6163
      7c:	6c6c6543 	cfstr64vs	mvdx6, [ip], #-268	; 0xfffffef4
      80:	612f7261 	teqvs	pc, r1, ror #4
      84:	6e2d6d72 	mcrvs	13, 1, r6, cr13, cr2, {3}
      88:	2d656e6f 	stclcs	14, cr6, [r5, #-444]!	; 0xfffffe44
      8c:	69626165 	stmdbvs	r2!, {r0, r2, r5, r6, r8, sp, lr}^
      90:	382e342f 	stmdacc	lr!, {r0, r1, r2, r3, r5, sl, ip, sp}
      94:	632d332e 	teqvs	sp, #-1207959552	; 0xb8000000
      98:	30373173 	eorscc	r3, r7, r3, ror r1
      9c:	696c2f65 	stmdbvs	ip!, {r0, r2, r5, r6, r8, r9, sl, fp, sp}^
      a0:	63672f62 	cmnvs	r7, #392	; 0x188
      a4:	72612f63 	rsbvc	r2, r1, #396	; 0x18c
      a8:	6f6e2d6d 	svcvs	0x006e2d6d
      ac:	652d656e 	strvs	r6, [sp, #-1390]!	; 0x56e
      b0:	2f696261 	svccs	0x00696261
      b4:	2e382e34 	mrccs	14, 1, r2, cr8, cr4, {1}
      b8:	6e692f33 	mcrvs	15, 3, r2, cr9, cr3, {1}
      bc:	64756c63 	ldrbtvs	r6, [r5], #-3171	; 0xc63
      c0:	63000065 	movwvs	r0, #101	; 0x65
      c4:	2d727370 	ldclcs	3, cr7, [r2, #-448]!	; 0xfffffe40
      c8:	6c697475 	cfstrdvs	mvd7, [r9], #-468	; 0xfffffe2c
      cc:	0100682e 	tsteq	r0, lr, lsr #16
      d0:	69620000 	stmdbvs	r2!, {}^	; <UNPREDICTABLE>
      d4:	75732d74 	ldrbvc	r2, [r3, #-3444]!	; 0xd74
      d8:	726f7070 	rsbvc	r7, pc, #112	; 0x70
      dc:	00682e74 	rsbeq	r2, r8, r4, ror lr
      e0:	74000002 	strvc	r0, [r0], #-2
      e4:	31747365 	cmncc	r4, r5, ror #6
      e8:	0300632e 	movweq	r6, #814	; 0x32e
      ec:	70720000 	rsbsvc	r0, r2, r0
      f0:	6e692d69 	cdpvs	13, 6, cr2, cr9, cr9, {3}
      f4:	72726574 	rsbsvc	r6, r2, #116, 10	; 0x1d000000
      f8:	73747075 	cmnvc	r4, #117	; 0x75
      fc:	0100682e 	tsteq	r0, lr, lsr #16
     100:	70720000 	rsbsvc	r0, r2, r0
     104:	00682e69 	rsbeq	r2, r8, r9, ror #28
     108:	6d000001 	stcvs	0, cr0, [r0, #-4]
     10c:	682e756d 	stmdavs	lr!, {r0, r2, r3, r5, r6, r8, sl, ip, sp, lr}
     110:	00000200 	andeq	r0, r0, r0, lsl #4
     114:	636d656d 	cmnvs	sp, #457179136	; 0x1b400000
     118:	6b636568 	blvs	18d96c0 <__bss_end__+0x18ccc98>
     11c:	0200682e 	andeq	r6, r0, #3014656	; 0x2e0000
     120:	74730000 	ldrbtvc	r0, [r3], #-0
     124:	746e6964 	strbtvc	r6, [lr], #-2404	; 0x964
     128:	6363672d 	cmnvs	r3, #11796480	; 0xb40000
     12c:	0400682e 	streq	r6, [r0], #-2094	; 0x82e
     130:	00000000 	andeq	r0, r0, r0
     134:	80200205 	eorhi	r0, r0, r5, lsl #4
     138:	11030000 	mrsne	r0, (UNDEF: 3)
     13c:	03020401 	movweq	r0, #9217	; 0x2401
     140:	01044a0e 	tsteq	r4, lr, lsl #20
     144:	692e6903 	stmdbvs	lr!, {r0, r1, r8, fp, sp, lr}
     148:	04f86868 	ldrbteq	r6, [r8], #2152	; 0x868
     14c:	ba6e0303 	blt	1b80d60 <__bss_end__+0x1b74338>
     150:	00674c4e 	rsbeq	r4, r7, lr, asr #24
     154:	06010402 	streq	r0, [r1], -r2, lsl #8
     158:	2308064a 	movwcs	r0, #34378	; 0x864a
     15c:	004b2208 	subeq	r2, fp, r8, lsl #4
     160:	06010402 	streq	r0, [r1], -r2, lsl #8
     164:	06040466 	streq	r0, [r4], -r6, ror #8
     168:	20081703 	andcs	r1, r8, r3, lsl #14
     16c:	042e0104 	strteq	r0, [lr], #-260	; 0x104
     170:	2e6b0303 	cdpcs	3, 6, cr0, cr11, cr3, {0}
     174:	01040200 	mrseq	r0, R12_usr
     178:	08064a06 	stmdaeq	r6, {r1, r2, r9, fp, lr}
     17c:	02004b21 	andeq	r4, r0, #33792	; 0x8400
     180:	66060104 	strvs	r0, [r6], -r4, lsl #2
     184:	03060404 	movweq	r0, #25604	; 0x6404
     188:	04200813 	strteq	r0, [r0], #-2067	; 0x813
     18c:	03042e01 	movweq	r2, #19969	; 0x4e01
     190:	002e6e03 	eoreq	r6, lr, r3, lsl #28
     194:	06010402 	streq	r0, [r1], -r2, lsl #8
     198:	2308064a 	movwcs	r0, #34378	; 0x864a
     19c:	01040200 	mrseq	r0, R12_usr
     1a0:	08066606 	stmdaeq	r6, {r1, r2, r9, sl, sp, lr}
     1a4:	001e0222 	andseq	r0, lr, r2, lsr #4
     1a8:	02f50101 	rscseq	r0, r5, #1073741824	; 0x40000000
     1ac:	00020000 	andeq	r0, r2, r0
     1b0:	0000016a 	andeq	r0, r0, sl, ror #2
     1b4:	0efb0102 	cdpeq	1, 15, cr0, cr11, cr2, {0}
     1b8:	0101000d 	tsteq	r1, sp
     1bc:	00000101 	andeq	r0, r0, r1, lsl #2
     1c0:	00000100 	andeq	r0, r0, r0, lsl #2
     1c4:	73752f01 	cmnvc	r5, #1, 30
     1c8:	6f6c2f72 	svcvs	0x006c2f72
     1cc:	2f6c6163 	svccs	0x006c6163
     1d0:	6c6c6543 	cfstr64vs	mvdx6, [ip], #-268	; 0xfffffef4
     1d4:	612f7261 	teqvs	pc, r1, ror #4
     1d8:	6e2d6d72 	mcrvs	13, 1, r6, cr13, cr2, {3}
     1dc:	2d656e6f 	stclcs	14, cr6, [r5, #-444]!	; 0xfffffe44
     1e0:	69626165 	stmdbvs	r2!, {r0, r2, r5, r6, r8, sp, lr}^
     1e4:	382e342f 	stmdacc	lr!, {r0, r1, r2, r3, r5, sl, ip, sp}
     1e8:	632d332e 	teqvs	sp, #-1207959552	; 0xb8000000
     1ec:	30373173 	eorscc	r3, r7, r3, ror r1
     1f0:	696c2f65 	stmdbvs	ip!, {r0, r2, r5, r6, r8, r9, sl, fp, sp}^
     1f4:	63672f62 	cmnvs	r7, #392	; 0x188
     1f8:	72612f63 	rsbvc	r2, r1, #396	; 0x18c
     1fc:	6f6e2d6d 	svcvs	0x006e2d6d
     200:	652d656e 	strvs	r6, [sp, #-1390]!	; 0x56e
     204:	2f696261 	svccs	0x00696261
     208:	2e382e34 	mrccs	14, 1, r2, cr8, cr4, {1}
     20c:	6e692f33 	mcrvs	15, 3, r2, cr9, cr3, {1}
     210:	64756c63 	ldrbtvs	r6, [r5], #-3171	; 0xc63
     214:	552f0065 	strpl	r0, [pc, #-101]!	; 1b7 <__code_start__-0x7e49>
     218:	73726573 	cmnvc	r2, #482344960	; 0x1cc00000
     21c:	6972622f 	ldmdbvs	r2!, {r0, r1, r2, r3, r5, r9, sp, lr}^
     220:	756a6e61 	strbvc	r6, [sl, #-3681]!	; 0xe61
     224:	65442f6e 	strbvs	r2, [r4, #-3950]	; 0xf6e
     228:	6f746b73 	svcvs	0x00746b73
     22c:	63732f70 	cmnvs	r3, #112, 30	; 0x1c0
     230:	6c6f6f68 	stclvs	15, cr6, [pc], #-416	; 98 <__code_start__-0x7f68>
     234:	7270532f 	rsbsvc	r5, r0, #-1140850688	; 0xbc000000
     238:	31676e69 	cmncc	r7, r9, ror #28
     23c:	2f303239 	svccs	0x00303239
     240:	34325343 	ldrtcc	r5, [r2], #-835	; 0x343
     244:	2f584c30 	svccs	0x00584c30
     248:	34327363 	ldrtcc	r7, [r2], #-867	; 0x363
     24c:	2d786c30 	ldclcs	12, cr6, [r8, #-192]!	; 0xffffff40
     250:	70733032 	rsbsvc	r3, r3, r2, lsr r0
     254:	696c2f72 	stmdbvs	ip!, {r1, r4, r5, r6, r8, r9, sl, fp, sp}^
     258:	2f697062 	svccs	0x00697062
     25c:	6c636e69 	stclvs	14, cr6, [r3], #-420	; 0xfffffe5c
     260:	00656475 	rsbeq	r6, r5, r5, ror r4
     264:	7273752f 	rsbsvc	r7, r3, #197132288	; 0xbc00000
     268:	636f6c2f 	cmnvs	pc, #12032	; 0x2f00
     26c:	432f6c61 	teqmi	pc, #24832	; 0x6100
     270:	616c6c65 	cmnvs	ip, r5, ror #24
     274:	72612f72 	rsbvc	r2, r1, #456	; 0x1c8
     278:	6f6e2d6d 	svcvs	0x006e2d6d
     27c:	652d656e 	strvs	r6, [sp, #-1390]!	; 0x56e
     280:	2f696261 	svccs	0x00696261
     284:	2e382e34 	mrccs	14, 1, r2, cr8, cr4, {1}
     288:	73632d33 	cmnvc	r3, #3264	; 0xcc0
     28c:	65303731 	ldrvs	r3, [r0, #-1841]!	; 0x731
     290:	6d72612f 	ldfvse	f6, [r2, #-188]!	; 0xffffff44
     294:	6e6f6e2d 	cdpvs	14, 6, cr6, cr15, cr13, {1}
     298:	61652d65 	cmnvs	r5, r5, ror #26
     29c:	692f6962 	stmdbvs	pc!, {r1, r5, r6, r8, fp, sp, lr}	; <UNPREDICTABLE>
     2a0:	756c636e 	strbvc	r6, [ip, #-878]!	; 0x36e
     2a4:	00006564 	andeq	r6, r0, r4, ror #10
     2a8:	2e756d6d 	cdpcs	13, 7, cr6, cr5, cr13, {3}
     2ac:	00000063 	andeq	r0, r0, r3, rrx
     2b0:	756d6d00 	strbvc	r6, [sp, #-3328]!	; 0xd00
     2b4:	0000682e 	andeq	r6, r0, lr, lsr #16
     2b8:	74730000 	ldrbtvc	r0, [r3], #-0
     2bc:	66656464 	strbtvs	r6, [r5], -r4, ror #8
     2c0:	0100682e 	tsteq	r0, lr, lsr #16
     2c4:	74730000 	ldrbtvc	r0, [r3], #-0
     2c8:	746e6964 	strbtvc	r6, [lr], #-2404	; 0x964
     2cc:	6363672d 	cmnvs	r3, #11796480	; 0xb40000
     2d0:	0100682e 	tsteq	r0, lr, lsr #16
     2d4:	72610000 	rsbvc	r0, r1, #0
     2d8:	2d36766d 	ldccs	6, cr7, [r6, #-436]!	; 0xfffffe4c
     2dc:	35317063 	ldrcc	r7, [r1, #-99]!	; 0x63
     2e0:	0200682e 	andeq	r6, r0, #3014656	; 0x2e0000
     2e4:	72610000 	rsbvc	r0, r1, #0
     2e8:	2d36766d 	ldccs	6, cr7, [r6, #-436]!	; 0xfffffe4c
     2ec:	682e6d76 	stmdavs	lr!, {r1, r2, r4, r5, r6, r8, sl, fp, sp, lr}
     2f0:	00000200 	andeq	r0, r0, r0, lsl #4
     2f4:	2e697072 	mcrcs	0, 3, r7, cr9, cr2, {3}
     2f8:	00020068 	andeq	r0, r2, r8, rrx
     2fc:	72747300 	rsbsvc	r7, r4, #0, 6
     300:	2e676e69 	cdpcs	14, 6, cr6, cr7, cr9, {3}
     304:	00030068 	andeq	r0, r3, r8, rrx
     308:	69707200 	ldmdbvs	r0!, {r9, ip, sp, lr}^
     30c:	746e692d 	strbtvc	r6, [lr], #-2349	; 0x92d
     310:	75727265 	ldrbvc	r7, [r2, #-613]!	; 0x265
     314:	2e737470 	mrccs	4, 3, r7, cr3, cr0, {3}
     318:	00020068 	andeq	r0, r2, r8, rrx
     31c:	05000000 	streq	r0, [r0, #-0]
     320:	00837402 	addeq	r7, r3, r2, lsl #8
     324:	010a0300 	mrseq	r0, (UNDEF: 58)
     328:	4b4c2f2f 	blmi	130bfec <__bss_end__+0x12ff5c4>
     32c:	01040200 	mrseq	r0, R12_usr
     330:	08064a06 	stmdaeq	r6, {r1, r2, r9, fp, lr}
     334:	002f2f21 	eoreq	r2, pc, r1, lsr #30
     338:	06010402 	streq	r0, [r1], -r2, lsl #8
     33c:	22080666 	andcs	r0, r8, #106954752	; 0x6600000
     340:	02042308 	andeq	r2, r4, #8, 6	; 0x20000000
     344:	8200e003 	andhi	lr, r0, #3
     348:	a2030104 	andge	r0, r3, #4, 2
     34c:	02004a7f 	andeq	r4, r0, #520192	; 0x7f000
     350:	4a060104 	bmi	180768 <__bss_end__+0x173d40>
     354:	02040200 	andeq	r0, r4, #0, 4
     358:	00250806 	eoreq	r0, r5, r6, lsl #16
     35c:	67020402 	strvs	r0, [r2, -r2, lsl #8]
     360:	02040200 	andeq	r0, r4, #0, 4
     364:	02006b7d 	andeq	r6, r0, #128000	; 0x1f400
     368:	52450104 	subpl	r0, r5, #4, 2
     36c:	682fbc2f 	stmdavs	pc!, {r0, r1, r2, r3, r5, sl, fp, ip, sp, pc}	; <UNPREDICTABLE>
     370:	6a2f682f 	bvs	bda434 <__bss_end__+0xbcda0c>
     374:	0402004b 	streq	r0, [r2], #-75	; 0x4b
     378:	064a0601 	strbeq	r0, [sl], -r1, lsl #12
     37c:	00bd2208 	adcseq	r2, sp, r8, lsl #4
     380:	06010402 	streq	r0, [r1], -r2, lsl #8
     384:	2108064a 	tstcs	r8, sl, asr #12
     388:	9ff20903 	svcls	0x00f20903
     38c:	01040200 	mrseq	r0, R12_usr
     390:	08064a06 	stmdaeq	r6, {r1, r2, r9, fp, lr}
     394:	04020021 	streq	r0, [r2], #-33	; 0x21
     398:	064a0601 	strbeq	r0, [sl], -r1, lsl #12
     39c:	02002108 	andeq	r2, r0, #8, 2
     3a0:	4a060104 	bmi	1807b8 <__bss_end__+0x173d90>
     3a4:	2f220806 	svccs	0x00220806
     3a8:	0402004b 	streq	r0, [r2], #-75	; 0x4b
     3ac:	06660601 	strbteq	r0, [r6], -r1, lsl #12
     3b0:	674f2108 	strbvs	r2, [pc, -r8, lsl #2]
     3b4:	68a06730 	stmiavs	r0!, {r4, r5, r8, r9, sl, sp, lr}
     3b8:	834b8367 	movthi	r8, #45927	; 0xb367
     3bc:	d7ae0885 	strle	r0, [lr, r5, lsl #17]!
     3c0:	01040200 	mrseq	r0, R12_usr
     3c4:	08064a06 	stmdaeq	r6, {r1, r2, r9, fp, lr}
     3c8:	04020021 	streq	r0, [r2], #-33	; 0x21
     3cc:	064a0601 	strbeq	r0, [sl], -r1, lsl #12
     3d0:	02002108 	andeq	r2, r0, #8, 2
     3d4:	4a060104 	bmi	1807ec <__bss_end__+0x173dc4>
     3d8:	02040200 	andeq	r0, r4, #0, 4
     3dc:	00220806 	eoreq	r0, r2, r6, lsl #16
     3e0:	9f020402 	svcls	0x00020402
     3e4:	02040200 	andeq	r0, r4, #0, 4
     3e8:	0402002f 	streq	r0, [r2], #-47	; 0x2f
     3ec:	02002b02 	andeq	r2, r0, #2048	; 0x800
     3f0:	66060104 	strvs	r0, [r6], -r4, lsl #2
     3f4:	67f44f06 	ldrbvs	r4, [r4, r6, lsl #30]!
     3f8:	01040200 	mrseq	r0, R12_usr
     3fc:	08064a06 	stmdaeq	r6, {r1, r2, r9, fp, lr}
     400:	04020024 	streq	r0, [r2], #-36	; 0x24
     404:	064a0601 	strbeq	r0, [sl], -r1, lsl #12
     408:	08682208 	stmdaeq	r8!, {r3, r9, sp}^
     40c:	02004b22 	andeq	r4, r0, #34816	; 0x8800
     410:	4a060104 	bmi	180828 <__bss_end__+0x173e00>
     414:	4b240806 	blmi	902434 <__bss_end__+0x8f5a0c>
     418:	01040200 	mrseq	r0, R12_usr
     41c:	08064a06 	stmdaeq	r6, {r1, r2, r9, fp, lr}
     420:	4bfa4b22 	blmi	ffe930b0 <__bss_end__+0xffe86688>
     424:	2f4c3030 	svccs	0x004c3030
     428:	01040200 	mrseq	r0, R12_usr
     42c:	08064a06 	stmdaeq	r6, {r1, r2, r9, fp, lr}
     430:	04020021 	streq	r0, [r2], #-33	; 0x21
     434:	064a0601 	strbeq	r0, [sl], -r1, lsl #12
     438:	2fd82108 	svccs	0x00d82108
     43c:	02004b4e 	andeq	r4, r0, #79872	; 0x13800
     440:	4a060104 	bmi	180858 <__bss_end__+0x173e30>
     444:	00210806 	eoreq	r0, r1, r6, lsl #16
     448:	06010402 	streq	r0, [r1], -r2, lsl #8
     44c:	2108064a 	tstcs	r8, sl, asr #12
     450:	2f4bd72f 	svccs	0x004bd72f
     454:	01040200 	mrseq	r0, R12_usr
     458:	08064a06 	stmdaeq	r6, {r1, r2, r9, fp, lr}
     45c:	4bbc4b22 	blmi	fef130ec <__bss_end__+0xfef066c4>
     460:	01040200 	mrseq	r0, R12_usr
     464:	08064a06 	stmdaeq	r6, {r1, r2, r9, fp, lr}
     468:	4bbb2f21 	blmi	feecc0f4 <__bss_end__+0xfeebf6cc>
     46c:	0402002f 	streq	r0, [r2], #-47	; 0x2f
     470:	064a0601 	strbeq	r0, [sl], -r1, lsl #12
     474:	bd4b2208 	sfmlt	f2, 2, [fp, #-32]	; 0xffffffe0
     478:	2f2f3014 	svccs	0x002f3014
     47c:	02004b4f 	andeq	r4, r0, #80896	; 0x13c00
     480:	4a060104 	bmi	180898 <__bss_end__+0x173e70>
     484:	00210806 	eoreq	r0, r1, r6, lsl #16
     488:	06010402 	streq	r0, [r1], -r2, lsl #8
     48c:	2108064a 	tstcs	r8, sl, asr #12
     490:	01040200 	mrseq	r0, R12_usr
     494:	08066606 	stmdaeq	r6, {r1, r2, r9, sl, sp, lr}
     498:	67f56721 	ldrbvs	r6, [r5, r1, lsr #14]!
     49c:	16022f67 	strne	r2, [r2], -r7, ror #30
     4a0:	80010100 	andhi	r0, r1, r0, lsl #2
     4a4:	02000002 	andeq	r0, r0, #2
     4a8:	00015e00 	andeq	r5, r1, r0, lsl #28
     4ac:	fb010200 	blx	40cb6 <__bss_end__+0x3428e>
     4b0:	01000d0e 	tsteq	r0, lr, lsl #26
     4b4:	00010101 	andeq	r0, r1, r1, lsl #2
     4b8:	00010000 	andeq	r0, r1, r0
     4bc:	552f0100 	strpl	r0, [pc, #-256]!	; 3c4 <__code_start__-0x7c3c>
     4c0:	73726573 	cmnvc	r2, #482344960	; 0x1cc00000
     4c4:	6972622f 	ldmdbvs	r2!, {r0, r1, r2, r3, r5, r9, sp, lr}^
     4c8:	756a6e61 	strbvc	r6, [sl, #-3681]!	; 0xe61
     4cc:	65442f6e 	strbvs	r2, [r4, #-3950]	; 0xf6e
     4d0:	6f746b73 	svcvs	0x00746b73
     4d4:	63732f70 	cmnvs	r3, #112, 30	; 0x1c0
     4d8:	6c6f6f68 	stclvs	15, cr6, [pc], #-416	; 340 <__code_start__-0x7cc0>
     4dc:	7270532f 	rsbsvc	r5, r0, #-1140850688	; 0xbc000000
     4e0:	31676e69 	cmncc	r7, r9, ror #28
     4e4:	2f303239 	svccs	0x00303239
     4e8:	34325343 	ldrtcc	r5, [r2], #-835	; 0x343
     4ec:	2f584c30 	svccs	0x00584c30
     4f0:	34327363 	ldrtcc	r7, [r2], #-867	; 0x363
     4f4:	2d786c30 	ldclcs	12, cr6, [r8, #-192]!	; 0xffffff40
     4f8:	70733032 	rsbsvc	r3, r3, r2, lsr r0
     4fc:	696c2f72 	stmdbvs	ip!, {r1, r4, r5, r6, r8, r9, sl, fp, sp}^
     500:	2f697062 	svccs	0x00697062
     504:	6c636e69 	stclvs	14, cr6, [r3], #-420	; 0xfffffe5c
     508:	00656475 	rsbeq	r6, r5, r5, ror r4
     50c:	7273752f 	rsbsvc	r7, r3, #197132288	; 0xbc00000
     510:	636f6c2f 	cmnvs	pc, #12032	; 0x2f00
     514:	432f6c61 	teqmi	pc, #24832	; 0x6100
     518:	616c6c65 	cmnvs	ip, r5, ror #24
     51c:	72612f72 	rsbvc	r2, r1, #456	; 0x1c8
     520:	6f6e2d6d 	svcvs	0x006e2d6d
     524:	652d656e 	strvs	r6, [sp, #-1390]!	; 0x56e
     528:	2f696261 	svccs	0x00696261
     52c:	2e382e34 	mrccs	14, 1, r2, cr8, cr4, {1}
     530:	73632d33 	cmnvc	r3, #3264	; 0xcc0
     534:	65303731 	ldrvs	r3, [r0, #-1841]!	; 0x731
     538:	62696c2f 	rsbvs	r6, r9, #12032	; 0x2f00
     53c:	6363672f 	cmnvs	r3, #12320768	; 0xbc0000
     540:	6d72612f 	ldfvse	f6, [r2, #-188]!	; 0xffffff44
     544:	6e6f6e2d 	cdpvs	14, 6, cr6, cr15, cr13, {1}
     548:	61652d65 	cmnvs	r5, r5, ror #26
     54c:	342f6962 	strtcc	r6, [pc], #-2402	; 554 <__code_start__-0x7aac>
     550:	332e382e 	teqcc	lr, #3014656	; 0x2e0000
     554:	636e692f 	cmnvs	lr, #770048	; 0xbc000
     558:	6564756c 	strbvs	r7, [r4, #-1388]!	; 0x56c
     55c:	73552f00 	cmpvc	r5, #0, 30
     560:	2f737265 	svccs	0x00737265
     564:	61697262 	cmnvs	r9, r2, ror #4
     568:	6e756a6e 	vsubvs.f32	s13, s10, s29
     56c:	7365442f 	cmnvc	r5, #788529152	; 0x2f000000
     570:	706f746b 	rsbvc	r7, pc, fp, ror #8
     574:	6863732f 	stmdavs	r3!, {r0, r1, r2, r3, r5, r8, r9, ip, sp, lr}^
     578:	2f6c6f6f 	svccs	0x006c6f6f
     57c:	69727053 	ldmdbvs	r2!, {r0, r1, r4, r6, ip, sp, lr}^
     580:	3931676e 	ldmdbcc	r1!, {r1, r2, r3, r5, r6, r8, r9, sl, sp, lr}
     584:	432f3032 	teqmi	pc, #50	; 0x32
     588:	30343253 	eorscc	r3, r4, r3, asr r2
     58c:	632f584c 	teqvs	pc, #76, 16	; 0x4c0000
     590:	30343273 	eorscc	r3, r4, r3, ror r2
     594:	322d786c 	eorcc	r7, sp, #108, 16	; 0x6c0000
     598:	72707330 	rsbsvc	r7, r0, #48, 6	; 0xc0000000
     59c:	62696c2f 	rsbvs	r6, r9, #12032	; 0x2f00
     5a0:	6c2f6970 	stcvs	9, cr6, [pc], #-448	; 3e8 <__code_start__-0x7c18>
     5a4:	00636269 	rsbeq	r6, r3, r9, ror #4
     5a8:	756d6d00 	strbvc	r6, [sp, #-3328]!	; 0xd00
     5ac:	6c65682d 	stclvs	8, cr6, [r5], #-180	; 0xffffff4c
     5b0:	73726570 	cmnvc	r2, #112, 10	; 0x1c000000
     5b4:	0000632e 	andeq	r6, r0, lr, lsr #6
     5b8:	72610000 	rsbvc	r0, r1, #0
     5bc:	2d36766d 	ldccs	6, cr7, [r6, #-436]!	; 0xfffffe4c
     5c0:	35317063 	ldrcc	r7, [r1, #-99]!	; 0x63
     5c4:	0100682e 	tsteq	r0, lr, lsr #16
     5c8:	72610000 	rsbvc	r0, r1, #0
     5cc:	2d36766d 	ldccs	6, cr7, [r6, #-436]!	; 0xfffffe4c
     5d0:	682e6d76 	stmdavs	lr!, {r1, r2, r4, r5, r6, r8, sl, fp, sp, lr}
     5d4:	00000100 	andeq	r0, r0, r0, lsl #2
     5d8:	69647473 	stmdbvs	r4!, {r0, r1, r4, r5, r6, sl, ip, sp, lr}^
     5dc:	672d746e 	strvs	r7, [sp, -lr, ror #8]!
     5e0:	682e6363 	stmdavs	lr!, {r0, r1, r5, r6, r8, r9, sp, lr}
     5e4:	00000200 	andeq	r0, r0, r0, lsl #4
     5e8:	6362696c 	cmnvs	r2, #108, 18	; 0x1b0000
     5ec:	7478652d 	ldrbtvc	r6, [r8], #-1325	; 0x52d
     5f0:	682e6172 	stmdavs	lr!, {r1, r4, r5, r6, r8, sp, lr}
     5f4:	00000300 	andeq	r0, r0, r0, lsl #6
     5f8:	2e697072 	mcrcs	0, 3, r7, cr9, cr2, {3}
     5fc:	00010068 	andeq	r0, r1, r8, rrx
     600:	756d6d00 	strbvc	r6, [sp, #-3328]!	; 0xd00
     604:	0000682e 	andeq	r6, r0, lr, lsr #16
     608:	00000000 	andeq	r0, r0, r0
     60c:	8c500205 	lfmhi	f0, 2, [r0], {5}
     610:	0e030000 	cdpeq	0, 0, cr0, cr3, cr0, {0}
     614:	43086701 	movwmi	r6, #34561	; 0x8701
     618:	03dd4b2f 	bicseq	r4, sp, #48128	; 0xbc00
     61c:	4c014a19 	stcmi	10, cr4, [r1], {25}
     620:	01040200 	mrseq	r0, R12_usr
     624:	08069e06 	stmdaeq	r6, {r1, r2, r9, sl, fp, ip, pc}
     628:	04020021 	streq	r0, [r2], #-33	; 0x21
     62c:	06660601 	strbteq	r0, [r6], -r1, lsl #12
     630:	02002108 	andeq	r2, r0, #8, 2
     634:	66060104 	strvs	r0, [r6], -r4, lsl #2
     638:	00230806 	eoreq	r0, r3, r6, lsl #16
     63c:	06010402 	streq	r0, [r1], -r2, lsl #8
     640:	21080666 	tstcs	r8, r6, ror #12
     644:	01040200 	mrseq	r0, R12_usr
     648:	08066606 	stmdaeq	r6, {r1, r2, r9, sl, sp, lr}
     64c:	04020021 	streq	r0, [r2], #-33	; 0x21
     650:	06660601 	strbteq	r0, [r6], -r1, lsl #12
     654:	20080903 	andcs	r0, r8, r3, lsl #18
     658:	01040200 	mrseq	r0, R12_usr
     65c:	08066606 	stmdaeq	r6, {r1, r2, r9, sl, sp, lr}
     660:	04020021 	streq	r0, [r2], #-33	; 0x21
     664:	06660601 	strbteq	r0, [r6], -r1, lsl #12
     668:	02002108 	andeq	r2, r0, #8, 2
     66c:	66060104 	strvs	r0, [r6], -r4, lsl #2
     670:	08210806 	stmdaeq	r1!, {r1, r2, fp}
     674:	4b304bae 	blmi	c13534 <__bss_end__+0xc06b0c>
     678:	bbbbbbbb 	bllt	feeef56c <__bss_end__+0xfeee2b44>
     67c:	bbbb9f9f 	bllt	feee8500 <__bss_end__+0xfeedbad8>
     680:	bbbbbbbb 	bllt	feeef574 <__bss_end__+0xfeee2b4c>
     684:	bbbb9f9f 	bllt	feee8508 <__bss_end__+0xfeedbae0>
     688:	193402bb 	ldmdbne	r4!, {r0, r1, r3, r4, r5, r7, r9}
     68c:	4b4b0150 	blmi	12c0bd4 <__bss_end__+0x12b41ac>
     690:	4bf86783 	blmi	ffe1a4a4 <__bss_end__+0xffe0da7c>
     694:	01040200 	mrseq	r0, R12_usr
     698:	08066606 	stmdaeq	r6, {r1, r2, r9, sl, sp, lr}
     69c:	04020021 	streq	r0, [r2], #-33	; 0x21
     6a0:	06820601 	streq	r0, [r2], r1, lsl #12
     6a4:	02002108 	andeq	r2, r0, #8, 2
     6a8:	66060104 	strvs	r0, [r6], -r4, lsl #2
     6ac:	00210806 	eoreq	r0, r1, r6, lsl #16
     6b0:	06010402 	streq	r0, [r1], -r2, lsl #8
     6b4:	21080666 	tstcs	r8, r6, ror #12
     6b8:	01040200 	mrseq	r0, R12_usr
     6bc:	08066606 	stmdaeq	r6, {r1, r2, r9, sl, sp, lr}
     6c0:	04020021 	streq	r0, [r2], #-33	; 0x21
     6c4:	06660601 	strbteq	r0, [r6], -r1, lsl #12
     6c8:	02002108 	andeq	r2, r0, #8, 2
     6cc:	66060104 	strvs	r0, [r6], -r4, lsl #2
     6d0:	00210806 	eoreq	r0, r1, r6, lsl #16
     6d4:	06010402 	streq	r0, [r1], -r2, lsl #8
     6d8:	21080666 	tstcs	r8, r6, ror #12
     6dc:	4c159308 	ldcmi	3, cr9, [r5], {8}
     6e0:	1103674b 	tstne	r3, fp, asr #14
     6e4:	0402004a 	streq	r0, [r2], #-74	; 0x4a
     6e8:	00660601 	rsbeq	r0, r6, r1, lsl #12
     6ec:	08020402 	stmdaeq	r2, {r1, sl}
     6f0:	040200c8 	streq	r0, [r2], #-200	; 0xc8
     6f4:	08064a01 	stmdaeq	r6, {r0, r9, fp, lr}
     6f8:	4b220821 	blmi	882784 <__bss_end__+0x875d5c>
     6fc:	0200674b 	andeq	r6, r0, #19660800	; 0x12c0000
     700:	08060104 	stmdaeq	r6, {r2, r8}
     704:	9f4b0620 	svcls	0x004b0620
     708:	9f9fbb4c 	svcls	0x009fbb4c
     70c:	00bbbbbb 	ldrhteq	fp, [fp], fp
     710:	06010402 	streq	r0, [r1], -r2, lsl #8
     714:	4b065808 	blmi	19673c <__bss_end__+0x189d14>
     718:	a0bbbbbb 	ldrhtge	fp, [fp], fp
     71c:	2f192a02 	svccs	0x00192a02
     720:	04022f2f 	streq	r2, [r2], #-3887	; 0xf2f
     724:	4d010100 	stfmis	f0, [r1, #-0]
     728:	02000002 	andeq	r0, r0, #2
     72c:	00013500 	andeq	r3, r1, r0, lsl #10
     730:	fb010200 	blx	40f3a <__bss_end__+0x34512>
     734:	01000d0e 	tsteq	r0, lr, lsl #26
     738:	00010101 	andeq	r0, r1, r1, lsl #2
     73c:	00010000 	andeq	r0, r1, r0
     740:	002e0100 	eoreq	r0, lr, r0, lsl #2
     744:	6573552f 	ldrbvs	r5, [r3, #-1327]!	; 0x52f
     748:	622f7372 	eorvs	r7, pc, #-939524095	; 0xc8000001
     74c:	6e616972 	mcrvs	9, 3, r6, cr1, cr2, {3}
     750:	2f6e756a 	svccs	0x006e756a
     754:	6b736544 	blvs	1cd9c6c <__bss_end__+0x1ccd244>
     758:	2f706f74 	svccs	0x00706f74
     75c:	6f686373 	svcvs	0x00686373
     760:	532f6c6f 	teqpl	pc, #28416	; 0x6f00
     764:	6e697270 	mcrvs	2, 3, r7, cr9, cr0, {3}
     768:	32393167 	eorscc	r3, r9, #-1073741799	; 0xc0000019
     76c:	53432f30 	movtpl	r2, #16176	; 0x3f30
     770:	4c303432 	cfldrsmi	mvf3, [r0], #-200	; 0xffffff38
     774:	73632f58 	cmnvc	r3, #88, 30	; 0x160
     778:	6c303432 	cfldrsvs	mvf3, [r0], #-200	; 0xffffff38
     77c:	30322d78 	eorscc	r2, r2, r8, ror sp
     780:	2f727073 	svccs	0x00727073
     784:	7062696c 	rsbvc	r6, r2, ip, ror #18
     788:	6e692f69 	cdpvs	15, 6, cr2, cr9, cr9, {3}
     78c:	64756c63 	ldrbtvs	r6, [r5], #-3171	; 0xc63
     790:	752f0065 	strvc	r0, [pc, #-101]!	; 733 <__code_start__-0x78cd>
     794:	6c2f7273 	sfmvs	f7, 4, [pc], #-460	; 5d0 <__code_start__-0x7a30>
     798:	6c61636f 	stclvs	3, cr6, [r1], #-444	; 0xfffffe44
     79c:	6c65432f 	stclvs	3, cr4, [r5], #-188	; 0xffffff44
     7a0:	2f72616c 	svccs	0x0072616c
     7a4:	2d6d7261 	sfmcs	f7, 2, [sp, #-388]!	; 0xfffffe7c
     7a8:	656e6f6e 	strbvs	r6, [lr, #-3950]!	; 0xf6e
     7ac:	6261652d 	rsbvs	r6, r1, #188743680	; 0xb400000
     7b0:	2e342f69 	cdpcs	15, 3, cr2, cr4, cr9, {3}
     7b4:	2d332e38 	ldccs	14, cr2, [r3, #-224]!	; 0xffffff20
     7b8:	37317363 	ldrcc	r7, [r1, -r3, ror #6]!
     7bc:	6c2f6530 	cfstr32vs	mvfx6, [pc], #-192	; 704 <__code_start__-0x78fc>
     7c0:	672f6269 	strvs	r6, [pc, -r9, ror #4]!
     7c4:	612f6363 	teqvs	pc, r3, ror #6
     7c8:	6e2d6d72 	mcrvs	13, 1, r6, cr13, cr2, {3}
     7cc:	2d656e6f 	stclcs	14, cr6, [r5, #-444]!	; 0xfffffe44
     7d0:	69626165 	stmdbvs	r2!, {r0, r2, r5, r6, r8, sp, lr}^
     7d4:	382e342f 	stmdacc	lr!, {r0, r1, r2, r3, r5, sl, ip, sp}
     7d8:	692f332e 	stmdbvs	pc!, {r1, r2, r3, r5, r8, r9, ip, sp}	; <UNPREDICTABLE>
     7dc:	756c636e 	strbvc	r6, [ip, #-878]!	; 0x36e
     7e0:	00006564 	andeq	r6, r0, r4, ror #10
     7e4:	636d656d 	cmnvs	sp, #457179136	; 0x1b400000
     7e8:	6b636568 	blvs	18d9d90 <__bss_end__+0x18cd368>
     7ec:	0000632e 	andeq	r6, r0, lr, lsr #6
     7f0:	69620000 	stmdbvs	r2!, {}^	; <UNPREDICTABLE>
     7f4:	75732d74 	ldrbvc	r2, [r3, #-3444]!	; 0xd74
     7f8:	726f7070 	rsbvc	r7, pc, #112	; 0x70
     7fc:	00682e74 	rsbeq	r2, r8, r4, ror lr
     800:	63000001 	movwvs	r0, #1
     804:	2d343170 	ldfcss	f3, [r4, #-448]!	; 0xfffffe40
     808:	75626564 	strbvc	r6, [r2, #-1380]!	; 0x564
     80c:	00682e67 	rsbeq	r2, r8, r7, ror #28
     810:	61000000 	mrsvs	r0, (UNDEF: 0)
     814:	36766d72 			; <UNDEFINED> instruction: 0x36766d72
     818:	2e6d762d 	cdpcs	6, 6, cr7, cr13, cr13, {1}
     81c:	00020068 	andeq	r0, r2, r8, rrx
     820:	64747300 	ldrbtvs	r7, [r4], #-768	; 0x300
     824:	2d746e69 	ldclcs	14, cr6, [r4, #-420]!	; 0xfffffe5c
     828:	2e636367 	cdpcs	3, 6, cr6, cr3, cr7, {3}
     82c:	00030068 	andeq	r0, r3, r8, rrx
     830:	6d656d00 	stclvs	13, cr6, [r5, #-0]
     834:	63656863 	cmnvs	r5, #6488064	; 0x630000
     838:	00682e6b 	rsbeq	r2, r8, fp, ror #28
     83c:	72000000 	andvc	r0, r0, #0
     840:	682e6970 	stmdavs	lr!, {r4, r5, r6, r8, fp, sp, lr}
     844:	00000200 	andeq	r0, r0, r0, lsl #4
     848:	2e756d6d 	cdpcs	13, 7, cr6, cr5, cr13, {3}
     84c:	00000068 	andeq	r0, r0, r8, rrx
     850:	69707200 	ldmdbvs	r0!, {r9, ip, sp, lr}^
     854:	746e692d 	strbtvc	r6, [lr], #-2349	; 0x92d
     858:	75727265 	ldrbvc	r7, [r2, #-613]!	; 0x265
     85c:	2e737470 	mrccs	4, 3, r7, cr3, cr0, {3}
     860:	00020068 	andeq	r0, r2, r8, rrx
     864:	05000000 	streq	r0, [r0, #-0]
     868:	00956402 	addseq	r6, r5, r2, lsl #8
     86c:	011d0300 	tsteq	sp, r0, lsl #6
     870:	1367672f 	cmnne	r7, #12320768	; 0xbc0000
     874:	004b9fc0 	subeq	r9, fp, r0, asr #31
     878:	06010402 	streq	r0, [r1], -r2, lsl #8
     87c:	21080666 	tstcs	r8, r6, ror #12
     880:	01040200 	mrseq	r0, R12_usr
     884:	08066606 	stmdaeq	r6, {r1, r2, r9, sl, sp, lr}
     888:	04020021 	streq	r0, [r2], #-33	; 0x21
     88c:	06660601 	strbteq	r0, [r6], -r1, lsl #12
     890:	03d72108 	bicseq	r2, r7, #8, 2
     894:	673c080d 	ldrvs	r0, [ip, -sp, lsl #16]!
     898:	0302042f 	movweq	r0, #9263	; 0x242f
     89c:	59086660 	stmdbpl	r8, {r5, r6, r9, sl, sp, lr}
     8a0:	044b5908 	strbeq	r5, [fp], #-2312	; 0x908
     8a4:	4a1e0301 	bmi	7814b0 <__bss_end__+0x774a88>
     8a8:	020083f6 	andeq	r8, r0, #-671088637	; 0xd8000003
     8ac:	4a060104 	bmi	180cc4 <__bss_end__+0x17429c>
     8b0:	00210806 	eoreq	r0, r1, r6, lsl #16
     8b4:	06010402 	streq	r0, [r1], -r2, lsl #8
     8b8:	2208064a 	andcs	r0, r8, #77594624	; 0x4a00000
     8bc:	4b4c2d2f 	blmi	130bd80 <__bss_end__+0x12ff358>
     8c0:	13d60903 	bicsne	r0, r6, #49152	; 0xc000
     8c4:	049e2403 	ldreq	r2, [lr], #1027	; 0x403
     8c8:	66680303 	strbtvs	r0, [r8], -r3, lsl #6
     8cc:	03010432 	movweq	r0, #5170	; 0x1432
     8d0:	674d2e20 	strbvs	r2, [sp, -r0, lsr #28]
     8d4:	143c0284 	ldrtne	r0, [ip], #-644	; 0x284
     8d8:	d9d9d9d9 	ldmible	r9, {r0, r3, r4, r6, r7, r8, fp, ip, lr, pc}^
     8dc:	d9a1d9d9 	stmible	r1!, {r0, r3, r4, r6, r7, r8, fp, ip, lr, pc}
     8e0:	83a0834b 	movhi	r8, #738197505	; 0x2c000001
     8e4:	d9f5d94f 	ldmible	r5!, {r0, r1, r2, r3, r6, r8, fp, ip, lr, pc}^
     8e8:	d9d9d9d9 	ldmible	r9, {r0, r3, r4, r6, r7, r8, fp, ip, lr, pc}^
     8ec:	03d9d9d9 	bicseq	sp, r9, #3555328	; 0x364000
     8f0:	3a02d614 	bcc	b6148 <__bss_end__+0xa9720>
     8f4:	032f2f15 	teqeq	pc, #21, 30	; 0x54
     8f8:	4c3c080c 	ldcmi	8, cr0, [ip], #-48	; 0xffffffd0
     8fc:	04020030 	streq	r0, [r2], #-48	; 0x30
     900:	06660601 	strbteq	r0, [r6], -r1, lsl #12
     904:	009f2408 	addseq	r2, pc, r8, lsl #8
     908:	06010402 	streq	r0, [r1], -r2, lsl #8
     90c:	2508064a 	strcs	r0, [r8, #-1610]	; 0x64a
     910:	a29fbc84 	addsge	fp, pc, #132, 24	; 0x8400
     914:	a1a19f9f 	strexdge	r9, pc, [r1]
     918:	08834d34 	stmeq	r3, {r2, r4, r5, r8, sl, fp, lr}
     91c:	2fa04b5c 	svccs	0x00a04b5c
     920:	01040200 	mrseq	r0, R12_usr
     924:	08066606 	stmdaeq	r6, {r1, r2, r9, sl, sp, lr}
     928:	5b089f21 	blpl	2285b4 <__bss_end__+0x21bb8c>
     92c:	02002f4c 	andeq	r2, r0, #76, 30	; 0x130
     930:	66060104 	strvs	r0, [r6], -r4, lsl #2
     934:	9f210806 	svcls	0x00210806
     938:	00672208 	rsbeq	r2, r7, r8, lsl #4
     93c:	06010402 	streq	r0, [r1], -r2, lsl #8
     940:	23080666 	movwcs	r0, #34406	; 0x8666
     944:	0067f4bb 	strhteq	pc, [r7], #-75	; 0xffffffb5	; <UNPREDICTABLE>
     948:	06010402 	streq	r0, [r1], -r2, lsl #8
     94c:	23080666 	movwcs	r0, #34406	; 0x8666
     950:	302ff4bb 	strhtcc	pc, [pc], -fp	; <UNPREDICTABLE>
     954:	6a4b2fda 	bvs	12cc8c4 <__bss_end__+0x12bfe9c>
     958:	0200674b 	andeq	r6, r0, #19660800	; 0x12c0000
     95c:	66060104 	strvs	r0, [r6], -r4, lsl #2
     960:	d7210806 	strle	r0, [r1, -r6, lsl #16]!
     964:	0200674b 	andeq	r6, r0, #19660800	; 0x12c0000
     968:	66060104 	strvs	r0, [r6], -r4, lsl #2
     96c:	d8210806 	stmdale	r1!, {r1, r2, fp}
     970:	02302f4b 	eorseq	r2, r0, #300	; 0x12c
     974:	01010006 	tsteq	r1, r6
     978:	000000de 	ldrdeq	r0, [r0], -lr
     97c:	00830002 	addeq	r0, r3, r2
     980:	01020000 	mrseq	r0, (UNDEF: 2)
     984:	000d0efb 	strdeq	r0, [sp], -fp
     988:	01010101 	tsteq	r1, r1, lsl #2
     98c:	01000000 	mrseq	r0, (UNDEF: 0)
     990:	6c010000 	stcvs	0, cr0, [r1], {-0}
     994:	00636269 	rsbeq	r6, r3, r9, ror #4
     998:	7273752f 	rsbsvc	r7, r3, #197132288	; 0xbc00000
     99c:	636f6c2f 	cmnvs	pc, #12032	; 0x2f00
     9a0:	432f6c61 	teqmi	pc, #24832	; 0x6100
     9a4:	616c6c65 	cmnvs	ip, r5, ror #24
     9a8:	72612f72 	rsbvc	r2, r1, #456	; 0x1c8
     9ac:	6f6e2d6d 	svcvs	0x006e2d6d
     9b0:	652d656e 	strvs	r6, [sp, #-1390]!	; 0x56e
     9b4:	2f696261 	svccs	0x00696261
     9b8:	2e382e34 	mrccs	14, 1, r2, cr8, cr4, {1}
     9bc:	73632d33 	cmnvc	r3, #3264	; 0xcc0
     9c0:	65303731 	ldrvs	r3, [r0, #-1841]!	; 0x731
     9c4:	62696c2f 	rsbvs	r6, r9, #12032	; 0x2f00
     9c8:	6363672f 	cmnvs	r3, #12320768	; 0xbc0000
     9cc:	6d72612f 	ldfvse	f6, [r2, #-188]!	; 0xffffff44
     9d0:	6e6f6e2d 	cdpvs	14, 6, cr6, cr15, cr13, {1}
     9d4:	61652d65 	cmnvs	r5, r5, ror #26
     9d8:	342f6962 	strtcc	r6, [pc], #-2402	; 9e0 <__code_start__-0x7620>
     9dc:	332e382e 	teqcc	lr, #3014656	; 0x2e0000
     9e0:	636e692f 	cmnvs	lr, #770048	; 0xbc000
     9e4:	6564756c 	strbvs	r7, [r4, #-1388]!	; 0x56c
     9e8:	61680000 	cmnvs	r8, r0
     9ec:	632e6873 	teqvs	lr, #7536640	; 0x730000
     9f0:	00000100 	andeq	r0, r0, r0, lsl #2
     9f4:	69647473 	stmdbvs	r4!, {r0, r1, r4, r5, r6, sl, ip, sp, lr}^
     9f8:	672d746e 	strvs	r7, [sp, -lr, ror #8]!
     9fc:	682e6363 	stmdavs	lr!, {r0, r1, r5, r6, r8, r9, sp, lr}
     a00:	00000200 	andeq	r0, r0, r0, lsl #4
     a04:	02050000 	andeq	r0, r5, #0
     a08:	0000a380 	andeq	sl, r0, r0, lsl #7
     a0c:	30010e03 	andcc	r0, r1, r3, lsl #28
     a10:	312f8431 	teqcc	pc, r1, lsr r4	; <UNPREDICTABLE>
     a14:	02040200 	andeq	r0, r4, #0, 4
     a18:	0402002f 	streq	r0, [r2], #-47	; 0x2f
     a1c:	02008302 	andeq	r8, r0, #134217728	; 0x8000000
     a20:	00830204 	addeq	r0, r3, r4, lsl #4
     a24:	2f020402 	svccs	0x00020402
     a28:	02040200 	andeq	r0, r4, #0, 4
     a2c:	0402002f 	streq	r0, [r2], #-47	; 0x2f
     a30:	02002902 	andeq	r2, r0, #32768	; 0x8000
     a34:	2e060104 	adfcss	f0, f6, f4
     a38:	4a090306 	bmi	241658 <__bss_end__+0x234c30>
     a3c:	4b2f83d7 	blmi	be19a0 <__bss_end__+0xbd4f78>
     a40:	2f832f2f 	svccs	0x00832f2f
     a44:	2f4b2f2f 	svccs	0x004b2f2f
     a48:	2f2f2f32 	svccs	0x002f2f32
     a4c:	03302f2f 	teqeq	r0, #47, 30	; 0xbc
     a50:	27032e5a 	smlsdcs	r3, sl, lr, r2
     a54:	0004022e 	andeq	r0, r4, lr, lsr #4
     a58:	00ec0101 	rsceq	r0, ip, r1, lsl #2
     a5c:	00020000 	andeq	r0, r2, r0
     a60:	000000d0 	ldrdeq	r0, [r0], -r0	; <UNPREDICTABLE>
     a64:	0efb0102 	cdpeq	1, 15, cr0, cr11, cr2, {0}
     a68:	0101000d 	tsteq	r1, sp
     a6c:	00000101 	andeq	r0, r0, r1, lsl #2
     a70:	00000100 	andeq	r0, r0, r0, lsl #2
     a74:	62696c01 	rsbvs	r6, r9, #256	; 0x100
     a78:	752f0063 	strvc	r0, [pc, #-99]!	; a1d <__code_start__-0x75e3>
     a7c:	6c2f7273 	sfmvs	f7, 4, [pc], #-460	; 8b8 <__code_start__-0x7748>
     a80:	6c61636f 	stclvs	3, cr6, [r1], #-444	; 0xfffffe44
     a84:	6c65432f 	stclvs	3, cr4, [r5], #-188	; 0xffffff44
     a88:	2f72616c 	svccs	0x0072616c
     a8c:	2d6d7261 	sfmcs	f7, 2, [sp, #-388]!	; 0xfffffe7c
     a90:	656e6f6e 	strbvs	r6, [lr, #-3950]!	; 0xf6e
     a94:	6261652d 	rsbvs	r6, r1, #188743680	; 0xb400000
     a98:	2e342f69 	cdpcs	15, 3, cr2, cr4, cr9, {3}
     a9c:	2d332e38 	ldccs	14, cr2, [r3, #-224]!	; 0xffffff20
     aa0:	37317363 	ldrcc	r7, [r1, -r3, ror #6]!
     aa4:	6c2f6530 	cfstr32vs	mvfx6, [pc], #-192	; 9ec <__code_start__-0x7614>
     aa8:	672f6269 	strvs	r6, [pc, -r9, ror #4]!
     aac:	612f6363 	teqvs	pc, r3, ror #6
     ab0:	6e2d6d72 	mcrvs	13, 1, r6, cr13, cr2, {3}
     ab4:	2d656e6f 	stclcs	14, cr6, [r5, #-444]!	; 0xfffffe44
     ab8:	69626165 	stmdbvs	r2!, {r0, r2, r5, r6, r8, sp, lr}^
     abc:	382e342f 	stmdacc	lr!, {r0, r1, r2, r3, r5, sl, ip, sp}
     ac0:	692f332e 	stmdbvs	pc!, {r1, r2, r3, r5, r8, r9, ip, sp}	; <UNPREDICTABLE>
     ac4:	756c636e 	strbvc	r6, [ip, #-878]!	; 0x36e
     ac8:	2f006564 	svccs	0x00006564
     acc:	2f727375 	svccs	0x00727375
     ad0:	61636f6c 	cmnvs	r3, ip, ror #30
     ad4:	65432f6c 	strbvs	r2, [r3, #-3948]	; 0xf6c
     ad8:	72616c6c 	rsbvc	r6, r1, #108, 24	; 0x6c00
     adc:	6d72612f 	ldfvse	f6, [r2, #-188]!	; 0xffffff44
     ae0:	6e6f6e2d 	cdpvs	14, 6, cr6, cr15, cr13, {1}
     ae4:	61652d65 	cmnvs	r5, r5, ror #26
     ae8:	342f6962 	strtcc	r6, [pc], #-2402	; af0 <__code_start__-0x7510>
     aec:	332e382e 	teqcc	lr, #3014656	; 0x2e0000
     af0:	3173632d 	cmncc	r3, sp, lsr #6
     af4:	2f653037 	svccs	0x00653037
     af8:	2d6d7261 	sfmcs	f7, 2, [sp, #-388]!	; 0xfffffe7c
     afc:	656e6f6e 	strbvs	r6, [lr, #-3950]!	; 0xf6e
     b00:	6261652d 	rsbvs	r6, r1, #188743680	; 0xb400000
     b04:	6e692f69 	cdpvs	15, 6, cr2, cr9, cr9, {3}
     b08:	64756c63 	ldrbtvs	r6, [r5], #-3171	; 0xc63
     b0c:	6d000065 	stcvs	0, cr0, [r0, #-404]	; 0xfffffe6c
     b10:	65736d65 	ldrbvs	r6, [r3, #-3429]!	; 0xd65
     b14:	00632e74 	rsbeq	r2, r3, r4, ror lr
     b18:	73000001 	movwvc	r0, #1
     b1c:	65646474 	strbvs	r6, [r4, #-1140]!	; 0x474
     b20:	00682e66 	rsbeq	r2, r8, r6, ror #28
     b24:	73000002 	movwvc	r0, #2
     b28:	6e697274 	mcrvs	2, 3, r7, cr9, cr4, {3}
     b2c:	00682e67 	rsbeq	r2, r8, r7, ror #28
     b30:	00000003 	andeq	r0, r0, r3
     b34:	70020500 	andvc	r0, r2, r0, lsl #10
     b38:	140000a4 	strne	r0, [r0], #-164	; 0xa4
     b3c:	002f4c13 	eoreq	r4, pc, r3, lsl ip	; <UNPREDICTABLE>
     b40:	49010402 	stmdbmi	r1, {r1, sl}
     b44:	0002024d 	andeq	r0, r2, sp, asr #4
     b48:	010c0101 	tsteq	ip, r1, lsl #2
     b4c:	00020000 	andeq	r0, r2, r0
     b50:	000000f5 	strdeq	r0, [r0], -r5
     b54:	0efb0102 	cdpeq	1, 15, cr0, cr11, cr2, {0}
     b58:	0101000d 	tsteq	r1, sp
     b5c:	00000101 	andeq	r0, r0, r1, lsl #2
     b60:	00000100 	andeq	r0, r0, r0, lsl #2
     b64:	62696c01 	rsbvs	r6, r9, #256	; 0x100
     b68:	752f0063 	strvc	r0, [pc, #-99]!	; b0d <__code_start__-0x74f3>
     b6c:	6c2f7273 	sfmvs	f7, 4, [pc], #-460	; 9a8 <__code_start__-0x7658>
     b70:	6c61636f 	stclvs	3, cr6, [r1], #-444	; 0xfffffe44
     b74:	6c65432f 	stclvs	3, cr4, [r5], #-188	; 0xffffff44
     b78:	2f72616c 	svccs	0x0072616c
     b7c:	2d6d7261 	sfmcs	f7, 2, [sp, #-388]!	; 0xfffffe7c
     b80:	656e6f6e 	strbvs	r6, [lr, #-3950]!	; 0xf6e
     b84:	6261652d 	rsbvs	r6, r1, #188743680	; 0xb400000
     b88:	2e342f69 	cdpcs	15, 3, cr2, cr4, cr9, {3}
     b8c:	2d332e38 	ldccs	14, cr2, [r3, #-224]!	; 0xffffff20
     b90:	37317363 	ldrcc	r7, [r1, -r3, ror #6]!
     b94:	6c2f6530 	cfstr32vs	mvfx6, [pc], #-192	; adc <__code_start__-0x7524>
     b98:	672f6269 	strvs	r6, [pc, -r9, ror #4]!
     b9c:	612f6363 	teqvs	pc, r3, ror #6
     ba0:	6e2d6d72 	mcrvs	13, 1, r6, cr13, cr2, {3}
     ba4:	2d656e6f 	stclcs	14, cr6, [r5, #-444]!	; 0xfffffe44
     ba8:	69626165 	stmdbvs	r2!, {r0, r2, r5, r6, r8, sp, lr}^
     bac:	382e342f 	stmdacc	lr!, {r0, r1, r2, r3, r5, sl, ip, sp}
     bb0:	692f332e 	stmdbvs	pc!, {r1, r2, r3, r5, r8, r9, ip, sp}	; <UNPREDICTABLE>
     bb4:	756c636e 	strbvc	r6, [ip, #-878]!	; 0x36e
     bb8:	2f006564 	svccs	0x00006564
     bbc:	72657355 	rsbvc	r7, r5, #1409286145	; 0x54000001
     bc0:	72622f73 	rsbvc	r2, r2, #460	; 0x1cc
     bc4:	6a6e6169 	bvs	1b99170 <__bss_end__+0x1b8c748>
     bc8:	442f6e75 	strtmi	r6, [pc], #-3701	; bd0 <__code_start__-0x7430>
     bcc:	746b7365 	strbtvc	r7, [fp], #-869	; 0x365
     bd0:	732f706f 	teqvc	pc, #111	; 0x6f
     bd4:	6f6f6863 	svcvs	0x006f6863
     bd8:	70532f6c 	subsvc	r2, r3, ip, ror #30
     bdc:	676e6972 			; <UNDEFINED> instruction: 0x676e6972
     be0:	30323931 	eorscc	r3, r2, r1, lsr r9
     be4:	3253432f 	subscc	r4, r3, #-1140850688	; 0xbc000000
     be8:	584c3034 	stmdapl	ip, {r2, r4, r5, ip, sp}^
     bec:	3273632f 	rsbscc	r6, r3, #-1140850688	; 0xbc000000
     bf0:	786c3034 	stmdavc	ip!, {r2, r4, r5, ip, sp}^
     bf4:	7330322d 	teqvc	r0, #-805306366	; 0xd0000002
     bf8:	6c2f7270 	sfmvs	f7, 4, [pc], #-448	; a40 <__code_start__-0x75c0>
     bfc:	69706269 	ldmdbvs	r0!, {r0, r3, r5, r6, r9, sp, lr}^
     c00:	636e692f 	cmnvs	lr, #770048	; 0xbc000
     c04:	6564756c 	strbvs	r7, [r4, #-1388]!	; 0x56c
     c08:	72700000 	rsbsvc	r0, r0, #0
     c0c:	6b746e69 	blvs	1d1c5b8 <__bss_end__+0x1d0fb90>
     c10:	0100632e 	tsteq	r0, lr, lsr #6
     c14:	74730000 	ldrbtvc	r0, [r3], #-0
     c18:	67726164 	ldrbvs	r6, [r2, -r4, ror #2]!
     c1c:	0200682e 	andeq	r6, r0, #3014656	; 0x2e0000
     c20:	623c0000 	eorsvs	r0, ip, #0
     c24:	746c6975 	strbtvc	r6, [ip], #-2421	; 0x975
     c28:	3e6e692d 	cdpcc	9, 6, cr6, cr14, cr13, {1}
     c2c:	00000000 	andeq	r0, r0, r0
     c30:	2e697072 	mcrcs	0, 3, r7, cr9, cr2, {3}
     c34:	00030068 	andeq	r0, r3, r8, rrx
     c38:	2d617600 	stclcs	6, cr7, [r1, #-0]
     c3c:	6e697270 	mcrvs	2, 3, r7, cr9, cr0, {3}
     c40:	682e6b74 	stmdavs	lr!, {r2, r4, r5, r6, r8, r9, fp, sp, lr}
     c44:	00000100 	andeq	r0, r0, r0, lsl #2
     c48:	02050000 	andeq	r0, r5, #0
     c4c:	0000a490 	muleq	r0, r0, r4
     c50:	bf4b6b17 	svclt	0x004b6b17
     c54:	000e0289 	andeq	r0, lr, r9, lsl #5
     c58:	00940101 	addseq	r0, r4, r1, lsl #2
     c5c:	00020000 	andeq	r0, r2, r0
     c60:	0000007c 	andeq	r0, r0, ip, ror r0
     c64:	0efb0102 	cdpeq	1, 15, cr0, cr11, cr2, {0}
     c68:	0101000d 	tsteq	r1, sp
     c6c:	00000101 	andeq	r0, r0, r1, lsl #2
     c70:	00000100 	andeq	r0, r0, r0, lsl #2
     c74:	62696c01 	rsbvs	r6, r9, #256	; 0x100
     c78:	552f0063 	strpl	r0, [pc, #-99]!	; c1d <__code_start__-0x73e3>
     c7c:	73726573 	cmnvc	r2, #482344960	; 0x1cc00000
     c80:	6972622f 	ldmdbvs	r2!, {r0, r1, r2, r3, r5, r9, sp, lr}^
     c84:	756a6e61 	strbvc	r6, [sl, #-3681]!	; 0xe61
     c88:	65442f6e 	strbvs	r2, [r4, #-3950]	; 0xf6e
     c8c:	6f746b73 	svcvs	0x00746b73
     c90:	63732f70 	cmnvs	r3, #112, 30	; 0x1c0
     c94:	6c6f6f68 	stclvs	15, cr6, [pc], #-416	; afc <__code_start__-0x7504>
     c98:	7270532f 	rsbsvc	r5, r0, #-1140850688	; 0xbc000000
     c9c:	31676e69 	cmncc	r7, r9, ror #28
     ca0:	2f303239 	svccs	0x00303239
     ca4:	34325343 	ldrtcc	r5, [r2], #-835	; 0x343
     ca8:	2f584c30 	svccs	0x00584c30
     cac:	34327363 	ldrtcc	r7, [r2], #-867	; 0x363
     cb0:	2d786c30 	ldclcs	12, cr6, [r8, #-192]!	; 0xffffff40
     cb4:	70733032 	rsbsvc	r3, r3, r2, lsr r0
     cb8:	696c2f72 	stmdbvs	ip!, {r1, r4, r5, r6, r8, r9, sl, fp, sp}^
     cbc:	2f697062 	svccs	0x00697062
     cc0:	6c636e69 	stclvs	14, cr6, [r3], #-420	; 0xfffffe5c
     cc4:	00656475 	rsbeq	r6, r5, r5, ror r4
     cc8:	74757000 	ldrbtvc	r7, [r5], #-0
     ccc:	72616863 	rsbvc	r6, r1, #6488064	; 0x630000
     cd0:	0100632e 	tsteq	r0, lr, lsr #6
     cd4:	70720000 	rsbsvc	r0, r2, r0
     cd8:	00682e69 	rsbeq	r2, r8, r9, ror #28
     cdc:	00000002 	andeq	r0, r0, r2
     ce0:	e8020500 	stmda	r2, {r8, sl}
     ce4:	140000a4 	strne	r0, [r0], #-164	; 0xa4
     ce8:	bc136b4a 	ldclt	11, cr6, [r3], {74}	; 0x4a
     cec:	00080213 	andeq	r0, r8, r3, lsl r2
     cf0:	00a00101 	adceq	r0, r0, r1, lsl #2
     cf4:	00020000 	andeq	r0, r2, r0
     cf8:	00000079 	andeq	r0, r0, r9, ror r0
     cfc:	0efb0102 	cdpeq	1, 15, cr0, cr11, cr2, {0}
     d00:	0101000d 	tsteq	r1, sp
     d04:	00000101 	andeq	r0, r0, r1, lsl #2
     d08:	00000100 	andeq	r0, r0, r0, lsl #2
     d0c:	62696c01 	rsbvs	r6, r9, #256	; 0x100
     d10:	552f0063 	strpl	r0, [pc, #-99]!	; cb5 <__code_start__-0x734b>
     d14:	73726573 	cmnvc	r2, #482344960	; 0x1cc00000
     d18:	6972622f 	ldmdbvs	r2!, {r0, r1, r2, r3, r5, r9, sp, lr}^
     d1c:	756a6e61 	strbvc	r6, [sl, #-3681]!	; 0xe61
     d20:	65442f6e 	strbvs	r2, [r4, #-3950]	; 0xf6e
     d24:	6f746b73 	svcvs	0x00746b73
     d28:	63732f70 	cmnvs	r3, #112, 30	; 0x1c0
     d2c:	6c6f6f68 	stclvs	15, cr6, [pc], #-416	; b94 <__code_start__-0x746c>
     d30:	7270532f 	rsbsvc	r5, r0, #-1140850688	; 0xbc000000
     d34:	31676e69 	cmncc	r7, r9, ror #28
     d38:	2f303239 	svccs	0x00303239
     d3c:	34325343 	ldrtcc	r5, [r2], #-835	; 0x343
     d40:	2f584c30 	svccs	0x00584c30
     d44:	34327363 	ldrtcc	r7, [r2], #-867	; 0x363
     d48:	2d786c30 	ldclcs	12, cr6, [r8, #-192]!	; 0xffffff40
     d4c:	70733032 	rsbsvc	r3, r3, r2, lsr r0
     d50:	696c2f72 	stmdbvs	ip!, {r1, r4, r5, r6, r8, r9, sl, fp, sp}^
     d54:	2f697062 	svccs	0x00697062
     d58:	6c636e69 	stclvs	14, cr6, [r3], #-420	; 0xfffffe5c
     d5c:	00656475 	rsbeq	r6, r5, r5, ror r4
     d60:	74757000 	ldrbtvc	r7, [r5], #-0
     d64:	00632e6b 	rsbeq	r2, r3, fp, ror #28
     d68:	72000001 	andvc	r0, r0, #1
     d6c:	682e6970 	stmdavs	lr!, {r4, r5, r6, r8, fp, sp, lr}
     d70:	00000200 	andeq	r0, r0, r0, lsl #4
     d74:	02050000 	andeq	r0, r5, #0
     d78:	0000a524 	andeq	sl, r0, r4, lsr #10
     d7c:	002d4c15 	eoreq	r4, sp, r5, lsl ip
     d80:	2f020402 	svccs	0x00020402
     d84:	02040200 	andeq	r0, r4, #0, 4
     d88:	04020049 	streq	r0, [r2], #-73	; 0x49
     d8c:	062e0601 	strteq	r0, [lr], -r1, lsl #12
     d90:	0006026b 	andeq	r0, r6, fp, ror #4
     d94:	01f10101 	mvnseq	r0, r1, lsl #2
     d98:	00020000 	andeq	r0, r2, r0
     d9c:	000000e9 	andeq	r0, r0, r9, ror #1
     da0:	0efb0102 	cdpeq	1, 15, cr0, cr11, cr2, {0}
     da4:	0101000d 	tsteq	r1, sp
     da8:	00000101 	andeq	r0, r0, r1, lsl #2
     dac:	00000100 	andeq	r0, r0, r0, lsl #2
     db0:	62696c01 	rsbvs	r6, r9, #256	; 0x100
     db4:	752f0063 	strvc	r0, [pc, #-99]!	; d59 <__code_start__-0x72a7>
     db8:	6c2f7273 	sfmvs	f7, 4, [pc], #-460	; bf4 <__code_start__-0x740c>
     dbc:	6c61636f 	stclvs	3, cr6, [r1], #-444	; 0xfffffe44
     dc0:	6c65432f 	stclvs	3, cr4, [r5], #-188	; 0xffffff44
     dc4:	2f72616c 	svccs	0x0072616c
     dc8:	2d6d7261 	sfmcs	f7, 2, [sp, #-388]!	; 0xfffffe7c
     dcc:	656e6f6e 	strbvs	r6, [lr, #-3950]!	; 0xf6e
     dd0:	6261652d 	rsbvs	r6, r1, #188743680	; 0xb400000
     dd4:	2e342f69 	cdpcs	15, 3, cr2, cr4, cr9, {3}
     dd8:	2d332e38 	ldccs	14, cr2, [r3, #-224]!	; 0xffffff20
     ddc:	37317363 	ldrcc	r7, [r1, -r3, ror #6]!
     de0:	6c2f6530 	cfstr32vs	mvfx6, [pc], #-192	; d28 <__code_start__-0x72d8>
     de4:	672f6269 	strvs	r6, [pc, -r9, ror #4]!
     de8:	612f6363 	teqvs	pc, r3, ror #6
     dec:	6e2d6d72 	mcrvs	13, 1, r6, cr13, cr2, {3}
     df0:	2d656e6f 	stclcs	14, cr6, [r5, #-444]!	; 0xfffffe44
     df4:	69626165 	stmdbvs	r2!, {r0, r2, r5, r6, r8, sp, lr}^
     df8:	382e342f 	stmdacc	lr!, {r0, r1, r2, r3, r5, sl, ip, sp}
     dfc:	692f332e 	stmdbvs	pc!, {r1, r2, r3, r5, r8, r9, ip, sp}	; <UNPREDICTABLE>
     e00:	756c636e 	strbvc	r6, [ip, #-878]!	; 0x36e
     e04:	2f006564 	svccs	0x00006564
     e08:	72657355 	rsbvc	r7, r5, #1409286145	; 0x54000001
     e0c:	72622f73 	rsbvc	r2, r2, #460	; 0x1cc
     e10:	6a6e6169 	bvs	1b993bc <__bss_end__+0x1b8c994>
     e14:	442f6e75 	strtmi	r6, [pc], #-3701	; e1c <__code_start__-0x71e4>
     e18:	746b7365 	strbtvc	r7, [fp], #-869	; 0x365
     e1c:	732f706f 	teqvc	pc, #111	; 0x6f
     e20:	6f6f6863 	svcvs	0x006f6863
     e24:	70532f6c 	subsvc	r2, r3, ip, ror #30
     e28:	676e6972 			; <UNDEFINED> instruction: 0x676e6972
     e2c:	30323931 	eorscc	r3, r2, r1, lsr r9
     e30:	3253432f 	subscc	r4, r3, #-1140850688	; 0xbc000000
     e34:	584c3034 	stmdapl	ip, {r2, r4, r5, ip, sp}^
     e38:	3273632f 	rsbscc	r6, r3, #-1140850688	; 0xbc000000
     e3c:	786c3034 	stmdavc	ip!, {r2, r4, r5, ip, sp}^
     e40:	7330322d 	teqvc	r0, #-805306366	; 0xd0000002
     e44:	6c2f7270 	sfmvs	f7, 4, [pc], #-448	; c8c <__code_start__-0x7374>
     e48:	69706269 	ldmdbvs	r0!, {r0, r3, r5, r6, r9, sp, lr}^
     e4c:	636e692f 	cmnvs	lr, #770048	; 0xbc000
     e50:	6564756c 	strbvs	r7, [r4, #-1388]!	; 0x56c
     e54:	61760000 	cmnvs	r6, r0
     e58:	6972702d 	ldmdbvs	r2!, {r0, r2, r3, r5, ip, sp, lr}^
     e5c:	2e6b746e 	cdpcs	4, 6, cr7, cr11, cr14, {3}
     e60:	00010063 	andeq	r0, r1, r3, rrx
     e64:	64747300 	ldrbtvs	r7, [r4], #-768	; 0x300
     e68:	2e677261 	cdpcs	2, 6, cr7, cr7, cr1, {3}
     e6c:	00020068 	andeq	r0, r2, r8, rrx
     e70:	69707200 	ldmdbvs	r0!, {r9, ip, sp, lr}^
     e74:	0300682e 	movweq	r6, #2094	; 0x82e
     e78:	623c0000 	eorsvs	r0, ip, #0
     e7c:	746c6975 	strbtvc	r6, [ip], #-2421	; 0x975
     e80:	3e6e692d 	cdpcc	9, 6, cr6, cr14, cr13, {1}
     e84:	00000000 	andeq	r0, r0, r0
     e88:	02050000 	andeq	r0, r5, #0
     e8c:	0000a558 	andeq	sl, r0, r8, asr r5
     e90:	01012603 	tsteq	r1, r3, lsl #12
     e94:	2d3113a5 	ldccs	3, cr1, [r1, #-660]!	; 0xfffffd6c
     e98:	02040200 	andeq	r0, r4, #0, 4
     e9c:	0402002f 	streq	r0, [r2], #-47	; 0x2f
     ea0:	02002d02 	andeq	r2, r0, #2, 26	; 0x80
     ea4:	002f0204 	eoreq	r0, pc, r4, lsl #4
     ea8:	2d010402 	cfstrscs	mvf0, [r1, #-8]
     eac:	14304c4c 	ldrtne	r4, [r0], #-3148	; 0xc4c
     eb0:	004f2f4b 	subeq	r2, pc, fp, asr #30
     eb4:	67020402 	strvs	r0, [r2, -r2, lsl #8]
     eb8:	01040200 	mrseq	r0, R12_usr
     ebc:	304d4c65 	subcc	r4, sp, r5, ror #24
     ec0:	30312fa0 	eorscc	r2, r1, r0, lsr #31
     ec4:	84162602 	ldrhi	r2, [r6], #-1538	; 0x602
     ec8:	02002c2d 	andeq	r2, r0, #11520	; 0x2d00
     ecc:	00300104 	eorseq	r0, r0, r4, lsl #2
     ed0:	33010402 	movwcc	r0, #5122	; 0x1402
     ed4:	02006606 	andeq	r6, r0, #6291456	; 0x600000
     ed8:	002e0104 	eoreq	r0, lr, r4, lsl #2
     edc:	06010402 	streq	r0, [r1], -r2, lsl #8
     ee0:	2f672108 	svccs	0x00672108
     ee4:	03827303 	orreq	r7, r2, #201326592	; 0xc000000
     ee8:	02002e13 	andeq	r2, r0, #304	; 0x130
     eec:	66060104 	strvs	r0, [r6], -r4, lsl #2
     ef0:	01040200 	mrseq	r0, R12_usr
     ef4:	4b4b8306 	blmi	12e1b14 <__bss_end__+0x12d50ec>
     ef8:	034b3167 	movteq	r3, #45415	; 0xb167
     efc:	23032e65 	movwcs	r2, #15973	; 0x3e65
     f00:	0402002e 	streq	r0, [r2], #-46	; 0x2e
     f04:	002e0601 	eoreq	r0, lr, r1, lsl #12
     f08:	06010402 	streq	r0, [r1], -r2, lsl #8
     f0c:	0402009f 	streq	r0, [r2], #-159	; 0x9f
     f10:	23086a01 	movwcs	r6, #35329	; 0x8a01
     f14:	7fa403d7 	svcvc	0x00a403d7
     f18:	004b3c08 	subeq	r3, fp, r8, lsl #24
     f1c:	06010402 	streq	r0, [r1], -r2, lsl #8
     f20:	2108064a 	tstcs	r8, sl, asr #12
     f24:	034b2f4b 	movteq	r2, #48971	; 0xbf4b
     f28:	9ff200db 	svcls	0x00f200db
     f2c:	4b32484c 	blmi	c93064 <__bss_end__+0xc8663c>
     f30:	2f4b842f 	svccs	0x004b842f
     f34:	30314d2d 	eorscc	r4, r1, sp, lsr #26
     f38:	0200832f 	andeq	r8, r0, #-1140850688	; 0xbc000000
     f3c:	be2c0104 	suflte	f0, f4, f4
     f40:	01040200 	mrseq	r0, R12_usr
     f44:	08064a06 	stmdaeq	r6, {r1, r2, r9, fp, lr}
     f48:	16360222 	ldrtne	r0, [r6], -r2, lsr #4
     f4c:	08d60e03 	ldmeq	r6, {r0, r1, r9, sl, fp}^
     f50:	21083021 	tstcs	r8, r1, lsr #32
     f54:	30210831 	eorcc	r0, r1, r1, lsr r8
     f58:	4b302108 	blmi	c09380 <__bss_end__+0xbfc958>
     f5c:	30210830 	eorcc	r0, r1, r0, lsr r8
     f60:	d983834b 	stmible	r3, {r0, r1, r3, r6, r8, r9, pc}
     f64:	02002f31 	andeq	r2, r0, #49, 30	; 0xc4
     f68:	00650104 	rsbeq	r0, r5, r4, lsl #2
     f6c:	06020402 	streq	r0, [r2], -r2, lsl #8
     f70:	0402004a 	streq	r0, [r2], #-74	; 0x4a
     f74:	bf030601 	svclt	0x00030601
     f78:	0200667f 	andeq	r6, r0, #133169152	; 0x7f00000
     f7c:	66060204 	strvs	r0, [r6], -r4, lsl #4
     f80:	00c50306 	sbceq	r0, r5, r6, lsl #6
     f84:	1602684a 	strne	r6, [r2], -sl, asr #16
     f88:	9d010100 	stflss	f0, [r1, #-0]
     f8c:	02000000 	andeq	r0, r0, #0
     f90:	00008600 	andeq	r8, r0, r0, lsl #12
     f94:	fb010200 	blx	4179e <__bss_end__+0x34d76>
     f98:	01000d0e 	tsteq	r0, lr, lsl #26
     f9c:	00010101 	andeq	r0, r1, r1, lsl #2
     fa0:	00010000 	andeq	r0, r1, r0
     fa4:	74730100 	ldrbtvc	r0, [r3], #-256	; 0x100
     fa8:	2d666661 	stclcs	6, cr6, [r6, #-388]!	; 0xfffffe7c
     fac:	00637273 	rsbeq	r7, r3, r3, ror r2
     fb0:	6573552f 	ldrbvs	r5, [r3, #-1327]!	; 0x52f
     fb4:	622f7372 	eorvs	r7, pc, #-939524095	; 0xc8000001
     fb8:	6e616972 	mcrvs	9, 3, r6, cr1, cr2, {3}
     fbc:	2f6e756a 	svccs	0x006e756a
     fc0:	6b736544 	blvs	1cda4d8 <__bss_end__+0x1ccdab0>
     fc4:	2f706f74 	svccs	0x00706f74
     fc8:	6f686373 	svcvs	0x00686373
     fcc:	532f6c6f 	teqpl	pc, #28416	; 0x6f00
     fd0:	6e697270 	mcrvs	2, 3, r7, cr9, cr0, {3}
     fd4:	32393167 	eorscc	r3, r9, #-1073741799	; 0xc0000019
     fd8:	53432f30 	movtpl	r2, #16176	; 0x3f30
     fdc:	4c303432 	cfldrsmi	mvf3, [r0], #-200	; 0xffffff38
     fe0:	73632f58 	cmnvc	r3, #88, 30	; 0x160
     fe4:	6c303432 	cfldrsvs	mvf3, [r0], #-200	; 0xffffff38
     fe8:	30322d78 	eorscc	r2, r2, r8, ror sp
     fec:	2f727073 	svccs	0x00727073
     ff0:	7062696c 	rsbvc	r6, r2, ip, ror #18
     ff4:	6e692f69 	cdpvs	15, 6, cr2, cr9, cr9, {3}
     ff8:	64756c63 	ldrbtvs	r6, [r5], #-3171	; 0xc63
     ffc:	63000065 	movwvs	r0, #101	; 0x65
    1000:	6e61656c 	cdpvs	5, 6, cr6, cr1, cr12, {3}
    1004:	6265722d 	rsbvs	r7, r5, #-805306366	; 0xd0000002
    1008:	2e746f6f 	cdpcs	15, 7, cr6, cr4, cr15, {3}
    100c:	00010063 	andeq	r0, r1, r3, rrx
    1010:	69707200 	ldmdbvs	r0!, {r9, ip, sp, lr}^
    1014:	0200682e 	andeq	r6, r0, #3014656	; 0x2e0000
    1018:	00000000 	andeq	r0, r0, r0
    101c:	aad00205 	bge	ff401838 <__bss_end__+0xff3f4e10>
    1020:	2f150000 	svccs	0x00150000
    1024:	024b832f 	subeq	r8, fp, #-1140850688	; 0xbc000000
    1028:	01010006 	tsteq	r1, r6
    102c:	000000a6 	andeq	r0, r0, r6, lsr #1
    1030:	00800002 	addeq	r0, r0, r2
    1034:	01020000 	mrseq	r0, (UNDEF: 2)
    1038:	000d0efb 	strdeq	r0, [sp], -fp
    103c:	01010101 	tsteq	r1, r1, lsl #2
    1040:	01000000 	mrseq	r0, (UNDEF: 0)
    1044:	73010000 	movwvc	r0, #4096	; 0x1000
    1048:	66666174 			; <UNDEFINED> instruction: 0x66666174
    104c:	6372732d 	cmnvs	r2, #-1275068416	; 0xb4000000
    1050:	73552f00 	cmpvc	r5, #0, 30
    1054:	2f737265 	svccs	0x00737265
    1058:	61697262 	cmnvs	r9, r2, ror #4
    105c:	6e756a6e 	vsubvs.f32	s13, s10, s29
    1060:	7365442f 	cmnvc	r5, #788529152	; 0x2f000000
    1064:	706f746b 	rsbvc	r7, pc, fp, ror #8
    1068:	6863732f 	stmdavs	r3!, {r0, r1, r2, r3, r5, r8, r9, ip, sp, lr}^
    106c:	2f6c6f6f 	svccs	0x006c6f6f
    1070:	69727053 	ldmdbvs	r2!, {r0, r1, r4, r6, ip, sp, lr}^
    1074:	3931676e 	ldmdbcc	r1!, {r1, r2, r3, r5, r6, r8, r9, sl, sp, lr}
    1078:	432f3032 	teqmi	pc, #50	; 0x32
    107c:	30343253 	eorscc	r3, r4, r3, asr r2
    1080:	632f584c 	teqvs	pc, #76, 16	; 0x4c0000
    1084:	30343273 	eorscc	r3, r4, r3, ror r2
    1088:	322d786c 	eorcc	r7, sp, #108, 16	; 0x6c0000
    108c:	72707330 	rsbsvc	r7, r0, #48, 6	; 0xc0000000
    1090:	62696c2f 	rsbvs	r6, r9, #12032	; 0x2f00
    1094:	692f6970 	stmdbvs	pc!, {r4, r5, r6, r8, fp, sp, lr}	; <UNPREDICTABLE>
    1098:	756c636e 	strbvc	r6, [ip, #-878]!	; 0x36e
    109c:	00006564 	andeq	r6, r0, r4, ror #10
    10a0:	61747363 	cmnvs	r4, r3, ror #6
    10a4:	632e7472 	teqvs	lr, #1912602624	; 0x72000000
    10a8:	00000100 	andeq	r0, r0, r0, lsl #2
    10ac:	2e697072 	mcrcs	0, 3, r7, cr9, cr2, {3}
    10b0:	00020068 	andeq	r0, r2, r8, rrx
    10b4:	05000000 	streq	r0, [r0, #-0]
    10b8:	00aafc02 	adceq	pc, sl, r2, lsl #24
    10bc:	010c0300 	mrseq	r0, LR_mon
    10c0:	2d2f3132 	stfcss	f3, [pc, #-200]!	; 1000 <__code_start__-0x7000>
    10c4:	0402002f 	streq	r0, [r2], #-47	; 0x2f
    10c8:	09034901 	stmdbeq	r3, {r0, r8, fp, lr}
    10cc:	2e0d034a 	cdpcs	3, 0, cr0, cr13, cr10, {2}
    10d0:	0006022f 	andeq	r0, r6, pc, lsr #4
    10d4:	00a20101 	adceq	r0, r2, r1, lsl #2
    10d8:	00020000 	andeq	r0, r2, r0
    10dc:	0000008e 	andeq	r0, r0, lr, lsl #1
    10e0:	0efb0102 	cdpeq	1, 15, cr0, cr11, cr2, {0}
    10e4:	0101000d 	tsteq	r1, sp
    10e8:	00000101 	andeq	r0, r0, r1, lsl #2
    10ec:	00000100 	andeq	r0, r0, r0, lsl #2
    10f0:	61747301 	cmnvs	r4, r1, lsl #6
    10f4:	732d6666 	teqvc	sp, #106954752	; 0x6600000
    10f8:	2f006372 	svccs	0x00006372
    10fc:	72657355 	rsbvc	r7, r5, #1409286145	; 0x54000001
    1100:	72622f73 	rsbvc	r2, r2, #460	; 0x1cc
    1104:	6a6e6169 	bvs	1b996b0 <__bss_end__+0x1b8cc88>
    1108:	442f6e75 	strtmi	r6, [pc], #-3701	; 1110 <__code_start__-0x6ef0>
    110c:	746b7365 	strbtvc	r7, [fp], #-869	; 0x365
    1110:	732f706f 	teqvc	pc, #111	; 0x6f
    1114:	6f6f6863 	svcvs	0x006f6863
    1118:	70532f6c 	subsvc	r2, r3, ip, ror #30
    111c:	676e6972 			; <UNDEFINED> instruction: 0x676e6972
    1120:	30323931 	eorscc	r3, r2, r1, lsr r9
    1124:	3253432f 	subscc	r4, r3, #-1140850688	; 0xbc000000
    1128:	584c3034 	stmdapl	ip, {r2, r4, r5, ip, sp}^
    112c:	3273632f 	rsbscc	r6, r3, #-1140850688	; 0xbc000000
    1130:	786c3034 	stmdavc	ip!, {r2, r4, r5, ip, sp}^
    1134:	7330322d 	teqvc	r0, #-805306366	; 0xd0000002
    1138:	6c2f7270 	sfmvs	f7, 4, [pc], #-448	; f80 <__code_start__-0x7080>
    113c:	69706269 	ldmdbvs	r0!, {r0, r3, r5, r6, r9, sp, lr}^
    1140:	636e692f 	cmnvs	lr, #770048	; 0xbc000
    1144:	6564756c 	strbvs	r7, [r4, #-1388]!	; 0x56c
    1148:	65640000 	strbvs	r0, [r4, #-0]!
    114c:	6c756166 	ldfvse	f6, [r5], #-408	; 0xfffffe68
    1150:	61682d74 	smcvs	33492	; 0x82d4
    1154:	656c646e 	strbvs	r6, [ip, #-1134]!	; 0x46e
    1158:	61662d72 	smcvs	25298	; 0x62d2
    115c:	632e7473 	teqvs	lr, #1929379840	; 0x73000000
    1160:	00000100 	andeq	r0, r0, r0, lsl #2
    1164:	2e697072 	mcrcs	0, 3, r7, cr9, cr2, {3}
    1168:	00020068 	andeq	r0, r2, r8, rrx
    116c:	05000000 	streq	r0, [r0, #-0]
    1170:	00ab3402 	adceq	r3, fp, r2, lsl #8
    1174:	02661300 	rsbeq	r1, r6, #0, 6
    1178:	0101001c 	tsteq	r1, ip, lsl r0
    117c:	000000a6 	andeq	r0, r0, r6, lsr #1
    1180:	00920002 	addseq	r0, r2, r2
    1184:	01020000 	mrseq	r0, (UNDEF: 2)
    1188:	000d0efb 	strdeq	r0, [sp], -fp
    118c:	01010101 	tsteq	r1, r1, lsl #2
    1190:	01000000 	mrseq	r0, (UNDEF: 0)
    1194:	73010000 	movwvc	r0, #4096	; 0x1000
    1198:	66666174 			; <UNDEFINED> instruction: 0x66666174
    119c:	6372732d 	cmnvs	r2, #-1275068416	; 0xb4000000
    11a0:	73552f00 	cmpvc	r5, #0, 30
    11a4:	2f737265 	svccs	0x00737265
    11a8:	61697262 	cmnvs	r9, r2, ror #4
    11ac:	6e756a6e 	vsubvs.f32	s13, s10, s29
    11b0:	7365442f 	cmnvc	r5, #788529152	; 0x2f000000
    11b4:	706f746b 	rsbvc	r7, pc, fp, ror #8
    11b8:	6863732f 	stmdavs	r3!, {r0, r1, r2, r3, r5, r8, r9, ip, sp, lr}^
    11bc:	2f6c6f6f 	svccs	0x006c6f6f
    11c0:	69727053 	ldmdbvs	r2!, {r0, r1, r4, r6, ip, sp, lr}^
    11c4:	3931676e 	ldmdbcc	r1!, {r1, r2, r3, r5, r6, r8, r9, sl, sp, lr}
    11c8:	432f3032 	teqmi	pc, #50	; 0x32
    11cc:	30343253 	eorscc	r3, r4, r3, asr r2
    11d0:	632f584c 	teqvs	pc, #76, 16	; 0x4c0000
    11d4:	30343273 	eorscc	r3, r4, r3, ror r2
    11d8:	322d786c 	eorcc	r7, sp, #108, 16	; 0x6c0000
    11dc:	72707330 	rsbsvc	r7, r0, #48, 6	; 0xc0000000
    11e0:	62696c2f 	rsbvs	r6, r9, #12032	; 0x2f00
    11e4:	692f6970 	stmdbvs	pc!, {r4, r5, r6, r8, fp, sp, lr}	; <UNPREDICTABLE>
    11e8:	756c636e 	strbvc	r6, [ip, #-878]!	; 0x36e
    11ec:	00006564 	andeq	r6, r0, r4, ror #10
    11f0:	61666564 	cmnvs	r6, r4, ror #10
    11f4:	2d746c75 	ldclcs	12, cr6, [r4, #-468]!	; 0xfffffe2c
    11f8:	646e6168 	strbtvs	r6, [lr], #-360	; 0x168
    11fc:	2d72656c 	cfldr64cs	mvdx6, [r2, #-432]!	; 0xfffffe50
    1200:	66657270 			; <UNDEFINED> instruction: 0x66657270
    1204:	68637465 	stmdavs	r3!, {r0, r2, r5, r6, sl, ip, sp, lr}^
    1208:	0100632e 	tsteq	r0, lr, lsr #6
    120c:	70720000 	rsbsvc	r0, r2, r0
    1210:	00682e69 	rsbeq	r2, r8, r9, ror #28
    1214:	00000002 	andeq	r0, r0, r2
    1218:	78020500 	stmdavc	r2, {r8, sl}
    121c:	130000ab 	movwne	r0, #171	; 0xab
    1220:	001c0266 	andseq	r0, ip, r6, ror #4
    1224:	00a30101 	adceq	r0, r3, r1, lsl #2
    1228:	00020000 	andeq	r0, r2, r0
    122c:	0000008f 	andeq	r0, r0, pc, lsl #1
    1230:	0efb0102 	cdpeq	1, 15, cr0, cr11, cr2, {0}
    1234:	0101000d 	tsteq	r1, sp
    1238:	00000101 	andeq	r0, r0, r1, lsl #2
    123c:	00000100 	andeq	r0, r0, r0, lsl #2
    1240:	61747301 	cmnvs	r4, r1, lsl #6
    1244:	732d6666 	teqvc	sp, #106954752	; 0x6600000
    1248:	2f006372 	svccs	0x00006372
    124c:	72657355 	rsbvc	r7, r5, #1409286145	; 0x54000001
    1250:	72622f73 	rsbvc	r2, r2, #460	; 0x1cc
    1254:	6a6e6169 	bvs	1b99800 <__bss_end__+0x1b8cdd8>
    1258:	442f6e75 	strtmi	r6, [pc], #-3701	; 1260 <__code_start__-0x6da0>
    125c:	746b7365 	strbtvc	r7, [fp], #-869	; 0x365
    1260:	732f706f 	teqvc	pc, #111	; 0x6f
    1264:	6f6f6863 	svcvs	0x006f6863
    1268:	70532f6c 	subsvc	r2, r3, ip, ror #30
    126c:	676e6972 			; <UNDEFINED> instruction: 0x676e6972
    1270:	30323931 	eorscc	r3, r2, r1, lsr r9
    1274:	3253432f 	subscc	r4, r3, #-1140850688	; 0xbc000000
    1278:	584c3034 	stmdapl	ip, {r2, r4, r5, ip, sp}^
    127c:	3273632f 	rsbscc	r6, r3, #-1140850688	; 0xbc000000
    1280:	786c3034 	stmdavc	ip!, {r2, r4, r5, ip, sp}^
    1284:	7330322d 	teqvc	r0, #-805306366	; 0xd0000002
    1288:	6c2f7270 	sfmvs	f7, 4, [pc], #-448	; 10d0 <__code_start__-0x6f30>
    128c:	69706269 	ldmdbvs	r0!, {r0, r3, r5, r6, r9, sp, lr}^
    1290:	636e692f 	cmnvs	lr, #770048	; 0xbc000
    1294:	6564756c 	strbvs	r7, [r4, #-1388]!	; 0x56c
    1298:	65640000 	strbvs	r0, [r4, #-0]!
    129c:	6c756166 	ldfvse	f6, [r5], #-408	; 0xfffffe68
    12a0:	61682d74 	smcvs	33492	; 0x82d4
    12a4:	656c646e 	strbvs	r6, [ip, #-1134]!	; 0x46e
    12a8:	65722d72 	ldrbvs	r2, [r2, #-3442]!	; 0xd72
    12ac:	2e746573 	mrccs	5, 3, r6, cr4, cr3, {3}
    12b0:	00010063 	andeq	r0, r1, r3, rrx
    12b4:	69707200 	ldmdbvs	r0!, {r9, ip, sp, lr}^
    12b8:	0200682e 	andeq	r6, r0, #3014656	; 0x2e0000
    12bc:	00000000 	andeq	r0, r0, r0
    12c0:	abbc0205 	blge	fef01adc <__bss_end__+0xfeef50b4>
    12c4:	66130000 	ldrvs	r0, [r3], -r0
    12c8:	01001c02 	tsteq	r0, r2, lsl #24
    12cc:	0000ac01 	andeq	sl, r0, r1, lsl #24
    12d0:	98000200 	stmdals	r0, {r9}
    12d4:	02000000 	andeq	r0, r0, #0
    12d8:	0d0efb01 	vstreq	d15, [lr, #-4]
    12dc:	01010100 	mrseq	r0, (UNDEF: 17)
    12e0:	00000001 	andeq	r0, r0, r1
    12e4:	01000001 	tsteq	r0, r1
    12e8:	66617473 			; <UNDEFINED> instruction: 0x66617473
    12ec:	72732d66 	rsbsvc	r2, r3, #6528	; 0x1980
    12f0:	552f0063 	strpl	r0, [pc, #-99]!	; 1295 <__code_start__-0x6d6b>
    12f4:	73726573 	cmnvc	r2, #482344960	; 0x1cc00000
    12f8:	6972622f 	ldmdbvs	r2!, {r0, r1, r2, r3, r5, r9, sp, lr}^
    12fc:	756a6e61 	strbvc	r6, [sl, #-3681]!	; 0xe61
    1300:	65442f6e 	strbvs	r2, [r4, #-3950]	; 0xf6e
    1304:	6f746b73 	svcvs	0x00746b73
    1308:	63732f70 	cmnvs	r3, #112, 30	; 0x1c0
    130c:	6c6f6f68 	stclvs	15, cr6, [pc], #-416	; 1174 <__code_start__-0x6e8c>
    1310:	7270532f 	rsbsvc	r5, r0, #-1140850688	; 0xbc000000
    1314:	31676e69 	cmncc	r7, r9, ror #28
    1318:	2f303239 	svccs	0x00303239
    131c:	34325343 	ldrtcc	r5, [r2], #-835	; 0x343
    1320:	2f584c30 	svccs	0x00584c30
    1324:	34327363 	ldrtcc	r7, [r2], #-867	; 0x363
    1328:	2d786c30 	ldclcs	12, cr6, [r8, #-192]!	; 0xffffff40
    132c:	70733032 	rsbsvc	r3, r3, r2, lsr r0
    1330:	696c2f72 	stmdbvs	ip!, {r1, r4, r5, r6, r8, r9, sl, fp, sp}^
    1334:	2f697062 	svccs	0x00697062
    1338:	6c636e69 	stclvs	14, cr6, [r3], #-420	; 0xfffffe5c
    133c:	00656475 	rsbeq	r6, r5, r5, ror r4
    1340:	66656400 	strbtvs	r6, [r5], -r0, lsl #8
    1344:	746c7561 	strbtvc	r7, [ip], #-1377	; 0x561
    1348:	6e61682d 	cdpvs	8, 6, cr6, cr1, cr13, {1}
    134c:	72656c64 	rsbvc	r6, r5, #100, 24	; 0x6400
    1350:	646e752d 	strbtvs	r7, [lr], #-1325	; 0x52d
    1354:	6e696665 	cdpvs	6, 6, cr6, cr9, cr5, {3}
    1358:	692d6465 	pushvs	{r0, r2, r5, r6, sl, sp, lr}
    135c:	2e74736e 	cdpcs	3, 7, cr7, cr4, cr14, {3}
    1360:	00010063 	andeq	r0, r1, r3, rrx
    1364:	69707200 	ldmdbvs	r0!, {r9, ip, sp, lr}^
    1368:	0200682e 	andeq	r6, r0, #3014656	; 0x2e0000
    136c:	00000000 	andeq	r0, r0, r0
    1370:	ac000205 	sfmge	f0, 4, [r0], {5}
    1374:	66130000 	ldrvs	r0, [r3], -r0
    1378:	01001c02 	tsteq	r0, r2, lsl #24
    137c:	00004701 	andeq	r4, r0, r1, lsl #14
    1380:	33000200 	movwcc	r0, #512	; 0x200
    1384:	02000000 	andeq	r0, r0, #0
    1388:	0d0efb01 	vstreq	d15, [lr, #-4]
    138c:	01010100 	mrseq	r0, (UNDEF: 17)
    1390:	00000001 	andeq	r0, r0, r1
    1394:	01000001 	tsteq	r0, r1
    1398:	66617473 			; <UNDEFINED> instruction: 0x66617473
    139c:	72732d66 	rsbsvc	r2, r3, #6528	; 0x1980
    13a0:	64000063 	strvs	r0, [r0], #-99	; 0x63
    13a4:	75616665 	strbvc	r6, [r1, #-1637]!	; 0x665
    13a8:	682d746c 	stmdavs	sp!, {r2, r3, r5, r6, sl, ip, sp, lr}
    13ac:	6c646e61 	stclvs	14, cr6, [r4], #-388	; 0xfffffe7c
    13b0:	2e737265 	cdpcs	2, 7, cr7, cr3, cr5, {3}
    13b4:	00010063 	andeq	r0, r1, r3, rrx
    13b8:	05000000 	streq	r0, [r0, #-0]
    13bc:	00ac4402 	adceq	r4, ip, r2, lsl #8
    13c0:	022f1500 	eoreq	r1, pc, #0, 10
    13c4:	01010002 	tsteq	r1, r2
    13c8:	000000c9 	andeq	r0, r0, r9, asr #1
    13cc:	009a0002 	addseq	r0, sl, r2
    13d0:	01020000 	mrseq	r0, (UNDEF: 2)
    13d4:	000d0efb 	strdeq	r0, [sp], -fp
    13d8:	01010101 	tsteq	r1, r1, lsl #2
    13dc:	01000000 	mrseq	r0, (UNDEF: 0)
    13e0:	73010000 	movwvc	r0, #4096	; 0x1000
    13e4:	66666174 			; <UNDEFINED> instruction: 0x66666174
    13e8:	6372732d 	cmnvs	r2, #-1275068416	; 0xb4000000
    13ec:	73552f00 	cmpvc	r5, #0, 30
    13f0:	2f737265 	svccs	0x00737265
    13f4:	61697262 	cmnvs	r9, r2, ror #4
    13f8:	6e756a6e 	vsubvs.f32	s13, s10, s29
    13fc:	7365442f 	cmnvc	r5, #788529152	; 0x2f000000
    1400:	706f746b 	rsbvc	r7, pc, fp, ror #8
    1404:	6863732f 	stmdavs	r3!, {r0, r1, r2, r3, r5, r8, r9, ip, sp, lr}^
    1408:	2f6c6f6f 	svccs	0x006c6f6f
    140c:	69727053 	ldmdbvs	r2!, {r0, r1, r4, r6, ip, sp, lr}^
    1410:	3931676e 	ldmdbcc	r1!, {r1, r2, r3, r5, r6, r8, r9, sl, sp, lr}
    1414:	432f3032 	teqmi	pc, #50	; 0x32
    1418:	30343253 	eorscc	r3, r4, r3, asr r2
    141c:	632f584c 	teqvs	pc, #76, 16	; 0x4c0000
    1420:	30343273 	eorscc	r3, r4, r3, ror r2
    1424:	322d786c 	eorcc	r7, sp, #108, 16	; 0x6c0000
    1428:	72707330 	rsbsvc	r7, r0, #48, 6	; 0xc0000000
    142c:	62696c2f 	rsbvs	r6, r9, #12032	; 0x2f00
    1430:	692f6970 	stmdbvs	pc!, {r4, r5, r6, r8, fp, sp, lr}	; <UNPREDICTABLE>
    1434:	756c636e 	strbvc	r6, [ip, #-878]!	; 0x36e
    1438:	00006564 	andeq	r6, r0, r4, ror #10
    143c:	65746e69 	ldrbvs	r6, [r4, #-3689]!	; 0xe69
    1440:	70757272 	rsbsvc	r7, r5, r2, ror r2
    1444:	632d7374 	teqvs	sp, #116, 6	; 0xd0000001
    1448:	0100632e 	tsteq	r0, lr, lsr #6
    144c:	70720000 	rsbsvc	r0, r2, r0
    1450:	6e692d69 	cdpvs	13, 6, cr2, cr9, cr9, {3}
    1454:	72726574 	rsbsvc	r6, r2, #116, 10	; 0x1d000000
    1458:	73747075 	cmnvc	r4, #117	; 0x75
    145c:	0200682e 	andeq	r6, r0, #3014656	; 0x2e0000
    1460:	70720000 	rsbsvc	r0, r2, r0
    1464:	00682e69 	rsbeq	r2, r8, r9, ror #28
    1468:	00000002 	andeq	r0, r0, r2
    146c:	4c020500 	cfstr32mi	mvfx0, [r2], {-0}
    1470:	030000ac 	movweq	r0, #172	; 0xac
    1474:	2f31011a 	svccs	0x0031011a
    1478:	83366767 	teqhi	r6, #27000832	; 0x19c0000
    147c:	02002d2f 	andeq	r2, r0, #3008	; 0xbc0
    1480:	002f0204 	eoreq	r0, pc, r4, lsl #4
    1484:	65020402 	strvs	r0, [r2, #-1026]	; 0x402
    1488:	01040200 	mrseq	r0, R12_usr
    148c:	4c062e06 	stcmi	14, cr2, [r6], {6}
    1490:	01000a02 	tsteq	r0, r2, lsl #20
    1494:	0000a201 	andeq	sl, r0, r1, lsl #4
    1498:	80000200 	andhi	r0, r0, r0, lsl #4
    149c:	02000000 	andeq	r0, r0, #0
    14a0:	0d0efb01 	vstreq	d15, [lr, #-4]
    14a4:	01010100 	mrseq	r0, (UNDEF: 17)
    14a8:	00000001 	andeq	r0, r0, r1
    14ac:	01000001 	tsteq	r0, r1
    14b0:	66617473 			; <UNDEFINED> instruction: 0x66617473
    14b4:	72732d66 	rsbsvc	r2, r3, #6528	; 0x1980
    14b8:	552f0063 	strpl	r0, [pc, #-99]!	; 145d <__code_start__-0x6ba3>
    14bc:	73726573 	cmnvc	r2, #482344960	; 0x1cc00000
    14c0:	6972622f 	ldmdbvs	r2!, {r0, r1, r2, r3, r5, r9, sp, lr}^
    14c4:	756a6e61 	strbvc	r6, [sl, #-3681]!	; 0xe61
    14c8:	65442f6e 	strbvs	r2, [r4, #-3950]	; 0xf6e
    14cc:	6f746b73 	svcvs	0x00746b73
    14d0:	63732f70 	cmnvs	r3, #112, 30	; 0x1c0
    14d4:	6c6f6f68 	stclvs	15, cr6, [pc], #-416	; 133c <__code_start__-0x6cc4>
    14d8:	7270532f 	rsbsvc	r5, r0, #-1140850688	; 0xbc000000
    14dc:	31676e69 	cmncc	r7, r9, ror #28
    14e0:	2f303239 	svccs	0x00303239
    14e4:	34325343 	ldrtcc	r5, [r2], #-835	; 0x343
    14e8:	2f584c30 	svccs	0x00584c30
    14ec:	34327363 	ldrtcc	r7, [r2], #-867	; 0x363
    14f0:	2d786c30 	ldclcs	12, cr6, [r8, #-192]!	; 0xffffff40
    14f4:	70733032 	rsbsvc	r3, r3, r2, lsr r0
    14f8:	696c2f72 	stmdbvs	ip!, {r1, r4, r5, r6, r8, r9, sl, fp, sp}^
    14fc:	2f697062 	svccs	0x00697062
    1500:	6c636e69 	stclvs	14, cr6, [r3], #-420	; 0xfffffe5c
    1504:	00656475 	rsbeq	r6, r5, r5, ror r4
    1508:	62657200 	rsbvs	r7, r5, #0, 4
    150c:	2e746f6f 	cdpcs	15, 7, cr6, cr4, cr15, {3}
    1510:	00010063 	andeq	r0, r1, r3, rrx
    1514:	69707200 	ldmdbvs	r0!, {r9, ip, sp, lr}^
    1518:	0200682e 	andeq	r6, r0, #3014656	; 0x2e0000
    151c:	00000000 	andeq	r0, r0, r0
    1520:	acb80205 	lfmge	f0, 4, [r8], #20
    1524:	0d030000 	stceq	0, cr0, [r3, #-0]
    1528:	2f311401 	svccs	0x00311401
    152c:	4b2f1585 	blmi	bc6b48 <__bss_end__+0xbba120>
    1530:	35672f4d 	strbcc	r2, [r7, #-3917]!	; 0xf4d
    1534:	10026752 	andne	r6, r2, r2, asr r7
    1538:	ae010100 	adfges	f0, f1, f0
    153c:	02000000 	andeq	r0, r0, #0
    1540:	00007f00 	andeq	r7, r0, r0, lsl #30
    1544:	fb010200 	blx	41d4e <__bss_end__+0x35326>
    1548:	01000d0e 	tsteq	r0, lr, lsl #26
    154c:	00010101 	andeq	r0, r1, r1, lsl #2
    1550:	00010000 	andeq	r0, r1, r0
    1554:	74730100 	ldrbtvc	r0, [r3], #-256	; 0x100
    1558:	2d666661 	stclcs	6, cr6, [r6, #-388]!	; 0xfffffe7c
    155c:	00637273 	rsbeq	r7, r3, r3, ror r2
    1560:	6573552f 	ldrbvs	r5, [r3, #-1327]!	; 0x52f
    1564:	622f7372 	eorvs	r7, pc, #-939524095	; 0xc8000001
    1568:	6e616972 	mcrvs	9, 3, r6, cr1, cr2, {3}
    156c:	2f6e756a 	svccs	0x006e756a
    1570:	6b736544 	blvs	1cdaa88 <__bss_end__+0x1cce060>
    1574:	2f706f74 	svccs	0x00706f74
    1578:	6f686373 	svcvs	0x00686373
    157c:	532f6c6f 	teqpl	pc, #28416	; 0x6f00
    1580:	6e697270 	mcrvs	2, 3, r7, cr9, cr0, {3}
    1584:	32393167 	eorscc	r3, r9, #-1073741799	; 0xc0000019
    1588:	53432f30 	movtpl	r2, #16176	; 0x3f30
    158c:	4c303432 	cfldrsmi	mvf3, [r0], #-200	; 0xffffff38
    1590:	73632f58 	cmnvc	r3, #88, 30	; 0x160
    1594:	6c303432 	cfldrsvs	mvf3, [r0], #-200	; 0xffffff38
    1598:	30322d78 	eorscc	r2, r2, r8, ror sp
    159c:	2f727073 	svccs	0x00727073
    15a0:	7062696c 	rsbvc	r6, r2, ip, ror #18
    15a4:	6e692f69 	cdpvs	15, 6, cr2, cr9, cr9, {3}
    15a8:	64756c63 	ldrbtvs	r6, [r5], #-3171	; 0xc63
    15ac:	74000065 	strvc	r0, [r0], #-101	; 0x65
    15b0:	72656d69 	rsbvc	r6, r5, #6720	; 0x1a40
    15b4:	0100632e 	tsteq	r0, lr, lsr #6
    15b8:	70720000 	rsbsvc	r0, r2, r0
    15bc:	00682e69 	rsbeq	r2, r8, r9, ror #28
    15c0:	00000002 	andeq	r0, r0, r2
    15c4:	2c020500 	cfstr32cs	mvfx0, [r2], {-0}
    15c8:	160000ad 	strne	r0, [r0], -sp, lsr #1
    15cc:	002d2f14 	eoreq	r2, sp, r4, lsl pc
    15d0:	06010402 	streq	r0, [r1], -r2, lsl #8
    15d4:	316d062e 	cmncc	sp, lr, lsr #12
    15d8:	314d4b2f 	cmpcc	sp, pc, lsr #22
    15dc:	4c304b2f 	ldcmi	11, cr4, [r0], #-188	; 0xffffff44
    15e0:	6a2f4c4b 	bvs	bd4714 <__bss_end__+0xbc7cec>
    15e4:	2f842f2f 	svccs	0x00842f2f
    15e8:	01000802 	tsteq	r0, r2, lsl #16
    15ec:	00011e01 	andeq	r1, r1, r1, lsl #28
    15f0:	d8000200 	stmdale	r0, {r9}
    15f4:	02000000 	andeq	r0, r0, #0
    15f8:	0d0efb01 	vstreq	d15, [lr, #-4]
    15fc:	01010100 	mrseq	r0, (UNDEF: 17)
    1600:	00000001 	andeq	r0, r0, r1
    1604:	01000001 	tsteq	r0, r1
    1608:	7273752f 	rsbsvc	r7, r3, #197132288	; 0xbc00000
    160c:	636e692f 	cmnvs	lr, #770048	; 0xbc000
    1610:	6564756c 	strbvs	r7, [r4, #-1388]!	; 0x56c
    1614:	77656e2f 	strbvc	r6, [r5, -pc, lsr #28]!
    1618:	2f62696c 	svccs	0x0062696c
    161c:	00737973 	rsbseq	r7, r3, r3, ror r9
    1620:	7273752f 	rsbsvc	r7, r3, #197132288	; 0xbc00000
    1624:	62696c2f 	rsbvs	r6, r9, #12032	; 0x2f00
    1628:	6363672f 	cmnvs	r3, #12320768	; 0xbc0000
    162c:	6d72612f 	ldfvse	f6, [r2, #-188]!	; 0xffffff44
    1630:	6e6f6e2d 	cdpvs	14, 6, cr6, cr15, cr13, {1}
    1634:	61652d65 	cmnvs	r5, r5, ror #26
    1638:	362f6962 	strtcc	r6, [pc], -r2, ror #18
    163c:	312e332e 	teqcc	lr, lr, lsr #6
    1640:	636e692f 	cmnvs	lr, #770048	; 0xbc000
    1644:	6564756c 	strbvs	r7, [r4, #-1388]!	; 0x56c
    1648:	6f682f00 	svcvs	0x00682f00
    164c:	652f656d 	strvs	r6, [pc, #-1389]!	; 10e7 <__code_start__-0x6f19>
    1650:	656c676e 	strbvs	r6, [ip, #-1902]!	; 0x76e
    1654:	6c632f72 	stclvs	15, cr2, [r3], #-456	; 0xfffffe38
    1658:	2f737361 	svccs	0x00737361
    165c:	34327363 	ldrtcc	r7, [r2], #-867	; 0x363
    1660:	2d786c30 	ldclcs	12, cr6, [r8, #-192]!	; 0xffffff40
    1664:	70733032 	rsbsvc	r3, r3, r2, lsr r0
    1668:	6c2f2f72 	stcvs	15, cr2, [pc], #-456	; 14a8 <__code_start__-0x6b58>
    166c:	69706269 	ldmdbvs	r0!, {r0, r3, r5, r6, r9, sp, lr}^
    1670:	636e692f 	cmnvs	lr, #770048	; 0xbc000
    1674:	6564756c 	strbvs	r7, [r4, #-1388]!	; 0x56c
    1678:	61750000 	cmnvs	r5, r0
    167c:	632e7472 	teqvs	lr, #1912602624	; 0x72000000
    1680:	00000000 	andeq	r0, r0, r0
    1684:	6b636f6c 	blvs	18dd43c <__bss_end__+0x18d0a14>
    1688:	0100682e 	tsteq	r0, lr, lsr #16
    168c:	745f0000 	ldrbvc	r0, [pc], #-0	; 1694 <__code_start__-0x696c>
    1690:	73657079 	cmnvc	r5, #121	; 0x79
    1694:	0100682e 	tsteq	r0, lr, lsr #16
    1698:	74730000 	ldrbtvc	r0, [r3], #-0
    169c:	66656464 	strbtvs	r6, [r5], -r4, ror #8
    16a0:	0200682e 	andeq	r6, r0, #3014656	; 0x2e0000
    16a4:	65720000 	ldrbvs	r0, [r2, #-0]!
    16a8:	2e746e65 	cdpcs	14, 7, cr6, cr4, cr5, {3}
    16ac:	00010068 	andeq	r0, r1, r8, rrx
    16b0:	69707200 	ldmdbvs	r0!, {r9, ip, sp, lr}^
    16b4:	0300682e 	movweq	r6, #2094	; 0x82e
    16b8:	61750000 	cmnvs	r5, r0
    16bc:	682e7472 	stmdavs	lr!, {r1, r4, r5, r6, sl, ip, sp, lr}
    16c0:	00000300 	andeq	r0, r0, r0, lsl #6
    16c4:	6f697067 	svcvs	0x00697067
    16c8:	0300682e 	movweq	r6, #2094	; 0x82e
    16cc:	00000000 	andeq	r0, r0, r0
    16d0:	ae280205 	cdpge	2, 2, cr0, cr8, cr5, {0}
    16d4:	2c030000 	stccs	0, cr0, [r3], {-0}
    16d8:	0c036701 	stceq	7, cr6, [r3], {1}
    16dc:	6867359e 	stmdavs	r7!, {r1, r2, r3, r4, r7, r8, sl, ip, sp}^
    16e0:	0c036835 	stceq	8, cr6, [r3], {53}	; 0x35
    16e4:	696b852e 	stmdbvs	fp!, {r1, r2, r3, r5, r8, sl, pc}^
    16e8:	660c0369 	strvs	r0, [ip], -r9, ror #6
    16ec:	4208676b 	andmi	r6, r8, #28049408	; 0x1ac0000
    16f0:	364b6834 			; <UNDEFINED> instruction: 0x364b6834
    16f4:	002f8768 	eoreq	r8, pc, r8, ror #14
    16f8:	2f010402 	svccs	0x00010402
    16fc:	67306768 	ldrvs	r6, [r0, -r8, ror #14]!
    1700:	0402004b 	streq	r0, [r2], #-75	; 0x4b
    1704:	67682f01 	strbvs	r2, [r8, -r1, lsl #30]!
    1708:	06022e69 	streq	r2, [r2], -r9, ror #28
    170c:	01010100 	mrseq	r0, (UNDEF: 17)
    1710:	02000001 	andeq	r0, r0, #1
    1714:	0000ce00 	andeq	ip, r0, r0, lsl #28
    1718:	fb010200 	blx	41f22 <__bss_end__+0x354fa>
    171c:	01000d0e 	tsteq	r0, lr, lsl #26
    1720:	00010101 	andeq	r0, r1, r1, lsl #2
    1724:	00010000 	andeq	r0, r1, r0
    1728:	752f0100 	strvc	r0, [pc, #-256]!	; 1630 <__code_start__-0x69d0>
    172c:	692f7273 	stmdbvs	pc!, {r0, r1, r4, r5, r6, r9, ip, sp, lr}	; <UNPREDICTABLE>
    1730:	756c636e 	strbvc	r6, [ip, #-878]!	; 0x36e
    1734:	6e2f6564 	cfsh64vs	mvdx6, mvdx15, #52
    1738:	696c7765 	stmdbvs	ip!, {r0, r2, r5, r6, r8, r9, sl, ip, sp, lr}^
    173c:	79732f62 	ldmdbvc	r3!, {r1, r5, r6, r8, r9, sl, fp, sp}^
    1740:	752f0073 	strvc	r0, [pc, #-115]!	; 16d5 <__code_start__-0x692b>
    1744:	6c2f7273 	sfmvs	f7, 4, [pc], #-460	; 1580 <__code_start__-0x6a80>
    1748:	672f6269 	strvs	r6, [pc, -r9, ror #4]!
    174c:	612f6363 	teqvs	pc, r3, ror #6
    1750:	6e2d6d72 	mcrvs	13, 1, r6, cr13, cr2, {3}
    1754:	2d656e6f 	stclcs	14, cr6, [r5, #-444]!	; 0xfffffe44
    1758:	69626165 	stmdbvs	r2!, {r0, r2, r5, r6, r8, sp, lr}^
    175c:	332e362f 	teqcc	lr, #49283072	; 0x2f00000
    1760:	692f312e 	stmdbvs	pc!, {r1, r2, r3, r5, r8, ip, sp}	; <UNPREDICTABLE>
    1764:	756c636e 	strbvc	r6, [ip, #-878]!	; 0x36e
    1768:	2f006564 	svccs	0x00006564
    176c:	656d6f68 	strbvs	r6, [sp, #-3944]!	; 0xf68
    1770:	676e652f 	strbvs	r6, [lr, -pc, lsr #10]!
    1774:	2f72656c 	svccs	0x0072656c
    1778:	73616c63 	cmnvc	r1, #25344	; 0x6300
    177c:	73632f73 	cmnvc	r3, #460	; 0x1cc
    1780:	6c303432 	cfldrsvs	mvf3, [r0], #-200	; 0xffffff38
    1784:	30322d78 	eorscc	r2, r2, r8, ror sp
    1788:	2f727073 	svccs	0x00727073
    178c:	62696c2f 	rsbvs	r6, r9, #12032	; 0x2f00
    1790:	692f6970 	stmdbvs	pc!, {r4, r5, r6, r8, fp, sp, lr}	; <UNPREDICTABLE>
    1794:	756c636e 	strbvc	r6, [ip, #-878]!	; 0x36e
    1798:	00006564 	andeq	r6, r0, r4, ror #10
    179c:	6f697067 	svcvs	0x00697067
    17a0:	0000632e 	andeq	r6, r0, lr, lsr #6
    17a4:	6f6c0000 	svcvs	0x006c0000
    17a8:	682e6b63 	stmdavs	lr!, {r0, r1, r5, r6, r8, r9, fp, sp, lr}
    17ac:	00000100 	andeq	r0, r0, r0, lsl #2
    17b0:	7079745f 	rsbsvc	r7, r9, pc, asr r4
    17b4:	682e7365 	stmdavs	lr!, {r0, r2, r5, r6, r8, r9, ip, sp, lr}
    17b8:	00000100 	andeq	r0, r0, r0, lsl #2
    17bc:	64647473 	strbtvs	r7, [r4], #-1139	; 0x473
    17c0:	682e6665 	stmdavs	lr!, {r0, r2, r5, r6, r9, sl, sp, lr}
    17c4:	00000200 	andeq	r0, r0, r0, lsl #4
    17c8:	6e656572 	mcrvs	5, 3, r6, cr5, cr2, {3}
    17cc:	00682e74 	rsbeq	r2, r8, r4, ror lr
    17d0:	72000001 	andvc	r0, r0, #1
    17d4:	682e6970 	stmdavs	lr!, {r4, r5, r6, r8, fp, sp, lr}
    17d8:	00000300 	andeq	r0, r0, r0, lsl #6
    17dc:	6f697067 	svcvs	0x00697067
    17e0:	0300682e 	movweq	r6, #2094	; 0x82e
    17e4:	00000000 	andeq	r0, r0, r0
    17e8:	afa00205 	svcge	0x00a00205
    17ec:	27030000 	strcs	r0, [r3, -r0]
    17f0:	474c1301 	strbmi	r1, [ip, -r1, lsl #6]
    17f4:	4b68f44f 	blmi	1a3e938 <__bss_end__+0x1a31f10>
    17f8:	6a2fa14c 	bvs	be9d30 <__bss_end__+0xbdd308>
    17fc:	be314913 	mrclt	9, 1, r4, cr1, cr3, {0}
    1800:	be314913 	mrclt	9, 1, r4, cr1, cr3, {0}
    1804:	4d2f6a2f 	vstmdbmi	pc!, {s12-s58}
    1808:	49134f48 	ldmdbmi	r3, {r3, r6, r8, r9, sl, fp, lr}
    180c:	02b72f32 	adcseq	r2, r7, #50, 30	; 0xc8
    1810:	01010006 	tsteq	r1, r6
    1814:	0000013d 	andeq	r0, r0, sp, lsr r1
    1818:	00e70002 	rsceq	r0, r7, r2
    181c:	01020000 	mrseq	r0, (UNDEF: 2)
    1820:	000d0efb 	strdeq	r0, [sp], -fp
    1824:	01010101 	tsteq	r1, r1, lsl #2
    1828:	01000000 	mrseq	r0, (UNDEF: 0)
    182c:	2f010000 	svccs	0x00010000
    1830:	2f727375 	svccs	0x00727375
    1834:	6c636e69 	stclvs	14, cr6, [r3], #-420	; 0xfffffe5c
    1838:	2f656475 	svccs	0x00656475
    183c:	6c77656e 	cfldr64vs	mvdx6, [r7], #-440	; 0xfffffe48
    1840:	732f6269 	teqvc	pc, #-1879048186	; 0x90000006
    1844:	2f007379 	svccs	0x00007379
    1848:	2f727375 	svccs	0x00727375
    184c:	2f62696c 	svccs	0x0062696c
    1850:	2f636367 	svccs	0x00636367
    1854:	2d6d7261 	sfmcs	f7, 2, [sp, #-388]!	; 0xfffffe7c
    1858:	656e6f6e 	strbvs	r6, [lr, #-3950]!	; 0xf6e
    185c:	6261652d 	rsbvs	r6, r1, #188743680	; 0xb400000
    1860:	2e362f69 	cdpcs	15, 3, cr2, cr6, cr9, {3}
    1864:	2f312e33 	svccs	0x00312e33
    1868:	6c636e69 	stclvs	14, cr6, [r3], #-420	; 0xfffffe5c
    186c:	00656475 	rsbeq	r6, r5, r5, ror r4
    1870:	6d6f682f 	stclvs	8, cr6, [pc, #-188]!	; 17bc <__code_start__-0x6844>
    1874:	6e652f65 	cdpvs	15, 6, cr2, cr5, cr5, {3}
    1878:	72656c67 	rsbvc	r6, r5, #26368	; 0x6700
    187c:	616c632f 	cmnvs	ip, pc, lsr #6
    1880:	632f7373 	teqvs	pc, #-872415231	; 0xcc000001
    1884:	30343273 	eorscc	r3, r4, r3, ror r2
    1888:	322d786c 	eorcc	r7, sp, #108, 16	; 0x6c0000
    188c:	72707330 	rsbsvc	r7, r0, #48, 6	; 0xc0000000
    1890:	696c2f2f 	stmdbvs	ip!, {r0, r1, r2, r3, r5, r8, r9, sl, fp, sp}^
    1894:	2f697062 	svccs	0x00697062
    1898:	6c636e69 	stclvs	14, cr6, [r3], #-420	; 0xfffffe5c
    189c:	00656475 	rsbeq	r6, r5, r5, ror r4
    18a0:	7273752f 	rsbsvc	r7, r3, #197132288	; 0xbc00000
    18a4:	636e692f 	cmnvs	lr, #770048	; 0xbc000
    18a8:	6564756c 	strbvs	r7, [r4, #-1388]!	; 0x56c
    18ac:	77656e2f 	strbvc	r6, [r5, -pc, lsr #28]!
    18b0:	0062696c 	rsbeq	r6, r2, ip, ror #18
    18b4:	616d6b00 	cmnvs	sp, r0, lsl #22
    18b8:	636f6c6c 	cmnvs	pc, #108, 24	; 0x6c00
    18bc:	0000632e 	andeq	r6, r0, lr, lsr #6
    18c0:	6f6c0000 	svcvs	0x006c0000
    18c4:	682e6b63 	stmdavs	lr!, {r0, r1, r5, r6, r8, r9, fp, sp, lr}
    18c8:	00000100 	andeq	r0, r0, r0, lsl #2
    18cc:	7079745f 	rsbsvc	r7, r9, pc, asr r4
    18d0:	682e7365 	stmdavs	lr!, {r0, r2, r5, r6, r8, r9, ip, sp, lr}
    18d4:	00000100 	andeq	r0, r0, r0, lsl #2
    18d8:	64647473 	strbtvs	r7, [r4], #-1139	; 0x473
    18dc:	682e6665 	stmdavs	lr!, {r0, r2, r5, r6, r9, sl, sp, lr}
    18e0:	00000200 	andeq	r0, r0, r0, lsl #4
    18e4:	6e656572 	mcrvs	5, 3, r6, cr5, cr2, {3}
    18e8:	00682e74 	rsbeq	r2, r8, r4, ror lr
    18ec:	72000001 	andvc	r0, r0, #1
    18f0:	682e6970 	stmdavs	lr!, {r4, r5, r6, r8, fp, sp, lr}
    18f4:	00000300 	andeq	r0, r0, r0, lsl #6
    18f8:	69727473 	ldmdbvs	r2!, {r0, r1, r4, r5, r6, sl, ip, sp, lr}^
    18fc:	682e676e 	stmdavs	lr!, {r1, r2, r3, r5, r6, r8, r9, sl, sp, lr}
    1900:	00000400 	andeq	r0, r0, r0, lsl #8
    1904:	02050000 	andeq	r0, r5, #0
    1908:	0000b0c0 	andeq	fp, r0, r0, asr #1
    190c:	01011003 	tsteq	r1, r3
    1910:	14680183 	strbtne	r0, [r8], #-387	; 0x183
    1914:	04020083 	streq	r0, [r2], #-131	; 0x83
    1918:	02007f01 	andeq	r7, r0, #1, 30
    191c:	084c0104 	stmdaeq	ip, {r2, r8}^
    1920:	4c4b4bb0 	mcrrmi	11, 11, r4, fp, cr0
    1924:	00684b4b 	rsbeq	r4, r8, fp, asr #22
    1928:	03010402 	movweq	r0, #5122	; 0x1402
    192c:	09036679 	stmdbeq	r3, {r0, r3, r4, r5, r6, r9, sl, sp, lr}
    1930:	012fac08 	teqeq	pc, r8, lsl #24
    1934:	6a4b4e2e 	bvs	12d51f4 <__bss_end__+0x12c87cc>
    1938:	4c67674b 	stclmi	7, cr6, [r7], #-300	; 0xfffffed4
    193c:	0402002f 	streq	r0, [r2], #-47	; 0x2f
    1940:	4a760301 	bmi	1d8254c <__bss_end__+0x1d75b24>
    1944:	01040200 	mrseq	r0, R12_usr
    1948:	ea082608 	b	20b170 <__bss_end__+0x1fe748>
    194c:	019f012f 	orrseq	r0, pc, pc, lsr #2
    1950:	01000802 	tsteq	r0, r2, lsl #16
    1954:	Address 0x0000000000001954 is out of bounds.


Disassembly of section .debug_str:

00000000 <.debug_str>:
       0:	65646f6d 	strbvs	r6, [r4, #-3949]!	; 0xf6d
       4:	7465675f 	strbtvc	r6, [r5], #-1887	; 0x75f
       8:	74696200 	strbtvc	r6, [r9], #-512	; 0x200
       c:	65675f73 	strbvs	r5, [r7, #-3955]!	; 0xf73
      10:	68730074 	ldmdavs	r3!, {r2, r4, r5, r6}^
      14:	2074726f 	rsbscs	r7, r4, pc, ror #4
      18:	69736e75 	ldmdbvs	r3!, {r0, r2, r4, r5, r6, r9, sl, fp, sp, lr}^
      1c:	64656e67 	strbtvs	r6, [r5], #-3687	; 0xe67
      20:	746e6920 	strbtvc	r6, [lr], #-2336	; 0x920
      24:	746f6e00 	strbtvc	r6, [pc], #-3584	; 2c <__code_start__-0x7fd4>
      28:	6e69616d 	powvsez	f6, f1, #5.0
      2c:	746f6e00 	strbtvc	r6, [pc], #-3584	; 34 <__code_start__-0x7fcc>
      30:	6e69616d 	powvsez	f6, f1, #5.0
      34:	696c635f 	stmdbvs	ip!, {r0, r1, r2, r3, r4, r6, r8, r9, sp, lr}^
      38:	00746e65 	rsbseq	r6, r4, r5, ror #28
      3c:	69736e75 	ldmdbvs	r3!, {r0, r2, r4, r5, r6, r9, sl, fp, sp, lr}^
      40:	64656e67 	strbtvs	r6, [r5], #-3687	; 0xe67
      44:	61686320 	cmnvs	r8, r0, lsr #6
      48:	6c630072 	stclvs	0, cr0, [r3], #-456	; 0xfffffe38
      4c:	5f6e6165 	svcpl	0x006e6165
      50:	6f626572 	svcvs	0x00626572
      54:	7500746f 	strvc	r7, [r0, #-1135]	; 0x46f
      58:	33746e69 	cmncc	r4, #1680	; 0x690
      5c:	00745f32 	rsbseq	r5, r4, r2, lsr pc
      60:	55465f5f 	strbpl	r5, [r6, #-3935]	; 0xf5f
      64:	4954434e 	ldmdbmi	r4, {r1, r2, r3, r6, r8, r9, lr}^
      68:	5f5f4e4f 	svcpl	0x005f4e4f
      6c:	756d6d00 	strbvc	r6, [sp, #-3328]!	; 0xd00
      70:	5f73695f 	svcpl	0x0073695f
      74:	62616e65 	rsbvs	r6, r1, #1616	; 0x650
      78:	0064656c 	rsbeq	r6, r4, ip, ror #10
      7c:	20554e47 	subscs	r4, r5, r7, asr #28
      80:	2e342043 	cdpcs	0, 3, cr2, cr4, cr3, {2}
      84:	20332e38 	eorscs	r2, r3, r8, lsr lr
      88:	70636d2d 	rsbvc	r6, r3, sp, lsr #26
      8c:	72613d75 	rsbvc	r3, r1, #7488	; 0x1d40
      90:	3731316d 	ldrcc	r3, [r1, -sp, ror #2]!
      94:	667a6a36 			; <UNDEFINED> instruction: 0x667a6a36
      98:	2d20732d 	stccs	3, cr7, [r0, #-180]!	; 0xffffff4c
      9c:	6e75746d 	cdpvs	4, 7, cr7, cr5, cr13, {3}
      a0:	72613d65 	rsbvc	r3, r1, #6464	; 0x1940
      a4:	3731316d 	ldrcc	r3, [r1, -sp, ror #2]!
      a8:	667a6a36 			; <UNDEFINED> instruction: 0x667a6a36
      ac:	2d20732d 	stccs	3, cr7, [r0, #-180]!	; 0xffffff4c
      b0:	62646767 	rsbvs	r6, r4, #27000832	; 0x19c0000
      b4:	674f2d20 	strbvs	r2, [pc, -r0, lsr #26]
      b8:	74732d20 	ldrbtvc	r2, [r3], #-3360	; 0xd20
      bc:	6e673d64 	cdpvs	13, 6, cr3, cr7, cr4, {3}
      c0:	20393975 	eorscs	r3, r9, r5, ror r9
      c4:	7266662d 	rsbvc	r6, r6, #47185920	; 0x2d00000
      c8:	74736565 	ldrbtvc	r6, [r3], #-1381	; 0x565
      cc:	69646e61 	stmdbvs	r4!, {r0, r5, r6, r9, sl, fp, sp, lr}^
      d0:	2d20676e 	stccs	7, cr6, [r0, #-440]!	; 0xfffffe48
      d4:	2d6f6e66 	stclcs	14, cr6, [pc, #-408]!	; ffffff44 <__bss_end__+0xffff351c>
      d8:	6c706f74 	ldclvs	15, cr6, [r0], #-464	; 0xfffffe30
      dc:	6c657665 	stclvs	6, cr7, [r5], #-404	; 0xfffffe6c
      e0:	6f65722d 	svcvs	0x0065722d
      e4:	72656472 	rsbvc	r6, r5, #1912602624	; 0x72000000
      e8:	6e6f6c00 	cdpvs	12, 6, cr6, cr15, cr0, {0}
      ec:	6f6c2067 	svcvs	0x006c2067
      f0:	7520676e 	strvc	r6, [r0, #-1902]!	; 0x76e
      f4:	6769736e 	strbvs	r7, [r9, -lr, ror #6]!
      f8:	2064656e 	rsbcs	r6, r4, lr, ror #10
      fc:	00746e69 	rsbseq	r6, r4, r9, ror #28
     100:	5f737973 	svcpl	0x00737973
     104:	615f3031 	cmpvs	pc, r1, lsr r0	; <UNPREDICTABLE>
     108:	6d006d73 	stcvs	13, cr6, [r0, #-460]	; 0xfffffe34
     10c:	0065646f 	rsbeq	r6, r5, pc, ror #8
     110:	657a6973 	ldrbvs	r6, [sl, #-2419]!	; 0x973
     114:	65707974 	ldrbvs	r7, [r0, #-2420]!	; 0x974
     118:	73657400 	cmnvc	r5, #0, 8
     11c:	742f7374 	strtvc	r7, [pc], #-884	; 124 <__code_start__-0x7edc>
     120:	31747365 	cmncc	r4, r5, ror #6
     124:	6c00632e 	stcvs	3, cr6, [r0], {46}	; 0x2e
     128:	20676e6f 	rsbcs	r6, r7, pc, ror #28
     12c:	676e6f6c 	strbvs	r6, [lr, -ip, ror #30]!
     130:	746e6920 	strbtvc	r6, [lr], #-2336	; 0x920
     134:	646f6d00 	strbtvs	r6, [pc], #-3328	; 13c <__code_start__-0x7ec4>
     138:	71655f65 	cmnvc	r5, r5, ror #30
     13c:	6d656d00 	stclvs	13, cr6, [r5, #-0]
     140:	63656863 	cmnvs	r5, #6488064	; 0x630000
     144:	6e665f6b 	cdpvs	15, 6, cr5, cr6, cr11, {3}
     148:	6f687300 	svcvs	0x00687300
     14c:	69207472 	stmdbvs	r0!, {r1, r4, r5, r6, sl, ip, sp, lr}
     150:	6d00746e 	cfstrsvs	mvf7, [r0, #-440]	; 0xfffffe48
     154:	5f65646f 	svcpl	0x0065646f
     158:	735f7369 	cmpvc	pc, #-1543503871	; 0xa4000001
     15c:	72657075 	rsbvc	r7, r5, #117	; 0x75
     160:	646f6d00 	strbtvs	r6, [pc], #-3328	; 168 <__code_start__-0x7e98>
     164:	656c5f65 	strbvs	r5, [ip, #-3941]!	; 0xf65
     168:	006c6167 	rsbeq	r6, ip, r7, ror #2
     16c:	72737063 	rsbsvc	r7, r3, #99	; 0x63
     170:	73552f00 	cmpvc	r5, #0, 30
     174:	2f737265 	svccs	0x00737265
     178:	61697262 	cmnvs	r9, r2, ror #4
     17c:	6e756a6e 	vsubvs.f32	s13, s10, s29
     180:	7365442f 	cmnvc	r5, #788529152	; 0x2f000000
     184:	706f746b 	rsbvc	r7, pc, fp, ror #8
     188:	6863732f 	stmdavs	r3!, {r0, r1, r2, r3, r5, r8, r9, ip, sp, lr}^
     18c:	2f6c6f6f 	svccs	0x006c6f6f
     190:	69727053 	ldmdbvs	r2!, {r0, r1, r4, r6, ip, sp, lr}^
     194:	3931676e 	ldmdbcc	r1!, {r1, r2, r3, r5, r6, r8, r9, sl, sp, lr}
     198:	432f3032 	teqmi	pc, #50	; 0x32
     19c:	30343253 	eorscc	r3, r4, r3, asr r2
     1a0:	632f584c 	teqvs	pc, #76, 16	; 0x4c0000
     1a4:	30343273 	eorscc	r3, r4, r3, ror r2
     1a8:	322d786c 	eorcc	r7, sp, #108, 16	; 0x6c0000
     1ac:	72707330 	rsbsvc	r7, r0, #48, 6	; 0xc0000000
     1b0:	62616c2f 	rsbvs	r6, r1, #12032	; 0x2f00
     1b4:	38312f73 	ldmdacc	r1!, {r0, r1, r4, r5, r6, r8, r9, sl, fp, sp}
     1b8:	6d656d2d 	stclvs	13, cr6, [r5, #-180]!	; 0xffffff4c
     1bc:	63656863 	cmnvs	r5, #6488064	; 0x630000
     1c0:	6d692d6b 	stclvs	13, cr2, [r9, #-428]!	; 0xfffffe54
     1c4:	632f6c70 	teqvs	pc, #112, 24	; 0x7000
     1c8:	0065646f 	rsbeq	r6, r5, pc, ror #8
     1cc:	72737063 	rsbsvc	r7, r3, #99	; 0x63
     1d0:	7465675f 	strbtvc	r6, [r5], #-1887	; 0x75f
     1d4:	69707200 	ldmdbvs	r0!, {r9, ip, sp, lr}^
     1d8:	7365725f 	cmnvc	r5, #-268435451	; 0xf0000005
     1dc:	705f7465 	subsvc	r7, pc, r5, ror #8
     1e0:	00637475 	rsbeq	r7, r3, r5, ror r4
     1e4:	72625f5a 	rsbvc	r5, r2, #360	; 0x168
     1e8:	68636e61 	stmdavs	r3!, {r0, r5, r6, r9, sl, fp, sp, lr}^
     1ec:	6572705f 	ldrbvs	r7, [r2, #-95]!	; 0x5f
     1f0:	73610064 	cmnvc	r1, #100	; 0x64
     1f4:	6f006469 	svcvs	0x00006469
     1f8:	6d5f7275 	lfmvs	f7, 2, [pc, #-468]	; 2c <__code_start__-0x7fd4>
     1fc:	725f756d 	subsvc	r7, pc, #457179136	; 0x1b400000
     200:	74657365 	strbtvc	r7, [r5], #-869	; 0x365
     204:	756d6d00 	strbvc	r6, [sp, #-3328]!	; 0xd00
     208:	72616d5f 	rsbvc	r6, r1, #6080	; 0x17c0
     20c:	65735f6b 	ldrbvs	r5, [r3, #-3947]!	; 0xf6b
     210:	65725f63 	ldrbvs	r5, [r2, #-3939]!	; 0xf63
     214:	6e6f6461 	cdpvs	4, 6, cr6, cr15, cr1, {3}
     218:	7300796c 	movwvc	r7, #2412	; 0x96c
     21c:	5f657a69 	svcpl	0x00657a69
     220:	6d6d0074 	stclvs	0, cr0, [sp, #-464]!	; 0xfffffe30
     224:	65735f75 	ldrbvs	r5, [r3, #-3957]!	; 0xf75
     228:	69625f63 	stmdbvs	r2!, {r0, r1, r5, r6, r8, r9, sl, fp, ip, lr}^
     22c:	6f5f7374 	svcvs	0x005f7374
     230:	00796c6e 	rsbseq	r6, r9, lr, ror #24
     234:	69685f56 	stmdbvs	r8!, {r1, r2, r4, r6, r8, r9, sl, fp, ip, lr}^
     238:	655f6867 	ldrbvs	r6, [pc, #-2151]	; fffff9d9 <__bss_end__+0xffff2fb1>
     23c:	70656378 	rsbvc	r6, r5, r8, ror r3
     240:	00765f74 	rsbseq	r5, r6, r4, ror pc
     244:	6e655f42 	cdpvs	15, 6, cr5, cr5, cr2, {2}
     248:	6e616964 	cdpvs	9, 6, cr6, cr1, cr4, {3}
     24c:	756d6d00 	strbvc	r6, [sp, #-3328]!	; 0xd00
     250:	6e00632e 	cdpvs	3, 0, cr6, cr0, cr14, {1}
     254:	00636573 	rsbeq	r6, r3, r3, ror r5
     258:	63695f49 	cmnvs	r9, #292	; 0x124
     25c:	65686361 	strbvs	r6, [r8, #-865]!	; 0x361
     260:	616e655f 	cmnvs	lr, pc, asr r5
     264:	00656c62 	rsbeq	r6, r5, r2, ror #24
     268:	6c615f41 	stclvs	15, cr5, [r1], #-260	; 0xfffffefc
     26c:	6d6e6769 	stclvs	7, cr6, [lr, #-420]!	; 0xfffffe5c
     270:	00746e65 	rsbseq	r6, r4, r5, ror #28
     274:	5f72756f 	svcpl	0x0072756f
     278:	35317063 	ldrcc	r7, [r1, #-99]!	; 0x63
     27c:	7465735f 	strbtvc	r7, [r5], #-863	; 0x35f
     280:	6f72705f 	svcvs	0x0072705f
     284:	5f646963 	svcpl	0x00646963
     288:	72627474 	rsbvc	r7, r2, #116, 8	; 0x74000000
     28c:	50410030 	subpl	r0, r1, r0, lsr r0
     290:	5f64725f 	svcpl	0x0064725f
     294:	796c6e6f 	stmdbvc	ip!, {r0, r1, r2, r3, r5, r6, r9, sl, fp, sp, lr}^
     298:	616d6b00 	cmnvs	sp, r0, lsl #22
     29c:	636f6c6c 	cmnvs	pc, #108, 24	; 0x6c00
     2a0:	696c615f 	stmdbvs	ip!, {r0, r1, r2, r3, r4, r6, r8, sp, lr}^
     2a4:	64656e67 	strbtvs	r6, [r5], #-3687	; 0xe67
     2a8:	63657300 	cmnvs	r5, #0, 6
     2ac:	7361625f 	cmnvc	r1, #-268435451	; 0xf0000005
     2b0:	64615f65 	strbtvs	r5, [r1], #-3941	; 0xf65
     2b4:	6d007264 	sfmvs	f7, 4, [r0, #-400]	; 0xfffffe70
     2b8:	655f756d 	ldrbvs	r7, [pc, #-1389]	; fffffd53 <__bss_end__+0xffff332b>
     2bc:	6c62616e 	stfvse	f6, [r2], #-440	; 0xfffffe48
     2c0:	65735f65 	ldrbvs	r5, [r3, #-3941]!	; 0xf65
     2c4:	72770074 	rsbsvc	r0, r7, #116	; 0x74
     2c8:	5f657469 	svcpl	0x00657469
     2cc:	616d6f64 	cmnvs	sp, r4, ror #30
     2d0:	615f6e69 	cmpvs	pc, r9, ror #28
     2d4:	73656363 	cmnvc	r5, #-1946157055	; 0x8c000001
     2d8:	74635f73 	strbtvc	r5, [r3], #-3955	; 0xf73
     2dc:	6d006c72 	stcvs	12, cr6, [r0, #-456]	; 0xfffffe38
     2e0:	645f756d 	ldrbvs	r7, [pc], #-1389	; 2e8 <__code_start__-0x7d18>
     2e4:	62617369 	rsbvs	r7, r1, #-1543503871	; 0xa4000001
     2e8:	735f656c 	cmpvc	pc, #108, 10	; 0x1b000000
     2ec:	6f007465 	svcvs	0x00007465
     2f0:	635f7275 	cmpvs	pc, #1342177287	; 0x50000007
     2f4:	5f353170 	svcpl	0x00353170
     2f8:	616d6f64 	cmnvs	sp, r4, ror #30
     2fc:	635f6e69 	cmpvs	pc, #1680	; 0x690
     300:	5f6c7274 	svcpl	0x006c7274
     304:	66007277 			; <UNDEFINED> instruction: 0x66007277
     308:	745f646c 	ldrbvc	r6, [pc], #-1132	; 310 <__code_start__-0x7cf0>
     30c:	72756f00 	rsbsvc	r6, r5, #0, 30
     310:	756d6d5f 	strbvc	r6, [sp, #-3423]!	; 0xd5f
     314:	7369645f 	cmnvc	r9, #1593835520	; 0x5f000000
     318:	656c6261 	strbvs	r6, [ip, #-609]!	; 0x261
     31c:	7465735f 	strbtvc	r7, [r5], #-863	; 0x35f
     320:	6d73615f 	ldfvse	f6, [r3, #-380]!	; 0xfffffe84
     324:	73616800 	cmnvc	r1, #0, 16
     328:	72705f68 	rsbsvc	r5, r0, #104, 30	; 0x1a0
     32c:	00746e69 	rsbseq	r6, r4, r9, ror #28
     330:	635f5252 	cmpvs	pc, #536870917	; 0x20000005
     334:	65686361 	strbvs	r6, [r8, #-865]!	; 0x361
     338:	7065725f 	rsbvc	r7, r5, pc, asr r2
     33c:	31706300 	cmncc	r0, r0, lsl #6
     340:	74635f35 	strbtvc	r5, [r3], #-3893	; 0xf35
     344:	725f6c72 	subsvc	r6, pc, #29184	; 0x7200
     348:	5f316765 	svcpl	0x00316765
     34c:	6d007277 	sfmvs	f7, 4, [r0, #-476]	; 0xfffffe24
     350:	6d5f756d 	cfldr64vs	mvdx7, [pc, #-436]	; 1a4 <__code_start__-0x7e5c>
     354:	5f6b7261 	svcpl	0x006b7261
     358:	5f636573 	svcpl	0x00636573
     35c:	66007772 			; <UNDEFINED> instruction: 0x66007772
     360:	6d5f646c 	cfldrdvs	mvd6, [pc, #-432]	; 1b8 <__code_start__-0x7e48>
     364:	6d6d006b 	stclvs	0, cr0, [sp, #-428]!	; 0xfffffe54
     368:	74705f75 	ldrbtvc	r5, [r0], #-3957	; 0xf75
     36c:	6c6c615f 	stfvse	f6, [ip], #-380	; 0xfffffe84
     370:	5f00636f 	svcpl	0x0000636f
     374:	65736572 	ldrbvs	r6, [r3, #-1394]!	; 0x572
     378:	64657672 	strbtvs	r7, [r5], #-1650	; 0x672
     37c:	725f0030 	subsvc	r0, pc, #48	; 0x30
     380:	72657365 	rsbvc	r7, r5, #-1811939327	; 0x94000001
     384:	31646576 	smccc	18006	; 0x4656
     388:	5f504100 	svcpl	0x00504100
     38c:	66007772 			; <UNDEFINED> instruction: 0x66007772
     390:	74737269 	ldrbtvc	r7, [r3], #-617	; 0x269
     394:	76656c5f 			; <UNDEFINED> instruction: 0x76656c5f
     398:	645f6c65 	ldrbvs	r6, [pc], #-3173	; 3a0 <__code_start__-0x7c60>
     39c:	72637365 	rsbvc	r7, r3, #-1811939327	; 0x94000001
     3a0:	6f747069 	svcvs	0x00747069
     3a4:	6d6d0072 	stclvs	0, cr0, [sp, #-456]!	; 0xfffffe38
     3a8:	616d5f75 	smcvs	54773	; 0xd5f5
     3ac:	65735f70 	ldrbvs	r5, [r3, #-3952]!	; 0xf70
     3b0:	6f697463 	svcvs	0x00697463
     3b4:	6d6d006e 	stclvs	0, cr0, [sp, #-440]!	; 0xfffffe48
     3b8:	69645f75 	stmdbvs	r4!, {r0, r2, r4, r5, r6, r8, r9, sl, fp, ip, lr}^
     3bc:	6c626173 	stfvse	f6, [r2], #-460	; 0xfffffe34
     3c0:	70630065 	rsbvc	r0, r3, r5, rrx
     3c4:	635f3531 	cmpvs	pc, #205520896	; 0xc400000
     3c8:	5f6c7274 	svcpl	0x006c7274
     3cc:	31676572 	smccc	30290	; 0x7652
     3d0:	0064725f 	rsbeq	r7, r4, pc, asr r2
     3d4:	765f4556 			; <UNDEFINED> instruction: 0x765f4556
     3d8:	5f746365 	svcpl	0x00746365
     3dc:	00746e69 	rsbseq	r6, r4, r9, ror #28
     3e0:	6f725f52 	svcvs	0x00725f52
     3e4:	72705f6d 	rsbsvc	r5, r0, #436	; 0x1b4
     3e8:	6e00746f 	cdpvs	4, 0, cr7, cr0, cr15, {3}
     3ec:	65747962 	ldrbvs	r7, [r4, #-2402]!	; 0x962
     3f0:	41460073 	hvcmi	24579	; 0x6003
     3f4:	726f665f 	rsbvc	r6, pc, #99614720	; 0x5f00000
     3f8:	615f6563 	cmpvs	pc, r3, ror #10
     3fc:	756f0070 	strbvc	r0, [pc, #-112]!	; 394 <__code_start__-0x7c6c>
     400:	6d6d5f72 	stclvs	15, cr5, [sp, #-456]!	; 0xfffffe38
     404:	79735f75 	ldmdbvc	r3!, {r0, r2, r4, r5, r6, r8, r9, sl, fp, ip, lr}^
     408:	705f636e 	subsvc	r6, pc, lr, ror #6
     40c:	6d5f6574 	cfldr64vs	mvdx6, [pc, #-464]	; 244 <__code_start__-0x7dbc>
     410:	0073646f 	rsbseq	r6, r3, pc, ror #8
     414:	72775f57 	rsbsvc	r5, r7, #348	; 0x15c
     418:	5f657469 	svcpl	0x00657469
     41c:	00667562 	rsbeq	r7, r6, r2, ror #10
     420:	72705f53 	rsbsvc	r5, r0, #332	; 0x14c
     424:	6d00746f 	cfstrsvs	mvf7, [r0, #-444]	; 0xfffffe44
     428:	6d5f756d 	cfldr64vs	mvdx7, [pc, #-436]	; 27c <__code_start__-0x7d84>
     42c:	5f6b7261 	svcpl	0x006b7261
     430:	5f636573 	svcpl	0x00636573
     434:	705f7061 	subsvc	r7, pc, r1, rrx
     438:	006d7265 	rsbeq	r7, sp, r5, ror #4
     43c:	5f756d6d 	svcpl	0x00756d6d
     440:	74696e69 	strbtvc	r6, [r9], #-3689	; 0xe69
     444:	756d6d00 	strbvc	r6, [sp, #-3328]!	; 0xd00
     448:	5f74705f 	svcpl	0x0074705f
     44c:	6f6c6c61 	svcvs	0x006c6c61
     450:	74615f63 	strbtvc	r5, [r1], #-3939	; 0xf63
     454:	554d4d00 	strbpl	r4, [sp, #-3328]	; 0xd00
     458:	616e655f 	cmnvs	lr, pc, asr r5
     45c:	64656c62 	strbtvs	r6, [r5], #-3170	; 0xc62
     460:	755f5500 	ldrbvc	r5, [pc, #-1280]	; ffffff68 <__bss_end__+0xffff3540>
     464:	696c616e 	stmdbvs	ip!, {r1, r2, r3, r5, r6, r8, sp, lr}^
     468:	64656e67 	strbtvs	r6, [r5], #-3687	; 0xe67
     46c:	5f505800 	svcpl	0x00505800
     470:	54007470 	strpl	r7, [r0], #-1136	; 0x470
     474:	65745f52 	ldrbvs	r5, [r4, #-3922]!	; 0xf52
     478:	65725f78 	ldrbvs	r5, [r2, #-3960]!	; 0xf78
     47c:	0070616d 	rsbseq	r6, r0, sp, ror #2
     480:	65646e69 	strbvs	r6, [r4, #-3689]!	; 0xe69
     484:	6f630078 	svcvs	0x00630078
     488:	6f72746e 	svcvs	0x0072746e
     48c:	65725f6c 	ldrbvs	r5, [r2, #-3948]!	; 0xf6c
     490:	61003167 	tstvs	r0, r7, ror #2
     494:	6e5f6d73 	mrcvs	13, 2, r6, cr15, cr3, {3}
     498:	695f746f 	ldmdbvs	pc, {r0, r1, r2, r3, r5, r6, sl, ip, sp, lr}^	; <UNPREDICTABLE>
     49c:	656c706d 	strbvs	r7, [ip, #-109]!	; 0x6d
     4a0:	746e656d 	strbtvc	r6, [lr], #-1389	; 0x56d
     4a4:	6d006465 	cfstrsvs	mvf6, [r0, #-404]	; 0xfffffe6c
     4a8:	655f756d 	ldrbvs	r7, [pc, #-1389]	; ffffff43 <__bss_end__+0xffff351b>
     4ac:	6c62616e 	stfvse	f6, [r2], #-440	; 0xfffffe48
     4b0:	70630065 	rsbvc	r0, r3, r5, rrx
     4b4:	635f3531 	cmpvs	pc, #205520896	; 0xc400000
     4b8:	5f6c7274 	svcpl	0x006c7274
     4bc:	31676572 	smccc	30290	; 0x7652
     4c0:	5f00745f 	svcpl	0x0000745f
     4c4:	73756e75 	cmnvc	r5, #1872	; 0x750
     4c8:	00316465 	eorseq	r6, r1, r5, ror #8
     4cc:	736d656d 	cmnvc	sp, #457179136	; 0x1b400000
     4d0:	66007465 	strvs	r7, [r0], -r5, ror #8
     4d4:	705f646c 	subsvc	r6, pc, ip, ror #8
     4d8:	746e6972 	strbtvc	r6, [lr], #-2418	; 0x972
     4dc:	61657200 	cmnvs	r5, r0, lsl #4
     4e0:	6f645f64 	svcvs	0x00645f64
     4e4:	6e69616d 	powvsez	f6, f1, #5.0
     4e8:	6363615f 	cmnvs	r3, #-1073741801	; 0xc0000017
     4ec:	5f737365 	svcpl	0x00737365
     4f0:	6c727463 	cfldrdvs	mvd7, [r2], #-396	; 0xfffffe74
     4f4:	646c6600 	strbtvs	r6, [ip], #-1536	; 0x600
     4f8:	7465735f 	strbtvc	r7, [r5], #-863	; 0x35f
     4fc:	7361625f 	cmnvc	r1, #-268435451	; 0xf0000005
     500:	64615f65 	strbtvs	r5, [r1], #-3941	; 0xf65
     504:	6d007264 	sfmvs	f7, 4, [r0, #-400]	; 0xfffffe70
     508:	695f756d 	ldmdbvs	pc, {r0, r2, r3, r5, r6, r8, sl, ip, sp, lr}^	; <UNPREDICTABLE>
     50c:	6174736e 	cmnvs	r4, lr, ror #6
     510:	685f6c6c 	ldmdavs	pc, {r2, r3, r5, r6, sl, fp, sp, lr}^	; <UNPREDICTABLE>
     514:	6c646e61 	stclvs	14, cr6, [r4], #-388	; 0xfffffe7c
     518:	00737265 	rsbseq	r7, r3, r5, ror #4
     51c:	6e5f5041 	cdpvs	0, 5, cr5, cr15, cr1, {2}
     520:	63615f6f 	cmnvs	r1, #444	; 0x1bc
     524:	73736563 	cmnvc	r3, #415236096	; 0x18c00000
     528:	6d6f6400 	cfstrdvs	mvd6, [pc, #-0]	; 530 <__code_start__-0x7ad0>
     52c:	006e6961 	rsbeq	r6, lr, r1, ror #18
     530:	7a62735f 	bvc	189d2b4 <__bss_end__+0x189088c>
     534:	735f0030 	cmpvc	pc, #48	; 0x30
     538:	00317a62 	eorseq	r7, r1, r2, ror #20
     53c:	5f756d6d 	svcpl	0x00756d6d
     540:	5f70616d 	svcpl	0x0070616d
     544:	74636573 	strbtvc	r6, [r3], #-1395	; 0x573
     548:	736e6f69 	cmnvc	lr, #420	; 0x1a4
     54c:	5f324c00 	svcpl	0x00324c00
     550:	62616e65 	rsbvs	r6, r1, #1616	; 0x650
     554:	0064656c 	rsbeq	r6, r4, ip, ror #10
     558:	6e755f43 	cdpvs	15, 7, cr5, cr5, cr3, {2}
     55c:	65696669 	strbvs	r6, [r9, #-1641]!	; 0x669
     560:	6e655f64 	cdpvs	15, 6, cr5, cr5, cr4, {3}
     564:	656c6261 	strbvs	r6, [ip, #-609]!	; 0x261
     568:	72756f00 	rsbsvc	r6, r5, #0, 30
     56c:	756d6d5f 	strbvc	r6, [sp, #-3423]!	; 0xd5f
     570:	616e655f 	cmnvs	lr, pc, asr r5
     574:	5f656c62 	svcpl	0x00656c62
     578:	5f746573 	svcpl	0x00746573
     57c:	006d7361 	rsbeq	r7, sp, r1, ror #6
     580:	5f756d6d 	svcpl	0x00756d6d
     584:	6b6f6f6c 	blvs	1bdc33c <__bss_end__+0x1bcf914>
     588:	735f7075 	cmpvc	pc, #117	; 0x75
     58c:	69746365 	ldmdbvs	r4!, {r0, r2, r5, r6, r8, r9, sp, lr}^
     590:	4f006e6f 	svcmi	0x00006e6f
     594:	424d656e 	submi	r6, sp, #461373440	; 0x1b800000
     598:	756d6d00 	strbvc	r6, [sp, #-3328]!	; 0xd00
     59c:	72616d5f 	rsbvc	r6, r1, #6080	; 0x17c0
     5a0:	65735f6b 	ldrbvs	r5, [r3, #-3947]!	; 0xf6b
     5a4:	6f6e5f63 	svcvs	0x006e5f63
     5a8:	6363615f 	cmnvs	r3, #-1073741801	; 0xc0000017
     5ac:	00737365 	rsbseq	r7, r3, r5, ror #6
     5b0:	5f746e69 	svcpl	0x00746e69
     5b4:	74696e69 	strbtvc	r6, [r9], #-3689	; 0xe69
     5b8:	756d6d00 	strbvc	r6, [sp, #-3328]!	; 0xd00
     5bc:	6c65682d 	stclvs	8, cr6, [r5], #-180	; 0xffffff4c
     5c0:	73726570 	cmnvc	r2, #112, 10	; 0x1c000000
     5c4:	6600632e 	strvs	r6, [r0], -lr, lsr #6
     5c8:	635f646c 	cmpvs	pc, #108, 8	; 0x6c000000
     5cc:	6b636568 	blvs	18d9b74 <__bss_end__+0x18cd14c>
     5d0:	66666f5f 	uqsaxvs	r6, r6, pc	; <UNPREDICTABLE>
     5d4:	73746573 	cmnvc	r4, #482344960	; 0x1cc00000
     5d8:	73616600 	cmnvc	r1, #0, 12
     5dc:	61685f74 	smcvs	34292	; 0x85f4
     5e0:	63006873 	movwvs	r6, #2163	; 0x873
     5e4:	72746e6f 	rsbsvc	r6, r4, #1776	; 0x6f0
     5e8:	725f6c6f 	subsvc	r6, pc, #28416	; 0x6f00
     5ec:	5f316765 	svcpl	0x00316765
     5f0:	696e6173 	stmdbvs	lr!, {r0, r1, r4, r5, r6, r8, sp, lr}^
     5f4:	635f7974 	cmpvs	pc, #116, 18	; 0x1d0000
     5f8:	6b636568 	blvs	18d9ba0 <__bss_end__+0x18cd178>
     5fc:	646c6600 	strbtvs	r6, [ip], #-1536	; 0x600
     600:	6568635f 	strbvs	r6, [r8, #-863]!	; 0x35f
     604:	765f6b63 	ldrbvc	r6, [pc], -r3, ror #22
     608:	64696c61 	strbtvs	r6, [r9], #-3169	; 0xc61
     60c:	69687300 	stmdbvs	r8!, {r8, r9, ip, sp, lr}^
     610:	74007466 	strvc	r7, [r0], #-1126	; 0x466
     614:	635f626c 	cmpvs	pc, #108, 4	; 0xc0000006
     618:	69666e6f 	stmdbvs	r6!, {r0, r1, r2, r3, r5, r6, r9, sl, fp, sp, lr}^
     61c:	65730067 	ldrbvs	r0, [r3, #-103]!	; 0x67
     620:	6c615f74 	stclvs	15, cr5, [r1], #-464	; 0xfffffe30
     624:	6863006c 	stmdavs	r3!, {r2, r3, r5, r6}^
     628:	5f6b6365 	svcpl	0x006b6365
     62c:	735f6d76 	cmpvc	pc, #7552	; 0x1d80
     630:	63757274 	cmnvs	r5, #116, 4	; 0x40000007
     634:	63007374 	movwvs	r7, #884	; 0x374
     638:	72746e6f 	rsbsvc	r6, r4, #1776	; 0x6f0
     63c:	725f6c6f 	subsvc	r6, pc, #28416	; 0x6f00
     640:	5f316765 	svcpl	0x00316765
     644:	6e697270 	mcrvs	2, 3, r7, cr9, cr0, {3}
     648:	6c740074 	ldclvs	0, cr0, [r4], #-464	; 0xfffffe30
     64c:	6f635f62 	svcvs	0x00635f62
     650:	6769666e 	strbvs	r6, [r9, -lr, ror #12]!
     654:	6568635f 	strbvs	r6, [r8, #-863]!	; 0x35f
     658:	6f5f6b63 	svcvs	0x005f6b63
     65c:	65736666 	ldrbvs	r6, [r3, #-1638]!	; 0x666
     660:	64007374 	strvs	r7, [r0], #-884	; 0x374
     664:	69616d6f 	stmdbvs	r1!, {r0, r1, r2, r3, r5, r6, r8, sl, fp, sp, lr}^
     668:	63615f6e 	cmnvs	r1, #440	; 0x1b8
     66c:	72705f6c 	rsbsvc	r5, r0, #108, 30	; 0x1b0
     670:	00746e69 	rsbseq	r6, r4, r9, ror #28
     674:	746e6f63 	strbtvc	r6, [lr], #-3939	; 0xf63
     678:	5f6c6f72 	svcpl	0x006c6f72
     67c:	31676572 	smccc	30290	; 0x7652
     680:	6568635f 	strbvs	r6, [r8, #-863]!	; 0x35f
     684:	6f5f6b63 	svcvs	0x005f6b63
     688:	65736666 	ldrbvs	r6, [r3, #-1638]!	; 0x666
     68c:	74007374 	strvc	r7, [r0], #-884	; 0x374
     690:	635f626c 	cmpvs	pc, #108, 4	; 0xc0000006
     694:	69666e6f 	stmdbvs	r6!, {r0, r1, r2, r3, r5, r6, r9, sl, fp, sp, lr}^
     698:	72705f67 	rsbsvc	r5, r0, #412	; 0x19c
     69c:	00746e69 	rsbseq	r6, r4, r9, ror #28
     6a0:	66696e75 			; <UNDEFINED> instruction: 0x66696e75
     6a4:	5f646569 	svcpl	0x00646569
     6a8:	5f6e0070 	svcpl	0x006e0070
     6ac:	6f6c5f69 	svcvs	0x006c5f69
     6b0:	6e006b63 	vmlsvs.f64	d6, d0, d19
     6b4:	6c5f645f 	cfldrdvs	mvd6, [pc], {95}	; 0x5f
     6b8:	006b636f 	rsbeq	r6, fp, pc, ror #6
     6bc:	414d4f44 	cmpmi	sp, r4, asr #30
     6c0:	505f4e49 	subspl	r4, pc, r9, asr #28
     6c4:	00454741 	subeq	r4, r5, r1, asr #14
     6c8:	43414349 	movtmi	r4, #4937	; 0x1349
     6cc:	4d5f4548 	cfldr64mi	mvdx4, [pc, #-288]	; 5b4 <__code_start__-0x7a4c>
     6d0:	544e4941 	strbpl	r4, [lr], #-2369	; 0x941
     6d4:	5f504f5f 	svcpl	0x00504f5f
     6d8:	50005446 	andpl	r5, r0, r6, asr #8
     6dc:	54495241 	strbpl	r5, [r9], #-577	; 0x241
     6e0:	52455f59 	subpl	r5, r5, #356	; 0x164
     6e4:	58455f52 	stmdapl	r5, {r1, r4, r6, r8, r9, sl, fp, ip, lr}^
     6e8:	64005043 	strvs	r5, [r0], #-67	; 0x43
     6ec:	5f617461 	svcpl	0x00617461
     6f0:	726f6261 	rsbvc	r6, pc, #268435462	; 0x10000006
     6f4:	65765f74 	ldrbvs	r5, [r6, #-3956]!	; 0xf74
     6f8:	726f7463 	rsbvc	r7, pc, #1660944384	; 0x63000000
     6fc:	504d4900 	subpl	r4, sp, r0, lsl #18
     700:	5f434552 	svcpl	0x00434552
     704:	5f545845 	svcpl	0x00545845
     708:	00544241 	subseq	r4, r4, r1, asr #4
     70c:	5f424c54 	svcpl	0x00424c54
     710:	4b434f4c 	blmi	10d4448 <__bss_end__+0x10c7a20>
     714:	6d656d00 	stclvs	13, cr6, [r5, #-0]
     718:	63656863 	cmnvs	r5, #6488064	; 0x630000
     71c:	00632e6b 	rsbeq	r2, r3, fp, ror #28
     720:	5f4d4f44 	svcpl	0x004d4f44
     724:	616e616d 	cmnvs	lr, sp, ror #2
     728:	00726567 	rsbseq	r6, r2, r7, ror #10
     72c:	63617274 	cmnvs	r1, #116, 4	; 0x40000007
     730:	64695f6b 	strbtvs	r5, [r9], #-3947	; 0xf6b
     734:	494c4100 	stmdbmi	ip, {r8, lr}^
     738:	454d4e47 	strbmi	r4, [sp, #-3655]	; 0xe47
     73c:	4400544e 	strmi	r5, [r0], #-1102	; 0x44e
     740:	47554245 	ldrbmi	r4, [r5, -r5, asr #4]
     744:	4556455f 	ldrbmi	r4, [r6, #-1375]	; 0x55f
     748:	6400544e 	strvs	r5, [r0], #-1102	; 0x44e
     74c:	695f6d6f 	ldmdbvs	pc, {r0, r1, r2, r3, r5, r6, r8, sl, fp, sp, lr}^	; <UNPREDICTABLE>
     750:	656d0064 	strbvs	r0, [sp, #-100]!	; 0x64
     754:	6568636d 	strbvs	r6, [r8, #-877]!	; 0x36d
     758:	6f5f6b63 	svcvs	0x005f6b63
     75c:	6d006666 	stcvs	6, cr6, [r0, #-408]	; 0xfffffe68
     760:	725f756d 	subsvc	r7, pc, #457179136	; 0x1b400000
     764:	6d757365 	ldclvs	3, cr7, [r5, #-404]!	; 0xfffffe6c
     768:	00705f65 	rsbseq	r5, r0, r5, ror #30
     76c:	7473616c 	ldrbtvc	r6, [r3], #-364	; 0x16c
     770:	7561665f 	strbvc	r6, [r1, #-1631]!	; 0x65f
     774:	5400746c 	strpl	r7, [r0], #-1132	; 0x46c
     778:	534e4152 	movtpl	r4, #57682	; 0xe152
     77c:	4954414c 	ldmdbmi	r4, {r2, r3, r6, r8, lr}^
     780:	535f4e4f 	cmppl	pc, #1264	; 0x4f0
     784:	49544345 	ldmdbmi	r4, {r0, r2, r6, r8, r9, lr}^
     788:	6d004e4f 	stcvs	14, cr4, [r0, #-316]	; 0xfffffec4
     78c:	68636d65 	stmdavs	r3!, {r0, r2, r5, r6, r8, sl, fp, sp, lr}^
     790:	5f6b6365 	svcpl	0x006b6365
     794:	70617274 	rsbvc	r7, r1, r4, ror r2
     798:	616e655f 	cmnvs	lr, pc, asr r5
     79c:	64656c62 	strbtvs	r6, [r5], #-3170	; 0xc62
     7a0:	4d4f4400 	cfstrdmi	mvd4, [pc, #-0]	; 7a8 <__code_start__-0x7858>
     7a4:	696c635f 	stmdbvs	ip!, {r0, r1, r2, r3, r4, r6, r8, r9, sp, lr}^
     7a8:	00746e65 	rsbseq	r6, r4, r5, ror #28
     7ac:	636d656d 	cmnvs	sp, #457179136	; 0x1b400000
     7b0:	6b636568 	blvs	18d9d58 <__bss_end__+0x18cd330>
     7b4:	6172745f 	cmnvs	r2, pc, asr r4
     7b8:	69645f70 	stmdbvs	r4!, {r4, r5, r6, r8, r9, sl, fp, ip, lr}^
     7bc:	6c626173 	stfvse	f6, [r2], #-460	; 0xfffffe34
     7c0:	66640065 	strbtvs	r0, [r4], -r5, rrx
     7c4:	44007273 	strmi	r7, [r0], #-627	; 0x273
     7c8:	725f4d4f 	subsvc	r4, pc, #5056	; 0x13c0
     7cc:	72657365 	rsbvc	r7, r5, #-1811939327	; 0x94000001
     7d0:	00646576 	rsbeq	r6, r4, r6, ror r5
     7d4:	5f545845 	svcpl	0x00545845
     7d8:	5f544241 	svcpl	0x00544241
     7dc:	4e415254 	mcrmi	2, 2, r5, cr1, cr4, {2}
     7e0:	54414c53 	strbpl	r4, [r1], #-3155	; 0xc53
     7e4:	5f4e4f49 	svcpl	0x004e4f49
     7e8:	5f4c564c 	svcpl	0x004c564c
     7ec:	61660032 	cmnvs	r6, r2, lsr r0
     7f0:	5f746c75 	svcpl	0x00746c75
     7f4:	73616572 	cmnvc	r1, #478150656	; 0x1c800000
     7f8:	6d006e6f 	stcvs	14, cr6, [r0, #-444]	; 0xfffffe44
     7fc:	68636d65 	stmdavs	r3!, {r0, r2, r5, r6, r8, sl, fp, sp, lr}^
     800:	5f6b6365 	svcpl	0x006b6365
     804:	615f6f6e 	cmpvs	pc, lr, ror #30
     808:	73656363 	cmnvc	r5, #-1946157055	; 0x8c000001
     80c:	4f440073 	svcmi	0x00440073
     810:	4e49414d 	dvfmiem	f4, f1, #5.0
     814:	4345535f 	movtmi	r5, #21343	; 0x535f
     818:	4e4f4954 	mcrmi	9, 2, r4, cr15, cr4, {2}
     81c:	72616600 	rsbvc	r6, r1, #0, 12
     820:	7465675f 	strbtvc	r6, [r5], #-1887	; 0x75f
     824:	6d656d00 	stclvs	13, cr6, [r5, #-0]
     828:	63656863 	cmnvs	r5, #6488064	; 0x630000
     82c:	6e6f5f6b 	cdpvs	15, 6, cr5, cr15, cr11, {3}
     830:	54584500 	ldrbpl	r4, [r8], #-1280	; 0x500
     834:	5442415f 	strbpl	r4, [r2], #-351	; 0x15f
     838:	4552505f 	ldrbmi	r5, [r2, #-95]	; 0x5f
     83c:	45445f43 	strbmi	r5, [r4, #-3907]	; 0xf43
     840:	44005250 	strmi	r5, [r0], #-592	; 0x250
     844:	6e5f4d4f 	cdpvs	13, 5, cr4, cr15, cr15, {2}
     848:	63615f6f 	cmnvs	r1, #444	; 0x1bc
     84c:	73736563 	cmnvc	r3, #415236096	; 0x18c00000
     850:	52455000 	subpl	r5, r5, #0
     854:	5353494d 	cmppl	r3, #1261568	; 0x134000
     858:	5f4e4f49 	svcpl	0x004e4f49
     85c:	45474150 	strbmi	r4, [r7, #-336]	; 0x150
     860:	75616600 	strbvc	r6, [r1, #-1536]!	; 0x600
     864:	615f746c 	cmpvs	pc, ip, ror #8
     868:	00726464 	rsbseq	r6, r2, r4, ror #8
     86c:	47494c41 	strbmi	r4, [r9, -r1, asr #24]
     870:	4e454d4e 	cdpmi	13, 4, cr4, cr5, cr14, {2}
     874:	45445f54 	strbmi	r5, [r4, #-3924]	; 0xf54
     878:	45005250 	strmi	r5, [r0, #-592]	; 0x250
     87c:	415f5458 	cmpmi	pc, r8, asr r4	; <UNPREDICTABLE>
     880:	545f5442 	ldrbpl	r5, [pc], #-1090	; 888 <__code_start__-0x7778>
     884:	534e4152 	movtpl	r4, #57682	; 0xe152
     888:	4954414c 	ldmdbmi	r4, {r2, r3, r6, r8, lr}^
     88c:	4c5f4e4f 	mrrcmi	14, 4, r4, pc, cr15	; <UNPREDICTABLE>
     890:	315f4c56 	cmpcc	pc, r6, asr ip	; <UNPREDICTABLE>
     894:	73616c00 	cmnvc	r1, #0, 24
     898:	61665f74 	smcvs	26100	; 0x65f4
     89c:	5f746c75 	svcpl	0x00746c75
     8a0:	00746573 	rsbseq	r6, r4, r3, ror r5
     8a4:	6c756166 	ldfvse	f6, [r5], #-408	; 0xfffffe68
     8a8:	63705f74 	cmnvs	r0, #116, 30	; 0x1d0
     8ac:	6d656d00 	stclvs	13, cr6, [r5, #-0]
     8b0:	63656863 	cmnvs	r5, #6488064	; 0x630000
     8b4:	72745f6b 	rsbsvc	r5, r4, #428	; 0x1ac
     8b8:	006b6361 	rsbeq	r6, fp, r1, ror #6
     8bc:	5f6b7262 	svcpl	0x006b7262
     8c0:	62726576 	rsbsvs	r6, r2, #494927872	; 0x1d800000
     8c4:	5f65736f 	svcpl	0x0065736f
     8c8:	4f430070 	svcmi	0x00430070
     8cc:	434f5250 	movtmi	r5, #62032	; 0xf250
     8d0:	5441445f 	strbpl	r4, [r1], #-1119	; 0x45f
     8d4:	42415f41 	submi	r5, r1, #260	; 0x104
     8d8:	656d0054 	strbvs	r0, [sp, #-84]!	; 0x54
     8dc:	6568636d 	strbvs	r6, [r8, #-877]!	; 0x36d
     8e0:	745f6b63 	ldrbvc	r6, [pc], #-2915	; 8e8 <__code_start__-0x7718>
     8e4:	5f706172 	svcpl	0x00706172
     8e8:	62616e65 	rsbvs	r6, r1, #1616	; 0x650
     8ec:	6400656c 	strvs	r6, [r0], #-1388	; 0x56c
     8f0:	705f6d6f 	subsvc	r6, pc, pc, ror #26
     8f4:	5f6d7265 	svcpl	0x006d7265
     8f8:	00746573 	rsbseq	r6, r4, r3, ror r5
     8fc:	7473616c 	ldrbtvc	r6, [r3], #-364	; 0x16c
     900:	7561665f 	strbvc	r6, [r1, #-1631]!	; 0x65f
     904:	675f746c 	ldrbvs	r7, [pc, -ip, ror #8]
     908:	54007465 	strpl	r7, [r0], #-1125	; 0x465
     90c:	534e4152 	movtpl	r4, #57682	; 0xe152
     910:	4954414c 	ldmdbmi	r4, {r2, r3, r6, r8, lr}^
     914:	505f4e4f 	subspl	r4, pc, pc, asr #28
     918:	00454741 	subeq	r4, r5, r1, asr #14
     91c:	72736664 	rsbsvc	r6, r3, #100, 12	; 0x6400000
     920:	7465675f 	strbtvc	r6, [r5], #-1887	; 0x75f
     924:	45525000 	ldrbmi	r5, [r2, #-0]
     928:	45534943 	ldrbmi	r4, [r3, #-2371]	; 0x943
     92c:	5458455f 	ldrbpl	r4, [r8], #-1375	; 0x55f
     930:	5442415f 	strbpl	r4, [r2], #-351	; 0x15f
     934:	75616600 	strbvc	r6, [r1, #-1536]!	; 0x600
     938:	655f746c 	ldrbvs	r7, [pc, #-1132]	; 4d4 <__code_start__-0x7b2c>
     93c:	63657078 	cmnvs	r5, #120	; 0x78
     940:	00646574 	rsbeq	r6, r4, r4, ror r5
     944:	636d656d 	cmnvs	sp, #457179136	; 0x1b400000
     948:	6b636568 	blvs	18d9ef0 <__bss_end__+0x18cd4c8>
     94c:	6e6f635f 	mcrvs	3, 3, r6, cr15, cr15, {2}
     950:	756e6974 	strbvc	r6, [lr, #-2420]!	; 0x974
     954:	66615f65 	strbtvs	r5, [r1], -r5, ror #30
     958:	5f726574 	svcpl	0x00726574
     95c:	6c756166 	ldfvse	f6, [r5], #-408	; 0xfffffe68
     960:	616c0074 	smcvs	49156	; 0xc004
     964:	665f7473 			; <UNDEFINED> instruction: 0x665f7473
     968:	746c7561 	strbtvc	r7, [ip], #-1377	; 0x561
     96c:	5000745f 	andpl	r7, r0, pc, asr r4
     970:	5f41534d 	svcpl	0x0041534d
     974:	5f424c54 	svcpl	0x00424c54
     978:	5353494d 	cmppl	r3, #1261568	; 0x134000
     97c:	52455000 	subpl	r5, r5, #0
     980:	5353494d 	cmppl	r3, #1261568	; 0x134000
     984:	5f4e4f49 	svcpl	0x004e4f49
     988:	54434553 	strbpl	r4, [r3], #-1363	; 0x553
     98c:	004e4f49 	subeq	r4, lr, r9, asr #30
     990:	5f6d6f64 	svcpl	0x006d6f64
     994:	6d726570 	cfldr64vs	mvdx6, [r2, #-448]!	; 0xfffffe40
     998:	7465675f 	strbtvc	r6, [r5], #-1887	; 0x75f
     99c:	5f747000 	svcpl	0x00747000
     9a0:	6d007473 	cfstrsvs	mvf7, [r0, #-460]	; 0xfffffe34
     9a4:	68636d65 	stmdavs	r3!, {r0, r2, r5, r6, r8, sl, fp, sp, lr}^
     9a8:	5f6b6365 	svcpl	0x006b6365
     9ac:	74696e69 	strbtvc	r6, [r9], #-3689	; 0xe69
     9b0:	6d656d00 	stclvs	13, cr6, [r5, #-0]
     9b4:	63656863 	cmnvs	r5, #6488064	; 0x630000
     9b8:	616d5f6b 	cmnvs	sp, fp, ror #30
     9bc:	696c0070 	stmdbvs	ip!, {r4, r5, r6}^
     9c0:	682f6362 	stmdavs	pc!, {r1, r5, r6, r8, r9, sp, lr}	; <UNPREDICTABLE>
     9c4:	2e687361 	cdpcs	3, 6, cr7, cr8, cr1, {3}
     9c8:	4e470063 	cdpmi	0, 4, cr0, cr7, cr3, {3}
     9cc:	20432055 	subcs	r2, r3, r5, asr r0
     9d0:	2e382e34 	mrccs	14, 1, r2, cr8, cr4, {1}
     9d4:	6d2d2033 	stcvs	0, cr2, [sp, #-204]!	; 0xffffff34
     9d8:	3d757063 	ldclcc	0, cr7, [r5, #-396]!	; 0xfffffe74
     9dc:	316d7261 	cmncc	sp, r1, ror #4
     9e0:	6a363731 	bvs	d8e6ac <__bss_end__+0xd81c84>
     9e4:	732d667a 	teqvc	sp, #127926272	; 0x7a00000
     9e8:	746d2d20 	strbtvc	r2, [sp], #-3360	; 0xd20
     9ec:	3d656e75 	stclcc	14, cr6, [r5, #-468]!	; 0xfffffe2c
     9f0:	316d7261 	cmncc	sp, r1, ror #4
     9f4:	6a363731 	bvs	d8e6c0 <__bss_end__+0xd81c98>
     9f8:	732d667a 	teqvc	sp, #127926272	; 0x7a00000
     9fc:	67672d20 	strbvs	r2, [r7, -r0, lsr #26]!
     a00:	2d206264 	sfmcs	f6, 4, [r0, #-400]!	; 0xfffffe70
     a04:	2d20674f 	stccs	7, cr6, [r0, #-316]!	; 0xfffffec4
     a08:	3d647473 	cfstrdcc	mvd7, [r4, #-460]!	; 0xfffffe34
     a0c:	39756e67 	ldmdbcc	r5!, {r0, r1, r2, r5, r6, r9, sl, fp, sp, lr}^
     a10:	662d2039 			; <UNDEFINED> instruction: 0x662d2039
     a14:	65657266 	strbvs	r7, [r5, #-614]!	; 0x266
     a18:	6e617473 	mcrvs	4, 3, r7, cr1, cr3, {3}
     a1c:	676e6964 	strbvs	r6, [lr, -r4, ror #18]!
     a20:	6e697500 	cdpvs	5, 6, cr7, cr9, cr0, {0}
     a24:	745f3874 	ldrbvc	r3, [pc], #-2164	; a2c <__code_start__-0x75d4>
     a28:	73552f00 	cmpvc	r5, #0, 30
     a2c:	2f737265 	svccs	0x00737265
     a30:	61697262 	cmnvs	r9, r2, ror #4
     a34:	6e756a6e 	vsubvs.f32	s13, s10, s29
     a38:	7365442f 	cmnvc	r5, #788529152	; 0x2f000000
     a3c:	706f746b 	rsbvc	r7, pc, fp, ror #8
     a40:	6863732f 	stmdavs	r3!, {r0, r1, r2, r3, r5, r8, r9, ip, sp, lr}^
     a44:	2f6c6f6f 	svccs	0x006c6f6f
     a48:	69727053 	ldmdbvs	r2!, {r0, r1, r4, r6, ip, sp, lr}^
     a4c:	3931676e 	ldmdbcc	r1!, {r1, r2, r3, r5, r6, r8, r9, sl, sp, lr}
     a50:	432f3032 	teqmi	pc, #50	; 0x32
     a54:	30343253 	eorscc	r3, r4, r3, asr r2
     a58:	632f584c 	teqvs	pc, #76, 16	; 0x4c0000
     a5c:	30343273 	eorscc	r3, r4, r3, ror r2
     a60:	322d786c 	eorcc	r7, sp, #108, 16	; 0x6c0000
     a64:	72707330 	rsbsvc	r7, r0, #48, 6	; 0xc0000000
     a68:	62696c2f 	rsbvs	r6, r9, #12032	; 0x2f00
     a6c:	6c006970 	stcvs	9, cr6, [r0], {112}	; 0x70
     a70:	2f636269 	svccs	0x00636269
     a74:	736d656d 	cmnvc	sp, #457179136	; 0x1b400000
     a78:	632e7465 	teqvs	lr, #1694498816	; 0x65000000
     a7c:	675f5f00 	ldrbvs	r5, [pc, -r0, lsl #30]
     a80:	5f63756e 	svcpl	0x0063756e
     a84:	6c5f6176 	ldfvse	f6, [pc], {118}	; 0x76
     a88:	00747369 	rsbseq	r7, r4, r9, ror #6
     a8c:	6362696c 	cmnvs	r2, #108, 18	; 0x1b0000
     a90:	6972702f 	ldmdbvs	r2!, {r0, r1, r2, r3, r5, ip, sp, lr}^
     a94:	2e6b746e 	cdpcs	4, 6, cr7, cr11, cr14, {3}
     a98:	61760063 	cmnvs	r6, r3, rrx
     a9c:	6972705f 	ldmdbvs	r2!, {r0, r1, r2, r3, r4, r6, ip, sp, lr}^
     aa0:	006b746e 	rsbeq	r7, fp, lr, ror #8
     aa4:	61765f5f 	cmnvs	r6, pc, asr pc
     aa8:	73696c5f 	cmnvc	r9, #24320	; 0x5f00
     aac:	5f5f0074 	svcpl	0x005f0074
     ab0:	75007061 	strvc	r7, [r0, #-97]	; 0x61
     ab4:	5f747261 	svcpl	0x00747261
     ab8:	63747570 	cmnvs	r4, #112, 10	; 0x1c000000
     abc:	746e6900 	strbtvc	r6, [lr], #-2304	; 0x900
     ac0:	616e7265 	cmnvs	lr, r5, ror #4
     ac4:	75705f6c 	ldrbvc	r5, [r0, #-3948]!	; 0xf6c
     ac8:	61686374 	smcvs	34356	; 0x8634
     acc:	70720072 	rsbsvc	r0, r2, r2, ror r0
     ad0:	75705f69 	ldrbvc	r5, [r0, #-3945]!	; 0xf69
     ad4:	61686374 	smcvs	34356	; 0x8634
     ad8:	696c0072 	stmdbvs	ip!, {r1, r4, r5, r6}^
     adc:	702f6362 	eorvc	r6, pc, r2, ror #6
     ae0:	68637475 	stmdavs	r3!, {r0, r2, r4, r5, r6, sl, ip, sp, lr}^
     ae4:	632e7261 	teqvs	lr, #268435462	; 0x10000006
     ae8:	69707200 	ldmdbvs	r0!, {r9, ip, sp, lr}^
     aec:	7465735f 	strbtvc	r7, [r5], #-863	; 0x35f
     af0:	7475705f 	ldrbtvc	r7, [r5], #-95	; 0x5f
     af4:	696c0063 	stmdbvs	ip!, {r0, r1, r5, r6}^
     af8:	702f6362 	eorvc	r6, pc, r2, ror #6
     afc:	2e6b7475 	mcrcs	4, 3, r7, cr11, cr5, {3}
     b00:	6e690063 	cdpvs	0, 6, cr0, cr9, cr3, {3}
     b04:	6e726574 	mrcvs	5, 3, r6, cr2, cr4, {3}
     b08:	705f6c61 	subsvc	r6, pc, r1, ror #24
     b0c:	006b7475 	rsbeq	r7, fp, r5, ror r4
     b10:	5f746d66 	svcpl	0x00746d66
     b14:	72617473 	rsbvc	r7, r1, #1929379840	; 0x73000000
     b18:	656e0074 	strbvs	r0, [lr, #-116]!	; 0x74
     b1c:	00705f67 	rsbseq	r5, r0, r7, ror #30
     b20:	65766572 	ldrbvs	r6, [r6, #-1394]!	; 0x572
     b24:	00657372 	rsbeq	r7, r5, r2, ror r3
     b28:	69647369 	stmdbvs	r4!, {r0, r3, r5, r6, r8, r9, ip, sp, lr}^
     b2c:	00746967 	rsbseq	r6, r4, r7, ror #18
     b30:	73747570 	cmnvc	r4, #112, 10	; 0x1c000000
     b34:	0070665f 	rsbseq	r6, r0, pc, asr r6
     b38:	6e676973 	mcrvs	9, 3, r6, cr7, cr3, {3}
     b3c:	705f6465 	subsvc	r6, pc, r5, ror #8
     b40:	62696c00 	rsbvs	r6, r9, #0, 24
     b44:	61762f63 	cmnvs	r6, r3, ror #30
     b48:	6972702d 	ldmdbvs	r2!, {r0, r2, r3, r5, ip, sp, lr}^
     b4c:	2e6b746e 	cdpcs	4, 6, cr7, cr11, cr14, {3}
     b50:	70720063 	rsbsvc	r0, r2, r3, rrx
     b54:	65735f69 	ldrbvs	r5, [r3, #-3945]!	; 0xf69
     b58:	756f5f74 	strbvc	r5, [pc, #-3956]!	; fffffbec <__bss_end__+0xffff31c4>
     b5c:	74757074 	ldrbtvc	r7, [r5], #-116	; 0x74
     b60:	64697700 	strbtvs	r7, [r9], #-1792	; 0x700
     b64:	70006874 	andvc	r6, r0, r4, ror r8
     b68:	5f637475 	svcpl	0x00637475
     b6c:	65007066 	strvs	r7, [r0, #-102]	; 0x66
     b70:	0074696d 	rsbseq	r6, r4, sp, ror #18
     b74:	6f626572 	svcvs	0x00626572
     b78:	685f746f 	ldmdavs	pc, {r0, r1, r2, r3, r5, r6, sl, ip, sp, lr}^	; <UNPREDICTABLE>
     b7c:	6c646e61 	stclvs	14, cr6, [r4], #-388	; 0xfffffe7c
     b80:	73007265 	movwvc	r7, #613	; 0x265
     b84:	66666174 			; <UNDEFINED> instruction: 0x66666174
     b88:	6372732d 	cmnvs	r2, #-1275068416	; 0xb4000000
     b8c:	656c632f 	strbvs	r6, [ip, #-815]!	; 0x32f
     b90:	722d6e61 	eorvc	r6, sp, #1552	; 0x610
     b94:	6f6f6265 	svcvs	0x006f6265
     b98:	00632e74 	rsbeq	r2, r3, r4, ror lr
     b9c:	5f697072 	svcpl	0x00697072
     ba0:	6f626572 	svcvs	0x00626572
     ba4:	6400746f 	strvs	r7, [r0], #-1135	; 0x46f
     ba8:	79616c65 	stmdbvc	r1!, {r0, r2, r5, r6, sl, fp, sp, lr}^
     bac:	00736d5f 	rsbseq	r6, r3, pc, asr sp
     bb0:	73625f5f 	cmnvc	r2, #380	; 0x17c
     bb4:	74735f73 	ldrbtvc	r5, [r3], #-3955	; 0xf73
     bb8:	5f747261 	svcpl	0x00747261
     bbc:	5f5f005f 	svcpl	0x005f005f
     bc0:	5f737362 	svcpl	0x00737362
     bc4:	5f646e65 	svcpl	0x00646e65
     bc8:	7363005f 	cmnvc	r3, #95	; 0x5f
     bcc:	74726174 	ldrbtvc	r6, [r2], #-372	; 0x174
     bd0:	6e61685f 	mcrvs	8, 3, r6, cr1, cr15, {2}
     bd4:	72656c64 	rsbvc	r6, r5, #100, 24	; 0x6400
     bd8:	73736200 	cmnvc	r3, #0, 4
     bdc:	646e655f 	strbtvs	r6, [lr], #-1375	; 0x55f
     be0:	73635f00 	cmnvc	r3, #0, 30
     be4:	74726174 	ldrbtvc	r6, [r2], #-372	; 0x174
     be8:	61747300 	cmnvs	r4, r0, lsl #6
     bec:	732d6666 	teqvc	sp, #106954752	; 0x6600000
     bf0:	632f6372 	teqvs	pc, #-939524095	; 0xc8000001
     bf4:	72617473 	rsbvc	r7, r1, #1929379840	; 0x73000000
     bf8:	00632e74 	rsbeq	r2, r3, r4, ror lr
     bfc:	66617473 			; <UNDEFINED> instruction: 0x66617473
     c00:	72732d66 	rsbsvc	r2, r3, #6528	; 0x1980
     c04:	65642f63 	strbvs	r2, [r4, #-3939]!	; 0xf63
     c08:	6c756166 	ldfvse	f6, [r5], #-408	; 0xfffffe68
     c0c:	61682d74 	smcvs	33492	; 0x82d4
     c10:	656c646e 	strbvs	r6, [ip, #-1134]!	; 0x46e
     c14:	61662d72 	smcvs	25298	; 0x62d2
     c18:	632e7473 	teqvs	lr, #1929379840	; 0x73000000
     c1c:	73616600 	cmnvc	r1, #0, 12
     c20:	6e695f74 	mcrvs	15, 3, r5, cr9, cr4, {3}
     c24:	72726574 	rsbsvc	r6, r2, #116, 10	; 0x1d000000
     c28:	5f747075 	svcpl	0x00747075
     c2c:	74636576 	strbtvc	r6, [r3], #-1398	; 0x576
     c30:	7300726f 	movwvc	r7, #623	; 0x26f
     c34:	66666174 			; <UNDEFINED> instruction: 0x66666174
     c38:	6372732d 	cmnvs	r2, #-1275068416	; 0xb4000000
     c3c:	6665642f 	strbtvs	r6, [r5], -pc, lsr #8
     c40:	746c7561 	strbtvc	r7, [ip], #-1377	; 0x561
     c44:	6e61682d 	cdpvs	8, 6, cr6, cr1, cr13, {1}
     c48:	72656c64 	rsbvc	r6, r5, #100, 24	; 0x6400
     c4c:	6572702d 	ldrbvs	r7, [r2, #-45]!	; 0x2d
     c50:	63746566 	cmnvs	r4, #427819008	; 0x19800000
     c54:	00632e68 	rsbeq	r2, r3, r8, ror #28
     c58:	66657270 			; <UNDEFINED> instruction: 0x66657270
     c5c:	68637465 	stmdavs	r3!, {r0, r2, r5, r6, sl, ip, sp, lr}^
     c60:	6f62615f 	svcvs	0x0062615f
     c64:	765f7472 			; <UNDEFINED> instruction: 0x765f7472
     c68:	6f746365 	svcvs	0x00746365
     c6c:	65720072 	ldrbvs	r0, [r2, #-114]!	; 0x72
     c70:	5f746573 	svcpl	0x00746573
     c74:	74636576 	strbtvc	r6, [r3], #-1398	; 0x576
     c78:	7300726f 	movwvc	r7, #623	; 0x26f
     c7c:	66666174 			; <UNDEFINED> instruction: 0x66666174
     c80:	6372732d 	cmnvs	r2, #-1275068416	; 0xb4000000
     c84:	6665642f 	strbtvs	r6, [r5], -pc, lsr #8
     c88:	746c7561 	strbtvc	r7, [ip], #-1377	; 0x561
     c8c:	6e61682d 	cdpvs	8, 6, cr6, cr1, cr13, {1}
     c90:	72656c64 	rsbvc	r6, r5, #100, 24	; 0x6400
     c94:	7365722d 	cmnvc	r5, #-805306366	; 0xd0000002
     c98:	632e7465 	teqvs	lr, #1694498816	; 0x65000000
     c9c:	61747300 	cmnvs	r4, r0, lsl #6
     ca0:	732d6666 	teqvc	sp, #106954752	; 0x6600000
     ca4:	642f6372 	strtvs	r6, [pc], #-882	; cac <__code_start__-0x7354>
     ca8:	75616665 	strbvc	r6, [r1, #-1637]!	; 0x665
     cac:	682d746c 	stmdavs	sp!, {r2, r3, r5, r6, sl, ip, sp, lr}
     cb0:	6c646e61 	stclvs	14, cr6, [r4], #-388	; 0xfffffe7c
     cb4:	752d7265 	strvc	r7, [sp, #-613]!	; 0x265
     cb8:	6665646e 	strbtvs	r6, [r5], -lr, ror #8
     cbc:	64656e69 	strbtvs	r6, [r5], #-3689	; 0xe69
     cc0:	736e692d 	cmnvc	lr, #737280	; 0xb4000
     cc4:	00632e74 	rsbeq	r2, r3, r4, ror lr
     cc8:	65646e75 	strbvs	r6, [r4, #-3701]!	; 0xe75
     ccc:	656e6966 	strbvs	r6, [lr, #-2406]!	; 0x966
     cd0:	6e695f64 	cdpvs	15, 6, cr5, cr9, cr4, {3}
     cd4:	75727473 	ldrbvc	r7, [r2, #-1139]!	; 0x473
     cd8:	6f697463 	svcvs	0x00697463
     cdc:	65765f6e 	ldrbvs	r5, [r6, #-3950]!	; 0xf6e
     ce0:	726f7463 	rsbvc	r7, pc, #1660944384	; 0x63000000
     ce4:	61747300 	cmnvs	r4, r0, lsl #6
     ce8:	732d6666 	teqvc	sp, #106954752	; 0x6600000
     cec:	642f6372 	strtvs	r6, [pc], #-882	; cf4 <__code_start__-0x730c>
     cf0:	75616665 	strbvc	r6, [r1, #-1637]!	; 0x665
     cf4:	682d746c 	stmdavs	sp!, {r2, r3, r5, r6, sl, ip, sp, lr}
     cf8:	6c646e61 	stclvs	14, cr6, [r4], #-388	; 0xfffffe7c
     cfc:	2e737265 	cdpcs	2, 7, cr7, cr3, cr5, {3}
     d00:	52490063 	subpl	r0, r9, #99	; 0x63
     d04:	65705f51 	ldrbvs	r5, [r0, #-3921]!	; 0xf51
     d08:	6e69646e 	cdpvs	4, 6, cr6, cr9, cr14, {3}
     d0c:	00325f67 	eorseq	r5, r2, r7, ror #30
     d10:	61736944 	cmnvs	r3, r4, asr #18
     d14:	5f656c62 	svcpl	0x00656c62
     d18:	69736142 	ldmdbvs	r3!, {r1, r6, r8, sp, lr}^
     d1c:	52495f63 	subpl	r5, r9, #396	; 0x18c
     d20:	46007351 			; <UNDEFINED> instruction: 0x46007351
     d24:	635f5149 	cmpvs	pc, #1073741842	; 0x40000012
     d28:	72746e6f 	rsbsvc	r6, r4, #1776	; 0x6f0
     d2c:	5f006c6f 	svcpl	0x00006c6f
     d30:	65746e69 	ldrbvs	r6, [r4, #-3689]!	; 0xe69
     d34:	70757272 	rsbsvc	r7, r5, r2, ror r2
     d38:	61745f74 	cmnvs	r4, r4, ror pc
     d3c:	00656c62 	rsbeq	r6, r5, r2, ror #24
     d40:	5f515249 	svcpl	0x00515249
     d44:	69736162 	ldmdbvs	r3!, {r1, r5, r6, r8, sp, lr}^
     d48:	65705f63 	ldrbvs	r5, [r0, #-3939]!	; 0xf63
     d4c:	6e69646e 	cdpvs	4, 6, cr6, cr9, cr14, {3}
     d50:	6e450067 	cdpvs	0, 4, cr0, cr5, cr7, {3}
     d54:	656c6261 	strbvs	r6, [ip, #-609]!	; 0x261
     d58:	7361425f 	cmnvc	r1, #-268435451	; 0xf0000005
     d5c:	495f6369 	ldmdbmi	pc, {r0, r3, r5, r6, r8, r9, sp, lr}^	; <UNPREDICTABLE>
     d60:	00735152 	rsbseq	r5, r3, r2, asr r1
     d64:	62616e45 	rsbvs	r6, r1, #1104	; 0x450
     d68:	495f656c 	ldmdbmi	pc, {r2, r3, r5, r6, r8, sl, sp, lr}^	; <UNPREDICTABLE>
     d6c:	5f735152 	svcpl	0x00735152
     d70:	6e450031 	mcrvs	0, 2, r0, cr5, cr1, {1}
     d74:	656c6261 	strbvs	r6, [ip, #-609]!	; 0x261
     d78:	5152495f 	cmppl	r2, pc, asr r9
     d7c:	00325f73 	eorseq	r5, r2, r3, ror pc
     d80:	746e695f 	strbtvc	r6, [lr], #-2399	; 0x95f
     d84:	75727265 	ldrbvc	r7, [r2, #-613]!	; 0x265
     d88:	745f7470 	ldrbvc	r7, [pc], #-1136	; d90 <__code_start__-0x7270>
     d8c:	656c6261 	strbvs	r6, [ip, #-609]!	; 0x261
     d90:	646e655f 	strbtvs	r6, [lr], #-1375	; 0x55f
     d94:	76656400 	strbtvc	r6, [r5], -r0, lsl #8
     d98:	7261625f 	rsbvc	r6, r1, #-268435451	; 0xf0000005
     d9c:	72656972 	rsbvc	r6, r5, #1867776	; 0x1c8000
     da0:	61747300 	cmnvs	r4, r0, lsl #6
     da4:	732d6666 	teqvc	sp, #106954752	; 0x6600000
     da8:	692f6372 	stmdbvs	pc!, {r1, r4, r5, r6, r8, r9, sp, lr}	; <UNPREDICTABLE>
     dac:	7265746e 	rsbvc	r7, r5, #1845493760	; 0x6e000000
     db0:	74707572 	ldrbtvc	r7, [r0], #-1394	; 0x572
     db4:	2e632d73 	mcrcs	13, 3, r2, cr3, cr3, {3}
     db8:	52490063 	subpl	r0, r9, #99	; 0x63
     dbc:	61425f51 	cmpvs	r2, r1, asr pc
     dc0:	50006573 	andpl	r6, r0, r3, ror r5
     dc4:	32335455 	eorscc	r5, r3, #1426063360	; 0x55000000
     dc8:	73694400 	cmnvc	r9, #0, 8
     dcc:	656c6261 	strbvs	r6, [ip, #-609]!	; 0x261
     dd0:	5152495f 	cmppl	r2, pc, asr r9
     dd4:	00315f73 	eorseq	r5, r1, r3, ror pc
     dd8:	61736944 	cmnvs	r3, r4, asr #18
     ddc:	5f656c62 	svcpl	0x00656c62
     de0:	73515249 	cmpvc	r1, #-1879048188	; 0x90000004
     de4:	4900325f 	stmdbmi	r0, {r0, r1, r2, r3, r4, r6, r9, ip, sp}
     de8:	705f5152 	subsvc	r5, pc, r2, asr r1	; <UNPREDICTABLE>
     dec:	69646e65 	stmdbvs	r4!, {r0, r2, r5, r6, r9, sl, fp, sp, lr}^
     df0:	315f676e 	cmpcc	pc, lr, ror #14
     df4:	5f746100 	svcpl	0x00746100
     df8:	72657375 	rsbvc	r7, r5, #-738197503	; 0xd4000001
     dfc:	76656c5f 			; <UNDEFINED> instruction: 0x76656c5f
     e00:	73006c65 	movwvc	r6, #3173	; 0xc65
     e04:	66666174 			; <UNDEFINED> instruction: 0x66666174
     e08:	6372732d 	cmnvs	r2, #-1275068416	; 0xb4000000
     e0c:	6265722f 	rsbvs	r7, r5, #-268435454	; 0xf0000002
     e10:	2e746f6f 	cdpcs	15, 7, cr6, cr4, cr15, {3}
     e14:	4d500063 	ldclmi	0, cr0, [r0, #-396]	; 0xfffffe74
     e18:	5453525f 	ldrbpl	r5, [r3], #-607	; 0x25f
     e1c:	52575f43 	subspl	r5, r7, #268	; 0x10c
     e20:	5f474643 	svcpl	0x00474643
     e24:	4c4c5546 	cfstr64mi	mvdx5, [ip], {70}	; 0x46
     e28:	5345525f 	movtpl	r5, #21087	; 0x525f
     e2c:	50005445 	andpl	r5, r0, r5, asr #8
     e30:	44575f4d 	ldrbmi	r5, [r7], #-3917	; 0xf4d
     e34:	7300474f 	movwvc	r4, #1871	; 0x74f
     e38:	755f7465 	ldrbvc	r7, [pc, #-1125]	; 9db <__code_start__-0x7625>
     e3c:	5f726573 	svcpl	0x00726573
     e40:	6576656c 	ldrbvs	r6, [r6, #-1388]!	; 0x56c
     e44:	4d50006c 	ldclmi	0, cr0, [r0, #-432]	; 0xfffffe50
     e48:	5341505f 	movtpl	r5, #4191	; 0x105f
     e4c:	524f5753 	subpl	r5, pc, #21757952	; 0x14c0000
     e50:	4d500044 	ldclmi	0, cr0, [r0, #-272]	; 0xfffffef0
     e54:	5453525f 	ldrbpl	r5, [r3], #-607	; 0x25f
     e58:	69740043 	ldmdbvs	r4!, {r0, r1, r6}^
     e5c:	5f72656d 	svcpl	0x0072656d
     e60:	5f746567 	svcpl	0x00746567
     e64:	63657375 	cmnvs	r5, #-738197503	; 0xd4000001
     e68:	7761725f 			; <UNDEFINED> instruction: 0x7761725f
     e6c:	6c656400 	cfstrdvs	mvd6, [r5], #-0
     e70:	735f7961 	cmpvc	pc, #1589248	; 0x184000
     e74:	73006365 	movwvc	r6, #869	; 0x365
     e78:	66666174 			; <UNDEFINED> instruction: 0x66666174
     e7c:	6372732d 	cmnvs	r2, #-1275068416	; 0xb4000000
     e80:	6d69742f 	cfstrdvs	mvd7, [r9, #-188]!	; 0xffffff44
     e84:	632e7265 	teqvs	lr, #1342177286	; 0x50000006
     e88:	54454700 	strbpl	r4, [r5], #-1792	; 0x700
     e8c:	74003233 	strvc	r3, [r0], #-563	; 0x233
     e90:	736b6369 	cmnvc	fp, #-1543503871	; 0xa4000001
     e94:	6c656400 	cfstrdvs	mvd6, [r5], #-0
     e98:	635f7961 	cmpvs	pc, #1589248	; 0x184000
     e9c:	656c6379 	strbvs	r6, [ip, #-889]!	; 0x379
     ea0:	65640073 	strbvs	r0, [r4, #-115]!	; 0x73
     ea4:	5f79616c 	svcpl	0x0079616c
     ea8:	74007375 	strvc	r7, [r0], #-885	; 0x375
     eac:	72656d69 	rsbvc	r6, r5, #6720	; 0x1a40
     eb0:	7465675f 	strbtvc	r6, [r5], #-1887	; 0x75f
     eb4:	6573755f 	ldrbvs	r7, [r3, #-1375]!	; 0x55f
     eb8:	645f0063 	ldrbvs	r0, [pc], #-99	; ec0 <__code_start__-0x7140>
     ebc:	685f6f73 	ldmdavs	pc, {r0, r1, r4, r5, r6, r8, r9, sl, fp, sp, lr}^	; <UNPREDICTABLE>
     ec0:	6c646e61 	stclvs	14, cr6, [r4], #-388	; 0xfffffe7c
     ec4:	735f0065 	cmpvc	pc, #101	; 0x65
     ec8:	00657a69 	rsbeq	r7, r5, r9, ror #20
     ecc:	6e61725f 	mcrvs	2, 3, r7, cr1, cr15, {2}
     ed0:	00383464 	eorseq	r3, r8, r4, ror #8
     ed4:	656d655f 	strbvs	r6, [sp, #-1375]!	; 0x55f
     ed8:	6e656772 	mcrvs	7, 3, r6, cr5, cr2, {3}
     edc:	75007963 	strvc	r7, [r0, #-2403]	; 0x963
     ee0:	5f747261 	svcpl	0x00747261
     ee4:	74696e69 	strbtvc	r6, [r9], #-3689	; 0xe69
     ee8:	63775f00 	cmnvs	r7, #0, 30
     eec:	6d6f7472 	cfstrdvs	mvd7, [pc, #-456]!	; d2c <__code_start__-0x72d4>
     ef0:	74735f62 	ldrbtvc	r5, [r3], #-3938	; 0xf62
     ef4:	00657461 	rsbeq	r7, r5, r1, ror #8
     ef8:	7363775f 	cmnvc	r3, #24903680	; 0x17c0000
     efc:	6d6f7472 	cfstrdvs	mvd7, [pc, #-456]!	; d3c <__code_start__-0x72c4>
     f00:	735f7362 	cmpvc	pc, #-2013265919	; 0x88000001
     f04:	65746174 	ldrbvs	r6, [r4, #-372]!	; 0x174
     f08:	626c5f00 	rsbvs	r5, ip, #0, 30
     f0c:	7a697366 	bvc	1a5dcac <__bss_end__+0x1a51284>
     f10:	50470065 	subpl	r0, r7, r5, rrx
     f14:	465f4f49 	ldrbmi	r4, [pc], -r9, asr #30
     f18:	5f434e55 	svcpl	0x00434e55
     f1c:	55504e49 	ldrbpl	r4, [r0, #-3657]	; 0xe49
     f20:	6d5f0054 	ldclvs	0, cr0, [pc, #-336]	; dd8 <__code_start__-0x7228>
     f24:	6f747262 	svcvs	0x00747262
     f28:	735f6377 	cmpvc	pc, #-603979775	; 0xdc000001
     f2c:	65746174 	ldrbvs	r6, [r4, #-372]!	; 0x174
     f30:	63775f00 	cmnvs	r7, #0, 30
     f34:	626d6f74 	rsbvs	r6, sp, #116, 30	; 0x1d0
     f38:	6174735f 	cmnvs	r4, pc, asr r3
     f3c:	5f006574 	svcpl	0x00006574
     f40:	5f6d745f 	svcpl	0x006d745f
     f44:	00636573 	rsbeq	r6, r3, r3, ror r5
     f48:	74617473 	strbtvc	r7, [r1], #-1139	; 0x473
     f4c:	62755f00 	rsbsvs	r5, r5, #0, 30
     f50:	47006675 	smlsdxmi	r0, r5, r6, r6
     f54:	5f4f4950 	svcpl	0x004f4950
     f58:	434e5546 	movtmi	r5, #58694	; 0xe546
     f5c:	544c415f 	strbpl	r4, [ip], #-351	; 0x15f
     f60:	625f0031 	subsvs	r0, pc, #49	; 0x31
     f64:	00657361 	rsbeq	r7, r5, r1, ror #6
     f68:	6c746e63 	ldclvs	14, cr6, [r4], #-396	; 0xfffffe74
     f6c:	745f5f00 	ldrbvc	r5, [pc], #-3840	; f74 <__code_start__-0x708c>
     f70:	6f685f6d 	svcvs	0x00685f6d
     f74:	5f007275 	svcpl	0x00007275
     f78:	0066735f 	rsbeq	r7, r6, pc, asr r3
     f7c:	5f6e6f5f 	svcpl	0x006e6f5f
     f80:	74697865 	strbtvc	r7, [r9], #-2149	; 0x865
     f84:	6772615f 			; <UNDEFINED> instruction: 0x6772615f
     f88:	635f0073 	cmpvs	pc, #115	; 0x73
     f8c:	696b6f6f 	stmdbvs	fp!, {r0, r1, r2, r3, r5, r6, r8, r9, sl, fp, sp, lr}^
     f90:	5f5f0065 	svcpl	0x005f0065
     f94:	756c6773 	strbvc	r6, [ip, #-1907]!	; 0x773
     f98:	665f0065 	ldrbvs	r0, [pc], -r5, rrx
     f9c:	7367616c 	cmnvc	r7, #108, 2
     fa0:	73695f00 	cmnvc	r9, #0, 30
     fa4:	6178635f 	cmnvs	r8, pc, asr r3
     fa8:	74735f00 	ldrbtvc	r5, [r3], #-3840	; 0xf00
     fac:	006e6964 	rsbeq	r6, lr, r4, ror #18
     fb0:	6b6c625f 	blvs	1b19934 <__bss_end__+0x1b0cf0c>
     fb4:	657a6973 	ldrbvs	r6, [sl, #-2419]!	; 0x973
     fb8:	72617500 	rsbvc	r7, r1, #0, 10
     fbc:	00632e74 	rsbeq	r2, r3, r4, ror lr
     fc0:	5f787561 	svcpl	0x00787561
     fc4:	69726570 	ldmdbvs	r2!, {r4, r5, r6, r8, sl, sp, lr}^
     fc8:	00736870 	rsbseq	r6, r3, r0, ror r8
     fcc:	7476635f 	ldrbtvc	r6, [r6], #-863	; 0x35f
     fd0:	00667562 	rsbeq	r7, r6, r2, ror #10
     fd4:	6d6f682f 	stclvs	8, cr6, [pc, #-188]!	; f20 <__code_start__-0x70e0>
     fd8:	6e652f65 	cdpvs	15, 6, cr2, cr5, cr5, {3}
     fdc:	72656c67 	rsbvc	r6, r5, #26368	; 0x6700
     fe0:	616c632f 	cmnvs	ip, pc, lsr #6
     fe4:	632f7373 	teqvs	pc, #-872415231	; 0xcc000001
     fe8:	30343273 	eorscc	r3, r4, r3, ror r2
     fec:	322d786c 	eorcc	r7, sp, #108, 16	; 0x6c0000
     ff0:	72707330 	rsbsvc	r7, r0, #48, 6	; 0xc0000000
     ff4:	62696c2f 	rsbvs	r6, r9, #12032	; 0x2f00
     ff8:	732f6970 	teqvc	pc, #112, 18	; 0x1c0000
     ffc:	66666174 			; <UNDEFINED> instruction: 0x66666174
    1000:	6972702d 	ldmdbvs	r2!, {r0, r2, r3, r5, ip, sp, lr}^
    1004:	65746176 	ldrbvs	r6, [r4, #-374]!	; 0x176
    1008:	626d5f00 	rsbvs	r5, sp, #0, 30
    100c:	6f747273 	svcvs	0x00747273
    1010:	5f736377 	svcpl	0x00736377
    1014:	74617473 	strbtvc	r7, [r1], #-1139	; 0x473
    1018:	6d5f0065 	ldclvs	0, cr0, [pc, #-404]	; e8c <__code_start__-0x7174>
    101c:	656c7262 	strbvs	r7, [ip, #-610]!	; 0x262
    1020:	74735f6e 	ldrbtvc	r5, [r3], #-3950	; 0xf6e
    1024:	00657461 	rsbeq	r7, r5, r1, ror #8
    1028:	616e665f 	cmnvs	lr, pc, asr r6
    102c:	00736772 	rsbseq	r6, r3, r2, ror r7
    1030:	5f787561 	svcpl	0x00787561
    1034:	62616e65 	rsbvs	r6, r1, #1616	; 0x650
    1038:	0073656c 	rsbseq	r6, r3, ip, ror #10
    103c:	736e665f 	cmnvc	lr, #99614720	; 0x5f00000
    1040:	69735f00 	ldmdbvs	r3!, {r8, r9, sl, fp, ip, lr}^
    1044:	75006e67 	strvc	r6, [r0, #-3687]	; 0xe67
    1048:	5f747261 	svcpl	0x00747261
    104c:	5f6e6163 	svcpl	0x006e6163
    1050:	63747570 	cmnvs	r4, #112, 10	; 0x1c000000
    1054:	6c665f00 	stclvs	15, cr5, [r6], #-0
    1058:	5f6b636f 	svcpl	0x006b636f
    105c:	735f0074 	cmpvc	pc, #116	; 0x74
    1060:	72656474 	rsbvc	r6, r5, #116, 8	; 0x74000000
    1064:	425f0072 	subsmi	r0, pc, #114	; 0x72
    1068:	6e696769 	cdpvs	7, 6, cr6, cr9, cr9, {3}
    106c:	675f0074 			; <UNDEFINED> instruction: 0x675f0074
    1070:	616d6d61 	cmnvs	sp, r1, ror #26
    1074:	6769735f 			; <UNDEFINED> instruction: 0x6769735f
    1078:	6d61676e 	stclvs	7, cr6, [r1, #-440]!	; 0xfffffe48
    107c:	65725f00 	ldrbvs	r5, [r2, #-3840]!	; 0xf00
    1080:	746c7573 	strbtvc	r7, [ip], #-1395	; 0x573
    1084:	5f006b5f 	svcpl	0x00006b5f
    1088:	006d745f 	rsbeq	r7, sp, pc, asr r4
    108c:	63775f5f 	cmnvs	r7, #380	; 0x17c
    1090:	75006268 	strvc	r6, [r0, #-616]	; 0x268
    1094:	5f747261 	svcpl	0x00747261
    1098:	63746567 	cmnvs	r4, #432013312	; 0x19c00000
    109c:	74735f00 	ldrbtvc	r5, [r3], #-3840	; 0xf00
    10a0:	74756f64 	ldrbtvc	r6, [r5], #-3940	; 0xf64
    10a4:	76635f00 	strbtvc	r5, [r3], -r0, lsl #30
    10a8:	6e656c74 	mcrvs	12, 3, r6, cr5, cr4, {3}
    10ac:	69665f00 	stmdbvs	r6!, {r8, r9, sl, fp, ip, lr}^
    10b0:	5f00656c 	svcpl	0x0000656c
    10b4:	626f696e 	rsbvs	r6, pc, #1802240	; 0x1b8000
    10b8:	615f0073 	cmpvs	pc, r3, ror r0	; <UNPREDICTABLE>
    10bc:	69786574 	ldmdbvs	r8!, {r2, r4, r5, r6, r8, sl, sp, lr}^
    10c0:	5f003074 	svcpl	0x00003074
    10c4:	6e676973 	mcrvs	9, 3, r6, cr7, cr3, {3}
    10c8:	625f6c61 	subsvs	r6, pc, #24832	; 0x6100
    10cc:	5f006675 	svcpl	0x00006675
    10d0:	74637361 	strbtvc	r7, [r3], #-865	; 0x361
    10d4:	5f656d69 	svcpl	0x00656d69
    10d8:	00667562 	rsbeq	r7, r6, r2, ror #10
    10dc:	7365725f 	cmnvc	r5, #-268435451	; 0xf0000005
    10e0:	00746c75 	rsbseq	r6, r4, r5, ror ip
    10e4:	63775f5f 	cmnvs	r7, #380	; 0x17c
    10e8:	50470068 	subpl	r0, r7, r8, rrx
    10ec:	465f4f49 	ldrbmi	r4, [pc], -r9, asr #30
    10f0:	5f434e55 	svcpl	0x00434e55
    10f4:	32544c41 	subscc	r4, r4, #16640	; 0x4100
    10f8:	6e697700 	cdpvs	7, 6, cr7, cr9, cr0, {0}
    10fc:	00745f74 	rsbseq	r5, r4, r4, ror pc
    1100:	616c665f 	cmnvs	ip, pc, asr r6
    1104:	00327367 	eorseq	r7, r2, r7, ror #6
    1108:	6d745f5f 	ldclvs	15, cr5, [r4, #-380]!	; 0xfffffe84
    110c:	6165795f 	cmnvs	r5, pc, asr r9
    1110:	6f5f0072 	svcvs	0x005f0072
    1114:	65736666 	ldrbvs	r6, [r3, #-1638]!	; 0x666
    1118:	70670074 	rsbvc	r0, r7, r4, ror r0
    111c:	735f6f69 	cmpvc	pc, #420	; 0x1a4
    1120:	665f7465 	ldrbvs	r7, [pc], -r5, ror #8
    1124:	74636e75 	strbtvc	r6, [r3], #-3701	; 0xe75
    1128:	006e6f69 	rsbeq	r6, lr, r9, ror #30
    112c:	78656e5f 	stmdavc	r5!, {r0, r1, r2, r3, r4, r6, r9, sl, fp, sp, lr}^
    1130:	5f006674 	svcpl	0x00006674
    1134:	5f6d745f 	svcpl	0x006d745f
    1138:	006e6f6d 	rsbeq	r6, lr, sp, ror #30
    113c:	6574615f 	ldrbvs	r6, [r4, #-351]!	; 0x15f
    1140:	00746978 	rsbseq	r6, r4, r8, ror r9
    1144:	64735f5f 	ldrbtvs	r5, [r3], #-3935	; 0xf5f
    1148:	6e696469 	cdpvs	4, 6, cr6, cr9, cr9, {3}
    114c:	5f007469 	svcpl	0x00007469
    1150:	5f66666f 	svcpl	0x0066666f
    1154:	61750074 	cmnvs	r5, r4, ror r0
    1158:	5f007472 	svcpl	0x00007472
    115c:	65657266 	strbvs	r7, [r5, #-614]!	; 0x266
    1160:	7473696c 	ldrbtvc	r6, [r3], #-2412	; 0x96c
    1164:	4f4c5f00 	svcmi	0x004c5f00
    1168:	525f4b43 	subspl	r4, pc, #68608	; 0x10c00
    116c:	52554345 	subspl	r4, r5, #335544321	; 0x14000001
    1170:	45564953 	ldrbmi	r4, [r6, #-2387]	; 0x953
    1174:	5f00545f 	svcpl	0x0000545f
    1178:	0077656e 	rsbseq	r6, r7, lr, ror #10
    117c:	655f685f 	ldrbvs	r6, [pc, #-2143]	; 925 <__code_start__-0x76db>
    1180:	6f6e7272 	svcvs	0x006e7272
    1184:	745f5f00 	ldrbvc	r5, [pc], #-3840	; 118c <__code_start__-0x6e74>
    1188:	64795f6d 	ldrbtvs	r5, [r9], #-3949	; 0xf6d
    118c:	5f007961 	svcpl	0x00007961
    1190:	7562735f 	strbvc	r7, [r2, #-863]!	; 0x35f
    1194:	695f0066 	ldmdbvs	pc, {r1, r2, r5, r6}^	; <UNPREDICTABLE>
    1198:	0073626f 	rsbseq	r6, r3, pc, ror #4
    119c:	49465f5f 	stmdbmi	r6, {r0, r1, r2, r3, r4, r6, r8, r9, sl, fp, ip, lr}^
    11a0:	5f00454c 	svcpl	0x0000454c
    11a4:	7473626d 	ldrbtvc	r6, [r3], #-621	; 0x26d
    11a8:	5f657461 	svcpl	0x00657461
    11ac:	5f5f0074 	svcpl	0x005f0074
    11b0:	4c494673 	mcrrmi	6, 7, r4, r9, cr3
    11b4:	6d5f0045 	ldclvs	0, cr0, [pc, #-276]	; 10a8 <__code_start__-0x6f58>
    11b8:	61747362 	cmnvs	r4, r2, ror #6
    11bc:	5f006574 	svcpl	0x00006574
    11c0:	646e6172 	strbtvs	r6, [lr], #-370	; 0x172
    11c4:	78656e5f 	stmdavc	r5!, {r0, r1, r2, r3, r4, r6, r9, sl, fp, sp, lr}^
    11c8:	6d5f0074 	ldclvs	0, cr0, [pc, #-464]	; 1000 <__code_start__-0x7000>
    11cc:	6e656c62 	cdpvs	12, 6, cr6, cr5, cr2, {3}
    11d0:	6174735f 	cmnvs	r4, pc, asr r3
    11d4:	5f006574 	svcpl	0x00006574
    11d8:	00636e69 	rsbeq	r6, r3, r9, ror #28
    11dc:	646e695f 	strbtvs	r6, [lr], #-2399	; 0x95f
    11e0:	75635f00 	strbvc	r5, [r3, #-3840]!	; 0xf00
    11e4:	6e657272 	mcrvs	2, 3, r7, cr5, cr2, {3}
    11e8:	6f6c5f74 	svcvs	0x006c5f74
    11ec:	656c6163 	strbvs	r6, [ip, #-355]!	; 0x163
    11f0:	635f5f00 	cmpvs	pc, #0, 30
    11f4:	6e61656c 	cdpvs	5, 6, cr6, cr1, cr12, {3}
    11f8:	5f007075 	svcpl	0x00007075
    11fc:	7778616d 	ldrbvc	r6, [r8, -sp, ror #2]!
    1200:	5f007364 	svcpl	0x00007364
    1204:	6e656572 	mcrvs	5, 3, r6, cr5, cr2, {3}
    1208:	735f0074 	cmpvc	pc, #116	; 0x74
    120c:	00646565 	rsbeq	r6, r4, r5, ror #10
    1210:	6f635f5f 	svcvs	0x00635f5f
    1214:	00746e75 	rsbseq	r6, r4, r5, ror lr
    1218:	61765f5f 	cmnvs	r6, pc, asr pc
    121c:	0065756c 	rsbeq	r7, r5, ip, ror #10
    1220:	6565735f 	strbvs	r7, [r5, #-863]!	; 0x35f
    1224:	6162006b 	cmnvs	r2, fp, rrx
    1228:	5f006475 	svcpl	0x00006475
    122c:	736f7066 	cmnvc	pc, #102	; 0x66
    1230:	5f00745f 	svcpl	0x0000745f
    1234:	5f6d745f 	svcpl	0x006d745f
    1238:	006e696d 	rsbeq	r6, lr, sp, ror #18
    123c:	61726373 	cmnvs	r2, r3, ror r3
    1240:	00686374 	rsbeq	r6, r8, r4, ror r3
    1244:	6c756d5f 	ldclvs	13, cr6, [r5], #-380	; 0xfffffe84
    1248:	75700074 	ldrbvc	r0, [r0, #-116]!	; 0x74
    124c:	00323374 	eorseq	r3, r2, r4, ror r3
    1250:	20554e47 	subscs	r4, r5, r7, asr #28
    1254:	20393943 	eorscs	r3, r9, r3, asr #18
    1258:	2e332e36 	mrccs	14, 1, r2, cr3, cr6, {1}
    125c:	30322031 	eorscc	r2, r2, r1, lsr r0
    1260:	36303731 			; <UNDEFINED> instruction: 0x36303731
    1264:	2d203032 	stccs	0, cr3, [r0, #-200]!	; 0xffffff38
    1268:	7570636d 	ldrbvc	r6, [r0, #-877]!	; 0x36d
    126c:	6d72613d 	ldfvse	f6, [r2, #-244]!	; 0xffffff0c
    1270:	36373131 			; <UNDEFINED> instruction: 0x36373131
    1274:	2d667a6a 	vstmdbcs	r6!, {s15-s120}
    1278:	6d2d2073 	stcvs	0, cr2, [sp, #-460]!	; 0xfffffe34
    127c:	656e7574 	strbvs	r7, [lr, #-1396]!	; 0x574
    1280:	6d72613d 	ldfvse	f6, [r2, #-244]!	; 0xffffff0c
    1284:	36373131 			; <UNDEFINED> instruction: 0x36373131
    1288:	2d667a6a 	vstmdbcs	r6!, {s15-s120}
    128c:	672d2073 			; <UNDEFINED> instruction: 0x672d2073
    1290:	20626467 	rsbcs	r6, r2, r7, ror #8
    1294:	20674f2d 	rsbcs	r4, r7, sp, lsr #30
    1298:	6474732d 	ldrbtvs	r7, [r4], #-813	; 0x32d
    129c:	756e673d 	strbvc	r6, [lr, #-1853]!	; 0x73d
    12a0:	2d203939 	stccs	9, cr3, [r0, #-228]!	; 0xffffff1c
    12a4:	65726666 	ldrbvs	r6, [r2, #-1638]!	; 0x666
    12a8:	61747365 	cmnvs	r4, r5, ror #6
    12ac:	6e69646e 	cdpvs	4, 6, cr6, cr9, cr14, {3}
    12b0:	735f0067 	cmpvc	pc, #103	; 0x67
    12b4:	6f747274 	svcvs	0x00747274
    12b8:	616c5f6b 	cmnvs	ip, fp, ror #30
    12bc:	5f007473 	svcpl	0x00007473
    12c0:	79746e66 	ldmdbvc	r4!, {r1, r2, r5, r6, r9, sl, fp, sp, lr}^
    12c4:	00736570 	rsbseq	r6, r3, r0, ror r5
    12c8:	6464615f 	strbtvs	r6, [r4], #-351	; 0x15f
    12cc:	555f5f00 	ldrbpl	r5, [pc, #-3840]	; 3d4 <__code_start__-0x7c2c>
    12d0:	676e6f4c 	strbvs	r6, [lr, -ip, asr #30]!
    12d4:	65675f00 	strbvs	r5, [r7, #-3840]!	; 0xf00
    12d8:	74616474 	strbtvc	r6, [r1], #-1140	; 0x474
    12dc:	72655f65 	rsbvc	r5, r5, #404	; 0x194
    12e0:	675f0072 			; <UNDEFINED> instruction: 0x675f0072
    12e4:	61626f6c 	cmnvs	r2, ip, ror #30
    12e8:	6d695f6c 	stclvs	15, cr5, [r9, #-432]!	; 0xfffffe50
    12ec:	65727570 	ldrbvs	r7, [r2, #-1392]!	; 0x570
    12f0:	7274705f 	rsbsvc	r7, r4, #95	; 0x5f
    12f4:	75635f00 	strbvc	r5, [r3, #-3840]!	; 0xf00
    12f8:	6e657272 	mcrvs	2, 3, r7, cr5, cr2, {3}
    12fc:	61635f74 	smcvs	13812	; 0x35f4
    1300:	6f676574 	svcvs	0x00676574
    1304:	5f007972 	svcpl	0x00007972
    1308:	73756e75 	cmnvc	r5, #1872	; 0x750
    130c:	725f6465 	subsvc	r6, pc, #1694498816	; 0x65000000
    1310:	00646e61 	rsbeq	r6, r4, r1, ror #28
    1314:	7364775f 	cmnvc	r4, #24903680	; 0x17c0000
    1318:	745f5f00 	ldrbvc	r5, [pc], #-3840	; 1320 <__code_start__-0x6ce0>
    131c:	64775f6d 	ldrbtvs	r5, [r7], #-3949	; 0xf6d
    1320:	5f007961 	svcpl	0x00007961
    1324:	65756c67 	ldrbvs	r6, [r5, #-3175]!	; 0xc67
    1328:	49504700 	ldmdbmi	r0, {r8, r9, sl, lr}^
    132c:	55465f4f 	strbpl	r5, [r6, #-3919]	; 0xf4f
    1330:	4f5f434e 	svcmi	0x005f434e
    1334:	55505455 	ldrbpl	r5, [r0, #-1109]	; 0x455
    1338:	6e5f0054 	mrcvs	0, 2, r0, cr15, cr4, {2}
    133c:	6c6c616d 	stfvse	f6, [ip], #-436	; 0xfffffe4c
    1340:	5f00636f 	svcpl	0x0000636f
    1344:	6134366c 	teqvs	r4, ip, ror #12
    1348:	6675625f 			; <UNDEFINED> instruction: 0x6675625f
    134c:	74656700 	strbtvc	r6, [r5], #-1792	; 0x700
    1350:	75003233 	strvc	r3, [r0, #-563]	; 0x233
    1354:	5f747261 	svcpl	0x00747261
    1358:	5f6e6163 	svcpl	0x006e6163
    135c:	63746567 	cmnvs	r4, #432013312	; 0x19c00000
    1360:	69735f00 	ldmdbvs	r3!, {r8, r9, sl, fp, ip, lr}^
    1364:	75665f67 	strbvc	r5, [r6, #-3943]!	; 0xf67
    1368:	6f00636e 	svcvs	0x0000636e
    136c:	6e695f72 	mcrvs	15, 3, r5, cr9, cr2, {3}
    1370:	75003233 	strvc	r3, [r0, #-563]	; 0x233
    1374:	5f747261 	svcpl	0x00747261
    1378:	5f736168 	svcpl	0x00736168
    137c:	61746164 	cmnvs	r4, r4, ror #2
    1380:	49504700 	ldmdbmi	r0, {r8, r9, sl, lr}^
    1384:	55465f4f 	strbpl	r5, [r6, #-3919]	; 0xf4f
    1388:	415f434e 	cmpmi	pc, lr, asr #6
    138c:	0030544c 	eorseq	r5, r0, ip, asr #8
    1390:	75626e5f 	strbvc	r6, [r2, #-3679]!	; 0xe5f
    1394:	755f0066 	ldrbvc	r0, [pc, #-102]	; 1336 <__code_start__-0x6cca>
    1398:	6573756e 	ldrbvs	r7, [r3, #-1390]!	; 0x56e
    139c:	50470064 	subpl	r0, r7, r4, rrx
    13a0:	465f4f49 	ldrbmi	r4, [pc], -r9, asr #30
    13a4:	5f434e55 	svcpl	0x00434e55
    13a8:	33544c41 	cmpcc	r4, #16640	; 0x4100
    13ac:	49504700 	ldmdbmi	r0, {r8, r9, sl, lr}^
    13b0:	55465f4f 	strbpl	r5, [r6, #-3919]	; 0xf4f
    13b4:	415f434e 	cmpmi	pc, lr, asr #6
    13b8:	0034544c 	eorseq	r5, r4, ip, asr #8
    13bc:	4f495047 	svcmi	0x00495047
    13c0:	4e55465f 	mrcmi	6, 2, r4, cr5, cr15, {2}
    13c4:	4c415f43 	mcrrmi	15, 4, r5, r1, cr3
    13c8:	5f003554 	svcpl	0x00003554
    13cc:	5f6d745f 	svcpl	0x006d745f
    13d0:	73647369 	cmnvc	r4, #-1543503871	; 0xa4000001
    13d4:	6c5f0074 	mrrcvs	0, 7, r0, pc, cr4	; <UNPREDICTABLE>
    13d8:	6c61636f 	stclvs	3, cr6, [r1], #-444	; 0xfffffe44
    13dc:	656d6974 	strbvs	r6, [sp, #-2420]!	; 0x974
    13e0:	6675625f 			; <UNDEFINED> instruction: 0x6675625f
    13e4:	6c635f00 	stclvs	15, cr5, [r3], #-0
    13e8:	0065736f 	rsbeq	r7, r5, pc, ror #6
    13ec:	3834725f 	ldmdacc	r4!, {r0, r1, r2, r3, r4, r6, r9, ip, sp, lr}
    13f0:	626d5f00 	rsbvs	r5, sp, #0, 30
    13f4:	63776f74 	cmnvs	r7, #116, 30	; 0x1d0
    13f8:	6174735f 	cmnvs	r4, pc, asr r3
    13fc:	5f006574 	svcpl	0x00006574
    1400:	00733570 	rsbseq	r3, r3, r0, ror r5
    1404:	6d745f5f 	ldclvs	15, cr5, [r4, #-380]!	; 0xfffffe84
    1408:	61646d5f 	cmnvs	r4, pc, asr sp
    140c:	70670079 	rsbvc	r0, r7, r9, ror r0
    1410:	735f6f69 	cmpvc	pc, #420	; 0x1a4
    1414:	6f5f7465 	svcvs	0x005f7465
    1418:	62006666 	andvs	r6, r0, #106954752	; 0x6600000
    141c:	006b6e61 	rsbeq	r6, fp, r1, ror #28
    1420:	6f697067 	svcvs	0x00697067
    1424:	6700632e 	strvs	r6, [r0, -lr, lsr #6]
    1428:	5f6f6970 	svcpl	0x006f6970
    142c:	64616572 	strbtvs	r6, [r1], #-1394	; 0x572
    1430:	69706700 	ldmdbvs	r0!, {r8, r9, sl, sp, lr}^
    1434:	65735f6f 	ldrbvs	r5, [r3, #-3951]!	; 0xf6f
    1438:	756f5f74 	strbvc	r5, [pc, #-3956]!	; 4cc <__code_start__-0x7b34>
    143c:	74757074 	ldrbtvc	r7, [r5], #-116	; 0x74
    1440:	69706700 	ldmdbvs	r0!, {r8, r9, sl, sp, lr}^
    1444:	72775f6f 	rsbsvc	r5, r7, #444	; 0x1bc
    1448:	00657469 	rsbeq	r7, r5, r9, ror #8
    144c:	6f697067 	svcvs	0x00697067
    1450:	7465735f 	strbtvc	r7, [r5], #-863	; 0x35f
    1454:	70670030 	rsbvc	r0, r7, r0, lsr r0
    1458:	6c5f6f69 	mrrcvs	15, 6, r6, pc, cr9	; <UNPREDICTABLE>
    145c:	00307665 	eorseq	r7, r0, r5, ror #12
    1460:	6f697067 	svcvs	0x00697067
    1464:	7465735f 	strbtvc	r7, [r5], #-863	; 0x35f
    1468:	706e695f 	rsbvc	r6, lr, pc, asr r9
    146c:	67007475 	smlsdxvs	r0, r5, r4, r7
    1470:	5f6f6970 	svcpl	0x006f6970
    1474:	5f746573 	svcpl	0x00746573
    1478:	67006e6f 	strvs	r6, [r0, -pc, ror #28]
    147c:	5f6f6970 	svcpl	0x006f6970
    1480:	636e7566 	cmnvs	lr, #427819008	; 0x19800000
    1484:	6700745f 	smlsdvs	r0, pc, r4, r7	; <UNPREDICTABLE>
    1488:	5f6f6970 	svcpl	0x006f6970
    148c:	30726c63 	rsbscc	r6, r2, r3, ror #24
    1490:	616d6b00 	cmnvs	sp, r0, lsl #22
    1494:	636f6c6c 	cmnvs	pc, #108, 24	; 0x6c00
    1498:	6b00632e 	blvs	1a158 <__bss_end__+0xd730>
    149c:	6c6c616d 	stfvse	f6, [ip], #-436	; 0xfffffe4c
    14a0:	695f636f 	ldmdbvs	pc, {r0, r1, r2, r3, r5, r6, r8, r9, sp, lr}^	; <UNPREDICTABLE>
    14a4:	0074696e 	rsbseq	r6, r4, lr, ror #18
    14a8:	62756f64 	rsbsvs	r6, r5, #100, 30	; 0x190
    14ac:	6b00656c 	blvs	1aa64 <__bss_end__+0xe03c>
    14b0:	65657266 	strbvs	r7, [r5, #-614]!	; 0x266
    14b4:	6c6c615f 	stfvse	f6, [ip], #-380	; 0xfffffe84
    14b8:	616d6b00 	cmnvs	sp, r0, lsl #22
    14bc:	636f6c6c 	cmnvs	pc, #108, 24	; 0x6c00
    14c0:	696e695f 	stmdbvs	lr!, {r0, r1, r2, r3, r4, r6, r8, fp, sp, lr}^
    14c4:	65735f74 	ldrbvs	r5, [r3, #-3956]!	; 0xf74
    14c8:	74735f74 	ldrbtvc	r5, [r3], #-3956	; 0xf74
    14cc:	00747261 	rsbseq	r7, r4, r1, ror #4
    14d0:	6572666b 	ldrbvs	r6, [r2, #-1643]!	; 0x66b
    14d4:	666b0065 	strbtvs	r0, [fp], -r5, rrx
    14d8:	5f656572 	svcpl	0x00656572
    14dc:	65746661 	ldrbvs	r6, [r4, #-1633]!	; 0x661
    14e0:	6d6b0072 	stclvs	0, cr0, [fp, #-456]!	; 0xfffffe38
    14e4:	6f6c6c61 	svcvs	0x006c6c61
    14e8:	65685f63 	strbvs	r5, [r8, #-3939]!	; 0xf63
    14ec:	705f7061 	subsvc	r7, pc, r1, rrx
    14f0:	5f007274 	svcpl	0x00007274
    14f4:	6165685f 	cmnvs	r5, pc, asr r8
    14f8:	74735f70 	ldrbtvc	r5, [r3], #-3952	; 0xf70
    14fc:	5f747261 	svcpl	0x00747261
    1500:	6d6b005f 	stclvs	0, cr0, [fp, #-380]!	; 0xfffffe84
    1504:	6f6c6c61 	svcvs	0x006c6c61
    1508:	65685f63 	strbvs	r5, [r8, #-3939]!	; 0xf63
    150c:	735f7061 	cmpvc	pc, #97	; 0x61
    1510:	74726174 	ldrbtvc	r6, [r2], #-372	; 0x174
    1514:	61656800 	cmnvs	r5, r0, lsl #16
    1518:	6d6b0070 	stclvs	0, cr0, [fp, #-448]!	; 0xfffffe40
    151c:	6f6c6c61 	svcvs	0x006c6c61
    1520:	65685f63 	strbvs	r5, [r8, #-3939]!	; 0xf63
    1524:	655f7061 	ldrbvs	r7, [pc, #-97]	; 14cb <__code_start__-0x6b35>
    1528:	6b00646e 	blvs	1a6e8 <__bss_end__+0xdcc0>
    152c:	6c6c616d 	stfvse	f6, [ip], #-436	; 0xfffffe4c
    1530:	Address 0x0000000000001530 is out of bounds.


Disassembly of section .debug_frame:

00000000 <.debug_frame>:
   0:	0000000c 	andeq	r0, r0, ip
   4:	ffffffff 			; <UNDEFINED> instruction: 0xffffffff
   8:	7c020001 	stcvc	0, cr0, [r2], {1}
   c:	000d0c0e 	andeq	r0, sp, lr, lsl #24
  10:	00000018 	andeq	r0, r0, r8, lsl r0
  14:	00000000 	andeq	r0, r0, r0
  18:	00008020 	andeq	r8, r0, r0, lsr #32
  1c:	00000068 	andeq	r0, r0, r8, rrx
  20:	84080e42 	strhi	r0, [r8], #-3650	; 0xe42
  24:	42018e02 	andmi	r8, r1, #2, 28
  28:	0000100e 	andeq	r1, r0, lr
  2c:	00000018 	andeq	r0, r0, r8, lsl r0
  30:	00000000 	andeq	r0, r0, r0
  34:	00008088 	andeq	r8, r0, r8, lsl #1
  38:	0000006c 	andeq	r0, r0, ip, rrx
  3c:	84080e42 	strhi	r0, [r8], #-3650	; 0xe42
  40:	42018e02 	andmi	r8, r1, #2, 28
  44:	0000100e 	andeq	r1, r0, lr
  48:	00000014 	andeq	r0, r0, r4, lsl r0
  4c:	00000000 	andeq	r0, r0, r0
  50:	000080f4 	strdeq	r8, [r0], -r4
  54:	00000144 	andeq	r0, r0, r4, asr #2
  58:	8e040e42 	cdphi	14, 0, cr0, cr4, cr2, {2}
  5c:	100e4201 	andne	r4, lr, r1, lsl #4
  60:	0000000c 	andeq	r0, r0, ip
  64:	ffffffff 			; <UNDEFINED> instruction: 0xffffffff
  68:	7c020001 	stcvc	0, cr0, [r2], {1}
  6c:	000d0c0e 	andeq	r0, sp, lr, lsl #24
  70:	00000014 	andeq	r0, r0, r4, lsl r0
  74:	00000060 	andeq	r0, r0, r0, rrx
  78:	00008374 	andeq	r8, r0, r4, ror r3
  7c:	00000010 	andeq	r0, r0, r0, lsl r0
  80:	83080e42 	movwhi	r0, #36418	; 0x8e42
  84:	00018e02 	andeq	r8, r1, r2, lsl #28
  88:	00000014 	andeq	r0, r0, r4, lsl r0
  8c:	00000060 	andeq	r0, r0, r0, rrx
  90:	00008384 	andeq	r8, r0, r4, lsl #7
  94:	00000090 	muleq	r0, r0, r0
  98:	8e040e42 	cdphi	14, 0, cr0, cr4, cr2, {2}
  9c:	100e4201 	andne	r4, lr, r1, lsl #4
  a0:	00000020 	andeq	r0, r0, r0, lsr #32
  a4:	00000060 	andeq	r0, r0, r0, rrx
  a8:	00008414 	andeq	r8, r0, r4, lsl r4
  ac:	00000098 	muleq	r0, r8, r0
  b0:	84180e42 	ldrhi	r0, [r8], #-3650	; 0xe42
  b4:	86058506 	strhi	r8, [r5], -r6, lsl #10
  b8:	88038704 	stmdahi	r3, {r2, r8, r9, sl, pc}
  bc:	42018e02 	andmi	r8, r1, #2, 28
  c0:	0000200e 	andeq	r2, r0, lr
  c4:	00000014 	andeq	r0, r0, r4, lsl r0
  c8:	00000060 	andeq	r0, r0, r0, rrx
  cc:	000084ac 	andeq	r8, r0, ip, lsr #9
  d0:	00000010 	andeq	r0, r0, r0, lsl r0
  d4:	83080e42 	movwhi	r0, #36418	; 0x8e42
  d8:	00018e02 	andeq	r8, r1, r2, lsl #28
  dc:	00000014 	andeq	r0, r0, r4, lsl r0
  e0:	00000060 	andeq	r0, r0, r0, rrx
  e4:	000084bc 			; <UNDEFINED> instruction: 0x000084bc
  e8:	00000010 	andeq	r0, r0, r0, lsl r0
  ec:	83080e42 	movwhi	r0, #36418	; 0x8e42
  f0:	00018e02 	andeq	r8, r1, r2, lsl #28
  f4:	00000014 	andeq	r0, r0, r4, lsl r0
  f8:	00000060 	andeq	r0, r0, r0, rrx
  fc:	000084cc 	andeq	r8, r0, ip, asr #9
 100:	00000010 	andeq	r0, r0, r0, lsl r0
 104:	83080e42 	movwhi	r0, #36418	; 0x8e42
 108:	00018e02 	andeq	r8, r1, r2, lsl #28
 10c:	00000014 	andeq	r0, r0, r4, lsl r0
 110:	00000060 	andeq	r0, r0, r0, rrx
 114:	000084dc 	ldrdeq	r8, [r0], -ip
 118:	00000098 	muleq	r0, r8, r0
 11c:	8e040e42 	cdphi	14, 0, cr0, cr4, cr2, {2}
 120:	100e4201 	andne	r4, lr, r1, lsl #4
 124:	00000020 	andeq	r0, r0, r0, lsr #32
 128:	00000060 	andeq	r0, r0, r0, rrx
 12c:	00008574 	andeq	r8, r0, r4, ror r5
 130:	00000194 	muleq	r0, r4, r1
 134:	841c0e42 	ldrhi	r0, [ip], #-3650	; 0xe42
 138:	86068507 	strhi	r8, [r6], -r7, lsl #10
 13c:	88048705 	stmdahi	r4, {r0, r2, r8, r9, sl, pc}
 140:	8e028903 	cdphi	9, 0, cr8, cr2, cr3, {0}
 144:	280e4201 	stmdacs	lr, {r0, r9, lr}
 148:	00000020 	andeq	r0, r0, r0, lsr #32
 14c:	00000060 	andeq	r0, r0, r0, rrx
 150:	00008708 	andeq	r8, r0, r8, lsl #14
 154:	000000f0 	strdeq	r0, [r0], -r0	; <UNPREDICTABLE>
 158:	841c0e42 	ldrhi	r0, [ip], #-3650	; 0xe42
 15c:	86068507 	strhi	r8, [r6], -r7, lsl #10
 160:	88048705 	stmdahi	r4, {r0, r2, r8, r9, sl, pc}
 164:	8e028903 	cdphi	9, 0, cr8, cr2, cr3, {0}
 168:	280e4201 	stmdacs	lr, {r0, r9, lr}
 16c:	00000018 	andeq	r0, r0, r8, lsl r0
 170:	00000060 	andeq	r0, r0, r0, rrx
 174:	000087f8 	strdeq	r8, [r0], -r8	; <UNPREDICTABLE>
 178:	00000094 	muleq	r0, r4, r0
 17c:	84080e42 	strhi	r0, [r8], #-3650	; 0xe42
 180:	42018e02 	andmi	r8, r1, #2, 28
 184:	0000100e 	andeq	r1, r0, lr
 188:	00000014 	andeq	r0, r0, r4, lsl r0
 18c:	00000060 	andeq	r0, r0, r0, rrx
 190:	0000888c 	andeq	r8, r0, ip, lsl #17
 194:	00000090 	muleq	r0, r0, r0
 198:	8e040e42 	cdphi	14, 0, cr0, cr4, cr2, {2}
 19c:	100e4201 	andne	r4, lr, r1, lsl #4
 1a0:	00000014 	andeq	r0, r0, r4, lsl r0
 1a4:	00000060 	andeq	r0, r0, r0, rrx
 1a8:	0000891c 	andeq	r8, r0, ip, lsl r9
 1ac:	00000090 	muleq	r0, r0, r0
 1b0:	8e040e42 	cdphi	14, 0, cr0, cr4, cr2, {2}
 1b4:	100e4201 	andne	r4, lr, r1, lsl #4
 1b8:	00000014 	andeq	r0, r0, r4, lsl r0
 1bc:	00000060 	andeq	r0, r0, r0, rrx
 1c0:	000089ac 	andeq	r8, r0, ip, lsr #19
 1c4:	0000000c 	andeq	r0, r0, ip
 1c8:	83080e42 	movwhi	r0, #36418	; 0x8e42
 1cc:	00018e02 	andeq	r8, r1, r2, lsl #28
 1d0:	00000014 	andeq	r0, r0, r4, lsl r0
 1d4:	00000060 	andeq	r0, r0, r0, rrx
 1d8:	000089b8 			; <UNDEFINED> instruction: 0x000089b8
 1dc:	00000080 	andeq	r0, r0, r0, lsl #1
 1e0:	8e040e42 	cdphi	14, 0, cr0, cr4, cr2, {2}
 1e4:	100e4201 	andne	r4, lr, r1, lsl #4
 1e8:	00000014 	andeq	r0, r0, r4, lsl r0
 1ec:	00000060 	andeq	r0, r0, r0, rrx
 1f0:	00008a38 	andeq	r8, r0, r8, lsr sl
 1f4:	00000058 	andeq	r0, r0, r8, asr r0
 1f8:	8e040e42 	cdphi	14, 0, cr0, cr4, cr2, {2}
 1fc:	100e4201 	andne	r4, lr, r1, lsl #4
 200:	00000014 	andeq	r0, r0, r4, lsl r0
 204:	00000060 	andeq	r0, r0, r0, rrx
 208:	00008a90 	muleq	r0, r0, sl
 20c:	00000050 	andeq	r0, r0, r0, asr r0
 210:	8e040e42 	cdphi	14, 0, cr0, cr4, cr2, {2}
 214:	100e4201 	andne	r4, lr, r1, lsl #4
 218:	00000014 	andeq	r0, r0, r4, lsl r0
 21c:	00000060 	andeq	r0, r0, r0, rrx
 220:	00008ae0 	andeq	r8, r0, r0, ror #21
 224:	00000058 	andeq	r0, r0, r8, asr r0
 228:	8e040e42 	cdphi	14, 0, cr0, cr4, cr2, {2}
 22c:	100e4201 	andne	r4, lr, r1, lsl #4
 230:	0000000c 	andeq	r0, r0, ip
 234:	00000060 	andeq	r0, r0, r0, rrx
 238:	00008b38 	andeq	r8, r0, r8, lsr fp
 23c:	00000008 	andeq	r0, r0, r8
 240:	00000014 	andeq	r0, r0, r4, lsl r0
 244:	00000060 	andeq	r0, r0, r0, rrx
 248:	00008b40 	andeq	r8, r0, r0, asr #22
 24c:	0000000c 	andeq	r0, r0, ip
 250:	83080e42 	movwhi	r0, #36418	; 0x8e42
 254:	00018e02 	andeq	r8, r1, r2, lsl #28
 258:	00000014 	andeq	r0, r0, r4, lsl r0
 25c:	00000060 	andeq	r0, r0, r0, rrx
 260:	00008b4c 	andeq	r8, r0, ip, asr #22
 264:	000000bc 	strheq	r0, [r0], -ip
 268:	8e040e42 	cdphi	14, 0, cr0, cr4, cr2, {2}
 26c:	100e4201 	andne	r4, lr, r1, lsl #4
 270:	00000014 	andeq	r0, r0, r4, lsl r0
 274:	00000060 	andeq	r0, r0, r0, rrx
 278:	00008c08 	andeq	r8, r0, r8, lsl #24
 27c:	00000048 	andeq	r0, r0, r8, asr #32
 280:	8e040e42 	cdphi	14, 0, cr0, cr4, cr2, {2}
 284:	100e4201 	andne	r4, lr, r1, lsl #4
 288:	0000000c 	andeq	r0, r0, ip
 28c:	ffffffff 			; <UNDEFINED> instruction: 0xffffffff
 290:	7c020001 	stcvc	0, cr0, [r2], {1}
 294:	000d0c0e 	andeq	r0, sp, lr, lsl #24
 298:	00000018 	andeq	r0, r0, r8, lsl r0
 29c:	00000288 	andeq	r0, r0, r8, lsl #5
 2a0:	00008c50 	andeq	r8, r0, r0, asr ip
 2a4:	00000034 	andeq	r0, r0, r4, lsr r0
 2a8:	83100e42 	tsthi	r0, #1056	; 0x420
 2ac:	85038404 	strhi	r8, [r3, #-1028]	; 0x404
 2b0:	00018e02 	andeq	r8, r1, r2, lsl #28
 2b4:	00000014 	andeq	r0, r0, r4, lsl r0
 2b8:	00000288 	andeq	r0, r0, r8, lsl #5
 2bc:	00008c84 	andeq	r8, r0, r4, lsl #25
 2c0:	00000028 	andeq	r0, r0, r8, lsr #32
 2c4:	83080e42 	movwhi	r0, #36418	; 0x8e42
 2c8:	00018e02 	andeq	r8, r1, r2, lsl #28
 2cc:	00000014 	andeq	r0, r0, r4, lsl r0
 2d0:	00000288 	andeq	r0, r0, r8, lsl #5
 2d4:	00008cac 	andeq	r8, r0, ip, lsr #25
 2d8:	00000008 	andeq	r0, r0, r8
 2dc:	8e040e42 	cdphi	14, 0, cr0, cr4, cr2, {2}
 2e0:	00000001 	andeq	r0, r0, r1
 2e4:	00000014 	andeq	r0, r0, r4, lsl r0
 2e8:	00000288 	andeq	r0, r0, r8, lsl #5
 2ec:	00008cb4 			; <UNDEFINED> instruction: 0x00008cb4
 2f0:	000001f8 	strdeq	r0, [r0], -r8
 2f4:	8e040e42 	cdphi	14, 0, cr0, cr4, cr2, {2}
 2f8:	100e4201 	andne	r4, lr, r1, lsl #4
 2fc:	00000014 	andeq	r0, r0, r4, lsl r0
 300:	00000288 	andeq	r0, r0, r8, lsl #5
 304:	00008eac 	andeq	r8, r0, ip, lsr #29
 308:	00000204 	andeq	r0, r0, r4, lsl #4
 30c:	84080e42 	strhi	r0, [r8], #-3650	; 0xe42
 310:	00018e02 	andeq	r8, r1, r2, lsl #28
 314:	00000014 	andeq	r0, r0, r4, lsl r0
 318:	00000288 	andeq	r0, r0, r8, lsl #5
 31c:	000090b0 	strheq	r9, [r0], -r0
 320:	00000008 	andeq	r0, r0, r8
 324:	8e040e42 	cdphi	14, 0, cr0, cr4, cr2, {2}
 328:	00000001 	andeq	r0, r0, r1
 32c:	00000014 	andeq	r0, r0, r4, lsl r0
 330:	00000288 	andeq	r0, r0, r8, lsl #5
 334:	000090b8 	strheq	r9, [r0], -r8
 338:	0000004c 	andeq	r0, r0, ip, asr #32
 33c:	84080e42 	strhi	r0, [r8], #-3650	; 0xe42
 340:	00018e02 	andeq	r8, r1, r2, lsl #28
 344:	00000014 	andeq	r0, r0, r4, lsl r0
 348:	00000288 	andeq	r0, r0, r8, lsl #5
 34c:	00009104 	andeq	r9, r0, r4, lsl #2
 350:	000001c0 	andeq	r0, r0, r0, asr #3
 354:	8e040e42 	cdphi	14, 0, cr0, cr4, cr2, {2}
 358:	100e4201 	andne	r4, lr, r1, lsl #4
 35c:	0000000c 	andeq	r0, r0, ip
 360:	00000288 	andeq	r0, r0, r8, lsl #5
 364:	000092c4 	andeq	r9, r0, r4, asr #5
 368:	00000008 	andeq	r0, r0, r8
 36c:	00000018 	andeq	r0, r0, r8, lsl r0
 370:	00000288 	andeq	r0, r0, r8, lsl #5
 374:	000092cc 	andeq	r9, r0, ip, asr #5
 378:	000000b4 	strheq	r0, [r0], -r4
 37c:	84080e42 	strhi	r0, [r8], #-3650	; 0xe42
 380:	42018e02 	andmi	r8, r1, #2, 28
 384:	0000280e 	andeq	r2, r0, lr, lsl #16
 388:	00000014 	andeq	r0, r0, r4, lsl r0
 38c:	00000288 	andeq	r0, r0, r8, lsl #5
 390:	00009380 	andeq	r9, r0, r0, lsl #7
 394:	000001d0 	ldrdeq	r0, [r0], -r0	; <UNPREDICTABLE>
 398:	84080e42 	strhi	r0, [r8], #-3650	; 0xe42
 39c:	00018e02 	andeq	r8, r1, r2, lsl #28
 3a0:	00000014 	andeq	r0, r0, r4, lsl r0
 3a4:	00000288 	andeq	r0, r0, r8, lsl #5
 3a8:	00009550 	andeq	r9, r0, r0, asr r5
 3ac:	00000014 	andeq	r0, r0, r4, lsl r0
 3b0:	83080e42 	movwhi	r0, #36418	; 0x8e42
 3b4:	00018e02 	andeq	r8, r1, r2, lsl #28
 3b8:	0000000c 	andeq	r0, r0, ip
 3bc:	ffffffff 			; <UNDEFINED> instruction: 0xffffffff
 3c0:	7c020001 	stcvc	0, cr0, [r2], {1}
 3c4:	000d0c0e 	andeq	r0, sp, lr, lsl #24
 3c8:	0000000c 	andeq	r0, r0, ip
 3cc:	000003b8 			; <UNDEFINED> instruction: 0x000003b8
 3d0:	00009564 	andeq	r9, r0, r4, ror #10
 3d4:	0000001c 	andeq	r0, r0, ip, lsl r0
 3d8:	0000000c 	andeq	r0, r0, ip
 3dc:	000003b8 			; <UNDEFINED> instruction: 0x000003b8
 3e0:	00009580 	andeq	r9, r0, r0, lsl #11
 3e4:	00000018 	andeq	r0, r0, r8, lsl r0
 3e8:	0000001c 	andeq	r0, r0, ip, lsl r0
 3ec:	000003b8 			; <UNDEFINED> instruction: 0x000003b8
 3f0:	00009598 	muleq	r0, r8, r5
 3f4:	000000f0 	strdeq	r0, [r0], -r0	; <UNPREDICTABLE>
 3f8:	84100e42 	ldrhi	r0, [r0], #-3650	; 0xe42
 3fc:	86038504 	strhi	r8, [r3], -r4, lsl #10
 400:	42018e02 	andmi	r8, r1, #2, 28
 404:	0000280e 	andeq	r2, r0, lr, lsl #16
 408:	00000018 	andeq	r0, r0, r8, lsl r0
 40c:	000003b8 			; <UNDEFINED> instruction: 0x000003b8
 410:	00009688 	andeq	r9, r0, r8, lsl #13
 414:	000000a4 	andeq	r0, r0, r4, lsr #1
 418:	84080e42 	strhi	r0, [r8], #-3650	; 0xe42
 41c:	42018e02 	andmi	r8, r1, #2, 28
 420:	0000100e 	andeq	r1, r0, lr
 424:	00000018 	andeq	r0, r0, r8, lsl r0
 428:	000003b8 			; <UNDEFINED> instruction: 0x000003b8
 42c:	0000972c 	andeq	r9, r0, ip, lsr #14
 430:	0000009c 	muleq	r0, ip, r0
 434:	840c0e42 	strhi	r0, [ip], #-3650	; 0xe42
 438:	8e028503 	cfsh32hi	mvfx8, mvfx2, #3
 43c:	180e4201 	stmdane	lr, {r0, r9, lr}
 440:	0000000c 	andeq	r0, r0, ip
 444:	000003b8 			; <UNDEFINED> instruction: 0x000003b8
 448:	000097c8 	andeq	r9, r0, r8, asr #15
 44c:	00000014 	andeq	r0, r0, r4, lsl r0
 450:	0000001c 	andeq	r0, r0, ip, lsl r0
 454:	000003b8 			; <UNDEFINED> instruction: 0x000003b8
 458:	000097dc 	ldrdeq	r9, [r0], -ip
 45c:	00000378 	andeq	r0, r0, r8, ror r3
 460:	84100e42 	ldrhi	r0, [r0], #-3650	; 0xe42
 464:	86038504 	strhi	r8, [r3], -r4, lsl #10
 468:	42018e02 	andmi	r8, r1, #2, 28
 46c:	0000180e 	andeq	r1, r0, lr, lsl #16
 470:	00000014 	andeq	r0, r0, r4, lsl r0
 474:	000003b8 			; <UNDEFINED> instruction: 0x000003b8
 478:	00009b54 	andeq	r9, r0, r4, asr fp
 47c:	00000030 	andeq	r0, r0, r0, lsr r0
 480:	83080e42 	movwhi	r0, #36418	; 0x8e42
 484:	00018e02 	andeq	r8, r1, r2, lsl #28
 488:	00000018 	andeq	r0, r0, r8, lsl r0
 48c:	000003b8 			; <UNDEFINED> instruction: 0x000003b8
 490:	00009b84 	andeq	r9, r0, r4, lsl #23
 494:	00000164 	andeq	r0, r0, r4, ror #2
 498:	84080e42 	strhi	r0, [r8], #-3650	; 0xe42
 49c:	42018e02 	andmi	r8, r1, #2, 28
 4a0:	0000100e 	andeq	r1, r0, lr
 4a4:	00000014 	andeq	r0, r0, r4, lsl r0
 4a8:	000003b8 			; <UNDEFINED> instruction: 0x000003b8
 4ac:	00009ce8 	andeq	r9, r0, r8, ror #25
 4b0:	00000090 	muleq	r0, r0, r0
 4b4:	8e040e42 	cdphi	14, 0, cr0, cr4, cr2, {2}
 4b8:	100e4201 	andne	r4, lr, r1, lsl #4
 4bc:	00000014 	andeq	r0, r0, r4, lsl r0
 4c0:	000003b8 			; <UNDEFINED> instruction: 0x000003b8
 4c4:	00009d78 	andeq	r9, r0, r8, ror sp
 4c8:	00000074 	andeq	r0, r0, r4, ror r0
 4cc:	8e040e42 	cdphi	14, 0, cr0, cr4, cr2, {2}
 4d0:	100e4201 	andne	r4, lr, r1, lsl #4
 4d4:	00000014 	andeq	r0, r0, r4, lsl r0
 4d8:	000003b8 			; <UNDEFINED> instruction: 0x000003b8
 4dc:	00009dec 	andeq	r9, r0, ip, ror #27
 4e0:	00000074 	andeq	r0, r0, r4, ror r0
 4e4:	8e040e42 	cdphi	14, 0, cr0, cr4, cr2, {2}
 4e8:	100e4201 	andne	r4, lr, r1, lsl #4
 4ec:	00000014 	andeq	r0, r0, r4, lsl r0
 4f0:	000003b8 			; <UNDEFINED> instruction: 0x000003b8
 4f4:	00009e60 	andeq	r9, r0, r0, ror #28
 4f8:	00000074 	andeq	r0, r0, r4, ror r0
 4fc:	8e040e42 	cdphi	14, 0, cr0, cr4, cr2, {2}
 500:	100e4201 	andne	r4, lr, r1, lsl #4
 504:	00000014 	andeq	r0, r0, r4, lsl r0
 508:	000003b8 			; <UNDEFINED> instruction: 0x000003b8
 50c:	00009ed4 	ldrdeq	r9, [r0], -r4
 510:	00000024 	andeq	r0, r0, r4, lsr #32
 514:	83080e42 	movwhi	r0, #36418	; 0x8e42
 518:	00018e02 	andeq	r8, r1, r2, lsl #28
 51c:	00000014 	andeq	r0, r0, r4, lsl r0
 520:	000003b8 			; <UNDEFINED> instruction: 0x000003b8
 524:	00009ef8 	strdeq	r9, [r0], -r8
 528:	00000018 	andeq	r0, r0, r8, lsl r0
 52c:	83080e42 	movwhi	r0, #36418	; 0x8e42
 530:	00018e02 	andeq	r8, r1, r2, lsl #28
 534:	00000014 	andeq	r0, r0, r4, lsl r0
 538:	000003b8 			; <UNDEFINED> instruction: 0x000003b8
 53c:	00009f10 	andeq	r9, r0, r0, lsl pc
 540:	00000060 	andeq	r0, r0, r0, rrx
 544:	8e040e42 	cdphi	14, 0, cr0, cr4, cr2, {2}
 548:	100e4201 	andne	r4, lr, r1, lsl #4
 54c:	00000014 	andeq	r0, r0, r4, lsl r0
 550:	000003b8 			; <UNDEFINED> instruction: 0x000003b8
 554:	00009f70 	andeq	r9, r0, r0, ror pc
 558:	00000060 	andeq	r0, r0, r0, rrx
 55c:	8e040e42 	cdphi	14, 0, cr0, cr4, cr2, {2}
 560:	100e4201 	andne	r4, lr, r1, lsl #4
 564:	00000014 	andeq	r0, r0, r4, lsl r0
 568:	000003b8 			; <UNDEFINED> instruction: 0x000003b8
 56c:	00009fd0 	ldrdeq	r9, [r0], -r0
 570:	0000001c 	andeq	r0, r0, ip, lsl r0
 574:	84080e42 	strhi	r0, [r8], #-3650	; 0xe42
 578:	00018e02 	andeq	r8, r1, r2, lsl #28
 57c:	0000000c 	andeq	r0, r0, ip
 580:	ffffffff 			; <UNDEFINED> instruction: 0xffffffff
 584:	7c020001 	stcvc	0, cr0, [r2], {1}
 588:	000d0c0e 	andeq	r0, sp, lr, lsl #24
 58c:	00000014 	andeq	r0, r0, r4, lsl r0
 590:	0000057c 	andeq	r0, r0, ip, ror r5
 594:	0000a380 	andeq	sl, r0, r0, lsl #7
 598:	000000f0 	strdeq	r0, [r0], -r0	; <UNPREDICTABLE>
 59c:	84040e42 	strhi	r0, [r4], #-3650	; 0xe42
 5a0:	00000001 	andeq	r0, r0, r1
 5a4:	0000000c 	andeq	r0, r0, ip
 5a8:	ffffffff 			; <UNDEFINED> instruction: 0xffffffff
 5ac:	7c020001 	stcvc	0, cr0, [r2], {1}
 5b0:	000d0c0e 	andeq	r0, sp, lr, lsl #24
 5b4:	0000000c 	andeq	r0, r0, ip
 5b8:	000005a4 	andeq	r0, r0, r4, lsr #11
 5bc:	0000a470 	andeq	sl, r0, r0, ror r4
 5c0:	00000020 	andeq	r0, r0, r0, lsr #32
 5c4:	0000000c 	andeq	r0, r0, ip
 5c8:	ffffffff 			; <UNDEFINED> instruction: 0xffffffff
 5cc:	7c020001 	stcvc	0, cr0, [r2], {1}
 5d0:	000d0c0e 	andeq	r0, sp, lr, lsl #24
 5d4:	00000024 	andeq	r0, r0, r4, lsr #32
 5d8:	000005c4 	andeq	r0, r0, r4, asr #11
 5dc:	0000a490 	muleq	r0, r0, r4
 5e0:	00000058 	andeq	r0, r0, r8, asr r0
 5e4:	80100e42 	andshi	r0, r0, r2, asr #28
 5e8:	82038104 	andhi	r8, r3, #4, 2
 5ec:	42018302 	andmi	r8, r1, #134217728	; 0x8000000
 5f0:	07841c0e 	streq	r1, [r4, lr, lsl #24]
 5f4:	058e0685 	streq	r0, [lr, #1669]	; 0x685
 5f8:	00280e42 	eoreq	r0, r8, r2, asr #28
 5fc:	0000000c 	andeq	r0, r0, ip
 600:	ffffffff 			; <UNDEFINED> instruction: 0xffffffff
 604:	7c020001 	stcvc	0, cr0, [r2], {1}
 608:	000d0c0e 	andeq	r0, sp, lr, lsl #24
 60c:	00000014 	andeq	r0, r0, r4, lsl r0
 610:	000005fc 	strdeq	r0, [r0], -ip
 614:	0000a4e8 	andeq	sl, r0, r8, ror #9
 618:	00000014 	andeq	r0, r0, r4, lsl r0
 61c:	84080e42 	strhi	r0, [r8], #-3650	; 0xe42
 620:	00018e02 	andeq	r8, r1, r2, lsl #28
 624:	0000000c 	andeq	r0, r0, ip
 628:	000005fc 	strdeq	r0, [r0], -ip
 62c:	0000a4fc 	strdeq	sl, [r0], -ip
 630:	00000018 	andeq	r0, r0, r8, lsl r0
 634:	0000000c 	andeq	r0, r0, ip
 638:	000005fc 	strdeq	r0, [r0], -ip
 63c:	0000a514 	andeq	sl, r0, r4, lsl r5
 640:	00000010 	andeq	r0, r0, r0, lsl r0
 644:	0000000c 	andeq	r0, r0, ip
 648:	ffffffff 			; <UNDEFINED> instruction: 0xffffffff
 64c:	7c020001 	stcvc	0, cr0, [r2], {1}
 650:	000d0c0e 	andeq	r0, sp, lr, lsl #24
 654:	00000018 	andeq	r0, r0, r8, lsl r0
 658:	00000644 	andeq	r0, r0, r4, asr #12
 65c:	0000a524 	andeq	sl, r0, r4, lsr #10
 660:	00000034 	andeq	r0, r0, r4, lsr r0
 664:	83100e42 	tsthi	r0, #1056	; 0x420
 668:	85038404 	strhi	r8, [r3, #-1028]	; 0x404
 66c:	00018e02 	andeq	r8, r1, r2, lsl #28
 670:	0000000c 	andeq	r0, r0, ip
 674:	ffffffff 			; <UNDEFINED> instruction: 0xffffffff
 678:	7c020001 	stcvc	0, cr0, [r2], {1}
 67c:	000d0c0e 	andeq	r0, sp, lr, lsl #24
 680:	0000000c 	andeq	r0, r0, ip
 684:	00000670 	andeq	r0, r0, r0, ror r6
 688:	0000a558 	andeq	sl, r0, r8, asr r5
 68c:	00000014 	andeq	r0, r0, r4, lsl r0
 690:	0000000c 	andeq	r0, r0, ip
 694:	00000670 	andeq	r0, r0, r0, ror r6
 698:	0000a56c 	andeq	sl, r0, ip, ror #10
 69c:	0000002c 	andeq	r0, r0, ip, lsr #32
 6a0:	0000000c 	andeq	r0, r0, ip
 6a4:	00000670 	andeq	r0, r0, r0, ror r6
 6a8:	0000a598 	muleq	r0, r8, r5
 6ac:	00000040 	andeq	r0, r0, r0, asr #32
 6b0:	00000020 	andeq	r0, r0, r0, lsr #32
 6b4:	00000670 	andeq	r0, r0, r0, ror r6
 6b8:	0000a5d8 	ldrdeq	sl, [r0], -r8
 6bc:	000001bc 			; <UNDEFINED> instruction: 0x000001bc
 6c0:	84180e42 	ldrhi	r0, [r8], #-3650	; 0xe42
 6c4:	86058506 	strhi	r8, [r5], -r6, lsl #10
 6c8:	88038704 	stmdahi	r3, {r2, r8, r9, sl, pc}
 6cc:	42018e02 	andmi	r8, r1, #2, 28
 6d0:	0000600e 	andeq	r6, r0, lr
 6d4:	00000014 	andeq	r0, r0, r4, lsl r0
 6d8:	00000670 	andeq	r0, r0, r0, ror r6
 6dc:	0000a794 	muleq	r0, r4, r7
 6e0:	00000068 	andeq	r0, r0, r8, rrx
 6e4:	8e040e42 	cdphi	14, 0, cr0, cr4, cr2, {2}
 6e8:	100e4201 	andne	r4, lr, r1, lsl #4
 6ec:	00000028 	andeq	r0, r0, r8, lsr #32
 6f0:	00000670 	andeq	r0, r0, r0, ror r6
 6f4:	0000a7fc 	strdeq	sl, [r0], -ip
 6f8:	000002d4 	ldrdeq	r0, [r0], -r4
 6fc:	84240e42 	strthi	r0, [r4], #-3650	; 0xe42
 700:	86088509 	strhi	r8, [r8], -r9, lsl #10
 704:	88068707 	stmdahi	r6, {r0, r1, r2, r8, r9, sl, pc}
 708:	8a048905 	bhi	122b24 <__bss_end__+0x1160fc>
 70c:	8e028b03 	vmlahi.f64	d8, d2, d3
 710:	b80e4201 	stmdalt	lr, {r0, r9, lr}
 714:	00000001 	andeq	r0, r0, r1
 718:	0000000c 	andeq	r0, r0, ip
 71c:	ffffffff 			; <UNDEFINED> instruction: 0xffffffff
 720:	7c020001 	stcvc	0, cr0, [r2], {1}
 724:	000d0c0e 	andeq	r0, sp, lr, lsl #24
 728:	00000014 	andeq	r0, r0, r4, lsl r0
 72c:	00000718 	andeq	r0, r0, r8, lsl r7
 730:	0000aad0 	ldrdeq	sl, [r0], -r0
 734:	0000002c 	andeq	r0, r0, ip, lsr #32
 738:	83080e42 	movwhi	r0, #36418	; 0x8e42
 73c:	00018e02 	andeq	r8, r1, r2, lsl #28
 740:	0000000c 	andeq	r0, r0, ip
 744:	ffffffff 			; <UNDEFINED> instruction: 0xffffffff
 748:	7c020001 	stcvc	0, cr0, [r2], {1}
 74c:	000d0c0e 	andeq	r0, sp, lr, lsl #24
 750:	00000014 	andeq	r0, r0, r4, lsl r0
 754:	00000740 	andeq	r0, r0, r0, asr #14
 758:	0000aafc 	strdeq	sl, [r0], -ip
 75c:	00000038 	andeq	r0, r0, r8, lsr r0
 760:	83080e42 	movwhi	r0, #36418	; 0x8e42
 764:	00018e02 	andeq	r8, r1, r2, lsl #28
 768:	0000000c 	andeq	r0, r0, ip
 76c:	ffffffff 			; <UNDEFINED> instruction: 0xffffffff
 770:	7c020001 	stcvc	0, cr0, [r2], {1}
 774:	000d0c0e 	andeq	r0, sp, lr, lsl #24
 778:	00000014 	andeq	r0, r0, r4, lsl r0
 77c:	00000768 	andeq	r0, r0, r8, ror #14
 780:	0000ab34 	andeq	sl, r0, r4, lsr fp
 784:	00000044 	andeq	r0, r0, r4, asr #32
 788:	8e040e42 	cdphi	14, 0, cr0, cr4, cr2, {2}
 78c:	100e4201 	andne	r4, lr, r1, lsl #4
 790:	0000000c 	andeq	r0, r0, ip
 794:	ffffffff 			; <UNDEFINED> instruction: 0xffffffff
 798:	7c020001 	stcvc	0, cr0, [r2], {1}
 79c:	000d0c0e 	andeq	r0, sp, lr, lsl #24
 7a0:	00000014 	andeq	r0, r0, r4, lsl r0
 7a4:	00000790 	muleq	r0, r0, r7
 7a8:	0000ab78 	andeq	sl, r0, r8, ror fp
 7ac:	00000044 	andeq	r0, r0, r4, asr #32
 7b0:	8e040e42 	cdphi	14, 0, cr0, cr4, cr2, {2}
 7b4:	100e4201 	andne	r4, lr, r1, lsl #4
 7b8:	0000000c 	andeq	r0, r0, ip
 7bc:	ffffffff 			; <UNDEFINED> instruction: 0xffffffff
 7c0:	7c020001 	stcvc	0, cr0, [r2], {1}
 7c4:	000d0c0e 	andeq	r0, sp, lr, lsl #24
 7c8:	00000014 	andeq	r0, r0, r4, lsl r0
 7cc:	000007b8 			; <UNDEFINED> instruction: 0x000007b8
 7d0:	0000abbc 			; <UNDEFINED> instruction: 0x0000abbc
 7d4:	00000044 	andeq	r0, r0, r4, asr #32
 7d8:	8e040e42 	cdphi	14, 0, cr0, cr4, cr2, {2}
 7dc:	100e4201 	andne	r4, lr, r1, lsl #4
 7e0:	0000000c 	andeq	r0, r0, ip
 7e4:	ffffffff 			; <UNDEFINED> instruction: 0xffffffff
 7e8:	7c020001 	stcvc	0, cr0, [r2], {1}
 7ec:	000d0c0e 	andeq	r0, sp, lr, lsl #24
 7f0:	00000014 	andeq	r0, r0, r4, lsl r0
 7f4:	000007e0 	andeq	r0, r0, r0, ror #15
 7f8:	0000ac00 	andeq	sl, r0, r0, lsl #24
 7fc:	00000044 	andeq	r0, r0, r4, asr #32
 800:	8e040e42 	cdphi	14, 0, cr0, cr4, cr2, {2}
 804:	100e4201 	andne	r4, lr, r1, lsl #4
 808:	0000000c 	andeq	r0, r0, ip
 80c:	ffffffff 			; <UNDEFINED> instruction: 0xffffffff
 810:	7c020001 	stcvc	0, cr0, [r2], {1}
 814:	000d0c0e 	andeq	r0, sp, lr, lsl #24
 818:	0000000c 	andeq	r0, r0, ip
 81c:	00000808 	andeq	r0, r0, r8, lsl #16
 820:	0000ac44 	andeq	sl, r0, r4, asr #24
 824:	00000004 	andeq	r0, r0, r4
 828:	0000000c 	andeq	r0, r0, ip
 82c:	00000808 	andeq	r0, r0, r8, lsl #16
 830:	0000ac48 	andeq	sl, r0, r8, asr #24
 834:	00000004 	andeq	r0, r0, r4
 838:	0000000c 	andeq	r0, r0, ip
 83c:	ffffffff 			; <UNDEFINED> instruction: 0xffffffff
 840:	7c020001 	stcvc	0, cr0, [r2], {1}
 844:	000d0c0e 	andeq	r0, sp, lr, lsl #24
 848:	00000014 	andeq	r0, r0, r4, lsl r0
 84c:	00000838 	andeq	r0, r0, r8, lsr r8
 850:	0000ac4c 	andeq	sl, r0, ip, asr #24
 854:	0000006c 	andeq	r0, r0, ip, rrx
 858:	83080e42 	movwhi	r0, #36418	; 0x8e42
 85c:	00018e02 	andeq	r8, r1, r2, lsl #28
 860:	0000000c 	andeq	r0, r0, ip
 864:	ffffffff 			; <UNDEFINED> instruction: 0xffffffff
 868:	7c020001 	stcvc	0, cr0, [r2], {1}
 86c:	000d0c0e 	andeq	r0, sp, lr, lsl #24
 870:	0000000c 	andeq	r0, r0, ip
 874:	00000860 	andeq	r0, r0, r0, ror #16
 878:	0000acb8 			; <UNDEFINED> instruction: 0x0000acb8
 87c:	00000018 	andeq	r0, r0, r8, lsl r0
 880:	0000000c 	andeq	r0, r0, ip
 884:	00000860 	andeq	r0, r0, r0, ror #16
 888:	0000acd0 	ldrdeq	sl, [r0], -r0
 88c:	00000014 	andeq	r0, r0, r4, lsl r0
 890:	00000014 	andeq	r0, r0, r4, lsl r0
 894:	00000860 	andeq	r0, r0, r0, ror #16
 898:	0000ace4 	andeq	sl, r0, r4, ror #25
 89c:	00000048 	andeq	r0, r0, r8, asr #32
 8a0:	83080e42 	movwhi	r0, #36418	; 0x8e42
 8a4:	00018e02 	andeq	r8, r1, r2, lsl #28
 8a8:	0000000c 	andeq	r0, r0, ip
 8ac:	ffffffff 			; <UNDEFINED> instruction: 0xffffffff
 8b0:	7c020001 	stcvc	0, cr0, [r2], {1}
 8b4:	000d0c0e 	andeq	r0, sp, lr, lsl #24
 8b8:	0000000c 	andeq	r0, r0, ip
 8bc:	000008a8 	andeq	r0, r0, r8, lsr #17
 8c0:	0000ad2c 	andeq	sl, r0, ip, lsr #26
 8c4:	0000001c 	andeq	r0, r0, ip, lsl r0
 8c8:	00000014 	andeq	r0, r0, r4, lsl r0
 8cc:	000008a8 	andeq	r0, r0, r8, lsr #17
 8d0:	0000ad48 	andeq	sl, r0, r8, asr #26
 8d4:	00000014 	andeq	r0, r0, r4, lsl r0
 8d8:	83080e42 	movwhi	r0, #36418	; 0x8e42
 8dc:	00018e02 	andeq	r8, r1, r2, lsl #28
 8e0:	00000014 	andeq	r0, r0, r4, lsl r0
 8e4:	000008a8 	andeq	r0, r0, r8, lsr #17
 8e8:	0000ad5c 	andeq	sl, r0, ip, asr sp
 8ec:	0000001c 	andeq	r0, r0, ip, lsl r0
 8f0:	84080e42 	strhi	r0, [r8], #-3650	; 0xe42
 8f4:	00018e02 	andeq	r8, r1, r2, lsl #28
 8f8:	00000018 	andeq	r0, r0, r8, lsl r0
 8fc:	000008a8 	andeq	r0, r0, r8, lsr #17
 900:	0000ad78 	andeq	sl, r0, r8, ror sp
 904:	00000024 	andeq	r0, r0, r4, lsr #32
 908:	83100e42 	tsthi	r0, #1056	; 0x420
 90c:	85038404 	strhi	r8, [r3, #-1028]	; 0x404
 910:	00018e02 	andeq	r8, r1, r2, lsl #28
 914:	00000014 	andeq	r0, r0, r4, lsl r0
 918:	000008a8 	andeq	r0, r0, r8, lsr #17
 91c:	0000ad9c 	muleq	r0, ip, sp
 920:	00000014 	andeq	r0, r0, r4, lsl r0
 924:	83080e42 	movwhi	r0, #36418	; 0x8e42
 928:	00018e02 	andeq	r8, r1, r2, lsl #28
 92c:	00000014 	andeq	r0, r0, r4, lsl r0
 930:	000008a8 	andeq	r0, r0, r8, lsr #17
 934:	0000adb0 			; <UNDEFINED> instruction: 0x0000adb0
 938:	00000014 	andeq	r0, r0, r4, lsl r0
 93c:	83080e42 	movwhi	r0, #36418	; 0x8e42
 940:	00018e02 	andeq	r8, r1, r2, lsl #28
 944:	0000000c 	andeq	r0, r0, ip
 948:	ffffffff 			; <UNDEFINED> instruction: 0xffffffff
 94c:	7c020001 	stcvc	0, cr0, [r2], {1}
 950:	000d0c0e 	andeq	r0, sp, lr, lsl #24
 954:	00000018 	andeq	r0, r0, r8, lsl r0
 958:	00000944 	andeq	r0, r0, r4, asr #18
 95c:	0000ae28 	andeq	sl, r0, r8, lsr #28
 960:	00000020 	andeq	r0, r0, r0, lsr #32
 964:	84100e42 	ldrhi	r0, [r0], #-3650	; 0xe42
 968:	86038504 	strhi	r8, [r3], -r4, lsl #10
 96c:	00018e02 	andeq	r8, r1, r2, lsl #28
 970:	00000014 	andeq	r0, r0, r4, lsl r0
 974:	00000944 	andeq	r0, r0, r4, asr #18
 978:	0000ae48 	andeq	sl, r0, r8, asr #28
 97c:	000000b0 	strheq	r0, [r0], -r0	; <UNPREDICTABLE>
 980:	84080e42 	strhi	r0, [r8], #-3650	; 0xe42
 984:	00018e02 	andeq	r8, r1, r2, lsl #28
 988:	00000014 	andeq	r0, r0, r4, lsl r0
 98c:	00000944 	andeq	r0, r0, r4, asr #18
 990:	0000aef8 	strdeq	sl, [r0], -r8
 994:	00000018 	andeq	r0, r0, r8, lsl r0
 998:	84080e42 	strhi	r0, [r8], #-3650	; 0xe42
 99c:	00018e02 	andeq	r8, r1, r2, lsl #28
 9a0:	00000014 	andeq	r0, r0, r4, lsl r0
 9a4:	00000944 	andeq	r0, r0, r4, asr #18
 9a8:	0000af10 	andeq	sl, r0, r0, lsl pc
 9ac:	00000020 	andeq	r0, r0, r0, lsr #32
 9b0:	84080e42 	strhi	r0, [r8], #-3650	; 0xe42
 9b4:	00018e02 	andeq	r8, r1, r2, lsl #28
 9b8:	00000014 	andeq	r0, r0, r4, lsl r0
 9bc:	00000944 	andeq	r0, r0, r4, asr #18
 9c0:	0000af30 	andeq	sl, r0, r0, lsr pc
 9c4:	00000030 	andeq	r0, r0, r0, lsr r0
 9c8:	84080e42 	strhi	r0, [r8], #-3650	; 0xe42
 9cc:	00018e02 	andeq	r8, r1, r2, lsl #28
 9d0:	00000014 	andeq	r0, r0, r4, lsl r0
 9d4:	00000944 	andeq	r0, r0, r4, asr #18
 9d8:	0000af60 	andeq	sl, r0, r0, ror #30
 9dc:	00000030 	andeq	r0, r0, r0, lsr r0
 9e0:	84080e42 	strhi	r0, [r8], #-3650	; 0xe42
 9e4:	00018e02 	andeq	r8, r1, r2, lsl #28
 9e8:	00000014 	andeq	r0, r0, r4, lsl r0
 9ec:	00000944 	andeq	r0, r0, r4, asr #18
 9f0:	0000af90 	muleq	r0, r0, pc	; <UNPREDICTABLE>
 9f4:	00000010 	andeq	r0, r0, r0, lsl r0
 9f8:	84080e42 	strhi	r0, [r8], #-3650	; 0xe42
 9fc:	00018e02 	andeq	r8, r1, r2, lsl #28
 a00:	0000000c 	andeq	r0, r0, ip
 a04:	ffffffff 			; <UNDEFINED> instruction: 0xffffffff
 a08:	7c020001 	stcvc	0, cr0, [r2], {1}
 a0c:	000d0c0e 	andeq	r0, sp, lr, lsl #24
 a10:	00000018 	andeq	r0, r0, r8, lsl r0
 a14:	00000a00 	andeq	r0, r0, r0, lsl #20
 a18:	0000afa0 	andeq	sl, r0, r0, lsr #31
 a1c:	00000068 	andeq	r0, r0, r8, rrx
 a20:	84100e4a 	ldrhi	r0, [r0], #-3658	; 0xe4a
 a24:	86038504 	strhi	r8, [r3], -r4, lsl #10
 a28:	00018e02 	andeq	r8, r1, r2, lsl #28
 a2c:	00000014 	andeq	r0, r0, r4, lsl r0
 a30:	00000a00 	andeq	r0, r0, r0, lsl #20
 a34:	0000b008 	andeq	fp, r0, r8
 a38:	00000010 	andeq	r0, r0, r0, lsl r0
 a3c:	84080e42 	strhi	r0, [r8], #-3650	; 0xe42
 a40:	00018e02 	andeq	r8, r1, r2, lsl #28
 a44:	00000014 	andeq	r0, r0, r4, lsl r0
 a48:	00000a00 	andeq	r0, r0, r0, lsl #20
 a4c:	0000b018 	andeq	fp, r0, r8, lsl r0
 a50:	00000024 	andeq	r0, r0, r4, lsr #32
 a54:	84080e46 	strhi	r0, [r8], #-3654	; 0xe46
 a58:	00018e02 	andeq	r8, r1, r2, lsl #28
 a5c:	00000014 	andeq	r0, r0, r4, lsl r0
 a60:	00000a00 	andeq	r0, r0, r0, lsl #20
 a64:	0000b03c 	andeq	fp, r0, ip, lsr r0
 a68:	00000024 	andeq	r0, r0, r4, lsr #32
 a6c:	84080e46 	strhi	r0, [r8], #-3654	; 0xe46
 a70:	00018e02 	andeq	r8, r1, r2, lsl #28
 a74:	00000014 	andeq	r0, r0, r4, lsl r0
 a78:	00000a00 	andeq	r0, r0, r0, lsl #20
 a7c:	0000b060 	andeq	fp, r0, r0, rrx
 a80:	00000010 	andeq	r0, r0, r0, lsl r0
 a84:	84080e42 	strhi	r0, [r8], #-3650	; 0xe42
 a88:	00018e02 	andeq	r8, r1, r2, lsl #28
 a8c:	00000014 	andeq	r0, r0, r4, lsl r0
 a90:	00000a00 	andeq	r0, r0, r0, lsl #20
 a94:	0000b070 	andeq	fp, r0, r0, ror r0
 a98:	0000001c 	andeq	r0, r0, ip, lsl r0
 a9c:	84080e42 	strhi	r0, [r8], #-3650	; 0xe42
 aa0:	00018e02 	andeq	r8, r1, r2, lsl #28
 aa4:	00000018 	andeq	r0, r0, r8, lsl r0
 aa8:	00000a00 	andeq	r0, r0, r0, lsl #20
 aac:	0000b08c 	andeq	fp, r0, ip, lsl #1
 ab0:	00000034 	andeq	r0, r0, r4, lsr r0
 ab4:	84080e46 	strhi	r0, [r8], #-3654	; 0xe46
 ab8:	4e018e02 	cdpmi	14, 0, cr8, cr1, cr2, {0}
 abc:	cec4000e 	cdpgt	0, 12, cr0, cr4, cr14, {0}
 ac0:	0000000c 	andeq	r0, r0, ip
 ac4:	ffffffff 			; <UNDEFINED> instruction: 0xffffffff
 ac8:	7c020001 	stcvc	0, cr0, [r2], {1}
 acc:	000d0c0e 	andeq	r0, sp, lr, lsl #24
 ad0:	0000000c 	andeq	r0, r0, ip
 ad4:	00000ac0 	andeq	r0, r0, r0, asr #21
 ad8:	0000b0c0 	andeq	fp, r0, r0, asr #1
 adc:	00000010 	andeq	r0, r0, r0, lsl r0
 ae0:	0000000c 	andeq	r0, r0, ip
 ae4:	00000ac0 	andeq	r0, r0, r0, asr #21
 ae8:	0000b0d0 	ldrdeq	fp, [r0], -r0
 aec:	0000000c 	andeq	r0, r0, ip
 af0:	00000014 	andeq	r0, r0, r4, lsl r0
 af4:	00000ac0 	andeq	r0, r0, r0, asr #21
 af8:	0000b0dc 	ldrdeq	fp, [r0], -ip
 afc:	00000060 	andeq	r0, r0, r0, rrx
 b00:	8e040e52 	mcrhi	14, 0, r0, cr4, cr2, {2}
 b04:	100e4201 	andne	r4, lr, r1, lsl #4
 b08:	0000001c 	andeq	r0, r0, ip, lsl r0
 b0c:	00000ac0 	andeq	r0, r0, r0, asr #21
 b10:	0000b13c 	andeq	fp, r0, ip, lsr r1
 b14:	00000078 	andeq	r0, r0, r8, ror r0
 b18:	84080e42 	strhi	r0, [r8], #-3650	; 0xe42
 b1c:	42018e02 	andmi	r8, r1, #2, 28
 b20:	0a5a100e 	beq	1684b60 <__bss_end__+0x1678138>
 b24:	0b42080e 	bleq	1082b64 <__bss_end__+0x107613c>
 b28:	0000000c 	andeq	r0, r0, ip
 b2c:	00000ac0 	andeq	r0, r0, r0, asr #21
 b30:	0000b1b4 			; <UNDEFINED> instruction: 0x0000b1b4
 b34:	00000004 	andeq	r0, r0, r4
 b38:	00000014 	andeq	r0, r0, r4, lsl r0
 b3c:	00000ac0 	andeq	r0, r0, r0, asr #21
 b40:	0000b1b8 			; <UNDEFINED> instruction: 0x0000b1b8
 b44:	0000000c 	andeq	r0, r0, ip
 b48:	84080e42 	strhi	r0, [r8], #-3650	; 0xe42
 b4c:	00018e02 	andeq	r8, r1, r2, lsl #28
 b50:	0000001c 	andeq	r0, r0, ip, lsl r0
 b54:	00000ac0 	andeq	r0, r0, r0, asr #21
 b58:	0000b1c4 	andeq	fp, r0, r4, asr #3
 b5c:	000000ac 	andeq	r0, r0, ip, lsr #1
 b60:	8e040e42 	cdphi	14, 0, cr0, cr4, cr2, {2}
 b64:	100e4201 	andne	r4, lr, r1, lsl #4
 b68:	040e0a5e 	streq	r0, [lr], #-2654	; 0xa5e
 b6c:	00000b42 	andeq	r0, r0, r2, asr #22
 b70:	0000000c 	andeq	r0, r0, ip
 b74:	00000ac0 	andeq	r0, r0, r0, asr #21
 b78:	0000b270 	andeq	fp, r0, r0, ror r2
 b7c:	00000004 	andeq	r0, r0, r4
 b80:	0000000c 	andeq	r0, r0, ip
 b84:	00000ac0 	andeq	r0, r0, r0, asr #21
 b88:	0000b274 	andeq	fp, r0, r4, ror r2
 b8c:	00000014 	andeq	r0, r0, r4, lsl r0
 b90:	0000000c 	andeq	r0, r0, ip
 b94:	00000ac0 	andeq	r0, r0, r0, asr #21
 b98:	0000b288 	andeq	fp, r0, r8, lsl #5
 b9c:	00000010 	andeq	r0, r0, r0, lsl r0

Disassembly of section .debug_ranges:

00000000 <.debug_ranges>:
   0:	000000e4 	andeq	r0, r0, r4, ror #1
   4:	00000108 	andeq	r0, r0, r8, lsl #2
   8:	0000010c 	andeq	r0, r0, ip, lsl #2
   c:	0000011c 	andeq	r0, r0, ip, lsl r1
	...
  18:	000000e4 	andeq	r0, r0, r4, ror #1
  1c:	00000100 	andeq	r0, r0, r0, lsl #2
  20:	0000010c 	andeq	r0, r0, ip, lsl #2
  24:	00000114 	andeq	r0, r0, r4, lsl r1
	...
  30:	00000434 	andeq	r0, r0, r4, lsr r4
  34:	00000458 	andeq	r0, r0, r8, asr r4
  38:	0000045c 	andeq	r0, r0, ip, asr r4
  3c:	00000464 	andeq	r0, r0, r4, ror #8
	...
  48:	0000acb8 			; <UNDEFINED> instruction: 0x0000acb8
  4c:	0000ad2c 	andeq	sl, r0, ip, lsr #26
	...
