
adc1115.elf:     file format elf32-littlearm


Disassembly of section .text:

00008000 <_start>:
    8000:	e3a0d302 	mov	sp, #134217728	; 0x8000000
    8004:	e3a0b000 	mov	fp, #0
    8008:	eb00029e 	bl	8a88 <_cstart>
    800c:	eb0002b5 	bl	8ae8 <rpi_reboot>

00008010 <adc_write16>:
    8010:	e92d4010 	push	{r4, lr}
    8014:	e24dd008 	sub	sp, sp, #8
    8018:	e1a04000 	mov	r4, r0
    801c:	e5cd1004 	strb	r1, [sp, #4]
    8020:	e1a03422 	lsr	r3, r2, #8
    8024:	e5cd3005 	strb	r3, [sp, #5]
    8028:	e5cd2006 	strb	r2, [sp, #6]
    802c:	e28d1004 	add	r1, sp, #4
    8030:	e3a02003 	mov	r2, #3
    8034:	eb00008e 	bl	8274 <i2c_write>
    8038:	e3a03000 	mov	r3, #0
    803c:	e5cd3000 	strb	r3, [sp]
    8040:	e5cd3001 	strb	r3, [sp, #1]
    8044:	e1a00004 	mov	r0, r4
    8048:	e1a0100d 	mov	r1, sp
    804c:	e3a02002 	mov	r2, #2
    8050:	eb0000c7 	bl	8374 <i2c_read>
    8054:	e28dd008 	add	sp, sp, #8
    8058:	e8bd8010 	pop	{r4, pc}

0000805c <adc_read16>:
    805c:	e92d4010 	push	{r4, lr}
    8060:	e24dd008 	sub	sp, sp, #8
    8064:	e1a04000 	mov	r4, r0
    8068:	e28d3008 	add	r3, sp, #8
    806c:	e5631004 	strb	r1, [r3, #-4]!
    8070:	e1a01003 	mov	r1, r3
    8074:	e3a02001 	mov	r2, #1
    8078:	eb00007d 	bl	8274 <i2c_write>
    807c:	e3a03000 	mov	r3, #0
    8080:	e5cd3000 	strb	r3, [sp]
    8084:	e5cd3001 	strb	r3, [sp, #1]
    8088:	e1a00004 	mov	r0, r4
    808c:	e1a0100d 	mov	r1, sp
    8090:	e3a02002 	mov	r2, #2
    8094:	eb0000b6 	bl	8374 <i2c_read>
    8098:	e5dd0000 	ldrb	r0, [sp]
    809c:	e5dd3001 	ldrb	r3, [sp, #1]
    80a0:	e1830400 	orr	r0, r3, r0, lsl #8
    80a4:	e28dd008 	add	sp, sp, #8
    80a8:	e8bd8010 	pop	{r4, pc}

000080ac <adc_reset>:
    80ac:	e52de004 	push	{lr}		; (str lr, [sp, #-4]!)
    80b0:	e24dd00c 	sub	sp, sp, #12
    80b4:	e28d1008 	add	r1, sp, #8
    80b8:	e3a03006 	mov	r3, #6
    80bc:	e5613001 	strb	r3, [r1, #-1]!
    80c0:	e3a00000 	mov	r0, #0
    80c4:	e3a02001 	mov	r2, #1
    80c8:	eb000069 	bl	8274 <i2c_write>
    80cc:	e28dd00c 	add	sp, sp, #12
    80d0:	e49df004 	pop	{pc}		; (ldr pc, [sp], #4)

000080d4 <notmain>:
    80d4:	e92d41f0 	push	{r4, r5, r6, r7, r8, lr}
    80d8:	eb00041e 	bl	9158 <uart_init>
    80dc:	e3a0001e 	mov	r0, #30
    80e0:	eb0002aa 	bl	8b90 <delay_ms>
    80e4:	eb0000da 	bl	8454 <i2c_init>
    80e8:	e3a0001e 	mov	r0, #30
    80ec:	eb0002a7 	bl	8b90 <delay_ms>
    80f0:	ebffffed 	bl	80ac <adc_reset>
    80f4:	e3a00019 	mov	r0, #25
    80f8:	eb00029b 	bl	8b6c <delay_us>
    80fc:	e3a00048 	mov	r0, #72	; 0x48
    8100:	e3a01001 	mov	r1, #1
    8104:	ebffffd4 	bl	805c <adc_read16>
    8108:	e1a04000 	mov	r4, r0
    810c:	e1a05420 	lsr	r5, r0, #8
    8110:	e6ff5075 	uxth	r5, r5
    8114:	e59f0114 	ldr	r0, [pc, #276]	; 8230 <notmain+0x15c>
    8118:	e1a01004 	mov	r1, r4
    811c:	e6ef2074 	uxtb	r2, r4
    8120:	e1a03005 	mov	r3, r5
    8124:	eb0000dd 	bl	84a0 <printk>
    8128:	e3150001 	tst	r5, #1
    812c:	1a000006 	bne	814c <notmain+0x78>
    8130:	eb0000f5 	bl	850c <rpi_reset_putc>
    8134:	e59f00f8 	ldr	r0, [pc, #248]	; 8234 <notmain+0x160>
    8138:	e59f10f8 	ldr	r1, [pc, #248]	; 8238 <notmain+0x164>
    813c:	e59f20f8 	ldr	r2, [pc, #248]	; 823c <notmain+0x168>
    8140:	e3a03056 	mov	r3, #86	; 0x56
    8144:	eb0000d5 	bl	84a0 <printk>
    8148:	eb000244 	bl	8a60 <clean_reboot>
    814c:	e1a032a4 	lsr	r3, r4, #5
    8150:	e2033007 	and	r3, r3, #7
    8154:	e3530004 	cmp	r3, #4
    8158:	0a000006 	beq	8178 <notmain+0xa4>
    815c:	eb0000ea 	bl	850c <rpi_reset_putc>
    8160:	e59f00d8 	ldr	r0, [pc, #216]	; 8240 <notmain+0x16c>
    8164:	e59f10cc 	ldr	r1, [pc, #204]	; 8238 <notmain+0x164>
    8168:	e59f20cc 	ldr	r2, [pc, #204]	; 823c <notmain+0x168>
    816c:	e3a03058 	mov	r3, #88	; 0x58
    8170:	eb0000ca 	bl	84a0 <printk>
    8174:	eb000239 	bl	8a60 <clean_reboot>
    8178:	e1a044a4 	lsr	r4, r4, #9
    817c:	e2044007 	and	r4, r4, #7
    8180:	e3540002 	cmp	r4, #2
    8184:	0a000006 	beq	81a4 <notmain+0xd0>
    8188:	eb0000df 	bl	850c <rpi_reset_putc>
    818c:	e59f00b0 	ldr	r0, [pc, #176]	; 8244 <notmain+0x170>
    8190:	e59f10a0 	ldr	r1, [pc, #160]	; 8238 <notmain+0x164>
    8194:	e59f20a0 	ldr	r2, [pc, #160]	; 823c <notmain+0x168>
    8198:	e3a0305a 	mov	r3, #90	; 0x5a
    819c:	eb0000bf 	bl	84a0 <printk>
    81a0:	eb00022e 	bl	8a60 <clean_reboot>
    81a4:	e59f409c 	ldr	r4, [pc, #156]	; 8248 <notmain+0x174>
    81a8:	e3a00048 	mov	r0, #72	; 0x48
    81ac:	e3a01001 	mov	r1, #1
    81b0:	e1a02004 	mov	r2, r4
    81b4:	ebffff95 	bl	8010 <adc_write16>
    81b8:	e3a00048 	mov	r0, #72	; 0x48
    81bc:	e3a01001 	mov	r1, #1
    81c0:	ebffffa5 	bl	805c <adc_read16>
    81c4:	e1500004 	cmp	r0, r4
    81c8:	0a000010 	beq	8210 <notmain+0x13c>
    81cc:	eb0000ce 	bl	850c <rpi_reset_putc>
    81d0:	e59f0074 	ldr	r0, [pc, #116]	; 824c <notmain+0x178>
    81d4:	e59f105c 	ldr	r1, [pc, #92]	; 8238 <notmain+0x164>
    81d8:	e59f205c 	ldr	r2, [pc, #92]	; 823c <notmain+0x168>
    81dc:	e3a0306f 	mov	r3, #111	; 0x6f
    81e0:	eb0000ae 	bl	84a0 <printk>
    81e4:	eb00021d 	bl	8a60 <clean_reboot>
    81e8:	e1a00008 	mov	r0, r8
    81ec:	e1a01007 	mov	r1, r7
    81f0:	ebffff99 	bl	805c <adc_read16>
    81f4:	e6bf1070 	sxth	r1, r0
    81f8:	e1a00006 	mov	r0, r6
    81fc:	eb0000a7 	bl	84a0 <printk>
    8200:	e1a00005 	mov	r0, r5
    8204:	eb000261 	bl	8b90 <delay_ms>
    8208:	e2844001 	add	r4, r4, #1
    820c:	ea000004 	b	8224 <notmain+0x150>
    8210:	e3a04000 	mov	r4, #0
    8214:	e3a08048 	mov	r8, #72	; 0x48
    8218:	e1a07004 	mov	r7, r4
    821c:	e59f602c 	ldr	r6, [pc, #44]	; 8250 <notmain+0x17c>
    8220:	e3a05ffa 	mov	r5, #1000	; 0x3e8
    8224:	e3540013 	cmp	r4, #19
    8228:	daffffee 	ble	81e8 <notmain+0x114>
    822c:	eb00020b 	bl	8a60 <clean_reboot>
    8230:	000093b4 			; <UNDEFINED> instruction: 0x000093b4
    8234:	000093e0 	andeq	r9, r0, r0, ror #7
    8238:	00009400 	andeq	r9, r0, r0, lsl #8
    823c:	000093ac 	andeq	r9, r0, ip, lsr #7
    8240:	0000940c 	andeq	r9, r0, ip, lsl #8
    8244:	00009430 	andeq	r9, r0, r0, lsr r4
    8248:	000042e3 	andeq	r4, r0, r3, ror #5
    824c:	00009454 	andeq	r9, r0, r4, asr r4
    8250:	0000947c 	andeq	r9, r0, ip, ror r4

00008254 <read_c>:
    8254:	e92d4008 	push	{r3, lr}
    8258:	eb000425 	bl	92f4 <get32>
    825c:	e8bd8008 	pop	{r3, pc}

00008260 <read_s>:
    8260:	e92d4008 	push	{r3, lr}
    8264:	eb000422 	bl	92f4 <get32>
    8268:	e8bd8008 	pop	{r3, pc}

0000826c <check_layout>:
    826c:	e52de004 	push	{lr}		; (str lr, [sp, #-4]!)
    8270:	e49df004 	pop	{pc}		; (ldr pc, [sp], #4)

00008274 <i2c_write>:
    8274:	e92d43f8 	push	{r3, r4, r5, r6, r7, r8, r9, lr}
    8278:	e1a05000 	mov	r5, r0
    827c:	e1a09001 	mov	r9, r1
    8280:	e1a07002 	mov	r7, r2
    8284:	eb000408 	bl	92ac <dev_barrier>
    8288:	e59f40d4 	ldr	r4, [pc, #212]	; 8364 <i2c_write+0xf0>
    828c:	e1a00004 	mov	r0, r4
    8290:	ebfffff2 	bl	8260 <read_s>
    8294:	e3100001 	tst	r0, #1
    8298:	1afffffb 	bne	828c <i2c_write+0x18>
    829c:	e59f40c0 	ldr	r4, [pc, #192]	; 8364 <i2c_write+0xf0>
    82a0:	e1a00004 	mov	r0, r4
    82a4:	ebffffed 	bl	8260 <read_s>
    82a8:	e3801c03 	orr	r1, r0, #768	; 0x300
    82ac:	e1a00004 	mov	r0, r4
    82b0:	e3811002 	orr	r1, r1, #2
    82b4:	eb000402 	bl	92c4 <put32>
    82b8:	e59f00a8 	ldr	r0, [pc, #168]	; 8368 <i2c_write+0xf4>
    82bc:	e1a01005 	mov	r1, r5
    82c0:	eb0003ff 	bl	92c4 <put32>
    82c4:	e59f00a0 	ldr	r0, [pc, #160]	; 836c <i2c_write+0xf8>
    82c8:	e1a01007 	mov	r1, r7
    82cc:	eb0003fc 	bl	92c4 <put32>
    82d0:	e2444004 	sub	r4, r4, #4
    82d4:	e1a00004 	mov	r0, r4
    82d8:	ebffffdd 	bl	8254 <read_c>
    82dc:	e3c01081 	bic	r1, r0, #129	; 0x81
    82e0:	e3811080 	orr	r1, r1, #128	; 0x80
    82e4:	e1a00004 	mov	r0, r4
    82e8:	e3811030 	orr	r1, r1, #48	; 0x30
    82ec:	eb0003f4 	bl	92c4 <put32>
    82f0:	e2844004 	add	r4, r4, #4
    82f4:	e1a00004 	mov	r0, r4
    82f8:	ebffffd8 	bl	8260 <read_s>
    82fc:	e3100001 	tst	r0, #1
    8300:	0afffffb 	beq	82f4 <i2c_write+0x80>
    8304:	ea000008 	b	832c <i2c_write+0xb8>
    8308:	e1a00004 	mov	r0, r4
    830c:	ebffffd3 	bl	8260 <read_s>
    8310:	e3100010 	tst	r0, #16
    8314:	0afffffb 	beq	8308 <i2c_write+0x94>
    8318:	e1a00008 	mov	r0, r8
    831c:	e7d91006 	ldrb	r1, [r9, r6]
    8320:	eb0003e7 	bl	92c4 <put32>
    8324:	e2855001 	add	r5, r5, #1
    8328:	ea000002 	b	8338 <i2c_write+0xc4>
    832c:	e3a05000 	mov	r5, #0
    8330:	e59f402c 	ldr	r4, [pc, #44]	; 8364 <i2c_write+0xf0>
    8334:	e59f8034 	ldr	r8, [pc, #52]	; 8370 <i2c_write+0xfc>
    8338:	e1a06005 	mov	r6, r5
    833c:	e1550007 	cmp	r5, r7
    8340:	3afffff0 	bcc	8308 <i2c_write+0x94>
    8344:	e59f4018 	ldr	r4, [pc, #24]	; 8364 <i2c_write+0xf0>
    8348:	e1a00004 	mov	r0, r4
    834c:	ebffffc3 	bl	8260 <read_s>
    8350:	e3100002 	tst	r0, #2
    8354:	0afffffb 	beq	8348 <i2c_write+0xd4>
    8358:	eb0003d3 	bl	92ac <dev_barrier>
    835c:	e3a00001 	mov	r0, #1
    8360:	e8bd83f8 	pop	{r3, r4, r5, r6, r7, r8, r9, pc}
    8364:	20804004 	addcs	r4, r0, r4
    8368:	2080400c 	addcs	r4, r0, ip
    836c:	20804008 	addcs	r4, r0, r8
    8370:	20804010 	addcs	r4, r0, r0, lsl r0

00008374 <i2c_read>:
    8374:	e92d43f8 	push	{r3, r4, r5, r6, r7, r8, r9, lr}
    8378:	e1a05000 	mov	r5, r0
    837c:	e1a09001 	mov	r9, r1
    8380:	e1a07002 	mov	r7, r2
    8384:	eb0003c8 	bl	92ac <dev_barrier>
    8388:	e59f40b4 	ldr	r4, [pc, #180]	; 8444 <i2c_read+0xd0>
    838c:	e1a00004 	mov	r0, r4
    8390:	ebffffb2 	bl	8260 <read_s>
    8394:	e3100001 	tst	r0, #1
    8398:	1afffffb 	bne	838c <i2c_read+0x18>
    839c:	e59f40a0 	ldr	r4, [pc, #160]	; 8444 <i2c_read+0xd0>
    83a0:	e1a00004 	mov	r0, r4
    83a4:	ebffffad 	bl	8260 <read_s>
    83a8:	e3801c03 	orr	r1, r0, #768	; 0x300
    83ac:	e1a00004 	mov	r0, r4
    83b0:	e3811002 	orr	r1, r1, #2
    83b4:	eb0003c2 	bl	92c4 <put32>
    83b8:	e59f0088 	ldr	r0, [pc, #136]	; 8448 <i2c_read+0xd4>
    83bc:	e1a01005 	mov	r1, r5
    83c0:	eb0003bf 	bl	92c4 <put32>
    83c4:	e59f0080 	ldr	r0, [pc, #128]	; 844c <i2c_read+0xd8>
    83c8:	e1a01007 	mov	r1, r7
    83cc:	eb0003bc 	bl	92c4 <put32>
    83d0:	e2444004 	sub	r4, r4, #4
    83d4:	e1a00004 	mov	r0, r4
    83d8:	ebffff9d 	bl	8254 <read_c>
    83dc:	e38010b1 	orr	r1, r0, #177	; 0xb1
    83e0:	e1a00004 	mov	r0, r4
    83e4:	eb0003b6 	bl	92c4 <put32>
    83e8:	e3a05000 	mov	r5, #0
    83ec:	e2844004 	add	r4, r4, #4
    83f0:	e59f8058 	ldr	r8, [pc, #88]	; 8450 <i2c_read+0xdc>
    83f4:	ea000007 	b	8418 <i2c_read+0xa4>
    83f8:	e1a00004 	mov	r0, r4
    83fc:	ebffff97 	bl	8260 <read_s>
    8400:	e3100010 	tst	r0, #16
    8404:	0afffffb 	beq	83f8 <i2c_read+0x84>
    8408:	e1a00008 	mov	r0, r8
    840c:	eb0003b8 	bl	92f4 <get32>
    8410:	e7c90006 	strb	r0, [r9, r6]
    8414:	e2855001 	add	r5, r5, #1
    8418:	e1a06005 	mov	r6, r5
    841c:	e1550007 	cmp	r5, r7
    8420:	3afffff4 	bcc	83f8 <i2c_read+0x84>
    8424:	e59f4018 	ldr	r4, [pc, #24]	; 8444 <i2c_read+0xd0>
    8428:	e1a00004 	mov	r0, r4
    842c:	ebffff8b 	bl	8260 <read_s>
    8430:	e3100002 	tst	r0, #2
    8434:	0afffffb 	beq	8428 <i2c_read+0xb4>
    8438:	eb00039b 	bl	92ac <dev_barrier>
    843c:	e3a00001 	mov	r0, #1
    8440:	e8bd83f8 	pop	{r3, r4, r5, r6, r7, r8, r9, pc}
    8444:	20804004 	addcs	r4, r0, r4
    8448:	2080400c 	addcs	r4, r0, ip
    844c:	20804008 	addcs	r4, r0, r8
    8450:	20804010 	addcs	r4, r0, r0, lsl r0

00008454 <i2c_init>:
    8454:	e92d4010 	push	{r4, lr}
    8458:	ebffff83 	bl	826c <check_layout>
    845c:	eb000392 	bl	92ac <dev_barrier>
    8460:	e3a00002 	mov	r0, #2
    8464:	e3a01004 	mov	r1, #4
    8468:	eb000272 	bl	8e38 <gpio_set_function>
    846c:	e3a00003 	mov	r0, #3
    8470:	e3a01004 	mov	r1, #4
    8474:	eb00026f 	bl	8e38 <gpio_set_function>
    8478:	eb00038b 	bl	92ac <dev_barrier>
    847c:	e59f4018 	ldr	r4, [pc, #24]	; 849c <i2c_init+0x48>
    8480:	e1a00004 	mov	r0, r4
    8484:	ebffff72 	bl	8254 <read_c>
    8488:	e3801902 	orr	r1, r0, #32768	; 0x8000
    848c:	e1a00004 	mov	r0, r4
    8490:	eb00038b 	bl	92c4 <put32>
    8494:	eb000384 	bl	92ac <dev_barrier>
    8498:	e8bd8010 	pop	{r4, pc}
    849c:	20804000 	addcs	r4, r0, r0

000084a0 <printk>:
    84a0:	e92d000f 	push	{r0, r1, r2, r3}
    84a4:	e92d4030 	push	{r4, r5, lr}
    84a8:	e24dd00c 	sub	sp, sp, #12
    84ac:	e28d301c 	add	r3, sp, #28
    84b0:	e58d3004 	str	r3, [sp, #4]
    84b4:	e59f4034 	ldr	r4, [pc, #52]	; 84f0 <printk+0x50>
    84b8:	e1a00004 	mov	r0, r4
    84bc:	e3a01b01 	mov	r1, #1024	; 0x400
    84c0:	e59d2018 	ldr	r2, [sp, #24]
    84c4:	eb0000c3 	bl	87d8 <va_printk>
    84c8:	e1a05000 	mov	r5, r0
    84cc:	e59f3020 	ldr	r3, [pc, #32]	; 84f4 <printk+0x54>
    84d0:	e5933000 	ldr	r3, [r3]
    84d4:	e1a00004 	mov	r0, r4
    84d8:	e12fff33 	blx	r3
    84dc:	e1a00005 	mov	r0, r5
    84e0:	e28dd00c 	add	sp, sp, #12
    84e4:	e8bd4030 	pop	{r4, r5, lr}
    84e8:	e28dd010 	add	sp, sp, #16
    84ec:	e12fff1e 	bx	lr
    84f0:	000096bc 			; <UNDEFINED> instruction: 0x000096bc
    84f4:	00009314 	andeq	r9, r0, r4, lsl r3

000084f8 <internal_putchar>:
    84f8:	e92d4010 	push	{r4, lr}
    84fc:	e1a04000 	mov	r4, r0
    8500:	eb000353 	bl	9254 <uart_putc>
    8504:	e1a00004 	mov	r0, r4
    8508:	e8bd8010 	pop	{r4, pc}

0000850c <rpi_reset_putc>:
    850c:	e59f2008 	ldr	r2, [pc, #8]	; 851c <rpi_reset_putc+0x10>
    8510:	e59f3008 	ldr	r3, [pc, #8]	; 8520 <rpi_reset_putc+0x14>
    8514:	e5832000 	str	r2, [r3]
    8518:	e12fff1e 	bx	lr
    851c:	000084f8 	strdeq	r8, [r0], -r8	; <UNPREDICTABLE>
    8520:	00009310 	andeq	r9, r0, r0, lsl r3

00008524 <rpi_set_putc>:
    8524:	e59f3004 	ldr	r3, [pc, #4]	; 8530 <rpi_set_putc+0xc>
    8528:	e5830000 	str	r0, [r3]
    852c:	e12fff1e 	bx	lr
    8530:	00009310 	andeq	r9, r0, r0, lsl r3

00008534 <internal_putk>:
    8534:	e92d4038 	push	{r3, r4, r5, lr}
    8538:	e1a04000 	mov	r4, r0
    853c:	e59f5020 	ldr	r5, [pc, #32]	; 8564 <internal_putk+0x30>
    8540:	ea000002 	b	8550 <internal_putk+0x1c>
    8544:	e5953000 	ldr	r3, [r5]
    8548:	e12fff33 	blx	r3
    854c:	e2844001 	add	r4, r4, #1
    8550:	e5d40000 	ldrb	r0, [r4]
    8554:	e3500000 	cmp	r0, #0
    8558:	1afffff9 	bne	8544 <internal_putk+0x10>
    855c:	e3a00001 	mov	r0, #1
    8560:	e8bd8038 	pop	{r3, r4, r5, pc}
    8564:	00009310 	andeq	r9, r0, r0, lsl r3

00008568 <isdigit>:
    8568:	e2400030 	sub	r0, r0, #48	; 0x30
    856c:	e3500009 	cmp	r0, #9
    8570:	83a00000 	movhi	r0, #0
    8574:	93a00001 	movls	r0, #1
    8578:	e12fff1e 	bx	lr

0000857c <pad>:
    857c:	e0611000 	rsb	r1, r1, r0
    8580:	e3a03020 	mov	r3, #32
    8584:	ea000002 	b	8594 <pad+0x18>
    8588:	e5c03000 	strb	r3, [r0]
    858c:	e2811001 	add	r1, r1, #1
    8590:	e2800001 	add	r0, r0, #1
    8594:	e1510002 	cmp	r1, r2
    8598:	bafffffa 	blt	8588 <pad+0xc>
    859c:	e3a03000 	mov	r3, #0
    85a0:	e5c03000 	strb	r3, [r0]
    85a4:	e12fff1e 	bx	lr

000085a8 <reverse>:
    85a8:	e063c002 	rsb	ip, r3, r2
    85ac:	e28cc001 	add	ip, ip, #1
    85b0:	e15c0001 	cmp	ip, r1
    85b4:	c061100c 	rsbgt	r1, r1, ip
    85b8:	c0833001 	addgt	r3, r3, r1
    85bc:	e2422001 	sub	r2, r2, #1
    85c0:	e1a01000 	mov	r1, r0
    85c4:	ea000002 	b	85d4 <reverse+0x2c>
    85c8:	e452c001 	ldrb	ip, [r2], #-1
    85cc:	e5c1c000 	strb	ip, [r1]
    85d0:	e2811001 	add	r1, r1, #1
    85d4:	e1520003 	cmp	r2, r3
    85d8:	2afffffa 	bcs	85c8 <reverse+0x20>
    85dc:	e3a03000 	mov	r3, #0
    85e0:	e5c13000 	strb	r3, [r1]
    85e4:	e12fff1e 	bx	lr

000085e8 <emit>:
    85e8:	e92d41f0 	push	{r4, r5, r6, r7, r8, lr}
    85ec:	e24dd040 	sub	sp, sp, #64	; 0x40
    85f0:	e1a05001 	mov	r5, r1
    85f4:	e1a04002 	mov	r4, r2
    85f8:	e59d2058 	ldr	r2, [sp, #88]	; 0x58
    85fc:	e1520004 	cmp	r2, r4
    8600:	c2442001 	subgt	r2, r4, #1
    8604:	e1a0c003 	mov	ip, r3
    8608:	e2400002 	sub	r0, r0, #2
    860c:	e350000e 	cmp	r0, #14
    8610:	979ff100 	ldrls	pc, [pc, r0, lsl #2]
    8614:	ea000042 	b	8724 <emit+0x13c>
    8618:	000086fc 	strdeq	r8, [r0], -ip
    861c:	00008724 	andeq	r8, r0, r4, lsr #14
    8620:	00008724 	andeq	r8, r0, r4, lsr #14
    8624:	00008724 	andeq	r8, r0, r4, lsr #14
    8628:	00008724 	andeq	r8, r0, r4, lsr #14
    862c:	00008724 	andeq	r8, r0, r4, lsr #14
    8630:	000086f0 	strdeq	r8, [r0], -r0
    8634:	00008724 	andeq	r8, r0, r4, lsr #14
    8638:	00008654 	andeq	r8, r0, r4, asr r6
    863c:	00008724 	andeq	r8, r0, r4, lsr #14
    8640:	00008724 	andeq	r8, r0, r4, lsr #14
    8644:	00008724 	andeq	r8, r0, r4, lsr #14
    8648:	00008724 	andeq	r8, r0, r4, lsr #14
    864c:	00008724 	andeq	r8, r0, r4, lsr #14
    8650:	000086c8 	andeq	r8, r0, r8, asr #13
    8654:	e59d105c 	ldr	r1, [sp, #92]	; 0x5c
    8658:	e2911000 	adds	r1, r1, #0
    865c:	13a01001 	movne	r1, #1
    8660:	e0111fa3 	ands	r1, r1, r3, lsr #31
    8664:	1263c000 	rsbne	ip, r3, #0
    8668:	13a08001 	movne	r8, #1
    866c:	03a08000 	moveq	r8, #0
    8670:	e1a0100d 	mov	r1, sp
    8674:	e59f70ec 	ldr	r7, [pc, #236]	; 8768 <emit+0x180>
    8678:	e59f60ec 	ldr	r6, [pc, #236]	; 876c <emit+0x184>
    867c:	ea000000 	b	8684 <emit+0x9c>
    8680:	e1a01003 	mov	r1, r3
    8684:	e2813001 	add	r3, r1, #1
    8688:	e08e0c97 	umull	r0, lr, r7, ip
    868c:	e1a0e1ae 	lsr	lr, lr, #3
    8690:	e1a0000e 	mov	r0, lr
    8694:	e08ee10e 	add	lr, lr, lr, lsl #2
    8698:	e1a0e08e 	lsl	lr, lr, #1
    869c:	e06ee00c 	rsb	lr, lr, ip
    86a0:	e7d6c00e 	ldrb	ip, [r6, lr]
    86a4:	e5c1c000 	strb	ip, [r1]
    86a8:	e1a0c000 	mov	ip, r0
    86ac:	e3500000 	cmp	r0, #0
    86b0:	1afffff2 	bne	8680 <emit+0x98>
    86b4:	e3580000 	cmp	r8, #0
    86b8:	12813002 	addne	r3, r1, #2
    86bc:	13a0002d 	movne	r0, #45	; 0x2d
    86c0:	15c10001 	strbne	r0, [r1, #1]
    86c4:	ea00001d 	b	8740 <emit+0x158>
    86c8:	e1a0e00d 	mov	lr, sp
    86cc:	e59f009c 	ldr	r0, [pc, #156]	; 8770 <emit+0x188>
    86d0:	e28e3001 	add	r3, lr, #1
    86d4:	e20c100f 	and	r1, ip, #15
    86d8:	e7d01001 	ldrb	r1, [r0, r1]
    86dc:	e5ce1000 	strb	r1, [lr]
    86e0:	e1a0e003 	mov	lr, r3
    86e4:	e1b0c22c 	lsrs	ip, ip, #4
    86e8:	1afffff8 	bne	86d0 <emit+0xe8>
    86ec:	ea000013 	b	8740 <emit+0x158>
    86f0:	e5cd3000 	strb	r3, [sp]
    86f4:	e28d3001 	add	r3, sp, #1
    86f8:	ea000010 	b	8740 <emit+0x158>
    86fc:	e1a0e00d 	mov	lr, sp
    8700:	e59f006c 	ldr	r0, [pc, #108]	; 8774 <emit+0x18c>
    8704:	e28e3001 	add	r3, lr, #1
    8708:	e20c1001 	and	r1, ip, #1
    870c:	e7d01001 	ldrb	r1, [r0, r1]
    8710:	e5ce1000 	strb	r1, [lr]
    8714:	e1a0e003 	mov	lr, r3
    8718:	e1b0c0ac 	lsrs	ip, ip, #1
    871c:	1afffff8 	bne	8704 <emit+0x11c>
    8720:	ea000006 	b	8740 <emit+0x158>
    8724:	ebffff78 	bl	850c <rpi_reset_putc>
    8728:	e59f0048 	ldr	r0, [pc, #72]	; 8778 <emit+0x190>
    872c:	e59f1048 	ldr	r1, [pc, #72]	; 877c <emit+0x194>
    8730:	e59f2048 	ldr	r2, [pc, #72]	; 8780 <emit+0x198>
    8734:	e3a03075 	mov	r3, #117	; 0x75
    8738:	ebffff58 	bl	84a0 <printk>
    873c:	eb0000c7 	bl	8a60 <clean_reboot>
    8740:	e1a00003 	mov	r0, r3
    8744:	e1a0100d 	mov	r1, sp
    8748:	ebffff8b 	bl	857c <pad>
    874c:	e1a02000 	mov	r2, r0
    8750:	e1a00005 	mov	r0, r5
    8754:	e1a01004 	mov	r1, r4
    8758:	e1a0300d 	mov	r3, sp
    875c:	ebffff91 	bl	85a8 <reverse>
    8760:	e28dd040 	add	sp, sp, #64	; 0x40
    8764:	e8bd81f0 	pop	{r4, r5, r6, r7, r8, pc}
    8768:	cccccccd 	stclgt	12, cr12, [ip], {205}	; 0xcd
    876c:	000095f8 	strdeq	r9, [r0], -r8
    8770:	00009604 	andeq	r9, r0, r4, lsl #12
    8774:	00009618 	andeq	r9, r0, r8, lsl r6
    8778:	000095d0 	ldrdeq	r9, [r0], -r0
    877c:	000095e4 	andeq	r9, r0, r4, ror #11
    8780:	000095ac 	andeq	r9, r0, ip, lsr #11

00008784 <rpi_set_output>:
    8784:	e92d4008 	push	{r3, lr}
    8788:	e3500000 	cmp	r0, #0
    878c:	1a000006 	bne	87ac <rpi_set_output+0x28>
    8790:	ebffff5d 	bl	850c <rpi_reset_putc>
    8794:	e59f0028 	ldr	r0, [pc, #40]	; 87c4 <rpi_set_output+0x40>
    8798:	e59f1028 	ldr	r1, [pc, #40]	; 87c8 <rpi_set_output+0x44>
    879c:	e59f2028 	ldr	r2, [pc, #40]	; 87cc <rpi_set_output+0x48>
    87a0:	e3a03020 	mov	r3, #32
    87a4:	ebffff3d 	bl	84a0 <printk>
    87a8:	eb0000ac 	bl	8a60 <clean_reboot>
    87ac:	e59f301c 	ldr	r3, [pc, #28]	; 87d0 <rpi_set_output+0x4c>
    87b0:	e5830000 	str	r0, [r3]
    87b4:	e3510000 	cmp	r1, #0
    87b8:	159f3014 	ldrne	r3, [pc, #20]	; 87d4 <rpi_set_output+0x50>
    87bc:	15831000 	strne	r1, [r3]
    87c0:	e8bd8008 	pop	{r3, pc}
    87c4:	0000961c 	andeq	r9, r0, ip, lsl r6
    87c8:	000095e4 	andeq	r9, r0, r4, ror #11
    87cc:	000095b4 			; <UNDEFINED> instruction: 0x000095b4
    87d0:	00009310 	andeq	r9, r0, r0, lsl r3
    87d4:	00009314 	andeq	r9, r0, r4, lsl r3

000087d8 <va_printk>:
    87d8:	e92d4ff0 	push	{r4, r5, r6, r7, r8, r9, sl, fp, lr}
    87dc:	e24dd08c 	sub	sp, sp, #140	; 0x8c
    87e0:	e1a0a000 	mov	sl, r0
    87e4:	e1a09003 	mov	r9, r3
    87e8:	e2411001 	sub	r1, r1, #1
    87ec:	e0808001 	add	r8, r0, r1
    87f0:	e3a03000 	mov	r3, #0
    87f4:	e5c03000 	strb	r3, [r0]
    87f8:	e1a04000 	mov	r4, r0
    87fc:	e1a0b003 	mov	fp, r3
    8800:	ea000086 	b	8a20 <va_printk+0x248>
    8804:	e3530025 	cmp	r3, #37	; 0x25
    8808:	12822001 	addne	r2, r2, #1
    880c:	15c43000 	strbne	r3, [r4]
    8810:	12844001 	addne	r4, r4, #1
    8814:	1a000081 	bne	8a20 <va_printk+0x248>
    8818:	e5d21001 	ldrb	r1, [r2, #1]
    881c:	e3510025 	cmp	r1, #37	; 0x25
    8820:	05c43000 	strbeq	r3, [r4]
    8824:	02822002 	addeq	r2, r2, #2
    8828:	02844001 	addeq	r4, r4, #1
    882c:	0a00007b 	beq	8a20 <va_printk+0x248>
    8830:	e2826001 	add	r6, r2, #1
    8834:	e1a0700b 	mov	r7, fp
    8838:	ea000004 	b	8850 <va_printk+0x78>
    883c:	e0877107 	add	r7, r7, r7, lsl #2
    8840:	e1a07087 	lsl	r7, r7, #1
    8844:	e0877005 	add	r7, r7, r5
    8848:	e2477030 	sub	r7, r7, #48	; 0x30
    884c:	e2866001 	add	r6, r6, #1
    8850:	e5d65000 	ldrb	r5, [r6]
    8854:	e1a00005 	mov	r0, r5
    8858:	ebffff42 	bl	8568 <isdigit>
    885c:	e3500000 	cmp	r0, #0
    8860:	1afffff5 	bne	883c <va_printk+0x64>
    8864:	e357001f 	cmp	r7, #31
    8868:	9a000006 	bls	8888 <va_printk+0xb0>
    886c:	ebffff26 	bl	850c <rpi_reset_putc>
    8870:	e59f01d4 	ldr	r0, [pc, #468]	; 8a4c <va_printk+0x274>
    8874:	e59f11d4 	ldr	r1, [pc, #468]	; 8a50 <va_printk+0x278>
    8878:	e59f21d4 	ldr	r2, [pc, #468]	; 8a54 <va_printk+0x27c>
    887c:	e3a03092 	mov	r3, #146	; 0x92
    8880:	ebffff06 	bl	84a0 <printk>
    8884:	eb000075 	bl	8a60 <clean_reboot>
    8888:	e2455062 	sub	r5, r5, #98	; 0x62
    888c:	e3550016 	cmp	r5, #22
    8890:	979ff105 	ldrls	pc, [pc, r5, lsl #2]
    8894:	ea00004e 	b	89d4 <va_printk+0x1fc>
    8898:	00008980 	andeq	r8, r0, r0, lsl #19
    889c:	000089b0 			; <UNDEFINED> instruction: 0x000089b0
    88a0:	00008910 	andeq	r8, r0, r0, lsl r9
    88a4:	000089d4 	ldrdeq	r8, [r0], -r4
    88a8:	000088f4 	strdeq	r8, [r0], -r4
    88ac:	000089d4 	ldrdeq	r8, [r0], -r4
    88b0:	000089d4 	ldrdeq	r8, [r0], -r4
    88b4:	000089d4 	ldrdeq	r8, [r0], -r4
    88b8:	000089d4 	ldrdeq	r8, [r0], -r4
    88bc:	000089d4 	ldrdeq	r8, [r0], -r4
    88c0:	000089d4 	ldrdeq	r8, [r0], -r4
    88c4:	000089d4 	ldrdeq	r8, [r0], -r4
    88c8:	000089d4 	ldrdeq	r8, [r0], -r4
    88cc:	000089d4 	ldrdeq	r8, [r0], -r4
    88d0:	0000895c 	andeq	r8, r0, ip, asr r9
    88d4:	000089d4 	ldrdeq	r8, [r0], -r4
    88d8:	000089d4 	ldrdeq	r8, [r0], -r4
    88dc:	000089a4 	andeq	r8, r0, r4, lsr #19
    88e0:	000089d4 	ldrdeq	r8, [r0], -r4
    88e4:	00008938 	andeq	r8, r0, r8, lsr r9
    88e8:	000089d4 	ldrdeq	r8, [r0], -r4
    88ec:	000089d4 	ldrdeq	r8, [r0], -r4
    88f0:	0000895c 	andeq	r8, r0, ip, asr r9
    88f4:	ebffff04 	bl	850c <rpi_reset_putc>
    88f8:	e59f0158 	ldr	r0, [pc, #344]	; 8a58 <va_printk+0x280>
    88fc:	e59f114c 	ldr	r1, [pc, #332]	; 8a50 <va_printk+0x278>
    8900:	e59f214c 	ldr	r2, [pc, #332]	; 8a54 <va_printk+0x27c>
    8904:	e3a03098 	mov	r3, #152	; 0x98
    8908:	ebfffee4 	bl	84a0 <printk>
    890c:	eb000053 	bl	8a60 <clean_reboot>
    8910:	e5993000 	ldr	r3, [r9]
    8914:	e2899004 	add	r9, r9, #4
    8918:	e58d7000 	str	r7, [sp]
    891c:	e3a02001 	mov	r2, #1
    8920:	e58d2004 	str	r2, [sp, #4]
    8924:	e3a0000a 	mov	r0, #10
    8928:	e28d1008 	add	r1, sp, #8
    892c:	e3a02080 	mov	r2, #128	; 0x80
    8930:	ebffff2c 	bl	85e8 <emit>
    8934:	ea00002f 	b	89f8 <va_printk+0x220>
    8938:	e5993000 	ldr	r3, [r9]
    893c:	e2899004 	add	r9, r9, #4
    8940:	e58d7000 	str	r7, [sp]
    8944:	e58db004 	str	fp, [sp, #4]
    8948:	e3a0000a 	mov	r0, #10
    894c:	e28d1008 	add	r1, sp, #8
    8950:	e3a02080 	mov	r2, #128	; 0x80
    8954:	ebffff23 	bl	85e8 <emit>
    8958:	ea000026 	b	89f8 <va_printk+0x220>
    895c:	e5993000 	ldr	r3, [r9]
    8960:	e2899004 	add	r9, r9, #4
    8964:	e58d7000 	str	r7, [sp]
    8968:	e58db004 	str	fp, [sp, #4]
    896c:	e3a00010 	mov	r0, #16
    8970:	e28d1008 	add	r1, sp, #8
    8974:	e3a02080 	mov	r2, #128	; 0x80
    8978:	ebffff1a 	bl	85e8 <emit>
    897c:	ea00001d 	b	89f8 <va_printk+0x220>
    8980:	e5993000 	ldr	r3, [r9]
    8984:	e2899004 	add	r9, r9, #4
    8988:	e58d7000 	str	r7, [sp]
    898c:	e58db004 	str	fp, [sp, #4]
    8990:	e3a00002 	mov	r0, #2
    8994:	e28d1008 	add	r1, sp, #8
    8998:	e3a02080 	mov	r2, #128	; 0x80
    899c:	ebffff11 	bl	85e8 <emit>
    89a0:	ea000014 	b	89f8 <va_printk+0x220>
    89a4:	e5990000 	ldr	r0, [r9]
    89a8:	e2899004 	add	r9, r9, #4
    89ac:	ea000011 	b	89f8 <va_printk+0x220>
    89b0:	e5993000 	ldr	r3, [r9]
    89b4:	e2899004 	add	r9, r9, #4
    89b8:	e58d7000 	str	r7, [sp]
    89bc:	e58db004 	str	fp, [sp, #4]
    89c0:	e3a00008 	mov	r0, #8
    89c4:	e08d1000 	add	r1, sp, r0
    89c8:	e3a02080 	mov	r2, #128	; 0x80
    89cc:	ebffff05 	bl	85e8 <emit>
    89d0:	ea000008 	b	89f8 <va_printk+0x220>
    89d4:	ebfffecc 	bl	850c <rpi_reset_putc>
    89d8:	e5d63000 	ldrb	r3, [r6]
    89dc:	e58d3000 	str	r3, [sp]
    89e0:	e59f0074 	ldr	r0, [pc, #116]	; 8a5c <va_printk+0x284>
    89e4:	e59f1064 	ldr	r1, [pc, #100]	; 8a50 <va_printk+0x278>
    89e8:	e59f2064 	ldr	r2, [pc, #100]	; 8a54 <va_printk+0x27c>
    89ec:	e3a030b9 	mov	r3, #185	; 0xb9
    89f0:	ebfffeaa 	bl	84a0 <printk>
    89f4:	eb000019 	bl	8a60 <clean_reboot>
    89f8:	e2862001 	add	r2, r6, #1
    89fc:	ea000002 	b	8a0c <va_printk+0x234>
    8a00:	e2800001 	add	r0, r0, #1
    8a04:	e5c43000 	strb	r3, [r4]
    8a08:	e2844001 	add	r4, r4, #1
    8a0c:	e1540008 	cmp	r4, r8
    8a10:	2a000002 	bcs	8a20 <va_printk+0x248>
    8a14:	e5d03000 	ldrb	r3, [r0]
    8a18:	e3530000 	cmp	r3, #0
    8a1c:	1afffff7 	bne	8a00 <va_printk+0x228>
    8a20:	e5d23000 	ldrb	r3, [r2]
    8a24:	e3530000 	cmp	r3, #0
    8a28:	0a000001 	beq	8a34 <va_printk+0x25c>
    8a2c:	e1540008 	cmp	r4, r8
    8a30:	3affff73 	bcc	8804 <va_printk+0x2c>
    8a34:	e2840001 	add	r0, r4, #1
    8a38:	e3a03000 	mov	r3, #0
    8a3c:	e5c43000 	strb	r3, [r4]
    8a40:	e06a0000 	rsb	r0, sl, r0
    8a44:	e28dd08c 	add	sp, sp, #140	; 0x8c
    8a48:	e8bd8ff0 	pop	{r4, r5, r6, r7, r8, r9, sl, fp, pc}
    8a4c:	00009634 	andeq	r9, r0, r4, lsr r6
    8a50:	000095e4 	andeq	r9, r0, r4, ror #11
    8a54:	000095c4 	andeq	r9, r0, r4, asr #11
    8a58:	00009650 	andeq	r9, r0, r0, asr r6
    8a5c:	00009678 	andeq	r9, r0, r8, ror r6

00008a60 <clean_reboot>:
    8a60:	e92d4008 	push	{r3, lr}
    8a64:	e59f3014 	ldr	r3, [pc, #20]	; 8a80 <clean_reboot+0x20>
    8a68:	e5933000 	ldr	r3, [r3]
    8a6c:	e59f0010 	ldr	r0, [pc, #16]	; 8a84 <clean_reboot+0x24>
    8a70:	e12fff33 	blx	r3
    8a74:	e3a00064 	mov	r0, #100	; 0x64
    8a78:	eb000044 	bl	8b90 <delay_ms>
    8a7c:	eb000019 	bl	8ae8 <rpi_reboot>
    8a80:	00009314 	andeq	r9, r0, r4, lsl r3
    8a84:	000096b0 			; <UNDEFINED> instruction: 0x000096b0

00008a88 <_cstart>:
    8a88:	e92d4008 	push	{r3, lr}
    8a8c:	e59f3020 	ldr	r3, [pc, #32]	; 8ab4 <_cstart+0x2c>
    8a90:	e59f2020 	ldr	r2, [pc, #32]	; 8ab8 <_cstart+0x30>
    8a94:	e3a01000 	mov	r1, #0
    8a98:	ea000001 	b	8aa4 <_cstart+0x1c>
    8a9c:	e5831000 	str	r1, [r3]
    8aa0:	e2833004 	add	r3, r3, #4
    8aa4:	e1530002 	cmp	r3, r2
    8aa8:	3afffffb 	bcc	8a9c <_cstart+0x14>
    8aac:	ebfffd88 	bl	80d4 <notmain>
    8ab0:	eb00000c 	bl	8ae8 <rpi_reboot>
    8ab4:	000096bc 			; <UNDEFINED> instruction: 0x000096bc
    8ab8:	00009ac0 	andeq	r9, r0, r0, asr #21

00008abc <at_user_level>:
    8abc:	e10f0000 	mrs	r0, CPSR
    8ac0:	e200001f 	and	r0, r0, #31
    8ac4:	e3500010 	cmp	r0, #16
    8ac8:	13a00000 	movne	r0, #0
    8acc:	03a00001 	moveq	r0, #1
    8ad0:	e12fff1e 	bx	lr

00008ad4 <set_user_level>:
    8ad4:	e10f3000 	mrs	r3, CPSR
    8ad8:	e3c3301f 	bic	r3, r3, #31
    8adc:	e3833010 	orr	r3, r3, #16
    8ae0:	e129f003 	msr	CPSR_fc, r3
    8ae4:	e12fff1e 	bx	lr

00008ae8 <rpi_reboot>:
    8ae8:	e92d4008 	push	{r3, lr}
    8aec:	ebfffff2 	bl	8abc <at_user_level>
    8af0:	e3500000 	cmp	r0, #0
    8af4:	0a000000 	beq	8afc <rpi_reboot+0x14>
    8af8:	ebfffff5 	bl	8ad4 <set_user_level>
    8afc:	e3a0001e 	mov	r0, #30
    8b00:	eb000022 	bl	8b90 <delay_ms>
    8b04:	e59f0014 	ldr	r0, [pc, #20]	; 8b20 <rpi_reboot+0x38>
    8b08:	e59f1014 	ldr	r1, [pc, #20]	; 8b24 <rpi_reboot+0x3c>
    8b0c:	eb0001ee 	bl	92cc <PUT32>
    8b10:	e59f0010 	ldr	r0, [pc, #16]	; 8b28 <rpi_reboot+0x40>
    8b14:	e59f1010 	ldr	r1, [pc, #16]	; 8b2c <rpi_reboot+0x44>
    8b18:	eb0001eb 	bl	92cc <PUT32>
    8b1c:	eafffffe 	b	8b1c <rpi_reboot+0x34>
    8b20:	20100024 	andscs	r0, r0, r4, lsr #32
    8b24:	5a000001 	bpl	8b30 <delay_cycles>
    8b28:	2010001c 	andscs	r0, r0, ip, lsl r0
    8b2c:	5a000020 	bpl	8bb4 <delay_sec+0x10>

00008b30 <delay_cycles>:
    8b30:	ea000001 	b	8b3c <delay_cycles+0xc>
    8b34:	e2811000 	add	r1, r1, #0
    8b38:	e1a00003 	mov	r0, r3
    8b3c:	e2403001 	sub	r3, r0, #1
    8b40:	e3500000 	cmp	r0, #0
    8b44:	1afffffa 	bne	8b34 <delay_cycles+0x4>
    8b48:	e12fff1e 	bx	lr

00008b4c <timer_get_usec_raw>:
    8b4c:	e92d4008 	push	{r3, lr}
    8b50:	e59f0004 	ldr	r0, [pc, #4]	; 8b5c <timer_get_usec_raw+0x10>
    8b54:	eb0001e8 	bl	92fc <GET32>
    8b58:	e8bd8008 	pop	{r3, pc}
    8b5c:	20003004 	andcs	r3, r0, r4

00008b60 <timer_get_usec>:
    8b60:	e92d4008 	push	{r3, lr}
    8b64:	ebfffff8 	bl	8b4c <timer_get_usec_raw>
    8b68:	e8bd8008 	pop	{r3, pc}

00008b6c <delay_us>:
    8b6c:	e92d4038 	push	{r3, r4, r5, lr}
    8b70:	e1a05000 	mov	r5, r0
    8b74:	ebfffff9 	bl	8b60 <timer_get_usec>
    8b78:	e1a04000 	mov	r4, r0
    8b7c:	ebfffff7 	bl	8b60 <timer_get_usec>
    8b80:	e0640000 	rsb	r0, r4, r0
    8b84:	e1500005 	cmp	r0, r5
    8b88:	3afffffb 	bcc	8b7c <delay_us+0x10>
    8b8c:	e8bd8038 	pop	{r3, r4, r5, pc}

00008b90 <delay_ms>:
    8b90:	e92d4008 	push	{r3, lr}
    8b94:	e3a03ffa 	mov	r3, #1000	; 0x3e8
    8b98:	e0000093 	mul	r0, r3, r0
    8b9c:	ebfffff2 	bl	8b6c <delay_us>
    8ba0:	e8bd8008 	pop	{r3, pc}

00008ba4 <delay_sec>:
    8ba4:	e92d4008 	push	{r3, lr}
    8ba8:	e3a03ffa 	mov	r3, #1000	; 0x3e8
    8bac:	e0000093 	mul	r0, r3, r0
    8bb0:	ebfffff6 	bl	8b90 <delay_ms>
    8bb4:	e8bd8008 	pop	{r3, pc}

00008bb8 <gpio_set_output>:
    8bb8:	e92d4038 	push	{r3, r4, r5, lr}
    8bbc:	e1a04000 	mov	r4, r0
    8bc0:	e350001f 	cmp	r0, #31
    8bc4:	88bd8038 	pophi	{r3, r4, r5, pc}
    8bc8:	e59f30b4 	ldr	r3, [pc, #180]	; 8c84 <gpio_set_output+0xcc>
    8bcc:	e0832093 	umull	r2, r3, r3, r0
    8bd0:	e1a031a3 	lsr	r3, r3, #3
    8bd4:	e3530005 	cmp	r3, #5
    8bd8:	979ff103 	ldrls	pc, [pc, r3, lsl #2]
    8bdc:	ea000017 	b	8c40 <gpio_set_output+0x88>
    8be0:	00008bf8 	strdeq	r8, [r0], -r8	; <UNPREDICTABLE>
    8be4:	00008c04 	andeq	r8, r0, r4, lsl #24
    8be8:	00008c10 	andeq	r8, r0, r0, lsl ip
    8bec:	00008c1c 	andeq	r8, r0, ip, lsl ip
    8bf0:	00008c28 	andeq	r8, r0, r8, lsr #24
    8bf4:	00008c34 	andeq	r8, r0, r4, lsr ip
    8bf8:	e59f3088 	ldr	r3, [pc, #136]	; 8c88 <gpio_set_output+0xd0>
    8bfc:	e5935000 	ldr	r5, [r3]
    8c00:	ea00000f 	b	8c44 <gpio_set_output+0x8c>
    8c04:	e59f307c 	ldr	r3, [pc, #124]	; 8c88 <gpio_set_output+0xd0>
    8c08:	e5935004 	ldr	r5, [r3, #4]
    8c0c:	ea00000c 	b	8c44 <gpio_set_output+0x8c>
    8c10:	e59f3070 	ldr	r3, [pc, #112]	; 8c88 <gpio_set_output+0xd0>
    8c14:	e5935008 	ldr	r5, [r3, #8]
    8c18:	ea000009 	b	8c44 <gpio_set_output+0x8c>
    8c1c:	e59f3064 	ldr	r3, [pc, #100]	; 8c88 <gpio_set_output+0xd0>
    8c20:	e593500c 	ldr	r5, [r3, #12]
    8c24:	ea000006 	b	8c44 <gpio_set_output+0x8c>
    8c28:	e59f3058 	ldr	r3, [pc, #88]	; 8c88 <gpio_set_output+0xd0>
    8c2c:	e5935010 	ldr	r5, [r3, #16]
    8c30:	ea000003 	b	8c44 <gpio_set_output+0x8c>
    8c34:	e59f304c 	ldr	r3, [pc, #76]	; 8c88 <gpio_set_output+0xd0>
    8c38:	e5935014 	ldr	r5, [r3, #20]
    8c3c:	ea000000 	b	8c44 <gpio_set_output+0x8c>
    8c40:	e3a05000 	mov	r5, #0
    8c44:	e1a00005 	mov	r0, r5
    8c48:	eb0001a9 	bl	92f4 <get32>
    8c4c:	e59f1030 	ldr	r1, [pc, #48]	; 8c84 <gpio_set_output+0xcc>
    8c50:	e0813491 	umull	r3, r1, r1, r4
    8c54:	e1a011a1 	lsr	r1, r1, #3
    8c58:	e0811101 	add	r1, r1, r1, lsl #2
    8c5c:	e1a01081 	lsl	r1, r1, #1
    8c60:	e0611004 	rsb	r1, r1, r4
    8c64:	e0811081 	add	r1, r1, r1, lsl #1
    8c68:	e3a03007 	mov	r3, #7
    8c6c:	e1c03113 	bic	r3, r0, r3, lsl r1
    8c70:	e1a00005 	mov	r0, r5
    8c74:	e3a02001 	mov	r2, #1
    8c78:	e1831112 	orr	r1, r3, r2, lsl r1
    8c7c:	eb000190 	bl	92c4 <put32>
    8c80:	e8bd8038 	pop	{r3, r4, r5, pc}
    8c84:	cccccccd 	stclgt	12, cr12, [ip], {205}	; 0xcd
    8c88:	00009318 	andeq	r9, r0, r8, lsl r3

00008c8c <gpio_set_on>:
    8c8c:	e92d4008 	push	{r3, lr}
    8c90:	e350001f 	cmp	r0, #31
    8c94:	88bd8008 	pophi	{r3, pc}
    8c98:	959f3020 	ldrls	r3, [pc, #32]	; 8cc0 <gpio_set_on+0x34>
    8c9c:	95932018 	ldrls	r2, [r3, #24]
    8ca0:	859f3018 	ldrhi	r3, [pc, #24]	; 8cc0 <gpio_set_on+0x34>
    8ca4:	8593201c 	ldrhi	r2, [r3, #28]
    8ca8:	e200301f 	and	r3, r0, #31
    8cac:	e1a00002 	mov	r0, r2
    8cb0:	e3a01001 	mov	r1, #1
    8cb4:	e1a01311 	lsl	r1, r1, r3
    8cb8:	eb000181 	bl	92c4 <put32>
    8cbc:	e8bd8008 	pop	{r3, pc}
    8cc0:	00009318 	andeq	r9, r0, r8, lsl r3

00008cc4 <gpio_set_off>:
    8cc4:	e92d4008 	push	{r3, lr}
    8cc8:	e350001f 	cmp	r0, #31
    8ccc:	88bd8008 	pophi	{r3, pc}
    8cd0:	959f3020 	ldrls	r3, [pc, #32]	; 8cf8 <gpio_set_off+0x34>
    8cd4:	95932020 	ldrls	r2, [r3, #32]
    8cd8:	859f3018 	ldrhi	r3, [pc, #24]	; 8cf8 <gpio_set_off+0x34>
    8cdc:	85932024 	ldrhi	r2, [r3, #36]	; 0x24
    8ce0:	e200301f 	and	r3, r0, #31
    8ce4:	e1a00002 	mov	r0, r2
    8ce8:	e3a01001 	mov	r1, #1
    8cec:	e1a01311 	lsl	r1, r1, r3
    8cf0:	eb000173 	bl	92c4 <put32>
    8cf4:	e8bd8008 	pop	{r3, pc}
    8cf8:	00009318 	andeq	r9, r0, r8, lsl r3

00008cfc <gpio_set_input>:
    8cfc:	e92d4038 	push	{r3, r4, r5, lr}
    8d00:	e1a04000 	mov	r4, r0
    8d04:	e350001f 	cmp	r0, #31
    8d08:	88bd8038 	pophi	{r3, r4, r5, pc}
    8d0c:	e59f30ac 	ldr	r3, [pc, #172]	; 8dc0 <gpio_set_input+0xc4>
    8d10:	e0832093 	umull	r2, r3, r3, r0
    8d14:	e1a031a3 	lsr	r3, r3, #3
    8d18:	e3530005 	cmp	r3, #5
    8d1c:	979ff103 	ldrls	pc, [pc, r3, lsl #2]
    8d20:	ea000017 	b	8d84 <gpio_set_input+0x88>
    8d24:	00008d3c 	andeq	r8, r0, ip, lsr sp
    8d28:	00008d48 	andeq	r8, r0, r8, asr #26
    8d2c:	00008d54 	andeq	r8, r0, r4, asr sp
    8d30:	00008d60 	andeq	r8, r0, r0, ror #26
    8d34:	00008d6c 	andeq	r8, r0, ip, ror #26
    8d38:	00008d78 	andeq	r8, r0, r8, ror sp
    8d3c:	e59f3080 	ldr	r3, [pc, #128]	; 8dc4 <gpio_set_input+0xc8>
    8d40:	e5935000 	ldr	r5, [r3]
    8d44:	ea00000f 	b	8d88 <gpio_set_input+0x8c>
    8d48:	e59f3074 	ldr	r3, [pc, #116]	; 8dc4 <gpio_set_input+0xc8>
    8d4c:	e5935004 	ldr	r5, [r3, #4]
    8d50:	ea00000c 	b	8d88 <gpio_set_input+0x8c>
    8d54:	e59f3068 	ldr	r3, [pc, #104]	; 8dc4 <gpio_set_input+0xc8>
    8d58:	e5935008 	ldr	r5, [r3, #8]
    8d5c:	ea000009 	b	8d88 <gpio_set_input+0x8c>
    8d60:	e59f305c 	ldr	r3, [pc, #92]	; 8dc4 <gpio_set_input+0xc8>
    8d64:	e593500c 	ldr	r5, [r3, #12]
    8d68:	ea000006 	b	8d88 <gpio_set_input+0x8c>
    8d6c:	e59f3050 	ldr	r3, [pc, #80]	; 8dc4 <gpio_set_input+0xc8>
    8d70:	e5935010 	ldr	r5, [r3, #16]
    8d74:	ea000003 	b	8d88 <gpio_set_input+0x8c>
    8d78:	e59f3044 	ldr	r3, [pc, #68]	; 8dc4 <gpio_set_input+0xc8>
    8d7c:	e5935014 	ldr	r5, [r3, #20]
    8d80:	ea000000 	b	8d88 <gpio_set_input+0x8c>
    8d84:	e3a05000 	mov	r5, #0
    8d88:	e1a00005 	mov	r0, r5
    8d8c:	eb000158 	bl	92f4 <get32>
    8d90:	e59f1028 	ldr	r1, [pc, #40]	; 8dc0 <gpio_set_input+0xc4>
    8d94:	e0813491 	umull	r3, r1, r1, r4
    8d98:	e1a011a1 	lsr	r1, r1, #3
    8d9c:	e0811101 	add	r1, r1, r1, lsl #2
    8da0:	e1a01081 	lsl	r1, r1, #1
    8da4:	e0611004 	rsb	r1, r1, r4
    8da8:	e0811081 	add	r1, r1, r1, lsl #1
    8dac:	e3a03007 	mov	r3, #7
    8db0:	e1c01113 	bic	r1, r0, r3, lsl r1
    8db4:	e1a00005 	mov	r0, r5
    8db8:	eb000141 	bl	92c4 <put32>
    8dbc:	e8bd8038 	pop	{r3, r4, r5, pc}
    8dc0:	cccccccd 	stclgt	12, cr12, [ip], {205}	; 0xcd
    8dc4:	00009318 	andeq	r9, r0, r8, lsl r3

00008dc8 <gpio_read>:
    8dc8:	e92d4010 	push	{r4, lr}
    8dcc:	e1a04000 	mov	r4, r0
    8dd0:	e350001f 	cmp	r0, #31
    8dd4:	8a00000b 	bhi	8e08 <gpio_read+0x40>
    8dd8:	8a000003 	bhi	8dec <gpio_read+0x24>
    8ddc:	e59f302c 	ldr	r3, [pc, #44]	; 8e10 <gpio_read+0x48>
    8de0:	e5930028 	ldr	r0, [r3, #40]	; 0x28
    8de4:	eb000142 	bl	92f4 <get32>
    8de8:	ea000002 	b	8df8 <gpio_read+0x30>
    8dec:	e59f301c 	ldr	r3, [pc, #28]	; 8e10 <gpio_read+0x48>
    8df0:	e593002c 	ldr	r0, [r3, #44]	; 0x2c
    8df4:	eb00013e 	bl	92f4 <get32>
    8df8:	e204401f 	and	r4, r4, #31
    8dfc:	e3a03001 	mov	r3, #1
    8e00:	e0000413 	and	r0, r0, r3, lsl r4
    8e04:	e8bd8010 	pop	{r4, pc}
    8e08:	e3e00000 	mvn	r0, #0
    8e0c:	e8bd8010 	pop	{r4, pc}
    8e10:	00009318 	andeq	r9, r0, r8, lsl r3

00008e14 <gpio_write>:
    8e14:	e92d4008 	push	{r3, lr}
    8e18:	e350001f 	cmp	r0, #31
    8e1c:	88bd8008 	pophi	{r3, pc}
    8e20:	e3510000 	cmp	r1, #0
    8e24:	0a000001 	beq	8e30 <gpio_write+0x1c>
    8e28:	ebffff97 	bl	8c8c <gpio_set_on>
    8e2c:	e8bd8008 	pop	{r3, pc}
    8e30:	ebffffa3 	bl	8cc4 <gpio_set_off>
    8e34:	e8bd8008 	pop	{r3, pc}

00008e38 <gpio_set_function>:
    8e38:	e92d4070 	push	{r4, r5, r6, lr}
    8e3c:	e1a04000 	mov	r4, r0
    8e40:	e1a05001 	mov	r5, r1
    8e44:	e3510007 	cmp	r1, #7
    8e48:	9350001f 	cmpls	r0, #31
    8e4c:	88bd8070 	pophi	{r4, r5, r6, pc}
    8e50:	e59f30b0 	ldr	r3, [pc, #176]	; 8f08 <gpio_set_function+0xd0>
    8e54:	e0832093 	umull	r2, r3, r3, r0
    8e58:	e1a031a3 	lsr	r3, r3, #3
    8e5c:	e3530005 	cmp	r3, #5
    8e60:	979ff103 	ldrls	pc, [pc, r3, lsl #2]
    8e64:	ea000017 	b	8ec8 <gpio_set_function+0x90>
    8e68:	00008e80 	andeq	r8, r0, r0, lsl #29
    8e6c:	00008e8c 	andeq	r8, r0, ip, lsl #29
    8e70:	00008e98 	muleq	r0, r8, lr
    8e74:	00008ea4 	andeq	r8, r0, r4, lsr #29
    8e78:	00008eb0 			; <UNDEFINED> instruction: 0x00008eb0
    8e7c:	00008ebc 			; <UNDEFINED> instruction: 0x00008ebc
    8e80:	e59f3084 	ldr	r3, [pc, #132]	; 8f0c <gpio_set_function+0xd4>
    8e84:	e5936000 	ldr	r6, [r3]
    8e88:	ea00000f 	b	8ecc <gpio_set_function+0x94>
    8e8c:	e59f3078 	ldr	r3, [pc, #120]	; 8f0c <gpio_set_function+0xd4>
    8e90:	e5936004 	ldr	r6, [r3, #4]
    8e94:	ea00000c 	b	8ecc <gpio_set_function+0x94>
    8e98:	e59f306c 	ldr	r3, [pc, #108]	; 8f0c <gpio_set_function+0xd4>
    8e9c:	e5936008 	ldr	r6, [r3, #8]
    8ea0:	ea000009 	b	8ecc <gpio_set_function+0x94>
    8ea4:	e59f3060 	ldr	r3, [pc, #96]	; 8f0c <gpio_set_function+0xd4>
    8ea8:	e593600c 	ldr	r6, [r3, #12]
    8eac:	ea000006 	b	8ecc <gpio_set_function+0x94>
    8eb0:	e59f3054 	ldr	r3, [pc, #84]	; 8f0c <gpio_set_function+0xd4>
    8eb4:	e5936010 	ldr	r6, [r3, #16]
    8eb8:	ea000003 	b	8ecc <gpio_set_function+0x94>
    8ebc:	e59f3048 	ldr	r3, [pc, #72]	; 8f0c <gpio_set_function+0xd4>
    8ec0:	e5936014 	ldr	r6, [r3, #20]
    8ec4:	ea000000 	b	8ecc <gpio_set_function+0x94>
    8ec8:	e3a06000 	mov	r6, #0
    8ecc:	e1a00006 	mov	r0, r6
    8ed0:	eb000107 	bl	92f4 <get32>
    8ed4:	e59f302c 	ldr	r3, [pc, #44]	; 8f08 <gpio_set_function+0xd0>
    8ed8:	e0832493 	umull	r2, r3, r3, r4
    8edc:	e1a031a3 	lsr	r3, r3, #3
    8ee0:	e0833103 	add	r3, r3, r3, lsl #2
    8ee4:	e1a03083 	lsl	r3, r3, #1
    8ee8:	e0633004 	rsb	r3, r3, r4
    8eec:	e0833083 	add	r3, r3, r3, lsl #1
    8ef0:	e3a01007 	mov	r1, #7
    8ef4:	e1c01311 	bic	r1, r0, r1, lsl r3
    8ef8:	e1a00006 	mov	r0, r6
    8efc:	e1811315 	orr	r1, r1, r5, lsl r3
    8f00:	eb0000ef 	bl	92c4 <put32>
    8f04:	e8bd8070 	pop	{r4, r5, r6, pc}
    8f08:	cccccccd 	stclgt	12, cr12, [ip], {205}	; 0xcd
    8f0c:	00009318 	andeq	r9, r0, r8, lsl r3

00008f10 <gpio_toggle>:
    8f10:	e92d4008 	push	{r3, lr}
    8f14:	e350001f 	cmp	r0, #31
    8f18:	88bd8008 	pophi	{r3, pc}
    8f1c:	959f3020 	ldrls	r3, [pc, #32]	; 8f44 <gpio_toggle+0x34>
    8f20:	95932018 	ldrls	r2, [r3, #24]
    8f24:	859f3018 	ldrhi	r3, [pc, #24]	; 8f44 <gpio_toggle+0x34>
    8f28:	8593201c 	ldrhi	r2, [r3, #28]
    8f2c:	e200301f 	and	r3, r0, #31
    8f30:	e1a00002 	mov	r0, r2
    8f34:	e3a01001 	mov	r1, #1
    8f38:	e1a01311 	lsl	r1, r1, r3
    8f3c:	eb0000e0 	bl	92c4 <put32>
    8f40:	e8bd8008 	pop	{r3, pc}
    8f44:	00009318 	andeq	r9, r0, r8, lsl r3

00008f48 <is_gpio_int>:
    8f48:	e92d4008 	push	{r3, lr}
    8f4c:	e59f301c 	ldr	r3, [pc, #28]	; 8f70 <is_gpio_int+0x28>
    8f50:	e5930030 	ldr	r0, [r3, #48]	; 0x30
    8f54:	eb0000e6 	bl	92f4 <get32>
    8f58:	e3500000 	cmp	r0, #0
    8f5c:	0a000001 	beq	8f68 <is_gpio_int+0x20>
    8f60:	e3a00001 	mov	r0, #1
    8f64:	e8bd8008 	pop	{r3, pc}
    8f68:	e3a00000 	mov	r0, #0
    8f6c:	e8bd8008 	pop	{r3, pc}
    8f70:	00009318 	andeq	r9, r0, r8, lsl r3

00008f74 <gpio_int_rising_edge>:
    8f74:	e92d4038 	push	{r3, r4, r5, lr}
    8f78:	e1a04000 	mov	r4, r0
    8f7c:	e350001f 	cmp	r0, #31
    8f80:	88bd8038 	pophi	{r3, r4, r5, pc}
    8f84:	eb0000c8 	bl	92ac <dev_barrier>
    8f88:	e354001f 	cmp	r4, #31
    8f8c:	8a000007 	bhi	8fb0 <gpio_int_rising_edge+0x3c>
    8f90:	e59f505c 	ldr	r5, [pc, #92]	; 8ff4 <gpio_int_rising_edge+0x80>
    8f94:	e5950034 	ldr	r0, [r5, #52]	; 0x34
    8f98:	eb0000d5 	bl	92f4 <get32>
    8f9c:	e3a01001 	mov	r1, #1
    8fa0:	e1801411 	orr	r1, r0, r1, lsl r4
    8fa4:	e5950034 	ldr	r0, [r5, #52]	; 0x34
    8fa8:	eb0000c5 	bl	92c4 <put32>
    8fac:	ea000007 	b	8fd0 <gpio_int_rising_edge+0x5c>
    8fb0:	e59f503c 	ldr	r5, [pc, #60]	; 8ff4 <gpio_int_rising_edge+0x80>
    8fb4:	e5950038 	ldr	r0, [r5, #56]	; 0x38
    8fb8:	eb0000cd 	bl	92f4 <get32>
    8fbc:	e204401f 	and	r4, r4, #31
    8fc0:	e3a01001 	mov	r1, #1
    8fc4:	e1801411 	orr	r1, r0, r1, lsl r4
    8fc8:	e5950038 	ldr	r0, [r5, #56]	; 0x38
    8fcc:	eb0000bc 	bl	92c4 <put32>
    8fd0:	eb0000b5 	bl	92ac <dev_barrier>
    8fd4:	e59f4018 	ldr	r4, [pc, #24]	; 8ff4 <gpio_int_rising_edge+0x80>
    8fd8:	e594003c 	ldr	r0, [r4, #60]	; 0x3c
    8fdc:	eb0000c4 	bl	92f4 <get32>
    8fe0:	e3801802 	orr	r1, r0, #131072	; 0x20000
    8fe4:	e594003c 	ldr	r0, [r4, #60]	; 0x3c
    8fe8:	eb0000b5 	bl	92c4 <put32>
    8fec:	eb0000ae 	bl	92ac <dev_barrier>
    8ff0:	e8bd8038 	pop	{r3, r4, r5, pc}
    8ff4:	00009318 	andeq	r9, r0, r8, lsl r3

00008ff8 <gpio_int_falling_edge>:
    8ff8:	e92d4038 	push	{r3, r4, r5, lr}
    8ffc:	e1a04000 	mov	r4, r0
    9000:	e350001f 	cmp	r0, #31
    9004:	88bd8038 	pophi	{r3, r4, r5, pc}
    9008:	eb0000a7 	bl	92ac <dev_barrier>
    900c:	e354001f 	cmp	r4, #31
    9010:	8a000007 	bhi	9034 <gpio_int_falling_edge+0x3c>
    9014:	e59f505c 	ldr	r5, [pc, #92]	; 9078 <gpio_int_falling_edge+0x80>
    9018:	e5950040 	ldr	r0, [r5, #64]	; 0x40
    901c:	eb0000b4 	bl	92f4 <get32>
    9020:	e3a01001 	mov	r1, #1
    9024:	e1801411 	orr	r1, r0, r1, lsl r4
    9028:	e5950040 	ldr	r0, [r5, #64]	; 0x40
    902c:	eb0000a4 	bl	92c4 <put32>
    9030:	ea000007 	b	9054 <gpio_int_falling_edge+0x5c>
    9034:	e59f503c 	ldr	r5, [pc, #60]	; 9078 <gpio_int_falling_edge+0x80>
    9038:	e5950044 	ldr	r0, [r5, #68]	; 0x44
    903c:	eb0000ac 	bl	92f4 <get32>
    9040:	e204401f 	and	r4, r4, #31
    9044:	e3a01001 	mov	r1, #1
    9048:	e1801411 	orr	r1, r0, r1, lsl r4
    904c:	e5950044 	ldr	r0, [r5, #68]	; 0x44
    9050:	eb00009b 	bl	92c4 <put32>
    9054:	eb000094 	bl	92ac <dev_barrier>
    9058:	e59f4018 	ldr	r4, [pc, #24]	; 9078 <gpio_int_falling_edge+0x80>
    905c:	e594003c 	ldr	r0, [r4, #60]	; 0x3c
    9060:	eb0000a3 	bl	92f4 <get32>
    9064:	e3801601 	orr	r1, r0, #1048576	; 0x100000
    9068:	e594003c 	ldr	r0, [r4, #60]	; 0x3c
    906c:	eb000094 	bl	92c4 <put32>
    9070:	eb00008d 	bl	92ac <dev_barrier>
    9074:	e8bd8038 	pop	{r3, r4, r5, pc}
    9078:	00009318 	andeq	r9, r0, r8, lsl r3

0000907c <gpio_event_detected>:
    907c:	e92d4010 	push	{r4, lr}
    9080:	e1a04000 	mov	r4, r0
    9084:	e350001f 	cmp	r0, #31
    9088:	8a000019 	bhi	90f4 <gpio_event_detected+0x78>
    908c:	eb000086 	bl	92ac <dev_barrier>
    9090:	e354001f 	cmp	r4, #31
    9094:	8a000008 	bhi	90bc <gpio_event_detected+0x40>
    9098:	e59f305c 	ldr	r3, [pc, #92]	; 90fc <gpio_event_detected+0x80>
    909c:	e5930048 	ldr	r0, [r3, #72]	; 0x48
    90a0:	eb000093 	bl	92f4 <get32>
    90a4:	e3a03001 	mov	r3, #1
    90a8:	e0103413 	ands	r3, r0, r3, lsl r4
    90ac:	0a00000d 	beq	90e8 <gpio_event_detected+0x6c>
    90b0:	eb00007d 	bl	92ac <dev_barrier>
    90b4:	e3a00001 	mov	r0, #1
    90b8:	e8bd8010 	pop	{r4, pc}
    90bc:	e59f3038 	ldr	r3, [pc, #56]	; 90fc <gpio_event_detected+0x80>
    90c0:	e593004c 	ldr	r0, [r3, #76]	; 0x4c
    90c4:	eb00008a 	bl	92f4 <get32>
    90c8:	e3a03001 	mov	r3, #1
    90cc:	e0004413 	and	r4, r0, r3, lsl r4
    90d0:	eb000075 	bl	92ac <dev_barrier>
    90d4:	e3540000 	cmp	r4, #0
    90d8:	0a000002 	beq	90e8 <gpio_event_detected+0x6c>
    90dc:	eb000072 	bl	92ac <dev_barrier>
    90e0:	e3a00001 	mov	r0, #1
    90e4:	e8bd8010 	pop	{r4, pc}
    90e8:	eb00006f 	bl	92ac <dev_barrier>
    90ec:	e3a00000 	mov	r0, #0
    90f0:	e8bd8010 	pop	{r4, pc}
    90f4:	e3e00000 	mvn	r0, #0
    90f8:	e8bd8010 	pop	{r4, pc}
    90fc:	00009318 	andeq	r9, r0, r8, lsl r3

00009100 <gpio_event_clear>:
    9100:	e92d4010 	push	{r4, lr}
    9104:	e1a04000 	mov	r4, r0
    9108:	e350001f 	cmp	r0, #31
    910c:	88bd8010 	pophi	{r4, pc}
    9110:	eb000065 	bl	92ac <dev_barrier>
    9114:	e354001f 	cmp	r4, #31
    9118:	8a000005 	bhi	9134 <gpio_event_clear+0x34>
    911c:	e59f3030 	ldr	r3, [pc, #48]	; 9154 <gpio_event_clear+0x54>
    9120:	e5930048 	ldr	r0, [r3, #72]	; 0x48
    9124:	e3a01001 	mov	r1, #1
    9128:	e1a01411 	lsl	r1, r1, r4
    912c:	eb000064 	bl	92c4 <put32>
    9130:	ea000005 	b	914c <gpio_event_clear+0x4c>
    9134:	e204401f 	and	r4, r4, #31
    9138:	e59f3014 	ldr	r3, [pc, #20]	; 9154 <gpio_event_clear+0x54>
    913c:	e593004c 	ldr	r0, [r3, #76]	; 0x4c
    9140:	e3a01001 	mov	r1, #1
    9144:	e1a01411 	lsl	r1, r1, r4
    9148:	eb00005d 	bl	92c4 <put32>
    914c:	eb000056 	bl	92ac <dev_barrier>
    9150:	e8bd8010 	pop	{r4, pc}
    9154:	00009318 	andeq	r9, r0, r8, lsl r3

00009158 <uart_init>:
    9158:	e92d4038 	push	{r3, r4, r5, lr}
    915c:	eb000052 	bl	92ac <dev_barrier>
    9160:	e3a0000e 	mov	r0, #14
    9164:	e3a01002 	mov	r1, #2
    9168:	ebffff32 	bl	8e38 <gpio_set_function>
    916c:	e3a0000f 	mov	r0, #15
    9170:	e3a01002 	mov	r1, #2
    9174:	ebffff2f 	bl	8e38 <gpio_set_function>
    9178:	eb00004b 	bl	92ac <dev_barrier>
    917c:	e59f4068 	ldr	r4, [pc, #104]	; 91ec <uart_init+0x94>
    9180:	e5945000 	ldr	r5, [r4]
    9184:	e1a00005 	mov	r0, r5
    9188:	eb000059 	bl	92f4 <get32>
    918c:	e3801001 	orr	r1, r0, #1
    9190:	e1a00005 	mov	r0, r5
    9194:	eb00004a 	bl	92c4 <put32>
    9198:	eb000043 	bl	92ac <dev_barrier>
    919c:	e5940004 	ldr	r0, [r4, #4]
    91a0:	e3a01000 	mov	r1, #0
    91a4:	eb000046 	bl	92c4 <put32>
    91a8:	e5940008 	ldr	r0, [r4, #8]
    91ac:	e3a01000 	mov	r1, #0
    91b0:	eb000043 	bl	92c4 <put32>
    91b4:	e594000c 	ldr	r0, [r4, #12]
    91b8:	e3a01006 	mov	r1, #6
    91bc:	eb000040 	bl	92c4 <put32>
    91c0:	e5940010 	ldr	r0, [r4, #16]
    91c4:	e3a01003 	mov	r1, #3
    91c8:	eb00003d 	bl	92c4 <put32>
    91cc:	e5940014 	ldr	r0, [r4, #20]
    91d0:	e59f1018 	ldr	r1, [pc, #24]	; 91f0 <uart_init+0x98>
    91d4:	eb00003a 	bl	92c4 <put32>
    91d8:	e5940004 	ldr	r0, [r4, #4]
    91dc:	e3a01003 	mov	r1, #3
    91e0:	eb000037 	bl	92c4 <put32>
    91e4:	eb000030 	bl	92ac <dev_barrier>
    91e8:	e8bd8038 	pop	{r3, r4, r5, pc}
    91ec:	00009378 	andeq	r9, r0, r8, ror r3
    91f0:	0000010e 	andeq	r0, r0, lr, lsl #2

000091f4 <uart_can_getc>:
    91f4:	e92d4008 	push	{r3, lr}
    91f8:	e59f300c 	ldr	r3, [pc, #12]	; 920c <uart_can_getc+0x18>
    91fc:	e5930018 	ldr	r0, [r3, #24]
    9200:	eb00003b 	bl	92f4 <get32>
    9204:	e2000001 	and	r0, r0, #1
    9208:	e8bd8008 	pop	{r3, pc}
    920c:	00009378 	andeq	r9, r0, r8, ror r3

00009210 <uart_getc>:
    9210:	e92d4008 	push	{r3, lr}
    9214:	ebfffff6 	bl	91f4 <uart_can_getc>
    9218:	e3500000 	cmp	r0, #0
    921c:	0afffffc 	beq	9214 <uart_getc+0x4>
    9220:	e59f300c 	ldr	r3, [pc, #12]	; 9234 <uart_getc+0x24>
    9224:	e593001c 	ldr	r0, [r3, #28]
    9228:	eb000031 	bl	92f4 <get32>
    922c:	e6ef0070 	uxtb	r0, r0
    9230:	e8bd8008 	pop	{r3, pc}
    9234:	00009378 	andeq	r9, r0, r8, ror r3

00009238 <uart_can_putc>:
    9238:	e92d4008 	push	{r3, lr}
    923c:	e59f300c 	ldr	r3, [pc, #12]	; 9250 <uart_can_putc+0x18>
    9240:	e5930018 	ldr	r0, [r3, #24]
    9244:	eb00002a 	bl	92f4 <get32>
    9248:	e2000020 	and	r0, r0, #32
    924c:	e8bd8008 	pop	{r3, pc}
    9250:	00009378 	andeq	r9, r0, r8, ror r3

00009254 <uart_putc>:
    9254:	e92d4010 	push	{r4, lr}
    9258:	e1a04000 	mov	r4, r0
    925c:	ebfffff5 	bl	9238 <uart_can_putc>
    9260:	e3500000 	cmp	r0, #0
    9264:	0afffffc 	beq	925c <uart_putc+0x8>
    9268:	e59f300c 	ldr	r3, [pc, #12]	; 927c <uart_putc+0x28>
    926c:	e593001c 	ldr	r0, [r3, #28]
    9270:	e1a01004 	mov	r1, r4
    9274:	eb000012 	bl	92c4 <put32>
    9278:	e8bd8010 	pop	{r4, pc}
    927c:	00009378 	andeq	r9, r0, r8, ror r3

00009280 <uart_has_data>:
    9280:	e92d4008 	push	{r3, lr}
    9284:	ebffffda 	bl	91f4 <uart_can_getc>
    9288:	e8bd8008 	pop	{r3, pc}

0000928c <uart_getc_async>:
    928c:	e92d4008 	push	{r3, lr}
    9290:	ebfffffa 	bl	9280 <uart_has_data>
    9294:	e3500000 	cmp	r0, #0
    9298:	0a000001 	beq	92a4 <uart_getc_async+0x18>
    929c:	ebffffdb 	bl	9210 <uart_getc>
    92a0:	e8bd8008 	pop	{r3, pc}
    92a4:	e3e00000 	mvn	r0, #0
    92a8:	e8bd8008 	pop	{r3, pc}

000092ac <dev_barrier>:
    92ac:	ea000002 	b	92bc <dsb>

000092b0 <dmb>:
    92b0:	e3a00000 	mov	r0, #0
    92b4:	ee070fba 	mcr	15, 0, r0, cr7, cr10, {5}
    92b8:	e12fff1e 	bx	lr

000092bc <dsb>:
    92bc:	ee070f9a 	mcr	15, 0, r0, cr7, cr10, {4}
    92c0:	e12fff1e 	bx	lr

000092c4 <put32>:
    92c4:	e5801000 	str	r1, [r0]
    92c8:	e12fff1e 	bx	lr

000092cc <PUT32>:
    92cc:	e5801000 	str	r1, [r0]
    92d0:	e12fff1e 	bx	lr

000092d4 <put16>:
    92d4:	e1c010b0 	strh	r1, [r0]
    92d8:	e12fff1e 	bx	lr

000092dc <PUT16>:
    92dc:	e1c010b0 	strh	r1, [r0]
    92e0:	e12fff1e 	bx	lr

000092e4 <put8>:
    92e4:	e5c01000 	strb	r1, [r0]
    92e8:	e12fff1e 	bx	lr

000092ec <PUT8>:
    92ec:	e5c01000 	strb	r1, [r0]
    92f0:	e12fff1e 	bx	lr

000092f4 <get32>:
    92f4:	e5900000 	ldr	r0, [r0]
    92f8:	e12fff1e 	bx	lr

000092fc <GET32>:
    92fc:	e5900000 	ldr	r0, [r0]
    9300:	e12fff1e 	bx	lr

00009304 <GETPC>:
    9304:	e1a0000e 	mov	r0, lr
    9308:	e12fff1e 	bx	lr

0000930c <dummy>:
    930c:	e12fff1e 	bx	lr

Disassembly of section .data:

00009310 <rpi_putchar>:
    9310:	000084f8 	strdeq	r8, [r0], -r8	; <UNPREDICTABLE>

00009314 <putk>:
    9314:	00008534 	andeq	r8, r0, r4, lsr r5

00009318 <GPFSEL0>:
    9318:	20200000 	eorcs	r0, r0, r0

0000931c <GPFSEL1>:
    931c:	20200004 	eorcs	r0, r0, r4

00009320 <GPFSEL2>:
    9320:	20200008 	eorcs	r0, r0, r8

00009324 <GPFSEL3>:
    9324:	2020000c 	eorcs	r0, r0, ip

00009328 <GPFSEL4>:
    9328:	20200010 	eorcs	r0, r0, r0, lsl r0

0000932c <GPFSEL5>:
    932c:	20200014 	eorcs	r0, r0, r4, lsl r0

00009330 <GPSET0>:
    9330:	2020001c 	eorcs	r0, r0, ip, lsl r0

00009334 <GPSET1>:
    9334:	20200020 	eorcs	r0, r0, r0, lsr #32

00009338 <GPCLR0>:
    9338:	20200028 	eorcs	r0, r0, r8, lsr #32

0000933c <GPCLR1>:
    933c:	2020002c 	eorcs	r0, r0, ip, lsr #32

00009340 <GPLEV0>:
    9340:	20200034 	eorcs	r0, r0, r4, lsr r0

00009344 <GPLEV1>:
    9344:	20200038 	eorcs	r0, r0, r8, lsr r0

00009348 <IRQ_PENDING_2>:
    9348:	2000b208 	andcs	fp, r0, r8, lsl #4

0000934c <GPREN0>:
    934c:	2020004c 	eorcs	r0, r0, ip, asr #32

00009350 <GPREN1>:
    9350:	20200050 	eorcs	r0, r0, r0, asr r0

00009354 <ENABLE_IRQS_2>:
    9354:	2000b214 	andcs	fp, r0, r4, lsl r2

00009358 <GPFEN0>:
    9358:	20200058 	eorcs	r0, r0, r8, asr r0

0000935c <GPFEN1>:
    935c:	2020005c 	eorcs	r0, r0, ip, asr r0

00009360 <GPEDS0>:
    9360:	20200040 	eorcs	r0, r0, r0, asr #32

00009364 <GPEDS1>:
    9364:	20200044 	eorcs	r0, r0, r4, asr #32

00009368 <IRQ_PENDING_1>:
    9368:	2000b204 	andcs	fp, r0, r4, lsl #4

0000936c <gpio_clr0>:
    936c:	20200028 	eorcs	r0, r0, r8, lsr #32

00009370 <gpio_set0>:
    9370:	2020001c 	eorcs	r0, r0, ip, lsl r0

00009374 <gpio_fsel0>:
    9374:	20200000 	eorcs	r0, r0, r0

00009378 <AUX_ENABLES>:
    9378:	20215004 	eorcs	r5, r1, r4

0000937c <AUX_MU_CNTL_REG>:
    937c:	20215060 	eorcs	r5, r1, r0, rrx

00009380 <AUX_MU_IER_REG>:
    9380:	20215044 	eorcs	r5, r1, r4, asr #32

00009384 <AUX_MU_IIR_REG>:
    9384:	20215048 	eorcs	r5, r1, r8, asr #32

00009388 <AUX_MU_LCR_REG>:
    9388:	2021504c 	eorcs	r5, r1, ip, asr #32

0000938c <AUX_MU_BAUD_REG>:
    938c:	20215068 	eorcs	r5, r1, r8, rrx

00009390 <AUX_MU_LSR_REG>:
    9390:	20215054 	eorcs	r5, r1, r4, asr r0

00009394 <AUX_MU_IO_REG>:
    9394:	20215040 	eorcs	r5, r1, r0, asr #32

00009398 <AUX_MU_STAT_REG>:
    9398:	20215064 	eorcs	r5, r1, r4, rrx

0000939c <AUX_MU_SCRATCH>:
    939c:	2021505c 	eorcs	r5, r1, ip, asr r0

000093a0 <AUX_MU_MSR_REG>:
    93a0:	20215058 	eorcs	r5, r1, r8, asr r0

000093a4 <AUX_MU_MCR_REG>:
    93a4:	20215050 	eorcs	r5, r1, r0, asr r0

000093a8 <AUX_IRQ>:
    93a8:	20215000 	eorcs	r5, r1, r0

Disassembly of section .rodata:

000093ac <__FUNCTION__.4248>:
    93ac:	6d746f6e 	ldclvs	15, cr6, [r4, #-440]!	; 0xfffffe48
    93b0:	006e6961 	rsbeq	r6, lr, r1, ror #18
    93b4:	74696e69 	strbtvc	r6, [r9], #-3689	; 0xe69
    93b8:	3a6c6169 	bcc	1b21964 <__bss_end__+0x1b17ea4>
    93bc:	6e6f6320 	cdpvs	3, 6, cr6, cr15, cr0, {1}
    93c0:	20676966 	rsbcs	r6, r7, r6, ror #18
    93c4:	20676572 	rsbcs	r6, r7, r2, ror r5
    93c8:	253d203d 	ldrcs	r2, [sp, #-61]!	; 0x3d
    93cc:	6c282078 	stcvs	0, cr2, [r8], #-480	; 0xfffffe20
    93d0:	62253d6f 	eorvs	r3, r5, #7104	; 0x1bc0
    93d4:	3d69682c 	stclcc	8, cr6, [r9, #-176]!	; 0xffffff50
    93d8:	0a296225 	beq	a61c74 <__bss_end__+0xa581b4>
    93dc:	00000000 	andeq	r0, r0, r0
    93e0:	494e4150 	stmdbmi	lr, {r4, r6, r8, lr}^
    93e4:	73253a43 	teqvc	r5, #274432	; 0x43000
    93e8:	3a73253a 	bcc	1cd28d8 <__bss_end__+0x1cc8e18>
    93ec:	4d3a6425 	cfldrsmi	mvf6, [sl, #-148]!	; 0xffffff6c
    93f0:	5f45444f 	svcpl	0x0045444f
    93f4:	29632856 	stmdbcs	r3!, {r1, r2, r4, r6, fp, sp}^
    93f8:	203d3d20 	eorscs	r3, sp, r0, lsr #26
    93fc:	00000a31 	andeq	r0, r0, r1, lsr sl
    9400:	31636461 	cmncc	r3, r1, ror #8
    9404:	2e353131 	mrccs	1, 1, r3, cr5, cr1, {1}
    9408:	00000063 	andeq	r0, r0, r3, rrx
    940c:	494e4150 	stmdbmi	lr, {r4, r6, r8, lr}^
    9410:	73253a43 	teqvc	r5, #274432	; 0x43000
    9414:	3a73253a 	bcc	1cd2904 <__bss_end__+0x1cc8e44>
    9418:	443a6425 	ldrtmi	r6, [sl], #-1061	; 0x425
    941c:	28565f52 	ldmdacs	r6, {r1, r4, r6, r8, r9, sl, fp, ip, lr}^
    9420:	3d202963 	stccc	9, cr2, [r0, #-396]!	; 0xfffffe74
    9424:	6230203d 	eorsvs	r2, r0, #61	; 0x3d
    9428:	0a303031 	beq	c154f4 <__bss_end__+0xc0ba34>
    942c:	00000000 	andeq	r0, r0, r0
    9430:	494e4150 	stmdbmi	lr, {r4, r6, r8, lr}^
    9434:	73253a43 	teqvc	r5, #274432	; 0x43000
    9438:	3a73253a 	bcc	1cd2928 <__bss_end__+0x1cc8e68>
    943c:	503a6425 	eorspl	r6, sl, r5, lsr #8
    9440:	565f4147 	ldrbpl	r4, [pc], -r7, asr #2
    9444:	20296328 	eorcs	r6, r9, r8, lsr #6
    9448:	30203d3d 	eorcc	r3, r0, sp, lsr sp
    944c:	30313062 	eorscc	r3, r1, r2, rrx
    9450:	0000000a 	andeq	r0, r0, sl
    9454:	494e4150 	stmdbmi	lr, {r4, r6, r8, lr}^
    9458:	73253a43 	teqvc	r5, #274432	; 0x43000
    945c:	3a73253a 	bcc	1cd294c <__bss_end__+0x1cc8e8c>
    9460:	723a6425 	eorsvc	r6, sl, #620756992	; 0x25000000
    9464:	5f646578 	svcpl	0x00646578
    9468:	666e6f63 	strbtvs	r6, [lr], -r3, ror #30
    946c:	3d206769 	stccc	7, cr6, [r0, #-420]!	; 0xfffffe5c
    9470:	7830203d 	ldmdavc	r0!, {r0, r2, r3, r4, r5, sp}
    9474:	33653234 	cmncc	r5, #52, 4	; 0x40000003
    9478:	0000000a 	andeq	r0, r0, sl
    947c:	3d74756f 	cfldr64cc	mvdx7, [r4, #-444]!	; 0xfffffe44
    9480:	000a6425 	andeq	r6, sl, r5, lsr #8

00009484 <__FUNCTION__.4415>:
    9484:	63656863 	cmnvs	r5, #6488064	; 0x630000
    9488:	616c5f6b 	cmnvs	ip, fp, ror #30
    948c:	74756f79 	ldrbtvc	r6, [r5], #-3961	; 0xf79
    9490:	00000000 	andeq	r0, r0, r0
    9494:	494e4150 	stmdbmi	lr, {r4, r6, r8, lr}^
    9498:	73253a43 	teqvc	r5, #274432	; 0x43000
    949c:	3a73253a 	bcc	1cd298c <__bss_end__+0x1cc8ecc>
    94a0:	6f3a6425 	svcvs	0x003a6425
    94a4:	65736666 	ldrbvs	r6, [r3, #-1638]!	; 0x666
    94a8:	72772074 	rsbsvc	r2, r7, #116	; 0x74
    94ac:	3a676e6f 	bcc	19e4e70 <__bss_end__+0x19db3b0>
    94b0:	70786520 	rsbsvc	r6, r8, r0, lsr #10
    94b4:	20746365 	rsbscs	r6, r4, r5, ror #6
    94b8:	67207825 	strvs	r7, [r0, -r5, lsr #16]!
    94bc:	2520746f 	strcs	r7, [r0, #-1135]!	; 0x46f
    94c0:	73252078 	teqvc	r5, #120	; 0x78
    94c4:	666f5b20 	strbtvs	r5, [pc], -r0, lsr #22
    94c8:	64253d66 	strtvs	r3, [r5], #-3430	; 0xd66
    94cc:	69626e2c 	stmdbvs	r2!, {r2, r3, r5, r9, sl, fp, sp, lr}^
    94d0:	253d7374 	ldrcs	r7, [sp, #-884]!	; 0x374
    94d4:	0a0a5d64 	beq	2a0a6c <__bss_end__+0x296fac>
    94d8:	00000000 	andeq	r0, r0, r0
    94dc:	692d796d 	pushvs	{r0, r2, r3, r5, r6, r8, fp, ip, sp, lr}
    94e0:	632e6332 	teqvs	lr, #-939524096	; 0xc8000000
    94e4:	00000000 	andeq	r0, r0, r0
    94e8:	64616572 	strbtvs	r6, [r1], #-1394	; 0x572
    94ec:	00000000 	andeq	r0, r0, r0
    94f0:	494e4150 	stmdbmi	lr, {r4, r6, r8, lr}^
    94f4:	73253a43 	teqvc	r5, #274432	; 0x43000
    94f8:	3a73253a 	bcc	1cd29e8 <__bss_end__+0x1cc8f28>
    94fc:	783a6425 	ldmdavc	sl!, {r0, r2, r5, sl, sp, lr}
    9500:	3d20752e 	cfstr32cc	mvfx7, [r0, #-184]!	; 0xffffff48
    9504:	7865203d 	stmdavc	r5!, {r0, r2, r3, r4, r5, sp}^
    9508:	00000a70 	andeq	r0, r0, r0, ror sl
    950c:	494e4150 	stmdbmi	lr, {r4, r6, r8, lr}^
    9510:	73253a43 	teqvc	r5, #274432	; 0x43000
    9514:	3a73253a 	bcc	1cd2a04 <__bss_end__+0x1cc8f44>
    9518:	773a6425 	ldrvc	r6, [sl, -r5, lsr #8]!
    951c:	68746469 	ldmdavs	r4!, {r0, r3, r5, r6, sl, sp, lr}^
    9520:	6f727720 	svcvs	0x00727720
    9524:	203a676e 	eorscs	r6, sl, lr, ror #14
    9528:	65707865 	ldrbvs	r7, [r0, #-2149]!	; 0x865
    952c:	25207463 	strcs	r7, [r0, #-1123]!	; 0x463
    9530:	6f672078 	svcvs	0x00672078
    9534:	78252074 	stmdavc	r5!, {r2, r4, r5, r6, sp}
    9538:	20732520 	rsbscs	r2, r3, r0, lsr #10
    953c:	66666f5b 	uqsaxvs	r6, r6, fp
    9540:	2c64253d 	cfstr64cs	mvdx2, [r4], #-244	; 0xffffff0c
    9544:	7469626e 	strbtvc	r6, [r9], #-622	; 0x26e
    9548:	64253d73 	strtvs	r3, [r5], #-3443	; 0xd73
    954c:	000a0a5d 	andeq	r0, sl, sp, asr sl
    9550:	61656c63 	cmnvs	r5, r3, ror #24
    9554:	00000072 	andeq	r0, r0, r2, ror r0
    9558:	00007473 	andeq	r7, r0, r3, ror r4
    955c:	64746e69 	ldrbtvs	r6, [r4], #-3689	; 0xe69
    9560:	00000000 	andeq	r0, r0, r0
    9564:	74746e69 	ldrbtvc	r6, [r4], #-3689	; 0xe69
    9568:	00000000 	andeq	r0, r0, r0
    956c:	72746e69 	rsbsvc	r6, r4, #1680	; 0x690
    9570:	00000000 	andeq	r0, r0, r0
    9574:	65633269 	strbvs	r3, [r3, #-617]!	; 0x269
    9578:	0000006e 	andeq	r0, r0, lr, rrx
    957c:	00006174 	andeq	r6, r0, r4, ror r1
    9580:	656e6f64 	strbvs	r6, [lr, #-3940]!	; 0xf64
    9584:	00000000 	andeq	r0, r0, r0
    9588:	00777874 	rsbseq	r7, r7, r4, ror r8
    958c:	00727872 	rsbseq	r7, r2, r2, ror r8
    9590:	00647874 	rsbeq	r7, r4, r4, ror r8
    9594:	00647872 	rsbeq	r7, r4, r2, ror r8
    9598:	00657874 	rsbeq	r7, r5, r4, ror r8
    959c:	00667872 	rsbeq	r7, r6, r2, ror r8
    95a0:	00727265 	rsbseq	r7, r2, r5, ror #4
    95a4:	746b6c63 	strbtvc	r6, [fp], #-3171	; 0xc63
    95a8:	0000006b 	andeq	r0, r0, fp, rrx

000095ac <__FUNCTION__.4271>:
    95ac:	74696d65 	strbtvc	r6, [r9], #-3429	; 0xd65
    95b0:	00000000 	andeq	r0, r0, r0

000095b4 <__FUNCTION__.4219>:
    95b4:	5f697072 	svcpl	0x00697072
    95b8:	5f746573 	svcpl	0x00746573
    95bc:	7074756f 	rsbsvc	r7, r4, pc, ror #10
    95c0:	00007475 	andeq	r7, r0, r5, ror r4

000095c4 <__FUNCTION__.4293>:
    95c4:	705f6176 	subsvc	r6, pc, r6, ror r1	; <UNPREDICTABLE>
    95c8:	746e6972 	strbtvc	r6, [lr], #-2418	; 0x972
    95cc:	0000006b 	andeq	r0, r0, fp, rrx
    95d0:	494e4150 	stmdbmi	lr, {r4, r6, r8, lr}^
    95d4:	73253a43 	teqvc	r5, #274432	; 0x43000
    95d8:	3a73253a 	bcc	1cd2ac8 <__bss_end__+0x1cc9008>
    95dc:	303a6425 	eorscc	r6, sl, r5, lsr #8
    95e0:	0000000a 	andeq	r0, r0, sl
    95e4:	6362696c 	cmnvs	r2, #108, 18	; 0x1b0000
    95e8:	2d61762f 	stclcs	6, cr7, [r1, #-188]!	; 0xffffff44
    95ec:	6e697270 	mcrvs	2, 3, r7, cr9, cr0, {3}
    95f0:	632e6b74 	teqvs	lr, #116, 22	; 0x1d000
    95f4:	00000000 	andeq	r0, r0, r0
    95f8:	33323130 	teqcc	r2, #48, 2
    95fc:	37363534 			; <UNDEFINED> instruction: 0x37363534
    9600:	00003938 	andeq	r3, r0, r8, lsr r9
    9604:	33323130 	teqcc	r2, #48, 2
    9608:	37363534 			; <UNDEFINED> instruction: 0x37363534
    960c:	62613938 	rsbvs	r3, r1, #56, 18	; 0xe0000
    9610:	66656463 	strbtvs	r6, [r5], -r3, ror #8
    9614:	00000000 	andeq	r0, r0, r0
    9618:	00003130 	andeq	r3, r0, r0, lsr r1
    961c:	494e4150 	stmdbmi	lr, {r4, r6, r8, lr}^
    9620:	73253a43 	teqvc	r5, #274432	; 0x43000
    9624:	3a73253a 	bcc	1cd2b14 <__bss_end__+0x1cc9054>
    9628:	703a6425 	eorsvc	r6, sl, r5, lsr #8
    962c:	5f637475 	svcpl	0x00637475
    9630:	000a7066 	andeq	r7, sl, r6, rrx
    9634:	494e4150 	stmdbmi	lr, {r4, r6, r8, lr}^
    9638:	73253a43 	teqvc	r5, #274432	; 0x43000
    963c:	3a73253a 	bcc	1cd2b2c <__bss_end__+0x1cc906c>
    9640:	773a6425 	ldrvc	r6, [sl, -r5, lsr #8]!
    9644:	68746469 	ldmdavs	r4!, {r0, r3, r5, r6, sl, sp, lr}^
    9648:	33203c20 	teqcc	r0, #32, 24	; 0x2000
    964c:	00000a32 	andeq	r0, r0, r2, lsr sl
    9650:	494e4150 	stmdbmi	lr, {r4, r6, r8, lr}^
    9654:	73253a43 	teqvc	r5, #274432	; 0x43000
    9658:	3a73253a 	bcc	1cd2b48 <__bss_end__+0x1cc9088>
    965c:	663a6425 	ldrtvs	r6, [sl], -r5, lsr #8
    9660:	74616f6c 	strbtvc	r6, [r1], #-3948	; 0xf6c
    9664:	746f6e20 	strbtvc	r6, [pc], #-3616	; 966c <__FUNCTION__.4293+0xa8>
    9668:	616e6520 	cmnvs	lr, r0, lsr #10
    966c:	64656c62 	strbtvs	r6, [r5], #-3170	; 0xc62
    9670:	0a212121 	beq	851afc <__bss_end__+0x84803c>
    9674:	00000000 	andeq	r0, r0, r0
    9678:	494e4150 	stmdbmi	lr, {r4, r6, r8, lr}^
    967c:	73253a43 	teqvc	r5, #274432	; 0x43000
    9680:	3a73253a 	bcc	1cd2b70 <__bss_end__+0x1cc90b0>
    9684:	703a6425 	eorsvc	r6, sl, r5, lsr #8
    9688:	746e6972 	strbtvc	r6, [lr], #-2418	; 0x972
    968c:	6e203a6b 	vnmulvs.f32	s6, s0, s23
    9690:	6820746f 	stmdavs	r0!, {r0, r1, r2, r3, r5, r6, sl, ip, sp, lr}
    9694:	6c646e61 	stclvs	14, cr6, [r4], #-388	; 0xfffffe7c
    9698:	20676e69 	rsbcs	r6, r7, r9, ror #28
    969c:	63657073 	cmnvs	r5, #115	; 0x73
    96a0:	65696669 	strbvs	r6, [r9, #-1641]!	; 0x669
    96a4:	25272072 	strcs	r2, [r7, #-114]!	; 0x72
    96a8:	0a0a2763 	beq	29343c <__bss_end__+0x28997c>
    96ac:	00000000 	andeq	r0, r0, r0
    96b0:	454e4f44 	strbmi	r4, [lr, #-3908]	; 0xf44
    96b4:	0a212121 	beq	851b40 <__bss_end__+0x848080>
    96b8:	00000000 	andeq	r0, r0, r0

Disassembly of section .bss:

000096bc <__bss_start__>:
	...

Disassembly of section .ARM.attributes:

00000000 <.ARM.attributes>:
   0:	00002a41 	andeq	r2, r0, r1, asr #20
   4:	61656100 	cmnvs	r5, r0, lsl #2
   8:	01006962 	tsteq	r0, r2, ror #18
   c:	00000020 	andeq	r0, r0, r0, lsr #32
  10:	4b5a3605 	blmi	168d82c <__bss_end__+0x1683d6c>
  14:	08070600 	stmdaeq	r7, {r9, sl}
  18:	12010901 	andne	r0, r1, #16384	; 0x4000
  1c:	15011404 	strne	r1, [r1, #-1028]	; 0x404
  20:	18031701 	stmdane	r3, {r0, r8, r9, sl, ip}
  24:	22011a01 	andcs	r1, r1, #4096	; 0x1000
  28:	Address 0x0000000000000028 is out of bounds.


Disassembly of section .comment:

00000000 <.comment>:
   0:	3a434347 	bcc	10d0d24 <__bss_end__+0x10c7264>
   4:	4e472820 	cdpmi	8, 4, cr2, cr7, cr0, {1}
   8:	34202955 	strtcc	r2, [r0], #-2389	; 0x955
   c:	332e382e 	teqcc	lr, #3014656	; 0x2e0000
	...

Disassembly of section .debug_info:

00000000 <.debug_info>:
       0:	0000057a 	andeq	r0, r0, sl, ror r5
       4:	00000004 	andeq	r0, r0, r4
       8:	01040000 	mrseq	r0, (UNDEF: 4)
       c:	000000d1 	ldrdeq	r0, [r0], -r1
      10:	00007d01 	andeq	r7, r0, r1, lsl #26
      14:	00015e00 	andeq	r5, r1, r0, lsl #28
      18:	00801000 	addeq	r1, r0, r0
      1c:	00024400 	andeq	r4, r2, r0, lsl #8
      20:	00000000 	andeq	r0, r0, r0
      24:	05040200 	streq	r0, [r4, #-512]	; 0x200
      28:	00746e69 	rsbseq	r6, r4, r9, ror #28
      2c:	bc070403 	cfstrslt	mvf0, [r7], {3}
      30:	03000000 	movweq	r0, #0
      34:	00140601 	andseq	r0, r4, r1, lsl #12
      38:	02030000 	andeq	r0, r3, #0
      3c:	00007305 	andeq	r7, r0, r5, lsl #6
      40:	05040300 	streq	r0, [r4, #-768]	; 0x300
      44:	00000155 	andeq	r0, r0, r5, asr r1
      48:	50050803 	andpl	r0, r5, r3, lsl #16
      4c:	04000001 	streq	r0, [r0], #-1
      50:	000000c9 	andeq	r0, r0, r9, asr #1
      54:	005a2e02 	subseq	r2, sl, r2, lsl #28
      58:	01030000 	mrseq	r0, (UNDEF: 3)
      5c:	00001208 	andeq	r1, r0, r8, lsl #4
      60:	01b50400 			; <UNDEFINED> instruction: 0x01b50400
      64:	31020000 	mrscc	r0, (UNDEF: 2)
      68:	0000006c 	andeq	r0, r0, ip, rrx
      6c:	41070203 	tstmi	r7, r3, lsl #4
      70:	03000000 	movweq	r0, #0
      74:	00b70704 	adcseq	r0, r7, r4, lsl #14
      78:	08030000 	stmdaeq	r3, {}	; <UNPREDICTABLE>
      7c:	0000b207 	andeq	fp, r0, r7, lsl #4
      80:	07040300 	streq	r0, [r4, -r0, lsl #6]
      84:	00000147 	andeq	r0, r0, r7, asr #2
      88:	1b080103 	blne	20049c <__bss_end__+0x1f69dc>
      8c:	05000000 	streq	r0, [r0, #-0]
      90:	00009504 	andeq	r9, r0, r4, lsl #10
      94:	00880600 	addeq	r0, r8, r0, lsl #12
      98:	88070000 	stmdahi	r7, {}	; <UNPREDICTABLE>
      9c:	aa000000 	bge	a4 <_start-0x7f5c>
      a0:	08000000 	stmdaeq	r0, {}	; <UNPREDICTABLE>
      a4:	00000081 	andeq	r0, r0, r1, lsl #1
      a8:	d0090007 	andle	r0, r9, r7
      ac:	01000001 	tsteq	r0, r1
      b0:	0080101f 	addeq	r1, r0, pc, lsl r0
      b4:	00004c00 	andeq	r4, r0, r0, lsl #24
      b8:	419c0100 	orrsmi	r0, ip, r0, lsl #2
      bc:	0a000001 	beq	c8 <_start-0x7f38>
      c0:	000001c7 	andeq	r0, r0, r7, asr #3
      c4:	004f1f01 	subeq	r1, pc, r1, lsl #30
      c8:	00000000 	andeq	r0, r0, r0
      cc:	720b0000 	andvc	r0, fp, #0
      d0:	01006765 	tsteq	r0, r5, ror #14
      d4:	00004f1f 	andeq	r4, r0, pc, lsl pc
      d8:	00002100 	andeq	r2, r0, r0, lsl #2
      dc:	00760b00 	rsbseq	r0, r6, r0, lsl #22
      e0:	00611f01 	rsbeq	r1, r1, r1, lsl #30
      e4:	004e0000 	subeq	r0, lr, r0
      e8:	9d0c0000 	stcls	0, cr0, [ip, #-0]
      ec:	01000000 	mrseq	r0, (UNDEF: 0)
      f0:	00014120 	andeq	r4, r1, r0, lsr #2
      f4:	74910200 	ldrvc	r0, [r1], #512	; 0x200
      f8:	0001eb0c 	andeq	lr, r1, ip, lsl #22
      fc:	51220100 	teqpl	r2, r0, lsl #2
     100:	02000001 	andeq	r0, r0, #1
     104:	380d7091 	stmdacc	sp, {r0, r4, r7, ip, sp, lr}
     108:	e5000080 	str	r0, [r0, #-128]	; 0x80
     10c:	25000004 	strcs	r0, [r0, #-4]
     110:	0e000001 	cdpeq	0, 0, cr0, cr0, cr1, {0}
     114:	33015201 	movwcc	r5, #4609	; 0x1201
     118:	0251010e 	subseq	r0, r1, #-2147483645	; 0x80000003
     11c:	010e6c91 			; <UNDEFINED> instruction: 0x010e6c91
     120:	00740250 	rsbseq	r0, r4, r0, asr r2
     124:	80540f00 	subshi	r0, r4, r0, lsl #30
     128:	050a0000 	streq	r0, [sl, #-0]
     12c:	010e0000 	mrseq	r0, (UNDEF: 14)
     130:	0e320152 	mrceq	1, 1, r0, cr2, cr2, {2}
     134:	7d025101 	stfvcs	f5, [r2, #-4]
     138:	50010e00 	andpl	r0, r1, r0, lsl #28
     13c:	00007402 	andeq	r7, r0, r2, lsl #8
     140:	004f0700 	subeq	r0, pc, r0, lsl #14
     144:	01510000 	cmpeq	r1, r0
     148:	81080000 	mrshi	r0, (UNDEF: 8)
     14c:	02000000 	andeq	r0, r0, #0
     150:	004f0700 	subeq	r0, pc, r0, lsl #14
     154:	01610000 	cmneq	r1, r0
     158:	81080000 	mrshi	r0, (UNDEF: 8)
     15c:	01000000 	mrseq	r0, (UNDEF: 0)
     160:	013c1000 	teqeq	ip, r0
     164:	27010000 	strcs	r0, [r1, -r0]
     168:	00000061 	andeq	r0, r0, r1, rrx
     16c:	0000805c 	andeq	r8, r0, ip, asr r0
     170:	00000050 	andeq	r0, r0, r0, asr r0
     174:	01fe9c01 	mvnseq	r9, r1, lsl #24
     178:	c70a0000 	strgt	r0, [sl, -r0]
     17c:	01000001 	tsteq	r0, r1
     180:	00004f27 	andeq	r4, r0, r7, lsr #30
     184:	00006f00 	andeq	r6, r0, r0, lsl #30
     188:	65720b00 	ldrbvs	r0, [r2, #-2816]!	; 0xb00
     18c:	27010067 	strcs	r0, [r1, -r7, rrx]
     190:	0000004f 	andeq	r0, r0, pc, asr #32
     194:	00000090 	muleq	r0, r0, r0
     198:	00009d0c 	andeq	r9, r0, ip, lsl #26
     19c:	fe280100 	cdp2	1, 2, cr0, cr8, cr0, {0}
     1a0:	02000001 	andeq	r0, r0, #1
     1a4:	eb0c7491 	bl	31d3f0 <__bss_end__+0x313930>
     1a8:	01000001 	tsteq	r0, r1
     1ac:	0001512a 	andeq	r5, r1, sl, lsr #2
     1b0:	70910200 	addsvc	r0, r1, r0, lsl #4
     1b4:	74756f11 	ldrbtvc	r6, [r5], #-3857	; 0xf11
     1b8:	612c0100 	teqvs	ip, r0, lsl #2
     1bc:	bd000000 	stclt	0, cr0, [r0, #-0]
     1c0:	0d000000 	stceq	0, cr0, [r0, #-0]
     1c4:	0000807c 	andeq	r8, r0, ip, ror r0
     1c8:	000004e5 	andeq	r0, r0, r5, ror #9
     1cc:	000001e2 	andeq	r0, r0, r2, ror #3
     1d0:	0152010e 	cmpeq	r2, lr, lsl #2
     1d4:	51010e31 	tstpl	r1, r1, lsr lr
     1d8:	0e6c9102 	lgneqe	f1, f2
     1dc:	74025001 	strvc	r5, [r2], #-1
     1e0:	980f0000 	stmdals	pc, {}	; <UNPREDICTABLE>
     1e4:	0a000080 	beq	3ec <_start-0x7c14>
     1e8:	0e000005 	cdpeq	0, 0, cr0, cr0, cr5, {0}
     1ec:	32015201 	andcc	r5, r1, #268435456	; 0x10000000
     1f0:	0251010e 	subseq	r0, r1, #-2147483645	; 0x80000003
     1f4:	010e007d 	tsteq	lr, sp, ror r0
     1f8:	00740250 	rsbseq	r0, r4, r0, asr r2
     1fc:	4f070000 	svcmi	0x00070000
     200:	0e000000 	cdpeq	0, 0, cr0, cr0, cr0, {0}
     204:	08000002 	stmdaeq	r0, {r1}
     208:	00000081 	andeq	r0, r0, r1, lsl #1
     20c:	a8120000 	ldmdage	r2, {}	; <UNPREDICTABLE>
     210:	01000000 	mrseq	r0, (UNDEF: 0)
     214:	0080ac16 	addeq	sl, r0, r6, lsl ip
     218:	00002800 	andeq	r2, r0, r0, lsl #16
     21c:	4c9c0100 	ldfmis	f0, [ip], {0}
     220:	13000002 	movwne	r0, #2
     224:	00747372 	rsbseq	r7, r4, r2, ror r3
     228:	004f1701 	subeq	r1, pc, r1, lsl #14
     22c:	91020000 	mrsls	r0, (UNDEF: 2)
     230:	80cc0f77 	sbchi	r0, ip, r7, ror pc
     234:	04e50000 	strbteq	r0, [r5], #0
     238:	010e0000 	mrseq	r0, (UNDEF: 14)
     23c:	0e310152 	mrceq	1, 1, r0, cr1, cr2, {2}
     240:	91025101 	tstls	r2, r1, lsl #2
     244:	50010e6f 	andpl	r0, r1, pc, ror #28
     248:	00003001 	andeq	r3, r0, r1
     24c:	00000012 	andeq	r0, r0, r2, lsl r0
     250:	d4300100 	ldrtle	r0, [r0], #-256	; 0x100
     254:	80000080 	andhi	r0, r0, r0, lsl #1
     258:	01000001 	tsteq	r0, r1
     25c:	0004e09c 	muleq	r4, ip, r0
     260:	00631100 	rsbeq	r1, r3, r0, lsl #2
     264:	00615101 	rsbeq	r5, r1, r1, lsl #2
     268:	01050000 	mrseq	r0, (UNDEF: 5)
     26c:	87140000 	ldrhi	r0, [r4, -r0]
     270:	e0000000 	and	r0, r0, r0
     274:	05000004 	streq	r0, [r0, #-4]
     278:	0093ac03 	addseq	sl, r3, r3, lsl #24
     27c:	00361500 	eorseq	r1, r6, r0, lsl #10
     280:	61010000 	mrsvs	r0, (UNDEF: 1)
     284:	00000061 	andeq	r0, r0, r1, rrx
     288:	671642e3 	ldrvs	r4, [r6, -r3, ror #5]
     28c:	01000000 	mrseq	r0, (UNDEF: 0)
     290:	0000616e 	andeq	r6, r0, lr, ror #2
     294:	00012300 	andeq	r2, r1, r0, lsl #6
     298:	00001700 	andeq	r1, r0, r0, lsl #14
     29c:	03010000 	movweq	r0, #4096	; 0x1000
     2a0:	69110000 	ldmdbvs	r1, {}	; <UNPREDICTABLE>
     2a4:	25780100 	ldrbcs	r0, [r8, #-256]!	; 0x100
     2a8:	41000000 	mrsmi	r0, (UNDEF: 0)
     2ac:	18000001 	stmdane	r0, {r0}
     2b0:	00000018 	andeq	r0, r0, r8, lsl r0
     2b4:	01007611 	tsteq	r0, r1, lsl r6
     2b8:	00003a79 	andeq	r3, r0, r9, ror sl
     2bc:	00015f00 	andeq	r5, r1, r0, lsl #30
     2c0:	81f40d00 	mvnshi	r0, r0, lsl #26
     2c4:	01610000 	cmneq	r1, r0
     2c8:	02db0000 	sbcseq	r0, fp, #0
     2cc:	010e0000 	mrseq	r0, (UNDEF: 14)
     2d0:	00770251 	rsbseq	r0, r7, r1, asr r2
     2d4:	0250010e 	subseq	r0, r0, #-2147483645	; 0x80000003
     2d8:	0d000078 	stceq	0, cr0, [r0, #-480]	; 0xfffffe20
     2dc:	00008200 	andeq	r8, r0, r0, lsl #4
     2e0:	00000529 	andeq	r0, r0, r9, lsr #10
     2e4:	000002ef 	andeq	r0, r0, pc, ror #5
     2e8:	0250010e 	subseq	r0, r0, #-2147483645	; 0x80000003
     2ec:	0f000076 	svceq	0x00000076
     2f0:	00008208 	andeq	r8, r0, r8, lsl #4
     2f4:	0000053f 	andeq	r0, r0, pc, lsr r5
     2f8:	0250010e 	subseq	r0, r0, #-2147483645	; 0x80000003
     2fc:	00000075 	andeq	r0, r0, r5, ror r0
     300:	80dc1900 	sbcshi	r1, ip, r0, lsl #18
     304:	05500000 	ldrbeq	r0, [r0, #-0]
     308:	e40d0000 	str	r0, [sp], #-0
     30c:	3f000080 	svccc	0x00000080
     310:	1d000005 	stcne	0, cr0, [r0, #-20]	; 0xffffffec
     314:	0e000003 	cdpeq	0, 0, cr0, cr0, cr3, {0}
     318:	4e015001 	cdpmi	0, 0, cr5, cr1, cr1, {0}
     31c:	80e81900 	rschi	r1, r8, r0, lsl #18
     320:	05570000 	ldrbeq	r0, [r7, #-0]
     324:	f00d0000 			; <UNDEFINED> instruction: 0xf00d0000
     328:	3f000080 	svccc	0x00000080
     32c:	39000005 	stmdbcc	r0, {r0, r2}
     330:	0e000003 	cdpeq	0, 0, cr0, cr0, cr3, {0}
     334:	4e015001 	cdpmi	0, 0, cr5, cr1, cr1, {0}
     338:	80f41900 	rscshi	r1, r4, r0, lsl #18
     33c:	020e0000 	andeq	r0, lr, #0
     340:	fc0d0000 	stc2	0, cr0, [sp], {-0}
     344:	5e000080 	cdppl	0, 0, cr0, cr0, cr0, {4}
     348:	55000005 	strpl	r0, [r0, #-5]
     34c:	0e000003 	cdpeq	0, 0, cr0, cr0, cr3, {0}
     350:	49015001 	stmdbmi	r1, {r0, ip, lr}
     354:	81080d00 	tsthi	r8, r0, lsl #26
     358:	01610000 	cmneq	r1, r0
     35c:	036e0000 	cmneq	lr, #0
     360:	010e0000 	mrseq	r0, (UNDEF: 14)
     364:	0e310151 	mrceq	1, 1, r0, cr1, cr1, {2}
     368:	08025001 	stmdaeq	r2, {r0, ip, lr}
     36c:	280d0048 	stmdacs	sp, {r3, r6}
     370:	29000081 	stmdbcs	r0, {r0, r7}
     374:	9a000005 	bls	390 <_start-0x7c70>
     378:	0e000003 	cdpeq	0, 0, cr0, cr0, cr3, {0}
     37c:	75025301 	strvc	r5, [r2, #-769]	; 0x301
     380:	52010e00 	andpl	r0, r1, #0, 28
     384:	08007405 	stmdaeq	r0, {r0, r2, sl, ip, sp, lr}
     388:	010e1aff 	strdeq	r1, [lr, -pc]
     38c:	00740251 	rsbseq	r0, r4, r1, asr r2
     390:	0550010e 	ldrbeq	r0, [r0, #-270]	; 0x10e
     394:	0093b403 	addseq	fp, r3, r3, lsl #8
     398:	34190000 	ldrcc	r0, [r9], #-0
     39c:	6f000081 	svcvs	0x00000081
     3a0:	0d000005 	stceq	0, cr0, [r0, #-20]	; 0xffffffec
     3a4:	00008148 	andeq	r8, r0, r8, asr #2
     3a8:	00000529 	andeq	r0, r0, r9, lsr #10
     3ac:	000003d2 	ldrdeq	r0, [r0], -r2
     3b0:	0253010e 	subseq	r0, r3, #-2147483645	; 0x80000003
     3b4:	010e5608 	tsteq	lr, r8, lsl #12
     3b8:	ac030552 	cfstr32ge	mvfx0, [r3], {82}	; 0x52
     3bc:	0e000093 	mcreq	0, 0, r0, cr0, cr3, {4}
     3c0:	03055101 	movweq	r5, #20737	; 0x5101
     3c4:	00009400 	andeq	r9, r0, r0, lsl #8
     3c8:	0550010e 	ldrbeq	r0, [r0, #-270]	; 0x10e
     3cc:	0093e003 	addseq	lr, r3, r3
     3d0:	4c190000 	ldcmi	0, cr0, [r9], {-0}
     3d4:	76000081 	strvc	r0, [r0], -r1, lsl #1
     3d8:	19000005 	stmdbne	r0, {r0, r2}
     3dc:	00008160 	andeq	r8, r0, r0, ror #2
     3e0:	0000056f 	andeq	r0, r0, pc, ror #10
     3e4:	0081740d 	addeq	r7, r1, sp, lsl #8
     3e8:	00052900 	andeq	r2, r5, r0, lsl #18
     3ec:	00041300 	andeq	r1, r4, r0, lsl #6
     3f0:	53010e00 	movwpl	r0, #7680	; 0x1e00
     3f4:	0e580802 	cdpeq	8, 5, cr0, cr8, cr2, {0}
     3f8:	03055201 	movweq	r5, #20993	; 0x5201
     3fc:	000093ac 	andeq	r9, r0, ip, lsr #7
     400:	0551010e 	ldrbeq	r0, [r1, #-270]	; 0x10e
     404:	00940003 	addseq	r0, r4, r3
     408:	50010e00 	andpl	r0, r1, r0, lsl #28
     40c:	940c0305 	strls	r0, [ip], #-773	; 0x305
     410:	19000000 	stmdbne	r0, {}	; <UNPREDICTABLE>
     414:	00008178 	andeq	r8, r0, r8, ror r1
     418:	00000576 	andeq	r0, r0, r6, ror r5
     41c:	00818c19 	addeq	r8, r1, r9, lsl ip
     420:	00056f00 	andeq	r6, r5, r0, lsl #30
     424:	81a00d00 	lslhi	r0, r0, #26
     428:	05290000 	streq	r0, [r9, #-0]!
     42c:	04540000 	ldrbeq	r0, [r4], #-0
     430:	010e0000 	mrseq	r0, (UNDEF: 14)
     434:	5a080253 	bpl	200d88 <__bss_end__+0x1f72c8>
     438:	0552010e 	ldrbeq	r0, [r2, #-270]	; 0x10e
     43c:	0093ac03 	addseq	sl, r3, r3, lsl #24
     440:	51010e00 	tstpl	r1, r0, lsl #28
     444:	94000305 	strls	r0, [r0], #-773	; 0x305
     448:	010e0000 	mrseq	r0, (UNDEF: 14)
     44c:	30030550 	andcc	r0, r3, r0, asr r5
     450:	00000094 	muleq	r0, r4, r0
     454:	0081a419 	addeq	sl, r1, r9, lsl r4
     458:	00057600 	andeq	r7, r5, r0, lsl #12
     45c:	81b80d00 			; <UNDEFINED> instruction: 0x81b80d00
     460:	00aa0000 	adceq	r0, sl, r0
     464:	047c0000 	ldrbteq	r0, [ip], #-0
     468:	010e0000 	mrseq	r0, (UNDEF: 14)
     46c:	00740252 	rsbseq	r0, r4, r2, asr r2
     470:	0151010e 	cmpeq	r1, lr, lsl #2
     474:	50010e31 	andpl	r0, r1, r1, lsr lr
     478:	00480802 	subeq	r0, r8, r2, lsl #16
     47c:	0081c40d 	addeq	ip, r1, sp, lsl #8
     480:	00016100 	andeq	r6, r1, r0, lsl #2
     484:	00049500 	andeq	r9, r4, r0, lsl #10
     488:	51010e00 	tstpl	r1, r0, lsl #28
     48c:	010e3101 	tsteq	lr, r1, lsl #2
     490:	48080250 	stmdami	r8, {r4, r6, r9}
     494:	81d01900 	bicshi	r1, r0, r0, lsl #18
     498:	056f0000 	strbeq	r0, [pc, #-0]!	; 4a0 <_start-0x7b60>
     49c:	e40d0000 	str	r0, [sp], #-0
     4a0:	29000081 	stmdbcs	r0, {r0, r7}
     4a4:	cd000005 	stcgt	0, cr0, [r0, #-20]	; 0xffffffec
     4a8:	0e000004 	cdpeq	0, 0, cr0, cr0, cr4, {0}
     4ac:	08025301 	stmdaeq	r2, {r0, r8, r9, ip, lr}
     4b0:	52010e6f 	andpl	r0, r1, #1776	; 0x6f0
     4b4:	93ac0305 			; <UNDEFINED> instruction: 0x93ac0305
     4b8:	010e0000 	mrseq	r0, (UNDEF: 14)
     4bc:	00030551 	andeq	r0, r3, r1, asr r5
     4c0:	0e000094 	mcreq	0, 0, r0, cr0, cr4, {4}
     4c4:	03055001 	movweq	r5, #20481	; 0x5001
     4c8:	00009454 	andeq	r9, r0, r4, asr r4
     4cc:	81e81900 	mvnhi	r1, r0, lsl #18
     4d0:	05760000 	ldrbeq	r0, [r6, #-0]!
     4d4:	30190000 	andscc	r0, r9, r0
     4d8:	76000082 	strvc	r0, [r0], -r2, lsl #1
     4dc:	00000005 	andeq	r0, r0, r5
     4e0:	00009a06 	andeq	r9, r0, r6, lsl #20
     4e4:	005d1a00 	subseq	r1, sp, r0, lsl #20
     4e8:	0c030000 	stceq	0, cr0, [r3], {-0}
     4ec:	00000025 	andeq	r0, r0, r5, lsr #32
     4f0:	00000504 	andeq	r0, r0, r4, lsl #10
     4f4:	00002c1b 	andeq	r2, r0, fp, lsl ip
     4f8:	05041b00 	streq	r1, [r4, #-2816]	; 0xb00
     4fc:	2c1b0000 	ldccs	0, cr0, [fp], {-0}
     500:	00000000 	andeq	r0, r0, r0
     504:	004f0405 	subeq	r0, pc, r5, lsl #8
     508:	be1a0000 	cdplt	0, 1, cr0, cr10, cr0, {0}
     50c:	03000001 	movweq	r0, #1
     510:	0000250e 	andeq	r2, r0, lr, lsl #10
     514:	00052900 	andeq	r2, r5, r0, lsl #18
     518:	002c1b00 	eoreq	r1, ip, r0, lsl #22
     51c:	041b0000 	ldreq	r0, [fp], #-0
     520:	1b000005 	blne	53c <_start-0x7ac4>
     524:	0000002c 	andeq	r0, r0, ip, lsr #32
     528:	04161a00 	ldreq	r1, [r6], #-2560	; 0xa00
     52c:	29040000 	stmdbcs	r4, {}	; <UNPREDICTABLE>
     530:	00000025 	andeq	r0, r0, r5, lsr #32
     534:	0000053f 	andeq	r0, r0, pc, lsr r5
     538:	00008f1b 	andeq	r8, r0, fp, lsl pc
     53c:	1d001c00 	stcne	12, cr1, [r0, #-0]
     540:	00000020 	andeq	r0, r0, r0, lsr #32
     544:	05505004 	ldrbeq	r5, [r0, #-4]
     548:	2c1b0000 	ldccs	0, cr0, [fp], {-0}
     54c:	00000000 	andeq	r0, r0, r0
     550:	0000081e 	andeq	r0, r0, lr, lsl r8
     554:	1e3a0400 	cfabssne	mvf0, mvf10
     558:	00000054 	andeq	r0, r0, r4, asr r0
     55c:	941d0603 	ldrls	r0, [sp], #-1539	; 0x603
     560:	04000000 	streq	r0, [r0], #-0
     564:	00056f4e 	andeq	r6, r5, lr, asr #30
     568:	002c1b00 	eoreq	r1, ip, r0, lsl #22
     56c:	1e000000 	cdpne	0, 0, cr0, cr0, cr0, {0}
     570:	000001dc 	ldrdeq	r0, [r0], -ip
     574:	291e1e04 	ldmdbcs	lr, {r2, r9, sl, fp, ip}
     578:	04000000 	streq	r0, [r0], #-0
     57c:	07e30066 	strbeq	r0, [r3, r6, rrx]!
     580:	00040000 	andeq	r0, r4, r0
     584:	0000019f 	muleq	r0, pc, r1	; <UNPREDICTABLE>
     588:	00d10104 	sbcseq	r0, r1, r4, lsl #2
     58c:	96010000 	strls	r0, [r1], -r0
     590:	5e000003 	cdppl	0, 0, cr0, cr0, cr3, {0}
     594:	54000001 	strpl	r0, [r0], #-1
     598:	4c000082 	stcmi	0, cr0, [r0], {130}	; 0x82
     59c:	52000002 	andpl	r0, r0, #2
     5a0:	02000001 	andeq	r0, r0, #1
     5a4:	6e690504 	cdpvs	5, 6, cr0, cr9, cr4, {0}
     5a8:	04030074 	streq	r0, [r3], #-116	; 0x74
     5ac:	0000bc07 	andeq	fp, r0, r7, lsl #24
     5b0:	06010300 	streq	r0, [r1], -r0, lsl #6
     5b4:	00000014 	andeq	r0, r0, r4, lsl r0
     5b8:	73050203 	movwvc	r0, #20995	; 0x5203
     5bc:	03000000 	movweq	r0, #0
     5c0:	01550504 	cmpeq	r5, r4, lsl #10
     5c4:	08030000 	stmdaeq	r3, {}	; <UNPREDICTABLE>
     5c8:	00015005 	andeq	r5, r1, r5
     5cc:	00c90400 	sbceq	r0, r9, r0, lsl #8
     5d0:	2e020000 	cdpcs	0, 0, cr0, cr2, cr0, {0}
     5d4:	0000005a 	andeq	r0, r0, sl, asr r0
     5d8:	12080103 	andne	r0, r8, #-1073741824	; 0xc0000000
     5dc:	03000000 	movweq	r0, #0
     5e0:	00410702 	subeq	r0, r1, r2, lsl #14
     5e4:	e6040000 	str	r0, [r4], -r0
     5e8:	02000002 	andeq	r0, r0, #2
     5ec:	00007334 	andeq	r7, r0, r4, lsr r3
     5f0:	07040300 	streq	r0, [r4, -r0, lsl #6]
     5f4:	000000b7 	strheq	r0, [r0], -r7
     5f8:	b2070803 	andlt	r0, r7, #196608	; 0x30000
     5fc:	03000000 	movweq	r0, #0
     600:	01470704 	cmpeq	r7, r4, lsl #14
     604:	01030000 	mrseq	r0, (UNDEF: 3)
     608:	00001b08 	andeq	r1, r0, r8, lsl #22
     60c:	03010500 	movweq	r0, #5376	; 0x1500
     610:	0000c80c 	andeq	ip, r0, ip, lsl #16
     614:	020d0600 	andeq	r0, sp, #0, 12
     618:	06000000 	streq	r0, [r0], -r0
     61c:	0000030e 	andeq	r0, r0, lr, lsl #6
     620:	03360601 	teqeq	r6, #1048576	; 0x100000
     624:	06040000 	streq	r0, [r4], -r0
     628:	00000345 	andeq	r0, r0, r5, asr #6
     62c:	03540605 	cmpeq	r4, #5242880	; 0x500000
     630:	06060000 	streq	r0, [r6], -r0
     634:	00000363 	andeq	r0, r0, r3, ror #6
     638:	03720607 	cmneq	r2, #7340032	; 0x700000
     63c:	06030000 	streq	r0, [r3], -r0
     640:	00000381 	andeq	r0, r0, r1, lsl #7
     644:	2a040002 	bcs	100654 <__bss_end__+0xf6b94>
     648:	03000003 	movweq	r0, #3
     64c:	00008f15 	andeq	r8, r0, r5, lsl pc
     650:	01040700 	tsteq	r4, r0, lsl #14
     654:	0001802a 	andeq	r8, r1, sl, lsr #32
     658:	01c20800 	biceq	r0, r2, r0, lsl #16
     65c:	2b010000 	blcs	40664 <__bss_end__+0x36ba4>
     660:	00000068 	andeq	r0, r0, r8, rrx
     664:	001f0104 	andseq	r0, pc, r4, lsl #2
     668:	00021d08 	andeq	r1, r2, r8, lsl #26
     66c:	682d0100 	stmdavs	sp!, {r8}
     670:	04000000 	streq	r0, [r0], #-0
     674:	08001c03 	stmdaeq	r0, {r0, r1, sl, fp, ip}
     678:	00000762 	andeq	r0, r0, r2, ror #14
     67c:	00682e01 	rsbeq	r2, r8, r1, lsl #28
     680:	02040000 	andeq	r0, r4, #0
     684:	2708001a 	smladcs	r8, sl, r0, r0
     688:	01000002 	tsteq	r0, r2
     68c:	00006834 	andeq	r6, r0, r4, lsr r8
     690:	19010400 	stmdbne	r1, {sl}
     694:	74730900 	ldrbtvc	r0, [r3], #-2304	; 0x900
     698:	68350100 	ldmdavs	r5!, {r8}
     69c:	04000000 	streq	r0, [r0], #-0
     6a0:	08001801 	stmdaeq	r0, {r0, fp, ip}
     6a4:	0000029d 	muleq	r0, sp, r2
     6a8:	00683901 	rsbeq	r3, r8, r1, lsl #18
     6ac:	01040000 	mrseq	r0, (UNDEF: 4)
     6b0:	a7080017 	smladge	r8, r7, r0, r0
     6b4:	01000002 	tsteq	r0, r2
     6b8:	0000683c 	andeq	r6, r0, ip, lsr r8
     6bc:	16010400 	strne	r0, [r1], -r0, lsl #8
     6c0:	02a20800 	adceq	r0, r2, #0, 16
     6c4:	3f010000 	svccc	0x00010000
     6c8:	00000068 	andeq	r0, r0, r8, rrx
     6cc:	00150104 	andseq	r0, r5, r4, lsl #2
     6d0:	00023108 	andeq	r3, r2, r8, lsl #2
     6d4:	68420100 	stmdavs	r2, {r8}^
     6d8:	04000000 	streq	r0, [r0], #-0
     6dc:	08001104 	stmdaeq	r0, {r2, r8, ip}
     6e0:	000002ac 	andeq	r0, r0, ip, lsr #5
     6e4:	00684301 	rsbeq	r4, r8, r1, lsl #6
     6e8:	01040000 	mrseq	r0, (UNDEF: 4)
     6ec:	3b080010 	blcc	200734 <__bss_end__+0x1f6c74>
     6f0:	01000002 	tsteq	r0, r2
     6f4:	00006846 	andeq	r6, r0, r6, asr #16
     6f8:	00100400 	andseq	r0, r0, r0, lsl #8
     6fc:	63040000 	movwvs	r0, #16384	; 0x4000
     700:	01000002 	tsteq	r0, r2
     704:	0000d347 	andeq	sp, r0, r7, asr #6
     708:	01040700 	tsteq	r4, r0, lsl #14
     70c:	0002384f 	andeq	r3, r2, pc, asr #16
     710:	61740900 	cmnvs	r4, r0, lsl #18
     714:	2c500100 	ldfcse	f0, [r0], {-0}
     718:	04000000 	streq	r0, [r0], #-0
     71c:	08001f01 	stmdaeq	r0, {r0, r8, r9, sl, fp, ip}
     720:	00000208 	andeq	r0, r0, r8, lsl #4
     724:	002c5301 	eoreq	r5, ip, r1, lsl #6
     728:	01040000 	mrseq	r0, (UNDEF: 4)
     72c:	7409001e 	strvc	r0, [r9], #-30
     730:	01007778 	tsteq	r0, r8, ror r7
     734:	00002c57 	andeq	r2, r0, r7, asr ip
     738:	1d010400 	cfstrsne	mvf0, [r1, #-0]
     73c:	78720900 	ldmdavc	r2!, {r8, fp}^
     740:	5d010072 	stcpl	0, cr0, [r1, #-456]	; 0xfffffe38
     744:	0000002c 	andeq	r0, r0, ip, lsr #32
     748:	001c0104 	andseq	r0, ip, r4, lsl #2
     74c:	64787409 	ldrbtvs	r7, [r8], #-1033	; 0x409
     750:	2c630100 	stfcse	f0, [r3], #-0
     754:	04000000 	streq	r0, [r0], #-0
     758:	09001b01 	stmdbeq	r0, {r0, r8, r9, fp, ip}
     75c:	00647872 	rsbeq	r7, r4, r2, ror r8
     760:	002c6601 	eoreq	r6, ip, r1, lsl #12
     764:	01040000 	mrseq	r0, (UNDEF: 4)
     768:	7409001a 	strvc	r0, [r9], #-26
     76c:	01006578 	tsteq	r0, r8, ror r5
     770:	00002c6a 	andeq	r2, r0, sl, ror #24
     774:	19010400 	stmdbne	r1, {sl}
     778:	78720900 	ldmdavc	r2!, {r8, fp}^
     77c:	6f010066 	svcvs	0x00010066
     780:	0000002c 	andeq	r0, r0, ip, lsr #32
     784:	00180104 	andseq	r0, r8, r4, lsl #2
     788:	72726509 	rsbsvc	r6, r2, #37748736	; 0x2400000
     78c:	2c720100 	ldfcse	f0, [r2], #-0
     790:	04000000 	streq	r0, [r0], #-0
     794:	08001701 	stmdaeq	r0, {r0, r8, r9, sl, ip}
     798:	000002ef 	andeq	r0, r0, pc, ror #5
     79c:	002c7601 	eoreq	r7, ip, r1, lsl #12
     7a0:	01040000 	mrseq	r0, (UNDEF: 4)
     7a4:	1d080016 	stcne	0, cr0, [r8, #-88]	; 0xffffffa8
     7a8:	01000002 	tsteq	r0, r2
     7ac:	00002c7b 	andeq	r2, r0, fp, ror ip
     7b0:	00160400 	andseq	r0, r6, r0, lsl #8
     7b4:	f5040000 			; <UNDEFINED> instruction: 0xf5040000
     7b8:	01000001 	tsteq	r0, r1
     7bc:	00018b7c 	andeq	r8, r1, ip, ror fp
     7c0:	02000a00 	andeq	r0, r0, #0, 20
     7c4:	01200000 	teqeq	r0, r0
     7c8:	0002b083 	andeq	fp, r2, r3, lsl #1
     7cc:	025b0b00 	subseq	r0, fp, #0, 22
     7d0:	84010000 	strhi	r0, [r1], #-0
     7d4:	00000180 	andeq	r0, r0, r0, lsl #3
     7d8:	03070b00 	movweq	r0, #31488	; 0x7b00
     7dc:	85010000 	strhi	r0, [r1, #-0]
     7e0:	00000238 	andeq	r0, r0, r8, lsr r2
     7e4:	02980b04 	addseq	r0, r8, #4, 22	; 0x1000
     7e8:	88010000 	stmdahi	r1, {}	; <UNPREDICTABLE>
     7ec:	00000068 	andeq	r0, r0, r8, rrx
     7f0:	01c70b08 	biceq	r0, r7, r8, lsl #22
     7f4:	91010000 	mrsls	r0, (UNDEF: 1)
     7f8:	00000068 	andeq	r0, r0, r8, rrx
     7fc:	031f0b0c 	tsteq	pc, #12, 22	; 0x3000
     800:	93010000 	movwls	r0, #4096	; 0x1000
     804:	00000068 	andeq	r0, r0, r8, rrx
     808:	027c0b10 	rsbseq	r0, ip, #16, 22	; 0x4000
     80c:	95010000 	strls	r0, [r1, #-0]
     810:	00000068 	andeq	r0, r0, r8, rrx
     814:	02cd0b14 	sbceq	r0, sp, #20, 22	; 0x5000
     818:	97010000 	strls	r0, [r1, -r0]
     81c:	00000068 	andeq	r0, r0, r8, rrx
     820:	02450b18 	subeq	r0, r5, #24, 22	; 0x6000
     824:	99010000 	stmdbls	r1, {}	; <UNPREDICTABLE>
     828:	00000068 	andeq	r0, r0, r8, rrx
     82c:	0004001c 	andeq	r0, r4, ip, lsl r0
     830:	01000002 	tsteq	r0, r2
     834:	0002439a 	muleq	r2, sl, r3
     838:	026e0c00 	rsbeq	r0, lr, #0, 24
     83c:	49010000 	stmdbmi	r1, {}	; <UNPREDICTABLE>
     840:	00000180 	andeq	r0, r0, r0, lsl #3
     844:	00008254 	andeq	r8, r0, r4, asr r2
     848:	0000000c 	andeq	r0, r0, ip
     84c:	03249c01 	teqeq	r4, #256	; 0x100
     850:	630d0000 	movwvs	r0, #53248	; 0xd000
     854:	24490100 	strbcs	r0, [r9], #-256	; 0x100
     858:	7d000003 	stcvc	0, cr0, [r0, #-12]
     85c:	0e000001 	cdpeq	0, 0, cr0, cr0, cr1, {0}
     860:	00008258 	andeq	r8, r0, r8, asr r2
     864:	00000004 	andeq	r0, r0, r4
     868:	00755f0f 	rsbseq	r5, r5, pc, lsl #30
     86c:	084a0104 	stmdaeq	sl, {r2, r8}^
     870:	10000003 	andne	r0, r0, r3
     874:	4a010076 	bmi	40a54 <__bss_end__+0x36f94>
     878:	0000032a 	andeq	r0, r0, sl, lsr #6
     87c:	01007510 	tsteq	r0, r0, lsl r5
     880:	00002c4a 	andeq	r2, r0, sl, asr #24
     884:	75110000 	ldrvc	r0, [r1, #-0]
     888:	ea4a0100 	b	1280c90 <__bss_end__+0x12771d0>
     88c:	12000002 	andne	r0, r0, #2
     890:	0000825c 	andeq	r8, r0, ip, asr r2
     894:	00000790 	muleq	r0, r0, r7
     898:	03500113 	cmpeq	r0, #-1073741820	; 0xc0000004
     89c:	005001f3 	ldrsheq	r0, [r0], #-19	; 0xffffffed
     8a0:	04140000 	ldreq	r0, [r4], #-0
     8a4:	0000032a 	andeq	r0, r0, sl, lsr #6
     8a8:	00018015 	andeq	r8, r1, r5, lsl r0
     8ac:	02750c00 	rsbseq	r0, r5, #0, 24
     8b0:	7f010000 	svcvc	0x00010000
     8b4:	00000238 	andeq	r0, r0, r8, lsr r2
     8b8:	00008260 	andeq	r8, r0, r0, ror #4
     8bc:	0000000c 	andeq	r0, r0, ip
     8c0:	03989c01 	orrseq	r9, r8, #256	; 0x100
     8c4:	730d0000 	movwvc	r0, #53248	; 0xd000
     8c8:	987f0100 	ldmdals	pc!, {r8}^	; <UNPREDICTABLE>
     8cc:	9e000003 	cdpls	0, 0, cr0, cr0, cr3, {0}
     8d0:	0e000001 	cdpeq	0, 0, cr0, cr0, cr1, {0}
     8d4:	00008264 	andeq	r8, r0, r4, ror #4
     8d8:	00000004 	andeq	r0, r0, r4
     8dc:	00755f0f 	rsbseq	r5, r5, pc, lsl #30
     8e0:	7c800104 	stfvcs	f0, [r0], {4}
     8e4:	10000003 	andne	r0, r0, r3
     8e8:	80010076 	andhi	r0, r1, r6, ror r0
     8ec:	0000039e 	muleq	r0, lr, r3
     8f0:	01007510 	tsteq	r0, r0, lsl r5
     8f4:	00002c80 	andeq	r2, r0, r0, lsl #25
     8f8:	75110000 	ldrvc	r0, [r1, #-0]
     8fc:	5e800100 	rmfpls	f0, f0, f0
     900:	12000003 	andne	r0, r0, #3
     904:	00008268 	andeq	r8, r0, r8, ror #4
     908:	00000790 	muleq	r0, r0, r7
     90c:	03500113 	cmpeq	r0, #-1073741820	; 0xc0000004
     910:	005001f3 	ldrsheq	r0, [r0], #-19	; 0xffffffed
     914:	04140000 	ldreq	r0, [r4], #-0
     918:	0000039e 	muleq	r0, lr, r3
     91c:	00023815 	andeq	r3, r2, r5, lsl r8
     920:	02d91600 	sbcseq	r1, r9, #0, 12
     924:	18010000 	stmdane	r1, {}	; <UNPREDICTABLE>
     928:	00826c01 	addeq	r6, r2, r1, lsl #24
     92c:	00000800 	andeq	r0, r0, r0, lsl #16
     930:	c99c0100 	ldmibgt	ip, {r8}
     934:	17000003 	strne	r0, [r0, -r3]
     938:	00000087 	andeq	r0, r0, r7, lsl #1
     93c:	000003d9 	ldrdeq	r0, [r0], -r9
     940:	94840305 	strls	r0, [r4], #773	; 0x305
     944:	18000000 	stmdane	r0, {}	; <UNPREDICTABLE>
     948:	00000088 	andeq	r0, r0, r8, lsl #1
     94c:	000003d9 	ldrdeq	r0, [r0], -r9
     950:	00008119 	andeq	r8, r0, r9, lsl r1
     954:	1a000c00 	bne	395c <_start-0x46a4>
     958:	000003c9 	andeq	r0, r0, r9, asr #7
     95c:	00005d1b 	andeq	r5, r0, fp, lsl sp
     960:	25a30100 	strcs	r0, [r3, #256]!	; 0x100
     964:	74000000 	strvc	r0, [r0], #-0
     968:	00000082 	andeq	r0, r0, r2, lsl #1
     96c:	01000001 	tsteq	r0, r1
     970:	00054e9c 	muleq	r5, ip, lr
     974:	01cb1c00 	biceq	r1, fp, r0, lsl #24
     978:	a3010000 	movwge	r0, #4096	; 0x1000
     97c:	0000002c 	andeq	r0, r0, ip, lsr #32
     980:	000001bf 			; <UNDEFINED> instruction: 0x000001bf
     984:	0001f01c 	andeq	pc, r1, ip, lsl r0	; <UNPREDICTABLE>
     988:	4ea30100 	fdvmis	f0, f3, f0
     98c:	04000005 	streq	r0, [r0], #-5
     990:	1c000002 	stcne	0, cr0, [r0], {2}
     994:	000002b2 			; <UNDEFINED> instruction: 0x000002b2
     998:	002ca301 	eoreq	sl, ip, r1, lsl #6
     99c:	02220000 	eoreq	r0, r2, #0
     9a0:	c01d0000 	andsgt	r0, sp, r0
     9a4:	01000002 	tsteq	r0, r2
     9a8:	000238a9 	andeq	r3, r2, r9, lsr #17
     9ac:	02b91d00 	adcseq	r1, r9, #0, 26
     9b0:	b6010000 	strlt	r0, [r1], -r0
     9b4:	00000180 	andeq	r0, r0, r0, lsl #3
     9b8:	0000301e 	andeq	r3, r0, lr, lsl r0
     9bc:	00047500 	andeq	r7, r4, r0, lsl #10
     9c0:	00691f00 	rsbeq	r1, r9, r0, lsl #30
     9c4:	0025bf01 	eoreq	fp, r5, r1, lsl #30
     9c8:	02400000 	subeq	r0, r0, #0
     9cc:	10200000 	eorne	r0, r0, r0
     9d0:	2f000083 	svccs	0x00000083
     9d4:	64000003 	strvs	r0, [r0], #-3
     9d8:	13000004 	movwne	r0, #4
     9dc:	74025001 	strvc	r5, [r2], #-1
     9e0:	24120000 	ldrcs	r0, [r2], #-0
     9e4:	b1000083 	smlabblt	r0, r3, r0, r0
     9e8:	13000007 	movwne	r0, #7
     9ec:	78025001 	stmdavc	r2, {r0, ip, lr}
     9f0:	21000000 	mrscs	r0, (UNDEF: 0)
     9f4:	00008288 	andeq	r8, r0, r8, lsl #5
     9f8:	000007cd 	andeq	r0, r0, sp, asr #15
     9fc:	00829420 	addeq	r9, r2, r0, lsr #8
     a00:	00032f00 	andeq	r2, r3, r0, lsl #30
     a04:	00049200 	andeq	r9, r4, r0, lsl #4
     a08:	50011300 	andpl	r1, r1, r0, lsl #6
     a0c:	00007402 	andeq	r7, r0, r2, lsl #8
     a10:	0082a820 	addeq	sl, r2, r0, lsr #16
     a14:	00032f00 	andeq	r2, r3, r0, lsl #30
     a18:	0004a600 	andeq	sl, r4, r0, lsl #12
     a1c:	50011300 	andpl	r1, r1, r0, lsl #6
     a20:	00007402 	andeq	r7, r0, r2, lsl #8
     a24:	0082b820 	addeq	fp, r2, r0, lsr #16
     a28:	0007b100 	andeq	fp, r7, r0, lsl #2
     a2c:	0004ba00 	andeq	fp, r4, r0, lsl #20
     a30:	50011300 	andpl	r1, r1, r0, lsl #6
     a34:	00007402 	andeq	r7, r0, r2, lsl #8
     a38:	0082c420 	addeq	ip, r2, r0, lsr #8
     a3c:	0007b100 	andeq	fp, r7, r0, lsl #2
     a40:	0004d700 	andeq	sp, r4, r0, lsl #14
     a44:	51011300 	mrspl	r1, SP_irq
     a48:	13007502 	movwne	r7, #1282	; 0x502
     a4c:	0c055001 	stceq	0, cr5, [r5], {1}
     a50:	2080400c 	addcs	r4, r0, ip
     a54:	82d02000 	sbcshi	r2, r0, #0
     a58:	07b10000 	ldreq	r0, [r1, r0]!
     a5c:	04f40000 	ldrbteq	r0, [r4], #0
     a60:	01130000 	tsteq	r3, r0
     a64:	00770251 	rsbseq	r0, r7, r1, asr r2
     a68:	05500113 	ldrbeq	r0, [r0, #-275]	; 0x113
     a6c:	8040080c 	subhi	r0, r0, ip, lsl #16
     a70:	dc200020 	stcle	0, cr0, [r0], #-128	; 0xffffff80
     a74:	bb000082 	bllt	c84 <_start-0x737c>
     a78:	08000002 	stmdaeq	r0, {r1}
     a7c:	13000005 	movwne	r0, #5
     a80:	74025001 	strvc	r5, [r2], #-1
     a84:	f0200000 			; <UNDEFINED> instruction: 0xf0200000
     a88:	b1000082 	smlabblt	r0, r2, r0, r0
     a8c:	1c000007 	stcne	0, cr0, [r0], {7}
     a90:	13000005 	movwne	r0, #5
     a94:	74025001 	strvc	r5, [r2], #-1
     a98:	fc200000 	stc2	0, cr0, [r0], #-0
     a9c:	2f000082 	svccs	0x00000082
     aa0:	30000003 	andcc	r0, r0, r3
     aa4:	13000005 	movwne	r0, #5
     aa8:	74025001 	strvc	r5, [r2], #-1
     aac:	50200000 	eorpl	r0, r0, r0
     ab0:	2f000083 	svccs	0x00000083
     ab4:	44000003 	strmi	r0, [r0], #-3
     ab8:	13000005 	movwne	r0, #5
     abc:	74025001 	strvc	r5, [r2], #-1
     ac0:	5c210000 	stcpl	0, cr0, [r1], #-0
     ac4:	cd000083 	stcgt	0, cr0, [r0, #-524]	; 0xfffffdf4
     ac8:	00000007 	andeq	r0, r0, r7
     acc:	004f0414 	subeq	r0, pc, r4, lsl r4	; <UNPREDICTABLE>
     ad0:	be1b0000 	cdplt	0, 1, cr0, cr11, cr0, {0}
     ad4:	01000001 	tsteq	r0, r1
     ad8:	000025cc 	andeq	r2, r0, ip, asr #11
     adc:	00837400 	addeq	r7, r3, r0, lsl #8
     ae0:	0000e000 	andeq	lr, r0, r0
     ae4:	b49c0100 	ldrlt	r0, [ip], #256	; 0x100
     ae8:	1c000006 	stcne	0, cr0, [r0], {6}
     aec:	000001cb 	andeq	r0, r0, fp, asr #3
     af0:	002ccc01 	eoreq	ip, ip, r1, lsl #24
     af4:	025e0000 	subseq	r0, lr, #0
     af8:	f01c0000 			; <UNDEFINED> instruction: 0xf01c0000
     afc:	01000001 	tsteq	r0, r1
     b00:	00054ecc 	andeq	r4, r5, ip, asr #29
     b04:	00028a00 	andeq	r8, r2, r0, lsl #20
     b08:	02b21c00 	adcseq	r1, r2, #0, 24
     b0c:	cc010000 	stcgt	0, cr0, [r1], {-0}
     b10:	0000002c 	andeq	r0, r0, ip, lsr #32
     b14:	000002a8 	andeq	r0, r0, r8, lsr #5
     b18:	0002c01d 	andeq	ip, r2, sp, lsl r0
     b1c:	38d40100 	ldmcc	r4, {r8}^
     b20:	1d000002 	stcne	0, cr0, [r0, #-8]
     b24:	000002b9 			; <UNDEFINED> instruction: 0x000002b9
     b28:	0180e101 	orreq	lr, r0, r1, lsl #2
     b2c:	e8220000 	stmda	r2!, {}	; <UNPREDICTABLE>
     b30:	3c000083 	stccc	0, cr0, [r0], {131}	; 0x83
     b34:	ef000000 	svc	0x00000000
     b38:	1f000005 	svcne	0x00000005
     b3c:	e9010069 	stmdb	r1, {r0, r3, r5, r6}
     b40:	00000025 	andeq	r0, r0, r5, lsr #32
     b44:	000002c6 	andeq	r0, r0, r6, asr #5
     b48:	00840020 	addeq	r0, r4, r0, lsr #32
     b4c:	00032f00 	andeq	r2, r3, r0, lsl #30
     b50:	0005de00 	andeq	sp, r5, r0, lsl #28
     b54:	50011300 	andpl	r1, r1, r0, lsl #6
     b58:	00007402 	andeq	r7, r0, r2, lsl #8
     b5c:	00841012 	addeq	r1, r4, r2, lsl r0
     b60:	00079000 	andeq	r9, r7, r0
     b64:	50011300 	andpl	r1, r1, r0, lsl #6
     b68:	00007802 	andeq	r7, r0, r2, lsl #16
     b6c:	83882100 	orrhi	r2, r8, #0, 2
     b70:	07cd0000 	strbeq	r0, [sp, r0]
     b74:	94200000 	strtls	r0, [r0], #-0
     b78:	2f000083 	svccs	0x00000083
     b7c:	0c000003 	stceq	0, cr0, [r0], {3}
     b80:	13000006 	movwne	r0, #6
     b84:	74025001 	strvc	r5, [r2], #-1
     b88:	a8200000 	stmdage	r0!, {}	; <UNPREDICTABLE>
     b8c:	2f000083 	svccs	0x00000083
     b90:	20000003 	andcs	r0, r0, r3
     b94:	13000006 	movwne	r0, #6
     b98:	74025001 	strvc	r5, [r2], #-1
     b9c:	b8200000 	stmdalt	r0!, {}	; <UNPREDICTABLE>
     ba0:	b1000083 	smlabblt	r0, r3, r0, r0
     ba4:	34000007 	strcc	r0, [r0], #-7
     ba8:	13000006 	movwne	r0, #6
     bac:	74025001 	strvc	r5, [r2], #-1
     bb0:	c4200000 	strtgt	r0, [r0], #-0
     bb4:	b1000083 	smlabblt	r0, r3, r0, r0
     bb8:	51000007 	tstpl	r0, r7
     bbc:	13000006 	movwne	r0, #6
     bc0:	75025101 	strvc	r5, [r2, #-257]	; 0x101
     bc4:	50011300 	andpl	r1, r1, r0, lsl #6
     bc8:	400c0c05 	andmi	r0, ip, r5, lsl #24
     bcc:	20002080 	andcs	r2, r0, r0, lsl #1
     bd0:	000083d0 	ldrdeq	r8, [r0], -r0
     bd4:	000007b1 			; <UNDEFINED> instruction: 0x000007b1
     bd8:	0000066e 	andeq	r0, r0, lr, ror #12
     bdc:	02510113 	subseq	r0, r1, #-1073741820	; 0xc0000004
     be0:	01130077 	tsteq	r3, r7, ror r0
     be4:	080c0550 	stmdaeq	ip, {r4, r6, r8, sl}
     be8:	00208040 	eoreq	r8, r0, r0, asr #32
     bec:	0083dc20 	addeq	sp, r3, r0, lsr #24
     bf0:	0002bb00 	andeq	fp, r2, r0, lsl #22
     bf4:	00068200 	andeq	r8, r6, r0, lsl #4
     bf8:	50011300 	andpl	r1, r1, r0, lsl #6
     bfc:	00007402 	andeq	r7, r0, r2, lsl #8
     c00:	0083e820 	addeq	lr, r3, r0, lsr #16
     c04:	0007b100 	andeq	fp, r7, r0, lsl #2
     c08:	00069600 	andeq	r9, r6, r0, lsl #12
     c0c:	50011300 	andpl	r1, r1, r0, lsl #6
     c10:	00007402 	andeq	r7, r0, r2, lsl #8
     c14:	00843020 	addeq	r3, r4, r0, lsr #32
     c18:	00032f00 	andeq	r2, r3, r0, lsl #30
     c1c:	0006aa00 	andeq	sl, r6, r0, lsl #20
     c20:	50011300 	andpl	r1, r1, r0, lsl #6
     c24:	00007402 	andeq	r7, r0, r2, lsl #8
     c28:	00843c21 	addeq	r3, r4, r1, lsr #24
     c2c:	0007cd00 	andeq	ip, r7, r0, lsl #26
     c30:	54230000 	strtpl	r0, [r3], #-0
     c34:	01000000 	mrseq	r0, (UNDEF: 0)
     c38:	008454fc 	strdeq	r5, [r4], ip
     c3c:	00004c00 	andeq	r4, r0, r0, lsl #24
     c40:	6c9c0100 	ldfvss	f0, [ip], {0}
     c44:	24000007 	strcs	r0, [r0], #-7
     c48:	00000390 	muleq	r0, r0, r3
     c4c:	6c010201 	sfmvs	f0, 4, [r1], {1}
     c50:	02000007 	andeq	r0, r0, #7
     c54:	0002c724 	andeq	ip, r2, r4, lsr #14
     c58:	01030100 	mrseq	r0, (UNDEF: 19)
     c5c:	0000076c 	andeq	r0, r0, ip, ror #14
     c60:	02b92503 	adcseq	r2, r9, #12582912	; 0xc00000
     c64:	0d010000 	stceq	0, cr0, [r1, #-0]
     c68:	00018001 	andeq	r8, r1, r1
     c6c:	845c2100 	ldrbhi	r2, [ip], #-256	; 0x100
     c70:	03a30000 			; <UNDEFINED> instruction: 0x03a30000
     c74:	60210000 	eorvs	r0, r1, r0
     c78:	cd000084 	stcgt	0, cr0, [r0, #-528]	; 0xfffffdf0
     c7c:	20000007 	andcs	r0, r0, r7
     c80:	0000846c 	andeq	r8, r0, ip, ror #8
     c84:	000007d4 	ldrdeq	r0, [r0], -r4
     c88:	00000719 	andeq	r0, r0, r9, lsl r7
     c8c:	01510113 	cmpeq	r1, r3, lsl r1
     c90:	50011334 	andpl	r1, r1, r4, lsr r3
     c94:	20003201 	andcs	r3, r0, r1, lsl #4
     c98:	00008478 	andeq	r8, r0, r8, ror r4
     c9c:	000007d4 	ldrdeq	r0, [r0], -r4
     ca0:	00000731 	andeq	r0, r0, r1, lsr r7
     ca4:	01510113 	cmpeq	r1, r3, lsl r1
     ca8:	50011334 	andpl	r1, r1, r4, lsr r3
     cac:	21003301 	tstcs	r0, r1, lsl #6
     cb0:	0000847c 	andeq	r8, r0, ip, ror r4
     cb4:	000007cd 	andeq	r0, r0, sp, asr #15
     cb8:	00848820 	addeq	r8, r4, r0, lsr #16
     cbc:	0002bb00 	andeq	fp, r2, r0, lsl #22
     cc0:	00074e00 	andeq	r4, r7, r0, lsl #28
     cc4:	50011300 	andpl	r1, r1, r0, lsl #6
     cc8:	00007402 	andeq	r7, r0, r2, lsl #8
     ccc:	00849420 	addeq	r9, r4, r0, lsr #8
     cd0:	0007b100 	andeq	fp, r7, r0, lsl #2
     cd4:	00076200 	andeq	r6, r7, r0, lsl #4
     cd8:	50011300 	andpl	r1, r1, r0, lsl #6
     cdc:	00007402 	andeq	r7, r0, r2, lsl #8
     ce0:	00849821 	addeq	r9, r4, r1, lsr #16
     ce4:	0007cd00 	andeq	ip, r7, r0, lsl #26
     ce8:	2c1a0000 	ldccs	0, cr0, [sl], {-0}
     cec:	26000000 	strcs	r0, [r0], -r0
     cf0:	00633269 	rsbeq	r3, r3, r9, ror #4
     cf4:	0780a001 	streq	sl, [r0, r1]
     cf8:	40000000 	andmi	r0, r0, r0
     cfc:	851a2080 	ldrhi	r2, [sl, #-128]	; 0x80
     d00:	14000007 	strne	r0, [r0], #-7
     d04:	00078b04 	andeq	r8, r7, r4, lsl #22
     d08:	02b01500 	adcseq	r1, r0, #0, 10
     d0c:	24270000 	strtcs	r0, [r7], #-0
     d10:	04000003 	streq	r0, [r0], #-3
     d14:	00002ca9 	andeq	r2, r0, r9, lsr #25
     d18:	0007a500 	andeq	sl, r7, r0, lsl #10
     d1c:	07a52800 	streq	r2, [r5, r0, lsl #16]!
     d20:	14000000 	strne	r0, [r0], #-0
     d24:	0007ab04 	andeq	sl, r7, r4, lsl #22
     d28:	07b01a00 	ldreq	r1, [r0, r0, lsl #20]!
     d2c:	2a290000 	bcs	a40d34 <__bss_end__+0xa37274>
     d30:	000002f5 	strdeq	r0, [r0], -r5
     d34:	07c79d04 	strbeq	r9, [r7, r4, lsl #26]
     d38:	c7280000 	strgt	r0, [r8, -r0]!
     d3c:	28000007 	stmdacs	r0, {r0, r1, r2}
     d40:	0000002c 	andeq	r0, r0, ip, lsr #32
     d44:	b0041400 	andlt	r1, r4, r0, lsl #8
     d48:	2b000007 	blcs	d6c <_start-0x7294>
     d4c:	000002fb 	strdeq	r0, [r0], -fp
     d50:	862c8a04 	strthi	r8, [ip], -r4, lsl #20
     d54:	03000002 	movweq	r0, #2
     d58:	002c2819 	eoreq	r2, ip, r9, lsl r8
     d5c:	c8280000 	stmdagt	r8!, {}	; <UNPREDICTABLE>
     d60:	00000000 	andeq	r0, r0, r0
     d64:	00019100 	andeq	r9, r1, r0, lsl #2
     d68:	0f000400 	svceq	0x00000400
     d6c:	04000004 	streq	r0, [r0], #-4
     d70:	0003bc01 	andeq	fp, r3, r1, lsl #24
     d74:	03ae0100 			; <UNDEFINED> instruction: 0x03ae0100
     d78:	04270000 	strteq	r0, [r7], #-0
     d7c:	84a00000 	strthi	r0, [r0], #0
     d80:	00580000 	subseq	r0, r8, r0
     d84:	03050000 	movweq	r0, #20480	; 0x5000
     d88:	9f020000 	svcls	0x00020000
     d8c:	02000003 	andeq	r0, r0, #3
     d90:	00003028 	andeq	r3, r0, r8, lsr #32
     d94:	041d0300 	ldreq	r0, [sp], #-768	; 0x300
     d98:	03040000 	movweq	r0, #16384	; 0x4000
     d9c:	00004700 	andeq	r4, r0, r0, lsl #14
     da0:	04700400 	ldrbteq	r0, [r0], #-1024	; 0x400
     da4:	00470000 	subeq	r0, r7, r0
     da8:	00000000 	andeq	r0, r0, r0
     dac:	1f020405 	svcne	0x00020405
     db0:	02000004 	andeq	r0, r0, #4
     db4:	00002562 	andeq	r2, r0, r2, ror #10
     db8:	05040600 	streq	r0, [r4, #-1536]	; 0x600
     dbc:	00746e69 	rsbseq	r6, r4, r9, ror #28
     dc0:	bc070407 	cfstrslt	mvf0, [r7], {7}
     dc4:	07000000 	streq	r0, [r0, -r0]
     dc8:	00140601 	andseq	r0, r4, r1, lsl #12
     dcc:	02070000 	andeq	r0, r7, #0
     dd0:	00007305 	andeq	r7, r0, r5, lsl #6
     dd4:	05040700 	streq	r0, [r4, #-1792]	; 0x700
     dd8:	00000155 	andeq	r0, r0, r5, asr r1
     ddc:	50050807 	andpl	r0, r5, r7, lsl #16
     de0:	07000001 	streq	r0, [r0, -r1]
     de4:	00120801 	andseq	r0, r2, r1, lsl #16
     de8:	02070000 	andeq	r0, r7, #0
     dec:	00004107 	andeq	r4, r0, r7, lsl #2
     df0:	07040700 	streq	r0, [r4, -r0, lsl #14]
     df4:	000000b7 	strheq	r0, [r0], -r7
     df8:	b2070807 	andlt	r0, r7, #458752	; 0x70000
     dfc:	07000000 	streq	r0, [r0, -r0]
     e00:	01470704 	cmpeq	r7, r4, lsl #14
     e04:	04080000 	streq	r0, [r8], #-0
     e08:	000000a7 	andeq	r0, r0, r7, lsr #1
     e0c:	1b080107 	blne	201230 <__bss_end__+0x1f7770>
     e10:	08000000 	stmdaeq	r0, {}	; <UNPREDICTABLE>
     e14:	0000b404 	andeq	fp, r0, r4, lsl #8
     e18:	00a70900 	adceq	r0, r7, r0, lsl #18
     e1c:	160a0000 	strne	r0, [sl], -r0
     e20:	01000004 	tsteq	r0, r4
     e24:	00005406 	andeq	r5, r0, r6, lsl #8
     e28:	0084a000 	addeq	sl, r4, r0
     e2c:	00005800 	andeq	r5, r0, r0, lsl #16
     e30:	439c0100 	orrsmi	r0, ip, #0, 2
     e34:	0b000001 	bleq	e40 <_start-0x71c0>
     e38:	00746d66 	rsbseq	r6, r4, r6, ror #26
     e3c:	00ae0601 	adceq	r0, lr, r1, lsl #12
     e40:	91020000 	mrsls	r0, (UNDEF: 2)
     e44:	620d0c70 	andvs	r0, sp, #112, 24	; 0x7000
     e48:	01006675 	tsteq	r0, r5, ror r6
     e4c:	00014308 	andeq	r4, r1, r8, lsl #6
     e50:	bc030500 	cfstr32lt	mvfx0, [r3], {-0}
     e54:	0e000096 	mcreq	0, 0, r0, cr0, cr6, {4}
     e58:	0000046b 	andeq	r0, r0, fp, ror #8
     e5c:	00490901 	subeq	r0, r9, r1, lsl #18
     e60:	91020000 	mrsls	r0, (UNDEF: 2)
     e64:	7a730f5c 	bvc	1cc4bdc <__bss_end__+0x1cbb11c>
     e68:	540c0100 	strpl	r0, [ip], #-256	; 0x100
     e6c:	e5000000 	str	r0, [r0, #-0]
     e70:	10000002 	andne	r0, r0, r2
     e74:	000084c8 	andeq	r8, r0, r8, asr #9
     e78:	00000174 	andeq	r0, r0, r4, ror r1
     e7c:	00000136 	andeq	r0, r0, r6, lsr r1
     e80:	02530111 	subseq	r0, r3, #1073741828	; 0x40000004
     e84:	01114c91 			; <UNDEFINED> instruction: 0x01114c91
     e88:	48910352 	ldmmi	r1, {r1, r4, r6, r8, r9}
     e8c:	51011106 	tstpl	r1, r6, lsl #2
     e90:	04000a03 	streq	r0, [r0], #-2563	; 0xa03
     e94:	02500111 	subseq	r0, r0, #1073741828	; 0x40000004
     e98:	12000074 	andne	r0, r0, #116	; 0x74
     e9c:	000084dc 	ldrdeq	r8, [r0], -ip
     ea0:	02500111 	subseq	r0, r0, #1073741828	; 0x40000004
     ea4:	00000074 	andeq	r0, r0, r4, ror r0
     ea8:	0000a713 	andeq	sl, r0, r3, lsl r7
     eac:	00015400 	andeq	r5, r1, r0, lsl #8
     eb0:	009a1400 	addseq	r1, sl, r0, lsl #8
     eb4:	03ff0000 	mvnseq	r0, #0
     eb8:	00541500 	subseq	r1, r4, r0, lsl #10
     ebc:	01630000 	cmneq	r3, r0
     ec0:	ae160000 	cdpge	0, 1, cr0, cr6, cr0, {0}
     ec4:	00000000 	andeq	r0, r0, r0
     ec8:	0004cd17 	andeq	ip, r4, r7, lsl sp
     ecc:	6e220400 	cdpvs	4, 2, cr0, cr2, cr0, {0}
     ed0:	08000001 	stmdaeq	r0, {r0}
     ed4:	00015404 	andeq	r5, r1, r4, lsl #8
     ed8:	04131800 	ldreq	r1, [r3], #-2048	; 0x800
     edc:	02050000 	andeq	r0, r5, #0
     ee0:	00000054 	andeq	r0, r0, r4, asr r0
     ee4:	0000a116 	andeq	sl, r0, r6, lsl r1
     ee8:	00541600 	subseq	r1, r4, r0, lsl #12
     eec:	ae160000 	cdpge	0, 1, cr0, cr6, cr0, {0}
     ef0:	16000000 	strne	r0, [r0], -r0
     ef4:	00000049 	andeq	r0, r0, r9, asr #32
     ef8:	01130000 	tsteq	r3, r0
     efc:	00040000 	andeq	r0, r4, r0
     f00:	00000540 	andeq	r0, r0, r0, asr #10
     f04:	03bc0104 			; <UNDEFINED> instruction: 0x03bc0104
     f08:	9c010000 	stcls	0, cr0, [r1], {-0}
     f0c:	27000004 	strcs	r0, [r0, -r4]
     f10:	f8000004 			; <UNDEFINED> instruction: 0xf8000004
     f14:	3c000084 	stccc	0, cr0, [r0], {132}	; 0x84
     f18:	0b000000 	bleq	f20 <_start-0x70e0>
     f1c:	02000004 	andeq	r0, r0, #4
     f20:	6e690504 	cdpvs	5, 6, cr0, cr9, cr4, {0}
     f24:	04030074 	streq	r0, [r3], #-116	; 0x74
     f28:	0000bc07 	andeq	fp, r0, r7, lsl #24
     f2c:	06010300 	streq	r0, [r1], -r0, lsl #6
     f30:	00000014 	andeq	r0, r0, r4, lsl r0
     f34:	73050203 	movwvc	r0, #20995	; 0x5203
     f38:	03000000 	movweq	r0, #0
     f3c:	01550504 	cmpeq	r5, r4, lsl #10
     f40:	08030000 	stmdaeq	r3, {}	; <UNPREDICTABLE>
     f44:	00015005 	andeq	r5, r1, r5
     f48:	08010300 	stmdaeq	r1, {r8, r9}
     f4c:	00000012 	andeq	r0, r0, r2, lsl r0
     f50:	41070203 	tstmi	r7, r3, lsl #4
     f54:	03000000 	movweq	r0, #0
     f58:	00b70704 	adcseq	r0, r7, r4, lsl #14
     f5c:	08030000 	stmdaeq	r3, {}	; <UNPREDICTABLE>
     f60:	0000b207 	andeq	fp, r0, r7, lsl #4
     f64:	07040300 	streq	r0, [r4, -r0, lsl #6]
     f68:	00000147 	andeq	r0, r0, r7, asr #2
     f6c:	1b080103 	blne	201380 <__bss_end__+0x1f78c0>
     f70:	04000000 	streq	r0, [r0], #-0
     f74:	0000047f 	andeq	r0, r0, pc, ror r4
     f78:	00250301 	eoreq	r0, r5, r1, lsl #6
     f7c:	84f80000 	ldrbthi	r0, [r8], #0
     f80:	00140000 	andseq	r0, r4, r0
     f84:	9c010000 	stcls	0, cr0, [r1], {-0}
     f88:	000000b0 	strheq	r0, [r0], -r0	; <UNPREDICTABLE>
     f8c:	01006305 	tsteq	r0, r5, lsl #6
     f90:	00002503 	andeq	r2, r0, r3, lsl #10
     f94:	00030e00 	andeq	r0, r3, r0, lsl #28
     f98:	85040600 	strhi	r0, [r4, #-1536]	; 0x600
     f9c:	01090000 	mrseq	r0, (UNDEF: 9)
     fa0:	01070000 	mrseq	r0, (UNDEF: 7)
     fa4:	00740250 	rsbseq	r0, r4, r0, asr r2
     fa8:	dc080000 	stcle	0, cr0, [r8], {-0}
     fac:	01000001 	tsteq	r0, r1
     fb0:	00850c08 	addeq	r0, r5, r8, lsl #24
     fb4:	00001800 	andeq	r1, r0, r0, lsl #16
     fb8:	099c0100 	ldmibeq	ip, {r8}
     fbc:	000004ab 	andeq	r0, r0, fp, lsr #9
     fc0:	85240b01 	strhi	r0, [r4, #-2817]!	; 0xb01
     fc4:	00100000 	andseq	r0, r0, r0
     fc8:	9c010000 	stcls	0, cr0, [r1], {-0}
     fcc:	000000e3 	andeq	r0, r0, r3, ror #1
     fd0:	0070660a 	rsbseq	r6, r0, sl, lsl #12
     fd4:	00f20b01 	rscseq	r0, r2, r1, lsl #22
     fd8:	50010000 	andpl	r0, r1, r0
     fdc:	00250b00 	eoreq	r0, r5, r0, lsl #22
     fe0:	00f20000 	rscseq	r0, r2, r0
     fe4:	250c0000 	strcs	r0, [ip, #-0]
     fe8:	00000000 	andeq	r0, r0, r0
     fec:	00e3040d 	rsceq	r0, r3, sp, lsl #8
     ff0:	900e0000 	andls	r0, lr, r0
     ff4:	01000004 	tsteq	r0, r4
     ff8:	0000f206 	andeq	pc, r0, r6, lsl #4
     ffc:	10030500 	andne	r0, r3, r0, lsl #10
    1000:	0f000093 	svceq	0x00000093
    1004:	00000475 	andeq	r0, r0, r5, ror r4
    1008:	2c0c3c02 	stccs	12, cr3, [ip], {2}
    100c:	00000000 	andeq	r0, r0, r0
    1010:	0000ee00 	andeq	lr, r0, r0, lsl #28
    1014:	28000400 	stmdacs	r0, {sl}
    1018:	04000006 	streq	r0, [r0], #-6
    101c:	0003bc01 	andeq	fp, r3, r1, lsl #24
    1020:	04b80100 	ldrteq	r0, [r8], #256	; 0x100
    1024:	04270000 	strteq	r0, [r7], #-0
    1028:	85340000 	ldrhi	r0, [r4, #-0]!
    102c:	00340000 	eorseq	r0, r4, r0
    1030:	04990000 	ldreq	r0, [r9], #0
    1034:	04020000 	streq	r0, [r2], #-0
    1038:	746e6905 	strbtvc	r6, [lr], #-2309	; 0x905
    103c:	07040300 	streq	r0, [r4, -r0, lsl #6]
    1040:	000000bc 	strheq	r0, [r0], -ip
    1044:	14060103 	strne	r0, [r6], #-259	; 0x103
    1048:	03000000 	movweq	r0, #0
    104c:	00730502 	rsbseq	r0, r3, r2, lsl #10
    1050:	04030000 	streq	r0, [r3], #-0
    1054:	00015505 	andeq	r5, r1, r5, lsl #10
    1058:	05080300 	streq	r0, [r8, #-768]	; 0x300
    105c:	00000150 	andeq	r0, r0, r0, asr r1
    1060:	12080103 	andne	r0, r8, #-1073741824	; 0xc0000000
    1064:	03000000 	movweq	r0, #0
    1068:	00410702 	subeq	r0, r1, r2, lsl #14
    106c:	04030000 	streq	r0, [r3], #-0
    1070:	0000b707 	andeq	fp, r0, r7, lsl #14
    1074:	07080300 	streq	r0, [r8, -r0, lsl #6]
    1078:	000000b2 	strheq	r0, [r0], -r2
    107c:	47070403 	strmi	r0, [r7, -r3, lsl #8]
    1080:	03000001 	movweq	r0, #1
    1084:	001b0801 	andseq	r0, fp, r1, lsl #16
    1088:	04040000 	streq	r0, [r4], #-0
    108c:	0000007f 	andeq	r0, r0, pc, ror r0
    1090:	00007205 	andeq	r7, r0, r5, lsl #4
    1094:	04c40600 	strbeq	r0, [r4], #1536	; 0x600
    1098:	04010000 	streq	r0, [r1], #-0
    109c:	00000025 	andeq	r0, r0, r5, lsr #32
    10a0:	00008534 	andeq	r8, r0, r4, lsr r5
    10a4:	00000034 	andeq	r0, r0, r4, lsr r0
    10a8:	00ab9c01 	adceq	r9, fp, r1, lsl #24
    10ac:	70070000 	andvc	r0, r7, r0
    10b0:	79040100 	stmdbvc	r4, {r8}
    10b4:	2c000000 	stccs	0, cr0, [r0], {-0}
    10b8:	00000003 	andeq	r0, r0, r3
    10bc:	00002508 	andeq	r2, r0, r8, lsl #10
    10c0:	0000ba00 	andeq	fp, r0, r0, lsl #20
    10c4:	00250900 	eoreq	r0, r5, r0, lsl #18
    10c8:	0a000000 	beq	10d0 <_start-0x6f30>
    10cc:	00000490 	muleq	r0, r0, r4
    10d0:	00c51d02 	sbceq	r1, r5, r2, lsl #26
    10d4:	04040000 	streq	r0, [r4], #-0
    10d8:	000000ab 	andeq	r0, r0, fp, lsr #1
    10dc:	00002508 	andeq	r2, r0, r8, lsl #10
    10e0:	0000da00 	andeq	sp, r0, r0, lsl #20
    10e4:	00790900 	rsbseq	r0, r9, r0, lsl #18
    10e8:	0b000000 	bleq	10f0 <_start-0x6f10>
    10ec:	000004cd 	andeq	r0, r0, sp, asr #9
    10f0:	00eb0c01 	rsceq	r0, fp, r1, lsl #24
    10f4:	03050000 	movweq	r0, #20480	; 0x5000
    10f8:	00009314 	andeq	r9, r0, r4, lsl r3
    10fc:	00cb0404 	sbceq	r0, fp, r4, lsl #8
    1100:	81000000 	mrshi	r0, (UNDEF: 0)
    1104:	04000006 	streq	r0, [r0], #-6
    1108:	0006c100 	andeq	ip, r6, r0, lsl #2
    110c:	bc010400 	cfstrslt	mvf0, [r1], {-0}
    1110:	01000003 	tsteq	r0, r3
    1114:	000004fe 	strdeq	r0, [r0], -lr
    1118:	00000427 	andeq	r0, r0, r7, lsr #8
    111c:	00008568 	andeq	r8, r0, r8, ror #10
    1120:	000004f8 	strdeq	r0, [r0], -r8
    1124:	00000533 	andeq	r0, r0, r3, lsr r5
    1128:	69050402 	stmdbvs	r5, {r1, sl}
    112c:	0300746e 	movweq	r7, #1134	; 0x46e
    1130:	00bc0704 	adcseq	r0, ip, r4, lsl #14
    1134:	01030000 	mrseq	r0, (UNDEF: 3)
    1138:	00001406 	andeq	r1, r0, r6, lsl #8
    113c:	05020300 	streq	r0, [r2, #-768]	; 0x300
    1140:	00000073 	andeq	r0, r0, r3, ror r0
    1144:	55050403 	strpl	r0, [r5, #-1027]	; 0x403
    1148:	03000001 	movweq	r0, #1
    114c:	01500508 	cmpeq	r0, r8, lsl #10
    1150:	01030000 	mrseq	r0, (UNDEF: 3)
    1154:	00001208 	andeq	r1, r0, r8, lsl #4
    1158:	07020300 	streq	r0, [r2, -r0, lsl #6]
    115c:	00000041 	andeq	r0, r0, r1, asr #32
    1160:	b7070403 	strlt	r0, [r7, -r3, lsl #8]
    1164:	03000000 	movweq	r0, #0
    1168:	00b20708 	adcseq	r0, r2, r8, lsl #14
    116c:	04030000 	streq	r0, [r3], #-0
    1170:	00014707 	andeq	r4, r1, r7, lsl #14
    1174:	05040400 	streq	r0, [r4, #-1024]	; 0x400
    1178:	00007a04 	andeq	r7, r0, r4, lsl #20
    117c:	08010300 	stmdaeq	r1, {r8, r9}
    1180:	0000001b 	andeq	r0, r0, fp, lsl r0
    1184:	00870405 	addeq	r0, r7, r5, lsl #8
    1188:	7a060000 	bvc	181190 <__bss_end__+0x1776d0>
    118c:	07000000 	streq	r0, [r0, -r0]
    1190:	0000039f 	muleq	r0, pc, r3	; <UNPREDICTABLE>
    1194:	00972802 	addseq	r2, r7, r2, lsl #16
    1198:	1d080000 	stcne	0, cr0, [r8, #-0]
    119c:	04000004 	streq	r0, [r0], #-4
    11a0:	00ae0004 	adceq	r0, lr, r4
    11a4:	70090000 	andvc	r0, r9, r0
    11a8:	72000004 	andvc	r0, r0, #4
    11ac:	00000000 	andeq	r0, r0, r0
    11b0:	041f0700 	ldreq	r0, [pc], #-1792	; 11b8 <_start-0x6e48>
    11b4:	62020000 	andvs	r0, r2, #0
    11b8:	0000008c 	andeq	r0, r0, ip, lsl #1
    11bc:	0004e00a 	andeq	lr, r4, sl
    11c0:	25270100 	strcs	r0, [r7, #-256]!	; 0x100
    11c4:	68000000 	stmdavs	r0, {}	; <UNPREDICTABLE>
    11c8:	14000085 	strne	r0, [r0], #-133	; 0x85
    11cc:	01000000 	mrseq	r0, (UNDEF: 0)
    11d0:	0000e09c 	muleq	r0, ip, r0
    11d4:	00630b00 	rsbeq	r0, r3, r0, lsl #22
    11d8:	00252701 	eoreq	r2, r5, r1, lsl #14
    11dc:	034a0000 	movteq	r0, #40960	; 0xa000
    11e0:	0c000000 	stceq	0, cr0, [r0], {-0}
    11e4:	00646170 	rsbeq	r6, r4, r0, ror r1
    11e8:	00742e01 	rsbseq	r2, r4, r1, lsl #28
    11ec:	857c0000 	ldrbhi	r0, [ip, #-0]!
    11f0:	002c0000 	eoreq	r0, ip, r0
    11f4:	9c010000 	stcls	0, cr0, [r1], {-0}
    11f8:	00000130 	andeq	r0, r0, r0, lsr r1
    11fc:	0100700b 	tsteq	r0, fp
    1200:	0000742e 	andeq	r7, r0, lr, lsr #8
    1204:	00037800 	andeq	r7, r3, r0, lsl #16
    1208:	04f00d00 	ldrbteq	r0, [r0], #3328	; 0xd00
    120c:	2e010000 	cdpcs	0, 0, cr0, cr1, cr0, {0}
    1210:	00000074 	andeq	r0, r0, r4, ror r0
    1214:	000003a3 	andeq	r0, r0, r3, lsr #7
    1218:	00051e0e 	andeq	r1, r5, lr, lsl #28
    121c:	252e0100 	strcs	r0, [lr, #-256]!	; 0x100
    1220:	01000000 	mrseq	r0, (UNDEF: 0)
    1224:	656c0f52 	strbvs	r0, [ip, #-3922]!	; 0xf52
    1228:	2f01006e 	svccs	0x0001006e
    122c:	00000025 	andeq	r0, r0, r5, lsr #32
    1230:	0a005101 	beq	1563c <__bss_end__+0xbb7c>
    1234:	000004d8 	ldrdeq	r0, [r0], -r8
    1238:	00743701 	rsbseq	r3, r4, r1, lsl #14
    123c:	85a80000 	strhi	r0, [r8, #0]!
    1240:	00400000 	subeq	r0, r0, r0
    1244:	9c010000 	stcls	0, cr0, [r1], {-0}
    1248:	0000019c 	muleq	r0, ip, r1
    124c:	7473640b 	ldrbtvc	r6, [r3], #-1035	; 0x40b
    1250:	74370100 	ldrtvc	r0, [r7], #-256	; 0x100
    1254:	c4000000 	strgt	r0, [r0], #-0
    1258:	0b000003 	bleq	126c <_start-0x6d94>
    125c:	3701006e 	strcc	r0, [r1, -lr, rrx]
    1260:	00000025 	andeq	r0, r0, r5, lsr #32
    1264:	000003fc 	strdeq	r0, [r0], -ip
    1268:	0100700b 	tsteq	r0, fp
    126c:	00007437 	andeq	r7, r0, r7, lsr r4
    1270:	00041d00 	andeq	r1, r4, r0, lsl #26
    1274:	058e0d00 	streq	r0, [lr, #3328]	; 0xd00
    1278:	37010000 	strcc	r0, [r1, -r0]
    127c:	00000074 	andeq	r0, r0, r4, ror r0
    1280:	00000453 	andeq	r0, r0, r3, asr r4
    1284:	6e656c10 	mcrvs	12, 3, r6, cr5, cr0, {0}
    1288:	25390100 	ldrcs	r0, [r9, #-256]!	; 0x100
    128c:	71000000 	mrsvc	r0, (UNDEF: 0)
    1290:	0f000004 	svceq	0x00000004
    1294:	3d010073 	stccc	0, cr0, [r1, #-460]	; 0xfffffe34
    1298:	00000074 	andeq	r0, r0, r4, ror r0
    129c:	0a005001 	beq	152a8 <__bss_end__+0xb7e8>
    12a0:	0000052c 	andeq	r0, r0, ip, lsr #10
    12a4:	00744701 	rsbseq	r4, r4, r1, lsl #14
    12a8:	85e80000 	strbhi	r0, [r8, #0]!
    12ac:	019c0000 	orrseq	r0, ip, r0
    12b0:	9c010000 	stcls	0, cr0, [r1], {-0}
    12b4:	000002d3 	ldrdeq	r0, [r0], -r3
    12b8:	0004f00d 	andeq	pc, r4, sp
    12bc:	2c470100 	stfcse	f0, [r7], {-0}
    12c0:	98000000 	stmdals	r0, {}	; <UNPREDICTABLE>
    12c4:	0b000004 	bleq	12dc <_start-0x6d24>
    12c8:	00747364 	rsbseq	r7, r4, r4, ror #6
    12cc:	00744701 	rsbseq	r4, r4, r1, lsl #14
    12d0:	04c60000 	strbeq	r0, [r6], #0
    12d4:	6e0b0000 	cdpvs	0, 0, cr0, cr11, cr0, {0}
    12d8:	25470100 	strbcs	r0, [r7, #-256]	; 0x100
    12dc:	34000000 	strcc	r0, [r0], #-0
    12e0:	0b000005 	bleq	12fc <_start-0x6d04>
    12e4:	006c6176 	rsbeq	r6, ip, r6, ror r1
    12e8:	00254701 	eoreq	r4, r5, r1, lsl #14
    12ec:	05600000 	strbeq	r0, [r0, #-0]!
    12f0:	1e0d0000 	cdpne	0, 0, cr0, cr13, cr0, {0}
    12f4:	01000005 	tsteq	r0, r5
    12f8:	00002547 	andeq	r2, r0, r7, asr #10
    12fc:	0005df00 	andeq	sp, r5, r0, lsl #30
    1300:	04f50e00 	ldrbteq	r0, [r5], #3584	; 0xe00
    1304:	47010000 	strmi	r0, [r1, -r0]
    1308:	00000025 	andeq	r0, r0, r5, lsr #32
    130c:	0f049102 	svceq	0x00049102
    1310:	00667562 	rsbeq	r7, r6, r2, ror #10
    1314:	02d34c01 	sbcseq	r4, r3, #256	; 0x100
    1318:	91030000 	mrsls	r0, (UNDEF: 3)
    131c:	70107fa8 	andsvc	r7, r0, r8, lsr #31
    1320:	744c0100 	strbvc	r0, [ip], #-256	; 0x100
    1324:	09000000 	stmdbeq	r0, {}	; <UNPREDICTABLE>
    1328:	10000006 	andne	r0, r0, r6
    132c:	4d010075 	stcmi	0, cr0, [r1, #-468]	; 0xfffffe2c
    1330:	0000002c 	andeq	r0, r0, ip, lsr #32
    1334:	000006ae 	andeq	r0, r0, lr, lsr #13
    1338:	00008711 	andeq	r8, r0, r1, lsl r7
    133c:	0002f300 	andeq	pc, r2, r0, lsl #6
    1340:	ac030500 	cfstr32ge	mvfx0, [r3], {-0}
    1344:	12000095 	andne	r0, r0, #149	; 0x95
    1348:	00008654 	andeq	r8, r0, r4, asr r6
    134c:	00000074 	andeq	r0, r0, r4, ror r0
    1350:	00000261 	andeq	r0, r0, r1, ror #4
    1354:	0004d213 	andeq	sp, r4, r3, lsl r2
    1358:	2c520100 	ldfcse	f0, [r2], {-0}
    135c:	b3000000 	movwlt	r0, #0
    1360:	00000007 	andeq	r0, r0, r7
    1364:	00872814 	addeq	r2, r7, r4, lsl r8
    1368:	00066000 	andeq	r6, r6, r0
    136c:	873c1500 	ldrhi	r1, [ip, -r0, lsl #10]!
    1370:	06670000 	strbteq	r0, [r7], -r0
    1374:	02990000 	addseq	r0, r9, #0
    1378:	01160000 	tsteq	r6, r0
    137c:	75080253 	strvc	r0, [r8, #-595]	; 0x253
    1380:	05520116 	ldrbeq	r0, [r2, #-278]	; 0x116
    1384:	0095ac03 	addseq	sl, r5, r3, lsl #24
    1388:	51011600 	tstpl	r1, r0, lsl #12
    138c:	95e40305 	strbls	r0, [r4, #773]!	; 0x305
    1390:	01160000 	tsteq	r6, r0
    1394:	d0030550 	andle	r0, r3, r0, asr r5
    1398:	00000095 	muleq	r0, r5, r0
    139c:	00874014 	addeq	r4, r7, r4, lsl r0
    13a0:	00067d00 	andeq	r7, r6, r0, lsl #26
    13a4:	874c1500 	strbhi	r1, [ip, -r0, lsl #10]
    13a8:	00e00000 	rsceq	r0, r0, r0
    13ac:	02b60000 	adcseq	r0, r6, #0
    13b0:	01160000 	tsteq	r6, r0
    13b4:	007d0251 	rsbseq	r0, sp, r1, asr r2
    13b8:	87601700 	strbhi	r1, [r0, -r0, lsl #14]!
    13bc:	01300000 	teqeq	r0, r0
    13c0:	01160000 	tsteq	r6, r0
    13c4:	007d0253 	rsbseq	r0, sp, r3, asr r2
    13c8:	02510116 	subseq	r0, r1, #-2147483643	; 0x80000005
    13cc:	01160074 	tsteq	r6, r4, ror r0
    13d0:	00750250 	rsbseq	r0, r5, r0, asr r2
    13d4:	7a180000 	bvc	6013dc <__bss_end__+0x5f791c>
    13d8:	e3000000 	movw	r0, #0
    13dc:	19000002 	stmdbne	r0, {r1}
    13e0:	0000006b 	andeq	r0, r0, fp, rrx
    13e4:	7a18003f 	bvc	6014e8 <__bss_end__+0x5f7a28>
    13e8:	f3000000 	vhadd.u8	d0, d0, d0
    13ec:	19000002 	stmdbne	r0, {r1}
    13f0:	0000006b 	andeq	r0, r0, fp, rrx
    13f4:	e3060004 	movw	r0, #24580	; 0x6004
    13f8:	1a000002 	bne	1408 <_start-0x6bf8>
    13fc:	0000050f 	andeq	r0, r0, pc, lsl #10
    1400:	87841f01 	strhi	r1, [r4, r1, lsl #30]
    1404:	00540000 	subseq	r0, r4, r0
    1408:	9c010000 	stcls	0, cr0, [r1], {-0}
    140c:	0000037c 	andeq	r0, r0, ip, ror r3
    1410:	0005240d 	andeq	r2, r5, sp, lsl #8
    1414:	8b1f0100 	blhi	7c181c <__bss_end__+0x7b7d5c>
    1418:	df000003 	svcle	0x00000003
    141c:	0d000007 	stceq	0, cr0, [r0, #-28]	; 0xffffffe4
    1420:	000004e8 	andeq	r0, r0, r8, ror #9
    1424:	03a01f01 	moveq	r1, #1, 30
    1428:	080b0000 	stmdaeq	fp, {}	; <UNPREDICTABLE>
    142c:	87110000 	ldrhi	r0, [r1, -r0]
    1430:	b6000000 	strlt	r0, [r0], -r0
    1434:	05000003 	streq	r0, [r0, #-3]
    1438:	0095b403 	addseq	fp, r5, r3, lsl #8
    143c:	87941400 	ldrhi	r1, [r4, r0, lsl #8]
    1440:	06600000 	strbteq	r0, [r0], -r0
    1444:	a8150000 	ldmdage	r5, {}	; <UNPREDICTABLE>
    1448:	67000087 	strvs	r0, [r0, -r7, lsl #1]
    144c:	72000006 	andvc	r0, r0, #6
    1450:	16000003 	strne	r0, [r0], -r3
    1454:	08025301 	stmdaeq	r2, {r0, r8, r9, ip, lr}
    1458:	52011620 	andpl	r1, r1, #32, 12	; 0x2000000
    145c:	95b40305 	ldrls	r0, [r4, #773]!	; 0x305
    1460:	01160000 	tsteq	r6, r0
    1464:	e4030551 	str	r0, [r3], #-1361	; 0x551
    1468:	16000095 			; <UNDEFINED> instruction: 0x16000095
    146c:	03055001 	movweq	r5, #20481	; 0x5001
    1470:	0000961c 	andeq	r9, r0, ip, lsl r6
    1474:	87ac1400 	strhi	r1, [ip, r0, lsl #8]!
    1478:	067d0000 	ldrbteq	r0, [sp], -r0
    147c:	1b000000 	blne	1484 <_start-0x6b7c>
    1480:	00000025 	andeq	r0, r0, r5, lsr #32
    1484:	0000038b 	andeq	r0, r0, fp, lsl #7
    1488:	0000251c 	andeq	r2, r0, ip, lsl r5
    148c:	04050000 	streq	r0, [r5], #-0
    1490:	0000037c 	andeq	r0, r0, ip, ror r3
    1494:	0000251b 	andeq	r2, r0, fp, lsl r5
    1498:	0003a000 	andeq	sl, r3, r0
    149c:	00811c00 	addeq	r1, r1, r0, lsl #24
    14a0:	05000000 	streq	r0, [r0, #-0]
    14a4:	00039104 	andeq	r9, r3, r4, lsl #2
    14a8:	007a1800 	rsbseq	r1, sl, r0, lsl #16
    14ac:	03b60000 			; <UNDEFINED> instruction: 0x03b60000
    14b0:	6b190000 	blvs	6414b8 <__bss_end__+0x6379f8>
    14b4:	0e000000 	cdpeq	0, 0, cr0, cr0, cr0, {0}
    14b8:	03a60600 			; <UNDEFINED> instruction: 0x03a60600
    14bc:	131d0000 	tstne	sp, #0
    14c0:	01000004 	tsteq	r0, r4
    14c4:	0000257d 	andeq	r2, r0, sp, ror r5
    14c8:	0087d800 	addeq	sp, r7, r0, lsl #16
    14cc:	00028800 	andeq	r8, r2, r0, lsl #16
    14d0:	259c0100 	ldrcs	r0, [ip, #256]	; 0x100
    14d4:	0b000006 	bleq	14f4 <_start-0x6b0c>
    14d8:	00667562 	rsbeq	r7, r6, r2, ror #10
    14dc:	00747d01 	rsbseq	r7, r4, r1, lsl #26
    14e0:	08370000 	ldmdaeq	r7!, {}	; <UNPREDICTABLE>
    14e4:	6e0b0000 	cdpvs	0, 0, cr0, cr11, cr0, {0}
    14e8:	257d0100 	ldrbcs	r0, [sp, #-256]!	; 0x100
    14ec:	63000000 	movwvs	r0, #0
    14f0:	0b000008 	bleq	1518 <_start-0x6ae8>
    14f4:	00746d66 	rsbseq	r6, r4, r6, ror #26
    14f8:	00817d01 	addeq	r7, r1, r1, lsl #26
    14fc:	08910000 	ldmeq	r1, {}	; <UNPREDICTABLE>
    1500:	6b0d0000 	blvs	341508 <__bss_end__+0x337a48>
    1504:	01000004 	tsteq	r0, r4
    1508:	0000ae7d 	andeq	sl, r0, sp, ror lr
    150c:	0008c500 	andeq	ip, r8, r0, lsl #10
    1510:	00701000 	rsbseq	r1, r0, r0
    1514:	00747e01 	rsbseq	r7, r4, r1, lsl #28
    1518:	08d80000 	ldmeq	r8, {}^	; <UNPREDICTABLE>
    151c:	65100000 	ldrvs	r0, [r0, #-0]
    1520:	747e0100 	ldrbtvc	r0, [lr], #-256	; 0x100
    1524:	56000000 	strpl	r0, [r0], -r0
    1528:	11000009 	tstne	r0, r9
    152c:	00000087 	andeq	r0, r0, r7, lsl #1
    1530:	00000635 	andeq	r0, r0, r5, lsr r6
    1534:	95c40305 	strbls	r0, [r4, #773]	; 0x305
    1538:	481e0000 	ldmdami	lr, {}	; <UNPREDICTABLE>
    153c:	10000000 	andne	r0, r0, r0
    1540:	8b010073 	blhi	41714 <__bss_end__+0x37c54>
    1544:	00000074 	andeq	r0, r0, r4, ror r0
    1548:	0000097d 	andeq	r0, r0, sp, ror r9
    154c:	6d756e0f 	ldclvs	14, cr6, [r5, #-60]!	; 0xffffffc4
    1550:	3a8b0100 	bcc	fe2c1958 <__bss_end__+0xfe2b7e98>
    1554:	03000006 	movweq	r0, #6
    1558:	137ed891 	cmnne	lr, #9502720	; 0x910000
    155c:	0000051e 	andeq	r0, r0, lr, lsl r5
    1560:	002c8c01 	eoreq	r8, ip, r1, lsl #24
    1564:	09d20000 	ldmibeq	r2, {}^	; <UNPREDICTABLE>
    1568:	5c150000 	ldcpl	0, cr0, [r5], {-0}
    156c:	b9000088 	stmdblt	r0, {r3, r7}
    1570:	7b000000 	blvc	1578 <_start-0x6a88>
    1574:	16000004 	strne	r0, [r0], -r4
    1578:	75025001 	strvc	r5, [r2, #-1]
    157c:	70140000 	andsvc	r0, r4, r0
    1580:	60000088 	andvs	r0, r0, r8, lsl #1
    1584:	15000006 	strne	r0, [r0, #-6]
    1588:	00008884 	andeq	r8, r0, r4, lsl #17
    158c:	00000667 	andeq	r0, r0, r7, ror #12
    1590:	000004b3 			; <UNDEFINED> instruction: 0x000004b3
    1594:	02530116 	subseq	r0, r3, #-2147483643	; 0x80000005
    1598:	01169208 	tsteq	r6, r8, lsl #4
    159c:	c4030552 	strgt	r0, [r3], #-1362	; 0x552
    15a0:	16000095 			; <UNDEFINED> instruction: 0x16000095
    15a4:	03055101 	movweq	r5, #20737	; 0x5101
    15a8:	000095e4 	andeq	r9, r0, r4, ror #11
    15ac:	05500116 	ldrbeq	r0, [r0, #-278]	; 0x116
    15b0:	00963403 	addseq	r3, r6, r3, lsl #8
    15b4:	88140000 	ldmdahi	r4, {}	; <UNPREDICTABLE>
    15b8:	7d000088 	stcvc	0, cr0, [r0, #-544]	; 0xfffffde0
    15bc:	14000006 	strne	r0, [r0], #-6
    15c0:	000088f8 	strdeq	r8, [r0], -r8	; <UNPREDICTABLE>
    15c4:	00000660 	andeq	r0, r0, r0, ror #12
    15c8:	00890c15 	addeq	r0, r9, r5, lsl ip
    15cc:	00066700 	andeq	r6, r6, r0, lsl #14
    15d0:	0004f400 	andeq	pc, r4, r0, lsl #8
    15d4:	53011600 	movwpl	r1, #5632	; 0x1600
    15d8:	16980802 	ldrne	r0, [r8], r2, lsl #16
    15dc:	03055201 	movweq	r5, #20993	; 0x5201
    15e0:	000095c4 	andeq	r9, r0, r4, asr #11
    15e4:	05510116 	ldrbeq	r0, [r1, #-278]	; 0x116
    15e8:	0095e403 	addseq	lr, r5, r3, lsl #8
    15ec:	50011600 	andpl	r1, r1, r0, lsl #12
    15f0:	96500305 	ldrbls	r0, [r0], -r5, lsl #6
    15f4:	14000000 	strne	r0, [r0], #-0
    15f8:	00008910 	andeq	r8, r0, r0, lsl r9
    15fc:	0000067d 	andeq	r0, r0, sp, ror r6
    1600:	00893415 	addeq	r3, r9, r5, lsl r4
    1604:	00019c00 	andeq	r9, r1, r0, lsl #24
    1608:	00052a00 	andeq	r2, r5, r0, lsl #20
    160c:	52011600 	andpl	r1, r1, #0, 12
    1610:	16800802 	strne	r0, [r0], r2, lsl #16
    1614:	91035101 	tstls	r3, r1, lsl #2
    1618:	01167ed0 			; <UNDEFINED> instruction: 0x01167ed0
    161c:	163a0150 			; <UNDEFINED> instruction: 0x163a0150
    1620:	01047d02 	tsteq	r4, r2, lsl #26
    1624:	7d021631 	stcvc	6, cr1, [r2, #-196]	; 0xffffff3c
    1628:	00770200 	rsbseq	r0, r7, r0, lsl #4
    162c:	89581500 	ldmdbhi	r8, {r8, sl, ip}^
    1630:	019c0000 	orrseq	r0, ip, r0
    1634:	05580000 	ldrbeq	r0, [r8, #-0]
    1638:	01160000 	tsteq	r6, r0
    163c:	80080252 	andhi	r0, r8, r2, asr r2
    1640:	03510116 	cmpeq	r1, #-2147483643	; 0x80000005
    1644:	167ed091 			; <UNDEFINED> instruction: 0x167ed091
    1648:	3a015001 	bcc	55654 <__bss_end__+0x4bb94>
    164c:	047d0216 	ldrbteq	r0, [sp], #-534	; 0x216
    1650:	16007b02 	strne	r7, [r0], -r2, lsl #22
    1654:	02007d02 	andeq	r7, r0, #2, 26	; 0x80
    1658:	15000077 	strne	r0, [r0, #-119]	; 0x77
    165c:	0000897c 	andeq	r8, r0, ip, ror r9
    1660:	0000019c 	muleq	r0, ip, r1
    1664:	00000586 	andeq	r0, r0, r6, lsl #11
    1668:	02520116 	subseq	r0, r2, #-2147483643	; 0x80000005
    166c:	01168008 	tsteq	r6, r8
    1670:	d0910351 	addsle	r0, r1, r1, asr r3
    1674:	5001167e 	andpl	r1, r1, lr, ror r6
    1678:	02164001 	andseq	r4, r6, #1
    167c:	7b02047d 	blvc	82878 <__bss_end__+0x78db8>
    1680:	7d021600 	stcvc	6, cr1, [r2, #-0]
    1684:	00770200 	rsbseq	r0, r7, r0, lsl #4
    1688:	89a01500 	stmibhi	r0!, {r8, sl, ip}
    168c:	019c0000 	orrseq	r0, ip, r0
    1690:	05b40000 	ldreq	r0, [r4, #0]!
    1694:	01160000 	tsteq	r6, r0
    1698:	80080252 	andhi	r0, r8, r2, asr r2
    169c:	03510116 	cmpeq	r1, #-2147483643	; 0x80000005
    16a0:	167ed091 			; <UNDEFINED> instruction: 0x167ed091
    16a4:	32015001 	andcc	r5, r1, #1
    16a8:	047d0216 	ldrbteq	r0, [sp], #-534	; 0x216
    16ac:	16007b02 	strne	r7, [r0], -r2, lsl #22
    16b0:	02007d02 	andeq	r7, r0, #2, 26	; 0x80
    16b4:	15000077 	strne	r0, [r0, #-119]	; 0x77
    16b8:	000089d0 	ldrdeq	r8, [r0], -r0
    16bc:	0000019c 	muleq	r0, ip, r1
    16c0:	000005e2 	andeq	r0, r0, r2, ror #11
    16c4:	02520116 	subseq	r0, r2, #-2147483643	; 0x80000005
    16c8:	01168008 	tsteq	r6, r8
    16cc:	d0910351 	addsle	r0, r1, r1, asr r3
    16d0:	5001167e 	andpl	r1, r1, lr, ror r6
    16d4:	02163801 	andseq	r3, r6, #65536	; 0x10000
    16d8:	7b02047d 	blvc	828d4 <__bss_end__+0x78e14>
    16dc:	7d021600 	stcvc	6, cr1, [r2, #-0]
    16e0:	00770200 	rsbseq	r0, r7, r0, lsl #4
    16e4:	89d81400 	ldmibhi	r8, {sl, ip}^
    16e8:	06600000 	strbteq	r0, [r0], -r0
    16ec:	f4150000 			; <UNDEFINED> instruction: 0xf4150000
    16f0:	67000089 	strvs	r0, [r0, -r9, lsl #1]
    16f4:	1a000006 	bne	1714 <_start-0x68ec>
    16f8:	16000006 	strne	r0, [r0], -r6
    16fc:	08025301 	stmdaeq	r2, {r0, r8, r9, ip, lr}
    1700:	520116b9 	andpl	r1, r1, #193986560	; 0xb900000
    1704:	95c40305 	strbls	r0, [r4, #773]	; 0x305
    1708:	01160000 	tsteq	r6, r0
    170c:	e4030551 	str	r0, [r3], #-1361	; 0x551
    1710:	16000095 			; <UNDEFINED> instruction: 0x16000095
    1714:	03055001 	movweq	r5, #20481	; 0x5001
    1718:	00009678 	andeq	r9, r0, r8, ror r6
    171c:	89f81400 	ldmibhi	r8!, {sl, ip}^
    1720:	067d0000 	ldrbteq	r0, [sp], -r0
    1724:	00000000 	andeq	r0, r0, r0
    1728:	00007a18 	andeq	r7, r0, r8, lsl sl
    172c:	00063500 	andeq	r3, r6, r0, lsl #10
    1730:	006b1900 	rsbeq	r1, fp, r0, lsl #18
    1734:	00090000 	andeq	r0, r9, r0
    1738:	00062506 	andeq	r2, r6, r6, lsl #10
    173c:	007a1800 	rsbseq	r1, sl, r0, lsl #16
    1740:	064a0000 	strbeq	r0, [sl], -r0
    1744:	6b190000 	blvs	64174c <__bss_end__+0x637c8c>
    1748:	7f000000 	svcvc	0x00000000
    174c:	04901f00 	ldreq	r1, [r0], #3840	; 0xf00
    1750:	1d030000 	stcne	0, cr0, [r3, #-0]
    1754:	0000038b 	andeq	r0, r0, fp, lsl #7
    1758:	0004cd1f 	andeq	ip, r4, pc, lsl sp
    175c:	a0220300 	eorge	r0, r2, r0, lsl #6
    1760:	20000003 	andcs	r0, r0, r3
    1764:	000001dc 	ldrdeq	r0, [r0], -ip
    1768:	16211e03 	strtne	r1, [r1], -r3, lsl #28
    176c:	03000004 	movweq	r0, #4
    1770:	00002529 	andeq	r2, r0, r9, lsr #10
    1774:	00067d00 	andeq	r7, r6, r0, lsl #26
    1778:	00811c00 	addeq	r1, r1, r0, lsl #24
    177c:	00220000 	eoreq	r0, r2, r0
    1780:	00002920 	andeq	r2, r0, r0, lsr #18
    1784:	00660300 	rsbeq	r0, r6, r0, lsl #6
    1788:	000000ff 	strdeq	r0, [r0], -pc	; <UNPREDICTABLE>
    178c:	089d0004 	ldmeq	sp, {r2}
    1790:	01040000 	mrseq	r0, (UNDEF: 4)
    1794:	000003bc 			; <UNDEFINED> instruction: 0x000003bc
    1798:	00053c01 	andeq	r3, r5, r1, lsl #24
    179c:	00042700 	andeq	r2, r4, r0, lsl #14
    17a0:	008a6000 	addeq	r6, sl, r0
    17a4:	00002800 	andeq	r2, r0, r0, lsl #16
    17a8:	00071500 	andeq	r1, r7, r0, lsl #10
    17ac:	05040200 	streq	r0, [r4, #-512]	; 0x200
    17b0:	00746e69 	rsbseq	r6, r4, r9, ror #28
    17b4:	bc070403 	cfstrslt	mvf0, [r7], {3}
    17b8:	03000000 	movweq	r0, #0
    17bc:	00140601 	andseq	r0, r4, r1, lsl #12
    17c0:	02030000 	andeq	r0, r3, #0
    17c4:	00007305 	andeq	r7, r0, r5, lsl #6
    17c8:	05040300 	streq	r0, [r4, #-768]	; 0x300
    17cc:	00000155 	andeq	r0, r0, r5, asr r1
    17d0:	50050803 	andpl	r0, r5, r3, lsl #16
    17d4:	03000001 	movweq	r0, #1
    17d8:	00120801 	andseq	r0, r2, r1, lsl #16
    17dc:	02030000 	andeq	r0, r3, #0
    17e0:	00004107 	andeq	r4, r0, r7, lsl #2
    17e4:	07040300 	streq	r0, [r4, -r0, lsl #6]
    17e8:	000000b7 	strheq	r0, [r0], -r7
    17ec:	b2070803 	andlt	r0, r7, #196608	; 0x30000
    17f0:	03000000 	movweq	r0, #0
    17f4:	01470704 	cmpeq	r7, r4, lsl #14
    17f8:	01030000 	mrseq	r0, (UNDEF: 3)
    17fc:	00001b08 	andeq	r1, r0, r8, lsl #22
    1800:	7f040400 	svcvc	0x00040400
    1804:	05000000 	streq	r0, [r0, #-0]
    1808:	00000072 	andeq	r0, r0, r2, ror r0
    180c:	00002906 	andeq	r2, r0, r6, lsl #18
    1810:	60040100 	andvs	r0, r4, r0, lsl #2
    1814:	2800008a 	stmdacs	r0, {r1, r3, r7}
    1818:	01000000 	mrseq	r0, (UNDEF: 0)
    181c:	0000ca9c 	muleq	r0, ip, sl
    1820:	8a740700 	bhi	1d03428 <__bss_end__+0x1cf9968>
    1824:	00ac0000 	adceq	r0, ip, r0
    1828:	01080000 	mrseq	r0, (UNDEF: 8)
    182c:	b0030550 	andlt	r0, r3, r0, asr r5
    1830:	00000096 	muleq	r0, r6, r0
    1834:	008a7c09 	addeq	r7, sl, r9, lsl #24
    1838:	0000ea00 	andeq	lr, r0, r0, lsl #20
    183c:	0000c000 	andeq	ip, r0, r0
    1840:	50010800 	andpl	r0, r1, r0, lsl #16
    1844:	00640802 	rsbeq	r0, r4, r2, lsl #16
    1848:	008a800a 	addeq	r8, sl, sl
    184c:	0000fb00 	andeq	pc, r0, r0, lsl #22
    1850:	250b0000 	strcs	r0, [fp, #-0]
    1854:	d9000000 	stmdble	r0, {}	; <UNPREDICTABLE>
    1858:	0c000000 	stceq	0, cr0, [r0], {-0}
    185c:	00000079 	andeq	r0, r0, r9, ror r0
    1860:	04cd0d00 	strbeq	r0, [sp], #3328	; 0xd00
    1864:	22020000 	andcs	r0, r2, #0
    1868:	000000e4 	andeq	r0, r0, r4, ror #1
    186c:	00ca0404 	sbceq	r0, sl, r4, lsl #8
    1870:	200e0000 	andcs	r0, lr, r0
    1874:	02000000 	andeq	r0, r0, #0
    1878:	0000fb50 	andeq	pc, r0, r0, asr fp	; <UNPREDICTABLE>
    187c:	002c0c00 	eoreq	r0, ip, r0, lsl #24
    1880:	0f000000 	svceq	0x00000000
    1884:	00000531 	andeq	r0, r0, r1, lsr r5
    1888:	ff006302 			; <UNDEFINED> instruction: 0xff006302
    188c:	04000000 	streq	r0, [r0], #-0
    1890:	00096700 	andeq	r6, r9, r0, lsl #14
    1894:	bc010400 	cfstrslt	mvf0, [r1], {-0}
    1898:	01000003 	tsteq	r0, r3
    189c:	00000556 	andeq	r0, r0, r6, asr r5
    18a0:	00000427 	andeq	r0, r0, r7, lsr #8
    18a4:	00008a88 	andeq	r8, r0, r8, lsl #21
    18a8:	00000034 	andeq	r0, r0, r4, lsr r0
    18ac:	000007ac 	andeq	r0, r0, ip, lsr #15
    18b0:	69050402 	stmdbvs	r5, {r1, sl}
    18b4:	0300746e 	movweq	r7, #1134	; 0x46e
    18b8:	00bc0704 	adcseq	r0, ip, r4, lsl #14
    18bc:	01030000 	mrseq	r0, (UNDEF: 3)
    18c0:	00001406 	andeq	r1, r0, r6, lsl #8
    18c4:	05020300 	streq	r0, [r2, #-768]	; 0x300
    18c8:	00000073 	andeq	r0, r0, r3, ror r0
    18cc:	55050403 	strpl	r0, [r5, #-1027]	; 0x403
    18d0:	03000001 	movweq	r0, #1
    18d4:	01500508 	cmpeq	r0, r8, lsl #10
    18d8:	01030000 	mrseq	r0, (UNDEF: 3)
    18dc:	00001208 	andeq	r1, r0, r8, lsl #4
    18e0:	07020300 	streq	r0, [r2, -r0, lsl #6]
    18e4:	00000041 	andeq	r0, r0, r1, asr #32
    18e8:	b7070403 	strlt	r0, [r7, -r3, lsl #8]
    18ec:	03000000 	movweq	r0, #0
    18f0:	00b20708 	adcseq	r0, r2, r8, lsl #14
    18f4:	04030000 	streq	r0, [r3], #-0
    18f8:	00014707 	andeq	r4, r1, r7, lsl #14
    18fc:	08010300 	stmdaeq	r1, {r8, r9}
    1900:	0000001b 	andeq	r0, r0, fp, lsl r0
    1904:	00058c04 	andeq	r8, r5, r4, lsl #24
    1908:	880d0100 	stmdahi	sp, {r8}
    190c:	3400008a 	strcc	r0, [r0], #-138	; 0x8a
    1910:	01000000 	mrseq	r0, (UNDEF: 0)
    1914:	0000d89c 	muleq	r0, ip, r8
    1918:	056a0500 	strbeq	r0, [sl, #-1280]!	; 0x500
    191c:	0e010000 	cdpeq	0, 0, cr0, cr1, cr0, {0}
    1920:	00000025 	andeq	r0, r0, r5, lsr #32
    1924:	00057805 	andeq	r7, r5, r5, lsl #16
    1928:	250e0100 	strcs	r0, [lr, #-256]	; 0x100
    192c:	06000000 	streq	r0, [r0], -r0
    1930:	00000000 	andeq	r0, r0, r0
    1934:	62070f01 	andvs	r0, r7, #1, 30
    1938:	01007373 	tsteq	r0, r3, ror r3
    193c:	0000d811 	andeq	sp, r0, r1, lsl r8
    1940:	0009fc00 	andeq	pc, r9, r0, lsl #24
    1944:	05840800 	streq	r0, [r4, #2048]	; 0x800
    1948:	12010000 	andne	r0, r1, #0
    194c:	000000d8 	ldrdeq	r0, [r0], -r8
    1950:	008ab009 	addeq	fp, sl, r9
    1954:	0000f400 	andeq	pc, r0, r0, lsl #8
    1958:	8ab40900 	bhi	fed03d60 <__bss_end__+0xfecfa2a0>
    195c:	00fb0000 	rscseq	r0, fp, r0
    1960:	0a000000 	beq	1968 <_start-0x6698>
    1964:	00002504 	andeq	r2, r0, r4, lsl #10
    1968:	056a0500 	strbeq	r0, [sl, #-1280]!	; 0x500
    196c:	0e010000 	cdpeq	0, 0, cr0, cr1, cr0, {0}
    1970:	00000025 	andeq	r0, r0, r5, lsr #32
    1974:	00057805 	andeq	r7, r5, r5, lsl #16
    1978:	250e0100 	strcs	r0, [lr, #-256]	; 0x100
    197c:	06000000 	streq	r0, [r0], -r0
    1980:	00000000 	andeq	r0, r0, r0
    1984:	3106d802 	tstcc	r6, r2, lsl #16
    1988:	02000005 	andeq	r0, r0, #5
    198c:	01ad0063 			; <UNDEFINED> instruction: 0x01ad0063
    1990:	00040000 	andeq	r0, r4, r0
    1994:	000009fb 	strdeq	r0, [r0], -fp
    1998:	03bc0104 			; <UNDEFINED> instruction: 0x03bc0104
    199c:	ae010000 	cdpge	0, 0, cr0, cr1, cr0, {0}
    19a0:	27000005 	strcs	r0, [r0, -r5]
    19a4:	60000004 	andvs	r0, r0, r4
    19a8:	00000000 	andeq	r0, r0, r0
    19ac:	4a000000 	bmi	19b4 <_start-0x664c>
    19b0:	02000008 	andeq	r0, r0, #8
    19b4:	6e690504 	cdpvs	5, 6, cr0, cr9, cr4, {0}
    19b8:	04030074 	streq	r0, [r3], #-116	; 0x74
    19bc:	0000bc07 	andeq	fp, r0, r7, lsl #24
    19c0:	06010300 	streq	r0, [r1], -r0, lsl #6
    19c4:	00000014 	andeq	r0, r0, r4, lsl r0
    19c8:	73050203 	movwvc	r0, #20995	; 0x5203
    19cc:	03000000 	movweq	r0, #0
    19d0:	01550504 	cmpeq	r5, r4, lsl #10
    19d4:	08030000 	stmdaeq	r3, {}	; <UNPREDICTABLE>
    19d8:	00015005 	andeq	r5, r1, r5
    19dc:	08010300 	stmdaeq	r1, {r8, r9}
    19e0:	00000012 	andeq	r0, r0, r2, lsl r0
    19e4:	41070203 	tstmi	r7, r3, lsl #4
    19e8:	03000000 	movweq	r0, #0
    19ec:	00b70704 	adcseq	r0, r7, r4, lsl #14
    19f0:	08030000 	stmdaeq	r3, {}	; <UNPREDICTABLE>
    19f4:	0000b207 	andeq	fp, r0, r7, lsl #4
    19f8:	07040300 	streq	r0, [r4, -r0, lsl #6]
    19fc:	00000147 	andeq	r0, r0, r7, asr #2
    1a00:	1b080103 	blne	201e14 <__bss_end__+0x1f8354>
    1a04:	04000000 	streq	r0, [r0], #-0
    1a08:	00000594 	muleq	r0, r4, r5
    1a0c:	00250e01 	eoreq	r0, r5, r1, lsl #28
    1a10:	8abc0000 	bhi	fef01a18 <__bss_end__+0xfeef7f58>
    1a14:	00180000 	andseq	r0, r8, r0
    1a18:	9c010000 	stcls	0, cr0, [r1], {-0}
    1a1c:	000000a2 	andeq	r0, r0, r2, lsr #1
    1a20:	00060005 	andeq	r0, r6, r5
    1a24:	2c0f0100 	stfcss	f0, [pc], {-0}
    1a28:	1c000000 	stcne	0, cr0, [r0], {-0}
    1a2c:	0000000a 	andeq	r0, r0, sl
    1a30:	0005e306 	andeq	lr, r5, r6, lsl #6
    1a34:	d4170100 	ldrle	r0, [r7], #-256	; 0x100
    1a38:	1400008a 	strne	r0, [r0], #-138	; 0x8a
    1a3c:	01000000 	mrseq	r0, (UNDEF: 0)
    1a40:	0000c79c 	muleq	r0, ip, r7
    1a44:	06000500 	streq	r0, [r0], -r0, lsl #10
    1a48:	18010000 	stmdane	r1, {}	; <UNPREDICTABLE>
    1a4c:	0000002c 	andeq	r0, r0, ip, lsr #32
    1a50:	00000a3b 	andeq	r0, r0, fp, lsr sl
    1a54:	05310600 	ldreq	r0, [r1, #-1536]!	; 0x600
    1a58:	1f010000 	svcne	0x00010000
    1a5c:	00008ae8 	andeq	r8, r0, r8, ror #21
    1a60:	00000048 	andeq	r0, r0, r8, asr #32
    1a64:	01779c01 	cmneq	r7, r1, lsl #24
    1a68:	f8070000 			; <UNDEFINED> instruction: 0xf8070000
    1a6c:	01000005 	tsteq	r0, r5
    1a70:	0001772a 	andeq	r7, r1, sl, lsr #14
    1a74:	10001c00 	andne	r1, r0, r0, lsl #24
    1a78:	05db0720 	ldrbeq	r0, [fp, #1824]	; 0x720
    1a7c:	2b010000 	blcs	41a84 <__bss_end__+0x37fc4>
    1a80:	00000177 	andeq	r0, r0, r7, ror r1
    1a84:	20100024 	andscs	r0, r0, r4, lsr #32
    1a88:	0005a207 	andeq	sl, r5, r7, lsl #4
    1a8c:	772c0100 	strvc	r0, [ip, -r0, lsl #2]!
    1a90:	00000001 	andeq	r0, r0, r1
    1a94:	085a0000 	ldmdaeq	sl, {}^	; <UNPREDICTABLE>
    1a98:	000005c2 	andeq	r0, r0, r2, asr #11
    1a9c:	01772d01 	cmneq	r7, r1, lsl #26
    1aa0:	09200000 	stmdbeq	r0!, {}	; <UNPREDICTABLE>
    1aa4:	00008af0 	strdeq	r8, [r0], -r0
    1aa8:	00000079 	andeq	r0, r0, r9, ror r0
    1aac:	008afc09 	addeq	pc, sl, r9, lsl #24
    1ab0:	0000a200 	andeq	sl, r0, r0, lsl #4
    1ab4:	8b040a00 	blhi	1042bc <__bss_end__+0xfa7fc>
    1ab8:	018d0000 	orreq	r0, sp, r0
    1abc:	013a0000 	teqeq	sl, r0
    1ac0:	010b0000 	mrseq	r0, (UNDEF: 11)
    1ac4:	004e0150 	subeq	r0, lr, r0, asr r1
    1ac8:	008b100a 	addeq	r1, fp, sl
    1acc:	00019e00 	andeq	r9, r1, r0, lsl #28
    1ad0:	00015a00 	andeq	r5, r1, r0, lsl #20
    1ad4:	51010b00 	tstpl	r1, r0, lsl #22
    1ad8:	00010c05 	andeq	r0, r1, r5, lsl #24
    1adc:	010b5a00 	tsteq	fp, r0, lsl #20
    1ae0:	240c0550 	strcs	r0, [ip], #-1360	; 0x550
    1ae4:	00201000 	eoreq	r1, r0, r0
    1ae8:	008b1c0c 	addeq	r1, fp, ip, lsl #24
    1aec:	00019e00 	andeq	r9, r1, r0, lsl #28
    1af0:	51010b00 	tstpl	r1, r0, lsl #22
    1af4:	00200c05 	eoreq	r0, r0, r5, lsl #24
    1af8:	010b5a00 	tsteq	fp, r0, lsl #20
    1afc:	1c0c0550 	cfstr32ne	mvfx0, [ip], {80}	; 0x50
    1b00:	00201000 	eoreq	r1, r0, r0
    1b04:	00250d00 	eoreq	r0, r5, r0, lsl #26
    1b08:	97080000 	strls	r0, [r8, -r0]
    1b0c:	01000005 	tsteq	r0, r5
    1b10:	0001880d 	andeq	r8, r1, sp, lsl #16
    1b14:	2c0d1000 	stccs	0, cr1, [sp], {-0}
    1b18:	0e000000 	cdpeq	0, 0, cr0, cr0, cr0, {0}
    1b1c:	00000020 	andeq	r0, r0, r0, lsr #32
    1b20:	019e5002 	orrseq	r5, lr, r2
    1b24:	2c0f0000 	stccs	0, cr0, [pc], {-0}
    1b28:	00000000 	andeq	r0, r0, r0
    1b2c:	0005f210 	andeq	pc, r5, r0, lsl r2	; <UNPREDICTABLE>
    1b30:	0f9c0200 	svceq	0x009c0200
    1b34:	0000002c 	andeq	r0, r0, ip, lsr #32
    1b38:	00002c0f 	andeq	r2, r0, pc, lsl #24
    1b3c:	d8000000 	stmdale	r0, {}	; <UNPREDICTABLE>
    1b40:	04000001 	streq	r0, [r0], #-1
    1b44:	000ae900 	andeq	lr, sl, r0, lsl #18
    1b48:	bc010400 	cfstrslt	mvf0, [r1], {-0}
    1b4c:	01000003 	tsteq	r0, r3
    1b50:	00000622 	andeq	r0, r0, r2, lsr #12
    1b54:	00000427 	andeq	r0, r0, r7, lsr #8
    1b58:	00008b30 	andeq	r8, r0, r0, lsr fp
    1b5c:	00000088 	andeq	r0, r0, r8, lsl #1
    1b60:	000008e7 	andeq	r0, r0, r7, ror #17
    1b64:	69050402 	stmdbvs	r5, {r1, sl}
    1b68:	0300746e 	movweq	r7, #1134	; 0x46e
    1b6c:	00bc0704 	adcseq	r0, ip, r4, lsl #14
    1b70:	01030000 	mrseq	r0, (UNDEF: 3)
    1b74:	00001406 	andeq	r1, r0, r6, lsl #8
    1b78:	05020300 	streq	r0, [r2, #-768]	; 0x300
    1b7c:	00000073 	andeq	r0, r0, r3, ror r0
    1b80:	55050403 	strpl	r0, [r5, #-1027]	; 0x403
    1b84:	03000001 	movweq	r0, #1
    1b88:	01500508 	cmpeq	r0, r8, lsl #10
    1b8c:	01030000 	mrseq	r0, (UNDEF: 3)
    1b90:	00001208 	andeq	r1, r0, r8, lsl #4
    1b94:	07020300 	streq	r0, [r2, -r0, lsl #6]
    1b98:	00000041 	andeq	r0, r0, r1, asr #32
    1b9c:	b7070403 	strlt	r0, [r7, -r3, lsl #8]
    1ba0:	03000000 	movweq	r0, #0
    1ba4:	00b20708 	adcseq	r0, r2, r8, lsl #14
    1ba8:	04030000 	streq	r0, [r3], #-0
    1bac:	00014707 	andeq	r4, r1, r7, lsl #14
    1bb0:	08010300 	stmdaeq	r1, {r8, r9}
    1bb4:	0000001b 	andeq	r0, r0, fp, lsl r0
    1bb8:	00064104 	andeq	r4, r6, r4, lsl #2
    1bbc:	30050100 	andcc	r0, r5, r0, lsl #2
    1bc0:	1c00008b 	stcne	0, cr0, [r0], {139}	; 0x8b
    1bc4:	01000000 	mrseq	r0, (UNDEF: 0)
    1bc8:	00009e9c 	muleq	r0, ip, lr
    1bcc:	063b0500 	ldrteq	r0, [fp], -r0, lsl #10
    1bd0:	05010000 	streq	r0, [r1, #-0]
    1bd4:	0000002c 	andeq	r0, r0, ip, lsr #32
    1bd8:	00000a65 	andeq	r0, r0, r5, ror #20
    1bdc:	06050600 	streq	r0, [r5], -r0, lsl #12
    1be0:	11010000 	mrsne	r0, (UNDEF: 1)
    1be4:	0000002c 	andeq	r0, r0, ip, lsr #32
    1be8:	00008b4c 	andeq	r8, r0, ip, asr #22
    1bec:	00000014 	andeq	r0, r0, r4, lsl r0
    1bf0:	00cb9c01 	sbceq	r9, fp, r1, lsl #24
    1bf4:	58070000 	stmdapl	r7, {}	; <UNPREDICTABLE>
    1bf8:	ca00008b 	bgt	1e2c <_start-0x61d4>
    1bfc:	08000001 	stmdaeq	r0, {r0}
    1c00:	0c055001 	stceq	0, cr5, [r5], {1}
    1c04:	20003004 	andcs	r3, r0, r4
    1c08:	4e060000 	cdpmi	0, 0, cr0, cr6, cr0, {0}
    1c0c:	01000006 	tsteq	r0, r6
    1c10:	00002c16 	andeq	r2, r0, r6, lsl ip
    1c14:	008b6000 	addeq	r6, fp, r0
    1c18:	00000c00 	andeq	r0, r0, r0, lsl #24
    1c1c:	f99c0100 			; <UNDEFINED> instruction: 0xf99c0100
    1c20:	09000000 	stmdbeq	r0, {}	; <UNPREDICTABLE>
    1c24:	1a010075 	bne	41e00 <__bss_end__+0x38340>
    1c28:	0000002c 	andeq	r0, r0, ip, lsr #32
    1c2c:	680a5001 	stmdavs	sl, {r0, ip, lr}
    1c30:	9e00008b 	cdpls	0, 0, cr0, cr0, cr11, {4}
    1c34:	00000000 	andeq	r0, r0, r0
    1c38:	00009404 	andeq	r9, r0, r4, lsl #8
    1c3c:	6c1f0100 	ldfvss	f0, [pc], {-0}
    1c40:	2400008b 	strcs	r0, [r0], #-139	; 0x8b
    1c44:	01000000 	mrseq	r0, (UNDEF: 0)
    1c48:	0001579c 	muleq	r1, ip, r7
    1c4c:	73750b00 	cmnvc	r5, #0, 22
    1c50:	2c1f0100 	ldfcss	f0, [pc], {-0}
    1c54:	99000000 	stmdbls	r0, {}	; <UNPREDICTABLE>
    1c58:	0900000a 	stmdbeq	r0, {r1, r3}
    1c5c:	01006272 	tsteq	r0, r2, ror r2
    1c60:	00002c20 	andeq	r2, r0, r0, lsr #24
    1c64:	0c540100 	ldfeqe	f0, [r4], {-0}
    1c68:	00008b7c 	andeq	r8, r0, ip, ror fp
    1c6c:	00000010 	andeq	r0, r0, r0, lsl r0
    1c70:	0000014d 	andeq	r0, r0, sp, asr #2
    1c74:	0061720d 	rsbeq	r7, r1, sp, lsl #4
    1c78:	002c2201 	eoreq	r2, ip, r1, lsl #4
    1c7c:	0ab70000 	beq	fedc1c84 <__bss_end__+0xfedb81c4>
    1c80:	800a0000 	andhi	r0, sl, r0
    1c84:	cb00008b 	blgt	1eb8 <_start-0x6148>
    1c88:	00000000 	andeq	r0, r0, r0
    1c8c:	008b780a 	addeq	r7, fp, sl, lsl #16
    1c90:	0000cb00 	andeq	ip, r0, r0, lsl #22
    1c94:	20040000 	andcs	r0, r4, r0
    1c98:	01000000 	mrseq	r0, (UNDEF: 0)
    1c9c:	008b9028 	addeq	r9, fp, r8, lsr #32
    1ca0:	00001400 	andeq	r1, r0, r0, lsl #8
    1ca4:	909c0100 	addsls	r0, ip, r0, lsl #2
    1ca8:	0b000001 	bleq	1cb4 <_start-0x634c>
    1cac:	0100736d 	tsteq	r0, sp, ror #6
    1cb0:	00002c28 	andeq	r2, r0, r8, lsr #24
    1cb4:	000aca00 	andeq	ip, sl, r0, lsl #20
    1cb8:	8ba00700 	blhi	fe8038c0 <__bss_end__+0xfe7f9e00>
    1cbc:	00f90000 	rscseq	r0, r9, r0
    1cc0:	01080000 	mrseq	r0, (UNDEF: 8)
    1cc4:	01f30750 	mvnseq	r0, r0, asr r7
    1cc8:	03e80a50 	mvneq	r0, #80, 20	; 0x50000
    1ccc:	0400001e 	streq	r0, [r0], #-30
    1cd0:	00000618 	andeq	r0, r0, r8, lsl r6
    1cd4:	8ba42b01 	blhi	fe90c8e0 <__bss_end__+0xfe902e20>
    1cd8:	00140000 	andseq	r0, r4, r0
    1cdc:	9c010000 	stcls	0, cr0, [r1], {-0}
    1ce0:	000001ca 	andeq	r0, r0, sl, asr #3
    1ce4:	6365730b 	cmnvs	r5, #738197504	; 0x2c000000
    1ce8:	2c2b0100 	stfcss	f0, [fp], #-0
    1cec:	eb000000 	bl	1cf4 <_start-0x630c>
    1cf0:	0700000a 	streq	r0, [r0, -sl]
    1cf4:	00008bb4 			; <UNDEFINED> instruction: 0x00008bb4
    1cf8:	00000157 	andeq	r0, r0, r7, asr r1
    1cfc:	07500108 	ldrbeq	r0, [r0, -r8, lsl #2]
    1d00:	0a5001f3 	beq	14024d4 <__bss_end__+0x13f8a14>
    1d04:	001e03e8 	andseq	r0, lr, r8, ror #7
    1d08:	06350e00 	ldrteq	r0, [r5], -r0, lsl #28
    1d0c:	a8020000 	stmdage	r2, {}	; <UNPREDICTABLE>
    1d10:	0000002c 	andeq	r0, r0, ip, lsr #32
    1d14:	00002c0f 	andeq	r2, r0, pc, lsl #24
    1d18:	82000000 	andhi	r0, r0, #0
    1d1c:	04000008 	streq	r0, [r0], #-8
    1d20:	000bcc00 	andeq	ip, fp, r0, lsl #24
    1d24:	bc010400 	cfstrslt	mvf0, [r1], {-0}
    1d28:	01000003 	tsteq	r0, r3
    1d2c:	0000069a 	muleq	r0, sl, r6
    1d30:	00000427 	andeq	r0, r0, r7, lsr #8
    1d34:	00008bb8 			; <UNDEFINED> instruction: 0x00008bb8
    1d38:	000005a0 	andeq	r0, r0, r0, lsr #11
    1d3c:	0000098e 	andeq	r0, r0, lr, lsl #19
    1d40:	b2070802 	andlt	r0, r7, #131072	; 0x20000
    1d44:	02000000 	andeq	r0, r0, #0
    1d48:	00bc0704 	adcseq	r0, ip, r4, lsl #14
    1d4c:	01020000 	mrseq	r0, (UNDEF: 2)
    1d50:	00001406 	andeq	r1, r0, r6, lsl #8
    1d54:	05020200 	streq	r0, [r2, #-512]	; 0x200
    1d58:	00000073 	andeq	r0, r0, r3, ror r0
    1d5c:	55050402 	strpl	r0, [r5, #-1026]	; 0x402
    1d60:	02000001 	andeq	r0, r0, #1
    1d64:	01500508 	cmpeq	r0, r8, lsl #10
    1d68:	01020000 	mrseq	r0, (UNDEF: 2)
    1d6c:	00001208 	andeq	r1, r0, r8, lsl #4
    1d70:	07020200 	streq	r0, [r2, -r0, lsl #4]
    1d74:	00000041 	andeq	r0, r0, r1, asr #32
    1d78:	b7070402 	strlt	r0, [r7, -r2, lsl #8]
    1d7c:	03000000 	movweq	r0, #0
    1d80:	6e690504 	cdpvs	5, 6, cr0, cr9, cr4, {0}
    1d84:	04020074 	streq	r0, [r2], #-116	; 0x74
    1d88:	00014707 	andeq	r4, r1, r7, lsl #14
    1d8c:	08010200 	stmdaeq	r1, {r9}
    1d90:	0000001b 	andeq	r0, r0, fp, lsl r0
    1d94:	0c020104 	stfeqs	f0, [r2], {4}
    1d98:	000000b2 	strheq	r0, [r0], -r2
    1d9c:	00020d05 	andeq	r0, r2, r5, lsl #26
    1da0:	0e050000 	cdpeq	0, 0, cr0, cr5, cr0, {0}
    1da4:	01000003 	tsteq	r0, r3
    1da8:	00033605 	andeq	r3, r3, r5, lsl #12
    1dac:	45050400 	strmi	r0, [r5, #-1024]	; 0x400
    1db0:	05000003 	streq	r0, [r0, #-3]
    1db4:	00035405 	andeq	r5, r3, r5, lsl #8
    1db8:	63050600 	movwvs	r0, #22016	; 0x5600
    1dbc:	07000003 	streq	r0, [r0, -r3]
    1dc0:	00037205 	andeq	r7, r3, r5, lsl #4
    1dc4:	81050300 	mrshi	r0, SP_abt
    1dc8:	02000003 	andeq	r0, r0, #3
    1dcc:	032a0600 	teqeq	sl, #0, 12
    1dd0:	15020000 	strne	r0, [r2, #-0]
    1dd4:	00000079 	andeq	r0, r0, r9, ror r0
    1dd8:	0007e907 	andeq	lr, r7, r7, lsl #18
    1ddc:	b83f0100 	ldmdalt	pc!, {r8}	; <UNPREDICTABLE>
    1de0:	d400008b 	strle	r0, [r0], #-139	; 0x8b
    1de4:	01000000 	mrseq	r0, (UNDEF: 0)
    1de8:	0001339c 	muleq	r1, ip, r3
    1dec:	69700800 	ldmdbvs	r0!, {fp}^
    1df0:	3f01006e 	svccc	0x0001006e
    1df4:	0000002c 	andeq	r0, r0, ip, lsr #32
    1df8:	00000b0c 	andeq	r0, r0, ip, lsl #22
    1dfc:	0006e709 	andeq	lr, r6, r9, lsl #14
    1e00:	33470100 	movtcc	r0, #28928	; 0x7100
    1e04:	2a000001 	bcs	1e10 <_start-0x61f0>
    1e08:	0900000b 	stmdbeq	r0, {r0, r1, r3}
    1e0c:	0000080f 	andeq	r0, r0, pc, lsl #16
    1e10:	002c4901 	eoreq	r4, ip, r1, lsl #18
    1e14:	0b7f0000 	bleq	1fc1e1c <__bss_end__+0x1fb835c>
    1e18:	84090000 	strhi	r0, [r9], #-0
    1e1c:	01000007 	tsteq	r0, r7
    1e20:	00002c57 	andeq	r2, r0, r7, asr ip
    1e24:	000d4b00 	andeq	r4, sp, r0, lsl #22
    1e28:	8c4c0a00 	mcrrhi	10, 0, r0, ip, cr0
    1e2c:	08410000 	stmdaeq	r1, {}^	; <UNPREDICTABLE>
    1e30:	01220000 	teqeq	r2, r0
    1e34:	010b0000 	mrseq	r0, (UNDEF: 11)
    1e38:	00750250 	rsbseq	r0, r5, r0, asr r2
    1e3c:	8c800c00 	stchi	12, cr0, [r0], {0}
    1e40:	08620000 	stmdaeq	r2!, {}^	; <UNPREDICTABLE>
    1e44:	010b0000 	mrseq	r0, (UNDEF: 11)
    1e48:	00750250 	rsbseq	r0, r5, r0, asr r2
    1e4c:	040d0000 	streq	r0, [sp], #-0
    1e50:	00000139 	andeq	r0, r0, r9, lsr r1
    1e54:	00002c0e 	andeq	r2, r0, lr, lsl #24
    1e58:	07cf0700 	strbeq	r0, [pc, r0, lsl #14]
    1e5c:	60010000 	andvs	r0, r1, r0
    1e60:	00008c8c 	andeq	r8, r0, ip, lsl #25
    1e64:	00000038 	andeq	r0, r0, r8, lsr r0
    1e68:	01969c01 	orrseq	r9, r6, r1, lsl #24
    1e6c:	70080000 	andvc	r0, r8, r0
    1e70:	01006e69 	tsteq	r0, r9, ror #28
    1e74:	00002c60 	andeq	r2, r0, r0, ror #24
    1e78:	000d7b00 	andeq	r7, sp, r0, lsl #22
    1e7c:	06e70900 	strbteq	r0, [r7], r0, lsl #18
    1e80:	67010000 	strvs	r0, [r1, -r0]
    1e84:	00000133 	andeq	r0, r0, r3, lsr r1
    1e88:	00000d9c 	muleq	r0, ip, sp
    1e8c:	00078409 	andeq	r8, r7, r9, lsl #8
    1e90:	2c680100 	stfcse	f0, [r8], #-0
    1e94:	d2000000 	andle	r0, r0, #0
    1e98:	0c00000d 	stceq	0, cr0, [r0], {13}
    1e9c:	00008cbc 			; <UNDEFINED> instruction: 0x00008cbc
    1ea0:	00000862 	andeq	r0, r0, r2, ror #16
    1ea4:	0751010b 	ldrbeq	r0, [r1, -fp, lsl #2]
    1ea8:	5001f331 	andpl	pc, r1, r1, lsr r3	; <UNPREDICTABLE>
    1eac:	00241a4f 	eoreq	r1, r4, pc, asr #20
    1eb0:	06ac0700 	strteq	r0, [ip], r0, lsl #14
    1eb4:	7b010000 	blvc	41ebc <__bss_end__+0x383fc>
    1eb8:	00008cc4 	andeq	r8, r0, r4, asr #25
    1ebc:	00000038 	andeq	r0, r0, r8, lsr r0
    1ec0:	01ee9c01 	mvneq	r9, r1, lsl #24
    1ec4:	70080000 	andvc	r0, r8, r0
    1ec8:	01006e69 	tsteq	r0, r9, ror #28
    1ecc:	00002c7b 	andeq	r2, r0, fp, ror ip
    1ed0:	000e1200 	andeq	r1, lr, r0, lsl #4
    1ed4:	06e70900 	strbteq	r0, [r7], r0, lsl #18
    1ed8:	81010000 	mrshi	r0, (UNDEF: 1)
    1edc:	00000133 	andeq	r0, r0, r3, lsr r1
    1ee0:	00000e33 	andeq	r0, r0, r3, lsr lr
    1ee4:	00078409 	andeq	r8, r7, r9, lsl #8
    1ee8:	2c820100 	stfcss	f0, [r2], {0}
    1eec:	69000000 	stmdbvs	r0, {}	; <UNPREDICTABLE>
    1ef0:	0c00000e 	stceq	0, cr0, [r0], {14}
    1ef4:	00008cf4 	strdeq	r8, [r0], -r4
    1ef8:	00000862 	andeq	r0, r0, r2, ror #16
    1efc:	0751010b 	ldrbeq	r0, [r1, -fp, lsl #2]
    1f00:	5001f331 	andpl	pc, r1, r1, lsr r3	; <UNPREDICTABLE>
    1f04:	00241a4f 	eoreq	r1, r4, pc, asr #20
    1f08:	07a60700 	streq	r0, [r6, r0, lsl #14]!
    1f0c:	95010000 	strls	r0, [r1, #-0]
    1f10:	00008cfc 	strdeq	r8, [r0], -ip
    1f14:	000000cc 	andeq	r0, r0, ip, asr #1
    1f18:	02649c01 	rsbeq	r9, r4, #256	; 0x100
    1f1c:	70080000 	andvc	r0, r8, r0
    1f20:	01006e69 	tsteq	r0, r9, ror #28
    1f24:	00002c95 	muleq	r0, r5, ip
    1f28:	000ea900 	andeq	sl, lr, r0, lsl #18
    1f2c:	06e70900 	strbteq	r0, [r7], r0, lsl #18
    1f30:	9b010000 	blls	41f38 <__bss_end__+0x38478>
    1f34:	00000133 	andeq	r0, r0, r3, lsr r1
    1f38:	00000ec7 	andeq	r0, r0, r7, asr #29
    1f3c:	00080f09 	andeq	r0, r8, r9, lsl #30
    1f40:	2c9d0100 	ldfcss	f0, [sp], {0}
    1f44:	1c000000 	stcne	0, cr0, [r0], {-0}
    1f48:	0900000f 	stmdbeq	r0, {r0, r1, r2, r3}
    1f4c:	00000784 	andeq	r0, r0, r4, lsl #15
    1f50:	002cab01 	eoreq	sl, ip, r1, lsl #22
    1f54:	10e80000 	rscne	r0, r8, r0
    1f58:	900a0000 	andls	r0, sl, r0
    1f5c:	4100008d 	smlabbmi	r0, sp, r0, r0
    1f60:	53000008 	movwpl	r0, #8
    1f64:	0b000002 	bleq	1f74 <_start-0x608c>
    1f68:	75025001 	strvc	r5, [r2, #-1]
    1f6c:	bc0c0000 	stclt	0, cr0, [ip], {-0}
    1f70:	6200008d 	andvs	r0, r0, #141	; 0x8d
    1f74:	0b000008 	bleq	1f9c <_start-0x6064>
    1f78:	75025001 	strvc	r5, [r2, #-1]
    1f7c:	0f000000 	svceq	0x00000000
    1f80:	0000072a 	andeq	r0, r0, sl, lsr #14
    1f84:	0064b201 	rsbeq	fp, r4, r1, lsl #4
    1f88:	8dc80000 	stclhi	0, cr0, [r8]
    1f8c:	004c0000 	subeq	r0, ip, r0
    1f90:	9c010000 	stcls	0, cr0, [r1], {-0}
    1f94:	000002ac 	andeq	r0, r0, ip, lsr #5
    1f98:	6e697008 	cdpvs	0, 6, cr7, cr9, cr8, {0}
    1f9c:	2cb20100 	ldfcss	f0, [r2]
    1fa0:	06000000 	streq	r0, [r0], -r0
    1fa4:	10000011 	andne	r0, r0, r1, lsl r0
    1fa8:	b8010076 	stmdalt	r1, {r1, r2, r4, r5, r6}
    1fac:	0000002c 	andeq	r0, r0, ip, lsr #32
    1fb0:	0000115e 	andeq	r1, r0, lr, asr r1
    1fb4:	008de811 	addeq	lr, sp, r1, lsl r8
    1fb8:	00084100 	andeq	r4, r8, r0, lsl #2
    1fbc:	8df81100 	ldfhie	f1, [r8]
    1fc0:	08410000 	stmdaeq	r1, {}^	; <UNPREDICTABLE>
    1fc4:	07000000 	streq	r0, [r0, -r0]
    1fc8:	0000078c 	andeq	r0, r0, ip, lsl #15
    1fcc:	8e14c401 	cfmulshi	mvf12, mvf4, mvf1
    1fd0:	00240000 	eoreq	r0, r4, r0
    1fd4:	9c010000 	stcls	0, cr0, [r1], {-0}
    1fd8:	000002fc 	strdeq	r0, [r0], -ip
    1fdc:	6e697008 	cdpvs	0, 6, cr7, cr9, cr8, {0}
    1fe0:	2cc40100 	stfcse	f0, [r4], {0}
    1fe4:	94000000 	strls	r0, [r0], #-0
    1fe8:	08000011 	stmdaeq	r0, {r0, r4}
    1fec:	c4010076 	strgt	r0, [r1], #-118	; 0x76
    1ff0:	0000002c 	andeq	r0, r0, ip, lsr #32
    1ff4:	000011ce 	andeq	r1, r0, lr, asr #3
    1ff8:	008e2c0a 	addeq	r2, lr, sl, lsl #24
    1ffc:	00013e00 	andeq	r3, r1, r0, lsl #28
    2000:	0002f200 	andeq	pc, r2, r0, lsl #4
    2004:	50010b00 	andpl	r0, r1, r0, lsl #22
    2008:	5001f303 	andpl	pc, r1, r3, lsl #6
    200c:	8e341100 	rsfhis	f1, f4, f0
    2010:	01960000 	orrseq	r0, r6, r0
    2014:	07000000 	streq	r0, [r0, -r0]
    2018:	00000286 	andeq	r0, r0, r6, lsl #5
    201c:	8e38d001 	cdphi	0, 3, cr13, cr8, cr1, {0}
    2020:	00d80000 	sbcseq	r0, r8, r0
    2024:	9c010000 	stcls	0, cr0, [r1], {-0}
    2028:	00000381 	andeq	r0, r0, r1, lsl #7
    202c:	6e697008 	cdpvs	0, 6, cr7, cr9, cr8, {0}
    2030:	2cd00100 	ldfcse	f0, [r0], {0}
    2034:	08000000 	stmdaeq	r0, {}	; <UNPREDICTABLE>
    2038:	12000012 	andne	r0, r0, #18
    203c:	000007a1 	andeq	r0, r0, r1, lsr #15
    2040:	00b2d001 	adcseq	sp, r2, r1
    2044:	12260000 	eorne	r0, r6, #0
    2048:	e7090000 	str	r0, [r9, -r0]
    204c:	01000006 	tsteq	r0, r6
    2050:	000133d8 	ldrdeq	r3, [r1], -r8
    2054:	00124700 	andseq	r4, r2, r0, lsl #14
    2058:	080f0900 	stmdaeq	pc, {r8, fp}	; <UNPREDICTABLE>
    205c:	d9010000 	stmdble	r1, {}	; <UNPREDICTABLE>
    2060:	0000002c 	andeq	r0, r0, ip, lsr #32
    2064:	0000129c 	muleq	r0, ip, r2
    2068:	00078409 	andeq	r8, r7, r9, lsl #8
    206c:	2ce70100 	stfcse	f0, [r7]
    2070:	68000000 	stmdavs	r0, {}	; <UNPREDICTABLE>
    2074:	0a000014 	beq	20cc <_start-0x5f34>
    2078:	00008ed4 	ldrdeq	r8, [r0], -r4
    207c:	00000841 	andeq	r0, r0, r1, asr #16
    2080:	00000370 	andeq	r0, r0, r0, ror r3
    2084:	0250010b 	subseq	r0, r0, #-1073741822	; 0xc0000002
    2088:	0c000076 	stceq	0, cr0, [r0], {118}	; 0x76
    208c:	00008f04 	andeq	r8, r0, r4, lsl #30
    2090:	00000862 	andeq	r0, r0, r2, ror #16
    2094:	0250010b 	subseq	r0, r0, #-1073741822	; 0xc0000002
    2098:	00000076 	andeq	r0, r0, r6, ror r0
    209c:	0007b507 	andeq	fp, r7, r7, lsl #10
    20a0:	10f00100 	rscsne	r0, r0, r0, lsl #2
    20a4:	3800008f 	stmdacc	r0, {r0, r1, r2, r3, r7}
    20a8:	01000000 	mrseq	r0, (UNDEF: 0)
    20ac:	0003d99c 	muleq	r3, ip, r9
    20b0:	69700800 	ldmdbvs	r0!, {fp}^
    20b4:	f001006e 			; <UNDEFINED> instruction: 0xf001006e
    20b8:	0000002c 	andeq	r0, r0, ip, lsr #32
    20bc:	00001499 	muleq	r0, r9, r4
    20c0:	0006e709 	andeq	lr, r6, r9, lsl #14
    20c4:	33f60100 	mvnscc	r0, #0, 2
    20c8:	ba000001 	blt	20d4 <_start-0x5f2c>
    20cc:	09000014 	stmdbeq	r0, {r2, r4}
    20d0:	00000784 	andeq	r0, r0, r4, lsl #15
    20d4:	002cf701 	eoreq	pc, ip, r1, lsl #14
    20d8:	14f00000 	ldrbtne	r0, [r0], #0
    20dc:	400c0000 	andmi	r0, ip, r0
    20e0:	6200008f 	andvs	r0, r0, #143	; 0x8f
    20e4:	0b000008 	bleq	210c <_start-0x5ef4>
    20e8:	31075101 	tstcc	r7, r1, lsl #2
    20ec:	4f5001f3 	svcmi	0x005001f3
    20f0:	0000241a 	andeq	r2, r0, sl, lsl r4
    20f4:	00068e13 	andeq	r8, r6, r3, lsl lr
    20f8:	011e0100 	tsteq	lr, r0, lsl #2
    20fc:	00000064 	andeq	r0, r0, r4, rrx
    2100:	00008f48 	andeq	r8, r0, r8, asr #30
    2104:	0000002c 	andeq	r0, r0, ip, lsr #32
    2108:	040d9c01 	streq	r9, [sp], #-3073	; 0xc01
    210c:	91140000 	tstls	r4, r0
    2110:	01000006 	tsteq	r0, r6
    2114:	002c011e 	eoreq	r0, ip, lr, lsl r1
    2118:	15300000 	ldrne	r0, [r0, #-0]!
    211c:	58110000 	ldmdapl	r1, {}	; <UNPREDICTABLE>
    2120:	4100008f 	smlabbmi	r0, pc, r0, r0	; <UNPREDICTABLE>
    2124:	00000008 	andeq	r0, r0, r8
    2128:	00073415 	andeq	r3, r7, r5, lsl r4
    212c:	012d0100 	teqeq	sp, r0, lsl #2
    2130:	00008f74 	andeq	r8, r0, r4, ror pc
    2134:	00000084 	andeq	r0, r0, r4, lsl #1
    2138:	04d19c01 	ldrbeq	r9, [r1], #3073	; 0xc01
    213c:	70160000 	andsvc	r0, r6, r0
    2140:	01006e69 	tsteq	r0, r9, ror #28
    2144:	002c012d 	eoreq	r0, ip, sp, lsr #2
    2148:	15510000 	ldrbne	r0, [r1, #-0]
    214c:	b9170000 	ldmdblt	r7, {}	; <UNPREDICTABLE>
    2150:	01000006 	tsteq	r0, r6
    2154:	002c013f 	eoreq	r0, ip, pc, lsr r1
    2158:	157d0000 	ldrbne	r0, [sp, #-0]!
    215c:	90180000 	andsls	r0, r8, r0
    2160:	1c00008f 	stcne	0, cr0, [r0], {143}	; 0x8f
    2164:	73000000 	movwvc	r0, #0
    2168:	17000004 	strne	r0, [r0, -r4]
    216c:	00000784 	andeq	r0, r0, r4, lsl #15
    2170:	2c013601 	stccs	6, cr3, [r1], {1}
    2174:	9b000000 	blls	217c <_start-0x5e84>
    2178:	11000015 	tstne	r0, r5, lsl r0
    217c:	00008f9c 	muleq	r0, ip, pc	; <UNPREDICTABLE>
    2180:	00000841 	andeq	r0, r0, r1, asr #16
    2184:	008fac11 	addeq	sl, pc, r1, lsl ip	; <UNPREDICTABLE>
    2188:	00086200 	andeq	r6, r8, r0, lsl #4
    218c:	b0180000 	andslt	r0, r8, r0
    2190:	2000008f 	andcs	r0, r0, pc, lsl #1
    2194:	a3000000 	movwge	r0, #0
    2198:	17000004 	strne	r0, [r0, -r4]
    219c:	00000784 	andeq	r0, r0, r4, lsl #15
    21a0:	2c013a01 	stccs	10, cr3, [r1], {1}
    21a4:	b9000000 	stmdblt	r0, {}	; <UNPREDICTABLE>
    21a8:	11000015 	tstne	r0, r5, lsl r0
    21ac:	00008fbc 			; <UNDEFINED> instruction: 0x00008fbc
    21b0:	00000841 	andeq	r0, r0, r1, asr #16
    21b4:	008fd011 	addeq	sp, pc, r1, lsl r0	; <UNPREDICTABLE>
    21b8:	00086200 	andeq	r6, r8, r0, lsl #4
    21bc:	88110000 	ldmdahi	r1, {}	; <UNPREDICTABLE>
    21c0:	7e00008f 	cdpvc	0, 0, cr0, cr0, cr15, {4}
    21c4:	11000008 	tstne	r0, r8
    21c8:	00008fd4 	ldrdeq	r8, [r0], -r4
    21cc:	0000087e 	andeq	r0, r0, lr, ror r8
    21d0:	008fe011 	addeq	lr, pc, r1, lsl r0	; <UNPREDICTABLE>
    21d4:	00084100 	andeq	r4, r8, r0, lsl #2
    21d8:	8fec1100 	svchi	0x00ec1100
    21dc:	08620000 	stmdaeq	r2!, {}^	; <UNPREDICTABLE>
    21e0:	f0110000 			; <UNDEFINED> instruction: 0xf0110000
    21e4:	7e00008f 	cdpvc	0, 0, cr0, cr0, cr15, {4}
    21e8:	00000008 	andeq	r0, r0, r8
    21ec:	0007f915 	andeq	pc, r7, r5, lsl r9	; <UNPREDICTABLE>
    21f0:	014a0100 	mrseq	r0, (UNDEF: 90)
    21f4:	00008ff8 	strdeq	r8, [r0], -r8	; <UNPREDICTABLE>
    21f8:	00000084 	andeq	r0, r0, r4, lsl #1
    21fc:	05959c01 	ldreq	r9, [r5, #3073]	; 0xc01
    2200:	70160000 	andsvc	r0, r6, r0
    2204:	01006e69 	tsteq	r0, r9, ror #28
    2208:	002c014a 	eoreq	r0, ip, sl, asr #2
    220c:	15d70000 	ldrbne	r0, [r7]
    2210:	b9170000 	ldmdblt	r7, {}	; <UNPREDICTABLE>
    2214:	01000006 	tsteq	r0, r6
    2218:	002c015b 	eoreq	r0, ip, fp, asr r1
    221c:	16030000 	strne	r0, [r3], -r0
    2220:	14180000 	ldrne	r0, [r8], #-0
    2224:	1c000090 	stcne	0, cr0, [r0], {144}	; 0x90
    2228:	37000000 	strcc	r0, [r0, -r0]
    222c:	17000005 	strne	r0, [r0, -r5]
    2230:	00000784 	andeq	r0, r0, r4, lsl #15
    2234:	2c015201 	sfmcs	f5, 4, [r1], {1}
    2238:	21000000 	mrscs	r0, (UNDEF: 0)
    223c:	11000016 	tstne	r0, r6, lsl r0
    2240:	00009020 	andeq	r9, r0, r0, lsr #32
    2244:	00000841 	andeq	r0, r0, r1, asr #16
    2248:	00903011 	addseq	r3, r0, r1, lsl r0
    224c:	00086200 	andeq	r6, r8, r0, lsl #4
    2250:	34180000 	ldrcc	r0, [r8], #-0
    2254:	20000090 	mulcs	r0, r0, r0
    2258:	67000000 	strvs	r0, [r0, -r0]
    225c:	17000005 	strne	r0, [r0, -r5]
    2260:	00000784 	andeq	r0, r0, r4, lsl #15
    2264:	2c015601 	stccs	6, cr5, [r1], {1}
    2268:	3f000000 	svccc	0x00000000
    226c:	11000016 	tstne	r0, r6, lsl r0
    2270:	00009040 	andeq	r9, r0, r0, asr #32
    2274:	00000841 	andeq	r0, r0, r1, asr #16
    2278:	00905411 	addseq	r5, r0, r1, lsl r4
    227c:	00086200 	andeq	r6, r8, r0, lsl #4
    2280:	0c110000 	ldceq	0, cr0, [r1], {-0}
    2284:	7e000090 	mcrvc	0, 0, r0, cr0, cr0, {4}
    2288:	11000008 	tstne	r0, r8
    228c:	00009058 	andeq	r9, r0, r8, asr r0
    2290:	0000087e 	andeq	r0, r0, lr, ror r8
    2294:	00906411 	addseq	r6, r0, r1, lsl r4
    2298:	00084100 	andeq	r4, r8, r0, lsl #2
    229c:	90701100 	rsbsls	r1, r0, r0, lsl #2
    22a0:	08620000 	stmdaeq	r2!, {}^	; <UNPREDICTABLE>
    22a4:	74110000 	ldrvc	r0, [r1], #-0
    22a8:	7e000090 	mcrvc	0, 0, r0, cr0, cr0, {4}
    22ac:	00000008 	andeq	r0, r0, r8
    22b0:	00065d13 	andeq	r5, r6, r3, lsl sp
    22b4:	01650100 	cmneq	r5, r0, lsl #2
    22b8:	00000064 	andeq	r0, r0, r4, rrx
    22bc:	0000907c 	andeq	r9, r0, ip, ror r0
    22c0:	00000084 	andeq	r0, r0, r4, lsl #1
    22c4:	063b9c01 	ldrteq	r9, [fp], -r1, lsl #24
    22c8:	70160000 	andsvc	r0, r6, r0
    22cc:	01006e69 	tsteq	r0, r9, ror #28
    22d0:	002c0165 	eoreq	r0, ip, r5, ror #2
    22d4:	165d0000 	ldrbne	r0, [sp], -r0
    22d8:	98180000 	ldmdals	r8, {}	; <UNPREDICTABLE>
    22dc:	24000090 	strcs	r0, [r0], #-144	; 0x90
    22e0:	ef000000 	svc	0x00000000
    22e4:	17000005 	strne	r0, [r0, -r5]
    22e8:	000006d0 	ldrdeq	r0, [r0], -r0	; <UNPREDICTABLE>
    22ec:	2c016c01 	stccs	12, cr6, [r1], {1}
    22f0:	9f000000 	svcls	0x00000000
    22f4:	11000016 	tstne	r0, r6, lsl r0
    22f8:	000090a4 	andeq	r9, r0, r4, lsr #1
    22fc:	00000841 	andeq	r0, r0, r1, asr #16
    2300:	0090b411 	addseq	fp, r0, r1, lsl r4
    2304:	00087e00 	andeq	r7, r8, r0, lsl #28
    2308:	bc180000 	ldclt	0, cr0, [r8], {-0}
    230c:	2c000090 	stccs	0, cr0, [r0], {144}	; 0x90
    2310:	28000000 	stmdacs	r0, {}	; <UNPREDICTABLE>
    2314:	17000006 	strne	r0, [r0, -r6]
    2318:	000006d0 	ldrdeq	r0, [r0], -r0	; <UNPREDICTABLE>
    231c:	2c016f01 	stccs	15, cr6, [r1], {1}
    2320:	b9000000 	stmdblt	r0, {}	; <UNPREDICTABLE>
    2324:	11000016 	tstne	r0, r6, lsl r0
    2328:	000090c8 	andeq	r9, r0, r8, asr #1
    232c:	00000841 	andeq	r0, r0, r1, asr #16
    2330:	0090d411 	addseq	sp, r0, r1, lsl r4
    2334:	00087e00 	andeq	r7, r8, r0, lsl #28
    2338:	90e01100 	rscls	r1, r0, r0, lsl #2
    233c:	087e0000 	ldmdaeq	lr!, {}^	; <UNPREDICTABLE>
    2340:	11000000 	mrsne	r0, (UNDEF: 0)
    2344:	00009090 	muleq	r0, r0, r0
    2348:	0000087e 	andeq	r0, r0, lr, ror r8
    234c:	0090ec11 	addseq	lr, r0, r1, lsl ip
    2350:	00087e00 	andeq	r7, r8, r0, lsl #28
    2354:	57150000 	ldrpl	r0, [r5, -r0]
    2358:	01000007 	tsteq	r0, r7
    235c:	91000178 	tstls	r0, r8, ror r1
    2360:	00580000 	subseq	r0, r8, r0
    2364:	9c010000 	stcls	0, cr0, [r1], {-0}
    2368:	000006a0 	andeq	r0, r0, r0, lsr #13
    236c:	6e697016 	mcrvs	0, 3, r7, cr9, cr6, {0}
    2370:	01780100 	cmneq	r8, r0, lsl #2
    2374:	0000002c 	andeq	r0, r0, ip, lsr #32
    2378:	000016cc 	andeq	r1, r0, ip, asr #13
    237c:	00911411 	addseq	r1, r1, r1, lsl r4
    2380:	00087e00 	andeq	r7, r8, r0, lsl #28
    2384:	91300a00 	teqls	r0, r0, lsl #20
    2388:	08620000 	stmdaeq	r2!, {}^	; <UNPREDICTABLE>
    238c:	06800000 	streq	r0, [r0], r0
    2390:	010b0000 	mrseq	r0, (UNDEF: 11)
    2394:	74310451 	ldrtvc	r0, [r1], #-1105	; 0x451
    2398:	0a002400 	beq	b3a0 <__bss_end__+0x18e0>
    239c:	0000914c 	andeq	r9, r0, ip, asr #2
    23a0:	00000862 	andeq	r0, r0, r2, ror #16
    23a4:	00000696 	muleq	r0, r6, r6
    23a8:	0451010b 	ldrbeq	r0, [r1], #-267	; 0x10b
    23ac:	24007431 	strcs	r7, [r0], #-1073	; 0x431
    23b0:	91501100 	cmpls	r0, r0, lsl #2
    23b4:	087e0000 	ldmdaeq	lr!, {}^	; <UNPREDICTABLE>
    23b8:	19000000 	stmdbne	r0, {}	; <UNPREDICTABLE>
    23bc:	00000718 	andeq	r0, r0, r8, lsl r7
    23c0:	01332801 	teqeq	r3, r1, lsl #16
    23c4:	03050000 	movweq	r0, #20480	; 0x5000
    23c8:	00009374 	andeq	r9, r0, r4, ror r3
    23cc:	00079719 	andeq	r9, r7, r9, lsl r7
    23d0:	33290100 	teqcc	r9, #0, 2
    23d4:	05000001 	streq	r0, [r0, #-1]
    23d8:	00937003 	addseq	r7, r3, r3
    23dc:	081a1900 	ldmdaeq	sl, {r8, fp, ip}
    23e0:	2a010000 	bcs	423e8 <__bss_end__+0x38928>
    23e4:	00000133 	andeq	r0, r0, r3, lsr r1
    23e8:	936c0305 	cmnls	ip, #335544320	; 0x14000000
    23ec:	f0190000 			; <UNDEFINED> instruction: 0xf0190000
    23f0:	01000006 	tsteq	r0, r6
    23f4:	0001332c 	andeq	r3, r1, ip, lsr #6
    23f8:	18030500 	stmdane	r3, {r8, sl}
    23fc:	19000093 	stmdbne	r0, {r0, r1, r4, r7}
    2400:	000006f8 	strdeq	r0, [r0], -r8
    2404:	01332d01 	teqeq	r3, r1, lsl #26
    2408:	03050000 	movweq	r0, #20480	; 0x5000
    240c:	0000931c 	andeq	r9, r0, ip, lsl r3
    2410:	00067119 	andeq	r7, r6, r9, lsl r1
    2414:	332e0100 	teqcc	lr, #0, 2
    2418:	05000001 	streq	r0, [r0, #-1]
    241c:	00932003 	addseq	r2, r3, r3
    2420:	07001900 	streq	r1, [r0, -r0, lsl #18]
    2424:	2f010000 	svccs	0x00010000
    2428:	00000133 	andeq	r0, r0, r3, lsr r1
    242c:	93240305 	teqls	r4, #335544320	; 0x14000000
    2430:	08190000 	ldmdaeq	r9, {}	; <UNPREDICTABLE>
    2434:	01000007 	tsteq	r0, r7
    2438:	00013330 	andeq	r3, r1, r0, lsr r3
    243c:	28030500 	stmdacs	r3, {r8, sl}
    2440:	19000093 	stmdbne	r0, {r0, r1, r4, r7}
    2444:	00000710 	andeq	r0, r0, r0, lsl r7
    2448:	01333101 	teqeq	r3, r1, lsl #2
    244c:	03050000 	movweq	r0, #20480	; 0x5000
    2450:	0000932c 	andeq	r9, r0, ip, lsr #6
    2454:	0006c219 	andeq	ip, r6, r9, lsl r2
    2458:	33330100 	teqcc	r3, #0, 2
    245c:	05000001 	streq	r0, [r0, #-1]
    2460:	00933003 	addseq	r3, r3, r3
    2464:	06c91900 	strbeq	r1, [r9], r0, lsl #18
    2468:	34010000 	strcc	r0, [r1], #-0
    246c:	00000133 	andeq	r0, r0, r3, lsr r1
    2470:	93340305 	teqls	r4, #335544320	; 0x14000000
    2474:	79190000 	ldmdbvc	r9, {}	; <UNPREDICTABLE>
    2478:	01000006 	tsteq	r0, r6
    247c:	00013336 	andeq	r3, r1, r6, lsr r3
    2480:	38030500 	stmdacc	r3, {r8, sl}
    2484:	19000093 	stmdbne	r0, {r0, r1, r4, r7}
    2488:	00000723 	andeq	r0, r0, r3, lsr #14
    248c:	01333701 	teqeq	r3, r1, lsl #14
    2490:	03050000 	movweq	r0, #20480	; 0x5000
    2494:	0000933c 	andeq	r9, r0, ip, lsr r3
    2498:	0006d919 	andeq	sp, r6, r9, lsl r9
    249c:	33390100 	teqcc	r9, #0, 2
    24a0:	05000001 	streq	r0, [r0, #-1]
    24a4:	00934003 	addseq	r4, r3, r3
    24a8:	06e01900 	strbteq	r1, [r0], r0, lsl #18
    24ac:	3a010000 	bcc	424b4 <__bss_end__+0x389f4>
    24b0:	00000133 	andeq	r0, r0, r3, lsr r1
    24b4:	93440305 	movtls	r0, #17157	; 0x4305
    24b8:	681a0000 	ldmdavs	sl, {}	; <UNPREDICTABLE>
    24bc:	01000007 	tsteq	r0, r7
    24c0:	01330109 	teqeq	r3, r9, lsl #2
    24c4:	03050000 	movweq	r0, #20480	; 0x5000
    24c8:	00009368 	andeq	r9, r0, r8, ror #6
    24cc:	0007761a 	andeq	r7, r7, sl, lsl r6
    24d0:	010a0100 	mrseq	r0, (UNDEF: 26)
    24d4:	00000133 	andeq	r0, r0, r3, lsr r1
    24d8:	93480305 	movtls	r0, #33541	; 0x8305
    24dc:	c11a0000 	tstgt	sl, r0
    24e0:	01000007 	tsteq	r0, r7
    24e4:	0133010c 	teqeq	r3, ip, lsl #2
    24e8:	03050000 	movweq	r0, #20480	; 0x5000
    24ec:	00009360 	andeq	r9, r0, r0, ror #6
    24f0:	0007c81a 	andeq	ip, r7, sl, lsl r8
    24f4:	010d0100 	mrseq	r0, (UNDEF: 29)
    24f8:	00000133 	andeq	r0, r0, r3, lsr r1
    24fc:	93640305 	cmnls	r4, #335544320	; 0x14000000
    2500:	491a0000 	ldmdbmi	sl, {}	; <UNPREDICTABLE>
    2504:	01000007 	tsteq	r0, r7
    2508:	0133010f 	teqeq	r3, pc, lsl #2
    250c:	03050000 	movweq	r0, #20480	; 0x5000
    2510:	0000934c 	andeq	r9, r0, ip, asr #6
    2514:	0007501a 	andeq	r5, r7, sl, lsl r0
    2518:	01100100 	tsteq	r0, r0, lsl #2
    251c:	00000133 	andeq	r0, r0, r3, lsr r1
    2520:	93500305 	cmpls	r0, #335544320	; 0x14000000
    2524:	db1a0000 	blle	68252c <__bss_end__+0x678a6c>
    2528:	01000007 	tsteq	r0, r7
    252c:	01330112 	teqeq	r3, r2, lsl r1
    2530:	03050000 	movweq	r0, #20480	; 0x5000
    2534:	00009358 	andeq	r9, r0, r8, asr r3
    2538:	0007e21a 	andeq	lr, r7, sl, lsl r2
    253c:	01130100 	tsteq	r3, r0, lsl #2
    2540:	00000133 	andeq	r0, r0, r3, lsr r1
    2544:	935c0305 	cmpls	ip, #335544320	; 0x14000000
    2548:	801a0000 	andshi	r0, sl, r0
    254c:	01000006 	tsteq	r0, r6
    2550:	01330115 	teqeq	r3, r5, lsl r1
    2554:	03050000 	movweq	r0, #20480	; 0x5000
    2558:	00009354 	andeq	r9, r0, r4, asr r3
    255c:	0003241b 	andeq	r2, r3, fp, lsl r4
    2560:	2c200100 	stfcss	f0, [r0], #-0
    2564:	56000000 	strpl	r0, [r0], -r0
    2568:	1c000008 	stcne	0, cr0, [r0], {8}
    256c:	00000856 	andeq	r0, r0, r6, asr r8
    2570:	5c040d00 	stcpl	13, cr0, [r4], {-0}
    2574:	1d000008 	stcne	0, cr0, [r0, #-32]	; 0xffffffe0
    2578:	00000861 	andeq	r0, r0, r1, ror #16
    257c:	02f51f1e 	rscseq	r1, r5, #30, 30	; 0x78
    2580:	1e010000 	cdpne	0, 0, cr0, cr1, cr0, {0}
    2584:	00000878 	andeq	r0, r0, r8, ror r8
    2588:	0008781c 	andeq	r7, r8, ip, lsl r8
    258c:	002c1c00 	eoreq	r1, ip, r0, lsl #24
    2590:	0d000000 	stceq	0, cr0, [r0, #-0]
    2594:	00086104 	andeq	r6, r8, r4, lsl #2
    2598:	02fb2000 	rscseq	r2, fp, #0
    259c:	8a030000 	bhi	c25a4 <__bss_end__+0xb8ae4>
    25a0:	0003ff00 	andeq	pc, r3, r0, lsl #30
    25a4:	a6000400 	strge	r0, [r0], -r0, lsl #8
    25a8:	0400000d 	streq	r0, [r0], #-13
    25ac:	0003bc01 	andeq	fp, r3, r1, lsl #24
    25b0:	08f50100 	ldmeq	r5!, {r8}^
    25b4:	04270000 	strteq	r0, [r7], #-0
    25b8:	91580000 	cmpls	r8, r0
    25bc:	01540000 	cmpeq	r4, r0
    25c0:	0b150000 	bleq	5425c8 <__bss_end__+0x538b08>
    25c4:	04020000 	streq	r0, [r2], #-0
    25c8:	746e6905 	strbtvc	r6, [lr], #-2309	; 0x905
    25cc:	07040300 	streq	r0, [r4, -r0, lsl #6]
    25d0:	000000bc 	strheq	r0, [r0], -ip
    25d4:	14060103 	strne	r0, [r6], #-259	; 0x103
    25d8:	03000000 	movweq	r0, #0
    25dc:	00730502 	rsbseq	r0, r3, r2, lsl #10
    25e0:	04030000 	streq	r0, [r3], #-0
    25e4:	00015505 	andeq	r5, r1, r5, lsl #10
    25e8:	05080300 	streq	r0, [r8, #-768]	; 0x300
    25ec:	00000150 	andeq	r0, r0, r0, asr r1
    25f0:	12080103 	andne	r0, r8, #-1073741824	; 0xc0000000
    25f4:	03000000 	movweq	r0, #0
    25f8:	00410702 	subeq	r0, r1, r2, lsl #14
    25fc:	04030000 	streq	r0, [r3], #-0
    2600:	0000b707 	andeq	fp, r0, r7, lsl #14
    2604:	07080300 	streq	r0, [r8, -r0, lsl #6]
    2608:	000000b2 	strheq	r0, [r0], -r2
    260c:	47070403 	strmi	r0, [r7, -r3, lsl #8]
    2610:	03000001 	movweq	r0, #1
    2614:	001b0801 	andseq	r0, fp, r1, lsl #16
    2618:	01040000 	mrseq	r0, (UNDEF: 4)
    261c:	00b20c02 	adcseq	r0, r2, r2, lsl #24
    2620:	0d050000 	stceq	0, cr0, [r5, #-0]
    2624:	00000002 	andeq	r0, r0, r2
    2628:	00030e05 	andeq	r0, r3, r5, lsl #28
    262c:	36050100 	strcc	r0, [r5], -r0, lsl #2
    2630:	04000003 	streq	r0, [r0], #-3
    2634:	00034505 	andeq	r4, r3, r5, lsl #10
    2638:	54050500 	strpl	r0, [r5], #-1280	; 0x500
    263c:	06000003 	streq	r0, [r0], -r3
    2640:	00036305 	andeq	r6, r3, r5, lsl #6
    2644:	72050700 	andvc	r0, r5, #0, 14
    2648:	03000003 	movweq	r0, #3
    264c:	00038105 	andeq	r8, r3, r5, lsl #2
    2650:	06000200 	streq	r0, [r0], -r0, lsl #4
    2654:	0000032a 	andeq	r0, r0, sl, lsr #6
    2658:	00791502 	rsbseq	r1, r9, r2, lsl #10
    265c:	08070000 	stmdaeq	r7, {}	; <UNPREDICTABLE>
    2660:	01000000 	mrseq	r0, (UNDEF: 0)
    2664:	00915837 	addseq	r5, r1, r7, lsr r8
    2668:	00009c00 	andeq	r9, r0, r0, lsl #24
    266c:	c39c0100 	orrsgt	r0, ip, #0, 2
    2670:	08000001 	stmdaeq	r0, {r0}
    2674:	00009160 	andeq	r9, r0, r0, ror #2
    2678:	000003a8 	andeq	r0, r0, r8, lsr #7
    267c:	00916c09 	addseq	r6, r1, r9, lsl #24
    2680:	0003af00 	andeq	sl, r3, r0, lsl #30
    2684:	0000f300 	andeq	pc, r0, r0, lsl #6
    2688:	51010a00 	tstpl	r1, r0, lsl #20
    268c:	010a3201 	tsteq	sl, r1, lsl #4
    2690:	003e0150 	eorseq	r0, lr, r0, asr r1
    2694:	00917809 	addseq	r7, r1, r9, lsl #16
    2698:	0003af00 	andeq	sl, r3, r0, lsl #30
    269c:	00010b00 	andeq	r0, r1, r0, lsl #22
    26a0:	51010a00 	tstpl	r1, r0, lsl #20
    26a4:	010a3201 	tsteq	sl, r1, lsl #4
    26a8:	003f0150 	eorseq	r0, pc, r0, asr r1	; <UNPREDICTABLE>
    26ac:	00917c08 	addseq	r7, r1, r8, lsl #24
    26b0:	0003a800 	andeq	sl, r3, r0, lsl #16
    26b4:	918c0900 	orrls	r0, ip, r0, lsl #18
    26b8:	03c50000 	biceq	r0, r5, #0
    26bc:	01280000 	teqeq	r8, r0
    26c0:	010a0000 	mrseq	r0, (UNDEF: 10)
    26c4:	00750250 	rsbseq	r0, r5, r0, asr r2
    26c8:	91980900 	orrsls	r0, r8, r0, lsl #18
    26cc:	03e60000 	mvneq	r0, #0
    26d0:	013c0000 	teqeq	ip, r0
    26d4:	010a0000 	mrseq	r0, (UNDEF: 10)
    26d8:	00750250 	rsbseq	r0, r5, r0, asr r2
    26dc:	919c0800 	orrsls	r0, ip, r0, lsl #16
    26e0:	03a80000 			; <UNDEFINED> instruction: 0x03a80000
    26e4:	a8090000 	stmdage	r9, {}	; <UNPREDICTABLE>
    26e8:	e6000091 			; <UNDEFINED> instruction: 0xe6000091
    26ec:	58000003 	stmdapl	r0, {r0, r1}
    26f0:	0a000001 	beq	26fc <_start-0x5904>
    26f4:	30015101 	andcc	r5, r1, r1, lsl #2
    26f8:	91b40900 			; <UNDEFINED> instruction: 0x91b40900
    26fc:	03e60000 	mvneq	r0, #0
    2700:	016b0000 	cmneq	fp, r0
    2704:	010a0000 	mrseq	r0, (UNDEF: 10)
    2708:	00300151 	eorseq	r0, r0, r1, asr r1
    270c:	0091c009 	addseq	ip, r1, r9
    2710:	0003e600 	andeq	lr, r3, r0, lsl #12
    2714:	00017e00 	andeq	r7, r1, r0, lsl #28
    2718:	51010a00 	tstpl	r1, r0, lsl #20
    271c:	09003601 	stmdbeq	r0, {r0, r9, sl, ip, sp}
    2720:	000091cc 	andeq	r9, r0, ip, asr #3
    2724:	000003e6 	andeq	r0, r0, r6, ror #7
    2728:	00000191 	muleq	r0, r1, r1
    272c:	0151010a 	cmpeq	r1, sl, lsl #2
    2730:	d8090033 	stmdale	r9, {r0, r1, r4, r5}
    2734:	e6000091 			; <UNDEFINED> instruction: 0xe6000091
    2738:	a6000003 	strge	r0, [r0], -r3
    273c:	0a000001 	beq	2748 <_start-0x58b8>
    2740:	0a035101 	beq	d6b4c <__bss_end__+0xcd08c>
    2744:	0900010e 	stmdbeq	r0, {r1, r2, r3, r8}
    2748:	000091e4 	andeq	r9, r0, r4, ror #3
    274c:	000003e6 	andeq	r0, r0, r6, ror #7
    2750:	000001b9 			; <UNDEFINED> instruction: 0x000001b9
    2754:	0151010a 	cmpeq	r1, sl, lsl #2
    2758:	e8080033 	stmda	r8, {r0, r1, r4, r5}
    275c:	a8000091 	stmdage	r0, {r0, r4, r7}
    2760:	00000003 	andeq	r0, r0, r3
    2764:	0008500b 	andeq	r5, r8, fp
    2768:	25570100 	ldrbcs	r0, [r7, #-256]	; 0x100
    276c:	f4000000 	vst4.8	{d0-d3}, [r0], r0
    2770:	1c000091 	stcne	0, cr0, [r0], {145}	; 0x91
    2774:	01000000 	mrseq	r0, (UNDEF: 0)
    2778:	0001e69c 	muleq	r1, ip, r6
    277c:	92040800 	andls	r0, r4, #0, 16
    2780:	03c50000 	biceq	r0, r5, #0
    2784:	0b000000 	bleq	278c <_start-0x5874>
    2788:	0000088b 	andeq	r0, r0, fp, lsl #17
    278c:	00255d01 	eoreq	r5, r5, r1, lsl #26
    2790:	92100000 	andsls	r0, r0, #0
    2794:	00280000 	eoreq	r0, r8, r0
    2798:	9c010000 	stcls	0, cr0, [r1], {-0}
    279c:	00000212 	andeq	r0, r0, r2, lsl r2
    27a0:	00921808 	addseq	r1, r2, r8, lsl #16
    27a4:	0001c300 	andeq	ip, r1, r0, lsl #6
    27a8:	922c0800 	eorls	r0, ip, #0, 16
    27ac:	03c50000 	biceq	r0, r5, #0
    27b0:	0b000000 	bleq	27b8 <_start-0x5848>
    27b4:	000008a4 	andeq	r0, r0, r4, lsr #17
    27b8:	00256401 	eoreq	r6, r5, r1, lsl #8
    27bc:	92380000 	eorsls	r0, r8, #0
    27c0:	001c0000 	andseq	r0, ip, r0
    27c4:	9c010000 	stcls	0, cr0, [r1], {-0}
    27c8:	00000235 	andeq	r0, r0, r5, lsr r2
    27cc:	00924808 	addseq	r4, r2, r8, lsl #16
    27d0:	0003c500 	andeq	ip, r3, r0, lsl #10
    27d4:	75070000 	strvc	r0, [r7, #-0]
    27d8:	01000004 	tsteq	r0, r4
    27dc:	0092546a 	addseq	r5, r2, sl, ror #8
    27e0:	00002c00 	andeq	r2, r0, r0, lsl #24
    27e4:	719c0100 	orrsvc	r0, ip, r0, lsl #2
    27e8:	0c000002 	stceq	0, cr0, [r0], {2}
    27ec:	6a010063 	bvs	42980 <__bss_end__+0x38ec0>
    27f0:	0000002c 	andeq	r0, r0, ip, lsr #32
    27f4:	000016f8 	strdeq	r1, [r0], -r8
    27f8:	00926008 	addseq	r6, r2, r8
    27fc:	00021200 	andeq	r1, r2, r0, lsl #4
    2800:	92780d00 	rsbsls	r0, r8, #0, 26
    2804:	03e60000 	mvneq	r0, #0
    2808:	010a0000 	mrseq	r0, (UNDEF: 10)
    280c:	00740251 	rsbseq	r0, r4, r1, asr r2
    2810:	6e0b0000 	cdpvs	0, 0, cr0, cr11, cr0, {0}
    2814:	01000008 	tsteq	r0, r8
    2818:	00002574 	andeq	r2, r0, r4, ror r5
    281c:	00928000 	addseq	r8, r2, r0
    2820:	00000c00 	andeq	r0, r0, r0, lsl #24
    2824:	949c0100 	ldrls	r0, [ip], #256	; 0x100
    2828:	08000002 	stmdaeq	r0, {r1}
    282c:	00009288 	andeq	r9, r0, r8, lsl #5
    2830:	000001c3 	andeq	r0, r0, r3, asr #3
    2834:	09210b00 	stmdbeq	r1!, {r8, r9, fp}
    2838:	78010000 	stmdavc	r1, {}	; <UNPREDICTABLE>
    283c:	00000025 	andeq	r0, r0, r5, lsr #32
    2840:	0000928c 	andeq	r9, r0, ip, lsl #5
    2844:	00000020 	andeq	r0, r0, r0, lsr #32
    2848:	02c09c01 	sbceq	r9, r0, #256	; 0x100
    284c:	94080000 	strls	r0, [r8], #-0
    2850:	71000092 	swpvc	r0, r2, [r0]	; <UNPREDICTABLE>
    2854:	08000002 	stmdaeq	r0, {r1}
    2858:	000092a0 	andeq	r9, r0, r0, lsr #5
    285c:	000001e6 	andeq	r0, r0, r6, ror #3
    2860:	08be0e00 	ldmeq	lr!, {r9, sl, fp}
    2864:	16010000 	strne	r0, [r1], -r0
    2868:	000002d1 	ldrdeq	r0, [r0], -r1
    286c:	93a80305 			; <UNDEFINED> instruction: 0x93a80305
    2870:	040f0000 	streq	r0, [pc], #-0	; 2878 <_start-0x5788>
    2874:	000002d7 	ldrdeq	r0, [r0], -r7
    2878:	00002c10 	andeq	r2, r0, r0, lsl ip
    287c:	08b20e00 	ldmeq	r2!, {r9, sl, fp}
    2880:	17010000 	strne	r0, [r1, -r0]
    2884:	000002d1 	ldrdeq	r0, [r0], -r1
    2888:	93780305 	cmnls	r8, #335544320	; 0x14000000
    288c:	330e0000 	movwcc	r0, #57344	; 0xe000
    2890:	01000008 	tsteq	r0, r8
    2894:	0002d11a 	andeq	sp, r2, sl, lsl r1
    2898:	94030500 	strls	r0, [r3], #-1280	; 0x500
    289c:	0e000093 	mcreq	0, 0, r0, cr0, cr3, {4}
    28a0:	0000087c 	andeq	r0, r0, ip, ror r8
    28a4:	02d11b01 	sbcseq	r1, r1, #1024	; 0x400
    28a8:	03050000 	movweq	r0, #20480	; 0x5000
    28ac:	00009380 	andeq	r9, r0, r0, lsl #7
    28b0:	0008950e 	andeq	r9, r8, lr, lsl #10
    28b4:	d11c0100 	tstle	ip, r0, lsl #2
    28b8:	05000002 	streq	r0, [r0, #-2]
    28bc:	00938403 	addseq	r8, r3, r3, lsl #8
    28c0:	09030e00 	stmdbeq	r3, {r9, sl, fp}
    28c4:	1d010000 	stcne	0, cr0, [r1, #-0]
    28c8:	000002d1 	ldrdeq	r0, [r0], -r1
    28cc:	93880305 	orrls	r0, r8, #335544320	; 0x14000000
    28d0:	240e0000 	strcs	r0, [lr], #-0
    28d4:	01000008 	tsteq	r0, r8
    28d8:	0002d11e 	andeq	sp, r2, lr, lsl r1
    28dc:	a4030500 	strge	r0, [r3], #-1280	; 0x500
    28e0:	0e000093 	mcreq	0, 0, r0, cr0, cr3, {4}
    28e4:	00000912 	andeq	r0, r0, r2, lsl r9
    28e8:	02d11f01 	sbcseq	r1, r1, #1, 30
    28ec:	03050000 	movweq	r0, #20480	; 0x5000
    28f0:	00009390 	muleq	r0, r0, r3
    28f4:	0008410e 	andeq	r4, r8, lr, lsl #2
    28f8:	d1200100 	teqle	r0, r0, lsl #2
    28fc:	05000002 	streq	r0, [r0, #-2]
    2900:	0093a003 	addseq	sl, r3, r3
    2904:	08e60e00 	stmiaeq	r6!, {r9, sl, fp}^
    2908:	21010000 	mrscs	r0, (UNDEF: 1)
    290c:	000002d1 	ldrdeq	r0, [r0], -r1
    2910:	939c0305 	orrsls	r0, ip, #335544320	; 0x14000000
    2914:	5e0e0000 	cdppl	0, 0, cr0, cr14, cr0, {0}
    2918:	01000008 	tsteq	r0, r8
    291c:	0002d122 	andeq	sp, r2, r2, lsr #2
    2920:	7c030500 	cfstr32vc	mvfx0, [r3], {-0}
    2924:	0e000093 	mcreq	0, 0, r0, cr0, cr3, {4}
    2928:	000008d6 	ldrdeq	r0, [r0], -r6
    292c:	02d12301 	sbcseq	r2, r1, #67108864	; 0x4000000
    2930:	03050000 	movweq	r0, #20480	; 0x5000
    2934:	00009398 	muleq	r0, r8, r3
    2938:	0008c60e 	andeq	ip, r8, lr, lsl #12
    293c:	d1240100 	teqle	r4, r0, lsl #2
    2940:	05000002 	streq	r0, [r0, #-2]
    2944:	00938c03 	addseq	r8, r3, r3, lsl #24
    2948:	02fb1100 	rscseq	r1, fp, #0, 2
    294c:	8a030000 	bhi	c2954 <__bss_end__+0xb8e94>
    2950:	00028612 	andeq	r8, r2, r2, lsl r6
    2954:	c5190200 	ldrgt	r0, [r9, #-512]	; 0x200
    2958:	13000003 	movwne	r0, #3
    295c:	0000002c 	andeq	r0, r0, ip, lsr #32
    2960:	0000b213 	andeq	fp, r0, r3, lsl r2
    2964:	24140000 	ldrcs	r0, [r4], #-0
    2968:	03000003 	movweq	r0, #3
    296c:	00002ca9 	andeq	r2, r0, r9, lsr #25
    2970:	0003da00 	andeq	sp, r3, r0, lsl #20
    2974:	03da1300 	bicseq	r1, sl, #0, 6
    2978:	0f000000 	svceq	0x00000000
    297c:	0003e004 	andeq	lr, r3, r4
    2980:	03e51500 	mvneq	r1, #0, 10
    2984:	12160000 	andsne	r0, r6, #0
    2988:	000002f5 	strdeq	r0, [r0], -r5
    298c:	03fc9d03 	mvnseq	r9, #3, 26	; 0xc0
    2990:	fc130000 	ldc2	0, cr0, [r3], {-0}
    2994:	13000003 	movwne	r0, #3
    2998:	0000002c 	andeq	r0, r0, ip, lsr #32
    299c:	e5040f00 	str	r0, [r4, #-3840]	; 0xf00
    29a0:	00000003 	andeq	r0, r0, r3

Disassembly of section .debug_abbrev:

00000000 <.debug_abbrev>:
   0:	25011101 	strcs	r1, [r1, #-257]	; 0x101
   4:	030b130e 	movweq	r1, #45838	; 0xb30e
   8:	110e1b0e 	tstne	lr, lr, lsl #22
   c:	10061201 	andne	r1, r6, r1, lsl #4
  10:	02000017 	andeq	r0, r0, #23
  14:	0b0b0024 	bleq	2c00ac <__bss_end__+0x2b65ec>
  18:	08030b3e 	stmdaeq	r3, {r1, r2, r3, r4, r5, r8, r9, fp}
  1c:	24030000 	strcs	r0, [r3], #-0
  20:	3e0b0b00 	vmlacc.f64	d0, d11, d0
  24:	000e030b 	andeq	r0, lr, fp, lsl #6
  28:	00160400 	andseq	r0, r6, r0, lsl #8
  2c:	0b3a0e03 	bleq	e83840 <__bss_end__+0xe79d80>
  30:	13490b3b 	movtne	r0, #39739	; 0x9b3b
  34:	0f050000 	svceq	0x00050000
  38:	490b0b00 	stmdbmi	fp, {r8, r9, fp}
  3c:	06000013 			; <UNDEFINED> instruction: 0x06000013
  40:	13490026 	movtne	r0, #36902	; 0x9026
  44:	01070000 	mrseq	r0, (UNDEF: 7)
  48:	01134901 	tsteq	r3, r1, lsl #18
  4c:	08000013 	stmdaeq	r0, {r0, r1, r4}
  50:	13490021 	movtne	r0, #36897	; 0x9021
  54:	00000b2f 	andeq	r0, r0, pc, lsr #22
  58:	03012e09 	movweq	r2, #7689	; 0x1e09
  5c:	3b0b3a0e 	blcc	2ce89c <__bss_end__+0x2c4ddc>
  60:	1119270b 	tstne	r9, fp, lsl #14
  64:	40061201 	andmi	r1, r6, r1, lsl #4
  68:	19429718 	stmdbne	r2, {r3, r4, r8, r9, sl, ip, pc}^
  6c:	00001301 	andeq	r1, r0, r1, lsl #6
  70:	0300050a 	movweq	r0, #1290	; 0x50a
  74:	3b0b3a0e 	blcc	2ce8b4 <__bss_end__+0x2c4df4>
  78:	0213490b 	andseq	r4, r3, #180224	; 0x2c000
  7c:	0b000017 	bleq	e0 <_start-0x7f20>
  80:	08030005 	stmdaeq	r3, {r0, r2}
  84:	0b3b0b3a 	bleq	ec2d74 <__bss_end__+0xeb92b4>
  88:	17021349 	strne	r1, [r2, -r9, asr #6]
  8c:	340c0000 	strcc	r0, [ip], #-0
  90:	3a0e0300 	bcc	380c98 <__bss_end__+0x3771d8>
  94:	490b3b0b 	stmdbmi	fp, {r0, r1, r3, r8, r9, fp, ip, sp}
  98:	00180213 	andseq	r0, r8, r3, lsl r2
  9c:	82890d00 	addhi	r0, r9, #0, 26
  a0:	01110101 	tsteq	r1, r1, lsl #2
  a4:	13011331 	movwne	r1, #4913	; 0x1331
  a8:	8a0e0000 	bhi	3800b0 <__bss_end__+0x3765f0>
  ac:	02000182 	andeq	r0, r0, #-2147483616	; 0x80000020
  b0:	18429118 	stmdane	r2, {r3, r4, r8, ip, pc}^
  b4:	890f0000 	stmdbhi	pc, {}	; <UNPREDICTABLE>
  b8:	11010182 	smlabbne	r1, r2, r1, r0
  bc:	00133101 	andseq	r3, r3, r1, lsl #2
  c0:	012e1000 	teqeq	lr, r0
  c4:	0b3a0e03 	bleq	e838d8 <__bss_end__+0xe79e18>
  c8:	19270b3b 	stmdbne	r7!, {r0, r1, r3, r4, r5, r8, r9, fp}
  cc:	01111349 	tsteq	r1, r9, asr #6
  d0:	18400612 	stmdane	r0, {r1, r4, r9, sl}^
  d4:	01194297 			; <UNDEFINED> instruction: 0x01194297
  d8:	11000013 	tstne	r0, r3, lsl r0
  dc:	08030034 	stmdaeq	r3, {r2, r4, r5}
  e0:	0b3b0b3a 	bleq	ec2dd0 <__bss_end__+0xeb9310>
  e4:	17021349 	strne	r1, [r2, -r9, asr #6]
  e8:	2e120000 	cdpcs	0, 1, cr0, cr2, cr0, {0}
  ec:	03193f01 	tsteq	r9, #1, 30
  f0:	3b0b3a0e 	blcc	2ce930 <__bss_end__+0x2c4e70>
  f4:	1119270b 	tstne	r9, fp, lsl #14
  f8:	40061201 	andmi	r1, r6, r1, lsl #4
  fc:	19429718 	stmdbne	r2, {r3, r4, r8, r9, sl, ip, pc}^
 100:	00001301 	andeq	r1, r0, r1, lsl #6
 104:	03003413 	movweq	r3, #1043	; 0x413
 108:	3b0b3a08 	blcc	2ce930 <__bss_end__+0x2c4e70>
 10c:	0213490b 	andseq	r4, r3, #180224	; 0x2c000
 110:	14000018 	strne	r0, [r0], #-24
 114:	0e030034 	mcreq	0, 0, r0, cr3, cr4, {1}
 118:	19341349 	ldmdbne	r4!, {r0, r3, r6, r8, r9, ip}
 11c:	00001802 	andeq	r1, r0, r2, lsl #16
 120:	03003415 	movweq	r3, #1045	; 0x415
 124:	3b0b3a0e 	blcc	2ce964 <__bss_end__+0x2c4ea4>
 128:	1c13490b 	ldcne	9, cr4, [r3], {11}
 12c:	16000005 	strne	r0, [r0], -r5
 130:	0e030034 	mcreq	0, 0, r0, cr3, cr4, {1}
 134:	0b3b0b3a 	bleq	ec2e24 <__bss_end__+0xeb9364>
 138:	17021349 	strne	r1, [r2, -r9, asr #6]
 13c:	0b170000 	bleq	5c0144 <__bss_end__+0x5b6684>
 140:	01175501 	tsteq	r7, r1, lsl #10
 144:	18000013 	stmdane	r0, {r0, r1, r4}
 148:	1755010b 	ldrbne	r0, [r5, -fp, lsl #2]
 14c:	89190000 	ldmdbhi	r9, {}	; <UNPREDICTABLE>
 150:	11000182 	smlabbne	r0, r2, r1, r0
 154:	00133101 	andseq	r3, r3, r1, lsl #2
 158:	012e1a00 	teqeq	lr, r0, lsl #20
 15c:	0e03193f 	mcreq	9, 0, r1, cr3, cr15, {1}
 160:	0b3b0b3a 	bleq	ec2e50 <__bss_end__+0xeb9390>
 164:	13491927 	movtne	r1, #39207	; 0x9927
 168:	1301193c 	movwne	r1, #6460	; 0x193c
 16c:	051b0000 	ldreq	r0, [fp, #-0]
 170:	00134900 	andseq	r4, r3, r0, lsl #18
 174:	00181c00 	andseq	r1, r8, r0, lsl #24
 178:	2e1d0000 	cdpcs	0, 1, cr0, cr13, cr0, {0}
 17c:	03193f01 	tsteq	r9, #1, 30
 180:	3b0b3a0e 	blcc	2ce9c0 <__bss_end__+0x2c4f00>
 184:	3c19270b 	ldccc	7, cr2, [r9], {11}
 188:	00130119 	andseq	r0, r3, r9, lsl r1
 18c:	002e1e00 	eoreq	r1, lr, r0, lsl #28
 190:	0e03193f 	mcreq	9, 0, r1, cr3, cr15, {1}
 194:	0b3b0b3a 	bleq	ec2e84 <__bss_end__+0xeb93c4>
 198:	193c1927 	ldmdbne	ip!, {r0, r1, r2, r5, r8, fp, ip}
 19c:	01000000 	mrseq	r0, (UNDEF: 0)
 1a0:	0e250111 	mcreq	1, 1, r0, cr5, cr1, {0}
 1a4:	0e030b13 	vmoveq.32	d3[0], r0
 1a8:	01110e1b 	tsteq	r1, fp, lsl lr
 1ac:	17100612 			; <UNDEFINED> instruction: 0x17100612
 1b0:	24020000 	strcs	r0, [r2], #-0
 1b4:	3e0b0b00 	vmlacc.f64	d0, d11, d0
 1b8:	0008030b 	andeq	r0, r8, fp, lsl #6
 1bc:	00240300 	eoreq	r0, r4, r0, lsl #6
 1c0:	0b3e0b0b 	bleq	f82df4 <__bss_end__+0xf79334>
 1c4:	00000e03 	andeq	r0, r0, r3, lsl #28
 1c8:	03001604 	movweq	r1, #1540	; 0x604
 1cc:	3b0b3a0e 	blcc	2cea0c <__bss_end__+0x2c4f4c>
 1d0:	0013490b 	andseq	r4, r3, fp, lsl #18
 1d4:	01040500 	tsteq	r4, r0, lsl #10
 1d8:	0b3a0b0b 	bleq	e82e0c <__bss_end__+0xe7934c>
 1dc:	13010b3b 	movwne	r0, #6971	; 0x1b3b
 1e0:	28060000 	stmdacs	r6, {}	; <UNPREDICTABLE>
 1e4:	1c0e0300 	stcne	3, cr0, [lr], {-0}
 1e8:	0700000d 	streq	r0, [r0, -sp]
 1ec:	0b0b0113 	bleq	2c0640 <__bss_end__+0x2b6b80>
 1f0:	0b3b0b3a 	bleq	ec2ee0 <__bss_end__+0xeb9420>
 1f4:	00001301 	andeq	r1, r0, r1, lsl #6
 1f8:	03000d08 	movweq	r0, #3336	; 0xd08
 1fc:	3b0b3a0e 	blcc	2cea3c <__bss_end__+0x2c4f7c>
 200:	0b13490b 	bleq	4d2634 <__bss_end__+0x4c8b74>
 204:	0c0b0d0b 	stceq	13, cr0, [fp], {11}
 208:	000b380b 	andeq	r3, fp, fp, lsl #16
 20c:	000d0900 	andeq	r0, sp, r0, lsl #18
 210:	0b3a0803 	bleq	e82224 <__bss_end__+0xe78764>
 214:	13490b3b 	movtne	r0, #39739	; 0x9b3b
 218:	0b0d0b0b 	bleq	342e4c <__bss_end__+0x33938c>
 21c:	0b380b0c 	bleq	e02e54 <__bss_end__+0xdf9394>
 220:	130a0000 	movwne	r0, #40960	; 0xa000
 224:	0b0e0301 	bleq	380e30 <__bss_end__+0x377370>
 228:	3b0b3a0b 	blcc	2cea5c <__bss_end__+0x2c4f9c>
 22c:	0013010b 	andseq	r0, r3, fp, lsl #2
 230:	000d0b00 	andeq	r0, sp, r0, lsl #22
 234:	0b3a0e03 	bleq	e83a48 <__bss_end__+0xe79f88>
 238:	13490b3b 	movtne	r0, #39739	; 0x9b3b
 23c:	00000b38 	andeq	r0, r0, r8, lsr fp
 240:	03012e0c 	movweq	r2, #7692	; 0x1e0c
 244:	3b0b3a0e 	blcc	2cea84 <__bss_end__+0x2c4fc4>
 248:	4919270b 	ldmdbmi	r9, {r0, r1, r3, r8, r9, sl, sp}
 24c:	12011113 	andne	r1, r1, #-1073741820	; 0xc0000004
 250:	97184006 	ldrls	r4, [r8, -r6]
 254:	13011942 	movwne	r1, #6466	; 0x1942
 258:	050d0000 	streq	r0, [sp, #-0]
 25c:	3a080300 	bcc	200e64 <__bss_end__+0x1f73a4>
 260:	490b3b0b 	stmdbmi	fp, {r0, r1, r3, r8, r9, fp, ip, sp}
 264:	00170213 	andseq	r0, r7, r3, lsl r2
 268:	010b0e00 	tsteq	fp, r0, lsl #28
 26c:	06120111 			; <UNDEFINED> instruction: 0x06120111
 270:	170f0000 	strne	r0, [pc, -r0]
 274:	0b080301 	bleq	200e80 <__bss_end__+0x1f73c0>
 278:	3b0b3a0b 	blcc	2ceaac <__bss_end__+0x2c4fec>
 27c:	0013010b 	andseq	r0, r3, fp, lsl #2
 280:	000d1000 	andeq	r1, sp, r0
 284:	0b3a0803 	bleq	e82298 <__bss_end__+0xe787d8>
 288:	13490b3b 	movtne	r0, #39739	; 0x9b3b
 28c:	34110000 	ldrcc	r0, [r1], #-0
 290:	3a080300 	bcc	200e98 <__bss_end__+0x1f73d8>
 294:	490b3b0b 	stmdbmi	fp, {r0, r1, r3, r8, r9, fp, ip, sp}
 298:	12000013 	andne	r0, r0, #19
 29c:	01018289 	smlabbeq	r1, r9, r2, r8
 2a0:	13310111 	teqne	r1, #1073741828	; 0x40000004
 2a4:	8a130000 	bhi	4c02ac <__bss_end__+0x4b67ec>
 2a8:	02000182 	andeq	r0, r0, #-2147483616	; 0x80000020
 2ac:	18429118 	stmdane	r2, {r3, r4, r8, ip, pc}^
 2b0:	0f140000 	svceq	0x00140000
 2b4:	490b0b00 	stmdbmi	fp, {r8, r9, fp}
 2b8:	15000013 	strne	r0, [r0, #-19]
 2bc:	13490035 	movtne	r0, #36917	; 0x9035
 2c0:	2e160000 	cdpcs	0, 1, cr0, cr6, cr0, {0}
 2c4:	3a0e0301 	bcc	380ed0 <__bss_end__+0x377410>
 2c8:	27053b0b 	strcs	r3, [r5, -fp, lsl #22]
 2cc:	12011119 	andne	r1, r1, #1073741830	; 0x40000006
 2d0:	97184006 	ldrls	r4, [r8, -r6]
 2d4:	13011942 	movwne	r1, #6466	; 0x1942
 2d8:	34170000 	ldrcc	r0, [r7], #-0
 2dc:	490e0300 	stmdbmi	lr, {r8, r9}
 2e0:	02193413 	andseq	r3, r9, #318767104	; 0x13000000
 2e4:	18000018 	stmdane	r0, {r3, r4}
 2e8:	13490101 	movtne	r0, #37121	; 0x9101
 2ec:	00001301 	andeq	r1, r0, r1, lsl #6
 2f0:	49002119 	stmdbmi	r0, {r0, r3, r4, r8, sp}
 2f4:	000b2f13 	andeq	r2, fp, r3, lsl pc
 2f8:	00261a00 	eoreq	r1, r6, r0, lsl #20
 2fc:	00001349 	andeq	r1, r0, r9, asr #6
 300:	3f012e1b 	svccc	0x00012e1b
 304:	3a0e0319 	bcc	380f70 <__bss_end__+0x3774b0>
 308:	270b3b0b 	strcs	r3, [fp, -fp, lsl #22]
 30c:	11134919 	tstne	r3, r9, lsl r9
 310:	40061201 	andmi	r1, r6, r1, lsl #4
 314:	19429718 	stmdbne	r2, {r3, r4, r8, r9, sl, ip, pc}^
 318:	00001301 	andeq	r1, r0, r1, lsl #6
 31c:	0300051c 	movweq	r0, #1308	; 0x51c
 320:	3b0b3a0e 	blcc	2ceb60 <__bss_end__+0x2c50a0>
 324:	0213490b 	andseq	r4, r3, #180224	; 0x2c000
 328:	1d000017 	stcne	0, cr0, [r0, #-92]	; 0xffffffa4
 32c:	0e030034 	mcreq	0, 0, r0, cr3, cr4, {1}
 330:	0b3b0b3a 	bleq	ec3020 <__bss_end__+0xeb9560>
 334:	00001349 	andeq	r1, r0, r9, asr #6
 338:	55010b1e 	strpl	r0, [r1, #-2846]	; 0xb1e
 33c:	00130117 	andseq	r0, r3, r7, lsl r1
 340:	00341f00 	eorseq	r1, r4, r0, lsl #30
 344:	0b3a0803 	bleq	e82358 <__bss_end__+0xe78898>
 348:	13490b3b 	movtne	r0, #39739	; 0x9b3b
 34c:	00001702 	andeq	r1, r0, r2, lsl #14
 350:	01828920 	orreq	r8, r2, r0, lsr #18
 354:	31011101 	tstcc	r1, r1, lsl #2
 358:	00130113 	andseq	r0, r3, r3, lsl r1
 35c:	82892100 	addhi	r2, r9, #0, 2
 360:	01110001 	tsteq	r1, r1
 364:	00001331 	andeq	r1, r0, r1, lsr r3
 368:	11010b22 	tstne	r1, r2, lsr #22
 36c:	01061201 	tsteq	r6, r1, lsl #4
 370:	23000013 	movwcs	r0, #19
 374:	193f012e 	ldmdbne	pc!, {r1, r2, r3, r5, r8}	; <UNPREDICTABLE>
 378:	0b3a0e03 	bleq	e83b8c <__bss_end__+0xe7a0cc>
 37c:	19270b3b 	stmdbne	r7!, {r0, r1, r3, r4, r5, r8, r9, fp}
 380:	06120111 			; <UNDEFINED> instruction: 0x06120111
 384:	42971840 	addsmi	r1, r7, #64, 16	; 0x400000
 388:	00130119 	andseq	r0, r3, r9, lsl r1
 38c:	00342400 	eorseq	r2, r4, r0, lsl #8
 390:	0b3a0e03 	bleq	e83ba4 <__bss_end__+0xe7a0e4>
 394:	1349053b 	movtne	r0, #38203	; 0x953b
 398:	00000b1c 	andeq	r0, r0, ip, lsl fp
 39c:	03003425 	movweq	r3, #1061	; 0x425
 3a0:	3b0b3a0e 	blcc	2cebe0 <__bss_end__+0x2c5120>
 3a4:	00134905 	andseq	r4, r3, r5, lsl #18
 3a8:	00342600 	eorseq	r2, r4, r0, lsl #12
 3ac:	0b3a0803 	bleq	e823c0 <__bss_end__+0xe78900>
 3b0:	13490b3b 	movtne	r0, #39739	; 0x9b3b
 3b4:	0000061c 	andeq	r0, r0, ip, lsl r6
 3b8:	3f012e27 	svccc	0x00012e27
 3bc:	3a0e0319 	bcc	381028 <__bss_end__+0x377568>
 3c0:	270b3b0b 	strcs	r3, [fp, -fp, lsl #22]
 3c4:	3c134919 	ldccc	9, cr4, [r3], {25}
 3c8:	00130119 	andseq	r0, r3, r9, lsl r1
 3cc:	00052800 	andeq	r2, r5, r0, lsl #16
 3d0:	00001349 	andeq	r1, r0, r9, asr #6
 3d4:	00003529 	andeq	r3, r0, r9, lsr #10
 3d8:	012e2a00 	teqeq	lr, r0, lsl #20
 3dc:	0e03193f 	mcreq	9, 0, r1, cr3, cr15, {1}
 3e0:	0b3b0b3a 	bleq	ec30d0 <__bss_end__+0xeb9610>
 3e4:	193c1927 	ldmdbne	ip!, {r0, r1, r2, r5, r8, fp, ip}
 3e8:	00001301 	andeq	r1, r0, r1, lsl #6
 3ec:	3f002e2b 	svccc	0x00002e2b
 3f0:	3a0e0319 	bcc	38105c <__bss_end__+0x37759c>
 3f4:	270b3b0b 	strcs	r3, [fp, -fp, lsl #22]
 3f8:	00193c19 	andseq	r3, r9, r9, lsl ip
 3fc:	012e2c00 	teqeq	lr, r0, lsl #24
 400:	0e03193f 	mcreq	9, 0, r1, cr3, cr15, {1}
 404:	0b3b0b3a 	bleq	ec30f4 <__bss_end__+0xeb9634>
 408:	193c1927 	ldmdbne	ip!, {r0, r1, r2, r5, r8, fp, ip}
 40c:	01000000 	mrseq	r0, (UNDEF: 0)
 410:	0e250111 	mcreq	1, 1, r0, cr5, cr1, {0}
 414:	0e030b13 	vmoveq.32	d3[0], r0
 418:	01110e1b 	tsteq	r1, fp, lsl lr
 41c:	17100612 			; <UNDEFINED> instruction: 0x17100612
 420:	16020000 	strne	r0, [r2], -r0
 424:	3a0e0300 	bcc	38102c <__bss_end__+0x37756c>
 428:	490b3b0b 	stmdbmi	fp, {r0, r1, r3, r8, r9, fp, ip, sp}
 42c:	03000013 	movweq	r0, #19
 430:	0e030113 	mcreq	1, 0, r0, cr3, cr3, {0}
 434:	0b3a0b0b 	bleq	e83068 <__bss_end__+0xe795a8>
 438:	13010b3b 	movwne	r0, #6971	; 0x1b3b
 43c:	0d040000 	stceq	0, cr0, [r4, #-0]
 440:	490e0300 	stmdbmi	lr, {r8, r9}
 444:	340b3813 	strcc	r3, [fp], #-2067	; 0x813
 448:	05000019 	streq	r0, [r0, #-25]
 44c:	0b0b000f 	bleq	2c0490 <__bss_end__+0x2b69d0>
 450:	24060000 	strcs	r0, [r6], #-0
 454:	3e0b0b00 	vmlacc.f64	d0, d11, d0
 458:	0008030b 	andeq	r0, r8, fp, lsl #6
 45c:	00240700 	eoreq	r0, r4, r0, lsl #14
 460:	0b3e0b0b 	bleq	f83094 <__bss_end__+0xf795d4>
 464:	00000e03 	andeq	r0, r0, r3, lsl #28
 468:	0b000f08 	bleq	4090 <_start-0x3f70>
 46c:	0013490b 	andseq	r4, r3, fp, lsl #18
 470:	00260900 	eoreq	r0, r6, r0, lsl #18
 474:	00001349 	andeq	r1, r0, r9, asr #6
 478:	3f012e0a 	svccc	0x00012e0a
 47c:	3a0e0319 	bcc	3810e8 <__bss_end__+0x377628>
 480:	270b3b0b 	strcs	r3, [fp, -fp, lsl #22]
 484:	11134919 	tstne	r3, r9, lsl r9
 488:	40061201 	andmi	r1, r6, r1, lsl #4
 48c:	19429718 	stmdbne	r2, {r3, r4, r8, r9, sl, ip, pc}^
 490:	00001301 	andeq	r1, r0, r1, lsl #6
 494:	0300050b 	movweq	r0, #1291	; 0x50b
 498:	3b0b3a08 	blcc	2cecc0 <__bss_end__+0x2c5200>
 49c:	0213490b 	andseq	r4, r3, #180224	; 0x2c000
 4a0:	0c000018 	stceq	0, cr0, [r0], {24}
 4a4:	00000018 	andeq	r0, r0, r8, lsl r0
 4a8:	0300340d 	movweq	r3, #1037	; 0x40d
 4ac:	3b0b3a08 	blcc	2cecd4 <__bss_end__+0x2c5214>
 4b0:	0213490b 	andseq	r4, r3, #180224	; 0x2c000
 4b4:	0e000018 	mcreq	0, 0, r0, cr0, cr8, {0}
 4b8:	0e030034 	mcreq	0, 0, r0, cr3, cr4, {1}
 4bc:	0b3b0b3a 	bleq	ec31ac <__bss_end__+0xeb96ec>
 4c0:	18021349 	stmdane	r2, {r0, r3, r6, r8, r9, ip}
 4c4:	340f0000 	strcc	r0, [pc], #-0	; 4cc <_start-0x7b34>
 4c8:	3a080300 	bcc	2010d0 <__bss_end__+0x1f7610>
 4cc:	490b3b0b 	stmdbmi	fp, {r0, r1, r3, r8, r9, fp, ip, sp}
 4d0:	00170213 	andseq	r0, r7, r3, lsl r2
 4d4:	82891000 	addhi	r1, r9, #0
 4d8:	01110101 	tsteq	r1, r1, lsl #2
 4dc:	13011331 	movwne	r1, #4913	; 0x1331
 4e0:	8a110000 	bhi	4404e8 <__bss_end__+0x436a28>
 4e4:	02000182 	andeq	r0, r0, #-2147483616	; 0x80000020
 4e8:	18429118 	stmdane	r2, {r3, r4, r8, ip, pc}^
 4ec:	89120000 	ldmdbhi	r2, {}	; <UNPREDICTABLE>
 4f0:	11010182 	smlabbne	r1, r2, r1, r0
 4f4:	13000001 	movwne	r0, #1
 4f8:	13490101 	movtne	r0, #37121	; 0x9101
 4fc:	00001301 	andeq	r1, r0, r1, lsl #6
 500:	49002114 	stmdbmi	r0, {r2, r4, r8, sp}
 504:	00052f13 	andeq	r2, r5, r3, lsl pc
 508:	01151500 	tsteq	r5, r0, lsl #10
 50c:	13491927 	movtne	r1, #39207	; 0x9927
 510:	00001301 	andeq	r1, r0, r1, lsl #6
 514:	49000516 	stmdbmi	r0, {r1, r2, r4, r8, sl}
 518:	17000013 	smladne	r0, r3, r0, r0
 51c:	0e030034 	mcreq	0, 0, r0, cr3, cr4, {1}
 520:	0b3b0b3a 	bleq	ec3210 <__bss_end__+0xeb9750>
 524:	193f1349 	ldmdbne	pc!, {r0, r3, r6, r8, r9, ip}	; <UNPREDICTABLE>
 528:	0000193c 	andeq	r1, r0, ip, lsr r9
 52c:	3f012e18 	svccc	0x00012e18
 530:	3a0e0319 	bcc	38119c <__bss_end__+0x3776dc>
 534:	270b3b0b 	strcs	r3, [fp, -fp, lsl #22]
 538:	3c134919 	ldccc	9, cr4, [r3], {25}
 53c:	00000019 	andeq	r0, r0, r9, lsl r0
 540:	25011101 	strcs	r1, [r1, #-257]	; 0x101
 544:	030b130e 	movweq	r1, #45838	; 0xb30e
 548:	110e1b0e 	tstne	lr, lr, lsl #22
 54c:	10061201 	andne	r1, r6, r1, lsl #4
 550:	02000017 	andeq	r0, r0, #23
 554:	0b0b0024 	bleq	2c05ec <__bss_end__+0x2b6b2c>
 558:	08030b3e 	stmdaeq	r3, {r1, r2, r3, r4, r5, r8, r9, fp}
 55c:	24030000 	strcs	r0, [r3], #-0
 560:	3e0b0b00 	vmlacc.f64	d0, d11, d0
 564:	000e030b 	andeq	r0, lr, fp, lsl #6
 568:	012e0400 	teqeq	lr, r0, lsl #8
 56c:	0b3a0e03 	bleq	e83d80 <__bss_end__+0xe7a2c0>
 570:	19270b3b 	stmdbne	r7!, {r0, r1, r3, r4, r5, r8, r9, fp}
 574:	01111349 	tsteq	r1, r9, asr #6
 578:	18400612 	stmdane	r0, {r1, r4, r9, sl}^
 57c:	01194297 			; <UNDEFINED> instruction: 0x01194297
 580:	05000013 	streq	r0, [r0, #-19]
 584:	08030005 	stmdaeq	r3, {r0, r2}
 588:	0b3b0b3a 	bleq	ec3278 <__bss_end__+0xeb97b8>
 58c:	17021349 	strne	r1, [r2, -r9, asr #6]
 590:	89060000 	stmdbhi	r6, {}	; <UNPREDICTABLE>
 594:	11010182 	smlabbne	r1, r2, r1, r0
 598:	00133101 	andseq	r3, r3, r1, lsl #2
 59c:	828a0700 	addhi	r0, sl, #0, 14
 5a0:	18020001 	stmdane	r2, {r0}
 5a4:	00184291 	mulseq	r8, r1, r2
 5a8:	002e0800 	eoreq	r0, lr, r0, lsl #16
 5ac:	0e03193f 	mcreq	9, 0, r1, cr3, cr15, {1}
 5b0:	0b3b0b3a 	bleq	ec32a0 <__bss_end__+0xeb97e0>
 5b4:	01111927 	tsteq	r1, r7, lsr #18
 5b8:	18400612 	stmdane	r0, {r1, r4, r9, sl}^
 5bc:	00194297 	mulseq	r9, r7, r2
 5c0:	012e0900 	teqeq	lr, r0, lsl #18
 5c4:	0e03193f 	mcreq	9, 0, r1, cr3, cr15, {1}
 5c8:	0b3b0b3a 	bleq	ec32b8 <__bss_end__+0xeb97f8>
 5cc:	01111927 	tsteq	r1, r7, lsr #18
 5d0:	18400612 	stmdane	r0, {r1, r4, r9, sl}^
 5d4:	01194297 			; <UNDEFINED> instruction: 0x01194297
 5d8:	0a000013 	beq	62c <_start-0x79d4>
 5dc:	08030005 	stmdaeq	r3, {r0, r2}
 5e0:	0b3b0b3a 	bleq	ec32d0 <__bss_end__+0xeb9810>
 5e4:	18021349 	stmdane	r2, {r0, r3, r6, r8, r9, ip}
 5e8:	150b0000 	strne	r0, [fp, #-0]
 5ec:	49192701 	ldmdbmi	r9, {r0, r8, r9, sl, sp}
 5f0:	00130113 	andseq	r0, r3, r3, lsl r1
 5f4:	00050c00 	andeq	r0, r5, r0, lsl #24
 5f8:	00001349 	andeq	r1, r0, r9, asr #6
 5fc:	0b000f0d 	bleq	4238 <_start-0x3dc8>
 600:	0013490b 	andseq	r4, r3, fp, lsl #18
 604:	00340e00 	eorseq	r0, r4, r0, lsl #28
 608:	0b3a0e03 	bleq	e83e1c <__bss_end__+0xe7a35c>
 60c:	13490b3b 	movtne	r0, #39739	; 0x9b3b
 610:	1802193f 	stmdane	r2, {r0, r1, r2, r3, r4, r5, r8, fp, ip}
 614:	2e0f0000 	cdpcs	0, 0, cr0, cr15, cr0, {0}
 618:	03193f01 	tsteq	r9, #1, 30
 61c:	3b0b3a0e 	blcc	2cee5c <__bss_end__+0x2c539c>
 620:	3c19270b 	ldccc	7, cr2, [r9], {11}
 624:	00000019 	andeq	r0, r0, r9, lsl r0
 628:	25011101 	strcs	r1, [r1, #-257]	; 0x101
 62c:	030b130e 	movweq	r1, #45838	; 0xb30e
 630:	110e1b0e 	tstne	lr, lr, lsl #22
 634:	10061201 	andne	r1, r6, r1, lsl #4
 638:	02000017 	andeq	r0, r0, #23
 63c:	0b0b0024 	bleq	2c06d4 <__bss_end__+0x2b6c14>
 640:	08030b3e 	stmdaeq	r3, {r1, r2, r3, r4, r5, r8, r9, fp}
 644:	24030000 	strcs	r0, [r3], #-0
 648:	3e0b0b00 	vmlacc.f64	d0, d11, d0
 64c:	000e030b 	andeq	r0, lr, fp, lsl #6
 650:	000f0400 	andeq	r0, pc, r0, lsl #8
 654:	13490b0b 	movtne	r0, #39691	; 0x9b0b
 658:	26050000 	strcs	r0, [r5], -r0
 65c:	00134900 	andseq	r4, r3, r0, lsl #18
 660:	012e0600 	teqeq	lr, r0, lsl #12
 664:	0e03193f 	mcreq	9, 0, r1, cr3, cr15, {1}
 668:	0b3b0b3a 	bleq	ec3358 <__bss_end__+0xeb9898>
 66c:	13491927 	movtne	r1, #39207	; 0x9927
 670:	06120111 			; <UNDEFINED> instruction: 0x06120111
 674:	42961840 	addsmi	r1, r6, #64, 16	; 0x400000
 678:	00130119 	andseq	r0, r3, r9, lsl r1
 67c:	00050700 	andeq	r0, r5, r0, lsl #14
 680:	0b3a0803 	bleq	e82694 <__bss_end__+0xe78bd4>
 684:	13490b3b 	movtne	r0, #39739	; 0x9b3b
 688:	00001702 	andeq	r1, r0, r2, lsl #14
 68c:	27011508 	strcs	r1, [r1, -r8, lsl #10]
 690:	01134919 	tsteq	r3, r9, lsl r9
 694:	09000013 	stmdbeq	r0, {r0, r1, r4}
 698:	13490005 	movtne	r0, #36869	; 0x9005
 69c:	340a0000 	strcc	r0, [sl], #-0
 6a0:	3a0e0300 	bcc	3812a8 <__bss_end__+0x3777e8>
 6a4:	490b3b0b 	stmdbmi	fp, {r0, r1, r3, r8, r9, fp, ip, sp}
 6a8:	3c193f13 	ldccc	15, cr3, [r9], {19}
 6ac:	0b000019 	bleq	718 <_start-0x78e8>
 6b0:	0e030034 	mcreq	0, 0, r0, cr3, cr4, {1}
 6b4:	0b3b0b3a 	bleq	ec33a4 <__bss_end__+0xeb98e4>
 6b8:	193f1349 	ldmdbne	pc!, {r0, r3, r6, r8, r9, ip}	; <UNPREDICTABLE>
 6bc:	00001802 	andeq	r1, r0, r2, lsl #16
 6c0:	01110100 	tsteq	r1, r0, lsl #2
 6c4:	0b130e25 	bleq	4c3f60 <__bss_end__+0x4ba4a0>
 6c8:	0e1b0e03 	cdpeq	14, 1, cr0, cr11, cr3, {0}
 6cc:	06120111 			; <UNDEFINED> instruction: 0x06120111
 6d0:	00001710 	andeq	r1, r0, r0, lsl r7
 6d4:	0b002402 	bleq	96e4 <__bss_start__+0x28>
 6d8:	030b3e0b 	movweq	r3, #48651	; 0xbe0b
 6dc:	03000008 	movweq	r0, #8
 6e0:	0b0b0024 	bleq	2c0778 <__bss_end__+0x2b6cb8>
 6e4:	0e030b3e 	vmoveq.16	d3[0], r0
 6e8:	0f040000 	svceq	0x00040000
 6ec:	000b0b00 	andeq	r0, fp, r0, lsl #22
 6f0:	000f0500 	andeq	r0, pc, r0, lsl #10
 6f4:	13490b0b 	movtne	r0, #39691	; 0x9b0b
 6f8:	26060000 	strcs	r0, [r6], -r0
 6fc:	00134900 	andseq	r4, r3, r0, lsl #18
 700:	00160700 	andseq	r0, r6, r0, lsl #14
 704:	0b3a0e03 	bleq	e83f18 <__bss_end__+0xe7a458>
 708:	13490b3b 	movtne	r0, #39739	; 0x9b3b
 70c:	13080000 	movwne	r0, #32768	; 0x8000
 710:	0b0e0301 	bleq	38131c <__bss_end__+0x37785c>
 714:	3b0b3a0b 	blcc	2cef48 <__bss_end__+0x2c5488>
 718:	0013010b 	andseq	r0, r3, fp, lsl #2
 71c:	000d0900 	andeq	r0, sp, r0, lsl #18
 720:	13490e03 	movtne	r0, #40451	; 0x9e03
 724:	19340b38 	ldmdbne	r4!, {r3, r4, r5, r8, r9, fp}
 728:	2e0a0000 	cdpcs	0, 0, cr0, cr10, cr0, {0}
 72c:	3a0e0301 	bcc	381338 <__bss_end__+0x377878>
 730:	270b3b0b 	strcs	r3, [fp, -fp, lsl #22]
 734:	11134919 	tstne	r3, r9, lsl r9
 738:	40061201 	andmi	r1, r6, r1, lsl #4
 73c:	19429718 	stmdbne	r2, {r3, r4, r8, r9, sl, ip, pc}^
 740:	00001301 	andeq	r1, r0, r1, lsl #6
 744:	0300050b 	movweq	r0, #1291	; 0x50b
 748:	3b0b3a08 	blcc	2cef70 <__bss_end__+0x2c54b0>
 74c:	0213490b 	andseq	r4, r3, #180224	; 0x2c000
 750:	0c000017 	stceq	0, cr0, [r0], {23}
 754:	0803012e 	stmdaeq	r3, {r1, r2, r3, r5, r8}
 758:	0b3b0b3a 	bleq	ec3448 <__bss_end__+0xeb9988>
 75c:	13491927 	movtne	r1, #39207	; 0x9927
 760:	06120111 			; <UNDEFINED> instruction: 0x06120111
 764:	42971840 	addsmi	r1, r7, #64, 16	; 0x400000
 768:	00130119 	andseq	r0, r3, r9, lsl r1
 76c:	00050d00 	andeq	r0, r5, r0, lsl #26
 770:	0b3a0e03 	bleq	e83f84 <__bss_end__+0xe7a4c4>
 774:	13490b3b 	movtne	r0, #39739	; 0x9b3b
 778:	00001702 	andeq	r1, r0, r2, lsl #14
 77c:	0300050e 	movweq	r0, #1294	; 0x50e
 780:	3b0b3a0e 	blcc	2cefc0 <__bss_end__+0x2c5500>
 784:	0213490b 	andseq	r4, r3, #180224	; 0x2c000
 788:	0f000018 	svceq	0x00000018
 78c:	08030034 	stmdaeq	r3, {r2, r4, r5}
 790:	0b3b0b3a 	bleq	ec3480 <__bss_end__+0xeb99c0>
 794:	18021349 	stmdane	r2, {r0, r3, r6, r8, r9, ip}
 798:	34100000 	ldrcc	r0, [r0], #-0
 79c:	3a080300 	bcc	2013a4 <__bss_end__+0x1f78e4>
 7a0:	490b3b0b 	stmdbmi	fp, {r0, r1, r3, r8, r9, fp, ip, sp}
 7a4:	00170213 	andseq	r0, r7, r3, lsl r2
 7a8:	00341100 	eorseq	r1, r4, r0, lsl #2
 7ac:	13490e03 	movtne	r0, #40451	; 0x9e03
 7b0:	18021934 	stmdane	r2, {r2, r4, r5, r8, fp, ip}
 7b4:	0b120000 	bleq	4807bc <__bss_end__+0x476cfc>
 7b8:	12011101 	andne	r1, r1, #1073741824	; 0x40000000
 7bc:	00130106 	andseq	r0, r3, r6, lsl #2
 7c0:	00341300 	eorseq	r1, r4, r0, lsl #6
 7c4:	0b3a0e03 	bleq	e83fd8 <__bss_end__+0xe7a518>
 7c8:	13490b3b 	movtne	r0, #39739	; 0x9b3b
 7cc:	00001702 	andeq	r1, r0, r2, lsl #14
 7d0:	01828914 	orreq	r8, r2, r4, lsl r9
 7d4:	31011100 	mrscc	r1, (UNDEF: 17)
 7d8:	15000013 	strne	r0, [r0, #-19]
 7dc:	01018289 	smlabbeq	r1, r9, r2, r8
 7e0:	13310111 	teqne	r1, #1073741828	; 0x40000004
 7e4:	00001301 	andeq	r1, r0, r1, lsl #6
 7e8:	01828a16 	orreq	r8, r2, r6, lsl sl
 7ec:	91180200 	tstls	r8, r0, lsl #4
 7f0:	00001842 	andeq	r1, r0, r2, asr #16
 7f4:	01828917 	orreq	r8, r2, r7, lsl r9
 7f8:	31011101 	tstcc	r1, r1, lsl #2
 7fc:	18000013 	stmdane	r0, {r0, r1, r4}
 800:	13490101 	movtne	r0, #37121	; 0x9101
 804:	00001301 	andeq	r1, r0, r1, lsl #6
 808:	49002119 	stmdbmi	r0, {r0, r3, r4, r8, sp}
 80c:	000b2f13 	andeq	r2, fp, r3, lsl pc
 810:	012e1a00 	teqeq	lr, r0, lsl #20
 814:	0e03193f 	mcreq	9, 0, r1, cr3, cr15, {1}
 818:	0b3b0b3a 	bleq	ec3508 <__bss_end__+0xeb9a48>
 81c:	01111927 	tsteq	r1, r7, lsr #18
 820:	18400612 	stmdane	r0, {r1, r4, r9, sl}^
 824:	01194297 			; <UNDEFINED> instruction: 0x01194297
 828:	1b000013 	blne	87c <_start-0x7784>
 82c:	19270115 	stmdbne	r7!, {r0, r2, r4, r8}
 830:	13011349 	movwne	r1, #4937	; 0x1349
 834:	051c0000 	ldreq	r0, [ip, #-0]
 838:	00134900 	andseq	r4, r3, r0, lsl #18
 83c:	012e1d00 	teqeq	lr, r0, lsl #26
 840:	0e03193f 	mcreq	9, 0, r1, cr3, cr15, {1}
 844:	0b3b0b3a 	bleq	ec3534 <__bss_end__+0xeb9a74>
 848:	13491927 	movtne	r1, #39207	; 0x9927
 84c:	06120111 			; <UNDEFINED> instruction: 0x06120111
 850:	42971840 	addsmi	r1, r7, #64, 16	; 0x400000
 854:	00130119 	andseq	r0, r3, r9, lsl r1
 858:	010b1e00 	tsteq	fp, r0, lsl #28
 85c:	00001755 	andeq	r1, r0, r5, asr r7
 860:	0300341f 	movweq	r3, #1055	; 0x41f
 864:	3b0b3a0e 	blcc	2cf0a4 <__bss_end__+0x2c55e4>
 868:	3f13490b 	svccc	0x0013490b
 86c:	00193c19 	andseq	r3, r9, r9, lsl ip
 870:	002e2000 	eoreq	r2, lr, r0
 874:	0e03193f 	mcreq	9, 0, r1, cr3, cr15, {1}
 878:	0b3b0b3a 	bleq	ec3568 <__bss_end__+0xeb9aa8>
 87c:	193c1927 	ldmdbne	ip!, {r0, r1, r2, r5, r8, fp, ip}
 880:	2e210000 	cdpcs	0, 2, cr0, cr1, cr0, {0}
 884:	03193f01 	tsteq	r9, #1, 30
 888:	3b0b3a0e 	blcc	2cf0c8 <__bss_end__+0x2c5608>
 88c:	4919270b 	ldmdbmi	r9, {r0, r1, r3, r8, r9, sl, sp}
 890:	01193c13 	tsteq	r9, r3, lsl ip
 894:	22000013 	andcs	r0, r0, #19
 898:	00000018 	andeq	r0, r0, r8, lsl r0
 89c:	01110100 	tsteq	r1, r0, lsl #2
 8a0:	0b130e25 	bleq	4c413c <__bss_end__+0x4ba67c>
 8a4:	0e1b0e03 	cdpeq	14, 1, cr0, cr11, cr3, {0}
 8a8:	06120111 			; <UNDEFINED> instruction: 0x06120111
 8ac:	00001710 	andeq	r1, r0, r0, lsl r7
 8b0:	0b002402 	bleq	98c0 <__bss_start__+0x204>
 8b4:	030b3e0b 	movweq	r3, #48651	; 0xbe0b
 8b8:	03000008 	movweq	r0, #8
 8bc:	0b0b0024 	bleq	2c0954 <__bss_end__+0x2b6e94>
 8c0:	0e030b3e 	vmoveq.16	d3[0], r0
 8c4:	0f040000 	svceq	0x00040000
 8c8:	490b0b00 	stmdbmi	fp, {r8, r9, fp}
 8cc:	05000013 	streq	r0, [r0, #-19]
 8d0:	13490026 	movtne	r0, #36902	; 0x9026
 8d4:	2e060000 	cdpcs	0, 0, cr0, cr6, cr0, {0}
 8d8:	03193f01 	tsteq	r9, #1, 30
 8dc:	3b0b3a0e 	blcc	2cf11c <__bss_end__+0x2c565c>
 8e0:	1119270b 	tstne	r9, fp, lsl #14
 8e4:	40061201 	andmi	r1, r6, r1, lsl #4
 8e8:	19429718 	stmdbne	r2, {r3, r4, r8, r9, sl, ip, pc}^
 8ec:	00001301 	andeq	r1, r0, r1, lsl #6
 8f0:	01828907 	orreq	r8, r2, r7, lsl #18
 8f4:	01011101 	tsteq	r1, r1, lsl #2
 8f8:	08000013 	stmdaeq	r0, {r0, r1, r4}
 8fc:	0001828a 	andeq	r8, r1, sl, lsl #5
 900:	42911802 	addsmi	r1, r1, #131072	; 0x20000
 904:	09000018 	stmdbeq	r0, {r3, r4}
 908:	01018289 	smlabbeq	r1, r9, r2, r8
 90c:	13310111 	teqne	r1, #1073741828	; 0x40000004
 910:	00001301 	andeq	r1, r0, r1, lsl #6
 914:	0182890a 	orreq	r8, r2, sl, lsl #18
 918:	31011100 	mrscc	r1, (UNDEF: 17)
 91c:	0b000013 	bleq	970 <_start-0x7690>
 920:	19270115 	stmdbne	r7!, {r0, r2, r4, r8}
 924:	13011349 	movwne	r1, #4937	; 0x1349
 928:	050c0000 	streq	r0, [ip, #-0]
 92c:	00134900 	andseq	r4, r3, r0, lsl #18
 930:	00340d00 	eorseq	r0, r4, r0, lsl #26
 934:	0b3a0e03 	bleq	e84148 <__bss_end__+0xe7a688>
 938:	13490b3b 	movtne	r0, #39739	; 0x9b3b
 93c:	193c193f 	ldmdbne	ip!, {r0, r1, r2, r3, r4, r5, r8, fp, ip}
 940:	2e0e0000 	cdpcs	0, 0, cr0, cr14, cr0, {0}
 944:	03193f01 	tsteq	r9, #1, 30
 948:	3b0b3a0e 	blcc	2cf188 <__bss_end__+0x2c56c8>
 94c:	3c19270b 	ldccc	7, cr2, [r9], {11}
 950:	00130119 	andseq	r0, r3, r9, lsl r1
 954:	002e0f00 	eoreq	r0, lr, r0, lsl #30
 958:	0e03193f 	mcreq	9, 0, r1, cr3, cr15, {1}
 95c:	0b3b0b3a 	bleq	ec364c <__bss_end__+0xeb9b8c>
 960:	193c1927 	ldmdbne	ip!, {r0, r1, r2, r5, r8, fp, ip}
 964:	01000000 	mrseq	r0, (UNDEF: 0)
 968:	0e250111 	mcreq	1, 1, r0, cr5, cr1, {0}
 96c:	0e030b13 	vmoveq.32	d3[0], r0
 970:	01110e1b 	tsteq	r1, fp, lsl lr
 974:	17100612 			; <UNDEFINED> instruction: 0x17100612
 978:	24020000 	strcs	r0, [r2], #-0
 97c:	3e0b0b00 	vmlacc.f64	d0, d11, d0
 980:	0008030b 	andeq	r0, r8, fp, lsl #6
 984:	00240300 	eoreq	r0, r4, r0, lsl #6
 988:	0b3e0b0b 	bleq	f835bc <__bss_end__+0xf79afc>
 98c:	00000e03 	andeq	r0, r0, r3, lsl #28
 990:	3f012e04 	svccc	0x00012e04
 994:	3a0e0319 	bcc	381600 <__bss_end__+0x377b40>
 998:	110b3b0b 	tstne	fp, fp, lsl #22
 99c:	40061201 	andmi	r1, r6, r1, lsl #4
 9a0:	19429718 	stmdbne	r2, {r3, r4, r8, r9, sl, ip, pc}^
 9a4:	00001301 	andeq	r1, r0, r1, lsl #6
 9a8:	03003405 	movweq	r3, #1029	; 0x405
 9ac:	3b0b3a0e 	blcc	2cf1ec <__bss_end__+0x2c572c>
 9b0:	3f13490b 	svccc	0x0013490b
 9b4:	00193c19 	andseq	r3, r9, r9, lsl ip
 9b8:	002e0600 	eoreq	r0, lr, r0, lsl #12
 9bc:	0e03193f 	mcreq	9, 0, r1, cr3, cr15, {1}
 9c0:	0b3b0b3a 	bleq	ec36b0 <__bss_end__+0xeb9bf0>
 9c4:	193c1927 	ldmdbne	ip!, {r0, r1, r2, r5, r8, fp, ip}
 9c8:	34070000 	strcc	r0, [r7], #-0
 9cc:	3a080300 	bcc	2015d4 <__bss_end__+0x1f7b14>
 9d0:	490b3b0b 	stmdbmi	fp, {r0, r1, r3, r8, r9, fp, ip, sp}
 9d4:	00170213 	andseq	r0, r7, r3, lsl r2
 9d8:	00340800 	eorseq	r0, r4, r0, lsl #16
 9dc:	0b3a0e03 	bleq	e841f0 <__bss_end__+0xe7a730>
 9e0:	13490b3b 	movtne	r0, #39739	; 0x9b3b
 9e4:	89090000 	stmdbhi	r9, {}	; <UNPREDICTABLE>
 9e8:	11000182 	smlabbne	r0, r2, r1, r0
 9ec:	00133101 	andseq	r3, r3, r1, lsl #2
 9f0:	000f0a00 	andeq	r0, pc, r0, lsl #20
 9f4:	13490b0b 	movtne	r0, #39691	; 0x9b0b
 9f8:	01000000 	mrseq	r0, (UNDEF: 0)
 9fc:	0e250111 	mcreq	1, 1, r0, cr5, cr1, {0}
 a00:	0e030b13 	vmoveq.32	d3[0], r0
 a04:	17550e1b 	smmlane	r5, fp, lr, r0
 a08:	17100111 			; <UNDEFINED> instruction: 0x17100111
 a0c:	24020000 	strcs	r0, [r2], #-0
 a10:	3e0b0b00 	vmlacc.f64	d0, d11, d0
 a14:	0008030b 	andeq	r0, r8, fp, lsl #6
 a18:	00240300 	eoreq	r0, r4, r0, lsl #6
 a1c:	0b3e0b0b 	bleq	f83650 <__bss_end__+0xf79b90>
 a20:	00000e03 	andeq	r0, r0, r3, lsl #28
 a24:	3f012e04 	svccc	0x00012e04
 a28:	3a0e0319 	bcc	381694 <__bss_end__+0x377bd4>
 a2c:	270b3b0b 	strcs	r3, [fp, -fp, lsl #22]
 a30:	11134919 	tstne	r3, r9, lsl r9
 a34:	40061201 	andmi	r1, r6, r1, lsl #4
 a38:	19429718 	stmdbne	r2, {r3, r4, r8, r9, sl, ip, pc}^
 a3c:	00001301 	andeq	r1, r0, r1, lsl #6
 a40:	03003405 	movweq	r3, #1029	; 0x405
 a44:	3b0b3a0e 	blcc	2cf284 <__bss_end__+0x2c57c4>
 a48:	0213490b 	andseq	r4, r3, #180224	; 0x2c000
 a4c:	06000017 			; <UNDEFINED> instruction: 0x06000017
 a50:	193f012e 	ldmdbne	pc!, {r1, r2, r3, r5, r8}	; <UNPREDICTABLE>
 a54:	0b3a0e03 	bleq	e84268 <__bss_end__+0xe7a7a8>
 a58:	19270b3b 	stmdbne	r7!, {r0, r1, r3, r4, r5, r8, r9, fp}
 a5c:	06120111 			; <UNDEFINED> instruction: 0x06120111
 a60:	42971840 	addsmi	r1, r7, #64, 16	; 0x400000
 a64:	00130119 	andseq	r0, r3, r9, lsl r1
 a68:	00340700 	eorseq	r0, r4, r0, lsl #14
 a6c:	0b3a0e03 	bleq	e84280 <__bss_end__+0xe7a7c0>
 a70:	13490b3b 	movtne	r0, #39739	; 0x9b3b
 a74:	0000061c 	andeq	r0, r0, ip, lsl r6
 a78:	03003408 	movweq	r3, #1032	; 0x408
 a7c:	3b0b3a0e 	blcc	2cf2bc <__bss_end__+0x2c57fc>
 a80:	1c13490b 	ldcne	9, cr4, [r3], {11}
 a84:	0900000b 	stmdbeq	r0, {r0, r1, r3}
 a88:	00018289 	andeq	r8, r1, r9, lsl #5
 a8c:	13310111 	teqne	r1, #1073741828	; 0x40000004
 a90:	890a0000 	stmdbhi	sl, {}	; <UNPREDICTABLE>
 a94:	11010182 	smlabbne	r1, r2, r1, r0
 a98:	01133101 	tsteq	r3, r1, lsl #2
 a9c:	0b000013 	bleq	af0 <_start-0x7510>
 aa0:	0001828a 	andeq	r8, r1, sl, lsl #5
 aa4:	42911802 	addsmi	r1, r1, #131072	; 0x20000
 aa8:	0c000018 	stceq	0, cr0, [r0], {24}
 aac:	01018289 	smlabbeq	r1, r9, r2, r8
 ab0:	13310111 	teqne	r1, #1073741828	; 0x40000004
 ab4:	260d0000 	strcs	r0, [sp], -r0
 ab8:	00134900 	andseq	r4, r3, r0, lsl #18
 abc:	012e0e00 	teqeq	lr, r0, lsl #28
 ac0:	0e03193f 	mcreq	9, 0, r1, cr3, cr15, {1}
 ac4:	0b3b0b3a 	bleq	ec37b4 <__bss_end__+0xeb9cf4>
 ac8:	193c1927 	ldmdbne	ip!, {r0, r1, r2, r5, r8, fp, ip}
 acc:	00001301 	andeq	r1, r0, r1, lsl #6
 ad0:	4900050f 	stmdbmi	r0, {r0, r1, r2, r3, r8, sl}
 ad4:	10000013 	andne	r0, r0, r3, lsl r0
 ad8:	193f012e 	ldmdbne	pc!, {r1, r2, r3, r5, r8}	; <UNPREDICTABLE>
 adc:	0b3a0e03 	bleq	e842f0 <__bss_end__+0xe7a830>
 ae0:	19270b3b 	stmdbne	r7!, {r0, r1, r3, r4, r5, r8, r9, fp}
 ae4:	0000193c 	andeq	r1, r0, ip, lsr r9
 ae8:	01110100 	tsteq	r1, r0, lsl #2
 aec:	0b130e25 	bleq	4c4388 <__bss_end__+0x4ba8c8>
 af0:	0e1b0e03 	cdpeq	14, 1, cr0, cr11, cr3, {0}
 af4:	06120111 			; <UNDEFINED> instruction: 0x06120111
 af8:	00001710 	andeq	r1, r0, r0, lsl r7
 afc:	0b002402 	bleq	9b0c <__bss_end__+0x4c>
 b00:	030b3e0b 	movweq	r3, #48651	; 0xbe0b
 b04:	03000008 	movweq	r0, #8
 b08:	0b0b0024 	bleq	2c0ba0 <__bss_end__+0x2b70e0>
 b0c:	0e030b3e 	vmoveq.16	d3[0], r0
 b10:	2e040000 	cdpcs	0, 0, cr0, cr4, cr0, {0}
 b14:	03193f01 	tsteq	r9, #1, 30
 b18:	3b0b3a0e 	blcc	2cf358 <__bss_end__+0x2c5898>
 b1c:	1119270b 	tstne	r9, fp, lsl #14
 b20:	40061201 	andmi	r1, r6, r1, lsl #4
 b24:	19429718 	stmdbne	r2, {r3, r4, r8, r9, sl, ip, pc}^
 b28:	00001301 	andeq	r1, r0, r1, lsl #6
 b2c:	03000505 	movweq	r0, #1285	; 0x505
 b30:	3b0b3a0e 	blcc	2cf370 <__bss_end__+0x2c58b0>
 b34:	0213490b 	andseq	r4, r3, #180224	; 0x2c000
 b38:	06000017 			; <UNDEFINED> instruction: 0x06000017
 b3c:	193f012e 	ldmdbne	pc!, {r1, r2, r3, r5, r8}	; <UNPREDICTABLE>
 b40:	0b3a0e03 	bleq	e84354 <__bss_end__+0xe7a894>
 b44:	19270b3b 	stmdbne	r7!, {r0, r1, r3, r4, r5, r8, r9, fp}
 b48:	01111349 	tsteq	r1, r9, asr #6
 b4c:	18400612 	stmdane	r0, {r1, r4, r9, sl}^
 b50:	01194297 			; <UNDEFINED> instruction: 0x01194297
 b54:	07000013 	smladeq	r0, r3, r0, r0
 b58:	01018289 	smlabbeq	r1, r9, r2, r8
 b5c:	13310111 	teqne	r1, #1073741828	; 0x40000004
 b60:	8a080000 	bhi	200b68 <__bss_end__+0x1f70a8>
 b64:	02000182 	andeq	r0, r0, #-2147483616	; 0x80000020
 b68:	18429118 	stmdane	r2, {r3, r4, r8, ip, pc}^
 b6c:	34090000 	strcc	r0, [r9], #-0
 b70:	3a080300 	bcc	201778 <__bss_end__+0x1f7cb8>
 b74:	490b3b0b 	stmdbmi	fp, {r0, r1, r3, r8, r9, fp, ip, sp}
 b78:	00180213 	andseq	r0, r8, r3, lsl r2
 b7c:	82890a00 	addhi	r0, r9, #0, 20
 b80:	01110001 	tsteq	r1, r1
 b84:	00001331 	andeq	r1, r0, r1, lsr r3
 b88:	0300050b 	movweq	r0, #1291	; 0x50b
 b8c:	3b0b3a08 	blcc	2cf3b4 <__bss_end__+0x2c58f4>
 b90:	0213490b 	andseq	r4, r3, #180224	; 0x2c000
 b94:	0c000017 	stceq	0, cr0, [r0], {23}
 b98:	0111010b 	tsteq	r1, fp, lsl #2
 b9c:	13010612 	movwne	r0, #5650	; 0x1612
 ba0:	340d0000 	strcc	r0, [sp], #-0
 ba4:	3a080300 	bcc	2017ac <__bss_end__+0x1f7cec>
 ba8:	490b3b0b 	stmdbmi	fp, {r0, r1, r3, r8, r9, fp, ip, sp}
 bac:	00170213 	andseq	r0, r7, r3, lsl r2
 bb0:	012e0e00 	teqeq	lr, r0, lsl #28
 bb4:	0e03193f 	mcreq	9, 0, r1, cr3, cr15, {1}
 bb8:	0b3b0b3a 	bleq	ec38a8 <__bss_end__+0xeb9de8>
 bbc:	13491927 	movtne	r1, #39207	; 0x9927
 bc0:	0000193c 	andeq	r1, r0, ip, lsr r9
 bc4:	4900050f 	stmdbmi	r0, {r0, r1, r2, r3, r8, sl}
 bc8:	00000013 	andeq	r0, r0, r3, lsl r0
 bcc:	25011101 	strcs	r1, [r1, #-257]	; 0x101
 bd0:	030b130e 	movweq	r1, #45838	; 0xb30e
 bd4:	110e1b0e 	tstne	lr, lr, lsl #22
 bd8:	10061201 	andne	r1, r6, r1, lsl #4
 bdc:	02000017 	andeq	r0, r0, #23
 be0:	0b0b0024 	bleq	2c0c78 <__bss_end__+0x2b71b8>
 be4:	0e030b3e 	vmoveq.16	d3[0], r0
 be8:	24030000 	strcs	r0, [r3], #-0
 bec:	3e0b0b00 	vmlacc.f64	d0, d11, d0
 bf0:	0008030b 	andeq	r0, r8, fp, lsl #6
 bf4:	01040400 	tsteq	r4, r0, lsl #8
 bf8:	0b3a0b0b 	bleq	e8382c <__bss_end__+0xe79d6c>
 bfc:	13010b3b 	movwne	r0, #6971	; 0x1b3b
 c00:	28050000 	stmdacs	r5, {}	; <UNPREDICTABLE>
 c04:	1c0e0300 	stcne	3, cr0, [lr], {-0}
 c08:	0600000d 	streq	r0, [r0], -sp
 c0c:	0e030016 	mcreq	0, 0, r0, cr3, cr6, {0}
 c10:	0b3b0b3a 	bleq	ec3900 <__bss_end__+0xeb9e40>
 c14:	00001349 	andeq	r1, r0, r9, asr #6
 c18:	3f012e07 	svccc	0x00012e07
 c1c:	3a0e0319 	bcc	381888 <__bss_end__+0x377dc8>
 c20:	270b3b0b 	strcs	r3, [fp, -fp, lsl #22]
 c24:	12011119 	andne	r1, r1, #1073741830	; 0x40000006
 c28:	97184006 	ldrls	r4, [r8, -r6]
 c2c:	13011942 	movwne	r1, #6466	; 0x1942
 c30:	05080000 	streq	r0, [r8, #-0]
 c34:	3a080300 	bcc	20183c <__bss_end__+0x1f7d7c>
 c38:	490b3b0b 	stmdbmi	fp, {r0, r1, r3, r8, r9, fp, ip, sp}
 c3c:	00170213 	andseq	r0, r7, r3, lsl r2
 c40:	00340900 	eorseq	r0, r4, r0, lsl #18
 c44:	0b3a0e03 	bleq	e84458 <__bss_end__+0xe7a998>
 c48:	13490b3b 	movtne	r0, #39739	; 0x9b3b
 c4c:	00001702 	andeq	r1, r0, r2, lsl #14
 c50:	0182890a 	orreq	r8, r2, sl, lsl #18
 c54:	31011101 	tstcc	r1, r1, lsl #2
 c58:	00130113 	andseq	r0, r3, r3, lsl r1
 c5c:	828a0b00 	addhi	r0, sl, #0, 22
 c60:	18020001 	stmdane	r2, {r0}
 c64:	00184291 	mulseq	r8, r1, r2
 c68:	82890c00 	addhi	r0, r9, #0, 24
 c6c:	01110101 	tsteq	r1, r1, lsl #2
 c70:	00001331 	andeq	r1, r0, r1, lsr r3
 c74:	0b000f0d 	bleq	48b0 <_start-0x3750>
 c78:	0013490b 	andseq	r4, r3, fp, lsl #18
 c7c:	00350e00 	eorseq	r0, r5, r0, lsl #28
 c80:	00001349 	andeq	r1, r0, r9, asr #6
 c84:	3f012e0f 	svccc	0x00012e0f
 c88:	3a0e0319 	bcc	3818f4 <__bss_end__+0x377e34>
 c8c:	270b3b0b 	strcs	r3, [fp, -fp, lsl #22]
 c90:	11134919 	tstne	r3, r9, lsl r9
 c94:	40061201 	andmi	r1, r6, r1, lsl #4
 c98:	19429718 	stmdbne	r2, {r3, r4, r8, r9, sl, ip, pc}^
 c9c:	00001301 	andeq	r1, r0, r1, lsl #6
 ca0:	03003410 	movweq	r3, #1040	; 0x410
 ca4:	3b0b3a08 	blcc	2cf4cc <__bss_end__+0x2c5a0c>
 ca8:	0213490b 	andseq	r4, r3, #180224	; 0x2c000
 cac:	11000017 	tstne	r0, r7, lsl r0
 cb0:	00018289 	andeq	r8, r1, r9, lsl #5
 cb4:	13310111 	teqne	r1, #1073741828	; 0x40000004
 cb8:	05120000 	ldreq	r0, [r2, #-0]
 cbc:	3a0e0300 	bcc	3818c4 <__bss_end__+0x377e04>
 cc0:	490b3b0b 	stmdbmi	fp, {r0, r1, r3, r8, r9, fp, ip, sp}
 cc4:	00170213 	andseq	r0, r7, r3, lsl r2
 cc8:	012e1300 	teqeq	lr, r0, lsl #6
 ccc:	0e03193f 	mcreq	9, 0, r1, cr3, cr15, {1}
 cd0:	053b0b3a 	ldreq	r0, [fp, #-2874]!	; 0xb3a
 cd4:	13491927 	movtne	r1, #39207	; 0x9927
 cd8:	06120111 			; <UNDEFINED> instruction: 0x06120111
 cdc:	42971840 	addsmi	r1, r7, #64, 16	; 0x400000
 ce0:	00130119 	andseq	r0, r3, r9, lsl r1
 ce4:	00051400 	andeq	r1, r5, r0, lsl #8
 ce8:	0b3a0e03 	bleq	e844fc <__bss_end__+0xe7aa3c>
 cec:	1349053b 	movtne	r0, #38203	; 0x953b
 cf0:	00001702 	andeq	r1, r0, r2, lsl #14
 cf4:	3f012e15 	svccc	0x00012e15
 cf8:	3a0e0319 	bcc	381964 <__bss_end__+0x377ea4>
 cfc:	27053b0b 	strcs	r3, [r5, -fp, lsl #22]
 d00:	12011119 	andne	r1, r1, #1073741830	; 0x40000006
 d04:	97184006 	ldrls	r4, [r8, -r6]
 d08:	13011942 	movwne	r1, #6466	; 0x1942
 d0c:	05160000 	ldreq	r0, [r6, #-0]
 d10:	3a080300 	bcc	201918 <__bss_end__+0x1f7e58>
 d14:	49053b0b 	stmdbmi	r5, {r0, r1, r3, r8, r9, fp, ip, sp}
 d18:	00170213 	andseq	r0, r7, r3, lsl r2
 d1c:	00341700 	eorseq	r1, r4, r0, lsl #14
 d20:	0b3a0e03 	bleq	e84534 <__bss_end__+0xe7aa74>
 d24:	1349053b 	movtne	r0, #38203	; 0x953b
 d28:	00001702 	andeq	r1, r0, r2, lsl #14
 d2c:	11010b18 	tstne	r1, r8, lsl fp
 d30:	01061201 	tsteq	r6, r1, lsl #4
 d34:	19000013 	stmdbne	r0, {r0, r1, r4}
 d38:	0e030034 	mcreq	0, 0, r0, cr3, cr4, {1}
 d3c:	0b3b0b3a 	bleq	ec3a2c <__bss_end__+0xeb9f6c>
 d40:	193f1349 	ldmdbne	pc!, {r0, r3, r6, r8, r9, ip}	; <UNPREDICTABLE>
 d44:	00001802 	andeq	r1, r0, r2, lsl #16
 d48:	0300341a 	movweq	r3, #1050	; 0x41a
 d4c:	3b0b3a0e 	blcc	2cf58c <__bss_end__+0x2c5acc>
 d50:	3f134905 	svccc	0x00134905
 d54:	00180219 	andseq	r0, r8, r9, lsl r2
 d58:	012e1b00 	teqeq	lr, r0, lsl #22
 d5c:	0e03193f 	mcreq	9, 0, r1, cr3, cr15, {1}
 d60:	0b3b0b3a 	bleq	ec3a50 <__bss_end__+0xeb9f90>
 d64:	13491927 	movtne	r1, #39207	; 0x9927
 d68:	1301193c 	movwne	r1, #6460	; 0x193c
 d6c:	051c0000 	ldreq	r0, [ip, #-0]
 d70:	00134900 	andseq	r4, r3, r0, lsl #18
 d74:	00261d00 	eoreq	r1, r6, r0, lsl #26
 d78:	00001349 	andeq	r1, r0, r9, asr #6
 d7c:	0000351e 	andeq	r3, r0, lr, lsl r5
 d80:	012e1f00 	teqeq	lr, r0, lsl #30
 d84:	0e03193f 	mcreq	9, 0, r1, cr3, cr15, {1}
 d88:	0b3b0b3a 	bleq	ec3a78 <__bss_end__+0xeb9fb8>
 d8c:	193c1927 	ldmdbne	ip!, {r0, r1, r2, r5, r8, fp, ip}
 d90:	00001301 	andeq	r1, r0, r1, lsl #6
 d94:	3f002e20 	svccc	0x00002e20
 d98:	3a0e0319 	bcc	381a04 <__bss_end__+0x377f44>
 d9c:	270b3b0b 	strcs	r3, [fp, -fp, lsl #22]
 da0:	00193c19 	andseq	r3, r9, r9, lsl ip
 da4:	11010000 	mrsne	r0, (UNDEF: 1)
 da8:	130e2501 	movwne	r2, #58625	; 0xe501
 dac:	1b0e030b 	blne	3819e0 <__bss_end__+0x377f20>
 db0:	1201110e 	andne	r1, r1, #-2147483645	; 0x80000003
 db4:	00171006 	andseq	r1, r7, r6
 db8:	00240200 	eoreq	r0, r4, r0, lsl #4
 dbc:	0b3e0b0b 	bleq	f839f0 <__bss_end__+0xf79f30>
 dc0:	00000803 	andeq	r0, r0, r3, lsl #16
 dc4:	0b002403 	bleq	9dd8 <__bss_end__+0x318>
 dc8:	030b3e0b 	movweq	r3, #48651	; 0xbe0b
 dcc:	0400000e 	streq	r0, [r0], #-14
 dd0:	0b0b0104 	bleq	2c11e8 <__bss_end__+0x2b7728>
 dd4:	0b3b0b3a 	bleq	ec3ac4 <__bss_end__+0xeba004>
 dd8:	00001301 	andeq	r1, r0, r1, lsl #6
 ddc:	03002805 	movweq	r2, #2053	; 0x805
 de0:	000d1c0e 	andeq	r1, sp, lr, lsl #24
 de4:	00160600 	andseq	r0, r6, r0, lsl #12
 de8:	0b3a0e03 	bleq	e845fc <__bss_end__+0xe7ab3c>
 dec:	13490b3b 	movtne	r0, #39739	; 0x9b3b
 df0:	2e070000 	cdpcs	0, 0, cr0, cr7, cr0, {0}
 df4:	03193f01 	tsteq	r9, #1, 30
 df8:	3b0b3a0e 	blcc	2cf638 <__bss_end__+0x2c5b78>
 dfc:	1119270b 	tstne	r9, fp, lsl #14
 e00:	40061201 	andmi	r1, r6, r1, lsl #4
 e04:	19429718 	stmdbne	r2, {r3, r4, r8, r9, sl, ip, pc}^
 e08:	00001301 	andeq	r1, r0, r1, lsl #6
 e0c:	01828908 	orreq	r8, r2, r8, lsl #18
 e10:	31011100 	mrscc	r1, (UNDEF: 17)
 e14:	09000013 	stmdbeq	r0, {r0, r1, r4}
 e18:	01018289 	smlabbeq	r1, r9, r2, r8
 e1c:	13310111 	teqne	r1, #1073741828	; 0x40000004
 e20:	00001301 	andeq	r1, r0, r1, lsl #6
 e24:	01828a0a 	orreq	r8, r2, sl, lsl #20
 e28:	91180200 	tstls	r8, r0, lsl #4
 e2c:	00001842 	andeq	r1, r0, r2, asr #16
 e30:	3f012e0b 	svccc	0x00012e0b
 e34:	3a0e0319 	bcc	381aa0 <__bss_end__+0x377fe0>
 e38:	270b3b0b 	strcs	r3, [fp, -fp, lsl #22]
 e3c:	11134919 	tstne	r3, r9, lsl r9
 e40:	40061201 	andmi	r1, r6, r1, lsl #4
 e44:	19429718 	stmdbne	r2, {r3, r4, r8, r9, sl, ip, pc}^
 e48:	00001301 	andeq	r1, r0, r1, lsl #6
 e4c:	0300050c 	movweq	r0, #1292	; 0x50c
 e50:	3b0b3a08 	blcc	2cf678 <__bss_end__+0x2c5bb8>
 e54:	0213490b 	andseq	r4, r3, #180224	; 0x2c000
 e58:	0d000017 	stceq	0, cr0, [r0, #-92]	; 0xffffffa4
 e5c:	01018289 	smlabbeq	r1, r9, r2, r8
 e60:	13310111 	teqne	r1, #1073741828	; 0x40000004
 e64:	340e0000 	strcc	r0, [lr], #-0
 e68:	3a0e0300 	bcc	381a70 <__bss_end__+0x377fb0>
 e6c:	490b3b0b 	stmdbmi	fp, {r0, r1, r3, r8, r9, fp, ip, sp}
 e70:	02193f13 	andseq	r3, r9, #19, 30	; 0x4c
 e74:	0f000018 	svceq	0x00000018
 e78:	0b0b000f 	bleq	2c0ebc <__bss_end__+0x2b73fc>
 e7c:	00001349 	andeq	r1, r0, r9, asr #6
 e80:	49003510 	stmdbmi	r0, {r4, r8, sl, ip, sp}
 e84:	11000013 	tstne	r0, r3, lsl r0
 e88:	193f002e 	ldmdbne	pc!, {r1, r2, r3, r5}	; <UNPREDICTABLE>
 e8c:	0b3a0e03 	bleq	e846a0 <__bss_end__+0xe7abe0>
 e90:	19270b3b 	stmdbne	r7!, {r0, r1, r3, r4, r5, r8, r9, fp}
 e94:	0000193c 	andeq	r1, r0, ip, lsr r9
 e98:	3f012e12 	svccc	0x00012e12
 e9c:	3a0e0319 	bcc	381b08 <__bss_end__+0x378048>
 ea0:	270b3b0b 	strcs	r3, [fp, -fp, lsl #22]
 ea4:	01193c19 	tsteq	r9, r9, lsl ip
 ea8:	13000013 	movwne	r0, #19
 eac:	13490005 	movtne	r0, #36869	; 0x9005
 eb0:	2e140000 	cdpcs	0, 1, cr0, cr4, cr0, {0}
 eb4:	03193f01 	tsteq	r9, #1, 30
 eb8:	3b0b3a0e 	blcc	2cf6f8 <__bss_end__+0x2c5c38>
 ebc:	4919270b 	ldmdbmi	r9, {r0, r1, r3, r8, r9, sl, sp}
 ec0:	01193c13 	tsteq	r9, r3, lsl ip
 ec4:	15000013 	strne	r0, [r0, #-19]
 ec8:	13490026 	movtne	r0, #36902	; 0x9026
 ecc:	35160000 	ldrcc	r0, [r6, #-0]
 ed0:	00000000 	andeq	r0, r0, r0

Disassembly of section .debug_loc:

00000000 <.debug_loc>:
       0:	00000000 	andeq	r0, r0, r0
       4:	00000027 	andeq	r0, r0, r7, lsr #32
       8:	27500001 	ldrbcs	r0, [r0, -r1]
       c:	4c000000 	stcmi	0, cr0, [r0], {-0}
      10:	04000000 	streq	r0, [r0], #-0
      14:	5001f300 	andpl	pc, r1, r0, lsl #6
      18:	0000009f 	muleq	r0, pc, r0	; <UNPREDICTABLE>
	...
      24:	00002000 	andeq	r2, r0, r0
      28:	51000100 	mrspl	r0, (UNDEF: 16)
      2c:	00000020 	andeq	r0, r0, r0, lsr #32
      30:	00000027 	andeq	r0, r0, r7, lsr #32
      34:	00710002 	rsbseq	r0, r1, r2
      38:	00000027 	andeq	r0, r0, r7, lsr #32
      3c:	0000004c 	andeq	r0, r0, ip, asr #32
      40:	01f30004 	mvnseq	r0, r4
      44:	00009f51 	andeq	r9, r0, r1, asr pc
	...
      50:	00240000 	eoreq	r0, r4, r0
      54:	00010000 	andeq	r0, r1, r0
      58:	00002452 	andeq	r2, r0, r2, asr r4
      5c:	00004c00 	andeq	r4, r0, r0, lsl #24
      60:	f3000400 	vshl.u8	d0, d0, d0
      64:	009f5201 	addseq	r5, pc, r1, lsl #4
      68:	00000000 	andeq	r0, r0, r0
      6c:	4c000000 	stcmi	0, cr0, [r0], {-0}
      70:	6b000000 	blvs	78 <_start-0x7f88>
      74:	01000000 	mrseq	r0, (UNDEF: 0)
      78:	006b5000 	rsbeq	r5, fp, r0
      7c:	009c0000 	addseq	r0, ip, r0
      80:	00040000 	andeq	r0, r4, r0
      84:	9f5001f3 	svcls	0x005001f3
	...
      90:	0000004c 	andeq	r0, r0, ip, asr #32
      94:	00000064 	andeq	r0, r0, r4, rrx
      98:	64510001 	ldrbvs	r0, [r1], #-1
      9c:	6b000000 	blvs	a4 <_start-0x7f5c>
      a0:	02000000 	andeq	r0, r0, #0
      a4:	6b007100 	blvs	1c4ac <__bss_end__+0x129ec>
      a8:	9c000000 	stcls	0, cr0, [r0], {-0}
      ac:	04000000 	streq	r0, [r0], #-0
      b0:	5101f300 	mrspl	pc, SP_irq	; <UNPREDICTABLE>
      b4:	0000009f 	muleq	r0, pc, r0	; <UNPREDICTABLE>
      b8:	00000000 	andeq	r0, r0, r0
      bc:	00009000 	andeq	r9, r0, r0
      c0:	00009400 	andeq	r9, r0, r0, lsl #8
      c4:	70000800 	andvc	r0, r0, r0, lsl #16
      c8:	73243800 	teqvc	r4, #0, 16
      cc:	949f2100 	ldrls	r2, [pc], #256	; d4 <_start-0x7f2c>
      d0:	98000000 	stmdals	r0, {}	; <UNPREDICTABLE>
      d4:	0d000000 	stceq	0, cr0, [r0, #-0]
      d8:	94007d00 	strls	r7, [r0], #-3328	; 0xd00
      dc:	1aff0801 	bne	fffc20e8 <__bss_end__+0xfffb8628>
      e0:	00732438 	rsbseq	r2, r3, r8, lsr r4
      e4:	00989f21 	addseq	r9, r8, r1, lsr #30
      e8:	009c0000 	addseq	r0, ip, r0
      ec:	000d0000 	andeq	r0, sp, r0
      f0:	01946891 			; <UNDEFINED> instruction: 0x01946891
      f4:	381aff08 	ldmdacc	sl, {r3, r8, r9, sl, fp, ip, sp, lr, pc}
      f8:	21007324 	tstcs	r0, r4, lsr #6
      fc:	0000009f 	muleq	r0, pc, r0	; <UNPREDICTABLE>
     100:	00000000 	andeq	r0, r0, r0
     104:	0000fc00 	andeq	pc, r0, r0, lsl #24
     108:	00010800 	andeq	r0, r1, r0, lsl #16
     10c:	50000100 	andpl	r0, r0, r0, lsl #2
     110:	00000108 	andeq	r0, r0, r8, lsl #2
     114:	0000016c 	andeq	r0, r0, ip, ror #2
     118:	00540001 	subseq	r0, r4, r1
     11c:	00000000 	andeq	r0, r0, r0
     120:	b4000000 	strlt	r0, [r0], #-0
     124:	bf000001 	svclt	0x00000001
     128:	01000001 	tsteq	r0, r1
     12c:	02005000 	andeq	r5, r0, #0
     130:	02140000 	andseq	r0, r4, #0
     134:	00010000 	andeq	r0, r1, r0
     138:	00000050 	andeq	r0, r0, r0, asr r0
     13c:	00000000 	andeq	r0, r0, r0
     140:	0001d800 	andeq	sp, r1, r0, lsl #16
     144:	00020000 	andeq	r0, r2, r0
     148:	54000100 	strpl	r0, [r0], #-256	; 0x100
     14c:	00000214 	andeq	r0, r0, r4, lsl r2
     150:	00000244 	andeq	r0, r0, r4, asr #4
     154:	00540001 	subseq	r0, r4, r1
     158:	00000000 	andeq	r0, r0, r0
     15c:	e4000000 	str	r0, [r0], #-0
     160:	ec000001 	stc	0, cr0, [r0], {1}
     164:	01000001 	tsteq	r0, r1
     168:	01ec5000 	mvneq	r5, r0
     16c:	01ef0000 	mvneq	r0, r0
     170:	00010000 	andeq	r0, r1, r0
     174:	00000051 	andeq	r0, r0, r1, asr r0
	...
     180:	00000700 	andeq	r0, r0, r0, lsl #14
     184:	50000100 	andpl	r0, r0, r0, lsl #2
     188:	00000007 	andeq	r0, r0, r7
     18c:	0000000c 	andeq	r0, r0, ip
     190:	01f30004 	mvnseq	r0, r4
     194:	00009f50 	andeq	r9, r0, r0, asr pc
     198:	00000000 	andeq	r0, r0, r0
     19c:	000c0000 	andeq	r0, ip, r0
     1a0:	00130000 	andseq	r0, r3, r0
     1a4:	00010000 	andeq	r0, r1, r0
     1a8:	00001350 	andeq	r1, r0, r0, asr r3
     1ac:	00001800 	andeq	r1, r0, r0, lsl #16
     1b0:	f3000400 	vshl.u8	d0, d0, d0
     1b4:	009f5001 	addseq	r5, pc, r1
     1b8:	00000000 	andeq	r0, r0, r0
     1bc:	20000000 	andcs	r0, r0, r0
     1c0:	33000000 	movwcc	r0, #0
     1c4:	01000000 	mrseq	r0, (UNDEF: 0)
     1c8:	00335000 	eorseq	r5, r3, r0
     1cc:	00b40000 	adcseq	r0, r4, r0
     1d0:	00010000 	andeq	r0, r1, r0
     1d4:	0000b455 	andeq	fp, r0, r5, asr r4
     1d8:	0000d800 	andeq	sp, r0, r0, lsl #16
     1dc:	f3000400 	vshl.u8	d0, d0, d0
     1e0:	d89f5001 	ldmle	pc, {r0, ip, lr}	; <UNPREDICTABLE>
     1e4:	dc000000 	stcle	0, cr0, [r0], {-0}
     1e8:	01000000 	mrseq	r0, (UNDEF: 0)
     1ec:	00dc5500 	sbcseq	r5, ip, r0, lsl #10
     1f0:	01200000 	teqeq	r0, r0
     1f4:	00040000 	andeq	r0, r4, r0
     1f8:	9f5001f3 	svcls	0x005001f3
	...
     204:	00000020 	andeq	r0, r0, r0, lsr #32
     208:	00000033 	andeq	r0, r0, r3, lsr r0
     20c:	33510001 	cmpcc	r1, #1
     210:	20000000 	andcs	r0, r0, r0
     214:	01000001 	tsteq	r0, r1
     218:	00005900 	andeq	r5, r0, r0, lsl #18
     21c:	00000000 	andeq	r0, r0, r0
     220:	00200000 	eoreq	r0, r0, r0
     224:	00330000 	eorseq	r0, r3, r0
     228:	00010000 	andeq	r0, r1, r0
     22c:	00003352 	andeq	r3, r0, r2, asr r3
     230:	00012000 	andeq	r2, r1, r0
     234:	57000100 	strpl	r0, [r0, -r0, lsl #2]
	...
     240:	000000b4 	strheq	r0, [r0], -r4
     244:	000000d8 	ldrdeq	r0, [r0], -r8
     248:	e4550001 	ldrb	r0, [r5], #-1
     24c:	20000000 	andcs	r0, r0, r0
     250:	01000001 	tsteq	r0, r1
     254:	00005500 	andeq	r5, r0, r0, lsl #10
     258:	00000000 	andeq	r0, r0, r0
     25c:	01200000 	teqeq	r0, r0
     260:	01330000 	teqeq	r3, r0
     264:	00010000 	andeq	r0, r1, r0
     268:	00013350 	andeq	r3, r1, r0, asr r3
     26c:	00019800 	andeq	r9, r1, r0, lsl #16
     270:	55000100 	strpl	r0, [r0, #-256]	; 0x100
     274:	00000198 	muleq	r0, r8, r1
     278:	00000200 	andeq	r0, r0, r0, lsl #4
     27c:	01f30004 	mvnseq	r0, r4
     280:	00009f50 	andeq	r9, r0, r0, asr pc
     284:	00000000 	andeq	r0, r0, r0
     288:	01200000 	teqeq	r0, r0
     28c:	01330000 	teqeq	r3, r0
     290:	00010000 	andeq	r0, r1, r0
     294:	00013351 	andeq	r3, r1, r1, asr r3
     298:	00020000 	andeq	r0, r2, r0
     29c:	59000100 	stmdbpl	r0, {r8}
	...
     2a8:	00000120 	andeq	r0, r0, r0, lsr #2
     2ac:	00000133 	andeq	r0, r0, r3, lsr r1
     2b0:	33520001 	cmpcc	r2, #1
     2b4:	00000001 	andeq	r0, r0, r1
     2b8:	01000002 	tsteq	r0, r2
     2bc:	00005700 	andeq	r5, r0, r0, lsl #14
     2c0:	00000000 	andeq	r0, r0, r0
     2c4:	01940000 	orrseq	r0, r4, r0
     2c8:	01a40000 			; <UNDEFINED> instruction: 0x01a40000
     2cc:	00020000 	andeq	r0, r2, r0
     2d0:	01a49f30 			; <UNDEFINED> instruction: 0x01a49f30
     2d4:	02000000 	andeq	r0, r0, #0
     2d8:	00010000 	andeq	r0, r1, r0
     2dc:	00000055 	andeq	r0, r0, r5, asr r0
     2e0:	00000000 	andeq	r0, r0, r0
     2e4:	00002c00 	andeq	r2, r0, r0, lsl #24
     2e8:	00003800 	andeq	r3, r0, r0, lsl #16
     2ec:	50000100 	andpl	r0, r0, r0, lsl #2
     2f0:	00000038 	andeq	r0, r0, r8, lsr r0
     2f4:	00000048 	andeq	r0, r0, r8, asr #32
     2f8:	48550001 	ldmdami	r5, {r0}^
     2fc:	58000000 	stmdapl	r0, {}	; <UNPREDICTABLE>
     300:	01000000 	mrseq	r0, (UNDEF: 0)
     304:	00005000 	andeq	r5, r0, r0
	...
     310:	000b0000 	andeq	r0, fp, r0
     314:	00010000 	andeq	r0, r1, r0
     318:	00000b50 	andeq	r0, r0, r0, asr fp
     31c:	00001400 	andeq	r1, r0, r0, lsl #8
     320:	54000100 	strpl	r0, [r0], #-256	; 0x100
	...
     330:	00000010 	andeq	r0, r0, r0, lsl r0
     334:	10500001 	subsne	r0, r0, r1
     338:	34000000 	strcc	r0, [r0], #-0
     33c:	01000000 	mrseq	r0, (UNDEF: 0)
     340:	00005400 	andeq	r5, r0, r0, lsl #8
	...
     34c:	00040000 	andeq	r0, r4, r0
     350:	00010000 	andeq	r0, r1, r0
     354:	00000450 	andeq	r0, r0, r0, asr r4
     358:	00000c00 	andeq	r0, r0, r0, lsl #24
     35c:	70000300 	andvc	r0, r0, r0, lsl #6
     360:	000c9f30 	andeq	r9, ip, r0, lsr pc
     364:	00140000 	andseq	r0, r4, r0
     368:	00040000 	andeq	r0, r4, r0
     36c:	9f5001f3 	svcls	0x005001f3
	...
     378:	00000014 	andeq	r0, r0, r4, lsl r0
     37c:	00000020 	andeq	r0, r0, r0, lsr #32
     380:	20500001 	subscs	r0, r0, r1
     384:	2c000000 	stccs	0, cr0, [r0], {-0}
     388:	03000000 	movweq	r0, #0
     38c:	9f017000 	svcls	0x00017000
     390:	0000002c 	andeq	r0, r0, ip, lsr #32
     394:	00000040 	andeq	r0, r0, r0, asr #32
     398:	00500001 	subseq	r0, r0, r1
     39c:	00000000 	andeq	r0, r0, r0
     3a0:	14000000 	strne	r0, [r0], #-0
     3a4:	18000000 	stmdane	r0, {}	; <UNPREDICTABLE>
     3a8:	01000000 	mrseq	r0, (UNDEF: 0)
     3ac:	00185100 	andseq	r5, r8, r0, lsl #2
     3b0:	00400000 	subeq	r0, r0, r0
     3b4:	00040000 	andeq	r0, r4, r0
     3b8:	9f5101f3 	svcls	0x005101f3
	...
     3c4:	00000040 	andeq	r0, r0, r0, asr #32
     3c8:	00000060 	andeq	r0, r0, r0, rrx
     3cc:	60500001 	subsvs	r0, r0, r1
     3d0:	6c000000 	stcvs	0, cr0, [r0], {-0}
     3d4:	03000000 	movweq	r0, #0
     3d8:	9f017100 	svcls	0x00017100
     3dc:	0000006c 	andeq	r0, r0, ip, rrx
     3e0:	00000074 	andeq	r0, r0, r4, ror r0
     3e4:	74510001 	ldrbvc	r0, [r1], #-1
     3e8:	80000000 	andhi	r0, r0, r0
     3ec:	03000000 	movweq	r0, #0
     3f0:	9f017100 	svcls	0x00017100
	...
     3fc:	00000040 	andeq	r0, r0, r0, asr #32
     400:	00000050 	andeq	r0, r0, r0, asr r0
     404:	50510001 	subspl	r0, r1, r1
     408:	80000000 	andhi	r0, r0, r0
     40c:	04000000 	streq	r0, [r0], #-0
     410:	5101f300 	mrspl	pc, SP_irq	; <UNPREDICTABLE>
     414:	0000009f 	muleq	r0, pc, r0	; <UNPREDICTABLE>
     418:	00000000 	andeq	r0, r0, r0
     41c:	00004000 	andeq	r4, r0, r0
     420:	00005800 	andeq	r5, r0, r0, lsl #16
     424:	52000100 	andpl	r0, r0, #0, 2
     428:	00000058 	andeq	r0, r0, r8, asr r0
     42c:	00000064 	andeq	r0, r0, r4, rrx
     430:	64520001 	ldrbvs	r0, [r2], #-1
     434:	68000000 	stmdavs	r0, {}	; <UNPREDICTABLE>
     438:	03000000 	movweq	r0, #0
     43c:	9f017200 	svcls	0x00017200
     440:	00000068 	andeq	r0, r0, r8, rrx
     444:	00000080 	andeq	r0, r0, r0, lsl #1
     448:	00520001 	subseq	r0, r2, r1
     44c:	00000000 	andeq	r0, r0, r0
     450:	40000000 	andmi	r0, r0, r0
     454:	54000000 	strpl	r0, [r0], #-0
     458:	01000000 	mrseq	r0, (UNDEF: 0)
     45c:	00545300 	subseq	r5, r4, r0, lsl #6
     460:	00780000 	rsbseq	r0, r8, r0
     464:	00010000 	andeq	r0, r1, r0
     468:	00000053 	andeq	r0, r0, r3, asr r0
     46c:	00000000 	andeq	r0, r0, r0
     470:	00004800 	andeq	r4, r0, r0, lsl #16
     474:	00006000 	andeq	r6, r0, r0
     478:	5c000100 	stfpls	f0, [r0], {-0}
     47c:	00000060 	andeq	r0, r0, r0, rrx
     480:	00000080 	andeq	r0, r0, r0, lsl #1
     484:	01f3000a 	mvnseq	r0, sl
     488:	5301f352 	movwpl	pc, #4946	; 0x1352	; <UNPREDICTABLE>
     48c:	9f01231c 	svcls	0x0001231c
	...
     498:	00000080 	andeq	r0, r0, r0, lsl #1
     49c:	000000a4 	andeq	r0, r0, r4, lsr #1
     4a0:	a4500001 	ldrbge	r0, [r0], #-1
     4a4:	18000000 	stmdane	r0, {}	; <UNPREDICTABLE>
     4a8:	03000001 	movweq	r0, #1
     4ac:	9f027000 	svcls	0x00027000
     4b0:	00000118 	andeq	r0, r0, r8, lsl r1
     4b4:	0000021c 	andeq	r0, r0, ip, lsl r2
     4b8:	01f30004 	mvnseq	r0, r4
     4bc:	00009f50 	andeq	r9, r0, r0, asr pc
     4c0:	00000000 	andeq	r0, r0, r0
     4c4:	00800000 	addeq	r0, r0, r0
     4c8:	00f00000 	rscseq	r0, r0, r0
     4cc:	00010000 	andeq	r0, r1, r0
     4d0:	0000f051 	andeq	pc, r0, r1, asr r0	; <UNPREDICTABLE>
     4d4:	00016000 	andeq	r6, r1, r0
     4d8:	55000100 	strpl	r0, [r0, #-256]	; 0x100
     4dc:	00000160 	andeq	r0, r0, r0, ror #2
     4e0:	00000168 	andeq	r0, r0, r8, ror #2
     4e4:	68510001 	ldmdavs	r1, {r0}^
     4e8:	88000001 	stmdahi	r0, {r0}
     4ec:	01000001 	tsteq	r0, r1
     4f0:	01885500 	orreq	r5, r8, r0, lsl #10
     4f4:	019c0000 	orrseq	r0, ip, r0
     4f8:	00010000 	andeq	r0, r1, r0
     4fc:	00019c51 	andeq	r9, r1, r1, asr ip
     500:	0001bc00 	andeq	fp, r1, r0, lsl #24
     504:	55000100 	strpl	r0, [r0, #-256]	; 0x100
     508:	000001bc 			; <UNDEFINED> instruction: 0x000001bc
     50c:	000001bf 			; <UNDEFINED> instruction: 0x000001bf
     510:	bf510001 	svclt	0x00510001
     514:	00000001 	andeq	r0, r0, r1
     518:	01000002 	tsteq	r0, r2
     51c:	02005500 	andeq	r5, r0, #0, 10
     520:	021c0000 	andseq	r0, ip, #0
     524:	00040000 	andeq	r0, r4, r0
     528:	9f5101f3 	svcls	0x005101f3
	...
     534:	00000080 	andeq	r0, r0, r0, lsl #1
     538:	00000094 	muleq	r0, r4, r0
     53c:	94520001 	ldrbls	r0, [r2], #-1
     540:	00000000 	andeq	r0, r0, r0
     544:	01000002 	tsteq	r0, r2
     548:	02005400 	andeq	r5, r0, #0, 8
     54c:	021c0000 	andseq	r0, ip, #0
     550:	00040000 	andeq	r0, r4, r0
     554:	9f5201f3 	svcls	0x005201f3
	...
     560:	00000080 	andeq	r0, r0, r0, lsl #1
     564:	00000100 	andeq	r0, r0, r0, lsl #2
     568:	04530001 	ldrbeq	r0, [r3], #-1
     56c:	08000001 	stmdaeq	r0, {r0}
     570:	01000001 	tsteq	r0, r1
     574:	01605300 	cmneq	r0, r0, lsl #6
     578:	01680000 	cmneq	r8, r0
     57c:	00010000 	andeq	r0, r1, r0
     580:	00016853 	andeq	r6, r1, r3, asr r8
     584:	00018800 	andeq	r8, r1, r0, lsl #16
     588:	f3000400 	vshl.u8	d0, d0, d0
     58c:	889f5301 	ldmhi	pc, {r0, r8, r9, ip, lr}	; <UNPREDICTABLE>
     590:	90000001 	andls	r0, r0, r1
     594:	01000001 	tsteq	r0, r1
     598:	01905300 	orrseq	r5, r0, r0, lsl #6
     59c:	01940000 	orrseq	r0, r4, r0
     5a0:	00010000 	andeq	r0, r1, r0
     5a4:	0001945c 	andeq	r9, r1, ip, asr r4
     5a8:	00019c00 	andeq	r9, r1, r0, lsl #24
     5ac:	53000100 	movwpl	r0, #256	; 0x100
     5b0:	0000019c 	muleq	r0, ip, r1
     5b4:	000001bc 			; <UNDEFINED> instruction: 0x000001bc
     5b8:	01f30004 	mvnseq	r0, r4
     5bc:	01bc9f53 			; <UNDEFINED> instruction: 0x01bc9f53
     5c0:	01bf0000 			; <UNDEFINED> instruction: 0x01bf0000
     5c4:	00010000 	andeq	r0, r1, r0
     5c8:	0001bf53 	andeq	fp, r1, r3, asr pc
     5cc:	0001d800 	andeq	sp, r1, r0, lsl #16
     5d0:	f3000400 	vshl.u8	d0, d0, d0
     5d4:	009f5301 	addseq	r5, pc, r1, lsl #6
     5d8:	00000000 	andeq	r0, r0, r0
     5dc:	80000000 	andhi	r0, r0, r0
     5e0:	9c000000 	stcls	0, cr0, [r0], {-0}
     5e4:	02000000 	andeq	r0, r0, #0
     5e8:	9c009100 	stflsd	f1, [r0], {-0}
     5ec:	bf000000 	svclt	0x00000000
     5f0:	01000001 	tsteq	r0, r1
     5f4:	01d85200 	bicseq	r5, r8, r0, lsl #4
     5f8:	01e30000 	mvneq	r0, r0
     5fc:	00010000 	andeq	r0, r1, r0
     600:	00000052 	andeq	r0, r0, r2, asr r0
     604:	00000000 	andeq	r0, r0, r0
     608:	00009c00 	andeq	r9, r0, r0, lsl #24
     60c:	00011800 	andeq	r1, r1, r0, lsl #16
     610:	5d000100 	stfpls	f0, [r0, #-0]
     614:	00000118 	andeq	r0, r0, r8, lsl r1
     618:	0000011c 	andeq	r0, r0, ip, lsl r1
     61c:	1c530001 	mrrcne	0, 0, r0, r3, cr1
     620:	20000001 	andcs	r0, r0, r1
     624:	01000001 	tsteq	r0, r1
     628:	01205100 	teqeq	r0, r0, lsl #2
     62c:	01600000 	cmneq	r0, r0
     630:	00010000 	andeq	r0, r1, r0
     634:	00016053 	andeq	r6, r1, r3, asr r0
     638:	00016800 	andeq	r6, r1, r0, lsl #16
     63c:	5d000100 	stfpls	f0, [r0, #-0]
     640:	00000168 	andeq	r0, r0, r8, ror #2
     644:	0000016c 	andeq	r0, r0, ip, ror #2
     648:	6c5e0001 	mrrcvs	0, 0, r0, lr, cr1
     64c:	88000001 	stmdahi	r0, {r0}
     650:	01000001 	tsteq	r0, r1
     654:	01885300 	orreq	r5, r8, r0, lsl #6
     658:	01900000 	orrseq	r0, r0, r0
     65c:	00040000 	andeq	r0, r4, r0
     660:	9f7fa191 	svcls	0x007fa191
     664:	00000190 	muleq	r0, r0, r1
     668:	00000194 	muleq	r0, r4, r1
     66c:	94530001 	ldrbls	r0, [r3], #-1
     670:	9c000001 	stcls	0, cr0, [r0], {1}
     674:	01000001 	tsteq	r0, r1
     678:	019c5d00 	orrseq	r5, ip, r0, lsl #26
     67c:	01a00000 	moveq	r0, r0
     680:	00010000 	andeq	r0, r1, r0
     684:	0001a05e 	andeq	sl, r1, lr, asr r0
     688:	0001bc00 	andeq	fp, r1, r0, lsl #24
     68c:	53000100 	movwpl	r0, #256	; 0x100
     690:	000001bc 			; <UNDEFINED> instruction: 0x000001bc
     694:	000001d8 	ldrdeq	r0, [r0], -r8
     698:	d85d0001 	ldmdale	sp, {r0}^
     69c:	e3000001 	movw	r0, #1
     6a0:	01000001 	tsteq	r0, r1
     6a4:	00005300 	andeq	r5, r0, r0, lsl #6
     6a8:	00000000 	andeq	r0, r0, r0
     6ac:	00a00000 	adceq	r0, r0, r0
     6b0:	00ec0000 	rsceq	r0, ip, r0
     6b4:	00010000 	andeq	r0, r1, r0
     6b8:	0000ec5c 	andeq	lr, r0, ip, asr ip
     6bc:	00010000 	andeq	r0, r1, r0
     6c0:	53000100 	movwpl	r0, #256	; 0x100
     6c4:	00000100 	andeq	r0, r0, r0, lsl #2
     6c8:	00000104 	andeq	r0, r0, r4, lsl #2
     6cc:	045c0001 	ldrbeq	r0, [ip], #-1
     6d0:	08000001 	stmdaeq	r0, {r0}
     6d4:	01000001 	tsteq	r0, r1
     6d8:	01085300 	mrseq	r5, (UNDEF: 56)
     6dc:	01180000 	tsteq	r8, r0
     6e0:	00010000 	andeq	r0, r1, r0
     6e4:	0001185c 	andeq	r1, r1, ip, asr r8
     6e8:	00011c00 	andeq	r1, r1, r0, lsl #24
     6ec:	50000100 	andpl	r0, r0, r0, lsl #2
     6f0:	0000011c 	andeq	r0, r0, ip, lsl r1
     6f4:	0000013c 	andeq	r0, r0, ip, lsr r1
     6f8:	445c0001 	ldrbmi	r0, [ip], #-1
     6fc:	58000001 	stmdapl	r0, {r0}
     700:	01000001 	tsteq	r0, r1
     704:	01585000 	cmpeq	r8, r0
     708:	01600000 	cmneq	r0, r0
     70c:	00010000 	andeq	r0, r1, r0
     710:	0001605c 	andeq	r6, r1, ip, asr r0
     714:	00016800 	andeq	r6, r1, r0, lsl #16
     718:	53000100 	movwpl	r0, #256	; 0x100
     71c:	00000168 	andeq	r0, r0, r8, ror #2
     720:	00000178 	andeq	r0, r0, r8, ror r1
     724:	785c0001 	ldmdavc	ip, {r0}^
     728:	80000001 	andhi	r0, r0, r1
     72c:	05000001 	streq	r0, [r0, #-1]
     730:	34007c00 	strcc	r7, [r0], #-3072	; 0xc00
     734:	01809f25 	orreq	r9, r0, r5, lsr #30
     738:	01880000 	orreq	r0, r8, r0
     73c:	00010000 	andeq	r0, r1, r0
     740:	0001885c 	andeq	r8, r1, ip, asr r8
     744:	00019000 	andeq	r9, r1, r0
     748:	53000100 	movwpl	r0, #256	; 0x100
     74c:	00000190 	muleq	r0, r0, r1
     750:	00000194 	muleq	r0, r4, r1
     754:	945c0001 	ldrbls	r0, [ip], #-1
     758:	9c000001 	stcls	0, cr0, [r0], {1}
     75c:	01000001 	tsteq	r0, r1
     760:	019c5300 	orrseq	r5, ip, r0, lsl #6
     764:	01ac0000 			; <UNDEFINED> instruction: 0x01ac0000
     768:	00010000 	andeq	r0, r1, r0
     76c:	0001ac5c 	andeq	sl, r1, ip, asr ip
     770:	0001b400 	andeq	fp, r1, r0, lsl #8
     774:	7c000500 	cfstr32vc	mvfx0, [r0], {-0}
     778:	9f253100 	svcls	0x00253100
     77c:	000001b4 			; <UNDEFINED> instruction: 0x000001b4
     780:	000001bc 			; <UNDEFINED> instruction: 0x000001bc
     784:	bc5c0001 	mrrclt	0, 0, r0, ip, cr1
     788:	bf000001 	svclt	0x00000001
     78c:	01000001 	tsteq	r0, r1
     790:	01bf5300 			; <UNDEFINED> instruction: 0x01bf5300
     794:	01d80000 	bicseq	r0, r8, r0
     798:	00040000 	andeq	r0, r4, r0
     79c:	9f5301f3 	svcls	0x005301f3
     7a0:	000001d8 	ldrdeq	r0, [r0], -r8
     7a4:	000001e3 	andeq	r0, r0, r3, ror #3
     7a8:	005c0001 	subseq	r0, ip, r1
     7ac:	00000000 	andeq	r0, r0, r0
     7b0:	ec000000 	stc	0, cr0, [r0], {-0}
     7b4:	fc000000 	stc2	0, cr0, [r0], {-0}
     7b8:	02000000 	andeq	r0, r0, #0
     7bc:	fc9f3000 	ldc2	0, cr3, [pc], {0}
     7c0:	04000000 	streq	r0, [r0], #-0
     7c4:	02000001 	andeq	r0, r0, #1
     7c8:	049f3100 	ldreq	r3, [pc], #256	; 7d0 <_start-0x7830>
     7cc:	08000001 	stmdaeq	r0, {r0}
     7d0:	02000001 	andeq	r0, r0, #1
     7d4:	009f3000 	addseq	r3, pc, r0
     7d8:	00000000 	andeq	r0, r0, r0
     7dc:	1c000000 	stcne	0, cr0, [r0], {-0}
     7e0:	2b000002 	blcs	7f0 <_start-0x7810>
     7e4:	01000002 	tsteq	r0, r2
     7e8:	022b5000 	eoreq	r5, fp, #0
     7ec:	02440000 	subeq	r0, r4, #0
     7f0:	00040000 	andeq	r0, r4, r0
     7f4:	9f5001f3 	svcls	0x005001f3
     7f8:	00000244 	andeq	r0, r0, r4, asr #4
     7fc:	00000270 	andeq	r0, r0, r0, ror r2
     800:	00500001 	subseq	r0, r0, r1
     804:	00000000 	andeq	r0, r0, r0
     808:	1c000000 	stcne	0, cr0, [r0], {-0}
     80c:	2b000002 	blcs	81c <_start-0x77e4>
     810:	01000002 	tsteq	r0, r2
     814:	022b5100 	eoreq	r5, fp, #0, 2
     818:	02440000 	subeq	r0, r4, #0
     81c:	00040000 	andeq	r0, r4, r0
     820:	9f5101f3 	svcls	0x005101f3
     824:	00000244 	andeq	r0, r0, r4, asr #4
     828:	00000270 	andeq	r0, r0, r0, ror r2
     82c:	00510001 	subseq	r0, r1, r1
     830:	00000000 	andeq	r0, r0, r0
     834:	70000000 	andvc	r0, r0, r0
     838:	9c000002 	stcls	0, cr0, [r0], {2}
     83c:	01000002 	tsteq	r0, r2
     840:	029c5000 	addseq	r5, ip, #0
     844:	04e40000 	strbteq	r0, [r4], #0
     848:	00010000 	andeq	r0, r1, r0
     84c:	0004e45a 	andeq	lr, r4, sl, asr r4
     850:	0004f800 	andeq	pc, r4, r0, lsl #16
     854:	f3000400 	vshl.u8	d0, d0, d0
     858:	009f5001 	addseq	r5, pc, r1
     85c:	00000000 	andeq	r0, r0, r0
     860:	70000000 	andvc	r0, r0, r0
     864:	84000002 	strhi	r0, [r0], #-2
     868:	01000002 	tsteq	r0, r2
     86c:	02845100 	addeq	r5, r4, #0, 2
     870:	029c0000 	addseq	r0, ip, #0
     874:	00030000 	andeq	r0, r3, r0
     878:	9c9f0171 	ldflss	f0, [pc], {113}	; 0x71
     87c:	f8000002 			; <UNDEFINED> instruction: 0xf8000002
     880:	04000004 	streq	r0, [r0], #-4
     884:	5101f300 	mrspl	pc, SP_irq	; <UNPREDICTABLE>
     888:	0000009f 	muleq	r0, pc, r0	; <UNPREDICTABLE>
     88c:	00000000 	andeq	r0, r0, r0
     890:	00027000 	andeq	r7, r2, r0
     894:	0002a400 	andeq	sl, r2, r0, lsl #8
     898:	52000100 	andpl	r0, r0, #0, 2
     89c:	000002a4 	andeq	r0, r0, r4, lsr #5
     8a0:	000002cc 	andeq	r0, r0, ip, asr #5
     8a4:	cc520001 	mrrcgt	0, 0, r0, r2, cr1
     8a8:	94000002 	strls	r0, [r0], #-2
     8ac:	01000004 	tsteq	r0, r4
     8b0:	04945600 	ldreq	r5, [r4], #1536	; 0x600
     8b4:	04f80000 	ldrbteq	r0, [r8], #0
     8b8:	00010000 	andeq	r0, r1, r0
     8bc:	00000052 	andeq	r0, r0, r2, asr r0
     8c0:	00000000 	andeq	r0, r0, r0
     8c4:	00027000 	andeq	r7, r2, r0
     8c8:	00028c00 	andeq	r8, r2, r0, lsl #24
     8cc:	53000100 	movwpl	r0, #256	; 0x100
	...
     8d8:	00000280 	andeq	r0, r0, r0, lsl #5
     8dc:	0000029c 	muleq	r0, ip, r2
     8e0:	9c500001 	mrrcls	0, 0, r0, r0, cr1	; <UNPREDICTABLE>
     8e4:	a0000002 	andge	r0, r0, r2
     8e8:	01000002 	tsteq	r0, r2
     8ec:	02a05400 	adceq	r5, r0, #0, 8
     8f0:	02ac0000 	adceq	r0, ip, #0
     8f4:	00030000 	andeq	r0, r3, r0
     8f8:	ac9f0174 	ldfges	f0, [pc], {116}	; 0x74
     8fc:	b8000002 	stmdalt	r0, {r1}
     900:	01000002 	tsteq	r0, r2
     904:	02b85400 	adcseq	r5, r8, #0, 8
     908:	02c40000 	sbceq	r0, r4, #0
     90c:	00030000 	andeq	r0, r3, r0
     910:	c49f0174 	ldrgt	r0, [pc], #372	; 918 <_start-0x76e8>
     914:	98000002 	stmdals	r0, {r1}
     918:	01000004 	tsteq	r0, r4
     91c:	04985400 	ldreq	r5, [r8], #1024	; 0x400
     920:	04a40000 	strteq	r0, [r4], #0
     924:	00030000 	andeq	r0, r3, r0
     928:	a49f0174 	ldrge	r0, [pc], #372	; 930 <_start-0x76d0>
     92c:	d0000004 	andle	r0, r0, r4
     930:	01000004 	tsteq	r0, r4
     934:	04d05400 	ldrbeq	r5, [r0], #1024	; 0x400
     938:	04dc0000 	ldrbeq	r0, [ip], #0
     93c:	00010000 	andeq	r0, r1, r0
     940:	0004dc50 	andeq	sp, r4, r0, asr ip
     944:	0004e400 	andeq	lr, r4, r0, lsl #8
     948:	74000300 	strvc	r0, [r0], #-768	; 0x300
     94c:	00009f01 	andeq	r9, r0, r1, lsl #30
     950:	00000000 	andeq	r0, r0, r0
     954:	02880000 	addeq	r0, r8, #0
     958:	04e40000 	strbteq	r0, [r4], #0
     95c:	00010000 	andeq	r0, r1, r0
     960:	0004e458 	andeq	lr, r4, r8, asr r4
     964:	0004f800 	andeq	pc, r4, r0, lsl #16
     968:	f3000a00 	vpmax.u8	d0, d0, d0
     96c:	01f35101 	mvnseq	r5, r1, lsl #2
     970:	1c312250 	lfmne	f2, 4, [r1], #-320	; 0xfffffec0
     974:	0000009f 	muleq	r0, pc, r0	; <UNPREDICTABLE>
     978:	00000000 	andeq	r0, r0, r0
     97c:	0003cc00 	andeq	ip, r3, r0, lsl #24
     980:	0003d000 	andeq	sp, r3, r0
     984:	50000100 	andpl	r0, r0, r0, lsl #2
     988:	000003f0 	strdeq	r0, [r0], -r0	; <UNPREDICTABLE>
     98c:	000003f4 	strdeq	r0, [r0], -r4
     990:	14500001 	ldrbne	r0, [r0], #-1
     994:	18000004 	stmdane	r0, {r2}
     998:	01000004 	tsteq	r0, r4
     99c:	04385000 	ldrteq	r5, [r8], #-0
     9a0:	043c0000 	ldrteq	r0, [ip], #-0
     9a4:	00010000 	andeq	r0, r1, r0
     9a8:	00044450 	andeq	r4, r4, r0, asr r4
     9ac:	00044800 	andeq	r4, r4, r0, lsl #16
     9b0:	50000100 	andpl	r0, r0, r0, lsl #2
     9b4:	00000468 	andeq	r0, r0, r8, ror #8
     9b8:	0000046c 	andeq	r0, r0, ip, ror #8
     9bc:	90500001 	subsls	r0, r0, r1
     9c0:	b8000004 	stmdalt	r0, {r2}
     9c4:	01000004 	tsteq	r0, r4
     9c8:	00005000 	andeq	r5, r0, r0
     9cc:	00000000 	andeq	r0, r0, r0
     9d0:	02cc0000 	sbceq	r0, ip, #0
     9d4:	02d40000 	sbcseq	r0, r4, #0
     9d8:	00020000 	andeq	r0, r2, r0
     9dc:	02d49f30 	sbcseq	r9, r4, #48, 30	; 0xc0
     9e0:	02d80000 	sbcseq	r0, r8, #0
     9e4:	00010000 	andeq	r0, r1, r0
     9e8:	0002e457 	andeq	lr, r2, r7, asr r4
     9ec:	0004b800 	andeq	fp, r4, r0, lsl #16
     9f0:	57000100 	strpl	r0, [r0, -r0, lsl #2]
	...
     9fc:	00000014 	andeq	r0, r0, r4, lsl r0
     a00:	0000001c 	andeq	r0, r0, ip, lsl r0
     a04:	04730003 	ldrbteq	r0, [r3], #-3
     a08:	00001c9f 	muleq	r0, pc, ip	; <UNPREDICTABLE>
     a0c:	00002700 	andeq	r2, r0, r0, lsl #14
     a10:	53000100 	movwpl	r0, #256	; 0x100
	...
     a1c:	00008abc 			; <UNDEFINED> instruction: 0x00008abc
     a20:	00008ac0 	andeq	r8, r0, r0, asr #21
     a24:	9f300002 	svcls	0x00300002
     a28:	00008ac0 	andeq	r8, r0, r0, asr #21
     a2c:	00008ac4 	andeq	r8, r0, r4, asr #21
     a30:	00500001 	subseq	r0, r0, r1
     a34:	00000000 	andeq	r0, r0, r0
     a38:	d4000000 	strle	r0, [r0], #-0
     a3c:	d800008a 	stmdale	r0, {r1, r3, r7}
     a40:	0200008a 	andeq	r0, r0, #138	; 0x8a
     a44:	d89f3000 	ldmle	pc, {ip, sp}	; <UNPREDICTABLE>
     a48:	dc00008a 	stcle	0, cr0, [r0], {138}	; 0x8a
     a4c:	0100008a 	smlabbeq	r0, sl, r0, r0
     a50:	8ae05300 	bhi	ff815658 <__bss_end__+0xff80bb98>
     a54:	8ae80000 	bhi	ffa00a5c <__bss_end__+0xff9f6f9c>
     a58:	00010000 	andeq	r0, r1, r0
     a5c:	00000053 	andeq	r0, r0, r3, asr r0
	...
     a68:	00000400 	andeq	r0, r0, r0, lsl #8
     a6c:	50000100 	andpl	r0, r0, r0, lsl #2
     a70:	00000004 	andeq	r0, r0, r4
     a74:	0000000c 	andeq	r0, r0, ip
     a78:	0c530001 	mrrceq	0, 0, r0, r3, cr1
     a7c:	10000000 	andne	r0, r0, r0
     a80:	01000000 	mrseq	r0, (UNDEF: 0)
     a84:	00105000 	andseq	r5, r0, r0
     a88:	001c0000 	andseq	r0, ip, r0
     a8c:	00010000 	andeq	r0, r1, r0
     a90:	00000053 	andeq	r0, r0, r3, asr r0
     a94:	00000000 	andeq	r0, r0, r0
     a98:	00003c00 	andeq	r3, r0, r0, lsl #24
     a9c:	00004700 	andeq	r4, r0, r0, lsl #14
     aa0:	50000100 	andpl	r0, r0, r0, lsl #2
     aa4:	00000047 	andeq	r0, r0, r7, asr #32
     aa8:	00000060 	andeq	r0, r0, r0, rrx
     aac:	00550001 	subseq	r0, r5, r1
     ab0:	00000000 	andeq	r0, r0, r0
     ab4:	50000000 	andpl	r0, r0, r0
     ab8:	54000000 	strpl	r0, [r0], #-0
     abc:	01000000 	mrseq	r0, (UNDEF: 0)
     ac0:	00005000 	andeq	r5, r0, r0
     ac4:	00000000 	andeq	r0, r0, r0
     ac8:	00600000 	rsbeq	r0, r0, r0
     acc:	006c0000 	rsbeq	r0, ip, r0
     ad0:	00010000 	andeq	r0, r1, r0
     ad4:	00006c50 	andeq	r6, r0, r0, asr ip
     ad8:	00007400 	andeq	r7, r0, r0, lsl #8
     adc:	f3000400 	vshl.u8	d0, d0, d0
     ae0:	009f5001 	addseq	r5, pc, r1
     ae4:	00000000 	andeq	r0, r0, r0
     ae8:	74000000 	strvc	r0, [r0], #-0
     aec:	80000000 	andhi	r0, r0, r0
     af0:	01000000 	mrseq	r0, (UNDEF: 0)
     af4:	00805000 	addeq	r5, r0, r0
     af8:	00880000 	addeq	r0, r8, r0
     afc:	00040000 	andeq	r0, r4, r0
     b00:	9f5001f3 	svcls	0x005001f3
	...
     b10:	00000090 	muleq	r0, r0, r0
     b14:	90500001 	subsls	r0, r0, r1
     b18:	d4000000 	strle	r0, [r0], #-0
     b1c:	01000000 	mrseq	r0, (UNDEF: 0)
     b20:	00005400 	andeq	r5, r0, r0, lsl #8
     b24:	00000000 	andeq	r0, r0, r0
     b28:	00480000 	subeq	r0, r8, r0
     b2c:	004c0000 	subeq	r0, ip, r0
     b30:	00010000 	andeq	r0, r1, r0
     b34:	00005455 	andeq	r5, r0, r5, asr r4
     b38:	00005800 	andeq	r5, r0, r0, lsl #16
     b3c:	55000100 	strpl	r0, [r0, #-256]	; 0x100
     b40:	00000060 	andeq	r0, r0, r0, rrx
     b44:	00000064 	andeq	r0, r0, r4, rrx
     b48:	6c550001 	mrrcvs	0, 0, r0, r5, cr1
     b4c:	70000000 	andvc	r0, r0, r0
     b50:	01000000 	mrseq	r0, (UNDEF: 0)
     b54:	00785500 	rsbseq	r5, r8, r0, lsl #10
     b58:	007c0000 	rsbseq	r0, ip, r0
     b5c:	00010000 	andeq	r0, r1, r0
     b60:	00008455 	andeq	r8, r0, r5, asr r4
     b64:	00008800 	andeq	r8, r0, r0, lsl #16
     b68:	55000100 	strpl	r0, [r0, #-256]	; 0x100
     b6c:	0000008c 	andeq	r0, r0, ip, lsl #1
     b70:	000000d4 	ldrdeq	r0, [r0], -r4
     b74:	00550001 	subseq	r0, r5, r1
     b78:	00000000 	andeq	r0, r0, r0
     b7c:	1c000000 	stcne	0, cr0, [r0], {-0}
     b80:	44000000 	strmi	r0, [r0], #-0
     b84:	01000000 	mrseq	r0, (UNDEF: 0)
     b88:	00445300 	subeq	r5, r4, r0, lsl #6
     b8c:	004c0000 	subeq	r0, ip, r0
     b90:	001c0000 	andseq	r0, ip, r0
     b94:	2cf70070 	ldclcs	0, cr0, [r7], #448	; 0x1c0
     b98:	25f425f7 	ldrbcs	r2, [r4, #1527]!	; 0x5f7
     b9c:	cccccd08 	stclgt	13, cr12, [ip], {8}
     ba0:	000000cc 	andeq	r0, r0, ip, asr #1
     ba4:	20081e00 	andcs	r1, r8, r0, lsl #28
     ba8:	f72525f7 			; <UNDEFINED> instruction: 0xf72525f7
     bac:	9f25332c 	svcls	0x0025332c
     bb0:	0000004c 	andeq	r0, r0, ip, asr #32
     bb4:	00000050 	andeq	r0, r0, r0, asr r0
     bb8:	50530001 	subspl	r0, r3, r1
     bbc:	58000000 	stmdapl	r0, {}	; <UNPREDICTABLE>
     bc0:	1c000000 	stcne	0, cr0, [r0], {-0}
     bc4:	f7007000 			; <UNDEFINED> instruction: 0xf7007000
     bc8:	f425f72c 	vld1.8	{d15}, [r5 :128], ip
     bcc:	cccd0825 	stclgt	8, cr0, [sp], {37}	; 0x25
     bd0:	0000cccc 	andeq	ip, r0, ip, asr #25
     bd4:	081e0000 	ldmdaeq	lr, {}	; <UNPREDICTABLE>
     bd8:	2525f720 	strcs	pc, [r5, #-1824]!	; 0x720
     bdc:	25332cf7 	ldrcs	r2, [r3, #-3319]!	; 0xcf7
     be0:	0000589f 	muleq	r0, pc, r8	; <UNPREDICTABLE>
     be4:	00005c00 	andeq	r5, r0, r0, lsl #24
     be8:	53000100 	movwpl	r0, #256	; 0x100
     bec:	0000005c 	andeq	r0, r0, ip, asr r0
     bf0:	00000064 	andeq	r0, r0, r4, rrx
     bf4:	0070001c 	rsbseq	r0, r0, ip, lsl r0
     bf8:	25f72cf7 	ldrbcs	r2, [r7, #3319]!	; 0xcf7
     bfc:	cd0825f4 	cfstr32gt	mvfx2, [r8, #-976]	; 0xfffffc30
     c00:	00cccccc 	sbceq	ip, ip, ip, asr #25
     c04:	1e000000 	cdpne	0, 0, cr0, cr0, cr0, {0}
     c08:	25f72008 	ldrbcs	r2, [r7, #8]!
     c0c:	332cf725 	msrcc	CPSR_fs, #9699328	; 0x940000
     c10:	00649f25 	rsbeq	r9, r4, r5, lsr #30
     c14:	00680000 	rsbeq	r0, r8, r0
     c18:	00010000 	andeq	r0, r1, r0
     c1c:	00006853 	andeq	r6, r0, r3, asr r8
     c20:	00007000 	andeq	r7, r0, r0
     c24:	70001c00 	andvc	r1, r0, r0, lsl #24
     c28:	f72cf700 			; <UNDEFINED> instruction: 0xf72cf700
     c2c:	0825f425 	stmdaeq	r5!, {r0, r2, r5, sl, ip, sp, lr, pc}
     c30:	cccccccd 	stclgt	12, cr12, [ip], {205}	; 0xcd
     c34:	00000000 	andeq	r0, r0, r0
     c38:	f720081e 			; <UNDEFINED> instruction: 0xf720081e
     c3c:	2cf72525 	cfldr64cs	mvdx2, [r7], #148	; 0x94
     c40:	709f2533 	addsvc	r2, pc, r3, lsr r5	; <UNPREDICTABLE>
     c44:	74000000 	strvc	r0, [r0], #-0
     c48:	01000000 	mrseq	r0, (UNDEF: 0)
     c4c:	00745300 	rsbseq	r5, r4, r0, lsl #6
     c50:	007c0000 	rsbseq	r0, ip, r0
     c54:	001c0000 	andseq	r0, ip, r0
     c58:	2cf70070 	ldclcs	0, cr0, [r7], #448	; 0x1c0
     c5c:	25f425f7 	ldrbcs	r2, [r4, #1527]!	; 0x5f7
     c60:	cccccd08 	stclgt	13, cr12, [ip], {8}
     c64:	000000cc 	andeq	r0, r0, ip, asr #1
     c68:	20081e00 	andcs	r1, r8, r0, lsl #28
     c6c:	f72525f7 			; <UNDEFINED> instruction: 0xf72525f7
     c70:	9f25332c 	svcls	0x0025332c
     c74:	0000007c 	andeq	r0, r0, ip, ror r0
     c78:	00000080 	andeq	r0, r0, r0, lsl #1
     c7c:	80530001 	subshi	r0, r3, r1
     c80:	88000000 	stmdahi	r0, {}	; <UNPREDICTABLE>
     c84:	1c000000 	stcne	0, cr0, [r0], {-0}
     c88:	f7007000 			; <UNDEFINED> instruction: 0xf7007000
     c8c:	f425f72c 	vld1.8	{d15}, [r5 :128], ip
     c90:	cccd0825 	stclgt	8, cr0, [sp], {37}	; 0x25
     c94:	0000cccc 	andeq	ip, r0, ip, asr #25
     c98:	081e0000 	ldmdaeq	lr, {}	; <UNPREDICTABLE>
     c9c:	2525f720 	strcs	pc, [r5, #-1824]!	; 0x720
     ca0:	25332cf7 	ldrcs	r2, [r3, #-3319]!	; 0xcf7
     ca4:	0000889f 	muleq	r0, pc, r8	; <UNPREDICTABLE>
     ca8:	00008c00 	andeq	r8, r0, r0, lsl #24
     cac:	53000100 	movwpl	r0, #256	; 0x100
     cb0:	0000008c 	andeq	r0, r0, ip, lsl #1
     cb4:	00000090 	muleq	r0, r0, r0
     cb8:	0070001c 	rsbseq	r0, r0, ip, lsl r0
     cbc:	25f72cf7 	ldrbcs	r2, [r7, #3319]!	; 0xcf7
     cc0:	cd0825f4 	cfstr32gt	mvfx2, [r8, #-976]	; 0xfffffc30
     cc4:	00cccccc 	sbceq	ip, ip, ip, asr #25
     cc8:	1e000000 	cdpne	0, 0, cr0, cr0, cr0, {0}
     ccc:	25f72008 	ldrbcs	r2, [r7, #8]!
     cd0:	332cf725 	msrcc	CPSR_fs, #9699328	; 0x940000
     cd4:	00909f25 	addseq	r9, r0, r5, lsr #30
     cd8:	00980000 	addseq	r0, r8, r0
     cdc:	001c0000 	andseq	r0, ip, r0
     ce0:	2cf70074 	ldclcs	0, cr0, [r7], #464	; 0x1d0
     ce4:	25f425f7 	ldrbcs	r2, [r4, #1527]!	; 0x5f7
     ce8:	cccccd08 	stclgt	13, cr12, [ip], {8}
     cec:	000000cc 	andeq	r0, r0, ip, asr #1
     cf0:	20081e00 	andcs	r1, r8, r0, lsl #28
     cf4:	f72525f7 			; <UNDEFINED> instruction: 0xf72525f7
     cf8:	9f25332c 	svcls	0x0025332c
     cfc:	00000098 	muleq	r0, r8, r0
     d00:	0000009c 	muleq	r0, ip, r0
     d04:	00740017 	rsbseq	r0, r4, r7, lsl r0
     d08:	25f72cf7 	ldrbcs	r2, [r7, #3319]!	; 0xcf7
     d0c:	2cf70071 	ldclcs	0, cr0, [r7], #452	; 0x1c4
     d10:	081e25f7 	ldmdaeq	lr, {r0, r1, r2, r4, r5, r6, r7, r8, sl, sp}
     d14:	2525f720 	strcs	pc, [r5, #-1824]!	; 0x720
     d18:	25332cf7 	ldrcs	r2, [r3, #-3319]!	; 0xcf7
     d1c:	00009c9f 	muleq	r0, pc, ip	; <UNPREDICTABLE>
     d20:	0000d400 	andeq	sp, r0, r0, lsl #8
     d24:	74001c00 	strvc	r1, [r0], #-3072	; 0xc00
     d28:	f72cf700 			; <UNDEFINED> instruction: 0xf72cf700
     d2c:	0825f425 	stmdaeq	r5!, {r0, r2, r5, sl, ip, sp, lr, pc}
     d30:	cccccccd 	stclgt	12, cr12, [ip], {205}	; 0xcd
     d34:	00000000 	andeq	r0, r0, r0
     d38:	f720081e 			; <UNDEFINED> instruction: 0xf720081e
     d3c:	2cf72525 	cfldr64cs	mvdx2, [r7], #148	; 0x94
     d40:	009f2533 	addseq	r2, pc, r3, lsr r5	; <UNPREDICTABLE>
     d44:	00000000 	andeq	r0, r0, r0
     d48:	94000000 	strls	r0, [r0], #-0
     d4c:	b8000000 	stmdalt	r0, {}	; <UNPREDICTABLE>
     d50:	01000000 	mrseq	r0, (UNDEF: 0)
     d54:	00b85000 	adcseq	r5, r8, r0
     d58:	00c40000 	sbceq	r0, r4, r0
     d5c:	00080000 	andeq	r0, r8, r0
     d60:	24007131 	strcs	r7, [r0], #-305	; 0x131
     d64:	9f210073 	svcls	0x00210073
     d68:	000000c4 	andeq	r0, r0, r4, asr #1
     d6c:	000000c7 	andeq	r0, r0, r7, asr #1
     d70:	00510001 	subseq	r0, r1, r1
     d74:	00000000 	andeq	r0, r0, r0
     d78:	d4000000 	strle	r0, [r0], #-0
     d7c:	f8000000 			; <UNDEFINED> instruction: 0xf8000000
     d80:	01000000 	mrseq	r0, (UNDEF: 0)
     d84:	00f85000 	rscseq	r5, r8, r0
     d88:	010c0000 	mrseq	r0, (UNDEF: 12)
     d8c:	00040000 	andeq	r0, r4, r0
     d90:	9f5001f3 	svcls	0x005001f3
	...
     d9c:	000000e0 	andeq	r0, r0, r0, ror #1
     da0:	000000e8 	andeq	r0, r0, r8, ror #1
     da4:	9f300002 	svcls	0x00300002
     da8:	000000e8 	andeq	r0, r0, r8, ror #1
     dac:	000000e8 	andeq	r0, r0, r8, ror #1
     db0:	e8520001 	ldmda	r2, {r0}^
     db4:	f0000000 			; <UNDEFINED> instruction: 0xf0000000
     db8:	02000000 	andeq	r0, r0, #0
     dbc:	f09f3000 			; <UNDEFINED> instruction: 0xf09f3000
     dc0:	03000000 	movweq	r0, #0
     dc4:	01000001 	tsteq	r0, r1
     dc8:	00005200 	andeq	r5, r0, r0, lsl #4
     dcc:	00000000 	andeq	r0, r0, r0
     dd0:	00e00000 	rsceq	r0, r0, r0
     dd4:	00f40000 	rscseq	r0, r4, r0
     dd8:	00020000 	andeq	r0, r2, r0
     ddc:	00f49f30 	rscseq	r9, r4, r0, lsr pc
     de0:	01000000 	mrseq	r0, (UNDEF: 0)
     de4:	00050000 	andeq	r0, r5, r0
     de8:	24007331 	strcs	r7, [r0], #-817	; 0x331
     dec:	0001009f 	muleq	r1, pc, r0	; <UNPREDICTABLE>
     df0:	00010300 	andeq	r0, r1, r0, lsl #6
     df4:	51000100 	mrspl	r0, (UNDEF: 16)
     df8:	00000103 	andeq	r0, r0, r3, lsl #2
     dfc:	0000010c 	andeq	r0, r0, ip, lsl #2
     e00:	f3310008 	vhadd.u<illegal width 64>	d0, d1, d8
     e04:	1a4f5001 	bne	13d4e10 <__bss_end__+0x13cb350>
     e08:	00009f24 	andeq	r9, r0, r4, lsr #30
     e0c:	00000000 	andeq	r0, r0, r0
     e10:	010c0000 	mrseq	r0, (UNDEF: 12)
     e14:	01300000 	teqeq	r0, r0
     e18:	00010000 	andeq	r0, r1, r0
     e1c:	00013050 	andeq	r3, r1, r0, asr r0
     e20:	00014400 	andeq	r4, r1, r0, lsl #8
     e24:	f3000400 	vshl.u8	d0, d0, d0
     e28:	009f5001 	addseq	r5, pc, r1
     e2c:	00000000 	andeq	r0, r0, r0
     e30:	18000000 	stmdane	r0, {}	; <UNPREDICTABLE>
     e34:	20000001 	andcs	r0, r0, r1
     e38:	02000001 	andeq	r0, r0, #1
     e3c:	209f3000 	addscs	r3, pc, r0
     e40:	20000001 	andcs	r0, r0, r1
     e44:	01000001 	tsteq	r0, r1
     e48:	01205200 	teqeq	r0, r0, lsl #4
     e4c:	01280000 	teqeq	r8, r0
     e50:	00020000 	andeq	r0, r2, r0
     e54:	01289f30 	teqeq	r8, r0, lsr pc
     e58:	013b0000 	teqeq	fp, r0
     e5c:	00010000 	andeq	r0, r1, r0
     e60:	00000052 	andeq	r0, r0, r2, asr r0
     e64:	00000000 	andeq	r0, r0, r0
     e68:	00011800 	andeq	r1, r1, r0, lsl #16
     e6c:	00012c00 	andeq	r2, r1, r0, lsl #24
     e70:	30000200 	andcc	r0, r0, r0, lsl #4
     e74:	00012c9f 	muleq	r1, pc, ip	; <UNPREDICTABLE>
     e78:	00013800 	andeq	r3, r1, r0, lsl #16
     e7c:	31000500 	tstcc	r0, r0, lsl #10
     e80:	9f240073 	svcls	0x00240073
     e84:	00000138 	andeq	r0, r0, r8, lsr r1
     e88:	0000013b 	andeq	r0, r0, fp, lsr r1
     e8c:	3b510001 	blcc	1440e98 <__bss_end__+0x14373d8>
     e90:	44000001 	strmi	r0, [r0], #-1
     e94:	08000001 	stmdaeq	r0, {r0}
     e98:	01f33100 	mvnseq	r3, r0, lsl #2
     e9c:	241a4f50 	ldrcs	r4, [sl], #-3920	; 0xf50
     ea0:	0000009f 	muleq	r0, pc, r0	; <UNPREDICTABLE>
     ea4:	00000000 	andeq	r0, r0, r0
     ea8:	00014400 	andeq	r4, r1, r0, lsl #8
     eac:	0001d400 	andeq	sp, r1, r0, lsl #8
     eb0:	50000100 	andpl	r0, r0, r0, lsl #2
     eb4:	000001d4 	ldrdeq	r0, [r0], -r4
     eb8:	00000210 	andeq	r0, r0, r0, lsl r2
     ebc:	00540001 	subseq	r0, r4, r1
     ec0:	00000000 	andeq	r0, r0, r0
     ec4:	8c000000 	stchi	0, cr0, [r0], {-0}
     ec8:	90000001 	andls	r0, r0, r1
     ecc:	01000001 	tsteq	r0, r1
     ed0:	01985500 	orrseq	r5, r8, r0, lsl #10
     ed4:	019c0000 	orrseq	r0, ip, r0
     ed8:	00010000 	andeq	r0, r1, r0
     edc:	0001a455 	andeq	sl, r1, r5, asr r4
     ee0:	0001a800 	andeq	sl, r1, r0, lsl #16
     ee4:	55000100 	strpl	r0, [r0, #-256]	; 0x100
     ee8:	000001b0 			; <UNDEFINED> instruction: 0x000001b0
     eec:	000001b4 			; <UNDEFINED> instruction: 0x000001b4
     ef0:	bc550001 	mrrclt	0, 0, r0, r5, cr1
     ef4:	c0000001 	andgt	r0, r0, r1
     ef8:	01000001 	tsteq	r0, r1
     efc:	01c85500 	biceq	r5, r8, r0, lsl #10
     f00:	01cc0000 	biceq	r0, ip, r0
     f04:	00010000 	andeq	r0, r1, r0
     f08:	0001d055 	andeq	sp, r1, r5, asr r0
     f0c:	00021000 	andeq	r1, r2, r0
     f10:	55000100 	strpl	r0, [r0, #-256]	; 0x100
	...
     f1c:	00000160 	andeq	r0, r0, r0, ror #2
     f20:	00000188 	andeq	r0, r0, r8, lsl #3
     f24:	88530001 	ldmdahi	r3, {r0}^
     f28:	90000001 	andls	r0, r0, r1
     f2c:	1c000001 	stcne	0, cr0, [r0], {1}
     f30:	f7007000 			; <UNDEFINED> instruction: 0xf7007000
     f34:	f425f72c 	vld1.8	{d15}, [r5 :128], ip
     f38:	cccd0825 	stclgt	8, cr0, [sp], {37}	; 0x25
     f3c:	0000cccc 	andeq	ip, r0, ip, asr #25
     f40:	081e0000 	ldmdaeq	lr, {}	; <UNPREDICTABLE>
     f44:	2525f720 	strcs	pc, [r5, #-1824]!	; 0x720
     f48:	25332cf7 	ldrcs	r2, [r3, #-3319]!	; 0xcf7
     f4c:	0001909f 	muleq	r1, pc, r0	; <UNPREDICTABLE>
     f50:	00019400 	andeq	r9, r1, r0, lsl #8
     f54:	53000100 	movwpl	r0, #256	; 0x100
     f58:	00000194 	muleq	r0, r4, r1
     f5c:	0000019c 	muleq	r0, ip, r1
     f60:	0070001c 	rsbseq	r0, r0, ip, lsl r0
     f64:	25f72cf7 	ldrbcs	r2, [r7, #3319]!	; 0xcf7
     f68:	cd0825f4 	cfstr32gt	mvfx2, [r8, #-976]	; 0xfffffc30
     f6c:	00cccccc 	sbceq	ip, ip, ip, asr #25
     f70:	1e000000 	cdpne	0, 0, cr0, cr0, cr0, {0}
     f74:	25f72008 	ldrbcs	r2, [r7, #8]!
     f78:	332cf725 	msrcc	CPSR_fs, #9699328	; 0x940000
     f7c:	019c9f25 	orrseq	r9, ip, r5, lsr #30
     f80:	01a00000 	moveq	r0, r0
     f84:	00010000 	andeq	r0, r1, r0
     f88:	0001a053 	andeq	sl, r1, r3, asr r0
     f8c:	0001a800 	andeq	sl, r1, r0, lsl #16
     f90:	70001c00 	andvc	r1, r0, r0, lsl #24
     f94:	f72cf700 			; <UNDEFINED> instruction: 0xf72cf700
     f98:	0825f425 	stmdaeq	r5!, {r0, r2, r5, sl, ip, sp, lr, pc}
     f9c:	cccccccd 	stclgt	12, cr12, [ip], {205}	; 0xcd
     fa0:	00000000 	andeq	r0, r0, r0
     fa4:	f720081e 			; <UNDEFINED> instruction: 0xf720081e
     fa8:	2cf72525 	cfldr64cs	mvdx2, [r7], #148	; 0x94
     fac:	a89f2533 	ldmge	pc, {r0, r1, r4, r5, r8, sl, sp}	; <UNPREDICTABLE>
     fb0:	ac000001 	stcge	0, cr0, [r0], {1}
     fb4:	01000001 	tsteq	r0, r1
     fb8:	01ac5300 			; <UNDEFINED> instruction: 0x01ac5300
     fbc:	01b40000 			; <UNDEFINED> instruction: 0x01b40000
     fc0:	001c0000 	andseq	r0, ip, r0
     fc4:	2cf70070 	ldclcs	0, cr0, [r7], #448	; 0x1c0
     fc8:	25f425f7 	ldrbcs	r2, [r4, #1527]!	; 0x5f7
     fcc:	cccccd08 	stclgt	13, cr12, [ip], {8}
     fd0:	000000cc 	andeq	r0, r0, ip, asr #1
     fd4:	20081e00 	andcs	r1, r8, r0, lsl #28
     fd8:	f72525f7 			; <UNDEFINED> instruction: 0xf72525f7
     fdc:	9f25332c 	svcls	0x0025332c
     fe0:	000001b4 			; <UNDEFINED> instruction: 0x000001b4
     fe4:	000001b8 			; <UNDEFINED> instruction: 0x000001b8
     fe8:	b8530001 	ldmdalt	r3, {r0}^
     fec:	c0000001 	andgt	r0, r0, r1
     ff0:	1c000001 	stcne	0, cr0, [r0], {1}
     ff4:	f7007000 			; <UNDEFINED> instruction: 0xf7007000
     ff8:	f425f72c 	vld1.8	{d15}, [r5 :128], ip
     ffc:	cccd0825 	stclgt	8, cr0, [sp], {37}	; 0x25
    1000:	0000cccc 	andeq	ip, r0, ip, asr #25
    1004:	081e0000 	ldmdaeq	lr, {}	; <UNPREDICTABLE>
    1008:	2525f720 	strcs	pc, [r5, #-1824]!	; 0x720
    100c:	25332cf7 	ldrcs	r2, [r3, #-3319]!	; 0xcf7
    1010:	0001c09f 	muleq	r1, pc, r0	; <UNPREDICTABLE>
    1014:	0001c400 	andeq	ip, r1, r0, lsl #8
    1018:	53000100 	movwpl	r0, #256	; 0x100
    101c:	000001c4 	andeq	r0, r0, r4, asr #3
    1020:	000001cc 	andeq	r0, r0, ip, asr #3
    1024:	0070001c 	rsbseq	r0, r0, ip, lsl r0
    1028:	25f72cf7 	ldrbcs	r2, [r7, #3319]!	; 0xcf7
    102c:	cd0825f4 	cfstr32gt	mvfx2, [r8, #-976]	; 0xfffffc30
    1030:	00cccccc 	sbceq	ip, ip, ip, asr #25
    1034:	1e000000 	cdpne	0, 0, cr0, cr0, cr0, {0}
    1038:	25f72008 	ldrbcs	r2, [r7, #8]!
    103c:	332cf725 	msrcc	CPSR_fs, #9699328	; 0x940000
    1040:	01cc9f25 	biceq	r9, ip, r5, lsr #30
    1044:	01d00000 	bicseq	r0, r0, r0
    1048:	00010000 	andeq	r0, r1, r0
    104c:	0001d053 	andeq	sp, r1, r3, asr r0
    1050:	0001d400 	andeq	sp, r1, r0, lsl #8
    1054:	70001c00 	andvc	r1, r0, r0, lsl #24
    1058:	f72cf700 			; <UNDEFINED> instruction: 0xf72cf700
    105c:	0825f425 	stmdaeq	r5!, {r0, r2, r5, sl, ip, sp, lr, pc}
    1060:	cccccccd 	stclgt	12, cr12, [ip], {205}	; 0xcd
    1064:	00000000 	andeq	r0, r0, r0
    1068:	f720081e 			; <UNDEFINED> instruction: 0xf720081e
    106c:	2cf72525 	cfldr64cs	mvdx2, [r7], #148	; 0x94
    1070:	d49f2533 	ldrle	r2, [pc], #1331	; 1078 <_start-0x6f88>
    1074:	dc000001 	stcle	0, cr0, [r0], {1}
    1078:	1c000001 	stcne	0, cr0, [r0], {1}
    107c:	f7007400 			; <UNDEFINED> instruction: 0xf7007400
    1080:	f425f72c 	vld1.8	{d15}, [r5 :128], ip
    1084:	cccd0825 	stclgt	8, cr0, [sp], {37}	; 0x25
    1088:	0000cccc 	andeq	ip, r0, ip, asr #25
    108c:	081e0000 	ldmdaeq	lr, {}	; <UNPREDICTABLE>
    1090:	2525f720 	strcs	pc, [r5, #-1824]!	; 0x720
    1094:	25332cf7 	ldrcs	r2, [r3, #-3319]!	; 0xcf7
    1098:	0001dc9f 	muleq	r1, pc, ip	; <UNPREDICTABLE>
    109c:	0001e000 	andeq	lr, r1, r0
    10a0:	74001700 	strvc	r1, [r0], #-1792	; 0x700
    10a4:	f72cf700 			; <UNDEFINED> instruction: 0xf72cf700
    10a8:	f7007125 			; <UNDEFINED> instruction: 0xf7007125
    10ac:	1e25f72c 	cdpne	7, 2, cr15, cr5, cr12, {1}
    10b0:	25f72008 	ldrbcs	r2, [r7, #8]!
    10b4:	332cf725 	msrcc	CPSR_fs, #9699328	; 0x940000
    10b8:	01e09f25 	mvneq	r9, r5, lsr #30
    10bc:	02100000 	andseq	r0, r0, #0
    10c0:	001c0000 	andseq	r0, ip, r0
    10c4:	2cf70074 	ldclcs	0, cr0, [r7], #464	; 0x1d0
    10c8:	25f425f7 	ldrbcs	r2, [r4, #1527]!	; 0x5f7
    10cc:	cccccd08 	stclgt	13, cr12, [ip], {8}
    10d0:	000000cc 	andeq	r0, r0, ip, asr #1
    10d4:	20081e00 	andcs	r1, r8, r0, lsl #28
    10d8:	f72525f7 			; <UNDEFINED> instruction: 0xf72525f7
    10dc:	9f25332c 	svcls	0x0025332c
	...
    10e8:	000001d8 	ldrdeq	r0, [r0], -r8
    10ec:	000001fc 	strdeq	r0, [r0], -ip
    10f0:	fc500001 	mrrc2	0, 0, r0, r0, cr1	; <UNPREDICTABLE>
    10f4:	03000001 	movweq	r0, #1
    10f8:	01000002 	tsteq	r0, r2
    10fc:	00005100 	andeq	r5, r0, r0, lsl #2
    1100:	00000000 	andeq	r0, r0, r0
    1104:	02100000 	andseq	r0, r0, #0
    1108:	022c0000 	eoreq	r0, ip, #0
    110c:	00010000 	andeq	r0, r1, r0
    1110:	00022c50 	andeq	r2, r2, r0, asr ip
    1114:	00023400 	andeq	r3, r2, r0, lsl #8
    1118:	54000100 	strpl	r0, [r0], #-256	; 0x100
    111c:	00000234 	andeq	r0, r0, r4, lsr r2
    1120:	0000023c 	andeq	r0, r0, ip, lsr r2
    1124:	3c500001 	mrrccc	0, 0, r0, r0, cr1	; <UNPREDICTABLE>
    1128:	44000002 	strmi	r0, [r0], #-2
    112c:	01000002 	tsteq	r0, r2
    1130:	02445400 	subeq	r5, r4, #0, 8
    1134:	02500000 	subseq	r0, r0, #0
    1138:	00040000 	andeq	r0, r4, r0
    113c:	9f5001f3 	svcls	0x005001f3
    1140:	00000250 	andeq	r0, r0, r0, asr r2
    1144:	00000254 	andeq	r0, r0, r4, asr r2
    1148:	54500001 	ldrbpl	r0, [r0], #-1
    114c:	5c000002 	stcpl	0, cr0, [r0], {2}
    1150:	01000002 	tsteq	r0, r2
    1154:	00005400 	andeq	r5, r0, r0, lsl #8
    1158:	00000000 	andeq	r0, r0, r0
    115c:	02200000 	eoreq	r0, r0, #0
    1160:	02300000 	eorseq	r0, r0, #0
    1164:	00020000 	andeq	r0, r2, r0
    1168:	02309f30 	eorseq	r9, r0, #48, 30	; 0xc0
    116c:	02340000 	eorseq	r0, r4, #0
    1170:	00010000 	andeq	r0, r1, r0
    1174:	00023450 	andeq	r3, r2, r0, asr r4
    1178:	00024000 	andeq	r4, r2, r0
    117c:	30000200 	andcc	r0, r0, r0, lsl #4
    1180:	0002409f 	muleq	r2, pc, r0	; <UNPREDICTABLE>
    1184:	00024c00 	andeq	r4, r2, r0, lsl #24
    1188:	50000100 	andpl	r0, r0, r0, lsl #2
	...
    1194:	0000025c 	andeq	r0, r0, ip, asr r2
    1198:	00000273 	andeq	r0, r0, r3, ror r2
    119c:	73500001 	cmpvc	r0, #1
    11a0:	78000002 	stmdavc	r0, {r1}
    11a4:	04000002 	streq	r0, [r0], #-2
    11a8:	5001f300 	andpl	pc, r1, r0, lsl #6
    11ac:	0002789f 	muleq	r2, pc, r8	; <UNPREDICTABLE>
    11b0:	00027b00 	andeq	r7, r2, r0, lsl #22
    11b4:	50000100 	andpl	r0, r0, r0, lsl #2
    11b8:	0000027b 	andeq	r0, r0, fp, ror r2
    11bc:	00000280 	andeq	r0, r0, r0, lsl #5
    11c0:	01f30004 	mvnseq	r0, r4
    11c4:	00009f50 	andeq	r9, r0, r0, asr pc
    11c8:	00000000 	andeq	r0, r0, r0
    11cc:	025c0000 	subseq	r0, ip, #0
    11d0:	02730000 	rsbseq	r0, r3, #0
    11d4:	00010000 	andeq	r0, r1, r0
    11d8:	00027351 	andeq	r7, r2, r1, asr r3
    11dc:	00027800 	andeq	r7, r2, r0, lsl #16
    11e0:	f3000400 	vshl.u8	d0, d0, d0
    11e4:	789f5101 	ldmvc	pc, {r0, r8, ip, lr}	; <UNPREDICTABLE>
    11e8:	7b000002 	blvc	11f8 <_start-0x6e08>
    11ec:	01000002 	tsteq	r0, r2
    11f0:	027b5100 	rsbseq	r5, fp, #0, 2
    11f4:	02800000 	addeq	r0, r0, #0
    11f8:	00040000 	andeq	r0, r4, r0
    11fc:	9f5101f3 	svcls	0x005101f3
	...
    1208:	00000280 	andeq	r0, r0, r0, lsl #5
    120c:	00000318 	andeq	r0, r0, r8, lsl r3
    1210:	18500001 	ldmdane	r0, {r0}^
    1214:	58000003 	stmdapl	r0, {r0, r1}
    1218:	01000003 	tsteq	r0, r3
    121c:	00005400 	andeq	r5, r0, r0, lsl #8
    1220:	00000000 	andeq	r0, r0, r0
    1224:	02800000 	addeq	r0, r0, #0
    1228:	031b0000 	tsteq	fp, #0
    122c:	00010000 	andeq	r0, r1, r0
    1230:	00031b51 	andeq	r1, r3, r1, asr fp
    1234:	00035800 	andeq	r5, r3, r0, lsl #16
    1238:	f3000400 	vshl.u8	d0, d0, d0
    123c:	009f5101 	addseq	r5, pc, r1, lsl #2
    1240:	00000000 	andeq	r0, r0, r0
    1244:	d0000000 	andle	r0, r0, r0
    1248:	d4000002 	strle	r0, [r0], #-2
    124c:	01000002 	tsteq	r0, r2
    1250:	02dc5600 	sbcseq	r5, ip, #0, 12
    1254:	02e00000 	rsceq	r0, r0, #0
    1258:	00010000 	andeq	r0, r1, r0
    125c:	0002e856 	andeq	lr, r2, r6, asr r8
    1260:	0002ec00 	andeq	lr, r2, r0, lsl #24
    1264:	56000100 	strpl	r0, [r0], -r0, lsl #2
    1268:	000002f4 	strdeq	r0, [r0], -r4
    126c:	000002f8 	strdeq	r0, [r0], -r8
    1270:	00560001 	subseq	r0, r6, r1
    1274:	04000003 	streq	r0, [r0], #-3
    1278:	01000003 	tsteq	r0, r3
    127c:	030c5600 	movweq	r5, #50688	; 0xc600
    1280:	03100000 	tsteq	r0, #0
    1284:	00010000 	andeq	r0, r1, r0
    1288:	00031456 	andeq	r1, r3, r6, asr r4
    128c:	00035800 	andeq	r5, r3, r0, lsl #16
    1290:	56000100 	strpl	r0, [r0], -r0, lsl #2
	...
    129c:	000002a4 	andeq	r0, r0, r4, lsr #5
    12a0:	000002cc 	andeq	r0, r0, ip, asr #5
    12a4:	cc530001 	mrrcgt	0, 0, r0, r3, cr1
    12a8:	d4000002 	strle	r0, [r0], #-2
    12ac:	1c000002 	stcne	0, cr0, [r0], {2}
    12b0:	f7007000 			; <UNDEFINED> instruction: 0xf7007000
    12b4:	f425f72c 	vld1.8	{d15}, [r5 :128], ip
    12b8:	cccd0825 	stclgt	8, cr0, [sp], {37}	; 0x25
    12bc:	0000cccc 	andeq	ip, r0, ip, asr #25
    12c0:	081e0000 	ldmdaeq	lr, {}	; <UNPREDICTABLE>
    12c4:	2525f720 	strcs	pc, [r5, #-1824]!	; 0x720
    12c8:	25332cf7 	ldrcs	r2, [r3, #-3319]!	; 0xcf7
    12cc:	0002d49f 	muleq	r2, pc, r4	; <UNPREDICTABLE>
    12d0:	0002d800 	andeq	sp, r2, r0, lsl #16
    12d4:	53000100 	movwpl	r0, #256	; 0x100
    12d8:	000002d8 	ldrdeq	r0, [r0], -r8
    12dc:	000002e0 	andeq	r0, r0, r0, ror #5
    12e0:	0070001c 	rsbseq	r0, r0, ip, lsl r0
    12e4:	25f72cf7 	ldrbcs	r2, [r7, #3319]!	; 0xcf7
    12e8:	cd0825f4 	cfstr32gt	mvfx2, [r8, #-976]	; 0xfffffc30
    12ec:	00cccccc 	sbceq	ip, ip, ip, asr #25
    12f0:	1e000000 	cdpne	0, 0, cr0, cr0, cr0, {0}
    12f4:	25f72008 	ldrbcs	r2, [r7, #8]!
    12f8:	332cf725 	msrcc	CPSR_fs, #9699328	; 0x940000
    12fc:	02e09f25 	rsceq	r9, r0, #37, 30	; 0x94
    1300:	02e40000 	rsceq	r0, r4, #0
    1304:	00010000 	andeq	r0, r1, r0
    1308:	0002e453 	andeq	lr, r2, r3, asr r4
    130c:	0002ec00 	andeq	lr, r2, r0, lsl #24
    1310:	70001c00 	andvc	r1, r0, r0, lsl #24
    1314:	f72cf700 			; <UNDEFINED> instruction: 0xf72cf700
    1318:	0825f425 	stmdaeq	r5!, {r0, r2, r5, sl, ip, sp, lr, pc}
    131c:	cccccccd 	stclgt	12, cr12, [ip], {205}	; 0xcd
    1320:	00000000 	andeq	r0, r0, r0
    1324:	f720081e 			; <UNDEFINED> instruction: 0xf720081e
    1328:	2cf72525 	cfldr64cs	mvdx2, [r7], #148	; 0x94
    132c:	ec9f2533 	cfldr32	mvfx2, [pc], {51}	; 0x33
    1330:	f0000002 			; <UNDEFINED> instruction: 0xf0000002
    1334:	01000002 	tsteq	r0, r2
    1338:	02f05300 	rscseq	r5, r0, #0, 6
    133c:	02f80000 	rscseq	r0, r8, #0
    1340:	001c0000 	andseq	r0, ip, r0
    1344:	2cf70070 	ldclcs	0, cr0, [r7], #448	; 0x1c0
    1348:	25f425f7 	ldrbcs	r2, [r4, #1527]!	; 0x5f7
    134c:	cccccd08 	stclgt	13, cr12, [ip], {8}
    1350:	000000cc 	andeq	r0, r0, ip, asr #1
    1354:	20081e00 	andcs	r1, r8, r0, lsl #28
    1358:	f72525f7 			; <UNDEFINED> instruction: 0xf72525f7
    135c:	9f25332c 	svcls	0x0025332c
    1360:	000002f8 	strdeq	r0, [r0], -r8
    1364:	000002fc 	strdeq	r0, [r0], -ip
    1368:	fc530001 	mrrc2	0, 0, r0, r3, cr1
    136c:	04000002 	streq	r0, [r0], #-2
    1370:	1c000003 	stcne	0, cr0, [r0], {3}
    1374:	f7007000 			; <UNDEFINED> instruction: 0xf7007000
    1378:	f425f72c 	vld1.8	{d15}, [r5 :128], ip
    137c:	cccd0825 	stclgt	8, cr0, [sp], {37}	; 0x25
    1380:	0000cccc 	andeq	ip, r0, ip, asr #25
    1384:	081e0000 	ldmdaeq	lr, {}	; <UNPREDICTABLE>
    1388:	2525f720 	strcs	pc, [r5, #-1824]!	; 0x720
    138c:	25332cf7 	ldrcs	r2, [r3, #-3319]!	; 0xcf7
    1390:	0003049f 	muleq	r3, pc, r4	; <UNPREDICTABLE>
    1394:	00030800 	andeq	r0, r3, r0, lsl #16
    1398:	53000100 	movwpl	r0, #256	; 0x100
    139c:	00000308 	andeq	r0, r0, r8, lsl #6
    13a0:	00000310 	andeq	r0, r0, r0, lsl r3
    13a4:	0070001c 	rsbseq	r0, r0, ip, lsl r0
    13a8:	25f72cf7 	ldrbcs	r2, [r7, #3319]!	; 0xcf7
    13ac:	cd0825f4 	cfstr32gt	mvfx2, [r8, #-976]	; 0xfffffc30
    13b0:	00cccccc 	sbceq	ip, ip, ip, asr #25
    13b4:	1e000000 	cdpne	0, 0, cr0, cr0, cr0, {0}
    13b8:	25f72008 	ldrbcs	r2, [r7, #8]!
    13bc:	332cf725 	msrcc	CPSR_fs, #9699328	; 0x940000
    13c0:	03109f25 	tsteq	r0, #37, 30	; 0x94
    13c4:	03140000 	tsteq	r4, #0
    13c8:	00010000 	andeq	r0, r1, r0
    13cc:	00031453 	andeq	r1, r3, r3, asr r4
    13d0:	00031800 	andeq	r1, r3, r0, lsl #16
    13d4:	70001c00 	andvc	r1, r0, r0, lsl #24
    13d8:	f72cf700 			; <UNDEFINED> instruction: 0xf72cf700
    13dc:	0825f425 	stmdaeq	r5!, {r0, r2, r5, sl, ip, sp, lr, pc}
    13e0:	cccccccd 	stclgt	12, cr12, [ip], {205}	; 0xcd
    13e4:	00000000 	andeq	r0, r0, r0
    13e8:	f720081e 			; <UNDEFINED> instruction: 0xf720081e
    13ec:	2cf72525 	cfldr64cs	mvdx2, [r7], #148	; 0x94
    13f0:	189f2533 	ldmne	pc, {r0, r1, r4, r5, r8, sl, sp}	; <UNPREDICTABLE>
    13f4:	20000003 	andcs	r0, r0, r3
    13f8:	1c000003 	stcne	0, cr0, [r0], {3}
    13fc:	f7007400 			; <UNDEFINED> instruction: 0xf7007400
    1400:	f425f72c 	vld1.8	{d15}, [r5 :128], ip
    1404:	cccd0825 	stclgt	8, cr0, [sp], {37}	; 0x25
    1408:	0000cccc 	andeq	ip, r0, ip, asr #25
    140c:	081e0000 	ldmdaeq	lr, {}	; <UNPREDICTABLE>
    1410:	2525f720 	strcs	pc, [r5, #-1824]!	; 0x720
    1414:	25332cf7 	ldrcs	r2, [r3, #-3319]!	; 0xcf7
    1418:	0003209f 	muleq	r3, pc, r0	; <UNPREDICTABLE>
    141c:	00032400 	andeq	r2, r3, r0, lsl #8
    1420:	74001700 	strvc	r1, [r0], #-1792	; 0x700
    1424:	f72cf700 			; <UNDEFINED> instruction: 0xf72cf700
    1428:	f7007325 			; <UNDEFINED> instruction: 0xf7007325
    142c:	1e25f72c 	cdpne	7, 2, cr15, cr5, cr12, {1}
    1430:	25f72008 	ldrbcs	r2, [r7, #8]!
    1434:	332cf725 	msrcc	CPSR_fs, #9699328	; 0x940000
    1438:	03249f25 	teqeq	r4, #37, 30	; 0x94
    143c:	03580000 	cmpeq	r8, #0
    1440:	001c0000 	andseq	r0, ip, r0
    1444:	2cf70074 	ldclcs	0, cr0, [r7], #464	; 0x1d0
    1448:	25f425f7 	ldrbcs	r2, [r4, #1527]!	; 0x5f7
    144c:	cccccd08 	stclgt	13, cr12, [ip], {8}
    1450:	000000cc 	andeq	r0, r0, ip, asr #1
    1454:	20081e00 	andcs	r1, r8, r0, lsl #28
    1458:	f72525f7 			; <UNDEFINED> instruction: 0xf72525f7
    145c:	9f25332c 	svcls	0x0025332c
	...
    1468:	0000031c 	andeq	r0, r0, ip, lsl r3
    146c:	00000340 	andeq	r0, r0, r0, asr #6
    1470:	40500001 	subsmi	r0, r0, r1
    1474:	48000003 	stmdami	r0, {r0, r1}
    1478:	09000003 	stmdbeq	r0, {r0, r1}
    147c:	73007500 	movwvc	r7, #1280	; 0x500
    1480:	00712400 	rsbseq	r2, r1, r0, lsl #8
    1484:	03489f21 	movteq	r9, #36641	; 0x8f21
    1488:	034b0000 	movteq	r0, #45056	; 0xb000
    148c:	00010000 	andeq	r0, r1, r0
    1490:	00000051 	andeq	r0, r0, r1, asr r0
    1494:	00000000 	andeq	r0, r0, r0
    1498:	00035800 	andeq	r5, r3, r0, lsl #16
    149c:	00037c00 	andeq	r7, r3, r0, lsl #24
    14a0:	50000100 	andpl	r0, r0, r0, lsl #2
    14a4:	0000037c 	andeq	r0, r0, ip, ror r3
    14a8:	00000390 	muleq	r0, r0, r3
    14ac:	01f30004 	mvnseq	r0, r4
    14b0:	00009f50 	andeq	r9, r0, r0, asr pc
    14b4:	00000000 	andeq	r0, r0, r0
    14b8:	03640000 	cmneq	r4, #0
    14bc:	036c0000 	cmneq	ip, #0
    14c0:	00020000 	andeq	r0, r2, r0
    14c4:	036c9f30 	cmneq	ip, #48, 30	; 0xc0
    14c8:	036c0000 	cmneq	ip, #0
    14cc:	00010000 	andeq	r0, r1, r0
    14d0:	00036c52 	andeq	r6, r3, r2, asr ip
    14d4:	00037400 	andeq	r7, r3, r0, lsl #8
    14d8:	30000200 	andcc	r0, r0, r0, lsl #4
    14dc:	0003749f 	muleq	r3, pc, r4	; <UNPREDICTABLE>
    14e0:	00038700 	andeq	r8, r3, r0, lsl #14
    14e4:	52000100 	andpl	r0, r0, #0, 2
	...
    14f0:	00000364 	andeq	r0, r0, r4, ror #6
    14f4:	00000378 	andeq	r0, r0, r8, ror r3
    14f8:	9f300002 	svcls	0x00300002
    14fc:	00000378 	andeq	r0, r0, r8, ror r3
    1500:	00000384 	andeq	r0, r0, r4, lsl #7
    1504:	73310005 	teqvc	r1, #5
    1508:	849f2400 	ldrhi	r2, [pc], #1024	; 1510 <_start-0x6af0>
    150c:	87000003 	strhi	r0, [r0, -r3]
    1510:	01000003 	tsteq	r0, r3
    1514:	03875100 	orreq	r5, r7, #0, 2
    1518:	03900000 	orrseq	r0, r0, #0
    151c:	00080000 	andeq	r0, r8, r0
    1520:	5001f331 	andpl	pc, r1, r1, lsr r3	; <UNPREDICTABLE>
    1524:	9f241a4f 	svcls	0x00241a4f
	...
    1530:	00000390 	muleq	r0, r0, r3
    1534:	0000039c 	muleq	r0, ip, r3
    1538:	9c500001 	mrrcls	0, 0, r0, r0, cr1	; <UNPREDICTABLE>
    153c:	bc000003 	stclt	0, cr0, [r0], {3}
    1540:	04000003 	streq	r0, [r0], #-3
    1544:	5001f300 	andpl	pc, r1, r0, lsl #6
    1548:	0000009f 	muleq	r0, pc, r0	; <UNPREDICTABLE>
    154c:	00000000 	andeq	r0, r0, r0
    1550:	0003bc00 	andeq	fp, r3, r0, lsl #24
    1554:	0003cf00 	andeq	ip, r3, r0, lsl #30
    1558:	50000100 	andpl	r0, r0, r0, lsl #2
    155c:	000003cf 	andeq	r0, r0, pc, asr #7
    1560:	00000408 	andeq	r0, r0, r8, lsl #8
    1564:	08540001 	ldmdaeq	r4, {r0}^
    1568:	40000004 	andmi	r0, r0, r4
    156c:	04000004 	streq	r0, [r0], #-4
    1570:	5001f300 	andpl	pc, r1, r0, lsl #6
    1574:	0000009f 	muleq	r0, pc, r0	; <UNPREDICTABLE>
    1578:	00000000 	andeq	r0, r0, r0
    157c:	00042800 	andeq	r2, r4, r0, lsl #16
    1580:	00042c00 	andeq	r2, r4, r0, lsl #24
    1584:	50000100 	andpl	r0, r0, r0, lsl #2
    1588:	0000042c 	andeq	r0, r0, ip, lsr #8
    158c:	00000433 	andeq	r0, r0, r3, lsr r4
    1590:	00510001 	subseq	r0, r1, r1
    1594:	00000000 	andeq	r0, r0, r0
    1598:	e4000000 	str	r0, [r0], #-0
    159c:	ec000003 	stc	0, cr0, [r0], {3}
    15a0:	01000003 	tsteq	r0, r3
    15a4:	03ec5000 	mvneq	r5, #0
    15a8:	03f30000 	mvnseq	r0, #0
    15ac:	00010000 	andeq	r0, r1, r0
    15b0:	00000051 	andeq	r0, r0, r1, asr r0
    15b4:	00000000 	andeq	r0, r0, r0
    15b8:	00040400 	andeq	r0, r4, r0, lsl #8
    15bc:	00041000 	andeq	r1, r4, r0
    15c0:	50000100 	andpl	r0, r0, r0, lsl #2
    15c4:	00000410 	andeq	r0, r0, r0, lsl r4
    15c8:	00000417 	andeq	r0, r0, r7, lsl r4
    15cc:	00510001 	subseq	r0, r1, r1
    15d0:	00000000 	andeq	r0, r0, r0
    15d4:	40000000 	andmi	r0, r0, r0
    15d8:	53000004 	movwpl	r0, #4
    15dc:	01000004 	tsteq	r0, r4
    15e0:	04535000 	ldrbeq	r5, [r3], #-0
    15e4:	048c0000 	streq	r0, [ip], #0
    15e8:	00010000 	andeq	r0, r1, r0
    15ec:	00048c54 	andeq	r8, r4, r4, asr ip
    15f0:	0004c400 	andeq	ip, r4, r0, lsl #8
    15f4:	f3000400 	vshl.u8	d0, d0, d0
    15f8:	009f5001 	addseq	r5, pc, r1
    15fc:	00000000 	andeq	r0, r0, r0
    1600:	ac000000 	stcge	0, cr0, [r0], {-0}
    1604:	b0000004 	andlt	r0, r0, r4
    1608:	01000004 	tsteq	r0, r4
    160c:	04b05000 	ldrteq	r5, [r0], #0
    1610:	04b70000 	ldrteq	r0, [r7], #0
    1614:	00010000 	andeq	r0, r1, r0
    1618:	00000051 	andeq	r0, r0, r1, asr r0
    161c:	00000000 	andeq	r0, r0, r0
    1620:	00046800 	andeq	r6, r4, r0, lsl #16
    1624:	00047000 	andeq	r7, r4, r0
    1628:	50000100 	andpl	r0, r0, r0, lsl #2
    162c:	00000470 	andeq	r0, r0, r0, ror r4
    1630:	00000477 	andeq	r0, r0, r7, ror r4
    1634:	00510001 	subseq	r0, r1, r1
    1638:	00000000 	andeq	r0, r0, r0
    163c:	88000000 	stmdahi	r0, {}	; <UNPREDICTABLE>
    1640:	94000004 	strls	r0, [r0], #-4
    1644:	01000004 	tsteq	r0, r4
    1648:	04945000 	ldreq	r5, [r4], #0
    164c:	049b0000 	ldreq	r0, [fp], #0
    1650:	00010000 	andeq	r0, r1, r0
    1654:	00000051 	andeq	r0, r0, r1, asr r0
    1658:	00000000 	andeq	r0, r0, r0
    165c:	0004c400 	andeq	ip, r4, r0, lsl #8
    1660:	0004d700 	andeq	sp, r4, r0, lsl #14
    1664:	50000100 	andpl	r0, r0, r0, lsl #2
    1668:	000004d7 	ldrdeq	r0, [r0], -r7
    166c:	00000518 	andeq	r0, r0, r8, lsl r5
    1670:	18540001 	ldmdane	r4, {r0}^
    1674:	3c000005 	stccc	0, cr0, [r0], {5}
    1678:	04000005 	streq	r0, [r0], #-5
    167c:	5001f300 	andpl	pc, r1, r0, lsl #6
    1680:	00053c9f 	muleq	r5, pc, ip	; <UNPREDICTABLE>
    1684:	00054000 	andeq	r4, r5, r0
    1688:	50000100 	andpl	r0, r0, r0, lsl #2
    168c:	00000540 	andeq	r0, r0, r0, asr #10
    1690:	00000548 	andeq	r0, r0, r8, asr #10
    1694:	00540001 	subseq	r0, r4, r1
    1698:	00000000 	andeq	r0, r0, r0
    169c:	ec000000 	stc	0, cr0, [r0], {-0}
    16a0:	fb000004 	blx	16ba <_start-0x6946>
    16a4:	08000004 	stmdaeq	r0, {r2}
    16a8:	00743100 	rsbseq	r3, r4, r0, lsl #2
    16ac:	1a007024 	bne	1d744 <__bss_end__+0x13c84>
    16b0:	0000009f 	muleq	r0, pc, r0	; <UNPREDICTABLE>
    16b4:	00000000 	andeq	r0, r0, r0
    16b8:	00051800 	andeq	r1, r5, r0, lsl #16
    16bc:	00053000 	andeq	r3, r5, r0
    16c0:	54000100 	strpl	r0, [r0], #-256	; 0x100
	...
    16cc:	00000548 	andeq	r0, r0, r8, asr #10
    16d0:	0000055b 	andeq	r0, r0, fp, asr r5
    16d4:	5b500001 	blpl	14016e0 <__bss_end__+0x13f7c20>
    16d8:	80000005 	andhi	r0, r0, r5
    16dc:	01000005 	tsteq	r0, r5
    16e0:	05805400 	streq	r5, [r0, #1024]	; 0x400
    16e4:	05a00000 	streq	r0, [r0, #0]!
    16e8:	00040000 	andeq	r0, r4, r0
    16ec:	9f5001f3 	svcls	0x005001f3
	...
    16f8:	000000fc 	strdeq	r0, [r0], -ip
    16fc:	00000104 	andeq	r0, r0, r4, lsl #2
    1700:	04500001 	ldrbeq	r0, [r0], #-1
    1704:	28000001 	stmdacs	r0, {r0}
    1708:	01000001 	tsteq	r0, r1
    170c:	00005400 	andeq	r5, r0, r0, lsl #8
    1710:	00000000 	andeq	r0, r0, r0
	...

Disassembly of section .debug_aranges:

00000000 <.debug_aranges>:
   0:	0000001c 	andeq	r0, r0, ip, lsl r0
   4:	00000002 	andeq	r0, r0, r2
   8:	00040000 	andeq	r0, r4, r0
   c:	00000000 	andeq	r0, r0, r0
  10:	00008010 	andeq	r8, r0, r0, lsl r0
  14:	00000244 	andeq	r0, r0, r4, asr #4
	...
  20:	0000001c 	andeq	r0, r0, ip, lsl r0
  24:	057e0002 	ldrbeq	r0, [lr, #-2]!
  28:	00040000 	andeq	r0, r4, r0
  2c:	00000000 	andeq	r0, r0, r0
  30:	00008254 	andeq	r8, r0, r4, asr r2
  34:	0000024c 	andeq	r0, r0, ip, asr #4
	...
  40:	0000001c 	andeq	r0, r0, ip, lsl r0
  44:	0d650002 	stcleq	0, cr0, [r5, #-8]!
  48:	00040000 	andeq	r0, r4, r0
  4c:	00000000 	andeq	r0, r0, r0
  50:	000084a0 	andeq	r8, r0, r0, lsr #9
  54:	00000058 	andeq	r0, r0, r8, asr r0
	...
  60:	0000001c 	andeq	r0, r0, ip, lsl r0
  64:	0efa0002 	cdpeq	0, 15, cr0, cr10, cr2, {0}
  68:	00040000 	andeq	r0, r4, r0
  6c:	00000000 	andeq	r0, r0, r0
  70:	000084f8 	strdeq	r8, [r0], -r8	; <UNPREDICTABLE>
  74:	0000003c 	andeq	r0, r0, ip, lsr r0
	...
  80:	0000001c 	andeq	r0, r0, ip, lsl r0
  84:	10110002 	andsne	r0, r1, r2
  88:	00040000 	andeq	r0, r4, r0
  8c:	00000000 	andeq	r0, r0, r0
  90:	00008534 	andeq	r8, r0, r4, lsr r5
  94:	00000034 	andeq	r0, r0, r4, lsr r0
	...
  a0:	0000001c 	andeq	r0, r0, ip, lsl r0
  a4:	11030002 	tstne	r3, r2
  a8:	00040000 	andeq	r0, r4, r0
  ac:	00000000 	andeq	r0, r0, r0
  b0:	00008568 	andeq	r8, r0, r8, ror #10
  b4:	000004f8 	strdeq	r0, [r0], -r8
	...
  c0:	0000001c 	andeq	r0, r0, ip, lsl r0
  c4:	17880002 	strne	r0, [r8, r2]
  c8:	00040000 	andeq	r0, r4, r0
  cc:	00000000 	andeq	r0, r0, r0
  d0:	00008a60 	andeq	r8, r0, r0, ror #20
  d4:	00000028 	andeq	r0, r0, r8, lsr #32
	...
  e0:	0000001c 	andeq	r0, r0, ip, lsl r0
  e4:	188b0002 	stmne	fp, {r1}
  e8:	00040000 	andeq	r0, r4, r0
  ec:	00000000 	andeq	r0, r0, r0
  f0:	00008a88 	andeq	r8, r0, r8, lsl #21
  f4:	00000034 	andeq	r0, r0, r4, lsr r0
	...
 100:	0000001c 	andeq	r0, r0, ip, lsl r0
 104:	198e0002 	stmibne	lr, {r1}
 108:	00040000 	andeq	r0, r4, r0
 10c:	00000000 	andeq	r0, r0, r0
 110:	00008abc 			; <UNDEFINED> instruction: 0x00008abc
 114:	00000074 	andeq	r0, r0, r4, ror r0
	...
 120:	0000001c 	andeq	r0, r0, ip, lsl r0
 124:	1b3f0002 	blne	fc0134 <__bss_end__+0xfb6674>
 128:	00040000 	andeq	r0, r4, r0
 12c:	00000000 	andeq	r0, r0, r0
 130:	00008b30 	andeq	r8, r0, r0, lsr fp
 134:	00000088 	andeq	r0, r0, r8, lsl #1
	...
 140:	0000001c 	andeq	r0, r0, ip, lsl r0
 144:	1d1b0002 	ldcne	0, cr0, [fp, #-8]
 148:	00040000 	andeq	r0, r4, r0
 14c:	00000000 	andeq	r0, r0, r0
 150:	00008bb8 			; <UNDEFINED> instruction: 0x00008bb8
 154:	000005a0 	andeq	r0, r0, r0, lsr #11
	...
 160:	0000001c 	andeq	r0, r0, ip, lsl r0
 164:	25a10002 	strcs	r0, [r1, #2]!
 168:	00040000 	andeq	r0, r4, r0
 16c:	00000000 	andeq	r0, r0, r0
 170:	00009158 	andeq	r9, r0, r8, asr r1
 174:	00000154 	andeq	r0, r0, r4, asr r1
	...

Disassembly of section .debug_ranges:

00000000 <.debug_ranges>:
   0:	000001d8 	ldrdeq	r0, [r0], -r8
   4:	00000200 	andeq	r0, r0, r0, lsl #4
   8:	00000204 	andeq	r0, r0, r4, lsl #4
   c:	0000021c 	andeq	r0, r0, ip, lsl r2
	...
  18:	000001d8 	ldrdeq	r0, [r0], -r8
  1c:	000001f8 	strdeq	r0, [r0], -r8
  20:	00000204 	andeq	r0, r0, r4, lsl #4
  24:	00000214 	andeq	r0, r0, r4, lsl r2
	...
  30:	000000b4 	strheq	r0, [r0], -r4
  34:	000000d8 	ldrdeq	r0, [r0], -r8
  38:	000000dc 	ldrdeq	r0, [r0], -ip
  3c:	000000f0 	strdeq	r0, [r0], -r0	; <UNPREDICTABLE>
	...
  48:	00000294 	muleq	r0, r4, r2
  4c:	00000298 	muleq	r0, r8, r2
  50:	000002c8 	andeq	r0, r0, r8, asr #5
  54:	000004b8 			; <UNDEFINED> instruction: 0x000004b8
	...
  60:	00008abc 			; <UNDEFINED> instruction: 0x00008abc
  64:	00008b30 	andeq	r8, r0, r0, lsr fp
	...

Disassembly of section .debug_line:

00000000 <.debug_line>:
   0:	0000014e 	andeq	r0, r0, lr, asr #2
   4:	00d70002 	sbcseq	r0, r7, r2
   8:	01020000 	mrseq	r0, (UNDEF: 2)
   c:	000d0efb 	strdeq	r0, [sp], -fp
  10:	01010101 	tsteq	r1, r1, lsl #2
  14:	01000000 	mrseq	r0, (UNDEF: 0)
  18:	2f010000 	svccs	0x00010000
  1c:	2f727375 	svccs	0x00727375
  20:	61636f6c 	cmnvs	r3, ip, ror #30
  24:	65432f6c 	strbvs	r2, [r3, #-3948]	; 0xf6c
  28:	72616c6c 	rsbvc	r6, r1, #108, 24	; 0x6c00
  2c:	6d72612f 	ldfvse	f6, [r2, #-188]!	; 0xffffff44
  30:	6e6f6e2d 	cdpvs	14, 6, cr6, cr15, cr13, {1}
  34:	61652d65 	cmnvs	r5, r5, ror #26
  38:	342f6962 	strtcc	r6, [pc], #-2402	; 40 <_start-0x7fc0>
  3c:	332e382e 	teqcc	lr, #3014656	; 0x2e0000
  40:	3173632d 	cmncc	r3, sp, lsr #6
  44:	2f653037 	svccs	0x00653037
  48:	2f62696c 	svccs	0x0062696c
  4c:	2f636367 	svccs	0x00636367
  50:	2d6d7261 	sfmcs	f7, 2, [sp, #-388]!	; 0xfffffe7c
  54:	656e6f6e 	strbvs	r6, [lr, #-3950]!	; 0xf6e
  58:	6261652d 	rsbvs	r6, r1, #188743680	; 0xb400000
  5c:	2e342f69 	cdpcs	15, 3, cr2, cr4, cr9, {3}
  60:	2f332e38 	svccs	0x00332e38
  64:	6c636e69 	stclvs	14, cr6, [r3], #-420	; 0xfffffe5c
  68:	00656475 	rsbeq	r6, r5, r5, ror r4
  6c:	6573552f 	ldrbvs	r5, [r3, #-1327]!	; 0x52f
  70:	622f7372 	eorvs	r7, pc, #-939524095	; 0xc8000001
  74:	6e616972 	mcrvs	9, 3, r6, cr1, cr2, {3}
  78:	2f6e756a 	svccs	0x006e756a
  7c:	6b736544 	blvs	1cd9594 <__bss_end__+0x1ccfad4>
  80:	2f706f74 	svccs	0x00706f74
  84:	6f686373 	svcvs	0x00686373
  88:	572f6c6f 	strpl	r6, [pc, -pc, ror #24]!
  8c:	65746e69 	ldrbvs	r6, [r4, #-3689]!	; 0xe69
  90:	32393172 	eorscc	r3, r9, #-2147483620	; 0x8000001c
  94:	53432f30 	movtpl	r2, #16176	; 0x3f30
  98:	45303431 	ldrmi	r3, [r0, #-1073]!	; 0x431
  9c:	3173632f 	cmncc	r3, pc, lsr #6
  a0:	2d653034 	stclcs	0, cr3, [r5, #-208]!	; 0xffffff30
  a4:	69773032 	ldmdbvs	r7!, {r1, r4, r5, ip, sp}^
  a8:	696c2f6e 	stmdbvs	ip!, {r1, r2, r3, r5, r6, r8, r9, sl, fp, sp}^
  ac:	00697062 	rsbeq	r7, r9, r2, rrx
  b0:	63646100 	cmnvs	r4, #0, 2
  b4:	35313131 	ldrcc	r3, [r1, #-305]!	; 0x131
  b8:	0000632e 	andeq	r6, r0, lr, lsr #6
  bc:	74730000 	ldrbtvc	r0, [r3], #-0
  c0:	746e6964 	strbtvc	r6, [lr], #-2404	; 0x964
  c4:	6363672d 	cmnvs	r3, #11796480	; 0xb40000
  c8:	0100682e 	tsteq	r0, lr, lsr #16
  cc:	32690000 	rsbcc	r0, r9, #0
  d0:	00682e63 	rsbeq	r2, r8, r3, ror #28
  d4:	72000000 	andvc	r0, r0, #0
  d8:	682e6970 	stmdavs	lr!, {r4, r5, r6, r8, fp, sp, lr}
  dc:	00000200 	andeq	r0, r0, r0, lsl #4
  e0:	02050000 	andeq	r0, r5, #0
  e4:	00008010 	andeq	r8, r0, r0, lsl r0
  e8:	67011e03 	strvs	r1, [r1, -r3, lsl #28]
  ec:	83676783 	cmnhi	r7, #34340864	; 0x20c0000
  f0:	674b674d 	strbvs	r6, [fp, -sp, asr #14]
  f4:	034c8367 	movteq	r8, #50023	; 0xc367
  f8:	674b6668 	strbvs	r6, [fp, -r8, ror #12]
  fc:	4a170367 	bmi	5c0ea0 <__bss_end__+0x5b73e0>
 100:	2f4b2f2f 	svccs	0x004b2f2f
 104:	304a1803 	subcc	r1, sl, r3, lsl #16
 108:	00da834d 	sbcseq	r8, sl, sp, asr #6
 10c:	06010402 	streq	r0, [r1], -r2, lsl #8
 110:	00d8064a 	sbcseq	r0, r8, sl, asr #12
 114:	06010402 	streq	r0, [r1], -r2, lsl #8
 118:	00d80682 	sbcseq	r0, r8, r2, lsl #13
 11c:	06010402 	streq	r0, [r1], -r2, lsl #8
 120:	11030682 	smlabbne	r3, r2, r6, r0
 124:	0067a1d6 	ldrdeq	sl, [r7], #-22	; 0xffffffea	; <UNPREDICTABLE>
 128:	06010402 	streq	r0, [r1], -r2, lsl #8
 12c:	0402004a 	streq	r0, [r2], #-74	; 0x4a
 130:	0a030602 	beq	c1940 <__bss_end__+0xb7e80>
 134:	040200d6 	streq	r0, [r2], #-214	; 0xd6
 138:	02006702 	andeq	r6, r0, #524288	; 0x80000
 13c:	00670204 	rsbeq	r0, r7, r4, lsl #4
 140:	47020402 	strmi	r0, [r2, -r2, lsl #8]
 144:	002f4b67 	eoreq	r4, pc, r7, ror #22
 148:	2b010402 	blcs	41158 <__bss_end__+0x37698>
 14c:	0014024f 	andseq	r0, r4, pc, asr #4
 150:	01af0101 			; <UNDEFINED> instruction: 0x01af0101
 154:	00020000 	andeq	r0, r2, r0
 158:	00000126 	andeq	r0, r0, r6, lsr #2
 15c:	0efb0102 	cdpeq	1, 15, cr0, cr11, cr2, {0}
 160:	0101000d 	tsteq	r1, sp
 164:	00000101 	andeq	r0, r0, r1, lsl #2
 168:	00000100 	andeq	r0, r0, r0, lsl #2
 16c:	73752f01 	cmnvc	r5, #1, 30
 170:	6f6c2f72 	svcvs	0x006c2f72
 174:	2f6c6163 	svccs	0x006c6163
 178:	6c6c6543 	cfstr64vs	mvdx6, [ip], #-268	; 0xfffffef4
 17c:	612f7261 	teqvs	pc, r1, ror #4
 180:	6e2d6d72 	mcrvs	13, 1, r6, cr13, cr2, {3}
 184:	2d656e6f 	stclcs	14, cr6, [r5, #-444]!	; 0xfffffe44
 188:	69626165 	stmdbvs	r2!, {r0, r2, r5, r6, r8, sp, lr}^
 18c:	382e342f 	stmdacc	lr!, {r0, r1, r2, r3, r5, sl, ip, sp}
 190:	632d332e 	teqvs	sp, #-1207959552	; 0xb8000000
 194:	30373173 	eorscc	r3, r7, r3, ror r1
 198:	696c2f65 	stmdbvs	ip!, {r0, r2, r5, r6, r8, r9, sl, fp, sp}^
 19c:	63672f62 	cmnvs	r7, #392	; 0x188
 1a0:	72612f63 	rsbvc	r2, r1, #396	; 0x18c
 1a4:	6f6e2d6d 	svcvs	0x006e2d6d
 1a8:	652d656e 	strvs	r6, [sp, #-1390]!	; 0x56e
 1ac:	2f696261 	svccs	0x00696261
 1b0:	2e382e34 	mrccs	14, 1, r2, cr8, cr4, {1}
 1b4:	6e692f33 	mcrvs	15, 3, r2, cr9, cr3, {1}
 1b8:	64756c63 	ldrbtvs	r6, [r5], #-3171	; 0xc63
 1bc:	552f0065 	strpl	r0, [pc, #-101]!	; 15f <_start-0x7ea1>
 1c0:	73726573 	cmnvc	r2, #482344960	; 0x1cc00000
 1c4:	6972622f 	ldmdbvs	r2!, {r0, r1, r2, r3, r5, r9, sp, lr}^
 1c8:	756a6e61 	strbvc	r6, [sl, #-3681]!	; 0xe61
 1cc:	65442f6e 	strbvs	r2, [r4, #-3950]	; 0xf6e
 1d0:	6f746b73 	svcvs	0x00746b73
 1d4:	63732f70 	cmnvs	r3, #112, 30	; 0x1c0
 1d8:	6c6f6f68 	stclvs	15, cr6, [pc], #-416	; 40 <_start-0x7fc0>
 1dc:	6e69572f 	cdpvs	7, 6, cr5, cr9, cr15, {1}
 1e0:	31726574 	cmncc	r2, r4, ror r5
 1e4:	2f303239 	svccs	0x00303239
 1e8:	34315343 	ldrtcc	r5, [r1], #-835	; 0x343
 1ec:	632f4530 	teqvs	pc, #48, 10	; 0xc000000
 1f0:	30343173 	eorscc	r3, r4, r3, ror r1
 1f4:	30322d65 	eorscc	r2, r2, r5, ror #26
 1f8:	2f6e6977 	svccs	0x006e6977
 1fc:	7062696c 	rsbvc	r6, r2, ip, ror #18
 200:	73632f69 	cmnvc	r3, #420	; 0x1a4
 204:	65303431 	ldrvs	r3, [r0, #-1073]!	; 0x431
 208:	6372732d 	cmnvs	r2, #-1275068416	; 0xb4000000
 20c:	73552f00 	cmpvc	r5, #0, 30
 210:	2f737265 	svccs	0x00737265
 214:	61697262 	cmnvs	r9, r2, ror #4
 218:	6e756a6e 	vsubvs.f32	s13, s10, s29
 21c:	7365442f 	cmnvc	r5, #788529152	; 0x2f000000
 220:	706f746b 	rsbvc	r7, pc, fp, ror #8
 224:	6863732f 	stmdavs	r3!, {r0, r1, r2, r3, r5, r8, r9, ip, sp, lr}^
 228:	2f6c6f6f 	svccs	0x006c6f6f
 22c:	746e6957 	strbtvc	r6, [lr], #-2391	; 0x957
 230:	39317265 	ldmdbcc	r1!, {r0, r2, r5, r6, r9, ip, sp, lr}
 234:	432f3032 	teqmi	pc, #50	; 0x32
 238:	30343153 	eorscc	r3, r4, r3, asr r1
 23c:	73632f45 	cmnvc	r3, #276	; 0x114
 240:	65303431 	ldrvs	r3, [r0, #-1073]!	; 0x431
 244:	7730322d 	ldrvc	r3, [r0, -sp, lsr #4]!
 248:	6c2f6e69 	stcvs	14, cr6, [pc], #-420	; ac <_start-0x7f54>
 24c:	69706269 	ldmdbvs	r0!, {r0, r3, r5, r6, r9, sp, lr}^
 250:	796d0000 	stmdbvc	sp!, {}^	; <UNPREDICTABLE>
 254:	6332692d 	teqvs	r2, #737280	; 0xb4000
 258:	0000632e 	andeq	r6, r0, lr, lsr #6
 25c:	74730000 	ldrbtvc	r0, [r3], #-0
 260:	746e6964 	strbtvc	r6, [lr], #-2404	; 0x964
 264:	6363672d 	cmnvs	r3, #11796480	; 0xb40000
 268:	0100682e 	tsteq	r0, lr, lsr #16
 26c:	70670000 	rsbvc	r0, r7, r0
 270:	682e6f69 	stmdavs	lr!, {r0, r3, r5, r6, r8, r9, sl, fp, sp, lr}
 274:	00000200 	andeq	r0, r0, r0, lsl #4
 278:	2e697072 	mcrcs	0, 3, r7, cr9, cr2, {3}
 27c:	00030068 	andeq	r0, r3, r8, rrx
 280:	05000000 	streq	r0, [r0, #-0]
 284:	00825402 	addeq	r5, r2, r2, lsl #8
 288:	00c80300 	sbceq	r0, r8, r0, lsl #6
 28c:	032f2f01 	teqeq	pc, #1, 30
 290:	2f2f2e34 	svccs	0x002f2e34
 294:	2e019703 	cdpcs	7, 0, cr9, cr1, cr3, {0}
 298:	4a7f8b03 	bmi	1fe2eac <__bss_end__+0x1fd93ec>
 29c:	00308301 	eorseq	r8, r0, r1, lsl #6
 2a0:	06010402 	streq	r0, [r1], -r2, lsl #8
 2a4:	6885062e 	stmvs	r5, {r1, r2, r3, r5, r9, sl}
 2a8:	69696930 	stmdbvs	r9!, {r4, r5, r8, fp, sp, lr}^
 2ac:	00694c68 	rsbeq	r4, r9, r8, ror #24
 2b0:	06010402 	streq	r0, [r1], -r2, lsl #8
 2b4:	0402002e 	streq	r0, [r2], #-46	; 0x2e
 2b8:	83a10601 			; <UNDEFINED> instruction: 0x83a10601
 2bc:	002f6764 	eoreq	r6, pc, r4, ror #14
 2c0:	2c010402 	cfstrscs	mvf0, [r1], {2}
 2c4:	01040200 	mrseq	r0, R12_usr
 2c8:	bd30a06c 	ldclt	0, cr10, [r0, #-432]!	; 0xfffffe50
 2cc:	02003283 	andeq	r3, r0, #805306376	; 0x30000008
 2d0:	2e060104 	adfcss	f0, f6, f4
 2d4:	30688506 	rsbcc	r8, r8, r6, lsl #10
 2d8:	69696969 	stmdbvs	r9!, {r0, r3, r5, r6, r8, fp, sp, lr}^
 2dc:	2f2f4e2f 	svccs	0x002f4e2f
 2e0:	0402002c 	streq	r0, [r2], #-44	; 0x2c
 2e4:	64832f01 	strvs	r2, [r3], #3841	; 0xf01
 2e8:	01040200 	mrseq	r0, R12_usr
 2ec:	02002e06 	andeq	r2, r0, #6, 28	; 0x60
 2f0:	6c060104 	stfvss	f0, [r6], {4}
 2f4:	2fc230a1 	svccs	0x00c230a1
 2f8:	69673530 	stmdbvs	r7!, {r4, r5, r8, sl, ip, sp}^
 2fc:	4c306831 	ldcmi	8, cr6, [r0], #-196	; 0xffffff3c
 300:	01000602 	tsteq	r0, r2, lsl #12
 304:	00010201 	andeq	r0, r1, r1, lsl #4
 308:	eb000200 	bl	b10 <_start-0x74f0>
 30c:	02000000 	andeq	r0, r0, #0
 310:	0d0efb01 	vstreq	d15, [lr, #-4]
 314:	01010100 	mrseq	r0, (UNDEF: 17)
 318:	00000001 	andeq	r0, r0, r1
 31c:	01000001 	tsteq	r0, r1
 320:	6362696c 	cmnvs	r2, #108, 18	; 0x1b0000
 324:	73752f00 	cmnvc	r5, #0, 30
 328:	6f6c2f72 	svcvs	0x006c2f72
 32c:	2f6c6163 	svccs	0x006c6163
 330:	6c6c6543 	cfstr64vs	mvdx6, [ip], #-268	; 0xfffffef4
 334:	612f7261 	teqvs	pc, r1, ror #4
 338:	6e2d6d72 	mcrvs	13, 1, r6, cr13, cr2, {3}
 33c:	2d656e6f 	stclcs	14, cr6, [r5, #-444]!	; 0xfffffe44
 340:	69626165 	stmdbvs	r2!, {r0, r2, r5, r6, r8, sp, lr}^
 344:	382e342f 	stmdacc	lr!, {r0, r1, r2, r3, r5, sl, ip, sp}
 348:	632d332e 	teqvs	sp, #-1207959552	; 0xb8000000
 34c:	30373173 	eorscc	r3, r7, r3, ror r1
 350:	696c2f65 	stmdbvs	ip!, {r0, r2, r5, r6, r8, r9, sl, fp, sp}^
 354:	63672f62 	cmnvs	r7, #392	; 0x188
 358:	72612f63 	rsbvc	r2, r1, #396	; 0x18c
 35c:	6f6e2d6d 	svcvs	0x006e2d6d
 360:	652d656e 	strvs	r6, [sp, #-1390]!	; 0x56e
 364:	2f696261 	svccs	0x00696261
 368:	2e382e34 	mrccs	14, 1, r2, cr8, cr4, {1}
 36c:	6e692f33 	mcrvs	15, 3, r2, cr9, cr3, {1}
 370:	64756c63 	ldrbtvs	r6, [r5], #-3171	; 0xc63
 374:	552f0065 	strpl	r0, [pc, #-101]!	; 317 <_start-0x7ce9>
 378:	73726573 	cmnvc	r2, #482344960	; 0x1cc00000
 37c:	6972622f 	ldmdbvs	r2!, {r0, r1, r2, r3, r5, r9, sp, lr}^
 380:	756a6e61 	strbvc	r6, [sl, #-3681]!	; 0xe61
 384:	65442f6e 	strbvs	r2, [r4, #-3950]	; 0xf6e
 388:	6f746b73 	svcvs	0x00746b73
 38c:	63732f70 	cmnvs	r3, #112, 30	; 0x1c0
 390:	6c6f6f68 	stclvs	15, cr6, [pc], #-416	; 1f8 <_start-0x7e08>
 394:	6e69572f 	cdpvs	7, 6, cr5, cr9, cr15, {1}
 398:	31726574 	cmncc	r2, r4, ror r5
 39c:	2f303239 	svccs	0x00303239
 3a0:	34315343 	ldrtcc	r5, [r1], #-835	; 0x343
 3a4:	632f4530 	teqvs	pc, #48, 10	; 0xc000000
 3a8:	30343173 	eorscc	r3, r4, r3, ror r1
 3ac:	30322d65 	eorscc	r2, r2, r5, ror #26
 3b0:	2f6e6977 	svccs	0x006e6977
 3b4:	7062696c 	rsbvc	r6, r2, ip, ror #18
 3b8:	70000069 	andvc	r0, r0, r9, rrx
 3bc:	746e6972 	strbtvc	r6, [lr], #-2418	; 0x972
 3c0:	00632e6b 	rsbeq	r2, r3, fp, ror #28
 3c4:	73000001 	movwvc	r0, #1
 3c8:	72616474 	rsbvc	r6, r1, #116, 8	; 0x74000000
 3cc:	00682e67 	rsbeq	r2, r8, r7, ror #28
 3d0:	3c000002 	stccc	0, cr0, [r0], {2}
 3d4:	6c697562 	cfstr64vs	mvdx7, [r9], #-392	; 0xfffffe78
 3d8:	6e692d74 	mcrvs	13, 3, r2, cr9, cr4, {3}
 3dc:	0000003e 	andeq	r0, r0, lr, lsr r0
 3e0:	69707200 	ldmdbvs	r0!, {r9, ip, sp, lr}^
 3e4:	0300682e 	movweq	r6, #2094	; 0x82e
 3e8:	61760000 	cmnvs	r6, r0
 3ec:	6972702d 	ldmdbvs	r2!, {r0, r2, r3, r5, ip, sp, lr}^
 3f0:	2e6b746e 	cdpcs	4, 6, cr7, cr11, cr14, {3}
 3f4:	00010068 	andeq	r0, r1, r8, rrx
 3f8:	05000000 	streq	r0, [r0, #-0]
 3fc:	0084a002 	addeq	sl, r4, r2
 400:	4b6b1700 	blmi	1ac6008 <__bss_end__+0x1abc548>
 404:	0e0289bf 	mcreq	9, 0, r8, cr2, cr15, {5}
 408:	8a010100 	bhi	40810 <__bss_end__+0x36d50>
 40c:	02000000 	andeq	r0, r0, #0
 410:	00007200 	andeq	r7, r0, r0, lsl #4
 414:	fb010200 	blx	40c1e <__bss_end__+0x3715e>
 418:	01000d0e 	tsteq	r0, lr, lsl #26
 41c:	00010101 	andeq	r0, r1, r1, lsl #2
 420:	00010000 	andeq	r0, r1, r0
 424:	696c0100 	stmdbvs	ip!, {r8}^
 428:	2f006362 	svccs	0x00006362
 42c:	72657355 	rsbvc	r7, r5, #1409286145	; 0x54000001
 430:	72622f73 	rsbvc	r2, r2, #460	; 0x1cc
 434:	6a6e6169 	bvs	1b989e0 <__bss_end__+0x1b8ef20>
 438:	442f6e75 	strtmi	r6, [pc], #-3701	; 440 <_start-0x7bc0>
 43c:	746b7365 	strbtvc	r7, [fp], #-869	; 0x365
 440:	732f706f 	teqvc	pc, #111	; 0x6f
 444:	6f6f6863 	svcvs	0x006f6863
 448:	69572f6c 	ldmdbvs	r7, {r2, r3, r5, r6, r8, r9, sl, fp, sp}^
 44c:	7265746e 	rsbvc	r7, r5, #1845493760	; 0x6e000000
 450:	30323931 	eorscc	r3, r2, r1, lsr r9
 454:	3153432f 	cmpcc	r3, pc, lsr #6
 458:	2f453034 	svccs	0x00453034
 45c:	34317363 	ldrtcc	r7, [r1], #-867	; 0x363
 460:	322d6530 	eorcc	r6, sp, #48, 10	; 0xc000000
 464:	6e697730 	mcrvs	7, 3, r7, cr9, cr0, {1}
 468:	62696c2f 	rsbvs	r6, r9, #12032	; 0x2f00
 46c:	00006970 	andeq	r6, r0, r0, ror r9
 470:	63747570 	cmnvs	r4, #112, 10	; 0x1c000000
 474:	2e726168 	rpwcssz	f6, f2, #0.0
 478:	00010063 	andeq	r0, r1, r3, rrx
 47c:	69707200 	ldmdbvs	r0!, {r9, ip, sp, lr}^
 480:	0200682e 	andeq	r6, r0, #3014656	; 0x2e0000
 484:	00000000 	andeq	r0, r0, r0
 488:	84f80205 	ldrbthi	r0, [r8], #517	; 0x205
 48c:	4a140000 	bmi	500494 <__bss_end__+0x4f69d4>
 490:	13bc136b 			; <UNDEFINED> instruction: 0x13bc136b
 494:	01000802 	tsteq	r0, r2, lsl #16
 498:	00009601 	andeq	r9, r0, r1, lsl #12
 49c:	6f000200 	svcvs	0x00000200
 4a0:	02000000 	andeq	r0, r0, #0
 4a4:	0d0efb01 	vstreq	d15, [lr, #-4]
 4a8:	01010100 	mrseq	r0, (UNDEF: 17)
 4ac:	00000001 	andeq	r0, r0, r1
 4b0:	01000001 	tsteq	r0, r1
 4b4:	6362696c 	cmnvs	r2, #108, 18	; 0x1b0000
 4b8:	73552f00 	cmpvc	r5, #0, 30
 4bc:	2f737265 	svccs	0x00737265
 4c0:	61697262 	cmnvs	r9, r2, ror #4
 4c4:	6e756a6e 	vsubvs.f32	s13, s10, s29
 4c8:	7365442f 	cmnvc	r5, #788529152	; 0x2f000000
 4cc:	706f746b 	rsbvc	r7, pc, fp, ror #8
 4d0:	6863732f 	stmdavs	r3!, {r0, r1, r2, r3, r5, r8, r9, ip, sp, lr}^
 4d4:	2f6c6f6f 	svccs	0x006c6f6f
 4d8:	746e6957 	strbtvc	r6, [lr], #-2391	; 0x957
 4dc:	39317265 	ldmdbcc	r1!, {r0, r2, r5, r6, r9, ip, sp, lr}
 4e0:	432f3032 	teqmi	pc, #50	; 0x32
 4e4:	30343153 	eorscc	r3, r4, r3, asr r1
 4e8:	73632f45 	cmnvc	r3, #276	; 0x114
 4ec:	65303431 	ldrvs	r3, [r0, #-1073]!	; 0x431
 4f0:	7730322d 	ldrvc	r3, [r0, -sp, lsr #4]!
 4f4:	6c2f6e69 	stcvs	14, cr6, [pc], #-420	; 358 <_start-0x7ca8>
 4f8:	69706269 	ldmdbvs	r0!, {r0, r3, r5, r6, r9, sp, lr}^
 4fc:	75700000 	ldrbvc	r0, [r0, #-0]!
 500:	632e6b74 	teqvs	lr, #116, 22	; 0x1d000
 504:	00000100 	andeq	r0, r0, r0, lsl #2
 508:	2e697072 	mcrcs	0, 3, r7, cr9, cr2, {3}
 50c:	00020068 	andeq	r0, r2, r8, rrx
 510:	05000000 	streq	r0, [r0, #-0]
 514:	00853402 	addeq	r3, r5, r2, lsl #8
 518:	2d4c1500 	cfstr64cs	mvdx1, [ip, #-0]
 51c:	02040200 	andeq	r0, r4, #0, 4
 520:	0402002f 	streq	r0, [r2], #-47	; 0x2f
 524:	02004902 	andeq	r4, r0, #32768	; 0x8000
 528:	2e060104 	adfcss	f0, f6, f4
 52c:	06026b06 	streq	r6, [r2], -r6, lsl #22
 530:	de010100 	adfles	f0, f1, f0
 534:	02000001 	andeq	r0, r0, #1
 538:	0000df00 	andeq	sp, r0, r0, lsl #30
 53c:	fb010200 	blx	40d46 <__bss_end__+0x37286>
 540:	01000d0e 	tsteq	r0, lr, lsl #26
 544:	00010101 	andeq	r0, r1, r1, lsl #2
 548:	00010000 	andeq	r0, r1, r0
 54c:	696c0100 	stmdbvs	ip!, {r8}^
 550:	2f006362 	svccs	0x00006362
 554:	2f727375 	svccs	0x00727375
 558:	61636f6c 	cmnvs	r3, ip, ror #30
 55c:	65432f6c 	strbvs	r2, [r3, #-3948]	; 0xf6c
 560:	72616c6c 	rsbvc	r6, r1, #108, 24	; 0x6c00
 564:	6d72612f 	ldfvse	f6, [r2, #-188]!	; 0xffffff44
 568:	6e6f6e2d 	cdpvs	14, 6, cr6, cr15, cr13, {1}
 56c:	61652d65 	cmnvs	r5, r5, ror #26
 570:	342f6962 	strtcc	r6, [pc], #-2402	; 578 <_start-0x7a88>
 574:	332e382e 	teqcc	lr, #3014656	; 0x2e0000
 578:	3173632d 	cmncc	r3, sp, lsr #6
 57c:	2f653037 	svccs	0x00653037
 580:	2f62696c 	svccs	0x0062696c
 584:	2f636367 	svccs	0x00636367
 588:	2d6d7261 	sfmcs	f7, 2, [sp, #-388]!	; 0xfffffe7c
 58c:	656e6f6e 	strbvs	r6, [lr, #-3950]!	; 0xf6e
 590:	6261652d 	rsbvs	r6, r1, #188743680	; 0xb400000
 594:	2e342f69 	cdpcs	15, 3, cr2, cr4, cr9, {3}
 598:	2f332e38 	svccs	0x00332e38
 59c:	6c636e69 	stclvs	14, cr6, [r3], #-420	; 0xfffffe5c
 5a0:	00656475 	rsbeq	r6, r5, r5, ror r4
 5a4:	6573552f 	ldrbvs	r5, [r3, #-1327]!	; 0x52f
 5a8:	622f7372 	eorvs	r7, pc, #-939524095	; 0xc8000001
 5ac:	6e616972 	mcrvs	9, 3, r6, cr1, cr2, {3}
 5b0:	2f6e756a 	svccs	0x006e756a
 5b4:	6b736544 	blvs	1cd9acc <__bss_end__+0x1cd000c>
 5b8:	2f706f74 	svccs	0x00706f74
 5bc:	6f686373 	svcvs	0x00686373
 5c0:	572f6c6f 	strpl	r6, [pc, -pc, ror #24]!
 5c4:	65746e69 	ldrbvs	r6, [r4, #-3689]!	; 0xe69
 5c8:	32393172 	eorscc	r3, r9, #-2147483620	; 0x8000001c
 5cc:	53432f30 	movtpl	r2, #16176	; 0x3f30
 5d0:	45303431 	ldrmi	r3, [r0, #-1073]!	; 0x431
 5d4:	3173632f 	cmncc	r3, pc, lsr #6
 5d8:	2d653034 	stclcs	0, cr3, [r5, #-208]!	; 0xffffff30
 5dc:	69773032 	ldmdbvs	r7!, {r1, r4, r5, ip, sp}^
 5e0:	696c2f6e 	stmdbvs	ip!, {r1, r2, r3, r5, r6, r8, r9, sl, fp, sp}^
 5e4:	00697062 	rsbeq	r7, r9, r2, rrx
 5e8:	2d617600 	stclcs	6, cr7, [r1, #-0]
 5ec:	6e697270 	mcrvs	2, 3, r7, cr9, cr0, {3}
 5f0:	632e6b74 	teqvs	lr, #116, 22	; 0x1d000
 5f4:	00000100 	andeq	r0, r0, r0, lsl #2
 5f8:	61647473 	smcvs	18243	; 0x4743
 5fc:	682e6772 	stmdavs	lr!, {r1, r4, r5, r6, r8, r9, sl, sp, lr}
 600:	00000200 	andeq	r0, r0, r0, lsl #4
 604:	2e697072 	mcrcs	0, 3, r7, cr9, cr2, {3}
 608:	00030068 	andeq	r0, r3, r8, rrx
 60c:	75623c00 	strbvc	r3, [r2, #-3072]!	; 0xc00
 610:	2d746c69 	ldclcs	12, cr6, [r4, #-420]!	; 0xfffffe5c
 614:	003e6e69 	eorseq	r6, lr, r9, ror #28
 618:	00000000 	andeq	r0, r0, r0
 61c:	68020500 	stmdavs	r2, {r8, sl}
 620:	03000085 	movweq	r0, #133	; 0x85
 624:	a5010126 	strge	r0, [r1, #-294]	; 0x126
 628:	002d3113 	eoreq	r3, sp, r3, lsl r1
 62c:	2f020402 	svccs	0x00020402
 630:	02040200 	andeq	r0, r4, #0, 4
 634:	0402002d 	streq	r0, [r2], #-45	; 0x2d
 638:	02002f02 	andeq	r2, r0, #2, 30
 63c:	4c2d0104 	stfmis	f0, [sp], #-16
 640:	4b14304c 	blmi	50c778 <__bss_end__+0x502cb8>
 644:	02004f2f 	andeq	r4, r0, #47, 30	; 0xbc
 648:	00670204 	rsbeq	r0, r7, r4, lsl #4
 64c:	65010402 	strvs	r0, [r1, #-1026]	; 0x402
 650:	a0304d4c 	eorsge	r4, r0, ip, asr #26
 654:	0230312f 	eorseq	r3, r0, #-1073741813	; 0xc000000b
 658:	2d841626 	stccs	6, cr1, [r4, #152]	; 0x98
 65c:	0402002c 	streq	r0, [r2], #-44	; 0x2c
 660:	02003001 	andeq	r3, r0, #1
 664:	06330104 	ldrteq	r0, [r3], -r4, lsl #2
 668:	04020066 	streq	r0, [r2], #-102	; 0x66
 66c:	02002e01 	andeq	r2, r0, #1, 28
 670:	08060104 	stmdaeq	r6, {r2, r8}
 674:	032f6721 	teqeq	pc, #8650752	; 0x840000
 678:	13038273 	movwne	r8, #12915	; 0x3273
 67c:	0402002e 	streq	r0, [r2], #-46	; 0x2e
 680:	002e0601 	eoreq	r0, lr, r1, lsl #12
 684:	06010402 	streq	r0, [r1], -r2, lsl #8
 688:	034b6a9f 	movteq	r6, #47775	; 0xba9f
 68c:	21032e67 	tstcs	r3, r7, ror #28
 690:	0402002e 	streq	r0, [r2], #-46	; 0x2e
 694:	002e0601 	eoreq	r0, lr, r1, lsl #12
 698:	06010402 	streq	r0, [r1], -r2, lsl #8
 69c:	0402009f 	streq	r0, [r2], #-159	; 0x9f
 6a0:	f3d96a01 	vmlsl.u16	q11, d9, d1
 6a4:	087fa603 	ldmdaeq	pc!, {r0, r1, r9, sl, sp, pc}^	; <UNPREDICTABLE>
 6a8:	02002f20 	andeq	r2, r0, #32, 30	; 0x80
 6ac:	4a060104 	bmi	180ac4 <__bss_end__+0x177004>
 6b0:	2f4bd706 	svccs	0x004bd706
 6b4:	f200da03 	vpmax.s8	d13, d0, d3
 6b8:	03484c83 	movteq	r4, #35971	; 0x8c83
 6bc:	75032e0e 	strvc	r2, [r3, #-3598]	; 0xe0e
 6c0:	842f2f2e 	strthi	r2, [pc], #-3886	; 6c8 <_start-0x7938>
 6c4:	4d2d2f4b 	stcmi	15, cr2, [sp, #-300]!	; 0xfffffed4
 6c8:	832f3031 	teqhi	pc, #49	; 0x31
 6cc:	01040200 	mrseq	r0, R12_usr
 6d0:	0200a22c 	andeq	sl, r0, #44, 4	; 0xc0000002
 6d4:	4a060104 	bmi	180aec <__bss_end__+0x17702c>
 6d8:	3602d806 	strcc	sp, [r2], -r6, lsl #16
 6dc:	d60e0316 			; <UNDEFINED> instruction: 0xd60e0316
 6e0:	f3302108 	vrhadd.u<illegal width 64>	d2, d0, d8
 6e4:	f330f331 	vcge.u<illegal width 64>	d15, d0, d17
 6e8:	f3304b30 			; <UNDEFINED> instruction: 0xf3304b30
 6ec:	31230830 	teqcc	r3, r0, lsr r8
 6f0:	0402002f 	streq	r0, [r2], #-47	; 0x2f
 6f4:	02006501 	andeq	r6, r0, #4194304	; 0x400000
 6f8:	4a060204 	bmi	180f10 <__bss_end__+0x177450>
 6fc:	01040200 	mrseq	r0, R12_usr
 700:	66420306 	strbvs	r0, [r2], -r6, lsl #6
 704:	02040200 	andeq	r0, r4, #0, 4
 708:	03066606 	movweq	r6, #26118	; 0x6606
 70c:	684a00c2 	stmdavs	sl, {r1, r6, r7}^
 710:	01001002 	tsteq	r0, r2
 714:	00009301 	andeq	r9, r0, r1, lsl #6
 718:	7d000200 	sfmvc	f0, 4, [r0, #-0]
 71c:	02000000 	andeq	r0, r0, #0
 720:	0d0efb01 	vstreq	d15, [lr, #-4]
 724:	01010100 	mrseq	r0, (UNDEF: 17)
 728:	00000001 	andeq	r0, r0, r1
 72c:	01000001 	tsteq	r0, r1
 730:	34317363 	ldrtcc	r7, [r1], #-867	; 0x363
 734:	732d6530 	teqvc	sp, #48, 10	; 0xc000000
 738:	2f006372 	svccs	0x00006372
 73c:	72657355 	rsbvc	r7, r5, #1409286145	; 0x54000001
 740:	72622f73 	rsbvc	r2, r2, #460	; 0x1cc
 744:	6a6e6169 	bvs	1b98cf0 <__bss_end__+0x1b8f230>
 748:	442f6e75 	strtmi	r6, [pc], #-3701	; 750 <_start-0x78b0>
 74c:	746b7365 	strbtvc	r7, [fp], #-869	; 0x365
 750:	732f706f 	teqvc	pc, #111	; 0x6f
 754:	6f6f6863 	svcvs	0x006f6863
 758:	69572f6c 	ldmdbvs	r7, {r2, r3, r5, r6, r8, r9, sl, fp, sp}^
 75c:	7265746e 	rsbvc	r7, r5, #1845493760	; 0x6e000000
 760:	30323931 	eorscc	r3, r2, r1, lsr r9
 764:	3153432f 	cmpcc	r3, pc, lsr #6
 768:	2f453034 	svccs	0x00453034
 76c:	34317363 	ldrtcc	r7, [r1], #-867	; 0x363
 770:	322d6530 	eorcc	r6, sp, #48, 10	; 0xc000000
 774:	6e697730 	mcrvs	7, 3, r7, cr9, cr0, {1}
 778:	62696c2f 	rsbvs	r6, r9, #12032	; 0x2f00
 77c:	00006970 	andeq	r6, r0, r0, ror r9
 780:	61656c63 	cmnvs	r5, r3, ror #24
 784:	65722d6e 	ldrbvs	r2, [r2, #-3438]!	; 0xd6e
 788:	746f6f62 	strbtvc	r6, [pc], #-3938	; 790 <_start-0x7870>
 78c:	0100632e 	tsteq	r0, lr, lsr #6
 790:	70720000 	rsbsvc	r0, r2, r0
 794:	00682e69 	rsbeq	r2, r8, r9, ror #28
 798:	00000002 	andeq	r0, r0, r2
 79c:	60020500 	andvs	r0, r2, r0, lsl #10
 7a0:	1500008a 	strne	r0, [r0, #-138]	; 0x8a
 7a4:	024b832f 	subeq	r8, fp, #-1140850688	; 0xbc000000
 7a8:	01010006 	tsteq	r1, r6
 7ac:	0000009a 	muleq	r0, sl, r0
 7b0:	00770002 	rsbseq	r0, r7, r2
 7b4:	01020000 	mrseq	r0, (UNDEF: 2)
 7b8:	000d0efb 	strdeq	r0, [sp], -fp
 7bc:	01010101 	tsteq	r1, r1, lsl #2
 7c0:	01000000 	mrseq	r0, (UNDEF: 0)
 7c4:	63010000 	movwvs	r0, #4096	; 0x1000
 7c8:	30343173 	eorscc	r3, r4, r3, ror r1
 7cc:	72732d65 	rsbsvc	r2, r3, #6464	; 0x1940
 7d0:	552f0063 	strpl	r0, [pc, #-99]!	; 775 <_start-0x788b>
 7d4:	73726573 	cmnvc	r2, #482344960	; 0x1cc00000
 7d8:	6972622f 	ldmdbvs	r2!, {r0, r1, r2, r3, r5, r9, sp, lr}^
 7dc:	756a6e61 	strbvc	r6, [sl, #-3681]!	; 0xe61
 7e0:	65442f6e 	strbvs	r2, [r4, #-3950]	; 0xf6e
 7e4:	6f746b73 	svcvs	0x00746b73
 7e8:	63732f70 	cmnvs	r3, #112, 30	; 0x1c0
 7ec:	6c6f6f68 	stclvs	15, cr6, [pc], #-416	; 654 <_start-0x79ac>
 7f0:	6e69572f 	cdpvs	7, 6, cr5, cr9, cr15, {1}
 7f4:	31726574 	cmncc	r2, r4, ror r5
 7f8:	2f303239 	svccs	0x00303239
 7fc:	34315343 	ldrtcc	r5, [r1], #-835	; 0x343
 800:	632f4530 	teqvs	pc, #48, 10	; 0xc000000
 804:	30343173 	eorscc	r3, r4, r3, ror r1
 808:	30322d65 	eorscc	r2, r2, r5, ror #26
 80c:	2f6e6977 	svccs	0x006e6977
 810:	7062696c 	rsbvc	r6, r2, ip, ror #18
 814:	63000069 	movwvs	r0, #105	; 0x69
 818:	72617473 	rsbvc	r7, r1, #1929379840	; 0x73000000
 81c:	00632e74 	rsbeq	r2, r3, r4, ror lr
 820:	72000001 	andvc	r0, r0, #1
 824:	682e6970 	stmdavs	lr!, {r4, r5, r6, r8, fp, sp, lr}
 828:	00000200 	andeq	r0, r0, r0, lsl #4
 82c:	02050000 	andeq	r0, r5, #0
 830:	00008a88 	andeq	r8, r0, r8, lsl #21
 834:	32010c03 	andcc	r0, r1, #768	; 0x300
 838:	2f2d2f31 	svccs	0x002d2f31
 83c:	01040200 	mrseq	r0, R12_usr
 840:	4a0f0349 	bmi	3c156c <__bss_end__+0x3b7aac>
 844:	0006022f 	andeq	r0, r6, pc, lsr #4
 848:	00990101 	addseq	r0, r9, r1, lsl #2
 84c:	00020000 	andeq	r0, r2, r0
 850:	00000077 	andeq	r0, r0, r7, ror r0
 854:	0efb0102 	cdpeq	1, 15, cr0, cr11, cr2, {0}
 858:	0101000d 	tsteq	r1, sp
 85c:	00000101 	andeq	r0, r0, r1, lsl #2
 860:	00000100 	andeq	r0, r0, r0, lsl #2
 864:	31736301 	cmncc	r3, r1, lsl #6
 868:	2d653034 	stclcs	0, cr3, [r5, #-208]!	; 0xffffff30
 86c:	00637273 	rsbeq	r7, r3, r3, ror r2
 870:	6573552f 	ldrbvs	r5, [r3, #-1327]!	; 0x52f
 874:	622f7372 	eorvs	r7, pc, #-939524095	; 0xc8000001
 878:	6e616972 	mcrvs	9, 3, r6, cr1, cr2, {3}
 87c:	2f6e756a 	svccs	0x006e756a
 880:	6b736544 	blvs	1cd9d98 <__bss_end__+0x1cd02d8>
 884:	2f706f74 	svccs	0x00706f74
 888:	6f686373 	svcvs	0x00686373
 88c:	572f6c6f 	strpl	r6, [pc, -pc, ror #24]!
 890:	65746e69 	ldrbvs	r6, [r4, #-3689]!	; 0xe69
 894:	32393172 	eorscc	r3, r9, #-2147483620	; 0x8000001c
 898:	53432f30 	movtpl	r2, #16176	; 0x3f30
 89c:	45303431 	ldrmi	r3, [r0, #-1073]!	; 0x431
 8a0:	3173632f 	cmncc	r3, pc, lsr #6
 8a4:	2d653034 	stclcs	0, cr3, [r5, #-208]!	; 0xffffff30
 8a8:	69773032 	ldmdbvs	r7!, {r1, r4, r5, ip, sp}^
 8ac:	696c2f6e 	stmdbvs	ip!, {r1, r2, r3, r5, r6, r8, r9, sl, fp, sp}^
 8b0:	00697062 	rsbeq	r7, r9, r2, rrx
 8b4:	62657200 	rsbvs	r7, r5, #0, 4
 8b8:	2e746f6f 	cdpcs	15, 7, cr6, cr4, cr15, {3}
 8bc:	00010063 	andeq	r0, r1, r3, rrx
 8c0:	69707200 	ldmdbvs	r0!, {r9, ip, sp, lr}^
 8c4:	0200682e 	andeq	r6, r0, #3014656	; 0x2e0000
 8c8:	00000000 	andeq	r0, r0, r0
 8cc:	8abc0205 	bhi	fef010e8 <__bss_end__+0xfeef7628>
 8d0:	0d030000 	stceq	0, cr0, [r3, #-0]
 8d4:	2f311401 	svccs	0x00311401
 8d8:	4b2f1585 	blmi	bc5ef4 <__bss_end__+0xbbc434>
 8dc:	35672f4d 	strbcc	r2, [r7, #-3917]!	; 0xf4d
 8e0:	10026752 	andne	r6, r2, r2, asr r7
 8e4:	a3010100 	movwge	r0, #4352	; 0x1100
 8e8:	02000000 	andeq	r0, r0, #0
 8ec:	00007600 	andeq	r7, r0, r0, lsl #12
 8f0:	fb010200 	blx	410fa <__bss_end__+0x3763a>
 8f4:	01000d0e 	tsteq	r0, lr, lsl #26
 8f8:	00010101 	andeq	r0, r1, r1, lsl #2
 8fc:	00010000 	andeq	r0, r1, r0
 900:	73630100 	cmnvc	r3, #0, 2
 904:	65303431 	ldrvs	r3, [r0, #-1073]!	; 0x431
 908:	6372732d 	cmnvs	r2, #-1275068416	; 0xb4000000
 90c:	73552f00 	cmpvc	r5, #0, 30
 910:	2f737265 	svccs	0x00737265
 914:	61697262 	cmnvs	r9, r2, ror #4
 918:	6e756a6e 	vsubvs.f32	s13, s10, s29
 91c:	7365442f 	cmnvc	r5, #788529152	; 0x2f000000
 920:	706f746b 	rsbvc	r7, pc, fp, ror #8
 924:	6863732f 	stmdavs	r3!, {r0, r1, r2, r3, r5, r8, r9, ip, sp, lr}^
 928:	2f6c6f6f 	svccs	0x006c6f6f
 92c:	746e6957 	strbtvc	r6, [lr], #-2391	; 0x957
 930:	39317265 	ldmdbcc	r1!, {r0, r2, r5, r6, r9, ip, sp, lr}
 934:	432f3032 	teqmi	pc, #50	; 0x32
 938:	30343153 	eorscc	r3, r4, r3, asr r1
 93c:	73632f45 	cmnvc	r3, #276	; 0x114
 940:	65303431 	ldrvs	r3, [r0, #-1073]!	; 0x431
 944:	7730322d 	ldrvc	r3, [r0, -sp, lsr #4]!
 948:	6c2f6e69 	stcvs	14, cr6, [pc], #-420	; 7ac <_start-0x7854>
 94c:	69706269 	ldmdbvs	r0!, {r0, r3, r5, r6, r9, sp, lr}^
 950:	69740000 	ldmdbvs	r4!, {}^	; <UNPREDICTABLE>
 954:	2e72656d 	cdpcs	5, 7, cr6, cr2, cr13, {3}
 958:	00010063 	andeq	r0, r1, r3, rrx
 95c:	69707200 	ldmdbvs	r0!, {r9, ip, sp, lr}^
 960:	0200682e 	andeq	r6, r0, #3014656	; 0x2e0000
 964:	00000000 	andeq	r0, r0, r0
 968:	8b300205 	blhi	c01184 <__bss_end__+0xbf76c4>
 96c:	14160000 	ldrne	r0, [r6], #-0
 970:	02002d2f 	andeq	r2, r0, #3008	; 0xbc0
 974:	2e060104 	adfcss	f0, f6, f4
 978:	2f316d06 	svccs	0x00316d06
 97c:	31324d4b 	teqcc	r2, fp, asr #26
 980:	2f4c4b30 	svccs	0x004c4b30
 984:	842f2f6a 	strthi	r2, [pc], #-3946	; 98c <_start-0x7674>
 988:	0008022f 	andeq	r0, r8, pc, lsr #4
 98c:	01830101 	orreq	r0, r3, r1, lsl #2
 990:	00020000 	andeq	r0, r2, r0
 994:	000000ce 	andeq	r0, r0, lr, asr #1
 998:	0efb0102 	cdpeq	1, 15, cr0, cr11, cr2, {0}
 99c:	0101000d 	tsteq	r1, sp
 9a0:	00000101 	andeq	r0, r0, r1, lsl #2
 9a4:	00000100 	andeq	r0, r0, r0, lsl #2
 9a8:	31736301 	cmncc	r3, r1, lsl #6
 9ac:	2d653034 	stclcs	0, cr3, [r5, #-208]!	; 0xffffff30
 9b0:	00637273 	rsbeq	r7, r3, r3, ror r2
 9b4:	6573552f 	ldrbvs	r5, [r3, #-1327]!	; 0x52f
 9b8:	622f7372 	eorvs	r7, pc, #-939524095	; 0xc8000001
 9bc:	6e616972 	mcrvs	9, 3, r6, cr1, cr2, {3}
 9c0:	2f6e756a 	svccs	0x006e756a
 9c4:	6b736544 	blvs	1cd9edc <__bss_end__+0x1cd041c>
 9c8:	2f706f74 	svccs	0x00706f74
 9cc:	6f686373 	svcvs	0x00686373
 9d0:	572f6c6f 	strpl	r6, [pc, -pc, ror #24]!
 9d4:	65746e69 	ldrbvs	r6, [r4, #-3689]!	; 0xe69
 9d8:	32393172 	eorscc	r3, r9, #-2147483620	; 0x8000001c
 9dc:	53432f30 	movtpl	r2, #16176	; 0x3f30
 9e0:	45303431 	ldrmi	r3, [r0, #-1073]!	; 0x431
 9e4:	3173632f 	cmncc	r3, pc, lsr #6
 9e8:	2d653034 	stclcs	0, cr3, [r5, #-208]!	; 0xffffff30
 9ec:	69773032 	ldmdbvs	r7!, {r1, r4, r5, ip, sp}^
 9f0:	696c2f6e 	stmdbvs	ip!, {r1, r2, r3, r5, r6, r8, r9, sl, fp, sp}^
 9f4:	2f697062 	svccs	0x00697062
 9f8:	34317363 	ldrtcc	r7, [r1], #-867	; 0x363
 9fc:	732d6530 	teqvc	sp, #48, 10	; 0xc000000
 a00:	2f006372 	svccs	0x00006372
 a04:	72657355 	rsbvc	r7, r5, #1409286145	; 0x54000001
 a08:	72622f73 	rsbvc	r2, r2, #460	; 0x1cc
 a0c:	6a6e6169 	bvs	1b98fb8 <__bss_end__+0x1b8f4f8>
 a10:	442f6e75 	strtmi	r6, [pc], #-3701	; a18 <_start-0x75e8>
 a14:	746b7365 	strbtvc	r7, [fp], #-869	; 0x365
 a18:	732f706f 	teqvc	pc, #111	; 0x6f
 a1c:	6f6f6863 	svcvs	0x006f6863
 a20:	69572f6c 	ldmdbvs	r7, {r2, r3, r5, r6, r8, r9, sl, fp, sp}^
 a24:	7265746e 	rsbvc	r7, r5, #1845493760	; 0x6e000000
 a28:	30323931 	eorscc	r3, r2, r1, lsr r9
 a2c:	3153432f 	cmpcc	r3, pc, lsr #6
 a30:	2f453034 	svccs	0x00453034
 a34:	34317363 	ldrtcc	r7, [r1], #-867	; 0x363
 a38:	322d6530 	eorcc	r6, sp, #48, 10	; 0xc000000
 a3c:	6e697730 	mcrvs	7, 3, r7, cr9, cr0, {1}
 a40:	62696c2f 	rsbvs	r6, r9, #12032	; 0x2f00
 a44:	00006970 	andeq	r6, r0, r0, ror r9
 a48:	6f697067 	svcvs	0x00697067
 a4c:	0100632e 	tsteq	r0, lr, lsr #6
 a50:	70670000 	rsbvc	r0, r7, r0
 a54:	682e6f69 	stmdavs	lr!, {r0, r3, r5, r6, r8, r9, sl, fp, sp, lr}
 a58:	00000200 	andeq	r0, r0, r0, lsl #4
 a5c:	2e697072 	mcrcs	0, 3, r7, cr9, cr2, {3}
 a60:	00030068 	andeq	r0, r3, r8, rrx
 a64:	05000000 	streq	r0, [r0, #-0]
 a68:	008bb802 	addeq	fp, fp, r2, lsl #16
 a6c:	013e0300 	teqeq	lr, r0, lsl #6
 a70:	0869504e 	stmdaeq	r9!, {r1, r2, r3, r6, ip, lr}^
 a74:	67676721 	strbvs	r6, [r7, -r1, lsr #14]!
 a78:	32676767 	rsbcc	r6, r7, #27000832	; 0x19c0000
 a7c:	dc22084b 	stcle	8, cr0, [r2], #-300	; 0xfffffed4
 a80:	4e135131 	mrcmi	1, 0, r5, cr3, cr1, {1}
 a84:	31be3050 			; <UNDEFINED> instruction: 0x31be3050
 a88:	4f4d1350 	svcmi	0x004d1350
 a8c:	504cc030 	subpl	ip, ip, r0, lsr r0
 a90:	67210869 	strvs	r0, [r1, -r9, ror #16]!
 a94:	67676767 	strbvs	r6, [r7, -r7, ror #14]!
 a98:	084b3267 	stmdaeq	fp, {r0, r1, r2, r5, r6, r9, ip, sp}^
 a9c:	504ca321 	subpl	sl, ip, r1, lsr #6
 aa0:	0369842f 	cmneq	r9, #788529152	; 0x2f000000
 aa4:	0c038275 	sfmeq	f0, 1, [r3], {117}	; 0x75
 aa8:	4e304d2e 	cdpmi	13, 3, cr4, cr0, cr14, {1}
 aac:	6a4d4c4b 	bvs	1353be0 <__bss_end__+0x134a120>
 ab0:	2108696b 	tstcs	r8, fp, ror #18
 ab4:	67676767 	strbvs	r6, [r7, -r7, ror #14]!
 ab8:	4b326767 	blmi	c9a85c <__bss_end__+0xc90d9c>
 abc:	30c02208 	sbccc	r2, r0, r8, lsl #4
 ac0:	504e1351 	subpl	r1, lr, r1, asr r3
 ac4:	ba180330 	blt	60178c <__bss_end__+0x5f7ccc>
 ac8:	2f4c9f31 	svccs	0x004c9f31
 acc:	2f4e4d52 	svccs	0x004e4d52
 ad0:	684b674b 	stmdavs	fp, {r0, r1, r3, r6, r8, r9, sl, sp, lr}^
 ad4:	2f4c6767 	svccs	0x004c6767
 ad8:	6e4b2f67 	cdpvs	15, 4, cr2, cr11, cr7, {3}
 adc:	4b2f4e4c 	blmi	bd4414 <__bss_end__+0xbca954>
 ae0:	67684b67 	strbvs	r4, [r8, -r7, ror #22]!
 ae4:	672f4c67 	strvs	r4, [pc, -r7, ror #24]!
 ae8:	4b6d4b2f 	blmi	1b537ac <__bss_end__+0x1b49cec>
 aec:	674b2f4e 	strbvs	r2, [fp, -lr, asr #30]
 af0:	01040200 	mrseq	r0, R12_usr
 af4:	68066606 	stmdavs	r6, {r1, r2, r9, sl, sp, lr}
 af8:	02002f9f 	andeq	r2, r0, #636	; 0x27c
 afc:	4a060104 	bmi	180f14 <__bss_end__+0x177454>
 b00:	032f6806 	teqeq	pc, #393216	; 0x60000
 b04:	0e034a73 	mcreq	10, 0, r4, cr3, cr3, {3}
 b08:	4e4c4d2e 	cdpmi	13, 4, cr4, cr12, cr14, {1}
 b0c:	bcbc4b2f 	fldmiaxlt	ip!, {d4-d26}	;@ Deprecated
 b10:	01000602 	tsteq	r0, r2, lsl #12
 b14:	00010101 	andeq	r0, r1, r1, lsl #2
 b18:	ca000200 	bgt	1320 <_start-0x6ce0>
 b1c:	02000000 	andeq	r0, r0, #0
 b20:	0d0efb01 	vstreq	d15, [lr, #-4]
 b24:	01010100 	mrseq	r0, (UNDEF: 17)
 b28:	00000001 	andeq	r0, r0, r1
 b2c:	01000001 	tsteq	r0, r1
 b30:	732d796d 	teqvc	sp, #1785856	; 0x1b4000
 b34:	2f006372 	svccs	0x00006372
 b38:	72657355 	rsbvc	r7, r5, #1409286145	; 0x54000001
 b3c:	72622f73 	rsbvc	r2, r2, #460	; 0x1cc
 b40:	6a6e6169 	bvs	1b990ec <__bss_end__+0x1b8f62c>
 b44:	442f6e75 	strtmi	r6, [pc], #-3701	; b4c <_start-0x74b4>
 b48:	746b7365 	strbtvc	r7, [fp], #-869	; 0x365
 b4c:	732f706f 	teqvc	pc, #111	; 0x6f
 b50:	6f6f6863 	svcvs	0x006f6863
 b54:	69572f6c 	ldmdbvs	r7, {r2, r3, r5, r6, r8, r9, sl, fp, sp}^
 b58:	7265746e 	rsbvc	r7, r5, #1845493760	; 0x6e000000
 b5c:	30323931 	eorscc	r3, r2, r1, lsr r9
 b60:	3153432f 	cmpcc	r3, pc, lsr #6
 b64:	2f453034 	svccs	0x00453034
 b68:	34317363 	ldrtcc	r7, [r1], #-867	; 0x363
 b6c:	322d6530 	eorcc	r6, sp, #48, 10	; 0xc000000
 b70:	6e697730 	mcrvs	7, 3, r7, cr9, cr0, {1}
 b74:	62696c2f 	rsbvs	r6, r9, #12032	; 0x2f00
 b78:	632f6970 	teqvs	pc, #112, 18	; 0x1c0000
 b7c:	30343173 	eorscc	r3, r4, r3, ror r1
 b80:	72732d65 	rsbsvc	r2, r3, #6464	; 0x1940
 b84:	552f0063 	strpl	r0, [pc, #-99]!	; b29 <_start-0x74d7>
 b88:	73726573 	cmnvc	r2, #482344960	; 0x1cc00000
 b8c:	6972622f 	ldmdbvs	r2!, {r0, r1, r2, r3, r5, r9, sp, lr}^
 b90:	756a6e61 	strbvc	r6, [sl, #-3681]!	; 0xe61
 b94:	65442f6e 	strbvs	r2, [r4, #-3950]	; 0xf6e
 b98:	6f746b73 	svcvs	0x00746b73
 b9c:	63732f70 	cmnvs	r3, #112, 30	; 0x1c0
 ba0:	6c6f6f68 	stclvs	15, cr6, [pc], #-416	; a08 <_start-0x75f8>
 ba4:	6e69572f 	cdpvs	7, 6, cr5, cr9, cr15, {1}
 ba8:	31726574 	cmncc	r2, r4, ror r5
 bac:	2f303239 	svccs	0x00303239
 bb0:	34315343 	ldrtcc	r5, [r1], #-835	; 0x343
 bb4:	632f4530 	teqvs	pc, #48, 10	; 0xc000000
 bb8:	30343173 	eorscc	r3, r4, r3, ror r1
 bbc:	30322d65 	eorscc	r2, r2, r5, ror #26
 bc0:	2f6e6977 	svccs	0x006e6977
 bc4:	7062696c 	rsbvc	r6, r2, ip, ror #18
 bc8:	75000069 	strvc	r0, [r0, #-105]	; 0x69
 bcc:	2e747261 	cdpcs	2, 7, cr7, cr4, cr1, {3}
 bd0:	00010063 	andeq	r0, r1, r3, rrx
 bd4:	69706700 	ldmdbvs	r0!, {r8, r9, sl, sp, lr}^
 bd8:	00682e6f 	rsbeq	r2, r8, pc, ror #28
 bdc:	72000002 	andvc	r0, r0, #2
 be0:	682e6970 	stmdavs	lr!, {r4, r5, r6, r8, fp, sp, lr}
 be4:	00000300 	andeq	r0, r0, r0, lsl #6
 be8:	02050000 	andeq	r0, r5, #0
 bec:	00009158 	andeq	r9, r0, r8, asr r1
 bf0:	30013603 	andcc	r3, r1, r3, lsl #12
 bf4:	306d6733 	rsbcc	r6, sp, r3, lsr r7
 bf8:	676730d8 			; <UNDEFINED> instruction: 0x676730d8
 bfc:	68676767 	stmdavs	r7!, {r0, r1, r2, r5, r6, r8, r9, sl, sp, lr}^
 c00:	6a672f86 	bvs	19cca20 <__bss_end__+0x19c2f60>
 c04:	69676730 	stmdbvs	r7!, {r4, r5, r8, r9, sl, sp, lr}^
 c08:	4c6a672f 	stclmi	7, cr6, [sl], #-188	; 0xffffff44
 c0c:	2f2fc167 	svccs	0x002fc167
 c10:	49682f30 	stmdbmi	r8!, {r4, r5, r8, r9, sl, fp, sp}^
 c14:	00020230 	andeq	r0, r2, r0, lsr r2
 c18:	Address 0x0000000000000c18 is out of bounds.


Disassembly of section .debug_str:

00000000 <.debug_str>:
   0:	6d746f6e 	ldclvs	15, cr6, [r4, #-440]!	; 0xfffffe48
   4:	006e6961 	rsbeq	r6, lr, r1, ror #18
   8:	74726175 	ldrbtvc	r6, [r2], #-373	; 0x175
   c:	696e695f 	stmdbvs	lr!, {r0, r1, r2, r3, r4, r6, r8, fp, sp, lr}^
  10:	6e750074 	mrcvs	0, 3, r0, cr5, cr4, {3}
  14:	6e676973 	mcrvs	9, 3, r6, cr7, cr3, {3}
  18:	63206465 	teqvs	r0, #1694498816	; 0x65000000
  1c:	00726168 	rsbseq	r6, r2, r8, ror #2
  20:	616c6564 	cmnvs	ip, r4, ror #10
  24:	736d5f79 	cmnvc	sp, #484	; 0x1e4
  28:	656c6300 	strbvs	r6, [ip, #-768]!	; 0x300
  2c:	725f6e61 	subsvc	r6, pc, #1552	; 0x610
  30:	6f6f6265 	svcvs	0x006f6265
  34:	6f630074 	svcvs	0x00630074
  38:	6769666e 	strbvs	r6, [r9, -lr, ror #12]!
  3c:	6c61765f 	stclvs	6, cr7, [r1], #-380	; 0xfffffe84
  40:	6f687300 	svcvs	0x00687300
  44:	75207472 	strvc	r7, [r0, #-1138]!	; 0x472
  48:	6769736e 	strbvs	r7, [r9, -lr, ror #6]!
  4c:	2064656e 	rsbcs	r6, r4, lr, ror #10
  50:	00746e69 	rsbseq	r6, r4, r9, ror #28
  54:	5f633269 	svcpl	0x00633269
  58:	74696e69 	strbtvc	r6, [r9], #-3689	; 0xe69
  5c:	63326900 	teqvs	r2, #0, 18
  60:	6972775f 	ldmdbvs	r2!, {r0, r1, r2, r3, r4, r6, r8, r9, sl, ip, sp, lr}^
  64:	72006574 	andvc	r6, r0, #116, 10	; 0x1d000000
  68:	5f646578 	svcpl	0x00646578
  6c:	666e6f63 	strbtvs	r6, [lr], -r3, ror #30
  70:	73006769 	movwvc	r6, #1897	; 0x769
  74:	74726f68 	ldrbtvc	r6, [r2], #-3944	; 0xf68
  78:	746e6920 	strbtvc	r6, [lr], #-2336	; 0x920
  7c:	63646100 	cmnvs	r4, #0, 2
  80:	35313131 	ldrcc	r3, [r1, #-305]!	; 0x131
  84:	5f00632e 	svcpl	0x0000632e
  88:	4e55465f 	mrcmi	6, 2, r4, cr5, cr15, {2}
  8c:	4f495443 	svcmi	0x00495443
  90:	005f5f4e 	subseq	r5, pc, lr, asr #30
  94:	616c6564 	cmnvs	ip, r4, ror #10
  98:	73755f79 	cmnvc	r5, #484	; 0x1e4
  9c:	69727700 	ldmdbvs	r2!, {r8, r9, sl, ip, sp, lr}^
  a0:	645f6574 	ldrbvs	r6, [pc], #-1396	; a8 <_start-0x7f58>
  a4:	00617461 	rsbeq	r7, r1, r1, ror #8
  a8:	5f636461 	svcpl	0x00636461
  ac:	65736572 	ldrbvs	r6, [r3, #-1394]!	; 0x572
  b0:	6f6c0074 	svcvs	0x006c0074
  b4:	6c20676e 	stcvs	7, cr6, [r0], #-440	; 0xfffffe48
  b8:	20676e6f 	rsbcs	r6, r7, pc, ror #28
  bc:	69736e75 	ldmdbvs	r3!, {r0, r2, r4, r5, r6, r9, sl, fp, sp, lr}^
  c0:	64656e67 	strbtvs	r6, [r5], #-3687	; 0xe67
  c4:	746e6920 	strbtvc	r6, [lr], #-2336	; 0x920
  c8:	6e697500 	cdpvs	5, 6, cr7, cr9, cr0, {0}
  cc:	745f3874 	ldrbvc	r3, [pc], #-2164	; d4 <_start-0x7f2c>
  d0:	554e4700 	strbpl	r4, [lr, #-1792]	; 0x700
  d4:	34204320 	strtcc	r4, [r0], #-800	; 0x320
  d8:	332e382e 	teqcc	lr, #3014656	; 0x2e0000
  dc:	636d2d20 	cmnvs	sp, #32, 26	; 0x800
  e0:	613d7570 	teqvs	sp, r0, ror r5
  e4:	31316d72 	teqcc	r1, r2, ror sp
  e8:	7a6a3637 	bvc	1a8d9cc <__bss_end__+0x1a83f0c>
  ec:	20732d66 	rsbscs	r2, r3, r6, ror #26
  f0:	75746d2d 	ldrbvc	r6, [r4, #-3373]!	; 0xd2d
  f4:	613d656e 	teqvs	sp, lr, ror #10
  f8:	31316d72 	teqcc	r1, r2, ror sp
  fc:	7a6a3637 	bvc	1a8d9e0 <__bss_end__+0x1a83f20>
 100:	20732d66 	rsbscs	r2, r3, r6, ror #26
 104:	6467672d 	strbtvs	r6, [r7], #-1837	; 0x72d
 108:	4f2d2062 	svcmi	0x002d2062
 10c:	732d2067 	teqvc	sp, #103	; 0x67
 110:	673d6474 			; <UNDEFINED> instruction: 0x673d6474
 114:	3939756e 	ldmdbcc	r9!, {r1, r2, r3, r5, r6, r8, sl, ip, sp, lr}
 118:	66662d20 	strbtvs	r2, [r6], -r0, lsr #26
 11c:	73656572 	cmnvc	r5, #478150656	; 0x1c800000
 120:	646e6174 	strbtvs	r6, [lr], #-372	; 0x174
 124:	20676e69 	rsbcs	r6, r7, r9, ror #28
 128:	6c61662d 	stclvs	6, cr6, [r1], #-180	; 0xffffff4c
 12c:	2d6e6769 	stclcs	7, cr6, [lr, #-420]!	; 0xfffffe5c
 130:	636e7566 	cmnvs	lr, #427819008	; 0x19800000
 134:	6e6f6974 	mcrvs	9, 3, r6, cr15, cr4, {3}
 138:	00343d73 	eorseq	r3, r4, r3, ror sp
 13c:	5f636461 	svcpl	0x00636461
 140:	64616572 	strbtvs	r6, [r1], #-1394	; 0x572
 144:	73003631 	movwvc	r3, #1585	; 0x631
 148:	74657a69 	strbtvc	r7, [r5], #-2665	; 0xa69
 14c:	00657079 	rsbeq	r7, r5, r9, ror r0
 150:	676e6f6c 	strbvs	r6, [lr, -ip, ror #30]!
 154:	6e6f6c20 	cdpvs	12, 6, cr6, cr15, cr0, {1}
 158:	6e692067 	cdpvs	0, 6, cr2, cr9, cr7, {3}
 15c:	552f0074 	strpl	r0, [pc, #-116]!	; f0 <_start-0x7f10>
 160:	73726573 	cmnvc	r2, #482344960	; 0x1cc00000
 164:	6972622f 	ldmdbvs	r2!, {r0, r1, r2, r3, r5, r9, sp, lr}^
 168:	756a6e61 	strbvc	r6, [sl, #-3681]!	; 0xe61
 16c:	65442f6e 	strbvs	r2, [r4, #-3950]	; 0xf6e
 170:	6f746b73 	svcvs	0x00746b73
 174:	63732f70 	cmnvs	r3, #112, 30	; 0x1c0
 178:	6c6f6f68 	stclvs	15, cr6, [pc], #-416	; ffffffe0 <__bss_end__+0xffff6520>
 17c:	7270532f 	rsbsvc	r5, r0, #-1140850688	; 0xbc000000
 180:	31676e69 	cmncc	r7, r9, ror #28
 184:	2f303239 	svccs	0x00303239
 188:	34325343 	ldrtcc	r5, [r2], #-835	; 0x343
 18c:	2f584c30 	svccs	0x00584c30
 190:	34327363 	ldrtcc	r7, [r2], #-867	; 0x363
 194:	2d786c30 	ldclcs	12, cr6, [r8, #-192]!	; 0xffffff40
 198:	70733032 	rsbsvc	r3, r3, r2, lsr r0
 19c:	616c2f72 	smcvs	49906	; 0xc2f2
 1a0:	392f7362 	stmdbcc	pc!, {r1, r5, r6, r8, r9, ip, sp, lr}	; <UNPREDICTABLE>
 1a4:	6332692d 	teqvs	r2, #737280	; 0xb4000
 1a8:	6972642d 	ldmdbvs	r2!, {r0, r2, r3, r5, sl, sp, lr}^
 1ac:	2f726576 	svccs	0x00726576
 1b0:	65646f63 	strbvs	r6, [r4, #-3939]!	; 0xf63
 1b4:	6e697500 	cdpvs	5, 6, cr7, cr9, cr0, {0}
 1b8:	5f363174 	svcpl	0x00363174
 1bc:	32690074 	rsbcc	r0, r9, #116	; 0x74
 1c0:	65725f63 	ldrbvs	r5, [r2, #-3939]!	; 0xf63
 1c4:	64006461 	strvs	r6, [r0], #-1121	; 0x461
 1c8:	615f7665 	cmpvs	pc, r5, ror #12
 1cc:	00726464 	rsbseq	r6, r2, r4, ror #8
 1d0:	5f636461 	svcpl	0x00636461
 1d4:	74697277 	strbtvc	r7, [r9], #-631	; 0x277
 1d8:	00363165 	eorseq	r3, r6, r5, ror #2
 1dc:	5f697072 	svcpl	0x00697072
 1e0:	65736572 	ldrbvs	r6, [r3, #-1394]!	; 0x572
 1e4:	75705f74 	ldrbvc	r5, [r0, #-3956]!	; 0xf74
 1e8:	72006374 	andvc	r6, r0, #116, 6	; 0xd0000001
 1ec:	5f646165 	svcpl	0x00646165
 1f0:	61746164 	cmnvs	r4, r4, ror #2
 1f4:	725f7300 	subsvc	r7, pc, #0, 6
 1f8:	73696765 	cmnvc	r9, #26476544	; 0x1940000
 1fc:	00726574 	rsbseq	r6, r2, r4, ror r5
 200:	5f495052 	svcpl	0x00495052
 204:	00633269 	rsbeq	r3, r3, r9, ror #4
 208:	656e6f64 	strbvs	r6, [lr, #-3940]!	; 0xf64
 20c:	49504700 	ldmdbmi	r0, {r8, r9, sl, lr}^
 210:	55465f4f 	strbpl	r5, [r6, #-3919]	; 0xf4f
 214:	495f434e 	ldmdbmi	pc, {r1, r2, r3, r6, r8, r9, lr}^	; <UNPREDICTABLE>
 218:	5455504e 	ldrbpl	r5, [r5], #-78	; 0x4e
 21c:	755f5f00 	ldrbvc	r5, [pc, #-3840]	; fffff324 <__bss_end__+0xffff5864>
 220:	6573756e 	ldrbvs	r7, [r3, #-1390]!	; 0x56e
 224:	5f003064 	svcpl	0x00003064
 228:	756e755f 	strbvc	r7, [lr, #-1375]!	; 0x55f
 22c:	31646573 	smccc	18003	; 0x4653
 230:	755f5f00 	ldrbvc	r5, [pc, #-3840]	; fffff338 <__bss_end__+0xffff5878>
 234:	6573756e 	ldrbvs	r7, [r3, #-1390]!	; 0x56e
 238:	5f003264 	svcpl	0x00003264
 23c:	756e755f 	strbvc	r7, [lr, #-1375]!	; 0x55f
 240:	33646573 	cmncc	r4, #482344960	; 0x1cc00000
 244:	6f6c6300 	svcvs	0x006c6300
 248:	735f6b63 	cmpvc	pc, #101376	; 0x18c00
 24c:	74657274 	strbtvc	r7, [r5], #-628	; 0x274
 250:	745f6863 	ldrbvc	r6, [pc], #-2147	; 258 <_start-0x7da8>
 254:	6f656d69 	svcvs	0x00656d69
 258:	63007475 	movwvs	r7, #1141	; 0x475
 25c:	72746e6f 	rsbsvc	r6, r4, #1776	; 0x6f0
 260:	63006c6f 	movwvs	r6, #3183	; 0xc6f
 264:	6765725f 			; <UNDEFINED> instruction: 0x6765725f
 268:	65747369 	ldrbvs	r7, [r4, #-873]!	; 0x369
 26c:	65720072 	ldrbvs	r0, [r2, #-114]!	; 0x72
 270:	635f6461 	cmpvs	pc, #1627389952	; 0x61000000
 274:	61657200 	cmnvs	r5, r0, lsl #4
 278:	00735f64 	rsbseq	r5, r3, r4, ror #30
 27c:	636f6c63 	cmnvs	pc, #25344	; 0x6300
 280:	69645f6b 	stmdbvs	r4!, {r0, r1, r3, r5, r6, r8, r9, sl, fp, ip, lr}^
 284:	70670076 	rsbvc	r0, r7, r6, ror r0
 288:	735f6f69 	cmpvc	pc, #420	; 0x1a4
 28c:	665f7465 	ldrbvs	r7, [pc], -r5, ror #8
 290:	74636e75 	strbtvc	r6, [r3], #-3701	; 0xe75
 294:	006e6f69 	rsbeq	r6, lr, r9, ror #30
 298:	6e656c64 	cdpvs	12, 6, cr6, cr5, cr4, {3}
 29c:	746e6900 	strbtvc	r6, [lr], #-2304	; 0x900
 2a0:	6e690064 	cdpvs	0, 6, cr0, cr9, cr4, {3}
 2a4:	69007274 	stmdbvs	r0, {r2, r4, r5, r6, r9, ip, sp, lr}
 2a8:	0074746e 	rsbseq	r7, r4, lr, ror #8
 2ac:	65633269 	strbvs	r3, [r3, #-617]!	; 0x269
 2b0:	626e006e 	rsbvs	r0, lr, #110	; 0x6e
 2b4:	73657479 	cmnvc	r5, #2030043136	; 0x79000000
 2b8:	72756300 	rsbsvc	r6, r5, #0, 6
 2bc:	00635f72 	rsbeq	r5, r3, r2, ror pc
 2c0:	72727563 	rsbsvc	r7, r2, #415236096	; 0x18c00000
 2c4:	5300735f 	movwpl	r7, #863	; 0x35f
 2c8:	315f4c43 	cmpcc	pc, r3, asr #24
 2cc:	6f6c6300 	svcvs	0x006c6300
 2d0:	645f6b63 	ldrbvs	r6, [pc], #-2915	; 2d8 <_start-0x7d28>
 2d4:	79616c65 	stmdbvc	r1!, {r0, r2, r5, r6, sl, fp, sp, lr}^
 2d8:	65686300 	strbvs	r6, [r8, #-768]!	; 0x300
 2dc:	6c5f6b63 	mrrcvs	11, 6, r6, pc, cr3	; <UNPREDICTABLE>
 2e0:	756f7961 	strbvc	r7, [pc, #-2401]!	; fffff987 <__bss_end__+0xffff5ec7>
 2e4:	69750074 	ldmdbvs	r5!, {r2, r4, r5, r6}^
 2e8:	3233746e 	eorscc	r7, r3, #1845493760	; 0x6e000000
 2ec:	6300745f 	movwvs	r7, #1119	; 0x45f
 2f0:	6b746b6c 	blvs	1d1b0a8 <__bss_end__+0x1d115e8>
 2f4:	74757000 	ldrbtvc	r7, [r5], #-0
 2f8:	64003233 	strvs	r3, [r0], #-563	; 0x233
 2fc:	625f7665 	subsvs	r7, pc, #105906176	; 0x6500000
 300:	69727261 	ldmdbvs	r2!, {r0, r5, r6, r9, ip, sp, lr}^
 304:	73007265 	movwvc	r7, #613	; 0x265
 308:	75746174 	ldrbvc	r6, [r4, #-372]!	; 0x174
 30c:	50470073 	subpl	r0, r7, r3, ror r0
 310:	465f4f49 	ldrbmi	r4, [pc], -r9, asr #30
 314:	5f434e55 	svcpl	0x00434e55
 318:	5054554f 	subspl	r5, r4, pc, asr #10
 31c:	66005455 			; <UNDEFINED> instruction: 0x66005455
 320:	006f6669 	rsbeq	r6, pc, r9, ror #12
 324:	33746567 	cmncc	r4, #432013312	; 0x19c00000
 328:	70670032 	rsbvc	r0, r7, r2, lsr r0
 32c:	665f6f69 	ldrbvs	r6, [pc], -r9, ror #30
 330:	5f636e75 	svcpl	0x00636e75
 334:	50470074 	subpl	r0, r7, r4, ror r0
 338:	465f4f49 	ldrbmi	r4, [pc], -r9, asr #30
 33c:	5f434e55 	svcpl	0x00434e55
 340:	30544c41 	subscc	r4, r4, r1, asr #24
 344:	49504700 	ldmdbmi	r0, {r8, r9, sl, lr}^
 348:	55465f4f 	strbpl	r5, [r6, #-3919]	; 0xf4f
 34c:	415f434e 	cmpmi	pc, lr, asr #6
 350:	0031544c 	eorseq	r5, r1, ip, asr #8
 354:	4f495047 	svcmi	0x00495047
 358:	4e55465f 	mrcmi	6, 2, r4, cr5, cr15, {2}
 35c:	4c415f43 	mcrrmi	15, 4, r5, r1, cr3
 360:	47003254 	smlsdmi	r0, r4, r2, r3
 364:	5f4f4950 	svcpl	0x004f4950
 368:	434e5546 	movtmi	r5, #58694	; 0xe546
 36c:	544c415f 	strbpl	r4, [ip], #-351	; 0x15f
 370:	50470033 	subpl	r0, r7, r3, lsr r0
 374:	465f4f49 	ldrbmi	r4, [pc], -r9, asr #30
 378:	5f434e55 	svcpl	0x00434e55
 37c:	34544c41 	ldrbcc	r4, [r4], #-3137	; 0xc41
 380:	49504700 	ldmdbmi	r0, {r8, r9, sl, lr}^
 384:	55465f4f 	strbpl	r5, [r6, #-3919]	; 0xf4f
 388:	415f434e 	cmpmi	pc, lr, asr #6
 38c:	0035544c 	eorseq	r5, r5, ip, asr #8
 390:	5f414453 	svcpl	0x00414453
 394:	796d0031 	stmdbvc	sp!, {r0, r4, r5}^
 398:	6332692d 	teqvs	r2, #737280	; 0xb4000
 39c:	5f00632e 	svcpl	0x0000632e
 3a0:	756e675f 	strbvc	r6, [lr, #-1887]!	; 0x75f
 3a4:	61765f63 	cmnvs	r6, r3, ror #30
 3a8:	73696c5f 	cmnvc	r9, #24320	; 0x5f00
 3ac:	696c0074 	stmdbvs	ip!, {r2, r4, r5, r6}^
 3b0:	702f6362 	eorvc	r6, pc, r2, ror #6
 3b4:	746e6972 	strbtvc	r6, [lr], #-2418	; 0x972
 3b8:	00632e6b 	rsbeq	r2, r3, fp, ror #28
 3bc:	20554e47 	subscs	r4, r5, r7, asr #28
 3c0:	2e342043 	cdpcs	0, 3, cr2, cr4, cr3, {2}
 3c4:	20332e38 	eorscs	r2, r3, r8, lsr lr
 3c8:	70636d2d 	rsbvc	r6, r3, sp, lsr #26
 3cc:	72613d75 	rsbvc	r3, r1, #7488	; 0x1d40
 3d0:	3731316d 	ldrcc	r3, [r1, -sp, ror #2]!
 3d4:	667a6a36 			; <UNDEFINED> instruction: 0x667a6a36
 3d8:	2d20732d 	stccs	3, cr7, [r0, #-180]!	; 0xffffff4c
 3dc:	6e75746d 	cdpvs	4, 7, cr7, cr5, cr13, {3}
 3e0:	72613d65 	rsbvc	r3, r1, #6464	; 0x1940
 3e4:	3731316d 	ldrcc	r3, [r1, -sp, ror #2]!
 3e8:	667a6a36 			; <UNDEFINED> instruction: 0x667a6a36
 3ec:	2d20732d 	stccs	3, cr7, [r0, #-180]!	; 0xffffff4c
 3f0:	62646767 	rsbvs	r6, r4, #27000832	; 0x19c0000
 3f4:	674f2d20 	strbvs	r2, [pc, -r0, lsr #26]
 3f8:	74732d20 	ldrbtvc	r2, [r3], #-3360	; 0xd20
 3fc:	6e673d64 	cdpvs	13, 6, cr3, cr7, cr4, {3}
 400:	20393975 	eorscs	r3, r9, r5, ror r9
 404:	7266662d 	rsbvc	r6, r6, #47185920	; 0x2d00000
 408:	74736565 	ldrbtvc	r6, [r3], #-1381	; 0x565
 40c:	69646e61 	stmdbvs	r4!, {r0, r5, r6, r9, sl, fp, sp, lr}^
 410:	7600676e 	strvc	r6, [r0], -lr, ror #14
 414:	72705f61 	rsbsvc	r5, r0, #388	; 0x184
 418:	6b746e69 	blvs	1d1bdc4 <__bss_end__+0x1d12304>
 41c:	765f5f00 	ldrbvc	r5, [pc], -r0, lsl #30
 420:	696c5f61 	stmdbvs	ip!, {r0, r5, r6, r8, r9, sl, fp, ip, lr}^
 424:	2f007473 	svccs	0x00007473
 428:	72657355 	rsbvc	r7, r5, #1409286145	; 0x54000001
 42c:	72622f73 	rsbvc	r2, r2, #460	; 0x1cc
 430:	6a6e6169 	bvs	1b989dc <__bss_end__+0x1b8ef1c>
 434:	442f6e75 	strtmi	r6, [pc], #-3701	; 43c <_start-0x7bc4>
 438:	746b7365 	strbtvc	r7, [fp], #-869	; 0x365
 43c:	732f706f 	teqvc	pc, #111	; 0x6f
 440:	6f6f6863 	svcvs	0x006f6863
 444:	69572f6c 	ldmdbvs	r7, {r2, r3, r5, r6, r8, r9, sl, fp, sp}^
 448:	7265746e 	rsbvc	r7, r5, #1845493760	; 0x6e000000
 44c:	30323931 	eorscc	r3, r2, r1, lsr r9
 450:	3153432f 	cmpcc	r3, pc, lsr #6
 454:	2f453034 	svccs	0x00453034
 458:	34317363 	ldrtcc	r7, [r1], #-867	; 0x363
 45c:	322d6530 	eorcc	r6, sp, #48, 10	; 0xc000000
 460:	6e697730 	mcrvs	7, 3, r7, cr9, cr0, {1}
 464:	62696c2f 	rsbvs	r6, r9, #12032	; 0x2f00
 468:	61006970 	tstvs	r0, r0, ror r9
 46c:	00736772 	rsbseq	r6, r3, r2, ror r7
 470:	70615f5f 	rsbvc	r5, r1, pc, asr pc
 474:	72617500 	rsbvc	r7, r1, #0, 10
 478:	75705f74 	ldrbvc	r5, [r0, #-3956]!	; 0xf74
 47c:	69006374 	stmdbvs	r0, {r2, r4, r5, r6, r8, r9, sp, lr}
 480:	7265746e 	rsbvc	r7, r5, #1845493760	; 0x6e000000
 484:	5f6c616e 	svcpl	0x006c616e
 488:	63747570 	cmnvs	r4, #112, 10	; 0x1c000000
 48c:	00726168 	rsbseq	r6, r2, r8, ror #2
 490:	5f697072 	svcpl	0x00697072
 494:	63747570 	cmnvs	r4, #112, 10	; 0x1c000000
 498:	00726168 	rsbseq	r6, r2, r8, ror #2
 49c:	6362696c 	cmnvs	r2, #108, 18	; 0x1b0000
 4a0:	7475702f 	ldrbtvc	r7, [r5], #-47	; 0x2f
 4a4:	72616863 	rsbvc	r6, r1, #6488064	; 0x630000
 4a8:	7200632e 	andvc	r6, r0, #-1207959552	; 0xb8000000
 4ac:	735f6970 	cmpvc	pc, #112, 18	; 0x1c0000
 4b0:	705f7465 	subsvc	r7, pc, r5, ror #8
 4b4:	00637475 	rsbeq	r7, r3, r5, ror r4
 4b8:	6362696c 	cmnvs	r2, #108, 18	; 0x1b0000
 4bc:	7475702f 	ldrbtvc	r7, [r5], #-47	; 0x2f
 4c0:	00632e6b 	rsbeq	r2, r3, fp, ror #28
 4c4:	65746e69 	ldrbvs	r6, [r4, #-3689]!	; 0xe69
 4c8:	6c616e72 	stclvs	14, cr6, [r1], #-456	; 0xfffffe38
 4cc:	7475705f 	ldrbtvc	r7, [r5], #-95	; 0x5f
 4d0:	656e006b 	strbvs	r0, [lr, #-107]!	; 0x6b
 4d4:	00705f67 	rsbseq	r5, r0, r7, ror #30
 4d8:	65766572 	ldrbvs	r6, [r6, #-1394]!	; 0x572
 4dc:	00657372 	rsbeq	r7, r5, r2, ror r3
 4e0:	69647369 	stmdbvs	r4!, {r0, r3, r5, r6, r8, r9, ip, sp, lr}^
 4e4:	00746967 	rsbseq	r6, r4, r7, ror #18
 4e8:	73747570 	cmnvc	r4, #112, 10	; 0x1c000000
 4ec:	0070665f 	rsbseq	r6, r0, pc, asr r6
 4f0:	65736162 	ldrbvs	r6, [r3, #-354]!	; 0x162
 4f4:	67697300 	strbvs	r7, [r9, -r0, lsl #6]!
 4f8:	5f64656e 	svcpl	0x0064656e
 4fc:	696c0070 	stmdbvs	ip!, {r4, r5, r6}^
 500:	762f6362 	strtvc	r6, [pc], -r2, ror #6
 504:	72702d61 	rsbsvc	r2, r0, #6208	; 0x1840
 508:	6b746e69 	blvs	1d1beb4 <__bss_end__+0x1d123f4>
 50c:	7200632e 	andvc	r6, r0, #-1207959552	; 0xb8000000
 510:	735f6970 	cmpvc	pc, #112, 18	; 0x1c0000
 514:	6f5f7465 	svcvs	0x005f7465
 518:	75707475 	ldrbvc	r7, [r0, #-1141]!	; 0x475
 51c:	69770074 	ldmdbvs	r7!, {r2, r4, r5, r6}^
 520:	00687464 	rsbeq	r7, r8, r4, ror #8
 524:	63747570 	cmnvs	r4, #112, 10	; 0x1c000000
 528:	0070665f 	rsbseq	r6, r0, pc, asr r6
 52c:	74696d65 	strbtvc	r6, [r9], #-3429	; 0xd65
 530:	69707200 	ldmdbvs	r0!, {r9, ip, sp, lr}^
 534:	6265725f 	rsbvs	r7, r5, #-268435451	; 0xf0000005
 538:	00746f6f 	rsbseq	r6, r4, pc, ror #30
 53c:	34317363 	ldrtcc	r7, [r1], #-867	; 0x363
 540:	732d6530 	teqvc	sp, #48, 10	; 0xc000000
 544:	632f6372 	teqvs	pc, #-939524095	; 0xc8000001
 548:	6e61656c 	cdpvs	5, 6, cr6, cr1, cr12, {3}
 54c:	6265722d 	rsbvs	r7, r5, #-805306366	; 0xd0000002
 550:	2e746f6f 	cdpcs	15, 7, cr6, cr4, cr15, {3}
 554:	73630063 	cmnvc	r3, #99	; 0x63
 558:	65303431 	ldrvs	r3, [r0, #-1073]!	; 0x431
 55c:	6372732d 	cmnvs	r2, #-1275068416	; 0xb4000000
 560:	7473632f 	ldrbtvc	r6, [r3], #-815	; 0x32f
 564:	2e747261 	cdpcs	2, 7, cr7, cr4, cr1, {3}
 568:	5f5f0063 	svcpl	0x005f0063
 56c:	5f737362 	svcpl	0x00737362
 570:	72617473 	rsbvc	r7, r1, #1929379840	; 0x73000000
 574:	005f5f74 	subseq	r5, pc, r4, ror pc	; <UNPREDICTABLE>
 578:	73625f5f 	cmnvc	r2, #380	; 0x17c
 57c:	6e655f73 	mcrvs	15, 3, r5, cr5, cr3, {3}
 580:	005f5f64 	subseq	r5, pc, r4, ror #30
 584:	5f737362 	svcpl	0x00737362
 588:	00646e65 	rsbeq	r6, r4, r5, ror #28
 58c:	7473635f 	ldrbtvc	r6, [r3], #-863	; 0x35f
 590:	00747261 	rsbseq	r7, r4, r1, ror #4
 594:	755f7461 	ldrbvc	r7, [pc, #-1121]	; 13b <_start-0x7ec5>
 598:	5f726573 	svcpl	0x00726573
 59c:	6576656c 	ldrbvs	r6, [r6, #-1388]!	; 0x56c
 5a0:	4d50006c 	ldclmi	0, cr0, [r0, #-432]	; 0xfffffe50
 5a4:	5341505f 	movtpl	r5, #4191	; 0x105f
 5a8:	524f5753 	subpl	r5, pc, #21757952	; 0x14c0000
 5ac:	73630044 	cmnvc	r3, #68	; 0x44
 5b0:	65303431 	ldrvs	r3, [r0, #-1073]!	; 0x431
 5b4:	6372732d 	cmnvs	r2, #-1275068416	; 0xb4000000
 5b8:	6265722f 	rsbvs	r7, r5, #-268435454	; 0xf0000002
 5bc:	2e746f6f 	cdpcs	15, 7, cr6, cr4, cr15, {3}
 5c0:	4d500063 	ldclmi	0, cr0, [r0, #-396]	; 0xfffffe74
 5c4:	5453525f 	ldrbpl	r5, [r3], #-607	; 0x25f
 5c8:	52575f43 	subspl	r5, r7, #268	; 0x10c
 5cc:	5f474643 	svcpl	0x00474643
 5d0:	4c4c5546 	cfstr64mi	mvdx5, [ip], {70}	; 0x46
 5d4:	5345525f 	movtpl	r5, #21087	; 0x525f
 5d8:	50005445 	andpl	r5, r0, r5, asr #8
 5dc:	44575f4d 	ldrbmi	r5, [r7], #-3917	; 0xf4d
 5e0:	7300474f 	movwvc	r4, #1871	; 0x74f
 5e4:	755f7465 	ldrbvc	r7, [pc, #-1125]	; 187 <_start-0x7e79>
 5e8:	5f726573 	svcpl	0x00726573
 5ec:	6576656c 	ldrbvs	r6, [r6, #-1388]!	; 0x56c
 5f0:	5550006c 	ldrbpl	r0, [r0, #-108]	; 0x6c
 5f4:	00323354 	eorseq	r3, r2, r4, asr r3
 5f8:	525f4d50 	subspl	r4, pc, #80, 26	; 0x1400
 5fc:	00435453 	subeq	r5, r3, r3, asr r4
 600:	72737063 	rsbsvc	r7, r3, #99	; 0x63
 604:	6d697400 	cfstrdvs	mvd7, [r9, #-0]
 608:	675f7265 	ldrbvs	r7, [pc, -r5, ror #4]
 60c:	755f7465 	ldrbvc	r7, [pc, #-1125]	; 1af <_start-0x7e51>
 610:	5f636573 	svcpl	0x00636573
 614:	00776172 	rsbseq	r6, r7, r2, ror r1
 618:	616c6564 	cmnvs	ip, r4, ror #10
 61c:	65735f79 	ldrbvs	r5, [r3, #-3961]!	; 0xf79
 620:	73630063 	cmnvc	r3, #99	; 0x63
 624:	65303431 	ldrvs	r3, [r0, #-1073]!	; 0x431
 628:	6372732d 	cmnvs	r2, #-1275068416	; 0xb4000000
 62c:	6d69742f 	cfstrdvs	mvd7, [r9, #-188]!	; 0xffffff44
 630:	632e7265 	teqvs	lr, #1342177286	; 0x50000006
 634:	54454700 	strbpl	r4, [r5], #-1792	; 0x700
 638:	74003233 	strvc	r3, [r0], #-563	; 0x233
 63c:	736b6369 	cmnvc	fp, #-1543503871	; 0xa4000001
 640:	6c656400 	cfstrdvs	mvd6, [r5], #-0
 644:	635f7961 	cmpvs	pc, #1589248	; 0x184000
 648:	656c6379 	strbvs	r6, [ip, #-889]!	; 0x379
 64c:	69740073 	ldmdbvs	r4!, {r0, r1, r4, r5, r6}^
 650:	5f72656d 	svcpl	0x0072656d
 654:	5f746567 	svcpl	0x00746567
 658:	63657375 	cmnvs	r5, #-738197503	; 0xd4000001
 65c:	69706700 	ldmdbvs	r0!, {r8, r9, sl, sp, lr}^
 660:	76655f6f 	strbtvc	r5, [r5], -pc, ror #30
 664:	5f746e65 	svcpl	0x00746e65
 668:	65746564 	ldrbvs	r6, [r4, #-1380]!	; 0x564
 66c:	64657463 	strbtvs	r7, [r5], #-1123	; 0x463
 670:	46504700 	ldrbmi	r4, [r0], -r0, lsl #14
 674:	324c4553 	subcc	r4, ip, #348127232	; 0x14c00000
 678:	43504700 	cmpmi	r0, #0, 14
 67c:	0030524c 	eorseq	r5, r0, ip, asr #4
 680:	42414e45 	submi	r4, r1, #1104	; 0x450
 684:	495f454c 	ldmdbmi	pc, {r2, r3, r6, r8, sl, lr}^	; <UNPREDICTABLE>
 688:	5f535152 	svcpl	0x00535152
 68c:	73690032 	cmnvc	r9, #50	; 0x32
 690:	6970675f 	ldmdbvs	r0!, {r0, r1, r2, r3, r4, r6, r8, r9, sl, sp, lr}^
 694:	6e695f6f 	cdpvs	15, 6, cr5, cr9, cr15, {3}
 698:	73630074 	cmnvc	r3, #116	; 0x74
 69c:	65303431 	ldrvs	r3, [r0, #-1073]!	; 0x431
 6a0:	6372732d 	cmnvs	r2, #-1275068416	; 0xb4000000
 6a4:	6970672f 	ldmdbvs	r0!, {r0, r1, r2, r3, r5, r8, r9, sl, sp, lr}^
 6a8:	00632e6f 	rsbeq	r2, r3, pc, ror #28
 6ac:	6f697067 	svcvs	0x00697067
 6b0:	7465735f 	strbtvc	r7, [r5], #-863	; 0x35f
 6b4:	66666f5f 	uqsaxvs	r6, r6, pc	; <UNPREDICTABLE>
 6b8:	746e6900 	strbtvc	r6, [lr], #-2304	; 0x900
 6bc:	73616d5f 	cmnvc	r1, #6080	; 0x17c0
 6c0:	5047006b 	subpl	r0, r7, fp, rrx
 6c4:	30544553 	subscc	r4, r4, r3, asr r5
 6c8:	53504700 	cmppl	r0, #0, 14
 6cc:	00315445 	eorseq	r5, r1, r5, asr #8
 6d0:	5f676572 	svcpl	0x00676572
 6d4:	74617473 	strbtvc	r7, [r1], #-1139	; 0x473
 6d8:	4c504700 	mrrcmi	7, 0, r4, r0, cr0
 6dc:	00305645 	eorseq	r5, r0, r5, asr #12
 6e0:	454c5047 	strbmi	r5, [ip, #-71]	; 0x47
 6e4:	67003156 	smlsdvs	r0, r6, r1, r3
 6e8:	5f6f6970 	svcpl	0x006f6970
 6ec:	00676572 	rsbeq	r6, r7, r2, ror r5
 6f0:	53465047 	movtpl	r5, #24647	; 0x6047
 6f4:	00304c45 	eorseq	r4, r0, r5, asr #24
 6f8:	53465047 	movtpl	r5, #24647	; 0x6047
 6fc:	00314c45 	eorseq	r4, r1, r5, asr #24
 700:	53465047 	movtpl	r5, #24647	; 0x6047
 704:	00334c45 	eorseq	r4, r3, r5, asr #24
 708:	53465047 	movtpl	r5, #24647	; 0x6047
 70c:	00344c45 	eorseq	r4, r4, r5, asr #24
 710:	53465047 	movtpl	r5, #24647	; 0x6047
 714:	00354c45 	eorseq	r4, r5, r5, asr #24
 718:	6f697067 	svcvs	0x00697067
 71c:	6573665f 	ldrbvs	r6, [r3, #-1631]!	; 0x65f
 720:	4700306c 	strmi	r3, [r0, -ip, rrx]
 724:	524c4350 	subpl	r4, ip, #80, 6	; 0x40000001
 728:	70670031 	rsbvc	r0, r7, r1, lsr r0
 72c:	725f6f69 	subsvc	r6, pc, #420	; 0x1a4
 730:	00646165 	rsbeq	r6, r4, r5, ror #2
 734:	6f697067 	svcvs	0x00697067
 738:	746e695f 	strbtvc	r6, [lr], #-2399	; 0x95f
 73c:	7369725f 	cmnvc	r9, #-268435451	; 0xf0000005
 740:	5f676e69 	svcpl	0x00676e69
 744:	65676465 	strbvs	r6, [r7, #-1125]!	; 0x465
 748:	52504700 	subspl	r4, r0, #0, 14
 74c:	00304e45 	eorseq	r4, r0, r5, asr #28
 750:	45525047 	ldrbmi	r5, [r2, #-71]	; 0x47
 754:	6700314e 	strvs	r3, [r0, -lr, asr #2]
 758:	5f6f6970 	svcpl	0x006f6970
 75c:	6e657665 	cdpvs	6, 6, cr7, cr5, cr5, {3}
 760:	6c635f74 	stclvs	15, cr5, [r3], #-464	; 0xfffffe30
 764:	00726165 	rsbseq	r6, r2, r5, ror #2
 768:	5f515249 	svcpl	0x00515249
 76c:	444e4550 	strbmi	r4, [lr], #-1360	; 0x550
 770:	5f474e49 	svcpl	0x00474e49
 774:	52490031 	subpl	r0, r9, #49	; 0x31
 778:	45505f51 	ldrbmi	r5, [r0, #-3921]	; 0xf51
 77c:	4e49444e 	cdpmi	4, 4, cr4, cr9, cr14, {2}
 780:	00325f47 	eorseq	r5, r2, r7, asr #30
 784:	6d746962 	ldclvs	9, cr6, [r4, #-392]!	; 0xfffffe78
 788:	006b7361 	rsbeq	r7, fp, r1, ror #6
 78c:	6f697067 	svcvs	0x00697067
 790:	6972775f 	ldmdbvs	r2!, {r0, r1, r2, r3, r4, r6, r8, r9, sl, ip, sp, lr}^
 794:	67006574 	smlsdxvs	r0, r4, r5, r6
 798:	5f6f6970 	svcpl	0x006f6970
 79c:	30746573 	rsbscc	r6, r4, r3, ror r5
 7a0:	6e756600 	cdpvs	6, 7, cr6, cr5, cr0, {0}
 7a4:	70670063 	rsbvc	r0, r7, r3, rrx
 7a8:	735f6f69 	cmpvc	pc, #420	; 0x1a4
 7ac:	695f7465 	ldmdbvs	pc, {r0, r2, r5, r6, sl, ip, sp, lr}^	; <UNPREDICTABLE>
 7b0:	7475706e 	ldrbtvc	r7, [r5], #-110	; 0x6e
 7b4:	69706700 	ldmdbvs	r0!, {r8, r9, sl, sp, lr}^
 7b8:	6f745f6f 	svcvs	0x00745f6f
 7bc:	656c6767 	strbvs	r6, [ip, #-1895]!	; 0x767
 7c0:	45504700 	ldrbmi	r4, [r0, #-1792]	; 0x700
 7c4:	00305344 	eorseq	r5, r0, r4, asr #6
 7c8:	44455047 	strbmi	r5, [r5], #-71	; 0x47
 7cc:	67003153 	smlsdvs	r0, r3, r1, r3
 7d0:	5f6f6970 	svcpl	0x006f6970
 7d4:	5f746573 	svcpl	0x00746573
 7d8:	47006e6f 	strmi	r6, [r0, -pc, ror #28]
 7dc:	4e454650 	mcrmi	6, 2, r4, cr5, cr0, {2}
 7e0:	50470030 	subpl	r0, r7, r0, lsr r0
 7e4:	314e4546 	cmpcc	lr, r6, asr #10
 7e8:	69706700 	ldmdbvs	r0!, {r8, r9, sl, sp, lr}^
 7ec:	65735f6f 	ldrbvs	r5, [r3, #-3951]!	; 0xf6f
 7f0:	756f5f74 	strbvc	r5, [pc, #-3956]!	; fffff884 <__bss_end__+0xffff5dc4>
 7f4:	74757074 	ldrbtvc	r7, [r5], #-116	; 0x74
 7f8:	69706700 	ldmdbvs	r0!, {r8, r9, sl, sp, lr}^
 7fc:	6e695f6f 	cdpvs	15, 6, cr5, cr9, cr15, {3}
 800:	61665f74 	smcvs	26100	; 0x65f4
 804:	6e696c6c 	cdpvs	12, 6, cr6, cr9, cr12, {3}
 808:	64655f67 	strbtvs	r5, [r5], #-3943	; 0xf67
 80c:	72006567 	andvc	r6, r0, #432013312	; 0x19c00000
 810:	735f6765 	cmpvc	pc, #26476544	; 0x1940000
 814:	63656c65 	cmnvs	r5, #25856	; 0x6500
 818:	70670074 	rsbvc	r0, r7, r4, ror r0
 81c:	635f6f69 	cmpvs	pc, #420	; 0x1a4
 820:	0030726c 	eorseq	r7, r0, ip, ror #4
 824:	5f585541 	svcpl	0x00585541
 828:	4d5f554d 	cfldr64mi	mvdx5, [pc, #-308]	; 6fc <_start-0x7904>
 82c:	525f5243 	subspl	r5, pc, #805306372	; 0x30000004
 830:	41004745 	tstmi	r0, r5, asr #14
 834:	4d5f5855 	ldclmi	8, cr5, [pc, #-340]	; 6e8 <_start-0x7918>
 838:	4f495f55 	svcmi	0x00495f55
 83c:	4745525f 	smlsldmi	r5, r5, pc, r2	; <UNPREDICTABLE>
 840:	58554100 	ldmdapl	r5, {r8, lr}^
 844:	5f554d5f 	svcpl	0x00554d5f
 848:	5f52534d 	svcpl	0x0052534d
 84c:	00474552 	subeq	r4, r7, r2, asr r5
 850:	74726175 	ldrbtvc	r6, [r2], #-373	; 0x175
 854:	6e61635f 	mcrvs	3, 3, r6, cr1, cr15, {2}
 858:	7465675f 	strbtvc	r6, [r5], #-1887	; 0x75f
 85c:	55410063 	strbpl	r0, [r1, #-99]	; 0x63
 860:	554d5f58 	strbpl	r5, [sp, #-3928]	; 0xf58
 864:	544e435f 	strbpl	r4, [lr], #-863	; 0x35f
 868:	45525f4c 	ldrbmi	r5, [r2, #-3916]	; 0xf4c
 86c:	61750047 	cmnvs	r5, r7, asr #32
 870:	685f7472 	ldmdavs	pc, {r1, r4, r5, r6, sl, ip, sp, lr}^	; <UNPREDICTABLE>
 874:	645f7361 	ldrbvs	r7, [pc], #-865	; 87c <_start-0x7784>
 878:	00617461 	rsbeq	r7, r1, r1, ror #8
 87c:	5f585541 	svcpl	0x00585541
 880:	495f554d 	ldmdbmi	pc, {r0, r2, r3, r6, r8, sl, ip, lr}^	; <UNPREDICTABLE>
 884:	525f5245 	subspl	r5, pc, #1342177284	; 0x50000004
 888:	75004745 	strvc	r4, [r0, #-1861]	; 0x745
 88c:	5f747261 	svcpl	0x00747261
 890:	63746567 	cmnvs	r4, #432013312	; 0x19c00000
 894:	58554100 	ldmdapl	r5, {r8, lr}^
 898:	5f554d5f 	svcpl	0x00554d5f
 89c:	5f524949 	svcpl	0x00524949
 8a0:	00474552 	subeq	r4, r7, r2, asr r5
 8a4:	74726175 	ldrbtvc	r6, [r2], #-373	; 0x175
 8a8:	6e61635f 	mcrvs	3, 3, r6, cr1, cr15, {2}
 8ac:	7475705f 	ldrbtvc	r7, [r5], #-95	; 0x5f
 8b0:	55410063 	strbpl	r0, [r1, #-99]	; 0x63
 8b4:	4e455f58 	mcrmi	15, 2, r5, cr5, cr8, {2}
 8b8:	454c4241 	strbmi	r4, [ip, #-577]	; 0x241
 8bc:	55410053 	strbpl	r0, [r1, #-83]	; 0x53
 8c0:	52495f58 	subpl	r5, r9, #88, 30	; 0x160
 8c4:	55410051 	strbpl	r0, [r1, #-81]	; 0x51
 8c8:	554d5f58 	strbpl	r5, [sp, #-3928]	; 0xf58
 8cc:	5541425f 	strbpl	r4, [r1, #-607]	; 0x25f
 8d0:	45525f44 	ldrbmi	r5, [r2, #-3908]	; 0xf44
 8d4:	55410047 	strbpl	r0, [r1, #-71]	; 0x47
 8d8:	554d5f58 	strbpl	r5, [sp, #-3928]	; 0xf58
 8dc:	4154535f 	cmpmi	r4, pc, asr r3
 8e0:	45525f54 	ldrbmi	r5, [r2, #-3924]	; 0xf54
 8e4:	55410047 	strbpl	r0, [r1, #-71]	; 0x47
 8e8:	554d5f58 	strbpl	r5, [sp, #-3928]	; 0xf58
 8ec:	5243535f 	subpl	r5, r3, #2080374785	; 0x7c000001
 8f0:	48435441 	stmdami	r3, {r0, r6, sl, ip, lr}^
 8f4:	2d796d00 	ldclcs	13, cr6, [r9, #-0]
 8f8:	2f637273 	svccs	0x00637273
 8fc:	74726175 	ldrbtvc	r6, [r2], #-373	; 0x175
 900:	4100632e 	tstmi	r0, lr, lsr #6
 904:	4d5f5855 	ldclmi	8, cr5, [pc, #-340]	; 7b8 <_start-0x7848>
 908:	434c5f55 	movtmi	r5, #53077	; 0xcf55
 90c:	45525f52 	ldrbmi	r5, [r2, #-3922]	; 0xf52
 910:	55410047 	strbpl	r0, [r1, #-71]	; 0x47
 914:	554d5f58 	strbpl	r5, [sp, #-3928]	; 0xf58
 918:	52534c5f 	subspl	r4, r3, #24320	; 0x5f00
 91c:	4745525f 	smlsldmi	r5, r5, pc, r2	; <UNPREDICTABLE>
 920:	72617500 	rsbvc	r7, r1, #0, 10
 924:	65675f74 	strbvs	r5, [r7, #-3956]!	; 0xf74
 928:	615f6374 	cmpvs	pc, r4, ror r3	; <UNPREDICTABLE>
 92c:	636e7973 	cmnvs	lr, #1884160	; 0x1cc000
	...

Disassembly of section .debug_frame:

00000000 <.debug_frame>:
   0:	0000000c 	andeq	r0, r0, ip
   4:	ffffffff 			; <UNDEFINED> instruction: 0xffffffff
   8:	7c020001 	stcvc	0, cr0, [r2], {1}
   c:	000d0c0e 	andeq	r0, sp, lr, lsl #24
  10:	00000018 	andeq	r0, r0, r8, lsl r0
  14:	00000000 	andeq	r0, r0, r0
  18:	00008010 	andeq	r8, r0, r0, lsl r0
  1c:	0000004c 	andeq	r0, r0, ip, asr #32
  20:	84080e42 	strhi	r0, [r8], #-3650	; 0xe42
  24:	42018e02 	andmi	r8, r1, #2, 28
  28:	0000100e 	andeq	r1, r0, lr
  2c:	00000018 	andeq	r0, r0, r8, lsl r0
  30:	00000000 	andeq	r0, r0, r0
  34:	0000805c 	andeq	r8, r0, ip, asr r0
  38:	00000050 	andeq	r0, r0, r0, asr r0
  3c:	84080e42 	strhi	r0, [r8], #-3650	; 0xe42
  40:	42018e02 	andmi	r8, r1, #2, 28
  44:	0000100e 	andeq	r1, r0, lr
  48:	00000014 	andeq	r0, r0, r4, lsl r0
  4c:	00000000 	andeq	r0, r0, r0
  50:	000080ac 	andeq	r8, r0, ip, lsr #1
  54:	00000028 	andeq	r0, r0, r8, lsr #32
  58:	8e040e42 	cdphi	14, 0, cr0, cr4, cr2, {2}
  5c:	100e4201 	andne	r4, lr, r1, lsl #4
  60:	0000001c 	andeq	r0, r0, ip, lsl r0
  64:	00000000 	andeq	r0, r0, r0
  68:	000080d4 	ldrdeq	r8, [r0], -r4
  6c:	00000180 	andeq	r0, r0, r0, lsl #3
  70:	84180e42 	ldrhi	r0, [r8], #-3650	; 0xe42
  74:	86058506 	strhi	r8, [r5], -r6, lsl #10
  78:	88038704 	stmdahi	r3, {r2, r8, r9, sl, pc}
  7c:	00018e02 	andeq	r8, r1, r2, lsl #28
  80:	0000000c 	andeq	r0, r0, ip
  84:	ffffffff 			; <UNDEFINED> instruction: 0xffffffff
  88:	7c020001 	stcvc	0, cr0, [r2], {1}
  8c:	000d0c0e 	andeq	r0, sp, lr, lsl #24
  90:	00000014 	andeq	r0, r0, r4, lsl r0
  94:	00000080 	andeq	r0, r0, r0, lsl #1
  98:	00008254 	andeq	r8, r0, r4, asr r2
  9c:	0000000c 	andeq	r0, r0, ip
  a0:	83080e42 	movwhi	r0, #36418	; 0x8e42
  a4:	00018e02 	andeq	r8, r1, r2, lsl #28
  a8:	00000014 	andeq	r0, r0, r4, lsl r0
  ac:	00000080 	andeq	r0, r0, r0, lsl #1
  b0:	00008260 	andeq	r8, r0, r0, ror #4
  b4:	0000000c 	andeq	r0, r0, ip
  b8:	83080e42 	movwhi	r0, #36418	; 0x8e42
  bc:	00018e02 	andeq	r8, r1, r2, lsl #28
  c0:	00000014 	andeq	r0, r0, r4, lsl r0
  c4:	00000080 	andeq	r0, r0, r0, lsl #1
  c8:	0000826c 	andeq	r8, r0, ip, ror #4
  cc:	00000008 	andeq	r0, r0, r8
  d0:	8e040e42 	cdphi	14, 0, cr0, cr4, cr2, {2}
  d4:	00000001 	andeq	r0, r0, r1
  d8:	00000020 	andeq	r0, r0, r0, lsr #32
  dc:	00000080 	andeq	r0, r0, r0, lsl #1
  e0:	00008274 	andeq	r8, r0, r4, ror r2
  e4:	00000100 	andeq	r0, r0, r0, lsl #2
  e8:	83200e42 	teqhi	r0, #1056	; 0x420
  ec:	85078408 	strhi	r8, [r7, #-1032]	; 0x408
  f0:	87058606 	strhi	r8, [r5, -r6, lsl #12]
  f4:	89038804 	stmdbhi	r3, {r2, fp, pc}
  f8:	00018e02 	andeq	r8, r1, r2, lsl #28
  fc:	00000020 	andeq	r0, r0, r0, lsr #32
 100:	00000080 	andeq	r0, r0, r0, lsl #1
 104:	00008374 	andeq	r8, r0, r4, ror r3
 108:	000000e0 	andeq	r0, r0, r0, ror #1
 10c:	83200e42 	teqhi	r0, #1056	; 0x420
 110:	85078408 	strhi	r8, [r7, #-1032]	; 0x408
 114:	87058606 	strhi	r8, [r5, -r6, lsl #12]
 118:	89038804 	stmdbhi	r3, {r2, fp, pc}
 11c:	00018e02 	andeq	r8, r1, r2, lsl #28
 120:	00000014 	andeq	r0, r0, r4, lsl r0
 124:	00000080 	andeq	r0, r0, r0, lsl #1
 128:	00008454 	andeq	r8, r0, r4, asr r4
 12c:	0000004c 	andeq	r0, r0, ip, asr #32
 130:	84080e42 	strhi	r0, [r8], #-3650	; 0xe42
 134:	00018e02 	andeq	r8, r1, r2, lsl #28
 138:	0000000c 	andeq	r0, r0, ip
 13c:	ffffffff 			; <UNDEFINED> instruction: 0xffffffff
 140:	7c020001 	stcvc	0, cr0, [r2], {1}
 144:	000d0c0e 	andeq	r0, sp, lr, lsl #24
 148:	00000024 	andeq	r0, r0, r4, lsr #32
 14c:	00000138 	andeq	r0, r0, r8, lsr r1
 150:	000084a0 	andeq	r8, r0, r0, lsr #9
 154:	00000058 	andeq	r0, r0, r8, asr r0
 158:	80100e42 	andshi	r0, r0, r2, asr #28
 15c:	82038104 	andhi	r8, r3, #4, 2
 160:	42018302 	andmi	r8, r1, #134217728	; 0x8000000
 164:	07841c0e 	streq	r1, [r4, lr, lsl #24]
 168:	058e0685 	streq	r0, [lr, #1669]	; 0x685
 16c:	00280e42 	eoreq	r0, r8, r2, asr #28
 170:	0000000c 	andeq	r0, r0, ip
 174:	ffffffff 			; <UNDEFINED> instruction: 0xffffffff
 178:	7c020001 	stcvc	0, cr0, [r2], {1}
 17c:	000d0c0e 	andeq	r0, sp, lr, lsl #24
 180:	00000014 	andeq	r0, r0, r4, lsl r0
 184:	00000170 	andeq	r0, r0, r0, ror r1
 188:	000084f8 	strdeq	r8, [r0], -r8	; <UNPREDICTABLE>
 18c:	00000014 	andeq	r0, r0, r4, lsl r0
 190:	84080e42 	strhi	r0, [r8], #-3650	; 0xe42
 194:	00018e02 	andeq	r8, r1, r2, lsl #28
 198:	0000000c 	andeq	r0, r0, ip
 19c:	00000170 	andeq	r0, r0, r0, ror r1
 1a0:	0000850c 	andeq	r8, r0, ip, lsl #10
 1a4:	00000018 	andeq	r0, r0, r8, lsl r0
 1a8:	0000000c 	andeq	r0, r0, ip
 1ac:	00000170 	andeq	r0, r0, r0, ror r1
 1b0:	00008524 	andeq	r8, r0, r4, lsr #10
 1b4:	00000010 	andeq	r0, r0, r0, lsl r0
 1b8:	0000000c 	andeq	r0, r0, ip
 1bc:	ffffffff 			; <UNDEFINED> instruction: 0xffffffff
 1c0:	7c020001 	stcvc	0, cr0, [r2], {1}
 1c4:	000d0c0e 	andeq	r0, sp, lr, lsl #24
 1c8:	00000018 	andeq	r0, r0, r8, lsl r0
 1cc:	000001b8 			; <UNDEFINED> instruction: 0x000001b8
 1d0:	00008534 	andeq	r8, r0, r4, lsr r5
 1d4:	00000034 	andeq	r0, r0, r4, lsr r0
 1d8:	83100e42 	tsthi	r0, #1056	; 0x420
 1dc:	85038404 	strhi	r8, [r3, #-1028]	; 0x404
 1e0:	00018e02 	andeq	r8, r1, r2, lsl #28
 1e4:	0000000c 	andeq	r0, r0, ip
 1e8:	ffffffff 			; <UNDEFINED> instruction: 0xffffffff
 1ec:	7c020001 	stcvc	0, cr0, [r2], {1}
 1f0:	000d0c0e 	andeq	r0, sp, lr, lsl #24
 1f4:	0000000c 	andeq	r0, r0, ip
 1f8:	000001e4 	andeq	r0, r0, r4, ror #3
 1fc:	00008568 	andeq	r8, r0, r8, ror #10
 200:	00000014 	andeq	r0, r0, r4, lsl r0
 204:	0000000c 	andeq	r0, r0, ip
 208:	000001e4 	andeq	r0, r0, r4, ror #3
 20c:	0000857c 	andeq	r8, r0, ip, ror r5
 210:	0000002c 	andeq	r0, r0, ip, lsr #32
 214:	0000000c 	andeq	r0, r0, ip
 218:	000001e4 	andeq	r0, r0, r4, ror #3
 21c:	000085a8 	andeq	r8, r0, r8, lsr #11
 220:	00000040 	andeq	r0, r0, r0, asr #32
 224:	00000020 	andeq	r0, r0, r0, lsr #32
 228:	000001e4 	andeq	r0, r0, r4, ror #3
 22c:	000085e8 	andeq	r8, r0, r8, ror #11
 230:	0000019c 	muleq	r0, ip, r1
 234:	84180e42 	ldrhi	r0, [r8], #-3650	; 0xe42
 238:	86058506 	strhi	r8, [r5], -r6, lsl #10
 23c:	88038704 	stmdahi	r3, {r2, r8, r9, sl, pc}
 240:	42018e02 	andmi	r8, r1, #2, 28
 244:	0000580e 	andeq	r5, r0, lr, lsl #16
 248:	00000014 	andeq	r0, r0, r4, lsl r0
 24c:	000001e4 	andeq	r0, r0, r4, ror #3
 250:	00008784 	andeq	r8, r0, r4, lsl #15
 254:	00000054 	andeq	r0, r0, r4, asr r0
 258:	83080e42 	movwhi	r0, #36418	; 0x8e42
 25c:	00018e02 	andeq	r8, r1, r2, lsl #28
 260:	00000028 	andeq	r0, r0, r8, lsr #32
 264:	000001e4 	andeq	r0, r0, r4, ror #3
 268:	000087d8 	ldrdeq	r8, [r0], -r8	; <UNPREDICTABLE>
 26c:	00000288 	andeq	r0, r0, r8, lsl #5
 270:	84240e42 	strthi	r0, [r4], #-3650	; 0xe42
 274:	86088509 	strhi	r8, [r8], -r9, lsl #10
 278:	88068707 	stmdahi	r6, {r0, r1, r2, r8, r9, sl, pc}
 27c:	8a048905 	bhi	122698 <__bss_end__+0x118bd8>
 280:	8e028b03 	vmlahi.f64	d8, d2, d3
 284:	b00e4201 	andlt	r4, lr, r1, lsl #4
 288:	00000001 	andeq	r0, r0, r1
 28c:	0000000c 	andeq	r0, r0, ip
 290:	ffffffff 			; <UNDEFINED> instruction: 0xffffffff
 294:	7c020001 	stcvc	0, cr0, [r2], {1}
 298:	000d0c0e 	andeq	r0, sp, lr, lsl #24
 29c:	00000014 	andeq	r0, r0, r4, lsl r0
 2a0:	0000028c 	andeq	r0, r0, ip, lsl #5
 2a4:	00008a60 	andeq	r8, r0, r0, ror #20
 2a8:	00000028 	andeq	r0, r0, r8, lsr #32
 2ac:	83080e42 	movwhi	r0, #36418	; 0x8e42
 2b0:	00018e02 	andeq	r8, r1, r2, lsl #28
 2b4:	0000000c 	andeq	r0, r0, ip
 2b8:	ffffffff 			; <UNDEFINED> instruction: 0xffffffff
 2bc:	7c020001 	stcvc	0, cr0, [r2], {1}
 2c0:	000d0c0e 	andeq	r0, sp, lr, lsl #24
 2c4:	00000014 	andeq	r0, r0, r4, lsl r0
 2c8:	000002b4 			; <UNDEFINED> instruction: 0x000002b4
 2cc:	00008a88 	andeq	r8, r0, r8, lsl #21
 2d0:	00000034 	andeq	r0, r0, r4, lsr r0
 2d4:	83080e42 	movwhi	r0, #36418	; 0x8e42
 2d8:	00018e02 	andeq	r8, r1, r2, lsl #28
 2dc:	0000000c 	andeq	r0, r0, ip
 2e0:	ffffffff 			; <UNDEFINED> instruction: 0xffffffff
 2e4:	7c020001 	stcvc	0, cr0, [r2], {1}
 2e8:	000d0c0e 	andeq	r0, sp, lr, lsl #24
 2ec:	0000000c 	andeq	r0, r0, ip
 2f0:	000002dc 	ldrdeq	r0, [r0], -ip
 2f4:	00008abc 			; <UNDEFINED> instruction: 0x00008abc
 2f8:	00000018 	andeq	r0, r0, r8, lsl r0
 2fc:	0000000c 	andeq	r0, r0, ip
 300:	000002dc 	ldrdeq	r0, [r0], -ip
 304:	00008ad4 	ldrdeq	r8, [r0], -r4
 308:	00000014 	andeq	r0, r0, r4, lsl r0
 30c:	00000014 	andeq	r0, r0, r4, lsl r0
 310:	000002dc 	ldrdeq	r0, [r0], -ip
 314:	00008ae8 	andeq	r8, r0, r8, ror #21
 318:	00000048 	andeq	r0, r0, r8, asr #32
 31c:	83080e42 	movwhi	r0, #36418	; 0x8e42
 320:	00018e02 	andeq	r8, r1, r2, lsl #28
 324:	0000000c 	andeq	r0, r0, ip
 328:	ffffffff 			; <UNDEFINED> instruction: 0xffffffff
 32c:	7c020001 	stcvc	0, cr0, [r2], {1}
 330:	000d0c0e 	andeq	r0, sp, lr, lsl #24
 334:	0000000c 	andeq	r0, r0, ip
 338:	00000324 	andeq	r0, r0, r4, lsr #6
 33c:	00008b30 	andeq	r8, r0, r0, lsr fp
 340:	0000001c 	andeq	r0, r0, ip, lsl r0
 344:	00000014 	andeq	r0, r0, r4, lsl r0
 348:	00000324 	andeq	r0, r0, r4, lsr #6
 34c:	00008b4c 	andeq	r8, r0, ip, asr #22
 350:	00000014 	andeq	r0, r0, r4, lsl r0
 354:	83080e42 	movwhi	r0, #36418	; 0x8e42
 358:	00018e02 	andeq	r8, r1, r2, lsl #28
 35c:	00000014 	andeq	r0, r0, r4, lsl r0
 360:	00000324 	andeq	r0, r0, r4, lsr #6
 364:	00008b60 	andeq	r8, r0, r0, ror #22
 368:	0000000c 	andeq	r0, r0, ip
 36c:	83080e42 	movwhi	r0, #36418	; 0x8e42
 370:	00018e02 	andeq	r8, r1, r2, lsl #28
 374:	00000018 	andeq	r0, r0, r8, lsl r0
 378:	00000324 	andeq	r0, r0, r4, lsr #6
 37c:	00008b6c 	andeq	r8, r0, ip, ror #22
 380:	00000024 	andeq	r0, r0, r4, lsr #32
 384:	83100e42 	tsthi	r0, #1056	; 0x420
 388:	85038404 	strhi	r8, [r3, #-1028]	; 0x404
 38c:	00018e02 	andeq	r8, r1, r2, lsl #28
 390:	00000014 	andeq	r0, r0, r4, lsl r0
 394:	00000324 	andeq	r0, r0, r4, lsr #6
 398:	00008b90 	muleq	r0, r0, fp
 39c:	00000014 	andeq	r0, r0, r4, lsl r0
 3a0:	83080e42 	movwhi	r0, #36418	; 0x8e42
 3a4:	00018e02 	andeq	r8, r1, r2, lsl #28
 3a8:	00000014 	andeq	r0, r0, r4, lsl r0
 3ac:	00000324 	andeq	r0, r0, r4, lsr #6
 3b0:	00008ba4 	andeq	r8, r0, r4, lsr #23
 3b4:	00000014 	andeq	r0, r0, r4, lsl r0
 3b8:	83080e42 	movwhi	r0, #36418	; 0x8e42
 3bc:	00018e02 	andeq	r8, r1, r2, lsl #28
 3c0:	0000000c 	andeq	r0, r0, ip
 3c4:	ffffffff 			; <UNDEFINED> instruction: 0xffffffff
 3c8:	7c020001 	stcvc	0, cr0, [r2], {1}
 3cc:	000d0c0e 	andeq	r0, sp, lr, lsl #24
 3d0:	00000018 	andeq	r0, r0, r8, lsl r0
 3d4:	000003c0 	andeq	r0, r0, r0, asr #7
 3d8:	00008bb8 			; <UNDEFINED> instruction: 0x00008bb8
 3dc:	000000d4 	ldrdeq	r0, [r0], -r4
 3e0:	83100e42 	tsthi	r0, #1056	; 0x420
 3e4:	85038404 	strhi	r8, [r3, #-1028]	; 0x404
 3e8:	00018e02 	andeq	r8, r1, r2, lsl #28
 3ec:	00000014 	andeq	r0, r0, r4, lsl r0
 3f0:	000003c0 	andeq	r0, r0, r0, asr #7
 3f4:	00008c8c 	andeq	r8, r0, ip, lsl #25
 3f8:	00000038 	andeq	r0, r0, r8, lsr r0
 3fc:	83080e42 	movwhi	r0, #36418	; 0x8e42
 400:	00018e02 	andeq	r8, r1, r2, lsl #28
 404:	00000014 	andeq	r0, r0, r4, lsl r0
 408:	000003c0 	andeq	r0, r0, r0, asr #7
 40c:	00008cc4 	andeq	r8, r0, r4, asr #25
 410:	00000038 	andeq	r0, r0, r8, lsr r0
 414:	83080e42 	movwhi	r0, #36418	; 0x8e42
 418:	00018e02 	andeq	r8, r1, r2, lsl #28
 41c:	00000018 	andeq	r0, r0, r8, lsl r0
 420:	000003c0 	andeq	r0, r0, r0, asr #7
 424:	00008cfc 	strdeq	r8, [r0], -ip
 428:	000000cc 	andeq	r0, r0, ip, asr #1
 42c:	83100e42 	tsthi	r0, #1056	; 0x420
 430:	85038404 	strhi	r8, [r3, #-1028]	; 0x404
 434:	00018e02 	andeq	r8, r1, r2, lsl #28
 438:	00000014 	andeq	r0, r0, r4, lsl r0
 43c:	000003c0 	andeq	r0, r0, r0, asr #7
 440:	00008dc8 	andeq	r8, r0, r8, asr #27
 444:	0000004c 	andeq	r0, r0, ip, asr #32
 448:	84080e42 	strhi	r0, [r8], #-3650	; 0xe42
 44c:	00018e02 	andeq	r8, r1, r2, lsl #28
 450:	00000014 	andeq	r0, r0, r4, lsl r0
 454:	000003c0 	andeq	r0, r0, r0, asr #7
 458:	00008e14 	andeq	r8, r0, r4, lsl lr
 45c:	00000024 	andeq	r0, r0, r4, lsr #32
 460:	83080e42 	movwhi	r0, #36418	; 0x8e42
 464:	00018e02 	andeq	r8, r1, r2, lsl #28
 468:	00000018 	andeq	r0, r0, r8, lsl r0
 46c:	000003c0 	andeq	r0, r0, r0, asr #7
 470:	00008e38 	andeq	r8, r0, r8, lsr lr
 474:	000000d8 	ldrdeq	r0, [r0], -r8
 478:	84100e42 	ldrhi	r0, [r0], #-3650	; 0xe42
 47c:	86038504 	strhi	r8, [r3], -r4, lsl #10
 480:	00018e02 	andeq	r8, r1, r2, lsl #28
 484:	00000014 	andeq	r0, r0, r4, lsl r0
 488:	000003c0 	andeq	r0, r0, r0, asr #7
 48c:	00008f10 	andeq	r8, r0, r0, lsl pc
 490:	00000038 	andeq	r0, r0, r8, lsr r0
 494:	83080e42 	movwhi	r0, #36418	; 0x8e42
 498:	00018e02 	andeq	r8, r1, r2, lsl #28
 49c:	00000014 	andeq	r0, r0, r4, lsl r0
 4a0:	000003c0 	andeq	r0, r0, r0, asr #7
 4a4:	00008f48 	andeq	r8, r0, r8, asr #30
 4a8:	0000002c 	andeq	r0, r0, ip, lsr #32
 4ac:	83080e42 	movwhi	r0, #36418	; 0x8e42
 4b0:	00018e02 	andeq	r8, r1, r2, lsl #28
 4b4:	00000018 	andeq	r0, r0, r8, lsl r0
 4b8:	000003c0 	andeq	r0, r0, r0, asr #7
 4bc:	00008f74 	andeq	r8, r0, r4, ror pc
 4c0:	00000084 	andeq	r0, r0, r4, lsl #1
 4c4:	83100e42 	tsthi	r0, #1056	; 0x420
 4c8:	85038404 	strhi	r8, [r3, #-1028]	; 0x404
 4cc:	00018e02 	andeq	r8, r1, r2, lsl #28
 4d0:	00000018 	andeq	r0, r0, r8, lsl r0
 4d4:	000003c0 	andeq	r0, r0, r0, asr #7
 4d8:	00008ff8 	strdeq	r8, [r0], -r8	; <UNPREDICTABLE>
 4dc:	00000084 	andeq	r0, r0, r4, lsl #1
 4e0:	83100e42 	tsthi	r0, #1056	; 0x420
 4e4:	85038404 	strhi	r8, [r3, #-1028]	; 0x404
 4e8:	00018e02 	andeq	r8, r1, r2, lsl #28
 4ec:	00000014 	andeq	r0, r0, r4, lsl r0
 4f0:	000003c0 	andeq	r0, r0, r0, asr #7
 4f4:	0000907c 	andeq	r9, r0, ip, ror r0
 4f8:	00000084 	andeq	r0, r0, r4, lsl #1
 4fc:	84080e42 	strhi	r0, [r8], #-3650	; 0xe42
 500:	00018e02 	andeq	r8, r1, r2, lsl #28
 504:	00000014 	andeq	r0, r0, r4, lsl r0
 508:	000003c0 	andeq	r0, r0, r0, asr #7
 50c:	00009100 	andeq	r9, r0, r0, lsl #2
 510:	00000058 	andeq	r0, r0, r8, asr r0
 514:	84080e42 	strhi	r0, [r8], #-3650	; 0xe42
 518:	00018e02 	andeq	r8, r1, r2, lsl #28
 51c:	0000000c 	andeq	r0, r0, ip
 520:	ffffffff 			; <UNDEFINED> instruction: 0xffffffff
 524:	7c020001 	stcvc	0, cr0, [r2], {1}
 528:	000d0c0e 	andeq	r0, sp, lr, lsl #24
 52c:	00000018 	andeq	r0, r0, r8, lsl r0
 530:	0000051c 	andeq	r0, r0, ip, lsl r5
 534:	00009158 	andeq	r9, r0, r8, asr r1
 538:	0000009c 	muleq	r0, ip, r0
 53c:	83100e42 	tsthi	r0, #1056	; 0x420
 540:	85038404 	strhi	r8, [r3, #-1028]	; 0x404
 544:	00018e02 	andeq	r8, r1, r2, lsl #28
 548:	00000014 	andeq	r0, r0, r4, lsl r0
 54c:	0000051c 	andeq	r0, r0, ip, lsl r5
 550:	000091f4 	strdeq	r9, [r0], -r4
 554:	0000001c 	andeq	r0, r0, ip, lsl r0
 558:	83080e42 	movwhi	r0, #36418	; 0x8e42
 55c:	00018e02 	andeq	r8, r1, r2, lsl #28
 560:	00000014 	andeq	r0, r0, r4, lsl r0
 564:	0000051c 	andeq	r0, r0, ip, lsl r5
 568:	00009210 	andeq	r9, r0, r0, lsl r2
 56c:	00000028 	andeq	r0, r0, r8, lsr #32
 570:	83080e42 	movwhi	r0, #36418	; 0x8e42
 574:	00018e02 	andeq	r8, r1, r2, lsl #28
 578:	00000014 	andeq	r0, r0, r4, lsl r0
 57c:	0000051c 	andeq	r0, r0, ip, lsl r5
 580:	00009238 	andeq	r9, r0, r8, lsr r2
 584:	0000001c 	andeq	r0, r0, ip, lsl r0
 588:	83080e42 	movwhi	r0, #36418	; 0x8e42
 58c:	00018e02 	andeq	r8, r1, r2, lsl #28
 590:	00000014 	andeq	r0, r0, r4, lsl r0
 594:	0000051c 	andeq	r0, r0, ip, lsl r5
 598:	00009254 	andeq	r9, r0, r4, asr r2
 59c:	0000002c 	andeq	r0, r0, ip, lsr #32
 5a0:	84080e42 	strhi	r0, [r8], #-3650	; 0xe42
 5a4:	00018e02 	andeq	r8, r1, r2, lsl #28
 5a8:	00000014 	andeq	r0, r0, r4, lsl r0
 5ac:	0000051c 	andeq	r0, r0, ip, lsl r5
 5b0:	00009280 	andeq	r9, r0, r0, lsl #5
 5b4:	0000000c 	andeq	r0, r0, ip
 5b8:	83080e42 	movwhi	r0, #36418	; 0x8e42
 5bc:	00018e02 	andeq	r8, r1, r2, lsl #28
 5c0:	00000014 	andeq	r0, r0, r4, lsl r0
 5c4:	0000051c 	andeq	r0, r0, ip, lsl r5
 5c8:	0000928c 	andeq	r9, r0, ip, lsl #5
 5cc:	00000020 	andeq	r0, r0, r0, lsr #32
 5d0:	83080e42 	movwhi	r0, #36418	; 0x8e42
 5d4:	00018e02 	andeq	r8, r1, r2, lsl #28
