
adc1115.elf:     file format elf32-littlearm


Disassembly of section .text:

00008000 <_start>:
    8000:	e3a0d302 	mov	sp, #134217728	; 0x8000000
    8004:	e3a0b000 	mov	fp, #0
    8008:	eb000368 	bl	8db0 <_cstart>
    800c:	eb00037f 	bl	8e10 <rpi_reboot>

00008010 <adc_write16>:
    8010:	e92d4010 	push	{r4, lr}
    8014:	e24dd008 	sub	sp, sp, #8
    8018:	e1a04000 	mov	r4, r0
    801c:	e5cd1004 	strb	r1, [sp, #4]
    8020:	e1a03422 	lsr	r3, r2, #8
    8024:	e5cd3005 	strb	r3, [sp, #5]
    8028:	e5cd2006 	strb	r2, [sp, #6]
    802c:	e28d1004 	add	r1, sp, #4
    8030:	e3a02003 	mov	r2, #3
    8034:	eb000152 	bl	8584 <i2c_write>
    8038:	e3a03000 	mov	r3, #0
    803c:	e5cd3000 	strb	r3, [sp]
    8040:	e5cd3001 	strb	r3, [sp, #1]
    8044:	e1a00004 	mov	r0, r4
    8048:	e1a0100d 	mov	r1, sp
    804c:	e3a02002 	mov	r2, #2
    8050:	eb00017c 	bl	8648 <i2c_read>
    8054:	e28dd008 	add	sp, sp, #8
    8058:	e8bd8010 	pop	{r4, pc}

0000805c <adc_read16>:
    805c:	e92d4010 	push	{r4, lr}
    8060:	e24dd008 	sub	sp, sp, #8
    8064:	e1a04000 	mov	r4, r0
    8068:	e28d3008 	add	r3, sp, #8
    806c:	e5631004 	strb	r1, [r3, #-4]!
    8070:	e1a01003 	mov	r1, r3
    8074:	e3a02001 	mov	r2, #1
    8078:	eb000141 	bl	8584 <i2c_write>
    807c:	e3a03000 	mov	r3, #0
    8080:	e5cd3000 	strb	r3, [sp]
    8084:	e5cd3001 	strb	r3, [sp, #1]
    8088:	e1a00004 	mov	r0, r4
    808c:	e1a0100d 	mov	r1, sp
    8090:	e3a02002 	mov	r2, #2
    8094:	eb00016b 	bl	8648 <i2c_read>
    8098:	e5dd0000 	ldrb	r0, [sp]
    809c:	e5dd3001 	ldrb	r3, [sp, #1]
    80a0:	e1830400 	orr	r0, r3, r0, lsl #8
    80a4:	e28dd008 	add	sp, sp, #8
    80a8:	e8bd8010 	pop	{r4, pc}

000080ac <adc_reset>:
    80ac:	e52de004 	push	{lr}		; (str lr, [sp, #-4]!)
    80b0:	e24dd00c 	sub	sp, sp, #12
    80b4:	e28d1008 	add	r1, sp, #8
    80b8:	e3a03006 	mov	r3, #6
    80bc:	e5613001 	strb	r3, [r1, #-1]!
    80c0:	e3a00000 	mov	r0, #0
    80c4:	e3a02001 	mov	r2, #1
    80c8:	eb00012d 	bl	8584 <i2c_write>
    80cc:	e28dd00c 	add	sp, sp, #12
    80d0:	e49df004 	pop	{pc}		; (ldr pc, [sp], #4)

000080d4 <notmain>:
    80d4:	e92d41f0 	push	{r4, r5, r6, r7, r8, lr}
    80d8:	eb0004e8 	bl	9480 <uart_init>
    80dc:	e3a0001e 	mov	r0, #30
    80e0:	eb000374 	bl	8eb8 <delay_ms>
    80e4:	eb00018c 	bl	871c <i2c_init>
    80e8:	e3a0001e 	mov	r0, #30
    80ec:	eb000371 	bl	8eb8 <delay_ms>
    80f0:	ebffffed 	bl	80ac <adc_reset>
    80f4:	e3a00019 	mov	r0, #25
    80f8:	eb000365 	bl	8e94 <delay_us>
    80fc:	e3a00048 	mov	r0, #72	; 0x48
    8100:	e3a01001 	mov	r1, #1
    8104:	ebffffd4 	bl	805c <adc_read16>
    8108:	e1a04000 	mov	r4, r0
    810c:	e1a05420 	lsr	r5, r0, #8
    8110:	e6ff5075 	uxth	r5, r5
    8114:	e59f0114 	ldr	r0, [pc, #276]	; 8230 <notmain+0x15c>
    8118:	e1a01004 	mov	r1, r4
    811c:	e6ef2074 	uxtb	r2, r4
    8120:	e1a03005 	mov	r3, r5
    8124:	eb0001a7 	bl	87c8 <printk>
    8128:	e3150001 	tst	r5, #1
    812c:	1a000006 	bne	814c <notmain+0x78>
    8130:	eb0001bf 	bl	8834 <rpi_reset_putc>
    8134:	e59f00f8 	ldr	r0, [pc, #248]	; 8234 <notmain+0x160>
    8138:	e59f10f8 	ldr	r1, [pc, #248]	; 8238 <notmain+0x164>
    813c:	e59f20f8 	ldr	r2, [pc, #248]	; 823c <notmain+0x168>
    8140:	e3a03056 	mov	r3, #86	; 0x56
    8144:	eb00019f 	bl	87c8 <printk>
    8148:	eb00030e 	bl	8d88 <clean_reboot>
    814c:	e1a032a4 	lsr	r3, r4, #5
    8150:	e2033007 	and	r3, r3, #7
    8154:	e3530004 	cmp	r3, #4
    8158:	0a000006 	beq	8178 <notmain+0xa4>
    815c:	eb0001b4 	bl	8834 <rpi_reset_putc>
    8160:	e59f00d8 	ldr	r0, [pc, #216]	; 8240 <notmain+0x16c>
    8164:	e59f10cc 	ldr	r1, [pc, #204]	; 8238 <notmain+0x164>
    8168:	e59f20cc 	ldr	r2, [pc, #204]	; 823c <notmain+0x168>
    816c:	e3a03058 	mov	r3, #88	; 0x58
    8170:	eb000194 	bl	87c8 <printk>
    8174:	eb000303 	bl	8d88 <clean_reboot>
    8178:	e1a044a4 	lsr	r4, r4, #9
    817c:	e2044007 	and	r4, r4, #7
    8180:	e3540002 	cmp	r4, #2
    8184:	0a000006 	beq	81a4 <notmain+0xd0>
    8188:	eb0001a9 	bl	8834 <rpi_reset_putc>
    818c:	e59f00b0 	ldr	r0, [pc, #176]	; 8244 <notmain+0x170>
    8190:	e59f10a0 	ldr	r1, [pc, #160]	; 8238 <notmain+0x164>
    8194:	e59f20a0 	ldr	r2, [pc, #160]	; 823c <notmain+0x168>
    8198:	e3a0305a 	mov	r3, #90	; 0x5a
    819c:	eb000189 	bl	87c8 <printk>
    81a0:	eb0002f8 	bl	8d88 <clean_reboot>
    81a4:	e59f409c 	ldr	r4, [pc, #156]	; 8248 <notmain+0x174>
    81a8:	e3a00048 	mov	r0, #72	; 0x48
    81ac:	e3a01001 	mov	r1, #1
    81b0:	e1a02004 	mov	r2, r4
    81b4:	ebffff95 	bl	8010 <adc_write16>
    81b8:	e3a00048 	mov	r0, #72	; 0x48
    81bc:	e3a01001 	mov	r1, #1
    81c0:	ebffffa5 	bl	805c <adc_read16>
    81c4:	e1500004 	cmp	r0, r4
    81c8:	0a000010 	beq	8210 <notmain+0x13c>
    81cc:	eb000198 	bl	8834 <rpi_reset_putc>
    81d0:	e59f0074 	ldr	r0, [pc, #116]	; 824c <notmain+0x178>
    81d4:	e59f105c 	ldr	r1, [pc, #92]	; 8238 <notmain+0x164>
    81d8:	e59f205c 	ldr	r2, [pc, #92]	; 823c <notmain+0x168>
    81dc:	e3a0306f 	mov	r3, #111	; 0x6f
    81e0:	eb000178 	bl	87c8 <printk>
    81e4:	eb0002e7 	bl	8d88 <clean_reboot>
    81e8:	e1a00008 	mov	r0, r8
    81ec:	e1a01007 	mov	r1, r7
    81f0:	ebffff99 	bl	805c <adc_read16>
    81f4:	e6bf1070 	sxth	r1, r0
    81f8:	e1a00006 	mov	r0, r6
    81fc:	eb000171 	bl	87c8 <printk>
    8200:	e1a00005 	mov	r0, r5
    8204:	eb00032b 	bl	8eb8 <delay_ms>
    8208:	e2844001 	add	r4, r4, #1
    820c:	ea000004 	b	8224 <notmain+0x150>
    8210:	e3a04000 	mov	r4, #0
    8214:	e3a08048 	mov	r8, #72	; 0x48
    8218:	e1a07004 	mov	r7, r4
    821c:	e59f602c 	ldr	r6, [pc, #44]	; 8250 <notmain+0x17c>
    8220:	e3a05ffa 	mov	r5, #1000	; 0x3e8
    8224:	e3540013 	cmp	r4, #19
    8228:	daffffee 	ble	81e8 <notmain+0x114>
    822c:	eb0002d5 	bl	8d88 <clean_reboot>
    8230:	000096dc 	ldrdeq	r9, [r0], -ip
    8234:	00009708 	andeq	r9, r0, r8, lsl #14
    8238:	00009728 	andeq	r9, r0, r8, lsr #14
    823c:	000096d4 	ldrdeq	r9, [r0], -r4
    8240:	00009734 	andeq	r9, r0, r4, lsr r7
    8244:	00009758 	andeq	r9, r0, r8, asr r7
    8248:	000042e3 	andeq	r4, r0, r3, ror #5
    824c:	0000977c 	andeq	r9, r0, ip, ror r7
    8250:	000097a4 	andeq	r9, r0, r4, lsr #15

00008254 <clear_c>:
    8254:	e3c0000e 	bic	r0, r0, #14
    8258:	e3c00040 	bic	r0, r0, #64	; 0x40
    825c:	e3c00b1e 	bic	r0, r0, #30720	; 0x7800
    8260:	e6ff0070 	uxth	r0, r0
    8264:	e12fff1e 	bx	lr

00008268 <clear_s>:
    8268:	e1a00b00 	lsl	r0, r0, #22
    826c:	e1a00b20 	lsr	r0, r0, #22
    8270:	e12fff1e 	bx	lr

00008274 <check_layout>:
    8274:	e52de004 	push	{lr}		; (str lr, [sp, #-4]!)
    8278:	e49df004 	pop	{pc}		; (ldr pc, [sp], #4)

0000827c <xfer_end>:
    827c:	e92d4010 	push	{r4, lr}
    8280:	e59f30c0 	ldr	r3, [pc, #192]	; 8348 <xfer_end+0xcc>
    8284:	e5933004 	ldr	r3, [r3, #4]
    8288:	e3130002 	tst	r3, #2
    828c:	1a000015 	bne	82e8 <xfer_end+0x6c>
    8290:	e59f30b0 	ldr	r3, [pc, #176]	; 8348 <xfer_end+0xcc>
    8294:	e5933004 	ldr	r3, [r3, #4]
    8298:	e3130c01 	tst	r3, #256	; 0x100
    829c:	1a00000a 	bne	82cc <xfer_end+0x50>
    82a0:	e59f30a0 	ldr	r3, [pc, #160]	; 8348 <xfer_end+0xcc>
    82a4:	e5933004 	ldr	r3, [r3, #4]
    82a8:	e3130c02 	tst	r3, #512	; 0x200
    82ac:	0afffff3 	beq	8280 <xfer_end+0x4>
    82b0:	eb00015f 	bl	8834 <rpi_reset_putc>
    82b4:	e59f3090 	ldr	r3, [pc, #144]	; 834c <xfer_end+0xd0>
    82b8:	e59f2090 	ldr	r2, [pc, #144]	; 8350 <xfer_end+0xd4>
    82bc:	e59f1090 	ldr	r1, [pc, #144]	; 8354 <xfer_end+0xd8>
    82c0:	e59f0090 	ldr	r0, [pc, #144]	; 8358 <xfer_end+0xdc>
    82c4:	eb00013f 	bl	87c8 <printk>
    82c8:	eb0002ae 	bl	8d88 <clean_reboot>
    82cc:	eb000158 	bl	8834 <rpi_reset_putc>
    82d0:	e59f3074 	ldr	r3, [pc, #116]	; 834c <xfer_end+0xd0>
    82d4:	e59f2074 	ldr	r2, [pc, #116]	; 8350 <xfer_end+0xd4>
    82d8:	e59f1074 	ldr	r1, [pc, #116]	; 8354 <xfer_end+0xd8>
    82dc:	e59f0078 	ldr	r0, [pc, #120]	; 835c <xfer_end+0xe0>
    82e0:	eb000138 	bl	87c8 <printk>
    82e4:	eb0002a7 	bl	8d88 <clean_reboot>
    82e8:	e59f3058 	ldr	r3, [pc, #88]	; 8348 <xfer_end+0xcc>
    82ec:	e5933004 	ldr	r3, [r3, #4]
    82f0:	e3130001 	tst	r3, #1
    82f4:	1a000005 	bne	8310 <xfer_end+0x94>
    82f8:	e59f3048 	ldr	r3, [pc, #72]	; 8348 <xfer_end+0xcc>
    82fc:	e5933004 	ldr	r3, [r3, #4]
    8300:	e3130c01 	tst	r3, #256	; 0x100
    8304:	1a000008 	bne	832c <xfer_end+0xb0>
    8308:	eb0004b1 	bl	95d4 <dev_barrier>
    830c:	e8bd8010 	pop	{r4, pc}
    8310:	eb000147 	bl	8834 <rpi_reset_putc>
    8314:	e59f3044 	ldr	r3, [pc, #68]	; 8360 <xfer_end+0xe4>
    8318:	e59f2030 	ldr	r2, [pc, #48]	; 8350 <xfer_end+0xd4>
    831c:	e59f1030 	ldr	r1, [pc, #48]	; 8354 <xfer_end+0xd8>
    8320:	e59f003c 	ldr	r0, [pc, #60]	; 8364 <xfer_end+0xe8>
    8324:	eb000127 	bl	87c8 <printk>
    8328:	eb000296 	bl	8d88 <clean_reboot>
    832c:	eb000140 	bl	8834 <rpi_reset_putc>
    8330:	e59f3030 	ldr	r3, [pc, #48]	; 8368 <xfer_end+0xec>
    8334:	e59f2014 	ldr	r2, [pc, #20]	; 8350 <xfer_end+0xd4>
    8338:	e59f1014 	ldr	r1, [pc, #20]	; 8354 <xfer_end+0xd8>
    833c:	e59f0028 	ldr	r0, [pc, #40]	; 836c <xfer_end+0xf0>
    8340:	eb000120 	bl	87c8 <printk>
    8344:	eb00028f 	bl	8d88 <clean_reboot>
    8348:	20804000 	addcs	r4, r0, r0
    834c:	00000116 	andeq	r0, r0, r6, lsl r1
    8350:	000097bc 			; <UNDEFINED> instruction: 0x000097bc
    8354:	000097f8 	strdeq	r9, [r0], -r8
    8358:	00009914 	andeq	r9, r0, r4, lsl r9
    835c:	000098f0 	strdeq	r9, [r0], -r0
    8360:	00000119 	andeq	r0, r0, r9, lsl r1
    8364:	00009944 	andeq	r9, r0, r4, asr #18
    8368:	0000011b 	andeq	r0, r0, fp, lsl r1
    836c:	00009968 	andeq	r9, r0, r8, ror #18

00008370 <read_s>:
    8370:	e92d4010 	push	{r4, lr}
    8374:	eb0004a8 	bl	961c <get32>
    8378:	ebffffba 	bl	8268 <clear_s>
    837c:	e8bd8010 	pop	{r4, pc}

00008380 <reset_status>:
    8380:	e92d4010 	push	{r4, lr}
    8384:	e59f4018 	ldr	r4, [pc, #24]	; 83a4 <reset_status+0x24>
    8388:	e1a00004 	mov	r0, r4
    838c:	ebfffff7 	bl	8370 <read_s>
    8390:	e3801002 	orr	r1, r0, #2
    8394:	e3811c03 	orr	r1, r1, #768	; 0x300
    8398:	e1a00004 	mov	r0, r4
    839c:	eb000492 	bl	95ec <put32>
    83a0:	e8bd8010 	pop	{r4, pc}
    83a4:	20804004 	addcs	r4, r0, r4

000083a8 <read_c>:
    83a8:	e92d4010 	push	{r4, lr}
    83ac:	eb00049a 	bl	961c <get32>
    83b0:	ebffffa7 	bl	8254 <clear_c>
    83b4:	e8bd8010 	pop	{r4, pc}

000083b8 <xfer_start>:
    83b8:	e92d4070 	push	{r4, r5, r6, lr}
    83bc:	e1a06000 	mov	r6, r0
    83c0:	e1a05001 	mov	r5, r1
    83c4:	e1a04002 	mov	r4, r2
    83c8:	eb000481 	bl	95d4 <dev_barrier>
    83cc:	e59f3180 	ldr	r3, [pc, #384]	; 8554 <xfer_start+0x19c>
    83d0:	e5933004 	ldr	r3, [r3, #4]
    83d4:	e3130001 	tst	r3, #1
    83d8:	0a000015 	beq	8434 <xfer_start+0x7c>
    83dc:	e59f3170 	ldr	r3, [pc, #368]	; 8554 <xfer_start+0x19c>
    83e0:	e5933004 	ldr	r3, [r3, #4]
    83e4:	e3130c01 	tst	r3, #256	; 0x100
    83e8:	1a00000a 	bne	8418 <xfer_start+0x60>
    83ec:	e59f3160 	ldr	r3, [pc, #352]	; 8554 <xfer_start+0x19c>
    83f0:	e5933004 	ldr	r3, [r3, #4]
    83f4:	e3130c02 	tst	r3, #512	; 0x200
    83f8:	0afffff3 	beq	83cc <xfer_start+0x14>
    83fc:	eb00010c 	bl	8834 <rpi_reset_putc>
    8400:	e3a030f6 	mov	r3, #246	; 0xf6
    8404:	e59f214c 	ldr	r2, [pc, #332]	; 8558 <xfer_start+0x1a0>
    8408:	e59f114c 	ldr	r1, [pc, #332]	; 855c <xfer_start+0x1a4>
    840c:	e59f014c 	ldr	r0, [pc, #332]	; 8560 <xfer_start+0x1a8>
    8410:	eb0000ec 	bl	87c8 <printk>
    8414:	eb00025b 	bl	8d88 <clean_reboot>
    8418:	eb000105 	bl	8834 <rpi_reset_putc>
    841c:	e3a030f6 	mov	r3, #246	; 0xf6
    8420:	e59f2130 	ldr	r2, [pc, #304]	; 8558 <xfer_start+0x1a0>
    8424:	e59f1130 	ldr	r1, [pc, #304]	; 855c <xfer_start+0x1a4>
    8428:	e59f0134 	ldr	r0, [pc, #308]	; 8564 <xfer_start+0x1ac>
    842c:	eb0000e5 	bl	87c8 <printk>
    8430:	eb000254 	bl	8d88 <clean_reboot>
    8434:	e59f3118 	ldr	r3, [pc, #280]	; 8554 <xfer_start+0x19c>
    8438:	e5933004 	ldr	r3, [r3, #4]
    843c:	e3130040 	tst	r3, #64	; 0x40
    8440:	0a000026 	beq	84e0 <xfer_start+0x128>
    8444:	ebffffcd 	bl	8380 <reset_status>
    8448:	e1b033a6 	lsrs	r3, r6, #7
    844c:	1a00002a 	bne	84fc <xfer_start+0x144>
    8450:	e1a01006 	mov	r1, r6
    8454:	e59f010c 	ldr	r0, [pc, #268]	; 8568 <xfer_start+0x1b0>
    8458:	eb000463 	bl	95ec <put32>
    845c:	e1b03825 	lsrs	r3, r5, #16
    8460:	1a00002c 	bne	8518 <xfer_start+0x160>
    8464:	e1a01005 	mov	r1, r5
    8468:	e59f00fc 	ldr	r0, [pc, #252]	; 856c <xfer_start+0x1b4>
    846c:	eb00045e 	bl	95ec <put32>
    8470:	e59f50dc 	ldr	r5, [pc, #220]	; 8554 <xfer_start+0x19c>
    8474:	e1a00005 	mov	r0, r5
    8478:	ebffffca 	bl	83a8 <read_c>
    847c:	e38000b0 	orr	r0, r0, #176	; 0xb0
    8480:	e2041001 	and	r1, r4, #1
    8484:	e3c00001 	bic	r0, r0, #1
    8488:	e1811000 	orr	r1, r1, r0
    848c:	e1a00005 	mov	r0, r5
    8490:	eb000455 	bl	95ec <put32>
    8494:	e59f30b8 	ldr	r3, [pc, #184]	; 8554 <xfer_start+0x19c>
    8498:	e5933004 	ldr	r3, [r3, #4]
    849c:	e3130001 	tst	r3, #1
    84a0:	1a00002a 	bne	8550 <xfer_start+0x198>
    84a4:	e59f30a8 	ldr	r3, [pc, #168]	; 8554 <xfer_start+0x19c>
    84a8:	e5933004 	ldr	r3, [r3, #4]
    84ac:	e3130c01 	tst	r3, #256	; 0x100
    84b0:	1a00001f 	bne	8534 <xfer_start+0x17c>
    84b4:	e59f3098 	ldr	r3, [pc, #152]	; 8554 <xfer_start+0x19c>
    84b8:	e5933004 	ldr	r3, [r3, #4]
    84bc:	e3130c02 	tst	r3, #512	; 0x200
    84c0:	0afffff3 	beq	8494 <xfer_start+0xdc>
    84c4:	eb0000da 	bl	8834 <rpi_reset_putc>
    84c8:	e59f30a0 	ldr	r3, [pc, #160]	; 8570 <xfer_start+0x1b8>
    84cc:	e59f2084 	ldr	r2, [pc, #132]	; 8558 <xfer_start+0x1a0>
    84d0:	e59f1084 	ldr	r1, [pc, #132]	; 855c <xfer_start+0x1a4>
    84d4:	e59f0084 	ldr	r0, [pc, #132]	; 8560 <xfer_start+0x1a8>
    84d8:	eb0000ba 	bl	87c8 <printk>
    84dc:	eb000229 	bl	8d88 <clean_reboot>
    84e0:	eb0000d3 	bl	8834 <rpi_reset_putc>
    84e4:	e3a030f9 	mov	r3, #249	; 0xf9
    84e8:	e59f2068 	ldr	r2, [pc, #104]	; 8558 <xfer_start+0x1a0>
    84ec:	e59f1068 	ldr	r1, [pc, #104]	; 855c <xfer_start+0x1a4>
    84f0:	e59f007c 	ldr	r0, [pc, #124]	; 8574 <xfer_start+0x1bc>
    84f4:	eb0000b3 	bl	87c8 <printk>
    84f8:	eb000222 	bl	8d88 <clean_reboot>
    84fc:	eb0000cc 	bl	8834 <rpi_reset_putc>
    8500:	e3a030fe 	mov	r3, #254	; 0xfe
    8504:	e59f204c 	ldr	r2, [pc, #76]	; 8558 <xfer_start+0x1a0>
    8508:	e59f104c 	ldr	r1, [pc, #76]	; 855c <xfer_start+0x1a4>
    850c:	e59f0064 	ldr	r0, [pc, #100]	; 8578 <xfer_start+0x1c0>
    8510:	eb0000ac 	bl	87c8 <printk>
    8514:	eb00021b 	bl	8d88 <clean_reboot>
    8518:	eb0000c5 	bl	8834 <rpi_reset_putc>
    851c:	e59f3058 	ldr	r3, [pc, #88]	; 857c <xfer_start+0x1c4>
    8520:	e59f2030 	ldr	r2, [pc, #48]	; 8558 <xfer_start+0x1a0>
    8524:	e59f1030 	ldr	r1, [pc, #48]	; 855c <xfer_start+0x1a4>
    8528:	e59f0050 	ldr	r0, [pc, #80]	; 8580 <xfer_start+0x1c8>
    852c:	eb0000a5 	bl	87c8 <printk>
    8530:	eb000214 	bl	8d88 <clean_reboot>
    8534:	eb0000be 	bl	8834 <rpi_reset_putc>
    8538:	e59f3030 	ldr	r3, [pc, #48]	; 8570 <xfer_start+0x1b8>
    853c:	e59f2014 	ldr	r2, [pc, #20]	; 8558 <xfer_start+0x1a0>
    8540:	e59f1014 	ldr	r1, [pc, #20]	; 855c <xfer_start+0x1a4>
    8544:	e59f0018 	ldr	r0, [pc, #24]	; 8564 <xfer_start+0x1ac>
    8548:	eb00009e 	bl	87c8 <printk>
    854c:	eb00020d 	bl	8d88 <clean_reboot>
    8550:	e8bd8070 	pop	{r4, r5, r6, pc}
    8554:	20804000 	addcs	r4, r0, r0
    8558:	000097c8 	andeq	r9, r0, r8, asr #15
    855c:	000097f8 	strdeq	r9, [r0], -r8
    8560:	00009914 	andeq	r9, r0, r4, lsl r9
    8564:	000098f0 	strdeq	r9, [r0], -r0
    8568:	2080400c 	addcs	r4, r0, ip
    856c:	20804008 	addcs	r4, r0, r8
    8570:	00000111 	andeq	r0, r0, r1, lsl r1
    8574:	0000998c 	andeq	r9, r0, ip, lsl #19
    8578:	000099b4 			; <UNDEFINED> instruction: 0x000099b4
    857c:	00000102 	andeq	r0, r0, r2, lsl #2
    8580:	000099d8 	ldrdeq	r9, [r0], -r8

00008584 <i2c_write>:
    8584:	e92d4070 	push	{r4, r5, r6, lr}
    8588:	e1a05001 	mov	r5, r1
    858c:	e1a04002 	mov	r4, r2
    8590:	e3a02000 	mov	r2, #0
    8594:	e1a01004 	mov	r1, r4
    8598:	ebffff86 	bl	83b8 <xfer_start>
    859c:	e3a02000 	mov	r2, #0
    85a0:	ea00000a 	b	85d0 <i2c_write+0x4c>
    85a4:	eb0000a2 	bl	8834 <rpi_reset_putc>
    85a8:	e59f3080 	ldr	r3, [pc, #128]	; 8630 <i2c_write+0xac>
    85ac:	e59f2080 	ldr	r2, [pc, #128]	; 8634 <i2c_write+0xb0>
    85b0:	e59f1080 	ldr	r1, [pc, #128]	; 8638 <i2c_write+0xb4>
    85b4:	e59f0080 	ldr	r0, [pc, #128]	; 863c <i2c_write+0xb8>
    85b8:	eb000082 	bl	87c8 <printk>
    85bc:	eb0001f1 	bl	8d88 <clean_reboot>
    85c0:	e7d51002 	ldrb	r1, [r5, r2]
    85c4:	e59f3074 	ldr	r3, [pc, #116]	; 8640 <i2c_write+0xbc>
    85c8:	e5831010 	str	r1, [r3, #16]
    85cc:	e2822001 	add	r2, r2, #1
    85d0:	e1520004 	cmp	r2, r4
    85d4:	2a000012 	bcs	8624 <i2c_write+0xa0>
    85d8:	e59f3060 	ldr	r3, [pc, #96]	; 8640 <i2c_write+0xbc>
    85dc:	e5933004 	ldr	r3, [r3, #4]
    85e0:	e3130010 	tst	r3, #16
    85e4:	1afffff5 	bne	85c0 <i2c_write+0x3c>
    85e8:	e59f3050 	ldr	r3, [pc, #80]	; 8640 <i2c_write+0xbc>
    85ec:	e5933004 	ldr	r3, [r3, #4]
    85f0:	e3130c01 	tst	r3, #256	; 0x100
    85f4:	1affffea 	bne	85a4 <i2c_write+0x20>
    85f8:	e59f3040 	ldr	r3, [pc, #64]	; 8640 <i2c_write+0xbc>
    85fc:	e5933004 	ldr	r3, [r3, #4]
    8600:	e3130c02 	tst	r3, #512	; 0x200
    8604:	0afffff3 	beq	85d8 <i2c_write+0x54>
    8608:	eb000089 	bl	8834 <rpi_reset_putc>
    860c:	e59f301c 	ldr	r3, [pc, #28]	; 8630 <i2c_write+0xac>
    8610:	e59f201c 	ldr	r2, [pc, #28]	; 8634 <i2c_write+0xb0>
    8614:	e59f101c 	ldr	r1, [pc, #28]	; 8638 <i2c_write+0xb4>
    8618:	e59f0024 	ldr	r0, [pc, #36]	; 8644 <i2c_write+0xc0>
    861c:	eb000069 	bl	87c8 <printk>
    8620:	eb0001d8 	bl	8d88 <clean_reboot>
    8624:	ebffff14 	bl	827c <xfer_end>
    8628:	e3a00001 	mov	r0, #1
    862c:	e8bd8070 	pop	{r4, r5, r6, pc}
    8630:	00000126 	andeq	r0, r0, r6, lsr #2
    8634:	000097d4 	ldrdeq	r9, [r0], -r4
    8638:	000097f8 	strdeq	r9, [r0], -r8
    863c:	000098f0 	strdeq	r9, [r0], -r0
    8640:	20804000 	addcs	r4, r0, r0
    8644:	00009914 	andeq	r9, r0, r4, lsl r9

00008648 <i2c_read>:
    8648:	e92d4070 	push	{r4, r5, r6, lr}
    864c:	e1a05001 	mov	r5, r1
    8650:	e1a04002 	mov	r4, r2
    8654:	e3a02001 	mov	r2, #1
    8658:	e1a01004 	mov	r1, r4
    865c:	ebffff55 	bl	83b8 <xfer_start>
    8660:	e3a02000 	mov	r2, #0
    8664:	ea00000a 	b	8694 <i2c_read+0x4c>
    8668:	eb000071 	bl	8834 <rpi_reset_putc>
    866c:	e59f3080 	ldr	r3, [pc, #128]	; 86f4 <i2c_read+0xac>
    8670:	e59f2080 	ldr	r2, [pc, #128]	; 86f8 <i2c_read+0xb0>
    8674:	e59f1080 	ldr	r1, [pc, #128]	; 86fc <i2c_read+0xb4>
    8678:	e59f0080 	ldr	r0, [pc, #128]	; 8700 <i2c_read+0xb8>
    867c:	eb000051 	bl	87c8 <printk>
    8680:	eb0001c0 	bl	8d88 <clean_reboot>
    8684:	e59f3078 	ldr	r3, [pc, #120]	; 8704 <i2c_read+0xbc>
    8688:	e5933010 	ldr	r3, [r3, #16]
    868c:	e7c53002 	strb	r3, [r5, r2]
    8690:	e2822001 	add	r2, r2, #1
    8694:	e1520004 	cmp	r2, r4
    8698:	2a000012 	bcs	86e8 <i2c_read+0xa0>
    869c:	e59f3060 	ldr	r3, [pc, #96]	; 8704 <i2c_read+0xbc>
    86a0:	e5933004 	ldr	r3, [r3, #4]
    86a4:	e3130020 	tst	r3, #32
    86a8:	1afffff5 	bne	8684 <i2c_read+0x3c>
    86ac:	e59f3050 	ldr	r3, [pc, #80]	; 8704 <i2c_read+0xbc>
    86b0:	e5933004 	ldr	r3, [r3, #4]
    86b4:	e3130c01 	tst	r3, #256	; 0x100
    86b8:	1affffea 	bne	8668 <i2c_read+0x20>
    86bc:	e59f3040 	ldr	r3, [pc, #64]	; 8704 <i2c_read+0xbc>
    86c0:	e5933004 	ldr	r3, [r3, #4]
    86c4:	e3130c02 	tst	r3, #512	; 0x200
    86c8:	0afffff3 	beq	869c <i2c_read+0x54>
    86cc:	eb000058 	bl	8834 <rpi_reset_putc>
    86d0:	e59f301c 	ldr	r3, [pc, #28]	; 86f4 <i2c_read+0xac>
    86d4:	e59f201c 	ldr	r2, [pc, #28]	; 86f8 <i2c_read+0xb0>
    86d8:	e59f101c 	ldr	r1, [pc, #28]	; 86fc <i2c_read+0xb4>
    86dc:	e59f0024 	ldr	r0, [pc, #36]	; 8708 <i2c_read+0xc0>
    86e0:	eb000038 	bl	87c8 <printk>
    86e4:	eb0001a7 	bl	8d88 <clean_reboot>
    86e8:	ebfffee3 	bl	827c <xfer_end>
    86ec:	e3a00001 	mov	r0, #1
    86f0:	e8bd8070 	pop	{r4, r5, r6, pc}
    86f4:	00000137 	andeq	r0, r0, r7, lsr r1
    86f8:	000097e0 	andeq	r9, r0, r0, ror #15
    86fc:	000097f8 	strdeq	r9, [r0], -r8
    8700:	000098f0 	strdeq	r9, [r0], -r0
    8704:	20804000 	addcs	r4, r0, r0
    8708:	00009914 	andeq	r9, r0, r4, lsl r9

0000870c <i2c_is_initialized>:
    870c:	e59f3004 	ldr	r3, [pc, #4]	; 8718 <i2c_is_initialized+0xc>
    8710:	e5930000 	ldr	r0, [r3]
    8714:	e12fff1e 	bx	lr
    8718:	00009b10 	andeq	r9, r0, r0, lsl fp

0000871c <i2c_init>:
    871c:	e92d4010 	push	{r4, lr}
    8720:	ebfffed3 	bl	8274 <check_layout>
    8724:	eb0003aa 	bl	95d4 <dev_barrier>
    8728:	e3a01004 	mov	r1, #4
    872c:	e3a00002 	mov	r0, #2
    8730:	eb00028a 	bl	9160 <gpio_set_function>
    8734:	e3a01004 	mov	r1, #4
    8738:	e3a00003 	mov	r0, #3
    873c:	eb000287 	bl	9160 <gpio_set_function>
    8740:	eb0003a3 	bl	95d4 <dev_barrier>
    8744:	e59f404c 	ldr	r4, [pc, #76]	; 8798 <i2c_init+0x7c>
    8748:	e3a01902 	mov	r1, #32768	; 0x8000
    874c:	e1a00004 	mov	r0, r4
    8750:	eb0003a5 	bl	95ec <put32>
    8754:	eb00039e 	bl	95d4 <dev_barrier>
    8758:	ebffff08 	bl	8380 <reset_status>
    875c:	eb00039c 	bl	95d4 <dev_barrier>
    8760:	e5943004 	ldr	r3, [r4, #4]
    8764:	e3130001 	tst	r3, #1
    8768:	1a000003 	bne	877c <i2c_init+0x60>
    876c:	e3a02001 	mov	r2, #1
    8770:	e59f3024 	ldr	r3, [pc, #36]	; 879c <i2c_init+0x80>
    8774:	e5832000 	str	r2, [r3]
    8778:	e8bd8010 	pop	{r4, pc}
    877c:	eb00002c 	bl	8834 <rpi_reset_putc>
    8780:	e59f3018 	ldr	r3, [pc, #24]	; 87a0 <i2c_init+0x84>
    8784:	e59f2018 	ldr	r2, [pc, #24]	; 87a4 <i2c_init+0x88>
    8788:	e59f1018 	ldr	r1, [pc, #24]	; 87a8 <i2c_init+0x8c>
    878c:	e59f0018 	ldr	r0, [pc, #24]	; 87ac <i2c_init+0x90>
    8790:	eb00000c 	bl	87c8 <printk>
    8794:	eb00017b 	bl	8d88 <clean_reboot>
    8798:	20804000 	addcs	r4, r0, r0
    879c:	00009b10 	andeq	r9, r0, r0, lsl fp
    87a0:	0000016e 	andeq	r0, r0, lr, ror #2
    87a4:	000097ec 	andeq	r9, r0, ip, ror #15
    87a8:	000097f8 	strdeq	r9, [r0], -r8
    87ac:	00009944 	andeq	r9, r0, r4, asr #18

000087b0 <i2c_init_once>:
    87b0:	e92d4010 	push	{r4, lr}
    87b4:	ebffffd4 	bl	870c <i2c_is_initialized>
    87b8:	e3500000 	cmp	r0, #0
    87bc:	18bd8010 	popne	{r4, pc}
    87c0:	ebffffd5 	bl	871c <i2c_init>
    87c4:	e8bd8010 	pop	{r4, pc}

000087c8 <printk>:
    87c8:	e92d000f 	push	{r0, r1, r2, r3}
    87cc:	e92d4030 	push	{r4, r5, lr}
    87d0:	e24dd00c 	sub	sp, sp, #12
    87d4:	e28d301c 	add	r3, sp, #28
    87d8:	e58d3004 	str	r3, [sp, #4]
    87dc:	e59f4034 	ldr	r4, [pc, #52]	; 8818 <printk+0x50>
    87e0:	e1a00004 	mov	r0, r4
    87e4:	e3a01b01 	mov	r1, #1024	; 0x400
    87e8:	e59d2018 	ldr	r2, [sp, #24]
    87ec:	eb0000c3 	bl	8b00 <va_printk>
    87f0:	e1a05000 	mov	r5, r0
    87f4:	e59f3020 	ldr	r3, [pc, #32]	; 881c <printk+0x54>
    87f8:	e5933000 	ldr	r3, [r3]
    87fc:	e1a00004 	mov	r0, r4
    8800:	e12fff33 	blx	r3
    8804:	e1a00005 	mov	r0, r5
    8808:	e28dd00c 	add	sp, sp, #12
    880c:	e8bd4030 	pop	{r4, r5, lr}
    8810:	e28dd010 	add	sp, sp, #16
    8814:	e12fff1e 	bx	lr
    8818:	00009b14 	andeq	r9, r0, r4, lsl fp
    881c:	0000963c 	andeq	r9, r0, ip, lsr r6

00008820 <internal_putchar>:
    8820:	e92d4010 	push	{r4, lr}
    8824:	e1a04000 	mov	r4, r0
    8828:	eb000353 	bl	957c <uart_putc>
    882c:	e1a00004 	mov	r0, r4
    8830:	e8bd8010 	pop	{r4, pc}

00008834 <rpi_reset_putc>:
    8834:	e59f2008 	ldr	r2, [pc, #8]	; 8844 <rpi_reset_putc+0x10>
    8838:	e59f3008 	ldr	r3, [pc, #8]	; 8848 <rpi_reset_putc+0x14>
    883c:	e5832000 	str	r2, [r3]
    8840:	e12fff1e 	bx	lr
    8844:	00008820 	andeq	r8, r0, r0, lsr #16
    8848:	00009638 	andeq	r9, r0, r8, lsr r6

0000884c <rpi_set_putc>:
    884c:	e59f3004 	ldr	r3, [pc, #4]	; 8858 <rpi_set_putc+0xc>
    8850:	e5830000 	str	r0, [r3]
    8854:	e12fff1e 	bx	lr
    8858:	00009638 	andeq	r9, r0, r8, lsr r6

0000885c <internal_putk>:
    885c:	e92d4038 	push	{r3, r4, r5, lr}
    8860:	e1a04000 	mov	r4, r0
    8864:	e59f5020 	ldr	r5, [pc, #32]	; 888c <internal_putk+0x30>
    8868:	ea000002 	b	8878 <internal_putk+0x1c>
    886c:	e5953000 	ldr	r3, [r5]
    8870:	e12fff33 	blx	r3
    8874:	e2844001 	add	r4, r4, #1
    8878:	e5d40000 	ldrb	r0, [r4]
    887c:	e3500000 	cmp	r0, #0
    8880:	1afffff9 	bne	886c <internal_putk+0x10>
    8884:	e3a00001 	mov	r0, #1
    8888:	e8bd8038 	pop	{r3, r4, r5, pc}
    888c:	00009638 	andeq	r9, r0, r8, lsr r6

00008890 <isdigit>:
    8890:	e2400030 	sub	r0, r0, #48	; 0x30
    8894:	e3500009 	cmp	r0, #9
    8898:	83a00000 	movhi	r0, #0
    889c:	93a00001 	movls	r0, #1
    88a0:	e12fff1e 	bx	lr

000088a4 <pad>:
    88a4:	e0611000 	rsb	r1, r1, r0
    88a8:	e3a03020 	mov	r3, #32
    88ac:	ea000002 	b	88bc <pad+0x18>
    88b0:	e5c03000 	strb	r3, [r0]
    88b4:	e2811001 	add	r1, r1, #1
    88b8:	e2800001 	add	r0, r0, #1
    88bc:	e1510002 	cmp	r1, r2
    88c0:	bafffffa 	blt	88b0 <pad+0xc>
    88c4:	e3a03000 	mov	r3, #0
    88c8:	e5c03000 	strb	r3, [r0]
    88cc:	e12fff1e 	bx	lr

000088d0 <reverse>:
    88d0:	e063c002 	rsb	ip, r3, r2
    88d4:	e28cc001 	add	ip, ip, #1
    88d8:	e15c0001 	cmp	ip, r1
    88dc:	c061100c 	rsbgt	r1, r1, ip
    88e0:	c0833001 	addgt	r3, r3, r1
    88e4:	e2422001 	sub	r2, r2, #1
    88e8:	e1a01000 	mov	r1, r0
    88ec:	ea000002 	b	88fc <reverse+0x2c>
    88f0:	e452c001 	ldrb	ip, [r2], #-1
    88f4:	e5c1c000 	strb	ip, [r1]
    88f8:	e2811001 	add	r1, r1, #1
    88fc:	e1520003 	cmp	r2, r3
    8900:	2afffffa 	bcs	88f0 <reverse+0x20>
    8904:	e3a03000 	mov	r3, #0
    8908:	e5c13000 	strb	r3, [r1]
    890c:	e12fff1e 	bx	lr

00008910 <emit>:
    8910:	e92d41f0 	push	{r4, r5, r6, r7, r8, lr}
    8914:	e24dd040 	sub	sp, sp, #64	; 0x40
    8918:	e1a05001 	mov	r5, r1
    891c:	e1a04002 	mov	r4, r2
    8920:	e59d2058 	ldr	r2, [sp, #88]	; 0x58
    8924:	e1520004 	cmp	r2, r4
    8928:	c2442001 	subgt	r2, r4, #1
    892c:	e1a0c003 	mov	ip, r3
    8930:	e2400002 	sub	r0, r0, #2
    8934:	e350000e 	cmp	r0, #14
    8938:	979ff100 	ldrls	pc, [pc, r0, lsl #2]
    893c:	ea000042 	b	8a4c <emit+0x13c>
    8940:	00008a24 	andeq	r8, r0, r4, lsr #20
    8944:	00008a4c 	andeq	r8, r0, ip, asr #20
    8948:	00008a4c 	andeq	r8, r0, ip, asr #20
    894c:	00008a4c 	andeq	r8, r0, ip, asr #20
    8950:	00008a4c 	andeq	r8, r0, ip, asr #20
    8954:	00008a4c 	andeq	r8, r0, ip, asr #20
    8958:	00008a18 	andeq	r8, r0, r8, lsl sl
    895c:	00008a4c 	andeq	r8, r0, ip, asr #20
    8960:	0000897c 	andeq	r8, r0, ip, ror r9
    8964:	00008a4c 	andeq	r8, r0, ip, asr #20
    8968:	00008a4c 	andeq	r8, r0, ip, asr #20
    896c:	00008a4c 	andeq	r8, r0, ip, asr #20
    8970:	00008a4c 	andeq	r8, r0, ip, asr #20
    8974:	00008a4c 	andeq	r8, r0, ip, asr #20
    8978:	000089f0 	strdeq	r8, [r0], -r0
    897c:	e59d105c 	ldr	r1, [sp, #92]	; 0x5c
    8980:	e2911000 	adds	r1, r1, #0
    8984:	13a01001 	movne	r1, #1
    8988:	e0111fa3 	ands	r1, r1, r3, lsr #31
    898c:	1263c000 	rsbne	ip, r3, #0
    8990:	13a08001 	movne	r8, #1
    8994:	03a08000 	moveq	r8, #0
    8998:	e1a0100d 	mov	r1, sp
    899c:	e59f70ec 	ldr	r7, [pc, #236]	; 8a90 <emit+0x180>
    89a0:	e59f60ec 	ldr	r6, [pc, #236]	; 8a94 <emit+0x184>
    89a4:	ea000000 	b	89ac <emit+0x9c>
    89a8:	e1a01003 	mov	r1, r3
    89ac:	e2813001 	add	r3, r1, #1
    89b0:	e08e0c97 	umull	r0, lr, r7, ip
    89b4:	e1a0e1ae 	lsr	lr, lr, #3
    89b8:	e1a0000e 	mov	r0, lr
    89bc:	e08ee10e 	add	lr, lr, lr, lsl #2
    89c0:	e1a0e08e 	lsl	lr, lr, #1
    89c4:	e06ee00c 	rsb	lr, lr, ip
    89c8:	e7d6c00e 	ldrb	ip, [r6, lr]
    89cc:	e5c1c000 	strb	ip, [r1]
    89d0:	e1a0c000 	mov	ip, r0
    89d4:	e3500000 	cmp	r0, #0
    89d8:	1afffff2 	bne	89a8 <emit+0x98>
    89dc:	e3580000 	cmp	r8, #0
    89e0:	12813002 	addne	r3, r1, #2
    89e4:	13a0002d 	movne	r0, #45	; 0x2d
    89e8:	15c10001 	strbne	r0, [r1, #1]
    89ec:	ea00001d 	b	8a68 <emit+0x158>
    89f0:	e1a0e00d 	mov	lr, sp
    89f4:	e59f009c 	ldr	r0, [pc, #156]	; 8a98 <emit+0x188>
    89f8:	e28e3001 	add	r3, lr, #1
    89fc:	e20c100f 	and	r1, ip, #15
    8a00:	e7d01001 	ldrb	r1, [r0, r1]
    8a04:	e5ce1000 	strb	r1, [lr]
    8a08:	e1a0e003 	mov	lr, r3
    8a0c:	e1b0c22c 	lsrs	ip, ip, #4
    8a10:	1afffff8 	bne	89f8 <emit+0xe8>
    8a14:	ea000013 	b	8a68 <emit+0x158>
    8a18:	e5cd3000 	strb	r3, [sp]
    8a1c:	e28d3001 	add	r3, sp, #1
    8a20:	ea000010 	b	8a68 <emit+0x158>
    8a24:	e1a0e00d 	mov	lr, sp
    8a28:	e59f006c 	ldr	r0, [pc, #108]	; 8a9c <emit+0x18c>
    8a2c:	e28e3001 	add	r3, lr, #1
    8a30:	e20c1001 	and	r1, ip, #1
    8a34:	e7d01001 	ldrb	r1, [r0, r1]
    8a38:	e5ce1000 	strb	r1, [lr]
    8a3c:	e1a0e003 	mov	lr, r3
    8a40:	e1b0c0ac 	lsrs	ip, ip, #1
    8a44:	1afffff8 	bne	8a2c <emit+0x11c>
    8a48:	ea000006 	b	8a68 <emit+0x158>
    8a4c:	ebffff78 	bl	8834 <rpi_reset_putc>
    8a50:	e59f0048 	ldr	r0, [pc, #72]	; 8aa0 <emit+0x190>
    8a54:	e59f1048 	ldr	r1, [pc, #72]	; 8aa4 <emit+0x194>
    8a58:	e59f2048 	ldr	r2, [pc, #72]	; 8aa8 <emit+0x198>
    8a5c:	e3a03075 	mov	r3, #117	; 0x75
    8a60:	ebffff58 	bl	87c8 <printk>
    8a64:	eb0000c7 	bl	8d88 <clean_reboot>
    8a68:	e1a00003 	mov	r0, r3
    8a6c:	e1a0100d 	mov	r1, sp
    8a70:	ebffff8b 	bl	88a4 <pad>
    8a74:	e1a02000 	mov	r2, r0
    8a78:	e1a00005 	mov	r0, r5
    8a7c:	e1a01004 	mov	r1, r4
    8a80:	e1a0300d 	mov	r3, sp
    8a84:	ebffff91 	bl	88d0 <reverse>
    8a88:	e28dd040 	add	sp, sp, #64	; 0x40
    8a8c:	e8bd81f0 	pop	{r4, r5, r6, r7, r8, pc}
    8a90:	cccccccd 	stclgt	12, cr12, [ip], {205}	; 0xcd
    8a94:	00009a4c 	andeq	r9, r0, ip, asr #20
    8a98:	00009a58 	andeq	r9, r0, r8, asr sl
    8a9c:	00009a6c 	andeq	r9, r0, ip, ror #20
    8aa0:	00009a24 	andeq	r9, r0, r4, lsr #20
    8aa4:	00009a38 	andeq	r9, r0, r8, lsr sl
    8aa8:	00009a00 	andeq	r9, r0, r0, lsl #20

00008aac <rpi_set_output>:
    8aac:	e92d4008 	push	{r3, lr}
    8ab0:	e3500000 	cmp	r0, #0
    8ab4:	1a000006 	bne	8ad4 <rpi_set_output+0x28>
    8ab8:	ebffff5d 	bl	8834 <rpi_reset_putc>
    8abc:	e59f0028 	ldr	r0, [pc, #40]	; 8aec <rpi_set_output+0x40>
    8ac0:	e59f1028 	ldr	r1, [pc, #40]	; 8af0 <rpi_set_output+0x44>
    8ac4:	e59f2028 	ldr	r2, [pc, #40]	; 8af4 <rpi_set_output+0x48>
    8ac8:	e3a03020 	mov	r3, #32
    8acc:	ebffff3d 	bl	87c8 <printk>
    8ad0:	eb0000ac 	bl	8d88 <clean_reboot>
    8ad4:	e59f301c 	ldr	r3, [pc, #28]	; 8af8 <rpi_set_output+0x4c>
    8ad8:	e5830000 	str	r0, [r3]
    8adc:	e3510000 	cmp	r1, #0
    8ae0:	159f3014 	ldrne	r3, [pc, #20]	; 8afc <rpi_set_output+0x50>
    8ae4:	15831000 	strne	r1, [r3]
    8ae8:	e8bd8008 	pop	{r3, pc}
    8aec:	00009a70 	andeq	r9, r0, r0, ror sl
    8af0:	00009a38 	andeq	r9, r0, r8, lsr sl
    8af4:	00009a08 	andeq	r9, r0, r8, lsl #20
    8af8:	00009638 	andeq	r9, r0, r8, lsr r6
    8afc:	0000963c 	andeq	r9, r0, ip, lsr r6

00008b00 <va_printk>:
    8b00:	e92d4ff0 	push	{r4, r5, r6, r7, r8, r9, sl, fp, lr}
    8b04:	e24dd08c 	sub	sp, sp, #140	; 0x8c
    8b08:	e1a0a000 	mov	sl, r0
    8b0c:	e1a09003 	mov	r9, r3
    8b10:	e2411001 	sub	r1, r1, #1
    8b14:	e0808001 	add	r8, r0, r1
    8b18:	e3a03000 	mov	r3, #0
    8b1c:	e5c03000 	strb	r3, [r0]
    8b20:	e1a04000 	mov	r4, r0
    8b24:	e1a0b003 	mov	fp, r3
    8b28:	ea000086 	b	8d48 <va_printk+0x248>
    8b2c:	e3530025 	cmp	r3, #37	; 0x25
    8b30:	12822001 	addne	r2, r2, #1
    8b34:	15c43000 	strbne	r3, [r4]
    8b38:	12844001 	addne	r4, r4, #1
    8b3c:	1a000081 	bne	8d48 <va_printk+0x248>
    8b40:	e5d21001 	ldrb	r1, [r2, #1]
    8b44:	e3510025 	cmp	r1, #37	; 0x25
    8b48:	05c43000 	strbeq	r3, [r4]
    8b4c:	02822002 	addeq	r2, r2, #2
    8b50:	02844001 	addeq	r4, r4, #1
    8b54:	0a00007b 	beq	8d48 <va_printk+0x248>
    8b58:	e2826001 	add	r6, r2, #1
    8b5c:	e1a0700b 	mov	r7, fp
    8b60:	ea000004 	b	8b78 <va_printk+0x78>
    8b64:	e0877107 	add	r7, r7, r7, lsl #2
    8b68:	e1a07087 	lsl	r7, r7, #1
    8b6c:	e0877005 	add	r7, r7, r5
    8b70:	e2477030 	sub	r7, r7, #48	; 0x30
    8b74:	e2866001 	add	r6, r6, #1
    8b78:	e5d65000 	ldrb	r5, [r6]
    8b7c:	e1a00005 	mov	r0, r5
    8b80:	ebffff42 	bl	8890 <isdigit>
    8b84:	e3500000 	cmp	r0, #0
    8b88:	1afffff5 	bne	8b64 <va_printk+0x64>
    8b8c:	e357001f 	cmp	r7, #31
    8b90:	9a000006 	bls	8bb0 <va_printk+0xb0>
    8b94:	ebffff26 	bl	8834 <rpi_reset_putc>
    8b98:	e59f01d4 	ldr	r0, [pc, #468]	; 8d74 <va_printk+0x274>
    8b9c:	e59f11d4 	ldr	r1, [pc, #468]	; 8d78 <va_printk+0x278>
    8ba0:	e59f21d4 	ldr	r2, [pc, #468]	; 8d7c <va_printk+0x27c>
    8ba4:	e3a03092 	mov	r3, #146	; 0x92
    8ba8:	ebffff06 	bl	87c8 <printk>
    8bac:	eb000075 	bl	8d88 <clean_reboot>
    8bb0:	e2455062 	sub	r5, r5, #98	; 0x62
    8bb4:	e3550016 	cmp	r5, #22
    8bb8:	979ff105 	ldrls	pc, [pc, r5, lsl #2]
    8bbc:	ea00004e 	b	8cfc <va_printk+0x1fc>
    8bc0:	00008ca8 	andeq	r8, r0, r8, lsr #25
    8bc4:	00008cd8 	ldrdeq	r8, [r0], -r8	; <UNPREDICTABLE>
    8bc8:	00008c38 	andeq	r8, r0, r8, lsr ip
    8bcc:	00008cfc 	strdeq	r8, [r0], -ip
    8bd0:	00008c1c 	andeq	r8, r0, ip, lsl ip
    8bd4:	00008cfc 	strdeq	r8, [r0], -ip
    8bd8:	00008cfc 	strdeq	r8, [r0], -ip
    8bdc:	00008cfc 	strdeq	r8, [r0], -ip
    8be0:	00008cfc 	strdeq	r8, [r0], -ip
    8be4:	00008cfc 	strdeq	r8, [r0], -ip
    8be8:	00008cfc 	strdeq	r8, [r0], -ip
    8bec:	00008cfc 	strdeq	r8, [r0], -ip
    8bf0:	00008cfc 	strdeq	r8, [r0], -ip
    8bf4:	00008cfc 	strdeq	r8, [r0], -ip
    8bf8:	00008c84 	andeq	r8, r0, r4, lsl #25
    8bfc:	00008cfc 	strdeq	r8, [r0], -ip
    8c00:	00008cfc 	strdeq	r8, [r0], -ip
    8c04:	00008ccc 	andeq	r8, r0, ip, asr #25
    8c08:	00008cfc 	strdeq	r8, [r0], -ip
    8c0c:	00008c60 	andeq	r8, r0, r0, ror #24
    8c10:	00008cfc 	strdeq	r8, [r0], -ip
    8c14:	00008cfc 	strdeq	r8, [r0], -ip
    8c18:	00008c84 	andeq	r8, r0, r4, lsl #25
    8c1c:	ebffff04 	bl	8834 <rpi_reset_putc>
    8c20:	e59f0158 	ldr	r0, [pc, #344]	; 8d80 <va_printk+0x280>
    8c24:	e59f114c 	ldr	r1, [pc, #332]	; 8d78 <va_printk+0x278>
    8c28:	e59f214c 	ldr	r2, [pc, #332]	; 8d7c <va_printk+0x27c>
    8c2c:	e3a03098 	mov	r3, #152	; 0x98
    8c30:	ebfffee4 	bl	87c8 <printk>
    8c34:	eb000053 	bl	8d88 <clean_reboot>
    8c38:	e5993000 	ldr	r3, [r9]
    8c3c:	e2899004 	add	r9, r9, #4
    8c40:	e58d7000 	str	r7, [sp]
    8c44:	e3a02001 	mov	r2, #1
    8c48:	e58d2004 	str	r2, [sp, #4]
    8c4c:	e3a0000a 	mov	r0, #10
    8c50:	e28d1008 	add	r1, sp, #8
    8c54:	e3a02080 	mov	r2, #128	; 0x80
    8c58:	ebffff2c 	bl	8910 <emit>
    8c5c:	ea00002f 	b	8d20 <va_printk+0x220>
    8c60:	e5993000 	ldr	r3, [r9]
    8c64:	e2899004 	add	r9, r9, #4
    8c68:	e58d7000 	str	r7, [sp]
    8c6c:	e58db004 	str	fp, [sp, #4]
    8c70:	e3a0000a 	mov	r0, #10
    8c74:	e28d1008 	add	r1, sp, #8
    8c78:	e3a02080 	mov	r2, #128	; 0x80
    8c7c:	ebffff23 	bl	8910 <emit>
    8c80:	ea000026 	b	8d20 <va_printk+0x220>
    8c84:	e5993000 	ldr	r3, [r9]
    8c88:	e2899004 	add	r9, r9, #4
    8c8c:	e58d7000 	str	r7, [sp]
    8c90:	e58db004 	str	fp, [sp, #4]
    8c94:	e3a00010 	mov	r0, #16
    8c98:	e28d1008 	add	r1, sp, #8
    8c9c:	e3a02080 	mov	r2, #128	; 0x80
    8ca0:	ebffff1a 	bl	8910 <emit>
    8ca4:	ea00001d 	b	8d20 <va_printk+0x220>
    8ca8:	e5993000 	ldr	r3, [r9]
    8cac:	e2899004 	add	r9, r9, #4
    8cb0:	e58d7000 	str	r7, [sp]
    8cb4:	e58db004 	str	fp, [sp, #4]
    8cb8:	e3a00002 	mov	r0, #2
    8cbc:	e28d1008 	add	r1, sp, #8
    8cc0:	e3a02080 	mov	r2, #128	; 0x80
    8cc4:	ebffff11 	bl	8910 <emit>
    8cc8:	ea000014 	b	8d20 <va_printk+0x220>
    8ccc:	e5990000 	ldr	r0, [r9]
    8cd0:	e2899004 	add	r9, r9, #4
    8cd4:	ea000011 	b	8d20 <va_printk+0x220>
    8cd8:	e5993000 	ldr	r3, [r9]
    8cdc:	e2899004 	add	r9, r9, #4
    8ce0:	e58d7000 	str	r7, [sp]
    8ce4:	e58db004 	str	fp, [sp, #4]
    8ce8:	e3a00008 	mov	r0, #8
    8cec:	e08d1000 	add	r1, sp, r0
    8cf0:	e3a02080 	mov	r2, #128	; 0x80
    8cf4:	ebffff05 	bl	8910 <emit>
    8cf8:	ea000008 	b	8d20 <va_printk+0x220>
    8cfc:	ebfffecc 	bl	8834 <rpi_reset_putc>
    8d00:	e5d63000 	ldrb	r3, [r6]
    8d04:	e58d3000 	str	r3, [sp]
    8d08:	e59f0074 	ldr	r0, [pc, #116]	; 8d84 <va_printk+0x284>
    8d0c:	e59f1064 	ldr	r1, [pc, #100]	; 8d78 <va_printk+0x278>
    8d10:	e59f2064 	ldr	r2, [pc, #100]	; 8d7c <va_printk+0x27c>
    8d14:	e3a030b9 	mov	r3, #185	; 0xb9
    8d18:	ebfffeaa 	bl	87c8 <printk>
    8d1c:	eb000019 	bl	8d88 <clean_reboot>
    8d20:	e2862001 	add	r2, r6, #1
    8d24:	ea000002 	b	8d34 <va_printk+0x234>
    8d28:	e2800001 	add	r0, r0, #1
    8d2c:	e5c43000 	strb	r3, [r4]
    8d30:	e2844001 	add	r4, r4, #1
    8d34:	e1540008 	cmp	r4, r8
    8d38:	2a000002 	bcs	8d48 <va_printk+0x248>
    8d3c:	e5d03000 	ldrb	r3, [r0]
    8d40:	e3530000 	cmp	r3, #0
    8d44:	1afffff7 	bne	8d28 <va_printk+0x228>
    8d48:	e5d23000 	ldrb	r3, [r2]
    8d4c:	e3530000 	cmp	r3, #0
    8d50:	0a000001 	beq	8d5c <va_printk+0x25c>
    8d54:	e1540008 	cmp	r4, r8
    8d58:	3affff73 	bcc	8b2c <va_printk+0x2c>
    8d5c:	e2840001 	add	r0, r4, #1
    8d60:	e3a03000 	mov	r3, #0
    8d64:	e5c43000 	strb	r3, [r4]
    8d68:	e06a0000 	rsb	r0, sl, r0
    8d6c:	e28dd08c 	add	sp, sp, #140	; 0x8c
    8d70:	e8bd8ff0 	pop	{r4, r5, r6, r7, r8, r9, sl, fp, pc}
    8d74:	00009a88 	andeq	r9, r0, r8, lsl #21
    8d78:	00009a38 	andeq	r9, r0, r8, lsr sl
    8d7c:	00009a18 	andeq	r9, r0, r8, lsl sl
    8d80:	00009aa4 	andeq	r9, r0, r4, lsr #21
    8d84:	00009acc 	andeq	r9, r0, ip, asr #21

00008d88 <clean_reboot>:
    8d88:	e92d4008 	push	{r3, lr}
    8d8c:	e59f3014 	ldr	r3, [pc, #20]	; 8da8 <clean_reboot+0x20>
    8d90:	e5933000 	ldr	r3, [r3]
    8d94:	e59f0010 	ldr	r0, [pc, #16]	; 8dac <clean_reboot+0x24>
    8d98:	e12fff33 	blx	r3
    8d9c:	e3a00064 	mov	r0, #100	; 0x64
    8da0:	eb000044 	bl	8eb8 <delay_ms>
    8da4:	eb000019 	bl	8e10 <rpi_reboot>
    8da8:	0000963c 	andeq	r9, r0, ip, lsr r6
    8dac:	00009b04 	andeq	r9, r0, r4, lsl #22

00008db0 <_cstart>:
    8db0:	e92d4008 	push	{r3, lr}
    8db4:	e59f3020 	ldr	r3, [pc, #32]	; 8ddc <_cstart+0x2c>
    8db8:	e59f2020 	ldr	r2, [pc, #32]	; 8de0 <_cstart+0x30>
    8dbc:	e3a01000 	mov	r1, #0
    8dc0:	ea000001 	b	8dcc <_cstart+0x1c>
    8dc4:	e5831000 	str	r1, [r3]
    8dc8:	e2833004 	add	r3, r3, #4
    8dcc:	e1530002 	cmp	r3, r2
    8dd0:	3afffffb 	bcc	8dc4 <_cstart+0x14>
    8dd4:	ebfffcbe 	bl	80d4 <notmain>
    8dd8:	eb00000c 	bl	8e10 <rpi_reboot>
    8ddc:	00009b10 	andeq	r9, r0, r0, lsl fp
    8de0:	00009f18 	andeq	r9, r0, r8, lsl pc

00008de4 <at_user_level>:
    8de4:	e10f0000 	mrs	r0, CPSR
    8de8:	e200001f 	and	r0, r0, #31
    8dec:	e3500010 	cmp	r0, #16
    8df0:	13a00000 	movne	r0, #0
    8df4:	03a00001 	moveq	r0, #1
    8df8:	e12fff1e 	bx	lr

00008dfc <set_user_level>:
    8dfc:	e10f3000 	mrs	r3, CPSR
    8e00:	e3c3301f 	bic	r3, r3, #31
    8e04:	e3833010 	orr	r3, r3, #16
    8e08:	e129f003 	msr	CPSR_fc, r3
    8e0c:	e12fff1e 	bx	lr

00008e10 <rpi_reboot>:
    8e10:	e92d4008 	push	{r3, lr}
    8e14:	ebfffff2 	bl	8de4 <at_user_level>
    8e18:	e3500000 	cmp	r0, #0
    8e1c:	0a000000 	beq	8e24 <rpi_reboot+0x14>
    8e20:	ebfffff5 	bl	8dfc <set_user_level>
    8e24:	e3a0001e 	mov	r0, #30
    8e28:	eb000022 	bl	8eb8 <delay_ms>
    8e2c:	e59f0014 	ldr	r0, [pc, #20]	; 8e48 <rpi_reboot+0x38>
    8e30:	e59f1014 	ldr	r1, [pc, #20]	; 8e4c <rpi_reboot+0x3c>
    8e34:	eb0001ee 	bl	95f4 <PUT32>
    8e38:	e59f0010 	ldr	r0, [pc, #16]	; 8e50 <rpi_reboot+0x40>
    8e3c:	e59f1010 	ldr	r1, [pc, #16]	; 8e54 <rpi_reboot+0x44>
    8e40:	eb0001eb 	bl	95f4 <PUT32>
    8e44:	eafffffe 	b	8e44 <rpi_reboot+0x34>
    8e48:	20100024 	andscs	r0, r0, r4, lsr #32
    8e4c:	5a000001 	bpl	8e58 <delay_cycles>
    8e50:	2010001c 	andscs	r0, r0, ip, lsl r0
    8e54:	5a000020 	bpl	8edc <delay_sec+0x10>

00008e58 <delay_cycles>:
    8e58:	ea000001 	b	8e64 <delay_cycles+0xc>
    8e5c:	e2811000 	add	r1, r1, #0
    8e60:	e1a00003 	mov	r0, r3
    8e64:	e2403001 	sub	r3, r0, #1
    8e68:	e3500000 	cmp	r0, #0
    8e6c:	1afffffa 	bne	8e5c <delay_cycles+0x4>
    8e70:	e12fff1e 	bx	lr

00008e74 <timer_get_usec_raw>:
    8e74:	e92d4008 	push	{r3, lr}
    8e78:	e59f0004 	ldr	r0, [pc, #4]	; 8e84 <timer_get_usec_raw+0x10>
    8e7c:	eb0001e8 	bl	9624 <GET32>
    8e80:	e8bd8008 	pop	{r3, pc}
    8e84:	20003004 	andcs	r3, r0, r4

00008e88 <timer_get_usec>:
    8e88:	e92d4008 	push	{r3, lr}
    8e8c:	ebfffff8 	bl	8e74 <timer_get_usec_raw>
    8e90:	e8bd8008 	pop	{r3, pc}

00008e94 <delay_us>:
    8e94:	e92d4038 	push	{r3, r4, r5, lr}
    8e98:	e1a05000 	mov	r5, r0
    8e9c:	ebfffff9 	bl	8e88 <timer_get_usec>
    8ea0:	e1a04000 	mov	r4, r0
    8ea4:	ebfffff7 	bl	8e88 <timer_get_usec>
    8ea8:	e0640000 	rsb	r0, r4, r0
    8eac:	e1500005 	cmp	r0, r5
    8eb0:	3afffffb 	bcc	8ea4 <delay_us+0x10>
    8eb4:	e8bd8038 	pop	{r3, r4, r5, pc}

00008eb8 <delay_ms>:
    8eb8:	e92d4008 	push	{r3, lr}
    8ebc:	e3a03ffa 	mov	r3, #1000	; 0x3e8
    8ec0:	e0000093 	mul	r0, r3, r0
    8ec4:	ebfffff2 	bl	8e94 <delay_us>
    8ec8:	e8bd8008 	pop	{r3, pc}

00008ecc <delay_sec>:
    8ecc:	e92d4008 	push	{r3, lr}
    8ed0:	e3a03ffa 	mov	r3, #1000	; 0x3e8
    8ed4:	e0000093 	mul	r0, r3, r0
    8ed8:	ebfffff6 	bl	8eb8 <delay_ms>
    8edc:	e8bd8008 	pop	{r3, pc}

00008ee0 <gpio_set_output>:
    8ee0:	e92d4038 	push	{r3, r4, r5, lr}
    8ee4:	e1a04000 	mov	r4, r0
    8ee8:	e350001f 	cmp	r0, #31
    8eec:	88bd8038 	pophi	{r3, r4, r5, pc}
    8ef0:	e59f30b4 	ldr	r3, [pc, #180]	; 8fac <gpio_set_output+0xcc>
    8ef4:	e0832093 	umull	r2, r3, r3, r0
    8ef8:	e1a031a3 	lsr	r3, r3, #3
    8efc:	e3530005 	cmp	r3, #5
    8f00:	979ff103 	ldrls	pc, [pc, r3, lsl #2]
    8f04:	ea000017 	b	8f68 <gpio_set_output+0x88>
    8f08:	00008f20 	andeq	r8, r0, r0, lsr #30
    8f0c:	00008f2c 	andeq	r8, r0, ip, lsr #30
    8f10:	00008f38 	andeq	r8, r0, r8, lsr pc
    8f14:	00008f44 	andeq	r8, r0, r4, asr #30
    8f18:	00008f50 	andeq	r8, r0, r0, asr pc
    8f1c:	00008f5c 	andeq	r8, r0, ip, asr pc
    8f20:	e59f3088 	ldr	r3, [pc, #136]	; 8fb0 <gpio_set_output+0xd0>
    8f24:	e5935000 	ldr	r5, [r3]
    8f28:	ea00000f 	b	8f6c <gpio_set_output+0x8c>
    8f2c:	e59f307c 	ldr	r3, [pc, #124]	; 8fb0 <gpio_set_output+0xd0>
    8f30:	e5935004 	ldr	r5, [r3, #4]
    8f34:	ea00000c 	b	8f6c <gpio_set_output+0x8c>
    8f38:	e59f3070 	ldr	r3, [pc, #112]	; 8fb0 <gpio_set_output+0xd0>
    8f3c:	e5935008 	ldr	r5, [r3, #8]
    8f40:	ea000009 	b	8f6c <gpio_set_output+0x8c>
    8f44:	e59f3064 	ldr	r3, [pc, #100]	; 8fb0 <gpio_set_output+0xd0>
    8f48:	e593500c 	ldr	r5, [r3, #12]
    8f4c:	ea000006 	b	8f6c <gpio_set_output+0x8c>
    8f50:	e59f3058 	ldr	r3, [pc, #88]	; 8fb0 <gpio_set_output+0xd0>
    8f54:	e5935010 	ldr	r5, [r3, #16]
    8f58:	ea000003 	b	8f6c <gpio_set_output+0x8c>
    8f5c:	e59f304c 	ldr	r3, [pc, #76]	; 8fb0 <gpio_set_output+0xd0>
    8f60:	e5935014 	ldr	r5, [r3, #20]
    8f64:	ea000000 	b	8f6c <gpio_set_output+0x8c>
    8f68:	e3a05000 	mov	r5, #0
    8f6c:	e1a00005 	mov	r0, r5
    8f70:	eb0001a9 	bl	961c <get32>
    8f74:	e59f1030 	ldr	r1, [pc, #48]	; 8fac <gpio_set_output+0xcc>
    8f78:	e0813491 	umull	r3, r1, r1, r4
    8f7c:	e1a011a1 	lsr	r1, r1, #3
    8f80:	e0811101 	add	r1, r1, r1, lsl #2
    8f84:	e1a01081 	lsl	r1, r1, #1
    8f88:	e0611004 	rsb	r1, r1, r4
    8f8c:	e0811081 	add	r1, r1, r1, lsl #1
    8f90:	e3a03007 	mov	r3, #7
    8f94:	e1c03113 	bic	r3, r0, r3, lsl r1
    8f98:	e1a00005 	mov	r0, r5
    8f9c:	e3a02001 	mov	r2, #1
    8fa0:	e1831112 	orr	r1, r3, r2, lsl r1
    8fa4:	eb000190 	bl	95ec <put32>
    8fa8:	e8bd8038 	pop	{r3, r4, r5, pc}
    8fac:	cccccccd 	stclgt	12, cr12, [ip], {205}	; 0xcd
    8fb0:	00009640 	andeq	r9, r0, r0, asr #12

00008fb4 <gpio_set_on>:
    8fb4:	e92d4008 	push	{r3, lr}
    8fb8:	e350001f 	cmp	r0, #31
    8fbc:	88bd8008 	pophi	{r3, pc}
    8fc0:	959f3020 	ldrls	r3, [pc, #32]	; 8fe8 <gpio_set_on+0x34>
    8fc4:	95932018 	ldrls	r2, [r3, #24]
    8fc8:	859f3018 	ldrhi	r3, [pc, #24]	; 8fe8 <gpio_set_on+0x34>
    8fcc:	8593201c 	ldrhi	r2, [r3, #28]
    8fd0:	e200301f 	and	r3, r0, #31
    8fd4:	e1a00002 	mov	r0, r2
    8fd8:	e3a01001 	mov	r1, #1
    8fdc:	e1a01311 	lsl	r1, r1, r3
    8fe0:	eb000181 	bl	95ec <put32>
    8fe4:	e8bd8008 	pop	{r3, pc}
    8fe8:	00009640 	andeq	r9, r0, r0, asr #12

00008fec <gpio_set_off>:
    8fec:	e92d4008 	push	{r3, lr}
    8ff0:	e350001f 	cmp	r0, #31
    8ff4:	88bd8008 	pophi	{r3, pc}
    8ff8:	959f3020 	ldrls	r3, [pc, #32]	; 9020 <gpio_set_off+0x34>
    8ffc:	95932020 	ldrls	r2, [r3, #32]
    9000:	859f3018 	ldrhi	r3, [pc, #24]	; 9020 <gpio_set_off+0x34>
    9004:	85932024 	ldrhi	r2, [r3, #36]	; 0x24
    9008:	e200301f 	and	r3, r0, #31
    900c:	e1a00002 	mov	r0, r2
    9010:	e3a01001 	mov	r1, #1
    9014:	e1a01311 	lsl	r1, r1, r3
    9018:	eb000173 	bl	95ec <put32>
    901c:	e8bd8008 	pop	{r3, pc}
    9020:	00009640 	andeq	r9, r0, r0, asr #12

00009024 <gpio_set_input>:
    9024:	e92d4038 	push	{r3, r4, r5, lr}
    9028:	e1a04000 	mov	r4, r0
    902c:	e350001f 	cmp	r0, #31
    9030:	88bd8038 	pophi	{r3, r4, r5, pc}
    9034:	e59f30ac 	ldr	r3, [pc, #172]	; 90e8 <gpio_set_input+0xc4>
    9038:	e0832093 	umull	r2, r3, r3, r0
    903c:	e1a031a3 	lsr	r3, r3, #3
    9040:	e3530005 	cmp	r3, #5
    9044:	979ff103 	ldrls	pc, [pc, r3, lsl #2]
    9048:	ea000017 	b	90ac <gpio_set_input+0x88>
    904c:	00009064 	andeq	r9, r0, r4, rrx
    9050:	00009070 	andeq	r9, r0, r0, ror r0
    9054:	0000907c 	andeq	r9, r0, ip, ror r0
    9058:	00009088 	andeq	r9, r0, r8, lsl #1
    905c:	00009094 	muleq	r0, r4, r0
    9060:	000090a0 	andeq	r9, r0, r0, lsr #1
    9064:	e59f3080 	ldr	r3, [pc, #128]	; 90ec <gpio_set_input+0xc8>
    9068:	e5935000 	ldr	r5, [r3]
    906c:	ea00000f 	b	90b0 <gpio_set_input+0x8c>
    9070:	e59f3074 	ldr	r3, [pc, #116]	; 90ec <gpio_set_input+0xc8>
    9074:	e5935004 	ldr	r5, [r3, #4]
    9078:	ea00000c 	b	90b0 <gpio_set_input+0x8c>
    907c:	e59f3068 	ldr	r3, [pc, #104]	; 90ec <gpio_set_input+0xc8>
    9080:	e5935008 	ldr	r5, [r3, #8]
    9084:	ea000009 	b	90b0 <gpio_set_input+0x8c>
    9088:	e59f305c 	ldr	r3, [pc, #92]	; 90ec <gpio_set_input+0xc8>
    908c:	e593500c 	ldr	r5, [r3, #12]
    9090:	ea000006 	b	90b0 <gpio_set_input+0x8c>
    9094:	e59f3050 	ldr	r3, [pc, #80]	; 90ec <gpio_set_input+0xc8>
    9098:	e5935010 	ldr	r5, [r3, #16]
    909c:	ea000003 	b	90b0 <gpio_set_input+0x8c>
    90a0:	e59f3044 	ldr	r3, [pc, #68]	; 90ec <gpio_set_input+0xc8>
    90a4:	e5935014 	ldr	r5, [r3, #20]
    90a8:	ea000000 	b	90b0 <gpio_set_input+0x8c>
    90ac:	e3a05000 	mov	r5, #0
    90b0:	e1a00005 	mov	r0, r5
    90b4:	eb000158 	bl	961c <get32>
    90b8:	e59f1028 	ldr	r1, [pc, #40]	; 90e8 <gpio_set_input+0xc4>
    90bc:	e0813491 	umull	r3, r1, r1, r4
    90c0:	e1a011a1 	lsr	r1, r1, #3
    90c4:	e0811101 	add	r1, r1, r1, lsl #2
    90c8:	e1a01081 	lsl	r1, r1, #1
    90cc:	e0611004 	rsb	r1, r1, r4
    90d0:	e0811081 	add	r1, r1, r1, lsl #1
    90d4:	e3a03007 	mov	r3, #7
    90d8:	e1c01113 	bic	r1, r0, r3, lsl r1
    90dc:	e1a00005 	mov	r0, r5
    90e0:	eb000141 	bl	95ec <put32>
    90e4:	e8bd8038 	pop	{r3, r4, r5, pc}
    90e8:	cccccccd 	stclgt	12, cr12, [ip], {205}	; 0xcd
    90ec:	00009640 	andeq	r9, r0, r0, asr #12

000090f0 <gpio_read>:
    90f0:	e92d4010 	push	{r4, lr}
    90f4:	e1a04000 	mov	r4, r0
    90f8:	e350001f 	cmp	r0, #31
    90fc:	8a00000b 	bhi	9130 <gpio_read+0x40>
    9100:	8a000003 	bhi	9114 <gpio_read+0x24>
    9104:	e59f302c 	ldr	r3, [pc, #44]	; 9138 <gpio_read+0x48>
    9108:	e5930028 	ldr	r0, [r3, #40]	; 0x28
    910c:	eb000142 	bl	961c <get32>
    9110:	ea000002 	b	9120 <gpio_read+0x30>
    9114:	e59f301c 	ldr	r3, [pc, #28]	; 9138 <gpio_read+0x48>
    9118:	e593002c 	ldr	r0, [r3, #44]	; 0x2c
    911c:	eb00013e 	bl	961c <get32>
    9120:	e204401f 	and	r4, r4, #31
    9124:	e3a03001 	mov	r3, #1
    9128:	e0000413 	and	r0, r0, r3, lsl r4
    912c:	e8bd8010 	pop	{r4, pc}
    9130:	e3e00000 	mvn	r0, #0
    9134:	e8bd8010 	pop	{r4, pc}
    9138:	00009640 	andeq	r9, r0, r0, asr #12

0000913c <gpio_write>:
    913c:	e92d4008 	push	{r3, lr}
    9140:	e350001f 	cmp	r0, #31
    9144:	88bd8008 	pophi	{r3, pc}
    9148:	e3510000 	cmp	r1, #0
    914c:	0a000001 	beq	9158 <gpio_write+0x1c>
    9150:	ebffff97 	bl	8fb4 <gpio_set_on>
    9154:	e8bd8008 	pop	{r3, pc}
    9158:	ebffffa3 	bl	8fec <gpio_set_off>
    915c:	e8bd8008 	pop	{r3, pc}

00009160 <gpio_set_function>:
    9160:	e92d4070 	push	{r4, r5, r6, lr}
    9164:	e1a04000 	mov	r4, r0
    9168:	e1a05001 	mov	r5, r1
    916c:	e3510007 	cmp	r1, #7
    9170:	9350001f 	cmpls	r0, #31
    9174:	88bd8070 	pophi	{r4, r5, r6, pc}
    9178:	e59f30b0 	ldr	r3, [pc, #176]	; 9230 <gpio_set_function+0xd0>
    917c:	e0832093 	umull	r2, r3, r3, r0
    9180:	e1a031a3 	lsr	r3, r3, #3
    9184:	e3530005 	cmp	r3, #5
    9188:	979ff103 	ldrls	pc, [pc, r3, lsl #2]
    918c:	ea000017 	b	91f0 <gpio_set_function+0x90>
    9190:	000091a8 	andeq	r9, r0, r8, lsr #3
    9194:	000091b4 			; <UNDEFINED> instruction: 0x000091b4
    9198:	000091c0 	andeq	r9, r0, r0, asr #3
    919c:	000091cc 	andeq	r9, r0, ip, asr #3
    91a0:	000091d8 	ldrdeq	r9, [r0], -r8
    91a4:	000091e4 	andeq	r9, r0, r4, ror #3
    91a8:	e59f3084 	ldr	r3, [pc, #132]	; 9234 <gpio_set_function+0xd4>
    91ac:	e5936000 	ldr	r6, [r3]
    91b0:	ea00000f 	b	91f4 <gpio_set_function+0x94>
    91b4:	e59f3078 	ldr	r3, [pc, #120]	; 9234 <gpio_set_function+0xd4>
    91b8:	e5936004 	ldr	r6, [r3, #4]
    91bc:	ea00000c 	b	91f4 <gpio_set_function+0x94>
    91c0:	e59f306c 	ldr	r3, [pc, #108]	; 9234 <gpio_set_function+0xd4>
    91c4:	e5936008 	ldr	r6, [r3, #8]
    91c8:	ea000009 	b	91f4 <gpio_set_function+0x94>
    91cc:	e59f3060 	ldr	r3, [pc, #96]	; 9234 <gpio_set_function+0xd4>
    91d0:	e593600c 	ldr	r6, [r3, #12]
    91d4:	ea000006 	b	91f4 <gpio_set_function+0x94>
    91d8:	e59f3054 	ldr	r3, [pc, #84]	; 9234 <gpio_set_function+0xd4>
    91dc:	e5936010 	ldr	r6, [r3, #16]
    91e0:	ea000003 	b	91f4 <gpio_set_function+0x94>
    91e4:	e59f3048 	ldr	r3, [pc, #72]	; 9234 <gpio_set_function+0xd4>
    91e8:	e5936014 	ldr	r6, [r3, #20]
    91ec:	ea000000 	b	91f4 <gpio_set_function+0x94>
    91f0:	e3a06000 	mov	r6, #0
    91f4:	e1a00006 	mov	r0, r6
    91f8:	eb000107 	bl	961c <get32>
    91fc:	e59f302c 	ldr	r3, [pc, #44]	; 9230 <gpio_set_function+0xd0>
    9200:	e0832493 	umull	r2, r3, r3, r4
    9204:	e1a031a3 	lsr	r3, r3, #3
    9208:	e0833103 	add	r3, r3, r3, lsl #2
    920c:	e1a03083 	lsl	r3, r3, #1
    9210:	e0633004 	rsb	r3, r3, r4
    9214:	e0833083 	add	r3, r3, r3, lsl #1
    9218:	e3a01007 	mov	r1, #7
    921c:	e1c01311 	bic	r1, r0, r1, lsl r3
    9220:	e1a00006 	mov	r0, r6
    9224:	e1811315 	orr	r1, r1, r5, lsl r3
    9228:	eb0000ef 	bl	95ec <put32>
    922c:	e8bd8070 	pop	{r4, r5, r6, pc}
    9230:	cccccccd 	stclgt	12, cr12, [ip], {205}	; 0xcd
    9234:	00009640 	andeq	r9, r0, r0, asr #12

00009238 <gpio_toggle>:
    9238:	e92d4008 	push	{r3, lr}
    923c:	e350001f 	cmp	r0, #31
    9240:	88bd8008 	pophi	{r3, pc}
    9244:	959f3020 	ldrls	r3, [pc, #32]	; 926c <gpio_toggle+0x34>
    9248:	95932018 	ldrls	r2, [r3, #24]
    924c:	859f3018 	ldrhi	r3, [pc, #24]	; 926c <gpio_toggle+0x34>
    9250:	8593201c 	ldrhi	r2, [r3, #28]
    9254:	e200301f 	and	r3, r0, #31
    9258:	e1a00002 	mov	r0, r2
    925c:	e3a01001 	mov	r1, #1
    9260:	e1a01311 	lsl	r1, r1, r3
    9264:	eb0000e0 	bl	95ec <put32>
    9268:	e8bd8008 	pop	{r3, pc}
    926c:	00009640 	andeq	r9, r0, r0, asr #12

00009270 <is_gpio_int>:
    9270:	e92d4008 	push	{r3, lr}
    9274:	e59f301c 	ldr	r3, [pc, #28]	; 9298 <is_gpio_int+0x28>
    9278:	e5930030 	ldr	r0, [r3, #48]	; 0x30
    927c:	eb0000e6 	bl	961c <get32>
    9280:	e3500000 	cmp	r0, #0
    9284:	0a000001 	beq	9290 <is_gpio_int+0x20>
    9288:	e3a00001 	mov	r0, #1
    928c:	e8bd8008 	pop	{r3, pc}
    9290:	e3a00000 	mov	r0, #0
    9294:	e8bd8008 	pop	{r3, pc}
    9298:	00009640 	andeq	r9, r0, r0, asr #12

0000929c <gpio_int_rising_edge>:
    929c:	e92d4038 	push	{r3, r4, r5, lr}
    92a0:	e1a04000 	mov	r4, r0
    92a4:	e350001f 	cmp	r0, #31
    92a8:	88bd8038 	pophi	{r3, r4, r5, pc}
    92ac:	eb0000c8 	bl	95d4 <dev_barrier>
    92b0:	e354001f 	cmp	r4, #31
    92b4:	8a000007 	bhi	92d8 <gpio_int_rising_edge+0x3c>
    92b8:	e59f505c 	ldr	r5, [pc, #92]	; 931c <gpio_int_rising_edge+0x80>
    92bc:	e5950034 	ldr	r0, [r5, #52]	; 0x34
    92c0:	eb0000d5 	bl	961c <get32>
    92c4:	e3a01001 	mov	r1, #1
    92c8:	e1801411 	orr	r1, r0, r1, lsl r4
    92cc:	e5950034 	ldr	r0, [r5, #52]	; 0x34
    92d0:	eb0000c5 	bl	95ec <put32>
    92d4:	ea000007 	b	92f8 <gpio_int_rising_edge+0x5c>
    92d8:	e59f503c 	ldr	r5, [pc, #60]	; 931c <gpio_int_rising_edge+0x80>
    92dc:	e5950038 	ldr	r0, [r5, #56]	; 0x38
    92e0:	eb0000cd 	bl	961c <get32>
    92e4:	e204401f 	and	r4, r4, #31
    92e8:	e3a01001 	mov	r1, #1
    92ec:	e1801411 	orr	r1, r0, r1, lsl r4
    92f0:	e5950038 	ldr	r0, [r5, #56]	; 0x38
    92f4:	eb0000bc 	bl	95ec <put32>
    92f8:	eb0000b5 	bl	95d4 <dev_barrier>
    92fc:	e59f4018 	ldr	r4, [pc, #24]	; 931c <gpio_int_rising_edge+0x80>
    9300:	e594003c 	ldr	r0, [r4, #60]	; 0x3c
    9304:	eb0000c4 	bl	961c <get32>
    9308:	e3801802 	orr	r1, r0, #131072	; 0x20000
    930c:	e594003c 	ldr	r0, [r4, #60]	; 0x3c
    9310:	eb0000b5 	bl	95ec <put32>
    9314:	eb0000ae 	bl	95d4 <dev_barrier>
    9318:	e8bd8038 	pop	{r3, r4, r5, pc}
    931c:	00009640 	andeq	r9, r0, r0, asr #12

00009320 <gpio_int_falling_edge>:
    9320:	e92d4038 	push	{r3, r4, r5, lr}
    9324:	e1a04000 	mov	r4, r0
    9328:	e350001f 	cmp	r0, #31
    932c:	88bd8038 	pophi	{r3, r4, r5, pc}
    9330:	eb0000a7 	bl	95d4 <dev_barrier>
    9334:	e354001f 	cmp	r4, #31
    9338:	8a000007 	bhi	935c <gpio_int_falling_edge+0x3c>
    933c:	e59f505c 	ldr	r5, [pc, #92]	; 93a0 <gpio_int_falling_edge+0x80>
    9340:	e5950040 	ldr	r0, [r5, #64]	; 0x40
    9344:	eb0000b4 	bl	961c <get32>
    9348:	e3a01001 	mov	r1, #1
    934c:	e1801411 	orr	r1, r0, r1, lsl r4
    9350:	e5950040 	ldr	r0, [r5, #64]	; 0x40
    9354:	eb0000a4 	bl	95ec <put32>
    9358:	ea000007 	b	937c <gpio_int_falling_edge+0x5c>
    935c:	e59f503c 	ldr	r5, [pc, #60]	; 93a0 <gpio_int_falling_edge+0x80>
    9360:	e5950044 	ldr	r0, [r5, #68]	; 0x44
    9364:	eb0000ac 	bl	961c <get32>
    9368:	e204401f 	and	r4, r4, #31
    936c:	e3a01001 	mov	r1, #1
    9370:	e1801411 	orr	r1, r0, r1, lsl r4
    9374:	e5950044 	ldr	r0, [r5, #68]	; 0x44
    9378:	eb00009b 	bl	95ec <put32>
    937c:	eb000094 	bl	95d4 <dev_barrier>
    9380:	e59f4018 	ldr	r4, [pc, #24]	; 93a0 <gpio_int_falling_edge+0x80>
    9384:	e594003c 	ldr	r0, [r4, #60]	; 0x3c
    9388:	eb0000a3 	bl	961c <get32>
    938c:	e3801601 	orr	r1, r0, #1048576	; 0x100000
    9390:	e594003c 	ldr	r0, [r4, #60]	; 0x3c
    9394:	eb000094 	bl	95ec <put32>
    9398:	eb00008d 	bl	95d4 <dev_barrier>
    939c:	e8bd8038 	pop	{r3, r4, r5, pc}
    93a0:	00009640 	andeq	r9, r0, r0, asr #12

000093a4 <gpio_event_detected>:
    93a4:	e92d4010 	push	{r4, lr}
    93a8:	e1a04000 	mov	r4, r0
    93ac:	e350001f 	cmp	r0, #31
    93b0:	8a000019 	bhi	941c <gpio_event_detected+0x78>
    93b4:	eb000086 	bl	95d4 <dev_barrier>
    93b8:	e354001f 	cmp	r4, #31
    93bc:	8a000008 	bhi	93e4 <gpio_event_detected+0x40>
    93c0:	e59f305c 	ldr	r3, [pc, #92]	; 9424 <gpio_event_detected+0x80>
    93c4:	e5930048 	ldr	r0, [r3, #72]	; 0x48
    93c8:	eb000093 	bl	961c <get32>
    93cc:	e3a03001 	mov	r3, #1
    93d0:	e0103413 	ands	r3, r0, r3, lsl r4
    93d4:	0a00000d 	beq	9410 <gpio_event_detected+0x6c>
    93d8:	eb00007d 	bl	95d4 <dev_barrier>
    93dc:	e3a00001 	mov	r0, #1
    93e0:	e8bd8010 	pop	{r4, pc}
    93e4:	e59f3038 	ldr	r3, [pc, #56]	; 9424 <gpio_event_detected+0x80>
    93e8:	e593004c 	ldr	r0, [r3, #76]	; 0x4c
    93ec:	eb00008a 	bl	961c <get32>
    93f0:	e3a03001 	mov	r3, #1
    93f4:	e0004413 	and	r4, r0, r3, lsl r4
    93f8:	eb000075 	bl	95d4 <dev_barrier>
    93fc:	e3540000 	cmp	r4, #0
    9400:	0a000002 	beq	9410 <gpio_event_detected+0x6c>
    9404:	eb000072 	bl	95d4 <dev_barrier>
    9408:	e3a00001 	mov	r0, #1
    940c:	e8bd8010 	pop	{r4, pc}
    9410:	eb00006f 	bl	95d4 <dev_barrier>
    9414:	e3a00000 	mov	r0, #0
    9418:	e8bd8010 	pop	{r4, pc}
    941c:	e3e00000 	mvn	r0, #0
    9420:	e8bd8010 	pop	{r4, pc}
    9424:	00009640 	andeq	r9, r0, r0, asr #12

00009428 <gpio_event_clear>:
    9428:	e92d4010 	push	{r4, lr}
    942c:	e1a04000 	mov	r4, r0
    9430:	e350001f 	cmp	r0, #31
    9434:	88bd8010 	pophi	{r4, pc}
    9438:	eb000065 	bl	95d4 <dev_barrier>
    943c:	e354001f 	cmp	r4, #31
    9440:	8a000005 	bhi	945c <gpio_event_clear+0x34>
    9444:	e59f3030 	ldr	r3, [pc, #48]	; 947c <gpio_event_clear+0x54>
    9448:	e5930048 	ldr	r0, [r3, #72]	; 0x48
    944c:	e3a01001 	mov	r1, #1
    9450:	e1a01411 	lsl	r1, r1, r4
    9454:	eb000064 	bl	95ec <put32>
    9458:	ea000005 	b	9474 <gpio_event_clear+0x4c>
    945c:	e204401f 	and	r4, r4, #31
    9460:	e59f3014 	ldr	r3, [pc, #20]	; 947c <gpio_event_clear+0x54>
    9464:	e593004c 	ldr	r0, [r3, #76]	; 0x4c
    9468:	e3a01001 	mov	r1, #1
    946c:	e1a01411 	lsl	r1, r1, r4
    9470:	eb00005d 	bl	95ec <put32>
    9474:	eb000056 	bl	95d4 <dev_barrier>
    9478:	e8bd8010 	pop	{r4, pc}
    947c:	00009640 	andeq	r9, r0, r0, asr #12

00009480 <uart_init>:
    9480:	e92d4038 	push	{r3, r4, r5, lr}
    9484:	eb000052 	bl	95d4 <dev_barrier>
    9488:	e3a0000e 	mov	r0, #14
    948c:	e3a01002 	mov	r1, #2
    9490:	ebffff32 	bl	9160 <gpio_set_function>
    9494:	e3a0000f 	mov	r0, #15
    9498:	e3a01002 	mov	r1, #2
    949c:	ebffff2f 	bl	9160 <gpio_set_function>
    94a0:	eb00004b 	bl	95d4 <dev_barrier>
    94a4:	e59f4068 	ldr	r4, [pc, #104]	; 9514 <uart_init+0x94>
    94a8:	e5945000 	ldr	r5, [r4]
    94ac:	e1a00005 	mov	r0, r5
    94b0:	eb000059 	bl	961c <get32>
    94b4:	e3801001 	orr	r1, r0, #1
    94b8:	e1a00005 	mov	r0, r5
    94bc:	eb00004a 	bl	95ec <put32>
    94c0:	eb000043 	bl	95d4 <dev_barrier>
    94c4:	e5940004 	ldr	r0, [r4, #4]
    94c8:	e3a01000 	mov	r1, #0
    94cc:	eb000046 	bl	95ec <put32>
    94d0:	e5940008 	ldr	r0, [r4, #8]
    94d4:	e3a01000 	mov	r1, #0
    94d8:	eb000043 	bl	95ec <put32>
    94dc:	e594000c 	ldr	r0, [r4, #12]
    94e0:	e3a01006 	mov	r1, #6
    94e4:	eb000040 	bl	95ec <put32>
    94e8:	e5940010 	ldr	r0, [r4, #16]
    94ec:	e3a01003 	mov	r1, #3
    94f0:	eb00003d 	bl	95ec <put32>
    94f4:	e5940014 	ldr	r0, [r4, #20]
    94f8:	e59f1018 	ldr	r1, [pc, #24]	; 9518 <uart_init+0x98>
    94fc:	eb00003a 	bl	95ec <put32>
    9500:	e5940004 	ldr	r0, [r4, #4]
    9504:	e3a01003 	mov	r1, #3
    9508:	eb000037 	bl	95ec <put32>
    950c:	eb000030 	bl	95d4 <dev_barrier>
    9510:	e8bd8038 	pop	{r3, r4, r5, pc}
    9514:	000096a0 	andeq	r9, r0, r0, lsr #13
    9518:	0000010e 	andeq	r0, r0, lr, lsl #2

0000951c <uart_can_getc>:
    951c:	e92d4008 	push	{r3, lr}
    9520:	e59f300c 	ldr	r3, [pc, #12]	; 9534 <uart_can_getc+0x18>
    9524:	e5930018 	ldr	r0, [r3, #24]
    9528:	eb00003b 	bl	961c <get32>
    952c:	e2000001 	and	r0, r0, #1
    9530:	e8bd8008 	pop	{r3, pc}
    9534:	000096a0 	andeq	r9, r0, r0, lsr #13

00009538 <uart_getc>:
    9538:	e92d4008 	push	{r3, lr}
    953c:	ebfffff6 	bl	951c <uart_can_getc>
    9540:	e3500000 	cmp	r0, #0
    9544:	0afffffc 	beq	953c <uart_getc+0x4>
    9548:	e59f300c 	ldr	r3, [pc, #12]	; 955c <uart_getc+0x24>
    954c:	e593001c 	ldr	r0, [r3, #28]
    9550:	eb000031 	bl	961c <get32>
    9554:	e6ef0070 	uxtb	r0, r0
    9558:	e8bd8008 	pop	{r3, pc}
    955c:	000096a0 	andeq	r9, r0, r0, lsr #13

00009560 <uart_can_putc>:
    9560:	e92d4008 	push	{r3, lr}
    9564:	e59f300c 	ldr	r3, [pc, #12]	; 9578 <uart_can_putc+0x18>
    9568:	e5930018 	ldr	r0, [r3, #24]
    956c:	eb00002a 	bl	961c <get32>
    9570:	e2000020 	and	r0, r0, #32
    9574:	e8bd8008 	pop	{r3, pc}
    9578:	000096a0 	andeq	r9, r0, r0, lsr #13

0000957c <uart_putc>:
    957c:	e92d4010 	push	{r4, lr}
    9580:	e1a04000 	mov	r4, r0
    9584:	ebfffff5 	bl	9560 <uart_can_putc>
    9588:	e3500000 	cmp	r0, #0
    958c:	0afffffc 	beq	9584 <uart_putc+0x8>
    9590:	e59f300c 	ldr	r3, [pc, #12]	; 95a4 <uart_putc+0x28>
    9594:	e593001c 	ldr	r0, [r3, #28]
    9598:	e1a01004 	mov	r1, r4
    959c:	eb000012 	bl	95ec <put32>
    95a0:	e8bd8010 	pop	{r4, pc}
    95a4:	000096a0 	andeq	r9, r0, r0, lsr #13

000095a8 <uart_has_data>:
    95a8:	e92d4008 	push	{r3, lr}
    95ac:	ebffffda 	bl	951c <uart_can_getc>
    95b0:	e8bd8008 	pop	{r3, pc}

000095b4 <uart_getc_async>:
    95b4:	e92d4008 	push	{r3, lr}
    95b8:	ebfffffa 	bl	95a8 <uart_has_data>
    95bc:	e3500000 	cmp	r0, #0
    95c0:	0a000001 	beq	95cc <uart_getc_async+0x18>
    95c4:	ebffffdb 	bl	9538 <uart_getc>
    95c8:	e8bd8008 	pop	{r3, pc}
    95cc:	e3e00000 	mvn	r0, #0
    95d0:	e8bd8008 	pop	{r3, pc}

000095d4 <dev_barrier>:
    95d4:	ea000002 	b	95e4 <dsb>

000095d8 <dmb>:
    95d8:	e3a00000 	mov	r0, #0
    95dc:	ee070fba 	mcr	15, 0, r0, cr7, cr10, {5}
    95e0:	e12fff1e 	bx	lr

000095e4 <dsb>:
    95e4:	ee070f9a 	mcr	15, 0, r0, cr7, cr10, {4}
    95e8:	e12fff1e 	bx	lr

000095ec <put32>:
    95ec:	e5801000 	str	r1, [r0]
    95f0:	e12fff1e 	bx	lr

000095f4 <PUT32>:
    95f4:	e5801000 	str	r1, [r0]
    95f8:	e12fff1e 	bx	lr

000095fc <put16>:
    95fc:	e1c010b0 	strh	r1, [r0]
    9600:	e12fff1e 	bx	lr

00009604 <PUT16>:
    9604:	e1c010b0 	strh	r1, [r0]
    9608:	e12fff1e 	bx	lr

0000960c <put8>:
    960c:	e5c01000 	strb	r1, [r0]
    9610:	e12fff1e 	bx	lr

00009614 <PUT8>:
    9614:	e5c01000 	strb	r1, [r0]
    9618:	e12fff1e 	bx	lr

0000961c <get32>:
    961c:	e5900000 	ldr	r0, [r0]
    9620:	e12fff1e 	bx	lr

00009624 <GET32>:
    9624:	e5900000 	ldr	r0, [r0]
    9628:	e12fff1e 	bx	lr

0000962c <GETPC>:
    962c:	e1a0000e 	mov	r0, lr
    9630:	e12fff1e 	bx	lr

00009634 <dummy>:
    9634:	e12fff1e 	bx	lr

Disassembly of section .data:

00009638 <rpi_putchar>:
    9638:	00008820 	andeq	r8, r0, r0, lsr #16

0000963c <putk>:
    963c:	0000885c 	andeq	r8, r0, ip, asr r8

00009640 <GPFSEL0>:
    9640:	20200000 	eorcs	r0, r0, r0

00009644 <GPFSEL1>:
    9644:	20200004 	eorcs	r0, r0, r4

00009648 <GPFSEL2>:
    9648:	20200008 	eorcs	r0, r0, r8

0000964c <GPFSEL3>:
    964c:	2020000c 	eorcs	r0, r0, ip

00009650 <GPFSEL4>:
    9650:	20200010 	eorcs	r0, r0, r0, lsl r0

00009654 <GPFSEL5>:
    9654:	20200014 	eorcs	r0, r0, r4, lsl r0

00009658 <GPSET0>:
    9658:	2020001c 	eorcs	r0, r0, ip, lsl r0

0000965c <GPSET1>:
    965c:	20200020 	eorcs	r0, r0, r0, lsr #32

00009660 <GPCLR0>:
    9660:	20200028 	eorcs	r0, r0, r8, lsr #32

00009664 <GPCLR1>:
    9664:	2020002c 	eorcs	r0, r0, ip, lsr #32

00009668 <GPLEV0>:
    9668:	20200034 	eorcs	r0, r0, r4, lsr r0

0000966c <GPLEV1>:
    966c:	20200038 	eorcs	r0, r0, r8, lsr r0

00009670 <IRQ_PENDING_2>:
    9670:	2000b208 	andcs	fp, r0, r8, lsl #4

00009674 <GPREN0>:
    9674:	2020004c 	eorcs	r0, r0, ip, asr #32

00009678 <GPREN1>:
    9678:	20200050 	eorcs	r0, r0, r0, asr r0

0000967c <ENABLE_IRQS_2>:
    967c:	2000b214 	andcs	fp, r0, r4, lsl r2

00009680 <GPFEN0>:
    9680:	20200058 	eorcs	r0, r0, r8, asr r0

00009684 <GPFEN1>:
    9684:	2020005c 	eorcs	r0, r0, ip, asr r0

00009688 <GPEDS0>:
    9688:	20200040 	eorcs	r0, r0, r0, asr #32

0000968c <GPEDS1>:
    968c:	20200044 	eorcs	r0, r0, r4, asr #32

00009690 <IRQ_PENDING_1>:
    9690:	2000b204 	andcs	fp, r0, r4, lsl #4

00009694 <gpio_clr0>:
    9694:	20200028 	eorcs	r0, r0, r8, lsr #32

00009698 <gpio_set0>:
    9698:	2020001c 	eorcs	r0, r0, ip, lsl r0

0000969c <gpio_fsel0>:
    969c:	20200000 	eorcs	r0, r0, r0

000096a0 <AUX_ENABLES>:
    96a0:	20215004 	eorcs	r5, r1, r4

000096a4 <AUX_MU_CNTL_REG>:
    96a4:	20215060 	eorcs	r5, r1, r0, rrx

000096a8 <AUX_MU_IER_REG>:
    96a8:	20215044 	eorcs	r5, r1, r4, asr #32

000096ac <AUX_MU_IIR_REG>:
    96ac:	20215048 	eorcs	r5, r1, r8, asr #32

000096b0 <AUX_MU_LCR_REG>:
    96b0:	2021504c 	eorcs	r5, r1, ip, asr #32

000096b4 <AUX_MU_BAUD_REG>:
    96b4:	20215068 	eorcs	r5, r1, r8, rrx

000096b8 <AUX_MU_LSR_REG>:
    96b8:	20215054 	eorcs	r5, r1, r4, asr r0

000096bc <AUX_MU_IO_REG>:
    96bc:	20215040 	eorcs	r5, r1, r0, asr #32

000096c0 <AUX_MU_STAT_REG>:
    96c0:	20215064 	eorcs	r5, r1, r4, rrx

000096c4 <AUX_MU_SCRATCH>:
    96c4:	2021505c 	eorcs	r5, r1, ip, asr r0

000096c8 <AUX_MU_MSR_REG>:
    96c8:	20215058 	eorcs	r5, r1, r8, asr r0

000096cc <AUX_MU_MCR_REG>:
    96cc:	20215050 	eorcs	r5, r1, r0, asr r0

000096d0 <AUX_IRQ>:
    96d0:	20215000 	eorcs	r5, r1, r0

Disassembly of section .rodata:

000096d4 <__FUNCTION__.4248>:
    96d4:	6d746f6e 	ldclvs	15, cr6, [r4, #-440]!	; 0xfffffe48
    96d8:	006e6961 	rsbeq	r6, lr, r1, ror #18
    96dc:	74696e69 	strbtvc	r6, [r9], #-3689	; 0xe69
    96e0:	3a6c6169 	bcc	1b21c8c <__bss_end__+0x1b17d74>
    96e4:	6e6f6320 	cdpvs	3, 6, cr6, cr15, cr0, {1}
    96e8:	20676966 	rsbcs	r6, r7, r6, ror #18
    96ec:	20676572 	rsbcs	r6, r7, r2, ror r5
    96f0:	253d203d 	ldrcs	r2, [sp, #-61]!	; 0x3d
    96f4:	6c282078 	stcvs	0, cr2, [r8], #-480	; 0xfffffe20
    96f8:	62253d6f 	eorvs	r3, r5, #7104	; 0x1bc0
    96fc:	3d69682c 	stclcc	8, cr6, [r9, #-176]!	; 0xffffff50
    9700:	0a296225 	beq	a61f9c <__bss_end__+0xa58084>
    9704:	00000000 	andeq	r0, r0, r0
    9708:	494e4150 	stmdbmi	lr, {r4, r6, r8, lr}^
    970c:	73253a43 	teqvc	r5, #274432	; 0x43000
    9710:	3a73253a 	bcc	1cd2c00 <__bss_end__+0x1cc8ce8>
    9714:	4d3a6425 	cfldrsmi	mvf6, [sl, #-148]!	; 0xffffff6c
    9718:	5f45444f 	svcpl	0x0045444f
    971c:	29632856 	stmdbcs	r3!, {r1, r2, r4, r6, fp, sp}^
    9720:	203d3d20 	eorscs	r3, sp, r0, lsr #26
    9724:	00000a31 	andeq	r0, r0, r1, lsr sl
    9728:	31636461 	cmncc	r3, r1, ror #8
    972c:	2e353131 	mrccs	1, 1, r3, cr5, cr1, {1}
    9730:	00000063 	andeq	r0, r0, r3, rrx
    9734:	494e4150 	stmdbmi	lr, {r4, r6, r8, lr}^
    9738:	73253a43 	teqvc	r5, #274432	; 0x43000
    973c:	3a73253a 	bcc	1cd2c2c <__bss_end__+0x1cc8d14>
    9740:	443a6425 	ldrtmi	r6, [sl], #-1061	; 0x425
    9744:	28565f52 	ldmdacs	r6, {r1, r4, r6, r8, r9, sl, fp, ip, lr}^
    9748:	3d202963 	stccc	9, cr2, [r0, #-396]!	; 0xfffffe74
    974c:	6230203d 	eorsvs	r2, r0, #61	; 0x3d
    9750:	0a303031 	beq	c1581c <__bss_end__+0xc0b904>
    9754:	00000000 	andeq	r0, r0, r0
    9758:	494e4150 	stmdbmi	lr, {r4, r6, r8, lr}^
    975c:	73253a43 	teqvc	r5, #274432	; 0x43000
    9760:	3a73253a 	bcc	1cd2c50 <__bss_end__+0x1cc8d38>
    9764:	503a6425 	eorspl	r6, sl, r5, lsr #8
    9768:	565f4147 	ldrbpl	r4, [pc], -r7, asr #2
    976c:	20296328 	eorcs	r6, r9, r8, lsr #6
    9770:	30203d3d 	eorcc	r3, r0, sp, lsr sp
    9774:	30313062 	eorscc	r3, r1, r2, rrx
    9778:	0000000a 	andeq	r0, r0, sl
    977c:	494e4150 	stmdbmi	lr, {r4, r6, r8, lr}^
    9780:	73253a43 	teqvc	r5, #274432	; 0x43000
    9784:	3a73253a 	bcc	1cd2c74 <__bss_end__+0x1cc8d5c>
    9788:	723a6425 	eorsvc	r6, sl, #620756992	; 0x25000000
    978c:	5f646578 	svcpl	0x00646578
    9790:	666e6f63 	strbtvs	r6, [lr], -r3, ror #30
    9794:	3d206769 	stccc	7, cr6, [r0, #-420]!	; 0xfffffe5c
    9798:	7830203d 	ldmdavc	r0!, {r0, r2, r3, r4, r5, sp}
    979c:	33653234 	cmncc	r5, #52, 4	; 0x40000003
    97a0:	0000000a 	andeq	r0, r0, sl
    97a4:	3d74756f 	cfldr64cc	mvdx7, [r4, #-444]!	; 0xfffffe44
    97a8:	000a6425 	andeq	r6, sl, r5, lsr #8

000097ac <__FUNCTION__.4436>:
    97ac:	63656863 	cmnvs	r5, #6488064	; 0x630000
    97b0:	616c5f6b 	cmnvs	ip, fp, ror #30
    97b4:	74756f79 	ldrbtvc	r6, [r5], #-3961	; 0xf79
    97b8:	00000000 	andeq	r0, r0, r0

000097bc <__FUNCTION__.4342>:
    97bc:	72656678 	rsbvc	r6, r5, #120, 12	; 0x7800000
    97c0:	646e655f 	strbtvs	r6, [lr], #-1375	; 0x55f
    97c4:	00000000 	andeq	r0, r0, r0

000097c8 <__FUNCTION__.4321>:
    97c8:	72656678 	rsbvc	r6, r5, #120, 12	; 0x7800000
    97cc:	6174735f 	cmnvs	r4, pc, asr r3
    97d0:	00007472 	andeq	r7, r0, r2, ror r4

000097d4 <__FUNCTION__.4352>:
    97d4:	5f633269 	svcpl	0x00633269
    97d8:	74697277 	strbtvc	r7, [r9], #-631	; 0x277
    97dc:	00000065 	andeq	r0, r0, r5, rrx

000097e0 <__FUNCTION__.4365>:
    97e0:	5f633269 	svcpl	0x00633269
    97e4:	64616572 	strbtvs	r6, [r1], #-1394	; 0x572
    97e8:	00000000 	andeq	r0, r0, r0

000097ec <__FUNCTION__.4407>:
    97ec:	5f633269 	svcpl	0x00633269
    97f0:	74696e69 	strbtvc	r6, [r9], #-3689	; 0xe69
    97f4:	00000000 	andeq	r0, r0, r0
    97f8:	2e633269 	cdpcs	2, 6, cr3, cr3, cr9, {3}
    97fc:	00000063 	andeq	r0, r0, r3, rrx
    9800:	494e4150 	stmdbmi	lr, {r4, r6, r8, lr}^
    9804:	73253a43 	teqvc	r5, #274432	; 0x43000
    9808:	3a73253a 	bcc	1cd2cf8 <__bss_end__+0x1cc8de0>
    980c:	6f3a6425 	svcvs	0x003a6425
    9810:	65736666 	ldrbvs	r6, [r3, #-1638]!	; 0x666
    9814:	72772074 	rsbsvc	r2, r7, #116	; 0x74
    9818:	3a676e6f 	bcc	19e51dc <__bss_end__+0x19db2c4>
    981c:	70786520 	rsbsvc	r6, r8, r0, lsr #10
    9820:	20746365 	rsbscs	r6, r4, r5, ror #6
    9824:	67207825 	strvs	r7, [r0, -r5, lsr #16]!
    9828:	2520746f 	strcs	r7, [r0, #-1135]!	; 0x46f
    982c:	73252078 	teqvc	r5, #120	; 0x78
    9830:	666f5b20 	strbtvs	r5, [pc], -r0, lsr #22
    9834:	64253d66 	strtvs	r3, [r5], #-3430	; 0xd66
    9838:	69626e2c 	stmdbvs	r2!, {r2, r3, r5, r9, sl, fp, sp, lr}^
    983c:	253d7374 	ldrcs	r7, [sp, #-884]!	; 0x374
    9840:	0a0a5d64 	beq	2a0dd8 <__bss_end__+0x296ec0>
    9844:	00000000 	andeq	r0, r0, r0
    9848:	64616572 	strbtvs	r6, [r1], #-1394	; 0x572
    984c:	00000000 	andeq	r0, r0, r0
    9850:	61656c63 	cmnvs	r5, r3, ror #24
    9854:	00000072 	andeq	r0, r0, r2, ror r0
    9858:	494e4150 	stmdbmi	lr, {r4, r6, r8, lr}^
    985c:	73253a43 	teqvc	r5, #274432	; 0x43000
    9860:	3a73253a 	bcc	1cd2d50 <__bss_end__+0x1cc8e38>
    9864:	773a6425 	ldrvc	r6, [sl, -r5, lsr #8]!
    9868:	68746469 	ldmdavs	r4!, {r0, r3, r5, r6, sl, sp, lr}^
    986c:	6f727720 	svcvs	0x00727720
    9870:	203a676e 	eorscs	r6, sl, lr, ror #14
    9874:	65707865 	ldrbvs	r7, [r0, #-2149]!	; 0x865
    9878:	25207463 	strcs	r7, [r0, #-1123]!	; 0x463
    987c:	6f672078 	svcvs	0x00672078
    9880:	78252074 	stmdavc	r5!, {r2, r4, r5, r6, sp}
    9884:	20732520 	rsbscs	r2, r3, r0, lsr #10
    9888:	66666f5b 	uqsaxvs	r6, r6, fp
    988c:	2c64253d 	cfstr64cs	mvdx2, [r4], #-244	; 0xffffff0c
    9890:	7469626e 	strbtvc	r6, [r9], #-622	; 0x26e
    9894:	64253d73 	strtvs	r3, [r5], #-3443	; 0xd73
    9898:	000a0a5d 	andeq	r0, sl, sp, asr sl
    989c:	00007473 	andeq	r7, r0, r3, ror r4
    98a0:	64746e69 	ldrbtvs	r6, [r4], #-3689	; 0xe69
    98a4:	00000000 	andeq	r0, r0, r0
    98a8:	74746e69 	ldrbtvc	r6, [r4], #-3689	; 0xe69
    98ac:	00000000 	andeq	r0, r0, r0
    98b0:	72746e69 	rsbsvc	r6, r4, #1680	; 0x690
    98b4:	00000000 	andeq	r0, r0, r0
    98b8:	65633269 	strbvs	r3, [r3, #-617]!	; 0x269
    98bc:	0000006e 	andeq	r0, r0, lr, rrx
    98c0:	00006174 	andeq	r6, r0, r4, ror r1
    98c4:	656e6f64 	strbvs	r6, [lr, #-3940]!	; 0xf64
    98c8:	00000000 	andeq	r0, r0, r0
    98cc:	00777874 	rsbseq	r7, r7, r4, ror r8
    98d0:	00727872 	rsbseq	r7, r2, r2, ror r8
    98d4:	00647874 	rsbeq	r7, r4, r4, ror r8
    98d8:	00647872 	rsbeq	r7, r4, r2, ror r8
    98dc:	00657874 	rsbeq	r7, r5, r4, ror r8
    98e0:	00667872 	rsbeq	r7, r6, r2, ror r8
    98e4:	00727265 	rsbseq	r7, r2, r5, ror #4
    98e8:	746b6c63 	strbtvc	r6, [fp], #-3171	; 0xc63
    98ec:	0000006b 	andeq	r0, r0, fp, rrx
    98f0:	494e4150 	stmdbmi	lr, {r4, r6, r8, lr}^
    98f4:	73253a43 	teqvc	r5, #274432	; 0x43000
    98f8:	3a73253a 	bcc	1cd2de8 <__bss_end__+0x1cc8ed0>
    98fc:	693a6425 	ldmdbvs	sl!, {r0, r2, r5, sl, sp, lr}
    9900:	73206332 	teqvc	r0, #-939524096	; 0xc8000000
    9904:	6576616c 	ldrbvs	r6, [r6, #-364]!	; 0x16c
    9908:	6b636120 	blvs	18e1d90 <__bss_end__+0x18d7e78>
    990c:	72726520 	rsbsvc	r6, r2, #32, 10	; 0x8000000
    9910:	000a726f 	andeq	r7, sl, pc, ror #4
    9914:	494e4150 	stmdbmi	lr, {r4, r6, r8, lr}^
    9918:	73253a43 	teqvc	r5, #274432	; 0x43000
    991c:	3a73253a 	bcc	1cd2e0c <__bss_end__+0x1cc8ef4>
    9920:	693a6425 	ldmdbvs	sl!, {r0, r2, r5, sl, sp, lr}
    9924:	73206332 	teqvc	r0, #-939524096	; 0xc8000000
    9928:	6576616c 	ldrbvs	r6, [r6, #-364]!	; 0x16c
    992c:	6c656820 	stclvs	8, cr6, [r5], #-128	; 0xffffff80
    9930:	696c2064 	stmdbvs	ip!, {r2, r5, r6, sp}^
    9934:	7420656e 	strtvc	r6, [r0], #-1390	; 0x56e
    9938:	6c206f6f 	stcvs	15, cr6, [r0], #-444	; 0xfffffe44
    993c:	0a676e6f 	beq	19e5300 <__bss_end__+0x19db3e8>
    9940:	00000000 	andeq	r0, r0, r0
    9944:	494e4150 	stmdbmi	lr, {r4, r6, r8, lr}^
    9948:	73253a43 	teqvc	r5, #274432	; 0x43000
    994c:	3a73253a 	bcc	1cd2e3c <__bss_end__+0x1cc8f24>
    9950:	693a6425 	ldmdbvs	sl!, {r0, r2, r5, sl, sp, lr}
    9954:	3e2d6332 	mcrcc	3, 1, r6, cr13, cr2, {1}
    9958:	74617473 	strbtvc	r7, [r1], #-1139	; 0x473
    995c:	742e7375 	strtvc	r7, [lr], #-885	; 0x375
    9960:	3d3d2061 	ldccc	0, cr2, [sp, #-388]!	; 0xfffffe7c
    9964:	000a3020 	andeq	r3, sl, r0, lsr #32
    9968:	494e4150 	stmdbmi	lr, {r4, r6, r8, lr}^
    996c:	73253a43 	teqvc	r5, #274432	; 0x43000
    9970:	3a73253a 	bcc	1cd2e60 <__bss_end__+0x1cc8f48>
    9974:	213a6425 	teqcs	sl, r5, lsr #8
    9978:	2d633269 	sfmcs	f3, 2, [r3, #-420]!	; 0xfffffe5c
    997c:	6174733e 	cmnvs	r4, lr, lsr r3
    9980:	2e737574 	mrccs	5, 3, r7, cr3, cr4, {3}
    9984:	0a727265 	beq	1ca6320 <__bss_end__+0x1c9c408>
    9988:	00000000 	andeq	r0, r0, r0
    998c:	494e4150 	stmdbmi	lr, {r4, r6, r8, lr}^
    9990:	73253a43 	teqvc	r5, #274432	; 0x43000
    9994:	3a73253a 	bcc	1cd2e84 <__bss_end__+0x1cc8f6c>
    9998:	693a6425 	ldmdbvs	sl!, {r0, r2, r5, sl, sp, lr}
    999c:	3e2d6332 	mcrcc	3, 1, r6, cr13, cr2, {1}
    99a0:	74617473 	strbtvc	r7, [r1], #-1139	; 0x473
    99a4:	742e7375 	strtvc	r7, [lr], #-885	; 0x375
    99a8:	3d206578 	cfstr32cc	mvfx6, [r0, #-480]!	; 0xfffffe20
    99ac:	0a31203d 	beq	c51aa8 <__bss_end__+0xc47b90>
    99b0:	00000000 	andeq	r0, r0, r0
    99b4:	494e4150 	stmdbmi	lr, {r4, r6, r8, lr}^
    99b8:	73253a43 	teqvc	r5, #274432	; 0x43000
    99bc:	3a73253a 	bcc	1cd2eac <__bss_end__+0x1cc8f94>
    99c0:	283a6425 	ldmdacs	sl!, {r0, r2, r5, sl, sp, lr}
    99c4:	64646128 	strbtvs	r6, [r4], #-296	; 0x128
    99c8:	3e202972 	mcrcc	9, 1, r2, cr0, cr2, {3}
    99cc:	2937203e 	ldmdbcs	r7!, {r1, r2, r3, r4, r5, sp}
    99d0:	203d3d20 	eorscs	r3, sp, r0, lsr #26
    99d4:	00000a30 	andeq	r0, r0, r0, lsr sl
    99d8:	494e4150 	stmdbmi	lr, {r4, r6, r8, lr}^
    99dc:	73253a43 	teqvc	r5, #274432	; 0x43000
    99e0:	3a73253a 	bcc	1cd2ed0 <__bss_end__+0x1cc8fb8>
    99e4:	283a6425 	ldmdacs	sl!, {r0, r2, r5, sl, sp, lr}
    99e8:	79626e28 	stmdbvc	r2!, {r3, r5, r9, sl, fp, sp, lr}^
    99ec:	29736574 	ldmdbcs	r3!, {r2, r4, r5, r6, r8, sl, sp, lr}^
    99f0:	203e3e20 	eorscs	r3, lr, r0, lsr #28
    99f4:	20293631 	eorcs	r3, r9, r1, lsr r6
    99f8:	30203d3d 	eorcc	r3, r0, sp, lsr sp
    99fc:	0000000a 	andeq	r0, r0, sl

00009a00 <__FUNCTION__.4271>:
    9a00:	74696d65 	strbtvc	r6, [r9], #-3429	; 0xd65
    9a04:	00000000 	andeq	r0, r0, r0

00009a08 <__FUNCTION__.4219>:
    9a08:	5f697072 	svcpl	0x00697072
    9a0c:	5f746573 	svcpl	0x00746573
    9a10:	7074756f 	rsbsvc	r7, r4, pc, ror #10
    9a14:	00007475 	andeq	r7, r0, r5, ror r4

00009a18 <__FUNCTION__.4293>:
    9a18:	705f6176 	subsvc	r6, pc, r6, ror r1	; <UNPREDICTABLE>
    9a1c:	746e6972 	strbtvc	r6, [lr], #-2418	; 0x972
    9a20:	0000006b 	andeq	r0, r0, fp, rrx
    9a24:	494e4150 	stmdbmi	lr, {r4, r6, r8, lr}^
    9a28:	73253a43 	teqvc	r5, #274432	; 0x43000
    9a2c:	3a73253a 	bcc	1cd2f1c <__bss_end__+0x1cc9004>
    9a30:	303a6425 	eorscc	r6, sl, r5, lsr #8
    9a34:	0000000a 	andeq	r0, r0, sl
    9a38:	6362696c 	cmnvs	r2, #108, 18	; 0x1b0000
    9a3c:	2d61762f 	stclcs	6, cr7, [r1, #-188]!	; 0xffffff44
    9a40:	6e697270 	mcrvs	2, 3, r7, cr9, cr0, {3}
    9a44:	632e6b74 	teqvs	lr, #116, 22	; 0x1d000
    9a48:	00000000 	andeq	r0, r0, r0
    9a4c:	33323130 	teqcc	r2, #48, 2
    9a50:	37363534 			; <UNDEFINED> instruction: 0x37363534
    9a54:	00003938 	andeq	r3, r0, r8, lsr r9
    9a58:	33323130 	teqcc	r2, #48, 2
    9a5c:	37363534 			; <UNDEFINED> instruction: 0x37363534
    9a60:	62613938 	rsbvs	r3, r1, #56, 18	; 0xe0000
    9a64:	66656463 	strbtvs	r6, [r5], -r3, ror #8
    9a68:	00000000 	andeq	r0, r0, r0
    9a6c:	00003130 	andeq	r3, r0, r0, lsr r1
    9a70:	494e4150 	stmdbmi	lr, {r4, r6, r8, lr}^
    9a74:	73253a43 	teqvc	r5, #274432	; 0x43000
    9a78:	3a73253a 	bcc	1cd2f68 <__bss_end__+0x1cc9050>
    9a7c:	703a6425 	eorsvc	r6, sl, r5, lsr #8
    9a80:	5f637475 	svcpl	0x00637475
    9a84:	000a7066 	andeq	r7, sl, r6, rrx
    9a88:	494e4150 	stmdbmi	lr, {r4, r6, r8, lr}^
    9a8c:	73253a43 	teqvc	r5, #274432	; 0x43000
    9a90:	3a73253a 	bcc	1cd2f80 <__bss_end__+0x1cc9068>
    9a94:	773a6425 	ldrvc	r6, [sl, -r5, lsr #8]!
    9a98:	68746469 	ldmdavs	r4!, {r0, r3, r5, r6, sl, sp, lr}^
    9a9c:	33203c20 	teqcc	r0, #32, 24	; 0x2000
    9aa0:	00000a32 	andeq	r0, r0, r2, lsr sl
    9aa4:	494e4150 	stmdbmi	lr, {r4, r6, r8, lr}^
    9aa8:	73253a43 	teqvc	r5, #274432	; 0x43000
    9aac:	3a73253a 	bcc	1cd2f9c <__bss_end__+0x1cc9084>
    9ab0:	663a6425 	ldrtvs	r6, [sl], -r5, lsr #8
    9ab4:	74616f6c 	strbtvc	r6, [r1], #-3948	; 0xf6c
    9ab8:	746f6e20 	strbtvc	r6, [pc], #-3616	; 9ac0 <__FUNCTION__.4293+0xa8>
    9abc:	616e6520 	cmnvs	lr, r0, lsr #10
    9ac0:	64656c62 	strbtvs	r6, [r5], #-3170	; 0xc62
    9ac4:	0a212121 	beq	851f50 <__bss_end__+0x848038>
    9ac8:	00000000 	andeq	r0, r0, r0
    9acc:	494e4150 	stmdbmi	lr, {r4, r6, r8, lr}^
    9ad0:	73253a43 	teqvc	r5, #274432	; 0x43000
    9ad4:	3a73253a 	bcc	1cd2fc4 <__bss_end__+0x1cc90ac>
    9ad8:	703a6425 	eorsvc	r6, sl, r5, lsr #8
    9adc:	746e6972 	strbtvc	r6, [lr], #-2418	; 0x972
    9ae0:	6e203a6b 	vnmulvs.f32	s6, s0, s23
    9ae4:	6820746f 	stmdavs	r0!, {r0, r1, r2, r3, r5, r6, sl, ip, sp, lr}
    9ae8:	6c646e61 	stclvs	14, cr6, [r4], #-388	; 0xfffffe7c
    9aec:	20676e69 	rsbcs	r6, r7, r9, ror #28
    9af0:	63657073 	cmnvs	r5, #115	; 0x73
    9af4:	65696669 	strbvs	r6, [r9, #-1641]!	; 0x669
    9af8:	25272072 	strcs	r2, [r7, #-114]!	; 0x72
    9afc:	0a0a2763 	beq	293890 <__bss_end__+0x289978>
    9b00:	00000000 	andeq	r0, r0, r0
    9b04:	454e4f44 	strbmi	r4, [lr, #-3908]	; 0xf44
    9b08:	0a212121 	beq	851f94 <__bss_end__+0x84807c>
    9b0c:	00000000 	andeq	r0, r0, r0

Disassembly of section .bss:

00009b10 <__bss_start__>:
    9b10:	00000000 	andeq	r0, r0, r0

00009b14 <buf.4219>:
	...

Disassembly of section .ARM.attributes:

00000000 <.ARM.attributes>:
   0:	00002a41 	andeq	r2, r0, r1, asr #20
   4:	61656100 	cmnvs	r5, r0, lsl #2
   8:	01006962 	tsteq	r0, r2, ror #18
   c:	00000020 	andeq	r0, r0, r0, lsr #32
  10:	4b5a3605 	blmi	168d82c <__bss_end__+0x1683914>
  14:	08070600 	stmdaeq	r7, {r9, sl}
  18:	12010901 	andne	r0, r1, #16384	; 0x4000
  1c:	15011404 	strne	r1, [r1, #-1028]	; 0x404
  20:	18031701 	stmdane	r3, {r0, r8, r9, sl, ip}
  24:	22011a01 	andcs	r1, r1, #4096	; 0x1000
  28:	Address 0x0000000000000028 is out of bounds.


Disassembly of section .comment:

00000000 <.comment>:
   0:	3a434347 	bcc	10d0d24 <__bss_end__+0x10c6e0c>
   4:	4e472820 	cdpmi	8, 4, cr2, cr7, cr0, {1}
   8:	34202955 	strtcc	r2, [r0], #-2389	; 0x955
   c:	332e382e 	teqcc	lr, #3014656	; 0x2e0000
  10:	43434700 	movtmi	r4, #14080	; 0x3700
  14:	3128203a 	teqcc	r8, sl, lsr r0
  18:	2e363a35 	mrccs	10, 1, r3, cr6, cr5, {1}
  1c:	2b312e33 	blcs	c4b8f0 <__bss_end__+0xc419d8>
  20:	326e7673 	rsbcc	r7, lr, #120586240	; 0x7300000
  24:	33303335 	teqcc	r0, #-738197504	; 0xd4000000
  28:	62312d39 	eorsvs	r2, r1, #3648	; 0xe40
  2c:	646c6975 	strbtvs	r6, [ip], #-2421	; 0x975
  30:	36202931 			; <UNDEFINED> instruction: 0x36202931
  34:	312e332e 	teqcc	lr, lr, lsr #6
  38:	31303220 	teqcc	r0, r0, lsr #4
  3c:	32363037 	eorscc	r3, r6, #55	; 0x37
  40:	Address 0x0000000000000040 is out of bounds.


Disassembly of section .debug_info:

00000000 <.debug_info>:
       0:	0000057a 	andeq	r0, r0, sl, ror r5
       4:	00000004 	andeq	r0, r0, r4
       8:	01040000 	mrseq	r0, (UNDEF: 4)
       c:	000000d1 	ldrdeq	r0, [r0], -r1
      10:	00007d01 	andeq	r7, r0, r1, lsl #26
      14:	00015e00 	andeq	r5, r1, r0, lsl #28
      18:	00801000 	addeq	r1, r0, r0
      1c:	00024400 	andeq	r4, r2, r0, lsl #8
      20:	00000000 	andeq	r0, r0, r0
      24:	05040200 	streq	r0, [r4, #-512]	; 0x200
      28:	00746e69 	rsbseq	r6, r4, r9, ror #28
      2c:	bc070403 	cfstrslt	mvf0, [r7], {3}
      30:	03000000 	movweq	r0, #0
      34:	00140601 	andseq	r0, r4, r1, lsl #12
      38:	02030000 	andeq	r0, r3, #0
      3c:	00007305 	andeq	r7, r0, r5, lsl #6
      40:	05040300 	streq	r0, [r4, #-768]	; 0x300
      44:	00000155 	andeq	r0, r0, r5, asr r1
      48:	50050803 	andpl	r0, r5, r3, lsl #16
      4c:	04000001 	streq	r0, [r0], #-1
      50:	000000c9 	andeq	r0, r0, r9, asr #1
      54:	005a2e02 	subseq	r2, sl, r2, lsl #28
      58:	01030000 	mrseq	r0, (UNDEF: 3)
      5c:	00001208 	andeq	r1, r0, r8, lsl #4
      60:	01b50400 			; <UNDEFINED> instruction: 0x01b50400
      64:	31020000 	mrscc	r0, (UNDEF: 2)
      68:	0000006c 	andeq	r0, r0, ip, rrx
      6c:	41070203 	tstmi	r7, r3, lsl #4
      70:	03000000 	movweq	r0, #0
      74:	00b70704 	adcseq	r0, r7, r4, lsl #14
      78:	08030000 	stmdaeq	r3, {}	; <UNPREDICTABLE>
      7c:	0000b207 	andeq	fp, r0, r7, lsl #4
      80:	07040300 	streq	r0, [r4, -r0, lsl #6]
      84:	00000147 	andeq	r0, r0, r7, asr #2
      88:	1b080103 	blne	20049c <__bss_end__+0x1f6584>
      8c:	05000000 	streq	r0, [r0, #-0]
      90:	00009504 	andeq	r9, r0, r4, lsl #10
      94:	00880600 	addeq	r0, r8, r0, lsl #12
      98:	88070000 	stmdahi	r7, {}	; <UNPREDICTABLE>
      9c:	aa000000 	bge	a4 <_start-0x7f5c>
      a0:	08000000 	stmdaeq	r0, {}	; <UNPREDICTABLE>
      a4:	00000081 	andeq	r0, r0, r1, lsl #1
      a8:	d0090007 	andle	r0, r9, r7
      ac:	01000001 	tsteq	r0, r1
      b0:	0080101f 	addeq	r1, r0, pc, lsl r0
      b4:	00004c00 	andeq	r4, r0, r0, lsl #24
      b8:	419c0100 	orrsmi	r0, ip, r0, lsl #2
      bc:	0a000001 	beq	c8 <_start-0x7f38>
      c0:	000001c7 	andeq	r0, r0, r7, asr #3
      c4:	004f1f01 	subeq	r1, pc, r1, lsl #30
      c8:	00000000 	andeq	r0, r0, r0
      cc:	720b0000 	andvc	r0, fp, #0
      d0:	01006765 	tsteq	r0, r5, ror #14
      d4:	00004f1f 	andeq	r4, r0, pc, lsl pc
      d8:	00002100 	andeq	r2, r0, r0, lsl #2
      dc:	00760b00 	rsbseq	r0, r6, r0, lsl #22
      e0:	00611f01 	rsbeq	r1, r1, r1, lsl #30
      e4:	004e0000 	subeq	r0, lr, r0
      e8:	9d0c0000 	stcls	0, cr0, [ip, #-0]
      ec:	01000000 	mrseq	r0, (UNDEF: 0)
      f0:	00014120 	andeq	r4, r1, r0, lsr #2
      f4:	74910200 	ldrvc	r0, [r1], #512	; 0x200
      f8:	0001eb0c 	andeq	lr, r1, ip, lsl #22
      fc:	51220100 	teqpl	r2, r0, lsl #2
     100:	02000001 	andeq	r0, r0, #1
     104:	380d7091 	stmdacc	sp, {r0, r4, r7, ip, sp, lr}
     108:	e5000080 	str	r0, [r0, #-128]	; 0x80
     10c:	25000004 	strcs	r0, [r0, #-4]
     110:	0e000001 	cdpeq	0, 0, cr0, cr0, cr1, {0}
     114:	33015201 	movwcc	r5, #4609	; 0x1201
     118:	0251010e 	subseq	r0, r1, #-2147483645	; 0x80000003
     11c:	010e6c91 			; <UNDEFINED> instruction: 0x010e6c91
     120:	00740250 	rsbseq	r0, r4, r0, asr r2
     124:	80540f00 	subshi	r0, r4, r0, lsl #30
     128:	050a0000 	streq	r0, [sl, #-0]
     12c:	010e0000 	mrseq	r0, (UNDEF: 14)
     130:	0e320152 	mrceq	1, 1, r0, cr2, cr2, {2}
     134:	7d025101 	stfvcs	f5, [r2, #-4]
     138:	50010e00 	andpl	r0, r1, r0, lsl #28
     13c:	00007402 	andeq	r7, r0, r2, lsl #8
     140:	004f0700 	subeq	r0, pc, r0, lsl #14
     144:	01510000 	cmpeq	r1, r0
     148:	81080000 	mrshi	r0, (UNDEF: 8)
     14c:	02000000 	andeq	r0, r0, #0
     150:	004f0700 	subeq	r0, pc, r0, lsl #14
     154:	01610000 	cmneq	r1, r0
     158:	81080000 	mrshi	r0, (UNDEF: 8)
     15c:	01000000 	mrseq	r0, (UNDEF: 0)
     160:	013c1000 	teqeq	ip, r0
     164:	27010000 	strcs	r0, [r1, -r0]
     168:	00000061 	andeq	r0, r0, r1, rrx
     16c:	0000805c 	andeq	r8, r0, ip, asr r0
     170:	00000050 	andeq	r0, r0, r0, asr r0
     174:	01fe9c01 	mvnseq	r9, r1, lsl #24
     178:	c70a0000 	strgt	r0, [sl, -r0]
     17c:	01000001 	tsteq	r0, r1
     180:	00004f27 	andeq	r4, r0, r7, lsr #30
     184:	00006f00 	andeq	r6, r0, r0, lsl #30
     188:	65720b00 	ldrbvs	r0, [r2, #-2816]!	; 0xb00
     18c:	27010067 	strcs	r0, [r1, -r7, rrx]
     190:	0000004f 	andeq	r0, r0, pc, asr #32
     194:	00000090 	muleq	r0, r0, r0
     198:	00009d0c 	andeq	r9, r0, ip, lsl #26
     19c:	fe280100 	cdp2	1, 2, cr0, cr8, cr0, {0}
     1a0:	02000001 	andeq	r0, r0, #1
     1a4:	eb0c7491 	bl	31d3f0 <__bss_end__+0x3134d8>
     1a8:	01000001 	tsteq	r0, r1
     1ac:	0001512a 	andeq	r5, r1, sl, lsr #2
     1b0:	70910200 	addsvc	r0, r1, r0, lsl #4
     1b4:	74756f11 	ldrbtvc	r6, [r5], #-3857	; 0xf11
     1b8:	612c0100 	teqvs	ip, r0, lsl #2
     1bc:	bd000000 	stclt	0, cr0, [r0, #-0]
     1c0:	0d000000 	stceq	0, cr0, [r0, #-0]
     1c4:	0000807c 	andeq	r8, r0, ip, ror r0
     1c8:	000004e5 	andeq	r0, r0, r5, ror #9
     1cc:	000001e2 	andeq	r0, r0, r2, ror #3
     1d0:	0152010e 	cmpeq	r2, lr, lsl #2
     1d4:	51010e31 	tstpl	r1, r1, lsr lr
     1d8:	0e6c9102 	lgneqe	f1, f2
     1dc:	74025001 	strvc	r5, [r2], #-1
     1e0:	980f0000 	stmdals	pc, {}	; <UNPREDICTABLE>
     1e4:	0a000080 	beq	3ec <_start-0x7c14>
     1e8:	0e000005 	cdpeq	0, 0, cr0, cr0, cr5, {0}
     1ec:	32015201 	andcc	r5, r1, #268435456	; 0x10000000
     1f0:	0251010e 	subseq	r0, r1, #-2147483645	; 0x80000003
     1f4:	010e007d 	tsteq	lr, sp, ror r0
     1f8:	00740250 	rsbseq	r0, r4, r0, asr r2
     1fc:	4f070000 	svcmi	0x00070000
     200:	0e000000 	cdpeq	0, 0, cr0, cr0, cr0, {0}
     204:	08000002 	stmdaeq	r0, {r1}
     208:	00000081 	andeq	r0, r0, r1, lsl #1
     20c:	a8120000 	ldmdage	r2, {}	; <UNPREDICTABLE>
     210:	01000000 	mrseq	r0, (UNDEF: 0)
     214:	0080ac16 	addeq	sl, r0, r6, lsl ip
     218:	00002800 	andeq	r2, r0, r0, lsl #16
     21c:	4c9c0100 	ldfmis	f0, [ip], {0}
     220:	13000002 	movwne	r0, #2
     224:	00747372 	rsbseq	r7, r4, r2, ror r3
     228:	004f1701 	subeq	r1, pc, r1, lsl #14
     22c:	91020000 	mrsls	r0, (UNDEF: 2)
     230:	80cc0f77 	sbchi	r0, ip, r7, ror pc
     234:	04e50000 	strbteq	r0, [r5], #0
     238:	010e0000 	mrseq	r0, (UNDEF: 14)
     23c:	0e310152 	mrceq	1, 1, r0, cr1, cr2, {2}
     240:	91025101 	tstls	r2, r1, lsl #2
     244:	50010e6f 	andpl	r0, r1, pc, ror #28
     248:	00003001 	andeq	r3, r0, r1
     24c:	00000012 	andeq	r0, r0, r2, lsl r0
     250:	d4300100 	ldrtle	r0, [r0], #-256	; 0x100
     254:	80000080 	andhi	r0, r0, r0, lsl #1
     258:	01000001 	tsteq	r0, r1
     25c:	0004e09c 	muleq	r4, ip, r0
     260:	00631100 	rsbeq	r1, r3, r0, lsl #2
     264:	00615101 	rsbeq	r5, r1, r1, lsl #2
     268:	01050000 	mrseq	r0, (UNDEF: 5)
     26c:	87140000 	ldrhi	r0, [r4, -r0]
     270:	e0000000 	and	r0, r0, r0
     274:	05000004 	streq	r0, [r0, #-4]
     278:	0096d403 	addseq	sp, r6, r3, lsl #8
     27c:	00361500 	eorseq	r1, r6, r0, lsl #10
     280:	61010000 	mrsvs	r0, (UNDEF: 1)
     284:	00000061 	andeq	r0, r0, r1, rrx
     288:	671642e3 	ldrvs	r4, [r6, -r3, ror #5]
     28c:	01000000 	mrseq	r0, (UNDEF: 0)
     290:	0000616e 	andeq	r6, r0, lr, ror #2
     294:	00012300 	andeq	r2, r1, r0, lsl #6
     298:	00001700 	andeq	r1, r0, r0, lsl #14
     29c:	03010000 	movweq	r0, #4096	; 0x1000
     2a0:	69110000 	ldmdbvs	r1, {}	; <UNPREDICTABLE>
     2a4:	25780100 	ldrbcs	r0, [r8, #-256]!	; 0x100
     2a8:	41000000 	mrsmi	r0, (UNDEF: 0)
     2ac:	18000001 	stmdane	r0, {r0}
     2b0:	00000018 	andeq	r0, r0, r8, lsl r0
     2b4:	01007611 	tsteq	r0, r1, lsl r6
     2b8:	00003a79 	andeq	r3, r0, r9, ror sl
     2bc:	00015f00 	andeq	r5, r1, r0, lsl #30
     2c0:	81f40d00 	mvnshi	r0, r0, lsl #26
     2c4:	01610000 	cmneq	r1, r0
     2c8:	02db0000 	sbcseq	r0, fp, #0
     2cc:	010e0000 	mrseq	r0, (UNDEF: 14)
     2d0:	00770251 	rsbseq	r0, r7, r1, asr r2
     2d4:	0250010e 	subseq	r0, r0, #-2147483645	; 0x80000003
     2d8:	0d000078 	stceq	0, cr0, [r0, #-480]	; 0xfffffe20
     2dc:	00008200 	andeq	r8, r0, r0, lsl #4
     2e0:	00000529 	andeq	r0, r0, r9, lsr #10
     2e4:	000002ef 	andeq	r0, r0, pc, ror #5
     2e8:	0250010e 	subseq	r0, r0, #-2147483645	; 0x80000003
     2ec:	0f000076 	svceq	0x00000076
     2f0:	00008208 	andeq	r8, r0, r8, lsl #4
     2f4:	0000053f 	andeq	r0, r0, pc, lsr r5
     2f8:	0250010e 	subseq	r0, r0, #-2147483645	; 0x80000003
     2fc:	00000075 	andeq	r0, r0, r5, ror r0
     300:	80dc1900 	sbcshi	r1, ip, r0, lsl #18
     304:	05500000 	ldrbeq	r0, [r0, #-0]
     308:	e40d0000 	str	r0, [sp], #-0
     30c:	3f000080 	svccc	0x00000080
     310:	1d000005 	stcne	0, cr0, [r0, #-20]	; 0xffffffec
     314:	0e000003 	cdpeq	0, 0, cr0, cr0, cr3, {0}
     318:	4e015001 	cdpmi	0, 0, cr5, cr1, cr1, {0}
     31c:	80e81900 	rschi	r1, r8, r0, lsl #18
     320:	05570000 	ldrbeq	r0, [r7, #-0]
     324:	f00d0000 			; <UNDEFINED> instruction: 0xf00d0000
     328:	3f000080 	svccc	0x00000080
     32c:	39000005 	stmdbcc	r0, {r0, r2}
     330:	0e000003 	cdpeq	0, 0, cr0, cr0, cr3, {0}
     334:	4e015001 	cdpmi	0, 0, cr5, cr1, cr1, {0}
     338:	80f41900 	rscshi	r1, r4, r0, lsl #18
     33c:	020e0000 	andeq	r0, lr, #0
     340:	fc0d0000 	stc2	0, cr0, [sp], {-0}
     344:	5e000080 	cdppl	0, 0, cr0, cr0, cr0, {4}
     348:	55000005 	strpl	r0, [r0, #-5]
     34c:	0e000003 	cdpeq	0, 0, cr0, cr0, cr3, {0}
     350:	49015001 	stmdbmi	r1, {r0, ip, lr}
     354:	81080d00 	tsthi	r8, r0, lsl #26
     358:	01610000 	cmneq	r1, r0
     35c:	036e0000 	cmneq	lr, #0
     360:	010e0000 	mrseq	r0, (UNDEF: 14)
     364:	0e310151 	mrceq	1, 1, r0, cr1, cr1, {2}
     368:	08025001 	stmdaeq	r2, {r0, ip, lr}
     36c:	280d0048 	stmdacs	sp, {r3, r6}
     370:	29000081 	stmdbcs	r0, {r0, r7}
     374:	9a000005 	bls	390 <_start-0x7c70>
     378:	0e000003 	cdpeq	0, 0, cr0, cr0, cr3, {0}
     37c:	75025301 	strvc	r5, [r2, #-769]	; 0x301
     380:	52010e00 	andpl	r0, r1, #0, 28
     384:	08007405 	stmdaeq	r0, {r0, r2, sl, ip, sp, lr}
     388:	010e1aff 	strdeq	r1, [lr, -pc]
     38c:	00740251 	rsbseq	r0, r4, r1, asr r2
     390:	0550010e 	ldrbeq	r0, [r0, #-270]	; 0x10e
     394:	0096dc03 	addseq	sp, r6, r3, lsl #24
     398:	34190000 	ldrcc	r0, [r9], #-0
     39c:	6f000081 	svcvs	0x00000081
     3a0:	0d000005 	stceq	0, cr0, [r0, #-20]	; 0xffffffec
     3a4:	00008148 	andeq	r8, r0, r8, asr #2
     3a8:	00000529 	andeq	r0, r0, r9, lsr #10
     3ac:	000003d2 	ldrdeq	r0, [r0], -r2
     3b0:	0253010e 	subseq	r0, r3, #-2147483645	; 0x80000003
     3b4:	010e5608 	tsteq	lr, r8, lsl #12
     3b8:	d4030552 	strle	r0, [r3], #-1362	; 0x552
     3bc:	0e000096 	mcreq	0, 0, r0, cr0, cr6, {4}
     3c0:	03055101 	movweq	r5, #20737	; 0x5101
     3c4:	00009728 	andeq	r9, r0, r8, lsr #14
     3c8:	0550010e 	ldrbeq	r0, [r0, #-270]	; 0x10e
     3cc:	00970803 	addseq	r0, r7, r3, lsl #16
     3d0:	4c190000 	ldcmi	0, cr0, [r9], {-0}
     3d4:	76000081 	strvc	r0, [r0], -r1, lsl #1
     3d8:	19000005 	stmdbne	r0, {r0, r2}
     3dc:	00008160 	andeq	r8, r0, r0, ror #2
     3e0:	0000056f 	andeq	r0, r0, pc, ror #10
     3e4:	0081740d 	addeq	r7, r1, sp, lsl #8
     3e8:	00052900 	andeq	r2, r5, r0, lsl #18
     3ec:	00041300 	andeq	r1, r4, r0, lsl #6
     3f0:	53010e00 	movwpl	r0, #7680	; 0x1e00
     3f4:	0e580802 	cdpeq	8, 5, cr0, cr8, cr2, {0}
     3f8:	03055201 	movweq	r5, #20993	; 0x5201
     3fc:	000096d4 	ldrdeq	r9, [r0], -r4
     400:	0551010e 	ldrbeq	r0, [r1, #-270]	; 0x10e
     404:	00972803 	addseq	r2, r7, r3, lsl #16
     408:	50010e00 	andpl	r0, r1, r0, lsl #28
     40c:	97340305 	ldrls	r0, [r4, -r5, lsl #6]!
     410:	19000000 	stmdbne	r0, {}	; <UNPREDICTABLE>
     414:	00008178 	andeq	r8, r0, r8, ror r1
     418:	00000576 	andeq	r0, r0, r6, ror r5
     41c:	00818c19 	addeq	r8, r1, r9, lsl ip
     420:	00056f00 	andeq	r6, r5, r0, lsl #30
     424:	81a00d00 	lslhi	r0, r0, #26
     428:	05290000 	streq	r0, [r9, #-0]!
     42c:	04540000 	ldrbeq	r0, [r4], #-0
     430:	010e0000 	mrseq	r0, (UNDEF: 14)
     434:	5a080253 	bpl	200d88 <__bss_end__+0x1f6e70>
     438:	0552010e 	ldrbeq	r0, [r2, #-270]	; 0x10e
     43c:	0096d403 	addseq	sp, r6, r3, lsl #8
     440:	51010e00 	tstpl	r1, r0, lsl #28
     444:	97280305 	strls	r0, [r8, -r5, lsl #6]!
     448:	010e0000 	mrseq	r0, (UNDEF: 14)
     44c:	58030550 	stmdapl	r3, {r4, r6, r8, sl}
     450:	00000097 	muleq	r0, r7, r0
     454:	0081a419 	addeq	sl, r1, r9, lsl r4
     458:	00057600 	andeq	r7, r5, r0, lsl #12
     45c:	81b80d00 			; <UNDEFINED> instruction: 0x81b80d00
     460:	00aa0000 	adceq	r0, sl, r0
     464:	047c0000 	ldrbteq	r0, [ip], #-0
     468:	010e0000 	mrseq	r0, (UNDEF: 14)
     46c:	00740252 	rsbseq	r0, r4, r2, asr r2
     470:	0151010e 	cmpeq	r1, lr, lsl #2
     474:	50010e31 	andpl	r0, r1, r1, lsr lr
     478:	00480802 	subeq	r0, r8, r2, lsl #16
     47c:	0081c40d 	addeq	ip, r1, sp, lsl #8
     480:	00016100 	andeq	r6, r1, r0, lsl #2
     484:	00049500 	andeq	r9, r4, r0, lsl #10
     488:	51010e00 	tstpl	r1, r0, lsl #28
     48c:	010e3101 	tsteq	lr, r1, lsl #2
     490:	48080250 	stmdami	r8, {r4, r6, r9}
     494:	81d01900 	bicshi	r1, r0, r0, lsl #18
     498:	056f0000 	strbeq	r0, [pc, #-0]!	; 4a0 <_start-0x7b60>
     49c:	e40d0000 	str	r0, [sp], #-0
     4a0:	29000081 	stmdbcs	r0, {r0, r7}
     4a4:	cd000005 	stcgt	0, cr0, [r0, #-20]	; 0xffffffec
     4a8:	0e000004 	cdpeq	0, 0, cr0, cr0, cr4, {0}
     4ac:	08025301 	stmdaeq	r2, {r0, r8, r9, ip, lr}
     4b0:	52010e6f 	andpl	r0, r1, #1776	; 0x6f0
     4b4:	96d40305 	ldrbls	r0, [r4], r5, lsl #6
     4b8:	010e0000 	mrseq	r0, (UNDEF: 14)
     4bc:	28030551 	stmdacs	r3, {r0, r4, r6, r8, sl}
     4c0:	0e000097 	mcreq	0, 0, r0, cr0, cr7, {4}
     4c4:	03055001 	movweq	r5, #20481	; 0x5001
     4c8:	0000977c 	andeq	r9, r0, ip, ror r7
     4cc:	81e81900 	mvnhi	r1, r0, lsl #18
     4d0:	05760000 	ldrbeq	r0, [r6, #-0]!
     4d4:	30190000 	andscc	r0, r9, r0
     4d8:	76000082 	strvc	r0, [r0], -r2, lsl #1
     4dc:	00000005 	andeq	r0, r0, r5
     4e0:	00009a06 	andeq	r9, r0, r6, lsl #20
     4e4:	005d1a00 	subseq	r1, sp, r0, lsl #20
     4e8:	0c030000 	stceq	0, cr0, [r3], {-0}
     4ec:	00000025 	andeq	r0, r0, r5, lsr #32
     4f0:	00000504 	andeq	r0, r0, r4, lsl #10
     4f4:	00002c1b 	andeq	r2, r0, fp, lsl ip
     4f8:	05041b00 	streq	r1, [r4, #-2816]	; 0xb00
     4fc:	2c1b0000 	ldccs	0, cr0, [fp], {-0}
     500:	00000000 	andeq	r0, r0, r0
     504:	004f0405 	subeq	r0, pc, r5, lsl #8
     508:	be1a0000 	cdplt	0, 1, cr0, cr10, cr0, {0}
     50c:	03000001 	movweq	r0, #1
     510:	0000250e 	andeq	r2, r0, lr, lsl #10
     514:	00052900 	andeq	r2, r5, r0, lsl #18
     518:	002c1b00 	eoreq	r1, ip, r0, lsl #22
     51c:	041b0000 	ldreq	r0, [fp], #-0
     520:	1b000005 	blne	53c <_start-0x7ac4>
     524:	0000002c 	andeq	r0, r0, ip, lsr #32
     528:	08be1a00 	ldmeq	lr!, {r9, fp, ip}
     52c:	29040000 	stmdbcs	r4, {}	; <UNPREDICTABLE>
     530:	00000025 	andeq	r0, r0, r5, lsr #32
     534:	0000053f 	andeq	r0, r0, pc, lsr r5
     538:	00008f1b 	andeq	r8, r0, fp, lsl pc
     53c:	1d001c00 	stcne	12, cr1, [r0, #-0]
     540:	00000020 	andeq	r0, r0, r0, lsr #32
     544:	05505004 	ldrbeq	r5, [r0, #-4]
     548:	2c1b0000 	ldccs	0, cr0, [fp], {-0}
     54c:	00000000 	andeq	r0, r0, r0
     550:	0000081e 	andeq	r0, r0, lr, lsl r8
     554:	1e3a0400 	cfabssne	mvf0, mvf10
     558:	00000054 	andeq	r0, r0, r4, asr r0
     55c:	941d0603 	ldrls	r0, [sp], #-1539	; 0x603
     560:	04000000 	streq	r0, [r0], #-0
     564:	00056f4e 	andeq	r6, r5, lr, asr #30
     568:	002c1b00 	eoreq	r1, ip, r0, lsl #22
     56c:	1e000000 	cdpne	0, 0, cr0, cr0, cr0, {0}
     570:	000001dc 	ldrdeq	r0, [r0], -ip
     574:	291e1e04 	ldmdbcs	lr, {r2, r9, sl, fp, ip}
     578:	04000000 	streq	r0, [r0], #-0
     57c:	1b5f0066 	blne	17c071c <__bss_end__+0x17b6804>
     580:	00040000 	andeq	r0, r4, r0
     584:	0000019f 	muleq	r0, pc, r1	; <UNPREDICTABLE>
     588:	02010104 	andeq	r0, r1, #4, 2
     58c:	240c0000 	strcs	r0, [ip], #-0
     590:	90000004 	andls	r0, r0, r4
     594:	54000004 	strpl	r0, [r0], #-4
     598:	74000082 	strvc	r0, [r0], #-130	; 0x82
     59c:	52000005 	andpl	r0, r0, #5
     5a0:	02000001 	andeq	r0, r0, #1
     5a4:	6e690504 	cdpvs	5, 6, cr0, cr9, cr4, {0}
     5a8:	04030074 	streq	r0, [r3], #-116	; 0x74
     5ac:	0000bc07 	andeq	fp, r0, r7, lsl #24
     5b0:	002c0400 	eoreq	r0, ip, r0, lsl #8
     5b4:	01030000 	mrseq	r0, (UNDEF: 3)
     5b8:	00001406 	andeq	r1, r0, r6, lsl #8
     5bc:	05020300 	streq	r0, [r2, #-768]	; 0x300
     5c0:	00000073 	andeq	r0, r0, r3, ror r0
     5c4:	55050403 	strpl	r0, [r5, #-1027]	; 0x403
     5c8:	03000001 	movweq	r0, #1
     5cc:	01500508 	cmpeq	r0, r8, lsl #10
     5d0:	c9050000 	stmdbgt	r5, {}	; <UNPREDICTABLE>
     5d4:	02000000 	andeq	r0, r0, #0
     5d8:	00005f2e 	andeq	r5, r0, lr, lsr #30
     5dc:	08010300 	stmdaeq	r1, {r8, r9}
     5e0:	00000012 	andeq	r0, r0, r2, lsl r0
     5e4:	41070203 	tstmi	r7, r3, lsl #4
     5e8:	05000000 	streq	r0, [r0, #-0]
     5ec:	000006af 	andeq	r0, r0, pc, lsr #13
     5f0:	00783402 	rsbseq	r3, r8, r2, lsl #8
     5f4:	04030000 	streq	r0, [r3], #-0
     5f8:	0000b707 	andeq	fp, r0, r7, lsl #14
     5fc:	07080300 	streq	r0, [r8, -r0, lsl #6]
     600:	000000b2 	strheq	r0, [r0], -r2
     604:	0005e805 	andeq	lr, r5, r5, lsl #16
     608:	25070300 	strcs	r0, [r7, #-768]	; 0x300
     60c:	05000000 	streq	r0, [r0, #-0]
     610:	000005cb 	andeq	r0, r0, fp, asr #11
     614:	00462c04 	subeq	r2, r6, r4, lsl #24
     618:	be050000 	cdplt	0, 0, cr0, cr5, cr0, {0}
     61c:	04000006 	streq	r0, [r0], #-6
     620:	00004672 	andeq	r4, r0, r2, ror r6
     624:	055e0600 	ldrbeq	r0, [lr, #-1536]	; 0x600
     628:	65050000 	strvs	r0, [r5, #-0]
     62c:	00002c01 	andeq	r2, r0, r1, lsl #24
     630:	04040700 	streq	r0, [r4], #-1792	; 0x700
     634:	0000d2a6 	andeq	sp, r0, r6, lsr #5
     638:	05490800 	strbeq	r0, [r9, #-2048]	; 0x800
     63c:	a8040000 	stmdage	r4, {}	; <UNPREDICTABLE>
     640:	000000a7 	andeq	r0, r0, r7, lsr #1
     644:	00048108 	andeq	r8, r4, r8, lsl #2
     648:	d2a90400 	adcle	r0, r9, #0, 8
     64c:	00000000 	andeq	r0, r0, r0
     650:	00005f09 	andeq	r5, r0, r9, lsl #30
     654:	0000e200 	andeq	lr, r0, r0, lsl #4
     658:	00e20a00 	rsceq	r0, r2, r0, lsl #20
     65c:	00030000 	andeq	r0, r3, r0
     660:	47070403 	strmi	r0, [r7, -r3, lsl #8]
     664:	0b000001 	bleq	670 <_start-0x7990>
     668:	0aa30408 	beq	fe8c1690 <__bss_end__+0xfe8b7778>
     66c:	0c000001 	stceq	0, cr0, [r0], {1}
     670:	0000069f 	muleq	r0, pc, r6	; <UNPREDICTABLE>
     674:	0025a504 	eoreq	sl, r5, r4, lsl #10
     678:	0c000000 	stceq	0, cr0, [r0], {-0}
     67c:	000006e8 	andeq	r0, r0, r8, ror #13
     680:	00b3aa04 	adcseq	sl, r3, r4, lsl #20
     684:	00040000 	andeq	r0, r4, r0
     688:	00062605 	andeq	r2, r6, r5, lsl #12
     68c:	e9ab0400 	stmib	fp!, {sl}
     690:	05000000 	streq	r0, [r0, #-0]
     694:	00000437 	andeq	r0, r0, r7, lsr r4
     698:	0086af04 	addeq	sl, r6, r4, lsl #30
     69c:	040d0000 	streq	r0, [sp], #-0
     6a0:	0128040e 	teqeq	r8, lr, lsl #8
     6a4:	01030000 	mrseq	r0, (UNDEF: 3)
     6a8:	00001b08 	andeq	r1, r0, r8, lsl #22
     6ac:	01280400 	teqeq	r8, r0, lsl #8
     6b0:	fe050000 	cdp2	0, 0, cr0, cr5, cr0, {0}
     6b4:	06000006 	streq	r0, [r0], -r6
     6b8:	00007816 	andeq	r7, r0, r6, lsl r8
     6bc:	04480f00 	strbeq	r0, [r8], #-3840	; 0xf00
     6c0:	06180000 	ldreq	r0, [r8], -r0
     6c4:	0001922d 	andeq	r9, r1, sp, lsr #4
     6c8:	06470c00 	strbeq	r0, [r7], -r0, lsl #24
     6cc:	2f060000 	svccs	0x00060000
     6d0:	00000192 	muleq	r0, r2, r1
     6d4:	6b5f1000 	blvs	17c46dc <__bss_end__+0x17ba7c4>
     6d8:	25300600 	ldrcs	r0, [r0, #-1536]!	; 0x600
     6dc:	04000000 	streq	r0, [r0], #-0
     6e0:	00068a0c 	andeq	r8, r6, ip, lsl #20
     6e4:	25300600 	ldrcs	r0, [r0, #-1536]!	; 0x600
     6e8:	08000000 	stmdaeq	r0, {}	; <UNPREDICTABLE>
     6ec:	00042a0c 	andeq	r2, r4, ip, lsl #20
     6f0:	25300600 	ldrcs	r0, [r0, #-1536]!	; 0x600
     6f4:	0c000000 	stceq	0, cr0, [r0], {-0}
     6f8:	0007500c 	andeq	r5, r7, ip
     6fc:	25300600 	ldrcs	r0, [r0, #-1536]!	; 0x600
     700:	10000000 	andne	r0, r0, r0
     704:	00785f10 	rsbseq	r5, r8, r0, lsl pc
     708:	01983106 	orrseq	r3, r8, r6, lsl #2
     70c:	00140000 	andseq	r0, r4, r0
     710:	013f040e 	teqeq	pc, lr, lsl #8
     714:	34090000 	strcc	r0, [r9], #-0
     718:	a8000001 	stmdage	r0, {r0}
     71c:	0a000001 	beq	728 <_start-0x78d8>
     720:	000000e2 	andeq	r0, r0, r2, ror #1
     724:	750f0000 	strvc	r0, [pc, #-0]	; 72c <_start-0x78d4>
     728:	24000004 	strcs	r0, [r0], #-4
     72c:	02213506 	eoreq	r3, r1, #25165824	; 0x1800000
     730:	160c0000 	strne	r0, [ip], -r0
     734:	06000003 	streq	r0, [r0], -r3
     738:	00002537 	andeq	r2, r0, r7, lsr r5
     73c:	c60c0000 	strgt	r0, [ip], -r0
     740:	06000006 	streq	r0, [r0], -r6
     744:	00002538 	andeq	r2, r0, r8, lsr r5
     748:	3a0c0400 	bcc	301750 <__bss_end__+0x2f7838>
     74c:	06000003 	streq	r0, [r0], -r3
     750:	00002539 	andeq	r2, r0, r9, lsr r5
     754:	3d0c0800 	stccc	8, cr0, [ip, #-0]
     758:	06000008 	streq	r0, [r0], -r8
     75c:	0000253a 	andeq	r2, r0, sl, lsr r5
     760:	af0c0c00 	svcge	0x000c0c00
     764:	06000005 	streq	r0, [r0], -r5
     768:	0000253b 	andeq	r2, r0, fp, lsr r5
     76c:	730c1000 	movwvc	r1, #49152	; 0xc000
     770:	06000005 	streq	r0, [r0], -r5
     774:	0000253c 	andeq	r2, r0, ip, lsr r5
     778:	550c1400 	strpl	r1, [ip, #-1024]	; 0x400
     77c:	06000007 	streq	r0, [r0], -r7
     780:	0000253d 	andeq	r2, r0, sp, lsr r5
     784:	080c1800 	stmdaeq	ip, {fp, ip}
     788:	06000006 	streq	r0, [r0], -r6
     78c:	0000253e 	andeq	r2, r0, lr, lsr r5
     790:	f10c1c00 			; <UNDEFINED> instruction: 0xf10c1c00
     794:	06000007 	streq	r0, [r0], -r7
     798:	0000253f 	andeq	r2, r0, pc, lsr r5
     79c:	11002000 	mrsne	r2, (UNDEF: 0)
     7a0:	00000353 	andeq	r0, r0, r3, asr r3
     7a4:	48060108 	stmdami	r6, {r3, r8}
     7a8:	00000261 	andeq	r0, r0, r1, ror #4
     7ac:	0004170c 	andeq	r1, r4, ip, lsl #14
     7b0:	61490600 	cmpvs	r9, r0, lsl #12
     7b4:	00000002 	andeq	r0, r0, r2
     7b8:	0001f50c 	andeq	pc, r1, ip, lsl #10
     7bc:	614a0600 	cmpvs	sl, r0, lsl #12
     7c0:	80000002 	andhi	r0, r0, r2
     7c4:	0006f012 	andeq	pc, r6, r2, lsl r0	; <UNPREDICTABLE>
     7c8:	344c0600 	strbcc	r0, [ip], #-1536	; 0x600
     7cc:	00000001 	andeq	r0, r0, r1
     7d0:	03a01201 	moveq	r1, #268435456	; 0x10000000
     7d4:	4f060000 	svcmi	0x00060000
     7d8:	00000134 	andeq	r0, r0, r4, lsr r1
     7dc:	09000104 	stmdbeq	r0, {r2, r8}
     7e0:	00000120 	andeq	r0, r0, r0, lsr #2
     7e4:	00000271 	andeq	r0, r0, r1, ror r2
     7e8:	0000e20a 	andeq	lr, r0, sl, lsl #4
     7ec:	11001f00 	tstne	r0, r0, lsl #30
     7f0:	000005b8 			; <UNDEFINED> instruction: 0x000005b8
     7f4:	5b060190 	blpl	180e3c <__bss_end__+0x176f24>
     7f8:	000002af 	andeq	r0, r0, pc, lsr #5
     7fc:	0006470c 	andeq	r4, r6, ip, lsl #14
     800:	af5c0600 	svcge	0x005c0600
     804:	00000002 	andeq	r0, r0, r2
     808:	00066b0c 	andeq	r6, r6, ip, lsl #22
     80c:	255d0600 	ldrbcs	r0, [sp, #-1536]	; 0x600
     810:	04000000 	streq	r0, [r0], #-0
     814:	00041f0c 	andeq	r1, r4, ip, lsl #30
     818:	b55f0600 	ldrblt	r0, [pc, #-1536]	; 220 <_start-0x7de0>
     81c:	08000002 	stmdaeq	r0, {r1}
     820:	0003530c 	andeq	r5, r3, ip, lsl #6
     824:	21600600 	cmncs	r0, r0, lsl #12
     828:	88000002 	stmdahi	r0, {r1}
     82c:	71040e00 	tstvc	r4, r0, lsl #28
     830:	09000002 	stmdbeq	r0, {r1}
     834:	000002c5 	andeq	r0, r0, r5, asr #5
     838:	000002c5 	andeq	r0, r0, r5, asr #5
     83c:	0000e20a 	andeq	lr, r0, sl, lsl #4
     840:	0e001f00 	cdpeq	15, 0, cr1, cr0, cr0, {0}
     844:	0002cb04 	andeq	ip, r2, r4, lsl #22
     848:	120f1300 	andne	r1, pc, #0, 6
     84c:	08000006 	stmdaeq	r0, {r1, r2}
     850:	02f17306 	rscseq	r7, r1, #402653184	; 0x18000000
     854:	340c0000 	strcc	r0, [ip], #-0
     858:	06000003 	streq	r0, [r0], -r3
     85c:	0002f174 	andeq	pc, r2, r4, ror r1	; <UNPREDICTABLE>
     860:	770c0000 	strvc	r0, [ip, -r0]
     864:	06000002 	streq	r0, [r0], -r2
     868:	00002575 	andeq	r2, r0, r5, ror r5
     86c:	0e000400 	cfcpyseq	mvf0, mvf0
     870:	00005f04 	andeq	r5, r0, r4, lsl #30
     874:	06310f00 	ldrteq	r0, [r1], -r0, lsl #30
     878:	06680000 	strbteq	r0, [r8], -r0
     87c:	000421b3 			; <UNDEFINED> instruction: 0x000421b3
     880:	705f1000 	subsvc	r1, pc, r0
     884:	f1b40600 			; <UNDEFINED> instruction: 0xf1b40600
     888:	00000002 	andeq	r0, r0, r2
     88c:	00725f10 	rsbseq	r5, r2, r0, lsl pc
     890:	0025b506 	eoreq	fp, r5, r6, lsl #10
     894:	10040000 	andne	r0, r4, r0
     898:	0600775f 			; <UNDEFINED> instruction: 0x0600775f
     89c:	000025b6 			; <UNDEFINED> instruction: 0x000025b6
     8a0:	990c0800 	stmdbls	ip, {fp}
     8a4:	06000003 	streq	r0, [r0], -r3
     8a8:	00003fb7 			; <UNDEFINED> instruction: 0x00003fb7
     8ac:	d00c0c00 	andle	r0, ip, r0, lsl #24
     8b0:	06000004 	streq	r0, [r0], -r4
     8b4:	00003fb8 			; <UNDEFINED> instruction: 0x00003fb8
     8b8:	5f100e00 	svcpl	0x00100e00
     8bc:	06006662 	streq	r6, [r0], -r2, ror #12
     8c0:	0002ccb9 			; <UNDEFINED> instruction: 0x0002ccb9
     8c4:	cd0c1000 	stcgt	0, cr1, [ip, #-0]
     8c8:	06000002 	streq	r0, [r0], -r2
     8cc:	000025ba 			; <UNDEFINED> instruction: 0x000025ba
     8d0:	770c1800 	strvc	r1, [ip, -r0, lsl #16]
     8d4:	06000003 	streq	r0, [r0], -r3
     8d8:	000120c1 	andeq	r2, r1, r1, asr #1
     8dc:	c10c1c00 	tstgt	ip, r0, lsl #24
     8e0:	06000001 	streq	r0, [r0], -r1
     8e4:	00057cc3 	andeq	r7, r5, r3, asr #25
     8e8:	600c2000 	andvs	r2, ip, r0
     8ec:	06000000 	streq	r0, [r0], -r0
     8f0:	0005a6c5 	andeq	sl, r5, r5, asr #13
     8f4:	b80c2400 	stmdalt	ip, {sl, sp}
     8f8:	06000006 	streq	r0, [r0], -r6
     8fc:	0005cac8 	andeq	ip, r5, r8, asr #21
     900:	0b0c2800 	bleq	30a908 <__bss_end__+0x3009f0>
     904:	06000008 	streq	r0, [r0], -r8
     908:	0005e4c9 	andeq	lr, r5, r9, asr #9
     90c:	5f102c00 	svcpl	0x00102c00
     910:	06006275 			; <UNDEFINED> instruction: 0x06006275
     914:	0002cccc 	andeq	ip, r2, ip, asr #25
     918:	5f103000 	svcpl	0x00103000
     91c:	06007075 			; <UNDEFINED> instruction: 0x06007075
     920:	0002f1cd 	andeq	pc, r2, sp, asr #3
     924:	5f103800 	svcpl	0x00103800
     928:	06007275 			; <UNDEFINED> instruction: 0x06007275
     92c:	000025ce 	andeq	r2, r0, lr, asr #11
     930:	1f0c3c00 	svcne	0x000c3c00
     934:	06000003 	streq	r0, [r0], -r3
     938:	0005ead1 	ldrdeq	lr, [r5], -r1
     93c:	b60c4000 	strlt	r4, [ip], -r0
     940:	06000007 	streq	r0, [r0], -r7
     944:	0005fad2 	ldrdeq	pc, [r5], -r2
     948:	5f104300 	svcpl	0x00104300
     94c:	0600626c 	streq	r6, [r0], -ip, ror #4
     950:	0002ccd5 	ldrdeq	ip, [r2], -r5
     954:	b90c4400 	stmdblt	ip, {sl, lr}
     958:	06000003 	streq	r0, [r0], -r3
     95c:	000025d8 	ldrdeq	r2, [r0], -r8
     960:	ea0c4c00 	b	313968 <__bss_end__+0x309a50>
     964:	06000003 	streq	r0, [r0], -r3
     968:	000091d9 	ldrdeq	r9, [r0], -r9	; <UNPREDICTABLE>
     96c:	ef0c5000 	svc	0x000c5000
     970:	06000001 	streq	r0, [r0], -r1
     974:	00043fdc 	ldrdeq	r3, [r4], -ip
     978:	650c5400 	strvs	r5, [ip, #-1024]	; 0x400
     97c:	06000005 	streq	r0, [r0], -r5
     980:	000115e0 	andeq	r1, r1, r0, ror #11
     984:	390c5800 	stmdbcc	ip, {fp, ip, lr}
     988:	06000006 	streq	r0, [r0], -r6
     98c:	00010ae2 	andeq	r0, r1, r2, ror #21
     990:	6b0c5c00 	blvs	317998 <__bss_end__+0x30da80>
     994:	06000005 	streq	r0, [r0], -r5
     998:	000025e3 	andeq	r2, r0, r3, ror #11
     99c:	14006400 	strne	r6, [r0], #-1024	; 0x400
     9a0:	00000025 	andeq	r0, r0, r5, lsr #32
     9a4:	0000043f 	andeq	r0, r0, pc, lsr r4
     9a8:	00043f15 	andeq	r3, r4, r5, lsl pc
     9ac:	01201500 	teqeq	r0, r0, lsl #10
     9b0:	22150000 	andscs	r0, r5, #0
     9b4:	15000001 	strne	r0, [r0, #-1]
     9b8:	00000025 	andeq	r0, r0, r5, lsr #32
     9bc:	4a040e00 	bmi	1041c4 <__bss_end__+0xfa2ac>
     9c0:	04000004 	streq	r0, [r0], #-4
     9c4:	0000043f 	andeq	r0, r0, pc, lsr r4
     9c8:	00069216 	andeq	r9, r6, r6, lsl r2
     9cc:	06042800 	streq	r2, [r4], -r0, lsl #16
     9d0:	057c0238 	ldrbeq	r0, [ip, #-568]!	; 0x238
     9d4:	01170000 	tsteq	r7, r0
     9d8:	06000006 	streq	r0, [r0], -r6
     9dc:	0025023a 	eoreq	r0, r5, sl, lsr r2
     9e0:	17000000 	strne	r0, [r0, -r0]
     9e4:	000003a8 	andeq	r0, r0, r8, lsr #7
     9e8:	51023f06 	tstpl	r2, r6, lsl #30
     9ec:	04000006 	streq	r0, [r0], #-6
     9f0:	00048817 	andeq	r8, r4, r7, lsl r8
     9f4:	023f0600 	eorseq	r0, pc, #0, 12
     9f8:	00000651 	andeq	r0, r0, r1, asr r6
     9fc:	04401708 	strbeq	r1, [r0], #-1800	; 0x708
     a00:	3f060000 	svccc	0x00060000
     a04:	00065102 	andeq	r5, r6, r2, lsl #2
     a08:	66170c00 	ldrvs	r0, [r7], -r0, lsl #24
     a0c:	06000006 	streq	r0, [r0], -r6
     a10:	00250241 	eoreq	r0, r5, r1, asr #4
     a14:	17100000 	ldrne	r0, [r0, -r0]
     a18:	00000285 	andeq	r0, r0, r5, lsl #5
     a1c:	33024206 	movwcc	r4, #8710	; 0x2206
     a20:	14000008 	strne	r0, [r0], #-8
     a24:	00072617 	andeq	r2, r7, r7, lsl r6
     a28:	02440600 	subeq	r0, r4, #0, 12
     a2c:	00000025 	andeq	r0, r0, r5, lsr #32
     a30:	06701730 			; <UNDEFINED> instruction: 0x06701730
     a34:	45060000 	strmi	r0, [r6, #-0]
     a38:	0005a002 	andeq	sl, r5, r2
     a3c:	c0173400 	andsgt	r3, r7, r0, lsl #8
     a40:	06000005 	streq	r0, [r0], -r5
     a44:	00250247 	eoreq	r0, r5, r7, asr #4
     a48:	17380000 	ldrne	r0, [r8, -r0]!
     a4c:	00000680 	andeq	r0, r0, r0, lsl #13
     a50:	4e024906 	cdpmi	9, 0, cr4, cr2, cr6, {0}
     a54:	3c000008 	stccc	0, cr0, [r0], {8}
     a58:	00054117 	andeq	r4, r5, r7, lsl r1
     a5c:	024c0600 	subeq	r0, ip, #0, 12
     a60:	00000192 	muleq	r0, r2, r1
     a64:	045f1740 	ldrbeq	r1, [pc], #-1856	; a6c <_start-0x7594>
     a68:	4d060000 	stcmi	0, cr0, [r6, #-0]
     a6c:	00002502 	andeq	r2, r0, r2, lsl #10
     a70:	38174400 	ldmdacc	r7, {sl, lr}
     a74:	06000008 	streq	r0, [r0], -r8
     a78:	0192024e 	orrseq	r0, r2, lr, asr #4
     a7c:	17480000 	strbne	r0, [r8, -r0]
     a80:	000005d2 	ldrdeq	r0, [r0], -r2
     a84:	54024f06 	strpl	r4, [r2], #-3846	; 0xf06
     a88:	4c000008 	stcmi	0, cr0, [r0], {8}
     a8c:	0004c817 	andeq	ip, r4, r7, lsl r8
     a90:	02520600 	subseq	r0, r2, #0, 12
     a94:	00000025 	andeq	r0, r0, r5, lsr #32
     a98:	03e21750 	mvneq	r1, #80, 14	; 0x1400000
     a9c:	53060000 	movwpl	r0, #24576	; 0x6000
     aa0:	00012202 	andeq	r2, r1, r2, lsl #4
     aa4:	fa175400 	blx	5d5aac <__bss_end__+0x5cbb94>
     aa8:	06000005 	streq	r0, [r0], -r5
     aac:	08110276 	ldmdaeq	r1, {r1, r2, r4, r5, r6, r9}
     ab0:	18580000 	ldmdane	r8, {}^	; <UNPREDICTABLE>
     ab4:	000005b8 			; <UNDEFINED> instruction: 0x000005b8
     ab8:	af027a06 	svcge	0x00027a06
     abc:	48000002 	stmdami	r0, {r1}
     ac0:	05041801 	streq	r1, [r4, #-2049]	; 0x801
     ac4:	7b060000 	blvc	180acc <__bss_end__+0x176bb4>
     ac8:	00027102 	andeq	r7, r2, r2, lsl #2
     acc:	18014c00 	stmdane	r1, {sl, fp, lr}
     ad0:	0000078f 	andeq	r0, r0, pc, lsl #15
     ad4:	65027f06 	strvs	r7, [r2, #-3846]	; 0xf06
     ad8:	dc000008 	stcle	0, cr0, [r0], {8}
     adc:	03911802 	orrseq	r1, r1, #131072	; 0x20000
     ae0:	84060000 	strhi	r0, [r6], #-0
     ae4:	00061602 	andeq	r1, r6, r2, lsl #12
     ae8:	1802e000 	stmdane	r2, {sp, lr, pc}
     aec:	0000034e 	andeq	r0, r0, lr, asr #6
     af0:	71028506 	tstvc	r2, r6, lsl #10
     af4:	ec000008 	stc	0, cr0, [r0], {8}
     af8:	040e0002 	streq	r0, [lr], #-2
     afc:	00000421 	andeq	r0, r0, r1, lsr #8
     b00:	00002514 	andeq	r2, r0, r4, lsl r5
     b04:	0005a000 	andeq	sl, r5, r0
     b08:	043f1500 	ldrteq	r1, [pc], #-1280	; b10 <_start-0x74f0>
     b0c:	20150000 	andscs	r0, r5, r0
     b10:	15000001 	strne	r0, [r0, #-1]
     b14:	000005a0 	andeq	r0, r0, r0, lsr #11
     b18:	00002515 	andeq	r2, r0, r5, lsl r5
     b1c:	040e0000 	streq	r0, [lr], #-0
     b20:	0000012f 	andeq	r0, r0, pc, lsr #2
     b24:	0582040e 	streq	r0, [r2, #1038]	; 0x40e
     b28:	9c140000 	ldcls	0, cr0, [r4], {-0}
     b2c:	ca000000 	bgt	b34 <_start-0x74cc>
     b30:	15000005 	strne	r0, [r0, #-5]
     b34:	0000043f 	andeq	r0, r0, pc, lsr r4
     b38:	00012015 	andeq	r2, r1, r5, lsl r0
     b3c:	009c1500 	addseq	r1, ip, r0, lsl #10
     b40:	25150000 	ldrcs	r0, [r5, #-0]
     b44:	00000000 	andeq	r0, r0, r0
     b48:	05ac040e 	streq	r0, [ip, #1038]!	; 0x40e
     b4c:	25140000 	ldrcs	r0, [r4, #-0]
     b50:	e4000000 	str	r0, [r0], #-0
     b54:	15000005 	strne	r0, [r0, #-5]
     b58:	0000043f 	andeq	r0, r0, pc, lsr r4
     b5c:	00012015 	andeq	r2, r1, r5, lsl r0
     b60:	040e0000 	streq	r0, [lr], #-0
     b64:	000005d0 	ldrdeq	r0, [r0], -r0	; <UNPREDICTABLE>
     b68:	00005f09 	andeq	r5, r0, r9, lsl #30
     b6c:	0005fa00 	andeq	pc, r5, r0, lsl #20
     b70:	00e20a00 	rsceq	r0, r2, r0, lsl #20
     b74:	00020000 	andeq	r0, r2, r0
     b78:	00005f09 	andeq	r5, r0, r9, lsl #30
     b7c:	00060a00 	andeq	r0, r6, r0, lsl #20
     b80:	00e20a00 	rsceq	r0, r2, r0, lsl #20
     b84:	00000000 	andeq	r0, r0, r0
     b88:	00061f06 	andeq	r1, r6, r6, lsl #30
     b8c:	011d0600 	tsteq	sp, r0, lsl #12
     b90:	000002f7 	strdeq	r0, [r0], -r7
     b94:	00075f19 	andeq	r5, r7, r9, lsl pc
     b98:	21060c00 	tstcs	r6, r0, lsl #24
     b9c:	00064b01 	andeq	r4, r6, r1, lsl #22
     ba0:	06471700 	strbeq	r1, [r7], -r0, lsl #14
     ba4:	23060000 	movwcs	r0, #24576	; 0x6000
     ba8:	00064b01 	andeq	r4, r6, r1, lsl #22
     bac:	dd170000 	ldcle	0, cr0, [r7, #-0]
     bb0:	06000004 	streq	r0, [r0], -r4
     bb4:	00250124 	eoreq	r0, r5, r4, lsr #2
     bb8:	17040000 	strne	r0, [r4, -r0]
     bbc:	00000619 	andeq	r0, r0, r9, lsl r6
     bc0:	51012506 	tstpl	r1, r6, lsl #10
     bc4:	08000006 	stmdaeq	r0, {r1, r2}
     bc8:	16040e00 	strne	r0, [r4], -r0, lsl #28
     bcc:	0e000006 	cdpeq	0, 0, cr0, cr0, cr6, {0}
     bd0:	00060a04 	andeq	r0, r6, r4, lsl #20
     bd4:	027d1900 	rsbseq	r1, sp, #0, 18
     bd8:	060e0000 	streq	r0, [lr], -r0
     bdc:	068c013d 			; <UNDEFINED> instruction: 0x068c013d
     be0:	99170000 	ldmdbls	r7, {}	; <UNPREDICTABLE>
     be4:	06000006 	streq	r0, [r0], -r6
     be8:	068c013e 			; <UNDEFINED> instruction: 0x068c013e
     bec:	17000000 	strne	r0, [r0, -r0]
     bf0:	000006cf 	andeq	r0, r0, pc, asr #13
     bf4:	8c013f06 	stchi	15, cr3, [r1], {6}
     bf8:	06000006 	streq	r0, [r0], -r6
     bfc:	0006f917 	andeq	pc, r6, r7, lsl r9	; <UNPREDICTABLE>
     c00:	01400600 	cmpeq	r0, r0, lsl #12
     c04:	00000066 	andeq	r0, r0, r6, rrx
     c08:	6609000c 	strvs	r0, [r9], -ip
     c0c:	9c000000 	stcls	0, cr0, [r0], {-0}
     c10:	0a000006 	beq	c30 <_start-0x73d0>
     c14:	000000e2 	andeq	r0, r0, r2, ror #1
     c18:	d01a0002 	andsle	r0, sl, r2
     c1c:	9d025706 	stcls	7, cr5, [r2, #-24]	; 0xffffffe8
     c20:	17000007 	strne	r0, [r0, -r7]
     c24:	00000738 	andeq	r0, r0, r8, lsr r7
     c28:	2c025906 	stccs	9, cr5, [r2], {6}
     c2c:	00000000 	andeq	r0, r0, r0
     c30:	0006db17 	andeq	sp, r6, r7, lsl fp
     c34:	025a0600 	subseq	r0, sl, #0, 12
     c38:	00000122 	andeq	r0, r0, r2, lsr #2
     c3c:	05261704 	streq	r1, [r6, #-1796]!	; 0x704
     c40:	5b060000 	blpl	180c48 <__bss_end__+0x176d30>
     c44:	00079d02 	andeq	r9, r7, r2, lsl #26
     c48:	fc170800 	ldc2	8, cr0, [r7], {-0}
     c4c:	06000007 	streq	r0, [r0], -r7
     c50:	01a8025c 			; <UNDEFINED> instruction: 0x01a8025c
     c54:	17240000 	strne	r0, [r4, -r0]!
     c58:	00000450 	andeq	r0, r0, r0, asr r4
     c5c:	25025d06 	strcs	r5, [r2, #-3334]	; 0xd06
     c60:	48000000 	stmdami	r0, {}	; <UNPREDICTABLE>
     c64:	00064217 	andeq	r4, r6, r7, lsl r2
     c68:	025e0600 	subseq	r0, lr, #0, 12
     c6c:	0000007f 	andeq	r0, r0, pc, ror r0
     c70:	081a1750 	ldmdaeq	sl, {r4, r6, r8, r9, sl, ip}
     c74:	5f060000 	svcpl	0x00060000
     c78:	00065702 	andeq	r5, r6, r2, lsl #14
     c7c:	59175800 	ldmdbpl	r7, {fp, ip, lr}
     c80:	06000006 	streq	r0, [r0], -r6
     c84:	010a0260 	tsteq	sl, r0, ror #4
     c88:	17680000 	strbne	r0, [r8, -r0]!
     c8c:	0000082a 	andeq	r0, r0, sl, lsr #16
     c90:	0a026106 	beq	990b0 <__bss_end__+0x8f198>
     c94:	70000001 	andvc	r0, r0, r1
     c98:	00030817 	andeq	r0, r3, r7, lsl r8
     c9c:	02620600 	rsbeq	r0, r2, #0, 12
     ca0:	0000010a 	andeq	r0, r0, sl, lsl #2
     ca4:	07761778 			; <UNDEFINED> instruction: 0x07761778
     ca8:	63060000 	movwvs	r0, #24576	; 0x6000
     cac:	0007ad02 	andeq	sl, r7, r2, lsl #26
     cb0:	1a178000 	bne	5e0cb8 <__bss_end__+0x5d6da0>
     cb4:	06000005 	streq	r0, [r0], -r5
     cb8:	07bd0264 	ldreq	r0, [sp, r4, ror #4]!
     cbc:	17880000 	strne	r0, [r8, r0]
     cc0:	00000706 	andeq	r0, r0, r6, lsl #14
     cc4:	25026506 	strcs	r6, [r2, #-1286]	; 0x506
     cc8:	a0000000 	andge	r0, r0, r0
     ccc:	00040917 	andeq	r0, r4, r7, lsl r9
     cd0:	02660600 	rsbeq	r0, r6, #0, 12
     cd4:	0000010a 	andeq	r0, r0, sl, lsl #2
     cd8:	02e617a4 	rsceq	r1, r6, #164, 14	; 0x2900000
     cdc:	67060000 	strvs	r0, [r6, -r0]
     ce0:	00010a02 	andeq	r0, r1, r2, lsl #20
     ce4:	f817ac00 			; <UNDEFINED> instruction: 0xf817ac00
     ce8:	06000003 	streq	r0, [r0], -r3
     cec:	010a0268 	tsteq	sl, r8, ror #4
     cf0:	17b40000 	ldrne	r0, [r4, r0]!
     cf4:	000002ad 	andeq	r0, r0, sp, lsr #5
     cf8:	0a026906 	beq	9b118 <__bss_end__+0x91200>
     cfc:	bc000001 	stclt	0, cr0, [r0], {1}
     d00:	0002bc17 	andeq	fp, r2, r7, lsl ip
     d04:	026a0600 	rsbeq	r0, sl, #0, 12
     d08:	0000010a 	andeq	r0, r0, sl, lsl #2
     d0c:	05ff17c4 	ldrbeq	r1, [pc, #1988]!	; 14d8 <_start-0x6b28>
     d10:	6b060000 	blvs	180d18 <__bss_end__+0x176e00>
     d14:	00002502 	andeq	r2, r0, r2, lsl #10
     d18:	0900cc00 	stmdbeq	r0, {sl, fp, lr, pc}
     d1c:	00000128 	andeq	r0, r0, r8, lsr #2
     d20:	000007ad 	andeq	r0, r0, sp, lsr #15
     d24:	0000e20a 	andeq	lr, r0, sl, lsl #4
     d28:	09001900 	stmdbeq	r0, {r8, fp, ip}
     d2c:	00000128 	andeq	r0, r0, r8, lsr #2
     d30:	000007bd 			; <UNDEFINED> instruction: 0x000007bd
     d34:	0000e20a 	andeq	lr, r0, sl, lsl #4
     d38:	09000700 	stmdbeq	r0, {r8, r9, sl}
     d3c:	00000128 	andeq	r0, r0, r8, lsr #2
     d40:	000007cd 	andeq	r0, r0, sp, asr #15
     d44:	0000e20a 	andeq	lr, r0, sl, lsl #4
     d48:	1a001700 	bne	6950 <_start-0x16b0>
     d4c:	027006f0 	rsbseq	r0, r0, #240, 12	; 0xf000000
     d50:	000007f1 	strdeq	r0, [r0], -r1
     d54:	0005a217 	andeq	sl, r5, r7, lsl r2
     d58:	02730600 	rsbseq	r0, r3, #0, 12
     d5c:	000007f1 	strdeq	r0, [r0], -r1
     d60:	05821700 	streq	r1, [r2, #1792]	; 0x700
     d64:	74060000 	strvc	r0, [r6], #-0
     d68:	00080102 	andeq	r0, r8, r2, lsl #2
     d6c:	09007800 	stmdbeq	r0, {fp, ip, sp, lr}
     d70:	000002f1 	strdeq	r0, [r0], -r1
     d74:	00000801 	andeq	r0, r0, r1, lsl #16
     d78:	0000e20a 	andeq	lr, r0, sl, lsl #4
     d7c:	09001d00 	stmdbeq	r0, {r8, sl, fp, ip}
     d80:	0000002c 	andeq	r0, r0, ip, lsr #32
     d84:	00000811 	andeq	r0, r0, r1, lsl r8
     d88:	0000e20a 	andeq	lr, r0, sl, lsl #4
     d8c:	1b001d00 	blne	8194 <notmain+0xc0>
     d90:	025506f0 	subseq	r0, r5, #240, 12	; 0xf000000
     d94:	00000833 	andeq	r0, r0, r3, lsr r8
     d98:	0006921c 	andeq	r9, r6, ip, lsl r2
     d9c:	026c0600 	rsbeq	r0, ip, #0, 12
     da0:	0000069c 	muleq	r0, ip, r6
     da4:	0007bc1c 	andeq	fp, r7, ip, lsl ip
     da8:	02750600 	rsbseq	r0, r5, #0, 12
     dac:	000007cd 	andeq	r0, r0, sp, asr #15
     db0:	01280900 	teqeq	r8, r0, lsl #18
     db4:	08430000 	stmdaeq	r3, {}^	; <UNPREDICTABLE>
     db8:	e20a0000 	and	r0, sl, #0
     dbc:	18000000 	stmdane	r0, {}	; <UNPREDICTABLE>
     dc0:	084e1d00 	stmdaeq	lr, {r8, sl, fp, ip}^
     dc4:	3f150000 	svccc	0x00150000
     dc8:	00000004 	andeq	r0, r0, r4
     dcc:	0843040e 	stmdaeq	r3, {r1, r2, r3, sl}^
     dd0:	040e0000 	streq	r0, [lr], #-0
     dd4:	00000192 	muleq	r0, r2, r1
     dd8:	0008651d 	andeq	r6, r8, sp, lsl r5
     ddc:	00251500 	eoreq	r1, r5, r0, lsl #10
     de0:	0e000000 	cdpeq	0, 0, cr0, cr0, cr0, {0}
     de4:	00086b04 	andeq	r6, r8, r4, lsl #22
     de8:	5a040e00 	bpl	1045f0 <__bss_end__+0xfa6d8>
     dec:	09000008 	stmdbeq	r0, {r3}
     df0:	0000060a 	andeq	r0, r0, sl, lsl #12
     df4:	00000881 	andeq	r0, r0, r1, lsl #17
     df8:	0000e20a 	andeq	lr, r0, sl, lsl #4
     dfc:	1e000200 	cdpne	2, 0, cr0, cr0, cr0, {0}
     e00:	0000071a 	andeq	r0, r0, sl, lsl r7
     e04:	3f02fd06 	svccc	0x0002fd06
     e08:	1e000004 	cdpne	0, 0, cr0, cr0, cr4, {0}
     e0c:	00000713 	andeq	r0, r0, r3, lsl r7
     e10:	4502fe06 	strmi	pc, [r2, #-3590]	; 0xe06
     e14:	14000004 	strne	r0, [r0], #-4
     e18:	00000025 	andeq	r0, r0, r5, lsr #32
     e1c:	000008a8 	andeq	r0, r0, r8, lsr #17
     e20:	00002515 	andeq	r2, r0, r5, lsl r5
     e24:	691f0000 	ldmdbvs	pc, {}	; <UNPREDICTABLE>
     e28:	07000004 	streq	r0, [r0, -r4]
     e2c:	0008b31d 	andeq	fp, r8, sp, lsl r3
     e30:	99040e00 	stmdbls	r4, {r9, sl, fp}
     e34:	14000008 	strne	r0, [r0], #-8
     e38:	00000025 	andeq	r0, r0, r5, lsr #32
     e3c:	000008c8 	andeq	r0, r0, r8, asr #17
     e40:	0005a015 	andeq	sl, r5, r5, lsl r0
     e44:	641f0000 	ldrvs	r0, [pc], #-0	; e4c <_start-0x71b4>
     e48:	07000009 	streq	r0, [r0, -r9]
     e4c:	0008d322 	andeq	sp, r8, r2, lsr #6
     e50:	b9040e00 	stmdblt	r4, {r9, sl, fp}
     e54:	20000008 	andcs	r0, r0, r8
     e58:	00005f01 	andeq	r5, r0, r1, lsl #30
     e5c:	160c0800 	strne	r0, [ip], -r0, lsl #16
     e60:	21000009 	tstcs	r0, r9
     e64:	000002d6 	ldrdeq	r0, [r0], -r6
     e68:	07652100 	strbeq	r2, [r5, -r0, lsl #2]!
     e6c:	21010000 	mrscs	r0, (UNDEF: 1)
     e70:	000007a7 	andeq	r0, r0, r7, lsr #15
     e74:	03252104 	teqeq	r5, #4, 2
     e78:	21050000 	mrscs	r0, (UNDEF: 5)
     e7c:	0000054f 	andeq	r0, r0, pc, asr #10
     e80:	07c42106 	strbeq	r2, [r4, r6, lsl #2]
     e84:	21070000 	mrscs	r0, (UNDEF: 7)
     e88:	000007d3 	ldrdeq	r0, [r0], -r3
     e8c:	07e22103 	strbeq	r2, [r2, r3, lsl #2]!
     e90:	00020000 	andeq	r0, r2, r0
     e94:	5901040b 	stmdbpl	r1, {r0, r1, r3, sl}
     e98:	000009c3 	andeq	r0, r0, r3, asr #19
     e9c:	0001c222 	andeq	ip, r1, r2, lsr #4
     ea0:	6d5a0100 	ldfvse	f0, [sl, #-0]
     ea4:	04000000 	streq	r0, [r0], #-0
     ea8:	22001f01 	andcs	r1, r0, #1, 30
     eac:	000003af 	andeq	r0, r0, pc, lsr #7
     eb0:	006d5c01 	rsbeq	r5, sp, r1, lsl #24
     eb4:	03040000 	movweq	r0, #16384	; 0x4000
     eb8:	f022001c 			; <UNDEFINED> instruction: 0xf022001c
     ebc:	0100000b 	tsteq	r0, fp
     ec0:	00006d5d 	andeq	r6, r0, sp, asr sp
     ec4:	1a020400 	bne	81ecc <__bss_end__+0x77fb4>
     ec8:	03442200 	movteq	r2, #16896	; 0x4200
     ecc:	63010000 	movwvs	r0, #4096	; 0x1000
     ed0:	0000006d 	andeq	r0, r0, sp, rrx
     ed4:	00190104 	andseq	r0, r9, r4, lsl #2
     ed8:	00747323 	rsbseq	r7, r4, r3, lsr #6
     edc:	006d6401 	rsbeq	r6, sp, r1, lsl #8
     ee0:	01040000 	mrseq	r0, (UNDEF: 4)
     ee4:	7d220018 	stcvc	0, cr0, [r2, #-96]!	; 0xffffffa0
     ee8:	01000005 	tsteq	r0, r5
     eec:	00006d68 	andeq	r6, r0, r8, ror #26
     ef0:	17010400 	strne	r0, [r1, -r0, lsl #8]
     ef4:	05902200 	ldreq	r2, [r0, #512]	; 0x200
     ef8:	6b010000 	blvs	40f00 <__bss_end__+0x36fe8>
     efc:	0000006d 	andeq	r0, r0, sp, rrx
     f00:	00160104 	andseq	r0, r6, r4, lsl #2
     f04:	00058b22 	andeq	r8, r5, r2, lsr #22
     f08:	6d6e0100 	stfvse	f0, [lr, #-0]
     f0c:	04000000 	streq	r0, [r0], #-0
     f10:	22001501 	andcs	r1, r0, #4194304	; 0x400000
     f14:	000003c2 	andeq	r0, r0, r2, asr #7
     f18:	006d7101 	rsbeq	r7, sp, r1, lsl #2
     f1c:	04040000 	streq	r0, [r4], #-0
     f20:	a9220011 	stmdbge	r2!, {r0, r4}
     f24:	01000005 	tsteq	r0, r5
     f28:	00006d72 	andeq	r6, r0, r2, ror sp
     f2c:	10010400 	andne	r0, r1, r0, lsl #8
     f30:	03d82200 	bicseq	r2, r8, #0, 4
     f34:	75010000 	strvc	r0, [r1, #-0]
     f38:	0000006d 	andeq	r0, r0, sp, rrx
     f3c:	00001004 	andeq	r1, r0, r4
     f40:	081f0500 	ldmdaeq	pc, {r8, sl}	; <UNPREDICTABLE>
     f44:	76010000 	strvc	r0, [r1], -r0
     f48:	00000916 	andeq	r0, r0, r6, lsl r9
     f4c:	0009c324 	andeq	ip, r9, r4, lsr #6
     f50:	01040b00 	tsteq	r4, r0, lsl #22
     f54:	000a8084 	andeq	r8, sl, r4, lsl #1
     f58:	61742300 	cmnvs	r4, r0, lsl #6
     f5c:	2c850100 	stfcss	f0, [r5], {0}
     f60:	04000000 	streq	r0, [r0], #-0
     f64:	22001f01 	andcs	r1, r0, #1, 30
     f68:	000002a3 	andeq	r0, r0, r3, lsr #5
     f6c:	002c8801 	eoreq	r8, ip, r1, lsl #16
     f70:	01040000 	mrseq	r0, (UNDEF: 4)
     f74:	7423001e 	strtvc	r0, [r3], #-30
     f78:	01007778 	tsteq	r0, r8, ror r7
     f7c:	00002c8c 	andeq	r2, r0, ip, lsl #25
     f80:	1d010400 	cfstrsne	mvf0, [r1, #-0]
     f84:	78722300 	ldmdavc	r2!, {r8, r9, sp}^
     f88:	92010072 	andls	r0, r1, #114	; 0x72
     f8c:	0000002c 	andeq	r0, r0, ip, lsr #32
     f90:	001c0104 	andseq	r0, ip, r4, lsl #2
     f94:	64787423 	ldrbtvs	r7, [r8], #-1059	; 0x423
     f98:	2c980100 	ldfcss	f0, [r8], {0}
     f9c:	04000000 	streq	r0, [r0], #-0
     fa0:	23001b01 	movwcs	r1, #2817	; 0xb01
     fa4:	00647872 	rsbeq	r7, r4, r2, ror r8
     fa8:	002c9b01 	eoreq	r9, ip, r1, lsl #22
     fac:	01040000 	mrseq	r0, (UNDEF: 4)
     fb0:	7423001a 	strtvc	r0, [r3], #-26
     fb4:	01006578 	tsteq	r0, r8, ror r5
     fb8:	00002c9f 	muleq	r0, pc, ip	; <UNPREDICTABLE>
     fbc:	19010400 	stmdbne	r1, {sl}
     fc0:	78722300 	ldmdavc	r2!, {r8, r9, sp}^
     fc4:	a4010066 	strge	r0, [r1], #-102	; 0x66
     fc8:	0000002c 	andeq	r0, r0, ip, lsr #32
     fcc:	00180104 	andseq	r0, r8, r4, lsl #2
     fd0:	72726523 	rsbsvc	r6, r2, #146800640	; 0x8c00000
     fd4:	2ca70100 	stfcss	f0, [r7]
     fd8:	04000000 	streq	r0, [r0], #-0
     fdc:	22001701 	andcs	r1, r0, #262144	; 0x40000
     fe0:	00000799 	muleq	r0, r9, r7
     fe4:	002cab01 	eoreq	sl, ip, r1, lsl #22
     fe8:	01040000 	mrseq	r0, (UNDEF: 4)
     fec:	af220016 	svcge	0x00220016
     ff0:	01000003 	tsteq	r0, r3
     ff4:	00002cb0 			; <UNDEFINED> instruction: 0x00002cb0
     ff8:	00160400 	andseq	r0, r6, r0, lsl #8
     ffc:	90050000 	andls	r0, r5, r0
    1000:	01000002 	tsteq	r0, r2
    1004:	0009d3b1 			; <UNDEFINED> instruction: 0x0009d3b1
    1008:	0a802400 	beq	fe00a010 <__bss_end__+0xfe0000f8>
    100c:	9b0f0000 	blls	3c1014 <__bss_end__+0x3b70fc>
    1010:	20000002 	andcs	r0, r0, r2
    1014:	0afdbc01 	beq	fff70020 <__bss_end__+0xfff66108>
    1018:	a70c0000 	strge	r0, [ip, -r0]
    101c:	01000006 	tsteq	r0, r6
    1020:	0009c3bd 			; <UNDEFINED> instruction: 0x0009c3bd
    1024:	130c0000 	movwne	r0, #49152	; 0xc000
    1028:	01000005 	tsteq	r0, r5
    102c:	000a80be 	strheq	r8, [sl], -lr
    1030:	e30c0400 	movw	r0, #50176	; 0xc400
    1034:	01000005 	tsteq	r0, r5
    1038:	00006dc1 	andeq	r6, r0, r1, asr #27
    103c:	c70c0800 	strgt	r0, [ip, -r0, lsl #16]
    1040:	01000001 	tsteq	r0, r1
    1044:	00006dca 	andeq	r6, r0, sl, asr #27
    1048:	a80c0c00 	stmdage	ip, {sl, fp}
    104c:	01000002 	tsteq	r0, r2
    1050:	00006dcc 	andeq	r6, r0, ip, asr #27
    1054:	fa0c1000 	blx	30505c <__bss_end__+0x2fb144>
    1058:	01000004 	tsteq	r0, r4
    105c:	00006dce 	andeq	r6, r0, lr, asr #27
    1060:	4d0c1400 	cfstrsmi	mvf1, [ip, #-0]
    1064:	01000006 	tsteq	r0, r6
    1068:	00006dd0 	ldrdeq	r6, [r0], -r0
    106c:	610c1800 	tstvs	ip, r0, lsl #16
    1070:	01000003 	tsteq	r0, r3
    1074:	00006dd2 	ldrdeq	r6, [r0], -r2
    1078:	05001c00 	streq	r1, [r0, #-3072]	; 0xc00
    107c:	0000029b 	muleq	r0, fp, r2
    1080:	0a90d301 	beq	fe435c8c <__bss_end__+0xfe42bd74>
    1084:	fd240000 	stc2	0, cr0, [r4, #-0]
    1088:	2500000a 	strcs	r0, [r0, #-10]
    108c:	00633269 	rsbeq	r3, r3, r9, ror #4
    1090:	0b18d701 	bleq	636c9c <__bss_end__+0x62cd84>
    1094:	040e0000 	streq	r0, [lr], #-0
    1098:	00000b08 	andeq	r0, r0, r8, lsl #22
    109c:	0004e426 	andeq	lr, r4, r6, lsr #8
    10a0:	01420100 	mrseq	r0, (UNDEF: 82)
    10a4:	00000025 	andeq	r0, r0, r5, lsr #32
    10a8:	9b100305 	blls	401cc4 <__bss_end__+0x3f7dac>
    10ac:	95270000 	strls	r0, [r7, #-0]!
    10b0:	01000005 	tsteq	r0, r5
    10b4:	82740175 	rsbshi	r0, r4, #1073741853	; 0x4000001d
    10b8:	00080000 	andeq	r0, r8, r0
    10bc:	9c010000 	stcls	0, cr0, [r1], {-0}
    10c0:	00001101 	andeq	r1, r0, r1, lsl #2
    10c4:	00008728 	andeq	r8, r0, r8, lsr #14
    10c8:	00111100 	andseq	r1, r1, r0, lsl #2
    10cc:	ac030500 	cfstr32ge	mvfx0, [r3], {-0}
    10d0:	29000097 	stmdbcs	r0, {r0, r1, r2, r4, r7}
    10d4:	00000baa 	andeq	r0, r0, sl, lsr #23
    10d8:	00755f2a 	rsbseq	r5, r5, sl, lsr #30
    10dc:	01800104 	orreq	r0, r0, r4, lsl #2
    10e0:	00000b7b 	andeq	r0, r0, fp, ror fp
    10e4:	0100732b 	tsteq	r0, fp, lsr #6
    10e8:	09c30180 	stmibeq	r3, {r7, r8}^
    10ec:	752b0000 	strvc	r0, [fp, #-0]!
    10f0:	01800100 	orreq	r0, r0, r0, lsl #2
    10f4:	0000002c 	andeq	r0, r0, ip, lsr #32
    10f8:	00782c00 	rsbseq	r2, r8, r0, lsl #24
    10fc:	5a018001 	bpl	61108 <__bss_end__+0x571f0>
    1100:	2c00000b 	stccs	0, cr0, [r0], {11}
    1104:	00707865 	rsbseq	r7, r0, r5, ror #16
    1108:	2c018001 	stccs	0, cr8, [r1], {1}
    110c:	2d000000 	stccs	0, cr0, [r0, #-0]
    1110:	000003f2 	strdeq	r0, [r0], -r2
    1114:	2c018001 	stccs	0, cr8, [r1], {1}
    1118:	2d000000 	stccs	0, cr0, [r0, #-0]
    111c:	000004f2 	strdeq	r0, [r0], -r2
    1120:	2c018001 	stccs	0, cr8, [r1], {1}
    1124:	00000000 	andeq	r0, r0, r0
    1128:	000bff29 	andeq	pc, fp, r9, lsr #30
    112c:	755f2a00 	ldrbvc	r2, [pc, #-2560]	; 734 <_start-0x78cc>
    1130:	81010400 	tsthi	r1, r0, lsl #8
    1134:	000bd001 	andeq	sp, fp, r1
    1138:	00732b00 	rsbseq	r2, r3, r0, lsl #22
    113c:	c3018101 	movwgt	r8, #4353	; 0x1101
    1140:	2b000009 	blcs	116c <_start-0x6e94>
    1144:	81010075 	tsthi	r1, r5, ror r0
    1148:	00002c01 	andeq	r2, r0, r1, lsl #24
    114c:	782c0000 	stmdavc	ip!, {}	; <UNPREDICTABLE>
    1150:	01810100 	orreq	r0, r1, r0, lsl #2
    1154:	00000baf 	andeq	r0, r0, pc, lsr #23
    1158:	7078652c 	rsbsvc	r6, r8, ip, lsr #10
    115c:	01810100 	orreq	r0, r1, r0, lsl #2
    1160:	0000002c 	andeq	r0, r0, ip, lsr #32
    1164:	0003f22d 	andeq	pc, r3, sp, lsr #4
    1168:	01810100 	orreq	r0, r1, r0, lsl #2
    116c:	0000002c 	andeq	r0, r0, ip, lsr #32
    1170:	0004f22d 	andeq	pc, r4, sp, lsr #4
    1174:	01810100 	orreq	r0, r1, r0, lsl #2
    1178:	0000002c 	andeq	r0, r0, ip, lsr #32
    117c:	0c542900 	mrrceq	9, 0, r2, r4, cr0
    1180:	5f2a0000 	svcpl	0x002a0000
    1184:	01040075 	tsteq	r4, r5, ror r0
    1188:	0c250182 	stfeqs	f0, [r5], #-520	; 0xfffffdf8
    118c:	732b0000 	teqvc	fp, #0
    1190:	01820100 	orreq	r0, r2, r0, lsl #2
    1194:	000009c3 	andeq	r0, r0, r3, asr #19
    1198:	0100752b 	tsteq	r0, fp, lsr #10
    119c:	002c0182 	eoreq	r0, ip, r2, lsl #3
    11a0:	2c000000 	stccs	0, cr0, [r0], {-0}
    11a4:	82010078 	andhi	r0, r1, #120	; 0x78
    11a8:	000c0401 	andeq	r0, ip, r1, lsl #8
    11ac:	78652c00 	stmdavc	r5!, {sl, fp, sp}^
    11b0:	82010070 	andhi	r0, r1, #112	; 0x70
    11b4:	00002c01 	andeq	r2, r0, r1, lsl #24
    11b8:	03f22d00 	mvnseq	r2, #0, 26
    11bc:	82010000 	andhi	r0, r1, #0
    11c0:	00002c01 	andeq	r2, r0, r1, lsl #24
    11c4:	04f22d00 	ldrbteq	r2, [r2], #3328	; 0xd00
    11c8:	82010000 	andhi	r0, r1, #0
    11cc:	00002c01 	andeq	r2, r0, r1, lsl #24
    11d0:	a9290000 	stmdbge	r9!, {}	; <UNPREDICTABLE>
    11d4:	2a00000c 	bcs	120c <_start-0x6df4>
    11d8:	0400755f 	streq	r7, [r0], #-1375	; 0x55f
    11dc:	7a018301 	bvc	61de8 <__bss_end__+0x57ed0>
    11e0:	2b00000c 	blcs	1218 <_start-0x6de8>
    11e4:	83010073 	movwhi	r0, #4211	; 0x1073
    11e8:	0009c301 	andeq	ip, r9, r1, lsl #6
    11ec:	00752b00 	rsbseq	r2, r5, r0, lsl #22
    11f0:	2c018301 	stccs	3, cr8, [r1], {1}
    11f4:	00000000 	andeq	r0, r0, r0
    11f8:	0100782c 	tsteq	r0, ip, lsr #16
    11fc:	0c590183 	ldfeqe	f0, [r9], {131}	; 0x83
    1200:	652c0000 	strvs	r0, [ip, #-0]!
    1204:	01007078 	tsteq	r0, r8, ror r0
    1208:	002c0183 	eoreq	r0, ip, r3, lsl #3
    120c:	f22d0000 	vhadd.s32	d0, d13, d0
    1210:	01000003 	tsteq	r0, r3
    1214:	002c0183 	eoreq	r0, ip, r3, lsl #3
    1218:	f22d0000 	vhadd.s32	d0, d13, d0
    121c:	01000004 	tsteq	r0, r4
    1220:	002c0183 	eoreq	r0, ip, r3, lsl #3
    1224:	29000000 	stmdbcs	r0, {}	; <UNPREDICTABLE>
    1228:	00000cfe 	strdeq	r0, [r0], -lr
    122c:	00755f2a 	rsbseq	r5, r5, sl, lsr #30
    1230:	01840104 	orreq	r0, r4, r4, lsl #2
    1234:	00000ccf 	andeq	r0, r0, pc, asr #25
    1238:	0100732b 	tsteq	r0, fp, lsr #6
    123c:	09c30184 	stmibeq	r3, {r2, r7, r8}^
    1240:	752b0000 	strvc	r0, [fp, #-0]!
    1244:	01840100 	orreq	r0, r4, r0, lsl #2
    1248:	0000002c 	andeq	r0, r0, ip, lsr #32
    124c:	00782c00 	rsbseq	r2, r8, r0, lsl #24
    1250:	ae018401 	cdpge	4, 0, cr8, cr1, cr1, {0}
    1254:	2c00000c 	stccs	0, cr0, [r0], {12}
    1258:	00707865 	rsbseq	r7, r0, r5, ror #16
    125c:	2c018401 	cfstrscs	mvf8, [r1], {1}
    1260:	2d000000 	stccs	0, cr0, [r0, #-0]
    1264:	000003f2 	strdeq	r0, [r0], -r2
    1268:	2c018401 	cfstrscs	mvf8, [r1], {1}
    126c:	2d000000 	stccs	0, cr0, [r0, #-0]
    1270:	000004f2 	strdeq	r0, [r0], -r2
    1274:	2c018401 	cfstrscs	mvf8, [r1], {1}
    1278:	00000000 	andeq	r0, r0, r0
    127c:	000d5329 	andeq	r5, sp, r9, lsr #6
    1280:	755f2a00 	ldrbvc	r2, [pc, #-2560]	; 888 <_start-0x7778>
    1284:	85010400 	strhi	r0, [r1, #-1024]	; 0x400
    1288:	000d2401 	andeq	r2, sp, r1, lsl #8
    128c:	00732b00 	rsbseq	r2, r3, r0, lsl #22
    1290:	c3018501 	movwgt	r8, #5377	; 0x1501
    1294:	2b000009 	blcs	12c0 <_start-0x6d40>
    1298:	85010075 	strhi	r0, [r1, #-117]	; 0x75
    129c:	00002c01 	andeq	r2, r0, r1, lsl #24
    12a0:	782c0000 	stmdavc	ip!, {}	; <UNPREDICTABLE>
    12a4:	01850100 	orreq	r0, r5, r0, lsl #2
    12a8:	00000d03 	andeq	r0, r0, r3, lsl #26
    12ac:	7078652c 	rsbsvc	r6, r8, ip, lsr #10
    12b0:	01850100 	orreq	r0, r5, r0, lsl #2
    12b4:	0000002c 	andeq	r0, r0, ip, lsr #32
    12b8:	0003f22d 	andeq	pc, r3, sp, lsr #4
    12bc:	01850100 	orreq	r0, r5, r0, lsl #2
    12c0:	0000002c 	andeq	r0, r0, ip, lsr #32
    12c4:	0004f22d 	andeq	pc, r4, sp, lsr #4
    12c8:	01850100 	orreq	r0, r5, r0, lsl #2
    12cc:	0000002c 	andeq	r0, r0, ip, lsr #32
    12d0:	0da82900 	stceq	9, cr2, [r8]
    12d4:	5f2a0000 	svcpl	0x002a0000
    12d8:	01040075 	tsteq	r4, r5, ror r0
    12dc:	0d790186 	ldfeqe	f0, [r9, #-536]!	; 0xfffffde8
    12e0:	732b0000 	teqvc	fp, #0
    12e4:	01860100 	orreq	r0, r6, r0, lsl #2
    12e8:	000009c3 	andeq	r0, r0, r3, asr #19
    12ec:	0100752b 	tsteq	r0, fp, lsr #10
    12f0:	002c0186 	eoreq	r0, ip, r6, lsl #3
    12f4:	2c000000 	stccs	0, cr0, [r0], {-0}
    12f8:	86010078 			; <UNDEFINED> instruction: 0x86010078
    12fc:	000d5801 	andeq	r5, sp, r1, lsl #16
    1300:	78652c00 	stmdavc	r5!, {sl, fp, sp}^
    1304:	86010070 			; <UNDEFINED> instruction: 0x86010070
    1308:	00002c01 	andeq	r2, r0, r1, lsl #24
    130c:	03f22d00 	mvnseq	r2, #0, 26
    1310:	86010000 	strhi	r0, [r1], -r0
    1314:	00002c01 	andeq	r2, r0, r1, lsl #24
    1318:	04f22d00 	ldrbteq	r2, [r2], #3328	; 0xd00
    131c:	86010000 	strhi	r0, [r1], -r0
    1320:	00002c01 	andeq	r2, r0, r1, lsl #24
    1324:	fd290000 	stc2	0, cr0, [r9, #-0]
    1328:	2a00000d 	bcs	1364 <_start-0x6c9c>
    132c:	0400755f 	streq	r7, [r0], #-1375	; 0x55f
    1330:	ce018901 	cdpgt	9, 0, cr8, cr1, cr1, {0}
    1334:	2b00000d 	blcs	1370 <_start-0x6c90>
    1338:	89010073 	stmdbhi	r1, {r0, r1, r4, r5, r6}
    133c:	000a8001 	andeq	r8, sl, r1
    1340:	00752b00 	rsbseq	r2, r5, r0, lsl #22
    1344:	2c018901 	stccs	9, cr8, [r1], {1}
    1348:	00000000 	andeq	r0, r0, r0
    134c:	0100782c 	tsteq	r0, ip, lsr #16
    1350:	0dad0189 	stfeqs	f0, [sp, #548]!	; 0x224
    1354:	652c0000 	strvs	r0, [ip, #-0]!
    1358:	01007078 	tsteq	r0, r8, ror r0
    135c:	002c0189 	eoreq	r0, ip, r9, lsl #3
    1360:	f22d0000 	vhadd.s32	d0, d13, d0
    1364:	01000003 	tsteq	r0, r3
    1368:	002c0189 	eoreq	r0, ip, r9, lsl #3
    136c:	f22d0000 	vhadd.s32	d0, d13, d0
    1370:	01000004 	tsteq	r0, r4
    1374:	002c0189 	eoreq	r0, ip, r9, lsl #3
    1378:	29000000 	stmdbcs	r0, {}	; <UNPREDICTABLE>
    137c:	00000e52 	andeq	r0, r0, r2, asr lr
    1380:	00755f2a 	rsbseq	r5, r5, sl, lsr #30
    1384:	018a0104 	orreq	r0, sl, r4, lsl #2
    1388:	00000e23 	andeq	r0, r0, r3, lsr #28
    138c:	0100732b 	tsteq	r0, fp, lsr #6
    1390:	0a80018a 	beq	fe0019c0 <__bss_end__+0xfdff7aa8>
    1394:	752b0000 	strvc	r0, [fp, #-0]!
    1398:	018a0100 	orreq	r0, sl, r0, lsl #2
    139c:	0000002c 	andeq	r0, r0, ip, lsr #32
    13a0:	00782c00 	rsbseq	r2, r8, r0, lsl #24
    13a4:	02018a01 	andeq	r8, r1, #4096	; 0x1000
    13a8:	2c00000e 	stccs	0, cr0, [r0], {14}
    13ac:	00707865 	rsbseq	r7, r0, r5, ror #16
    13b0:	2c018a01 	stccs	10, cr8, [r1], {1}
    13b4:	2d000000 	stccs	0, cr0, [r0, #-0]
    13b8:	000003f2 	strdeq	r0, [r0], -r2
    13bc:	2c018a01 	stccs	10, cr8, [r1], {1}
    13c0:	2d000000 	stccs	0, cr0, [r0, #-0]
    13c4:	000004f2 	strdeq	r0, [r0], -r2
    13c8:	2c018a01 	stccs	10, cr8, [r1], {1}
    13cc:	00000000 	andeq	r0, r0, r0
    13d0:	000ea729 	andeq	sl, lr, r9, lsr #14
    13d4:	755f2a00 	ldrbvc	r2, [pc, #-2560]	; 9dc <_start-0x7624>
    13d8:	8b010400 	blhi	423e0 <__bss_end__+0x384c8>
    13dc:	000e7801 	andeq	r7, lr, r1, lsl #16
    13e0:	00732b00 	rsbseq	r2, r3, r0, lsl #22
    13e4:	80018b01 	andhi	r8, r1, r1, lsl #22
    13e8:	2b00000a 	blcs	1418 <_start-0x6be8>
    13ec:	8b010075 	blhi	415c8 <__bss_end__+0x376b0>
    13f0:	00002c01 	andeq	r2, r0, r1, lsl #24
    13f4:	782c0000 	stmdavc	ip!, {}	; <UNPREDICTABLE>
    13f8:	018b0100 	orreq	r0, fp, r0, lsl #2
    13fc:	00000e57 	andeq	r0, r0, r7, asr lr
    1400:	7078652c 	rsbsvc	r6, r8, ip, lsr #10
    1404:	018b0100 	orreq	r0, fp, r0, lsl #2
    1408:	0000002c 	andeq	r0, r0, ip, lsr #32
    140c:	0003f22d 	andeq	pc, r3, sp, lsr #4
    1410:	018b0100 	orreq	r0, fp, r0, lsl #2
    1414:	0000002c 	andeq	r0, r0, ip, lsr #32
    1418:	0004f22d 	andeq	pc, r4, sp, lsr #4
    141c:	018b0100 	orreq	r0, fp, r0, lsl #2
    1420:	0000002c 	andeq	r0, r0, ip, lsr #32
    1424:	0efc2900 	cdpeq	9, 15, cr2, cr12, cr0, {0}
    1428:	5f2a0000 	svcpl	0x002a0000
    142c:	01040075 	tsteq	r4, r5, ror r0
    1430:	0ecd018c 	poleq<illegal precision>	f0, f5, #4.0
    1434:	732b0000 	teqvc	fp, #0
    1438:	018c0100 	orreq	r0, ip, r0, lsl #2
    143c:	00000a80 	andeq	r0, r0, r0, lsl #21
    1440:	0100752b 	tsteq	r0, fp, lsr #10
    1444:	002c018c 	eoreq	r0, ip, ip, lsl #3
    1448:	2c000000 	stccs	0, cr0, [r0], {-0}
    144c:	8c010078 	stchi	0, cr0, [r1], {120}	; 0x78
    1450:	000eac01 	andeq	sl, lr, r1, lsl #24
    1454:	78652c00 	stmdavc	r5!, {sl, fp, sp}^
    1458:	8c010070 	stchi	0, cr0, [r1], {112}	; 0x70
    145c:	00002c01 	andeq	r2, r0, r1, lsl #24
    1460:	03f22d00 	mvnseq	r2, #0, 26
    1464:	8c010000 	stchi	0, cr0, [r1], {-0}
    1468:	00002c01 	andeq	r2, r0, r1, lsl #24
    146c:	04f22d00 	ldrbteq	r2, [r2], #3328	; 0xd00
    1470:	8c010000 	stchi	0, cr0, [r1], {-0}
    1474:	00002c01 	andeq	r2, r0, r1, lsl #24
    1478:	51290000 	teqpl	r9, r0
    147c:	2a00000f 	bcs	14c0 <_start-0x6b40>
    1480:	0400755f 	streq	r7, [r0], #-1375	; 0x55f
    1484:	22018d01 	andcs	r8, r1, #1, 26	; 0x40
    1488:	2b00000f 	blcs	14cc <_start-0x6b34>
    148c:	8d010073 	stchi	0, cr0, [r1, #-460]	; 0xfffffe34
    1490:	000a8001 	andeq	r8, sl, r1
    1494:	00752b00 	rsbseq	r2, r5, r0, lsl #22
    1498:	2c018d01 	stccs	13, cr8, [r1], {1}
    149c:	00000000 	andeq	r0, r0, r0
    14a0:	0100782c 	tsteq	r0, ip, lsr #16
    14a4:	0f01018d 	svceq	0x0001018d
    14a8:	652c0000 	strvs	r0, [ip, #-0]!
    14ac:	01007078 	tsteq	r0, r8, ror r0
    14b0:	002c018d 	eoreq	r0, ip, sp, lsl #3
    14b4:	f22d0000 	vhadd.s32	d0, d13, d0
    14b8:	01000003 	tsteq	r0, r3
    14bc:	002c018d 	eoreq	r0, ip, sp, lsl #3
    14c0:	f22d0000 	vhadd.s32	d0, d13, d0
    14c4:	01000004 	tsteq	r0, r4
    14c8:	002c018d 	eoreq	r0, ip, sp, lsl #3
    14cc:	29000000 	stmdbcs	r0, {}	; <UNPREDICTABLE>
    14d0:	00000fa6 	andeq	r0, r0, r6, lsr #31
    14d4:	00755f2a 	rsbseq	r5, r5, sl, lsr #30
    14d8:	018e0104 	orreq	r0, lr, r4, lsl #2
    14dc:	00000f77 	andeq	r0, r0, r7, ror pc
    14e0:	0100732b 	tsteq	r0, fp, lsr #6
    14e4:	0a80018e 	beq	fe001b24 <__bss_end__+0xfdff7c0c>
    14e8:	752b0000 	strvc	r0, [fp, #-0]!
    14ec:	018e0100 	orreq	r0, lr, r0, lsl #2
    14f0:	0000002c 	andeq	r0, r0, ip, lsr #32
    14f4:	00782c00 	rsbseq	r2, r8, r0, lsl #24
    14f8:	56018e01 	strpl	r8, [r1], -r1, lsl #28
    14fc:	2c00000f 	stccs	0, cr0, [r0], {15}
    1500:	00707865 	rsbseq	r7, r0, r5, ror #16
    1504:	2c018e01 	stccs	14, cr8, [r1], {1}
    1508:	2d000000 	stccs	0, cr0, [r0, #-0]
    150c:	000003f2 	strdeq	r0, [r0], -r2
    1510:	2c018e01 	stccs	14, cr8, [r1], {1}
    1514:	2d000000 	stccs	0, cr0, [r0, #-0]
    1518:	000004f2 	strdeq	r0, [r0], -r2
    151c:	2c018e01 	stccs	14, cr8, [r1], {1}
    1520:	00000000 	andeq	r0, r0, r0
    1524:	000ffb29 	andeq	pc, pc, r9, lsr #22
    1528:	755f2a00 	ldrbvc	r2, [pc, #-2560]	; b30 <_start-0x74d0>
    152c:	8f010400 	svchi	0x00010400
    1530:	000fcc01 	andeq	ip, pc, r1, lsl #24
    1534:	00732b00 	rsbseq	r2, r3, r0, lsl #22
    1538:	80018f01 	andhi	r8, r1, r1, lsl #30
    153c:	2b00000a 	blcs	156c <_start-0x6a94>
    1540:	8f010075 	svchi	0x00010075
    1544:	00002c01 	andeq	r2, r0, r1, lsl #24
    1548:	782c0000 	stmdavc	ip!, {}	; <UNPREDICTABLE>
    154c:	018f0100 	orreq	r0, pc, r0, lsl #2
    1550:	00000fab 	andeq	r0, r0, fp, lsr #31
    1554:	7078652c 	rsbsvc	r6, r8, ip, lsr #10
    1558:	018f0100 	orreq	r0, pc, r0, lsl #2
    155c:	0000002c 	andeq	r0, r0, ip, lsr #32
    1560:	0003f22d 	andeq	pc, r3, sp, lsr #4
    1564:	018f0100 	orreq	r0, pc, r0, lsl #2
    1568:	0000002c 	andeq	r0, r0, ip, lsr #32
    156c:	0004f22d 	andeq	pc, r4, sp, lsr #4
    1570:	018f0100 	orreq	r0, pc, r0, lsl #2
    1574:	0000002c 	andeq	r0, r0, ip, lsr #32
    1578:	10502900 	subsne	r2, r0, r0, lsl #18
    157c:	5f2a0000 	svcpl	0x002a0000
    1580:	01040075 	tsteq	r4, r5, ror r0
    1584:	10210190 	mlane	r1, r0, r1, r0
    1588:	732b0000 	teqvc	fp, #0
    158c:	01900100 	orrseq	r0, r0, r0, lsl #2
    1590:	00000a80 	andeq	r0, r0, r0, lsl #21
    1594:	0100752b 	tsteq	r0, fp, lsr #10
    1598:	002c0190 	mlaeq	ip, r0, r1, r0
    159c:	2c000000 	stccs	0, cr0, [r0], {-0}
    15a0:	90010078 	andls	r0, r1, r8, ror r0
    15a4:	00100001 	andseq	r0, r0, r1
    15a8:	78652c00 	stmdavc	r5!, {sl, fp, sp}^
    15ac:	90010070 	andls	r0, r1, r0, ror r0
    15b0:	00002c01 	andeq	r2, r0, r1, lsl #24
    15b4:	03f22d00 	mvnseq	r2, #0, 26
    15b8:	90010000 	andls	r0, r1, r0
    15bc:	00002c01 	andeq	r2, r0, r1, lsl #24
    15c0:	04f22d00 	ldrbteq	r2, [r2], #3328	; 0xd00
    15c4:	90010000 	andls	r0, r1, r0
    15c8:	00002c01 	andeq	r2, r0, r1, lsl #24
    15cc:	a5290000 	strge	r0, [r9, #-0]!
    15d0:	2a000010 	bcs	1618 <_start-0x69e8>
    15d4:	0400755f 	streq	r7, [r0], #-1375	; 0x55f
    15d8:	76019101 	strvc	r9, [r1], -r1, lsl #2
    15dc:	2b000010 	blcs	1624 <_start-0x69dc>
    15e0:	91010073 	tstls	r1, r3, ror r0
    15e4:	000a8001 	andeq	r8, sl, r1
    15e8:	00752b00 	rsbseq	r2, r5, r0, lsl #22
    15ec:	2c019101 	stfcsd	f1, [r1], {1}
    15f0:	00000000 	andeq	r0, r0, r0
    15f4:	0100782c 	tsteq	r0, ip, lsr #16
    15f8:	10550191 			; <UNDEFINED> instruction: 0x10550191
    15fc:	652c0000 	strvs	r0, [ip, #-0]!
    1600:	01007078 	tsteq	r0, r8, ror r0
    1604:	002c0191 	mlaeq	ip, r1, r1, r0
    1608:	f22d0000 	vhadd.s32	d0, d13, d0
    160c:	01000003 	tsteq	r0, r3
    1610:	002c0191 	mlaeq	ip, r1, r1, r0
    1614:	f22d0000 	vhadd.s32	d0, d13, d0
    1618:	01000004 	tsteq	r0, r4
    161c:	002c0191 	mlaeq	ip, r1, r1, r0
    1620:	2e000000 	cdpcs	0, 0, cr0, cr0, cr0, {0}
    1624:	00008278 	andeq	r8, r0, r8, ror r2
    1628:	00000004 	andeq	r0, r0, r4
    162c:	00755f2a 	rsbseq	r5, r5, sl, lsr #30
    1630:	01920104 	orrseq	r0, r2, r4, lsl #2
    1634:	000010cf 	andeq	r1, r0, pc, asr #1
    1638:	0100732b 	tsteq	r0, fp, lsr #6
    163c:	0a800192 	beq	fe001c8c <__bss_end__+0xfdff7d74>
    1640:	752b0000 	strvc	r0, [fp, #-0]!
    1644:	01920100 	orrseq	r0, r2, r0, lsl #2
    1648:	0000002c 	andeq	r0, r0, ip, lsr #32
    164c:	00782c00 	rsbseq	r2, r8, r0, lsl #24
    1650:	ae019201 	cdpge	2, 0, cr9, cr1, cr1, {0}
    1654:	2f000010 	svccs	0x00000010
    1658:	00707865 	rsbseq	r7, r0, r5, ror #16
    165c:	2c019201 	sfmcs	f1, 1, [r1], {1}
    1660:	00000000 	andeq	r0, r0, r0
    1664:	03f22d02 	mvnseq	r2, #2, 26	; 0x80
    1668:	92010000 	andls	r0, r1, #0
    166c:	00002c01 	andeq	r2, r0, r1, lsl #24
    1670:	04f22d00 	ldrbteq	r2, [r2], #3328	; 0xd00
    1674:	92010000 	andls	r0, r1, #0
    1678:	00002c01 	andeq	r2, r0, r1, lsl #24
    167c:	09000000 	stmdbeq	r0, {}	; <UNPREDICTABLE>
    1680:	0000012f 	andeq	r0, r0, pc, lsr #2
    1684:	00001111 	andeq	r1, r0, r1, lsl r1
    1688:	0000e20a 	andeq	lr, r0, sl, lsl #4
    168c:	04000c00 	streq	r0, [r0], #-3072	; 0xc00
    1690:	00001101 	andeq	r1, r0, r1, lsl #2
    1694:	00005430 	andeq	r5, r0, r0, lsr r4
    1698:	01510100 	cmpeq	r1, r0, lsl #2
    169c:	0000871c 	andeq	r8, r0, ip, lsl r7
    16a0:	00000094 	muleq	r0, r4, r0
    16a4:	12879c01 	addne	r9, r7, #256	; 0x100
    16a8:	53310000 	teqpl	r1, #0
    16ac:	01004144 	tsteq	r0, r4, asr #2
    16b0:	00330159 	eorseq	r0, r3, r9, asr r1
    16b4:	31020000 	mrscc	r0, (UNDEF: 2)
    16b8:	004c4353 	subeq	r4, ip, r3, asr r3
    16bc:	33015a01 	movwcc	r5, #6657	; 0x1a01
    16c0:	03000000 	movweq	r0, #0
    16c4:	0100632c 	tsteq	r0, ip, lsr #6
    16c8:	09c30163 	stmibeq	r3, {r0, r1, r5, r6, r8}^
    16cc:	87280000 	strhi	r0, [r8, -r0]!
    16d0:	97000000 	strls	r0, [r0, -r0]
    16d4:	05000012 	streq	r0, [r0, #-18]
    16d8:	0097ec03 	addseq	lr, r7, r3, lsl #24
    16dc:	11902900 	orrsne	r2, r0, r0, lsl #18
    16e0:	5f2a0000 	svcpl	0x002a0000
    16e4:	01040075 	tsteq	r4, r5, ror r0
    16e8:	11850163 	orrne	r0, r5, r3, ror #2
    16ec:	762b0000 	strtvc	r0, [fp], -r0
    16f0:	01630100 	cmneq	r3, r0, lsl #2
    16f4:	000009c3 	andeq	r0, r0, r3, asr #19
    16f8:	0100752b 	tsteq	r0, fp, lsr #10
    16fc:	002c0163 	eoreq	r0, ip, r3, ror #2
    1700:	2c000000 	stccs	0, cr0, [r0], {-0}
    1704:	63010075 	movwvs	r0, #4213	; 0x1075
    1708:	00116401 	andseq	r6, r1, r1, lsl #8
    170c:	c3290000 	teqgt	r9, #0
    1710:	2a000011 	bcs	175c <_start-0x68a4>
    1714:	0400755f 	streq	r7, [r0], #-1375	; 0x55f
    1718:	b8016501 	stmdalt	r1, {r0, r8, sl, sp, lr}
    171c:	2b000011 	blcs	1768 <_start-0x6898>
    1720:	01007676 	tsteq	r0, r6, ror r6
    1724:	09c30165 	stmibeq	r3, {r0, r2, r5, r6, r8}^
    1728:	752b0000 	strvc	r0, [fp, #-0]!
    172c:	65010075 	strvs	r0, [r1, #-117]	; 0x75
    1730:	00006d01 	andeq	r6, r0, r1, lsl #26
    1734:	752c0000 	strvc	r0, [ip, #-0]!
    1738:	01650100 	cmneq	r5, r0, lsl #2
    173c:	00001195 	muleq	r0, r5, r1
    1740:	87243200 	strhi	r3, [r4, -r0, lsl #4]!
    1744:	0b300000 	bleq	c0174c <__bss_end__+0xbf7834>
    1748:	28320000 	ldmdacs	r2!, {}	; <UNPREDICTABLE>
    174c:	15000087 	strne	r0, [r0, #-135]	; 0x87
    1750:	3300001b 	movwcc	r0, #27
    1754:	00008734 	andeq	r8, r0, r4, lsr r7
    1758:	00001b20 	andeq	r1, r0, r0, lsr #22
    175c:	000011ed 	andeq	r1, r0, sp, ror #3
    1760:	01500134 	cmpeq	r0, r4, lsr r1
    1764:	51013432 	tstpl	r1, r2, lsr r4
    1768:	33003401 	movwcc	r3, #1025	; 0x401
    176c:	00008740 	andeq	r8, r0, r0, asr #14
    1770:	00001b20 	andeq	r1, r0, r0, lsr #22
    1774:	00001205 	andeq	r1, r0, r5, lsl #4
    1778:	01500134 	cmpeq	r0, r4, lsr r1
    177c:	51013433 	tstpl	r1, r3, lsr r4
    1780:	32003401 	andcc	r3, r0, #16777216	; 0x1000000
    1784:	00008744 	andeq	r8, r0, r4, asr #14
    1788:	00001b15 	andeq	r1, r0, r5, lsl fp
    178c:	00875433 	addeq	r5, r7, r3, lsr r4
    1790:	001b2b00 	andseq	r2, fp, r0, lsl #22
    1794:	00122900 	andseq	r2, r2, r0, lsl #18
    1798:	50013400 	andpl	r3, r1, r0, lsl #8
    179c:	34007402 	strcc	r7, [r0], #-1026	; 0x402
    17a0:	0a035101 	beq	d5bac <__bss_end__+0xcbc94>
    17a4:	32008000 	andcc	r8, r0, #0
    17a8:	00008758 	andeq	r8, r0, r8, asr r7
    17ac:	00001b15 	andeq	r1, r0, r5, lsl fp
    17b0:	00875c32 	addeq	r5, r7, r2, lsr ip
    17b4:	00195900 	andseq	r5, r9, r0, lsl #18
    17b8:	87603200 	strbhi	r3, [r0, -r0, lsl #4]!
    17bc:	1b150000 	blne	5417c4 <__bss_end__+0x5378ac>
    17c0:	80320000 	eorshi	r0, r2, r0
    17c4:	36000087 	strcc	r0, [r0], -r7, lsl #1
    17c8:	3300001b 	movwcc	r0, #27
    17cc:	00008794 	muleq	r0, r4, r7
    17d0:	00001b41 	andeq	r1, r0, r1, asr #22
    17d4:	0000127d 	andeq	r1, r0, sp, ror r2
    17d8:	05500134 	ldrbeq	r0, [r0, #-308]	; 0x134
    17dc:	00994403 	addseq	r4, r9, r3, lsl #8
    17e0:	51013400 	tstpl	r1, r0, lsl #8
    17e4:	97f80305 	ldrbls	r0, [r8, r5, lsl #6]!
    17e8:	01340000 	teqeq	r4, r0
    17ec:	ec030552 	cfstr32	mvfx0, [r3], {82}	; 0x52
    17f0:	34000097 	strcc	r0, [r0], #-151	; 0x97
    17f4:	0a035301 	beq	d6400 <__bss_end__+0xcc4e8>
    17f8:	3200016e 	andcc	r0, r0, #-2147483621	; 0x8000001b
    17fc:	00008798 	muleq	r0, r8, r7
    1800:	00001b4c 	andeq	r1, r0, ip, asr #22
    1804:	012f0900 	teqeq	pc, r0, lsl #18
    1808:	12970000 	addsne	r0, r7, #0
    180c:	e20a0000 	and	r0, sl, #0
    1810:	08000000 	stmdaeq	r0, {}	; <UNPREDICTABLE>
    1814:	12870400 	addne	r0, r7, #0, 8
    1818:	33300000 	teqcc	r0, #0
    181c:	01000005 	tsteq	r0, r5
    1820:	87b00147 	ldrhi	r0, [r0, r7, asr #2]!
    1824:	00180000 	andseq	r0, r8, r0
    1828:	9c010000 	stcls	0, cr0, [r1], {-0}
    182c:	000012c5 	andeq	r1, r0, r5, asr #5
    1830:	0087b832 	addeq	fp, r7, r2, lsr r8
    1834:	0012c500 	andseq	ip, r2, r0, lsl #10
    1838:	87c43200 	strbhi	r3, [r4, r0, lsl #4]
    183c:	11160000 	tstne	r6, r0
    1840:	35000000 	strcc	r0, [r0, #-0]
    1844:	000002f5 	strdeq	r0, [r0], -r5
    1848:	25014401 	strcs	r4, [r1, #-1025]	; 0x401
    184c:	0c000000 	stceq	0, cr0, [r0], {-0}
    1850:	10000087 	andne	r0, r0, r7, lsl #1
    1854:	01000000 	mrseq	r0, (UNDEF: 0)
    1858:	01be369c 			; <UNDEFINED> instruction: 0x01be369c
    185c:	31010000 	mrscc	r0, (UNDEF: 1)
    1860:	00002501 	andeq	r2, r0, r1, lsl #10
    1864:	00864800 	addeq	r4, r6, r0, lsl #16
    1868:	0000c400 	andeq	ip, r0, r0, lsl #8
    186c:	fe9c0100 	cdp2	1, 9, cr0, cr12, cr0, {0}
    1870:	37000013 	smladcc	r0, r3, r0, r0
    1874:	000001cb 	andeq	r0, r0, fp, asr #3
    1878:	2c013101 	stfcss	f3, [r1], {1}
    187c:	7d000000 	stcvc	0, cr0, [r0, #-0]
    1880:	37000001 	strcc	r0, [r0, -r1]
    1884:	000001f0 	strdeq	r0, [r0], -r0	; <UNPREDICTABLE>
    1888:	fe013101 	cdp2	1, 0, cr3, cr1, cr1, {0}
    188c:	9e000013 	mcrls	0, 0, r0, cr0, cr3, {0}
    1890:	37000001 	strcc	r0, [r0, -r1]
    1894:	000005dc 	ldrdeq	r0, [r0], -ip
    1898:	2c013101 	stfcss	f3, [r1], {1}
    189c:	bc000000 	stclt	0, cr0, [r0], {-0}
    18a0:	28000001 	stmdacs	r0, {r0}
    18a4:	00000087 	andeq	r0, r0, r7, lsl #1
    18a8:	00001297 	muleq	r0, r7, r2
    18ac:	97e00305 	strbls	r0, [r0, r5, lsl #6]!
    18b0:	60380000 	eorsvs	r0, r8, r0
    18b4:	88000086 	stmdahi	r0, {r1, r2, r7}
    18b8:	d4000000 	strle	r0, [r0], #-0
    18bc:	39000013 	stmdbcc	r0, {r0, r1, r4}
    18c0:	35010069 	strcc	r0, [r1, #-105]	; 0x69
    18c4:	00002c01 	andeq	r2, r0, r1, lsl #24
    18c8:	0001da00 	andeq	sp, r1, r0, lsl #20
    18cc:	866c3200 	strbthi	r3, [ip], -r0, lsl #4
    18d0:	1b360000 	blne	d818d8 <__bss_end__+0xd779c0>
    18d4:	80330000 	eorshi	r0, r3, r0
    18d8:	41000086 	smlabbmi	r0, r6, r0, r0
    18dc:	8800001b 	stmdahi	r0, {r0, r1, r3, r4}
    18e0:	34000013 	strcc	r0, [r0], #-19
    18e4:	03055001 	movweq	r5, #20481	; 0x5001
    18e8:	000098f0 	strdeq	r9, [r0], -r0
    18ec:	05510134 	ldrbeq	r0, [r1, #-308]	; 0x134
    18f0:	0097f803 	addseq	pc, r7, r3, lsl #16
    18f4:	52013400 	andpl	r3, r1, #0, 8
    18f8:	97e00305 	strbls	r0, [r0, r5, lsl #6]!
    18fc:	01340000 	teqeq	r4, r0
    1900:	370a0353 	smlsdcc	sl, r3, r3, r0
    1904:	84320001 	ldrthi	r0, [r2], #-1
    1908:	4c000086 	stcmi	0, cr0, [r0], {134}	; 0x86
    190c:	3200001b 	andcc	r0, r0, #27
    1910:	000086d0 	ldrdeq	r8, [r0], -r0
    1914:	00001b36 	andeq	r1, r0, r6, lsr fp
    1918:	0086e433 	addeq	lr, r6, r3, lsr r4
    191c:	001b4100 	andseq	r4, fp, r0, lsl #2
    1920:	0013ca00 	andseq	ip, r3, r0, lsl #20
    1924:	50013400 	andpl	r3, r1, r0, lsl #8
    1928:	99140305 	ldmdbls	r4, {r0, r2, r8, r9}
    192c:	01340000 	teqeq	r4, r0
    1930:	f8030551 			; <UNDEFINED> instruction: 0xf8030551
    1934:	34000097 	strcc	r0, [r0], #-151	; 0x97
    1938:	03055201 	movweq	r5, #20993	; 0x5201
    193c:	000097e0 	andeq	r9, r0, r0, ror #15
    1940:	03530134 	cmpeq	r3, #52, 2
    1944:	0001370a 	andeq	r3, r1, sl, lsl #14
    1948:	0086e832 	addeq	lr, r6, r2, lsr r8
    194c:	001b4c00 	andseq	r4, fp, r0, lsl #24
    1950:	60330000 	eorsvs	r0, r3, r0
    1954:	73000086 	movwvc	r0, #134	; 0x86
    1958:	f4000016 	vst4.8	{d0-d3}, [r0 :64], r6
    195c:	34000013 	strcc	r0, [r0], #-19
    1960:	f3035001 	vhadd.u8	d5, d3, d1
    1964:	01345001 	teqeq	r4, r1
    1968:	00740251 	rsbseq	r0, r4, r1, asr r2
    196c:	01520134 	cmpeq	r2, r4, lsr r1
    1970:	ec320031 	ldc	0, cr0, [r2], #-196	; 0xffffff3c
    1974:	3c000086 	stccc	0, cr0, [r0], {134}	; 0x86
    1978:	00000015 	andeq	r0, r0, r5, lsl r0
    197c:	0054040e 	subseq	r0, r4, lr, lsl #8
    1980:	5d360000 	ldcpl	0, cr0, [r6, #-0]
    1984:	01000000 	mrseq	r0, (UNDEF: 0)
    1988:	00250121 	eoreq	r0, r5, r1, lsr #2
    198c:	85840000 	strhi	r0, [r4]
    1990:	00c40000 	sbceq	r0, r4, r0
    1994:	9c010000 	stcls	0, cr0, [r1], {-0}
    1998:	00001527 	andeq	r1, r0, r7, lsr #10
    199c:	0001cb37 	andeq	ip, r1, r7, lsr fp
    19a0:	01210100 	teqeq	r1, r0, lsl #2
    19a4:	0000002c 	andeq	r0, r0, ip, lsr #32
    19a8:	0000020f 	andeq	r0, r0, pc, lsl #4
    19ac:	0001f037 	andeq	pc, r1, r7, lsr r0	; <UNPREDICTABLE>
    19b0:	01210100 	teqeq	r1, r0, lsl #2
    19b4:	000013fe 	strdeq	r1, [r0], -lr
    19b8:	00000230 	andeq	r0, r0, r0, lsr r2
    19bc:	0005dc37 	andeq	sp, r5, r7, lsr ip
    19c0:	01210100 	teqeq	r1, r0, lsl #2
    19c4:	0000002c 	andeq	r0, r0, ip, lsr #32
    19c8:	0000024e 	andeq	r0, r0, lr, asr #4
    19cc:	00008728 	andeq	r8, r0, r8, lsr #14
    19d0:	00153700 	andseq	r3, r5, r0, lsl #14
    19d4:	d4030500 	strle	r0, [r3], #-1280	; 0x500
    19d8:	38000097 	stmdacc	r0, {r0, r1, r2, r4, r7}
    19dc:	0000859c 	muleq	r0, ip, r5
    19e0:	00000088 	andeq	r0, r0, r8, lsl #1
    19e4:	000014fd 	strdeq	r1, [r0], -sp
    19e8:	01006939 	tsteq	r0, r9, lsr r9
    19ec:	002c0124 	eoreq	r0, ip, r4, lsr #2
    19f0:	026c0000 	rsbeq	r0, ip, #0
    19f4:	a8320000 	ldmdage	r2!, {}	; <UNPREDICTABLE>
    19f8:	36000085 	strcc	r0, [r0], -r5, lsl #1
    19fc:	3300001b 	movwcc	r0, #27
    1a00:	000085bc 			; <UNDEFINED> instruction: 0x000085bc
    1a04:	00001b41 	andeq	r1, r0, r1, asr #22
    1a08:	000014b1 			; <UNDEFINED> instruction: 0x000014b1
    1a0c:	05500134 	ldrbeq	r0, [r0, #-308]	; 0x134
    1a10:	0098f003 	addseq	pc, r8, r3
    1a14:	51013400 	tstpl	r1, r0, lsl #8
    1a18:	97f80305 	ldrbls	r0, [r8, r5, lsl #6]!
    1a1c:	01340000 	teqeq	r4, r0
    1a20:	d4030552 	strle	r0, [r3], #-1362	; 0x552
    1a24:	34000097 	strcc	r0, [r0], #-151	; 0x97
    1a28:	0a035301 	beq	d6634 <__bss_end__+0xcc71c>
    1a2c:	32000126 	andcc	r0, r0, #-2147483639	; 0x80000009
    1a30:	000085c0 	andeq	r8, r0, r0, asr #11
    1a34:	00001b4c 	andeq	r1, r0, ip, asr #22
    1a38:	00860c32 	addeq	r0, r6, r2, lsr ip
    1a3c:	001b3600 	andseq	r3, fp, r0, lsl #12
    1a40:	86203300 	strthi	r3, [r0], -r0, lsl #6
    1a44:	1b410000 	blne	1041a4c <__bss_end__+0x1037b34>
    1a48:	14f30000 	ldrbtne	r0, [r3], #0
    1a4c:	01340000 	teqeq	r4, r0
    1a50:	14030550 	strne	r0, [r3], #-1360	; 0x550
    1a54:	34000099 	strcc	r0, [r0], #-153	; 0x99
    1a58:	03055101 	movweq	r5, #20737	; 0x5101
    1a5c:	000097f8 	strdeq	r9, [r0], -r8
    1a60:	05520134 	ldrbeq	r0, [r2, #-308]	; 0x134
    1a64:	0097d403 	addseq	sp, r7, r3, lsl #8
    1a68:	53013400 	movwpl	r3, #5120	; 0x1400
    1a6c:	01260a03 	teqeq	r6, r3, lsl #20
    1a70:	86243200 	strthi	r3, [r4], -r0, lsl #4
    1a74:	1b4c0000 	blne	1301a7c <__bss_end__+0x12f7b64>
    1a78:	33000000 	movwcc	r0, #0
    1a7c:	0000859c 	muleq	r0, ip, r5
    1a80:	00001673 	andeq	r1, r0, r3, ror r6
    1a84:	0000151d 	andeq	r1, r0, sp, lsl r5
    1a88:	03500134 	cmpeq	r0, #52, 2
    1a8c:	345001f3 	ldrbcc	r0, [r0], #-499	; 0x1f3
    1a90:	74025101 	strvc	r5, [r2], #-257	; 0x101
    1a94:	52013400 	andpl	r3, r1, #0, 8
    1a98:	32003001 	andcc	r3, r0, #1
    1a9c:	00008628 	andeq	r8, r0, r8, lsr #12
    1aa0:	0000153c 	andeq	r1, r0, ip, lsr r5
    1aa4:	012f0900 	teqeq	pc, r0, lsl #18
    1aa8:	15370000 	ldrne	r0, [r7, #-0]!
    1aac:	e20a0000 	and	r0, sl, #0
    1ab0:	09000000 	stmdbeq	r0, {}	; <UNPREDICTABLE>
    1ab4:	15270400 	strne	r0, [r7, #-1024]!	; 0x400
    1ab8:	86270000 	strthi	r0, [r7], -r0
    1abc:	01000007 	tsteq	r0, r7
    1ac0:	827c0114 	rsbshi	r0, ip, #20, 2
    1ac4:	00f40000 	rscseq	r0, r4, r0
    1ac8:	9c010000 	stcls	0, cr0, [r1], {-0}
    1acc:	00001673 	andeq	r1, r0, r3, ror r6
    1ad0:	00008728 	andeq	r8, r0, r8, lsr #14
    1ad4:	00129700 	andseq	r9, r2, r0, lsl #14
    1ad8:	bc030500 	cfstr32lt	mvfx0, [r3], {-0}
    1adc:	32000097 	andcc	r0, r0, #151	; 0x97
    1ae0:	000082b4 			; <UNDEFINED> instruction: 0x000082b4
    1ae4:	00001b36 	andeq	r1, r0, r6, lsr fp
    1ae8:	0082c833 	addeq	ip, r2, r3, lsr r8
    1aec:	001b4100 	andseq	r4, fp, r0, lsl #2
    1af0:	00159a00 	andseq	r9, r5, r0, lsl #20
    1af4:	50013400 	andpl	r3, r1, r0, lsl #8
    1af8:	99140305 	ldmdbls	r4, {r0, r2, r8, r9}
    1afc:	01340000 	teqeq	r4, r0
    1b00:	f8030551 			; <UNDEFINED> instruction: 0xf8030551
    1b04:	34000097 	strcc	r0, [r0], #-151	; 0x97
    1b08:	03055201 	movweq	r5, #20993	; 0x5201
    1b0c:	000097bc 			; <UNDEFINED> instruction: 0x000097bc
    1b10:	03530134 	cmpeq	r3, #52, 2
    1b14:	0001160a 	andeq	r1, r1, sl, lsl #12
    1b18:	0082cc32 	addeq	ip, r2, r2, lsr ip
    1b1c:	001b4c00 	andseq	r4, fp, r0, lsl #24
    1b20:	82d03200 	sbcshi	r3, r0, #0, 4
    1b24:	1b360000 	blne	d81b2c <__bss_end__+0xd77c14>
    1b28:	e4330000 	ldrt	r0, [r3], #-0
    1b2c:	41000082 	smlabbmi	r0, r2, r0, r0
    1b30:	dc00001b 	stcle	0, cr0, [r0], {27}
    1b34:	34000015 	strcc	r0, [r0], #-21
    1b38:	03055001 	movweq	r5, #20481	; 0x5001
    1b3c:	000098f0 	strdeq	r9, [r0], -r0
    1b40:	05510134 	ldrbeq	r0, [r1, #-308]	; 0x134
    1b44:	0097f803 	addseq	pc, r7, r3, lsl #16
    1b48:	52013400 	andpl	r3, r1, #0, 8
    1b4c:	97bc0305 	ldrls	r0, [ip, r5, lsl #6]!
    1b50:	01340000 	teqeq	r4, r0
    1b54:	160a0353 			; <UNDEFINED> instruction: 0x160a0353
    1b58:	e8320001 	ldmda	r2!, {r0}
    1b5c:	4c000082 	stcmi	0, cr0, [r0], {130}	; 0x82
    1b60:	3200001b 	andcc	r0, r0, #27
    1b64:	0000830c 	andeq	r8, r0, ip, lsl #6
    1b68:	00001b15 	andeq	r1, r0, r5, lsl fp
    1b6c:	00831432 	addeq	r1, r3, r2, lsr r4
    1b70:	001b3600 	andseq	r3, fp, r0, lsl #12
    1b74:	83283300 	teqhi	r8, #0, 6
    1b78:	1b410000 	blne	1041b80 <__bss_end__+0x1037c68>
    1b7c:	16270000 	strtne	r0, [r7], -r0
    1b80:	01340000 	teqeq	r4, r0
    1b84:	44030550 	strmi	r0, [r3], #-1360	; 0x550
    1b88:	34000099 	strcc	r0, [r0], #-153	; 0x99
    1b8c:	03055101 	movweq	r5, #20737	; 0x5101
    1b90:	000097f8 	strdeq	r9, [r0], -r8
    1b94:	05520134 	ldrbeq	r0, [r2, #-308]	; 0x134
    1b98:	0097bc03 	addseq	fp, r7, r3, lsl #24
    1b9c:	53013400 	movwpl	r3, #5120	; 0x1400
    1ba0:	01190a03 	tsteq	r9, r3, lsl #20
    1ba4:	832c3200 	teqhi	ip, #0, 4
    1ba8:	1b4c0000 	blne	1301bb0 <__bss_end__+0x12f7c98>
    1bac:	30320000 	eorscc	r0, r2, r0
    1bb0:	36000083 	strcc	r0, [r0], -r3, lsl #1
    1bb4:	3300001b 	movwcc	r0, #27
    1bb8:	00008344 	andeq	r8, r0, r4, asr #6
    1bbc:	00001b41 	andeq	r1, r0, r1, asr #22
    1bc0:	00001669 	andeq	r1, r0, r9, ror #12
    1bc4:	05500134 	ldrbeq	r0, [r0, #-308]	; 0x134
    1bc8:	00996803 	addseq	r6, r9, r3, lsl #16
    1bcc:	51013400 	tstpl	r1, r0, lsl #8
    1bd0:	97f80305 	ldrbls	r0, [r8, r5, lsl #6]!
    1bd4:	01340000 	teqeq	r4, r0
    1bd8:	bc030552 	cfstr32lt	mvfx0, [r3], {82}	; 0x52
    1bdc:	34000097 	strcc	r0, [r0], #-151	; 0x97
    1be0:	0a035301 	beq	d67ec <__bss_end__+0xcc8d4>
    1be4:	3200011b 	andcc	r0, r0, #-1073741818	; 0xc0000006
    1be8:	00008348 	andeq	r8, r0, r8, asr #6
    1bec:	00001b4c 	andeq	r1, r0, ip, asr #22
    1bf0:	07453a00 	strbeq	r3, [r5, -r0, lsl #20]
    1bf4:	f2010000 	vhadd.s8	d0, d1, d0
    1bf8:	000083b8 			; <UNDEFINED> instruction: 0x000083b8
    1bfc:	000001cc 	andeq	r0, r0, ip, asr #3
    1c00:	19449c01 	stmdbne	r4, {r0, sl, fp, ip, pc}^
    1c04:	cb3b0000 	blgt	ec1c0c <__bss_end__+0xeb7cf4>
    1c08:	01000001 	tsteq	r0, r1
    1c0c:	00002cf2 	strdeq	r2, [r0], -r2	; <UNPREDICTABLE>
    1c10:	0002a100 	andeq	sl, r2, r0, lsl #2
    1c14:	05dc3b00 	ldrbeq	r3, [ip, #2816]	; 0xb00
    1c18:	f2010000 	vhadd.s8	d0, d1, d0
    1c1c:	0000002c 	andeq	r0, r0, ip, lsr #32
    1c20:	000002bf 			; <UNDEFINED> instruction: 0x000002bf
    1c24:	0004d63b 	andeq	sp, r4, fp, lsr r6
    1c28:	25f20100 	ldrbcs	r0, [r2, #256]!	; 0x100
    1c2c:	04000000 	streq	r0, [r0], #-0
    1c30:	28000003 	stmdacs	r0, {r0, r1}
    1c34:	00000087 	andeq	r0, r0, r7, lsl #1
    1c38:	00001954 	andeq	r1, r0, r4, asr r9
    1c3c:	97c80305 	strbls	r0, [r8, r5, lsl #6]
    1c40:	63390000 	teqvs	r9, #0
    1c44:	01050100 	mrseq	r0, (UNDEF: 21)
    1c48:	000009c3 	andeq	r0, r0, r3, asr #19
    1c4c:	00000322 	andeq	r0, r0, r2, lsr #6
    1c50:	00170529 	andseq	r0, r7, r9, lsr #10
    1c54:	755f2a00 	ldrbvc	r2, [pc, #-2560]	; 125c <_start-0x6da4>
    1c58:	09010400 	stmdbeq	r1, {sl}
    1c5c:	0016fa01 	andseq	pc, r6, r1, lsl #20
    1c60:	76762b00 	ldrbtvc	r2, [r6], -r0, lsl #22
    1c64:	01090100 	mrseq	r0, (UNDEF: 25)
    1c68:	000009c3 	andeq	r0, r0, r3, asr #19
    1c6c:	0075752b 	rsbseq	r7, r5, fp, lsr #10
    1c70:	6d010901 	stcvs	9, cr0, [r1, #-4]
    1c74:	00000000 	andeq	r0, r0, r0
    1c78:	0100752c 	tsteq	r0, ip, lsr #10
    1c7c:	16d70109 	ldrbne	r0, [r7], r9, lsl #2
    1c80:	32000000 	andcc	r0, r0, #0
    1c84:	000083cc 	andeq	r8, r0, ip, asr #7
    1c88:	00001b15 	andeq	r1, r0, r5, lsl fp
    1c8c:	00840032 	addeq	r0, r4, r2, lsr r0
    1c90:	001b3600 	andseq	r3, fp, r0, lsl #12
    1c94:	84143300 	ldrhi	r3, [r4], #-768	; 0x300
    1c98:	1b410000 	blne	1041ca0 <__bss_end__+0x1037d88>
    1c9c:	17460000 	strbne	r0, [r6, -r0]
    1ca0:	01340000 	teqeq	r4, r0
    1ca4:	14030550 	strne	r0, [r3], #-1360	; 0x550
    1ca8:	34000099 	strcc	r0, [r0], #-153	; 0x99
    1cac:	03055101 	movweq	r5, #20737	; 0x5101
    1cb0:	000097f8 	strdeq	r9, [r0], -r8
    1cb4:	05520134 	ldrbeq	r0, [r2, #-308]	; 0x134
    1cb8:	0097c803 	addseq	ip, r7, r3, lsl #16
    1cbc:	53013400 	movwpl	r3, #5120	; 0x1400
    1cc0:	00f60802 	rscseq	r0, r6, r2, lsl #16
    1cc4:	00841832 	addeq	r1, r4, r2, lsr r8
    1cc8:	001b4c00 	andseq	r4, fp, r0, lsl #24
    1ccc:	841c3200 	ldrhi	r3, [ip], #-512	; 0x200
    1cd0:	1b360000 	blne	d81cd8 <__bss_end__+0xd77dc0>
    1cd4:	30330000 	eorscc	r0, r3, r0
    1cd8:	41000084 	smlabbmi	r0, r4, r0, r0
    1cdc:	8700001b 	smladhi	r0, fp, r0, r0
    1ce0:	34000017 	strcc	r0, [r0], #-23
    1ce4:	03055001 	movweq	r5, #20481	; 0x5001
    1ce8:	000098f0 	strdeq	r9, [r0], -r0
    1cec:	05510134 	ldrbeq	r0, [r1, #-308]	; 0x134
    1cf0:	0097f803 	addseq	pc, r7, r3, lsl #16
    1cf4:	52013400 	andpl	r3, r1, #0, 8
    1cf8:	97c80305 	strbls	r0, [r8, r5, lsl #6]
    1cfc:	01340000 	teqeq	r4, r0
    1d00:	f6080253 			; <UNDEFINED> instruction: 0xf6080253
    1d04:	84343200 	ldrthi	r3, [r4], #-512	; 0x200
    1d08:	1b4c0000 	blne	1301d10 <__bss_end__+0x12f7df8>
    1d0c:	48320000 	ldmdami	r2!, {}	; <UNPREDICTABLE>
    1d10:	59000084 	stmdbpl	r0, {r2, r7}
    1d14:	33000019 	movwcc	r0, #25
    1d18:	0000845c 	andeq	r8, r0, ip, asr r4
    1d1c:	00001b2b 	andeq	r1, r0, fp, lsr #22
    1d20:	000017b6 			; <UNDEFINED> instruction: 0x000017b6
    1d24:	05500134 	ldrbeq	r0, [r0, #-308]	; 0x134
    1d28:	80400c0c 	subhi	r0, r0, ip, lsl #24
    1d2c:	51013420 	tstpl	r1, r0, lsr #8
    1d30:	00007602 	andeq	r7, r0, r2, lsl #12
    1d34:	00847033 	addeq	r7, r4, r3, lsr r0
    1d38:	001b2b00 	andseq	r2, fp, r0, lsl #22
    1d3c:	0017d300 	andseq	sp, r7, r0, lsl #6
    1d40:	50013400 	andpl	r3, r1, r0, lsl #8
    1d44:	40080c05 	andmi	r0, r8, r5, lsl #24
    1d48:	01342080 	teqeq	r4, r0, lsl #1
    1d4c:	00750251 	rsbseq	r0, r5, r1, asr r2
    1d50:	847c3300 	ldrbthi	r3, [ip], #-768	; 0x300
    1d54:	1a720000 	bne	1c81d5c <__bss_end__+0x1c77e44>
    1d58:	17e70000 	strbne	r0, [r7, r0]!
    1d5c:	01340000 	teqeq	r4, r0
    1d60:	00750250 	rsbseq	r0, r5, r0, asr r2
    1d64:	84943300 	ldrhi	r3, [r4], #768	; 0x300
    1d68:	1b2b0000 	blne	ac1d70 <__bss_end__+0xab7e58>
    1d6c:	17fb0000 	ldrbne	r0, [fp, r0]!
    1d70:	01340000 	teqeq	r4, r0
    1d74:	00750250 	rsbseq	r0, r5, r0, asr r2
    1d78:	84c83200 	strbhi	r3, [r8], #512	; 0x200
    1d7c:	1b360000 	blne	d81d84 <__bss_end__+0xd77e6c>
    1d80:	dc330000 	ldcle	0, cr0, [r3], #-0
    1d84:	41000084 	smlabbmi	r0, r4, r0, r0
    1d88:	3400001b 	strcc	r0, [r0], #-27
    1d8c:	34000018 	strcc	r0, [r0], #-24
    1d90:	03055001 	movweq	r5, #20481	; 0x5001
    1d94:	00009914 	andeq	r9, r0, r4, lsl r9
    1d98:	05510134 	ldrbeq	r0, [r1, #-308]	; 0x134
    1d9c:	0097f803 	addseq	pc, r7, r3, lsl #16
    1da0:	52013400 	andpl	r3, r1, #0, 8
    1da4:	97c80305 	strbls	r0, [r8, r5, lsl #6]
    1da8:	01340000 	teqeq	r4, r0
    1dac:	110a0353 	tstne	sl, r3, asr r3
    1db0:	e0320001 	eors	r0, r2, r1
    1db4:	4c000084 	stcmi	0, cr0, [r0], {132}	; 0x84
    1db8:	3200001b 	andcc	r0, r0, #27
    1dbc:	000084e4 	andeq	r8, r0, r4, ror #9
    1dc0:	00001b36 	andeq	r1, r0, r6, lsr fp
    1dc4:	0084f833 	addeq	pc, r4, r3, lsr r8	; <UNPREDICTABLE>
    1dc8:	001b4100 	andseq	r4, fp, r0, lsl #2
    1dcc:	00187500 	andseq	r7, r8, r0, lsl #10
    1dd0:	50013400 	andpl	r3, r1, r0, lsl #8
    1dd4:	998c0305 	stmibls	ip, {r0, r2, r8, r9}
    1dd8:	01340000 	teqeq	r4, r0
    1ddc:	f8030551 			; <UNDEFINED> instruction: 0xf8030551
    1de0:	34000097 	strcc	r0, [r0], #-151	; 0x97
    1de4:	03055201 	movweq	r5, #20993	; 0x5201
    1de8:	000097c8 	andeq	r9, r0, r8, asr #15
    1dec:	02530134 	subseq	r0, r3, #52, 2
    1df0:	3200f908 	andcc	pc, r0, #8, 18	; 0x20000
    1df4:	000084fc 	strdeq	r8, [r0], -ip
    1df8:	00001b4c 	andeq	r1, r0, ip, asr #22
    1dfc:	00850032 	addeq	r0, r5, r2, lsr r0
    1e00:	001b3600 	andseq	r3, fp, r0, lsl #12
    1e04:	85143300 	ldrhi	r3, [r4, #-768]	; 0x300
    1e08:	1b410000 	blne	1041e10 <__bss_end__+0x1037ef8>
    1e0c:	18b60000 	ldmne	r6!, {}	; <UNPREDICTABLE>
    1e10:	01340000 	teqeq	r4, r0
    1e14:	b4030550 	strlt	r0, [r3], #-1360	; 0x550
    1e18:	34000099 	strcc	r0, [r0], #-153	; 0x99
    1e1c:	03055101 	movweq	r5, #20737	; 0x5101
    1e20:	000097f8 	strdeq	r9, [r0], -r8
    1e24:	05520134 	ldrbeq	r0, [r2, #-308]	; 0x134
    1e28:	0097c803 	addseq	ip, r7, r3, lsl #16
    1e2c:	53013400 	movwpl	r3, #5120	; 0x1400
    1e30:	00fe0802 	rscseq	r0, lr, r2, lsl #16
    1e34:	00851832 	addeq	r1, r5, r2, lsr r8
    1e38:	001b4c00 	andseq	r4, fp, r0, lsl #24
    1e3c:	851c3200 	ldrhi	r3, [ip, #-512]	; 0x200
    1e40:	1b360000 	blne	d81e48 <__bss_end__+0xd77f30>
    1e44:	30330000 	eorscc	r0, r3, r0
    1e48:	41000085 	smlabbmi	r0, r5, r0, r0
    1e4c:	f800001b 			; <UNDEFINED> instruction: 0xf800001b
    1e50:	34000018 	strcc	r0, [r0], #-24
    1e54:	03055001 	movweq	r5, #20481	; 0x5001
    1e58:	000099d8 	ldrdeq	r9, [r0], -r8
    1e5c:	05510134 	ldrbeq	r0, [r1, #-308]	; 0x134
    1e60:	0097f803 	addseq	pc, r7, r3, lsl #16
    1e64:	52013400 	andpl	r3, r1, #0, 8
    1e68:	97c80305 	strbls	r0, [r8, r5, lsl #6]
    1e6c:	01340000 	teqeq	r4, r0
    1e70:	020a0353 	andeq	r0, sl, #1275068417	; 0x4c000001
    1e74:	34320001 	ldrtcc	r0, [r2], #-1
    1e78:	4c000085 	stcmi	0, cr0, [r0], {133}	; 0x85
    1e7c:	3200001b 	andcc	r0, r0, #27
    1e80:	00008538 	andeq	r8, r0, r8, lsr r5
    1e84:	00001b36 	andeq	r1, r0, r6, lsr fp
    1e88:	00854c33 	addeq	r4, r5, r3, lsr ip
    1e8c:	001b4100 	andseq	r4, fp, r0, lsl #2
    1e90:	00193a00 	andseq	r3, r9, r0, lsl #20
    1e94:	50013400 	andpl	r3, r1, r0, lsl #8
    1e98:	98f00305 	ldmls	r0!, {r0, r2, r8, r9}^
    1e9c:	01340000 	teqeq	r4, r0
    1ea0:	f8030551 			; <UNDEFINED> instruction: 0xf8030551
    1ea4:	34000097 	strcc	r0, [r0], #-151	; 0x97
    1ea8:	03055201 	movweq	r5, #20993	; 0x5201
    1eac:	000097c8 	andeq	r9, r0, r8, asr #15
    1eb0:	03530134 	cmpeq	r3, #52, 2
    1eb4:	0001110a 	andeq	r1, r1, sl, lsl #2
    1eb8:	00855032 	addeq	r5, r5, r2, lsr r0
    1ebc:	001b4c00 	andseq	r4, fp, r0, lsl #24
    1ec0:	2f090000 	svccs	0x00090000
    1ec4:	54000001 	strpl	r0, [r0], #-1
    1ec8:	0a000019 	beq	1f34 <_start-0x60cc>
    1ecc:	000000e2 	andeq	r0, r0, r2, ror #1
    1ed0:	4404000a 	strmi	r0, [r4], #-10
    1ed4:	3a000019 	bcc	1f40 <_start-0x60c0>
    1ed8:	0000050d 	andeq	r0, r0, sp, lsl #10
    1edc:	8380e701 	orrhi	lr, r0, #262144	; 0x40000
    1ee0:	00280000 	eoreq	r0, r8, r0
    1ee4:	9c010000 	stcls	0, cr0, [r1], {-0}
    1ee8:	000019cf 	andeq	r1, r0, pc, asr #19
    1eec:	0100733c 	tsteq	r0, ip, lsr r3
    1ef0:	000a80e8 	andeq	r8, sl, r8, ror #1
    1ef4:	00033500 	andeq	r3, r3, r0, lsl #10
    1ef8:	19aa2900 	stmibne	sl!, {r8, fp, sp}
    1efc:	5f3d0000 	svcpl	0x003d0000
    1f00:	01040075 	tsteq	r4, r5, ror r0
    1f04:	0019a0ef 	andseq	sl, r9, pc, ror #1
    1f08:	76763e00 	ldrbtvc	r3, [r6], -r0, lsl #28
    1f0c:	80ef0100 	rschi	r0, pc, r0, lsl #2
    1f10:	3e00000a 	cdpcc	0, 0, cr0, cr0, cr10, {0}
    1f14:	01007575 	tsteq	r0, r5, ror r5
    1f18:	00006def 	andeq	r6, r0, pc, ror #27
    1f1c:	75250000 	strvc	r0, [r5, #-0]!
    1f20:	80ef0100 	rschi	r0, pc, r0, lsl #2
    1f24:	00000019 	andeq	r0, r0, r9, lsl r0
    1f28:	00839033 	addeq	r9, r3, r3, lsr r0
    1f2c:	0019cf00 	andseq	ip, r9, r0, lsl #30
    1f30:	0019be00 	andseq	fp, r9, r0, lsl #28
    1f34:	50013400 	andpl	r3, r1, r0, lsl #8
    1f38:	00007402 	andeq	r7, r0, r2, lsl #8
    1f3c:	0083a03f 	addeq	sl, r3, pc, lsr r0
    1f40:	001b2b00 	andseq	r2, fp, r0, lsl #22
    1f44:	50013400 	andpl	r3, r1, r0, lsl #8
    1f48:	00007402 	andeq	r7, r0, r2, lsl #8
    1f4c:	047a4000 	ldrbteq	r4, [sl], #-0
    1f50:	b8010000 	stmdalt	r1, {}	; <UNPREDICTABLE>
    1f54:	00000a80 	andeq	r0, r0, r0, lsl #21
    1f58:	00008370 	andeq	r8, r0, r0, ror r3
    1f5c:	00000010 	andeq	r0, r0, r0, lsl r0
    1f60:	1a459c01 	bne	1168f6c <__bss_end__+0x115f054>
    1f64:	73410000 	movtvc	r0, #4096	; 0x1000
    1f68:	45b80100 	ldrmi	r0, [r8, #256]!	; 0x100
    1f6c:	4800001a 	stmdami	r0, {r1, r3, r4}
    1f70:	38000003 	stmdacc	r0, {r0, r1}
    1f74:	00008374 	andeq	r8, r0, r4, ror r3
    1f78:	00000004 	andeq	r0, r0, r4
    1f7c:	00001a3b 	andeq	r1, r0, fp, lsr sl
    1f80:	00755f3d 	rsbseq	r5, r5, sp, lsr pc
    1f84:	20b90104 	adcscs	r0, r9, r4, lsl #2
    1f88:	3e00001a 	mcrcc	0, 0, r0, cr0, cr10, {0}
    1f8c:	b9010076 	stmdblt	r1, {r1, r2, r4, r5, r6}
    1f90:	00000a8b 	andeq	r0, r0, fp, lsl #21
    1f94:	0100753e 	tsteq	r0, lr, lsr r5
    1f98:	00002cb9 			; <UNDEFINED> instruction: 0x00002cb9
    1f9c:	75250000 	strvc	r0, [r5, #-0]!
    1fa0:	02b90100 	adcseq	r0, r9, #0, 2
    1fa4:	3f00001a 	svccc	0x0000001a
    1fa8:	00008378 	andeq	r8, r0, r8, ror r3
    1fac:	00001b57 	andeq	r1, r0, r7, asr fp
    1fb0:	03500134 	cmpeq	r0, #52, 2
    1fb4:	005001f3 	ldrsheq	r0, [r0], #-19	; 0xffffffed
    1fb8:	837c3200 	cmnhi	ip, #0, 4
    1fbc:	1a4b0000 	bne	12c1fc4 <__bss_end__+0x12b80ac>
    1fc0:	0e000000 	cdpeq	0, 0, cr0, cr0, cr0, {0}
    1fc4:	000a8b04 	andeq	r8, sl, r4, lsl #22
    1fc8:	08124000 	ldmdaeq	r2, {lr}
    1fcc:	b4010000 	strlt	r0, [r1], #-0
    1fd0:	00000a80 	andeq	r0, r0, r0, lsl #21
    1fd4:	00008268 	andeq	r8, r0, r8, ror #4
    1fd8:	0000000c 	andeq	r0, r0, ip
    1fdc:	1a729c01 	bne	1ca8fe8 <__bss_end__+0x1c9f0d0>
    1fe0:	73410000 	movtvc	r0, #4096	; 0x1000
    1fe4:	80b40100 	adcshi	r0, r4, r0, lsl #2
    1fe8:	6900000a 	stmdbvs	r0, {r1, r3}
    1fec:	00000003 	andeq	r0, r0, r3
    1ff0:	00043040 	andeq	r3, r4, r0, asr #32
    1ff4:	c37e0100 	cmngt	lr, #0, 2
    1ff8:	a8000009 	stmdage	r0, {r0, r3}
    1ffc:	10000083 	andne	r0, r0, r3, lsl #1
    2000:	01000000 	mrseq	r0, (UNDEF: 0)
    2004:	001ae89c 	mulseq	sl, ip, r8
    2008:	00634100 	rsbeq	r4, r3, r0, lsl #2
    200c:	1ae87e01 	bne	ffa21818 <__bss_end__+0xffa17900>
    2010:	037c0000 	cmneq	ip, #0
    2014:	ac380000 	ldcge	0, cr0, [r8], #-0
    2018:	04000083 	streq	r0, [r0], #-131	; 0x83
    201c:	de000000 	cdple	0, 0, cr0, cr0, cr0, {0}
    2020:	3d00001a 	stccc	0, cr0, [r0, #-104]	; 0xffffff98
    2024:	0400755f 	streq	r7, [r0], #-1375	; 0x55f
    2028:	1ac37f01 	bne	ff0e1c34 <__bss_end__+0xff0d7d1c>
    202c:	763e0000 	ldrtvc	r0, [lr], -r0
    2030:	ce7f0100 	rpwgte	f0, f7, f0
    2034:	3e000009 	cdpcc	0, 0, cr0, cr0, cr9, {0}
    2038:	7f010075 	svcvc	0x00010075
    203c:	0000002c 	andeq	r0, r0, ip, lsr #32
    2040:	00752500 	rsbseq	r2, r5, r0, lsl #10
    2044:	1aa57f01 	bne	fe961c50 <__bss_end__+0xfe957d38>
    2048:	b03f0000 	eorslt	r0, pc, r0
    204c:	57000083 	strpl	r0, [r0, -r3, lsl #1]
    2050:	3400001b 	strcc	r0, [r0], #-27
    2054:	f3035001 	vhadd.u8	d5, d3, d1
    2058:	00005001 	andeq	r5, r0, r1
    205c:	0083b432 	addeq	fp, r3, r2, lsr r4
    2060:	001aee00 	andseq	lr, sl, r0, lsl #28
    2064:	040e0000 	streq	r0, [lr], #-0
    2068:	000009ce 	andeq	r0, r0, lr, asr #19
    206c:	00079f40 	andeq	r9, r7, r0, asr #30
    2070:	c3770100 	cmngt	r7, #0, 2
    2074:	54000009 	strpl	r0, [r0], #-9
    2078:	14000082 	strne	r0, [r0], #-130	; 0x82
    207c:	01000000 	mrseq	r0, (UNDEF: 0)
    2080:	001b159c 	mulseq	fp, ip, r5
    2084:	00634100 	rsbeq	r4, r3, r0, lsl #2
    2088:	09c37701 	stmibeq	r3, {r0, r8, r9, sl, ip, sp, lr}^
    208c:	039d0000 	orrseq	r0, sp, #0
    2090:	42000000 	andmi	r0, r0, #0
    2094:	000003cc 	andeq	r0, r0, ip, asr #7
    2098:	000003cc 	andeq	r0, r0, ip, asr #7
    209c:	7f428907 	svcvc	0x00428907
    20a0:	7f000003 	svcvc	0x00000003
    20a4:	08000003 	stmdaeq	r0, {r0, r1}
    20a8:	06d54219 			; <UNDEFINED> instruction: 0x06d54219
    20ac:	06d50000 	ldrbeq	r0, [r5], r0
    20b0:	9c070000 	stcls	0, cr0, [r7], {-0}
    20b4:	0001dc42 	andeq	sp, r1, r2, asr #24
    20b8:	0001dc00 	andeq	sp, r1, r0, lsl #24
    20bc:	421e0700 	andsmi	r0, lr, #0, 14
    20c0:	000008be 			; <UNDEFINED> instruction: 0x000008be
    20c4:	000008be 			; <UNDEFINED> instruction: 0x000008be
    20c8:	29422907 	stmdbcs	r2, {r0, r1, r2, r8, fp, sp}^
    20cc:	29000000 	stmdbcs	r0, {}	; <UNPREDICTABLE>
    20d0:	07000000 	streq	r0, [r0, -r0]
    20d4:	07804265 	streq	r4, [r0, r5, ror #4]
    20d8:	07800000 	streq	r0, [r0, r0]
    20dc:	a8070000 	stmdage	r7, {}	; <UNPREDICTABLE>
    20e0:	00019100 	andeq	r9, r1, r0, lsl #2
    20e4:	47000400 	strmi	r0, [r0, -r0, lsl #8]
    20e8:	04000005 	streq	r0, [r0], #-5
    20ec:	00086401 	andeq	r6, r8, r1, lsl #8
    20f0:	08560100 	ldmdaeq	r6, {r8}^
    20f4:	08cf0000 	stmiaeq	pc, {}^	; <UNPREDICTABLE>
    20f8:	87c80000 	strbhi	r0, [r8, r0]
    20fc:	00580000 	subseq	r0, r8, r0
    2100:	039a0000 	orrseq	r0, sl, #0
    2104:	47020000 	strmi	r0, [r2, -r0]
    2108:	02000008 	andeq	r0, r0, #8
    210c:	00003028 	andeq	r3, r0, r8, lsr #32
    2110:	08c50300 	stmiaeq	r5, {r8, r9}^
    2114:	03040000 	movweq	r0, #16384	; 0x4000
    2118:	00004700 	andeq	r4, r0, r0, lsl #14
    211c:	09130400 	ldmdbeq	r3, {sl}
    2120:	00470000 	subeq	r0, r7, r0
    2124:	00000000 	andeq	r0, r0, r0
    2128:	c7020405 	strgt	r0, [r2, -r5, lsl #8]
    212c:	02000008 	andeq	r0, r0, #8
    2130:	00002562 	andeq	r2, r0, r2, ror #10
    2134:	05040600 	streq	r0, [r4, #-1536]	; 0x600
    2138:	00746e69 	rsbseq	r6, r4, r9, ror #28
    213c:	bc070407 	cfstrslt	mvf0, [r7], {7}
    2140:	07000000 	streq	r0, [r0, -r0]
    2144:	00140601 	andseq	r0, r4, r1, lsl #12
    2148:	02070000 	andeq	r0, r7, #0
    214c:	00007305 	andeq	r7, r0, r5, lsl #6
    2150:	05040700 	streq	r0, [r4, #-1792]	; 0x700
    2154:	00000155 	andeq	r0, r0, r5, asr r1
    2158:	50050807 	andpl	r0, r5, r7, lsl #16
    215c:	07000001 	streq	r0, [r0, -r1]
    2160:	00120801 	andseq	r0, r2, r1, lsl #16
    2164:	02070000 	andeq	r0, r7, #0
    2168:	00004107 	andeq	r4, r0, r7, lsl #2
    216c:	07040700 	streq	r0, [r4, -r0, lsl #14]
    2170:	000000b7 	strheq	r0, [r0], -r7
    2174:	b2070807 	andlt	r0, r7, #458752	; 0x70000
    2178:	07000000 	streq	r0, [r0, -r0]
    217c:	01470704 	cmpeq	r7, r4, lsl #14
    2180:	04080000 	streq	r0, [r8], #-0
    2184:	000000a7 	andeq	r0, r0, r7, lsr #1
    2188:	1b080107 	blne	2025ac <__bss_end__+0x1f8694>
    218c:	08000000 	stmdaeq	r0, {}	; <UNPREDICTABLE>
    2190:	0000b404 	andeq	fp, r0, r4, lsl #8
    2194:	00a70900 	adceq	r0, r7, r0, lsl #18
    2198:	be0a0000 	cdplt	0, 0, cr0, cr10, cr0, {0}
    219c:	01000008 	tsteq	r0, r8
    21a0:	00005406 	andeq	r5, r0, r6, lsl #8
    21a4:	0087c800 	addeq	ip, r7, r0, lsl #16
    21a8:	00005800 	andeq	r5, r0, r0, lsl #16
    21ac:	439c0100 	orrsmi	r0, ip, #0, 2
    21b0:	0b000001 	bleq	21bc <_start-0x5e44>
    21b4:	00746d66 	rsbseq	r6, r4, r6, ror #26
    21b8:	00ae0601 	adceq	r0, lr, r1, lsl #12
    21bc:	91020000 	mrsls	r0, (UNDEF: 2)
    21c0:	620d0c70 	andvs	r0, sp, #112, 24	; 0x7000
    21c4:	01006675 	tsteq	r0, r5, ror r6
    21c8:	00014308 	andeq	r4, r1, r8, lsl #6
    21cc:	14030500 	strne	r0, [r3], #-1280	; 0x500
    21d0:	0e00009b 	mcreq	0, 0, r0, cr0, cr11, {4}
    21d4:	0000035c 	andeq	r0, r0, ip, asr r3
    21d8:	00490901 	subeq	r0, r9, r1, lsl #18
    21dc:	91020000 	mrsls	r0, (UNDEF: 2)
    21e0:	7a730f5c 	bvc	1cc5f58 <__bss_end__+0x1cbc040>
    21e4:	540c0100 	strpl	r0, [ip], #-256	; 0x100
    21e8:	bb000000 	bllt	21f0 <_start-0x5e10>
    21ec:	10000003 	andne	r0, r0, r3
    21f0:	000087f0 	strdeq	r8, [r0], -r0
    21f4:	00000174 	andeq	r0, r0, r4, ror r1
    21f8:	00000136 	andeq	r0, r0, r6, lsr r1
    21fc:	02530111 	subseq	r0, r3, #1073741828	; 0x40000004
    2200:	01114c91 			; <UNDEFINED> instruction: 0x01114c91
    2204:	48910352 	ldmmi	r1, {r1, r4, r6, r8, r9}
    2208:	51011106 	tstpl	r1, r6, lsl #2
    220c:	04000a03 	streq	r0, [r0], #-2563	; 0xa03
    2210:	02500111 	subseq	r0, r0, #1073741828	; 0x40000004
    2214:	12000074 	andne	r0, r0, #116	; 0x74
    2218:	00008804 	andeq	r8, r0, r4, lsl #16
    221c:	02500111 	subseq	r0, r0, #1073741828	; 0x40000004
    2220:	00000074 	andeq	r0, r0, r4, ror r0
    2224:	0000a713 	andeq	sl, r0, r3, lsl r7
    2228:	00015400 	andeq	r5, r1, r0, lsl #8
    222c:	009a1400 	addseq	r1, sl, r0, lsl #8
    2230:	03ff0000 	mvnseq	r0, #0
    2234:	00541500 	subseq	r1, r4, r0, lsl #10
    2238:	01630000 	cmneq	r3, r0
    223c:	ae160000 	cdpge	0, 1, cr0, cr6, cr0, {0}
    2240:	00000000 	andeq	r0, r0, r0
    2244:	00096417 	andeq	r6, r9, r7, lsl r4
    2248:	6e220400 	cdpvs	4, 2, cr0, cr2, cr0, {0}
    224c:	08000001 	stmdaeq	r0, {r0}
    2250:	00015404 	andeq	r5, r1, r4, lsl #8
    2254:	08bb1800 	ldmeq	fp!, {fp, ip}
    2258:	02050000 	andeq	r0, r5, #0
    225c:	00000054 	andeq	r0, r0, r4, asr r0
    2260:	0000a116 	andeq	sl, r0, r6, lsl r1
    2264:	00541600 	subseq	r1, r4, r0, lsl #12
    2268:	ae160000 	cdpge	0, 1, cr0, cr6, cr0, {0}
    226c:	16000000 	strne	r0, [r0], -r0
    2270:	00000049 	andeq	r0, r0, r9, asr #32
    2274:	01130000 	tsteq	r3, r0
    2278:	00040000 	andeq	r0, r4, r0
    227c:	00000678 	andeq	r0, r0, r8, ror r6
    2280:	08640104 	stmdaeq	r4!, {r2, r8}^
    2284:	33010000 	movwcc	r0, #4096	; 0x1000
    2288:	cf000009 	svcgt	0x00000009
    228c:	20000008 	andcs	r0, r0, r8
    2290:	3c000088 	stccc	0, cr0, [r0], {136}	; 0x88
    2294:	a0000000 	andge	r0, r0, r0
    2298:	02000004 	andeq	r0, r0, #4
    229c:	6e690504 	cdpvs	5, 6, cr0, cr9, cr4, {0}
    22a0:	04030074 	streq	r0, [r3], #-116	; 0x74
    22a4:	0000bc07 	andeq	fp, r0, r7, lsl #24
    22a8:	06010300 	streq	r0, [r1], -r0, lsl #6
    22ac:	00000014 	andeq	r0, r0, r4, lsl r0
    22b0:	73050203 	movwvc	r0, #20995	; 0x5203
    22b4:	03000000 	movweq	r0, #0
    22b8:	01550504 	cmpeq	r5, r4, lsl #10
    22bc:	08030000 	stmdaeq	r3, {}	; <UNPREDICTABLE>
    22c0:	00015005 	andeq	r5, r1, r5
    22c4:	08010300 	stmdaeq	r1, {r8, r9}
    22c8:	00000012 	andeq	r0, r0, r2, lsl r0
    22cc:	41070203 	tstmi	r7, r3, lsl #4
    22d0:	03000000 	movweq	r0, #0
    22d4:	00b70704 	adcseq	r0, r7, r4, lsl #14
    22d8:	08030000 	stmdaeq	r3, {}	; <UNPREDICTABLE>
    22dc:	0000b207 	andeq	fp, r0, r7, lsl #4
    22e0:	07040300 	streq	r0, [r4, -r0, lsl #6]
    22e4:	00000147 	andeq	r0, r0, r7, asr #2
    22e8:	1b080103 	blne	2026fc <__bss_end__+0x1f87e4>
    22ec:	04000000 	streq	r0, [r0], #-0
    22f0:	00000922 	andeq	r0, r0, r2, lsr #18
    22f4:	00250301 	eoreq	r0, r5, r1, lsl #6
    22f8:	88200000 	stmdahi	r0!, {}	; <UNPREDICTABLE>
    22fc:	00140000 	andseq	r0, r4, r0
    2300:	9c010000 	stcls	0, cr0, [r1], {-0}
    2304:	000000b0 	strheq	r0, [r0], -r0	; <UNPREDICTABLE>
    2308:	01006305 	tsteq	r0, r5, lsl #6
    230c:	00002503 	andeq	r2, r0, r3, lsl #10
    2310:	0003e400 	andeq	lr, r3, r0, lsl #8
    2314:	882c0600 	stmdahi	ip!, {r9, sl}
    2318:	01090000 	mrseq	r0, (UNDEF: 9)
    231c:	01070000 	mrseq	r0, (UNDEF: 7)
    2320:	00740250 	rsbseq	r0, r4, r0, asr r2
    2324:	dc080000 	stcle	0, cr0, [r8], {-0}
    2328:	01000001 	tsteq	r0, r1
    232c:	00883408 	addeq	r3, r8, r8, lsl #8
    2330:	00001800 	andeq	r1, r0, r0, lsl #16
    2334:	099c0100 	ldmibeq	ip, {r8}
    2338:	00000942 	andeq	r0, r0, r2, asr #18
    233c:	884c0b01 	stmdahi	ip, {r0, r8, r9, fp}^
    2340:	00100000 	andseq	r0, r0, r0
    2344:	9c010000 	stcls	0, cr0, [r1], {-0}
    2348:	000000e3 	andeq	r0, r0, r3, ror #1
    234c:	0070660a 	rsbseq	r6, r0, sl, lsl #12
    2350:	00f20b01 	rscseq	r0, r2, r1, lsl #22
    2354:	50010000 	andpl	r0, r1, r0
    2358:	00250b00 	eoreq	r0, r5, r0, lsl #22
    235c:	00f20000 	rscseq	r0, r2, r0
    2360:	250c0000 	strcs	r0, [ip, #-0]
    2364:	00000000 	andeq	r0, r0, r0
    2368:	00e3040d 	rsceq	r0, r3, sp, lsl #8
    236c:	690e0000 	stmdbvs	lr, {}	; <UNPREDICTABLE>
    2370:	01000004 	tsteq	r0, r4
    2374:	0000f206 	andeq	pc, r0, r6, lsl #4
    2378:	38030500 	stmdacc	r3, {r8, sl}
    237c:	0f000096 	svceq	0x00000096
    2380:	00000918 	andeq	r0, r0, r8, lsl r9
    2384:	2c0c3c02 	stccs	12, cr3, [ip], {2}
    2388:	00000000 	andeq	r0, r0, r0
    238c:	0000ee00 	andeq	lr, r0, r0, lsl #28
    2390:	60000400 	andvs	r0, r0, r0, lsl #8
    2394:	04000007 	streq	r0, [r0], #-7
    2398:	00086401 	andeq	r6, r8, r1, lsl #8
    239c:	094f0100 	stmdbeq	pc, {r8}^	; <UNPREDICTABLE>
    23a0:	08cf0000 	stmiaeq	pc, {}^	; <UNPREDICTABLE>
    23a4:	885c0000 	ldmdahi	ip, {}^	; <UNPREDICTABLE>
    23a8:	00340000 	eorseq	r0, r4, r0
    23ac:	052e0000 	streq	r0, [lr, #-0]!
    23b0:	04020000 	streq	r0, [r2], #-0
    23b4:	746e6905 	strbtvc	r6, [lr], #-2309	; 0x905
    23b8:	07040300 	streq	r0, [r4, -r0, lsl #6]
    23bc:	000000bc 	strheq	r0, [r0], -ip
    23c0:	14060103 	strne	r0, [r6], #-259	; 0x103
    23c4:	03000000 	movweq	r0, #0
    23c8:	00730502 	rsbseq	r0, r3, r2, lsl #10
    23cc:	04030000 	streq	r0, [r3], #-0
    23d0:	00015505 	andeq	r5, r1, r5, lsl #10
    23d4:	05080300 	streq	r0, [r8, #-768]	; 0x300
    23d8:	00000150 	andeq	r0, r0, r0, asr r1
    23dc:	12080103 	andne	r0, r8, #-1073741824	; 0xc0000000
    23e0:	03000000 	movweq	r0, #0
    23e4:	00410702 	subeq	r0, r1, r2, lsl #14
    23e8:	04030000 	streq	r0, [r3], #-0
    23ec:	0000b707 	andeq	fp, r0, r7, lsl #14
    23f0:	07080300 	streq	r0, [r8, -r0, lsl #6]
    23f4:	000000b2 	strheq	r0, [r0], -r2
    23f8:	47070403 	strmi	r0, [r7, -r3, lsl #8]
    23fc:	03000001 	movweq	r0, #1
    2400:	001b0801 	andseq	r0, fp, r1, lsl #16
    2404:	04040000 	streq	r0, [r4], #-0
    2408:	0000007f 	andeq	r0, r0, pc, ror r0
    240c:	00007205 	andeq	r7, r0, r5, lsl #4
    2410:	095b0600 	ldmdbeq	fp, {r9, sl}^
    2414:	04010000 	streq	r0, [r1], #-0
    2418:	00000025 	andeq	r0, r0, r5, lsr #32
    241c:	0000885c 	andeq	r8, r0, ip, asr r8
    2420:	00000034 	andeq	r0, r0, r4, lsr r0
    2424:	00ab9c01 	adceq	r9, fp, r1, lsl #24
    2428:	70070000 	andvc	r0, r7, r0
    242c:	79040100 	stmdbvc	r4, {r8}
    2430:	02000000 	andeq	r0, r0, #0
    2434:	00000004 	andeq	r0, r0, r4
    2438:	00002508 	andeq	r2, r0, r8, lsl #10
    243c:	0000ba00 	andeq	fp, r0, r0, lsl #20
    2440:	00250900 	eoreq	r0, r5, r0, lsl #18
    2444:	0a000000 	beq	244c <_start-0x5bb4>
    2448:	00000469 	andeq	r0, r0, r9, ror #8
    244c:	00c51d02 	sbceq	r1, r5, r2, lsl #26
    2450:	04040000 	streq	r0, [r4], #-0
    2454:	000000ab 	andeq	r0, r0, fp, lsr #1
    2458:	00002508 	andeq	r2, r0, r8, lsl #10
    245c:	0000da00 	andeq	sp, r0, r0, lsl #20
    2460:	00790900 	rsbseq	r0, r9, r0, lsl #18
    2464:	0b000000 	bleq	246c <_start-0x5b94>
    2468:	00000964 	andeq	r0, r0, r4, ror #18
    246c:	00eb0c01 	rsceq	r0, fp, r1, lsl #24
    2470:	03050000 	movweq	r0, #20480	; 0x5000
    2474:	0000963c 	andeq	r9, r0, ip, lsr r6
    2478:	00cb0404 	sbceq	r0, fp, r4, lsl #8
    247c:	81000000 	mrshi	r0, (UNDEF: 0)
    2480:	04000006 	streq	r0, [r0], #-6
    2484:	0007f900 	andeq	pc, r7, r0, lsl #18
    2488:	64010400 	strvs	r0, [r1], #-1024	; 0x400
    248c:	01000008 	tsteq	r0, r8
    2490:	00000990 	muleq	r0, r0, r9
    2494:	000008cf 	andeq	r0, r0, pc, asr #17
    2498:	00008890 	muleq	r0, r0, r8
    249c:	000004f8 	strdeq	r0, [r0], -r8
    24a0:	000005c8 	andeq	r0, r0, r8, asr #11
    24a4:	69050402 	stmdbvs	r5, {r1, sl}
    24a8:	0300746e 	movweq	r7, #1134	; 0x46e
    24ac:	00bc0704 	adcseq	r0, ip, r4, lsl #14
    24b0:	01030000 	mrseq	r0, (UNDEF: 3)
    24b4:	00001406 	andeq	r1, r0, r6, lsl #8
    24b8:	05020300 	streq	r0, [r2, #-768]	; 0x300
    24bc:	00000073 	andeq	r0, r0, r3, ror r0
    24c0:	55050403 	strpl	r0, [r5, #-1027]	; 0x403
    24c4:	03000001 	movweq	r0, #1
    24c8:	01500508 	cmpeq	r0, r8, lsl #10
    24cc:	01030000 	mrseq	r0, (UNDEF: 3)
    24d0:	00001208 	andeq	r1, r0, r8, lsl #4
    24d4:	07020300 	streq	r0, [r2, -r0, lsl #6]
    24d8:	00000041 	andeq	r0, r0, r1, asr #32
    24dc:	b7070403 	strlt	r0, [r7, -r3, lsl #8]
    24e0:	03000000 	movweq	r0, #0
    24e4:	00b20708 	adcseq	r0, r2, r8, lsl #14
    24e8:	04030000 	streq	r0, [r3], #-0
    24ec:	00014707 	andeq	r4, r1, r7, lsl #14
    24f0:	05040400 	streq	r0, [r4, #-1024]	; 0x400
    24f4:	00007a04 	andeq	r7, r0, r4, lsl #20
    24f8:	08010300 	stmdaeq	r1, {r8, r9}
    24fc:	0000001b 	andeq	r0, r0, fp, lsl r0
    2500:	00870405 	addeq	r0, r7, r5, lsl #8
    2504:	7a060000 	bvc	18250c <__bss_end__+0x1785f4>
    2508:	07000000 	streq	r0, [r0, -r0]
    250c:	00000847 	andeq	r0, r0, r7, asr #16
    2510:	00972802 	addseq	r2, r7, r2, lsl #16
    2514:	c5080000 	strgt	r0, [r8, #-0]
    2518:	04000008 	streq	r0, [r0], #-8
    251c:	00ae0004 	adceq	r0, lr, r4
    2520:	13090000 	movwne	r0, #36864	; 0x9000
    2524:	72000009 	andvc	r0, r0, #9
    2528:	00000000 	andeq	r0, r0, r0
    252c:	08c70700 	stmiaeq	r7, {r8, r9, sl}^
    2530:	62020000 	andvs	r0, r2, #0
    2534:	0000008c 	andeq	r0, r0, ip, lsl #1
    2538:	0009770a 	andeq	r7, r9, sl, lsl #14
    253c:	25270100 	strcs	r0, [r7, #-256]!	; 0x100
    2540:	90000000 	andls	r0, r0, r0
    2544:	14000088 	strne	r0, [r0], #-136	; 0x88
    2548:	01000000 	mrseq	r0, (UNDEF: 0)
    254c:	0000e09c 	muleq	r0, ip, r0
    2550:	00630b00 	rsbeq	r0, r3, r0, lsl #22
    2554:	00252701 	eoreq	r2, r5, r1, lsl #14
    2558:	04200000 	strteq	r0, [r0], #-0
    255c:	0c000000 	stceq	0, cr0, [r0], {-0}
    2560:	00646170 	rsbeq	r6, r4, r0, ror r1
    2564:	00742e01 	rsbseq	r2, r4, r1, lsl #28
    2568:	88a40000 	stmiahi	r4!, {}	; <UNPREDICTABLE>
    256c:	002c0000 	eoreq	r0, ip, r0
    2570:	9c010000 	stcls	0, cr0, [r1], {-0}
    2574:	00000130 	andeq	r0, r0, r0, lsr r1
    2578:	0100700b 	tsteq	r0, fp
    257c:	0000742e 	andeq	r7, r0, lr, lsr #8
    2580:	00044e00 	andeq	r4, r4, r0, lsl #28
    2584:	03350d00 	teqeq	r5, #0, 26
    2588:	2e010000 	cdpcs	0, 0, cr0, cr1, cr0, {0}
    258c:	00000074 	andeq	r0, r0, r4, ror r0
    2590:	00000479 	andeq	r0, r0, r9, ror r4
    2594:	0009b00e 	andeq	fp, r9, lr
    2598:	252e0100 	strcs	r0, [lr, #-256]!	; 0x100
    259c:	01000000 	mrseq	r0, (UNDEF: 0)
    25a0:	656c0f52 	strbvs	r0, [ip, #-3922]!	; 0xf52
    25a4:	2f01006e 	svccs	0x0001006e
    25a8:	00000025 	andeq	r0, r0, r5, lsr #32
    25ac:	0a005101 	beq	169b8 <__bss_end__+0xcaa0>
    25b0:	0000096f 	andeq	r0, r0, pc, ror #18
    25b4:	00743701 	rsbseq	r3, r4, r1, lsl #14
    25b8:	88d00000 	ldmhi	r0, {}^	; <UNPREDICTABLE>
    25bc:	00400000 	subeq	r0, r0, r0
    25c0:	9c010000 	stcls	0, cr0, [r1], {-0}
    25c4:	0000019c 	muleq	r0, ip, r1
    25c8:	7473640b 	ldrbtvc	r6, [r3], #-1035	; 0x40b
    25cc:	74370100 	ldrtvc	r0, [r7], #-256	; 0x100
    25d0:	9a000000 	bls	25d8 <_start-0x5a28>
    25d4:	0b000004 	bleq	25ec <_start-0x5a14>
    25d8:	3701006e 	strcc	r0, [r1, -lr, rrx]
    25dc:	00000025 	andeq	r0, r0, r5, lsr #32
    25e0:	000004d2 	ldrdeq	r0, [r0], -r2
    25e4:	0100700b 	tsteq	r0, fp
    25e8:	00007437 	andeq	r7, r0, r7, lsr r4
    25ec:	0004f300 	andeq	pc, r4, r0, lsl #6
    25f0:	074a0d00 	strbeq	r0, [sl, -r0, lsl #26]
    25f4:	37010000 	strcc	r0, [r1, -r0]
    25f8:	00000074 	andeq	r0, r0, r4, ror r0
    25fc:	00000529 	andeq	r0, r0, r9, lsr #10
    2600:	6e656c10 	mcrvs	12, 3, r6, cr5, cr0, {0}
    2604:	25390100 	ldrcs	r0, [r9, #-256]!	; 0x100
    2608:	47000000 	strmi	r0, [r0, -r0]
    260c:	0f000005 	svceq	0x00000005
    2610:	3d010073 	stccc	0, cr0, [r1, #-460]	; 0xfffffe34
    2614:	00000074 	andeq	r0, r0, r4, ror r0
    2618:	0a005001 	beq	16624 <__bss_end__+0xc70c>
    261c:	000009be 			; <UNDEFINED> instruction: 0x000009be
    2620:	00744701 	rsbseq	r4, r4, r1, lsl #14
    2624:	89100000 	ldmdbhi	r0, {}	; <UNPREDICTABLE>
    2628:	019c0000 	orrseq	r0, ip, r0
    262c:	9c010000 	stcls	0, cr0, [r1], {-0}
    2630:	000002d3 	ldrdeq	r0, [r0], -r3
    2634:	0003350d 	andeq	r3, r3, sp, lsl #10
    2638:	2c470100 	stfcse	f0, [r7], {-0}
    263c:	6e000000 	cdpvs	0, 0, cr0, cr0, cr0, {0}
    2640:	0b000005 	bleq	265c <_start-0x59a4>
    2644:	00747364 	rsbseq	r7, r4, r4, ror #6
    2648:	00744701 	rsbseq	r4, r4, r1, lsl #14
    264c:	059c0000 	ldreq	r0, [ip]
    2650:	6e0b0000 	cdpvs	0, 0, cr0, cr11, cr0, {0}
    2654:	25470100 	strbcs	r0, [r7, #-256]	; 0x100
    2658:	0a000000 	beq	2660 <_start-0x59a0>
    265c:	0b000006 	bleq	267c <_start-0x5984>
    2660:	006c6176 	rsbeq	r6, ip, r6, ror r1
    2664:	00254701 	eoreq	r4, r5, r1, lsl #14
    2668:	06360000 	ldrteq	r0, [r6], -r0
    266c:	b00d0000 	andlt	r0, sp, r0
    2670:	01000009 	tsteq	r0, r9
    2674:	00002547 	andeq	r2, r0, r7, asr #10
    2678:	0006b500 	andeq	fp, r6, r0, lsl #10
    267c:	09870e00 	stmibeq	r7, {r9, sl, fp}
    2680:	47010000 	strmi	r0, [r1, -r0]
    2684:	00000025 	andeq	r0, r0, r5, lsr #32
    2688:	0f049102 	svceq	0x00049102
    268c:	00667562 	rsbeq	r7, r6, r2, ror #10
    2690:	02d34c01 	sbcseq	r4, r3, #256	; 0x100
    2694:	91030000 	mrsls	r0, (UNDEF: 3)
    2698:	70107fa8 	andsvc	r7, r0, r8, lsr #31
    269c:	744c0100 	strbvc	r0, [ip], #-256	; 0x100
    26a0:	df000000 	svcle	0x00000000
    26a4:	10000006 	andne	r0, r0, r6
    26a8:	4d010075 	stcmi	0, cr0, [r1, #-468]	; 0xfffffe2c
    26ac:	0000002c 	andeq	r0, r0, ip, lsr #32
    26b0:	00000784 	andeq	r0, r0, r4, lsl #15
    26b4:	00008711 	andeq	r8, r0, r1, lsl r7
    26b8:	0002f300 	andeq	pc, r2, r0, lsl #6
    26bc:	00030500 	andeq	r0, r3, r0, lsl #10
    26c0:	1200009a 	andne	r0, r0, #154	; 0x9a
    26c4:	0000897c 	andeq	r8, r0, ip, ror r9
    26c8:	00000074 	andeq	r0, r0, r4, ror r0
    26cc:	00000261 	andeq	r0, r0, r1, ror #4
    26d0:	00096913 	andeq	r6, r9, r3, lsl r9
    26d4:	2c520100 	ldfcse	f0, [r2], {-0}
    26d8:	89000000 	stmdbhi	r0, {}	; <UNPREDICTABLE>
    26dc:	00000008 	andeq	r0, r0, r8
    26e0:	008a5014 	addeq	r5, sl, r4, lsl r0
    26e4:	00066000 	andeq	r6, r6, r0
    26e8:	8a641500 	bhi	1907af0 <__bss_end__+0x18fdbd8>
    26ec:	06670000 	strbteq	r0, [r7], -r0
    26f0:	02990000 	addseq	r0, r9, #0
    26f4:	01160000 	tsteq	r6, r0
    26f8:	75080253 	strvc	r0, [r8, #-595]	; 0x253
    26fc:	05520116 	ldrbeq	r0, [r2, #-278]	; 0x116
    2700:	009a0003 	addseq	r0, sl, r3
    2704:	51011600 	tstpl	r1, r0, lsl #12
    2708:	9a380305 	bls	e03324 <__bss_end__+0xdf940c>
    270c:	01160000 	tsteq	r6, r0
    2710:	24030550 	strcs	r0, [r3], #-1360	; 0x550
    2714:	0000009a 	muleq	r0, sl, r0
    2718:	008a6814 	addeq	r6, sl, r4, lsl r8
    271c:	00067d00 	andeq	r7, r6, r0, lsl #26
    2720:	8a741500 	bhi	1d07b28 <__bss_end__+0x1cfdc10>
    2724:	00e00000 	rsceq	r0, r0, r0
    2728:	02b60000 	adcseq	r0, r6, #0
    272c:	01160000 	tsteq	r6, r0
    2730:	007d0251 	rsbseq	r0, sp, r1, asr r2
    2734:	8a881700 	bhi	fe20833c <__bss_end__+0xfe1fe424>
    2738:	01300000 	teqeq	r0, r0
    273c:	01160000 	tsteq	r6, r0
    2740:	007d0253 	rsbseq	r0, sp, r3, asr r2
    2744:	02510116 	subseq	r0, r1, #-2147483643	; 0x80000005
    2748:	01160074 	tsteq	r6, r4, ror r0
    274c:	00750250 	rsbseq	r0, r5, r0, asr r2
    2750:	7a180000 	bvc	602758 <__bss_end__+0x5f8840>
    2754:	e3000000 	movw	r0, #0
    2758:	19000002 	stmdbne	r0, {r1}
    275c:	0000006b 	andeq	r0, r0, fp, rrx
    2760:	7a18003f 	bvc	602864 <__bss_end__+0x5f894c>
    2764:	f3000000 	vhadd.u8	d0, d0, d0
    2768:	19000002 	stmdbne	r0, {r1}
    276c:	0000006b 	andeq	r0, r0, fp, rrx
    2770:	e3060004 	movw	r0, #24580	; 0x6004
    2774:	1a000002 	bne	2784 <_start-0x587c>
    2778:	000009a1 	andeq	r0, r0, r1, lsr #19
    277c:	8aac1f01 	bhi	feb0a388 <__bss_end__+0xfeb00470>
    2780:	00540000 	subseq	r0, r4, r0
    2784:	9c010000 	stcls	0, cr0, [r1], {-0}
    2788:	0000037c 	andeq	r0, r0, ip, ror r3
    278c:	0009b60d 	andeq	fp, r9, sp, lsl #12
    2790:	8b1f0100 	blhi	7c2b98 <__bss_end__+0x7b8c80>
    2794:	b5000003 	strlt	r0, [r0, #-3]
    2798:	0d000008 	stceq	0, cr0, [r0, #-32]	; 0xffffffe0
    279c:	0000097f 	andeq	r0, r0, pc, ror r9
    27a0:	03a01f01 	moveq	r1, #1, 30
    27a4:	08e10000 	stmiaeq	r1!, {}^	; <UNPREDICTABLE>
    27a8:	87110000 	ldrhi	r0, [r1, -r0]
    27ac:	b6000000 	strlt	r0, [r0], -r0
    27b0:	05000003 	streq	r0, [r0, #-3]
    27b4:	009a0803 	addseq	r0, sl, r3, lsl #16
    27b8:	8abc1400 	bhi	fef077c0 <__bss_end__+0xfeefd8a8>
    27bc:	06600000 	strbteq	r0, [r0], -r0
    27c0:	d0150000 	andsle	r0, r5, r0
    27c4:	6700008a 	strvs	r0, [r0, -sl, lsl #1]
    27c8:	72000006 	andvc	r0, r0, #6
    27cc:	16000003 	strne	r0, [r0], -r3
    27d0:	08025301 	stmdaeq	r2, {r0, r8, r9, ip, lr}
    27d4:	52011620 	andpl	r1, r1, #32, 12	; 0x2000000
    27d8:	9a080305 	bls	2033f4 <__bss_end__+0x1f94dc>
    27dc:	01160000 	tsteq	r6, r0
    27e0:	38030551 	stmdacc	r3, {r0, r4, r6, r8, sl}
    27e4:	1600009a 			; <UNDEFINED> instruction: 0x1600009a
    27e8:	03055001 	movweq	r5, #20481	; 0x5001
    27ec:	00009a70 	andeq	r9, r0, r0, ror sl
    27f0:	8ad41400 	bhi	ff5077f8 <__bss_end__+0xff4fd8e0>
    27f4:	067d0000 	ldrbteq	r0, [sp], -r0
    27f8:	1b000000 	blne	2800 <_start-0x5800>
    27fc:	00000025 	andeq	r0, r0, r5, lsr #32
    2800:	0000038b 	andeq	r0, r0, fp, lsl #7
    2804:	0000251c 	andeq	r2, r0, ip, lsl r5
    2808:	04050000 	streq	r0, [r5], #-0
    280c:	0000037c 	andeq	r0, r0, ip, ror r3
    2810:	0000251b 	andeq	r2, r0, fp, lsl r5
    2814:	0003a000 	andeq	sl, r3, r0
    2818:	00811c00 	addeq	r1, r1, r0, lsl #24
    281c:	05000000 	streq	r0, [r0, #-0]
    2820:	00039104 	andeq	r9, r3, r4, lsl #2
    2824:	007a1800 	rsbseq	r1, sl, r0, lsl #16
    2828:	03b60000 			; <UNDEFINED> instruction: 0x03b60000
    282c:	6b190000 	blvs	642834 <__bss_end__+0x63891c>
    2830:	0e000000 	cdpeq	0, 0, cr0, cr0, cr0, {0}
    2834:	03a60600 			; <UNDEFINED> instruction: 0x03a60600
    2838:	bb1d0000 	bllt	742840 <__bss_end__+0x738928>
    283c:	01000008 	tsteq	r0, r8
    2840:	0000257d 	andeq	r2, r0, sp, ror r5
    2844:	008b0000 	addeq	r0, fp, r0
    2848:	00028800 	andeq	r8, r2, r0, lsl #16
    284c:	259c0100 	ldrcs	r0, [ip, #256]	; 0x100
    2850:	0b000006 	bleq	2870 <_start-0x5790>
    2854:	00667562 	rsbeq	r7, r6, r2, ror #10
    2858:	00747d01 	rsbseq	r7, r4, r1, lsl #26
    285c:	090d0000 	stmdbeq	sp, {}	; <UNPREDICTABLE>
    2860:	6e0b0000 	cdpvs	0, 0, cr0, cr11, cr0, {0}
    2864:	257d0100 	ldrbcs	r0, [sp, #-256]!	; 0x100
    2868:	39000000 	stmdbcc	r0, {}	; <UNPREDICTABLE>
    286c:	0b000009 	bleq	2898 <_start-0x5768>
    2870:	00746d66 	rsbseq	r6, r4, r6, ror #26
    2874:	00817d01 	addeq	r7, r1, r1, lsl #26
    2878:	09670000 	stmdbeq	r7!, {}^	; <UNPREDICTABLE>
    287c:	5c0d0000 	stcpl	0, cr0, [sp], {-0}
    2880:	01000003 	tsteq	r0, r3
    2884:	0000ae7d 	andeq	sl, r0, sp, ror lr
    2888:	00099b00 	andeq	r9, r9, r0, lsl #22
    288c:	00701000 	rsbseq	r1, r0, r0
    2890:	00747e01 	rsbseq	r7, r4, r1, lsl #28
    2894:	09ae0000 	stmibeq	lr!, {}	; <UNPREDICTABLE>
    2898:	65100000 	ldrvs	r0, [r0, #-0]
    289c:	747e0100 	ldrbtvc	r0, [lr], #-256	; 0x100
    28a0:	2c000000 	stccs	0, cr0, [r0], {-0}
    28a4:	1100000a 	tstne	r0, sl
    28a8:	00000087 	andeq	r0, r0, r7, lsl #1
    28ac:	00000635 	andeq	r0, r0, r5, lsr r6
    28b0:	9a180305 	bls	6034cc <__bss_end__+0x5f95b4>
    28b4:	301e0000 	andscc	r0, lr, r0
    28b8:	10000000 	andne	r0, r0, r0
    28bc:	8b010073 	blhi	42a90 <__bss_end__+0x38b78>
    28c0:	00000074 	andeq	r0, r0, r4, ror r0
    28c4:	00000a53 	andeq	r0, r0, r3, asr sl
    28c8:	6d756e0f 	ldclvs	14, cr6, [r5, #-60]!	; 0xffffffc4
    28cc:	3a8b0100 	bcc	fe2c2cd4 <__bss_end__+0xfe2b8dbc>
    28d0:	03000006 	movweq	r0, #6
    28d4:	137ed891 	cmnne	lr, #9502720	; 0x910000
    28d8:	000009b0 			; <UNDEFINED> instruction: 0x000009b0
    28dc:	002c8c01 	eoreq	r8, ip, r1, lsl #24
    28e0:	0aa80000 	beq	fea028e8 <__bss_end__+0xfe9f89d0>
    28e4:	84150000 	ldrhi	r0, [r5], #-0
    28e8:	b900008b 	stmdblt	r0, {r0, r1, r3, r7}
    28ec:	7b000000 	blvc	28f4 <_start-0x570c>
    28f0:	16000004 	strne	r0, [r0], -r4
    28f4:	75025001 	strvc	r5, [r2, #-1]
    28f8:	98140000 	ldmdals	r4, {}	; <UNPREDICTABLE>
    28fc:	6000008b 	andvs	r0, r0, fp, lsl #1
    2900:	15000006 	strne	r0, [r0, #-6]
    2904:	00008bac 	andeq	r8, r0, ip, lsr #23
    2908:	00000667 	andeq	r0, r0, r7, ror #12
    290c:	000004b3 			; <UNDEFINED> instruction: 0x000004b3
    2910:	02530116 	subseq	r0, r3, #-2147483643	; 0x80000005
    2914:	01169208 	tsteq	r6, r8, lsl #4
    2918:	18030552 	stmdane	r3, {r1, r4, r6, r8, sl}
    291c:	1600009a 			; <UNDEFINED> instruction: 0x1600009a
    2920:	03055101 	movweq	r5, #20737	; 0x5101
    2924:	00009a38 	andeq	r9, r0, r8, lsr sl
    2928:	05500116 	ldrbeq	r0, [r0, #-278]	; 0x116
    292c:	009a8803 	addseq	r8, sl, r3, lsl #16
    2930:	b0140000 	andslt	r0, r4, r0
    2934:	7d00008b 	stcvc	0, cr0, [r0, #-556]	; 0xfffffdd4
    2938:	14000006 	strne	r0, [r0], #-6
    293c:	00008c20 	andeq	r8, r0, r0, lsr #24
    2940:	00000660 	andeq	r0, r0, r0, ror #12
    2944:	008c3415 	addeq	r3, ip, r5, lsl r4
    2948:	00066700 	andeq	r6, r6, r0, lsl #14
    294c:	0004f400 	andeq	pc, r4, r0, lsl #8
    2950:	53011600 	movwpl	r1, #5632	; 0x1600
    2954:	16980802 	ldrne	r0, [r8], r2, lsl #16
    2958:	03055201 	movweq	r5, #20993	; 0x5201
    295c:	00009a18 	andeq	r9, r0, r8, lsl sl
    2960:	05510116 	ldrbeq	r0, [r1, #-278]	; 0x116
    2964:	009a3803 	addseq	r3, sl, r3, lsl #16
    2968:	50011600 	andpl	r1, r1, r0, lsl #12
    296c:	9aa40305 	bls	fe903588 <__bss_end__+0xfe8f9670>
    2970:	14000000 	strne	r0, [r0], #-0
    2974:	00008c38 	andeq	r8, r0, r8, lsr ip
    2978:	0000067d 	andeq	r0, r0, sp, ror r6
    297c:	008c5c15 	addeq	r5, ip, r5, lsl ip
    2980:	00019c00 	andeq	r9, r1, r0, lsl #24
    2984:	00052a00 	andeq	r2, r5, r0, lsl #20
    2988:	52011600 	andpl	r1, r1, #0, 12
    298c:	16800802 	strne	r0, [r0], r2, lsl #16
    2990:	91035101 	tstls	r3, r1, lsl #2
    2994:	01167ed0 			; <UNDEFINED> instruction: 0x01167ed0
    2998:	163a0150 			; <UNDEFINED> instruction: 0x163a0150
    299c:	01047d02 	tsteq	r4, r2, lsl #26
    29a0:	7d021631 	stcvc	6, cr1, [r2, #-196]	; 0xffffff3c
    29a4:	00770200 	rsbseq	r0, r7, r0, lsl #4
    29a8:	8c801500 	cfstr32hi	mvfx1, [r0], {0}
    29ac:	019c0000 	orrseq	r0, ip, r0
    29b0:	05580000 	ldrbeq	r0, [r8, #-0]
    29b4:	01160000 	tsteq	r6, r0
    29b8:	80080252 	andhi	r0, r8, r2, asr r2
    29bc:	03510116 	cmpeq	r1, #-2147483643	; 0x80000005
    29c0:	167ed091 			; <UNDEFINED> instruction: 0x167ed091
    29c4:	3a015001 	bcc	569d0 <__bss_end__+0x4cab8>
    29c8:	047d0216 	ldrbteq	r0, [sp], #-534	; 0x216
    29cc:	16007b02 	strne	r7, [r0], -r2, lsl #22
    29d0:	02007d02 	andeq	r7, r0, #2, 26	; 0x80
    29d4:	15000077 	strne	r0, [r0, #-119]	; 0x77
    29d8:	00008ca4 	andeq	r8, r0, r4, lsr #25
    29dc:	0000019c 	muleq	r0, ip, r1
    29e0:	00000586 	andeq	r0, r0, r6, lsl #11
    29e4:	02520116 	subseq	r0, r2, #-2147483643	; 0x80000005
    29e8:	01168008 	tsteq	r6, r8
    29ec:	d0910351 	addsle	r0, r1, r1, asr r3
    29f0:	5001167e 	andpl	r1, r1, lr, ror r6
    29f4:	02164001 	andseq	r4, r6, #1
    29f8:	7b02047d 	blvc	83bf4 <__bss_end__+0x79cdc>
    29fc:	7d021600 	stcvc	6, cr1, [r2, #-0]
    2a00:	00770200 	rsbseq	r0, r7, r0, lsl #4
    2a04:	8cc81500 	cfstr64hi	mvdx1, [r8], {0}
    2a08:	019c0000 	orrseq	r0, ip, r0
    2a0c:	05b40000 	ldreq	r0, [r4, #0]!
    2a10:	01160000 	tsteq	r6, r0
    2a14:	80080252 	andhi	r0, r8, r2, asr r2
    2a18:	03510116 	cmpeq	r1, #-2147483643	; 0x80000005
    2a1c:	167ed091 			; <UNDEFINED> instruction: 0x167ed091
    2a20:	32015001 	andcc	r5, r1, #1
    2a24:	047d0216 	ldrbteq	r0, [sp], #-534	; 0x216
    2a28:	16007b02 	strne	r7, [r0], -r2, lsl #22
    2a2c:	02007d02 	andeq	r7, r0, #2, 26	; 0x80
    2a30:	15000077 	strne	r0, [r0, #-119]	; 0x77
    2a34:	00008cf8 	strdeq	r8, [r0], -r8	; <UNPREDICTABLE>
    2a38:	0000019c 	muleq	r0, ip, r1
    2a3c:	000005e2 	andeq	r0, r0, r2, ror #11
    2a40:	02520116 	subseq	r0, r2, #-2147483643	; 0x80000005
    2a44:	01168008 	tsteq	r6, r8
    2a48:	d0910351 	addsle	r0, r1, r1, asr r3
    2a4c:	5001167e 	andpl	r1, r1, lr, ror r6
    2a50:	02163801 	andseq	r3, r6, #65536	; 0x10000
    2a54:	7b02047d 	blvc	83c50 <__bss_end__+0x79d38>
    2a58:	7d021600 	stcvc	6, cr1, [r2, #-0]
    2a5c:	00770200 	rsbseq	r0, r7, r0, lsl #4
    2a60:	8d001400 	cfstrshi	mvf1, [r0, #-0]
    2a64:	06600000 	strbteq	r0, [r0], -r0
    2a68:	1c150000 	ldcne	0, cr0, [r5], {-0}
    2a6c:	6700008d 	strvs	r0, [r0, -sp, lsl #1]
    2a70:	1a000006 	bne	2a90 <_start-0x5570>
    2a74:	16000006 	strne	r0, [r0], -r6
    2a78:	08025301 	stmdaeq	r2, {r0, r8, r9, ip, lr}
    2a7c:	520116b9 	andpl	r1, r1, #193986560	; 0xb900000
    2a80:	9a180305 	bls	60369c <__bss_end__+0x5f9784>
    2a84:	01160000 	tsteq	r6, r0
    2a88:	38030551 	stmdacc	r3, {r0, r4, r6, r8, sl}
    2a8c:	1600009a 			; <UNDEFINED> instruction: 0x1600009a
    2a90:	03055001 	movweq	r5, #20481	; 0x5001
    2a94:	00009acc 	andeq	r9, r0, ip, asr #21
    2a98:	8d201400 	cfstrshi	mvf1, [r0, #-0]
    2a9c:	067d0000 	ldrbteq	r0, [sp], -r0
    2aa0:	00000000 	andeq	r0, r0, r0
    2aa4:	00007a18 	andeq	r7, r0, r8, lsl sl
    2aa8:	00063500 	andeq	r3, r6, r0, lsl #10
    2aac:	006b1900 	rsbeq	r1, fp, r0, lsl #18
    2ab0:	00090000 	andeq	r0, r9, r0
    2ab4:	00062506 	andeq	r2, r6, r6, lsl #10
    2ab8:	007a1800 	rsbseq	r1, sl, r0, lsl #16
    2abc:	064a0000 	strbeq	r0, [sl], -r0
    2ac0:	6b190000 	blvs	642ac8 <__bss_end__+0x638bb0>
    2ac4:	7f000000 	svcvc	0x00000000
    2ac8:	04691f00 	strbteq	r1, [r9], #-3840	; 0xf00
    2acc:	1d030000 	stcne	0, cr0, [r3, #-0]
    2ad0:	0000038b 	andeq	r0, r0, fp, lsl #7
    2ad4:	0009641f 	andeq	r6, r9, pc, lsl r4
    2ad8:	a0220300 	eorge	r0, r2, r0, lsl #6
    2adc:	20000003 	andcs	r0, r0, r3
    2ae0:	000001dc 	ldrdeq	r0, [r0], -ip
    2ae4:	be211e03 	cdplt	14, 2, cr1, cr1, cr3, {0}
    2ae8:	03000008 	movweq	r0, #8
    2aec:	00002529 	andeq	r2, r0, r9, lsr #10
    2af0:	00067d00 	andeq	r7, r6, r0, lsl #26
    2af4:	00811c00 	addeq	r1, r1, r0, lsl #24
    2af8:	00220000 	eoreq	r0, r2, r0
    2afc:	00002920 	andeq	r2, r0, r0, lsr #18
    2b00:	00660300 	rsbeq	r0, r6, r0, lsl #6
    2b04:	000000ff 	strdeq	r0, [r0], -pc	; <UNPREDICTABLE>
    2b08:	09d50004 	ldmibeq	r5, {r2}^
    2b0c:	01040000 	mrseq	r0, (UNDEF: 4)
    2b10:	00000864 	andeq	r0, r0, r4, ror #16
    2b14:	0009ce01 	andeq	ip, r9, r1, lsl #28
    2b18:	0008cf00 	andeq	ip, r8, r0, lsl #30
    2b1c:	008d8800 	addeq	r8, sp, r0, lsl #16
    2b20:	00002800 	andeq	r2, r0, r0, lsl #16
    2b24:	0007aa00 	andeq	sl, r7, r0, lsl #20
    2b28:	05040200 	streq	r0, [r4, #-512]	; 0x200
    2b2c:	00746e69 	rsbseq	r6, r4, r9, ror #28
    2b30:	bc070403 	cfstrslt	mvf0, [r7], {3}
    2b34:	03000000 	movweq	r0, #0
    2b38:	00140601 	andseq	r0, r4, r1, lsl #12
    2b3c:	02030000 	andeq	r0, r3, #0
    2b40:	00007305 	andeq	r7, r0, r5, lsl #6
    2b44:	05040300 	streq	r0, [r4, #-768]	; 0x300
    2b48:	00000155 	andeq	r0, r0, r5, asr r1
    2b4c:	50050803 	andpl	r0, r5, r3, lsl #16
    2b50:	03000001 	movweq	r0, #1
    2b54:	00120801 	andseq	r0, r2, r1, lsl #16
    2b58:	02030000 	andeq	r0, r3, #0
    2b5c:	00004107 	andeq	r4, r0, r7, lsl #2
    2b60:	07040300 	streq	r0, [r4, -r0, lsl #6]
    2b64:	000000b7 	strheq	r0, [r0], -r7
    2b68:	b2070803 	andlt	r0, r7, #196608	; 0x30000
    2b6c:	03000000 	movweq	r0, #0
    2b70:	01470704 	cmpeq	r7, r4, lsl #14
    2b74:	01030000 	mrseq	r0, (UNDEF: 3)
    2b78:	00001b08 	andeq	r1, r0, r8, lsl #22
    2b7c:	7f040400 	svcvc	0x00040400
    2b80:	05000000 	streq	r0, [r0, #-0]
    2b84:	00000072 	andeq	r0, r0, r2, ror r0
    2b88:	00002906 	andeq	r2, r0, r6, lsl #18
    2b8c:	88040100 	stmdahi	r4, {r8}
    2b90:	2800008d 	stmdacs	r0, {r0, r2, r3, r7}
    2b94:	01000000 	mrseq	r0, (UNDEF: 0)
    2b98:	0000ca9c 	muleq	r0, ip, sl
    2b9c:	8d9c0700 	ldchi	7, cr0, [ip]
    2ba0:	00ac0000 	adceq	r0, ip, r0
    2ba4:	01080000 	mrseq	r0, (UNDEF: 8)
    2ba8:	04030550 	streq	r0, [r3], #-1360	; 0x550
    2bac:	0000009b 	muleq	r0, fp, r0
    2bb0:	008da409 	addeq	sl, sp, r9, lsl #8
    2bb4:	0000ea00 	andeq	lr, r0, r0, lsl #20
    2bb8:	0000c000 	andeq	ip, r0, r0
    2bbc:	50010800 	andpl	r0, r1, r0, lsl #16
    2bc0:	00640802 	rsbeq	r0, r4, r2, lsl #16
    2bc4:	008da80a 	addeq	sl, sp, sl, lsl #16
    2bc8:	0000fb00 	andeq	pc, r0, r0, lsl #22
    2bcc:	250b0000 	strcs	r0, [fp, #-0]
    2bd0:	d9000000 	stmdble	r0, {}	; <UNPREDICTABLE>
    2bd4:	0c000000 	stceq	0, cr0, [r0], {-0}
    2bd8:	00000079 	andeq	r0, r0, r9, ror r0
    2bdc:	09640d00 	stmdbeq	r4!, {r8, sl, fp}^
    2be0:	22020000 	andcs	r0, r2, #0
    2be4:	000000e4 	andeq	r0, r0, r4, ror #1
    2be8:	00ca0404 	sbceq	r0, sl, r4, lsl #8
    2bec:	200e0000 	andcs	r0, lr, r0
    2bf0:	02000000 	andeq	r0, r0, #0
    2bf4:	0000fb50 	andeq	pc, r0, r0, asr fp	; <UNPREDICTABLE>
    2bf8:	002c0c00 	eoreq	r0, ip, r0, lsl #24
    2bfc:	0f000000 	svceq	0x00000000
    2c00:	000009c3 	andeq	r0, r0, r3, asr #19
    2c04:	ff006302 			; <UNDEFINED> instruction: 0xff006302
    2c08:	04000000 	streq	r0, [r0], #-0
    2c0c:	000a9f00 	andeq	r9, sl, r0, lsl #30
    2c10:	64010400 	strvs	r0, [r1], #-1024	; 0x400
    2c14:	01000008 	tsteq	r0, r8
    2c18:	000009e8 	andeq	r0, r0, r8, ror #19
    2c1c:	000008cf 	andeq	r0, r0, pc, asr #17
    2c20:	00008db0 			; <UNDEFINED> instruction: 0x00008db0
    2c24:	00000034 	andeq	r0, r0, r4, lsr r0
    2c28:	00000841 	andeq	r0, r0, r1, asr #16
    2c2c:	69050402 	stmdbvs	r5, {r1, sl}
    2c30:	0300746e 	movweq	r7, #1134	; 0x46e
    2c34:	00bc0704 	adcseq	r0, ip, r4, lsl #14
    2c38:	01030000 	mrseq	r0, (UNDEF: 3)
    2c3c:	00001406 	andeq	r1, r0, r6, lsl #8
    2c40:	05020300 	streq	r0, [r2, #-768]	; 0x300
    2c44:	00000073 	andeq	r0, r0, r3, ror r0
    2c48:	55050403 	strpl	r0, [r5, #-1027]	; 0x403
    2c4c:	03000001 	movweq	r0, #1
    2c50:	01500508 	cmpeq	r0, r8, lsl #10
    2c54:	01030000 	mrseq	r0, (UNDEF: 3)
    2c58:	00001208 	andeq	r1, r0, r8, lsl #4
    2c5c:	07020300 	streq	r0, [r2, -r0, lsl #6]
    2c60:	00000041 	andeq	r0, r0, r1, asr #32
    2c64:	b7070403 	strlt	r0, [r7, -r3, lsl #8]
    2c68:	03000000 	movweq	r0, #0
    2c6c:	00b20708 	adcseq	r0, r2, r8, lsl #14
    2c70:	04030000 	streq	r0, [r3], #-0
    2c74:	00014707 	andeq	r4, r1, r7, lsl #14
    2c78:	08010300 	stmdaeq	r1, {r8, r9}
    2c7c:	0000001b 	andeq	r0, r0, fp, lsl r0
    2c80:	000a1e04 	andeq	r1, sl, r4, lsl #28
    2c84:	b00d0100 	andlt	r0, sp, r0, lsl #2
    2c88:	3400008d 	strcc	r0, [r0], #-141	; 0x8d
    2c8c:	01000000 	mrseq	r0, (UNDEF: 0)
    2c90:	0000d89c 	muleq	r0, ip, r8
    2c94:	09fc0500 	ldmibeq	ip!, {r8, sl}^
    2c98:	0e010000 	cdpeq	0, 0, cr0, cr1, cr0, {0}
    2c9c:	00000025 	andeq	r0, r0, r5, lsr #32
    2ca0:	000a0a05 	andeq	r0, sl, r5, lsl #20
    2ca4:	250e0100 	strcs	r0, [lr, #-256]	; 0x100
    2ca8:	06000000 	streq	r0, [r0], -r0
    2cac:	00000000 	andeq	r0, r0, r0
    2cb0:	62070f01 	andvs	r0, r7, #1, 30
    2cb4:	01007373 	tsteq	r0, r3, ror r3
    2cb8:	0000d811 	andeq	sp, r0, r1, lsl r8
    2cbc:	000ad200 	andeq	sp, sl, r0, lsl #4
    2cc0:	0a160800 	beq	584cc8 <__bss_end__+0x57adb0>
    2cc4:	12010000 	andne	r0, r1, #0
    2cc8:	000000d8 	ldrdeq	r0, [r0], -r8
    2ccc:	008dd809 	addeq	sp, sp, r9, lsl #16
    2cd0:	0000f400 	andeq	pc, r0, r0, lsl #8
    2cd4:	8ddc0900 	ldclhi	9, cr0, [ip]
    2cd8:	00fb0000 	rscseq	r0, fp, r0
    2cdc:	0a000000 	beq	2ce4 <_start-0x531c>
    2ce0:	00002504 	andeq	r2, r0, r4, lsl #10
    2ce4:	09fc0500 	ldmibeq	ip!, {r8, sl}^
    2ce8:	0e010000 	cdpeq	0, 0, cr0, cr1, cr0, {0}
    2cec:	00000025 	andeq	r0, r0, r5, lsr #32
    2cf0:	000a0a05 	andeq	r0, sl, r5, lsl #20
    2cf4:	250e0100 	strcs	r0, [lr, #-256]	; 0x100
    2cf8:	06000000 	streq	r0, [r0], -r0
    2cfc:	00000000 	andeq	r0, r0, r0
    2d00:	c306d802 	movwgt	sp, #26626	; 0x6802
    2d04:	02000009 	andeq	r0, r0, #9
    2d08:	01ad0063 			; <UNDEFINED> instruction: 0x01ad0063
    2d0c:	00040000 	andeq	r0, r4, r0
    2d10:	00000b33 	andeq	r0, r0, r3, lsr fp
    2d14:	08640104 	stmdaeq	r4!, {r2, r8}^
    2d18:	40010000 	andmi	r0, r1, r0
    2d1c:	cf00000a 	svcgt	0x0000000a
    2d20:	48000008 	stmdami	r0, {r3}
    2d24:	00000000 	andeq	r0, r0, r0
    2d28:	df000000 	svcle	0x00000000
    2d2c:	02000008 	andeq	r0, r0, #8
    2d30:	6e690504 	cdpvs	5, 6, cr0, cr9, cr4, {0}
    2d34:	04030074 	streq	r0, [r3], #-116	; 0x74
    2d38:	0000bc07 	andeq	fp, r0, r7, lsl #24
    2d3c:	06010300 	streq	r0, [r1], -r0, lsl #6
    2d40:	00000014 	andeq	r0, r0, r4, lsl r0
    2d44:	73050203 	movwvc	r0, #20995	; 0x5203
    2d48:	03000000 	movweq	r0, #0
    2d4c:	01550504 	cmpeq	r5, r4, lsl #10
    2d50:	08030000 	stmdaeq	r3, {}	; <UNPREDICTABLE>
    2d54:	00015005 	andeq	r5, r1, r5
    2d58:	08010300 	stmdaeq	r1, {r8, r9}
    2d5c:	00000012 	andeq	r0, r0, r2, lsl r0
    2d60:	41070203 	tstmi	r7, r3, lsl #4
    2d64:	03000000 	movweq	r0, #0
    2d68:	00b70704 	adcseq	r0, r7, r4, lsl #14
    2d6c:	08030000 	stmdaeq	r3, {}	; <UNPREDICTABLE>
    2d70:	0000b207 	andeq	fp, r0, r7, lsl #4
    2d74:	07040300 	streq	r0, [r4, -r0, lsl #6]
    2d78:	00000147 	andeq	r0, r0, r7, asr #2
    2d7c:	1b080103 	blne	203190 <__bss_end__+0x1f9278>
    2d80:	04000000 	streq	r0, [r0], #-0
    2d84:	00000a26 	andeq	r0, r0, r6, lsr #20
    2d88:	00250e01 	eoreq	r0, r5, r1, lsl #28
    2d8c:	8de40000 	stclhi	0, cr0, [r4]
    2d90:	00180000 	andseq	r0, r8, r0
    2d94:	9c010000 	stcls	0, cr0, [r1], {-0}
    2d98:	000000a2 	andeq	r0, r0, r2, lsr #1
    2d9c:	000a9205 	andeq	r9, sl, r5, lsl #4
    2da0:	2c0f0100 	stfcss	f0, [pc], {-0}
    2da4:	f2000000 	vhadd.s8	d0, d0, d0
    2da8:	0000000a 	andeq	r0, r0, sl
    2dac:	000a7506 	andeq	r7, sl, r6, lsl #10
    2db0:	fc170100 	ldc2	1, cr0, [r7], {-0}
    2db4:	1400008d 	strne	r0, [r0], #-141	; 0x8d
    2db8:	01000000 	mrseq	r0, (UNDEF: 0)
    2dbc:	0000c79c 	muleq	r0, ip, r7
    2dc0:	0a920500 	beq	fe4841c8 <__bss_end__+0xfe47a2b0>
    2dc4:	18010000 	stmdane	r1, {}	; <UNPREDICTABLE>
    2dc8:	0000002c 	andeq	r0, r0, ip, lsr #32
    2dcc:	00000b11 	andeq	r0, r0, r1, lsl fp
    2dd0:	09c30600 	stmibeq	r3, {r9, sl}^
    2dd4:	1f010000 	svcne	0x00010000
    2dd8:	00008e10 	andeq	r8, r0, r0, lsl lr
    2ddc:	00000048 	andeq	r0, r0, r8, asr #32
    2de0:	01779c01 	cmneq	r7, r1, lsl #24
    2de4:	8a070000 	bhi	1c2dec <__bss_end__+0x1b8ed4>
    2de8:	0100000a 	tsteq	r0, sl
    2dec:	0001772a 	andeq	r7, r1, sl, lsr #14
    2df0:	10001c00 	andne	r1, r0, r0, lsl #24
    2df4:	0a6d0720 	beq	1b44a7c <__bss_end__+0x1b3ab64>
    2df8:	2b010000 	blcs	42e00 <__bss_end__+0x38ee8>
    2dfc:	00000177 	andeq	r0, r0, r7, ror r1
    2e00:	20100024 	andscs	r0, r0, r4, lsr #32
    2e04:	000a3407 	andeq	r3, sl, r7, lsl #8
    2e08:	772c0100 	strvc	r0, [ip, -r0, lsl #2]!
    2e0c:	00000001 	andeq	r0, r0, r1
    2e10:	085a0000 	ldmdaeq	sl, {}^	; <UNPREDICTABLE>
    2e14:	00000a54 	andeq	r0, r0, r4, asr sl
    2e18:	01772d01 	cmneq	r7, r1, lsl #26
    2e1c:	09200000 	stmdbeq	r0!, {}	; <UNPREDICTABLE>
    2e20:	00008e18 	andeq	r8, r0, r8, lsl lr
    2e24:	00000079 	andeq	r0, r0, r9, ror r0
    2e28:	008e2409 	addeq	r2, lr, r9, lsl #8
    2e2c:	0000a200 	andeq	sl, r0, r0, lsl #4
    2e30:	8e2c0a00 	vmulhi.f32	s0, s24, s0
    2e34:	018d0000 	orreq	r0, sp, r0
    2e38:	013a0000 	teqeq	sl, r0
    2e3c:	010b0000 	mrseq	r0, (UNDEF: 11)
    2e40:	004e0150 	subeq	r0, lr, r0, asr r1
    2e44:	008e380a 	addeq	r3, lr, sl, lsl #16
    2e48:	00019e00 	andeq	r9, r1, r0, lsl #28
    2e4c:	00015a00 	andeq	r5, r1, r0, lsl #20
    2e50:	51010b00 	tstpl	r1, r0, lsl #22
    2e54:	00010c05 	andeq	r0, r1, r5, lsl #24
    2e58:	010b5a00 	tsteq	fp, r0, lsl #20
    2e5c:	240c0550 	strcs	r0, [ip], #-1360	; 0x550
    2e60:	00201000 	eoreq	r1, r0, r0
    2e64:	008e440c 	addeq	r4, lr, ip, lsl #8
    2e68:	00019e00 	andeq	r9, r1, r0, lsl #28
    2e6c:	51010b00 	tstpl	r1, r0, lsl #22
    2e70:	00200c05 	eoreq	r0, r0, r5, lsl #24
    2e74:	010b5a00 	tsteq	fp, r0, lsl #20
    2e78:	1c0c0550 	cfstr32ne	mvfx0, [ip], {80}	; 0x50
    2e7c:	00201000 	eoreq	r1, r0, r0
    2e80:	00250d00 	eoreq	r0, r5, r0, lsl #26
    2e84:	29080000 	stmdbcs	r8, {}	; <UNPREDICTABLE>
    2e88:	0100000a 	tsteq	r0, sl
    2e8c:	0001880d 	andeq	r8, r1, sp, lsl #16
    2e90:	2c0d1000 	stccs	0, cr1, [sp], {-0}
    2e94:	0e000000 	cdpeq	0, 0, cr0, cr0, cr0, {0}
    2e98:	00000020 	andeq	r0, r0, r0, lsr #32
    2e9c:	019e5002 	orrseq	r5, lr, r2
    2ea0:	2c0f0000 	stccs	0, cr0, [pc], {-0}
    2ea4:	00000000 	andeq	r0, r0, r0
    2ea8:	000a8410 	andeq	r8, sl, r0, lsl r4
    2eac:	0f9c0200 	svceq	0x009c0200
    2eb0:	0000002c 	andeq	r0, r0, ip, lsr #32
    2eb4:	00002c0f 	andeq	r2, r0, pc, lsl #24
    2eb8:	d8000000 	stmdale	r0, {}	; <UNPREDICTABLE>
    2ebc:	04000001 	streq	r0, [r0], #-1
    2ec0:	000c2100 	andeq	r2, ip, r0, lsl #2
    2ec4:	64010400 	strvs	r0, [r1], #-1024	; 0x400
    2ec8:	01000008 	tsteq	r0, r8
    2ecc:	00000ab4 			; <UNDEFINED> instruction: 0x00000ab4
    2ed0:	000008cf 	andeq	r0, r0, pc, asr #17
    2ed4:	00008e58 	andeq	r8, r0, r8, asr lr
    2ed8:	00000088 	andeq	r0, r0, r8, lsl #1
    2edc:	0000097c 	andeq	r0, r0, ip, ror r9
    2ee0:	69050402 	stmdbvs	r5, {r1, sl}
    2ee4:	0300746e 	movweq	r7, #1134	; 0x46e
    2ee8:	00bc0704 	adcseq	r0, ip, r4, lsl #14
    2eec:	01030000 	mrseq	r0, (UNDEF: 3)
    2ef0:	00001406 	andeq	r1, r0, r6, lsl #8
    2ef4:	05020300 	streq	r0, [r2, #-768]	; 0x300
    2ef8:	00000073 	andeq	r0, r0, r3, ror r0
    2efc:	55050403 	strpl	r0, [r5, #-1027]	; 0x403
    2f00:	03000001 	movweq	r0, #1
    2f04:	01500508 	cmpeq	r0, r8, lsl #10
    2f08:	01030000 	mrseq	r0, (UNDEF: 3)
    2f0c:	00001208 	andeq	r1, r0, r8, lsl #4
    2f10:	07020300 	streq	r0, [r2, -r0, lsl #6]
    2f14:	00000041 	andeq	r0, r0, r1, asr #32
    2f18:	b7070403 	strlt	r0, [r7, -r3, lsl #8]
    2f1c:	03000000 	movweq	r0, #0
    2f20:	00b20708 	adcseq	r0, r2, r8, lsl #14
    2f24:	04030000 	streq	r0, [r3], #-0
    2f28:	00014707 	andeq	r4, r1, r7, lsl #14
    2f2c:	08010300 	stmdaeq	r1, {r8, r9}
    2f30:	0000001b 	andeq	r0, r0, fp, lsl r0
    2f34:	000ad304 	andeq	sp, sl, r4, lsl #6
    2f38:	58050100 	stmdapl	r5, {r8}
    2f3c:	1c00008e 	stcne	0, cr0, [r0], {142}	; 0x8e
    2f40:	01000000 	mrseq	r0, (UNDEF: 0)
    2f44:	00009e9c 	muleq	r0, ip, lr
    2f48:	0acd0500 	beq	ff344350 <__bss_end__+0xff33a438>
    2f4c:	05010000 	streq	r0, [r1, #-0]
    2f50:	0000002c 	andeq	r0, r0, ip, lsr #32
    2f54:	00000b3b 	andeq	r0, r0, fp, lsr fp
    2f58:	0a970600 	beq	fe5c4760 <__bss_end__+0xfe5ba848>
    2f5c:	11010000 	mrsne	r0, (UNDEF: 1)
    2f60:	0000002c 	andeq	r0, r0, ip, lsr #32
    2f64:	00008e74 	andeq	r8, r0, r4, ror lr
    2f68:	00000014 	andeq	r0, r0, r4, lsl r0
    2f6c:	00cb9c01 	sbceq	r9, fp, r1, lsl #24
    2f70:	80070000 	andhi	r0, r7, r0
    2f74:	ca00008e 	bgt	31b4 <_start-0x4e4c>
    2f78:	08000001 	stmdaeq	r0, {r0}
    2f7c:	0c055001 	stceq	0, cr5, [r5], {1}
    2f80:	20003004 	andcs	r3, r0, r4
    2f84:	e0060000 	and	r0, r6, r0
    2f88:	0100000a 	tsteq	r0, sl
    2f8c:	00002c16 	andeq	r2, r0, r6, lsl ip
    2f90:	008e8800 	addeq	r8, lr, r0, lsl #16
    2f94:	00000c00 	andeq	r0, r0, r0, lsl #24
    2f98:	f99c0100 			; <UNDEFINED> instruction: 0xf99c0100
    2f9c:	09000000 	stmdbeq	r0, {}	; <UNPREDICTABLE>
    2fa0:	1a010075 	bne	4317c <__bss_end__+0x39264>
    2fa4:	0000002c 	andeq	r0, r0, ip, lsr #32
    2fa8:	900a5001 	andls	r5, sl, r1
    2fac:	9e00008e 	cdpls	0, 0, cr0, cr0, cr14, {4}
    2fb0:	00000000 	andeq	r0, r0, r0
    2fb4:	00009404 	andeq	r9, r0, r4, lsl #8
    2fb8:	941f0100 	ldrls	r0, [pc], #-256	; 2fc0 <_start-0x5040>
    2fbc:	2400008e 	strcs	r0, [r0], #-142	; 0x8e
    2fc0:	01000000 	mrseq	r0, (UNDEF: 0)
    2fc4:	0001579c 	muleq	r1, ip, r7
    2fc8:	73750b00 	cmnvc	r5, #0, 22
    2fcc:	2c1f0100 	ldfcss	f0, [pc], {-0}
    2fd0:	6f000000 	svcvs	0x00000000
    2fd4:	0900000b 	stmdbeq	r0, {r0, r1, r3}
    2fd8:	01006272 	tsteq	r0, r2, ror r2
    2fdc:	00002c20 	andeq	r2, r0, r0, lsr #24
    2fe0:	0c540100 	ldfeqe	f0, [r4], {-0}
    2fe4:	00008ea4 	andeq	r8, r0, r4, lsr #29
    2fe8:	00000010 	andeq	r0, r0, r0, lsl r0
    2fec:	0000014d 	andeq	r0, r0, sp, asr #2
    2ff0:	0061720d 	rsbeq	r7, r1, sp, lsl #4
    2ff4:	002c2201 	eoreq	r2, ip, r1, lsl #4
    2ff8:	0b8d0000 	bleq	fe343000 <__bss_end__+0xfe3390e8>
    2ffc:	a80a0000 	stmdage	sl, {}	; <UNPREDICTABLE>
    3000:	cb00008e 	blgt	3240 <_start-0x4dc0>
    3004:	00000000 	andeq	r0, r0, r0
    3008:	008ea00a 	addeq	sl, lr, sl
    300c:	0000cb00 	andeq	ip, r0, r0, lsl #22
    3010:	20040000 	andcs	r0, r4, r0
    3014:	01000000 	mrseq	r0, (UNDEF: 0)
    3018:	008eb828 	addeq	fp, lr, r8, lsr #16
    301c:	00001400 	andeq	r1, r0, r0, lsl #8
    3020:	909c0100 	addsls	r0, ip, r0, lsl #2
    3024:	0b000001 	bleq	3030 <_start-0x4fd0>
    3028:	0100736d 	tsteq	r0, sp, ror #6
    302c:	00002c28 	andeq	r2, r0, r8, lsr #24
    3030:	000ba000 	andeq	sl, fp, r0
    3034:	8ec80700 	cdphi	7, 12, cr0, cr8, cr0, {0}
    3038:	00f90000 	rscseq	r0, r9, r0
    303c:	01080000 	mrseq	r0, (UNDEF: 8)
    3040:	01f30750 	mvnseq	r0, r0, asr r7
    3044:	03e80a50 	mvneq	r0, #80, 20	; 0x50000
    3048:	0400001e 	streq	r0, [r0], #-30
    304c:	00000aaa 	andeq	r0, r0, sl, lsr #21
    3050:	8ecc2b01 	vdivhi.f64	d18, d12, d1
    3054:	00140000 	andseq	r0, r4, r0
    3058:	9c010000 	stcls	0, cr0, [r1], {-0}
    305c:	000001ca 	andeq	r0, r0, sl, asr #3
    3060:	6365730b 	cmnvs	r5, #738197504	; 0x2c000000
    3064:	2c2b0100 	stfcss	f0, [fp], #-0
    3068:	c1000000 	mrsgt	r0, (UNDEF: 0)
    306c:	0700000b 	streq	r0, [r0, -fp]
    3070:	00008edc 	ldrdeq	r8, [r0], -ip
    3074:	00000157 	andeq	r0, r0, r7, asr r1
    3078:	07500108 	ldrbeq	r0, [r0, -r8, lsl #2]
    307c:	0a5001f3 	beq	1403850 <__bss_end__+0x13f9938>
    3080:	001e03e8 	andseq	r0, lr, r8, ror #7
    3084:	0ac70e00 	beq	ff1c688c <__bss_end__+0xff1bc974>
    3088:	a8020000 	stmdage	r2, {}	; <UNPREDICTABLE>
    308c:	0000002c 	andeq	r0, r0, ip, lsr #32
    3090:	00002c0f 	andeq	r2, r0, pc, lsl #24
    3094:	82000000 	andhi	r0, r0, #0
    3098:	04000008 	streq	r0, [r0], #-8
    309c:	000d0400 	andeq	r0, sp, r0, lsl #8
    30a0:	64010400 	strvs	r0, [r1], #-1024	; 0x400
    30a4:	01000008 	tsteq	r0, r8
    30a8:	00000b39 	andeq	r0, r0, r9, lsr fp
    30ac:	000008cf 	andeq	r0, r0, pc, asr #17
    30b0:	00008ee0 	andeq	r8, r0, r0, ror #29
    30b4:	000005a0 	andeq	r0, r0, r0, lsr #11
    30b8:	00000a23 	andeq	r0, r0, r3, lsr #20
    30bc:	b2070802 	andlt	r0, r7, #131072	; 0x20000
    30c0:	02000000 	andeq	r0, r0, #0
    30c4:	00bc0704 	adcseq	r0, ip, r4, lsl #14
    30c8:	01020000 	mrseq	r0, (UNDEF: 2)
    30cc:	00001406 	andeq	r1, r0, r6, lsl #8
    30d0:	05020200 	streq	r0, [r2, #-512]	; 0x200
    30d4:	00000073 	andeq	r0, r0, r3, ror r0
    30d8:	55050402 	strpl	r0, [r5, #-1026]	; 0x402
    30dc:	02000001 	andeq	r0, r0, #1
    30e0:	01500508 	cmpeq	r0, r8, lsl #10
    30e4:	01020000 	mrseq	r0, (UNDEF: 2)
    30e8:	00001208 	andeq	r1, r0, r8, lsl #4
    30ec:	07020200 	streq	r0, [r2, -r0, lsl #4]
    30f0:	00000041 	andeq	r0, r0, r1, asr #32
    30f4:	b7070402 	strlt	r0, [r7, -r2, lsl #8]
    30f8:	03000000 	movweq	r0, #0
    30fc:	6e690504 	cdpvs	5, 6, cr0, cr9, cr4, {0}
    3100:	04020074 	streq	r0, [r2], #-116	; 0x74
    3104:	00014707 	andeq	r4, r1, r7, lsl #14
    3108:	08010200 	stmdaeq	r1, {r9}
    310c:	0000001b 	andeq	r0, r0, fp, lsl r0
    3110:	0c020104 	stfeqs	f0, [r2], {4}
    3114:	000000b2 	strheq	r0, [r0], -r2
    3118:	0002d605 	andeq	sp, r2, r5, lsl #12
    311c:	65050000 	strvs	r0, [r5, #-0]
    3120:	01000007 	tsteq	r0, r7
    3124:	0007a705 	andeq	sl, r7, r5, lsl #14
    3128:	25050400 	strcs	r0, [r5, #-1024]	; 0x400
    312c:	05000003 	streq	r0, [r0, #-3]
    3130:	00054f05 	andeq	r4, r5, r5, lsl #30
    3134:	c4050600 	strgt	r0, [r5], #-1536	; 0x600
    3138:	07000007 	streq	r0, [r0, -r7]
    313c:	0007d305 	andeq	sp, r7, r5, lsl #6
    3140:	e2050300 	and	r0, r5, #0, 6
    3144:	02000007 	andeq	r0, r0, #7
    3148:	0c980600 	ldceq	6, cr0, [r8], {0}
    314c:	15020000 	strne	r0, [r2, #-0]
    3150:	00000079 	andeq	r0, r0, r9, ror r0
    3154:	000c7207 	andeq	r7, ip, r7, lsl #4
    3158:	e03f0100 	eors	r0, pc, r0, lsl #2
    315c:	d400008e 	strle	r0, [r0], #-142	; 0x8e
    3160:	01000000 	mrseq	r0, (UNDEF: 0)
    3164:	0001339c 	muleq	r1, ip, r3
    3168:	69700800 	ldmdbvs	r0!, {fp}^
    316c:	3f01006e 	svccc	0x0001006e
    3170:	0000002c 	andeq	r0, r0, ip, lsr #32
    3174:	00000be2 	andeq	r0, r0, r2, ror #23
    3178:	000b7509 	andeq	r7, fp, r9, lsl #10
    317c:	33470100 	movtcc	r0, #28928	; 0x7100
    3180:	00000001 	andeq	r0, r0, r1
    3184:	0900000c 	stmdbeq	r0, {r2, r3}
    3188:	00000ca4 	andeq	r0, r0, r4, lsr #25
    318c:	002c4901 	eoreq	r4, ip, r1, lsl #18
    3190:	0c550000 	mraeq	r0, r5, acc0
    3194:	12090000 	andne	r0, r9, #0
    3198:	0100000c 	tsteq	r0, ip
    319c:	00002c57 	andeq	r2, r0, r7, asr ip
    31a0:	000e2100 	andeq	r2, lr, r0, lsl #2
    31a4:	8f740a00 	svchi	0x00740a00
    31a8:	08410000 	stmdaeq	r1, {}^	; <UNPREDICTABLE>
    31ac:	01220000 	teqeq	r2, r0
    31b0:	010b0000 	mrseq	r0, (UNDEF: 11)
    31b4:	00750250 	rsbseq	r0, r5, r0, asr r2
    31b8:	8fa80c00 	svchi	0x00a80c00
    31bc:	08620000 	stmdaeq	r2!, {}^	; <UNPREDICTABLE>
    31c0:	010b0000 	mrseq	r0, (UNDEF: 11)
    31c4:	00750250 	rsbseq	r0, r5, r0, asr r2
    31c8:	040d0000 	streq	r0, [sp], #-0
    31cc:	00000139 	andeq	r0, r0, r9, lsr r1
    31d0:	00002c0e 	andeq	r2, r0, lr, lsl #24
    31d4:	0c580700 	mrrceq	7, 0, r0, r8, cr0
    31d8:	60010000 	andvs	r0, r1, r0
    31dc:	00008fb4 			; <UNDEFINED> instruction: 0x00008fb4
    31e0:	00000038 	andeq	r0, r0, r8, lsr r0
    31e4:	01969c01 	orrseq	r9, r6, r1, lsl #24
    31e8:	70080000 	andvc	r0, r8, r0
    31ec:	01006e69 	tsteq	r0, r9, ror #28
    31f0:	00002c60 	andeq	r2, r0, r0, ror #24
    31f4:	000e5100 	andeq	r5, lr, r0, lsl #2
    31f8:	0b750900 	bleq	1d45600 <__bss_end__+0x1d3b6e8>
    31fc:	67010000 	strvs	r0, [r1, -r0]
    3200:	00000133 	andeq	r0, r0, r3, lsr r1
    3204:	00000e72 	andeq	r0, r0, r2, ror lr
    3208:	000c1209 	andeq	r1, ip, r9, lsl #4
    320c:	2c680100 	stfcse	f0, [r8], #-0
    3210:	a8000000 	stmdage	r0, {}	; <UNPREDICTABLE>
    3214:	0c00000e 	stceq	0, cr0, [r0], {14}
    3218:	00008fe4 	andeq	r8, r0, r4, ror #31
    321c:	00000862 	andeq	r0, r0, r2, ror #16
    3220:	0751010b 	ldrbeq	r0, [r1, -fp, lsl #2]
    3224:	5001f331 	andpl	pc, r1, r1, lsr r3	; <UNPREDICTABLE>
    3228:	00241a4f 	eoreq	r1, r4, pc, asr #20
    322c:	0b2c0700 	bleq	b04e34 <__bss_end__+0xafaf1c>
    3230:	7b010000 	blvc	43238 <__bss_end__+0x39320>
    3234:	00008fec 	andeq	r8, r0, ip, ror #31
    3238:	00000038 	andeq	r0, r0, r8, lsr r0
    323c:	01ee9c01 	mvneq	r9, r1, lsl #24
    3240:	70080000 	andvc	r0, r8, r0
    3244:	01006e69 	tsteq	r0, r9, ror #28
    3248:	00002c7b 	andeq	r2, r0, fp, ror ip
    324c:	000ee800 	andeq	lr, lr, r0, lsl #16
    3250:	0b750900 	bleq	1d45658 <__bss_end__+0x1d3b740>
    3254:	81010000 	mrshi	r0, (UNDEF: 1)
    3258:	00000133 	andeq	r0, r0, r3, lsr r1
    325c:	00000f09 	andeq	r0, r0, r9, lsl #30
    3260:	000c1209 	andeq	r1, ip, r9, lsl #4
    3264:	2c820100 	stfcss	f0, [r2], {0}
    3268:	3f000000 	svccc	0x00000000
    326c:	0c00000f 	stceq	0, cr0, [r0], {15}
    3270:	0000901c 	andeq	r9, r0, ip, lsl r0
    3274:	00000862 	andeq	r0, r0, r2, ror #16
    3278:	0751010b 	ldrbeq	r0, [r1, -fp, lsl #2]
    327c:	5001f331 	andpl	pc, r1, r1, lsr r3	; <UNPREDICTABLE>
    3280:	00241a4f 	eoreq	r1, r4, pc, asr #20
    3284:	0c2f0700 	stceq	7, cr0, [pc], #-0	; 328c <_start-0x4d74>
    3288:	95010000 	strls	r0, [r1, #-0]
    328c:	00009024 	andeq	r9, r0, r4, lsr #32
    3290:	000000cc 	andeq	r0, r0, ip, asr #1
    3294:	02649c01 	rsbeq	r9, r4, #256	; 0x100
    3298:	70080000 	andvc	r0, r8, r0
    329c:	01006e69 	tsteq	r0, r9, ror #28
    32a0:	00002c95 	muleq	r0, r5, ip
    32a4:	000f7f00 	andeq	r7, pc, r0, lsl #30
    32a8:	0b750900 	bleq	1d456b0 <__bss_end__+0x1d3b798>
    32ac:	9b010000 	blls	432b4 <__bss_end__+0x3939c>
    32b0:	00000133 	andeq	r0, r0, r3, lsr r1
    32b4:	00000f9d 	muleq	r0, sp, pc	; <UNPREDICTABLE>
    32b8:	000ca409 	andeq	sl, ip, r9, lsl #8
    32bc:	2c9d0100 	ldfcss	f0, [sp], {0}
    32c0:	f2000000 	vhadd.s8	d0, d0, d0
    32c4:	0900000f 	stmdbeq	r0, {r0, r1, r2, r3}
    32c8:	00000c12 	andeq	r0, r0, r2, lsl ip
    32cc:	002cab01 	eoreq	sl, ip, r1, lsl #22
    32d0:	11be0000 			; <UNDEFINED> instruction: 0x11be0000
    32d4:	b80a0000 	stmdalt	sl, {}	; <UNPREDICTABLE>
    32d8:	41000090 	swpmi	r0, r0, [r0]	; <UNPREDICTABLE>
    32dc:	53000008 	movwpl	r0, #8
    32e0:	0b000002 	bleq	32f0 <_start-0x4d10>
    32e4:	75025001 	strvc	r5, [r2, #-1]
    32e8:	e40c0000 	str	r0, [ip], #-0
    32ec:	62000090 	andvs	r0, r0, #144	; 0x90
    32f0:	0b000008 	bleq	3318 <_start-0x4ce8>
    32f4:	75025001 	strvc	r5, [r2, #-1]
    32f8:	0f000000 	svceq	0x00000000
    32fc:	00000bb8 			; <UNDEFINED> instruction: 0x00000bb8
    3300:	0064b201 	rsbeq	fp, r4, r1, lsl #4
    3304:	90f00000 	rscsls	r0, r0, r0
    3308:	004c0000 	subeq	r0, ip, r0
    330c:	9c010000 	stcls	0, cr0, [r1], {-0}
    3310:	000002ac 	andeq	r0, r0, ip, lsr #5
    3314:	6e697008 	cdpvs	0, 6, cr7, cr9, cr8, {0}
    3318:	2cb20100 	ldfcss	f0, [r2]
    331c:	dc000000 	stcle	0, cr0, [r0], {-0}
    3320:	10000011 	andne	r0, r0, r1, lsl r0
    3324:	b8010076 	stmdalt	r1, {r1, r2, r4, r5, r6}
    3328:	0000002c 	andeq	r0, r0, ip, lsr #32
    332c:	00001234 	andeq	r1, r0, r4, lsr r2
    3330:	00911011 	addseq	r1, r1, r1, lsl r0
    3334:	00084100 	andeq	r4, r8, r0, lsl #2
    3338:	91201100 	teqls	r0, r0, lsl #2
    333c:	08410000 	stmdaeq	r1, {}^	; <UNPREDICTABLE>
    3340:	07000000 	streq	r0, [r0, -r0]
    3344:	00000c1a 	andeq	r0, r0, sl, lsl ip
    3348:	913cc401 	teqls	ip, r1, lsl #8
    334c:	00240000 	eoreq	r0, r4, r0
    3350:	9c010000 	stcls	0, cr0, [r1], {-0}
    3354:	000002fc 	strdeq	r0, [r0], -ip
    3358:	6e697008 	cdpvs	0, 6, cr7, cr9, cr8, {0}
    335c:	2cc40100 	stfcse	f0, [r4], {0}
    3360:	6a000000 	bvs	3368 <_start-0x4c98>
    3364:	08000012 	stmdaeq	r0, {r1, r4}
    3368:	c4010076 	strgt	r0, [r1], #-118	; 0x76
    336c:	0000002c 	andeq	r0, r0, ip, lsr #32
    3370:	000012a4 	andeq	r1, r0, r4, lsr #5
    3374:	0091540a 	addseq	r5, r1, sl, lsl #8
    3378:	00013e00 	andeq	r3, r1, r0, lsl #28
    337c:	0002f200 	andeq	pc, r2, r0, lsl #4
    3380:	50010b00 	andpl	r0, r1, r0, lsl #22
    3384:	5001f303 	andpl	pc, r1, r3, lsl #6
    3388:	915c1100 	cmpls	ip, r0, lsl #2
    338c:	01960000 	orrseq	r0, r6, r0
    3390:	07000000 	streq	r0, [r0, -r0]
    3394:	0000037f 	andeq	r0, r0, pc, ror r3
    3398:	9160d001 	cmnls	r0, r1
    339c:	00d80000 	sbcseq	r0, r8, r0
    33a0:	9c010000 	stcls	0, cr0, [r1], {-0}
    33a4:	00000381 	andeq	r0, r0, r1, lsl #7
    33a8:	6e697008 	cdpvs	0, 6, cr7, cr9, cr8, {0}
    33ac:	2cd00100 	ldfcse	f0, [r0], {0}
    33b0:	de000000 	cdple	0, 0, cr0, cr0, cr0, {0}
    33b4:	12000012 	andne	r0, r0, #18
    33b8:	00000794 	muleq	r0, r4, r7
    33bc:	00b2d001 	adcseq	sp, r2, r1
    33c0:	12fc0000 	rscsne	r0, ip, #0
    33c4:	75090000 	strvc	r0, [r9, #-0]
    33c8:	0100000b 	tsteq	r0, fp
    33cc:	000133d8 	ldrdeq	r3, [r1], -r8
    33d0:	00131d00 	andseq	r1, r3, r0, lsl #26
    33d4:	0ca40900 	stceq	9, cr0, [r4]
    33d8:	d9010000 	stmdble	r1, {}	; <UNPREDICTABLE>
    33dc:	0000002c 	andeq	r0, r0, ip, lsr #32
    33e0:	00001372 	andeq	r1, r0, r2, ror r3
    33e4:	000c1209 	andeq	r1, ip, r9, lsl #4
    33e8:	2ce70100 	stfcse	f0, [r7]
    33ec:	3e000000 	cdpcc	0, 0, cr0, cr0, cr0, {0}
    33f0:	0a000015 	beq	344c <_start-0x4bb4>
    33f4:	000091fc 	strdeq	r9, [r0], -ip
    33f8:	00000841 	andeq	r0, r0, r1, asr #16
    33fc:	00000370 	andeq	r0, r0, r0, ror r3
    3400:	0250010b 	subseq	r0, r0, #-1073741822	; 0xc0000002
    3404:	0c000076 	stceq	0, cr0, [r0], {118}	; 0x76
    3408:	0000922c 	andeq	r9, r0, ip, lsr #4
    340c:	00000862 	andeq	r0, r0, r2, ror #16
    3410:	0250010b 	subseq	r0, r0, #-1073741822	; 0xc0000002
    3414:	00000076 	andeq	r0, r0, r6, ror r0
    3418:	000c3e07 	andeq	r3, ip, r7, lsl #28
    341c:	38f00100 	ldmcc	r0!, {r8}^
    3420:	38000092 	stmdacc	r0, {r1, r4, r7}
    3424:	01000000 	mrseq	r0, (UNDEF: 0)
    3428:	0003d99c 	muleq	r3, ip, r9
    342c:	69700800 	ldmdbvs	r0!, {fp}^
    3430:	f001006e 			; <UNDEFINED> instruction: 0xf001006e
    3434:	0000002c 	andeq	r0, r0, ip, lsr #32
    3438:	0000156f 	andeq	r1, r0, pc, ror #10
    343c:	000b7509 	andeq	r7, fp, r9, lsl #10
    3440:	33f60100 	mvnscc	r0, #0, 2
    3444:	90000001 	andls	r0, r0, r1
    3448:	09000015 	stmdbeq	r0, {r0, r2, r4}
    344c:	00000c12 	andeq	r0, r0, r2, lsl ip
    3450:	002cf701 	eoreq	pc, ip, r1, lsl #14
    3454:	15c60000 	strbne	r0, [r6]
    3458:	680c0000 	stmdavs	ip, {}	; <UNPREDICTABLE>
    345c:	62000092 	andvs	r0, r0, #146	; 0x92
    3460:	0b000008 	bleq	3488 <_start-0x4b78>
    3464:	31075101 	tstcc	r7, r1, lsl #2
    3468:	4f5001f3 	svcmi	0x005001f3
    346c:	0000241a 	andeq	r2, r0, sl, lsl r4
    3470:	000b2013 	andeq	r2, fp, r3, lsl r0
    3474:	011e0100 	tsteq	lr, r0, lsl #2
    3478:	00000064 	andeq	r0, r0, r4, rrx
    347c:	00009270 	andeq	r9, r0, r0, ror r2
    3480:	0000002c 	andeq	r0, r0, ip, lsr #32
    3484:	040d9c01 	streq	r9, [sp], #-3073	; 0xc01
    3488:	23140000 	tstcs	r4, #0
    348c:	0100000b 	tsteq	r0, fp
    3490:	002c011e 	eoreq	r0, ip, lr, lsl r1
    3494:	16060000 	strne	r0, [r6], -r0
    3498:	80110000 	andshi	r0, r1, r0
    349c:	41000092 	swpmi	r0, r2, [r0]	; <UNPREDICTABLE>
    34a0:	00000008 	andeq	r0, r0, r8
    34a4:	000bc215 	andeq	ip, fp, r5, lsl r2
    34a8:	012d0100 	teqeq	sp, r0, lsl #2
    34ac:	0000929c 	muleq	r0, ip, r2
    34b0:	00000084 	andeq	r0, r0, r4, lsl #1
    34b4:	04d19c01 	ldrbeq	r9, [r1], #3073	; 0xc01
    34b8:	70160000 	andsvc	r0, r6, r0
    34bc:	01006e69 	tsteq	r0, r9, ror #28
    34c0:	002c012d 	eoreq	r0, ip, sp, lsr #2
    34c4:	16270000 	strtne	r0, [r7], -r0
    34c8:	47170000 	ldrmi	r0, [r7, -r0]
    34cc:	0100000b 	tsteq	r0, fp
    34d0:	002c013f 	eoreq	r0, ip, pc, lsr r1
    34d4:	16530000 	ldrbne	r0, [r3], -r0
    34d8:	b8180000 	ldmdalt	r8, {}	; <UNPREDICTABLE>
    34dc:	1c000092 	stcne	0, cr0, [r0], {146}	; 0x92
    34e0:	73000000 	movwvc	r0, #0
    34e4:	17000004 	strne	r0, [r0, -r4]
    34e8:	00000c12 	andeq	r0, r0, r2, lsl ip
    34ec:	2c013601 	stccs	6, cr3, [r1], {1}
    34f0:	71000000 	mrsvc	r0, (UNDEF: 0)
    34f4:	11000016 	tstne	r0, r6, lsl r0
    34f8:	000092c4 	andeq	r9, r0, r4, asr #5
    34fc:	00000841 	andeq	r0, r0, r1, asr #16
    3500:	0092d411 	addseq	sp, r2, r1, lsl r4
    3504:	00086200 	andeq	r6, r8, r0, lsl #4
    3508:	d8180000 	ldmdale	r8, {}	; <UNPREDICTABLE>
    350c:	20000092 	mulcs	r0, r2, r0
    3510:	a3000000 	movwge	r0, #0
    3514:	17000004 	strne	r0, [r0, -r4]
    3518:	00000c12 	andeq	r0, r0, r2, lsl ip
    351c:	2c013a01 	stccs	10, cr3, [r1], {1}
    3520:	8f000000 	svchi	0x00000000
    3524:	11000016 	tstne	r0, r6, lsl r0
    3528:	000092e4 	andeq	r9, r0, r4, ror #5
    352c:	00000841 	andeq	r0, r0, r1, asr #16
    3530:	0092f811 	addseq	pc, r2, r1, lsl r8	; <UNPREDICTABLE>
    3534:	00086200 	andeq	r6, r8, r0, lsl #4
    3538:	b0110000 	andslt	r0, r1, r0
    353c:	7e000092 	mcrvc	0, 0, r0, cr0, cr2, {4}
    3540:	11000008 	tstne	r0, r8
    3544:	000092fc 	strdeq	r9, [r0], -ip
    3548:	0000087e 	andeq	r0, r0, lr, ror r8
    354c:	00930811 	addseq	r0, r3, r1, lsl r8
    3550:	00084100 	andeq	r4, r8, r0, lsl #2
    3554:	93141100 	tstls	r4, #0, 2
    3558:	08620000 	stmdaeq	r2!, {}^	; <UNPREDICTABLE>
    355c:	18110000 	ldmdane	r1, {}	; <UNPREDICTABLE>
    3560:	7e000093 	mcrvc	0, 0, r0, cr0, cr3, {4}
    3564:	00000008 	andeq	r0, r0, r8
    3568:	000c8215 	andeq	r8, ip, r5, lsl r2
    356c:	014a0100 	mrseq	r0, (UNDEF: 90)
    3570:	00009320 	andeq	r9, r0, r0, lsr #6
    3574:	00000084 	andeq	r0, r0, r4, lsl #1
    3578:	05959c01 	ldreq	r9, [r5, #3073]	; 0xc01
    357c:	70160000 	andsvc	r0, r6, r0
    3580:	01006e69 	tsteq	r0, r9, ror #28
    3584:	002c014a 	eoreq	r0, ip, sl, asr #2
    3588:	16ad0000 	strtne	r0, [sp], r0
    358c:	47170000 	ldrmi	r0, [r7, -r0]
    3590:	0100000b 	tsteq	r0, fp
    3594:	002c015b 	eoreq	r0, ip, fp, asr r1
    3598:	16d90000 	ldrbne	r0, [r9], r0
    359c:	3c180000 	ldccc	0, cr0, [r8], {-0}
    35a0:	1c000093 	stcne	0, cr0, [r0], {147}	; 0x93
    35a4:	37000000 	strcc	r0, [r0, -r0]
    35a8:	17000005 	strne	r0, [r0, -r5]
    35ac:	00000c12 	andeq	r0, r0, r2, lsl ip
    35b0:	2c015201 	sfmcs	f5, 4, [r1], {1}
    35b4:	f7000000 			; <UNDEFINED> instruction: 0xf7000000
    35b8:	11000016 	tstne	r0, r6, lsl r0
    35bc:	00009348 	andeq	r9, r0, r8, asr #6
    35c0:	00000841 	andeq	r0, r0, r1, asr #16
    35c4:	00935811 	addseq	r5, r3, r1, lsl r8
    35c8:	00086200 	andeq	r6, r8, r0, lsl #4
    35cc:	5c180000 	ldcpl	0, cr0, [r8], {-0}
    35d0:	20000093 	mulcs	r0, r3, r0
    35d4:	67000000 	strvs	r0, [r0, -r0]
    35d8:	17000005 	strne	r0, [r0, -r5]
    35dc:	00000c12 	andeq	r0, r0, r2, lsl ip
    35e0:	2c015601 	stccs	6, cr5, [r1], {1}
    35e4:	15000000 	strne	r0, [r0, #-0]
    35e8:	11000017 	tstne	r0, r7, lsl r0
    35ec:	00009368 	andeq	r9, r0, r8, ror #6
    35f0:	00000841 	andeq	r0, r0, r1, asr #16
    35f4:	00937c11 	addseq	r7, r3, r1, lsl ip
    35f8:	00086200 	andeq	r6, r8, r0, lsl #4
    35fc:	34110000 	ldrcc	r0, [r1], #-0
    3600:	7e000093 	mcrvc	0, 0, r0, cr0, cr3, {4}
    3604:	11000008 	tstne	r0, r8
    3608:	00009380 	andeq	r9, r0, r0, lsl #7
    360c:	0000087e 	andeq	r0, r0, lr, ror r8
    3610:	00938c11 	addseq	r8, r3, r1, lsl ip
    3614:	00084100 	andeq	r4, r8, r0, lsl #2
    3618:	93981100 	orrsls	r1, r8, #0, 2
    361c:	08620000 	stmdaeq	r2!, {}^	; <UNPREDICTABLE>
    3620:	9c110000 	ldcls	0, cr0, [r1], {-0}
    3624:	7e000093 	mcrvc	0, 0, r0, cr0, cr3, {4}
    3628:	00000008 	andeq	r0, r0, r8
    362c:	000aef13 	andeq	lr, sl, r3, lsl pc
    3630:	01650100 	cmneq	r5, r0, lsl #2
    3634:	00000064 	andeq	r0, r0, r4, rrx
    3638:	000093a4 	andeq	r9, r0, r4, lsr #7
    363c:	00000084 	andeq	r0, r0, r4, lsl #1
    3640:	063b9c01 	ldrteq	r9, [fp], -r1, lsl #24
    3644:	70160000 	andsvc	r0, r6, r0
    3648:	01006e69 	tsteq	r0, r9, ror #28
    364c:	002c0165 	eoreq	r0, ip, r5, ror #2
    3650:	17330000 	ldrne	r0, [r3, -r0]!
    3654:	c0180000 	andsgt	r0, r8, r0
    3658:	24000093 	strcs	r0, [r0], #-147	; 0x93
    365c:	ef000000 	svc	0x00000000
    3660:	17000005 	strne	r0, [r0, -r5]
    3664:	00000b5e 	andeq	r0, r0, lr, asr fp
    3668:	2c016c01 	stccs	12, cr6, [r1], {1}
    366c:	75000000 	strvc	r0, [r0, #-0]
    3670:	11000017 	tstne	r0, r7, lsl r0
    3674:	000093cc 	andeq	r9, r0, ip, asr #7
    3678:	00000841 	andeq	r0, r0, r1, asr #16
    367c:	0093dc11 	addseq	sp, r3, r1, lsl ip
    3680:	00087e00 	andeq	r7, r8, r0, lsl #28
    3684:	e4180000 	ldr	r0, [r8], #-0
    3688:	2c000093 	stccs	0, cr0, [r0], {147}	; 0x93
    368c:	28000000 	stmdacs	r0, {}	; <UNPREDICTABLE>
    3690:	17000006 	strne	r0, [r0, -r6]
    3694:	00000b5e 	andeq	r0, r0, lr, asr fp
    3698:	2c016f01 	stccs	15, cr6, [r1], {1}
    369c:	8f000000 	svchi	0x00000000
    36a0:	11000017 	tstne	r0, r7, lsl r0
    36a4:	000093f0 	strdeq	r9, [r0], -r0
    36a8:	00000841 	andeq	r0, r0, r1, asr #16
    36ac:	0093fc11 	addseq	pc, r3, r1, lsl ip	; <UNPREDICTABLE>
    36b0:	00087e00 	andeq	r7, r8, r0, lsl #28
    36b4:	94081100 	strls	r1, [r8], #-256	; 0x100
    36b8:	087e0000 	ldmdaeq	lr!, {}^	; <UNPREDICTABLE>
    36bc:	11000000 	mrsne	r0, (UNDEF: 0)
    36c0:	000093b8 			; <UNDEFINED> instruction: 0x000093b8
    36c4:	0000087e 	andeq	r0, r0, lr, ror r8
    36c8:	00941411 	addseq	r1, r4, r1, lsl r4
    36cc:	00087e00 	andeq	r7, r8, r0, lsl #28
    36d0:	e5150000 	ldr	r0, [r5, #-0]
    36d4:	0100000b 	tsteq	r0, fp
    36d8:	94280178 	strtls	r0, [r8], #-376	; 0x178
    36dc:	00580000 	subseq	r0, r8, r0
    36e0:	9c010000 	stcls	0, cr0, [r1], {-0}
    36e4:	000006a0 	andeq	r0, r0, r0, lsr #13
    36e8:	6e697016 	mcrvs	0, 3, r7, cr9, cr6, {0}
    36ec:	01780100 	cmneq	r8, r0, lsl #2
    36f0:	0000002c 	andeq	r0, r0, ip, lsr #32
    36f4:	000017a2 	andeq	r1, r0, r2, lsr #15
    36f8:	00943c11 	addseq	r3, r4, r1, lsl ip
    36fc:	00087e00 	andeq	r7, r8, r0, lsl #28
    3700:	94580a00 	ldrbls	r0, [r8], #-2560	; 0xa00
    3704:	08620000 	stmdaeq	r2!, {}^	; <UNPREDICTABLE>
    3708:	06800000 	streq	r0, [r0], r0
    370c:	010b0000 	mrseq	r0, (UNDEF: 11)
    3710:	74310451 	ldrtvc	r0, [r1], #-1105	; 0x451
    3714:	0a002400 	beq	c71c <__bss_end__+0x2804>
    3718:	00009474 	andeq	r9, r0, r4, ror r4
    371c:	00000862 	andeq	r0, r0, r2, ror #16
    3720:	00000696 	muleq	r0, r6, r6
    3724:	0451010b 	ldrbeq	r0, [r1], #-267	; 0x10b
    3728:	24007431 	strcs	r7, [r0], #-1073	; 0x431
    372c:	94781100 	ldrbtls	r1, [r8], #-256	; 0x100
    3730:	087e0000 	ldmdaeq	lr!, {}^	; <UNPREDICTABLE>
    3734:	19000000 	stmdbne	r0, {}	; <UNPREDICTABLE>
    3738:	00000ba6 	andeq	r0, r0, r6, lsr #23
    373c:	01332801 	teqeq	r3, r1, lsl #16
    3740:	03050000 	movweq	r0, #20480	; 0x5000
    3744:	0000969c 	muleq	r0, ip, r6
    3748:	000c2519 	andeq	r2, ip, r9, lsl r5
    374c:	33290100 	teqcc	r9, #0, 2
    3750:	05000001 	streq	r0, [r0, #-1]
    3754:	00969803 	addseq	r9, r6, r3, lsl #16
    3758:	0caf1900 	stceq	9, cr1, [pc]	; 3760 <_start-0x48a0>
    375c:	2a010000 	bcs	43764 <__bss_end__+0x3984c>
    3760:	00000133 	andeq	r0, r0, r3, lsr r1
    3764:	96940305 	ldrls	r0, [r4], r5, lsl #6
    3768:	7e190000 	cdpvc	0, 1, cr0, cr9, cr0, {0}
    376c:	0100000b 	tsteq	r0, fp
    3770:	0001332c 	andeq	r3, r1, ip, lsr #6
    3774:	40030500 	andmi	r0, r3, r0, lsl #10
    3778:	19000096 	stmdbne	r0, {r1, r2, r4, r7}
    377c:	00000b86 	andeq	r0, r0, r6, lsl #23
    3780:	01332d01 	teqeq	r3, r1, lsl #26
    3784:	03050000 	movweq	r0, #20480	; 0x5000
    3788:	00009644 	andeq	r9, r0, r4, asr #12
    378c:	000b0319 	andeq	r0, fp, r9, lsl r3
    3790:	332e0100 	teqcc	lr, #0, 2
    3794:	05000001 	streq	r0, [r0, #-1]
    3798:	00964803 	addseq	r4, r6, r3, lsl #16
    379c:	0b8e1900 	bleq	fe389ba4 <__bss_end__+0xfe37fc8c>
    37a0:	2f010000 	svccs	0x00010000
    37a4:	00000133 	andeq	r0, r0, r3, lsr r1
    37a8:	964c0305 	strbls	r0, [ip], -r5, lsl #6
    37ac:	96190000 	ldrls	r0, [r9], -r0
    37b0:	0100000b 	tsteq	r0, fp
    37b4:	00013330 	andeq	r3, r1, r0, lsr r3
    37b8:	50030500 	andpl	r0, r3, r0, lsl #10
    37bc:	19000096 	stmdbne	r0, {r1, r2, r4, r7}
    37c0:	00000b9e 	muleq	r0, lr, fp
    37c4:	01333101 	teqeq	r3, r1, lsl #2
    37c8:	03050000 	movweq	r0, #20480	; 0x5000
    37cc:	00009654 	andeq	r9, r0, r4, asr r6
    37d0:	000b5019 	andeq	r5, fp, r9, lsl r0
    37d4:	33330100 	teqcc	r3, #0, 2
    37d8:	05000001 	streq	r0, [r0, #-1]
    37dc:	00965803 	addseq	r5, r6, r3, lsl #16
    37e0:	0b571900 	bleq	15c9be8 <__bss_end__+0x15bfcd0>
    37e4:	34010000 	strcc	r0, [r1], #-0
    37e8:	00000133 	andeq	r0, r0, r3, lsr r1
    37ec:	965c0305 	ldrbls	r0, [ip], -r5, lsl #6
    37f0:	0b190000 	bleq	6437f8 <__bss_end__+0x6398e0>
    37f4:	0100000b 	tsteq	r0, fp
    37f8:	00013336 	andeq	r3, r1, r6, lsr r3
    37fc:	60030500 	andvs	r0, r3, r0, lsl #10
    3800:	19000096 	stmdbne	r0, {r1, r2, r4, r7}
    3804:	00000bb1 			; <UNDEFINED> instruction: 0x00000bb1
    3808:	01333701 	teqeq	r3, r1, lsl #14
    380c:	03050000 	movweq	r0, #20480	; 0x5000
    3810:	00009664 	andeq	r9, r0, r4, ror #12
    3814:	000b6719 	andeq	r6, fp, r9, lsl r7
    3818:	33390100 	teqcc	r9, #0, 2
    381c:	05000001 	streq	r0, [r0, #-1]
    3820:	00966803 	addseq	r6, r6, r3, lsl #16
    3824:	0b6e1900 	bleq	1b89c2c <__bss_end__+0x1b7fd14>
    3828:	3a010000 	bcc	43830 <__bss_end__+0x39918>
    382c:	00000133 	andeq	r0, r0, r3, lsr r1
    3830:	966c0305 	strbtls	r0, [ip], -r5, lsl #6
    3834:	f61a0000 			; <UNDEFINED> instruction: 0xf61a0000
    3838:	0100000b 	tsteq	r0, fp
    383c:	01330109 	teqeq	r3, r9, lsl #2
    3840:	03050000 	movweq	r0, #20480	; 0x5000
    3844:	00009690 	muleq	r0, r0, r6
    3848:	000c041a 	andeq	r0, ip, sl, lsl r4
    384c:	010a0100 	mrseq	r0, (UNDEF: 26)
    3850:	00000133 	andeq	r0, r0, r3, lsr r1
    3854:	96700305 	ldrbtls	r0, [r0], -r5, lsl #6
    3858:	4a1a0000 	bmi	683860 <__bss_end__+0x679948>
    385c:	0100000c 	tsteq	r0, ip
    3860:	0133010c 	teqeq	r3, ip, lsl #2
    3864:	03050000 	movweq	r0, #20480	; 0x5000
    3868:	00009688 	andeq	r9, r0, r8, lsl #13
    386c:	000c511a 	andeq	r5, ip, sl, lsl r1
    3870:	010d0100 	mrseq	r0, (UNDEF: 29)
    3874:	00000133 	andeq	r0, r0, r3, lsr r1
    3878:	968c0305 	strls	r0, [ip], r5, lsl #6
    387c:	d71a0000 	ldrle	r0, [sl, -r0]
    3880:	0100000b 	tsteq	r0, fp
    3884:	0133010f 	teqeq	r3, pc, lsl #2
    3888:	03050000 	movweq	r0, #20480	; 0x5000
    388c:	00009674 	andeq	r9, r0, r4, ror r6
    3890:	000bde1a 	andeq	sp, fp, sl, lsl lr
    3894:	01100100 	tsteq	r0, r0, lsl #2
    3898:	00000133 	andeq	r0, r0, r3, lsr r1
    389c:	96780305 	ldrbtls	r0, [r8], -r5, lsl #6
    38a0:	641a0000 	ldrvs	r0, [sl], #-0
    38a4:	0100000c 	tsteq	r0, ip
    38a8:	01330112 	teqeq	r3, r2, lsl r1
    38ac:	03050000 	movweq	r0, #20480	; 0x5000
    38b0:	00009680 	andeq	r9, r0, r0, lsl #13
    38b4:	000c6b1a 	andeq	r6, ip, sl, lsl fp
    38b8:	01130100 	tsteq	r3, r0, lsl #2
    38bc:	00000133 	andeq	r0, r0, r3, lsr r1
    38c0:	96840305 	strls	r0, [r4], r5, lsl #6
    38c4:	121a0000 	andsne	r0, sl, #0
    38c8:	0100000b 	tsteq	r0, fp
    38cc:	01330115 	teqeq	r3, r5, lsl r1
    38d0:	03050000 	movweq	r0, #20480	; 0x5000
    38d4:	0000967c 	andeq	r9, r0, ip, ror r6
    38d8:	0007801b 	andeq	r8, r7, fp, lsl r0
    38dc:	2c200100 	stfcss	f0, [r0], #-0
    38e0:	56000000 	strpl	r0, [r0], -r0
    38e4:	1c000008 	stcne	0, cr0, [r0], {8}
    38e8:	00000856 	andeq	r0, r0, r6, asr r8
    38ec:	5c040d00 	stcpl	13, cr0, [r4], {-0}
    38f0:	1d000008 	stcne	0, cr0, [r0, #-32]	; 0xffffffe0
    38f4:	00000861 	andeq	r0, r0, r1, ror #16
    38f8:	06d51f1e 			; <UNDEFINED> instruction: 0x06d51f1e
    38fc:	1e010000 	cdpne	0, 0, cr0, cr1, cr0, {0}
    3900:	00000878 	andeq	r0, r0, r8, ror r8
    3904:	0008781c 	andeq	r7, r8, ip, lsl r8
    3908:	002c1c00 	eoreq	r1, ip, r0, lsl #24
    390c:	0d000000 	stceq	0, cr0, [r0, #-0]
    3910:	00086104 	andeq	r6, r8, r4, lsl #2
    3914:	03cc2000 	biceq	r2, ip, #0
    3918:	8a030000 	bhi	c3920 <__bss_end__+0xb9a08>
    391c:	0003ff00 	andeq	pc, r3, r0, lsl #30
    3920:	de000400 	cfcpysle	mvf0, mvf0
    3924:	0400000e 	streq	r0, [r0], #-14
    3928:	00086401 	andeq	r6, r8, r1, lsl #8
    392c:	0d8a0100 	stfeqs	f0, [sl]
    3930:	08cf0000 	stmiaeq	pc, {}^	; <UNPREDICTABLE>
    3934:	94800000 	strls	r0, [r0], #0
    3938:	01540000 	cmpeq	r4, r0
    393c:	0ba60000 	bleq	fe983944 <__bss_end__+0xfe979a2c>
    3940:	04020000 	streq	r0, [r2], #-0
    3944:	746e6905 	strbtvc	r6, [lr], #-2309	; 0x905
    3948:	07040300 	streq	r0, [r4, -r0, lsl #6]
    394c:	000000bc 	strheq	r0, [r0], -ip
    3950:	14060103 	strne	r0, [r6], #-259	; 0x103
    3954:	03000000 	movweq	r0, #0
    3958:	00730502 	rsbseq	r0, r3, r2, lsl #10
    395c:	04030000 	streq	r0, [r3], #-0
    3960:	00015505 	andeq	r5, r1, r5, lsl #10
    3964:	05080300 	streq	r0, [r8, #-768]	; 0x300
    3968:	00000150 	andeq	r0, r0, r0, asr r1
    396c:	12080103 	andne	r0, r8, #-1073741824	; 0xc0000000
    3970:	03000000 	movweq	r0, #0
    3974:	00410702 	subeq	r0, r1, r2, lsl #14
    3978:	04030000 	streq	r0, [r3], #-0
    397c:	0000b707 	andeq	fp, r0, r7, lsl #14
    3980:	07080300 	streq	r0, [r8, -r0, lsl #6]
    3984:	000000b2 	strheq	r0, [r0], -r2
    3988:	47070403 	strmi	r0, [r7, -r3, lsl #8]
    398c:	03000001 	movweq	r0, #1
    3990:	001b0801 	andseq	r0, fp, r1, lsl #16
    3994:	01040000 	mrseq	r0, (UNDEF: 4)
    3998:	00b20c02 	adcseq	r0, r2, r2, lsl #24
    399c:	d6050000 	strle	r0, [r5], -r0
    39a0:	00000002 	andeq	r0, r0, r2
    39a4:	00076505 	andeq	r6, r7, r5, lsl #10
    39a8:	a7050100 	strge	r0, [r5, -r0, lsl #2]
    39ac:	04000007 	streq	r0, [r0], #-7
    39b0:	00032505 	andeq	r2, r3, r5, lsl #10
    39b4:	4f050500 	svcmi	0x00050500
    39b8:	06000005 	streq	r0, [r0], -r5
    39bc:	0007c405 	andeq	ip, r7, r5, lsl #8
    39c0:	d3050700 	movwle	r0, #22272	; 0x5700
    39c4:	03000007 	movweq	r0, #7
    39c8:	0007e205 	andeq	lr, r7, r5, lsl #4
    39cc:	06000200 	streq	r0, [r0], -r0, lsl #4
    39d0:	00000c98 	muleq	r0, r8, ip
    39d4:	00791502 	rsbseq	r1, r9, r2, lsl #10
    39d8:	08070000 	stmdaeq	r7, {}	; <UNPREDICTABLE>
    39dc:	01000000 	mrseq	r0, (UNDEF: 0)
    39e0:	00948037 	addseq	r8, r4, r7, lsr r0
    39e4:	00009c00 	andeq	r9, r0, r0, lsl #24
    39e8:	c39c0100 	orrsgt	r0, ip, #0, 2
    39ec:	08000001 	stmdaeq	r0, {r0}
    39f0:	00009488 	andeq	r9, r0, r8, lsl #9
    39f4:	000003a8 	andeq	r0, r0, r8, lsr #7
    39f8:	00949409 	addseq	r9, r4, r9, lsl #8
    39fc:	0003af00 	andeq	sl, r3, r0, lsl #30
    3a00:	0000f300 	andeq	pc, r0, r0, lsl #6
    3a04:	51010a00 	tstpl	r1, r0, lsl #20
    3a08:	010a3201 	tsteq	sl, r1, lsl #4
    3a0c:	003e0150 	eorseq	r0, lr, r0, asr r1
    3a10:	0094a009 	addseq	sl, r4, r9
    3a14:	0003af00 	andeq	sl, r3, r0, lsl #30
    3a18:	00010b00 	andeq	r0, r1, r0, lsl #22
    3a1c:	51010a00 	tstpl	r1, r0, lsl #20
    3a20:	010a3201 	tsteq	sl, r1, lsl #4
    3a24:	003f0150 	eorseq	r0, pc, r0, asr r1	; <UNPREDICTABLE>
    3a28:	0094a408 	addseq	sl, r4, r8, lsl #8
    3a2c:	0003a800 	andeq	sl, r3, r0, lsl #16
    3a30:	94b40900 	ldrtls	r0, [r4], #2304	; 0x900
    3a34:	03c50000 	biceq	r0, r5, #0
    3a38:	01280000 	teqeq	r8, r0
    3a3c:	010a0000 	mrseq	r0, (UNDEF: 10)
    3a40:	00750250 	rsbseq	r0, r5, r0, asr r2
    3a44:	94c00900 	strbls	r0, [r0], #2304	; 0x900
    3a48:	03e60000 	mvneq	r0, #0
    3a4c:	013c0000 	teqeq	ip, r0
    3a50:	010a0000 	mrseq	r0, (UNDEF: 10)
    3a54:	00750250 	rsbseq	r0, r5, r0, asr r2
    3a58:	94c40800 	strbls	r0, [r4], #2048	; 0x800
    3a5c:	03a80000 			; <UNDEFINED> instruction: 0x03a80000
    3a60:	d0090000 	andle	r0, r9, r0
    3a64:	e6000094 			; <UNDEFINED> instruction: 0xe6000094
    3a68:	58000003 	stmdapl	r0, {r0, r1}
    3a6c:	0a000001 	beq	3a78 <_start-0x4588>
    3a70:	30015101 	andcc	r5, r1, r1, lsl #2
    3a74:	94dc0900 	ldrbls	r0, [ip], #2304	; 0x900
    3a78:	03e60000 	mvneq	r0, #0
    3a7c:	016b0000 	cmneq	fp, r0
    3a80:	010a0000 	mrseq	r0, (UNDEF: 10)
    3a84:	00300151 	eorseq	r0, r0, r1, asr r1
    3a88:	0094e809 	addseq	lr, r4, r9, lsl #16
    3a8c:	0003e600 	andeq	lr, r3, r0, lsl #12
    3a90:	00017e00 	andeq	r7, r1, r0, lsl #28
    3a94:	51010a00 	tstpl	r1, r0, lsl #20
    3a98:	09003601 	stmdbeq	r0, {r0, r9, sl, ip, sp}
    3a9c:	000094f4 	strdeq	r9, [r0], -r4
    3aa0:	000003e6 	andeq	r0, r0, r6, ror #7
    3aa4:	00000191 	muleq	r0, r1, r1
    3aa8:	0151010a 	cmpeq	r1, sl, lsl #2
    3aac:	00090033 	andeq	r0, r9, r3, lsr r0
    3ab0:	e6000095 			; <UNDEFINED> instruction: 0xe6000095
    3ab4:	a6000003 	strge	r0, [r0], -r3
    3ab8:	0a000001 	beq	3ac4 <_start-0x453c>
    3abc:	0a035101 	beq	d7ec8 <__bss_end__+0xcdfb0>
    3ac0:	0900010e 	stmdbeq	r0, {r1, r2, r3, r8}
    3ac4:	0000950c 	andeq	r9, r0, ip, lsl #10
    3ac8:	000003e6 	andeq	r0, r0, r6, ror #7
    3acc:	000001b9 			; <UNDEFINED> instruction: 0x000001b9
    3ad0:	0151010a 	cmpeq	r1, sl, lsl #2
    3ad4:	10080033 	andne	r0, r8, r3, lsr r0
    3ad8:	a8000095 	stmdage	r0, {r0, r2, r4, r7}
    3adc:	00000003 	andeq	r0, r0, r3
    3ae0:	000ce50b 	andeq	lr, ip, fp, lsl #10
    3ae4:	25570100 	ldrbcs	r0, [r7, #-256]	; 0x100
    3ae8:	1c000000 	stcne	0, cr0, [r0], {-0}
    3aec:	1c000095 	stcne	0, cr0, [r0], {149}	; 0x95
    3af0:	01000000 	mrseq	r0, (UNDEF: 0)
    3af4:	0001e69c 	muleq	r1, ip, r6
    3af8:	952c0800 	strls	r0, [ip, #-2048]!	; 0x800
    3afc:	03c50000 	biceq	r0, r5, #0
    3b00:	0b000000 	bleq	3b08 <_start-0x44f8>
    3b04:	00000d20 	andeq	r0, r0, r0, lsr #26
    3b08:	00255d01 	eoreq	r5, r5, r1, lsl #26
    3b0c:	95380000 	ldrls	r0, [r8, #-0]!
    3b10:	00280000 	eoreq	r0, r8, r0
    3b14:	9c010000 	stcls	0, cr0, [r1], {-0}
    3b18:	00000212 	andeq	r0, r0, r2, lsl r2
    3b1c:	00954008 	addseq	r4, r5, r8
    3b20:	0001c300 	andeq	ip, r1, r0, lsl #6
    3b24:	95540800 	ldrbls	r0, [r4, #-2048]	; 0x800
    3b28:	03c50000 	biceq	r0, r5, #0
    3b2c:	0b000000 	bleq	3b34 <_start-0x44cc>
    3b30:	00000d39 	andeq	r0, r0, r9, lsr sp
    3b34:	00256401 	eoreq	r6, r5, r1, lsl #8
    3b38:	95600000 	strbls	r0, [r0, #-0]!
    3b3c:	001c0000 	andseq	r0, ip, r0
    3b40:	9c010000 	stcls	0, cr0, [r1], {-0}
    3b44:	00000235 	andeq	r0, r0, r5, lsr r2
    3b48:	00957008 	addseq	r7, r5, r8
    3b4c:	0003c500 	andeq	ip, r3, r0, lsl #10
    3b50:	18070000 	stmdane	r7, {}	; <UNPREDICTABLE>
    3b54:	01000009 	tsteq	r0, r9
    3b58:	00957c6a 	addseq	r7, r5, sl, ror #24
    3b5c:	00002c00 	andeq	r2, r0, r0, lsl #24
    3b60:	719c0100 	orrsvc	r0, ip, r0, lsl #2
    3b64:	0c000002 	stceq	0, cr0, [r0], {2}
    3b68:	6a010063 	bvs	43cfc <__bss_end__+0x39de4>
    3b6c:	0000002c 	andeq	r0, r0, ip, lsr #32
    3b70:	000017ce 	andeq	r1, r0, lr, asr #15
    3b74:	00958808 	addseq	r8, r5, r8, lsl #16
    3b78:	00021200 	andeq	r1, r2, r0, lsl #4
    3b7c:	95a00d00 	strls	r0, [r0, #3328]!	; 0xd00
    3b80:	03e60000 	mvneq	r0, #0
    3b84:	010a0000 	mrseq	r0, (UNDEF: 10)
    3b88:	00740251 	rsbseq	r0, r4, r1, asr r2
    3b8c:	030b0000 	movweq	r0, #45056	; 0xb000
    3b90:	0100000d 	tsteq	r0, sp
    3b94:	00002574 	andeq	r2, r0, r4, ror r5
    3b98:	0095a800 	addseq	sl, r5, r0, lsl #16
    3b9c:	00000c00 	andeq	r0, r0, r0, lsl #24
    3ba0:	949c0100 	ldrls	r0, [ip], #256	; 0x100
    3ba4:	08000002 	stmdaeq	r0, {r1}
    3ba8:	000095b0 			; <UNDEFINED> instruction: 0x000095b0
    3bac:	000001c3 	andeq	r0, r0, r3, asr #3
    3bb0:	0db60b00 	ldceq	11, cr0, [r6]
    3bb4:	78010000 	stmdavc	r1, {}	; <UNPREDICTABLE>
    3bb8:	00000025 	andeq	r0, r0, r5, lsr #32
    3bbc:	000095b4 			; <UNDEFINED> instruction: 0x000095b4
    3bc0:	00000020 	andeq	r0, r0, r0, lsr #32
    3bc4:	02c09c01 	sbceq	r9, r0, #256	; 0x100
    3bc8:	bc080000 	stclt	0, cr0, [r8], {-0}
    3bcc:	71000095 	swpvc	r0, r5, [r0]	; <UNPREDICTABLE>
    3bd0:	08000002 	stmdaeq	r0, {r1}
    3bd4:	000095c8 	andeq	r9, r0, r8, asr #11
    3bd8:	000001e6 	andeq	r0, r0, r6, ror #3
    3bdc:	0d530e00 	ldcleq	14, cr0, [r3, #-0]
    3be0:	16010000 	strne	r0, [r1], -r0
    3be4:	000002d1 	ldrdeq	r0, [r0], -r1
    3be8:	96d00305 	ldrbls	r0, [r0], r5, lsl #6
    3bec:	040f0000 	streq	r0, [pc], #-0	; 3bf4 <_start-0x440c>
    3bf0:	000002d7 	ldrdeq	r0, [r0], -r7
    3bf4:	00002c10 	andeq	r2, r0, r0, lsl ip
    3bf8:	0d470e00 	stcleq	14, cr0, [r7, #-0]
    3bfc:	17010000 	strne	r0, [r1, -r0]
    3c00:	000002d1 	ldrdeq	r0, [r0], -r1
    3c04:	96a00305 	strtls	r0, [r0], r5, lsl #6
    3c08:	c80e0000 	stmdagt	lr, {}	; <UNPREDICTABLE>
    3c0c:	0100000c 	tsteq	r0, ip
    3c10:	0002d11a 	andeq	sp, r2, sl, lsl r1
    3c14:	bc030500 	cfstr32lt	mvfx0, [r3], {-0}
    3c18:	0e000096 	mcreq	0, 0, r0, cr0, cr6, {4}
    3c1c:	00000d11 	andeq	r0, r0, r1, lsl sp
    3c20:	02d11b01 	sbcseq	r1, r1, #1024	; 0x400
    3c24:	03050000 	movweq	r0, #20480	; 0x5000
    3c28:	000096a8 	andeq	r9, r0, r8, lsr #13
    3c2c:	000d2a0e 	andeq	r2, sp, lr, lsl #20
    3c30:	d11c0100 	tstle	ip, r0, lsl #2
    3c34:	05000002 	streq	r0, [r0, #-2]
    3c38:	0096ac03 	addseq	sl, r6, r3, lsl #24
    3c3c:	0d980e00 	ldceq	14, cr0, [r8]
    3c40:	1d010000 	stcne	0, cr0, [r1, #-0]
    3c44:	000002d1 	ldrdeq	r0, [r0], -r1
    3c48:	96b00305 	ldrtls	r0, [r0], r5, lsl #6
    3c4c:	b90e0000 	stmdblt	lr, {}	; <UNPREDICTABLE>
    3c50:	0100000c 	tsteq	r0, ip
    3c54:	0002d11e 	andeq	sp, r2, lr, lsl r1
    3c58:	cc030500 	cfstr32gt	mvfx0, [r3], {-0}
    3c5c:	0e000096 	mcreq	0, 0, r0, cr0, cr6, {4}
    3c60:	00000da7 	andeq	r0, r0, r7, lsr #27
    3c64:	02d11f01 	sbcseq	r1, r1, #1, 30
    3c68:	03050000 	movweq	r0, #20480	; 0x5000
    3c6c:	000096b8 			; <UNDEFINED> instruction: 0x000096b8
    3c70:	000cd60e 	andeq	sp, ip, lr, lsl #12
    3c74:	d1200100 	teqle	r0, r0, lsl #2
    3c78:	05000002 	streq	r0, [r0, #-2]
    3c7c:	0096c803 	addseq	ip, r6, r3, lsl #16
    3c80:	0d7b0e00 	ldcleq	14, cr0, [fp, #-0]
    3c84:	21010000 	mrscs	r0, (UNDEF: 1)
    3c88:	000002d1 	ldrdeq	r0, [r0], -r1
    3c8c:	96c40305 	strbls	r0, [r4], r5, lsl #6
    3c90:	f30e0000 	vhadd.u8	d0, d14, d0
    3c94:	0100000c 	tsteq	r0, ip
    3c98:	0002d122 	andeq	sp, r2, r2, lsr #2
    3c9c:	a4030500 	strge	r0, [r3], #-1280	; 0x500
    3ca0:	0e000096 	mcreq	0, 0, r0, cr0, cr6, {4}
    3ca4:	00000d6b 	andeq	r0, r0, fp, ror #26
    3ca8:	02d12301 	sbcseq	r2, r1, #67108864	; 0x4000000
    3cac:	03050000 	movweq	r0, #20480	; 0x5000
    3cb0:	000096c0 	andeq	r9, r0, r0, asr #13
    3cb4:	000d5b0e 	andeq	r5, sp, lr, lsl #22
    3cb8:	d1240100 	teqle	r4, r0, lsl #2
    3cbc:	05000002 	streq	r0, [r0, #-2]
    3cc0:	0096b403 	addseq	fp, r6, r3, lsl #8
    3cc4:	03cc1100 	biceq	r1, ip, #0, 2
    3cc8:	8a030000 	bhi	c3cd0 <__bss_end__+0xb9db8>
    3ccc:	00037f12 	andeq	r7, r3, r2, lsl pc
    3cd0:	c5190200 	ldrgt	r0, [r9, #-512]	; 0x200
    3cd4:	13000003 	movwne	r0, #3
    3cd8:	0000002c 	andeq	r0, r0, ip, lsr #32
    3cdc:	0000b213 	andeq	fp, r0, r3, lsl r2
    3ce0:	80140000 	andshi	r0, r4, r0
    3ce4:	03000007 	movweq	r0, #7
    3ce8:	00002ca9 	andeq	r2, r0, r9, lsr #25
    3cec:	0003da00 	andeq	sp, r3, r0, lsl #20
    3cf0:	03da1300 	bicseq	r1, sl, #0, 6
    3cf4:	0f000000 	svceq	0x00000000
    3cf8:	0003e004 	andeq	lr, r3, r4
    3cfc:	03e51500 	mvneq	r1, #0, 10
    3d00:	12160000 	andsne	r0, r6, #0
    3d04:	000006d5 	ldrdeq	r0, [r0], -r5
    3d08:	03fc9d03 	mvnseq	r9, #3, 26	; 0xc0
    3d0c:	fc130000 	ldc2	0, cr0, [r3], {-0}
    3d10:	13000003 	movwne	r0, #3
    3d14:	0000002c 	andeq	r0, r0, ip, lsr #32
    3d18:	e5040f00 	str	r0, [r4, #-3840]	; 0xf00
    3d1c:	00000003 	andeq	r0, r0, r3

Disassembly of section .debug_abbrev:

00000000 <.debug_abbrev>:
       0:	25011101 	strcs	r1, [r1, #-257]	; 0x101
       4:	030b130e 	movweq	r1, #45838	; 0xb30e
       8:	110e1b0e 	tstne	lr, lr, lsl #22
       c:	10061201 	andne	r1, r6, r1, lsl #4
      10:	02000017 	andeq	r0, r0, #23
      14:	0b0b0024 	bleq	2c00ac <__bss_end__+0x2b6194>
      18:	08030b3e 	stmdaeq	r3, {r1, r2, r3, r4, r5, r8, r9, fp}
      1c:	24030000 	strcs	r0, [r3], #-0
      20:	3e0b0b00 	vmlacc.f64	d0, d11, d0
      24:	000e030b 	andeq	r0, lr, fp, lsl #6
      28:	00160400 	andseq	r0, r6, r0, lsl #8
      2c:	0b3a0e03 	bleq	e83840 <__bss_end__+0xe79928>
      30:	13490b3b 	movtne	r0, #39739	; 0x9b3b
      34:	0f050000 	svceq	0x00050000
      38:	490b0b00 	stmdbmi	fp, {r8, r9, fp}
      3c:	06000013 			; <UNDEFINED> instruction: 0x06000013
      40:	13490026 	movtne	r0, #36902	; 0x9026
      44:	01070000 	mrseq	r0, (UNDEF: 7)
      48:	01134901 	tsteq	r3, r1, lsl #18
      4c:	08000013 	stmdaeq	r0, {r0, r1, r4}
      50:	13490021 	movtne	r0, #36897	; 0x9021
      54:	00000b2f 	andeq	r0, r0, pc, lsr #22
      58:	03012e09 	movweq	r2, #7689	; 0x1e09
      5c:	3b0b3a0e 	blcc	2ce89c <__bss_end__+0x2c4984>
      60:	1119270b 	tstne	r9, fp, lsl #14
      64:	40061201 	andmi	r1, r6, r1, lsl #4
      68:	19429718 	stmdbne	r2, {r3, r4, r8, r9, sl, ip, pc}^
      6c:	00001301 	andeq	r1, r0, r1, lsl #6
      70:	0300050a 	movweq	r0, #1290	; 0x50a
      74:	3b0b3a0e 	blcc	2ce8b4 <__bss_end__+0x2c499c>
      78:	0213490b 	andseq	r4, r3, #180224	; 0x2c000
      7c:	0b000017 	bleq	e0 <_start-0x7f20>
      80:	08030005 	stmdaeq	r3, {r0, r2}
      84:	0b3b0b3a 	bleq	ec2d74 <__bss_end__+0xeb8e5c>
      88:	17021349 	strne	r1, [r2, -r9, asr #6]
      8c:	340c0000 	strcc	r0, [ip], #-0
      90:	3a0e0300 	bcc	380c98 <__bss_end__+0x376d80>
      94:	490b3b0b 	stmdbmi	fp, {r0, r1, r3, r8, r9, fp, ip, sp}
      98:	00180213 	andseq	r0, r8, r3, lsl r2
      9c:	82890d00 	addhi	r0, r9, #0, 26
      a0:	01110101 	tsteq	r1, r1, lsl #2
      a4:	13011331 	movwne	r1, #4913	; 0x1331
      a8:	8a0e0000 	bhi	3800b0 <__bss_end__+0x376198>
      ac:	02000182 	andeq	r0, r0, #-2147483616	; 0x80000020
      b0:	18429118 	stmdane	r2, {r3, r4, r8, ip, pc}^
      b4:	890f0000 	stmdbhi	pc, {}	; <UNPREDICTABLE>
      b8:	11010182 	smlabbne	r1, r2, r1, r0
      bc:	00133101 	andseq	r3, r3, r1, lsl #2
      c0:	012e1000 	teqeq	lr, r0
      c4:	0b3a0e03 	bleq	e838d8 <__bss_end__+0xe799c0>
      c8:	19270b3b 	stmdbne	r7!, {r0, r1, r3, r4, r5, r8, r9, fp}
      cc:	01111349 	tsteq	r1, r9, asr #6
      d0:	18400612 	stmdane	r0, {r1, r4, r9, sl}^
      d4:	01194297 			; <UNDEFINED> instruction: 0x01194297
      d8:	11000013 	tstne	r0, r3, lsl r0
      dc:	08030034 	stmdaeq	r3, {r2, r4, r5}
      e0:	0b3b0b3a 	bleq	ec2dd0 <__bss_end__+0xeb8eb8>
      e4:	17021349 	strne	r1, [r2, -r9, asr #6]
      e8:	2e120000 	cdpcs	0, 1, cr0, cr2, cr0, {0}
      ec:	03193f01 	tsteq	r9, #1, 30
      f0:	3b0b3a0e 	blcc	2ce930 <__bss_end__+0x2c4a18>
      f4:	1119270b 	tstne	r9, fp, lsl #14
      f8:	40061201 	andmi	r1, r6, r1, lsl #4
      fc:	19429718 	stmdbne	r2, {r3, r4, r8, r9, sl, ip, pc}^
     100:	00001301 	andeq	r1, r0, r1, lsl #6
     104:	03003413 	movweq	r3, #1043	; 0x413
     108:	3b0b3a08 	blcc	2ce930 <__bss_end__+0x2c4a18>
     10c:	0213490b 	andseq	r4, r3, #180224	; 0x2c000
     110:	14000018 	strne	r0, [r0], #-24
     114:	0e030034 	mcreq	0, 0, r0, cr3, cr4, {1}
     118:	19341349 	ldmdbne	r4!, {r0, r3, r6, r8, r9, ip}
     11c:	00001802 	andeq	r1, r0, r2, lsl #16
     120:	03003415 	movweq	r3, #1045	; 0x415
     124:	3b0b3a0e 	blcc	2ce964 <__bss_end__+0x2c4a4c>
     128:	1c13490b 	ldcne	9, cr4, [r3], {11}
     12c:	16000005 	strne	r0, [r0], -r5
     130:	0e030034 	mcreq	0, 0, r0, cr3, cr4, {1}
     134:	0b3b0b3a 	bleq	ec2e24 <__bss_end__+0xeb8f0c>
     138:	17021349 	strne	r1, [r2, -r9, asr #6]
     13c:	0b170000 	bleq	5c0144 <__bss_end__+0x5b622c>
     140:	01175501 	tsteq	r7, r1, lsl #10
     144:	18000013 	stmdane	r0, {r0, r1, r4}
     148:	1755010b 	ldrbne	r0, [r5, -fp, lsl #2]
     14c:	89190000 	ldmdbhi	r9, {}	; <UNPREDICTABLE>
     150:	11000182 	smlabbne	r0, r2, r1, r0
     154:	00133101 	andseq	r3, r3, r1, lsl #2
     158:	012e1a00 	teqeq	lr, r0, lsl #20
     15c:	0e03193f 	mcreq	9, 0, r1, cr3, cr15, {1}
     160:	0b3b0b3a 	bleq	ec2e50 <__bss_end__+0xeb8f38>
     164:	13491927 	movtne	r1, #39207	; 0x9927
     168:	1301193c 	movwne	r1, #6460	; 0x193c
     16c:	051b0000 	ldreq	r0, [fp, #-0]
     170:	00134900 	andseq	r4, r3, r0, lsl #18
     174:	00181c00 	andseq	r1, r8, r0, lsl #24
     178:	2e1d0000 	cdpcs	0, 1, cr0, cr13, cr0, {0}
     17c:	03193f01 	tsteq	r9, #1, 30
     180:	3b0b3a0e 	blcc	2ce9c0 <__bss_end__+0x2c4aa8>
     184:	3c19270b 	ldccc	7, cr2, [r9], {11}
     188:	00130119 	andseq	r0, r3, r9, lsl r1
     18c:	002e1e00 	eoreq	r1, lr, r0, lsl #28
     190:	0e03193f 	mcreq	9, 0, r1, cr3, cr15, {1}
     194:	0b3b0b3a 	bleq	ec2e84 <__bss_end__+0xeb8f6c>
     198:	193c1927 	ldmdbne	ip!, {r0, r1, r2, r5, r8, fp, ip}
     19c:	01000000 	mrseq	r0, (UNDEF: 0)
     1a0:	0e250111 	mcreq	1, 1, r0, cr5, cr1, {0}
     1a4:	0e030b13 	vmoveq.32	d3[0], r0
     1a8:	01110e1b 	tsteq	r1, fp, lsl lr
     1ac:	17100612 			; <UNDEFINED> instruction: 0x17100612
     1b0:	24020000 	strcs	r0, [r2], #-0
     1b4:	3e0b0b00 	vmlacc.f64	d0, d11, d0
     1b8:	0008030b 	andeq	r0, r8, fp, lsl #6
     1bc:	00240300 	eoreq	r0, r4, r0, lsl #6
     1c0:	0b3e0b0b 	bleq	f82df4 <__bss_end__+0xf78edc>
     1c4:	00000e03 	andeq	r0, r0, r3, lsl #28
     1c8:	49002604 	stmdbmi	r0, {r2, r9, sl, sp}
     1cc:	05000013 	streq	r0, [r0, #-19]
     1d0:	0e030016 	mcreq	0, 0, r0, cr3, cr6, {0}
     1d4:	0b3b0b3a 	bleq	ec2ec4 <__bss_end__+0xeb8fac>
     1d8:	00001349 	andeq	r1, r0, r9, asr #6
     1dc:	03001606 	movweq	r1, #1542	; 0x606
     1e0:	3b0b3a0e 	blcc	2cea20 <__bss_end__+0x2c4b08>
     1e4:	00134905 	andseq	r4, r3, r5, lsl #18
     1e8:	01170700 	tsteq	r7, r0, lsl #14
     1ec:	0b3a0b0b 	bleq	e82e20 <__bss_end__+0xe78f08>
     1f0:	13010b3b 	movwne	r0, #6971	; 0x1b3b
     1f4:	0d080000 	stceq	0, cr0, [r8, #-0]
     1f8:	3a0e0300 	bcc	380e00 <__bss_end__+0x376ee8>
     1fc:	490b3b0b 	stmdbmi	fp, {r0, r1, r3, r8, r9, fp, ip, sp}
     200:	09000013 	stmdbeq	r0, {r0, r1, r4}
     204:	13490101 	movtne	r0, #37121	; 0x9101
     208:	00001301 	andeq	r1, r0, r1, lsl #6
     20c:	4900210a 	stmdbmi	r0, {r1, r3, r8, sp}
     210:	000b2f13 	andeq	r2, fp, r3, lsl pc
     214:	01130b00 	tsteq	r3, r0, lsl #22
     218:	0b3a0b0b 	bleq	e82e4c <__bss_end__+0xe78f34>
     21c:	13010b3b 	movwne	r0, #6971	; 0x1b3b
     220:	0d0c0000 	stceq	0, cr0, [ip, #-0]
     224:	3a0e0300 	bcc	380e2c <__bss_end__+0x376f14>
     228:	490b3b0b 	stmdbmi	fp, {r0, r1, r3, r8, r9, fp, ip, sp}
     22c:	000b3813 	andeq	r3, fp, r3, lsl r8
     230:	000f0d00 	andeq	r0, pc, r0, lsl #26
     234:	00000b0b 	andeq	r0, r0, fp, lsl #22
     238:	0b000f0e 	bleq	3e78 <_start-0x4188>
     23c:	0013490b 	andseq	r4, r3, fp, lsl #18
     240:	01130f00 	tsteq	r3, r0, lsl #30
     244:	0b0b0e03 	bleq	2c3a58 <__bss_end__+0x2b9b40>
     248:	0b3b0b3a 	bleq	ec2f38 <__bss_end__+0xeb9020>
     24c:	00001301 	andeq	r1, r0, r1, lsl #6
     250:	03000d10 	movweq	r0, #3344	; 0xd10
     254:	3b0b3a08 	blcc	2cea7c <__bss_end__+0x2c4b64>
     258:	3813490b 	ldmdacc	r3, {r0, r1, r3, r8, fp, lr}
     25c:	1100000b 	tstne	r0, fp
     260:	0e030113 	mcreq	1, 0, r0, cr3, cr3, {0}
     264:	0b3a050b 	bleq	e81698 <__bss_end__+0xe77780>
     268:	13010b3b 	movwne	r0, #6971	; 0x1b3b
     26c:	0d120000 	ldceq	0, cr0, [r2, #-0]
     270:	3a0e0300 	bcc	380e78 <__bss_end__+0x376f60>
     274:	490b3b0b 	stmdbmi	fp, {r0, r1, r3, r8, r9, fp, ip, sp}
     278:	00053813 	andeq	r3, r5, r3, lsl r8
     27c:	00151300 	andseq	r1, r5, r0, lsl #6
     280:	00001927 	andeq	r1, r0, r7, lsr #18
     284:	27011514 	smladcs	r1, r4, r5, r1
     288:	01134919 	tsteq	r3, r9, lsl r9
     28c:	15000013 	strne	r0, [r0, #-19]
     290:	13490005 	movtne	r0, #36869	; 0x9005
     294:	13160000 	tstne	r6, #0
     298:	0b0e0301 	bleq	380ea4 <__bss_end__+0x376f8c>
     29c:	3b0b3a05 	blcc	2ceab8 <__bss_end__+0x2c4ba0>
     2a0:	00130105 	andseq	r0, r3, r5, lsl #2
     2a4:	000d1700 	andeq	r1, sp, r0, lsl #14
     2a8:	0b3a0e03 	bleq	e83abc <__bss_end__+0xe79ba4>
     2ac:	1349053b 	movtne	r0, #38203	; 0x953b
     2b0:	00000b38 	andeq	r0, r0, r8, lsr fp
     2b4:	03000d18 	movweq	r0, #3352	; 0xd18
     2b8:	3b0b3a0e 	blcc	2ceaf8 <__bss_end__+0x2c4be0>
     2bc:	38134905 	ldmdacc	r3, {r0, r2, r8, fp, lr}
     2c0:	19000005 	stmdbne	r0, {r0, r2}
     2c4:	0e030113 	mcreq	1, 0, r0, cr3, cr3, {0}
     2c8:	0b3a0b0b 	bleq	e82efc <__bss_end__+0xe78fe4>
     2cc:	1301053b 	movwne	r0, #5435	; 0x153b
     2d0:	131a0000 	tstne	sl, #0
     2d4:	3a0b0b01 	bcc	2c2ee0 <__bss_end__+0x2b8fc8>
     2d8:	01053b0b 	tsteq	r5, fp, lsl #22
     2dc:	1b000013 	blne	330 <_start-0x7cd0>
     2e0:	0b0b0117 	bleq	2c0744 <__bss_end__+0x2b682c>
     2e4:	053b0b3a 	ldreq	r0, [fp, #-2874]!	; 0xb3a
     2e8:	00001301 	andeq	r1, r0, r1, lsl #6
     2ec:	03000d1c 	movweq	r0, #3356	; 0xd1c
     2f0:	3b0b3a0e 	blcc	2ceb30 <__bss_end__+0x2c4c18>
     2f4:	00134905 	andseq	r4, r3, r5, lsl #18
     2f8:	01151d00 	tsteq	r5, r0, lsl #26
     2fc:	13011927 	movwne	r1, #6439	; 0x1927
     300:	341e0000 	ldrcc	r0, [lr], #-0
     304:	3a0e0300 	bcc	380f0c <__bss_end__+0x376ff4>
     308:	49053b0b 	stmdbmi	r5, {r0, r1, r3, r8, r9, fp, ip, sp}
     30c:	3c193f13 	ldccc	15, cr3, [r9], {19}
     310:	1f000019 	svcne	0x00000019
     314:	0e030034 	mcreq	0, 0, r0, cr3, cr4, {1}
     318:	0b3b0b3a 	bleq	ec3008 <__bss_end__+0xeb90f0>
     31c:	193f1349 	ldmdbne	pc!, {r0, r3, r6, r8, r9, ip}	; <UNPREDICTABLE>
     320:	0000193c 	andeq	r1, r0, ip, lsr r9
     324:	0b010420 	bleq	413ac <__bss_end__+0x37494>
     328:	3a13490b 	bcc	4d275c <__bss_end__+0x4c8844>
     32c:	010b3b0b 	tsteq	fp, fp, lsl #22
     330:	21000013 	tstcs	r0, r3, lsl r0
     334:	0e030028 	cdpeq	0, 0, cr0, cr3, cr8, {1}
     338:	00000b1c 	andeq	r0, r0, ip, lsl fp
     33c:	03000d22 	movweq	r0, #3362	; 0xd22
     340:	3b0b3a0e 	blcc	2ceb80 <__bss_end__+0x2c4c68>
     344:	0b13490b 	bleq	4d2778 <__bss_end__+0x4c8860>
     348:	0c0b0d0b 	stceq	13, cr0, [fp], {11}
     34c:	000b380b 	andeq	r3, fp, fp, lsl #16
     350:	000d2300 	andeq	r2, sp, r0, lsl #6
     354:	0b3a0803 	bleq	e82368 <__bss_end__+0xe78450>
     358:	13490b3b 	movtne	r0, #39739	; 0x9b3b
     35c:	0b0d0b0b 	bleq	342f90 <__bss_end__+0x339078>
     360:	0b380b0c 	bleq	e02f98 <__bss_end__+0xdf9080>
     364:	35240000 	strcc	r0, [r4, #-0]!
     368:	00134900 	andseq	r4, r3, r0, lsl #18
     36c:	00342500 	eorseq	r2, r4, r0, lsl #10
     370:	0b3a0803 	bleq	e82384 <__bss_end__+0xe7846c>
     374:	13490b3b 	movtne	r0, #39739	; 0x9b3b
     378:	34260000 	strtcc	r0, [r6], #-0
     37c:	3a0e0300 	bcc	380f84 <__bss_end__+0x37706c>
     380:	49053b0b 	stmdbmi	r5, {r0, r1, r3, r8, r9, fp, ip, sp}
     384:	00180213 	andseq	r0, r8, r3, lsl r2
     388:	012e2700 	teqeq	lr, r0, lsl #14
     38c:	0b3a0e03 	bleq	e83ba0 <__bss_end__+0xe79c88>
     390:	1927053b 	stmdbne	r7!, {r0, r1, r3, r4, r5, r8, sl}
     394:	06120111 			; <UNDEFINED> instruction: 0x06120111
     398:	42971840 	addsmi	r1, r7, #64, 16	; 0x400000
     39c:	00130119 	andseq	r0, r3, r9, lsl r1
     3a0:	00342800 	eorseq	r2, r4, r0, lsl #16
     3a4:	13490e03 	movtne	r0, #40451	; 0x9e03
     3a8:	18021934 	stmdane	r2, {r2, r4, r5, r8, fp, ip}
     3ac:	0b290000 	bleq	a403b4 <__bss_end__+0xa3649c>
     3b0:	00130101 	andseq	r0, r3, r1, lsl #2
     3b4:	01172a00 	tsteq	r7, r0, lsl #20
     3b8:	0b0b0803 	bleq	2c23cc <__bss_end__+0x2b84b4>
     3bc:	053b0b3a 	ldreq	r0, [fp, #-2874]!	; 0xb3a
     3c0:	00001301 	andeq	r1, r0, r1, lsl #6
     3c4:	03000d2b 	movweq	r0, #3371	; 0xd2b
     3c8:	3b0b3a08 	blcc	2cebf0 <__bss_end__+0x2c4cd8>
     3cc:	00134905 	andseq	r4, r3, r5, lsl #18
     3d0:	00342c00 	eorseq	r2, r4, r0, lsl #24
     3d4:	0b3a0803 	bleq	e823e8 <__bss_end__+0xe784d0>
     3d8:	1349053b 	movtne	r0, #38203	; 0x953b
     3dc:	342d0000 	strtcc	r0, [sp], #-0
     3e0:	3a0e0300 	bcc	380fe8 <__bss_end__+0x3770d0>
     3e4:	49053b0b 	stmdbmi	r5, {r0, r1, r3, r8, r9, fp, ip, sp}
     3e8:	2e000013 	mcrcs	0, 0, r0, cr0, cr3, {0}
     3ec:	0111010b 	tsteq	r1, fp, lsl #2
     3f0:	00000612 	andeq	r0, r0, r2, lsl r6
     3f4:	0300342f 	movweq	r3, #1071	; 0x42f
     3f8:	3b0b3a08 	blcc	2cec20 <__bss_end__+0x2c4d08>
     3fc:	1c134905 	ldcne	9, cr4, [r3], {5}
     400:	30000005 	andcc	r0, r0, r5
     404:	193f012e 	ldmdbne	pc!, {r1, r2, r3, r5, r8}	; <UNPREDICTABLE>
     408:	0b3a0e03 	bleq	e83c1c <__bss_end__+0xe79d04>
     40c:	1927053b 	stmdbne	r7!, {r0, r1, r3, r4, r5, r8, sl}
     410:	06120111 			; <UNDEFINED> instruction: 0x06120111
     414:	42971840 	addsmi	r1, r7, #64, 16	; 0x400000
     418:	00130119 	andseq	r0, r3, r9, lsl r1
     41c:	00343100 	eorseq	r3, r4, r0, lsl #2
     420:	0b3a0803 	bleq	e82434 <__bss_end__+0xe7851c>
     424:	1349053b 	movtne	r0, #38203	; 0x953b
     428:	00000b1c 	andeq	r0, r0, ip, lsl fp
     42c:	01828932 	orreq	r8, r2, r2, lsr r9
     430:	31011100 	mrscc	r1, (UNDEF: 17)
     434:	33000013 	movwcc	r0, #19
     438:	01018289 	smlabbeq	r1, r9, r2, r8
     43c:	13310111 	teqne	r1, #1073741828	; 0x40000004
     440:	00001301 	andeq	r1, r0, r1, lsl #6
     444:	01828a34 	orreq	r8, r2, r4, lsr sl
     448:	91180200 	tstls	r8, r0, lsl #4
     44c:	00001842 	andeq	r1, r0, r2, asr #16
     450:	3f002e35 	svccc	0x00002e35
     454:	3a0e0319 	bcc	3810c0 <__bss_end__+0x3771a8>
     458:	27053b0b 	strcs	r3, [r5, -fp, lsl #22]
     45c:	11134919 	tstne	r3, r9, lsl r9
     460:	40061201 	andmi	r1, r6, r1, lsl #4
     464:	19429718 	stmdbne	r2, {r3, r4, r8, r9, sl, ip, pc}^
     468:	2e360000 	cdpcs	0, 3, cr0, cr6, cr0, {0}
     46c:	03193f01 	tsteq	r9, #1, 30
     470:	3b0b3a0e 	blcc	2cecb0 <__bss_end__+0x2c4d98>
     474:	49192705 	ldmdbmi	r9, {r0, r2, r8, r9, sl, sp}
     478:	12011113 	andne	r1, r1, #-1073741820	; 0xc0000004
     47c:	97184006 	ldrls	r4, [r8, -r6]
     480:	13011942 	movwne	r1, #6466	; 0x1942
     484:	05370000 	ldreq	r0, [r7, #-0]!
     488:	3a0e0300 	bcc	381090 <__bss_end__+0x377178>
     48c:	49053b0b 	stmdbmi	r5, {r0, r1, r3, r8, r9, fp, ip, sp}
     490:	00170213 	andseq	r0, r7, r3, lsl r2
     494:	010b3800 	tsteq	fp, r0, lsl #16
     498:	06120111 			; <UNDEFINED> instruction: 0x06120111
     49c:	00001301 	andeq	r1, r0, r1, lsl #6
     4a0:	03003439 	movweq	r3, #1081	; 0x439
     4a4:	3b0b3a08 	blcc	2ceccc <__bss_end__+0x2c4db4>
     4a8:	02134905 	andseq	r4, r3, #81920	; 0x14000
     4ac:	3a000017 	bcc	510 <_start-0x7af0>
     4b0:	0e03012e 	adfeqsp	f0, f3, #0.5
     4b4:	0b3b0b3a 	bleq	ec31a4 <__bss_end__+0xeb928c>
     4b8:	01111927 	tsteq	r1, r7, lsr #18
     4bc:	18400612 	stmdane	r0, {r1, r4, r9, sl}^
     4c0:	01194297 			; <UNDEFINED> instruction: 0x01194297
     4c4:	3b000013 	blcc	518 <_start-0x7ae8>
     4c8:	0e030005 	cdpeq	0, 0, cr0, cr3, cr5, {0}
     4cc:	0b3b0b3a 	bleq	ec31bc <__bss_end__+0xeb92a4>
     4d0:	17021349 	strne	r1, [r2, -r9, asr #6]
     4d4:	343c0000 	ldrtcc	r0, [ip], #-0
     4d8:	3a080300 	bcc	2010e0 <__bss_end__+0x1f71c8>
     4dc:	490b3b0b 	stmdbmi	fp, {r0, r1, r3, r8, r9, fp, ip, sp}
     4e0:	00170213 	andseq	r0, r7, r3, lsl r2
     4e4:	01173d00 	tsteq	r7, r0, lsl #26
     4e8:	0b0b0803 	bleq	2c24fc <__bss_end__+0x2b85e4>
     4ec:	0b3b0b3a 	bleq	ec31dc <__bss_end__+0xeb92c4>
     4f0:	00001301 	andeq	r1, r0, r1, lsl #6
     4f4:	03000d3e 	movweq	r0, #3390	; 0xd3e
     4f8:	3b0b3a08 	blcc	2ced20 <__bss_end__+0x2c4e08>
     4fc:	0013490b 	andseq	r4, r3, fp, lsl #18
     500:	82893f00 	addhi	r3, r9, #0, 30
     504:	01110101 	tsteq	r1, r1, lsl #2
     508:	00001331 	andeq	r1, r0, r1, lsr r3
     50c:	03012e40 	movweq	r2, #7744	; 0x1e40
     510:	3b0b3a0e 	blcc	2ced50 <__bss_end__+0x2c4e38>
     514:	4919270b 	ldmdbmi	r9, {r0, r1, r3, r8, r9, sl, sp}
     518:	12011113 	andne	r1, r1, #-1073741820	; 0xc0000004
     51c:	97184006 	ldrls	r4, [r8, -r6]
     520:	13011942 	movwne	r1, #6466	; 0x1942
     524:	05410000 	strbeq	r0, [r1, #-0]
     528:	3a080300 	bcc	201130 <__bss_end__+0x1f7218>
     52c:	490b3b0b 	stmdbmi	fp, {r0, r1, r3, r8, r9, fp, ip, sp}
     530:	00170213 	andseq	r0, r7, r3, lsl r2
     534:	002e4200 	eoreq	r4, lr, r0, lsl #4
     538:	193c193f 	ldmdbne	ip!, {r0, r1, r2, r3, r4, r5, r8, fp, ip}
     53c:	0e030e6e 	cdpeq	14, 0, cr0, cr3, cr14, {3}
     540:	0b3b0b3a 	bleq	ec3230 <__bss_end__+0xeb9318>
     544:	01000000 	mrseq	r0, (UNDEF: 0)
     548:	0e250111 	mcreq	1, 1, r0, cr5, cr1, {0}
     54c:	0e030b13 	vmoveq.32	d3[0], r0
     550:	01110e1b 	tsteq	r1, fp, lsl lr
     554:	17100612 			; <UNDEFINED> instruction: 0x17100612
     558:	16020000 	strne	r0, [r2], -r0
     55c:	3a0e0300 	bcc	381164 <__bss_end__+0x37724c>
     560:	490b3b0b 	stmdbmi	fp, {r0, r1, r3, r8, r9, fp, ip, sp}
     564:	03000013 	movweq	r0, #19
     568:	0e030113 	mcreq	1, 0, r0, cr3, cr3, {0}
     56c:	0b3a0b0b 	bleq	e831a0 <__bss_end__+0xe79288>
     570:	13010b3b 	movwne	r0, #6971	; 0x1b3b
     574:	0d040000 	stceq	0, cr0, [r4, #-0]
     578:	490e0300 	stmdbmi	lr, {r8, r9}
     57c:	340b3813 	strcc	r3, [fp], #-2067	; 0x813
     580:	05000019 	streq	r0, [r0, #-25]
     584:	0b0b000f 	bleq	2c05c8 <__bss_end__+0x2b66b0>
     588:	24060000 	strcs	r0, [r6], #-0
     58c:	3e0b0b00 	vmlacc.f64	d0, d11, d0
     590:	0008030b 	andeq	r0, r8, fp, lsl #6
     594:	00240700 	eoreq	r0, r4, r0, lsl #14
     598:	0b3e0b0b 	bleq	f831cc <__bss_end__+0xf792b4>
     59c:	00000e03 	andeq	r0, r0, r3, lsl #28
     5a0:	0b000f08 	bleq	41c8 <_start-0x3e38>
     5a4:	0013490b 	andseq	r4, r3, fp, lsl #18
     5a8:	00260900 	eoreq	r0, r6, r0, lsl #18
     5ac:	00001349 	andeq	r1, r0, r9, asr #6
     5b0:	3f012e0a 	svccc	0x00012e0a
     5b4:	3a0e0319 	bcc	381220 <__bss_end__+0x377308>
     5b8:	270b3b0b 	strcs	r3, [fp, -fp, lsl #22]
     5bc:	11134919 	tstne	r3, r9, lsl r9
     5c0:	40061201 	andmi	r1, r6, r1, lsl #4
     5c4:	19429718 	stmdbne	r2, {r3, r4, r8, r9, sl, ip, pc}^
     5c8:	00001301 	andeq	r1, r0, r1, lsl #6
     5cc:	0300050b 	movweq	r0, #1291	; 0x50b
     5d0:	3b0b3a08 	blcc	2cedf8 <__bss_end__+0x2c4ee0>
     5d4:	0213490b 	andseq	r4, r3, #180224	; 0x2c000
     5d8:	0c000018 	stceq	0, cr0, [r0], {24}
     5dc:	00000018 	andeq	r0, r0, r8, lsl r0
     5e0:	0300340d 	movweq	r3, #1037	; 0x40d
     5e4:	3b0b3a08 	blcc	2cee0c <__bss_end__+0x2c4ef4>
     5e8:	0213490b 	andseq	r4, r3, #180224	; 0x2c000
     5ec:	0e000018 	mcreq	0, 0, r0, cr0, cr8, {0}
     5f0:	0e030034 	mcreq	0, 0, r0, cr3, cr4, {1}
     5f4:	0b3b0b3a 	bleq	ec32e4 <__bss_end__+0xeb93cc>
     5f8:	18021349 	stmdane	r2, {r0, r3, r6, r8, r9, ip}
     5fc:	340f0000 	strcc	r0, [pc], #-0	; 604 <_start-0x79fc>
     600:	3a080300 	bcc	201208 <__bss_end__+0x1f72f0>
     604:	490b3b0b 	stmdbmi	fp, {r0, r1, r3, r8, r9, fp, ip, sp}
     608:	00170213 	andseq	r0, r7, r3, lsl r2
     60c:	82891000 	addhi	r1, r9, #0
     610:	01110101 	tsteq	r1, r1, lsl #2
     614:	13011331 	movwne	r1, #4913	; 0x1331
     618:	8a110000 	bhi	440620 <__bss_end__+0x436708>
     61c:	02000182 	andeq	r0, r0, #-2147483616	; 0x80000020
     620:	18429118 	stmdane	r2, {r3, r4, r8, ip, pc}^
     624:	89120000 	ldmdbhi	r2, {}	; <UNPREDICTABLE>
     628:	11010182 	smlabbne	r1, r2, r1, r0
     62c:	13000001 	movwne	r0, #1
     630:	13490101 	movtne	r0, #37121	; 0x9101
     634:	00001301 	andeq	r1, r0, r1, lsl #6
     638:	49002114 	stmdbmi	r0, {r2, r4, r8, sp}
     63c:	00052f13 	andeq	r2, r5, r3, lsl pc
     640:	01151500 	tsteq	r5, r0, lsl #10
     644:	13491927 	movtne	r1, #39207	; 0x9927
     648:	00001301 	andeq	r1, r0, r1, lsl #6
     64c:	49000516 	stmdbmi	r0, {r1, r2, r4, r8, sl}
     650:	17000013 	smladne	r0, r3, r0, r0
     654:	0e030034 	mcreq	0, 0, r0, cr3, cr4, {1}
     658:	0b3b0b3a 	bleq	ec3348 <__bss_end__+0xeb9430>
     65c:	193f1349 	ldmdbne	pc!, {r0, r3, r6, r8, r9, ip}	; <UNPREDICTABLE>
     660:	0000193c 	andeq	r1, r0, ip, lsr r9
     664:	3f012e18 	svccc	0x00012e18
     668:	3a0e0319 	bcc	3812d4 <__bss_end__+0x3773bc>
     66c:	270b3b0b 	strcs	r3, [fp, -fp, lsl #22]
     670:	3c134919 	ldccc	9, cr4, [r3], {25}
     674:	00000019 	andeq	r0, r0, r9, lsl r0
     678:	25011101 	strcs	r1, [r1, #-257]	; 0x101
     67c:	030b130e 	movweq	r1, #45838	; 0xb30e
     680:	110e1b0e 	tstne	lr, lr, lsl #22
     684:	10061201 	andne	r1, r6, r1, lsl #4
     688:	02000017 	andeq	r0, r0, #23
     68c:	0b0b0024 	bleq	2c0724 <__bss_end__+0x2b680c>
     690:	08030b3e 	stmdaeq	r3, {r1, r2, r3, r4, r5, r8, r9, fp}
     694:	24030000 	strcs	r0, [r3], #-0
     698:	3e0b0b00 	vmlacc.f64	d0, d11, d0
     69c:	000e030b 	andeq	r0, lr, fp, lsl #6
     6a0:	012e0400 	teqeq	lr, r0, lsl #8
     6a4:	0b3a0e03 	bleq	e83eb8 <__bss_end__+0xe79fa0>
     6a8:	19270b3b 	stmdbne	r7!, {r0, r1, r3, r4, r5, r8, r9, fp}
     6ac:	01111349 	tsteq	r1, r9, asr #6
     6b0:	18400612 	stmdane	r0, {r1, r4, r9, sl}^
     6b4:	01194297 			; <UNDEFINED> instruction: 0x01194297
     6b8:	05000013 	streq	r0, [r0, #-19]
     6bc:	08030005 	stmdaeq	r3, {r0, r2}
     6c0:	0b3b0b3a 	bleq	ec33b0 <__bss_end__+0xeb9498>
     6c4:	17021349 	strne	r1, [r2, -r9, asr #6]
     6c8:	89060000 	stmdbhi	r6, {}	; <UNPREDICTABLE>
     6cc:	11010182 	smlabbne	r1, r2, r1, r0
     6d0:	00133101 	andseq	r3, r3, r1, lsl #2
     6d4:	828a0700 	addhi	r0, sl, #0, 14
     6d8:	18020001 	stmdane	r2, {r0}
     6dc:	00184291 	mulseq	r8, r1, r2
     6e0:	002e0800 	eoreq	r0, lr, r0, lsl #16
     6e4:	0e03193f 	mcreq	9, 0, r1, cr3, cr15, {1}
     6e8:	0b3b0b3a 	bleq	ec33d8 <__bss_end__+0xeb94c0>
     6ec:	01111927 	tsteq	r1, r7, lsr #18
     6f0:	18400612 	stmdane	r0, {r1, r4, r9, sl}^
     6f4:	00194297 	mulseq	r9, r7, r2
     6f8:	012e0900 	teqeq	lr, r0, lsl #18
     6fc:	0e03193f 	mcreq	9, 0, r1, cr3, cr15, {1}
     700:	0b3b0b3a 	bleq	ec33f0 <__bss_end__+0xeb94d8>
     704:	01111927 	tsteq	r1, r7, lsr #18
     708:	18400612 	stmdane	r0, {r1, r4, r9, sl}^
     70c:	01194297 			; <UNDEFINED> instruction: 0x01194297
     710:	0a000013 	beq	764 <_start-0x789c>
     714:	08030005 	stmdaeq	r3, {r0, r2}
     718:	0b3b0b3a 	bleq	ec3408 <__bss_end__+0xeb94f0>
     71c:	18021349 	stmdane	r2, {r0, r3, r6, r8, r9, ip}
     720:	150b0000 	strne	r0, [fp, #-0]
     724:	49192701 	ldmdbmi	r9, {r0, r8, r9, sl, sp}
     728:	00130113 	andseq	r0, r3, r3, lsl r1
     72c:	00050c00 	andeq	r0, r5, r0, lsl #24
     730:	00001349 	andeq	r1, r0, r9, asr #6
     734:	0b000f0d 	bleq	4370 <_start-0x3c90>
     738:	0013490b 	andseq	r4, r3, fp, lsl #18
     73c:	00340e00 	eorseq	r0, r4, r0, lsl #28
     740:	0b3a0e03 	bleq	e83f54 <__bss_end__+0xe7a03c>
     744:	13490b3b 	movtne	r0, #39739	; 0x9b3b
     748:	1802193f 	stmdane	r2, {r0, r1, r2, r3, r4, r5, r8, fp, ip}
     74c:	2e0f0000 	cdpcs	0, 0, cr0, cr15, cr0, {0}
     750:	03193f01 	tsteq	r9, #1, 30
     754:	3b0b3a0e 	blcc	2cef94 <__bss_end__+0x2c507c>
     758:	3c19270b 	ldccc	7, cr2, [r9], {11}
     75c:	00000019 	andeq	r0, r0, r9, lsl r0
     760:	25011101 	strcs	r1, [r1, #-257]	; 0x101
     764:	030b130e 	movweq	r1, #45838	; 0xb30e
     768:	110e1b0e 	tstne	lr, lr, lsl #22
     76c:	10061201 	andne	r1, r6, r1, lsl #4
     770:	02000017 	andeq	r0, r0, #23
     774:	0b0b0024 	bleq	2c080c <__bss_end__+0x2b68f4>
     778:	08030b3e 	stmdaeq	r3, {r1, r2, r3, r4, r5, r8, r9, fp}
     77c:	24030000 	strcs	r0, [r3], #-0
     780:	3e0b0b00 	vmlacc.f64	d0, d11, d0
     784:	000e030b 	andeq	r0, lr, fp, lsl #6
     788:	000f0400 	andeq	r0, pc, r0, lsl #8
     78c:	13490b0b 	movtne	r0, #39691	; 0x9b0b
     790:	26050000 	strcs	r0, [r5], -r0
     794:	00134900 	andseq	r4, r3, r0, lsl #18
     798:	012e0600 	teqeq	lr, r0, lsl #12
     79c:	0e03193f 	mcreq	9, 0, r1, cr3, cr15, {1}
     7a0:	0b3b0b3a 	bleq	ec3490 <__bss_end__+0xeb9578>
     7a4:	13491927 	movtne	r1, #39207	; 0x9927
     7a8:	06120111 			; <UNDEFINED> instruction: 0x06120111
     7ac:	42961840 	addsmi	r1, r6, #64, 16	; 0x400000
     7b0:	00130119 	andseq	r0, r3, r9, lsl r1
     7b4:	00050700 	andeq	r0, r5, r0, lsl #14
     7b8:	0b3a0803 	bleq	e827cc <__bss_end__+0xe788b4>
     7bc:	13490b3b 	movtne	r0, #39739	; 0x9b3b
     7c0:	00001702 	andeq	r1, r0, r2, lsl #14
     7c4:	27011508 	strcs	r1, [r1, -r8, lsl #10]
     7c8:	01134919 	tsteq	r3, r9, lsl r9
     7cc:	09000013 	stmdbeq	r0, {r0, r1, r4}
     7d0:	13490005 	movtne	r0, #36869	; 0x9005
     7d4:	340a0000 	strcc	r0, [sl], #-0
     7d8:	3a0e0300 	bcc	3813e0 <__bss_end__+0x3774c8>
     7dc:	490b3b0b 	stmdbmi	fp, {r0, r1, r3, r8, r9, fp, ip, sp}
     7e0:	3c193f13 	ldccc	15, cr3, [r9], {19}
     7e4:	0b000019 	bleq	850 <_start-0x77b0>
     7e8:	0e030034 	mcreq	0, 0, r0, cr3, cr4, {1}
     7ec:	0b3b0b3a 	bleq	ec34dc <__bss_end__+0xeb95c4>
     7f0:	193f1349 	ldmdbne	pc!, {r0, r3, r6, r8, r9, ip}	; <UNPREDICTABLE>
     7f4:	00001802 	andeq	r1, r0, r2, lsl #16
     7f8:	01110100 	tsteq	r1, r0, lsl #2
     7fc:	0b130e25 	bleq	4c4098 <__bss_end__+0x4ba180>
     800:	0e1b0e03 	cdpeq	14, 1, cr0, cr11, cr3, {0}
     804:	06120111 			; <UNDEFINED> instruction: 0x06120111
     808:	00001710 	andeq	r1, r0, r0, lsl r7
     80c:	0b002402 	bleq	981c <__FUNCTION__.4407+0x30>
     810:	030b3e0b 	movweq	r3, #48651	; 0xbe0b
     814:	03000008 	movweq	r0, #8
     818:	0b0b0024 	bleq	2c08b0 <__bss_end__+0x2b6998>
     81c:	0e030b3e 	vmoveq.16	d3[0], r0
     820:	0f040000 	svceq	0x00040000
     824:	000b0b00 	andeq	r0, fp, r0, lsl #22
     828:	000f0500 	andeq	r0, pc, r0, lsl #10
     82c:	13490b0b 	movtne	r0, #39691	; 0x9b0b
     830:	26060000 	strcs	r0, [r6], -r0
     834:	00134900 	andseq	r4, r3, r0, lsl #18
     838:	00160700 	andseq	r0, r6, r0, lsl #14
     83c:	0b3a0e03 	bleq	e84050 <__bss_end__+0xe7a138>
     840:	13490b3b 	movtne	r0, #39739	; 0x9b3b
     844:	13080000 	movwne	r0, #32768	; 0x8000
     848:	0b0e0301 	bleq	381454 <__bss_end__+0x37753c>
     84c:	3b0b3a0b 	blcc	2cf080 <__bss_end__+0x2c5168>
     850:	0013010b 	andseq	r0, r3, fp, lsl #2
     854:	000d0900 	andeq	r0, sp, r0, lsl #18
     858:	13490e03 	movtne	r0, #40451	; 0x9e03
     85c:	19340b38 	ldmdbne	r4!, {r3, r4, r5, r8, r9, fp}
     860:	2e0a0000 	cdpcs	0, 0, cr0, cr10, cr0, {0}
     864:	3a0e0301 	bcc	381470 <__bss_end__+0x377558>
     868:	270b3b0b 	strcs	r3, [fp, -fp, lsl #22]
     86c:	11134919 	tstne	r3, r9, lsl r9
     870:	40061201 	andmi	r1, r6, r1, lsl #4
     874:	19429718 	stmdbne	r2, {r3, r4, r8, r9, sl, ip, pc}^
     878:	00001301 	andeq	r1, r0, r1, lsl #6
     87c:	0300050b 	movweq	r0, #1291	; 0x50b
     880:	3b0b3a08 	blcc	2cf0a8 <__bss_end__+0x2c5190>
     884:	0213490b 	andseq	r4, r3, #180224	; 0x2c000
     888:	0c000017 	stceq	0, cr0, [r0], {23}
     88c:	0803012e 	stmdaeq	r3, {r1, r2, r3, r5, r8}
     890:	0b3b0b3a 	bleq	ec3580 <__bss_end__+0xeb9668>
     894:	13491927 	movtne	r1, #39207	; 0x9927
     898:	06120111 			; <UNDEFINED> instruction: 0x06120111
     89c:	42971840 	addsmi	r1, r7, #64, 16	; 0x400000
     8a0:	00130119 	andseq	r0, r3, r9, lsl r1
     8a4:	00050d00 	andeq	r0, r5, r0, lsl #26
     8a8:	0b3a0e03 	bleq	e840bc <__bss_end__+0xe7a1a4>
     8ac:	13490b3b 	movtne	r0, #39739	; 0x9b3b
     8b0:	00001702 	andeq	r1, r0, r2, lsl #14
     8b4:	0300050e 	movweq	r0, #1294	; 0x50e
     8b8:	3b0b3a0e 	blcc	2cf0f8 <__bss_end__+0x2c51e0>
     8bc:	0213490b 	andseq	r4, r3, #180224	; 0x2c000
     8c0:	0f000018 	svceq	0x00000018
     8c4:	08030034 	stmdaeq	r3, {r2, r4, r5}
     8c8:	0b3b0b3a 	bleq	ec35b8 <__bss_end__+0xeb96a0>
     8cc:	18021349 	stmdane	r2, {r0, r3, r6, r8, r9, ip}
     8d0:	34100000 	ldrcc	r0, [r0], #-0
     8d4:	3a080300 	bcc	2014dc <__bss_end__+0x1f75c4>
     8d8:	490b3b0b 	stmdbmi	fp, {r0, r1, r3, r8, r9, fp, ip, sp}
     8dc:	00170213 	andseq	r0, r7, r3, lsl r2
     8e0:	00341100 	eorseq	r1, r4, r0, lsl #2
     8e4:	13490e03 	movtne	r0, #40451	; 0x9e03
     8e8:	18021934 	stmdane	r2, {r2, r4, r5, r8, fp, ip}
     8ec:	0b120000 	bleq	4808f4 <__bss_end__+0x4769dc>
     8f0:	12011101 	andne	r1, r1, #1073741824	; 0x40000000
     8f4:	00130106 	andseq	r0, r3, r6, lsl #2
     8f8:	00341300 	eorseq	r1, r4, r0, lsl #6
     8fc:	0b3a0e03 	bleq	e84110 <__bss_end__+0xe7a1f8>
     900:	13490b3b 	movtne	r0, #39739	; 0x9b3b
     904:	00001702 	andeq	r1, r0, r2, lsl #14
     908:	01828914 	orreq	r8, r2, r4, lsl r9
     90c:	31011100 	mrscc	r1, (UNDEF: 17)
     910:	15000013 	strne	r0, [r0, #-19]
     914:	01018289 	smlabbeq	r1, r9, r2, r8
     918:	13310111 	teqne	r1, #1073741828	; 0x40000004
     91c:	00001301 	andeq	r1, r0, r1, lsl #6
     920:	01828a16 	orreq	r8, r2, r6, lsl sl
     924:	91180200 	tstls	r8, r0, lsl #4
     928:	00001842 	andeq	r1, r0, r2, asr #16
     92c:	01828917 	orreq	r8, r2, r7, lsl r9
     930:	31011101 	tstcc	r1, r1, lsl #2
     934:	18000013 	stmdane	r0, {r0, r1, r4}
     938:	13490101 	movtne	r0, #37121	; 0x9101
     93c:	00001301 	andeq	r1, r0, r1, lsl #6
     940:	49002119 	stmdbmi	r0, {r0, r3, r4, r8, sp}
     944:	000b2f13 	andeq	r2, fp, r3, lsl pc
     948:	012e1a00 	teqeq	lr, r0, lsl #20
     94c:	0e03193f 	mcreq	9, 0, r1, cr3, cr15, {1}
     950:	0b3b0b3a 	bleq	ec3640 <__bss_end__+0xeb9728>
     954:	01111927 	tsteq	r1, r7, lsr #18
     958:	18400612 	stmdane	r0, {r1, r4, r9, sl}^
     95c:	01194297 			; <UNDEFINED> instruction: 0x01194297
     960:	1b000013 	blne	9b4 <_start-0x764c>
     964:	19270115 	stmdbne	r7!, {r0, r2, r4, r8}
     968:	13011349 	movwne	r1, #4937	; 0x1349
     96c:	051c0000 	ldreq	r0, [ip, #-0]
     970:	00134900 	andseq	r4, r3, r0, lsl #18
     974:	012e1d00 	teqeq	lr, r0, lsl #26
     978:	0e03193f 	mcreq	9, 0, r1, cr3, cr15, {1}
     97c:	0b3b0b3a 	bleq	ec366c <__bss_end__+0xeb9754>
     980:	13491927 	movtne	r1, #39207	; 0x9927
     984:	06120111 			; <UNDEFINED> instruction: 0x06120111
     988:	42971840 	addsmi	r1, r7, #64, 16	; 0x400000
     98c:	00130119 	andseq	r0, r3, r9, lsl r1
     990:	010b1e00 	tsteq	fp, r0, lsl #28
     994:	00001755 	andeq	r1, r0, r5, asr r7
     998:	0300341f 	movweq	r3, #1055	; 0x41f
     99c:	3b0b3a0e 	blcc	2cf1dc <__bss_end__+0x2c52c4>
     9a0:	3f13490b 	svccc	0x0013490b
     9a4:	00193c19 	andseq	r3, r9, r9, lsl ip
     9a8:	002e2000 	eoreq	r2, lr, r0
     9ac:	0e03193f 	mcreq	9, 0, r1, cr3, cr15, {1}
     9b0:	0b3b0b3a 	bleq	ec36a0 <__bss_end__+0xeb9788>
     9b4:	193c1927 	ldmdbne	ip!, {r0, r1, r2, r5, r8, fp, ip}
     9b8:	2e210000 	cdpcs	0, 2, cr0, cr1, cr0, {0}
     9bc:	03193f01 	tsteq	r9, #1, 30
     9c0:	3b0b3a0e 	blcc	2cf200 <__bss_end__+0x2c52e8>
     9c4:	4919270b 	ldmdbmi	r9, {r0, r1, r3, r8, r9, sl, sp}
     9c8:	01193c13 	tsteq	r9, r3, lsl ip
     9cc:	22000013 	andcs	r0, r0, #19
     9d0:	00000018 	andeq	r0, r0, r8, lsl r0
     9d4:	01110100 	tsteq	r1, r0, lsl #2
     9d8:	0b130e25 	bleq	4c4274 <__bss_end__+0x4ba35c>
     9dc:	0e1b0e03 	cdpeq	14, 1, cr0, cr11, cr3, {0}
     9e0:	06120111 			; <UNDEFINED> instruction: 0x06120111
     9e4:	00001710 	andeq	r1, r0, r0, lsl r7
     9e8:	0b002402 	bleq	99f8 <__FUNCTION__.4407+0x20c>
     9ec:	030b3e0b 	movweq	r3, #48651	; 0xbe0b
     9f0:	03000008 	movweq	r0, #8
     9f4:	0b0b0024 	bleq	2c0a8c <__bss_end__+0x2b6b74>
     9f8:	0e030b3e 	vmoveq.16	d3[0], r0
     9fc:	0f040000 	svceq	0x00040000
     a00:	490b0b00 	stmdbmi	fp, {r8, r9, fp}
     a04:	05000013 	streq	r0, [r0, #-19]
     a08:	13490026 	movtne	r0, #36902	; 0x9026
     a0c:	2e060000 	cdpcs	0, 0, cr0, cr6, cr0, {0}
     a10:	03193f01 	tsteq	r9, #1, 30
     a14:	3b0b3a0e 	blcc	2cf254 <__bss_end__+0x2c533c>
     a18:	1119270b 	tstne	r9, fp, lsl #14
     a1c:	40061201 	andmi	r1, r6, r1, lsl #4
     a20:	19429718 	stmdbne	r2, {r3, r4, r8, r9, sl, ip, pc}^
     a24:	00001301 	andeq	r1, r0, r1, lsl #6
     a28:	01828907 	orreq	r8, r2, r7, lsl #18
     a2c:	01011101 	tsteq	r1, r1, lsl #2
     a30:	08000013 	stmdaeq	r0, {r0, r1, r4}
     a34:	0001828a 	andeq	r8, r1, sl, lsl #5
     a38:	42911802 	addsmi	r1, r1, #131072	; 0x20000
     a3c:	09000018 	stmdbeq	r0, {r3, r4}
     a40:	01018289 	smlabbeq	r1, r9, r2, r8
     a44:	13310111 	teqne	r1, #1073741828	; 0x40000004
     a48:	00001301 	andeq	r1, r0, r1, lsl #6
     a4c:	0182890a 	orreq	r8, r2, sl, lsl #18
     a50:	31011100 	mrscc	r1, (UNDEF: 17)
     a54:	0b000013 	bleq	aa8 <_start-0x7558>
     a58:	19270115 	stmdbne	r7!, {r0, r2, r4, r8}
     a5c:	13011349 	movwne	r1, #4937	; 0x1349
     a60:	050c0000 	streq	r0, [ip, #-0]
     a64:	00134900 	andseq	r4, r3, r0, lsl #18
     a68:	00340d00 	eorseq	r0, r4, r0, lsl #26
     a6c:	0b3a0e03 	bleq	e84280 <__bss_end__+0xe7a368>
     a70:	13490b3b 	movtne	r0, #39739	; 0x9b3b
     a74:	193c193f 	ldmdbne	ip!, {r0, r1, r2, r3, r4, r5, r8, fp, ip}
     a78:	2e0e0000 	cdpcs	0, 0, cr0, cr14, cr0, {0}
     a7c:	03193f01 	tsteq	r9, #1, 30
     a80:	3b0b3a0e 	blcc	2cf2c0 <__bss_end__+0x2c53a8>
     a84:	3c19270b 	ldccc	7, cr2, [r9], {11}
     a88:	00130119 	andseq	r0, r3, r9, lsl r1
     a8c:	002e0f00 	eoreq	r0, lr, r0, lsl #30
     a90:	0e03193f 	mcreq	9, 0, r1, cr3, cr15, {1}
     a94:	0b3b0b3a 	bleq	ec3784 <__bss_end__+0xeb986c>
     a98:	193c1927 	ldmdbne	ip!, {r0, r1, r2, r5, r8, fp, ip}
     a9c:	01000000 	mrseq	r0, (UNDEF: 0)
     aa0:	0e250111 	mcreq	1, 1, r0, cr5, cr1, {0}
     aa4:	0e030b13 	vmoveq.32	d3[0], r0
     aa8:	01110e1b 	tsteq	r1, fp, lsl lr
     aac:	17100612 			; <UNDEFINED> instruction: 0x17100612
     ab0:	24020000 	strcs	r0, [r2], #-0
     ab4:	3e0b0b00 	vmlacc.f64	d0, d11, d0
     ab8:	0008030b 	andeq	r0, r8, fp, lsl #6
     abc:	00240300 	eoreq	r0, r4, r0, lsl #6
     ac0:	0b3e0b0b 	bleq	f836f4 <__bss_end__+0xf797dc>
     ac4:	00000e03 	andeq	r0, r0, r3, lsl #28
     ac8:	3f012e04 	svccc	0x00012e04
     acc:	3a0e0319 	bcc	381738 <__bss_end__+0x377820>
     ad0:	110b3b0b 	tstne	fp, fp, lsl #22
     ad4:	40061201 	andmi	r1, r6, r1, lsl #4
     ad8:	19429718 	stmdbne	r2, {r3, r4, r8, r9, sl, ip, pc}^
     adc:	00001301 	andeq	r1, r0, r1, lsl #6
     ae0:	03003405 	movweq	r3, #1029	; 0x405
     ae4:	3b0b3a0e 	blcc	2cf324 <__bss_end__+0x2c540c>
     ae8:	3f13490b 	svccc	0x0013490b
     aec:	00193c19 	andseq	r3, r9, r9, lsl ip
     af0:	002e0600 	eoreq	r0, lr, r0, lsl #12
     af4:	0e03193f 	mcreq	9, 0, r1, cr3, cr15, {1}
     af8:	0b3b0b3a 	bleq	ec37e8 <__bss_end__+0xeb98d0>
     afc:	193c1927 	ldmdbne	ip!, {r0, r1, r2, r5, r8, fp, ip}
     b00:	34070000 	strcc	r0, [r7], #-0
     b04:	3a080300 	bcc	20170c <__bss_end__+0x1f77f4>
     b08:	490b3b0b 	stmdbmi	fp, {r0, r1, r3, r8, r9, fp, ip, sp}
     b0c:	00170213 	andseq	r0, r7, r3, lsl r2
     b10:	00340800 	eorseq	r0, r4, r0, lsl #16
     b14:	0b3a0e03 	bleq	e84328 <__bss_end__+0xe7a410>
     b18:	13490b3b 	movtne	r0, #39739	; 0x9b3b
     b1c:	89090000 	stmdbhi	r9, {}	; <UNPREDICTABLE>
     b20:	11000182 	smlabbne	r0, r2, r1, r0
     b24:	00133101 	andseq	r3, r3, r1, lsl #2
     b28:	000f0a00 	andeq	r0, pc, r0, lsl #20
     b2c:	13490b0b 	movtne	r0, #39691	; 0x9b0b
     b30:	01000000 	mrseq	r0, (UNDEF: 0)
     b34:	0e250111 	mcreq	1, 1, r0, cr5, cr1, {0}
     b38:	0e030b13 	vmoveq.32	d3[0], r0
     b3c:	17550e1b 	smmlane	r5, fp, lr, r0
     b40:	17100111 			; <UNDEFINED> instruction: 0x17100111
     b44:	24020000 	strcs	r0, [r2], #-0
     b48:	3e0b0b00 	vmlacc.f64	d0, d11, d0
     b4c:	0008030b 	andeq	r0, r8, fp, lsl #6
     b50:	00240300 	eoreq	r0, r4, r0, lsl #6
     b54:	0b3e0b0b 	bleq	f83788 <__bss_end__+0xf79870>
     b58:	00000e03 	andeq	r0, r0, r3, lsl #28
     b5c:	3f012e04 	svccc	0x00012e04
     b60:	3a0e0319 	bcc	3817cc <__bss_end__+0x3778b4>
     b64:	270b3b0b 	strcs	r3, [fp, -fp, lsl #22]
     b68:	11134919 	tstne	r3, r9, lsl r9
     b6c:	40061201 	andmi	r1, r6, r1, lsl #4
     b70:	19429718 	stmdbne	r2, {r3, r4, r8, r9, sl, ip, pc}^
     b74:	00001301 	andeq	r1, r0, r1, lsl #6
     b78:	03003405 	movweq	r3, #1029	; 0x405
     b7c:	3b0b3a0e 	blcc	2cf3bc <__bss_end__+0x2c54a4>
     b80:	0213490b 	andseq	r4, r3, #180224	; 0x2c000
     b84:	06000017 			; <UNDEFINED> instruction: 0x06000017
     b88:	193f012e 	ldmdbne	pc!, {r1, r2, r3, r5, r8}	; <UNPREDICTABLE>
     b8c:	0b3a0e03 	bleq	e843a0 <__bss_end__+0xe7a488>
     b90:	19270b3b 	stmdbne	r7!, {r0, r1, r3, r4, r5, r8, r9, fp}
     b94:	06120111 			; <UNDEFINED> instruction: 0x06120111
     b98:	42971840 	addsmi	r1, r7, #64, 16	; 0x400000
     b9c:	00130119 	andseq	r0, r3, r9, lsl r1
     ba0:	00340700 	eorseq	r0, r4, r0, lsl #14
     ba4:	0b3a0e03 	bleq	e843b8 <__bss_end__+0xe7a4a0>
     ba8:	13490b3b 	movtne	r0, #39739	; 0x9b3b
     bac:	0000061c 	andeq	r0, r0, ip, lsl r6
     bb0:	03003408 	movweq	r3, #1032	; 0x408
     bb4:	3b0b3a0e 	blcc	2cf3f4 <__bss_end__+0x2c54dc>
     bb8:	1c13490b 	ldcne	9, cr4, [r3], {11}
     bbc:	0900000b 	stmdbeq	r0, {r0, r1, r3}
     bc0:	00018289 	andeq	r8, r1, r9, lsl #5
     bc4:	13310111 	teqne	r1, #1073741828	; 0x40000004
     bc8:	890a0000 	stmdbhi	sl, {}	; <UNPREDICTABLE>
     bcc:	11010182 	smlabbne	r1, r2, r1, r0
     bd0:	01133101 	tsteq	r3, r1, lsl #2
     bd4:	0b000013 	bleq	c28 <_start-0x73d8>
     bd8:	0001828a 	andeq	r8, r1, sl, lsl #5
     bdc:	42911802 	addsmi	r1, r1, #131072	; 0x20000
     be0:	0c000018 	stceq	0, cr0, [r0], {24}
     be4:	01018289 	smlabbeq	r1, r9, r2, r8
     be8:	13310111 	teqne	r1, #1073741828	; 0x40000004
     bec:	260d0000 	strcs	r0, [sp], -r0
     bf0:	00134900 	andseq	r4, r3, r0, lsl #18
     bf4:	012e0e00 	teqeq	lr, r0, lsl #28
     bf8:	0e03193f 	mcreq	9, 0, r1, cr3, cr15, {1}
     bfc:	0b3b0b3a 	bleq	ec38ec <__bss_end__+0xeb99d4>
     c00:	193c1927 	ldmdbne	ip!, {r0, r1, r2, r5, r8, fp, ip}
     c04:	00001301 	andeq	r1, r0, r1, lsl #6
     c08:	4900050f 	stmdbmi	r0, {r0, r1, r2, r3, r8, sl}
     c0c:	10000013 	andne	r0, r0, r3, lsl r0
     c10:	193f012e 	ldmdbne	pc!, {r1, r2, r3, r5, r8}	; <UNPREDICTABLE>
     c14:	0b3a0e03 	bleq	e84428 <__bss_end__+0xe7a510>
     c18:	19270b3b 	stmdbne	r7!, {r0, r1, r3, r4, r5, r8, r9, fp}
     c1c:	0000193c 	andeq	r1, r0, ip, lsr r9
     c20:	01110100 	tsteq	r1, r0, lsl #2
     c24:	0b130e25 	bleq	4c44c0 <__bss_end__+0x4ba5a8>
     c28:	0e1b0e03 	cdpeq	14, 1, cr0, cr11, cr3, {0}
     c2c:	06120111 			; <UNDEFINED> instruction: 0x06120111
     c30:	00001710 	andeq	r1, r0, r0, lsl r7
     c34:	0b002402 	bleq	9c44 <buf.4219+0x130>
     c38:	030b3e0b 	movweq	r3, #48651	; 0xbe0b
     c3c:	03000008 	movweq	r0, #8
     c40:	0b0b0024 	bleq	2c0cd8 <__bss_end__+0x2b6dc0>
     c44:	0e030b3e 	vmoveq.16	d3[0], r0
     c48:	2e040000 	cdpcs	0, 0, cr0, cr4, cr0, {0}
     c4c:	03193f01 	tsteq	r9, #1, 30
     c50:	3b0b3a0e 	blcc	2cf490 <__bss_end__+0x2c5578>
     c54:	1119270b 	tstne	r9, fp, lsl #14
     c58:	40061201 	andmi	r1, r6, r1, lsl #4
     c5c:	19429718 	stmdbne	r2, {r3, r4, r8, r9, sl, ip, pc}^
     c60:	00001301 	andeq	r1, r0, r1, lsl #6
     c64:	03000505 	movweq	r0, #1285	; 0x505
     c68:	3b0b3a0e 	blcc	2cf4a8 <__bss_end__+0x2c5590>
     c6c:	0213490b 	andseq	r4, r3, #180224	; 0x2c000
     c70:	06000017 			; <UNDEFINED> instruction: 0x06000017
     c74:	193f012e 	ldmdbne	pc!, {r1, r2, r3, r5, r8}	; <UNPREDICTABLE>
     c78:	0b3a0e03 	bleq	e8448c <__bss_end__+0xe7a574>
     c7c:	19270b3b 	stmdbne	r7!, {r0, r1, r3, r4, r5, r8, r9, fp}
     c80:	01111349 	tsteq	r1, r9, asr #6
     c84:	18400612 	stmdane	r0, {r1, r4, r9, sl}^
     c88:	01194297 			; <UNDEFINED> instruction: 0x01194297
     c8c:	07000013 	smladeq	r0, r3, r0, r0
     c90:	01018289 	smlabbeq	r1, r9, r2, r8
     c94:	13310111 	teqne	r1, #1073741828	; 0x40000004
     c98:	8a080000 	bhi	200ca0 <__bss_end__+0x1f6d88>
     c9c:	02000182 	andeq	r0, r0, #-2147483616	; 0x80000020
     ca0:	18429118 	stmdane	r2, {r3, r4, r8, ip, pc}^
     ca4:	34090000 	strcc	r0, [r9], #-0
     ca8:	3a080300 	bcc	2018b0 <__bss_end__+0x1f7998>
     cac:	490b3b0b 	stmdbmi	fp, {r0, r1, r3, r8, r9, fp, ip, sp}
     cb0:	00180213 	andseq	r0, r8, r3, lsl r2
     cb4:	82890a00 	addhi	r0, r9, #0, 20
     cb8:	01110001 	tsteq	r1, r1
     cbc:	00001331 	andeq	r1, r0, r1, lsr r3
     cc0:	0300050b 	movweq	r0, #1291	; 0x50b
     cc4:	3b0b3a08 	blcc	2cf4ec <__bss_end__+0x2c55d4>
     cc8:	0213490b 	andseq	r4, r3, #180224	; 0x2c000
     ccc:	0c000017 	stceq	0, cr0, [r0], {23}
     cd0:	0111010b 	tsteq	r1, fp, lsl #2
     cd4:	13010612 	movwne	r0, #5650	; 0x1612
     cd8:	340d0000 	strcc	r0, [sp], #-0
     cdc:	3a080300 	bcc	2018e4 <__bss_end__+0x1f79cc>
     ce0:	490b3b0b 	stmdbmi	fp, {r0, r1, r3, r8, r9, fp, ip, sp}
     ce4:	00170213 	andseq	r0, r7, r3, lsl r2
     ce8:	012e0e00 	teqeq	lr, r0, lsl #28
     cec:	0e03193f 	mcreq	9, 0, r1, cr3, cr15, {1}
     cf0:	0b3b0b3a 	bleq	ec39e0 <__bss_end__+0xeb9ac8>
     cf4:	13491927 	movtne	r1, #39207	; 0x9927
     cf8:	0000193c 	andeq	r1, r0, ip, lsr r9
     cfc:	4900050f 	stmdbmi	r0, {r0, r1, r2, r3, r8, sl}
     d00:	00000013 	andeq	r0, r0, r3, lsl r0
     d04:	25011101 	strcs	r1, [r1, #-257]	; 0x101
     d08:	030b130e 	movweq	r1, #45838	; 0xb30e
     d0c:	110e1b0e 	tstne	lr, lr, lsl #22
     d10:	10061201 	andne	r1, r6, r1, lsl #4
     d14:	02000017 	andeq	r0, r0, #23
     d18:	0b0b0024 	bleq	2c0db0 <__bss_end__+0x2b6e98>
     d1c:	0e030b3e 	vmoveq.16	d3[0], r0
     d20:	24030000 	strcs	r0, [r3], #-0
     d24:	3e0b0b00 	vmlacc.f64	d0, d11, d0
     d28:	0008030b 	andeq	r0, r8, fp, lsl #6
     d2c:	01040400 	tsteq	r4, r0, lsl #8
     d30:	0b3a0b0b 	bleq	e83964 <__bss_end__+0xe79a4c>
     d34:	13010b3b 	movwne	r0, #6971	; 0x1b3b
     d38:	28050000 	stmdacs	r5, {}	; <UNPREDICTABLE>
     d3c:	1c0e0300 	stcne	3, cr0, [lr], {-0}
     d40:	0600000d 	streq	r0, [r0], -sp
     d44:	0e030016 	mcreq	0, 0, r0, cr3, cr6, {0}
     d48:	0b3b0b3a 	bleq	ec3a38 <__bss_end__+0xeb9b20>
     d4c:	00001349 	andeq	r1, r0, r9, asr #6
     d50:	3f012e07 	svccc	0x00012e07
     d54:	3a0e0319 	bcc	3819c0 <__bss_end__+0x377aa8>
     d58:	270b3b0b 	strcs	r3, [fp, -fp, lsl #22]
     d5c:	12011119 	andne	r1, r1, #1073741830	; 0x40000006
     d60:	97184006 	ldrls	r4, [r8, -r6]
     d64:	13011942 	movwne	r1, #6466	; 0x1942
     d68:	05080000 	streq	r0, [r8, #-0]
     d6c:	3a080300 	bcc	201974 <__bss_end__+0x1f7a5c>
     d70:	490b3b0b 	stmdbmi	fp, {r0, r1, r3, r8, r9, fp, ip, sp}
     d74:	00170213 	andseq	r0, r7, r3, lsl r2
     d78:	00340900 	eorseq	r0, r4, r0, lsl #18
     d7c:	0b3a0e03 	bleq	e84590 <__bss_end__+0xe7a678>
     d80:	13490b3b 	movtne	r0, #39739	; 0x9b3b
     d84:	00001702 	andeq	r1, r0, r2, lsl #14
     d88:	0182890a 	orreq	r8, r2, sl, lsl #18
     d8c:	31011101 	tstcc	r1, r1, lsl #2
     d90:	00130113 	andseq	r0, r3, r3, lsl r1
     d94:	828a0b00 	addhi	r0, sl, #0, 22
     d98:	18020001 	stmdane	r2, {r0}
     d9c:	00184291 	mulseq	r8, r1, r2
     da0:	82890c00 	addhi	r0, r9, #0, 24
     da4:	01110101 	tsteq	r1, r1, lsl #2
     da8:	00001331 	andeq	r1, r0, r1, lsr r3
     dac:	0b000f0d 	bleq	49e8 <_start-0x3618>
     db0:	0013490b 	andseq	r4, r3, fp, lsl #18
     db4:	00350e00 	eorseq	r0, r5, r0, lsl #28
     db8:	00001349 	andeq	r1, r0, r9, asr #6
     dbc:	3f012e0f 	svccc	0x00012e0f
     dc0:	3a0e0319 	bcc	381a2c <__bss_end__+0x377b14>
     dc4:	270b3b0b 	strcs	r3, [fp, -fp, lsl #22]
     dc8:	11134919 	tstne	r3, r9, lsl r9
     dcc:	40061201 	andmi	r1, r6, r1, lsl #4
     dd0:	19429718 	stmdbne	r2, {r3, r4, r8, r9, sl, ip, pc}^
     dd4:	00001301 	andeq	r1, r0, r1, lsl #6
     dd8:	03003410 	movweq	r3, #1040	; 0x410
     ddc:	3b0b3a08 	blcc	2cf604 <__bss_end__+0x2c56ec>
     de0:	0213490b 	andseq	r4, r3, #180224	; 0x2c000
     de4:	11000017 	tstne	r0, r7, lsl r0
     de8:	00018289 	andeq	r8, r1, r9, lsl #5
     dec:	13310111 	teqne	r1, #1073741828	; 0x40000004
     df0:	05120000 	ldreq	r0, [r2, #-0]
     df4:	3a0e0300 	bcc	3819fc <__bss_end__+0x377ae4>
     df8:	490b3b0b 	stmdbmi	fp, {r0, r1, r3, r8, r9, fp, ip, sp}
     dfc:	00170213 	andseq	r0, r7, r3, lsl r2
     e00:	012e1300 	teqeq	lr, r0, lsl #6
     e04:	0e03193f 	mcreq	9, 0, r1, cr3, cr15, {1}
     e08:	053b0b3a 	ldreq	r0, [fp, #-2874]!	; 0xb3a
     e0c:	13491927 	movtne	r1, #39207	; 0x9927
     e10:	06120111 			; <UNDEFINED> instruction: 0x06120111
     e14:	42971840 	addsmi	r1, r7, #64, 16	; 0x400000
     e18:	00130119 	andseq	r0, r3, r9, lsl r1
     e1c:	00051400 	andeq	r1, r5, r0, lsl #8
     e20:	0b3a0e03 	bleq	e84634 <__bss_end__+0xe7a71c>
     e24:	1349053b 	movtne	r0, #38203	; 0x953b
     e28:	00001702 	andeq	r1, r0, r2, lsl #14
     e2c:	3f012e15 	svccc	0x00012e15
     e30:	3a0e0319 	bcc	381a9c <__bss_end__+0x377b84>
     e34:	27053b0b 	strcs	r3, [r5, -fp, lsl #22]
     e38:	12011119 	andne	r1, r1, #1073741830	; 0x40000006
     e3c:	97184006 	ldrls	r4, [r8, -r6]
     e40:	13011942 	movwne	r1, #6466	; 0x1942
     e44:	05160000 	ldreq	r0, [r6, #-0]
     e48:	3a080300 	bcc	201a50 <__bss_end__+0x1f7b38>
     e4c:	49053b0b 	stmdbmi	r5, {r0, r1, r3, r8, r9, fp, ip, sp}
     e50:	00170213 	andseq	r0, r7, r3, lsl r2
     e54:	00341700 	eorseq	r1, r4, r0, lsl #14
     e58:	0b3a0e03 	bleq	e8466c <__bss_end__+0xe7a754>
     e5c:	1349053b 	movtne	r0, #38203	; 0x953b
     e60:	00001702 	andeq	r1, r0, r2, lsl #14
     e64:	11010b18 	tstne	r1, r8, lsl fp
     e68:	01061201 	tsteq	r6, r1, lsl #4
     e6c:	19000013 	stmdbne	r0, {r0, r1, r4}
     e70:	0e030034 	mcreq	0, 0, r0, cr3, cr4, {1}
     e74:	0b3b0b3a 	bleq	ec3b64 <__bss_end__+0xeb9c4c>
     e78:	193f1349 	ldmdbne	pc!, {r0, r3, r6, r8, r9, ip}	; <UNPREDICTABLE>
     e7c:	00001802 	andeq	r1, r0, r2, lsl #16
     e80:	0300341a 	movweq	r3, #1050	; 0x41a
     e84:	3b0b3a0e 	blcc	2cf6c4 <__bss_end__+0x2c57ac>
     e88:	3f134905 	svccc	0x00134905
     e8c:	00180219 	andseq	r0, r8, r9, lsl r2
     e90:	012e1b00 	teqeq	lr, r0, lsl #22
     e94:	0e03193f 	mcreq	9, 0, r1, cr3, cr15, {1}
     e98:	0b3b0b3a 	bleq	ec3b88 <__bss_end__+0xeb9c70>
     e9c:	13491927 	movtne	r1, #39207	; 0x9927
     ea0:	1301193c 	movwne	r1, #6460	; 0x193c
     ea4:	051c0000 	ldreq	r0, [ip, #-0]
     ea8:	00134900 	andseq	r4, r3, r0, lsl #18
     eac:	00261d00 	eoreq	r1, r6, r0, lsl #26
     eb0:	00001349 	andeq	r1, r0, r9, asr #6
     eb4:	0000351e 	andeq	r3, r0, lr, lsl r5
     eb8:	012e1f00 	teqeq	lr, r0, lsl #30
     ebc:	0e03193f 	mcreq	9, 0, r1, cr3, cr15, {1}
     ec0:	0b3b0b3a 	bleq	ec3bb0 <__bss_end__+0xeb9c98>
     ec4:	193c1927 	ldmdbne	ip!, {r0, r1, r2, r5, r8, fp, ip}
     ec8:	00001301 	andeq	r1, r0, r1, lsl #6
     ecc:	3f002e20 	svccc	0x00002e20
     ed0:	3a0e0319 	bcc	381b3c <__bss_end__+0x377c24>
     ed4:	270b3b0b 	strcs	r3, [fp, -fp, lsl #22]
     ed8:	00193c19 	andseq	r3, r9, r9, lsl ip
     edc:	11010000 	mrsne	r0, (UNDEF: 1)
     ee0:	130e2501 	movwne	r2, #58625	; 0xe501
     ee4:	1b0e030b 	blne	381b18 <__bss_end__+0x377c00>
     ee8:	1201110e 	andne	r1, r1, #-2147483645	; 0x80000003
     eec:	00171006 	andseq	r1, r7, r6
     ef0:	00240200 	eoreq	r0, r4, r0, lsl #4
     ef4:	0b3e0b0b 	bleq	f83b28 <__bss_end__+0xf79c10>
     ef8:	00000803 	andeq	r0, r0, r3, lsl #16
     efc:	0b002403 	bleq	9f10 <buf.4219+0x3fc>
     f00:	030b3e0b 	movweq	r3, #48651	; 0xbe0b
     f04:	0400000e 	streq	r0, [r0], #-14
     f08:	0b0b0104 	bleq	2c1320 <__bss_end__+0x2b7408>
     f0c:	0b3b0b3a 	bleq	ec3bfc <__bss_end__+0xeb9ce4>
     f10:	00001301 	andeq	r1, r0, r1, lsl #6
     f14:	03002805 	movweq	r2, #2053	; 0x805
     f18:	000d1c0e 	andeq	r1, sp, lr, lsl #24
     f1c:	00160600 	andseq	r0, r6, r0, lsl #12
     f20:	0b3a0e03 	bleq	e84734 <__bss_end__+0xe7a81c>
     f24:	13490b3b 	movtne	r0, #39739	; 0x9b3b
     f28:	2e070000 	cdpcs	0, 0, cr0, cr7, cr0, {0}
     f2c:	03193f01 	tsteq	r9, #1, 30
     f30:	3b0b3a0e 	blcc	2cf770 <__bss_end__+0x2c5858>
     f34:	1119270b 	tstne	r9, fp, lsl #14
     f38:	40061201 	andmi	r1, r6, r1, lsl #4
     f3c:	19429718 	stmdbne	r2, {r3, r4, r8, r9, sl, ip, pc}^
     f40:	00001301 	andeq	r1, r0, r1, lsl #6
     f44:	01828908 	orreq	r8, r2, r8, lsl #18
     f48:	31011100 	mrscc	r1, (UNDEF: 17)
     f4c:	09000013 	stmdbeq	r0, {r0, r1, r4}
     f50:	01018289 	smlabbeq	r1, r9, r2, r8
     f54:	13310111 	teqne	r1, #1073741828	; 0x40000004
     f58:	00001301 	andeq	r1, r0, r1, lsl #6
     f5c:	01828a0a 	orreq	r8, r2, sl, lsl #20
     f60:	91180200 	tstls	r8, r0, lsl #4
     f64:	00001842 	andeq	r1, r0, r2, asr #16
     f68:	3f012e0b 	svccc	0x00012e0b
     f6c:	3a0e0319 	bcc	381bd8 <__bss_end__+0x377cc0>
     f70:	270b3b0b 	strcs	r3, [fp, -fp, lsl #22]
     f74:	11134919 	tstne	r3, r9, lsl r9
     f78:	40061201 	andmi	r1, r6, r1, lsl #4
     f7c:	19429718 	stmdbne	r2, {r3, r4, r8, r9, sl, ip, pc}^
     f80:	00001301 	andeq	r1, r0, r1, lsl #6
     f84:	0300050c 	movweq	r0, #1292	; 0x50c
     f88:	3b0b3a08 	blcc	2cf7b0 <__bss_end__+0x2c5898>
     f8c:	0213490b 	andseq	r4, r3, #180224	; 0x2c000
     f90:	0d000017 	stceq	0, cr0, [r0, #-92]	; 0xffffffa4
     f94:	01018289 	smlabbeq	r1, r9, r2, r8
     f98:	13310111 	teqne	r1, #1073741828	; 0x40000004
     f9c:	340e0000 	strcc	r0, [lr], #-0
     fa0:	3a0e0300 	bcc	381ba8 <__bss_end__+0x377c90>
     fa4:	490b3b0b 	stmdbmi	fp, {r0, r1, r3, r8, r9, fp, ip, sp}
     fa8:	02193f13 	andseq	r3, r9, #19, 30	; 0x4c
     fac:	0f000018 	svceq	0x00000018
     fb0:	0b0b000f 	bleq	2c0ff4 <__bss_end__+0x2b70dc>
     fb4:	00001349 	andeq	r1, r0, r9, asr #6
     fb8:	49003510 	stmdbmi	r0, {r4, r8, sl, ip, sp}
     fbc:	11000013 	tstne	r0, r3, lsl r0
     fc0:	193f002e 	ldmdbne	pc!, {r1, r2, r3, r5}	; <UNPREDICTABLE>
     fc4:	0b3a0e03 	bleq	e847d8 <__bss_end__+0xe7a8c0>
     fc8:	19270b3b 	stmdbne	r7!, {r0, r1, r3, r4, r5, r8, r9, fp}
     fcc:	0000193c 	andeq	r1, r0, ip, lsr r9
     fd0:	3f012e12 	svccc	0x00012e12
     fd4:	3a0e0319 	bcc	381c40 <__bss_end__+0x377d28>
     fd8:	270b3b0b 	strcs	r3, [fp, -fp, lsl #22]
     fdc:	01193c19 	tsteq	r9, r9, lsl ip
     fe0:	13000013 	movwne	r0, #19
     fe4:	13490005 	movtne	r0, #36869	; 0x9005
     fe8:	2e140000 	cdpcs	0, 1, cr0, cr4, cr0, {0}
     fec:	03193f01 	tsteq	r9, #1, 30
     ff0:	3b0b3a0e 	blcc	2cf830 <__bss_end__+0x2c5918>
     ff4:	4919270b 	ldmdbmi	r9, {r0, r1, r3, r8, r9, sl, sp}
     ff8:	01193c13 	tsteq	r9, r3, lsl ip
     ffc:	15000013 	strne	r0, [r0, #-19]
    1000:	13490026 	movtne	r0, #36902	; 0x9026
    1004:	35160000 	ldrcc	r0, [r6, #-0]
    1008:	00000000 	andeq	r0, r0, r0

Disassembly of section .debug_loc:

00000000 <.debug_loc>:
       0:	00000000 	andeq	r0, r0, r0
       4:	00000027 	andeq	r0, r0, r7, lsr #32
       8:	27500001 	ldrbcs	r0, [r0, -r1]
       c:	4c000000 	stcmi	0, cr0, [r0], {-0}
      10:	04000000 	streq	r0, [r0], #-0
      14:	5001f300 	andpl	pc, r1, r0, lsl #6
      18:	0000009f 	muleq	r0, pc, r0	; <UNPREDICTABLE>
	...
      24:	00002000 	andeq	r2, r0, r0
      28:	51000100 	mrspl	r0, (UNDEF: 16)
      2c:	00000020 	andeq	r0, r0, r0, lsr #32
      30:	00000027 	andeq	r0, r0, r7, lsr #32
      34:	00710002 	rsbseq	r0, r1, r2
      38:	00000027 	andeq	r0, r0, r7, lsr #32
      3c:	0000004c 	andeq	r0, r0, ip, asr #32
      40:	01f30004 	mvnseq	r0, r4
      44:	00009f51 	andeq	r9, r0, r1, asr pc
	...
      50:	00240000 	eoreq	r0, r4, r0
      54:	00010000 	andeq	r0, r1, r0
      58:	00002452 	andeq	r2, r0, r2, asr r4
      5c:	00004c00 	andeq	r4, r0, r0, lsl #24
      60:	f3000400 	vshl.u8	d0, d0, d0
      64:	009f5201 	addseq	r5, pc, r1, lsl #4
      68:	00000000 	andeq	r0, r0, r0
      6c:	4c000000 	stcmi	0, cr0, [r0], {-0}
      70:	6b000000 	blvs	78 <_start-0x7f88>
      74:	01000000 	mrseq	r0, (UNDEF: 0)
      78:	006b5000 	rsbeq	r5, fp, r0
      7c:	009c0000 	addseq	r0, ip, r0
      80:	00040000 	andeq	r0, r4, r0
      84:	9f5001f3 	svcls	0x005001f3
	...
      90:	0000004c 	andeq	r0, r0, ip, asr #32
      94:	00000064 	andeq	r0, r0, r4, rrx
      98:	64510001 	ldrbvs	r0, [r1], #-1
      9c:	6b000000 	blvs	a4 <_start-0x7f5c>
      a0:	02000000 	andeq	r0, r0, #0
      a4:	6b007100 	blvs	1c4ac <__bss_end__+0x12594>
      a8:	9c000000 	stcls	0, cr0, [r0], {-0}
      ac:	04000000 	streq	r0, [r0], #-0
      b0:	5101f300 	mrspl	pc, SP_irq	; <UNPREDICTABLE>
      b4:	0000009f 	muleq	r0, pc, r0	; <UNPREDICTABLE>
      b8:	00000000 	andeq	r0, r0, r0
      bc:	00009000 	andeq	r9, r0, r0
      c0:	00009400 	andeq	r9, r0, r0, lsl #8
      c4:	70000800 	andvc	r0, r0, r0, lsl #16
      c8:	73243800 	teqvc	r4, #0, 16
      cc:	949f2100 	ldrls	r2, [pc], #256	; d4 <_start-0x7f2c>
      d0:	98000000 	stmdals	r0, {}	; <UNPREDICTABLE>
      d4:	0d000000 	stceq	0, cr0, [r0, #-0]
      d8:	94007d00 	strls	r7, [r0], #-3328	; 0xd00
      dc:	1aff0801 	bne	fffc20e8 <__bss_end__+0xfffb81d0>
      e0:	00732438 	rsbseq	r2, r3, r8, lsr r4
      e4:	00989f21 	addseq	r9, r8, r1, lsr #30
      e8:	009c0000 	addseq	r0, ip, r0
      ec:	000d0000 	andeq	r0, sp, r0
      f0:	01946891 			; <UNDEFINED> instruction: 0x01946891
      f4:	381aff08 	ldmdacc	sl, {r3, r8, r9, sl, fp, ip, sp, lr, pc}
      f8:	21007324 	tstcs	r0, r4, lsr #6
      fc:	0000009f 	muleq	r0, pc, r0	; <UNPREDICTABLE>
     100:	00000000 	andeq	r0, r0, r0
     104:	0000fc00 	andeq	pc, r0, r0, lsl #24
     108:	00010800 	andeq	r0, r1, r0, lsl #16
     10c:	50000100 	andpl	r0, r0, r0, lsl #2
     110:	00000108 	andeq	r0, r0, r8, lsl #2
     114:	0000016c 	andeq	r0, r0, ip, ror #2
     118:	00540001 	subseq	r0, r4, r1
     11c:	00000000 	andeq	r0, r0, r0
     120:	b4000000 	strlt	r0, [r0], #-0
     124:	bf000001 	svclt	0x00000001
     128:	01000001 	tsteq	r0, r1
     12c:	02005000 	andeq	r5, r0, #0
     130:	02140000 	andseq	r0, r4, #0
     134:	00010000 	andeq	r0, r1, r0
     138:	00000050 	andeq	r0, r0, r0, asr r0
     13c:	00000000 	andeq	r0, r0, r0
     140:	0001d800 	andeq	sp, r1, r0, lsl #16
     144:	00020000 	andeq	r0, r2, r0
     148:	54000100 	strpl	r0, [r0], #-256	; 0x100
     14c:	00000214 	andeq	r0, r0, r4, lsl r2
     150:	00000244 	andeq	r0, r0, r4, asr #4
     154:	00540001 	subseq	r0, r4, r1
     158:	00000000 	andeq	r0, r0, r0
     15c:	e4000000 	str	r0, [r0], #-0
     160:	ec000001 	stc	0, cr0, [r0], {1}
     164:	01000001 	tsteq	r0, r1
     168:	01ec5000 	mvneq	r5, r0
     16c:	01ef0000 	mvneq	r0, r0
     170:	00010000 	andeq	r0, r1, r0
     174:	00000051 	andeq	r0, r0, r1, asr r0
     178:	00000000 	andeq	r0, r0, r0
     17c:	0003f400 	andeq	pc, r3, r0, lsl #8
     180:	00040b00 	andeq	r0, r4, r0, lsl #22
     184:	50000100 	andpl	r0, r0, r0, lsl #2
     188:	0000040b 	andeq	r0, r0, fp, lsl #8
     18c:	000004b8 			; <UNDEFINED> instruction: 0x000004b8
     190:	01f30004 	mvnseq	r0, r4
     194:	00009f50 	andeq	r9, r0, r0, asr pc
     198:	00000000 	andeq	r0, r0, r0
     19c:	03f40000 	mvnseq	r0, #0
     1a0:	04080000 	streq	r0, [r8], #-0
     1a4:	00010000 	andeq	r0, r1, r0
     1a8:	00040851 	andeq	r0, r4, r1, asr r8
     1ac:	0004b800 	andeq	fp, r4, r0, lsl #16
     1b0:	55000100 	strpl	r0, [r0, #-256]	; 0x100
	...
     1bc:	000003f4 	strdeq	r0, [r0], -r4
     1c0:	00000404 	andeq	r0, r0, r4, lsl #8
     1c4:	04520001 	ldrbeq	r0, [r2], #-1
     1c8:	b8000004 	stmdalt	r0, {r2}
     1cc:	01000004 	tsteq	r0, r4
     1d0:	00005400 	andeq	r5, r0, r0, lsl #8
     1d4:	00000000 	andeq	r0, r0, r0
     1d8:	040c0000 	streq	r0, [ip], #-0
     1dc:	04140000 	ldreq	r0, [r4], #-0
     1e0:	00020000 	andeq	r0, r2, r0
     1e4:	04149f30 	ldreq	r9, [r4], #-3888	; 0xf30
     1e8:	04170000 	ldreq	r0, [r7], #-0
     1ec:	00010000 	andeq	r0, r1, r0
     1f0:	00043052 	andeq	r3, r4, r2, asr r0
     1f4:	00047b00 	andeq	r7, r4, r0, lsl #22
     1f8:	52000100 	andpl	r0, r0, #0, 2
     1fc:	00000494 	muleq	r0, r4, r4
     200:	00000497 	muleq	r0, r7, r4
     204:	00520001 	subseq	r0, r2, r1
     208:	00000000 	andeq	r0, r0, r0
     20c:	30000000 	andcc	r0, r0, r0
     210:	47000003 	strmi	r0, [r0, -r3]
     214:	01000003 	tsteq	r0, r3
     218:	03475000 	movteq	r5, #28672	; 0x7000
     21c:	03f40000 	mvnseq	r0, #0
     220:	00040000 	andeq	r0, r4, r0
     224:	9f5001f3 	svcls	0x005001f3
	...
     230:	00000330 	andeq	r0, r0, r0, lsr r3
     234:	00000344 	andeq	r0, r0, r4, asr #6
     238:	44510001 	ldrbmi	r0, [r1], #-1
     23c:	f4000003 	vst4.8	{d0-d3}, [r0], r3
     240:	01000003 	tsteq	r0, r3
     244:	00005500 	andeq	r5, r0, r0, lsl #10
     248:	00000000 	andeq	r0, r0, r0
     24c:	03300000 	teqeq	r0, #0
     250:	03400000 	movteq	r0, #0
     254:	00010000 	andeq	r0, r1, r0
     258:	00034052 	andeq	r4, r3, r2, asr r0
     25c:	0003f400 	andeq	pc, r3, r0, lsl #8
     260:	54000100 	strpl	r0, [r0], #-256	; 0x100
	...
     26c:	00000348 	andeq	r0, r0, r8, asr #6
     270:	00000350 	andeq	r0, r0, r0, asr r3
     274:	9f300002 	svcls	0x00300002
     278:	00000350 	andeq	r0, r0, r0, asr r3
     27c:	00000353 	andeq	r0, r0, r3, asr r3
     280:	6c520001 	mrrcvs	0, 0, r0, r2, cr1
     284:	b7000003 	strlt	r0, [r0, -r3]
     288:	01000003 	tsteq	r0, r3
     28c:	03d05200 	bicseq	r5, r0, #0, 4
     290:	03d30000 	bicseq	r0, r3, #0
     294:	00010000 	andeq	r0, r1, r0
     298:	00000052 	andeq	r0, r0, r2, asr r0
     29c:	00000000 	andeq	r0, r0, r0
     2a0:	00016400 	andeq	r6, r1, r0, lsl #8
     2a4:	00017700 	andeq	r7, r1, r0, lsl #14
     2a8:	50000100 	andpl	r0, r0, r0, lsl #2
     2ac:	00000177 	andeq	r0, r0, r7, ror r1
     2b0:	00000330 	andeq	r0, r0, r0, lsr r3
     2b4:	00560001 	subseq	r0, r6, r1
     2b8:	00000000 	andeq	r0, r0, r0
     2bc:	64000000 	strvs	r0, [r0], #-0
     2c0:	77000001 	strvc	r0, [r0, -r1]
     2c4:	01000001 	tsteq	r0, r1
     2c8:	01775100 	cmneq	r7, r0, lsl #2
     2cc:	02200000 	eoreq	r0, r0, #0
     2d0:	00010000 	andeq	r0, r1, r0
     2d4:	00022055 	andeq	r2, r2, r5, asr r0
     2d8:	00028c00 	andeq	r8, r2, r0, lsl #24
     2dc:	f3000400 	vshl.u8	d0, d0, d0
     2e0:	8c9f5101 	ldfhis	f5, [pc], {1}
     2e4:	e0000002 	and	r0, r0, r2
     2e8:	01000002 	tsteq	r0, r2
     2ec:	02e05500 	rsceq	r5, r0, #0, 10
     2f0:	03300000 	teqeq	r0, #0
     2f4:	00040000 	andeq	r0, r4, r0
     2f8:	9f5101f3 	svcls	0x005101f3
	...
     304:	00000164 	andeq	r0, r0, r4, ror #2
     308:	00000177 	andeq	r0, r0, r7, ror r1
     30c:	77520001 	ldrbvc	r0, [r2, -r1]
     310:	30000001 	andcc	r0, r0, r1
     314:	01000003 	tsteq	r0, r3
     318:	00005400 	andeq	r5, r0, r0, lsl #8
     31c:	00000000 	andeq	r0, r0, r0
     320:	02300000 	eorseq	r0, r0, #0
     324:	02340000 	eorseq	r0, r4, #0
     328:	00010000 	andeq	r0, r1, r0
     32c:	00000050 	andeq	r0, r0, r0, asr r0
     330:	00000000 	andeq	r0, r0, r0
     334:	00014000 	andeq	r4, r1, r0
     338:	00014400 	andeq	r4, r1, r0, lsl #8
     33c:	51000100 	mrspl	r0, (UNDEF: 16)
	...
     348:	0000011c 	andeq	r0, r0, ip, lsl r1
     34c:	00000123 	andeq	r0, r0, r3, lsr #2
     350:	23500001 	cmpcs	r0, #1
     354:	2c000001 	stccs	0, cr0, [r0], {1}
     358:	04000001 	streq	r0, [r0], #-1
     35c:	5001f300 	andpl	pc, r1, r0, lsl #6
     360:	0000009f 	muleq	r0, pc, r0	; <UNPREDICTABLE>
     364:	00000000 	andeq	r0, r0, r0
     368:	00001400 	andeq	r1, r0, r0, lsl #8
     36c:	00001800 	andeq	r1, r0, r0, lsl #16
     370:	50000100 	andpl	r0, r0, r0, lsl #2
	...
     37c:	00000154 	andeq	r0, r0, r4, asr r1
     380:	0000015b 	andeq	r0, r0, fp, asr r1
     384:	5b500001 	blpl	1400390 <__bss_end__+0x13f6478>
     388:	64000001 	strvs	r0, [r0], #-1
     38c:	04000001 	streq	r0, [r0], #-1
     390:	5001f300 	andpl	pc, r1, r0, lsl #6
     394:	0000009f 	muleq	r0, pc, r0	; <UNPREDICTABLE>
	...
     3a0:	00000400 	andeq	r0, r0, r0, lsl #8
     3a4:	50000100 	andpl	r0, r0, r0, lsl #2
     3a8:	00000010 	andeq	r0, r0, r0, lsl r0
     3ac:	00000010 	andeq	r0, r0, r0, lsl r0
     3b0:	00500001 	subseq	r0, r0, r1
     3b4:	00000000 	andeq	r0, r0, r0
     3b8:	2c000000 	stccs	0, cr0, [r0], {-0}
     3bc:	38000000 	stmdacc	r0, {}	; <UNPREDICTABLE>
     3c0:	01000000 	mrseq	r0, (UNDEF: 0)
     3c4:	00385000 	eorseq	r5, r8, r0
     3c8:	00480000 	subeq	r0, r8, r0
     3cc:	00010000 	andeq	r0, r1, r0
     3d0:	00004855 	andeq	r4, r0, r5, asr r8
     3d4:	00005800 	andeq	r5, r0, r0, lsl #16
     3d8:	50000100 	andpl	r0, r0, r0, lsl #2
	...
     3e8:	0000000b 	andeq	r0, r0, fp
     3ec:	0b500001 	bleq	14003f8 <__bss_end__+0x13f64e0>
     3f0:	14000000 	strne	r0, [r0], #-0
     3f4:	01000000 	mrseq	r0, (UNDEF: 0)
     3f8:	00005400 	andeq	r5, r0, r0, lsl #8
	...
     404:	00100000 	andseq	r0, r0, r0
     408:	00010000 	andeq	r0, r1, r0
     40c:	00001050 	andeq	r1, r0, r0, asr r0
     410:	00003400 	andeq	r3, r0, r0, lsl #8
     414:	54000100 	strpl	r0, [r0], #-256	; 0x100
	...
     424:	00000004 	andeq	r0, r0, r4
     428:	04500001 	ldrbeq	r0, [r0], #-1
     42c:	0c000000 	stceq	0, cr0, [r0], {-0}
     430:	03000000 	movweq	r0, #0
     434:	9f307000 	svcls	0x00307000
     438:	0000000c 	andeq	r0, r0, ip
     43c:	00000014 	andeq	r0, r0, r4, lsl r0
     440:	01f30004 	mvnseq	r0, r4
     444:	00009f50 	andeq	r9, r0, r0, asr pc
     448:	00000000 	andeq	r0, r0, r0
     44c:	00140000 	andseq	r0, r4, r0
     450:	00200000 	eoreq	r0, r0, r0
     454:	00010000 	andeq	r0, r1, r0
     458:	00002050 	andeq	r2, r0, r0, asr r0
     45c:	00002c00 	andeq	r2, r0, r0, lsl #24
     460:	70000300 	andvc	r0, r0, r0, lsl #6
     464:	002c9f01 	eoreq	r9, ip, r1, lsl #30
     468:	00400000 	subeq	r0, r0, r0
     46c:	00010000 	andeq	r0, r1, r0
     470:	00000050 	andeq	r0, r0, r0, asr r0
     474:	00000000 	andeq	r0, r0, r0
     478:	00001400 	andeq	r1, r0, r0, lsl #8
     47c:	00001800 	andeq	r1, r0, r0, lsl #16
     480:	51000100 	mrspl	r0, (UNDEF: 16)
     484:	00000018 	andeq	r0, r0, r8, lsl r0
     488:	00000040 	andeq	r0, r0, r0, asr #32
     48c:	01f30004 	mvnseq	r0, r4
     490:	00009f51 	andeq	r9, r0, r1, asr pc
     494:	00000000 	andeq	r0, r0, r0
     498:	00400000 	subeq	r0, r0, r0
     49c:	00600000 	rsbeq	r0, r0, r0
     4a0:	00010000 	andeq	r0, r1, r0
     4a4:	00006050 	andeq	r6, r0, r0, asr r0
     4a8:	00006c00 	andeq	r6, r0, r0, lsl #24
     4ac:	71000300 	mrsvc	r0, LR_irq
     4b0:	006c9f01 	rsbeq	r9, ip, r1, lsl #30
     4b4:	00740000 	rsbseq	r0, r4, r0
     4b8:	00010000 	andeq	r0, r1, r0
     4bc:	00007451 	andeq	r7, r0, r1, asr r4
     4c0:	00008000 	andeq	r8, r0, r0
     4c4:	71000300 	mrsvc	r0, LR_irq
     4c8:	00009f01 	andeq	r9, r0, r1, lsl #30
     4cc:	00000000 	andeq	r0, r0, r0
     4d0:	00400000 	subeq	r0, r0, r0
     4d4:	00500000 	subseq	r0, r0, r0
     4d8:	00010000 	andeq	r0, r1, r0
     4dc:	00005051 	andeq	r5, r0, r1, asr r0
     4e0:	00008000 	andeq	r8, r0, r0
     4e4:	f3000400 	vshl.u8	d0, d0, d0
     4e8:	009f5101 	addseq	r5, pc, r1, lsl #2
     4ec:	00000000 	andeq	r0, r0, r0
     4f0:	40000000 	andmi	r0, r0, r0
     4f4:	58000000 	stmdapl	r0, {}	; <UNPREDICTABLE>
     4f8:	01000000 	mrseq	r0, (UNDEF: 0)
     4fc:	00585200 	subseq	r5, r8, r0, lsl #4
     500:	00640000 	rsbeq	r0, r4, r0
     504:	00010000 	andeq	r0, r1, r0
     508:	00006452 	andeq	r6, r0, r2, asr r4
     50c:	00006800 	andeq	r6, r0, r0, lsl #16
     510:	72000300 	andvc	r0, r0, #0, 6
     514:	00689f01 	rsbeq	r9, r8, r1, lsl #30
     518:	00800000 	addeq	r0, r0, r0
     51c:	00010000 	andeq	r0, r1, r0
     520:	00000052 	andeq	r0, r0, r2, asr r0
     524:	00000000 	andeq	r0, r0, r0
     528:	00004000 	andeq	r4, r0, r0
     52c:	00005400 	andeq	r5, r0, r0, lsl #8
     530:	53000100 	movwpl	r0, #256	; 0x100
     534:	00000054 	andeq	r0, r0, r4, asr r0
     538:	00000078 	andeq	r0, r0, r8, ror r0
     53c:	00530001 	subseq	r0, r3, r1
     540:	00000000 	andeq	r0, r0, r0
     544:	48000000 	stmdami	r0, {}	; <UNPREDICTABLE>
     548:	60000000 	andvs	r0, r0, r0
     54c:	01000000 	mrseq	r0, (UNDEF: 0)
     550:	00605c00 	rsbeq	r5, r0, r0, lsl #24
     554:	00800000 	addeq	r0, r0, r0
     558:	000a0000 	andeq	r0, sl, r0
     55c:	f35201f3 	vbsl	q8, q9, <illegal reg q9.5>
     560:	231c5301 	tstcs	ip, #67108864	; 0x4000000
     564:	00009f01 	andeq	r9, r0, r1, lsl #30
     568:	00000000 	andeq	r0, r0, r0
     56c:	00800000 	addeq	r0, r0, r0
     570:	00a40000 	adceq	r0, r4, r0
     574:	00010000 	andeq	r0, r1, r0
     578:	0000a450 	andeq	sl, r0, r0, asr r4
     57c:	00011800 	andeq	r1, r1, r0, lsl #16
     580:	70000300 	andvc	r0, r0, r0, lsl #6
     584:	01189f02 	tsteq	r8, r2, lsl #30
     588:	021c0000 	andseq	r0, ip, #0
     58c:	00040000 	andeq	r0, r4, r0
     590:	9f5001f3 	svcls	0x005001f3
	...
     59c:	00000080 	andeq	r0, r0, r0, lsl #1
     5a0:	000000f0 	strdeq	r0, [r0], -r0	; <UNPREDICTABLE>
     5a4:	f0510001 			; <UNDEFINED> instruction: 0xf0510001
     5a8:	60000000 	andvs	r0, r0, r0
     5ac:	01000001 	tsteq	r0, r1
     5b0:	01605500 	cmneq	r0, r0, lsl #10
     5b4:	01680000 	cmneq	r8, r0
     5b8:	00010000 	andeq	r0, r1, r0
     5bc:	00016851 	andeq	r6, r1, r1, asr r8
     5c0:	00018800 	andeq	r8, r1, r0, lsl #16
     5c4:	55000100 	strpl	r0, [r0, #-256]	; 0x100
     5c8:	00000188 	andeq	r0, r0, r8, lsl #3
     5cc:	0000019c 	muleq	r0, ip, r1
     5d0:	9c510001 	mrrcls	0, 0, r0, r1, cr1
     5d4:	bc000001 	stclt	0, cr0, [r0], {1}
     5d8:	01000001 	tsteq	r0, r1
     5dc:	01bc5500 			; <UNDEFINED> instruction: 0x01bc5500
     5e0:	01bf0000 			; <UNDEFINED> instruction: 0x01bf0000
     5e4:	00010000 	andeq	r0, r1, r0
     5e8:	0001bf51 	andeq	fp, r1, r1, asr pc
     5ec:	00020000 	andeq	r0, r2, r0
     5f0:	55000100 	strpl	r0, [r0, #-256]	; 0x100
     5f4:	00000200 	andeq	r0, r0, r0, lsl #4
     5f8:	0000021c 	andeq	r0, r0, ip, lsl r2
     5fc:	01f30004 	mvnseq	r0, r4
     600:	00009f51 	andeq	r9, r0, r1, asr pc
     604:	00000000 	andeq	r0, r0, r0
     608:	00800000 	addeq	r0, r0, r0
     60c:	00940000 	addseq	r0, r4, r0
     610:	00010000 	andeq	r0, r1, r0
     614:	00009452 	andeq	r9, r0, r2, asr r4
     618:	00020000 	andeq	r0, r2, r0
     61c:	54000100 	strpl	r0, [r0], #-256	; 0x100
     620:	00000200 	andeq	r0, r0, r0, lsl #4
     624:	0000021c 	andeq	r0, r0, ip, lsl r2
     628:	01f30004 	mvnseq	r0, r4
     62c:	00009f52 	andeq	r9, r0, r2, asr pc
     630:	00000000 	andeq	r0, r0, r0
     634:	00800000 	addeq	r0, r0, r0
     638:	01000000 	mrseq	r0, (UNDEF: 0)
     63c:	00010000 	andeq	r0, r1, r0
     640:	00010453 	andeq	r0, r1, r3, asr r4
     644:	00010800 	andeq	r0, r1, r0, lsl #16
     648:	53000100 	movwpl	r0, #256	; 0x100
     64c:	00000160 	andeq	r0, r0, r0, ror #2
     650:	00000168 	andeq	r0, r0, r8, ror #2
     654:	68530001 	ldmdavs	r3, {r0}^
     658:	88000001 	stmdahi	r0, {r0}
     65c:	04000001 	streq	r0, [r0], #-1
     660:	5301f300 	movwpl	pc, #4864	; 0x1300	; <UNPREDICTABLE>
     664:	0001889f 	muleq	r1, pc, r8	; <UNPREDICTABLE>
     668:	00019000 	andeq	r9, r1, r0
     66c:	53000100 	movwpl	r0, #256	; 0x100
     670:	00000190 	muleq	r0, r0, r1
     674:	00000194 	muleq	r0, r4, r1
     678:	945c0001 	ldrbls	r0, [ip], #-1
     67c:	9c000001 	stcls	0, cr0, [r0], {1}
     680:	01000001 	tsteq	r0, r1
     684:	019c5300 	orrseq	r5, ip, r0, lsl #6
     688:	01bc0000 			; <UNDEFINED> instruction: 0x01bc0000
     68c:	00040000 	andeq	r0, r4, r0
     690:	9f5301f3 	svcls	0x005301f3
     694:	000001bc 			; <UNDEFINED> instruction: 0x000001bc
     698:	000001bf 			; <UNDEFINED> instruction: 0x000001bf
     69c:	bf530001 	svclt	0x00530001
     6a0:	d8000001 	stmdale	r0, {r0}
     6a4:	04000001 	streq	r0, [r0], #-1
     6a8:	5301f300 	movwpl	pc, #4864	; 0x1300	; <UNPREDICTABLE>
     6ac:	0000009f 	muleq	r0, pc, r0	; <UNPREDICTABLE>
     6b0:	00000000 	andeq	r0, r0, r0
     6b4:	00008000 	andeq	r8, r0, r0
     6b8:	00009c00 	andeq	r9, r0, r0, lsl #24
     6bc:	91000200 	mrsls	r0, R8_usr
     6c0:	00009c00 	andeq	r9, r0, r0, lsl #24
     6c4:	0001bf00 	andeq	fp, r1, r0, lsl #30
     6c8:	52000100 	andpl	r0, r0, #0, 2
     6cc:	000001d8 	ldrdeq	r0, [r0], -r8
     6d0:	000001e3 	andeq	r0, r0, r3, ror #3
     6d4:	00520001 	subseq	r0, r2, r1
     6d8:	00000000 	andeq	r0, r0, r0
     6dc:	9c000000 	stcls	0, cr0, [r0], {-0}
     6e0:	18000000 	stmdane	r0, {}	; <UNPREDICTABLE>
     6e4:	01000001 	tsteq	r0, r1
     6e8:	01185d00 	tsteq	r8, r0, lsl #26
     6ec:	011c0000 	tsteq	ip, r0
     6f0:	00010000 	andeq	r0, r1, r0
     6f4:	00011c53 	andeq	r1, r1, r3, asr ip
     6f8:	00012000 	andeq	r2, r1, r0
     6fc:	51000100 	mrspl	r0, (UNDEF: 16)
     700:	00000120 	andeq	r0, r0, r0, lsr #2
     704:	00000160 	andeq	r0, r0, r0, ror #2
     708:	60530001 	subsvs	r0, r3, r1
     70c:	68000001 	stmdavs	r0, {r0}
     710:	01000001 	tsteq	r0, r1
     714:	01685d00 	cmneq	r8, r0, lsl #26
     718:	016c0000 	cmneq	ip, r0
     71c:	00010000 	andeq	r0, r1, r0
     720:	00016c5e 	andeq	r6, r1, lr, asr ip
     724:	00018800 	andeq	r8, r1, r0, lsl #16
     728:	53000100 	movwpl	r0, #256	; 0x100
     72c:	00000188 	andeq	r0, r0, r8, lsl #3
     730:	00000190 	muleq	r0, r0, r1
     734:	a1910004 	orrsge	r0, r1, r4
     738:	01909f7f 	orrseq	r9, r0, pc, ror pc
     73c:	01940000 	orrseq	r0, r4, r0
     740:	00010000 	andeq	r0, r1, r0
     744:	00019453 	andeq	r9, r1, r3, asr r4
     748:	00019c00 	andeq	r9, r1, r0, lsl #24
     74c:	5d000100 	stfpls	f0, [r0, #-0]
     750:	0000019c 	muleq	r0, ip, r1
     754:	000001a0 	andeq	r0, r0, r0, lsr #3
     758:	a05e0001 	subsge	r0, lr, r1
     75c:	bc000001 	stclt	0, cr0, [r0], {1}
     760:	01000001 	tsteq	r0, r1
     764:	01bc5300 			; <UNDEFINED> instruction: 0x01bc5300
     768:	01d80000 	bicseq	r0, r8, r0
     76c:	00010000 	andeq	r0, r1, r0
     770:	0001d85d 	andeq	sp, r1, sp, asr r8
     774:	0001e300 	andeq	lr, r1, r0, lsl #6
     778:	53000100 	movwpl	r0, #256	; 0x100
	...
     784:	000000a0 	andeq	r0, r0, r0, lsr #1
     788:	000000ec 	andeq	r0, r0, ip, ror #1
     78c:	ec5c0001 	mrrc	0, 0, r0, ip, cr1
     790:	00000000 	andeq	r0, r0, r0
     794:	01000001 	tsteq	r0, r1
     798:	01005300 	mrseq	r5, LR_irq
     79c:	01040000 	mrseq	r0, (UNDEF: 4)
     7a0:	00010000 	andeq	r0, r1, r0
     7a4:	0001045c 	andeq	r0, r1, ip, asr r4
     7a8:	00010800 	andeq	r0, r1, r0, lsl #16
     7ac:	53000100 	movwpl	r0, #256	; 0x100
     7b0:	00000108 	andeq	r0, r0, r8, lsl #2
     7b4:	00000118 	andeq	r0, r0, r8, lsl r1
     7b8:	185c0001 	ldmdane	ip, {r0}^
     7bc:	1c000001 	stcne	0, cr0, [r0], {1}
     7c0:	01000001 	tsteq	r0, r1
     7c4:	011c5000 	tsteq	ip, r0
     7c8:	013c0000 	teqeq	ip, r0
     7cc:	00010000 	andeq	r0, r1, r0
     7d0:	0001445c 	andeq	r4, r1, ip, asr r4
     7d4:	00015800 	andeq	r5, r1, r0, lsl #16
     7d8:	50000100 	andpl	r0, r0, r0, lsl #2
     7dc:	00000158 	andeq	r0, r0, r8, asr r1
     7e0:	00000160 	andeq	r0, r0, r0, ror #2
     7e4:	605c0001 	subsvs	r0, ip, r1
     7e8:	68000001 	stmdavs	r0, {r0}
     7ec:	01000001 	tsteq	r0, r1
     7f0:	01685300 	cmneq	r8, r0, lsl #6
     7f4:	01780000 	cmneq	r8, r0
     7f8:	00010000 	andeq	r0, r1, r0
     7fc:	0001785c 	andeq	r7, r1, ip, asr r8
     800:	00018000 	andeq	r8, r1, r0
     804:	7c000500 	cfstr32vc	mvfx0, [r0], {-0}
     808:	9f253400 	svcls	0x00253400
     80c:	00000180 	andeq	r0, r0, r0, lsl #3
     810:	00000188 	andeq	r0, r0, r8, lsl #3
     814:	885c0001 	ldmdahi	ip, {r0}^
     818:	90000001 	andls	r0, r0, r1
     81c:	01000001 	tsteq	r0, r1
     820:	01905300 	orrseq	r5, r0, r0, lsl #6
     824:	01940000 	orrseq	r0, r4, r0
     828:	00010000 	andeq	r0, r1, r0
     82c:	0001945c 	andeq	r9, r1, ip, asr r4
     830:	00019c00 	andeq	r9, r1, r0, lsl #24
     834:	53000100 	movwpl	r0, #256	; 0x100
     838:	0000019c 	muleq	r0, ip, r1
     83c:	000001ac 	andeq	r0, r0, ip, lsr #3
     840:	ac5c0001 	mrrcge	0, 0, r0, ip, cr1
     844:	b4000001 	strlt	r0, [r0], #-1
     848:	05000001 	streq	r0, [r0, #-1]
     84c:	31007c00 	tstcc	r0, r0, lsl #24
     850:	01b49f25 			; <UNDEFINED> instruction: 0x01b49f25
     854:	01bc0000 			; <UNDEFINED> instruction: 0x01bc0000
     858:	00010000 	andeq	r0, r1, r0
     85c:	0001bc5c 	andeq	fp, r1, ip, asr ip
     860:	0001bf00 	andeq	fp, r1, r0, lsl #30
     864:	53000100 	movwpl	r0, #256	; 0x100
     868:	000001bf 			; <UNDEFINED> instruction: 0x000001bf
     86c:	000001d8 	ldrdeq	r0, [r0], -r8
     870:	01f30004 	mvnseq	r0, r4
     874:	01d89f53 	bicseq	r9, r8, r3, asr pc
     878:	01e30000 	mvneq	r0, r0
     87c:	00010000 	andeq	r0, r1, r0
     880:	0000005c 	andeq	r0, r0, ip, asr r0
     884:	00000000 	andeq	r0, r0, r0
     888:	0000ec00 	andeq	lr, r0, r0, lsl #24
     88c:	0000fc00 	andeq	pc, r0, r0, lsl #24
     890:	30000200 	andcc	r0, r0, r0, lsl #4
     894:	0000fc9f 	muleq	r0, pc, ip	; <UNPREDICTABLE>
     898:	00010400 	andeq	r0, r1, r0, lsl #8
     89c:	31000200 	mrscc	r0, R8_usr
     8a0:	0001049f 	muleq	r1, pc, r4	; <UNPREDICTABLE>
     8a4:	00010800 	andeq	r0, r1, r0, lsl #16
     8a8:	30000200 	andcc	r0, r0, r0, lsl #4
     8ac:	0000009f 	muleq	r0, pc, r0	; <UNPREDICTABLE>
     8b0:	00000000 	andeq	r0, r0, r0
     8b4:	00021c00 	andeq	r1, r2, r0, lsl #24
     8b8:	00022b00 	andeq	r2, r2, r0, lsl #22
     8bc:	50000100 	andpl	r0, r0, r0, lsl #2
     8c0:	0000022b 	andeq	r0, r0, fp, lsr #4
     8c4:	00000244 	andeq	r0, r0, r4, asr #4
     8c8:	01f30004 	mvnseq	r0, r4
     8cc:	02449f50 	subeq	r9, r4, #80, 30	; 0x140
     8d0:	02700000 	rsbseq	r0, r0, #0
     8d4:	00010000 	andeq	r0, r1, r0
     8d8:	00000050 	andeq	r0, r0, r0, asr r0
     8dc:	00000000 	andeq	r0, r0, r0
     8e0:	00021c00 	andeq	r1, r2, r0, lsl #24
     8e4:	00022b00 	andeq	r2, r2, r0, lsl #22
     8e8:	51000100 	mrspl	r0, (UNDEF: 16)
     8ec:	0000022b 	andeq	r0, r0, fp, lsr #4
     8f0:	00000244 	andeq	r0, r0, r4, asr #4
     8f4:	01f30004 	mvnseq	r0, r4
     8f8:	02449f51 	subeq	r9, r4, #324	; 0x144
     8fc:	02700000 	rsbseq	r0, r0, #0
     900:	00010000 	andeq	r0, r1, r0
     904:	00000051 	andeq	r0, r0, r1, asr r0
     908:	00000000 	andeq	r0, r0, r0
     90c:	00027000 	andeq	r7, r2, r0
     910:	00029c00 	andeq	r9, r2, r0, lsl #24
     914:	50000100 	andpl	r0, r0, r0, lsl #2
     918:	0000029c 	muleq	r0, ip, r2
     91c:	000004e4 	andeq	r0, r0, r4, ror #9
     920:	e45a0001 	ldrb	r0, [sl], #-1
     924:	f8000004 			; <UNDEFINED> instruction: 0xf8000004
     928:	04000004 	streq	r0, [r0], #-4
     92c:	5001f300 	andpl	pc, r1, r0, lsl #6
     930:	0000009f 	muleq	r0, pc, r0	; <UNPREDICTABLE>
     934:	00000000 	andeq	r0, r0, r0
     938:	00027000 	andeq	r7, r2, r0
     93c:	00028400 	andeq	r8, r2, r0, lsl #8
     940:	51000100 	mrspl	r0, (UNDEF: 16)
     944:	00000284 	andeq	r0, r0, r4, lsl #5
     948:	0000029c 	muleq	r0, ip, r2
     94c:	01710003 	cmneq	r1, r3
     950:	00029c9f 	muleq	r2, pc, ip	; <UNPREDICTABLE>
     954:	0004f800 	andeq	pc, r4, r0, lsl #16
     958:	f3000400 	vshl.u8	d0, d0, d0
     95c:	009f5101 	addseq	r5, pc, r1, lsl #2
     960:	00000000 	andeq	r0, r0, r0
     964:	70000000 	andvc	r0, r0, r0
     968:	a4000002 	strge	r0, [r0], #-2
     96c:	01000002 	tsteq	r0, r2
     970:	02a45200 	adceq	r5, r4, #0, 4
     974:	02cc0000 	sbceq	r0, ip, #0
     978:	00010000 	andeq	r0, r1, r0
     97c:	0002cc52 	andeq	ip, r2, r2, asr ip
     980:	00049400 	andeq	r9, r4, r0, lsl #8
     984:	56000100 	strpl	r0, [r0], -r0, lsl #2
     988:	00000494 	muleq	r0, r4, r4
     98c:	000004f8 	strdeq	r0, [r0], -r8
     990:	00520001 	subseq	r0, r2, r1
     994:	00000000 	andeq	r0, r0, r0
     998:	70000000 	andvc	r0, r0, r0
     99c:	8c000002 	stchi	0, cr0, [r0], {2}
     9a0:	01000002 	tsteq	r0, r2
     9a4:	00005300 	andeq	r5, r0, r0, lsl #6
     9a8:	00000000 	andeq	r0, r0, r0
     9ac:	02800000 	addeq	r0, r0, #0
     9b0:	029c0000 	addseq	r0, ip, #0
     9b4:	00010000 	andeq	r0, r1, r0
     9b8:	00029c50 	andeq	r9, r2, r0, asr ip
     9bc:	0002a000 	andeq	sl, r2, r0
     9c0:	54000100 	strpl	r0, [r0], #-256	; 0x100
     9c4:	000002a0 	andeq	r0, r0, r0, lsr #5
     9c8:	000002ac 	andeq	r0, r0, ip, lsr #5
     9cc:	01740003 	cmneq	r4, r3
     9d0:	0002ac9f 	muleq	r2, pc, ip	; <UNPREDICTABLE>
     9d4:	0002b800 	andeq	fp, r2, r0, lsl #16
     9d8:	54000100 	strpl	r0, [r0], #-256	; 0x100
     9dc:	000002b8 			; <UNDEFINED> instruction: 0x000002b8
     9e0:	000002c4 	andeq	r0, r0, r4, asr #5
     9e4:	01740003 	cmneq	r4, r3
     9e8:	0002c49f 	muleq	r2, pc, r4	; <UNPREDICTABLE>
     9ec:	00049800 	andeq	r9, r4, r0, lsl #16
     9f0:	54000100 	strpl	r0, [r0], #-256	; 0x100
     9f4:	00000498 	muleq	r0, r8, r4
     9f8:	000004a4 	andeq	r0, r0, r4, lsr #9
     9fc:	01740003 	cmneq	r4, r3
     a00:	0004a49f 	muleq	r4, pc, r4	; <UNPREDICTABLE>
     a04:	0004d000 	andeq	sp, r4, r0
     a08:	54000100 	strpl	r0, [r0], #-256	; 0x100
     a0c:	000004d0 	ldrdeq	r0, [r0], -r0	; <UNPREDICTABLE>
     a10:	000004dc 	ldrdeq	r0, [r0], -ip
     a14:	dc500001 	mrrcle	0, 0, r0, r0, cr1	; <UNPREDICTABLE>
     a18:	e4000004 	str	r0, [r0], #-4
     a1c:	03000004 	movweq	r0, #4
     a20:	9f017400 	svcls	0x00017400
	...
     a2c:	00000288 	andeq	r0, r0, r8, lsl #5
     a30:	000004e4 	andeq	r0, r0, r4, ror #9
     a34:	e4580001 	ldrb	r0, [r8], #-1
     a38:	f8000004 			; <UNDEFINED> instruction: 0xf8000004
     a3c:	0a000004 	beq	a54 <_start-0x75ac>
     a40:	5101f300 	mrspl	pc, SP_irq	; <UNPREDICTABLE>
     a44:	225001f3 	subscs	r0, r0, #-1073741764	; 0xc000003c
     a48:	009f1c31 	addseq	r1, pc, r1, lsr ip	; <UNPREDICTABLE>
     a4c:	00000000 	andeq	r0, r0, r0
     a50:	cc000000 	stcgt	0, cr0, [r0], {-0}
     a54:	d0000003 	andle	r0, r0, r3
     a58:	01000003 	tsteq	r0, r3
     a5c:	03f05000 	mvnseq	r5, #0
     a60:	03f40000 	mvnseq	r0, #0
     a64:	00010000 	andeq	r0, r1, r0
     a68:	00041450 	andeq	r1, r4, r0, asr r4
     a6c:	00041800 	andeq	r1, r4, r0, lsl #16
     a70:	50000100 	andpl	r0, r0, r0, lsl #2
     a74:	00000438 	andeq	r0, r0, r8, lsr r4
     a78:	0000043c 	andeq	r0, r0, ip, lsr r4
     a7c:	44500001 	ldrbmi	r0, [r0], #-1
     a80:	48000004 	stmdami	r0, {r2}
     a84:	01000004 	tsteq	r0, r4
     a88:	04685000 	strbteq	r5, [r8], #-0
     a8c:	046c0000 	strbteq	r0, [ip], #-0
     a90:	00010000 	andeq	r0, r1, r0
     a94:	00049050 	andeq	r9, r4, r0, asr r0
     a98:	0004b800 	andeq	fp, r4, r0, lsl #16
     a9c:	50000100 	andpl	r0, r0, r0, lsl #2
	...
     aa8:	000002cc 	andeq	r0, r0, ip, asr #5
     aac:	000002d4 	ldrdeq	r0, [r0], -r4
     ab0:	9f300002 	svcls	0x00300002
     ab4:	000002d4 	ldrdeq	r0, [r0], -r4
     ab8:	000002d8 	ldrdeq	r0, [r0], -r8
     abc:	e4570001 	ldrb	r0, [r7], #-1
     ac0:	b8000002 	stmdalt	r0, {r1}
     ac4:	01000004 	tsteq	r0, r4
     ac8:	00005700 	andeq	r5, r0, r0, lsl #14
     acc:	00000000 	andeq	r0, r0, r0
     ad0:	00140000 	andseq	r0, r4, r0
     ad4:	001c0000 	andseq	r0, ip, r0
     ad8:	00030000 	andeq	r0, r3, r0
     adc:	1c9f0473 	cfldrsne	mvf0, [pc], {115}	; 0x73
     ae0:	27000000 	strcs	r0, [r0, -r0]
     ae4:	01000000 	mrseq	r0, (UNDEF: 0)
     ae8:	00005300 	andeq	r5, r0, r0, lsl #6
     aec:	00000000 	andeq	r0, r0, r0
     af0:	8de40000 	stclhi	0, cr0, [r4]
     af4:	8de80000 	stclhi	0, cr0, [r8]
     af8:	00020000 	andeq	r0, r2, r0
     afc:	8de89f30 	stclhi	15, cr9, [r8, #192]!	; 0xc0
     b00:	8dec0000 	stclhi	0, cr0, [ip]
     b04:	00010000 	andeq	r0, r1, r0
     b08:	00000050 	andeq	r0, r0, r0, asr r0
     b0c:	00000000 	andeq	r0, r0, r0
     b10:	008dfc00 	addeq	pc, sp, r0, lsl #24
     b14:	008e0000 	addeq	r0, lr, r0
     b18:	30000200 	andcc	r0, r0, r0, lsl #4
     b1c:	008e009f 	umulleq	r0, lr, pc, r0	; <UNPREDICTABLE>
     b20:	008e0400 	addeq	r0, lr, r0, lsl #8
     b24:	53000100 	movwpl	r0, #256	; 0x100
     b28:	00008e08 	andeq	r8, r0, r8, lsl #28
     b2c:	00008e10 	andeq	r8, r0, r0, lsl lr
     b30:	00530001 	subseq	r0, r3, r1
	...
     b3c:	04000000 	streq	r0, [r0], #-0
     b40:	01000000 	mrseq	r0, (UNDEF: 0)
     b44:	00045000 	andeq	r5, r4, r0
     b48:	000c0000 	andeq	r0, ip, r0
     b4c:	00010000 	andeq	r0, r1, r0
     b50:	00000c53 	andeq	r0, r0, r3, asr ip
     b54:	00001000 	andeq	r1, r0, r0
     b58:	50000100 	andpl	r0, r0, r0, lsl #2
     b5c:	00000010 	andeq	r0, r0, r0, lsl r0
     b60:	0000001c 	andeq	r0, r0, ip, lsl r0
     b64:	00530001 	subseq	r0, r3, r1
     b68:	00000000 	andeq	r0, r0, r0
     b6c:	3c000000 	stccc	0, cr0, [r0], {-0}
     b70:	47000000 	strmi	r0, [r0, -r0]
     b74:	01000000 	mrseq	r0, (UNDEF: 0)
     b78:	00475000 	subeq	r5, r7, r0
     b7c:	00600000 	rsbeq	r0, r0, r0
     b80:	00010000 	andeq	r0, r1, r0
     b84:	00000055 	andeq	r0, r0, r5, asr r0
     b88:	00000000 	andeq	r0, r0, r0
     b8c:	00005000 	andeq	r5, r0, r0
     b90:	00005400 	andeq	r5, r0, r0, lsl #8
     b94:	50000100 	andpl	r0, r0, r0, lsl #2
	...
     ba0:	00000060 	andeq	r0, r0, r0, rrx
     ba4:	0000006c 	andeq	r0, r0, ip, rrx
     ba8:	6c500001 	mrrcvs	0, 0, r0, r0, cr1	; <UNPREDICTABLE>
     bac:	74000000 	strvc	r0, [r0], #-0
     bb0:	04000000 	streq	r0, [r0], #-0
     bb4:	5001f300 	andpl	pc, r1, r0, lsl #6
     bb8:	0000009f 	muleq	r0, pc, r0	; <UNPREDICTABLE>
     bbc:	00000000 	andeq	r0, r0, r0
     bc0:	00007400 	andeq	r7, r0, r0, lsl #8
     bc4:	00008000 	andeq	r8, r0, r0
     bc8:	50000100 	andpl	r0, r0, r0, lsl #2
     bcc:	00000080 	andeq	r0, r0, r0, lsl #1
     bd0:	00000088 	andeq	r0, r0, r8, lsl #1
     bd4:	01f30004 	mvnseq	r0, r4
     bd8:	00009f50 	andeq	r9, r0, r0, asr pc
	...
     be4:	00900000 	addseq	r0, r0, r0
     be8:	00010000 	andeq	r0, r1, r0
     bec:	00009050 	andeq	r9, r0, r0, asr r0
     bf0:	0000d400 	andeq	sp, r0, r0, lsl #8
     bf4:	54000100 	strpl	r0, [r0], #-256	; 0x100
	...
     c00:	00000048 	andeq	r0, r0, r8, asr #32
     c04:	0000004c 	andeq	r0, r0, ip, asr #32
     c08:	54550001 	ldrbpl	r0, [r5], #-1
     c0c:	58000000 	stmdapl	r0, {}	; <UNPREDICTABLE>
     c10:	01000000 	mrseq	r0, (UNDEF: 0)
     c14:	00605500 	rsbeq	r5, r0, r0, lsl #10
     c18:	00640000 	rsbeq	r0, r4, r0
     c1c:	00010000 	andeq	r0, r1, r0
     c20:	00006c55 	andeq	r6, r0, r5, asr ip
     c24:	00007000 	andeq	r7, r0, r0
     c28:	55000100 	strpl	r0, [r0, #-256]	; 0x100
     c2c:	00000078 	andeq	r0, r0, r8, ror r0
     c30:	0000007c 	andeq	r0, r0, ip, ror r0
     c34:	84550001 	ldrbhi	r0, [r5], #-1
     c38:	88000000 	stmdahi	r0, {}	; <UNPREDICTABLE>
     c3c:	01000000 	mrseq	r0, (UNDEF: 0)
     c40:	008c5500 	addeq	r5, ip, r0, lsl #10
     c44:	00d40000 	sbcseq	r0, r4, r0
     c48:	00010000 	andeq	r0, r1, r0
     c4c:	00000055 	andeq	r0, r0, r5, asr r0
     c50:	00000000 	andeq	r0, r0, r0
     c54:	00001c00 	andeq	r1, r0, r0, lsl #24
     c58:	00004400 	andeq	r4, r0, r0, lsl #8
     c5c:	53000100 	movwpl	r0, #256	; 0x100
     c60:	00000044 	andeq	r0, r0, r4, asr #32
     c64:	0000004c 	andeq	r0, r0, ip, asr #32
     c68:	0070001c 	rsbseq	r0, r0, ip, lsl r0
     c6c:	25f72cf7 	ldrbcs	r2, [r7, #3319]!	; 0xcf7
     c70:	cd0825f4 	cfstr32gt	mvfx2, [r8, #-976]	; 0xfffffc30
     c74:	00cccccc 	sbceq	ip, ip, ip, asr #25
     c78:	1e000000 	cdpne	0, 0, cr0, cr0, cr0, {0}
     c7c:	25f72008 	ldrbcs	r2, [r7, #8]!
     c80:	332cf725 	msrcc	CPSR_fs, #9699328	; 0x940000
     c84:	004c9f25 	subeq	r9, ip, r5, lsr #30
     c88:	00500000 	subseq	r0, r0, r0
     c8c:	00010000 	andeq	r0, r1, r0
     c90:	00005053 	andeq	r5, r0, r3, asr r0
     c94:	00005800 	andeq	r5, r0, r0, lsl #16
     c98:	70001c00 	andvc	r1, r0, r0, lsl #24
     c9c:	f72cf700 			; <UNDEFINED> instruction: 0xf72cf700
     ca0:	0825f425 	stmdaeq	r5!, {r0, r2, r5, sl, ip, sp, lr, pc}
     ca4:	cccccccd 	stclgt	12, cr12, [ip], {205}	; 0xcd
     ca8:	00000000 	andeq	r0, r0, r0
     cac:	f720081e 			; <UNDEFINED> instruction: 0xf720081e
     cb0:	2cf72525 	cfldr64cs	mvdx2, [r7], #148	; 0x94
     cb4:	589f2533 	ldmpl	pc, {r0, r1, r4, r5, r8, sl, sp}	; <UNPREDICTABLE>
     cb8:	5c000000 	stcpl	0, cr0, [r0], {-0}
     cbc:	01000000 	mrseq	r0, (UNDEF: 0)
     cc0:	005c5300 	subseq	r5, ip, r0, lsl #6
     cc4:	00640000 	rsbeq	r0, r4, r0
     cc8:	001c0000 	andseq	r0, ip, r0
     ccc:	2cf70070 	ldclcs	0, cr0, [r7], #448	; 0x1c0
     cd0:	25f425f7 	ldrbcs	r2, [r4, #1527]!	; 0x5f7
     cd4:	cccccd08 	stclgt	13, cr12, [ip], {8}
     cd8:	000000cc 	andeq	r0, r0, ip, asr #1
     cdc:	20081e00 	andcs	r1, r8, r0, lsl #28
     ce0:	f72525f7 			; <UNDEFINED> instruction: 0xf72525f7
     ce4:	9f25332c 	svcls	0x0025332c
     ce8:	00000064 	andeq	r0, r0, r4, rrx
     cec:	00000068 	andeq	r0, r0, r8, rrx
     cf0:	68530001 	ldmdavs	r3, {r0}^
     cf4:	70000000 	andvc	r0, r0, r0
     cf8:	1c000000 	stcne	0, cr0, [r0], {-0}
     cfc:	f7007000 			; <UNDEFINED> instruction: 0xf7007000
     d00:	f425f72c 	vld1.8	{d15}, [r5 :128], ip
     d04:	cccd0825 	stclgt	8, cr0, [sp], {37}	; 0x25
     d08:	0000cccc 	andeq	ip, r0, ip, asr #25
     d0c:	081e0000 	ldmdaeq	lr, {}	; <UNPREDICTABLE>
     d10:	2525f720 	strcs	pc, [r5, #-1824]!	; 0x720
     d14:	25332cf7 	ldrcs	r2, [r3, #-3319]!	; 0xcf7
     d18:	0000709f 	muleq	r0, pc, r0	; <UNPREDICTABLE>
     d1c:	00007400 	andeq	r7, r0, r0, lsl #8
     d20:	53000100 	movwpl	r0, #256	; 0x100
     d24:	00000074 	andeq	r0, r0, r4, ror r0
     d28:	0000007c 	andeq	r0, r0, ip, ror r0
     d2c:	0070001c 	rsbseq	r0, r0, ip, lsl r0
     d30:	25f72cf7 	ldrbcs	r2, [r7, #3319]!	; 0xcf7
     d34:	cd0825f4 	cfstr32gt	mvfx2, [r8, #-976]	; 0xfffffc30
     d38:	00cccccc 	sbceq	ip, ip, ip, asr #25
     d3c:	1e000000 	cdpne	0, 0, cr0, cr0, cr0, {0}
     d40:	25f72008 	ldrbcs	r2, [r7, #8]!
     d44:	332cf725 	msrcc	CPSR_fs, #9699328	; 0x940000
     d48:	007c9f25 	rsbseq	r9, ip, r5, lsr #30
     d4c:	00800000 	addeq	r0, r0, r0
     d50:	00010000 	andeq	r0, r1, r0
     d54:	00008053 	andeq	r8, r0, r3, asr r0
     d58:	00008800 	andeq	r8, r0, r0, lsl #16
     d5c:	70001c00 	andvc	r1, r0, r0, lsl #24
     d60:	f72cf700 			; <UNDEFINED> instruction: 0xf72cf700
     d64:	0825f425 	stmdaeq	r5!, {r0, r2, r5, sl, ip, sp, lr, pc}
     d68:	cccccccd 	stclgt	12, cr12, [ip], {205}	; 0xcd
     d6c:	00000000 	andeq	r0, r0, r0
     d70:	f720081e 			; <UNDEFINED> instruction: 0xf720081e
     d74:	2cf72525 	cfldr64cs	mvdx2, [r7], #148	; 0x94
     d78:	889f2533 	ldmhi	pc, {r0, r1, r4, r5, r8, sl, sp}	; <UNPREDICTABLE>
     d7c:	8c000000 	stchi	0, cr0, [r0], {-0}
     d80:	01000000 	mrseq	r0, (UNDEF: 0)
     d84:	008c5300 	addeq	r5, ip, r0, lsl #6
     d88:	00900000 	addseq	r0, r0, r0
     d8c:	001c0000 	andseq	r0, ip, r0
     d90:	2cf70070 	ldclcs	0, cr0, [r7], #448	; 0x1c0
     d94:	25f425f7 	ldrbcs	r2, [r4, #1527]!	; 0x5f7
     d98:	cccccd08 	stclgt	13, cr12, [ip], {8}
     d9c:	000000cc 	andeq	r0, r0, ip, asr #1
     da0:	20081e00 	andcs	r1, r8, r0, lsl #28
     da4:	f72525f7 			; <UNDEFINED> instruction: 0xf72525f7
     da8:	9f25332c 	svcls	0x0025332c
     dac:	00000090 	muleq	r0, r0, r0
     db0:	00000098 	muleq	r0, r8, r0
     db4:	0074001c 	rsbseq	r0, r4, ip, lsl r0
     db8:	25f72cf7 	ldrbcs	r2, [r7, #3319]!	; 0xcf7
     dbc:	cd0825f4 	cfstr32gt	mvfx2, [r8, #-976]	; 0xfffffc30
     dc0:	00cccccc 	sbceq	ip, ip, ip, asr #25
     dc4:	1e000000 	cdpne	0, 0, cr0, cr0, cr0, {0}
     dc8:	25f72008 	ldrbcs	r2, [r7, #8]!
     dcc:	332cf725 	msrcc	CPSR_fs, #9699328	; 0x940000
     dd0:	00989f25 	addseq	r9, r8, r5, lsr #30
     dd4:	009c0000 	addseq	r0, ip, r0
     dd8:	00170000 	andseq	r0, r7, r0
     ddc:	2cf70074 	ldclcs	0, cr0, [r7], #464	; 0x1d0
     de0:	007125f7 	ldrshteq	r2, [r1], #-87	; 0xffffffa9
     de4:	25f72cf7 	ldrbcs	r2, [r7, #3319]!	; 0xcf7
     de8:	f720081e 			; <UNDEFINED> instruction: 0xf720081e
     dec:	2cf72525 	cfldr64cs	mvdx2, [r7], #148	; 0x94
     df0:	9c9f2533 	cfldr32ls	mvfx2, [pc], {51}	; 0x33
     df4:	d4000000 	strle	r0, [r0], #-0
     df8:	1c000000 	stcne	0, cr0, [r0], {-0}
     dfc:	f7007400 			; <UNDEFINED> instruction: 0xf7007400
     e00:	f425f72c 	vld1.8	{d15}, [r5 :128], ip
     e04:	cccd0825 	stclgt	8, cr0, [sp], {37}	; 0x25
     e08:	0000cccc 	andeq	ip, r0, ip, asr #25
     e0c:	081e0000 	ldmdaeq	lr, {}	; <UNPREDICTABLE>
     e10:	2525f720 	strcs	pc, [r5, #-1824]!	; 0x720
     e14:	25332cf7 	ldrcs	r2, [r3, #-3319]!	; 0xcf7
     e18:	0000009f 	muleq	r0, pc, r0	; <UNPREDICTABLE>
     e1c:	00000000 	andeq	r0, r0, r0
     e20:	00009400 	andeq	r9, r0, r0, lsl #8
     e24:	0000b800 	andeq	fp, r0, r0, lsl #16
     e28:	50000100 	andpl	r0, r0, r0, lsl #2
     e2c:	000000b8 	strheq	r0, [r0], -r8
     e30:	000000c4 	andeq	r0, r0, r4, asr #1
     e34:	71310008 	teqvc	r1, r8
     e38:	00732400 	rsbseq	r2, r3, r0, lsl #8
     e3c:	00c49f21 	sbceq	r9, r4, r1, lsr #30
     e40:	00c70000 	sbceq	r0, r7, r0
     e44:	00010000 	andeq	r0, r1, r0
     e48:	00000051 	andeq	r0, r0, r1, asr r0
     e4c:	00000000 	andeq	r0, r0, r0
     e50:	0000d400 	andeq	sp, r0, r0, lsl #8
     e54:	0000f800 	andeq	pc, r0, r0, lsl #16
     e58:	50000100 	andpl	r0, r0, r0, lsl #2
     e5c:	000000f8 	strdeq	r0, [r0], -r8
     e60:	0000010c 	andeq	r0, r0, ip, lsl #2
     e64:	01f30004 	mvnseq	r0, r4
     e68:	00009f50 	andeq	r9, r0, r0, asr pc
     e6c:	00000000 	andeq	r0, r0, r0
     e70:	00e00000 	rsceq	r0, r0, r0
     e74:	00e80000 	rsceq	r0, r8, r0
     e78:	00020000 	andeq	r0, r2, r0
     e7c:	00e89f30 	rsceq	r9, r8, r0, lsr pc
     e80:	00e80000 	rsceq	r0, r8, r0
     e84:	00010000 	andeq	r0, r1, r0
     e88:	0000e852 	andeq	lr, r0, r2, asr r8
     e8c:	0000f000 	andeq	pc, r0, r0
     e90:	30000200 	andcc	r0, r0, r0, lsl #4
     e94:	0000f09f 	muleq	r0, pc, r0	; <UNPREDICTABLE>
     e98:	00010300 	andeq	r0, r1, r0, lsl #6
     e9c:	52000100 	andpl	r0, r0, #0, 2
	...
     ea8:	000000e0 	andeq	r0, r0, r0, ror #1
     eac:	000000f4 	strdeq	r0, [r0], -r4
     eb0:	9f300002 	svcls	0x00300002
     eb4:	000000f4 	strdeq	r0, [r0], -r4
     eb8:	00000100 	andeq	r0, r0, r0, lsl #2
     ebc:	73310005 	teqvc	r1, #5
     ec0:	009f2400 	addseq	r2, pc, r0, lsl #8
     ec4:	03000001 	movweq	r0, #1
     ec8:	01000001 	tsteq	r0, r1
     ecc:	01035100 	mrseq	r5, (UNDEF: 19)
     ed0:	010c0000 	mrseq	r0, (UNDEF: 12)
     ed4:	00080000 	andeq	r0, r8, r0
     ed8:	5001f331 	andpl	pc, r1, r1, lsr r3	; <UNPREDICTABLE>
     edc:	9f241a4f 	svcls	0x00241a4f
	...
     ee8:	0000010c 	andeq	r0, r0, ip, lsl #2
     eec:	00000130 	andeq	r0, r0, r0, lsr r1
     ef0:	30500001 	subscc	r0, r0, r1
     ef4:	44000001 	strmi	r0, [r0], #-1
     ef8:	04000001 	streq	r0, [r0], #-1
     efc:	5001f300 	andpl	pc, r1, r0, lsl #6
     f00:	0000009f 	muleq	r0, pc, r0	; <UNPREDICTABLE>
     f04:	00000000 	andeq	r0, r0, r0
     f08:	00011800 	andeq	r1, r1, r0, lsl #16
     f0c:	00012000 	andeq	r2, r1, r0
     f10:	30000200 	andcc	r0, r0, r0, lsl #4
     f14:	0001209f 	muleq	r1, pc, r0	; <UNPREDICTABLE>
     f18:	00012000 	andeq	r2, r1, r0
     f1c:	52000100 	andpl	r0, r0, #0, 2
     f20:	00000120 	andeq	r0, r0, r0, lsr #2
     f24:	00000128 	andeq	r0, r0, r8, lsr #2
     f28:	9f300002 	svcls	0x00300002
     f2c:	00000128 	andeq	r0, r0, r8, lsr #2
     f30:	0000013b 	andeq	r0, r0, fp, lsr r1
     f34:	00520001 	subseq	r0, r2, r1
     f38:	00000000 	andeq	r0, r0, r0
     f3c:	18000000 	stmdane	r0, {}	; <UNPREDICTABLE>
     f40:	2c000001 	stccs	0, cr0, [r0], {1}
     f44:	02000001 	andeq	r0, r0, #1
     f48:	2c9f3000 	ldccs	0, cr3, [pc], {0}
     f4c:	38000001 	stmdacc	r0, {r0}
     f50:	05000001 	streq	r0, [r0, #-1]
     f54:	00733100 	rsbseq	r3, r3, r0, lsl #2
     f58:	01389f24 	teqeq	r8, r4, lsr #30
     f5c:	013b0000 	teqeq	fp, r0
     f60:	00010000 	andeq	r0, r1, r0
     f64:	00013b51 	andeq	r3, r1, r1, asr fp
     f68:	00014400 	andeq	r4, r1, r0, lsl #8
     f6c:	31000800 	tstcc	r0, r0, lsl #16
     f70:	4f5001f3 	svcmi	0x005001f3
     f74:	009f241a 	addseq	r2, pc, sl, lsl r4	; <UNPREDICTABLE>
     f78:	00000000 	andeq	r0, r0, r0
     f7c:	44000000 	strmi	r0, [r0], #-0
     f80:	d4000001 	strle	r0, [r0], #-1
     f84:	01000001 	tsteq	r0, r1
     f88:	01d45000 	bicseq	r5, r4, r0
     f8c:	02100000 	andseq	r0, r0, #0
     f90:	00010000 	andeq	r0, r1, r0
     f94:	00000054 	andeq	r0, r0, r4, asr r0
     f98:	00000000 	andeq	r0, r0, r0
     f9c:	00018c00 	andeq	r8, r1, r0, lsl #24
     fa0:	00019000 	andeq	r9, r1, r0
     fa4:	55000100 	strpl	r0, [r0, #-256]	; 0x100
     fa8:	00000198 	muleq	r0, r8, r1
     fac:	0000019c 	muleq	r0, ip, r1
     fb0:	a4550001 	ldrbge	r0, [r5], #-1
     fb4:	a8000001 	stmdage	r0, {r0}
     fb8:	01000001 	tsteq	r0, r1
     fbc:	01b05500 	lslseq	r5, r0, #10
     fc0:	01b40000 			; <UNDEFINED> instruction: 0x01b40000
     fc4:	00010000 	andeq	r0, r1, r0
     fc8:	0001bc55 	andeq	fp, r1, r5, asr ip
     fcc:	0001c000 	andeq	ip, r1, r0
     fd0:	55000100 	strpl	r0, [r0, #-256]	; 0x100
     fd4:	000001c8 	andeq	r0, r0, r8, asr #3
     fd8:	000001cc 	andeq	r0, r0, ip, asr #3
     fdc:	d0550001 	subsle	r0, r5, r1
     fe0:	10000001 	andne	r0, r0, r1
     fe4:	01000002 	tsteq	r0, r2
     fe8:	00005500 	andeq	r5, r0, r0, lsl #10
     fec:	00000000 	andeq	r0, r0, r0
     ff0:	01600000 	cmneq	r0, r0
     ff4:	01880000 	orreq	r0, r8, r0
     ff8:	00010000 	andeq	r0, r1, r0
     ffc:	00018853 	andeq	r8, r1, r3, asr r8
    1000:	00019000 	andeq	r9, r1, r0
    1004:	70001c00 	andvc	r1, r0, r0, lsl #24
    1008:	f72cf700 			; <UNDEFINED> instruction: 0xf72cf700
    100c:	0825f425 	stmdaeq	r5!, {r0, r2, r5, sl, ip, sp, lr, pc}
    1010:	cccccccd 	stclgt	12, cr12, [ip], {205}	; 0xcd
    1014:	00000000 	andeq	r0, r0, r0
    1018:	f720081e 			; <UNDEFINED> instruction: 0xf720081e
    101c:	2cf72525 	cfldr64cs	mvdx2, [r7], #148	; 0x94
    1020:	909f2533 	addsls	r2, pc, r3, lsr r5	; <UNPREDICTABLE>
    1024:	94000001 	strls	r0, [r0], #-1
    1028:	01000001 	tsteq	r0, r1
    102c:	01945300 	orrseq	r5, r4, r0, lsl #6
    1030:	019c0000 	orrseq	r0, ip, r0
    1034:	001c0000 	andseq	r0, ip, r0
    1038:	2cf70070 	ldclcs	0, cr0, [r7], #448	; 0x1c0
    103c:	25f425f7 	ldrbcs	r2, [r4, #1527]!	; 0x5f7
    1040:	cccccd08 	stclgt	13, cr12, [ip], {8}
    1044:	000000cc 	andeq	r0, r0, ip, asr #1
    1048:	20081e00 	andcs	r1, r8, r0, lsl #28
    104c:	f72525f7 			; <UNDEFINED> instruction: 0xf72525f7
    1050:	9f25332c 	svcls	0x0025332c
    1054:	0000019c 	muleq	r0, ip, r1
    1058:	000001a0 	andeq	r0, r0, r0, lsr #3
    105c:	a0530001 	subsge	r0, r3, r1
    1060:	a8000001 	stmdage	r0, {r0}
    1064:	1c000001 	stcne	0, cr0, [r0], {1}
    1068:	f7007000 			; <UNDEFINED> instruction: 0xf7007000
    106c:	f425f72c 	vld1.8	{d15}, [r5 :128], ip
    1070:	cccd0825 	stclgt	8, cr0, [sp], {37}	; 0x25
    1074:	0000cccc 	andeq	ip, r0, ip, asr #25
    1078:	081e0000 	ldmdaeq	lr, {}	; <UNPREDICTABLE>
    107c:	2525f720 	strcs	pc, [r5, #-1824]!	; 0x720
    1080:	25332cf7 	ldrcs	r2, [r3, #-3319]!	; 0xcf7
    1084:	0001a89f 	muleq	r1, pc, r8	; <UNPREDICTABLE>
    1088:	0001ac00 	andeq	sl, r1, r0, lsl #24
    108c:	53000100 	movwpl	r0, #256	; 0x100
    1090:	000001ac 	andeq	r0, r0, ip, lsr #3
    1094:	000001b4 			; <UNDEFINED> instruction: 0x000001b4
    1098:	0070001c 	rsbseq	r0, r0, ip, lsl r0
    109c:	25f72cf7 	ldrbcs	r2, [r7, #3319]!	; 0xcf7
    10a0:	cd0825f4 	cfstr32gt	mvfx2, [r8, #-976]	; 0xfffffc30
    10a4:	00cccccc 	sbceq	ip, ip, ip, asr #25
    10a8:	1e000000 	cdpne	0, 0, cr0, cr0, cr0, {0}
    10ac:	25f72008 	ldrbcs	r2, [r7, #8]!
    10b0:	332cf725 	msrcc	CPSR_fs, #9699328	; 0x940000
    10b4:	01b49f25 			; <UNDEFINED> instruction: 0x01b49f25
    10b8:	01b80000 			; <UNDEFINED> instruction: 0x01b80000
    10bc:	00010000 	andeq	r0, r1, r0
    10c0:	0001b853 	andeq	fp, r1, r3, asr r8
    10c4:	0001c000 	andeq	ip, r1, r0
    10c8:	70001c00 	andvc	r1, r0, r0, lsl #24
    10cc:	f72cf700 			; <UNDEFINED> instruction: 0xf72cf700
    10d0:	0825f425 	stmdaeq	r5!, {r0, r2, r5, sl, ip, sp, lr, pc}
    10d4:	cccccccd 	stclgt	12, cr12, [ip], {205}	; 0xcd
    10d8:	00000000 	andeq	r0, r0, r0
    10dc:	f720081e 			; <UNDEFINED> instruction: 0xf720081e
    10e0:	2cf72525 	cfldr64cs	mvdx2, [r7], #148	; 0x94
    10e4:	c09f2533 	addsgt	r2, pc, r3, lsr r5	; <UNPREDICTABLE>
    10e8:	c4000001 	strgt	r0, [r0], #-1
    10ec:	01000001 	tsteq	r0, r1
    10f0:	01c45300 	biceq	r5, r4, r0, lsl #6
    10f4:	01cc0000 	biceq	r0, ip, r0
    10f8:	001c0000 	andseq	r0, ip, r0
    10fc:	2cf70070 	ldclcs	0, cr0, [r7], #448	; 0x1c0
    1100:	25f425f7 	ldrbcs	r2, [r4, #1527]!	; 0x5f7
    1104:	cccccd08 	stclgt	13, cr12, [ip], {8}
    1108:	000000cc 	andeq	r0, r0, ip, asr #1
    110c:	20081e00 	andcs	r1, r8, r0, lsl #28
    1110:	f72525f7 			; <UNDEFINED> instruction: 0xf72525f7
    1114:	9f25332c 	svcls	0x0025332c
    1118:	000001cc 	andeq	r0, r0, ip, asr #3
    111c:	000001d0 	ldrdeq	r0, [r0], -r0	; <UNPREDICTABLE>
    1120:	d0530001 	subsle	r0, r3, r1
    1124:	d4000001 	strle	r0, [r0], #-1
    1128:	1c000001 	stcne	0, cr0, [r0], {1}
    112c:	f7007000 			; <UNDEFINED> instruction: 0xf7007000
    1130:	f425f72c 	vld1.8	{d15}, [r5 :128], ip
    1134:	cccd0825 	stclgt	8, cr0, [sp], {37}	; 0x25
    1138:	0000cccc 	andeq	ip, r0, ip, asr #25
    113c:	081e0000 	ldmdaeq	lr, {}	; <UNPREDICTABLE>
    1140:	2525f720 	strcs	pc, [r5, #-1824]!	; 0x720
    1144:	25332cf7 	ldrcs	r2, [r3, #-3319]!	; 0xcf7
    1148:	0001d49f 	muleq	r1, pc, r4	; <UNPREDICTABLE>
    114c:	0001dc00 	andeq	sp, r1, r0, lsl #24
    1150:	74001c00 	strvc	r1, [r0], #-3072	; 0xc00
    1154:	f72cf700 			; <UNDEFINED> instruction: 0xf72cf700
    1158:	0825f425 	stmdaeq	r5!, {r0, r2, r5, sl, ip, sp, lr, pc}
    115c:	cccccccd 	stclgt	12, cr12, [ip], {205}	; 0xcd
    1160:	00000000 	andeq	r0, r0, r0
    1164:	f720081e 			; <UNDEFINED> instruction: 0xf720081e
    1168:	2cf72525 	cfldr64cs	mvdx2, [r7], #148	; 0x94
    116c:	dc9f2533 	cfldr32le	mvfx2, [pc], {51}	; 0x33
    1170:	e0000001 	and	r0, r0, r1
    1174:	17000001 	strne	r0, [r0, -r1]
    1178:	f7007400 			; <UNDEFINED> instruction: 0xf7007400
    117c:	7125f72c 	msrvc	SP_abt, ip
    1180:	f72cf700 			; <UNDEFINED> instruction: 0xf72cf700
    1184:	20081e25 	andcs	r1, r8, r5, lsr #28
    1188:	f72525f7 			; <UNDEFINED> instruction: 0xf72525f7
    118c:	9f25332c 	svcls	0x0025332c
    1190:	000001e0 	andeq	r0, r0, r0, ror #3
    1194:	00000210 	andeq	r0, r0, r0, lsl r2
    1198:	0074001c 	rsbseq	r0, r4, ip, lsl r0
    119c:	25f72cf7 	ldrbcs	r2, [r7, #3319]!	; 0xcf7
    11a0:	cd0825f4 	cfstr32gt	mvfx2, [r8, #-976]	; 0xfffffc30
    11a4:	00cccccc 	sbceq	ip, ip, ip, asr #25
    11a8:	1e000000 	cdpne	0, 0, cr0, cr0, cr0, {0}
    11ac:	25f72008 	ldrbcs	r2, [r7, #8]!
    11b0:	332cf725 	msrcc	CPSR_fs, #9699328	; 0x940000
    11b4:	00009f25 	andeq	r9, r0, r5, lsr #30
    11b8:	00000000 	andeq	r0, r0, r0
    11bc:	01d80000 	bicseq	r0, r8, r0
    11c0:	01fc0000 	mvnseq	r0, r0
    11c4:	00010000 	andeq	r0, r1, r0
    11c8:	0001fc50 	andeq	pc, r1, r0, asr ip	; <UNPREDICTABLE>
    11cc:	00020300 	andeq	r0, r2, r0, lsl #6
    11d0:	51000100 	mrspl	r0, (UNDEF: 16)
	...
    11dc:	00000210 	andeq	r0, r0, r0, lsl r2
    11e0:	0000022c 	andeq	r0, r0, ip, lsr #4
    11e4:	2c500001 	mrrccs	0, 0, r0, r0, cr1	; <UNPREDICTABLE>
    11e8:	34000002 	strcc	r0, [r0], #-2
    11ec:	01000002 	tsteq	r0, r2
    11f0:	02345400 	eorseq	r5, r4, #0, 8
    11f4:	023c0000 	eorseq	r0, ip, #0
    11f8:	00010000 	andeq	r0, r1, r0
    11fc:	00023c50 	andeq	r3, r2, r0, asr ip
    1200:	00024400 	andeq	r4, r2, r0, lsl #8
    1204:	54000100 	strpl	r0, [r0], #-256	; 0x100
    1208:	00000244 	andeq	r0, r0, r4, asr #4
    120c:	00000250 	andeq	r0, r0, r0, asr r2
    1210:	01f30004 	mvnseq	r0, r4
    1214:	02509f50 	subseq	r9, r0, #80, 30	; 0x140
    1218:	02540000 	subseq	r0, r4, #0
    121c:	00010000 	andeq	r0, r1, r0
    1220:	00025450 	andeq	r5, r2, r0, asr r4
    1224:	00025c00 	andeq	r5, r2, r0, lsl #24
    1228:	54000100 	strpl	r0, [r0], #-256	; 0x100
	...
    1234:	00000220 	andeq	r0, r0, r0, lsr #4
    1238:	00000230 	andeq	r0, r0, r0, lsr r2
    123c:	9f300002 	svcls	0x00300002
    1240:	00000230 	andeq	r0, r0, r0, lsr r2
    1244:	00000234 	andeq	r0, r0, r4, lsr r2
    1248:	34500001 	ldrbcc	r0, [r0], #-1
    124c:	40000002 	andmi	r0, r0, r2
    1250:	02000002 	andeq	r0, r0, #2
    1254:	409f3000 	addsmi	r3, pc, r0
    1258:	4c000002 	stcmi	0, cr0, [r0], {2}
    125c:	01000002 	tsteq	r0, r2
    1260:	00005000 	andeq	r5, r0, r0
    1264:	00000000 	andeq	r0, r0, r0
    1268:	025c0000 	subseq	r0, ip, #0
    126c:	02730000 	rsbseq	r0, r3, #0
    1270:	00010000 	andeq	r0, r1, r0
    1274:	00027350 	andeq	r7, r2, r0, asr r3
    1278:	00027800 	andeq	r7, r2, r0, lsl #16
    127c:	f3000400 	vshl.u8	d0, d0, d0
    1280:	789f5001 	ldmvc	pc, {r0, ip, lr}	; <UNPREDICTABLE>
    1284:	7b000002 	blvc	1294 <_start-0x6d6c>
    1288:	01000002 	tsteq	r0, r2
    128c:	027b5000 	rsbseq	r5, fp, #0
    1290:	02800000 	addeq	r0, r0, #0
    1294:	00040000 	andeq	r0, r4, r0
    1298:	9f5001f3 	svcls	0x005001f3
	...
    12a4:	0000025c 	andeq	r0, r0, ip, asr r2
    12a8:	00000273 	andeq	r0, r0, r3, ror r2
    12ac:	73510001 	cmpvc	r1, #1
    12b0:	78000002 	stmdavc	r0, {r1}
    12b4:	04000002 	streq	r0, [r0], #-2
    12b8:	5101f300 	mrspl	pc, SP_irq	; <UNPREDICTABLE>
    12bc:	0002789f 	muleq	r2, pc, r8	; <UNPREDICTABLE>
    12c0:	00027b00 	andeq	r7, r2, r0, lsl #22
    12c4:	51000100 	mrspl	r0, (UNDEF: 16)
    12c8:	0000027b 	andeq	r0, r0, fp, ror r2
    12cc:	00000280 	andeq	r0, r0, r0, lsl #5
    12d0:	01f30004 	mvnseq	r0, r4
    12d4:	00009f51 	andeq	r9, r0, r1, asr pc
    12d8:	00000000 	andeq	r0, r0, r0
    12dc:	02800000 	addeq	r0, r0, #0
    12e0:	03180000 	tsteq	r8, #0
    12e4:	00010000 	andeq	r0, r1, r0
    12e8:	00031850 	andeq	r1, r3, r0, asr r8
    12ec:	00035800 	andeq	r5, r3, r0, lsl #16
    12f0:	54000100 	strpl	r0, [r0], #-256	; 0x100
	...
    12fc:	00000280 	andeq	r0, r0, r0, lsl #5
    1300:	0000031b 	andeq	r0, r0, fp, lsl r3
    1304:	1b510001 	blne	1441310 <__bss_end__+0x14373f8>
    1308:	58000003 	stmdapl	r0, {r0, r1}
    130c:	04000003 	streq	r0, [r0], #-3
    1310:	5101f300 	mrspl	pc, SP_irq	; <UNPREDICTABLE>
    1314:	0000009f 	muleq	r0, pc, r0	; <UNPREDICTABLE>
    1318:	00000000 	andeq	r0, r0, r0
    131c:	0002d000 	andeq	sp, r2, r0
    1320:	0002d400 	andeq	sp, r2, r0, lsl #8
    1324:	56000100 	strpl	r0, [r0], -r0, lsl #2
    1328:	000002dc 	ldrdeq	r0, [r0], -ip
    132c:	000002e0 	andeq	r0, r0, r0, ror #5
    1330:	e8560001 	ldmda	r6, {r0}^
    1334:	ec000002 	stc	0, cr0, [r0], {2}
    1338:	01000002 	tsteq	r0, r2
    133c:	02f45600 	rscseq	r5, r4, #0, 12
    1340:	02f80000 	rscseq	r0, r8, #0
    1344:	00010000 	andeq	r0, r1, r0
    1348:	00030056 	andeq	r0, r3, r6, asr r0
    134c:	00030400 	andeq	r0, r3, r0, lsl #8
    1350:	56000100 	strpl	r0, [r0], -r0, lsl #2
    1354:	0000030c 	andeq	r0, r0, ip, lsl #6
    1358:	00000310 	andeq	r0, r0, r0, lsl r3
    135c:	14560001 	ldrbne	r0, [r6], #-1
    1360:	58000003 	stmdapl	r0, {r0, r1}
    1364:	01000003 	tsteq	r0, r3
    1368:	00005600 	andeq	r5, r0, r0, lsl #12
    136c:	00000000 	andeq	r0, r0, r0
    1370:	02a40000 	adceq	r0, r4, #0
    1374:	02cc0000 	sbceq	r0, ip, #0
    1378:	00010000 	andeq	r0, r1, r0
    137c:	0002cc53 	andeq	ip, r2, r3, asr ip
    1380:	0002d400 	andeq	sp, r2, r0, lsl #8
    1384:	70001c00 	andvc	r1, r0, r0, lsl #24
    1388:	f72cf700 			; <UNDEFINED> instruction: 0xf72cf700
    138c:	0825f425 	stmdaeq	r5!, {r0, r2, r5, sl, ip, sp, lr, pc}
    1390:	cccccccd 	stclgt	12, cr12, [ip], {205}	; 0xcd
    1394:	00000000 	andeq	r0, r0, r0
    1398:	f720081e 			; <UNDEFINED> instruction: 0xf720081e
    139c:	2cf72525 	cfldr64cs	mvdx2, [r7], #148	; 0x94
    13a0:	d49f2533 	ldrle	r2, [pc], #1331	; 13a8 <_start-0x6c58>
    13a4:	d8000002 	stmdale	r0, {r1}
    13a8:	01000002 	tsteq	r0, r2
    13ac:	02d85300 	sbcseq	r5, r8, #0, 6
    13b0:	02e00000 	rsceq	r0, r0, #0
    13b4:	001c0000 	andseq	r0, ip, r0
    13b8:	2cf70070 	ldclcs	0, cr0, [r7], #448	; 0x1c0
    13bc:	25f425f7 	ldrbcs	r2, [r4, #1527]!	; 0x5f7
    13c0:	cccccd08 	stclgt	13, cr12, [ip], {8}
    13c4:	000000cc 	andeq	r0, r0, ip, asr #1
    13c8:	20081e00 	andcs	r1, r8, r0, lsl #28
    13cc:	f72525f7 			; <UNDEFINED> instruction: 0xf72525f7
    13d0:	9f25332c 	svcls	0x0025332c
    13d4:	000002e0 	andeq	r0, r0, r0, ror #5
    13d8:	000002e4 	andeq	r0, r0, r4, ror #5
    13dc:	e4530001 	ldrb	r0, [r3], #-1
    13e0:	ec000002 	stc	0, cr0, [r0], {2}
    13e4:	1c000002 	stcne	0, cr0, [r0], {2}
    13e8:	f7007000 			; <UNDEFINED> instruction: 0xf7007000
    13ec:	f425f72c 	vld1.8	{d15}, [r5 :128], ip
    13f0:	cccd0825 	stclgt	8, cr0, [sp], {37}	; 0x25
    13f4:	0000cccc 	andeq	ip, r0, ip, asr #25
    13f8:	081e0000 	ldmdaeq	lr, {}	; <UNPREDICTABLE>
    13fc:	2525f720 	strcs	pc, [r5, #-1824]!	; 0x720
    1400:	25332cf7 	ldrcs	r2, [r3, #-3319]!	; 0xcf7
    1404:	0002ec9f 	muleq	r2, pc, ip	; <UNPREDICTABLE>
    1408:	0002f000 	andeq	pc, r2, r0
    140c:	53000100 	movwpl	r0, #256	; 0x100
    1410:	000002f0 	strdeq	r0, [r0], -r0	; <UNPREDICTABLE>
    1414:	000002f8 	strdeq	r0, [r0], -r8
    1418:	0070001c 	rsbseq	r0, r0, ip, lsl r0
    141c:	25f72cf7 	ldrbcs	r2, [r7, #3319]!	; 0xcf7
    1420:	cd0825f4 	cfstr32gt	mvfx2, [r8, #-976]	; 0xfffffc30
    1424:	00cccccc 	sbceq	ip, ip, ip, asr #25
    1428:	1e000000 	cdpne	0, 0, cr0, cr0, cr0, {0}
    142c:	25f72008 	ldrbcs	r2, [r7, #8]!
    1430:	332cf725 	msrcc	CPSR_fs, #9699328	; 0x940000
    1434:	02f89f25 	rscseq	r9, r8, #37, 30	; 0x94
    1438:	02fc0000 	rscseq	r0, ip, #0
    143c:	00010000 	andeq	r0, r1, r0
    1440:	0002fc53 	andeq	pc, r2, r3, asr ip	; <UNPREDICTABLE>
    1444:	00030400 	andeq	r0, r3, r0, lsl #8
    1448:	70001c00 	andvc	r1, r0, r0, lsl #24
    144c:	f72cf700 			; <UNDEFINED> instruction: 0xf72cf700
    1450:	0825f425 	stmdaeq	r5!, {r0, r2, r5, sl, ip, sp, lr, pc}
    1454:	cccccccd 	stclgt	12, cr12, [ip], {205}	; 0xcd
    1458:	00000000 	andeq	r0, r0, r0
    145c:	f720081e 			; <UNDEFINED> instruction: 0xf720081e
    1460:	2cf72525 	cfldr64cs	mvdx2, [r7], #148	; 0x94
    1464:	049f2533 	ldreq	r2, [pc], #1331	; 146c <_start-0x6b94>
    1468:	08000003 	stmdaeq	r0, {r0, r1}
    146c:	01000003 	tsteq	r0, r3
    1470:	03085300 	movweq	r5, #33536	; 0x8300
    1474:	03100000 	tsteq	r0, #0
    1478:	001c0000 	andseq	r0, ip, r0
    147c:	2cf70070 	ldclcs	0, cr0, [r7], #448	; 0x1c0
    1480:	25f425f7 	ldrbcs	r2, [r4, #1527]!	; 0x5f7
    1484:	cccccd08 	stclgt	13, cr12, [ip], {8}
    1488:	000000cc 	andeq	r0, r0, ip, asr #1
    148c:	20081e00 	andcs	r1, r8, r0, lsl #28
    1490:	f72525f7 			; <UNDEFINED> instruction: 0xf72525f7
    1494:	9f25332c 	svcls	0x0025332c
    1498:	00000310 	andeq	r0, r0, r0, lsl r3
    149c:	00000314 	andeq	r0, r0, r4, lsl r3
    14a0:	14530001 	ldrbne	r0, [r3], #-1
    14a4:	18000003 	stmdane	r0, {r0, r1}
    14a8:	1c000003 	stcne	0, cr0, [r0], {3}
    14ac:	f7007000 			; <UNDEFINED> instruction: 0xf7007000
    14b0:	f425f72c 	vld1.8	{d15}, [r5 :128], ip
    14b4:	cccd0825 	stclgt	8, cr0, [sp], {37}	; 0x25
    14b8:	0000cccc 	andeq	ip, r0, ip, asr #25
    14bc:	081e0000 	ldmdaeq	lr, {}	; <UNPREDICTABLE>
    14c0:	2525f720 	strcs	pc, [r5, #-1824]!	; 0x720
    14c4:	25332cf7 	ldrcs	r2, [r3, #-3319]!	; 0xcf7
    14c8:	0003189f 	muleq	r3, pc, r8	; <UNPREDICTABLE>
    14cc:	00032000 	andeq	r2, r3, r0
    14d0:	74001c00 	strvc	r1, [r0], #-3072	; 0xc00
    14d4:	f72cf700 			; <UNDEFINED> instruction: 0xf72cf700
    14d8:	0825f425 	stmdaeq	r5!, {r0, r2, r5, sl, ip, sp, lr, pc}
    14dc:	cccccccd 	stclgt	12, cr12, [ip], {205}	; 0xcd
    14e0:	00000000 	andeq	r0, r0, r0
    14e4:	f720081e 			; <UNDEFINED> instruction: 0xf720081e
    14e8:	2cf72525 	cfldr64cs	mvdx2, [r7], #148	; 0x94
    14ec:	209f2533 	addscs	r2, pc, r3, lsr r5	; <UNPREDICTABLE>
    14f0:	24000003 	strcs	r0, [r0], #-3
    14f4:	17000003 	strne	r0, [r0, -r3]
    14f8:	f7007400 			; <UNDEFINED> instruction: 0xf7007400
    14fc:	7325f72c 	msrvc	CPSR_sc, #44, 14	; 0xb00000
    1500:	f72cf700 			; <UNDEFINED> instruction: 0xf72cf700
    1504:	20081e25 	andcs	r1, r8, r5, lsr #28
    1508:	f72525f7 			; <UNDEFINED> instruction: 0xf72525f7
    150c:	9f25332c 	svcls	0x0025332c
    1510:	00000324 	andeq	r0, r0, r4, lsr #6
    1514:	00000358 	andeq	r0, r0, r8, asr r3
    1518:	0074001c 	rsbseq	r0, r4, ip, lsl r0
    151c:	25f72cf7 	ldrbcs	r2, [r7, #3319]!	; 0xcf7
    1520:	cd0825f4 	cfstr32gt	mvfx2, [r8, #-976]	; 0xfffffc30
    1524:	00cccccc 	sbceq	ip, ip, ip, asr #25
    1528:	1e000000 	cdpne	0, 0, cr0, cr0, cr0, {0}
    152c:	25f72008 	ldrbcs	r2, [r7, #8]!
    1530:	332cf725 	msrcc	CPSR_fs, #9699328	; 0x940000
    1534:	00009f25 	andeq	r9, r0, r5, lsr #30
    1538:	00000000 	andeq	r0, r0, r0
    153c:	031c0000 	tsteq	ip, #0
    1540:	03400000 	movteq	r0, #0
    1544:	00010000 	andeq	r0, r1, r0
    1548:	00034050 	andeq	r4, r3, r0, asr r0
    154c:	00034800 	andeq	r4, r3, r0, lsl #16
    1550:	75000900 	strvc	r0, [r0, #-2304]	; 0x900
    1554:	24007300 	strcs	r7, [r0], #-768	; 0x300
    1558:	9f210071 	svcls	0x00210071
    155c:	00000348 	andeq	r0, r0, r8, asr #6
    1560:	0000034b 	andeq	r0, r0, fp, asr #6
    1564:	00510001 	subseq	r0, r1, r1
    1568:	00000000 	andeq	r0, r0, r0
    156c:	58000000 	stmdapl	r0, {}	; <UNPREDICTABLE>
    1570:	7c000003 	stcvc	0, cr0, [r0], {3}
    1574:	01000003 	tsteq	r0, r3
    1578:	037c5000 	cmneq	ip, #0
    157c:	03900000 	orrseq	r0, r0, #0
    1580:	00040000 	andeq	r0, r4, r0
    1584:	9f5001f3 	svcls	0x005001f3
	...
    1590:	00000364 	andeq	r0, r0, r4, ror #6
    1594:	0000036c 	andeq	r0, r0, ip, ror #6
    1598:	9f300002 	svcls	0x00300002
    159c:	0000036c 	andeq	r0, r0, ip, ror #6
    15a0:	0000036c 	andeq	r0, r0, ip, ror #6
    15a4:	6c520001 	mrrcvs	0, 0, r0, r2, cr1
    15a8:	74000003 	strvc	r0, [r0], #-3
    15ac:	02000003 	andeq	r0, r0, #3
    15b0:	749f3000 	ldrvc	r3, [pc], #0	; 15b8 <_start-0x6a48>
    15b4:	87000003 	strhi	r0, [r0, -r3]
    15b8:	01000003 	tsteq	r0, r3
    15bc:	00005200 	andeq	r5, r0, r0, lsl #4
    15c0:	00000000 	andeq	r0, r0, r0
    15c4:	03640000 	cmneq	r4, #0
    15c8:	03780000 	cmneq	r8, #0
    15cc:	00020000 	andeq	r0, r2, r0
    15d0:	03789f30 	cmneq	r8, #48, 30	; 0xc0
    15d4:	03840000 	orreq	r0, r4, #0
    15d8:	00050000 	andeq	r0, r5, r0
    15dc:	24007331 	strcs	r7, [r0], #-817	; 0x331
    15e0:	0003849f 	muleq	r3, pc, r4	; <UNPREDICTABLE>
    15e4:	00038700 	andeq	r8, r3, r0, lsl #14
    15e8:	51000100 	mrspl	r0, (UNDEF: 16)
    15ec:	00000387 	andeq	r0, r0, r7, lsl #7
    15f0:	00000390 	muleq	r0, r0, r3
    15f4:	f3310008 	vhadd.u<illegal width 64>	d0, d1, d8
    15f8:	1a4f5001 	bne	13d5604 <__bss_end__+0x13cb6ec>
    15fc:	00009f24 	andeq	r9, r0, r4, lsr #30
    1600:	00000000 	andeq	r0, r0, r0
    1604:	03900000 	orrseq	r0, r0, #0
    1608:	039c0000 	orrseq	r0, ip, #0
    160c:	00010000 	andeq	r0, r1, r0
    1610:	00039c50 	andeq	r9, r3, r0, asr ip
    1614:	0003bc00 	andeq	fp, r3, r0, lsl #24
    1618:	f3000400 	vshl.u8	d0, d0, d0
    161c:	009f5001 	addseq	r5, pc, r1
    1620:	00000000 	andeq	r0, r0, r0
    1624:	bc000000 	stclt	0, cr0, [r0], {-0}
    1628:	cf000003 	svcgt	0x00000003
    162c:	01000003 	tsteq	r0, r3
    1630:	03cf5000 	biceq	r5, pc, #0
    1634:	04080000 	streq	r0, [r8], #-0
    1638:	00010000 	andeq	r0, r1, r0
    163c:	00040854 	andeq	r0, r4, r4, asr r8
    1640:	00044000 	andeq	r4, r4, r0
    1644:	f3000400 	vshl.u8	d0, d0, d0
    1648:	009f5001 	addseq	r5, pc, r1
    164c:	00000000 	andeq	r0, r0, r0
    1650:	28000000 	stmdacs	r0, {}	; <UNPREDICTABLE>
    1654:	2c000004 	stccs	0, cr0, [r0], {4}
    1658:	01000004 	tsteq	r0, r4
    165c:	042c5000 	strteq	r5, [ip], #-0
    1660:	04330000 	ldrteq	r0, [r3], #-0
    1664:	00010000 	andeq	r0, r1, r0
    1668:	00000051 	andeq	r0, r0, r1, asr r0
    166c:	00000000 	andeq	r0, r0, r0
    1670:	0003e400 	andeq	lr, r3, r0, lsl #8
    1674:	0003ec00 	andeq	lr, r3, r0, lsl #24
    1678:	50000100 	andpl	r0, r0, r0, lsl #2
    167c:	000003ec 	andeq	r0, r0, ip, ror #7
    1680:	000003f3 	strdeq	r0, [r0], -r3
    1684:	00510001 	subseq	r0, r1, r1
    1688:	00000000 	andeq	r0, r0, r0
    168c:	04000000 	streq	r0, [r0], #-0
    1690:	10000004 	andne	r0, r0, r4
    1694:	01000004 	tsteq	r0, r4
    1698:	04105000 	ldreq	r5, [r0], #-0
    169c:	04170000 	ldreq	r0, [r7], #-0
    16a0:	00010000 	andeq	r0, r1, r0
    16a4:	00000051 	andeq	r0, r0, r1, asr r0
    16a8:	00000000 	andeq	r0, r0, r0
    16ac:	00044000 	andeq	r4, r4, r0
    16b0:	00045300 	andeq	r5, r4, r0, lsl #6
    16b4:	50000100 	andpl	r0, r0, r0, lsl #2
    16b8:	00000453 	andeq	r0, r0, r3, asr r4
    16bc:	0000048c 	andeq	r0, r0, ip, lsl #9
    16c0:	8c540001 	mrrchi	0, 0, r0, r4, cr1
    16c4:	c4000004 	strgt	r0, [r0], #-4
    16c8:	04000004 	streq	r0, [r0], #-4
    16cc:	5001f300 	andpl	pc, r1, r0, lsl #6
    16d0:	0000009f 	muleq	r0, pc, r0	; <UNPREDICTABLE>
    16d4:	00000000 	andeq	r0, r0, r0
    16d8:	0004ac00 	andeq	sl, r4, r0, lsl #24
    16dc:	0004b000 	andeq	fp, r4, r0
    16e0:	50000100 	andpl	r0, r0, r0, lsl #2
    16e4:	000004b0 			; <UNDEFINED> instruction: 0x000004b0
    16e8:	000004b7 			; <UNDEFINED> instruction: 0x000004b7
    16ec:	00510001 	subseq	r0, r1, r1
    16f0:	00000000 	andeq	r0, r0, r0
    16f4:	68000000 	stmdavs	r0, {}	; <UNPREDICTABLE>
    16f8:	70000004 	andvc	r0, r0, r4
    16fc:	01000004 	tsteq	r0, r4
    1700:	04705000 	ldrbteq	r5, [r0], #-0
    1704:	04770000 	ldrbteq	r0, [r7], #-0
    1708:	00010000 	andeq	r0, r1, r0
    170c:	00000051 	andeq	r0, r0, r1, asr r0
    1710:	00000000 	andeq	r0, r0, r0
    1714:	00048800 	andeq	r8, r4, r0, lsl #16
    1718:	00049400 	andeq	r9, r4, r0, lsl #8
    171c:	50000100 	andpl	r0, r0, r0, lsl #2
    1720:	00000494 	muleq	r0, r4, r4
    1724:	0000049b 	muleq	r0, fp, r4
    1728:	00510001 	subseq	r0, r1, r1
    172c:	00000000 	andeq	r0, r0, r0
    1730:	c4000000 	strgt	r0, [r0], #-0
    1734:	d7000004 	strle	r0, [r0, -r4]
    1738:	01000004 	tsteq	r0, r4
    173c:	04d75000 	ldrbeq	r5, [r7], #0
    1740:	05180000 	ldreq	r0, [r8, #-0]
    1744:	00010000 	andeq	r0, r1, r0
    1748:	00051854 	andeq	r1, r5, r4, asr r8
    174c:	00053c00 	andeq	r3, r5, r0, lsl #24
    1750:	f3000400 	vshl.u8	d0, d0, d0
    1754:	3c9f5001 	ldccc	0, cr5, [pc], {1}
    1758:	40000005 	andmi	r0, r0, r5
    175c:	01000005 	tsteq	r0, r5
    1760:	05405000 	strbeq	r5, [r0, #-0]
    1764:	05480000 	strbeq	r0, [r8, #-0]
    1768:	00010000 	andeq	r0, r1, r0
    176c:	00000054 	andeq	r0, r0, r4, asr r0
    1770:	00000000 	andeq	r0, r0, r0
    1774:	0004ec00 	andeq	lr, r4, r0, lsl #24
    1778:	0004fb00 	andeq	pc, r4, r0, lsl #22
    177c:	31000800 	tstcc	r0, r0, lsl #16
    1780:	70240074 	eorvc	r0, r4, r4, ror r0
    1784:	009f1a00 	addseq	r1, pc, r0, lsl #20
    1788:	00000000 	andeq	r0, r0, r0
    178c:	18000000 	stmdane	r0, {}	; <UNPREDICTABLE>
    1790:	30000005 	andcc	r0, r0, r5
    1794:	01000005 	tsteq	r0, r5
    1798:	00005400 	andeq	r5, r0, r0, lsl #8
    179c:	00000000 	andeq	r0, r0, r0
    17a0:	05480000 	strbeq	r0, [r8, #-0]
    17a4:	055b0000 	ldrbeq	r0, [fp, #-0]
    17a8:	00010000 	andeq	r0, r1, r0
    17ac:	00055b50 	andeq	r5, r5, r0, asr fp
    17b0:	00058000 	andeq	r8, r5, r0
    17b4:	54000100 	strpl	r0, [r0], #-256	; 0x100
    17b8:	00000580 	andeq	r0, r0, r0, lsl #11
    17bc:	000005a0 	andeq	r0, r0, r0, lsr #11
    17c0:	01f30004 	mvnseq	r0, r4
    17c4:	00009f50 	andeq	r9, r0, r0, asr pc
    17c8:	00000000 	andeq	r0, r0, r0
    17cc:	00fc0000 	rscseq	r0, ip, r0
    17d0:	01040000 	mrseq	r0, (UNDEF: 4)
    17d4:	00010000 	andeq	r0, r1, r0
    17d8:	00010450 	andeq	r0, r1, r0, asr r4
    17dc:	00012800 	andeq	r2, r1, r0, lsl #16
    17e0:	54000100 	strpl	r0, [r0], #-256	; 0x100
	...

Disassembly of section .debug_aranges:

00000000 <.debug_aranges>:
   0:	0000001c 	andeq	r0, r0, ip, lsl r0
   4:	00000002 	andeq	r0, r0, r2
   8:	00040000 	andeq	r0, r4, r0
   c:	00000000 	andeq	r0, r0, r0
  10:	00008010 	andeq	r8, r0, r0, lsl r0
  14:	00000244 	andeq	r0, r0, r4, asr #4
	...
  20:	0000001c 	andeq	r0, r0, ip, lsl r0
  24:	057e0002 	ldrbeq	r0, [lr, #-2]!
  28:	00040000 	andeq	r0, r4, r0
  2c:	00000000 	andeq	r0, r0, r0
  30:	00008254 	andeq	r8, r0, r4, asr r2
  34:	00000574 	andeq	r0, r0, r4, ror r5
	...
  40:	0000001c 	andeq	r0, r0, ip, lsl r0
  44:	20e10002 	rsccs	r0, r1, r2
  48:	00040000 	andeq	r0, r4, r0
  4c:	00000000 	andeq	r0, r0, r0
  50:	000087c8 	andeq	r8, r0, r8, asr #15
  54:	00000058 	andeq	r0, r0, r8, asr r0
	...
  60:	0000001c 	andeq	r0, r0, ip, lsl r0
  64:	22760002 	rsbscs	r0, r6, #2
  68:	00040000 	andeq	r0, r4, r0
  6c:	00000000 	andeq	r0, r0, r0
  70:	00008820 	andeq	r8, r0, r0, lsr #16
  74:	0000003c 	andeq	r0, r0, ip, lsr r0
	...
  80:	0000001c 	andeq	r0, r0, ip, lsl r0
  84:	238d0002 	orrcs	r0, sp, #2
  88:	00040000 	andeq	r0, r4, r0
  8c:	00000000 	andeq	r0, r0, r0
  90:	0000885c 	andeq	r8, r0, ip, asr r8
  94:	00000034 	andeq	r0, r0, r4, lsr r0
	...
  a0:	0000001c 	andeq	r0, r0, ip, lsl r0
  a4:	247f0002 	ldrbtcs	r0, [pc], #-2	; ac <_start-0x7f54>
  a8:	00040000 	andeq	r0, r4, r0
  ac:	00000000 	andeq	r0, r0, r0
  b0:	00008890 	muleq	r0, r0, r8
  b4:	000004f8 	strdeq	r0, [r0], -r8
	...
  c0:	0000001c 	andeq	r0, r0, ip, lsl r0
  c4:	2b040002 	blcs	1000d4 <__bss_end__+0xf61bc>
  c8:	00040000 	andeq	r0, r4, r0
  cc:	00000000 	andeq	r0, r0, r0
  d0:	00008d88 	andeq	r8, r0, r8, lsl #27
  d4:	00000028 	andeq	r0, r0, r8, lsr #32
	...
  e0:	0000001c 	andeq	r0, r0, ip, lsl r0
  e4:	2c070002 	stccs	0, cr0, [r7], {2}
  e8:	00040000 	andeq	r0, r4, r0
  ec:	00000000 	andeq	r0, r0, r0
  f0:	00008db0 			; <UNDEFINED> instruction: 0x00008db0
  f4:	00000034 	andeq	r0, r0, r4, lsr r0
	...
 100:	0000001c 	andeq	r0, r0, ip, lsl r0
 104:	2d0a0002 	stccs	0, cr0, [sl, #-8]
 108:	00040000 	andeq	r0, r4, r0
 10c:	00000000 	andeq	r0, r0, r0
 110:	00008de4 	andeq	r8, r0, r4, ror #27
 114:	00000074 	andeq	r0, r0, r4, ror r0
	...
 120:	0000001c 	andeq	r0, r0, ip, lsl r0
 124:	2ebb0002 	cdpcs	0, 11, cr0, cr11, cr2, {0}
 128:	00040000 	andeq	r0, r4, r0
 12c:	00000000 	andeq	r0, r0, r0
 130:	00008e58 	andeq	r8, r0, r8, asr lr
 134:	00000088 	andeq	r0, r0, r8, lsl #1
	...
 140:	0000001c 	andeq	r0, r0, ip, lsl r0
 144:	30970002 	addscc	r0, r7, r2
 148:	00040000 	andeq	r0, r4, r0
 14c:	00000000 	andeq	r0, r0, r0
 150:	00008ee0 	andeq	r8, r0, r0, ror #29
 154:	000005a0 	andeq	r0, r0, r0, lsr #11
	...
 160:	0000001c 	andeq	r0, r0, ip, lsl r0
 164:	391d0002 	ldmdbcc	sp, {r1}
 168:	00040000 	andeq	r0, r4, r0
 16c:	00000000 	andeq	r0, r0, r0
 170:	00009480 	andeq	r9, r0, r0, lsl #9
 174:	00000154 	andeq	r0, r0, r4, asr r1
	...

Disassembly of section .debug_ranges:

00000000 <.debug_ranges>:
   0:	000001d8 	ldrdeq	r0, [r0], -r8
   4:	00000200 	andeq	r0, r0, r0, lsl #4
   8:	00000204 	andeq	r0, r0, r4, lsl #4
   c:	0000021c 	andeq	r0, r0, ip, lsl r2
	...
  18:	000001d8 	ldrdeq	r0, [r0], -r8
  1c:	000001f8 	strdeq	r0, [r0], -r8
  20:	00000204 	andeq	r0, r0, r4, lsl #4
  24:	00000214 	andeq	r0, r0, r4, lsl r2
	...
  30:	00000294 	muleq	r0, r4, r2
  34:	00000298 	muleq	r0, r8, r2
  38:	000002c8 	andeq	r0, r0, r8, asr #5
  3c:	000004b8 			; <UNDEFINED> instruction: 0x000004b8
	...
  48:	00008de4 	andeq	r8, r0, r4, ror #27
  4c:	00008e58 	andeq	r8, r0, r8, asr lr
	...

Disassembly of section .debug_line:

00000000 <.debug_line>:
   0:	0000014e 	andeq	r0, r0, lr, asr #2
   4:	00d70002 	sbcseq	r0, r7, r2
   8:	01020000 	mrseq	r0, (UNDEF: 2)
   c:	000d0efb 	strdeq	r0, [sp], -fp
  10:	01010101 	tsteq	r1, r1, lsl #2
  14:	01000000 	mrseq	r0, (UNDEF: 0)
  18:	2f010000 	svccs	0x00010000
  1c:	2f727375 	svccs	0x00727375
  20:	61636f6c 	cmnvs	r3, ip, ror #30
  24:	65432f6c 	strbvs	r2, [r3, #-3948]	; 0xf6c
  28:	72616c6c 	rsbvc	r6, r1, #108, 24	; 0x6c00
  2c:	6d72612f 	ldfvse	f6, [r2, #-188]!	; 0xffffff44
  30:	6e6f6e2d 	cdpvs	14, 6, cr6, cr15, cr13, {1}
  34:	61652d65 	cmnvs	r5, r5, ror #26
  38:	342f6962 	strtcc	r6, [pc], #-2402	; 40 <_start-0x7fc0>
  3c:	332e382e 	teqcc	lr, #3014656	; 0x2e0000
  40:	3173632d 	cmncc	r3, sp, lsr #6
  44:	2f653037 	svccs	0x00653037
  48:	2f62696c 	svccs	0x0062696c
  4c:	2f636367 	svccs	0x00636367
  50:	2d6d7261 	sfmcs	f7, 2, [sp, #-388]!	; 0xfffffe7c
  54:	656e6f6e 	strbvs	r6, [lr, #-3950]!	; 0xf6e
  58:	6261652d 	rsbvs	r6, r1, #188743680	; 0xb400000
  5c:	2e342f69 	cdpcs	15, 3, cr2, cr4, cr9, {3}
  60:	2f332e38 	svccs	0x00332e38
  64:	6c636e69 	stclvs	14, cr6, [r3], #-420	; 0xfffffe5c
  68:	00656475 	rsbeq	r6, r5, r5, ror r4
  6c:	6573552f 	ldrbvs	r5, [r3, #-1327]!	; 0x52f
  70:	622f7372 	eorvs	r7, pc, #-939524095	; 0xc8000001
  74:	6e616972 	mcrvs	9, 3, r6, cr1, cr2, {3}
  78:	2f6e756a 	svccs	0x006e756a
  7c:	6b736544 	blvs	1cd9594 <__bss_end__+0x1ccf67c>
  80:	2f706f74 	svccs	0x00706f74
  84:	6f686373 	svcvs	0x00686373
  88:	572f6c6f 	strpl	r6, [pc, -pc, ror #24]!
  8c:	65746e69 	ldrbvs	r6, [r4, #-3689]!	; 0xe69
  90:	32393172 	eorscc	r3, r9, #-2147483620	; 0x8000001c
  94:	53432f30 	movtpl	r2, #16176	; 0x3f30
  98:	45303431 	ldrmi	r3, [r0, #-1073]!	; 0x431
  9c:	3173632f 	cmncc	r3, pc, lsr #6
  a0:	2d653034 	stclcs	0, cr3, [r5, #-208]!	; 0xffffff30
  a4:	69773032 	ldmdbvs	r7!, {r1, r4, r5, ip, sp}^
  a8:	696c2f6e 	stmdbvs	ip!, {r1, r2, r3, r5, r6, r8, r9, sl, fp, sp}^
  ac:	00697062 	rsbeq	r7, r9, r2, rrx
  b0:	63646100 	cmnvs	r4, #0, 2
  b4:	35313131 	ldrcc	r3, [r1, #-305]!	; 0x131
  b8:	0000632e 	andeq	r6, r0, lr, lsr #6
  bc:	74730000 	ldrbtvc	r0, [r3], #-0
  c0:	746e6964 	strbtvc	r6, [lr], #-2404	; 0x964
  c4:	6363672d 	cmnvs	r3, #11796480	; 0xb40000
  c8:	0100682e 	tsteq	r0, lr, lsr #16
  cc:	32690000 	rsbcc	r0, r9, #0
  d0:	00682e63 	rsbeq	r2, r8, r3, ror #28
  d4:	72000000 	andvc	r0, r0, #0
  d8:	682e6970 	stmdavs	lr!, {r4, r5, r6, r8, fp, sp, lr}
  dc:	00000200 	andeq	r0, r0, r0, lsl #4
  e0:	02050000 	andeq	r0, r5, #0
  e4:	00008010 	andeq	r8, r0, r0, lsl r0
  e8:	67011e03 	strvs	r1, [r1, -r3, lsl #28]
  ec:	83676783 	cmnhi	r7, #34340864	; 0x20c0000
  f0:	674b674d 	strbvs	r6, [fp, -sp, asr #14]
  f4:	034c8367 	movteq	r8, #50023	; 0xc367
  f8:	674b6668 	strbvs	r6, [fp, -r8, ror #12]
  fc:	4a170367 	bmi	5c0ea0 <__bss_end__+0x5b6f88>
 100:	2f4b2f2f 	svccs	0x004b2f2f
 104:	304a1803 	subcc	r1, sl, r3, lsl #16
 108:	00da834d 	sbcseq	r8, sl, sp, asr #6
 10c:	06010402 	streq	r0, [r1], -r2, lsl #8
 110:	00d8064a 	sbcseq	r0, r8, sl, asr #12
 114:	06010402 	streq	r0, [r1], -r2, lsl #8
 118:	00d80682 	sbcseq	r0, r8, r2, lsl #13
 11c:	06010402 	streq	r0, [r1], -r2, lsl #8
 120:	11030682 	smlabbne	r3, r2, r6, r0
 124:	0067a1d6 	ldrdeq	sl, [r7], #-22	; 0xffffffea	; <UNPREDICTABLE>
 128:	06010402 	streq	r0, [r1], -r2, lsl #8
 12c:	0402004a 	streq	r0, [r2], #-74	; 0x4a
 130:	0a030602 	beq	c1940 <__bss_end__+0xb7a28>
 134:	040200d6 	streq	r0, [r2], #-214	; 0xd6
 138:	02006702 	andeq	r6, r0, #524288	; 0x80000
 13c:	00670204 	rsbeq	r0, r7, r4, lsl #4
 140:	47020402 	strmi	r0, [r2, -r2, lsl #8]
 144:	002f4b67 	eoreq	r4, pc, r7, ror #22
 148:	2b010402 	blcs	41158 <__bss_end__+0x37240>
 14c:	0014024f 	andseq	r0, r4, pc, asr #4
 150:	02440101 	subeq	r0, r4, #1073741824	; 0x40000000
 154:	00020000 	andeq	r0, r2, r0
 158:	00000104 	andeq	r0, r0, r4, lsl #2
 15c:	0efb0102 	cdpeq	1, 15, cr0, cr11, cr2, {0}
 160:	0101000d 	tsteq	r1, sp
 164:	00000101 	andeq	r0, r0, r1, lsl #2
 168:	00000100 	andeq	r0, r0, r0, lsl #2
 16c:	73752f01 	cmnvc	r5, #1, 30
 170:	696c2f72 	stmdbvs	ip!, {r1, r4, r5, r6, r8, r9, sl, fp, sp}^
 174:	63672f62 	cmnvs	r7, #392	; 0x188
 178:	72612f63 	rsbvc	r2, r1, #396	; 0x18c
 17c:	6f6e2d6d 	svcvs	0x006e2d6d
 180:	652d656e 	strvs	r6, [sp, #-1390]!	; 0x56e
 184:	2f696261 	svccs	0x00696261
 188:	2e332e36 	mrccs	14, 1, r2, cr3, cr6, {1}
 18c:	6e692f31 	mcrvs	15, 3, r2, cr9, cr1, {1}
 190:	64756c63 	ldrbtvs	r6, [r5], #-3171	; 0xc63
 194:	752f0065 	strvc	r0, [pc, #-101]!	; 137 <_start-0x7ec9>
 198:	692f7273 	stmdbvs	pc!, {r0, r1, r4, r5, r6, r9, ip, sp, lr}	; <UNPREDICTABLE>
 19c:	756c636e 	strbvc	r6, [ip, #-878]!	; 0x36e
 1a0:	6e2f6564 	cfsh64vs	mvdx6, mvdx15, #52
 1a4:	696c7765 	stmdbvs	ip!, {r0, r2, r5, r6, r8, r9, sl, ip, sp, lr}^
 1a8:	79732f62 	ldmdbvc	r3!, {r1, r5, r6, r8, r9, sl, fp, sp}^
 1ac:	682f0073 	stmdavs	pc!, {r0, r1, r4, r5, r6}	; <UNPREDICTABLE>
 1b0:	2f656d6f 	svccs	0x00656d6f
 1b4:	6c676e65 	stclvs	14, cr6, [r7], #-404	; 0xfffffe6c
 1b8:	632f7265 	teqvs	pc, #1342177286	; 0x50000006
 1bc:	7373616c 	cmnvc	r3, #108, 2
 1c0:	3173632f 	cmncc	r3, pc, lsr #6
 1c4:	2d653034 	stclcs	0, cr3, [r5, #-208]!	; 0xffffff30
 1c8:	69773032 	ldmdbvs	r7!, {r1, r4, r5, ip, sp}^
 1cc:	696c2f6e 	stmdbvs	ip!, {r1, r2, r3, r5, r6, r8, r9, sl, fp, sp}^
 1d0:	00697062 	rsbeq	r7, r9, r2, rrx
 1d4:	6d6f682f 	stclvs	8, cr6, [pc, #-188]!	; 120 <_start-0x7ee0>
 1d8:	6e652f65 	cdpvs	15, 6, cr2, cr5, cr5, {3}
 1dc:	72656c67 	rsbvc	r6, r5, #26368	; 0x6700
 1e0:	616c632f 	cmnvs	ip, pc, lsr #6
 1e4:	632f7373 	teqvs	pc, #-872415231	; 0xcc000001
 1e8:	30343173 	eorscc	r3, r4, r3, ror r1
 1ec:	30322d65 	eorscc	r2, r2, r5, ror #26
 1f0:	2f6e6977 	svccs	0x006e6977
 1f4:	7062696c 	rsbvc	r6, r2, ip, ror #18
 1f8:	73632f69 	cmnvc	r3, #420	; 0x1a4
 1fc:	65303431 	ldrvs	r3, [r0, #-1073]!	; 0x431
 200:	6372732d 	cmnvs	r2, #-1275068416	; 0xb4000000
 204:	32690000 	rsbcc	r0, r9, #0
 208:	00632e63 	rsbeq	r2, r3, r3, ror #28
 20c:	73000000 	movwvc	r0, #0
 210:	6e696474 	mcrvs	4, 3, r6, cr9, cr4, {3}
 214:	63672d74 	cmnvs	r7, #116, 26	; 0x1d00
 218:	00682e63 	rsbeq	r2, r8, r3, ror #28
 21c:	6c000001 	stcvs	0, cr0, [r0], {1}
 220:	2e6b636f 	cdpcs	3, 6, cr6, cr11, cr15, {3}
 224:	00020068 	andeq	r0, r2, r8, rrx
 228:	79745f00 	ldmdbvc	r4!, {r8, r9, sl, fp, ip, lr}^
 22c:	2e736570 	mrccs	5, 3, r6, cr3, cr0, {3}
 230:	00020068 	andeq	r0, r2, r8, rrx
 234:	64747300 	ldrbtvs	r7, [r4], #-768	; 0x300
 238:	2e666564 	cdpcs	5, 6, cr6, cr6, cr4, {3}
 23c:	00010068 	andeq	r0, r1, r8, rrx
 240:	65657200 	strbvs	r7, [r5, #-512]!	; 0x200
 244:	682e746e 	stmdavs	lr!, {r1, r2, r3, r5, r6, sl, ip, sp, lr}
 248:	00000200 	andeq	r0, r0, r0, lsl #4
 24c:	2e697072 	mcrcs	0, 3, r7, cr9, cr2, {3}
 250:	00030068 	andeq	r0, r3, r8, rrx
 254:	69706700 	ldmdbvs	r0!, {r8, r9, sl, sp, lr}^
 258:	00682e6f 	rsbeq	r2, r8, pc, ror #28
 25c:	00000004 	andeq	r0, r0, r4
 260:	54020500 	strpl	r0, [r2], #-1280	; 0x500
 264:	03000082 	movweq	r0, #130	; 0x82
 268:	130100f6 	movwne	r0, #4342	; 0x10f6
 26c:	302f2f2f 	eorcc	r2, pc, pc, lsr #30
 270:	132e3703 	teqne	lr, #786432	; 0xc0000
 274:	01be034c 			; <UNDEFINED> instruction: 0x01be034c
 278:	2e1d032e 	cdpcs	3, 1, cr0, cr13, cr14, {1}
 27c:	2e7f8203 	cdpcs	2, 7, cr8, cr15, cr3, {0}
 280:	04040200 	streq	r0, [r4], #-512	; 0x200
 284:	04020030 	streq	r0, [r2], #-48	; 0x30
 288:	00820605 	addeq	r0, r2, r5, lsl #12
 28c:	82020402 	andhi	r0, r2, #33554432	; 0x2000000
 290:	03040200 	movweq	r0, #16896	; 0x4200
 294:	04020082 	streq	r0, [r2], #-130	; 0x82
 298:	d906d601 	stmdble	r6, {r0, r9, sl, ip, lr, pc}
 29c:	02008484 	andeq	r8, r0, #132, 8	; 0x84000000
 2a0:	00460104 	subeq	r0, r6, r4, lsl #2
 2a4:	d8010402 	stmdale	r1, {r1, sl}
 2a8:	027f9d03 	rsbseq	r9, pc, #3, 26	; 0xc0
 2ac:	4b2f0122 	blmi	bc073c <__bss_end__+0xbb6824>
 2b0:	2f2e2d03 	svccs	0x002e2d03
 2b4:	8f033467 	svchi	0x00033467
 2b8:	4b2f9e7f 	blmi	be7cbc <__bss_end__+0xbddda4>
 2bc:	2e00f203 	cdpcs	2, 0, cr15, cr0, cr3, {0}
 2c0:	04020083 	streq	r0, [r2], #-131	; 0x83
 2c4:	02003104 	andeq	r3, r0, #4, 2
 2c8:	82060504 	andhi	r0, r6, #4, 10	; 0x1000000
 2cc:	02040200 	andeq	r0, r4, #0, 4
 2d0:	04020082 	streq	r0, [r2], #-130	; 0x82
 2d4:	02008203 	andeq	r8, r0, #805306368	; 0x30000000
 2d8:	06d60104 	ldrbeq	r0, [r6], r4, lsl #2
 2dc:	4b3184d9 	blmi	c61648 <__bss_end__+0xc57730>
 2e0:	68684b69 	stmdavs	r8!, {r0, r3, r5, r6, r8, r9, fp, lr}^
 2e4:	02004b2f 	andeq	r4, r0, #48128	; 0xbc00
 2e8:	006e0404 	rsbeq	r0, lr, r4, lsl #8
 2ec:	06050402 	streq	r0, [r5], -r2, lsl #8
 2f0:	04020082 	streq	r0, [r2], #-130	; 0x82
 2f4:	02008202 	andeq	r8, r0, #536870912	; 0x20000000
 2f8:	00820304 	addeq	r0, r2, r4, lsl #6
 2fc:	06010402 	streq	r0, [r1], -r2, lsl #8
 300:	00d66803 	sbcseq	r6, r6, r3, lsl #16
 304:	db010402 	blle	41314 <__bss_end__+0x373fc>
 308:	01040200 	mrseq	r0, R12_usr
 30c:	040200da 	streq	r0, [r2], #-218	; 0xda
 310:	d60f0301 	strle	r0, [pc], -r1, lsl #6
 314:	080f03d7 	stmdaeq	pc, {r0, r1, r2, r4, r6, r7, r8, r9}	; <UNPREDICTABLE>
 318:	00686790 	mlseq	r8, r0, r7, r6
 31c:	4c010402 	cfstrsmi	mvf0, [r1], {2}
 320:	02040200 	andeq	r0, r4, #0, 4
 324:	040200d9 	streq	r0, [r2], #-217	; 0xd9
 328:	02006102 	andeq	r6, r0, #-2147483648	; 0x80000000
 32c:	2e060104 	adfcss	f0, f6, f4
 330:	04040200 	streq	r0, [r4], #-512	; 0x200
 334:	02004c06 	andeq	r4, r0, #1536	; 0x600
 338:	82060504 	andhi	r0, r6, #4, 10	; 0x1000000
 33c:	02040200 	andeq	r0, r4, #0, 4
 340:	04020082 	streq	r0, [r2], #-130	; 0x82
 344:	dc068203 	sfmle	f0, 1, [r6], {3}
 348:	6967f530 	stmdbvs	r7!, {r4, r5, r8, sl, ip, sp, lr, pc}^
 34c:	01040200 	mrseq	r0, R12_usr
 350:	0402004c 	streq	r0, [r2], #-76	; 0x4c
 354:	0200d902 	andeq	sp, r0, #32768	; 0x8000
 358:	00610204 	rsbeq	r0, r1, r4, lsl #4
 35c:	06010402 	streq	r0, [r1], -r2, lsl #8
 360:	0402002e 	streq	r0, [r2], #-46	; 0x2e
 364:	004c0604 	subeq	r0, ip, r4, lsl #12
 368:	06050402 	streq	r0, [r5], -r2, lsl #8
 36c:	04020082 	streq	r0, [r2], #-130	; 0x82
 370:	02008202 	andeq	r8, r0, #536870912	; 0x20000000
 374:	06820304 	streq	r0, [r2], r4, lsl #6
 378:	14f730dc 	ldrbtne	r3, [r7], #220	; 0xdc
 37c:	2f820b03 	svccs	0x00820b03
 380:	69673431 	stmdbvs	r7!, {r0, r4, r5, sl, ip, sp}^
 384:	31308534 	teqcc	r0, r4, lsr r5
 388:	0200682f 	andeq	r6, r0, #3080192	; 0x2f0000
 38c:	03800104 	orreq	r0, r0, #4, 2
 390:	2f900859 	svccs	0x00900859
 394:	00040268 	andeq	r0, r4, r8, ror #4
 398:	01020101 	tsteq	r2, r1, lsl #2
 39c:	00020000 	andeq	r0, r2, r0
 3a0:	000000eb 	andeq	r0, r0, fp, ror #1
 3a4:	0efb0102 	cdpeq	1, 15, cr0, cr11, cr2, {0}
 3a8:	0101000d 	tsteq	r1, sp
 3ac:	00000101 	andeq	r0, r0, r1, lsl #2
 3b0:	00000100 	andeq	r0, r0, r0, lsl #2
 3b4:	62696c01 	rsbvs	r6, r9, #256	; 0x100
 3b8:	752f0063 	strvc	r0, [pc, #-99]!	; 35d <_start-0x7ca3>
 3bc:	6c2f7273 	sfmvs	f7, 4, [pc], #-460	; 1f8 <_start-0x7e08>
 3c0:	6c61636f 	stclvs	3, cr6, [r1], #-444	; 0xfffffe44
 3c4:	6c65432f 	stclvs	3, cr4, [r5], #-188	; 0xffffff44
 3c8:	2f72616c 	svccs	0x0072616c
 3cc:	2d6d7261 	sfmcs	f7, 2, [sp, #-388]!	; 0xfffffe7c
 3d0:	656e6f6e 	strbvs	r6, [lr, #-3950]!	; 0xf6e
 3d4:	6261652d 	rsbvs	r6, r1, #188743680	; 0xb400000
 3d8:	2e342f69 	cdpcs	15, 3, cr2, cr4, cr9, {3}
 3dc:	2d332e38 	ldccs	14, cr2, [r3, #-224]!	; 0xffffff20
 3e0:	37317363 	ldrcc	r7, [r1, -r3, ror #6]!
 3e4:	6c2f6530 	cfstr32vs	mvfx6, [pc], #-192	; 32c <_start-0x7cd4>
 3e8:	672f6269 	strvs	r6, [pc, -r9, ror #4]!
 3ec:	612f6363 	teqvs	pc, r3, ror #6
 3f0:	6e2d6d72 	mcrvs	13, 1, r6, cr13, cr2, {3}
 3f4:	2d656e6f 	stclcs	14, cr6, [r5, #-444]!	; 0xfffffe44
 3f8:	69626165 	stmdbvs	r2!, {r0, r2, r5, r6, r8, sp, lr}^
 3fc:	382e342f 	stmdacc	lr!, {r0, r1, r2, r3, r5, sl, ip, sp}
 400:	692f332e 	stmdbvs	pc!, {r1, r2, r3, r5, r8, r9, ip, sp}	; <UNPREDICTABLE>
 404:	756c636e 	strbvc	r6, [ip, #-878]!	; 0x36e
 408:	2f006564 	svccs	0x00006564
 40c:	72657355 	rsbvc	r7, r5, #1409286145	; 0x54000001
 410:	72622f73 	rsbvc	r2, r2, #460	; 0x1cc
 414:	6a6e6169 	bvs	1b989c0 <__bss_end__+0x1b8eaa8>
 418:	442f6e75 	strtmi	r6, [pc], #-3701	; 420 <_start-0x7be0>
 41c:	746b7365 	strbtvc	r7, [fp], #-869	; 0x365
 420:	732f706f 	teqvc	pc, #111	; 0x6f
 424:	6f6f6863 	svcvs	0x006f6863
 428:	69572f6c 	ldmdbvs	r7, {r2, r3, r5, r6, r8, r9, sl, fp, sp}^
 42c:	7265746e 	rsbvc	r7, r5, #1845493760	; 0x6e000000
 430:	30323931 	eorscc	r3, r2, r1, lsr r9
 434:	3153432f 	cmpcc	r3, pc, lsr #6
 438:	2f453034 	svccs	0x00453034
 43c:	34317363 	ldrtcc	r7, [r1], #-867	; 0x363
 440:	322d6530 	eorcc	r6, sp, #48, 10	; 0xc000000
 444:	6e697730 	mcrvs	7, 3, r7, cr9, cr0, {1}
 448:	62696c2f 	rsbvs	r6, r9, #12032	; 0x2f00
 44c:	00006970 	andeq	r6, r0, r0, ror r9
 450:	6e697270 	mcrvs	2, 3, r7, cr9, cr0, {3}
 454:	632e6b74 	teqvs	lr, #116, 22	; 0x1d000
 458:	00000100 	andeq	r0, r0, r0, lsl #2
 45c:	61647473 	smcvs	18243	; 0x4743
 460:	682e6772 	stmdavs	lr!, {r1, r4, r5, r6, r8, r9, sl, sp, lr}
 464:	00000200 	andeq	r0, r0, r0, lsl #4
 468:	6975623c 	ldmdbvs	r5!, {r2, r3, r4, r5, r9, sp, lr}^
 46c:	692d746c 	pushvs	{r2, r3, r5, r6, sl, ip, sp, lr}
 470:	00003e6e 	andeq	r3, r0, lr, ror #28
 474:	70720000 	rsbsvc	r0, r2, r0
 478:	00682e69 	rsbeq	r2, r8, r9, ror #28
 47c:	76000003 	strvc	r0, [r0], -r3
 480:	72702d61 	rsbsvc	r2, r0, #6208	; 0x1840
 484:	6b746e69 	blvs	1d1be30 <__bss_end__+0x1d11f18>
 488:	0100682e 	tsteq	r0, lr, lsr #16
 48c:	00000000 	andeq	r0, r0, r0
 490:	87c80205 	strbhi	r0, [r8, r5, lsl #4]
 494:	6b170000 	blvs	5c049c <__bss_end__+0x5b6584>
 498:	0289bf4b 	addeq	fp, r9, #300	; 0x12c
 49c:	0101000e 	tsteq	r1, lr
 4a0:	0000008a 	andeq	r0, r0, sl, lsl #1
 4a4:	00720002 	rsbseq	r0, r2, r2
 4a8:	01020000 	mrseq	r0, (UNDEF: 2)
 4ac:	000d0efb 	strdeq	r0, [sp], -fp
 4b0:	01010101 	tsteq	r1, r1, lsl #2
 4b4:	01000000 	mrseq	r0, (UNDEF: 0)
 4b8:	6c010000 	stcvs	0, cr0, [r1], {-0}
 4bc:	00636269 	rsbeq	r6, r3, r9, ror #4
 4c0:	6573552f 	ldrbvs	r5, [r3, #-1327]!	; 0x52f
 4c4:	622f7372 	eorvs	r7, pc, #-939524095	; 0xc8000001
 4c8:	6e616972 	mcrvs	9, 3, r6, cr1, cr2, {3}
 4cc:	2f6e756a 	svccs	0x006e756a
 4d0:	6b736544 	blvs	1cd99e8 <__bss_end__+0x1ccfad0>
 4d4:	2f706f74 	svccs	0x00706f74
 4d8:	6f686373 	svcvs	0x00686373
 4dc:	572f6c6f 	strpl	r6, [pc, -pc, ror #24]!
 4e0:	65746e69 	ldrbvs	r6, [r4, #-3689]!	; 0xe69
 4e4:	32393172 	eorscc	r3, r9, #-2147483620	; 0x8000001c
 4e8:	53432f30 	movtpl	r2, #16176	; 0x3f30
 4ec:	45303431 	ldrmi	r3, [r0, #-1073]!	; 0x431
 4f0:	3173632f 	cmncc	r3, pc, lsr #6
 4f4:	2d653034 	stclcs	0, cr3, [r5, #-208]!	; 0xffffff30
 4f8:	69773032 	ldmdbvs	r7!, {r1, r4, r5, ip, sp}^
 4fc:	696c2f6e 	stmdbvs	ip!, {r1, r2, r3, r5, r6, r8, r9, sl, fp, sp}^
 500:	00697062 	rsbeq	r7, r9, r2, rrx
 504:	74757000 	ldrbtvc	r7, [r5], #-0
 508:	72616863 	rsbvc	r6, r1, #6488064	; 0x630000
 50c:	0100632e 	tsteq	r0, lr, lsr #6
 510:	70720000 	rsbsvc	r0, r2, r0
 514:	00682e69 	rsbeq	r2, r8, r9, ror #28
 518:	00000002 	andeq	r0, r0, r2
 51c:	20020500 	andcs	r0, r2, r0, lsl #10
 520:	14000088 	strne	r0, [r0], #-136	; 0x88
 524:	bc136b4a 	ldclt	11, cr6, [r3], {74}	; 0x4a
 528:	00080213 	andeq	r0, r8, r3, lsl r2
 52c:	00960101 	addseq	r0, r6, r1, lsl #2
 530:	00020000 	andeq	r0, r2, r0
 534:	0000006f 	andeq	r0, r0, pc, rrx
 538:	0efb0102 	cdpeq	1, 15, cr0, cr11, cr2, {0}
 53c:	0101000d 	tsteq	r1, sp
 540:	00000101 	andeq	r0, r0, r1, lsl #2
 544:	00000100 	andeq	r0, r0, r0, lsl #2
 548:	62696c01 	rsbvs	r6, r9, #256	; 0x100
 54c:	552f0063 	strpl	r0, [pc, #-99]!	; 4f1 <_start-0x7b0f>
 550:	73726573 	cmnvc	r2, #482344960	; 0x1cc00000
 554:	6972622f 	ldmdbvs	r2!, {r0, r1, r2, r3, r5, r9, sp, lr}^
 558:	756a6e61 	strbvc	r6, [sl, #-3681]!	; 0xe61
 55c:	65442f6e 	strbvs	r2, [r4, #-3950]	; 0xf6e
 560:	6f746b73 	svcvs	0x00746b73
 564:	63732f70 	cmnvs	r3, #112, 30	; 0x1c0
 568:	6c6f6f68 	stclvs	15, cr6, [pc], #-416	; 3d0 <_start-0x7c30>
 56c:	6e69572f 	cdpvs	7, 6, cr5, cr9, cr15, {1}
 570:	31726574 	cmncc	r2, r4, ror r5
 574:	2f303239 	svccs	0x00303239
 578:	34315343 	ldrtcc	r5, [r1], #-835	; 0x343
 57c:	632f4530 	teqvs	pc, #48, 10	; 0xc000000
 580:	30343173 	eorscc	r3, r4, r3, ror r1
 584:	30322d65 	eorscc	r2, r2, r5, ror #26
 588:	2f6e6977 	svccs	0x006e6977
 58c:	7062696c 	rsbvc	r6, r2, ip, ror #18
 590:	70000069 	andvc	r0, r0, r9, rrx
 594:	2e6b7475 	mcrcs	4, 3, r7, cr11, cr5, {3}
 598:	00010063 	andeq	r0, r1, r3, rrx
 59c:	69707200 	ldmdbvs	r0!, {r9, ip, sp, lr}^
 5a0:	0200682e 	andeq	r6, r0, #3014656	; 0x2e0000
 5a4:	00000000 	andeq	r0, r0, r0
 5a8:	885c0205 	ldmdahi	ip, {r0, r2, r9}^
 5ac:	4c150000 	ldcmi	0, cr0, [r5], {-0}
 5b0:	0402002d 	streq	r0, [r2], #-45	; 0x2d
 5b4:	02002f02 	andeq	r2, r0, #2, 30
 5b8:	00490204 	subeq	r0, r9, r4, lsl #4
 5bc:	06010402 	streq	r0, [r1], -r2, lsl #8
 5c0:	026b062e 	rsbeq	r0, fp, #48234496	; 0x2e00000
 5c4:	01010006 	tsteq	r1, r6
 5c8:	000001de 	ldrdeq	r0, [r0], -lr
 5cc:	00df0002 	sbcseq	r0, pc, r2
 5d0:	01020000 	mrseq	r0, (UNDEF: 2)
 5d4:	000d0efb 	strdeq	r0, [sp], -fp
 5d8:	01010101 	tsteq	r1, r1, lsl #2
 5dc:	01000000 	mrseq	r0, (UNDEF: 0)
 5e0:	6c010000 	stcvs	0, cr0, [r1], {-0}
 5e4:	00636269 	rsbeq	r6, r3, r9, ror #4
 5e8:	7273752f 	rsbsvc	r7, r3, #197132288	; 0xbc00000
 5ec:	636f6c2f 	cmnvs	pc, #12032	; 0x2f00
 5f0:	432f6c61 	teqmi	pc, #24832	; 0x6100
 5f4:	616c6c65 	cmnvs	ip, r5, ror #24
 5f8:	72612f72 	rsbvc	r2, r1, #456	; 0x1c8
 5fc:	6f6e2d6d 	svcvs	0x006e2d6d
 600:	652d656e 	strvs	r6, [sp, #-1390]!	; 0x56e
 604:	2f696261 	svccs	0x00696261
 608:	2e382e34 	mrccs	14, 1, r2, cr8, cr4, {1}
 60c:	73632d33 	cmnvc	r3, #3264	; 0xcc0
 610:	65303731 	ldrvs	r3, [r0, #-1841]!	; 0x731
 614:	62696c2f 	rsbvs	r6, r9, #12032	; 0x2f00
 618:	6363672f 	cmnvs	r3, #12320768	; 0xbc0000
 61c:	6d72612f 	ldfvse	f6, [r2, #-188]!	; 0xffffff44
 620:	6e6f6e2d 	cdpvs	14, 6, cr6, cr15, cr13, {1}
 624:	61652d65 	cmnvs	r5, r5, ror #26
 628:	342f6962 	strtcc	r6, [pc], #-2402	; 630 <_start-0x79d0>
 62c:	332e382e 	teqcc	lr, #3014656	; 0x2e0000
 630:	636e692f 	cmnvs	lr, #770048	; 0xbc000
 634:	6564756c 	strbvs	r7, [r4, #-1388]!	; 0x56c
 638:	73552f00 	cmpvc	r5, #0, 30
 63c:	2f737265 	svccs	0x00737265
 640:	61697262 	cmnvs	r9, r2, ror #4
 644:	6e756a6e 	vsubvs.f32	s13, s10, s29
 648:	7365442f 	cmnvc	r5, #788529152	; 0x2f000000
 64c:	706f746b 	rsbvc	r7, pc, fp, ror #8
 650:	6863732f 	stmdavs	r3!, {r0, r1, r2, r3, r5, r8, r9, ip, sp, lr}^
 654:	2f6c6f6f 	svccs	0x006c6f6f
 658:	746e6957 	strbtvc	r6, [lr], #-2391	; 0x957
 65c:	39317265 	ldmdbcc	r1!, {r0, r2, r5, r6, r9, ip, sp, lr}
 660:	432f3032 	teqmi	pc, #50	; 0x32
 664:	30343153 	eorscc	r3, r4, r3, asr r1
 668:	73632f45 	cmnvc	r3, #276	; 0x114
 66c:	65303431 	ldrvs	r3, [r0, #-1073]!	; 0x431
 670:	7730322d 	ldrvc	r3, [r0, -sp, lsr #4]!
 674:	6c2f6e69 	stcvs	14, cr6, [pc], #-420	; 4d8 <_start-0x7b28>
 678:	69706269 	ldmdbvs	r0!, {r0, r3, r5, r6, r9, sp, lr}^
 67c:	61760000 	cmnvs	r6, r0
 680:	6972702d 	ldmdbvs	r2!, {r0, r2, r3, r5, ip, sp, lr}^
 684:	2e6b746e 	cdpcs	4, 6, cr7, cr11, cr14, {3}
 688:	00010063 	andeq	r0, r1, r3, rrx
 68c:	64747300 	ldrbtvs	r7, [r4], #-768	; 0x300
 690:	2e677261 	cdpcs	2, 6, cr7, cr7, cr1, {3}
 694:	00020068 	andeq	r0, r2, r8, rrx
 698:	69707200 	ldmdbvs	r0!, {r9, ip, sp, lr}^
 69c:	0300682e 	movweq	r6, #2094	; 0x82e
 6a0:	623c0000 	eorsvs	r0, ip, #0
 6a4:	746c6975 	strbtvc	r6, [ip], #-2421	; 0x975
 6a8:	3e6e692d 	cdpcc	9, 6, cr6, cr14, cr13, {1}
 6ac:	00000000 	andeq	r0, r0, r0
 6b0:	02050000 	andeq	r0, r5, #0
 6b4:	00008890 	muleq	r0, r0, r8
 6b8:	01012603 	tsteq	r1, r3, lsl #12
 6bc:	2d3113a5 	ldccs	3, cr1, [r1, #-660]!	; 0xfffffd6c
 6c0:	02040200 	andeq	r0, r4, #0, 4
 6c4:	0402002f 	streq	r0, [r2], #-47	; 0x2f
 6c8:	02002d02 	andeq	r2, r0, #2, 26	; 0x80
 6cc:	002f0204 	eoreq	r0, pc, r4, lsl #4
 6d0:	2d010402 	cfstrscs	mvf0, [r1, #-8]
 6d4:	14304c4c 	ldrtne	r4, [r0], #-3148	; 0xc4c
 6d8:	004f2f4b 	subeq	r2, pc, fp, asr #30
 6dc:	67020402 	strvs	r0, [r2, -r2, lsl #8]
 6e0:	01040200 	mrseq	r0, R12_usr
 6e4:	304d4c65 	subcc	r4, sp, r5, ror #24
 6e8:	30312fa0 	eorscc	r2, r1, r0, lsr #31
 6ec:	84162602 	ldrhi	r2, [r6], #-1538	; 0x602
 6f0:	02002c2d 	andeq	r2, r0, #11520	; 0x2d00
 6f4:	00300104 	eorseq	r0, r0, r4, lsl #2
 6f8:	33010402 	movwcc	r0, #5122	; 0x1402
 6fc:	02006606 	andeq	r6, r0, #6291456	; 0x600000
 700:	002e0104 	eoreq	r0, lr, r4, lsl #2
 704:	06010402 	streq	r0, [r1], -r2, lsl #8
 708:	2f672108 	svccs	0x00672108
 70c:	03827303 	orreq	r7, r2, #201326592	; 0xc000000
 710:	02002e13 	andeq	r2, r0, #304	; 0x130
 714:	2e060104 	adfcss	f0, f6, f4
 718:	01040200 	mrseq	r0, R12_usr
 71c:	4b6a9f06 	blmi	1aa833c <__bss_end__+0x1a9e424>
 720:	032e6703 	teqeq	lr, #786432	; 0xc0000
 724:	02002e21 	andeq	r2, r0, #528	; 0x210
 728:	2e060104 	adfcss	f0, f6, f4
 72c:	01040200 	mrseq	r0, R12_usr
 730:	02009f06 	andeq	r9, r0, #6, 30
 734:	d96a0104 	stmdble	sl!, {r2, r8}^
 738:	7fa603f3 	svcvc	0x00a603f3
 73c:	002f2008 	eoreq	r2, pc, r8
 740:	06010402 	streq	r0, [r1], -r2, lsl #8
 744:	4bd7064a 	blmi	ff5c2074 <__bss_end__+0xff5b815c>
 748:	00da032f 	sbcseq	r0, sl, pc, lsr #6
 74c:	484c83f2 	stmdami	ip, {r1, r4, r5, r6, r7, r8, r9, pc}^
 750:	032e0e03 	teqeq	lr, #3, 28	; 0x30
 754:	2f2f2e75 	svccs	0x002f2e75
 758:	2d2f4b84 	vstmdbcs	pc!, {d4-d5}
 75c:	2f30314d 	svccs	0x0030314d
 760:	04020083 	streq	r0, [r2], #-131	; 0x83
 764:	00a22c01 	adceq	r2, r2, r1, lsl #24
 768:	06010402 	streq	r0, [r1], -r2, lsl #8
 76c:	02d8064a 	sbcseq	r0, r8, #77594624	; 0x4a00000
 770:	0e031636 	mcreq	6, 0, r1, cr3, cr6, {1}
 774:	302108d6 	ldrdcc	r0, [r1], -r6	; <UNPREDICTABLE>
 778:	30f331f3 	ldrshtcc	r3, [r3], #19
 77c:	304b30f3 	strdcc	r3, [fp], #-3
 780:	230830f3 	movwcs	r3, #33011	; 0x80f3
 784:	02002f31 	andeq	r2, r0, #49, 30	; 0xc4
 788:	00650104 	rsbeq	r0, r5, r4, lsl #2
 78c:	06020402 	streq	r0, [r2], -r2, lsl #8
 790:	0402004a 	streq	r0, [r2], #-74	; 0x4a
 794:	42030601 	andmi	r0, r3, #1048576	; 0x100000
 798:	04020066 	streq	r0, [r2], #-102	; 0x66
 79c:	06660602 	strbteq	r0, [r6], -r2, lsl #12
 7a0:	4a00c203 	bmi	30fb4 <__bss_end__+0x2709c>
 7a4:	00100268 	andseq	r0, r0, r8, ror #4
 7a8:	00930101 	addseq	r0, r3, r1, lsl #2
 7ac:	00020000 	andeq	r0, r2, r0
 7b0:	0000007d 	andeq	r0, r0, sp, ror r0
 7b4:	0efb0102 	cdpeq	1, 15, cr0, cr11, cr2, {0}
 7b8:	0101000d 	tsteq	r1, sp
 7bc:	00000101 	andeq	r0, r0, r1, lsl #2
 7c0:	00000100 	andeq	r0, r0, r0, lsl #2
 7c4:	31736301 	cmncc	r3, r1, lsl #6
 7c8:	2d653034 	stclcs	0, cr3, [r5, #-208]!	; 0xffffff30
 7cc:	00637273 	rsbeq	r7, r3, r3, ror r2
 7d0:	6573552f 	ldrbvs	r5, [r3, #-1327]!	; 0x52f
 7d4:	622f7372 	eorvs	r7, pc, #-939524095	; 0xc8000001
 7d8:	6e616972 	mcrvs	9, 3, r6, cr1, cr2, {3}
 7dc:	2f6e756a 	svccs	0x006e756a
 7e0:	6b736544 	blvs	1cd9cf8 <__bss_end__+0x1ccfde0>
 7e4:	2f706f74 	svccs	0x00706f74
 7e8:	6f686373 	svcvs	0x00686373
 7ec:	572f6c6f 	strpl	r6, [pc, -pc, ror #24]!
 7f0:	65746e69 	ldrbvs	r6, [r4, #-3689]!	; 0xe69
 7f4:	32393172 	eorscc	r3, r9, #-2147483620	; 0x8000001c
 7f8:	53432f30 	movtpl	r2, #16176	; 0x3f30
 7fc:	45303431 	ldrmi	r3, [r0, #-1073]!	; 0x431
 800:	3173632f 	cmncc	r3, pc, lsr #6
 804:	2d653034 	stclcs	0, cr3, [r5, #-208]!	; 0xffffff30
 808:	69773032 	ldmdbvs	r7!, {r1, r4, r5, ip, sp}^
 80c:	696c2f6e 	stmdbvs	ip!, {r1, r2, r3, r5, r6, r8, r9, sl, fp, sp}^
 810:	00697062 	rsbeq	r7, r9, r2, rrx
 814:	656c6300 	strbvs	r6, [ip, #-768]!	; 0x300
 818:	722d6e61 	eorvc	r6, sp, #1552	; 0x610
 81c:	6f6f6265 	svcvs	0x006f6265
 820:	00632e74 	rsbeq	r2, r3, r4, ror lr
 824:	72000001 	andvc	r0, r0, #1
 828:	682e6970 	stmdavs	lr!, {r4, r5, r6, r8, fp, sp, lr}
 82c:	00000200 	andeq	r0, r0, r0, lsl #4
 830:	02050000 	andeq	r0, r5, #0
 834:	00008d88 	andeq	r8, r0, r8, lsl #27
 838:	4b832f15 	blmi	fe0cc494 <__bss_end__+0xfe0c257c>
 83c:	01000602 	tsteq	r0, r2, lsl #12
 840:	00009a01 	andeq	r9, r0, r1, lsl #20
 844:	77000200 	strvc	r0, [r0, -r0, lsl #4]
 848:	02000000 	andeq	r0, r0, #0
 84c:	0d0efb01 	vstreq	d15, [lr, #-4]
 850:	01010100 	mrseq	r0, (UNDEF: 17)
 854:	00000001 	andeq	r0, r0, r1
 858:	01000001 	tsteq	r0, r1
 85c:	34317363 	ldrtcc	r7, [r1], #-867	; 0x363
 860:	732d6530 	teqvc	sp, #48, 10	; 0xc000000
 864:	2f006372 	svccs	0x00006372
 868:	72657355 	rsbvc	r7, r5, #1409286145	; 0x54000001
 86c:	72622f73 	rsbvc	r2, r2, #460	; 0x1cc
 870:	6a6e6169 	bvs	1b98e1c <__bss_end__+0x1b8ef04>
 874:	442f6e75 	strtmi	r6, [pc], #-3701	; 87c <_start-0x7784>
 878:	746b7365 	strbtvc	r7, [fp], #-869	; 0x365
 87c:	732f706f 	teqvc	pc, #111	; 0x6f
 880:	6f6f6863 	svcvs	0x006f6863
 884:	69572f6c 	ldmdbvs	r7, {r2, r3, r5, r6, r8, r9, sl, fp, sp}^
 888:	7265746e 	rsbvc	r7, r5, #1845493760	; 0x6e000000
 88c:	30323931 	eorscc	r3, r2, r1, lsr r9
 890:	3153432f 	cmpcc	r3, pc, lsr #6
 894:	2f453034 	svccs	0x00453034
 898:	34317363 	ldrtcc	r7, [r1], #-867	; 0x363
 89c:	322d6530 	eorcc	r6, sp, #48, 10	; 0xc000000
 8a0:	6e697730 	mcrvs	7, 3, r7, cr9, cr0, {1}
 8a4:	62696c2f 	rsbvs	r6, r9, #12032	; 0x2f00
 8a8:	00006970 	andeq	r6, r0, r0, ror r9
 8ac:	61747363 	cmnvs	r4, r3, ror #6
 8b0:	632e7472 	teqvs	lr, #1912602624	; 0x72000000
 8b4:	00000100 	andeq	r0, r0, r0, lsl #2
 8b8:	2e697072 	mcrcs	0, 3, r7, cr9, cr2, {3}
 8bc:	00020068 	andeq	r0, r2, r8, rrx
 8c0:	05000000 	streq	r0, [r0, #-0]
 8c4:	008db002 	addeq	fp, sp, r2
 8c8:	010c0300 	mrseq	r0, LR_mon
 8cc:	2d2f3132 	stfcss	f3, [pc, #-200]!	; 80c <_start-0x77f4>
 8d0:	0402002f 	streq	r0, [r2], #-47	; 0x2f
 8d4:	0f034901 	svceq	0x00034901
 8d8:	06022f4a 	streq	r2, [r2], -sl, asr #30
 8dc:	99010100 	stmdbls	r1, {r8}
 8e0:	02000000 	andeq	r0, r0, #0
 8e4:	00007700 	andeq	r7, r0, r0, lsl #14
 8e8:	fb010200 	blx	410f2 <__bss_end__+0x371da>
 8ec:	01000d0e 	tsteq	r0, lr, lsl #26
 8f0:	00010101 	andeq	r0, r1, r1, lsl #2
 8f4:	00010000 	andeq	r0, r1, r0
 8f8:	73630100 	cmnvc	r3, #0, 2
 8fc:	65303431 	ldrvs	r3, [r0, #-1073]!	; 0x431
 900:	6372732d 	cmnvs	r2, #-1275068416	; 0xb4000000
 904:	73552f00 	cmpvc	r5, #0, 30
 908:	2f737265 	svccs	0x00737265
 90c:	61697262 	cmnvs	r9, r2, ror #4
 910:	6e756a6e 	vsubvs.f32	s13, s10, s29
 914:	7365442f 	cmnvc	r5, #788529152	; 0x2f000000
 918:	706f746b 	rsbvc	r7, pc, fp, ror #8
 91c:	6863732f 	stmdavs	r3!, {r0, r1, r2, r3, r5, r8, r9, ip, sp, lr}^
 920:	2f6c6f6f 	svccs	0x006c6f6f
 924:	746e6957 	strbtvc	r6, [lr], #-2391	; 0x957
 928:	39317265 	ldmdbcc	r1!, {r0, r2, r5, r6, r9, ip, sp, lr}
 92c:	432f3032 	teqmi	pc, #50	; 0x32
 930:	30343153 	eorscc	r3, r4, r3, asr r1
 934:	73632f45 	cmnvc	r3, #276	; 0x114
 938:	65303431 	ldrvs	r3, [r0, #-1073]!	; 0x431
 93c:	7730322d 	ldrvc	r3, [r0, -sp, lsr #4]!
 940:	6c2f6e69 	stcvs	14, cr6, [pc], #-420	; 7a4 <_start-0x785c>
 944:	69706269 	ldmdbvs	r0!, {r0, r3, r5, r6, r9, sp, lr}^
 948:	65720000 	ldrbvs	r0, [r2, #-0]!
 94c:	746f6f62 	strbtvc	r6, [pc], #-3938	; 954 <_start-0x76ac>
 950:	0100632e 	tsteq	r0, lr, lsr #6
 954:	70720000 	rsbsvc	r0, r2, r0
 958:	00682e69 	rsbeq	r2, r8, r9, ror #28
 95c:	00000002 	andeq	r0, r0, r2
 960:	e4020500 	str	r0, [r2], #-1280	; 0x500
 964:	0300008d 	movweq	r0, #141	; 0x8d
 968:	3114010d 	tstcc	r4, sp, lsl #2
 96c:	2f15852f 	svccs	0x0015852f
 970:	672f4d4b 	strvs	r4, [pc, -fp, asr #26]!
 974:	02675235 	rsbeq	r5, r7, #1342177283	; 0x50000003
 978:	01010010 	tsteq	r1, r0, lsl r0
 97c:	000000a3 	andeq	r0, r0, r3, lsr #1
 980:	00760002 	rsbseq	r0, r6, r2
 984:	01020000 	mrseq	r0, (UNDEF: 2)
 988:	000d0efb 	strdeq	r0, [sp], -fp
 98c:	01010101 	tsteq	r1, r1, lsl #2
 990:	01000000 	mrseq	r0, (UNDEF: 0)
 994:	63010000 	movwvs	r0, #4096	; 0x1000
 998:	30343173 	eorscc	r3, r4, r3, ror r1
 99c:	72732d65 	rsbsvc	r2, r3, #6464	; 0x1940
 9a0:	552f0063 	strpl	r0, [pc, #-99]!	; 945 <_start-0x76bb>
 9a4:	73726573 	cmnvc	r2, #482344960	; 0x1cc00000
 9a8:	6972622f 	ldmdbvs	r2!, {r0, r1, r2, r3, r5, r9, sp, lr}^
 9ac:	756a6e61 	strbvc	r6, [sl, #-3681]!	; 0xe61
 9b0:	65442f6e 	strbvs	r2, [r4, #-3950]	; 0xf6e
 9b4:	6f746b73 	svcvs	0x00746b73
 9b8:	63732f70 	cmnvs	r3, #112, 30	; 0x1c0
 9bc:	6c6f6f68 	stclvs	15, cr6, [pc], #-416	; 824 <_start-0x77dc>
 9c0:	6e69572f 	cdpvs	7, 6, cr5, cr9, cr15, {1}
 9c4:	31726574 	cmncc	r2, r4, ror r5
 9c8:	2f303239 	svccs	0x00303239
 9cc:	34315343 	ldrtcc	r5, [r1], #-835	; 0x343
 9d0:	632f4530 	teqvs	pc, #48, 10	; 0xc000000
 9d4:	30343173 	eorscc	r3, r4, r3, ror r1
 9d8:	30322d65 	eorscc	r2, r2, r5, ror #26
 9dc:	2f6e6977 	svccs	0x006e6977
 9e0:	7062696c 	rsbvc	r6, r2, ip, ror #18
 9e4:	74000069 	strvc	r0, [r0], #-105	; 0x69
 9e8:	72656d69 	rsbvc	r6, r5, #6720	; 0x1a40
 9ec:	0100632e 	tsteq	r0, lr, lsr #6
 9f0:	70720000 	rsbsvc	r0, r2, r0
 9f4:	00682e69 	rsbeq	r2, r8, r9, ror #28
 9f8:	00000002 	andeq	r0, r0, r2
 9fc:	58020500 	stmdapl	r2, {r8, sl}
 a00:	1600008e 	strne	r0, [r0], -lr, lsl #1
 a04:	002d2f14 	eoreq	r2, sp, r4, lsl pc
 a08:	06010402 	streq	r0, [r1], -r2, lsl #8
 a0c:	316d062e 	cmncc	sp, lr, lsr #12
 a10:	324d4b2f 	subcc	r4, sp, #48128	; 0xbc00
 a14:	4c4b3031 	mcrrmi	0, 3, r3, fp, cr1
 a18:	2f2f6a2f 	svccs	0x002f6a2f
 a1c:	08022f84 	stmdaeq	r2, {r2, r7, r8, r9, sl, fp, sp}
 a20:	7f010100 	svcvc	0x00010100
 a24:	02000001 	andeq	r0, r0, #1
 a28:	0000ca00 	andeq	ip, r0, r0, lsl #20
 a2c:	fb010200 	blx	41236 <__bss_end__+0x3731e>
 a30:	01000d0e 	tsteq	r0, lr, lsl #26
 a34:	00010101 	andeq	r0, r1, r1, lsl #2
 a38:	00010000 	andeq	r0, r1, r0
 a3c:	796d0100 	stmdbvc	sp!, {r8}^
 a40:	6372732d 	cmnvs	r2, #-1275068416	; 0xb4000000
 a44:	73552f00 	cmpvc	r5, #0, 30
 a48:	2f737265 	svccs	0x00737265
 a4c:	61697262 	cmnvs	r9, r2, ror #4
 a50:	6e756a6e 	vsubvs.f32	s13, s10, s29
 a54:	7365442f 	cmnvc	r5, #788529152	; 0x2f000000
 a58:	706f746b 	rsbvc	r7, pc, fp, ror #8
 a5c:	6863732f 	stmdavs	r3!, {r0, r1, r2, r3, r5, r8, r9, ip, sp, lr}^
 a60:	2f6c6f6f 	svccs	0x006c6f6f
 a64:	746e6957 	strbtvc	r6, [lr], #-2391	; 0x957
 a68:	39317265 	ldmdbcc	r1!, {r0, r2, r5, r6, r9, ip, sp, lr}
 a6c:	432f3032 	teqmi	pc, #50	; 0x32
 a70:	30343153 	eorscc	r3, r4, r3, asr r1
 a74:	73632f45 	cmnvc	r3, #276	; 0x114
 a78:	65303431 	ldrvs	r3, [r0, #-1073]!	; 0x431
 a7c:	7730322d 	ldrvc	r3, [r0, -sp, lsr #4]!
 a80:	6c2f6e69 	stcvs	14, cr6, [pc], #-420	; 8e4 <_start-0x771c>
 a84:	69706269 	ldmdbvs	r0!, {r0, r3, r5, r6, r9, sp, lr}^
 a88:	3173632f 	cmncc	r3, pc, lsr #6
 a8c:	2d653034 	stclcs	0, cr3, [r5, #-208]!	; 0xffffff30
 a90:	00637273 	rsbeq	r7, r3, r3, ror r2
 a94:	6573552f 	ldrbvs	r5, [r3, #-1327]!	; 0x52f
 a98:	622f7372 	eorvs	r7, pc, #-939524095	; 0xc8000001
 a9c:	6e616972 	mcrvs	9, 3, r6, cr1, cr2, {3}
 aa0:	2f6e756a 	svccs	0x006e756a
 aa4:	6b736544 	blvs	1cd9fbc <__bss_end__+0x1cd00a4>
 aa8:	2f706f74 	svccs	0x00706f74
 aac:	6f686373 	svcvs	0x00686373
 ab0:	572f6c6f 	strpl	r6, [pc, -pc, ror #24]!
 ab4:	65746e69 	ldrbvs	r6, [r4, #-3689]!	; 0xe69
 ab8:	32393172 	eorscc	r3, r9, #-2147483620	; 0x8000001c
 abc:	53432f30 	movtpl	r2, #16176	; 0x3f30
 ac0:	45303431 	ldrmi	r3, [r0, #-1073]!	; 0x431
 ac4:	3173632f 	cmncc	r3, pc, lsr #6
 ac8:	2d653034 	stclcs	0, cr3, [r5, #-208]!	; 0xffffff30
 acc:	69773032 	ldmdbvs	r7!, {r1, r4, r5, ip, sp}^
 ad0:	696c2f6e 	stmdbvs	ip!, {r1, r2, r3, r5, r6, r8, r9, sl, fp, sp}^
 ad4:	00697062 	rsbeq	r7, r9, r2, rrx
 ad8:	69706700 	ldmdbvs	r0!, {r8, r9, sl, sp, lr}^
 adc:	00632e6f 	rsbeq	r2, r3, pc, ror #28
 ae0:	67000001 	strvs	r0, [r0, -r1]
 ae4:	2e6f6970 	mcrcs	9, 3, r6, cr15, cr0, {3}
 ae8:	00020068 	andeq	r0, r2, r8, rrx
 aec:	69707200 	ldmdbvs	r0!, {r9, ip, sp, lr}^
 af0:	0300682e 	movweq	r6, #2094	; 0x82e
 af4:	00000000 	andeq	r0, r0, r0
 af8:	8ee00205 	cdphi	2, 14, cr0, cr0, cr5, {0}
 afc:	3e030000 	cdpcc	0, 0, cr0, cr3, cr0, {0}
 b00:	69504e01 	ldmdbvs	r0, {r0, r9, sl, fp, lr}^
 b04:	67672108 	strbvs	r2, [r7, -r8, lsl #2]!
 b08:	67676767 	strbvs	r6, [r7, -r7, ror #14]!
 b0c:	22084b32 	andcs	r4, r8, #51200	; 0xc800
 b10:	135131dc 	cmpne	r1, #220, 2	; 0x37
 b14:	be30504e 	cdplt	0, 3, cr5, cr0, cr14, {2}
 b18:	4d135031 	ldcmi	0, cr5, [r3, #-196]	; 0xffffff3c
 b1c:	4cc0304f 	stclmi	0, cr3, [r0], {79}	; 0x4f
 b20:	21086950 	tstcs	r8, r0, asr r9
 b24:	67676767 	strbvs	r6, [r7, -r7, ror #14]!
 b28:	4b326767 	blmi	c9a8cc <__bss_end__+0xc909b4>
 b2c:	4ca32108 	stfmis	f2, [r3], #32
 b30:	69842f50 	stmibvs	r4, {r4, r6, r8, r9, sl, fp, sp}
 b34:	03827503 	orreq	r7, r2, #12582912	; 0xc00000
 b38:	304d2e0c 	subcc	r2, sp, ip, lsl #28
 b3c:	4d4c4b4e 	vstrmi	d20, [ip, #-312]	; 0xfffffec8
 b40:	08696b6a 	stmdaeq	r9!, {r1, r3, r5, r6, r8, r9, fp, sp, lr}^
 b44:	67676721 	strbvs	r6, [r7, -r1, lsr #14]!
 b48:	32676767 	rsbcc	r6, r7, #27000832	; 0x19c0000
 b4c:	c022084b 	eorgt	r0, r2, fp, asr #16
 b50:	4e135130 	mrcmi	1, 0, r5, cr3, cr0, {1}
 b54:	18033050 	stmdane	r3, {r4, r6, ip, sp}
 b58:	4c9f31ba 	ldfmis	f3, [pc], {186}	; 0xba
 b5c:	4e4d522f 	cdpmi	2, 4, cr5, cr13, cr15, {1}
 b60:	4b674b2f 	blmi	19d3824 <__bss_end__+0x19c990c>
 b64:	4c676768 	stclmi	7, cr6, [r7], #-416	; 0xfffffe60
 b68:	4b2f672f 	blmi	bda82c <__bss_end__+0xbd0914>
 b6c:	2f4e4c6e 	svccs	0x004e4c6e
 b70:	684b674b 	stmdavs	fp, {r0, r1, r3, r6, r8, r9, sl, sp, lr}^
 b74:	2f4c6767 	svccs	0x004c6767
 b78:	6d4b2f67 	stclvs	15, cr2, [fp, #-412]	; 0xfffffe64
 b7c:	4b2f4e4b 	blmi	bd44b0 <__bss_end__+0xbca598>
 b80:	04020067 	streq	r0, [r2], #-103	; 0x67
 b84:	06660601 	strbteq	r0, [r6], -r1, lsl #12
 b88:	002f9f68 	eoreq	r9, pc, r8, ror #30
 b8c:	06010402 	streq	r0, [r1], -r2, lsl #8
 b90:	2f68064a 	svccs	0x0068064a
 b94:	034a7303 	movteq	r7, #41731	; 0xa303
 b98:	4c4d2e0e 	mcrrmi	14, 0, r2, sp, cr14
 b9c:	bc4b2f4e 	mcrrlt	15, 4, r2, fp, cr14
 ba0:	000602bc 			; <UNDEFINED> instruction: 0x000602bc
 ba4:	01010101 	tsteq	r1, r1, lsl #2
 ba8:	00020000 	andeq	r0, r2, r0
 bac:	000000ca 	andeq	r0, r0, sl, asr #1
 bb0:	0efb0102 	cdpeq	1, 15, cr0, cr11, cr2, {0}
 bb4:	0101000d 	tsteq	r1, sp
 bb8:	00000101 	andeq	r0, r0, r1, lsl #2
 bbc:	00000100 	andeq	r0, r0, r0, lsl #2
 bc0:	2d796d01 	ldclcs	13, cr6, [r9, #-4]!
 bc4:	00637273 	rsbeq	r7, r3, r3, ror r2
 bc8:	6573552f 	ldrbvs	r5, [r3, #-1327]!	; 0x52f
 bcc:	622f7372 	eorvs	r7, pc, #-939524095	; 0xc8000001
 bd0:	6e616972 	mcrvs	9, 3, r6, cr1, cr2, {3}
 bd4:	2f6e756a 	svccs	0x006e756a
 bd8:	6b736544 	blvs	1cda0f0 <__bss_end__+0x1cd01d8>
 bdc:	2f706f74 	svccs	0x00706f74
 be0:	6f686373 	svcvs	0x00686373
 be4:	572f6c6f 	strpl	r6, [pc, -pc, ror #24]!
 be8:	65746e69 	ldrbvs	r6, [r4, #-3689]!	; 0xe69
 bec:	32393172 	eorscc	r3, r9, #-2147483620	; 0x8000001c
 bf0:	53432f30 	movtpl	r2, #16176	; 0x3f30
 bf4:	45303431 	ldrmi	r3, [r0, #-1073]!	; 0x431
 bf8:	3173632f 	cmncc	r3, pc, lsr #6
 bfc:	2d653034 	stclcs	0, cr3, [r5, #-208]!	; 0xffffff30
 c00:	69773032 	ldmdbvs	r7!, {r1, r4, r5, ip, sp}^
 c04:	696c2f6e 	stmdbvs	ip!, {r1, r2, r3, r5, r6, r8, r9, sl, fp, sp}^
 c08:	2f697062 	svccs	0x00697062
 c0c:	34317363 	ldrtcc	r7, [r1], #-867	; 0x363
 c10:	732d6530 	teqvc	sp, #48, 10	; 0xc000000
 c14:	2f006372 	svccs	0x00006372
 c18:	72657355 	rsbvc	r7, r5, #1409286145	; 0x54000001
 c1c:	72622f73 	rsbvc	r2, r2, #460	; 0x1cc
 c20:	6a6e6169 	bvs	1b991cc <__bss_end__+0x1b8f2b4>
 c24:	442f6e75 	strtmi	r6, [pc], #-3701	; c2c <_start-0x73d4>
 c28:	746b7365 	strbtvc	r7, [fp], #-869	; 0x365
 c2c:	732f706f 	teqvc	pc, #111	; 0x6f
 c30:	6f6f6863 	svcvs	0x006f6863
 c34:	69572f6c 	ldmdbvs	r7, {r2, r3, r5, r6, r8, r9, sl, fp, sp}^
 c38:	7265746e 	rsbvc	r7, r5, #1845493760	; 0x6e000000
 c3c:	30323931 	eorscc	r3, r2, r1, lsr r9
 c40:	3153432f 	cmpcc	r3, pc, lsr #6
 c44:	2f453034 	svccs	0x00453034
 c48:	34317363 	ldrtcc	r7, [r1], #-867	; 0x363
 c4c:	322d6530 	eorcc	r6, sp, #48, 10	; 0xc000000
 c50:	6e697730 	mcrvs	7, 3, r7, cr9, cr0, {1}
 c54:	62696c2f 	rsbvs	r6, r9, #12032	; 0x2f00
 c58:	00006970 	andeq	r6, r0, r0, ror r9
 c5c:	74726175 	ldrbtvc	r6, [r2], #-373	; 0x175
 c60:	0100632e 	tsteq	r0, lr, lsr #6
 c64:	70670000 	rsbvc	r0, r7, r0
 c68:	682e6f69 	stmdavs	lr!, {r0, r3, r5, r6, r8, r9, sl, fp, sp, lr}
 c6c:	00000200 	andeq	r0, r0, r0, lsl #4
 c70:	2e697072 	mcrcs	0, 3, r7, cr9, cr2, {3}
 c74:	00030068 	andeq	r0, r3, r8, rrx
 c78:	05000000 	streq	r0, [r0, #-0]
 c7c:	00948002 	addseq	r8, r4, r2
 c80:	01360300 	teqeq	r6, r0, lsl #6
 c84:	6d673330 	stclvs	3, cr3, [r7, #-192]!	; 0xffffff40
 c88:	6730d830 			; <UNDEFINED> instruction: 0x6730d830
 c8c:	67676767 	strbvs	r6, [r7, -r7, ror #14]!
 c90:	672f8668 	strvs	r8, [pc, -r8, ror #12]!
 c94:	6767306a 	strbvs	r3, [r7, -sl, rrx]!
 c98:	6a672f69 	bvs	19cca44 <__bss_end__+0x19c2b2c>
 c9c:	2fc1674c 	svccs	0x00c1674c
 ca0:	682f302f 	stmdavs	pc!, {r0, r1, r2, r3, r5, ip, sp}	; <UNPREDICTABLE>
 ca4:	02023049 	andeq	r3, r2, #73	; 0x49
 ca8:	Address 0x0000000000000ca8 is out of bounds.


Disassembly of section .debug_str:

00000000 <.debug_str>:
   0:	6d746f6e 	ldclvs	15, cr6, [r4, #-440]!	; 0xfffffe48
   4:	006e6961 	rsbeq	r6, lr, r1, ror #18
   8:	74726175 	ldrbtvc	r6, [r2], #-373	; 0x175
   c:	696e695f 	stmdbvs	lr!, {r0, r1, r2, r3, r4, r6, r8, fp, sp, lr}^
  10:	6e750074 	mrcvs	0, 3, r0, cr5, cr4, {3}
  14:	6e676973 	mcrvs	9, 3, r6, cr7, cr3, {3}
  18:	63206465 	teqvs	r0, #1694498816	; 0x65000000
  1c:	00726168 	rsbseq	r6, r2, r8, ror #2
  20:	616c6564 	cmnvs	ip, r4, ror #10
  24:	736d5f79 	cmnvc	sp, #484	; 0x1e4
  28:	656c6300 	strbvs	r6, [ip, #-768]!	; 0x300
  2c:	725f6e61 	subsvc	r6, pc, #1552	; 0x610
  30:	6f6f6265 	svcvs	0x006f6265
  34:	6f630074 	svcvs	0x00630074
  38:	6769666e 	strbvs	r6, [r9, -lr, ror #12]!
  3c:	6c61765f 	stclvs	6, cr7, [r1], #-380	; 0xfffffe84
  40:	6f687300 	svcvs	0x00687300
  44:	75207472 	strvc	r7, [r0, #-1138]!	; 0x472
  48:	6769736e 	strbvs	r7, [r9, -lr, ror #6]!
  4c:	2064656e 	rsbcs	r6, r4, lr, ror #10
  50:	00746e69 	rsbseq	r6, r4, r9, ror #28
  54:	5f633269 	svcpl	0x00633269
  58:	74696e69 	strbtvc	r6, [r9], #-3689	; 0xe69
  5c:	63326900 	teqvs	r2, #0, 18
  60:	6972775f 	ldmdbvs	r2!, {r0, r1, r2, r3, r4, r6, r8, r9, sl, ip, sp, lr}^
  64:	72006574 	andvc	r6, r0, #116, 10	; 0x1d000000
  68:	5f646578 	svcpl	0x00646578
  6c:	666e6f63 	strbtvs	r6, [lr], -r3, ror #30
  70:	73006769 	movwvc	r6, #1897	; 0x769
  74:	74726f68 	ldrbtvc	r6, [r2], #-3944	; 0xf68
  78:	746e6920 	strbtvc	r6, [lr], #-2336	; 0x920
  7c:	63646100 	cmnvs	r4, #0, 2
  80:	35313131 	ldrcc	r3, [r1, #-305]!	; 0x131
  84:	5f00632e 	svcpl	0x0000632e
  88:	4e55465f 	mrcmi	6, 2, r4, cr5, cr15, {2}
  8c:	4f495443 	svcmi	0x00495443
  90:	005f5f4e 	subseq	r5, pc, lr, asr #30
  94:	616c6564 	cmnvs	ip, r4, ror #10
  98:	73755f79 	cmnvc	r5, #484	; 0x1e4
  9c:	69727700 	ldmdbvs	r2!, {r8, r9, sl, ip, sp, lr}^
  a0:	645f6574 	ldrbvs	r6, [pc], #-1396	; a8 <_start-0x7f58>
  a4:	00617461 	rsbeq	r7, r1, r1, ror #8
  a8:	5f636461 	svcpl	0x00636461
  ac:	65736572 	ldrbvs	r6, [r3, #-1394]!	; 0x572
  b0:	6f6c0074 	svcvs	0x006c0074
  b4:	6c20676e 	stcvs	7, cr6, [r0], #-440	; 0xfffffe48
  b8:	20676e6f 	rsbcs	r6, r7, pc, ror #28
  bc:	69736e75 	ldmdbvs	r3!, {r0, r2, r4, r5, r6, r9, sl, fp, sp, lr}^
  c0:	64656e67 	strbtvs	r6, [r5], #-3687	; 0xe67
  c4:	746e6920 	strbtvc	r6, [lr], #-2336	; 0x920
  c8:	6e697500 	cdpvs	5, 6, cr7, cr9, cr0, {0}
  cc:	745f3874 	ldrbvc	r3, [pc], #-2164	; d4 <_start-0x7f2c>
  d0:	554e4700 	strbpl	r4, [lr, #-1792]	; 0x700
  d4:	34204320 	strtcc	r4, [r0], #-800	; 0x320
  d8:	332e382e 	teqcc	lr, #3014656	; 0x2e0000
  dc:	636d2d20 	cmnvs	sp, #32, 26	; 0x800
  e0:	613d7570 	teqvs	sp, r0, ror r5
  e4:	31316d72 	teqcc	r1, r2, ror sp
  e8:	7a6a3637 	bvc	1a8d9cc <__bss_end__+0x1a83ab4>
  ec:	20732d66 	rsbscs	r2, r3, r6, ror #26
  f0:	75746d2d 	ldrbvc	r6, [r4, #-3373]!	; 0xd2d
  f4:	613d656e 	teqvs	sp, lr, ror #10
  f8:	31316d72 	teqcc	r1, r2, ror sp
  fc:	7a6a3637 	bvc	1a8d9e0 <__bss_end__+0x1a83ac8>
 100:	20732d66 	rsbscs	r2, r3, r6, ror #26
 104:	6467672d 	strbtvs	r6, [r7], #-1837	; 0x72d
 108:	4f2d2062 	svcmi	0x002d2062
 10c:	732d2067 	teqvc	sp, #103	; 0x67
 110:	673d6474 			; <UNDEFINED> instruction: 0x673d6474
 114:	3939756e 	ldmdbcc	r9!, {r1, r2, r3, r5, r6, r8, sl, ip, sp, lr}
 118:	66662d20 	strbtvs	r2, [r6], -r0, lsr #26
 11c:	73656572 	cmnvc	r5, #478150656	; 0x1c800000
 120:	646e6174 	strbtvs	r6, [lr], #-372	; 0x174
 124:	20676e69 	rsbcs	r6, r7, r9, ror #28
 128:	6c61662d 	stclvs	6, cr6, [r1], #-180	; 0xffffff4c
 12c:	2d6e6769 	stclcs	7, cr6, [lr, #-420]!	; 0xfffffe5c
 130:	636e7566 	cmnvs	lr, #427819008	; 0x19800000
 134:	6e6f6974 	mcrvs	9, 3, r6, cr15, cr4, {3}
 138:	00343d73 	eorseq	r3, r4, r3, ror sp
 13c:	5f636461 	svcpl	0x00636461
 140:	64616572 	strbtvs	r6, [r1], #-1394	; 0x572
 144:	73003631 	movwvc	r3, #1585	; 0x631
 148:	74657a69 	strbtvc	r7, [r5], #-2665	; 0xa69
 14c:	00657079 	rsbeq	r7, r5, r9, ror r0
 150:	676e6f6c 	strbvs	r6, [lr, -ip, ror #30]!
 154:	6e6f6c20 	cdpvs	12, 6, cr6, cr15, cr0, {1}
 158:	6e692067 	cdpvs	0, 6, cr2, cr9, cr7, {3}
 15c:	552f0074 	strpl	r0, [pc, #-116]!	; f0 <_start-0x7f10>
 160:	73726573 	cmnvc	r2, #482344960	; 0x1cc00000
 164:	6972622f 	ldmdbvs	r2!, {r0, r1, r2, r3, r5, r9, sp, lr}^
 168:	756a6e61 	strbvc	r6, [sl, #-3681]!	; 0xe61
 16c:	65442f6e 	strbvs	r2, [r4, #-3950]	; 0xf6e
 170:	6f746b73 	svcvs	0x00746b73
 174:	63732f70 	cmnvs	r3, #112, 30	; 0x1c0
 178:	6c6f6f68 	stclvs	15, cr6, [pc], #-416	; ffffffe0 <__bss_end__+0xffff60c8>
 17c:	7270532f 	rsbsvc	r5, r0, #-1140850688	; 0xbc000000
 180:	31676e69 	cmncc	r7, r9, ror #28
 184:	2f303239 	svccs	0x00303239
 188:	34325343 	ldrtcc	r5, [r2], #-835	; 0x343
 18c:	2f584c30 	svccs	0x00584c30
 190:	34327363 	ldrtcc	r7, [r2], #-867	; 0x363
 194:	2d786c30 	ldclcs	12, cr6, [r8, #-192]!	; 0xffffff40
 198:	70733032 	rsbsvc	r3, r3, r2, lsr r0
 19c:	616c2f72 	smcvs	49906	; 0xc2f2
 1a0:	392f7362 	stmdbcc	pc!, {r1, r5, r6, r8, r9, ip, sp, lr}	; <UNPREDICTABLE>
 1a4:	6332692d 	teqvs	r2, #737280	; 0xb4000
 1a8:	6972642d 	ldmdbvs	r2!, {r0, r2, r3, r5, sl, sp, lr}^
 1ac:	2f726576 	svccs	0x00726576
 1b0:	65646f63 	strbvs	r6, [r4, #-3939]!	; 0xf63
 1b4:	6e697500 	cdpvs	5, 6, cr7, cr9, cr0, {0}
 1b8:	5f363174 	svcpl	0x00363174
 1bc:	32690074 	rsbcc	r0, r9, #116	; 0x74
 1c0:	65725f63 	ldrbvs	r5, [r2, #-3939]!	; 0xf63
 1c4:	64006461 	strvs	r6, [r0], #-1121	; 0x461
 1c8:	615f7665 	cmpvs	pc, r5, ror #12
 1cc:	00726464 	rsbseq	r6, r2, r4, ror #8
 1d0:	5f636461 	svcpl	0x00636461
 1d4:	74697277 	strbtvc	r7, [r9], #-631	; 0x277
 1d8:	00363165 	eorseq	r3, r6, r5, ror #2
 1dc:	5f697072 	svcpl	0x00697072
 1e0:	65736572 	ldrbvs	r6, [r3, #-1394]!	; 0x572
 1e4:	75705f74 	ldrbvc	r5, [r0, #-3956]!	; 0xf74
 1e8:	72006374 	andvc	r6, r0, #116, 6	; 0xd0000001
 1ec:	5f646165 	svcpl	0x00646165
 1f0:	61746164 	cmnvs	r4, r4, ror #2
 1f4:	73645f00 	cmnvc	r4, #0, 30
 1f8:	61685f6f 	cmnvs	r8, pc, ror #30
 1fc:	656c646e 	strbvs	r6, [ip, #-1134]!	; 0x46e
 200:	554e4700 	strbpl	r4, [lr, #-1792]	; 0x700
 204:	39394320 	ldmdbcc	r9!, {r5, r8, r9, lr}
 208:	332e3620 	teqcc	lr, #32, 12	; 0x2000000
 20c:	3220312e 	eorcc	r3, r0, #-2147483637	; 0x8000000b
 210:	30373130 	eorscc	r3, r7, r0, lsr r1
 214:	20303236 	eorscs	r3, r0, r6, lsr r2
 218:	70636d2d 	rsbvc	r6, r3, sp, lsr #26
 21c:	72613d75 	rsbvc	r3, r1, #7488	; 0x1d40
 220:	3731316d 	ldrcc	r3, [r1, -sp, ror #2]!
 224:	667a6a36 			; <UNDEFINED> instruction: 0x667a6a36
 228:	2d20732d 	stccs	3, cr7, [r0, #-180]!	; 0xffffff4c
 22c:	6e75746d 	cdpvs	4, 7, cr7, cr5, cr13, {3}
 230:	72613d65 	rsbvc	r3, r1, #6464	; 0x1940
 234:	3731316d 	ldrcc	r3, [r1, -sp, ror #2]!
 238:	667a6a36 			; <UNDEFINED> instruction: 0x667a6a36
 23c:	2d20732d 	stccs	3, cr7, [r0, #-180]!	; 0xffffff4c
 240:	62646767 	rsbvs	r6, r4, #27000832	; 0x19c0000
 244:	674f2d20 	strbvs	r2, [pc, -r0, lsr #26]
 248:	74732d20 	ldrbtvc	r2, [r3], #-3360	; 0xd20
 24c:	6e673d64 	cdpvs	13, 6, cr3, cr7, cr4, {3}
 250:	20393975 	eorscs	r3, r9, r5, ror r9
 254:	7266662d 	rsbvc	r6, r6, #47185920	; 0x2d00000
 258:	74736565 	ldrbtvc	r6, [r3], #-1381	; 0x565
 25c:	69646e61 	stmdbvs	r4!, {r0, r5, r6, r9, sl, fp, sp, lr}^
 260:	2d20676e 	stccs	7, cr6, [r0, #-440]!	; 0xfffffe48
 264:	696c6166 	stmdbvs	ip!, {r1, r2, r5, r6, r8, sp, lr}^
 268:	662d6e67 	strtvs	r6, [sp], -r7, ror #28
 26c:	74636e75 	strbtvc	r6, [r3], #-3701	; 0xe75
 270:	736e6f69 	cmnvc	lr, #420	; 0x1a4
 274:	5f00343d 	svcpl	0x0000343d
 278:	657a6973 	ldrbvs	r6, [sl, #-2419]!	; 0x973
 27c:	61725f00 	cmnvs	r2, r0, lsl #30
 280:	3834646e 	ldmdacc	r4!, {r1, r2, r3, r5, r6, sl, sp, lr}
 284:	6d655f00 	stclvs	15, cr5, [r5, #-0]
 288:	65677265 	strbvs	r7, [r7, #-613]!	; 0x265
 28c:	0079636e 	rsbseq	r6, r9, lr, ror #6
 290:	65725f73 	ldrbvs	r5, [r2, #-3955]!	; 0xf73
 294:	74736967 	ldrbtvc	r6, [r3], #-2407	; 0x967
 298:	52007265 	andpl	r7, r0, #1342177286	; 0x50000006
 29c:	695f4950 	ldmdbvs	pc, {r4, r6, r8, fp, lr}^	; <UNPREDICTABLE>
 2a0:	64006332 	strvs	r6, [r0], #-818	; 0x332
 2a4:	00656e6f 	rsbeq	r6, r5, pc, ror #28
 2a8:	6f666966 	svcvs	0x00666966
 2ac:	63775f00 	cmnvs	r7, #0, 30
 2b0:	6d6f7472 	cfstrdvs	mvd7, [pc, #-456]!	; f0 <_start-0x7f10>
 2b4:	74735f62 	ldrbtvc	r5, [r3], #-3938	; 0xf62
 2b8:	00657461 	rsbeq	r7, r5, r1, ror #8
 2bc:	7363775f 	cmnvc	r3, #24903680	; 0x17c0000
 2c0:	6d6f7472 	cfstrdvs	mvd7, [pc, #-456]!	; 100 <_start-0x7f00>
 2c4:	735f7362 	cmpvc	pc, #-2013265919	; 0x88000001
 2c8:	65746174 	ldrbvs	r6, [r4, #-372]!	; 0x174
 2cc:	626c5f00 	rsbvs	r5, ip, #0, 30
 2d0:	7a697366 	bvc	1a5d070 <__bss_end__+0x1a53158>
 2d4:	50470065 	subpl	r0, r7, r5, rrx
 2d8:	465f4f49 	ldrbmi	r4, [pc], -r9, asr #30
 2dc:	5f434e55 	svcpl	0x00434e55
 2e0:	55504e49 	ldrbpl	r4, [r0, #-3657]	; 0xe49
 2e4:	6d5f0054 	ldclvs	0, cr0, [pc, #-336]	; 19c <_start-0x7e64>
 2e8:	6f747262 	svcvs	0x00747262
 2ec:	735f6377 	cmpvc	pc, #-603979775	; 0xdc000001
 2f0:	65746174 	ldrbvs	r6, [r4, #-372]!	; 0x174
 2f4:	63326900 	teqvs	r2, #0, 18
 2f8:	5f73695f 	svcpl	0x0073695f
 2fc:	74696e69 	strbtvc	r6, [r9], #-3689	; 0xe69
 300:	696c6169 	stmdbvs	ip!, {r0, r3, r5, r6, r8, sp, lr}^
 304:	0064657a 	rsbeq	r6, r4, sl, ror r5
 308:	7463775f 	strbtvc	r7, [r3], #-1887	; 0x75f
 30c:	5f626d6f 	svcpl	0x00626d6f
 310:	74617473 	strbtvc	r7, [r1], #-1139	; 0x473
 314:	5f5f0065 	svcpl	0x005f0065
 318:	735f6d74 	cmpvc	pc, #116, 26	; 0x1d00
 31c:	5f006365 	svcpl	0x00006365
 320:	66756275 			; <UNDEFINED> instruction: 0x66756275
 324:	49504700 	ldmdbmi	r0, {r8, r9, sl, lr}^
 328:	55465f4f 	strbpl	r5, [r6, #-3919]	; 0xf4f
 32c:	415f434e 	cmpmi	pc, lr, asr #6
 330:	0031544c 	eorseq	r5, r1, ip, asr #8
 334:	7361625f 	cmnvc	r1, #-268435451	; 0xf0000005
 338:	5f5f0065 	svcpl	0x005f0065
 33c:	685f6d74 	ldmdavs	pc, {r2, r4, r5, r6, r8, sl, fp, sp, lr}^	; <UNPREDICTABLE>
 340:	0072756f 	rsbseq	r7, r2, pc, ror #10
 344:	6e755f5f 	mrcvs	15, 3, r5, cr5, cr15, {2}
 348:	64657375 	strbtvs	r7, [r5], #-885	; 0x375
 34c:	5f5f0031 	svcpl	0x005f0031
 350:	5f006673 	svcpl	0x00006673
 354:	655f6e6f 	ldrbvs	r6, [pc, #-3695]	; fffff4ed <__bss_end__+0xffff55d5>
 358:	5f746978 	svcpl	0x00746978
 35c:	73677261 	cmnvc	r7, #268435462	; 0x10000006
 360:	6f6c6300 	svcvs	0x006c6300
 364:	735f6b63 	cmpvc	pc, #101376	; 0x18c00
 368:	74657274 	strbtvc	r7, [r5], #-628	; 0x274
 36c:	745f6863 	ldrbvc	r6, [pc], #-2147	; 374 <_start-0x7c8c>
 370:	6f656d69 	svcvs	0x00656d69
 374:	5f007475 	svcpl	0x00007475
 378:	6b6f6f63 	blvs	1bdc10c <__bss_end__+0x1bd21f4>
 37c:	67006569 	strvs	r6, [r0, -r9, ror #10]
 380:	5f6f6970 	svcpl	0x006f6970
 384:	5f746573 	svcpl	0x00746573
 388:	636e7566 	cmnvs	lr, #427819008	; 0x19800000
 38c:	6e6f6974 	mcrvs	9, 3, r6, cr15, cr4, {3}
 390:	735f5f00 	cmpvc	pc, #0, 30
 394:	65756c67 	ldrbvs	r6, [r5, #-3175]!	; 0xc67
 398:	6c665f00 	stclvs	15, cr5, [r6], #-0
 39c:	00736761 	rsbseq	r6, r3, r1, ror #14
 3a0:	5f73695f 	svcpl	0x0073695f
 3a4:	00617863 	rsbeq	r7, r1, r3, ror #16
 3a8:	6474735f 	ldrbtvs	r7, [r4], #-863	; 0x35f
 3ac:	5f006e69 	svcpl	0x00006e69
 3b0:	756e755f 	strbvc	r7, [lr, #-1375]!	; 0x55f
 3b4:	30646573 	rsbcc	r6, r4, r3, ror r5
 3b8:	6c625f00 	stclvs	15, cr5, [r2], #-0
 3bc:	7a69736b 	bvc	1a5d170 <__bss_end__+0x1a53258>
 3c0:	5f5f0065 	svcpl	0x005f0065
 3c4:	73756e75 	cmnvc	r5, #1872	; 0x750
 3c8:	00326465 	eorseq	r6, r2, r5, ror #8
 3cc:	5f766564 	svcpl	0x00766564
 3d0:	72726162 	rsbsvc	r6, r2, #-2147483624	; 0x80000018
 3d4:	00726569 	rsbseq	r6, r2, r9, ror #10
 3d8:	6e755f5f 	mrcvs	15, 3, r5, cr5, cr15, {2}
 3dc:	64657375 	strbtvs	r7, [r5], #-885	; 0x375
 3e0:	635f0033 	cmpvs	pc, #51	; 0x33
 3e4:	75627476 	strbvc	r7, [r2, #-1142]!	; 0x476
 3e8:	6f5f0066 	svcvs	0x005f0066
 3ec:	65736666 	ldrbvs	r6, [r3, #-1638]!	; 0x666
 3f0:	68730074 	ldmdavs	r3!, {r2, r4, r5, r6}^
 3f4:	00746669 	rsbseq	r6, r4, r9, ror #12
 3f8:	73626d5f 	cmnvc	r2, #6080	; 0x17c0
 3fc:	776f7472 			; <UNDEFINED> instruction: 0x776f7472
 400:	735f7363 	cmpvc	pc, #-1946157055	; 0x8c000001
 404:	65746174 	ldrbvs	r6, [r4, #-372]!	; 0x174
 408:	626d5f00 	rsbvs	r5, sp, #0, 30
 40c:	6e656c72 	mcrvs	12, 3, r6, cr5, cr2, {3}
 410:	6174735f 	cmnvs	r4, pc, asr r3
 414:	5f006574 	svcpl	0x00006574
 418:	72616e66 	rsbvc	r6, r1, #1632	; 0x660
 41c:	5f007367 	svcpl	0x00007367
 420:	00736e66 	rsbseq	r6, r3, r6, ror #28
 424:	2e633269 	cdpcs	2, 6, cr3, cr3, cr9, {3}
 428:	735f0063 	cmpvc	pc, #99	; 0x63
 42c:	006e6769 	rsbeq	r6, lr, r9, ror #14
 430:	64616572 	strbtvs	r6, [r1], #-1394	; 0x572
 434:	5f00635f 	svcpl	0x0000635f
 438:	636f6c66 	cmnvs	pc, #26112	; 0x6600
 43c:	00745f6b 	rsbseq	r5, r4, fp, ror #30
 440:	6474735f 	ldrbtvs	r7, [r4], #-863	; 0x35f
 444:	00727265 	rsbseq	r7, r2, r5, ror #4
 448:	6769425f 			; <UNDEFINED> instruction: 0x6769425f
 44c:	00746e69 	rsbseq	r6, r4, r9, ror #28
 450:	6d61675f 	stclvs	7, cr6, [r1, #-380]!	; 0xfffffe84
 454:	735f616d 	cmpvc	pc, #1073741851	; 0x4000001b
 458:	676e6769 	strbvs	r6, [lr, -r9, ror #14]!
 45c:	5f006d61 	svcpl	0x00006d61
 460:	75736572 	ldrbvc	r6, [r3, #-1394]!	; 0x572
 464:	6b5f746c 	blvs	17dd61c <__bss_end__+0x17d3704>
 468:	69707200 	ldmdbvs	r0!, {r9, ip, sp, lr}^
 46c:	7475705f 	ldrbtvc	r7, [r5], #-95	; 0x5f
 470:	72616863 	rsbvc	r6, r1, #6488064	; 0x630000
 474:	745f5f00 	ldrbvc	r5, [pc], #-3840	; 47c <_start-0x7b84>
 478:	6572006d 	ldrbvs	r0, [r2, #-109]!	; 0x6d
 47c:	735f6461 	cmpvc	pc, #1627389952	; 0x61000000
 480:	775f5f00 	ldrbvc	r5, [pc, -r0, lsl #30]
 484:	00626863 	rsbeq	r6, r2, r3, ror #16
 488:	6474735f 	ldrbtvs	r7, [r4], #-863	; 0x35f
 48c:	0074756f 	rsbseq	r7, r4, pc, ror #10
 490:	6d6f682f 	stclvs	8, cr6, [pc, #-188]!	; 3dc <_start-0x7c24>
 494:	6e652f65 	cdpvs	15, 6, cr2, cr5, cr5, {3}
 498:	72656c67 	rsbvc	r6, r5, #26368	; 0x6700
 49c:	616c632f 	cmnvs	ip, pc, lsr #6
 4a0:	632f7373 	teqvs	pc, #-872415231	; 0xcc000001
 4a4:	30343273 	eorscc	r3, r4, r3, ror r2
 4a8:	322d786c 	eorcc	r7, sp, #108, 16	; 0x6c0000
 4ac:	72707330 	rsbsvc	r7, r0, #48, 6	; 0xc0000000
 4b0:	62616c2f 	rsbvs	r6, r1, #12032	; 0x2f00
 4b4:	2d392f73 	ldccs	15, cr2, [r9, #-460]!	; 0xfffffe34
 4b8:	2d633269 	sfmcs	f3, 2, [r3, #-420]!	; 0xfffffe5c
 4bc:	76697264 	strbtvc	r7, [r9], -r4, ror #4
 4c0:	632f7265 	teqvs	pc, #1342177286	; 0x50000006
 4c4:	0065646f 	rsbeq	r6, r5, pc, ror #8
 4c8:	7476635f 	ldrbtvc	r6, [r6], #-863	; 0x35f
 4cc:	006e656c 	rsbeq	r6, lr, ip, ror #10
 4d0:	6c69665f 	stclvs	6, cr6, [r9], #-380	; 0xfffffe84
 4d4:	65720065 	ldrbvs	r0, [r2, #-101]!	; 0x65
 4d8:	705f6461 	subsvc	r6, pc, r1, ror #8
 4dc:	696e5f00 	stmdbvs	lr!, {r8, r9, sl, fp, ip, lr}^
 4e0:	0073626f 	rsbseq	r6, r3, pc, ror #4
 4e4:	74696e69 	strbtvc	r6, [r9], #-3689	; 0xe69
 4e8:	696c6169 	stmdbvs	ip!, {r0, r3, r5, r6, r8, sp, lr}^
 4ec:	5f64657a 	svcpl	0x0064657a
 4f0:	65730070 	ldrbvs	r0, [r3, #-112]!	; 0x70
 4f4:	6c615f74 	stclvs	15, cr5, [r1], #-464	; 0xfffffe30
 4f8:	6c63006c 	stclvs	0, cr0, [r3], #-432	; 0xfffffe50
 4fc:	5f6b636f 	svcpl	0x006b636f
 500:	00766964 	rsbseq	r6, r6, r4, ror #18
 504:	6574615f 	ldrbvs	r6, [r4, #-351]!	; 0x15f
 508:	30746978 	rsbscc	r6, r4, r8, ror r9
 50c:	73657200 	cmnvc	r5, #0, 4
 510:	735f7465 	cmpvc	pc, #1694498816	; 0x65000000
 514:	75746174 	ldrbvc	r6, [r4, #-372]!	; 0x174
 518:	735f0073 	cmpvc	pc, #115	; 0x73
 51c:	616e6769 	cmnvs	lr, r9, ror #14
 520:	75625f6c 	strbvc	r5, [r2, #-3948]!	; 0xf6c
 524:	615f0066 	cmpvs	pc, r6, rrx
 528:	69746373 	ldmdbvs	r4!, {r0, r1, r4, r5, r6, r8, r9, sp, lr}^
 52c:	625f656d 	subsvs	r6, pc, #457179136	; 0x1b400000
 530:	69006675 	stmdbvs	r0, {r0, r2, r4, r5, r6, r9, sl, sp, lr}
 534:	695f6332 	ldmdbvs	pc, {r1, r4, r5, r8, r9, sp, lr}^	; <UNPREDICTABLE>
 538:	5f74696e 	svcpl	0x0074696e
 53c:	65636e6f 	strbvs	r6, [r3, #-3695]!	; 0xe6f
 540:	65725f00 	ldrbvs	r5, [r2, #-3840]!	; 0xf00
 544:	746c7573 	strbtvc	r7, [ip], #-1395	; 0x573
 548:	775f5f00 	ldrbvc	r5, [pc, -r0, lsl #30]
 54c:	47006863 	strmi	r6, [r0, -r3, ror #16]
 550:	5f4f4950 	svcpl	0x004f4950
 554:	434e5546 	movtmi	r5, #58694	; 0xe546
 558:	544c415f 	strbpl	r4, [ip], #-351	; 0x15f
 55c:	69770032 	ldmdbvs	r7!, {r1, r4, r5}^
 560:	745f746e 	ldrbvc	r7, [pc], #-1134	; 568 <_start-0x7a98>
 564:	6f6c5f00 	svcvs	0x006c5f00
 568:	5f006b63 	svcpl	0x00006b63
 56c:	67616c66 	strbvs	r6, [r1, -r6, ror #24]!
 570:	5f003273 	svcpl	0x00003273
 574:	5f6d745f 	svcpl	0x006d745f
 578:	72616579 	rsbvc	r6, r1, #507510784	; 0x1e400000
 57c:	746e6900 	strbtvc	r6, [lr], #-2304	; 0x900
 580:	6e5f0064 	cdpvs	0, 5, cr0, cr15, cr4, {3}
 584:	6c6c616d 	stfvse	f6, [ip], #-436	; 0xfffffe4c
 588:	6900636f 	stmdbvs	r0, {r0, r1, r2, r3, r5, r6, r8, r9, sp, lr}
 58c:	0072746e 	rsbseq	r7, r2, lr, ror #8
 590:	74746e69 	ldrbtvc	r6, [r4], #-3689	; 0xe69
 594:	65686300 	strbvs	r6, [r8, #-768]!	; 0x300
 598:	6c5f6b63 	mrrcvs	11, 6, r6, pc, cr3	; <UNPREDICTABLE>
 59c:	756f7961 	strbvc	r7, [pc, #-2401]!	; fffffc43 <__bss_end__+0xffff5d2b>
 5a0:	6e5f0074 	mrcvs	0, 2, r0, cr15, cr4, {3}
 5a4:	66747865 	ldrbtvs	r7, [r4], -r5, ror #16
 5a8:	63326900 	teqvs	r2, #0, 18
 5ac:	5f006e65 	svcpl	0x00006e65
 5b0:	5f6d745f 	svcpl	0x006d745f
 5b4:	006e6f6d 	rsbeq	r6, lr, sp, ror #30
 5b8:	6574615f 	ldrbvs	r6, [r4, #-351]!	; 0x15f
 5bc:	00746978 	rsbseq	r6, r4, r8, ror r9
 5c0:	64735f5f 	ldrbtvs	r5, [r3], #-3935	; 0xf5f
 5c4:	6e696469 	cdpvs	4, 6, cr6, cr9, cr9, {3}
 5c8:	5f007469 	svcpl	0x00007469
 5cc:	5f66666f 	svcpl	0x0066666f
 5d0:	665f0074 			; <UNDEFINED> instruction: 0x665f0074
 5d4:	6c656572 	cfstr64vs	mvdx6, [r5], #-456	; 0xfffffe38
 5d8:	00747369 	rsbseq	r7, r4, r9, ror #6
 5dc:	7479626e 	ldrbtvc	r6, [r9], #-622	; 0x26e
 5e0:	64007365 	strvs	r7, [r0], #-869	; 0x365
 5e4:	006e656c 	rsbeq	r6, lr, ip, ror #10
 5e8:	434f4c5f 	movtmi	r4, #64607	; 0xfc5f
 5ec:	45525f4b 	ldrbmi	r5, [r2, #-3915]	; 0xf4b
 5f0:	53525543 	cmppl	r2, #281018368	; 0x10c00000
 5f4:	5f455649 	svcpl	0x00455649
 5f8:	6e5f0054 	mrcvs	0, 2, r0, cr15, cr4, {2}
 5fc:	5f007765 	svcpl	0x00007765
 600:	72655f68 	rsbvc	r5, r5, #104, 30	; 0x1a0
 604:	006f6e72 	rsbeq	r6, pc, r2, ror lr	; <UNPREDICTABLE>
 608:	6d745f5f 	ldclvs	15, cr5, [r4, #-380]!	; 0xfffffe84
 60c:	6164795f 	cmnvs	r4, pc, asr r9
 610:	5f5f0079 	svcpl	0x005f0079
 614:	66756273 			; <UNDEFINED> instruction: 0x66756273
 618:	6f695f00 	svcvs	0x00695f00
 61c:	5f007362 	svcpl	0x00007362
 620:	4c49465f 	mcrrmi	6, 5, r4, r9, cr15
 624:	6d5f0045 	ldclvs	0, cr0, [pc, #-276]	; 518 <_start-0x7ae8>
 628:	61747362 	cmnvs	r4, r2, ror #6
 62c:	745f6574 	ldrbvc	r6, [pc], #-1396	; 634 <_start-0x79cc>
 630:	735f5f00 	cmpvc	pc, #0, 30
 634:	454c4946 	strbmi	r4, [ip, #-2374]	; 0x946
 638:	626d5f00 	rsbvs	r5, sp, #0, 30
 63c:	74617473 	strbtvc	r7, [r1], #-1139	; 0x473
 640:	725f0065 	subsvc	r0, pc, #101	; 0x65
 644:	5f646e61 	svcpl	0x00646e61
 648:	7478656e 	ldrbtvc	r6, [r8], #-1390	; 0x56e
 64c:	6f6c6300 	svcvs	0x006c6300
 650:	645f6b63 	ldrbvs	r6, [pc], #-2915	; 658 <_start-0x79a8>
 654:	79616c65 	stmdbvc	r1!, {r0, r2, r5, r6, sl, fp, sp, lr}^
 658:	626d5f00 	rsbvs	r5, sp, #0, 30
 65c:	5f6e656c 	svcpl	0x006e656c
 660:	74617473 	strbtvc	r7, [r1], #-1139	; 0x473
 664:	695f0065 	ldmdbvs	pc, {r0, r2, r5, r6}^	; <UNPREDICTABLE>
 668:	5f00636e 	svcpl	0x0000636e
 66c:	00646e69 	rsbeq	r6, r4, r9, ror #28
 670:	7275635f 	rsbsvc	r6, r5, #2080374785	; 0x7c000001
 674:	746e6572 	strbtvc	r6, [lr], #-1394	; 0x572
 678:	636f6c5f 	cmnvs	pc, #24320	; 0x5f00
 67c:	00656c61 	rsbeq	r6, r5, r1, ror #24
 680:	6c635f5f 	stclvs	15, cr5, [r3], #-380	; 0xfffffe84
 684:	756e6165 	strbvc	r6, [lr, #-357]!	; 0x165
 688:	6d5f0070 	ldclvs	0, cr0, [pc, #-448]	; 4d0 <_start-0x7b30>
 68c:	64777861 	ldrbtvs	r7, [r7], #-2145	; 0x861
 690:	725f0073 	subsvc	r0, pc, #115	; 0x73
 694:	746e6565 	strbtvc	r6, [lr], #-1381	; 0x565
 698:	65735f00 	ldrbvs	r5, [r3, #-3840]!	; 0xf00
 69c:	5f006465 	svcpl	0x00006465
 6a0:	756f635f 	strbvc	r6, [pc, #-863]!	; 349 <_start-0x7cb7>
 6a4:	6300746e 	movwvs	r7, #1134	; 0x46e
 6a8:	72746e6f 	rsbsvc	r6, r4, #1776	; 0x6f0
 6ac:	75006c6f 	strvc	r6, [r0, #-3183]	; 0xc6f
 6b0:	33746e69 	cmncc	r4, #1680	; 0x690
 6b4:	00745f32 	rsbseq	r5, r4, r2, lsr pc
 6b8:	6565735f 	strbvs	r7, [r5, #-863]!	; 0x35f
 6bc:	665f006b 	ldrbvs	r0, [pc], -fp, rrx
 6c0:	5f736f70 	svcpl	0x00736f70
 6c4:	5f5f0074 	svcpl	0x005f0074
 6c8:	6d5f6d74 	ldclvs	13, cr6, [pc, #-464]	; 500 <_start-0x7b00>
 6cc:	5f006e69 	svcpl	0x00006e69
 6d0:	746c756d 	strbtvc	r7, [ip], #-1389	; 0x56d
 6d4:	74757000 	ldrbtvc	r7, [r5], #-0
 6d8:	5f003233 	svcpl	0x00003233
 6dc:	74727473 	ldrbtvc	r7, [r2], #-1139	; 0x473
 6e0:	6c5f6b6f 	mrrcvs	11, 6, r6, pc, cr15	; <UNPREDICTABLE>
 6e4:	00747361 	rsbseq	r7, r4, r1, ror #6
 6e8:	61765f5f 	cmnvs	r6, pc, asr pc
 6ec:	0065756c 	rsbeq	r7, r5, ip, ror #10
 6f0:	746e665f 	strbtvc	r6, [lr], #-1631	; 0x65f
 6f4:	73657079 	cmnvc	r5, #121	; 0x79
 6f8:	64615f00 	strbtvs	r5, [r1], #-3840	; 0xf00
 6fc:	5f5f0064 	svcpl	0x005f0064
 700:	6e6f4c55 	mcrvs	12, 3, r4, cr15, cr5, {2}
 704:	675f0067 	ldrbvs	r0, [pc, -r7, rrx]
 708:	61647465 	cmnvs	r4, r5, ror #8
 70c:	655f6574 	ldrbvs	r6, [pc, #-1396]	; 1a0 <_start-0x7e60>
 710:	5f007272 	svcpl	0x00007272
 714:	626f6c67 	rsbvs	r6, pc, #26368	; 0x6700
 718:	695f6c61 	ldmdbvs	pc, {r0, r5, r6, sl, fp, sp, lr}^	; <UNPREDICTABLE>
 71c:	7275706d 	rsbsvc	r7, r5, #109	; 0x6d
 720:	74705f65 	ldrbtvc	r5, [r0], #-3941	; 0xf65
 724:	635f0072 	cmpvs	pc, #114	; 0x72
 728:	65727275 	ldrbvs	r7, [r2, #-629]!	; 0x275
 72c:	635f746e 	cmpvs	pc, #1845493760	; 0x6e000000
 730:	67657461 	strbvs	r7, [r5, -r1, ror #8]!
 734:	0079726f 	rsbseq	r7, r9, pc, ror #4
 738:	756e755f 	strbvc	r7, [lr, #-1375]!	; 0x55f
 73c:	5f646573 	svcpl	0x00646573
 740:	646e6172 	strbtvs	r6, [lr], #-370	; 0x172
 744:	65667800 	strbvs	r7, [r6, #-2048]!	; 0x800
 748:	74735f72 	ldrbtvc	r5, [r3], #-3954	; 0xf72
 74c:	00747261 	rsbseq	r7, r4, r1, ror #4
 750:	7364775f 	cmnvc	r4, #24903680	; 0x17c0000
 754:	745f5f00 	ldrbvc	r5, [pc], #-3840	; 75c <_start-0x78a4>
 758:	64775f6d 	ldrbtvs	r5, [r7], #-3949	; 0xf6d
 75c:	5f007961 	svcpl	0x00007961
 760:	65756c67 	ldrbvs	r6, [r5, #-3175]!	; 0xc67
 764:	49504700 	ldmdbmi	r0, {r8, r9, sl, lr}^
 768:	55465f4f 	strbpl	r5, [r6, #-3919]	; 0xf4f
 76c:	4f5f434e 	svcmi	0x005f434e
 770:	55505455 	ldrbpl	r5, [r0, #-1109]	; 0x455
 774:	6c5f0054 	mrrcvs	0, 5, r0, pc, cr4	; <UNPREDICTABLE>
 778:	5f613436 	svcpl	0x00613436
 77c:	00667562 	rsbeq	r7, r6, r2, ror #10
 780:	33746567 	cmncc	r4, #432013312	; 0x19c00000
 784:	66780032 			; <UNDEFINED> instruction: 0x66780032
 788:	655f7265 	ldrbvs	r7, [pc, #-613]	; 52b <_start-0x7ad5>
 78c:	5f00646e 	svcpl	0x0000646e
 790:	5f676973 	svcpl	0x00676973
 794:	636e7566 	cmnvs	lr, #427819008	; 0x19800000
 798:	6b6c6300 	blvs	1b193a0 <__bss_end__+0x1b0f488>
 79c:	63006b74 	movwvs	r6, #2932	; 0xb74
 7a0:	7261656c 	rsbvc	r6, r1, #108, 10	; 0x1b000000
 7a4:	4700635f 	smlsdmi	r0, pc, r3, r6	; <UNPREDICTABLE>
 7a8:	5f4f4950 	svcpl	0x004f4950
 7ac:	434e5546 	movtmi	r5, #58694	; 0xe546
 7b0:	544c415f 	strbpl	r4, [ip], #-351	; 0x15f
 7b4:	6e5f0030 	mrcvs	0, 2, r0, cr15, cr0, {1}
 7b8:	00667562 	rsbeq	r7, r6, r2, ror #10
 7bc:	756e755f 	strbvc	r7, [lr, #-1375]!	; 0x55f
 7c0:	00646573 	rsbeq	r6, r4, r3, ror r5
 7c4:	4f495047 	svcmi	0x00495047
 7c8:	4e55465f 	mrcmi	6, 2, r4, cr5, cr15, {2}
 7cc:	4c415f43 	mcrrmi	15, 4, r5, r1, cr3
 7d0:	47003354 	smlsdmi	r0, r4, r3, r3
 7d4:	5f4f4950 	svcpl	0x004f4950
 7d8:	434e5546 	movtmi	r5, #58694	; 0xe546
 7dc:	544c415f 	strbpl	r4, [ip], #-351	; 0x15f
 7e0:	50470034 	subpl	r0, r7, r4, lsr r0
 7e4:	465f4f49 	ldrbmi	r4, [pc], -r9, asr #30
 7e8:	5f434e55 	svcpl	0x00434e55
 7ec:	35544c41 	ldrbcc	r4, [r4, #-3137]	; 0xc41
 7f0:	745f5f00 	ldrbvc	r5, [pc], #-3840	; 7f8 <_start-0x7808>
 7f4:	73695f6d 	cmnvc	r9, #436	; 0x1b4
 7f8:	00747364 	rsbseq	r7, r4, r4, ror #6
 7fc:	636f6c5f 	cmnvs	pc, #24320	; 0x5f00
 800:	69746c61 	ldmdbvs	r4!, {r0, r5, r6, sl, fp, sp, lr}^
 804:	625f656d 	subsvs	r6, pc, #457179136	; 0x1b400000
 808:	5f006675 	svcpl	0x00006675
 80c:	736f6c63 	cmnvc	pc, #25344	; 0x6300
 810:	6c630065 	stclvs	0, cr0, [r3], #-404	; 0xfffffe6c
 814:	5f726165 	svcpl	0x00726165
 818:	725f0073 	subsvc	r0, pc, #115	; 0x73
 81c:	63003834 	movwvs	r3, #2100	; 0x834
 820:	6765725f 			; <UNDEFINED> instruction: 0x6765725f
 824:	65747369 	ldrbvs	r7, [r4, #-873]!	; 0x369
 828:	6d5f0072 	ldclvs	0, cr0, [pc, #-456]	; 668 <_start-0x7998>
 82c:	776f7462 	strbvc	r7, [pc, -r2, ror #8]!
 830:	74735f63 	ldrbtvc	r5, [r3], #-3939	; 0xf63
 834:	00657461 	rsbeq	r7, r5, r1, ror #8
 838:	7335705f 	teqvc	r5, #95	; 0x5f
 83c:	745f5f00 	ldrbvc	r5, [pc], #-3840	; 844 <_start-0x77bc>
 840:	646d5f6d 	strbtvs	r5, [sp], #-3949	; 0xf6d
 844:	5f007961 	svcpl	0x00007961
 848:	756e675f 	strbvc	r6, [lr, #-1887]!	; 0x75f
 84c:	61765f63 	cmnvs	r6, r3, ror #30
 850:	73696c5f 	cmnvc	r9, #24320	; 0x5f00
 854:	696c0074 	stmdbvs	ip!, {r2, r4, r5, r6}^
 858:	702f6362 	eorvc	r6, pc, r2, ror #6
 85c:	746e6972 	strbtvc	r6, [lr], #-2418	; 0x972
 860:	00632e6b 	rsbeq	r2, r3, fp, ror #28
 864:	20554e47 	subscs	r4, r5, r7, asr #28
 868:	2e342043 	cdpcs	0, 3, cr2, cr4, cr3, {2}
 86c:	20332e38 	eorscs	r2, r3, r8, lsr lr
 870:	70636d2d 	rsbvc	r6, r3, sp, lsr #26
 874:	72613d75 	rsbvc	r3, r1, #7488	; 0x1d40
 878:	3731316d 	ldrcc	r3, [r1, -sp, ror #2]!
 87c:	667a6a36 			; <UNDEFINED> instruction: 0x667a6a36
 880:	2d20732d 	stccs	3, cr7, [r0, #-180]!	; 0xffffff4c
 884:	6e75746d 	cdpvs	4, 7, cr7, cr5, cr13, {3}
 888:	72613d65 	rsbvc	r3, r1, #6464	; 0x1940
 88c:	3731316d 	ldrcc	r3, [r1, -sp, ror #2]!
 890:	667a6a36 			; <UNDEFINED> instruction: 0x667a6a36
 894:	2d20732d 	stccs	3, cr7, [r0, #-180]!	; 0xffffff4c
 898:	62646767 	rsbvs	r6, r4, #27000832	; 0x19c0000
 89c:	674f2d20 	strbvs	r2, [pc, -r0, lsr #26]
 8a0:	74732d20 	ldrbtvc	r2, [r3], #-3360	; 0xd20
 8a4:	6e673d64 	cdpvs	13, 6, cr3, cr7, cr4, {3}
 8a8:	20393975 	eorscs	r3, r9, r5, ror r9
 8ac:	7266662d 	rsbvc	r6, r6, #47185920	; 0x2d00000
 8b0:	74736565 	ldrbtvc	r6, [r3], #-1381	; 0x565
 8b4:	69646e61 	stmdbvs	r4!, {r0, r5, r6, r9, sl, fp, sp, lr}^
 8b8:	7600676e 	strvc	r6, [r0], -lr, ror #14
 8bc:	72705f61 	rsbsvc	r5, r0, #388	; 0x184
 8c0:	6b746e69 	blvs	1d1c26c <__bss_end__+0x1d12354>
 8c4:	765f5f00 	ldrbvc	r5, [pc], -r0, lsl #30
 8c8:	696c5f61 	stmdbvs	ip!, {r0, r5, r6, r8, r9, sl, fp, ip, lr}^
 8cc:	2f007473 	svccs	0x00007473
 8d0:	72657355 	rsbvc	r7, r5, #1409286145	; 0x54000001
 8d4:	72622f73 	rsbvc	r2, r2, #460	; 0x1cc
 8d8:	6a6e6169 	bvs	1b98e84 <__bss_end__+0x1b8ef6c>
 8dc:	442f6e75 	strtmi	r6, [pc], #-3701	; 8e4 <_start-0x771c>
 8e0:	746b7365 	strbtvc	r7, [fp], #-869	; 0x365
 8e4:	732f706f 	teqvc	pc, #111	; 0x6f
 8e8:	6f6f6863 	svcvs	0x006f6863
 8ec:	69572f6c 	ldmdbvs	r7, {r2, r3, r5, r6, r8, r9, sl, fp, sp}^
 8f0:	7265746e 	rsbvc	r7, r5, #1845493760	; 0x6e000000
 8f4:	30323931 	eorscc	r3, r2, r1, lsr r9
 8f8:	3153432f 	cmpcc	r3, pc, lsr #6
 8fc:	2f453034 	svccs	0x00453034
 900:	34317363 	ldrtcc	r7, [r1], #-867	; 0x363
 904:	322d6530 	eorcc	r6, sp, #48, 10	; 0xc000000
 908:	6e697730 	mcrvs	7, 3, r7, cr9, cr0, {1}
 90c:	62696c2f 	rsbvs	r6, r9, #12032	; 0x2f00
 910:	5f006970 	svcpl	0x00006970
 914:	0070615f 	rsbseq	r6, r0, pc, asr r1
 918:	74726175 	ldrbtvc	r6, [r2], #-373	; 0x175
 91c:	7475705f 	ldrbtvc	r7, [r5], #-95	; 0x5f
 920:	6e690063 	cdpvs	0, 6, cr0, cr9, cr3, {3}
 924:	6e726574 	mrcvs	5, 3, r6, cr2, cr4, {3}
 928:	705f6c61 	subsvc	r6, pc, r1, ror #24
 92c:	68637475 	stmdavs	r3!, {r0, r2, r4, r5, r6, sl, ip, sp, lr}^
 930:	6c007261 	sfmvs	f7, 4, [r0], {97}	; 0x61
 934:	2f636269 	svccs	0x00636269
 938:	63747570 	cmnvs	r4, #112, 10	; 0x1c000000
 93c:	2e726168 	rpwcssz	f6, f2, #0.0
 940:	70720063 	rsbsvc	r0, r2, r3, rrx
 944:	65735f69 	ldrbvs	r5, [r3, #-3945]!	; 0xf69
 948:	75705f74 	ldrbvc	r5, [r0, #-3956]!	; 0xf74
 94c:	6c006374 	stcvs	3, cr6, [r0], {116}	; 0x74
 950:	2f636269 	svccs	0x00636269
 954:	6b747570 	blvs	1d1df1c <__bss_end__+0x1d14004>
 958:	6900632e 	stmdbvs	r0, {r1, r2, r3, r5, r8, r9, sp, lr}
 95c:	7265746e 	rsbvc	r7, r5, #1845493760	; 0x6e000000
 960:	5f6c616e 	svcpl	0x006c616e
 964:	6b747570 	blvs	1d1df2c <__bss_end__+0x1d14014>
 968:	67656e00 	strbvs	r6, [r5, -r0, lsl #28]!
 96c:	7200705f 	andvc	r7, r0, #95	; 0x5f
 970:	72657665 	rsbvc	r7, r5, #105906176	; 0x6500000
 974:	69006573 	stmdbvs	r0, {r0, r1, r4, r5, r6, r8, sl, sp, lr}
 978:	67696473 			; <UNDEFINED> instruction: 0x67696473
 97c:	70007469 	andvc	r7, r0, r9, ror #8
 980:	5f737475 	svcpl	0x00737475
 984:	73007066 	movwvc	r7, #102	; 0x66
 988:	656e6769 	strbvs	r6, [lr, #-1897]!	; 0x769
 98c:	00705f64 	rsbseq	r5, r0, r4, ror #30
 990:	6362696c 	cmnvs	r2, #108, 18	; 0x1b0000
 994:	2d61762f 	stclcs	6, cr7, [r1, #-188]!	; 0xffffff44
 998:	6e697270 	mcrvs	2, 3, r7, cr9, cr0, {3}
 99c:	632e6b74 	teqvs	lr, #116, 22	; 0x1d000
 9a0:	69707200 	ldmdbvs	r0!, {r9, ip, sp, lr}^
 9a4:	7465735f 	strbtvc	r7, [r5], #-863	; 0x35f
 9a8:	74756f5f 	ldrbtvc	r6, [r5], #-3935	; 0xf5f
 9ac:	00747570 	rsbseq	r7, r4, r0, ror r5
 9b0:	74646977 	strbtvc	r6, [r4], #-2423	; 0x977
 9b4:	75700068 	ldrbvc	r0, [r0, #-104]!	; 0x68
 9b8:	665f6374 			; <UNDEFINED> instruction: 0x665f6374
 9bc:	6d650070 	stclvs	0, cr0, [r5, #-448]!	; 0xfffffe40
 9c0:	72007469 	andvc	r7, r0, #1761607680	; 0x69000000
 9c4:	725f6970 	subsvc	r6, pc, #112, 18	; 0x1c0000
 9c8:	6f6f6265 	svcvs	0x006f6265
 9cc:	73630074 	cmnvc	r3, #116	; 0x74
 9d0:	65303431 	ldrvs	r3, [r0, #-1073]!	; 0x431
 9d4:	6372732d 	cmnvs	r2, #-1275068416	; 0xb4000000
 9d8:	656c632f 	strbvs	r6, [ip, #-815]!	; 0x32f
 9dc:	722d6e61 	eorvc	r6, sp, #1552	; 0x610
 9e0:	6f6f6265 	svcvs	0x006f6265
 9e4:	00632e74 	rsbeq	r2, r3, r4, ror lr
 9e8:	34317363 	ldrtcc	r7, [r1], #-867	; 0x363
 9ec:	732d6530 	teqvc	sp, #48, 10	; 0xc000000
 9f0:	632f6372 	teqvs	pc, #-939524095	; 0xc8000001
 9f4:	72617473 	rsbvc	r7, r1, #1929379840	; 0x73000000
 9f8:	00632e74 	rsbeq	r2, r3, r4, ror lr
 9fc:	73625f5f 	cmnvc	r2, #380	; 0x17c
 a00:	74735f73 	ldrbtvc	r5, [r3], #-3955	; 0xf73
 a04:	5f747261 	svcpl	0x00747261
 a08:	5f5f005f 	svcpl	0x005f005f
 a0c:	5f737362 	svcpl	0x00737362
 a10:	5f646e65 	svcpl	0x00646e65
 a14:	7362005f 	cmnvc	r2, #95	; 0x5f
 a18:	6e655f73 	mcrvs	15, 3, r5, cr5, cr3, {3}
 a1c:	635f0064 	cmpvs	pc, #100	; 0x64
 a20:	72617473 	rsbvc	r7, r1, #1929379840	; 0x73000000
 a24:	74610074 	strbtvc	r0, [r1], #-116	; 0x74
 a28:	6573755f 	ldrbvs	r7, [r3, #-1375]!	; 0x55f
 a2c:	656c5f72 	strbvs	r5, [ip, #-3954]!	; 0xf72
 a30:	006c6576 	rsbeq	r6, ip, r6, ror r5
 a34:	505f4d50 	subspl	r4, pc, r0, asr sp	; <UNPREDICTABLE>
 a38:	57535341 	ldrbpl	r5, [r3, -r1, asr #6]
 a3c:	0044524f 	subeq	r5, r4, pc, asr #4
 a40:	34317363 	ldrtcc	r7, [r1], #-867	; 0x363
 a44:	732d6530 	teqvc	sp, #48, 10	; 0xc000000
 a48:	722f6372 	eorvc	r6, pc, #-939524095	; 0xc8000001
 a4c:	6f6f6265 	svcvs	0x006f6265
 a50:	00632e74 	rsbeq	r2, r3, r4, ror lr
 a54:	525f4d50 	subspl	r4, pc, #80, 26	; 0x1400
 a58:	5f435453 	svcpl	0x00435453
 a5c:	46435257 			; <UNDEFINED> instruction: 0x46435257
 a60:	55465f47 	strbpl	r5, [r6, #-3911]	; 0xf47
 a64:	525f4c4c 	subspl	r4, pc, #76, 24	; 0x4c00
 a68:	54455345 	strbpl	r5, [r5], #-837	; 0x345
 a6c:	5f4d5000 	svcpl	0x004d5000
 a70:	474f4457 	smlsldmi	r4, pc, r7, r4	; <UNPREDICTABLE>
 a74:	74657300 	strbtvc	r7, [r5], #-768	; 0x300
 a78:	6573755f 	ldrbvs	r7, [r3, #-1375]!	; 0x55f
 a7c:	656c5f72 	strbvs	r5, [ip, #-3954]!	; 0xf72
 a80:	006c6576 	rsbeq	r6, ip, r6, ror r5
 a84:	33545550 	cmpcc	r4, #80, 10	; 0x14000000
 a88:	4d500032 	ldclmi	0, cr0, [r0, #-200]	; 0xffffff38
 a8c:	5453525f 	ldrbpl	r5, [r3], #-607	; 0x25f
 a90:	70630043 	rsbvc	r0, r3, r3, asr #32
 a94:	74007273 	strvc	r7, [r0], #-627	; 0x273
 a98:	72656d69 	rsbvc	r6, r5, #6720	; 0x1a40
 a9c:	7465675f 	strbtvc	r6, [r5], #-1887	; 0x75f
 aa0:	6573755f 	ldrbvs	r7, [r3, #-1375]!	; 0x55f
 aa4:	61725f63 	cmnvs	r2, r3, ror #30
 aa8:	65640077 	strbvs	r0, [r4, #-119]!	; 0x77
 aac:	5f79616c 	svcpl	0x0079616c
 ab0:	00636573 	rsbeq	r6, r3, r3, ror r5
 ab4:	34317363 	ldrtcc	r7, [r1], #-867	; 0x363
 ab8:	732d6530 	teqvc	sp, #48, 10	; 0xc000000
 abc:	742f6372 	strtvc	r6, [pc], #-882	; ac4 <_start-0x753c>
 ac0:	72656d69 	rsbvc	r6, r5, #6720	; 0x1a40
 ac4:	4700632e 	strmi	r6, [r0, -lr, lsr #6]
 ac8:	32335445 	eorscc	r5, r3, #1157627904	; 0x45000000
 acc:	63697400 	cmnvs	r9, #0, 8
 ad0:	6400736b 	strvs	r7, [r0], #-875	; 0x36b
 ad4:	79616c65 	stmdbvc	r1!, {r0, r2, r5, r6, sl, fp, sp, lr}^
 ad8:	6379635f 	cmnvs	r9, #2080374785	; 0x7c000001
 adc:	0073656c 	rsbseq	r6, r3, ip, ror #10
 ae0:	656d6974 	strbvs	r6, [sp, #-2420]!	; 0x974
 ae4:	65675f72 	strbvs	r5, [r7, #-3954]!	; 0xf72
 ae8:	73755f74 	cmnvc	r5, #116, 30	; 0x1d0
 aec:	67006365 	strvs	r6, [r0, -r5, ror #6]
 af0:	5f6f6970 	svcpl	0x006f6970
 af4:	6e657665 	cdpvs	6, 6, cr7, cr5, cr5, {3}
 af8:	65645f74 	strbvs	r5, [r4, #-3956]!	; 0xf74
 afc:	74636574 	strbtvc	r6, [r3], #-1396	; 0x574
 b00:	47006465 	strmi	r6, [r0, -r5, ror #8]
 b04:	45534650 	ldrbmi	r4, [r3, #-1616]	; 0x650
 b08:	4700324c 	strmi	r3, [r0, -ip, asr #4]
 b0c:	524c4350 	subpl	r4, ip, #80, 6	; 0x40000001
 b10:	4e450030 	mcrmi	0, 2, r0, cr5, cr0, {1}
 b14:	454c4241 	strbmi	r4, [ip, #-577]	; 0x241
 b18:	5152495f 	cmppl	r2, pc, asr r9
 b1c:	00325f53 	eorseq	r5, r2, r3, asr pc
 b20:	675f7369 	ldrbvs	r7, [pc, -r9, ror #6]
 b24:	5f6f6970 	svcpl	0x006f6970
 b28:	00746e69 	rsbseq	r6, r4, r9, ror #28
 b2c:	6f697067 	svcvs	0x00697067
 b30:	7465735f 	strbtvc	r7, [r5], #-863	; 0x35f
 b34:	66666f5f 	uqsaxvs	r6, r6, pc	; <UNPREDICTABLE>
 b38:	2d796d00 	ldclcs	13, cr6, [r9, #-0]
 b3c:	2f637273 	svccs	0x00637273
 b40:	6f697067 	svcvs	0x00697067
 b44:	6900632e 	stmdbvs	r0, {r1, r2, r3, r5, r8, r9, sp, lr}
 b48:	6d5f746e 	cfldrdvs	mvd7, [pc, #-440]	; 998 <_start-0x7668>
 b4c:	006b7361 	rsbeq	r7, fp, r1, ror #6
 b50:	45535047 	ldrbmi	r5, [r3, #-71]	; 0x47
 b54:	47003054 	smlsdmi	r0, r4, r0, r3
 b58:	54455350 	strbpl	r5, [r5], #-848	; 0x350
 b5c:	65720031 	ldrbvs	r0, [r2, #-49]!	; 0x31
 b60:	74735f67 	ldrbtvc	r5, [r3], #-3943	; 0xf67
 b64:	47007461 	strmi	r7, [r0, -r1, ror #8]
 b68:	56454c50 			; <UNDEFINED> instruction: 0x56454c50
 b6c:	50470030 	subpl	r0, r7, r0, lsr r0
 b70:	3156454c 	cmpcc	r6, ip, asr #10
 b74:	69706700 	ldmdbvs	r0!, {r8, r9, sl, sp, lr}^
 b78:	65725f6f 	ldrbvs	r5, [r2, #-3951]!	; 0xf6f
 b7c:	50470067 	subpl	r0, r7, r7, rrx
 b80:	4c455346 	mcrrmi	3, 4, r5, r5, cr6
 b84:	50470030 	subpl	r0, r7, r0, lsr r0
 b88:	4c455346 	mcrrmi	3, 4, r5, r5, cr6
 b8c:	50470031 	subpl	r0, r7, r1, lsr r0
 b90:	4c455346 	mcrrmi	3, 4, r5, r5, cr6
 b94:	50470033 	subpl	r0, r7, r3, lsr r0
 b98:	4c455346 	mcrrmi	3, 4, r5, r5, cr6
 b9c:	50470034 	subpl	r0, r7, r4, lsr r0
 ba0:	4c455346 	mcrrmi	3, 4, r5, r5, cr6
 ba4:	70670035 	rsbvc	r0, r7, r5, lsr r0
 ba8:	665f6f69 	ldrbvs	r6, [pc], -r9, ror #30
 bac:	306c6573 	rsbcc	r6, ip, r3, ror r5
 bb0:	43504700 	cmpmi	r0, #0, 14
 bb4:	0031524c 	eorseq	r5, r1, ip, asr #4
 bb8:	6f697067 	svcvs	0x00697067
 bbc:	6165725f 	cmnvs	r5, pc, asr r2
 bc0:	70670064 	rsbvc	r0, r7, r4, rrx
 bc4:	695f6f69 	ldmdbvs	pc, {r0, r3, r5, r6, r8, r9, sl, fp, sp, lr}^	; <UNPREDICTABLE>
 bc8:	725f746e 	subsvc	r7, pc, #1845493760	; 0x6e000000
 bcc:	6e697369 	cdpvs	3, 6, cr7, cr9, cr9, {3}
 bd0:	64655f67 	strbtvs	r5, [r5], #-3943	; 0xf67
 bd4:	47006567 	strmi	r6, [r0, -r7, ror #10]
 bd8:	4e455250 	mcrmi	2, 2, r5, cr5, cr0, {2}
 bdc:	50470030 	subpl	r0, r7, r0, lsr r0
 be0:	314e4552 	cmpcc	lr, r2, asr r5
 be4:	69706700 	ldmdbvs	r0!, {r8, r9, sl, sp, lr}^
 be8:	76655f6f 	strbtvc	r5, [r5], -pc, ror #30
 bec:	5f746e65 	svcpl	0x00746e65
 bf0:	61656c63 	cmnvs	r5, r3, ror #24
 bf4:	52490072 	subpl	r0, r9, #114	; 0x72
 bf8:	45505f51 	ldrbmi	r5, [r0, #-3921]	; 0xf51
 bfc:	4e49444e 	cdpmi	4, 4, cr4, cr9, cr14, {2}
 c00:	00315f47 	eorseq	r5, r1, r7, asr #30
 c04:	5f515249 	svcpl	0x00515249
 c08:	444e4550 	strbmi	r4, [lr], #-1360	; 0x550
 c0c:	5f474e49 	svcpl	0x00474e49
 c10:	69620032 	stmdbvs	r2!, {r1, r4, r5}^
 c14:	73616d74 	cmnvc	r1, #116, 26	; 0x1d00
 c18:	7067006b 	rsbvc	r0, r7, fp, rrx
 c1c:	775f6f69 	ldrbvc	r6, [pc, -r9, ror #30]
 c20:	65746972 	ldrbvs	r6, [r4, #-2418]!	; 0x972
 c24:	69706700 	ldmdbvs	r0!, {r8, r9, sl, sp, lr}^
 c28:	65735f6f 	ldrbvs	r5, [r3, #-3951]!	; 0xf6f
 c2c:	67003074 	smlsdxvs	r0, r4, r0, r3
 c30:	5f6f6970 	svcpl	0x006f6970
 c34:	5f746573 	svcpl	0x00746573
 c38:	75706e69 	ldrbvc	r6, [r0, #-3689]!	; 0xe69
 c3c:	70670074 	rsbvc	r0, r7, r4, ror r0
 c40:	745f6f69 	ldrbvc	r6, [pc], #-3945	; c48 <_start-0x73b8>
 c44:	6c67676f 	stclvs	7, cr6, [r7], #-444	; 0xfffffe44
 c48:	50470065 	subpl	r0, r7, r5, rrx
 c4c:	30534445 	subscc	r4, r3, r5, asr #8
 c50:	45504700 	ldrbmi	r4, [r0, #-1792]	; 0x700
 c54:	00315344 	eorseq	r5, r1, r4, asr #6
 c58:	6f697067 	svcvs	0x00697067
 c5c:	7465735f 	strbtvc	r7, [r5], #-863	; 0x35f
 c60:	006e6f5f 	rsbeq	r6, lr, pc, asr pc
 c64:	45465047 	strbmi	r5, [r6, #-71]	; 0x47
 c68:	4700304e 	strmi	r3, [r0, -lr, asr #32]
 c6c:	4e454650 	mcrmi	6, 2, r4, cr5, cr0, {2}
 c70:	70670031 	rsbvc	r0, r7, r1, lsr r0
 c74:	735f6f69 	cmpvc	pc, #420	; 0x1a4
 c78:	6f5f7465 	svcvs	0x005f7465
 c7c:	75707475 	ldrbvc	r7, [r0, #-1141]!	; 0x475
 c80:	70670074 	rsbvc	r0, r7, r4, ror r0
 c84:	695f6f69 	ldmdbvs	pc, {r0, r3, r5, r6, r8, r9, sl, fp, sp, lr}^	; <UNPREDICTABLE>
 c88:	665f746e 	ldrbvs	r7, [pc], -lr, ror #8
 c8c:	696c6c61 	stmdbvs	ip!, {r0, r5, r6, sl, fp, sp, lr}^
 c90:	655f676e 	ldrbvs	r6, [pc, #-1902]	; 52a <_start-0x7ad6>
 c94:	00656764 	rsbeq	r6, r5, r4, ror #14
 c98:	6f697067 	svcvs	0x00697067
 c9c:	6e75665f 	mrcvs	6, 3, r6, cr5, cr15, {2}
 ca0:	00745f63 	rsbseq	r5, r4, r3, ror #30
 ca4:	5f676572 	svcpl	0x00676572
 ca8:	656c6573 	strbvs	r6, [ip, #-1395]!	; 0x573
 cac:	67007463 	strvs	r7, [r0, -r3, ror #8]
 cb0:	5f6f6970 	svcpl	0x006f6970
 cb4:	30726c63 	rsbscc	r6, r2, r3, ror #24
 cb8:	58554100 	ldmdapl	r5, {r8, lr}^
 cbc:	5f554d5f 	svcpl	0x00554d5f
 cc0:	5f52434d 	svcpl	0x0052434d
 cc4:	00474552 	subeq	r4, r7, r2, asr r5
 cc8:	5f585541 	svcpl	0x00585541
 ccc:	495f554d 	ldmdbmi	pc, {r0, r2, r3, r6, r8, sl, ip, lr}^	; <UNPREDICTABLE>
 cd0:	45525f4f 	ldrbmi	r5, [r2, #-3919]	; 0xf4f
 cd4:	55410047 	strbpl	r0, [r1, #-71]	; 0x47
 cd8:	554d5f58 	strbpl	r5, [sp, #-3928]	; 0xf58
 cdc:	52534d5f 	subspl	r4, r3, #6080	; 0x17c0
 ce0:	4745525f 	smlsldmi	r5, r5, pc, r2	; <UNPREDICTABLE>
 ce4:	72617500 	rsbvc	r7, r1, #0, 10
 ce8:	61635f74 	smcvs	13812	; 0x35f4
 cec:	65675f6e 	strbvs	r5, [r7, #-3950]!	; 0xf6e
 cf0:	41006374 	tstmi	r0, r4, ror r3
 cf4:	4d5f5855 	ldclmi	8, cr5, [pc, #-340]	; ba8 <_start-0x7458>
 cf8:	4e435f55 	mcrmi	15, 2, r5, cr3, cr5, {2}
 cfc:	525f4c54 	subspl	r4, pc, #84, 24	; 0x5400
 d00:	75004745 	strvc	r4, [r0, #-1861]	; 0x745
 d04:	5f747261 	svcpl	0x00747261
 d08:	5f736168 	svcpl	0x00736168
 d0c:	61746164 	cmnvs	r4, r4, ror #2
 d10:	58554100 	ldmdapl	r5, {r8, lr}^
 d14:	5f554d5f 	svcpl	0x00554d5f
 d18:	5f524549 	svcpl	0x00524549
 d1c:	00474552 	subeq	r4, r7, r2, asr r5
 d20:	74726175 	ldrbtvc	r6, [r2], #-373	; 0x175
 d24:	7465675f 	strbtvc	r6, [r5], #-1887	; 0x75f
 d28:	55410063 	strbpl	r0, [r1, #-99]	; 0x63
 d2c:	554d5f58 	strbpl	r5, [sp, #-3928]	; 0xf58
 d30:	5249495f 	subpl	r4, r9, #1556480	; 0x17c000
 d34:	4745525f 	smlsldmi	r5, r5, pc, r2	; <UNPREDICTABLE>
 d38:	72617500 	rsbvc	r7, r1, #0, 10
 d3c:	61635f74 	smcvs	13812	; 0x35f4
 d40:	75705f6e 	ldrbvc	r5, [r0, #-3950]!	; 0xf6e
 d44:	41006374 	tstmi	r0, r4, ror r3
 d48:	455f5855 	ldrbmi	r5, [pc, #-2133]	; 4fb <_start-0x7b05>
 d4c:	4c42414e 	stfmie	f4, [r2], {78}	; 0x4e
 d50:	41005345 	tstmi	r0, r5, asr #6
 d54:	495f5855 	ldmdbmi	pc, {r0, r2, r4, r6, fp, ip, lr}^	; <UNPREDICTABLE>
 d58:	41005152 	tstmi	r0, r2, asr r1
 d5c:	4d5f5855 	ldclmi	8, cr5, [pc, #-340]	; c10 <_start-0x73f0>
 d60:	41425f55 	cmpmi	r2, r5, asr pc
 d64:	525f4455 	subspl	r4, pc, #1426063360	; 0x55000000
 d68:	41004745 	tstmi	r0, r5, asr #14
 d6c:	4d5f5855 	ldclmi	8, cr5, [pc, #-340]	; c20 <_start-0x73e0>
 d70:	54535f55 	ldrbpl	r5, [r3], #-3925	; 0xf55
 d74:	525f5441 	subspl	r5, pc, #1090519040	; 0x41000000
 d78:	41004745 	tstmi	r0, r5, asr #14
 d7c:	4d5f5855 	ldclmi	8, cr5, [pc, #-340]	; c30 <_start-0x73d0>
 d80:	43535f55 	cmpmi	r3, #340	; 0x154
 d84:	43544152 	cmpmi	r4, #-2147483628	; 0x80000014
 d88:	796d0048 	stmdbvc	sp!, {r3, r6}^
 d8c:	6372732d 	cmnvs	r2, #-1275068416	; 0xb4000000
 d90:	7261752f 	rsbvc	r7, r1, #197132288	; 0xbc00000
 d94:	00632e74 	rsbeq	r2, r3, r4, ror lr
 d98:	5f585541 	svcpl	0x00585541
 d9c:	4c5f554d 	cfldr64mi	mvdx5, [pc], {77}	; 0x4d
 da0:	525f5243 	subspl	r5, pc, #805306372	; 0x30000004
 da4:	41004745 	tstmi	r0, r5, asr #14
 da8:	4d5f5855 	ldclmi	8, cr5, [pc, #-340]	; c5c <_start-0x73a4>
 dac:	534c5f55 	movtpl	r5, #53077	; 0xcf55
 db0:	45525f52 	ldrbmi	r5, [r2, #-3922]	; 0xf52
 db4:	61750047 	cmnvs	r5, r7, asr #32
 db8:	675f7472 			; <UNDEFINED> instruction: 0x675f7472
 dbc:	5f637465 	svcpl	0x00637465
 dc0:	6e797361 	cdpvs	3, 7, cr7, cr9, cr1, {3}
 dc4:	Address 0x0000000000000dc4 is out of bounds.


Disassembly of section .debug_frame:

00000000 <.debug_frame>:
   0:	0000000c 	andeq	r0, r0, ip
   4:	ffffffff 			; <UNDEFINED> instruction: 0xffffffff
   8:	7c020001 	stcvc	0, cr0, [r2], {1}
   c:	000d0c0e 	andeq	r0, sp, lr, lsl #24
  10:	00000018 	andeq	r0, r0, r8, lsl r0
  14:	00000000 	andeq	r0, r0, r0
  18:	00008010 	andeq	r8, r0, r0, lsl r0
  1c:	0000004c 	andeq	r0, r0, ip, asr #32
  20:	84080e42 	strhi	r0, [r8], #-3650	; 0xe42
  24:	42018e02 	andmi	r8, r1, #2, 28
  28:	0000100e 	andeq	r1, r0, lr
  2c:	00000018 	andeq	r0, r0, r8, lsl r0
  30:	00000000 	andeq	r0, r0, r0
  34:	0000805c 	andeq	r8, r0, ip, asr r0
  38:	00000050 	andeq	r0, r0, r0, asr r0
  3c:	84080e42 	strhi	r0, [r8], #-3650	; 0xe42
  40:	42018e02 	andmi	r8, r1, #2, 28
  44:	0000100e 	andeq	r1, r0, lr
  48:	00000014 	andeq	r0, r0, r4, lsl r0
  4c:	00000000 	andeq	r0, r0, r0
  50:	000080ac 	andeq	r8, r0, ip, lsr #1
  54:	00000028 	andeq	r0, r0, r8, lsr #32
  58:	8e040e42 	cdphi	14, 0, cr0, cr4, cr2, {2}
  5c:	100e4201 	andne	r4, lr, r1, lsl #4
  60:	0000001c 	andeq	r0, r0, ip, lsl r0
  64:	00000000 	andeq	r0, r0, r0
  68:	000080d4 	ldrdeq	r8, [r0], -r4
  6c:	00000180 	andeq	r0, r0, r0, lsl #3
  70:	84180e42 	ldrhi	r0, [r8], #-3650	; 0xe42
  74:	86058506 	strhi	r8, [r5], -r6, lsl #10
  78:	88038704 	stmdahi	r3, {r2, r8, r9, sl, pc}
  7c:	00018e02 	andeq	r8, r1, r2, lsl #28
  80:	0000000c 	andeq	r0, r0, ip
  84:	ffffffff 			; <UNDEFINED> instruction: 0xffffffff
  88:	7c020001 	stcvc	0, cr0, [r2], {1}
  8c:	000d0c0e 	andeq	r0, sp, lr, lsl #24
  90:	0000000c 	andeq	r0, r0, ip
  94:	00000080 	andeq	r0, r0, r0, lsl #1
  98:	00008254 	andeq	r8, r0, r4, asr r2
  9c:	00000014 	andeq	r0, r0, r4, lsl r0
  a0:	0000000c 	andeq	r0, r0, ip
  a4:	00000080 	andeq	r0, r0, r0, lsl #1
  a8:	00008268 	andeq	r8, r0, r8, ror #4
  ac:	0000000c 	andeq	r0, r0, ip
  b0:	00000014 	andeq	r0, r0, r4, lsl r0
  b4:	00000080 	andeq	r0, r0, r0, lsl #1
  b8:	00008274 	andeq	r8, r0, r4, ror r2
  bc:	00000008 	andeq	r0, r0, r8
  c0:	8e040e42 	cdphi	14, 0, cr0, cr4, cr2, {2}
  c4:	00000001 	andeq	r0, r0, r1
  c8:	00000014 	andeq	r0, r0, r4, lsl r0
  cc:	00000080 	andeq	r0, r0, r0, lsl #1
  d0:	0000827c 	andeq	r8, r0, ip, ror r2
  d4:	000000f4 	strdeq	r0, [r0], -r4
  d8:	84080e42 	strhi	r0, [r8], #-3650	; 0xe42
  dc:	00018e02 	andeq	r8, r1, r2, lsl #28
  e0:	00000014 	andeq	r0, r0, r4, lsl r0
  e4:	00000080 	andeq	r0, r0, r0, lsl #1
  e8:	00008370 	andeq	r8, r0, r0, ror r3
  ec:	00000010 	andeq	r0, r0, r0, lsl r0
  f0:	84080e42 	strhi	r0, [r8], #-3650	; 0xe42
  f4:	00018e02 	andeq	r8, r1, r2, lsl #28
  f8:	00000014 	andeq	r0, r0, r4, lsl r0
  fc:	00000080 	andeq	r0, r0, r0, lsl #1
 100:	00008380 	andeq	r8, r0, r0, lsl #7
 104:	00000028 	andeq	r0, r0, r8, lsr #32
 108:	84080e42 	strhi	r0, [r8], #-3650	; 0xe42
 10c:	00018e02 	andeq	r8, r1, r2, lsl #28
 110:	00000014 	andeq	r0, r0, r4, lsl r0
 114:	00000080 	andeq	r0, r0, r0, lsl #1
 118:	000083a8 	andeq	r8, r0, r8, lsr #7
 11c:	00000010 	andeq	r0, r0, r0, lsl r0
 120:	84080e42 	strhi	r0, [r8], #-3650	; 0xe42
 124:	00018e02 	andeq	r8, r1, r2, lsl #28
 128:	00000018 	andeq	r0, r0, r8, lsl r0
 12c:	00000080 	andeq	r0, r0, r0, lsl #1
 130:	000083b8 			; <UNDEFINED> instruction: 0x000083b8
 134:	000001cc 	andeq	r0, r0, ip, asr #3
 138:	84100e42 	ldrhi	r0, [r0], #-3650	; 0xe42
 13c:	86038504 	strhi	r8, [r3], -r4, lsl #10
 140:	00018e02 	andeq	r8, r1, r2, lsl #28
 144:	00000018 	andeq	r0, r0, r8, lsl r0
 148:	00000080 	andeq	r0, r0, r0, lsl #1
 14c:	00008584 	andeq	r8, r0, r4, lsl #11
 150:	000000c4 	andeq	r0, r0, r4, asr #1
 154:	84100e42 	ldrhi	r0, [r0], #-3650	; 0xe42
 158:	86038504 	strhi	r8, [r3], -r4, lsl #10
 15c:	00018e02 	andeq	r8, r1, r2, lsl #28
 160:	00000018 	andeq	r0, r0, r8, lsl r0
 164:	00000080 	andeq	r0, r0, r0, lsl #1
 168:	00008648 	andeq	r8, r0, r8, asr #12
 16c:	000000c4 	andeq	r0, r0, r4, asr #1
 170:	84100e42 	ldrhi	r0, [r0], #-3650	; 0xe42
 174:	86038504 	strhi	r8, [r3], -r4, lsl #10
 178:	00018e02 	andeq	r8, r1, r2, lsl #28
 17c:	0000000c 	andeq	r0, r0, ip
 180:	00000080 	andeq	r0, r0, r0, lsl #1
 184:	0000870c 	andeq	r8, r0, ip, lsl #14
 188:	00000010 	andeq	r0, r0, r0, lsl r0
 18c:	00000014 	andeq	r0, r0, r4, lsl r0
 190:	00000080 	andeq	r0, r0, r0, lsl #1
 194:	0000871c 	andeq	r8, r0, ip, lsl r7
 198:	00000094 	muleq	r0, r4, r0
 19c:	84080e42 	strhi	r0, [r8], #-3650	; 0xe42
 1a0:	00018e02 	andeq	r8, r1, r2, lsl #28
 1a4:	00000014 	andeq	r0, r0, r4, lsl r0
 1a8:	00000080 	andeq	r0, r0, r0, lsl #1
 1ac:	000087b0 			; <UNDEFINED> instruction: 0x000087b0
 1b0:	00000018 	andeq	r0, r0, r8, lsl r0
 1b4:	84080e42 	strhi	r0, [r8], #-3650	; 0xe42
 1b8:	00018e02 	andeq	r8, r1, r2, lsl #28
 1bc:	0000000c 	andeq	r0, r0, ip
 1c0:	ffffffff 			; <UNDEFINED> instruction: 0xffffffff
 1c4:	7c020001 	stcvc	0, cr0, [r2], {1}
 1c8:	000d0c0e 	andeq	r0, sp, lr, lsl #24
 1cc:	00000024 	andeq	r0, r0, r4, lsr #32
 1d0:	000001bc 			; <UNDEFINED> instruction: 0x000001bc
 1d4:	000087c8 	andeq	r8, r0, r8, asr #15
 1d8:	00000058 	andeq	r0, r0, r8, asr r0
 1dc:	80100e42 	andshi	r0, r0, r2, asr #28
 1e0:	82038104 	andhi	r8, r3, #4, 2
 1e4:	42018302 	andmi	r8, r1, #134217728	; 0x8000000
 1e8:	07841c0e 	streq	r1, [r4, lr, lsl #24]
 1ec:	058e0685 	streq	r0, [lr, #1669]	; 0x685
 1f0:	00280e42 	eoreq	r0, r8, r2, asr #28
 1f4:	0000000c 	andeq	r0, r0, ip
 1f8:	ffffffff 			; <UNDEFINED> instruction: 0xffffffff
 1fc:	7c020001 	stcvc	0, cr0, [r2], {1}
 200:	000d0c0e 	andeq	r0, sp, lr, lsl #24
 204:	00000014 	andeq	r0, r0, r4, lsl r0
 208:	000001f4 	strdeq	r0, [r0], -r4
 20c:	00008820 	andeq	r8, r0, r0, lsr #16
 210:	00000014 	andeq	r0, r0, r4, lsl r0
 214:	84080e42 	strhi	r0, [r8], #-3650	; 0xe42
 218:	00018e02 	andeq	r8, r1, r2, lsl #28
 21c:	0000000c 	andeq	r0, r0, ip
 220:	000001f4 	strdeq	r0, [r0], -r4
 224:	00008834 	andeq	r8, r0, r4, lsr r8
 228:	00000018 	andeq	r0, r0, r8, lsl r0
 22c:	0000000c 	andeq	r0, r0, ip
 230:	000001f4 	strdeq	r0, [r0], -r4
 234:	0000884c 	andeq	r8, r0, ip, asr #16
 238:	00000010 	andeq	r0, r0, r0, lsl r0
 23c:	0000000c 	andeq	r0, r0, ip
 240:	ffffffff 			; <UNDEFINED> instruction: 0xffffffff
 244:	7c020001 	stcvc	0, cr0, [r2], {1}
 248:	000d0c0e 	andeq	r0, sp, lr, lsl #24
 24c:	00000018 	andeq	r0, r0, r8, lsl r0
 250:	0000023c 	andeq	r0, r0, ip, lsr r2
 254:	0000885c 	andeq	r8, r0, ip, asr r8
 258:	00000034 	andeq	r0, r0, r4, lsr r0
 25c:	83100e42 	tsthi	r0, #1056	; 0x420
 260:	85038404 	strhi	r8, [r3, #-1028]	; 0x404
 264:	00018e02 	andeq	r8, r1, r2, lsl #28
 268:	0000000c 	andeq	r0, r0, ip
 26c:	ffffffff 			; <UNDEFINED> instruction: 0xffffffff
 270:	7c020001 	stcvc	0, cr0, [r2], {1}
 274:	000d0c0e 	andeq	r0, sp, lr, lsl #24
 278:	0000000c 	andeq	r0, r0, ip
 27c:	00000268 	andeq	r0, r0, r8, ror #4
 280:	00008890 	muleq	r0, r0, r8
 284:	00000014 	andeq	r0, r0, r4, lsl r0
 288:	0000000c 	andeq	r0, r0, ip
 28c:	00000268 	andeq	r0, r0, r8, ror #4
 290:	000088a4 	andeq	r8, r0, r4, lsr #17
 294:	0000002c 	andeq	r0, r0, ip, lsr #32
 298:	0000000c 	andeq	r0, r0, ip
 29c:	00000268 	andeq	r0, r0, r8, ror #4
 2a0:	000088d0 	ldrdeq	r8, [r0], -r0
 2a4:	00000040 	andeq	r0, r0, r0, asr #32
 2a8:	00000020 	andeq	r0, r0, r0, lsr #32
 2ac:	00000268 	andeq	r0, r0, r8, ror #4
 2b0:	00008910 	andeq	r8, r0, r0, lsl r9
 2b4:	0000019c 	muleq	r0, ip, r1
 2b8:	84180e42 	ldrhi	r0, [r8], #-3650	; 0xe42
 2bc:	86058506 	strhi	r8, [r5], -r6, lsl #10
 2c0:	88038704 	stmdahi	r3, {r2, r8, r9, sl, pc}
 2c4:	42018e02 	andmi	r8, r1, #2, 28
 2c8:	0000580e 	andeq	r5, r0, lr, lsl #16
 2cc:	00000014 	andeq	r0, r0, r4, lsl r0
 2d0:	00000268 	andeq	r0, r0, r8, ror #4
 2d4:	00008aac 	andeq	r8, r0, ip, lsr #21
 2d8:	00000054 	andeq	r0, r0, r4, asr r0
 2dc:	83080e42 	movwhi	r0, #36418	; 0x8e42
 2e0:	00018e02 	andeq	r8, r1, r2, lsl #28
 2e4:	00000028 	andeq	r0, r0, r8, lsr #32
 2e8:	00000268 	andeq	r0, r0, r8, ror #4
 2ec:	00008b00 	andeq	r8, r0, r0, lsl #22
 2f0:	00000288 	andeq	r0, r0, r8, lsl #5
 2f4:	84240e42 	strthi	r0, [r4], #-3650	; 0xe42
 2f8:	86088509 	strhi	r8, [r8], -r9, lsl #10
 2fc:	88068707 	stmdahi	r6, {r0, r1, r2, r8, r9, sl, pc}
 300:	8a048905 	bhi	12271c <__bss_end__+0x118804>
 304:	8e028b03 	vmlahi.f64	d8, d2, d3
 308:	b00e4201 	andlt	r4, lr, r1, lsl #4
 30c:	00000001 	andeq	r0, r0, r1
 310:	0000000c 	andeq	r0, r0, ip
 314:	ffffffff 			; <UNDEFINED> instruction: 0xffffffff
 318:	7c020001 	stcvc	0, cr0, [r2], {1}
 31c:	000d0c0e 	andeq	r0, sp, lr, lsl #24
 320:	00000014 	andeq	r0, r0, r4, lsl r0
 324:	00000310 	andeq	r0, r0, r0, lsl r3
 328:	00008d88 	andeq	r8, r0, r8, lsl #27
 32c:	00000028 	andeq	r0, r0, r8, lsr #32
 330:	83080e42 	movwhi	r0, #36418	; 0x8e42
 334:	00018e02 	andeq	r8, r1, r2, lsl #28
 338:	0000000c 	andeq	r0, r0, ip
 33c:	ffffffff 			; <UNDEFINED> instruction: 0xffffffff
 340:	7c020001 	stcvc	0, cr0, [r2], {1}
 344:	000d0c0e 	andeq	r0, sp, lr, lsl #24
 348:	00000014 	andeq	r0, r0, r4, lsl r0
 34c:	00000338 	andeq	r0, r0, r8, lsr r3
 350:	00008db0 			; <UNDEFINED> instruction: 0x00008db0
 354:	00000034 	andeq	r0, r0, r4, lsr r0
 358:	83080e42 	movwhi	r0, #36418	; 0x8e42
 35c:	00018e02 	andeq	r8, r1, r2, lsl #28
 360:	0000000c 	andeq	r0, r0, ip
 364:	ffffffff 			; <UNDEFINED> instruction: 0xffffffff
 368:	7c020001 	stcvc	0, cr0, [r2], {1}
 36c:	000d0c0e 	andeq	r0, sp, lr, lsl #24
 370:	0000000c 	andeq	r0, r0, ip
 374:	00000360 	andeq	r0, r0, r0, ror #6
 378:	00008de4 	andeq	r8, r0, r4, ror #27
 37c:	00000018 	andeq	r0, r0, r8, lsl r0
 380:	0000000c 	andeq	r0, r0, ip
 384:	00000360 	andeq	r0, r0, r0, ror #6
 388:	00008dfc 	strdeq	r8, [r0], -ip
 38c:	00000014 	andeq	r0, r0, r4, lsl r0
 390:	00000014 	andeq	r0, r0, r4, lsl r0
 394:	00000360 	andeq	r0, r0, r0, ror #6
 398:	00008e10 	andeq	r8, r0, r0, lsl lr
 39c:	00000048 	andeq	r0, r0, r8, asr #32
 3a0:	83080e42 	movwhi	r0, #36418	; 0x8e42
 3a4:	00018e02 	andeq	r8, r1, r2, lsl #28
 3a8:	0000000c 	andeq	r0, r0, ip
 3ac:	ffffffff 			; <UNDEFINED> instruction: 0xffffffff
 3b0:	7c020001 	stcvc	0, cr0, [r2], {1}
 3b4:	000d0c0e 	andeq	r0, sp, lr, lsl #24
 3b8:	0000000c 	andeq	r0, r0, ip
 3bc:	000003a8 	andeq	r0, r0, r8, lsr #7
 3c0:	00008e58 	andeq	r8, r0, r8, asr lr
 3c4:	0000001c 	andeq	r0, r0, ip, lsl r0
 3c8:	00000014 	andeq	r0, r0, r4, lsl r0
 3cc:	000003a8 	andeq	r0, r0, r8, lsr #7
 3d0:	00008e74 	andeq	r8, r0, r4, ror lr
 3d4:	00000014 	andeq	r0, r0, r4, lsl r0
 3d8:	83080e42 	movwhi	r0, #36418	; 0x8e42
 3dc:	00018e02 	andeq	r8, r1, r2, lsl #28
 3e0:	00000014 	andeq	r0, r0, r4, lsl r0
 3e4:	000003a8 	andeq	r0, r0, r8, lsr #7
 3e8:	00008e88 	andeq	r8, r0, r8, lsl #29
 3ec:	0000000c 	andeq	r0, r0, ip
 3f0:	83080e42 	movwhi	r0, #36418	; 0x8e42
 3f4:	00018e02 	andeq	r8, r1, r2, lsl #28
 3f8:	00000018 	andeq	r0, r0, r8, lsl r0
 3fc:	000003a8 	andeq	r0, r0, r8, lsr #7
 400:	00008e94 	muleq	r0, r4, lr
 404:	00000024 	andeq	r0, r0, r4, lsr #32
 408:	83100e42 	tsthi	r0, #1056	; 0x420
 40c:	85038404 	strhi	r8, [r3, #-1028]	; 0x404
 410:	00018e02 	andeq	r8, r1, r2, lsl #28
 414:	00000014 	andeq	r0, r0, r4, lsl r0
 418:	000003a8 	andeq	r0, r0, r8, lsr #7
 41c:	00008eb8 			; <UNDEFINED> instruction: 0x00008eb8
 420:	00000014 	andeq	r0, r0, r4, lsl r0
 424:	83080e42 	movwhi	r0, #36418	; 0x8e42
 428:	00018e02 	andeq	r8, r1, r2, lsl #28
 42c:	00000014 	andeq	r0, r0, r4, lsl r0
 430:	000003a8 	andeq	r0, r0, r8, lsr #7
 434:	00008ecc 	andeq	r8, r0, ip, asr #29
 438:	00000014 	andeq	r0, r0, r4, lsl r0
 43c:	83080e42 	movwhi	r0, #36418	; 0x8e42
 440:	00018e02 	andeq	r8, r1, r2, lsl #28
 444:	0000000c 	andeq	r0, r0, ip
 448:	ffffffff 			; <UNDEFINED> instruction: 0xffffffff
 44c:	7c020001 	stcvc	0, cr0, [r2], {1}
 450:	000d0c0e 	andeq	r0, sp, lr, lsl #24
 454:	00000018 	andeq	r0, r0, r8, lsl r0
 458:	00000444 	andeq	r0, r0, r4, asr #8
 45c:	00008ee0 	andeq	r8, r0, r0, ror #29
 460:	000000d4 	ldrdeq	r0, [r0], -r4
 464:	83100e42 	tsthi	r0, #1056	; 0x420
 468:	85038404 	strhi	r8, [r3, #-1028]	; 0x404
 46c:	00018e02 	andeq	r8, r1, r2, lsl #28
 470:	00000014 	andeq	r0, r0, r4, lsl r0
 474:	00000444 	andeq	r0, r0, r4, asr #8
 478:	00008fb4 			; <UNDEFINED> instruction: 0x00008fb4
 47c:	00000038 	andeq	r0, r0, r8, lsr r0
 480:	83080e42 	movwhi	r0, #36418	; 0x8e42
 484:	00018e02 	andeq	r8, r1, r2, lsl #28
 488:	00000014 	andeq	r0, r0, r4, lsl r0
 48c:	00000444 	andeq	r0, r0, r4, asr #8
 490:	00008fec 	andeq	r8, r0, ip, ror #31
 494:	00000038 	andeq	r0, r0, r8, lsr r0
 498:	83080e42 	movwhi	r0, #36418	; 0x8e42
 49c:	00018e02 	andeq	r8, r1, r2, lsl #28
 4a0:	00000018 	andeq	r0, r0, r8, lsl r0
 4a4:	00000444 	andeq	r0, r0, r4, asr #8
 4a8:	00009024 	andeq	r9, r0, r4, lsr #32
 4ac:	000000cc 	andeq	r0, r0, ip, asr #1
 4b0:	83100e42 	tsthi	r0, #1056	; 0x420
 4b4:	85038404 	strhi	r8, [r3, #-1028]	; 0x404
 4b8:	00018e02 	andeq	r8, r1, r2, lsl #28
 4bc:	00000014 	andeq	r0, r0, r4, lsl r0
 4c0:	00000444 	andeq	r0, r0, r4, asr #8
 4c4:	000090f0 	strdeq	r9, [r0], -r0
 4c8:	0000004c 	andeq	r0, r0, ip, asr #32
 4cc:	84080e42 	strhi	r0, [r8], #-3650	; 0xe42
 4d0:	00018e02 	andeq	r8, r1, r2, lsl #28
 4d4:	00000014 	andeq	r0, r0, r4, lsl r0
 4d8:	00000444 	andeq	r0, r0, r4, asr #8
 4dc:	0000913c 	andeq	r9, r0, ip, lsr r1
 4e0:	00000024 	andeq	r0, r0, r4, lsr #32
 4e4:	83080e42 	movwhi	r0, #36418	; 0x8e42
 4e8:	00018e02 	andeq	r8, r1, r2, lsl #28
 4ec:	00000018 	andeq	r0, r0, r8, lsl r0
 4f0:	00000444 	andeq	r0, r0, r4, asr #8
 4f4:	00009160 	andeq	r9, r0, r0, ror #2
 4f8:	000000d8 	ldrdeq	r0, [r0], -r8
 4fc:	84100e42 	ldrhi	r0, [r0], #-3650	; 0xe42
 500:	86038504 	strhi	r8, [r3], -r4, lsl #10
 504:	00018e02 	andeq	r8, r1, r2, lsl #28
 508:	00000014 	andeq	r0, r0, r4, lsl r0
 50c:	00000444 	andeq	r0, r0, r4, asr #8
 510:	00009238 	andeq	r9, r0, r8, lsr r2
 514:	00000038 	andeq	r0, r0, r8, lsr r0
 518:	83080e42 	movwhi	r0, #36418	; 0x8e42
 51c:	00018e02 	andeq	r8, r1, r2, lsl #28
 520:	00000014 	andeq	r0, r0, r4, lsl r0
 524:	00000444 	andeq	r0, r0, r4, asr #8
 528:	00009270 	andeq	r9, r0, r0, ror r2
 52c:	0000002c 	andeq	r0, r0, ip, lsr #32
 530:	83080e42 	movwhi	r0, #36418	; 0x8e42
 534:	00018e02 	andeq	r8, r1, r2, lsl #28
 538:	00000018 	andeq	r0, r0, r8, lsl r0
 53c:	00000444 	andeq	r0, r0, r4, asr #8
 540:	0000929c 	muleq	r0, ip, r2
 544:	00000084 	andeq	r0, r0, r4, lsl #1
 548:	83100e42 	tsthi	r0, #1056	; 0x420
 54c:	85038404 	strhi	r8, [r3, #-1028]	; 0x404
 550:	00018e02 	andeq	r8, r1, r2, lsl #28
 554:	00000018 	andeq	r0, r0, r8, lsl r0
 558:	00000444 	andeq	r0, r0, r4, asr #8
 55c:	00009320 	andeq	r9, r0, r0, lsr #6
 560:	00000084 	andeq	r0, r0, r4, lsl #1
 564:	83100e42 	tsthi	r0, #1056	; 0x420
 568:	85038404 	strhi	r8, [r3, #-1028]	; 0x404
 56c:	00018e02 	andeq	r8, r1, r2, lsl #28
 570:	00000014 	andeq	r0, r0, r4, lsl r0
 574:	00000444 	andeq	r0, r0, r4, asr #8
 578:	000093a4 	andeq	r9, r0, r4, lsr #7
 57c:	00000084 	andeq	r0, r0, r4, lsl #1
 580:	84080e42 	strhi	r0, [r8], #-3650	; 0xe42
 584:	00018e02 	andeq	r8, r1, r2, lsl #28
 588:	00000014 	andeq	r0, r0, r4, lsl r0
 58c:	00000444 	andeq	r0, r0, r4, asr #8
 590:	00009428 	andeq	r9, r0, r8, lsr #8
 594:	00000058 	andeq	r0, r0, r8, asr r0
 598:	84080e42 	strhi	r0, [r8], #-3650	; 0xe42
 59c:	00018e02 	andeq	r8, r1, r2, lsl #28
 5a0:	0000000c 	andeq	r0, r0, ip
 5a4:	ffffffff 			; <UNDEFINED> instruction: 0xffffffff
 5a8:	7c020001 	stcvc	0, cr0, [r2], {1}
 5ac:	000d0c0e 	andeq	r0, sp, lr, lsl #24
 5b0:	00000018 	andeq	r0, r0, r8, lsl r0
 5b4:	000005a0 	andeq	r0, r0, r0, lsr #11
 5b8:	00009480 	andeq	r9, r0, r0, lsl #9
 5bc:	0000009c 	muleq	r0, ip, r0
 5c0:	83100e42 	tsthi	r0, #1056	; 0x420
 5c4:	85038404 	strhi	r8, [r3, #-1028]	; 0x404
 5c8:	00018e02 	andeq	r8, r1, r2, lsl #28
 5cc:	00000014 	andeq	r0, r0, r4, lsl r0
 5d0:	000005a0 	andeq	r0, r0, r0, lsr #11
 5d4:	0000951c 	andeq	r9, r0, ip, lsl r5
 5d8:	0000001c 	andeq	r0, r0, ip, lsl r0
 5dc:	83080e42 	movwhi	r0, #36418	; 0x8e42
 5e0:	00018e02 	andeq	r8, r1, r2, lsl #28
 5e4:	00000014 	andeq	r0, r0, r4, lsl r0
 5e8:	000005a0 	andeq	r0, r0, r0, lsr #11
 5ec:	00009538 	andeq	r9, r0, r8, lsr r5
 5f0:	00000028 	andeq	r0, r0, r8, lsr #32
 5f4:	83080e42 	movwhi	r0, #36418	; 0x8e42
 5f8:	00018e02 	andeq	r8, r1, r2, lsl #28
 5fc:	00000014 	andeq	r0, r0, r4, lsl r0
 600:	000005a0 	andeq	r0, r0, r0, lsr #11
 604:	00009560 	andeq	r9, r0, r0, ror #10
 608:	0000001c 	andeq	r0, r0, ip, lsl r0
 60c:	83080e42 	movwhi	r0, #36418	; 0x8e42
 610:	00018e02 	andeq	r8, r1, r2, lsl #28
 614:	00000014 	andeq	r0, r0, r4, lsl r0
 618:	000005a0 	andeq	r0, r0, r0, lsr #11
 61c:	0000957c 	andeq	r9, r0, ip, ror r5
 620:	0000002c 	andeq	r0, r0, ip, lsr #32
 624:	84080e42 	strhi	r0, [r8], #-3650	; 0xe42
 628:	00018e02 	andeq	r8, r1, r2, lsl #28
 62c:	00000014 	andeq	r0, r0, r4, lsl r0
 630:	000005a0 	andeq	r0, r0, r0, lsr #11
 634:	000095a8 	andeq	r9, r0, r8, lsr #11
 638:	0000000c 	andeq	r0, r0, ip
 63c:	83080e42 	movwhi	r0, #36418	; 0x8e42
 640:	00018e02 	andeq	r8, r1, r2, lsl #28
 644:	00000014 	andeq	r0, r0, r4, lsl r0
 648:	000005a0 	andeq	r0, r0, r0, lsr #11
 64c:	000095b4 			; <UNDEFINED> instruction: 0x000095b4
 650:	00000020 	andeq	r0, r0, r0, lsr #32
 654:	83080e42 	movwhi	r0, #36418	; 0x8e42
 658:	00018e02 	andeq	r8, r1, r2, lsl #28
